	.text
	.file	"biariencode.c"
	.globl	arienco_create_encoding_environment # -- Begin function arienco_create_encoding_environment
	.p2align	4, 0x90
	.type	arienco_create_encoding_environment,@function
arienco_create_encoding_environment:    # @arienco_create_encoding_environment
	.cfi_startproc
# %bb.0:                                # %entry
	pushq	%rbp
	.cfi_def_cfa_offset 16
	.cfi_offset %rbp, -16
	movq	%rsp, %rbp
	.cfi_def_cfa_register %rbp
	subq	$16, %rsp
	movl	$1, %edi
	movl	$104, %esi
	callq	calloc
	movq	%rax, -8(%rbp)
	cmpq	$0, %rax
	jne	.LBB0_2
# %bb.1:                                # %if.then
	movabsq	$.L.str, %rdi
	callq	no_mem_exit
.LBB0_2:                                # %if.end
	movq	-8(%rbp), %rax
	addq	$16, %rsp
	popq	%rbp
	.cfi_def_cfa %rsp, 8
	retq
.Lfunc_end0:
	.size	arienco_create_encoding_environment, .Lfunc_end0-arienco_create_encoding_environment
	.cfi_endproc
                                        # -- End function
	.globl	arienco_delete_encoding_environment # -- Begin function arienco_delete_encoding_environment
	.p2align	4, 0x90
	.type	arienco_delete_encoding_environment,@function
arienco_delete_encoding_environment:    # @arienco_delete_encoding_environment
	.cfi_startproc
# %bb.0:                                # %entry
	pushq	%rbp
	.cfi_def_cfa_offset 16
	.cfi_offset %rbp, -16
	movq	%rsp, %rbp
	.cfi_def_cfa_register %rbp
	subq	$16, %rsp
	movq	%rdi, -8(%rbp)
	cmpq	$0, -8(%rbp)
	jne	.LBB1_2
# %bb.1:                                # %if.then
	movabsq	$errortext, %rdi
	movl	$300, %esi              # imm = 0x12C
	movabsq	$.L.str.1, %rdx
	movb	$0, %al
	callq	snprintf
	movabsq	$errortext, %rdi
	movl	$200, %esi
	callq	error
	jmp	.LBB1_3
.LBB1_2:                                # %if.else
	movq	-8(%rbp), %rdi
	callq	free
.LBB1_3:                                # %if.end
	addq	$16, %rsp
	popq	%rbp
	.cfi_def_cfa %rsp, 8
	retq
.Lfunc_end1:
	.size	arienco_delete_encoding_environment, .Lfunc_end1-arienco_delete_encoding_environment
	.cfi_endproc
                                        # -- End function
	.globl	arienco_start_encoding  # -- Begin function arienco_start_encoding
	.p2align	4, 0x90
	.type	arienco_start_encoding,@function
arienco_start_encoding:                 # @arienco_start_encoding
	.cfi_startproc
# %bb.0:                                # %rand_bb
	pushq	%rbp
	.cfi_def_cfa_offset 16
	.cfi_offset %rbp, -16
	movq	%rsp, %rbp
	.cfi_def_cfa_register %rbp
	pushq	%r15
	pushq	%r14
	pushq	%r12
	pushq	%rbx
	.cfi_offset %rbx, -48
	.cfi_offset %r12, -40
	.cfi_offset %r14, -32
	.cfi_offset %r15, -24
	movl	%ecx, %r14d
	movq	%rdx, %r15
	movq	%rsi, %r12
	movq	%rdi, %rbx
	callq	get_rand
	cmpl	$0, %eax
	jne	.LBB2_9
# %bb.1:                                # %func_arienco_start_encoding.4
	movq	%rbx, %rdi
	movq	%r12, %rsi
	movq	%r15, %rdx
	movl	%r14d, %ecx
	callq	arienco_start_encoding.4
	popq	%rbx
	popq	%r12
	popq	%r14
	popq	%r15
	popq	%rbp
	.cfi_def_cfa %rsp, 8
	retq
.LBB2_2:                                # %func_arienco_start_encoding.15
	.cfi_def_cfa %rbp, 16
	movq	%rbx, %rdi
	movq	%r12, %rsi
	movq	%r15, %rdx
	movl	%r14d, %ecx
	callq	arienco_start_encoding.15
	popq	%rbx
	popq	%r12
	popq	%r14
	popq	%r15
	popq	%rbp
	.cfi_def_cfa %rsp, 8
	retq
.LBB2_3:                                # %func_arienco_start_encoding.21
	.cfi_def_cfa %rbp, 16
	movq	%rbx, %rdi
	movq	%r12, %rsi
	movq	%r15, %rdx
	movl	%r14d, %ecx
	callq	arienco_start_encoding.21
	popq	%rbx
	popq	%r12
	popq	%r14
	popq	%r15
	popq	%rbp
	.cfi_def_cfa %rsp, 8
	retq
.LBB2_4:                                # %func_arienco_start_encoding.26
	.cfi_def_cfa %rbp, 16
	movq	%rbx, %rdi
	movq	%r12, %rsi
	movq	%r15, %rdx
	movl	%r14d, %ecx
	callq	arienco_start_encoding.26
	popq	%rbx
	popq	%r12
	popq	%r14
	popq	%r15
	popq	%rbp
	.cfi_def_cfa %rsp, 8
	retq
.LBB2_5:                                # %func_arienco_start_encoding.30
	.cfi_def_cfa %rbp, 16
	movq	%rbx, %rdi
	movq	%r12, %rsi
	movq	%r15, %rdx
	movl	%r14d, %ecx
	callq	arienco_start_encoding.30
	popq	%rbx
	popq	%r12
	popq	%r14
	popq	%r15
	popq	%rbp
	.cfi_def_cfa %rsp, 8
	retq
.LBB2_6:                                # %func_arienco_start_encoding.34
	.cfi_def_cfa %rbp, 16
	movq	%rbx, %rdi
	movq	%r12, %rsi
	movq	%r15, %rdx
	movl	%r14d, %ecx
	callq	arienco_start_encoding.34
	popq	%rbx
	popq	%r12
	popq	%r14
	popq	%r15
	popq	%rbp
	.cfi_def_cfa %rsp, 8
	retq
.LBB2_7:                                # %func_arienco_start_encoding.35
	.cfi_def_cfa %rbp, 16
	movq	%rbx, %rdi
	movq	%r12, %rsi
	movq	%r15, %rdx
	movl	%r14d, %ecx
	callq	arienco_start_encoding.35
	popq	%rbx
	popq	%r12
	popq	%r14
	popq	%r15
	popq	%rbp
	.cfi_def_cfa %rsp, 8
	retq
.LBB2_8:                                # %func_arienco_start_encoding.36
	.cfi_def_cfa %rbp, 16
	movq	%rbx, %rdi
	movq	%r12, %rsi
	movq	%r15, %rdx
	movl	%r14d, %ecx
	callq	arienco_start_encoding.36
	popq	%rbx
	popq	%r12
	popq	%r14
	popq	%r15
	popq	%rbp
	.cfi_def_cfa %rsp, 8
	retq
.LBB2_9:                                # %ctrl0
	.cfi_def_cfa %rbp, 16
	cmpl	$1, %eax
	je	.LBB2_2
# %bb.10:                               # %ctrl1
	cmpl	$2, %eax
	je	.LBB2_3
# %bb.11:                               # %ctrl2
	cmpl	$3, %eax
	je	.LBB2_4
# %bb.12:                               # %ctrl3
	cmpl	$4, %eax
	je	.LBB2_5
# %bb.13:                               # %ctrl4
	cmpl	$5, %eax
	je	.LBB2_6
# %bb.14:                               # %ctrl5
	cmpl	$6, %eax
	je	.LBB2_7
	jmp	.LBB2_8
.Lfunc_end2:
	.size	arienco_start_encoding, .Lfunc_end2-arienco_start_encoding
	.cfi_endproc
                                        # -- End function
	.globl	arienco_bits_written    # -- Begin function arienco_bits_written
	.p2align	4, 0x90
	.type	arienco_bits_written,@function
arienco_bits_written:                   # @arienco_bits_written
	.cfi_startproc
# %bb.0:                                # %entry
	pushq	%rbp
	.cfi_def_cfa_offset 16
	.cfi_offset %rbp, -16
	movq	%rsp, %rbp
	.cfi_def_cfa_register %rbp
	movq	%rdi, -8(%rbp)
	movq	-8(%rbp), %rax
	movq	32(%rax), %rax
	movl	(%rax), %eax
	shll	$3, %eax
	movq	-8(%rbp), %rcx
	addl	16(%rcx), %eax
	addl	$8, %eax
	movq	-8(%rbp), %rcx
	subl	12(%rcx), %eax
	popq	%rbp
	.cfi_def_cfa %rsp, 8
	retq
.Lfunc_end3:
	.size	arienco_bits_written, .Lfunc_end3-arienco_bits_written
	.cfi_endproc
                                        # -- End function
	.globl	arienco_done_encoding   # -- Begin function arienco_done_encoding
	.p2align	4, 0x90
	.type	arienco_done_encoding,@function
arienco_done_encoding:                  # @arienco_done_encoding
	.cfi_startproc
# %bb.0:                                # %entry
	pushq	%rbp
	.cfi_def_cfa_offset 16
	.cfi_offset %rbp, -16
	movq	%rsp, %rbp
	.cfi_def_cfa_register %rbp
	movq	%rdi, -8(%rbp)
	movq	-8(%rbp), %rax
	movl	8(%rax), %ecx
	shll	$1, %ecx
	movl	%ecx, 8(%rax)
	movq	-8(%rbp), %rax
	movl	(%rax), %eax
	shrl	$9, %eax
	andl	$1, %eax
	movq	-8(%rbp), %rcx
	orl	8(%rcx), %eax
	movl	%eax, 8(%rcx)
	movq	-8(%rbp), %rax
	movl	12(%rax), %ecx
	addl	$-1, %ecx
	movl	%ecx, 12(%rax)
	cmpl	$0, %ecx
	jne	.LBB4_5
# %bb.1:                                # %if.then
	movq	-8(%rbp), %rax
	movl	8(%rax), %eax
	movq	-8(%rbp), %rcx
	movq	24(%rcx), %rcx
	movq	-8(%rbp), %rdx
	movq	32(%rdx), %rdx
	movl	(%rdx), %esi
	movl	%esi, %edi
	addl	$1, %edi
	movl	%edi, (%rdx)
	movslq	%esi, %rdx
	movb	%al, (%rcx,%rdx)
	movq	-8(%rbp), %rax
	movl	$8, 12(%rax)
.LBB4_2:                                # %while.cond
                                        # =>This Inner Loop Header: Depth=1
	movq	-8(%rbp), %rax
	cmpl	$7, 80(%rax)
	jle	.LBB4_4
# %bb.3:                                # %while.body
                                        #   in Loop: Header=BB4_2 Depth=1
	movq	-8(%rbp), %rax
	movl	80(%rax), %ecx
	subl	$8, %ecx
	movl	%ecx, 80(%rax)
	movq	-8(%rbp), %rax
	movl	88(%rax), %ecx
	addl	$1, %ecx
	movl	%ecx, 88(%rax)
	jmp	.LBB4_2
.LBB4_4:                                # %while.end
	jmp	.LBB4_5
.LBB4_5:                                # %if.end
	jmp	.LBB4_6
.LBB4_6:                                # %while.cond8
                                        # =>This Loop Header: Depth=1
                                        #     Child Loop BB4_9 Depth 2
	movq	-8(%rbp), %rax
	cmpl	$0, 16(%rax)
	jbe	.LBB4_13
# %bb.7:                                # %while.body11
                                        #   in Loop: Header=BB4_6 Depth=1
	movq	-8(%rbp), %rax
	movl	16(%rax), %ecx
	addl	$-1, %ecx
	movl	%ecx, 16(%rax)
	movq	-8(%rbp), %rax
	movl	8(%rax), %ecx
	shll	$1, %ecx
	movl	%ecx, 8(%rax)
	movq	-8(%rbp), %rax
	movl	(%rax), %eax
	shrl	$9, %eax
	andl	$1, %eax
	cmpl	$0, %eax
	setne	%al
	xorb	$-1, %al
	andb	$1, %al
	movzbl	%al, %eax
	movq	-8(%rbp), %rcx
	orl	8(%rcx), %eax
	movl	%eax, 8(%rcx)
	movq	-8(%rbp), %rax
	movl	12(%rax), %ecx
	addl	$-1, %ecx
	movl	%ecx, 12(%rax)
	cmpl	$0, %ecx
	jne	.LBB4_12
# %bb.8:                                # %if.then25
                                        #   in Loop: Header=BB4_6 Depth=1
	movq	-8(%rbp), %rax
	movl	8(%rax), %eax
	movq	-8(%rbp), %rcx
	movq	24(%rcx), %rcx
	movq	-8(%rbp), %rdx
	movq	32(%rdx), %rdx
	movl	(%rdx), %esi
	movl	%esi, %edi
	addl	$1, %edi
	movl	%edi, (%rdx)
	movslq	%esi, %rdx
	movb	%al, (%rcx,%rdx)
	movq	-8(%rbp), %rax
	movl	$8, 12(%rax)
.LBB4_9:                                # %while.cond34
                                        #   Parent Loop BB4_6 Depth=1
                                        # =>  This Inner Loop Header: Depth=2
	movq	-8(%rbp), %rax
	cmpl	$7, 80(%rax)
	jle	.LBB4_11
# %bb.10:                               # %while.body38
                                        #   in Loop: Header=BB4_9 Depth=2
	movq	-8(%rbp), %rax
	movl	80(%rax), %ecx
	subl	$8, %ecx
	movl	%ecx, 80(%rax)
	movq	-8(%rbp), %rax
	movl	88(%rax), %ecx
	addl	$1, %ecx
	movl	%ecx, 88(%rax)
	jmp	.LBB4_9
.LBB4_11:                               # %while.end43
                                        #   in Loop: Header=BB4_6 Depth=1
	jmp	.LBB4_12
.LBB4_12:                               # %if.end44
                                        #   in Loop: Header=BB4_6 Depth=1
	jmp	.LBB4_6
.LBB4_13:                               # %while.end45
	movq	-8(%rbp), %rax
	movl	8(%rax), %ecx
	shll	$1, %ecx
	movl	%ecx, 8(%rax)
	movq	-8(%rbp), %rax
	movl	(%rax), %eax
	shrl	$8, %eax
	andl	$1, %eax
	movq	-8(%rbp), %rcx
	orl	8(%rcx), %eax
	movl	%eax, 8(%rcx)
	movq	-8(%rbp), %rax
	movl	12(%rax), %ecx
	addl	$-1, %ecx
	movl	%ecx, 12(%rax)
	cmpl	$0, %ecx
	jne	.LBB4_18
# %bb.14:                               # %if.then57
	movq	-8(%rbp), %rax
	movl	8(%rax), %eax
	movq	-8(%rbp), %rcx
	movq	24(%rcx), %rcx
	movq	-8(%rbp), %rdx
	movq	32(%rdx), %rdx
	movl	(%rdx), %esi
	movl	%esi, %edi
	addl	$1, %edi
	movl	%edi, (%rdx)
	movslq	%esi, %rdx
	movb	%al, (%rcx,%rdx)
	movq	-8(%rbp), %rax
	movl	$8, 12(%rax)
.LBB4_15:                               # %while.cond66
                                        # =>This Inner Loop Header: Depth=1
	movq	-8(%rbp), %rax
	cmpl	$7, 80(%rax)
	jle	.LBB4_17
# %bb.16:                               # %while.body70
                                        #   in Loop: Header=BB4_15 Depth=1
	movq	-8(%rbp), %rax
	movl	80(%rax), %ecx
	subl	$8, %ecx
	movl	%ecx, 80(%rax)
	movq	-8(%rbp), %rax
	movl	88(%rax), %ecx
	addl	$1, %ecx
	movl	%ecx, 88(%rax)
	jmp	.LBB4_15
.LBB4_17:                               # %while.end75
	jmp	.LBB4_18
.LBB4_18:                               # %if.end76
	movq	-8(%rbp), %rax
	movl	8(%rax), %ecx
	shll	$1, %ecx
	movl	%ecx, 8(%rax)
	movq	-8(%rbp), %rax
	movl	8(%rax), %ecx
	orl	$1, %ecx
	movl	%ecx, 8(%rax)
	movq	-8(%rbp), %rax
	movl	12(%rax), %ecx
	addl	$-1, %ecx
	movl	%ecx, 12(%rax)
	cmpl	$0, %ecx
	jne	.LBB4_23
# %bb.19:                               # %if.then85
	movq	-8(%rbp), %rax
	movl	8(%rax), %eax
	movq	-8(%rbp), %rcx
	movq	24(%rcx), %rcx
	movq	-8(%rbp), %rdx
	movq	32(%rdx), %rdx
	movl	(%rdx), %esi
	movl	%esi, %edi
	addl	$1, %edi
	movl	%edi, (%rdx)
	movslq	%esi, %rdx
	movb	%al, (%rcx,%rdx)
	movq	-8(%rbp), %rax
	movl	$8, 12(%rax)
.LBB4_20:                               # %while.cond94
                                        # =>This Inner Loop Header: Depth=1
	movq	-8(%rbp), %rax
	cmpl	$7, 80(%rax)
	jle	.LBB4_22
# %bb.21:                               # %while.body98
                                        #   in Loop: Header=BB4_20 Depth=1
	movq	-8(%rbp), %rax
	movl	80(%rax), %ecx
	subl	$8, %ecx
	movl	%ecx, 80(%rax)
	movq	-8(%rbp), %rax
	movl	88(%rax), %ecx
	addl	$1, %ecx
	movl	%ecx, 88(%rax)
	jmp	.LBB4_20
.LBB4_22:                               # %while.end103
	jmp	.LBB4_23
.LBB4_23:                               # %if.end104
	movq	-8(%rbp), %rax
	movl	$8, %ecx
	subl	12(%rax), %ecx
	movq	stats, %rax
	movq	img, %rdx
	movslq	24(%rdx), %rdx
	addl	1328(%rax,%rdx,4), %ecx
	movl	%ecx, 1328(%rax,%rdx,4)
.LBB4_24:                               # %while.cond109
                                        # =>This Loop Header: Depth=1
                                        #     Child Loop BB4_27 Depth 2
	movq	-8(%rbp), %rax
	cmpl	$8, 12(%rax)
	je	.LBB4_31
# %bb.25:                               # %while.body113
                                        #   in Loop: Header=BB4_24 Depth=1
	movq	-8(%rbp), %rax
	movl	8(%rax), %ecx
	shll	$1, %ecx
	movl	%ecx, 8(%rax)
	movq	-8(%rbp), %rax
	movl	8(%rax), %ecx
	movl	%ecx, 8(%rax)
	movq	-8(%rbp), %rax
	movl	12(%rax), %ecx
	addl	$-1, %ecx
	movl	%ecx, 12(%rax)
	cmpl	$0, %ecx
	jne	.LBB4_30
# %bb.26:                               # %if.then121
                                        #   in Loop: Header=BB4_24 Depth=1
	movq	-8(%rbp), %rax
	movl	8(%rax), %eax
	movq	-8(%rbp), %rcx
	movq	24(%rcx), %rcx
	movq	-8(%rbp), %rdx
	movq	32(%rdx), %rdx
	movl	(%rdx), %esi
	movl	%esi, %edi
	addl	$1, %edi
	movl	%edi, (%rdx)
	movslq	%esi, %rdx
	movb	%al, (%rcx,%rdx)
	movq	-8(%rbp), %rax
	movl	$8, 12(%rax)
.LBB4_27:                               # %while.cond130
                                        #   Parent Loop BB4_24 Depth=1
                                        # =>  This Inner Loop Header: Depth=2
	movq	-8(%rbp), %rax
	cmpl	$7, 80(%rax)
	jle	.LBB4_29
# %bb.28:                               # %while.body134
                                        #   in Loop: Header=BB4_27 Depth=2
	movq	-8(%rbp), %rax
	movl	80(%rax), %ecx
	subl	$8, %ecx
	movl	%ecx, 80(%rax)
	movq	-8(%rbp), %rax
	movl	88(%rax), %ecx
	addl	$1, %ecx
	movl	%ecx, 88(%rax)
	jmp	.LBB4_27
.LBB4_29:                               # %while.end139
                                        #   in Loop: Header=BB4_24 Depth=1
	jmp	.LBB4_30
.LBB4_30:                               # %if.end140
                                        #   in Loop: Header=BB4_24 Depth=1
	jmp	.LBB4_24
.LBB4_31:                               # %while.end141
	movq	-8(%rbp), %rax
	movl	88(%rax), %eax
	shll	$3, %eax
	movq	-8(%rbp), %rcx
	addl	80(%rcx), %eax
	movq	-8(%rbp), %rcx
	movl	%eax, 88(%rcx)
	movq	-8(%rbp), %rax
	movq	32(%rax), %rax
	movl	(%rax), %eax
	movq	-8(%rbp), %rcx
	subl	96(%rcx), %eax
	movq	-8(%rbp), %rcx
	movl	%eax, 96(%rcx)
	movq	img, %rax
	movl	12(%rax), %eax
	movq	img, %rcx
	movq	14160(%rcx), %rcx
	subl	12(%rcx), %eax
	movq	-8(%rbp), %rcx
	movl	88(%rcx), %edx
	subl	%eax, %edx
	movl	%edx, 88(%rcx)
	movq	-8(%rbp), %rax
	movl	88(%rax), %eax
	addl	$31, %eax
	sarl	$5, %eax
	movq	-8(%rbp), %rcx
	movl	%eax, 88(%rcx)
	popq	%rbp
	.cfi_def_cfa %rsp, 8
	retq
.Lfunc_end4:
	.size	arienco_done_encoding, .Lfunc_end4-arienco_done_encoding
	.cfi_endproc
                                        # -- End function
	.globl	biari_encode_symbol     # -- Begin function biari_encode_symbol
	.p2align	4, 0x90
	.type	biari_encode_symbol,@function
biari_encode_symbol:                    # @biari_encode_symbol
	.cfi_startproc
# %bb.0:                                # %rand_bb
	pushq	%rbp
	.cfi_def_cfa_offset 16
	.cfi_offset %rbp, -16
	movq	%rsp, %rbp
	.cfi_def_cfa_register %rbp
	pushq	%r15
	pushq	%r14
	pushq	%rbx
	pushq	%rax
	.cfi_offset %rbx, -40
	.cfi_offset %r14, -32
	.cfi_offset %r15, -24
	movq	%rdx, %r14
	movl	%esi, %r15d
	movq	%rdi, %rbx
	callq	get_rand
	cmpl	$0, %eax
	jne	.LBB5_9
# %bb.1:                                # %func_biari_encode_symbol.1
	movq	%rbx, %rdi
	movswl	%r15w, %esi
	movq	%r14, %rdx
	callq	biari_encode_symbol.1
	addq	$8, %rsp
	popq	%rbx
	popq	%r14
	popq	%r15
	popq	%rbp
	.cfi_def_cfa %rsp, 8
	retq
.LBB5_2:                                # %func_biari_encode_symbol.5
	.cfi_def_cfa %rbp, 16
	movq	%rbx, %rdi
	movswl	%r15w, %esi
	movq	%r14, %rdx
	callq	biari_encode_symbol.5
	addq	$8, %rsp
	popq	%rbx
	popq	%r14
	popq	%r15
	popq	%rbp
	.cfi_def_cfa %rsp, 8
	retq
.LBB5_3:                                # %func_biari_encode_symbol.6
	.cfi_def_cfa %rbp, 16
	movq	%rbx, %rdi
	movswl	%r15w, %esi
	movq	%r14, %rdx
	callq	biari_encode_symbol.6
	addq	$8, %rsp
	popq	%rbx
	popq	%r14
	popq	%r15
	popq	%rbp
	.cfi_def_cfa %rsp, 8
	retq
.LBB5_4:                                # %func_biari_encode_symbol.9
	.cfi_def_cfa %rbp, 16
	movq	%rbx, %rdi
	movswl	%r15w, %esi
	movq	%r14, %rdx
	callq	biari_encode_symbol.9
	addq	$8, %rsp
	popq	%rbx
	popq	%r14
	popq	%r15
	popq	%rbp
	.cfi_def_cfa %rsp, 8
	retq
.LBB5_5:                                # %func_biari_encode_symbol.10
	.cfi_def_cfa %rbp, 16
	movq	%rbx, %rdi
	movswl	%r15w, %esi
	movq	%r14, %rdx
	callq	biari_encode_symbol.10
	addq	$8, %rsp
	popq	%rbx
	popq	%r14
	popq	%r15
	popq	%rbp
	.cfi_def_cfa %rsp, 8
	retq
.LBB5_6:                                # %func_biari_encode_symbol.20
	.cfi_def_cfa %rbp, 16
	movq	%rbx, %rdi
	movswl	%r15w, %esi
	movq	%r14, %rdx
	callq	biari_encode_symbol.20
	addq	$8, %rsp
	popq	%rbx
	popq	%r14
	popq	%r15
	popq	%rbp
	.cfi_def_cfa %rsp, 8
	retq
.LBB5_7:                                # %func_biari_encode_symbol.22
	.cfi_def_cfa %rbp, 16
	movq	%rbx, %rdi
	movswl	%r15w, %esi
	movq	%r14, %rdx
	callq	biari_encode_symbol.22
	addq	$8, %rsp
	popq	%rbx
	popq	%r14
	popq	%r15
	popq	%rbp
	.cfi_def_cfa %rsp, 8
	retq
.LBB5_8:                                # %func_biari_encode_symbol.29
	.cfi_def_cfa %rbp, 16
	movq	%rbx, %rdi
	movswl	%r15w, %esi
	movq	%r14, %rdx
	callq	biari_encode_symbol.29
	addq	$8, %rsp
	popq	%rbx
	popq	%r14
	popq	%r15
	popq	%rbp
	.cfi_def_cfa %rsp, 8
	retq
.LBB5_9:                                # %ctrl0
	.cfi_def_cfa %rbp, 16
	cmpl	$1, %eax
	je	.LBB5_2
# %bb.10:                               # %ctrl1
	cmpl	$2, %eax
	je	.LBB5_3
# %bb.11:                               # %ctrl2
	cmpl	$3, %eax
	je	.LBB5_4
# %bb.12:                               # %ctrl3
	cmpl	$4, %eax
	je	.LBB5_5
# %bb.13:                               # %ctrl4
	cmpl	$5, %eax
	je	.LBB5_6
# %bb.14:                               # %ctrl5
	cmpl	$6, %eax
	je	.LBB5_7
	jmp	.LBB5_8
.Lfunc_end5:
	.size	biari_encode_symbol, .Lfunc_end5-biari_encode_symbol
	.cfi_endproc
                                        # -- End function
	.globl	biari_encode_symbol_eq_prob # -- Begin function biari_encode_symbol_eq_prob
	.p2align	4, 0x90
	.type	biari_encode_symbol_eq_prob,@function
biari_encode_symbol_eq_prob:            # @biari_encode_symbol_eq_prob
	.cfi_startproc
# %bb.0:                                # %rand_bb
	pushq	%rbp
	.cfi_def_cfa_offset 16
	.cfi_offset %rbp, -16
	movq	%rsp, %rbp
	.cfi_def_cfa_register %rbp
	pushq	%r14
	pushq	%rbx
	.cfi_offset %rbx, -32
	.cfi_offset %r14, -24
	movl	%esi, %r14d
	movq	%rdi, %rbx
	callq	get_rand
	cmpl	$0, %eax
	jne	.LBB6_7
# %bb.1:                                # %func_biari_encode_symbol_eq_prob.14
	movq	%rbx, %rdi
	movswl	%r14w, %esi
	callq	biari_encode_symbol_eq_prob.14
	popq	%rbx
	popq	%r14
	popq	%rbp
	.cfi_def_cfa %rsp, 8
	retq
.LBB6_2:                                # %func_biari_encode_symbol_eq_prob.18
	.cfi_def_cfa %rbp, 16
	movq	%rbx, %rdi
	movswl	%r14w, %esi
	callq	biari_encode_symbol_eq_prob.18
	popq	%rbx
	popq	%r14
	popq	%rbp
	.cfi_def_cfa %rsp, 8
	retq
.LBB6_3:                                # %func_biari_encode_symbol_eq_prob.23
	.cfi_def_cfa %rbp, 16
	movq	%rbx, %rdi
	movswl	%r14w, %esi
	callq	biari_encode_symbol_eq_prob.23
	popq	%rbx
	popq	%r14
	popq	%rbp
	.cfi_def_cfa %rsp, 8
	retq
.LBB6_4:                                # %func_biari_encode_symbol_eq_prob.25
	.cfi_def_cfa %rbp, 16
	movq	%rbx, %rdi
	movswl	%r14w, %esi
	callq	biari_encode_symbol_eq_prob.25
	popq	%rbx
	popq	%r14
	popq	%rbp
	.cfi_def_cfa %rsp, 8
	retq
.LBB6_5:                                # %func_biari_encode_symbol_eq_prob.28
	.cfi_def_cfa %rbp, 16
	movq	%rbx, %rdi
	movswl	%r14w, %esi
	callq	biari_encode_symbol_eq_prob.28
	popq	%rbx
	popq	%r14
	popq	%rbp
	.cfi_def_cfa %rsp, 8
	retq
.LBB6_6:                                # %func_biari_encode_symbol_eq_prob.31
	.cfi_def_cfa %rbp, 16
	movq	%rbx, %rdi
	movswl	%r14w, %esi
	callq	biari_encode_symbol_eq_prob.31
	popq	%rbx
	popq	%r14
	popq	%rbp
	.cfi_def_cfa %rsp, 8
	retq
.LBB6_7:                                # %ctrl0
	.cfi_def_cfa %rbp, 16
	cmpl	$1, %eax
	je	.LBB6_2
# %bb.8:                                # %ctrl1
	cmpl	$2, %eax
	je	.LBB6_3
# %bb.9:                                # %ctrl2
	cmpl	$3, %eax
	je	.LBB6_4
# %bb.10:                               # %ctrl3
	cmpl	$4, %eax
	je	.LBB6_5
	jmp	.LBB6_6
.Lfunc_end6:
	.size	biari_encode_symbol_eq_prob, .Lfunc_end6-biari_encode_symbol_eq_prob
	.cfi_endproc
                                        # -- End function
	.globl	biari_encode_symbol_final # -- Begin function biari_encode_symbol_final
	.p2align	4, 0x90
	.type	biari_encode_symbol_final,@function
biari_encode_symbol_final:              # @biari_encode_symbol_final
	.cfi_startproc
# %bb.0:                                # %rand_bb
	pushq	%rbp
	.cfi_def_cfa_offset 16
	.cfi_offset %rbp, -16
	movq	%rsp, %rbp
	.cfi_def_cfa_register %rbp
	pushq	%r14
	pushq	%rbx
	.cfi_offset %rbx, -32
	.cfi_offset %r14, -24
	movl	%esi, %r14d
	movq	%rdi, %rbx
	callq	get_rand
	cmpl	$0, %eax
	jne	.LBB7_9
# %bb.1:                                # %func_biari_encode_symbol_final.8
	movq	%rbx, %rdi
	movswl	%r14w, %esi
	callq	biari_encode_symbol_final.8
	popq	%rbx
	popq	%r14
	popq	%rbp
	.cfi_def_cfa %rsp, 8
	retq
.LBB7_2:                                # %func_biari_encode_symbol_final.11
	.cfi_def_cfa %rbp, 16
	movq	%rbx, %rdi
	movswl	%r14w, %esi
	callq	biari_encode_symbol_final.11
	popq	%rbx
	popq	%r14
	popq	%rbp
	.cfi_def_cfa %rsp, 8
	retq
.LBB7_3:                                # %func_biari_encode_symbol_final.16
	.cfi_def_cfa %rbp, 16
	movq	%rbx, %rdi
	movswl	%r14w, %esi
	callq	biari_encode_symbol_final.16
	popq	%rbx
	popq	%r14
	popq	%rbp
	.cfi_def_cfa %rsp, 8
	retq
.LBB7_4:                                # %func_biari_encode_symbol_final.19
	.cfi_def_cfa %rbp, 16
	movq	%rbx, %rdi
	movswl	%r14w, %esi
	callq	biari_encode_symbol_final.19
	popq	%rbx
	popq	%r14
	popq	%rbp
	.cfi_def_cfa %rsp, 8
	retq
.LBB7_5:                                # %func_biari_encode_symbol_final.24
	.cfi_def_cfa %rbp, 16
	movq	%rbx, %rdi
	movswl	%r14w, %esi
	callq	biari_encode_symbol_final.24
	popq	%rbx
	popq	%r14
	popq	%rbp
	.cfi_def_cfa %rsp, 8
	retq
.LBB7_6:                                # %func_biari_encode_symbol_final.27
	.cfi_def_cfa %rbp, 16
	movq	%rbx, %rdi
	movswl	%r14w, %esi
	callq	biari_encode_symbol_final.27
	popq	%rbx
	popq	%r14
	popq	%rbp
	.cfi_def_cfa %rsp, 8
	retq
.LBB7_7:                                # %func_biari_encode_symbol_final.32
	.cfi_def_cfa %rbp, 16
	movq	%rbx, %rdi
	movswl	%r14w, %esi
	callq	biari_encode_symbol_final.32
	popq	%rbx
	popq	%r14
	popq	%rbp
	.cfi_def_cfa %rsp, 8
	retq
.LBB7_8:                                # %func_biari_encode_symbol_final.33
	.cfi_def_cfa %rbp, 16
	movq	%rbx, %rdi
	movswl	%r14w, %esi
	callq	biari_encode_symbol_final.33
	popq	%rbx
	popq	%r14
	popq	%rbp
	.cfi_def_cfa %rsp, 8
	retq
.LBB7_9:                                # %ctrl0
	.cfi_def_cfa %rbp, 16
	cmpl	$1, %eax
	je	.LBB7_2
# %bb.10:                               # %ctrl1
	cmpl	$2, %eax
	je	.LBB7_3
# %bb.11:                               # %ctrl2
	cmpl	$3, %eax
	je	.LBB7_4
# %bb.12:                               # %ctrl3
	cmpl	$4, %eax
	je	.LBB7_5
# %bb.13:                               # %ctrl4
	cmpl	$5, %eax
	je	.LBB7_6
# %bb.14:                               # %ctrl5
	cmpl	$6, %eax
	je	.LBB7_7
	jmp	.LBB7_8
.Lfunc_end7:
	.size	biari_encode_symbol_final, .Lfunc_end7-biari_encode_symbol_final
	.cfi_endproc
                                        # -- End function
	.globl	biari_init_context      # -- Begin function biari_init_context
	.p2align	4, 0x90
	.type	biari_init_context,@function
biari_init_context:                     # @biari_init_context
	.cfi_startproc
# %bb.0:                                # %rand_bb
	pushq	%rbp
	.cfi_def_cfa_offset 16
	.cfi_offset %rbp, -16
	movq	%rsp, %rbp
	.cfi_def_cfa_register %rbp
	pushq	%r14
	pushq	%rbx
	.cfi_offset %rbx, -32
	.cfi_offset %r14, -24
	movq	%rsi, %r14
	movq	%rdi, %rbx
	callq	get_rand
	cmpl	$0, %eax
	jne	.LBB8_7
# %bb.1:                                # %func_biari_init_context.2
	movq	%rbx, %rdi
	movq	%r14, %rsi
	callq	biari_init_context.2
	popq	%rbx
	popq	%r14
	popq	%rbp
	.cfi_def_cfa %rsp, 8
	retq
.LBB8_2:                                # %func_biari_init_context.3
	.cfi_def_cfa %rbp, 16
	movq	%rbx, %rdi
	movq	%r14, %rsi
	callq	biari_init_context.3
	popq	%rbx
	popq	%r14
	popq	%rbp
	.cfi_def_cfa %rsp, 8
	retq
.LBB8_3:                                # %func_biari_init_context.7
	.cfi_def_cfa %rbp, 16
	movq	%rbx, %rdi
	movq	%r14, %rsi
	callq	biari_init_context.7
	popq	%rbx
	popq	%r14
	popq	%rbp
	.cfi_def_cfa %rsp, 8
	retq
.LBB8_4:                                # %func_biari_init_context.12
	.cfi_def_cfa %rbp, 16
	movq	%rbx, %rdi
	movq	%r14, %rsi
	callq	biari_init_context.12
	popq	%rbx
	popq	%r14
	popq	%rbp
	.cfi_def_cfa %rsp, 8
	retq
.LBB8_5:                                # %func_biari_init_context.13
	.cfi_def_cfa %rbp, 16
	movq	%rbx, %rdi
	movq	%r14, %rsi
	callq	biari_init_context.13
	popq	%rbx
	popq	%r14
	popq	%rbp
	.cfi_def_cfa %rsp, 8
	retq
.LBB8_6:                                # %func_biari_init_context.17
	.cfi_def_cfa %rbp, 16
	movq	%rbx, %rdi
	movq	%r14, %rsi
	callq	biari_init_context.17
	popq	%rbx
	popq	%r14
	popq	%rbp
	.cfi_def_cfa %rsp, 8
	retq
.LBB8_7:                                # %ctrl0
	.cfi_def_cfa %rbp, 16
	cmpl	$1, %eax
	je	.LBB8_2
# %bb.8:                                # %ctrl1
	cmpl	$2, %eax
	je	.LBB8_3
# %bb.9:                                # %ctrl2
	cmpl	$3, %eax
	je	.LBB8_4
# %bb.10:                               # %ctrl3
	cmpl	$4, %eax
	je	.LBB8_5
	jmp	.LBB8_6
.Lfunc_end8:
	.size	biari_init_context, .Lfunc_end8-biari_init_context
	.cfi_endproc
                                        # -- End function
	.globl	biari_encode_symbol.1   # -- Begin function biari_encode_symbol.1
	.p2align	4, 0x90
	.type	biari_encode_symbol.1,@function
biari_encode_symbol.1:                  # @biari_encode_symbol.1
	.cfi_startproc
# %bb.0:                                # %entry
	pushq	%rbp
	.cfi_def_cfa_offset 16
	.cfi_offset %rbp, -16
	movq	%rsp, %rbp
	.cfi_def_cfa_register %rbp
	subq	$48, %rsp
	movl	$1049148070, -40(%rbp)  # imm = 0x3E88BAA6
	movq	%rdi, -8(%rbp)
	movw	%si, -18(%rbp)
	movq	%rdx, -32(%rbp)
	movq	-8(%rbp), %rax
	movl	4(%rax), %eax
	movl	%eax, -16(%rbp)
	movq	-8(%rbp), %rax
	movl	(%rax), %eax
	movl	%eax, -12(%rbp)
	movq	-32(%rbp), %rax
	movzwl	(%rax), %eax
	shlq	$2, %rax
	movabsq	$rLPS_table_64x4, %rcx
	addq	%rax, %rcx
	movl	-16(%rbp), %eax
	shrl	$6, %eax
	andl	$3, %eax
	movl	%eax, %eax
	movzbl	(%rcx,%rax), %eax
	movl	%eax, -36(%rbp)
	cmpl	$0, cabac_encoding
	je	.LBB9_2
# %bb.1:                                # %if.then
	movq	-32(%rbp), %rax
	movq	8(%rax), %rcx
	addq	$1, %rcx
	movq	%rcx, 8(%rax)
.LBB9_2:                                # %if.end
	movswl	-18(%rbp), %eax
	cmpl	$0, %eax
	je	.LBB9_4
# %bb.3:                                # %if.then5
	movw	$1, -18(%rbp)
.LBB9_4:                                # %if.end6
	movl	-36(%rbp), %eax
	movl	-16(%rbp), %ecx
	subl	%eax, %ecx
	movl	%ecx, -16(%rbp)
	movswl	-18(%rbp), %eax
	movq	-32(%rbp), %rcx
	movzbl	2(%rcx), %ecx
	cmpl	%ecx, %eax
	je	.LBB9_8
# %bb.5:                                # %if.then11
	movl	-16(%rbp), %eax
	addl	-12(%rbp), %eax
	movl	%eax, -12(%rbp)
	movl	-36(%rbp), %eax
	movl	%eax, -16(%rbp)
	movq	-32(%rbp), %rax
	cmpw	$0, (%rax)
	jne	.LBB9_7
# %bb.6:                                # %if.then14
	movq	-32(%rbp), %rax
	movzbl	2(%rax), %eax
	xorl	$1, %eax
	movq	-32(%rbp), %rcx
	movb	%al, 2(%rcx)
.LBB9_7:                                # %if.end19
	movq	-32(%rbp), %rax
	movzwl	(%rax), %eax
	movw	AC_next_state_LPS_64(,%rax,2), %ax
	movq	-32(%rbp), %rcx
	movw	%ax, (%rcx)
	jmp	.LBB9_9
.LBB9_8:                                # %if.else
	movq	-32(%rbp), %rax
	movzwl	(%rax), %eax
	movw	AC_next_state_MPS_64(,%rax,2), %ax
	movq	-32(%rbp), %rcx
	movw	%ax, (%rcx)
.LBB9_9:                                # %if.end28
	jmp	.LBB9_10
.LBB9_10:                               # %while.cond
                                        # =>This Loop Header: Depth=1
                                        #     Child Loop BB9_14 Depth 2
                                        #     Child Loop BB9_18 Depth 2
                                        #       Child Loop BB9_21 Depth 3
                                        #     Child Loop BB9_29 Depth 2
                                        #     Child Loop BB9_33 Depth 2
                                        #       Child Loop BB9_36 Depth 3
	cmpl	$256, -16(%rbp)         # imm = 0x100
	jae	.LBB9_44
# %bb.11:                               # %while.body
                                        #   in Loop: Header=BB9_10 Depth=1
	cmpl	$512, -12(%rbp)         # imm = 0x200
	jb	.LBB9_26
# %bb.12:                               # %if.then33
                                        #   in Loop: Header=BB9_10 Depth=1
	movq	-8(%rbp), %rax
	movl	8(%rax), %ecx
	shll	$1, %ecx
	movl	%ecx, 8(%rax)
	movq	-8(%rbp), %rax
	movl	8(%rax), %ecx
	orl	$1, %ecx
	movl	%ecx, 8(%rax)
	movq	-8(%rbp), %rax
	movl	12(%rax), %ecx
	addl	$-1, %ecx
	movl	%ecx, 12(%rax)
	cmpl	$0, %ecx
	jne	.LBB9_17
# %bb.13:                               # %if.then37
                                        #   in Loop: Header=BB9_10 Depth=1
	movq	-8(%rbp), %rax
	movl	8(%rax), %eax
	movq	-8(%rbp), %rcx
	movq	24(%rcx), %rcx
	movq	-8(%rbp), %rdx
	movq	32(%rdx), %rdx
	movl	(%rdx), %esi
	movl	%esi, %edi
	addl	$1, %edi
	movl	%edi, (%rdx)
	movslq	%esi, %rdx
	movb	%al, (%rcx,%rdx)
	movq	-8(%rbp), %rax
	movl	$8, 12(%rax)
.LBB9_14:                               # %while.cond44
                                        #   Parent Loop BB9_10 Depth=1
                                        # =>  This Inner Loop Header: Depth=2
	movq	-8(%rbp), %rax
	cmpl	$7, 80(%rax)
	jle	.LBB9_16
# %bb.15:                               # %while.body47
                                        #   in Loop: Header=BB9_14 Depth=2
	movq	-8(%rbp), %rax
	movl	80(%rax), %ecx
	subl	$8, %ecx
	movl	%ecx, 80(%rax)
	movq	-8(%rbp), %rax
	movl	88(%rax), %ecx
	addl	$1, %ecx
	movl	%ecx, 88(%rax)
	jmp	.LBB9_14
.LBB9_16:                               # %while.end
                                        #   in Loop: Header=BB9_10 Depth=1
	jmp	.LBB9_17
.LBB9_17:                               # %if.end51
                                        #   in Loop: Header=BB9_10 Depth=1
	jmp	.LBB9_18
.LBB9_18:                               # %while.cond52
                                        #   Parent Loop BB9_10 Depth=1
                                        # =>  This Loop Header: Depth=2
                                        #       Child Loop BB9_21 Depth 3
	movq	-8(%rbp), %rax
	cmpl	$0, 16(%rax)
	jbe	.LBB9_25
# %bb.19:                               # %while.body55
                                        #   in Loop: Header=BB9_18 Depth=2
	movq	-8(%rbp), %rax
	movl	16(%rax), %ecx
	addl	$-1, %ecx
	movl	%ecx, 16(%rax)
	movq	-8(%rbp), %rax
	movl	8(%rax), %ecx
	shll	$1, %ecx
	movl	%ecx, 8(%rax)
	movq	-8(%rbp), %rax
	movl	8(%rax), %ecx
	movl	%ecx, 8(%rax)
	movq	-8(%rbp), %rax
	movl	12(%rax), %ecx
	addl	$-1, %ecx
	movl	%ecx, 12(%rax)
	cmpl	$0, %ecx
	jne	.LBB9_24
# %bb.20:                               # %if.then65
                                        #   in Loop: Header=BB9_18 Depth=2
	movq	-8(%rbp), %rax
	movl	8(%rax), %eax
	movq	-8(%rbp), %rcx
	movq	24(%rcx), %rcx
	movq	-8(%rbp), %rdx
	movq	32(%rdx), %rdx
	movl	(%rdx), %esi
	movl	%esi, %edi
	addl	$1, %edi
	movl	%edi, (%rdx)
	movslq	%esi, %rdx
	movb	%al, (%rcx,%rdx)
	movq	-8(%rbp), %rax
	movl	$8, 12(%rax)
.LBB9_21:                               # %while.cond74
                                        #   Parent Loop BB9_10 Depth=1
                                        #     Parent Loop BB9_18 Depth=2
                                        # =>    This Inner Loop Header: Depth=3
	movq	-8(%rbp), %rax
	cmpl	$7, 80(%rax)
	jle	.LBB9_23
# %bb.22:                               # %while.body78
                                        #   in Loop: Header=BB9_21 Depth=3
	movq	-8(%rbp), %rax
	movl	80(%rax), %ecx
	subl	$8, %ecx
	movl	%ecx, 80(%rax)
	movq	-8(%rbp), %rax
	movl	88(%rax), %ecx
	addl	$1, %ecx
	movl	%ecx, 88(%rax)
	jmp	.LBB9_21
.LBB9_23:                               # %while.end83
                                        #   in Loop: Header=BB9_18 Depth=2
	jmp	.LBB9_24
.LBB9_24:                               # %if.end84
                                        #   in Loop: Header=BB9_18 Depth=2
	jmp	.LBB9_18
.LBB9_25:                               # %while.end85
                                        #   in Loop: Header=BB9_10 Depth=1
	movl	-12(%rbp), %eax
	subl	$512, %eax              # imm = 0x200
	movl	%eax, -12(%rbp)
	jmp	.LBB9_43
.LBB9_26:                               # %if.else87
                                        #   in Loop: Header=BB9_10 Depth=1
	cmpl	$256, -12(%rbp)         # imm = 0x100
	jae	.LBB9_41
# %bb.27:                               # %if.then90
                                        #   in Loop: Header=BB9_10 Depth=1
	movq	-8(%rbp), %rax
	movl	8(%rax), %ecx
	shll	$1, %ecx
	movl	%ecx, 8(%rax)
	movq	-8(%rbp), %rax
	movl	8(%rax), %ecx
	movl	%ecx, 8(%rax)
	movq	-8(%rbp), %rax
	movl	12(%rax), %ecx
	addl	$-1, %ecx
	movl	%ecx, 12(%rax)
	cmpl	$0, %ecx
	jne	.LBB9_32
# %bb.28:                               # %if.then98
                                        #   in Loop: Header=BB9_10 Depth=1
	movq	-8(%rbp), %rax
	movl	8(%rax), %eax
	movq	-8(%rbp), %rcx
	movq	24(%rcx), %rcx
	movq	-8(%rbp), %rdx
	movq	32(%rdx), %rdx
	movl	(%rdx), %esi
	movl	%esi, %edi
	addl	$1, %edi
	movl	%edi, (%rdx)
	movslq	%esi, %rdx
	movb	%al, (%rcx,%rdx)
	movq	-8(%rbp), %rax
	movl	$8, 12(%rax)
.LBB9_29:                               # %while.cond107
                                        #   Parent Loop BB9_10 Depth=1
                                        # =>  This Inner Loop Header: Depth=2
	movq	-8(%rbp), %rax
	cmpl	$7, 80(%rax)
	jle	.LBB9_31
# %bb.30:                               # %while.body111
                                        #   in Loop: Header=BB9_29 Depth=2
	movq	-8(%rbp), %rax
	movl	80(%rax), %ecx
	subl	$8, %ecx
	movl	%ecx, 80(%rax)
	movq	-8(%rbp), %rax
	movl	88(%rax), %ecx
	addl	$1, %ecx
	movl	%ecx, 88(%rax)
	jmp	.LBB9_29
.LBB9_31:                               # %while.end116
                                        #   in Loop: Header=BB9_10 Depth=1
	jmp	.LBB9_32
.LBB9_32:                               # %if.end117
                                        #   in Loop: Header=BB9_10 Depth=1
	jmp	.LBB9_33
.LBB9_33:                               # %while.cond118
                                        #   Parent Loop BB9_10 Depth=1
                                        # =>  This Loop Header: Depth=2
                                        #       Child Loop BB9_36 Depth 3
	movq	-8(%rbp), %rax
	cmpl	$0, 16(%rax)
	jbe	.LBB9_40
# %bb.34:                               # %while.body122
                                        #   in Loop: Header=BB9_33 Depth=2
	movq	-8(%rbp), %rax
	movl	16(%rax), %ecx
	addl	$-1, %ecx
	movl	%ecx, 16(%rax)
	movq	-8(%rbp), %rax
	movl	8(%rax), %ecx
	shll	$1, %ecx
	movl	%ecx, 8(%rax)
	movq	-8(%rbp), %rax
	movl	8(%rax), %ecx
	orl	$1, %ecx
	movl	%ecx, 8(%rax)
	movq	-8(%rbp), %rax
	movl	12(%rax), %ecx
	addl	$-1, %ecx
	movl	%ecx, 12(%rax)
	cmpl	$0, %ecx
	jne	.LBB9_39
# %bb.35:                               # %if.then133
                                        #   in Loop: Header=BB9_33 Depth=2
	movq	-8(%rbp), %rax
	movl	8(%rax), %eax
	movq	-8(%rbp), %rcx
	movq	24(%rcx), %rcx
	movq	-8(%rbp), %rdx
	movq	32(%rdx), %rdx
	movl	(%rdx), %esi
	movl	%esi, %edi
	addl	$1, %edi
	movl	%edi, (%rdx)
	movslq	%esi, %rdx
	movb	%al, (%rcx,%rdx)
	movq	-8(%rbp), %rax
	movl	$8, 12(%rax)
.LBB9_36:                               # %while.cond142
                                        #   Parent Loop BB9_10 Depth=1
                                        #     Parent Loop BB9_33 Depth=2
                                        # =>    This Inner Loop Header: Depth=3
	movq	-8(%rbp), %rax
	cmpl	$7, 80(%rax)
	jle	.LBB9_38
# %bb.37:                               # %while.body146
                                        #   in Loop: Header=BB9_36 Depth=3
	movq	-8(%rbp), %rax
	movl	80(%rax), %ecx
	subl	$8, %ecx
	movl	%ecx, 80(%rax)
	movq	-8(%rbp), %rax
	movl	88(%rax), %ecx
	addl	$1, %ecx
	movl	%ecx, 88(%rax)
	jmp	.LBB9_36
.LBB9_38:                               # %while.end151
                                        #   in Loop: Header=BB9_33 Depth=2
	jmp	.LBB9_39
.LBB9_39:                               # %if.end152
                                        #   in Loop: Header=BB9_33 Depth=2
	jmp	.LBB9_33
.LBB9_40:                               # %while.end153
                                        #   in Loop: Header=BB9_10 Depth=1
	jmp	.LBB9_42
.LBB9_41:                               # %if.else154
                                        #   in Loop: Header=BB9_10 Depth=1
	movq	-8(%rbp), %rax
	movl	16(%rax), %ecx
	addl	$1, %ecx
	movl	%ecx, 16(%rax)
	movl	-12(%rbp), %eax
	subl	$256, %eax              # imm = 0x100
	movl	%eax, -12(%rbp)
.LBB9_42:                               # %if.end158
                                        #   in Loop: Header=BB9_10 Depth=1
	jmp	.LBB9_43
.LBB9_43:                               # %if.end159
                                        #   in Loop: Header=BB9_10 Depth=1
	movl	-12(%rbp), %eax
	shll	$1, %eax
	movl	%eax, -12(%rbp)
	movl	-16(%rbp), %eax
	shll	$1, %eax
	movl	%eax, -16(%rbp)
	jmp	.LBB9_10
.LBB9_44:                               # %while.end162
	movl	-16(%rbp), %eax
	movq	-8(%rbp), %rcx
	movl	%eax, 4(%rcx)
	movl	-12(%rbp), %eax
	movq	-8(%rbp), %rcx
	movl	%eax, (%rcx)
	movq	-8(%rbp), %rax
	movl	80(%rax), %ecx
	addl	$1, %ecx
	movl	%ecx, 80(%rax)
	cmpl	$1049148070, -40(%rbp)  # imm = 0x3E88BAA6
	jne	.LBB9_46
.LBB9_45:
	addq	$48, %rsp
	popq	%rbp
	.cfi_def_cfa %rsp, 8
	retq
.LBB9_46:                               # %func_exit
	.cfi_def_cfa %rbp, 16
	callq	detect_breach
	jmp	.LBB9_45
.Lfunc_end9:
	.size	biari_encode_symbol.1, .Lfunc_end9-biari_encode_symbol.1
	.cfi_endproc
                                        # -- End function
	.globl	biari_init_context.2    # -- Begin function biari_init_context.2
	.p2align	4, 0x90
	.type	biari_init_context.2,@function
biari_init_context.2:                   # @biari_init_context.2
	.cfi_startproc
# %bb.0:                                # %entry
	pushq	%rbp
	.cfi_def_cfa_offset 16
	.cfi_offset %rbp, -16
	movq	%rsp, %rbp
	.cfi_def_cfa_register %rbp
	subq	$32, %rsp
	xorl	%ecx, %ecx
	movl	$1167015401, -20(%rbp)  # imm = 0x458F3DE9
	movq	%rdi, -16(%rbp)
	movq	%rsi, -32(%rbp)
	movq	-32(%rbp), %rax
	movl	(%rax), %eax
	movq	img, %rdx
	cmpl	40(%rdx), %ecx
	jle	.LBB10_2
# %bb.1:                                # %cond.true
	xorl	%ecx, %ecx
	jmp	.LBB10_3
.LBB10_2:                               # %cond.false
	movq	img, %rcx
	movl	40(%rcx), %ecx
.LBB10_3:                               # %cond.end
	imull	%ecx, %eax
	sarl	$4, %eax
	movq	-32(%rbp), %rcx
	addl	4(%rcx), %eax
	movl	%eax, -4(%rbp)
	movl	$1, %eax
	cmpl	-4(%rbp), %eax
	jle	.LBB10_5
# %bb.4:                                # %cond.true4
	movl	$1, %eax
	jmp	.LBB10_6
.LBB10_5:                               # %cond.false5
	movl	-4(%rbp), %eax
.LBB10_6:                               # %cond.end6
	cmpl	$126, %eax
	jge	.LBB10_11
# %bb.7:                                # %cond.true9
	movl	$1, %eax
	cmpl	-4(%rbp), %eax
	jle	.LBB10_9
# %bb.8:                                # %cond.true11
	movl	$1, %eax
	jmp	.LBB10_10
.LBB10_9:                               # %cond.false12
	movl	-4(%rbp), %eax
.LBB10_10:                              # %cond.end13
	jmp	.LBB10_12
.LBB10_11:                              # %cond.false15
	movl	$126, %eax
	jmp	.LBB10_12
.LBB10_12:                              # %cond.end16
	movl	%eax, -4(%rbp)
	cmpl	$64, -4(%rbp)
	jl	.LBB10_14
# %bb.13:                               # %if.then
	movl	-4(%rbp), %eax
	subl	$64, %eax
	movq	-16(%rbp), %rcx
	movw	%ax, (%rcx)
	movq	-16(%rbp), %rax
	movb	$1, 2(%rax)
	jmp	.LBB10_15
.LBB10_14:                              # %if.else
	movl	$63, %eax
	subl	-4(%rbp), %eax
	movq	-16(%rbp), %rcx
	movw	%ax, (%rcx)
	movq	-16(%rbp), %rax
	movb	$0, 2(%rax)
.LBB10_15:                              # %if.end
	movq	-16(%rbp), %rax
	movq	$0, 8(%rax)
	cmpl	$1167015401, -20(%rbp)  # imm = 0x458F3DE9
	jne	.LBB10_17
.LBB10_16:
	addq	$32, %rsp
	popq	%rbp
	.cfi_def_cfa %rsp, 8
	retq
.LBB10_17:                              # %func_exit
	.cfi_def_cfa %rbp, 16
	callq	detect_breach
	jmp	.LBB10_16
.Lfunc_end10:
	.size	biari_init_context.2, .Lfunc_end10-biari_init_context.2
	.cfi_endproc
                                        # -- End function
	.globl	biari_init_context.3    # -- Begin function biari_init_context.3
	.p2align	4, 0x90
	.type	biari_init_context.3,@function
biari_init_context.3:                   # @biari_init_context.3
	.cfi_startproc
# %bb.0:                                # %entry
	pushq	%rbp
	.cfi_def_cfa_offset 16
	.cfi_offset %rbp, -16
	movq	%rsp, %rbp
	.cfi_def_cfa_register %rbp
	subq	$32, %rsp
	xorl	%ecx, %ecx
	movl	$471356447, -20(%rbp)   # imm = 0x1C18541F
	movq	%rdi, -16(%rbp)
	movq	%rsi, -32(%rbp)
	movq	-32(%rbp), %rax
	movl	(%rax), %eax
	movq	img, %rdx
	cmpl	40(%rdx), %ecx
	jle	.LBB11_2
# %bb.1:                                # %cond.true
	xorl	%ecx, %ecx
	jmp	.LBB11_3
.LBB11_2:                               # %cond.false
	movq	img, %rcx
	movl	40(%rcx), %ecx
.LBB11_3:                               # %cond.end
	imull	%ecx, %eax
	sarl	$4, %eax
	movq	-32(%rbp), %rcx
	addl	4(%rcx), %eax
	movl	%eax, -4(%rbp)
	movl	$1, %eax
	cmpl	-4(%rbp), %eax
	jle	.LBB11_5
# %bb.4:                                # %cond.true4
	movl	$1, %eax
	jmp	.LBB11_6
.LBB11_5:                               # %cond.false5
	movl	-4(%rbp), %eax
.LBB11_6:                               # %cond.end6
	cmpl	$126, %eax
	jge	.LBB11_11
# %bb.7:                                # %cond.true9
	movl	$1, %eax
	cmpl	-4(%rbp), %eax
	jle	.LBB11_9
# %bb.8:                                # %cond.true11
	movl	$1, %eax
	jmp	.LBB11_10
.LBB11_9:                               # %cond.false12
	movl	-4(%rbp), %eax
.LBB11_10:                              # %cond.end13
	jmp	.LBB11_12
.LBB11_11:                              # %cond.false15
	movl	$126, %eax
	jmp	.LBB11_12
.LBB11_12:                              # %cond.end16
	movl	%eax, -4(%rbp)
	cmpl	$64, -4(%rbp)
	jl	.LBB11_14
# %bb.13:                               # %if.then
	movl	-4(%rbp), %eax
	subl	$64, %eax
	movq	-16(%rbp), %rcx
	movw	%ax, (%rcx)
	movq	-16(%rbp), %rax
	movb	$1, 2(%rax)
	jmp	.LBB11_15
.LBB11_14:                              # %if.else
	movl	$63, %eax
	subl	-4(%rbp), %eax
	movq	-16(%rbp), %rcx
	movw	%ax, (%rcx)
	movq	-16(%rbp), %rax
	movb	$0, 2(%rax)
.LBB11_15:                              # %if.end
	movq	-16(%rbp), %rax
	movq	$0, 8(%rax)
	cmpl	$471356447, -20(%rbp)   # imm = 0x1C18541F
	jne	.LBB11_17
.LBB11_16:
	addq	$32, %rsp
	popq	%rbp
	.cfi_def_cfa %rsp, 8
	retq
.LBB11_17:                              # %func_exit
	.cfi_def_cfa %rbp, 16
	callq	detect_breach
	jmp	.LBB11_16
.Lfunc_end11:
	.size	biari_init_context.3, .Lfunc_end11-biari_init_context.3
	.cfi_endproc
                                        # -- End function
	.globl	arienco_start_encoding.4 # -- Begin function arienco_start_encoding.4
	.p2align	4, 0x90
	.type	arienco_start_encoding.4,@function
arienco_start_encoding.4:               # @arienco_start_encoding.4
	.cfi_startproc
# %bb.0:                                # %entry
	pushq	%rbp
	.cfi_def_cfa_offset 16
	.cfi_offset %rbp, -16
	movq	%rsp, %rbp
	.cfi_def_cfa_register %rbp
	subq	$48, %rsp
	movl	$220449547, -12(%rbp)   # imm = 0xD23CB0B
	movq	%rdi, -8(%rbp)
	movq	%rsi, -32(%rbp)
	movq	%rdx, -24(%rbp)
	movl	%ecx, -36(%rbp)
	movq	-8(%rbp), %rax
	movl	$0, (%rax)
	movq	-8(%rbp), %rax
	movl	$0, 16(%rax)
	movq	-8(%rbp), %rax
	movl	$0, 8(%rax)
	movq	-8(%rbp), %rax
	movl	$9, 12(%rax)
	movq	-32(%rbp), %rax
	movq	-8(%rbp), %rcx
	movq	%rax, 24(%rcx)
	movq	-24(%rbp), %rax
	movq	-8(%rbp), %rcx
	movq	%rax, 32(%rcx)
	movq	-8(%rbp), %rax
	movl	$510, 4(%rax)           # imm = 0x1FE
	movq	-8(%rbp), %rax
	movl	$0, 80(%rax)
	movq	-24(%rbp), %rax
	movl	(%rax), %eax
	movq	-8(%rbp), %rcx
	movl	%eax, 96(%rcx)
	movq	-8(%rbp), %rax
	movl	$0, 88(%rax)
	cmpl	$220449547, -12(%rbp)   # imm = 0xD23CB0B
	jne	.LBB12_2
.LBB12_1:
	addq	$48, %rsp
	popq	%rbp
	.cfi_def_cfa %rsp, 8
	retq
.LBB12_2:                               # %func_exit
	.cfi_def_cfa %rbp, 16
	callq	detect_breach
	jmp	.LBB12_1
.Lfunc_end12:
	.size	arienco_start_encoding.4, .Lfunc_end12-arienco_start_encoding.4
	.cfi_endproc
                                        # -- End function
	.globl	biari_encode_symbol.5   # -- Begin function biari_encode_symbol.5
	.p2align	4, 0x90
	.type	biari_encode_symbol.5,@function
biari_encode_symbol.5:                  # @biari_encode_symbol.5
	.cfi_startproc
# %bb.0:                                # %entry
	pushq	%rbp
	.cfi_def_cfa_offset 16
	.cfi_offset %rbp, -16
	movq	%rsp, %rbp
	.cfi_def_cfa_register %rbp
	subq	$48, %rsp
	movl	$483869861, -40(%rbp)   # imm = 0x1CD744A5
	movq	%rdi, -8(%rbp)
	movw	%si, -18(%rbp)
	movq	%rdx, -32(%rbp)
	movq	-8(%rbp), %rax
	movl	4(%rax), %eax
	movl	%eax, -16(%rbp)
	movq	-8(%rbp), %rax
	movl	(%rax), %eax
	movl	%eax, -12(%rbp)
	movq	-32(%rbp), %rax
	movzwl	(%rax), %eax
	shlq	$2, %rax
	movabsq	$rLPS_table_64x4, %rcx
	addq	%rax, %rcx
	movl	-16(%rbp), %eax
	shrl	$6, %eax
	andl	$3, %eax
	movl	%eax, %eax
	movzbl	(%rcx,%rax), %eax
	movl	%eax, -36(%rbp)
	cmpl	$0, cabac_encoding
	je	.LBB13_2
# %bb.1:                                # %if.then
	movq	-32(%rbp), %rax
	movq	8(%rax), %rcx
	addq	$1, %rcx
	movq	%rcx, 8(%rax)
.LBB13_2:                               # %if.end
	movswl	-18(%rbp), %eax
	cmpl	$0, %eax
	je	.LBB13_4
# %bb.3:                                # %if.then5
	movw	$1, -18(%rbp)
.LBB13_4:                               # %if.end6
	movl	-36(%rbp), %eax
	movl	-16(%rbp), %ecx
	subl	%eax, %ecx
	movl	%ecx, -16(%rbp)
	movswl	-18(%rbp), %eax
	movq	-32(%rbp), %rcx
	movzbl	2(%rcx), %ecx
	cmpl	%ecx, %eax
	je	.LBB13_8
# %bb.5:                                # %if.then11
	movl	-16(%rbp), %eax
	addl	-12(%rbp), %eax
	movl	%eax, -12(%rbp)
	movl	-36(%rbp), %eax
	movl	%eax, -16(%rbp)
	movq	-32(%rbp), %rax
	cmpw	$0, (%rax)
	jne	.LBB13_7
# %bb.6:                                # %if.then14
	movq	-32(%rbp), %rax
	movzbl	2(%rax), %eax
	xorl	$1, %eax
	movq	-32(%rbp), %rcx
	movb	%al, 2(%rcx)
.LBB13_7:                               # %if.end19
	movq	-32(%rbp), %rax
	movzwl	(%rax), %eax
	movw	AC_next_state_LPS_64(,%rax,2), %ax
	movq	-32(%rbp), %rcx
	movw	%ax, (%rcx)
	jmp	.LBB13_9
.LBB13_8:                               # %if.else
	movq	-32(%rbp), %rax
	movzwl	(%rax), %eax
	movw	AC_next_state_MPS_64(,%rax,2), %ax
	movq	-32(%rbp), %rcx
	movw	%ax, (%rcx)
.LBB13_9:                               # %if.end28
	jmp	.LBB13_10
.LBB13_10:                              # %while.cond
                                        # =>This Loop Header: Depth=1
                                        #     Child Loop BB13_14 Depth 2
                                        #     Child Loop BB13_18 Depth 2
                                        #       Child Loop BB13_21 Depth 3
                                        #     Child Loop BB13_29 Depth 2
                                        #     Child Loop BB13_33 Depth 2
                                        #       Child Loop BB13_36 Depth 3
	cmpl	$256, -16(%rbp)         # imm = 0x100
	jae	.LBB13_44
# %bb.11:                               # %while.body
                                        #   in Loop: Header=BB13_10 Depth=1
	cmpl	$512, -12(%rbp)         # imm = 0x200
	jb	.LBB13_26
# %bb.12:                               # %if.then33
                                        #   in Loop: Header=BB13_10 Depth=1
	movq	-8(%rbp), %rax
	movl	8(%rax), %ecx
	shll	$1, %ecx
	movl	%ecx, 8(%rax)
	movq	-8(%rbp), %rax
	movl	8(%rax), %ecx
	orl	$1, %ecx
	movl	%ecx, 8(%rax)
	movq	-8(%rbp), %rax
	movl	12(%rax), %ecx
	addl	$-1, %ecx
	movl	%ecx, 12(%rax)
	cmpl	$0, %ecx
	jne	.LBB13_17
# %bb.13:                               # %if.then37
                                        #   in Loop: Header=BB13_10 Depth=1
	movq	-8(%rbp), %rax
	movl	8(%rax), %eax
	movq	-8(%rbp), %rcx
	movq	24(%rcx), %rcx
	movq	-8(%rbp), %rdx
	movq	32(%rdx), %rdx
	movl	(%rdx), %esi
	movl	%esi, %edi
	addl	$1, %edi
	movl	%edi, (%rdx)
	movslq	%esi, %rdx
	movb	%al, (%rcx,%rdx)
	movq	-8(%rbp), %rax
	movl	$8, 12(%rax)
.LBB13_14:                              # %while.cond44
                                        #   Parent Loop BB13_10 Depth=1
                                        # =>  This Inner Loop Header: Depth=2
	movq	-8(%rbp), %rax
	cmpl	$7, 80(%rax)
	jle	.LBB13_16
# %bb.15:                               # %while.body47
                                        #   in Loop: Header=BB13_14 Depth=2
	movq	-8(%rbp), %rax
	movl	80(%rax), %ecx
	subl	$8, %ecx
	movl	%ecx, 80(%rax)
	movq	-8(%rbp), %rax
	movl	88(%rax), %ecx
	addl	$1, %ecx
	movl	%ecx, 88(%rax)
	jmp	.LBB13_14
.LBB13_16:                              # %while.end
                                        #   in Loop: Header=BB13_10 Depth=1
	jmp	.LBB13_17
.LBB13_17:                              # %if.end51
                                        #   in Loop: Header=BB13_10 Depth=1
	jmp	.LBB13_18
.LBB13_18:                              # %while.cond52
                                        #   Parent Loop BB13_10 Depth=1
                                        # =>  This Loop Header: Depth=2
                                        #       Child Loop BB13_21 Depth 3
	movq	-8(%rbp), %rax
	cmpl	$0, 16(%rax)
	jbe	.LBB13_25
# %bb.19:                               # %while.body55
                                        #   in Loop: Header=BB13_18 Depth=2
	movq	-8(%rbp), %rax
	movl	16(%rax), %ecx
	addl	$-1, %ecx
	movl	%ecx, 16(%rax)
	movq	-8(%rbp), %rax
	movl	8(%rax), %ecx
	shll	$1, %ecx
	movl	%ecx, 8(%rax)
	movq	-8(%rbp), %rax
	movl	8(%rax), %ecx
	movl	%ecx, 8(%rax)
	movq	-8(%rbp), %rax
	movl	12(%rax), %ecx
	addl	$-1, %ecx
	movl	%ecx, 12(%rax)
	cmpl	$0, %ecx
	jne	.LBB13_24
# %bb.20:                               # %if.then65
                                        #   in Loop: Header=BB13_18 Depth=2
	movq	-8(%rbp), %rax
	movl	8(%rax), %eax
	movq	-8(%rbp), %rcx
	movq	24(%rcx), %rcx
	movq	-8(%rbp), %rdx
	movq	32(%rdx), %rdx
	movl	(%rdx), %esi
	movl	%esi, %edi
	addl	$1, %edi
	movl	%edi, (%rdx)
	movslq	%esi, %rdx
	movb	%al, (%rcx,%rdx)
	movq	-8(%rbp), %rax
	movl	$8, 12(%rax)
.LBB13_21:                              # %while.cond74
                                        #   Parent Loop BB13_10 Depth=1
                                        #     Parent Loop BB13_18 Depth=2
                                        # =>    This Inner Loop Header: Depth=3
	movq	-8(%rbp), %rax
	cmpl	$7, 80(%rax)
	jle	.LBB13_23
# %bb.22:                               # %while.body78
                                        #   in Loop: Header=BB13_21 Depth=3
	movq	-8(%rbp), %rax
	movl	80(%rax), %ecx
	subl	$8, %ecx
	movl	%ecx, 80(%rax)
	movq	-8(%rbp), %rax
	movl	88(%rax), %ecx
	addl	$1, %ecx
	movl	%ecx, 88(%rax)
	jmp	.LBB13_21
.LBB13_23:                              # %while.end83
                                        #   in Loop: Header=BB13_18 Depth=2
	jmp	.LBB13_24
.LBB13_24:                              # %if.end84
                                        #   in Loop: Header=BB13_18 Depth=2
	jmp	.LBB13_18
.LBB13_25:                              # %while.end85
                                        #   in Loop: Header=BB13_10 Depth=1
	movl	-12(%rbp), %eax
	subl	$512, %eax              # imm = 0x200
	movl	%eax, -12(%rbp)
	jmp	.LBB13_43
.LBB13_26:                              # %if.else87
                                        #   in Loop: Header=BB13_10 Depth=1
	cmpl	$256, -12(%rbp)         # imm = 0x100
	jae	.LBB13_41
# %bb.27:                               # %if.then90
                                        #   in Loop: Header=BB13_10 Depth=1
	movq	-8(%rbp), %rax
	movl	8(%rax), %ecx
	shll	$1, %ecx
	movl	%ecx, 8(%rax)
	movq	-8(%rbp), %rax
	movl	8(%rax), %ecx
	movl	%ecx, 8(%rax)
	movq	-8(%rbp), %rax
	movl	12(%rax), %ecx
	addl	$-1, %ecx
	movl	%ecx, 12(%rax)
	cmpl	$0, %ecx
	jne	.LBB13_32
# %bb.28:                               # %if.then98
                                        #   in Loop: Header=BB13_10 Depth=1
	movq	-8(%rbp), %rax
	movl	8(%rax), %eax
	movq	-8(%rbp), %rcx
	movq	24(%rcx), %rcx
	movq	-8(%rbp), %rdx
	movq	32(%rdx), %rdx
	movl	(%rdx), %esi
	movl	%esi, %edi
	addl	$1, %edi
	movl	%edi, (%rdx)
	movslq	%esi, %rdx
	movb	%al, (%rcx,%rdx)
	movq	-8(%rbp), %rax
	movl	$8, 12(%rax)
.LBB13_29:                              # %while.cond107
                                        #   Parent Loop BB13_10 Depth=1
                                        # =>  This Inner Loop Header: Depth=2
	movq	-8(%rbp), %rax
	cmpl	$7, 80(%rax)
	jle	.LBB13_31
# %bb.30:                               # %while.body111
                                        #   in Loop: Header=BB13_29 Depth=2
	movq	-8(%rbp), %rax
	movl	80(%rax), %ecx
	subl	$8, %ecx
	movl	%ecx, 80(%rax)
	movq	-8(%rbp), %rax
	movl	88(%rax), %ecx
	addl	$1, %ecx
	movl	%ecx, 88(%rax)
	jmp	.LBB13_29
.LBB13_31:                              # %while.end116
                                        #   in Loop: Header=BB13_10 Depth=1
	jmp	.LBB13_32
.LBB13_32:                              # %if.end117
                                        #   in Loop: Header=BB13_10 Depth=1
	jmp	.LBB13_33
.LBB13_33:                              # %while.cond118
                                        #   Parent Loop BB13_10 Depth=1
                                        # =>  This Loop Header: Depth=2
                                        #       Child Loop BB13_36 Depth 3
	movq	-8(%rbp), %rax
	cmpl	$0, 16(%rax)
	jbe	.LBB13_40
# %bb.34:                               # %while.body122
                                        #   in Loop: Header=BB13_33 Depth=2
	movq	-8(%rbp), %rax
	movl	16(%rax), %ecx
	addl	$-1, %ecx
	movl	%ecx, 16(%rax)
	movq	-8(%rbp), %rax
	movl	8(%rax), %ecx
	shll	$1, %ecx
	movl	%ecx, 8(%rax)
	movq	-8(%rbp), %rax
	movl	8(%rax), %ecx
	orl	$1, %ecx
	movl	%ecx, 8(%rax)
	movq	-8(%rbp), %rax
	movl	12(%rax), %ecx
	addl	$-1, %ecx
	movl	%ecx, 12(%rax)
	cmpl	$0, %ecx
	jne	.LBB13_39
# %bb.35:                               # %if.then133
                                        #   in Loop: Header=BB13_33 Depth=2
	movq	-8(%rbp), %rax
	movl	8(%rax), %eax
	movq	-8(%rbp), %rcx
	movq	24(%rcx), %rcx
	movq	-8(%rbp), %rdx
	movq	32(%rdx), %rdx
	movl	(%rdx), %esi
	movl	%esi, %edi
	addl	$1, %edi
	movl	%edi, (%rdx)
	movslq	%esi, %rdx
	movb	%al, (%rcx,%rdx)
	movq	-8(%rbp), %rax
	movl	$8, 12(%rax)
.LBB13_36:                              # %while.cond142
                                        #   Parent Loop BB13_10 Depth=1
                                        #     Parent Loop BB13_33 Depth=2
                                        # =>    This Inner Loop Header: Depth=3
	movq	-8(%rbp), %rax
	cmpl	$7, 80(%rax)
	jle	.LBB13_38
# %bb.37:                               # %while.body146
                                        #   in Loop: Header=BB13_36 Depth=3
	movq	-8(%rbp), %rax
	movl	80(%rax), %ecx
	subl	$8, %ecx
	movl	%ecx, 80(%rax)
	movq	-8(%rbp), %rax
	movl	88(%rax), %ecx
	addl	$1, %ecx
	movl	%ecx, 88(%rax)
	jmp	.LBB13_36
.LBB13_38:                              # %while.end151
                                        #   in Loop: Header=BB13_33 Depth=2
	jmp	.LBB13_39
.LBB13_39:                              # %if.end152
                                        #   in Loop: Header=BB13_33 Depth=2
	jmp	.LBB13_33
.LBB13_40:                              # %while.end153
                                        #   in Loop: Header=BB13_10 Depth=1
	jmp	.LBB13_42
.LBB13_41:                              # %if.else154
                                        #   in Loop: Header=BB13_10 Depth=1
	movq	-8(%rbp), %rax
	movl	16(%rax), %ecx
	addl	$1, %ecx
	movl	%ecx, 16(%rax)
	movl	-12(%rbp), %eax
	subl	$256, %eax              # imm = 0x100
	movl	%eax, -12(%rbp)
.LBB13_42:                              # %if.end158
                                        #   in Loop: Header=BB13_10 Depth=1
	jmp	.LBB13_43
.LBB13_43:                              # %if.end159
                                        #   in Loop: Header=BB13_10 Depth=1
	movl	-12(%rbp), %eax
	shll	$1, %eax
	movl	%eax, -12(%rbp)
	movl	-16(%rbp), %eax
	shll	$1, %eax
	movl	%eax, -16(%rbp)
	jmp	.LBB13_10
.LBB13_44:                              # %while.end162
	movl	-16(%rbp), %eax
	movq	-8(%rbp), %rcx
	movl	%eax, 4(%rcx)
	movl	-12(%rbp), %eax
	movq	-8(%rbp), %rcx
	movl	%eax, (%rcx)
	movq	-8(%rbp), %rax
	movl	80(%rax), %ecx
	addl	$1, %ecx
	movl	%ecx, 80(%rax)
	cmpl	$483869861, -40(%rbp)   # imm = 0x1CD744A5
	jne	.LBB13_46
.LBB13_45:
	addq	$48, %rsp
	popq	%rbp
	.cfi_def_cfa %rsp, 8
	retq
.LBB13_46:                              # %func_exit
	.cfi_def_cfa %rbp, 16
	callq	detect_breach
	jmp	.LBB13_45
.Lfunc_end13:
	.size	biari_encode_symbol.5, .Lfunc_end13-biari_encode_symbol.5
	.cfi_endproc
                                        # -- End function
	.globl	biari_encode_symbol.6   # -- Begin function biari_encode_symbol.6
	.p2align	4, 0x90
	.type	biari_encode_symbol.6,@function
biari_encode_symbol.6:                  # @biari_encode_symbol.6
	.cfi_startproc
# %bb.0:                                # %entry
	pushq	%rbp
	.cfi_def_cfa_offset 16
	.cfi_offset %rbp, -16
	movq	%rsp, %rbp
	.cfi_def_cfa_register %rbp
	subq	$48, %rsp
	movl	$1250102471, -40(%rbp)  # imm = 0x4A830CC7
	movq	%rdi, -8(%rbp)
	movw	%si, -18(%rbp)
	movq	%rdx, -32(%rbp)
	movq	-8(%rbp), %rax
	movl	4(%rax), %eax
	movl	%eax, -16(%rbp)
	movq	-8(%rbp), %rax
	movl	(%rax), %eax
	movl	%eax, -12(%rbp)
	movq	-32(%rbp), %rax
	movzwl	(%rax), %eax
	shlq	$2, %rax
	movabsq	$rLPS_table_64x4, %rcx
	addq	%rax, %rcx
	movl	-16(%rbp), %eax
	shrl	$6, %eax
	andl	$3, %eax
	movl	%eax, %eax
	movzbl	(%rcx,%rax), %eax
	movl	%eax, -36(%rbp)
	cmpl	$0, cabac_encoding
	je	.LBB14_2
# %bb.1:                                # %if.then
	movq	-32(%rbp), %rax
	movq	8(%rax), %rcx
	addq	$1, %rcx
	movq	%rcx, 8(%rax)
.LBB14_2:                               # %if.end
	movswl	-18(%rbp), %eax
	cmpl	$0, %eax
	je	.LBB14_4
# %bb.3:                                # %if.then5
	movw	$1, -18(%rbp)
.LBB14_4:                               # %if.end6
	movl	-36(%rbp), %eax
	movl	-16(%rbp), %ecx
	subl	%eax, %ecx
	movl	%ecx, -16(%rbp)
	movswl	-18(%rbp), %eax
	movq	-32(%rbp), %rcx
	movzbl	2(%rcx), %ecx
	cmpl	%ecx, %eax
	je	.LBB14_8
# %bb.5:                                # %if.then11
	movl	-16(%rbp), %eax
	addl	-12(%rbp), %eax
	movl	%eax, -12(%rbp)
	movl	-36(%rbp), %eax
	movl	%eax, -16(%rbp)
	movq	-32(%rbp), %rax
	cmpw	$0, (%rax)
	jne	.LBB14_7
# %bb.6:                                # %if.then14
	movq	-32(%rbp), %rax
	movzbl	2(%rax), %eax
	xorl	$1, %eax
	movq	-32(%rbp), %rcx
	movb	%al, 2(%rcx)
.LBB14_7:                               # %if.end19
	movq	-32(%rbp), %rax
	movzwl	(%rax), %eax
	movw	AC_next_state_LPS_64(,%rax,2), %ax
	movq	-32(%rbp), %rcx
	movw	%ax, (%rcx)
	jmp	.LBB14_9
.LBB14_8:                               # %if.else
	movq	-32(%rbp), %rax
	movzwl	(%rax), %eax
	movw	AC_next_state_MPS_64(,%rax,2), %ax
	movq	-32(%rbp), %rcx
	movw	%ax, (%rcx)
.LBB14_9:                               # %if.end28
	jmp	.LBB14_10
.LBB14_10:                              # %while.cond
                                        # =>This Loop Header: Depth=1
                                        #     Child Loop BB14_14 Depth 2
                                        #     Child Loop BB14_18 Depth 2
                                        #       Child Loop BB14_21 Depth 3
                                        #     Child Loop BB14_29 Depth 2
                                        #     Child Loop BB14_33 Depth 2
                                        #       Child Loop BB14_36 Depth 3
	cmpl	$256, -16(%rbp)         # imm = 0x100
	jae	.LBB14_44
# %bb.11:                               # %while.body
                                        #   in Loop: Header=BB14_10 Depth=1
	cmpl	$512, -12(%rbp)         # imm = 0x200
	jb	.LBB14_26
# %bb.12:                               # %if.then33
                                        #   in Loop: Header=BB14_10 Depth=1
	movq	-8(%rbp), %rax
	movl	8(%rax), %ecx
	shll	$1, %ecx
	movl	%ecx, 8(%rax)
	movq	-8(%rbp), %rax
	movl	8(%rax), %ecx
	orl	$1, %ecx
	movl	%ecx, 8(%rax)
	movq	-8(%rbp), %rax
	movl	12(%rax), %ecx
	addl	$-1, %ecx
	movl	%ecx, 12(%rax)
	cmpl	$0, %ecx
	jne	.LBB14_17
# %bb.13:                               # %if.then37
                                        #   in Loop: Header=BB14_10 Depth=1
	movq	-8(%rbp), %rax
	movl	8(%rax), %eax
	movq	-8(%rbp), %rcx
	movq	24(%rcx), %rcx
	movq	-8(%rbp), %rdx
	movq	32(%rdx), %rdx
	movl	(%rdx), %esi
	movl	%esi, %edi
	addl	$1, %edi
	movl	%edi, (%rdx)
	movslq	%esi, %rdx
	movb	%al, (%rcx,%rdx)
	movq	-8(%rbp), %rax
	movl	$8, 12(%rax)
.LBB14_14:                              # %while.cond44
                                        #   Parent Loop BB14_10 Depth=1
                                        # =>  This Inner Loop Header: Depth=2
	movq	-8(%rbp), %rax
	cmpl	$7, 80(%rax)
	jle	.LBB14_16
# %bb.15:                               # %while.body47
                                        #   in Loop: Header=BB14_14 Depth=2
	movq	-8(%rbp), %rax
	movl	80(%rax), %ecx
	subl	$8, %ecx
	movl	%ecx, 80(%rax)
	movq	-8(%rbp), %rax
	movl	88(%rax), %ecx
	addl	$1, %ecx
	movl	%ecx, 88(%rax)
	jmp	.LBB14_14
.LBB14_16:                              # %while.end
                                        #   in Loop: Header=BB14_10 Depth=1
	jmp	.LBB14_17
.LBB14_17:                              # %if.end51
                                        #   in Loop: Header=BB14_10 Depth=1
	jmp	.LBB14_18
.LBB14_18:                              # %while.cond52
                                        #   Parent Loop BB14_10 Depth=1
                                        # =>  This Loop Header: Depth=2
                                        #       Child Loop BB14_21 Depth 3
	movq	-8(%rbp), %rax
	cmpl	$0, 16(%rax)
	jbe	.LBB14_25
# %bb.19:                               # %while.body55
                                        #   in Loop: Header=BB14_18 Depth=2
	movq	-8(%rbp), %rax
	movl	16(%rax), %ecx
	addl	$-1, %ecx
	movl	%ecx, 16(%rax)
	movq	-8(%rbp), %rax
	movl	8(%rax), %ecx
	shll	$1, %ecx
	movl	%ecx, 8(%rax)
	movq	-8(%rbp), %rax
	movl	8(%rax), %ecx
	movl	%ecx, 8(%rax)
	movq	-8(%rbp), %rax
	movl	12(%rax), %ecx
	addl	$-1, %ecx
	movl	%ecx, 12(%rax)
	cmpl	$0, %ecx
	jne	.LBB14_24
# %bb.20:                               # %if.then65
                                        #   in Loop: Header=BB14_18 Depth=2
	movq	-8(%rbp), %rax
	movl	8(%rax), %eax
	movq	-8(%rbp), %rcx
	movq	24(%rcx), %rcx
	movq	-8(%rbp), %rdx
	movq	32(%rdx), %rdx
	movl	(%rdx), %esi
	movl	%esi, %edi
	addl	$1, %edi
	movl	%edi, (%rdx)
	movslq	%esi, %rdx
	movb	%al, (%rcx,%rdx)
	movq	-8(%rbp), %rax
	movl	$8, 12(%rax)
.LBB14_21:                              # %while.cond74
                                        #   Parent Loop BB14_10 Depth=1
                                        #     Parent Loop BB14_18 Depth=2
                                        # =>    This Inner Loop Header: Depth=3
	movq	-8(%rbp), %rax
	cmpl	$7, 80(%rax)
	jle	.LBB14_23
# %bb.22:                               # %while.body78
                                        #   in Loop: Header=BB14_21 Depth=3
	movq	-8(%rbp), %rax
	movl	80(%rax), %ecx
	subl	$8, %ecx
	movl	%ecx, 80(%rax)
	movq	-8(%rbp), %rax
	movl	88(%rax), %ecx
	addl	$1, %ecx
	movl	%ecx, 88(%rax)
	jmp	.LBB14_21
.LBB14_23:                              # %while.end83
                                        #   in Loop: Header=BB14_18 Depth=2
	jmp	.LBB14_24
.LBB14_24:                              # %if.end84
                                        #   in Loop: Header=BB14_18 Depth=2
	jmp	.LBB14_18
.LBB14_25:                              # %while.end85
                                        #   in Loop: Header=BB14_10 Depth=1
	movl	-12(%rbp), %eax
	subl	$512, %eax              # imm = 0x200
	movl	%eax, -12(%rbp)
	jmp	.LBB14_43
.LBB14_26:                              # %if.else87
                                        #   in Loop: Header=BB14_10 Depth=1
	cmpl	$256, -12(%rbp)         # imm = 0x100
	jae	.LBB14_41
# %bb.27:                               # %if.then90
                                        #   in Loop: Header=BB14_10 Depth=1
	movq	-8(%rbp), %rax
	movl	8(%rax), %ecx
	shll	$1, %ecx
	movl	%ecx, 8(%rax)
	movq	-8(%rbp), %rax
	movl	8(%rax), %ecx
	movl	%ecx, 8(%rax)
	movq	-8(%rbp), %rax
	movl	12(%rax), %ecx
	addl	$-1, %ecx
	movl	%ecx, 12(%rax)
	cmpl	$0, %ecx
	jne	.LBB14_32
# %bb.28:                               # %if.then98
                                        #   in Loop: Header=BB14_10 Depth=1
	movq	-8(%rbp), %rax
	movl	8(%rax), %eax
	movq	-8(%rbp), %rcx
	movq	24(%rcx), %rcx
	movq	-8(%rbp), %rdx
	movq	32(%rdx), %rdx
	movl	(%rdx), %esi
	movl	%esi, %edi
	addl	$1, %edi
	movl	%edi, (%rdx)
	movslq	%esi, %rdx
	movb	%al, (%rcx,%rdx)
	movq	-8(%rbp), %rax
	movl	$8, 12(%rax)
.LBB14_29:                              # %while.cond107
                                        #   Parent Loop BB14_10 Depth=1
                                        # =>  This Inner Loop Header: Depth=2
	movq	-8(%rbp), %rax
	cmpl	$7, 80(%rax)
	jle	.LBB14_31
# %bb.30:                               # %while.body111
                                        #   in Loop: Header=BB14_29 Depth=2
	movq	-8(%rbp), %rax
	movl	80(%rax), %ecx
	subl	$8, %ecx
	movl	%ecx, 80(%rax)
	movq	-8(%rbp), %rax
	movl	88(%rax), %ecx
	addl	$1, %ecx
	movl	%ecx, 88(%rax)
	jmp	.LBB14_29
.LBB14_31:                              # %while.end116
                                        #   in Loop: Header=BB14_10 Depth=1
	jmp	.LBB14_32
.LBB14_32:                              # %if.end117
                                        #   in Loop: Header=BB14_10 Depth=1
	jmp	.LBB14_33
.LBB14_33:                              # %while.cond118
                                        #   Parent Loop BB14_10 Depth=1
                                        # =>  This Loop Header: Depth=2
                                        #       Child Loop BB14_36 Depth 3
	movq	-8(%rbp), %rax
	cmpl	$0, 16(%rax)
	jbe	.LBB14_40
# %bb.34:                               # %while.body122
                                        #   in Loop: Header=BB14_33 Depth=2
	movq	-8(%rbp), %rax
	movl	16(%rax), %ecx
	addl	$-1, %ecx
	movl	%ecx, 16(%rax)
	movq	-8(%rbp), %rax
	movl	8(%rax), %ecx
	shll	$1, %ecx
	movl	%ecx, 8(%rax)
	movq	-8(%rbp), %rax
	movl	8(%rax), %ecx
	orl	$1, %ecx
	movl	%ecx, 8(%rax)
	movq	-8(%rbp), %rax
	movl	12(%rax), %ecx
	addl	$-1, %ecx
	movl	%ecx, 12(%rax)
	cmpl	$0, %ecx
	jne	.LBB14_39
# %bb.35:                               # %if.then133
                                        #   in Loop: Header=BB14_33 Depth=2
	movq	-8(%rbp), %rax
	movl	8(%rax), %eax
	movq	-8(%rbp), %rcx
	movq	24(%rcx), %rcx
	movq	-8(%rbp), %rdx
	movq	32(%rdx), %rdx
	movl	(%rdx), %esi
	movl	%esi, %edi
	addl	$1, %edi
	movl	%edi, (%rdx)
	movslq	%esi, %rdx
	movb	%al, (%rcx,%rdx)
	movq	-8(%rbp), %rax
	movl	$8, 12(%rax)
.LBB14_36:                              # %while.cond142
                                        #   Parent Loop BB14_10 Depth=1
                                        #     Parent Loop BB14_33 Depth=2
                                        # =>    This Inner Loop Header: Depth=3
	movq	-8(%rbp), %rax
	cmpl	$7, 80(%rax)
	jle	.LBB14_38
# %bb.37:                               # %while.body146
                                        #   in Loop: Header=BB14_36 Depth=3
	movq	-8(%rbp), %rax
	movl	80(%rax), %ecx
	subl	$8, %ecx
	movl	%ecx, 80(%rax)
	movq	-8(%rbp), %rax
	movl	88(%rax), %ecx
	addl	$1, %ecx
	movl	%ecx, 88(%rax)
	jmp	.LBB14_36
.LBB14_38:                              # %while.end151
                                        #   in Loop: Header=BB14_33 Depth=2
	jmp	.LBB14_39
.LBB14_39:                              # %if.end152
                                        #   in Loop: Header=BB14_33 Depth=2
	jmp	.LBB14_33
.LBB14_40:                              # %while.end153
                                        #   in Loop: Header=BB14_10 Depth=1
	jmp	.LBB14_42
.LBB14_41:                              # %if.else154
                                        #   in Loop: Header=BB14_10 Depth=1
	movq	-8(%rbp), %rax
	movl	16(%rax), %ecx
	addl	$1, %ecx
	movl	%ecx, 16(%rax)
	movl	-12(%rbp), %eax
	subl	$256, %eax              # imm = 0x100
	movl	%eax, -12(%rbp)
.LBB14_42:                              # %if.end158
                                        #   in Loop: Header=BB14_10 Depth=1
	jmp	.LBB14_43
.LBB14_43:                              # %if.end159
                                        #   in Loop: Header=BB14_10 Depth=1
	movl	-12(%rbp), %eax
	shll	$1, %eax
	movl	%eax, -12(%rbp)
	movl	-16(%rbp), %eax
	shll	$1, %eax
	movl	%eax, -16(%rbp)
	jmp	.LBB14_10
.LBB14_44:                              # %while.end162
	movl	-16(%rbp), %eax
	movq	-8(%rbp), %rcx
	movl	%eax, 4(%rcx)
	movl	-12(%rbp), %eax
	movq	-8(%rbp), %rcx
	movl	%eax, (%rcx)
	movq	-8(%rbp), %rax
	movl	80(%rax), %ecx
	addl	$1, %ecx
	movl	%ecx, 80(%rax)
	cmpl	$1250102471, -40(%rbp)  # imm = 0x4A830CC7
	jne	.LBB14_46
.LBB14_45:
	addq	$48, %rsp
	popq	%rbp
	.cfi_def_cfa %rsp, 8
	retq
.LBB14_46:                              # %func_exit
	.cfi_def_cfa %rbp, 16
	callq	detect_breach
	jmp	.LBB14_45
.Lfunc_end14:
	.size	biari_encode_symbol.6, .Lfunc_end14-biari_encode_symbol.6
	.cfi_endproc
                                        # -- End function
	.globl	biari_init_context.7    # -- Begin function biari_init_context.7
	.p2align	4, 0x90
	.type	biari_init_context.7,@function
biari_init_context.7:                   # @biari_init_context.7
	.cfi_startproc
# %bb.0:                                # %entry
	pushq	%rbp
	.cfi_def_cfa_offset 16
	.cfi_offset %rbp, -16
	movq	%rsp, %rbp
	.cfi_def_cfa_register %rbp
	subq	$32, %rsp
	xorl	%ecx, %ecx
	movl	$1594701876, -20(%rbp)  # imm = 0x5F0D3834
	movq	%rdi, -16(%rbp)
	movq	%rsi, -32(%rbp)
	movq	-32(%rbp), %rax
	movl	(%rax), %eax
	movq	img, %rdx
	cmpl	40(%rdx), %ecx
	jle	.LBB15_2
# %bb.1:                                # %cond.true
	xorl	%ecx, %ecx
	jmp	.LBB15_3
.LBB15_2:                               # %cond.false
	movq	img, %rcx
	movl	40(%rcx), %ecx
.LBB15_3:                               # %cond.end
	imull	%ecx, %eax
	sarl	$4, %eax
	movq	-32(%rbp), %rcx
	addl	4(%rcx), %eax
	movl	%eax, -4(%rbp)
	movl	$1, %eax
	cmpl	-4(%rbp), %eax
	jle	.LBB15_5
# %bb.4:                                # %cond.true4
	movl	$1, %eax
	jmp	.LBB15_6
.LBB15_5:                               # %cond.false5
	movl	-4(%rbp), %eax
.LBB15_6:                               # %cond.end6
	cmpl	$126, %eax
	jge	.LBB15_11
# %bb.7:                                # %cond.true9
	movl	$1, %eax
	cmpl	-4(%rbp), %eax
	jle	.LBB15_9
# %bb.8:                                # %cond.true11
	movl	$1, %eax
	jmp	.LBB15_10
.LBB15_9:                               # %cond.false12
	movl	-4(%rbp), %eax
.LBB15_10:                              # %cond.end13
	jmp	.LBB15_12
.LBB15_11:                              # %cond.false15
	movl	$126, %eax
	jmp	.LBB15_12
.LBB15_12:                              # %cond.end16
	movl	%eax, -4(%rbp)
	cmpl	$64, -4(%rbp)
	jl	.LBB15_14
# %bb.13:                               # %if.then
	movl	-4(%rbp), %eax
	subl	$64, %eax
	movq	-16(%rbp), %rcx
	movw	%ax, (%rcx)
	movq	-16(%rbp), %rax
	movb	$1, 2(%rax)
	jmp	.LBB15_15
.LBB15_14:                              # %if.else
	movl	$63, %eax
	subl	-4(%rbp), %eax
	movq	-16(%rbp), %rcx
	movw	%ax, (%rcx)
	movq	-16(%rbp), %rax
	movb	$0, 2(%rax)
.LBB15_15:                              # %if.end
	movq	-16(%rbp), %rax
	movq	$0, 8(%rax)
	cmpl	$1594701876, -20(%rbp)  # imm = 0x5F0D3834
	jne	.LBB15_17
.LBB15_16:
	addq	$32, %rsp
	popq	%rbp
	.cfi_def_cfa %rsp, 8
	retq
.LBB15_17:                              # %func_exit
	.cfi_def_cfa %rbp, 16
	callq	detect_breach
	jmp	.LBB15_16
.Lfunc_end15:
	.size	biari_init_context.7, .Lfunc_end15-biari_init_context.7
	.cfi_endproc
                                        # -- End function
	.globl	biari_encode_symbol_final.8 # -- Begin function biari_encode_symbol_final.8
	.p2align	4, 0x90
	.type	biari_encode_symbol_final.8,@function
biari_encode_symbol_final.8:            # @biari_encode_symbol_final.8
	.cfi_startproc
# %bb.0:                                # %entry
	pushq	%rbp
	.cfi_def_cfa_offset 16
	.cfi_offset %rbp, -16
	movq	%rsp, %rbp
	.cfi_def_cfa_register %rbp
	subq	$32, %rsp
	movl	$708111067, -24(%rbp)   # imm = 0x2A34EADB
	movq	%rdi, -8(%rbp)
	movw	%si, -18(%rbp)
	movq	-8(%rbp), %rax
	movl	4(%rax), %eax
	subl	$2, %eax
	movl	%eax, -16(%rbp)
	movq	-8(%rbp), %rax
	movl	(%rax), %eax
	movl	%eax, -12(%rbp)
	cmpw	$0, -18(%rbp)
	je	.LBB16_2
# %bb.1:                                # %if.then
	movl	-16(%rbp), %eax
	addl	-12(%rbp), %eax
	movl	%eax, -12(%rbp)
	movl	$2, -16(%rbp)
.LBB16_2:                               # %if.end
	jmp	.LBB16_3
.LBB16_3:                               # %while.cond
                                        # =>This Loop Header: Depth=1
                                        #     Child Loop BB16_7 Depth 2
                                        #     Child Loop BB16_11 Depth 2
                                        #       Child Loop BB16_14 Depth 3
                                        #     Child Loop BB16_22 Depth 2
                                        #     Child Loop BB16_26 Depth 2
                                        #       Child Loop BB16_29 Depth 3
	cmpl	$256, -16(%rbp)         # imm = 0x100
	jae	.LBB16_37
# %bb.4:                                # %while.body
                                        #   in Loop: Header=BB16_3 Depth=1
	cmpl	$512, -12(%rbp)         # imm = 0x200
	jb	.LBB16_19
# %bb.5:                                # %if.then2
                                        #   in Loop: Header=BB16_3 Depth=1
	movq	-8(%rbp), %rax
	movl	8(%rax), %ecx
	shll	$1, %ecx
	movl	%ecx, 8(%rax)
	movq	-8(%rbp), %rax
	movl	8(%rax), %ecx
	orl	$1, %ecx
	movl	%ecx, 8(%rax)
	movq	-8(%rbp), %rax
	movl	12(%rax), %ecx
	addl	$-1, %ecx
	movl	%ecx, 12(%rax)
	cmpl	$0, %ecx
	jne	.LBB16_10
# %bb.6:                                # %if.then5
                                        #   in Loop: Header=BB16_3 Depth=1
	movq	-8(%rbp), %rax
	movl	8(%rax), %eax
	movq	-8(%rbp), %rcx
	movq	24(%rcx), %rcx
	movq	-8(%rbp), %rdx
	movq	32(%rdx), %rdx
	movl	(%rdx), %esi
	movl	%esi, %edi
	addl	$1, %edi
	movl	%edi, (%rdx)
	movslq	%esi, %rdx
	movb	%al, (%rcx,%rdx)
	movq	-8(%rbp), %rax
	movl	$8, 12(%rax)
.LBB16_7:                               # %while.cond8
                                        #   Parent Loop BB16_3 Depth=1
                                        # =>  This Inner Loop Header: Depth=2
	movq	-8(%rbp), %rax
	cmpl	$7, 80(%rax)
	jle	.LBB16_9
# %bb.8:                                # %while.body11
                                        #   in Loop: Header=BB16_7 Depth=2
	movq	-8(%rbp), %rax
	movl	80(%rax), %ecx
	subl	$8, %ecx
	movl	%ecx, 80(%rax)
	movq	-8(%rbp), %rax
	movl	88(%rax), %ecx
	addl	$1, %ecx
	movl	%ecx, 88(%rax)
	jmp	.LBB16_7
.LBB16_9:                               # %while.end
                                        #   in Loop: Header=BB16_3 Depth=1
	jmp	.LBB16_10
.LBB16_10:                              # %if.end15
                                        #   in Loop: Header=BB16_3 Depth=1
	jmp	.LBB16_11
.LBB16_11:                              # %while.cond16
                                        #   Parent Loop BB16_3 Depth=1
                                        # =>  This Loop Header: Depth=2
                                        #       Child Loop BB16_14 Depth 3
	movq	-8(%rbp), %rax
	cmpl	$0, 16(%rax)
	jbe	.LBB16_18
# %bb.12:                               # %while.body19
                                        #   in Loop: Header=BB16_11 Depth=2
	movq	-8(%rbp), %rax
	movl	16(%rax), %ecx
	addl	$-1, %ecx
	movl	%ecx, 16(%rax)
	movq	-8(%rbp), %rax
	movl	8(%rax), %ecx
	shll	$1, %ecx
	movl	%ecx, 8(%rax)
	movq	-8(%rbp), %rax
	movl	8(%rax), %ecx
	movl	%ecx, 8(%rax)
	movq	-8(%rbp), %rax
	movl	12(%rax), %ecx
	addl	$-1, %ecx
	movl	%ecx, 12(%rax)
	cmpl	$0, %ecx
	jne	.LBB16_17
# %bb.13:                               # %if.then29
                                        #   in Loop: Header=BB16_11 Depth=2
	movq	-8(%rbp), %rax
	movl	8(%rax), %eax
	movq	-8(%rbp), %rcx
	movq	24(%rcx), %rcx
	movq	-8(%rbp), %rdx
	movq	32(%rdx), %rdx
	movl	(%rdx), %esi
	movl	%esi, %edi
	addl	$1, %edi
	movl	%edi, (%rdx)
	movslq	%esi, %rdx
	movb	%al, (%rcx,%rdx)
	movq	-8(%rbp), %rax
	movl	$8, 12(%rax)
.LBB16_14:                              # %while.cond38
                                        #   Parent Loop BB16_3 Depth=1
                                        #     Parent Loop BB16_11 Depth=2
                                        # =>    This Inner Loop Header: Depth=3
	movq	-8(%rbp), %rax
	cmpl	$7, 80(%rax)
	jle	.LBB16_16
# %bb.15:                               # %while.body42
                                        #   in Loop: Header=BB16_14 Depth=3
	movq	-8(%rbp), %rax
	movl	80(%rax), %ecx
	subl	$8, %ecx
	movl	%ecx, 80(%rax)
	movq	-8(%rbp), %rax
	movl	88(%rax), %ecx
	addl	$1, %ecx
	movl	%ecx, 88(%rax)
	jmp	.LBB16_14
.LBB16_16:                              # %while.end47
                                        #   in Loop: Header=BB16_11 Depth=2
	jmp	.LBB16_17
.LBB16_17:                              # %if.end48
                                        #   in Loop: Header=BB16_11 Depth=2
	jmp	.LBB16_11
.LBB16_18:                              # %while.end49
                                        #   in Loop: Header=BB16_3 Depth=1
	movl	-12(%rbp), %eax
	subl	$512, %eax              # imm = 0x200
	movl	%eax, -12(%rbp)
	jmp	.LBB16_36
.LBB16_19:                              # %if.else
                                        #   in Loop: Header=BB16_3 Depth=1
	cmpl	$256, -12(%rbp)         # imm = 0x100
	jae	.LBB16_34
# %bb.20:                               # %if.then53
                                        #   in Loop: Header=BB16_3 Depth=1
	movq	-8(%rbp), %rax
	movl	8(%rax), %ecx
	shll	$1, %ecx
	movl	%ecx, 8(%rax)
	movq	-8(%rbp), %rax
	movl	8(%rax), %ecx
	movl	%ecx, 8(%rax)
	movq	-8(%rbp), %rax
	movl	12(%rax), %ecx
	addl	$-1, %ecx
	movl	%ecx, 12(%rax)
	cmpl	$0, %ecx
	jne	.LBB16_25
# %bb.21:                               # %if.then61
                                        #   in Loop: Header=BB16_3 Depth=1
	movq	-8(%rbp), %rax
	movl	8(%rax), %eax
	movq	-8(%rbp), %rcx
	movq	24(%rcx), %rcx
	movq	-8(%rbp), %rdx
	movq	32(%rdx), %rdx
	movl	(%rdx), %esi
	movl	%esi, %edi
	addl	$1, %edi
	movl	%edi, (%rdx)
	movslq	%esi, %rdx
	movb	%al, (%rcx,%rdx)
	movq	-8(%rbp), %rax
	movl	$8, 12(%rax)
.LBB16_22:                              # %while.cond70
                                        #   Parent Loop BB16_3 Depth=1
                                        # =>  This Inner Loop Header: Depth=2
	movq	-8(%rbp), %rax
	cmpl	$7, 80(%rax)
	jle	.LBB16_24
# %bb.23:                               # %while.body74
                                        #   in Loop: Header=BB16_22 Depth=2
	movq	-8(%rbp), %rax
	movl	80(%rax), %ecx
	subl	$8, %ecx
	movl	%ecx, 80(%rax)
	movq	-8(%rbp), %rax
	movl	88(%rax), %ecx
	addl	$1, %ecx
	movl	%ecx, 88(%rax)
	jmp	.LBB16_22
.LBB16_24:                              # %while.end79
                                        #   in Loop: Header=BB16_3 Depth=1
	jmp	.LBB16_25
.LBB16_25:                              # %if.end80
                                        #   in Loop: Header=BB16_3 Depth=1
	jmp	.LBB16_26
.LBB16_26:                              # %while.cond81
                                        #   Parent Loop BB16_3 Depth=1
                                        # =>  This Loop Header: Depth=2
                                        #       Child Loop BB16_29 Depth 3
	movq	-8(%rbp), %rax
	cmpl	$0, 16(%rax)
	jbe	.LBB16_33
# %bb.27:                               # %while.body85
                                        #   in Loop: Header=BB16_26 Depth=2
	movq	-8(%rbp), %rax
	movl	16(%rax), %ecx
	addl	$-1, %ecx
	movl	%ecx, 16(%rax)
	movq	-8(%rbp), %rax
	movl	8(%rax), %ecx
	shll	$1, %ecx
	movl	%ecx, 8(%rax)
	movq	-8(%rbp), %rax
	movl	8(%rax), %ecx
	orl	$1, %ecx
	movl	%ecx, 8(%rax)
	movq	-8(%rbp), %rax
	movl	12(%rax), %ecx
	addl	$-1, %ecx
	movl	%ecx, 12(%rax)
	cmpl	$0, %ecx
	jne	.LBB16_32
# %bb.28:                               # %if.then96
                                        #   in Loop: Header=BB16_26 Depth=2
	movq	-8(%rbp), %rax
	movl	8(%rax), %eax
	movq	-8(%rbp), %rcx
	movq	24(%rcx), %rcx
	movq	-8(%rbp), %rdx
	movq	32(%rdx), %rdx
	movl	(%rdx), %esi
	movl	%esi, %edi
	addl	$1, %edi
	movl	%edi, (%rdx)
	movslq	%esi, %rdx
	movb	%al, (%rcx,%rdx)
	movq	-8(%rbp), %rax
	movl	$8, 12(%rax)
.LBB16_29:                              # %while.cond105
                                        #   Parent Loop BB16_3 Depth=1
                                        #     Parent Loop BB16_26 Depth=2
                                        # =>    This Inner Loop Header: Depth=3
	movq	-8(%rbp), %rax
	cmpl	$7, 80(%rax)
	jle	.LBB16_31
# %bb.30:                               # %while.body109
                                        #   in Loop: Header=BB16_29 Depth=3
	movq	-8(%rbp), %rax
	movl	80(%rax), %ecx
	subl	$8, %ecx
	movl	%ecx, 80(%rax)
	movq	-8(%rbp), %rax
	movl	88(%rax), %ecx
	addl	$1, %ecx
	movl	%ecx, 88(%rax)
	jmp	.LBB16_29
.LBB16_31:                              # %while.end114
                                        #   in Loop: Header=BB16_26 Depth=2
	jmp	.LBB16_32
.LBB16_32:                              # %if.end115
                                        #   in Loop: Header=BB16_26 Depth=2
	jmp	.LBB16_26
.LBB16_33:                              # %while.end116
                                        #   in Loop: Header=BB16_3 Depth=1
	jmp	.LBB16_35
.LBB16_34:                              # %if.else117
                                        #   in Loop: Header=BB16_3 Depth=1
	movq	-8(%rbp), %rax
	movl	16(%rax), %ecx
	addl	$1, %ecx
	movl	%ecx, 16(%rax)
	movl	-12(%rbp), %eax
	subl	$256, %eax              # imm = 0x100
	movl	%eax, -12(%rbp)
.LBB16_35:                              # %if.end121
                                        #   in Loop: Header=BB16_3 Depth=1
	jmp	.LBB16_36
.LBB16_36:                              # %if.end122
                                        #   in Loop: Header=BB16_3 Depth=1
	movl	-12(%rbp), %eax
	shll	$1, %eax
	movl	%eax, -12(%rbp)
	movl	-16(%rbp), %eax
	shll	$1, %eax
	movl	%eax, -16(%rbp)
	jmp	.LBB16_3
.LBB16_37:                              # %while.end125
	movl	-16(%rbp), %eax
	movq	-8(%rbp), %rcx
	movl	%eax, 4(%rcx)
	movl	-12(%rbp), %eax
	movq	-8(%rbp), %rcx
	movl	%eax, (%rcx)
	movq	-8(%rbp), %rax
	movl	80(%rax), %ecx
	addl	$1, %ecx
	movl	%ecx, 80(%rax)
	cmpl	$708111067, -24(%rbp)   # imm = 0x2A34EADB
	jne	.LBB16_39
.LBB16_38:
	addq	$32, %rsp
	popq	%rbp
	.cfi_def_cfa %rsp, 8
	retq
.LBB16_39:                              # %func_exit
	.cfi_def_cfa %rbp, 16
	callq	detect_breach
	jmp	.LBB16_38
.Lfunc_end16:
	.size	biari_encode_symbol_final.8, .Lfunc_end16-biari_encode_symbol_final.8
	.cfi_endproc
                                        # -- End function
	.globl	biari_encode_symbol.9   # -- Begin function biari_encode_symbol.9
	.p2align	4, 0x90
	.type	biari_encode_symbol.9,@function
biari_encode_symbol.9:                  # @biari_encode_symbol.9
	.cfi_startproc
# %bb.0:                                # %entry
	pushq	%rbp
	.cfi_def_cfa_offset 16
	.cfi_offset %rbp, -16
	movq	%rsp, %rbp
	.cfi_def_cfa_register %rbp
	subq	$48, %rsp
	movl	$908428988, -40(%rbp)   # imm = 0x362586BC
	movq	%rdi, -8(%rbp)
	movw	%si, -18(%rbp)
	movq	%rdx, -32(%rbp)
	movq	-8(%rbp), %rax
	movl	4(%rax), %eax
	movl	%eax, -16(%rbp)
	movq	-8(%rbp), %rax
	movl	(%rax), %eax
	movl	%eax, -12(%rbp)
	movq	-32(%rbp), %rax
	movzwl	(%rax), %eax
	shlq	$2, %rax
	movabsq	$rLPS_table_64x4, %rcx
	addq	%rax, %rcx
	movl	-16(%rbp), %eax
	shrl	$6, %eax
	andl	$3, %eax
	movl	%eax, %eax
	movzbl	(%rcx,%rax), %eax
	movl	%eax, -36(%rbp)
	cmpl	$0, cabac_encoding
	je	.LBB17_2
# %bb.1:                                # %if.then
	movq	-32(%rbp), %rax
	movq	8(%rax), %rcx
	addq	$1, %rcx
	movq	%rcx, 8(%rax)
.LBB17_2:                               # %if.end
	movswl	-18(%rbp), %eax
	cmpl	$0, %eax
	je	.LBB17_4
# %bb.3:                                # %if.then5
	movw	$1, -18(%rbp)
.LBB17_4:                               # %if.end6
	movl	-36(%rbp), %eax
	movl	-16(%rbp), %ecx
	subl	%eax, %ecx
	movl	%ecx, -16(%rbp)
	movswl	-18(%rbp), %eax
	movq	-32(%rbp), %rcx
	movzbl	2(%rcx), %ecx
	cmpl	%ecx, %eax
	je	.LBB17_8
# %bb.5:                                # %if.then11
	movl	-16(%rbp), %eax
	addl	-12(%rbp), %eax
	movl	%eax, -12(%rbp)
	movl	-36(%rbp), %eax
	movl	%eax, -16(%rbp)
	movq	-32(%rbp), %rax
	cmpw	$0, (%rax)
	jne	.LBB17_7
# %bb.6:                                # %if.then14
	movq	-32(%rbp), %rax
	movzbl	2(%rax), %eax
	xorl	$1, %eax
	movq	-32(%rbp), %rcx
	movb	%al, 2(%rcx)
.LBB17_7:                               # %if.end19
	movq	-32(%rbp), %rax
	movzwl	(%rax), %eax
	movw	AC_next_state_LPS_64(,%rax,2), %ax
	movq	-32(%rbp), %rcx
	movw	%ax, (%rcx)
	jmp	.LBB17_9
.LBB17_8:                               # %if.else
	movq	-32(%rbp), %rax
	movzwl	(%rax), %eax
	movw	AC_next_state_MPS_64(,%rax,2), %ax
	movq	-32(%rbp), %rcx
	movw	%ax, (%rcx)
.LBB17_9:                               # %if.end28
	jmp	.LBB17_10
.LBB17_10:                              # %while.cond
                                        # =>This Loop Header: Depth=1
                                        #     Child Loop BB17_14 Depth 2
                                        #     Child Loop BB17_18 Depth 2
                                        #       Child Loop BB17_21 Depth 3
                                        #     Child Loop BB17_29 Depth 2
                                        #     Child Loop BB17_33 Depth 2
                                        #       Child Loop BB17_36 Depth 3
	cmpl	$256, -16(%rbp)         # imm = 0x100
	jae	.LBB17_44
# %bb.11:                               # %while.body
                                        #   in Loop: Header=BB17_10 Depth=1
	cmpl	$512, -12(%rbp)         # imm = 0x200
	jb	.LBB17_26
# %bb.12:                               # %if.then33
                                        #   in Loop: Header=BB17_10 Depth=1
	movq	-8(%rbp), %rax
	movl	8(%rax), %ecx
	shll	$1, %ecx
	movl	%ecx, 8(%rax)
	movq	-8(%rbp), %rax
	movl	8(%rax), %ecx
	orl	$1, %ecx
	movl	%ecx, 8(%rax)
	movq	-8(%rbp), %rax
	movl	12(%rax), %ecx
	addl	$-1, %ecx
	movl	%ecx, 12(%rax)
	cmpl	$0, %ecx
	jne	.LBB17_17
# %bb.13:                               # %if.then37
                                        #   in Loop: Header=BB17_10 Depth=1
	movq	-8(%rbp), %rax
	movl	8(%rax), %eax
	movq	-8(%rbp), %rcx
	movq	24(%rcx), %rcx
	movq	-8(%rbp), %rdx
	movq	32(%rdx), %rdx
	movl	(%rdx), %esi
	movl	%esi, %edi
	addl	$1, %edi
	movl	%edi, (%rdx)
	movslq	%esi, %rdx
	movb	%al, (%rcx,%rdx)
	movq	-8(%rbp), %rax
	movl	$8, 12(%rax)
.LBB17_14:                              # %while.cond44
                                        #   Parent Loop BB17_10 Depth=1
                                        # =>  This Inner Loop Header: Depth=2
	movq	-8(%rbp), %rax
	cmpl	$7, 80(%rax)
	jle	.LBB17_16
# %bb.15:                               # %while.body47
                                        #   in Loop: Header=BB17_14 Depth=2
	movq	-8(%rbp), %rax
	movl	80(%rax), %ecx
	subl	$8, %ecx
	movl	%ecx, 80(%rax)
	movq	-8(%rbp), %rax
	movl	88(%rax), %ecx
	addl	$1, %ecx
	movl	%ecx, 88(%rax)
	jmp	.LBB17_14
.LBB17_16:                              # %while.end
                                        #   in Loop: Header=BB17_10 Depth=1
	jmp	.LBB17_17
.LBB17_17:                              # %if.end51
                                        #   in Loop: Header=BB17_10 Depth=1
	jmp	.LBB17_18
.LBB17_18:                              # %while.cond52
                                        #   Parent Loop BB17_10 Depth=1
                                        # =>  This Loop Header: Depth=2
                                        #       Child Loop BB17_21 Depth 3
	movq	-8(%rbp), %rax
	cmpl	$0, 16(%rax)
	jbe	.LBB17_25
# %bb.19:                               # %while.body55
                                        #   in Loop: Header=BB17_18 Depth=2
	movq	-8(%rbp), %rax
	movl	16(%rax), %ecx
	addl	$-1, %ecx
	movl	%ecx, 16(%rax)
	movq	-8(%rbp), %rax
	movl	8(%rax), %ecx
	shll	$1, %ecx
	movl	%ecx, 8(%rax)
	movq	-8(%rbp), %rax
	movl	8(%rax), %ecx
	movl	%ecx, 8(%rax)
	movq	-8(%rbp), %rax
	movl	12(%rax), %ecx
	addl	$-1, %ecx
	movl	%ecx, 12(%rax)
	cmpl	$0, %ecx
	jne	.LBB17_24
# %bb.20:                               # %if.then65
                                        #   in Loop: Header=BB17_18 Depth=2
	movq	-8(%rbp), %rax
	movl	8(%rax), %eax
	movq	-8(%rbp), %rcx
	movq	24(%rcx), %rcx
	movq	-8(%rbp), %rdx
	movq	32(%rdx), %rdx
	movl	(%rdx), %esi
	movl	%esi, %edi
	addl	$1, %edi
	movl	%edi, (%rdx)
	movslq	%esi, %rdx
	movb	%al, (%rcx,%rdx)
	movq	-8(%rbp), %rax
	movl	$8, 12(%rax)
.LBB17_21:                              # %while.cond74
                                        #   Parent Loop BB17_10 Depth=1
                                        #     Parent Loop BB17_18 Depth=2
                                        # =>    This Inner Loop Header: Depth=3
	movq	-8(%rbp), %rax
	cmpl	$7, 80(%rax)
	jle	.LBB17_23
# %bb.22:                               # %while.body78
                                        #   in Loop: Header=BB17_21 Depth=3
	movq	-8(%rbp), %rax
	movl	80(%rax), %ecx
	subl	$8, %ecx
	movl	%ecx, 80(%rax)
	movq	-8(%rbp), %rax
	movl	88(%rax), %ecx
	addl	$1, %ecx
	movl	%ecx, 88(%rax)
	jmp	.LBB17_21
.LBB17_23:                              # %while.end83
                                        #   in Loop: Header=BB17_18 Depth=2
	jmp	.LBB17_24
.LBB17_24:                              # %if.end84
                                        #   in Loop: Header=BB17_18 Depth=2
	jmp	.LBB17_18
.LBB17_25:                              # %while.end85
                                        #   in Loop: Header=BB17_10 Depth=1
	movl	-12(%rbp), %eax
	subl	$512, %eax              # imm = 0x200
	movl	%eax, -12(%rbp)
	jmp	.LBB17_43
.LBB17_26:                              # %if.else87
                                        #   in Loop: Header=BB17_10 Depth=1
	cmpl	$256, -12(%rbp)         # imm = 0x100
	jae	.LBB17_41
# %bb.27:                               # %if.then90
                                        #   in Loop: Header=BB17_10 Depth=1
	movq	-8(%rbp), %rax
	movl	8(%rax), %ecx
	shll	$1, %ecx
	movl	%ecx, 8(%rax)
	movq	-8(%rbp), %rax
	movl	8(%rax), %ecx
	movl	%ecx, 8(%rax)
	movq	-8(%rbp), %rax
	movl	12(%rax), %ecx
	addl	$-1, %ecx
	movl	%ecx, 12(%rax)
	cmpl	$0, %ecx
	jne	.LBB17_32
# %bb.28:                               # %if.then98
                                        #   in Loop: Header=BB17_10 Depth=1
	movq	-8(%rbp), %rax
	movl	8(%rax), %eax
	movq	-8(%rbp), %rcx
	movq	24(%rcx), %rcx
	movq	-8(%rbp), %rdx
	movq	32(%rdx), %rdx
	movl	(%rdx), %esi
	movl	%esi, %edi
	addl	$1, %edi
	movl	%edi, (%rdx)
	movslq	%esi, %rdx
	movb	%al, (%rcx,%rdx)
	movq	-8(%rbp), %rax
	movl	$8, 12(%rax)
.LBB17_29:                              # %while.cond107
                                        #   Parent Loop BB17_10 Depth=1
                                        # =>  This Inner Loop Header: Depth=2
	movq	-8(%rbp), %rax
	cmpl	$7, 80(%rax)
	jle	.LBB17_31
# %bb.30:                               # %while.body111
                                        #   in Loop: Header=BB17_29 Depth=2
	movq	-8(%rbp), %rax
	movl	80(%rax), %ecx
	subl	$8, %ecx
	movl	%ecx, 80(%rax)
	movq	-8(%rbp), %rax
	movl	88(%rax), %ecx
	addl	$1, %ecx
	movl	%ecx, 88(%rax)
	jmp	.LBB17_29
.LBB17_31:                              # %while.end116
                                        #   in Loop: Header=BB17_10 Depth=1
	jmp	.LBB17_32
.LBB17_32:                              # %if.end117
                                        #   in Loop: Header=BB17_10 Depth=1
	jmp	.LBB17_33
.LBB17_33:                              # %while.cond118
                                        #   Parent Loop BB17_10 Depth=1
                                        # =>  This Loop Header: Depth=2
                                        #       Child Loop BB17_36 Depth 3
	movq	-8(%rbp), %rax
	cmpl	$0, 16(%rax)
	jbe	.LBB17_40
# %bb.34:                               # %while.body122
                                        #   in Loop: Header=BB17_33 Depth=2
	movq	-8(%rbp), %rax
	movl	16(%rax), %ecx
	addl	$-1, %ecx
	movl	%ecx, 16(%rax)
	movq	-8(%rbp), %rax
	movl	8(%rax), %ecx
	shll	$1, %ecx
	movl	%ecx, 8(%rax)
	movq	-8(%rbp), %rax
	movl	8(%rax), %ecx
	orl	$1, %ecx
	movl	%ecx, 8(%rax)
	movq	-8(%rbp), %rax
	movl	12(%rax), %ecx
	addl	$-1, %ecx
	movl	%ecx, 12(%rax)
	cmpl	$0, %ecx
	jne	.LBB17_39
# %bb.35:                               # %if.then133
                                        #   in Loop: Header=BB17_33 Depth=2
	movq	-8(%rbp), %rax
	movl	8(%rax), %eax
	movq	-8(%rbp), %rcx
	movq	24(%rcx), %rcx
	movq	-8(%rbp), %rdx
	movq	32(%rdx), %rdx
	movl	(%rdx), %esi
	movl	%esi, %edi
	addl	$1, %edi
	movl	%edi, (%rdx)
	movslq	%esi, %rdx
	movb	%al, (%rcx,%rdx)
	movq	-8(%rbp), %rax
	movl	$8, 12(%rax)
.LBB17_36:                              # %while.cond142
                                        #   Parent Loop BB17_10 Depth=1
                                        #     Parent Loop BB17_33 Depth=2
                                        # =>    This Inner Loop Header: Depth=3
	movq	-8(%rbp), %rax
	cmpl	$7, 80(%rax)
	jle	.LBB17_38
# %bb.37:                               # %while.body146
                                        #   in Loop: Header=BB17_36 Depth=3
	movq	-8(%rbp), %rax
	movl	80(%rax), %ecx
	subl	$8, %ecx
	movl	%ecx, 80(%rax)
	movq	-8(%rbp), %rax
	movl	88(%rax), %ecx
	addl	$1, %ecx
	movl	%ecx, 88(%rax)
	jmp	.LBB17_36
.LBB17_38:                              # %while.end151
                                        #   in Loop: Header=BB17_33 Depth=2
	jmp	.LBB17_39
.LBB17_39:                              # %if.end152
                                        #   in Loop: Header=BB17_33 Depth=2
	jmp	.LBB17_33
.LBB17_40:                              # %while.end153
                                        #   in Loop: Header=BB17_10 Depth=1
	jmp	.LBB17_42
.LBB17_41:                              # %if.else154
                                        #   in Loop: Header=BB17_10 Depth=1
	movq	-8(%rbp), %rax
	movl	16(%rax), %ecx
	addl	$1, %ecx
	movl	%ecx, 16(%rax)
	movl	-12(%rbp), %eax
	subl	$256, %eax              # imm = 0x100
	movl	%eax, -12(%rbp)
.LBB17_42:                              # %if.end158
                                        #   in Loop: Header=BB17_10 Depth=1
	jmp	.LBB17_43
.LBB17_43:                              # %if.end159
                                        #   in Loop: Header=BB17_10 Depth=1
	movl	-12(%rbp), %eax
	shll	$1, %eax
	movl	%eax, -12(%rbp)
	movl	-16(%rbp), %eax
	shll	$1, %eax
	movl	%eax, -16(%rbp)
	jmp	.LBB17_10
.LBB17_44:                              # %while.end162
	movl	-16(%rbp), %eax
	movq	-8(%rbp), %rcx
	movl	%eax, 4(%rcx)
	movl	-12(%rbp), %eax
	movq	-8(%rbp), %rcx
	movl	%eax, (%rcx)
	movq	-8(%rbp), %rax
	movl	80(%rax), %ecx
	addl	$1, %ecx
	movl	%ecx, 80(%rax)
	cmpl	$908428988, -40(%rbp)   # imm = 0x362586BC
	jne	.LBB17_46
.LBB17_45:
	addq	$48, %rsp
	popq	%rbp
	.cfi_def_cfa %rsp, 8
	retq
.LBB17_46:                              # %func_exit
	.cfi_def_cfa %rbp, 16
	callq	detect_breach
	jmp	.LBB17_45
.Lfunc_end17:
	.size	biari_encode_symbol.9, .Lfunc_end17-biari_encode_symbol.9
	.cfi_endproc
                                        # -- End function
	.globl	biari_encode_symbol.10  # -- Begin function biari_encode_symbol.10
	.p2align	4, 0x90
	.type	biari_encode_symbol.10,@function
biari_encode_symbol.10:                 # @biari_encode_symbol.10
	.cfi_startproc
# %bb.0:                                # %entry
	pushq	%rbp
	.cfi_def_cfa_offset 16
	.cfi_offset %rbp, -16
	movq	%rsp, %rbp
	.cfi_def_cfa_register %rbp
	subq	$48, %rsp
	movl	$2024429791, -40(%rbp)  # imm = 0x78AA58DF
	movq	%rdi, -8(%rbp)
	movw	%si, -18(%rbp)
	movq	%rdx, -32(%rbp)
	movq	-8(%rbp), %rax
	movl	4(%rax), %eax
	movl	%eax, -16(%rbp)
	movq	-8(%rbp), %rax
	movl	(%rax), %eax
	movl	%eax, -12(%rbp)
	movq	-32(%rbp), %rax
	movzwl	(%rax), %eax
	shlq	$2, %rax
	movabsq	$rLPS_table_64x4, %rcx
	addq	%rax, %rcx
	movl	-16(%rbp), %eax
	shrl	$6, %eax
	andl	$3, %eax
	movl	%eax, %eax
	movzbl	(%rcx,%rax), %eax
	movl	%eax, -36(%rbp)
	cmpl	$0, cabac_encoding
	je	.LBB18_2
# %bb.1:                                # %if.then
	movq	-32(%rbp), %rax
	movq	8(%rax), %rcx
	addq	$1, %rcx
	movq	%rcx, 8(%rax)
.LBB18_2:                               # %if.end
	movswl	-18(%rbp), %eax
	cmpl	$0, %eax
	je	.LBB18_4
# %bb.3:                                # %if.then5
	movw	$1, -18(%rbp)
.LBB18_4:                               # %if.end6
	movl	-36(%rbp), %eax
	movl	-16(%rbp), %ecx
	subl	%eax, %ecx
	movl	%ecx, -16(%rbp)
	movswl	-18(%rbp), %eax
	movq	-32(%rbp), %rcx
	movzbl	2(%rcx), %ecx
	cmpl	%ecx, %eax
	je	.LBB18_8
# %bb.5:                                # %if.then11
	movl	-16(%rbp), %eax
	addl	-12(%rbp), %eax
	movl	%eax, -12(%rbp)
	movl	-36(%rbp), %eax
	movl	%eax, -16(%rbp)
	movq	-32(%rbp), %rax
	cmpw	$0, (%rax)
	jne	.LBB18_7
# %bb.6:                                # %if.then14
	movq	-32(%rbp), %rax
	movzbl	2(%rax), %eax
	xorl	$1, %eax
	movq	-32(%rbp), %rcx
	movb	%al, 2(%rcx)
.LBB18_7:                               # %if.end19
	movq	-32(%rbp), %rax
	movzwl	(%rax), %eax
	movw	AC_next_state_LPS_64(,%rax,2), %ax
	movq	-32(%rbp), %rcx
	movw	%ax, (%rcx)
	jmp	.LBB18_9
.LBB18_8:                               # %if.else
	movq	-32(%rbp), %rax
	movzwl	(%rax), %eax
	movw	AC_next_state_MPS_64(,%rax,2), %ax
	movq	-32(%rbp), %rcx
	movw	%ax, (%rcx)
.LBB18_9:                               # %if.end28
	jmp	.LBB18_10
.LBB18_10:                              # %while.cond
                                        # =>This Loop Header: Depth=1
                                        #     Child Loop BB18_14 Depth 2
                                        #     Child Loop BB18_18 Depth 2
                                        #       Child Loop BB18_21 Depth 3
                                        #     Child Loop BB18_29 Depth 2
                                        #     Child Loop BB18_33 Depth 2
                                        #       Child Loop BB18_36 Depth 3
	cmpl	$256, -16(%rbp)         # imm = 0x100
	jae	.LBB18_44
# %bb.11:                               # %while.body
                                        #   in Loop: Header=BB18_10 Depth=1
	cmpl	$512, -12(%rbp)         # imm = 0x200
	jb	.LBB18_26
# %bb.12:                               # %if.then33
                                        #   in Loop: Header=BB18_10 Depth=1
	movq	-8(%rbp), %rax
	movl	8(%rax), %ecx
	shll	$1, %ecx
	movl	%ecx, 8(%rax)
	movq	-8(%rbp), %rax
	movl	8(%rax), %ecx
	orl	$1, %ecx
	movl	%ecx, 8(%rax)
	movq	-8(%rbp), %rax
	movl	12(%rax), %ecx
	addl	$-1, %ecx
	movl	%ecx, 12(%rax)
	cmpl	$0, %ecx
	jne	.LBB18_17
# %bb.13:                               # %if.then37
                                        #   in Loop: Header=BB18_10 Depth=1
	movq	-8(%rbp), %rax
	movl	8(%rax), %eax
	movq	-8(%rbp), %rcx
	movq	24(%rcx), %rcx
	movq	-8(%rbp), %rdx
	movq	32(%rdx), %rdx
	movl	(%rdx), %esi
	movl	%esi, %edi
	addl	$1, %edi
	movl	%edi, (%rdx)
	movslq	%esi, %rdx
	movb	%al, (%rcx,%rdx)
	movq	-8(%rbp), %rax
	movl	$8, 12(%rax)
.LBB18_14:                              # %while.cond44
                                        #   Parent Loop BB18_10 Depth=1
                                        # =>  This Inner Loop Header: Depth=2
	movq	-8(%rbp), %rax
	cmpl	$7, 80(%rax)
	jle	.LBB18_16
# %bb.15:                               # %while.body47
                                        #   in Loop: Header=BB18_14 Depth=2
	movq	-8(%rbp), %rax
	movl	80(%rax), %ecx
	subl	$8, %ecx
	movl	%ecx, 80(%rax)
	movq	-8(%rbp), %rax
	movl	88(%rax), %ecx
	addl	$1, %ecx
	movl	%ecx, 88(%rax)
	jmp	.LBB18_14
.LBB18_16:                              # %while.end
                                        #   in Loop: Header=BB18_10 Depth=1
	jmp	.LBB18_17
.LBB18_17:                              # %if.end51
                                        #   in Loop: Header=BB18_10 Depth=1
	jmp	.LBB18_18
.LBB18_18:                              # %while.cond52
                                        #   Parent Loop BB18_10 Depth=1
                                        # =>  This Loop Header: Depth=2
                                        #       Child Loop BB18_21 Depth 3
	movq	-8(%rbp), %rax
	cmpl	$0, 16(%rax)
	jbe	.LBB18_25
# %bb.19:                               # %while.body55
                                        #   in Loop: Header=BB18_18 Depth=2
	movq	-8(%rbp), %rax
	movl	16(%rax), %ecx
	addl	$-1, %ecx
	movl	%ecx, 16(%rax)
	movq	-8(%rbp), %rax
	movl	8(%rax), %ecx
	shll	$1, %ecx
	movl	%ecx, 8(%rax)
	movq	-8(%rbp), %rax
	movl	8(%rax), %ecx
	movl	%ecx, 8(%rax)
	movq	-8(%rbp), %rax
	movl	12(%rax), %ecx
	addl	$-1, %ecx
	movl	%ecx, 12(%rax)
	cmpl	$0, %ecx
	jne	.LBB18_24
# %bb.20:                               # %if.then65
                                        #   in Loop: Header=BB18_18 Depth=2
	movq	-8(%rbp), %rax
	movl	8(%rax), %eax
	movq	-8(%rbp), %rcx
	movq	24(%rcx), %rcx
	movq	-8(%rbp), %rdx
	movq	32(%rdx), %rdx
	movl	(%rdx), %esi
	movl	%esi, %edi
	addl	$1, %edi
	movl	%edi, (%rdx)
	movslq	%esi, %rdx
	movb	%al, (%rcx,%rdx)
	movq	-8(%rbp), %rax
	movl	$8, 12(%rax)
.LBB18_21:                              # %while.cond74
                                        #   Parent Loop BB18_10 Depth=1
                                        #     Parent Loop BB18_18 Depth=2
                                        # =>    This Inner Loop Header: Depth=3
	movq	-8(%rbp), %rax
	cmpl	$7, 80(%rax)
	jle	.LBB18_23
# %bb.22:                               # %while.body78
                                        #   in Loop: Header=BB18_21 Depth=3
	movq	-8(%rbp), %rax
	movl	80(%rax), %ecx
	subl	$8, %ecx
	movl	%ecx, 80(%rax)
	movq	-8(%rbp), %rax
	movl	88(%rax), %ecx
	addl	$1, %ecx
	movl	%ecx, 88(%rax)
	jmp	.LBB18_21
.LBB18_23:                              # %while.end83
                                        #   in Loop: Header=BB18_18 Depth=2
	jmp	.LBB18_24
.LBB18_24:                              # %if.end84
                                        #   in Loop: Header=BB18_18 Depth=2
	jmp	.LBB18_18
.LBB18_25:                              # %while.end85
                                        #   in Loop: Header=BB18_10 Depth=1
	movl	-12(%rbp), %eax
	subl	$512, %eax              # imm = 0x200
	movl	%eax, -12(%rbp)
	jmp	.LBB18_43
.LBB18_26:                              # %if.else87
                                        #   in Loop: Header=BB18_10 Depth=1
	cmpl	$256, -12(%rbp)         # imm = 0x100
	jae	.LBB18_41
# %bb.27:                               # %if.then90
                                        #   in Loop: Header=BB18_10 Depth=1
	movq	-8(%rbp), %rax
	movl	8(%rax), %ecx
	shll	$1, %ecx
	movl	%ecx, 8(%rax)
	movq	-8(%rbp), %rax
	movl	8(%rax), %ecx
	movl	%ecx, 8(%rax)
	movq	-8(%rbp), %rax
	movl	12(%rax), %ecx
	addl	$-1, %ecx
	movl	%ecx, 12(%rax)
	cmpl	$0, %ecx
	jne	.LBB18_32
# %bb.28:                               # %if.then98
                                        #   in Loop: Header=BB18_10 Depth=1
	movq	-8(%rbp), %rax
	movl	8(%rax), %eax
	movq	-8(%rbp), %rcx
	movq	24(%rcx), %rcx
	movq	-8(%rbp), %rdx
	movq	32(%rdx), %rdx
	movl	(%rdx), %esi
	movl	%esi, %edi
	addl	$1, %edi
	movl	%edi, (%rdx)
	movslq	%esi, %rdx
	movb	%al, (%rcx,%rdx)
	movq	-8(%rbp), %rax
	movl	$8, 12(%rax)
.LBB18_29:                              # %while.cond107
                                        #   Parent Loop BB18_10 Depth=1
                                        # =>  This Inner Loop Header: Depth=2
	movq	-8(%rbp), %rax
	cmpl	$7, 80(%rax)
	jle	.LBB18_31
# %bb.30:                               # %while.body111
                                        #   in Loop: Header=BB18_29 Depth=2
	movq	-8(%rbp), %rax
	movl	80(%rax), %ecx
	subl	$8, %ecx
	movl	%ecx, 80(%rax)
	movq	-8(%rbp), %rax
	movl	88(%rax), %ecx
	addl	$1, %ecx
	movl	%ecx, 88(%rax)
	jmp	.LBB18_29
.LBB18_31:                              # %while.end116
                                        #   in Loop: Header=BB18_10 Depth=1
	jmp	.LBB18_32
.LBB18_32:                              # %if.end117
                                        #   in Loop: Header=BB18_10 Depth=1
	jmp	.LBB18_33
.LBB18_33:                              # %while.cond118
                                        #   Parent Loop BB18_10 Depth=1
                                        # =>  This Loop Header: Depth=2
                                        #       Child Loop BB18_36 Depth 3
	movq	-8(%rbp), %rax
	cmpl	$0, 16(%rax)
	jbe	.LBB18_40
# %bb.34:                               # %while.body122
                                        #   in Loop: Header=BB18_33 Depth=2
	movq	-8(%rbp), %rax
	movl	16(%rax), %ecx
	addl	$-1, %ecx
	movl	%ecx, 16(%rax)
	movq	-8(%rbp), %rax
	movl	8(%rax), %ecx
	shll	$1, %ecx
	movl	%ecx, 8(%rax)
	movq	-8(%rbp), %rax
	movl	8(%rax), %ecx
	orl	$1, %ecx
	movl	%ecx, 8(%rax)
	movq	-8(%rbp), %rax
	movl	12(%rax), %ecx
	addl	$-1, %ecx
	movl	%ecx, 12(%rax)
	cmpl	$0, %ecx
	jne	.LBB18_39
# %bb.35:                               # %if.then133
                                        #   in Loop: Header=BB18_33 Depth=2
	movq	-8(%rbp), %rax
	movl	8(%rax), %eax
	movq	-8(%rbp), %rcx
	movq	24(%rcx), %rcx
	movq	-8(%rbp), %rdx
	movq	32(%rdx), %rdx
	movl	(%rdx), %esi
	movl	%esi, %edi
	addl	$1, %edi
	movl	%edi, (%rdx)
	movslq	%esi, %rdx
	movb	%al, (%rcx,%rdx)
	movq	-8(%rbp), %rax
	movl	$8, 12(%rax)
.LBB18_36:                              # %while.cond142
                                        #   Parent Loop BB18_10 Depth=1
                                        #     Parent Loop BB18_33 Depth=2
                                        # =>    This Inner Loop Header: Depth=3
	movq	-8(%rbp), %rax
	cmpl	$7, 80(%rax)
	jle	.LBB18_38
# %bb.37:                               # %while.body146
                                        #   in Loop: Header=BB18_36 Depth=3
	movq	-8(%rbp), %rax
	movl	80(%rax), %ecx
	subl	$8, %ecx
	movl	%ecx, 80(%rax)
	movq	-8(%rbp), %rax
	movl	88(%rax), %ecx
	addl	$1, %ecx
	movl	%ecx, 88(%rax)
	jmp	.LBB18_36
.LBB18_38:                              # %while.end151
                                        #   in Loop: Header=BB18_33 Depth=2
	jmp	.LBB18_39
.LBB18_39:                              # %if.end152
                                        #   in Loop: Header=BB18_33 Depth=2
	jmp	.LBB18_33
.LBB18_40:                              # %while.end153
                                        #   in Loop: Header=BB18_10 Depth=1
	jmp	.LBB18_42
.LBB18_41:                              # %if.else154
                                        #   in Loop: Header=BB18_10 Depth=1
	movq	-8(%rbp), %rax
	movl	16(%rax), %ecx
	addl	$1, %ecx
	movl	%ecx, 16(%rax)
	movl	-12(%rbp), %eax
	subl	$256, %eax              # imm = 0x100
	movl	%eax, -12(%rbp)
.LBB18_42:                              # %if.end158
                                        #   in Loop: Header=BB18_10 Depth=1
	jmp	.LBB18_43
.LBB18_43:                              # %if.end159
                                        #   in Loop: Header=BB18_10 Depth=1
	movl	-12(%rbp), %eax
	shll	$1, %eax
	movl	%eax, -12(%rbp)
	movl	-16(%rbp), %eax
	shll	$1, %eax
	movl	%eax, -16(%rbp)
	jmp	.LBB18_10
.LBB18_44:                              # %while.end162
	movl	-16(%rbp), %eax
	movq	-8(%rbp), %rcx
	movl	%eax, 4(%rcx)
	movl	-12(%rbp), %eax
	movq	-8(%rbp), %rcx
	movl	%eax, (%rcx)
	movq	-8(%rbp), %rax
	movl	80(%rax), %ecx
	addl	$1, %ecx
	movl	%ecx, 80(%rax)
	cmpl	$2024429791, -40(%rbp)  # imm = 0x78AA58DF
	jne	.LBB18_46
.LBB18_45:
	addq	$48, %rsp
	popq	%rbp
	.cfi_def_cfa %rsp, 8
	retq
.LBB18_46:                              # %func_exit
	.cfi_def_cfa %rbp, 16
	callq	detect_breach
	jmp	.LBB18_45
.Lfunc_end18:
	.size	biari_encode_symbol.10, .Lfunc_end18-biari_encode_symbol.10
	.cfi_endproc
                                        # -- End function
	.globl	biari_encode_symbol_final.11 # -- Begin function biari_encode_symbol_final.11
	.p2align	4, 0x90
	.type	biari_encode_symbol_final.11,@function
biari_encode_symbol_final.11:           # @biari_encode_symbol_final.11
	.cfi_startproc
# %bb.0:                                # %entry
	pushq	%rbp
	.cfi_def_cfa_offset 16
	.cfi_offset %rbp, -16
	movq	%rsp, %rbp
	.cfi_def_cfa_register %rbp
	subq	$32, %rsp
	movl	$1716775038, -24(%rbp)  # imm = 0x6653E87E
	movq	%rdi, -8(%rbp)
	movw	%si, -18(%rbp)
	movq	-8(%rbp), %rax
	movl	4(%rax), %eax
	subl	$2, %eax
	movl	%eax, -16(%rbp)
	movq	-8(%rbp), %rax
	movl	(%rax), %eax
	movl	%eax, -12(%rbp)
	cmpw	$0, -18(%rbp)
	je	.LBB19_2
# %bb.1:                                # %if.then
	movl	-16(%rbp), %eax
	addl	-12(%rbp), %eax
	movl	%eax, -12(%rbp)
	movl	$2, -16(%rbp)
.LBB19_2:                               # %if.end
	jmp	.LBB19_3
.LBB19_3:                               # %while.cond
                                        # =>This Loop Header: Depth=1
                                        #     Child Loop BB19_7 Depth 2
                                        #     Child Loop BB19_11 Depth 2
                                        #       Child Loop BB19_14 Depth 3
                                        #     Child Loop BB19_22 Depth 2
                                        #     Child Loop BB19_26 Depth 2
                                        #       Child Loop BB19_29 Depth 3
	cmpl	$256, -16(%rbp)         # imm = 0x100
	jae	.LBB19_37
# %bb.4:                                # %while.body
                                        #   in Loop: Header=BB19_3 Depth=1
	cmpl	$512, -12(%rbp)         # imm = 0x200
	jb	.LBB19_19
# %bb.5:                                # %if.then2
                                        #   in Loop: Header=BB19_3 Depth=1
	movq	-8(%rbp), %rax
	movl	8(%rax), %ecx
	shll	$1, %ecx
	movl	%ecx, 8(%rax)
	movq	-8(%rbp), %rax
	movl	8(%rax), %ecx
	orl	$1, %ecx
	movl	%ecx, 8(%rax)
	movq	-8(%rbp), %rax
	movl	12(%rax), %ecx
	addl	$-1, %ecx
	movl	%ecx, 12(%rax)
	cmpl	$0, %ecx
	jne	.LBB19_10
# %bb.6:                                # %if.then5
                                        #   in Loop: Header=BB19_3 Depth=1
	movq	-8(%rbp), %rax
	movl	8(%rax), %eax
	movq	-8(%rbp), %rcx
	movq	24(%rcx), %rcx
	movq	-8(%rbp), %rdx
	movq	32(%rdx), %rdx
	movl	(%rdx), %esi
	movl	%esi, %edi
	addl	$1, %edi
	movl	%edi, (%rdx)
	movslq	%esi, %rdx
	movb	%al, (%rcx,%rdx)
	movq	-8(%rbp), %rax
	movl	$8, 12(%rax)
.LBB19_7:                               # %while.cond8
                                        #   Parent Loop BB19_3 Depth=1
                                        # =>  This Inner Loop Header: Depth=2
	movq	-8(%rbp), %rax
	cmpl	$7, 80(%rax)
	jle	.LBB19_9
# %bb.8:                                # %while.body11
                                        #   in Loop: Header=BB19_7 Depth=2
	movq	-8(%rbp), %rax
	movl	80(%rax), %ecx
	subl	$8, %ecx
	movl	%ecx, 80(%rax)
	movq	-8(%rbp), %rax
	movl	88(%rax), %ecx
	addl	$1, %ecx
	movl	%ecx, 88(%rax)
	jmp	.LBB19_7
.LBB19_9:                               # %while.end
                                        #   in Loop: Header=BB19_3 Depth=1
	jmp	.LBB19_10
.LBB19_10:                              # %if.end15
                                        #   in Loop: Header=BB19_3 Depth=1
	jmp	.LBB19_11
.LBB19_11:                              # %while.cond16
                                        #   Parent Loop BB19_3 Depth=1
                                        # =>  This Loop Header: Depth=2
                                        #       Child Loop BB19_14 Depth 3
	movq	-8(%rbp), %rax
	cmpl	$0, 16(%rax)
	jbe	.LBB19_18
# %bb.12:                               # %while.body19
                                        #   in Loop: Header=BB19_11 Depth=2
	movq	-8(%rbp), %rax
	movl	16(%rax), %ecx
	addl	$-1, %ecx
	movl	%ecx, 16(%rax)
	movq	-8(%rbp), %rax
	movl	8(%rax), %ecx
	shll	$1, %ecx
	movl	%ecx, 8(%rax)
	movq	-8(%rbp), %rax
	movl	8(%rax), %ecx
	movl	%ecx, 8(%rax)
	movq	-8(%rbp), %rax
	movl	12(%rax), %ecx
	addl	$-1, %ecx
	movl	%ecx, 12(%rax)
	cmpl	$0, %ecx
	jne	.LBB19_17
# %bb.13:                               # %if.then29
                                        #   in Loop: Header=BB19_11 Depth=2
	movq	-8(%rbp), %rax
	movl	8(%rax), %eax
	movq	-8(%rbp), %rcx
	movq	24(%rcx), %rcx
	movq	-8(%rbp), %rdx
	movq	32(%rdx), %rdx
	movl	(%rdx), %esi
	movl	%esi, %edi
	addl	$1, %edi
	movl	%edi, (%rdx)
	movslq	%esi, %rdx
	movb	%al, (%rcx,%rdx)
	movq	-8(%rbp), %rax
	movl	$8, 12(%rax)
.LBB19_14:                              # %while.cond38
                                        #   Parent Loop BB19_3 Depth=1
                                        #     Parent Loop BB19_11 Depth=2
                                        # =>    This Inner Loop Header: Depth=3
	movq	-8(%rbp), %rax
	cmpl	$7, 80(%rax)
	jle	.LBB19_16
# %bb.15:                               # %while.body42
                                        #   in Loop: Header=BB19_14 Depth=3
	movq	-8(%rbp), %rax
	movl	80(%rax), %ecx
	subl	$8, %ecx
	movl	%ecx, 80(%rax)
	movq	-8(%rbp), %rax
	movl	88(%rax), %ecx
	addl	$1, %ecx
	movl	%ecx, 88(%rax)
	jmp	.LBB19_14
.LBB19_16:                              # %while.end47
                                        #   in Loop: Header=BB19_11 Depth=2
	jmp	.LBB19_17
.LBB19_17:                              # %if.end48
                                        #   in Loop: Header=BB19_11 Depth=2
	jmp	.LBB19_11
.LBB19_18:                              # %while.end49
                                        #   in Loop: Header=BB19_3 Depth=1
	movl	-12(%rbp), %eax
	subl	$512, %eax              # imm = 0x200
	movl	%eax, -12(%rbp)
	jmp	.LBB19_36
.LBB19_19:                              # %if.else
                                        #   in Loop: Header=BB19_3 Depth=1
	cmpl	$256, -12(%rbp)         # imm = 0x100
	jae	.LBB19_34
# %bb.20:                               # %if.then53
                                        #   in Loop: Header=BB19_3 Depth=1
	movq	-8(%rbp), %rax
	movl	8(%rax), %ecx
	shll	$1, %ecx
	movl	%ecx, 8(%rax)
	movq	-8(%rbp), %rax
	movl	8(%rax), %ecx
	movl	%ecx, 8(%rax)
	movq	-8(%rbp), %rax
	movl	12(%rax), %ecx
	addl	$-1, %ecx
	movl	%ecx, 12(%rax)
	cmpl	$0, %ecx
	jne	.LBB19_25
# %bb.21:                               # %if.then61
                                        #   in Loop: Header=BB19_3 Depth=1
	movq	-8(%rbp), %rax
	movl	8(%rax), %eax
	movq	-8(%rbp), %rcx
	movq	24(%rcx), %rcx
	movq	-8(%rbp), %rdx
	movq	32(%rdx), %rdx
	movl	(%rdx), %esi
	movl	%esi, %edi
	addl	$1, %edi
	movl	%edi, (%rdx)
	movslq	%esi, %rdx
	movb	%al, (%rcx,%rdx)
	movq	-8(%rbp), %rax
	movl	$8, 12(%rax)
.LBB19_22:                              # %while.cond70
                                        #   Parent Loop BB19_3 Depth=1
                                        # =>  This Inner Loop Header: Depth=2
	movq	-8(%rbp), %rax
	cmpl	$7, 80(%rax)
	jle	.LBB19_24
# %bb.23:                               # %while.body74
                                        #   in Loop: Header=BB19_22 Depth=2
	movq	-8(%rbp), %rax
	movl	80(%rax), %ecx
	subl	$8, %ecx
	movl	%ecx, 80(%rax)
	movq	-8(%rbp), %rax
	movl	88(%rax), %ecx
	addl	$1, %ecx
	movl	%ecx, 88(%rax)
	jmp	.LBB19_22
.LBB19_24:                              # %while.end79
                                        #   in Loop: Header=BB19_3 Depth=1
	jmp	.LBB19_25
.LBB19_25:                              # %if.end80
                                        #   in Loop: Header=BB19_3 Depth=1
	jmp	.LBB19_26
.LBB19_26:                              # %while.cond81
                                        #   Parent Loop BB19_3 Depth=1
                                        # =>  This Loop Header: Depth=2
                                        #       Child Loop BB19_29 Depth 3
	movq	-8(%rbp), %rax
	cmpl	$0, 16(%rax)
	jbe	.LBB19_33
# %bb.27:                               # %while.body85
                                        #   in Loop: Header=BB19_26 Depth=2
	movq	-8(%rbp), %rax
	movl	16(%rax), %ecx
	addl	$-1, %ecx
	movl	%ecx, 16(%rax)
	movq	-8(%rbp), %rax
	movl	8(%rax), %ecx
	shll	$1, %ecx
	movl	%ecx, 8(%rax)
	movq	-8(%rbp), %rax
	movl	8(%rax), %ecx
	orl	$1, %ecx
	movl	%ecx, 8(%rax)
	movq	-8(%rbp), %rax
	movl	12(%rax), %ecx
	addl	$-1, %ecx
	movl	%ecx, 12(%rax)
	cmpl	$0, %ecx
	jne	.LBB19_32
# %bb.28:                               # %if.then96
                                        #   in Loop: Header=BB19_26 Depth=2
	movq	-8(%rbp), %rax
	movl	8(%rax), %eax
	movq	-8(%rbp), %rcx
	movq	24(%rcx), %rcx
	movq	-8(%rbp), %rdx
	movq	32(%rdx), %rdx
	movl	(%rdx), %esi
	movl	%esi, %edi
	addl	$1, %edi
	movl	%edi, (%rdx)
	movslq	%esi, %rdx
	movb	%al, (%rcx,%rdx)
	movq	-8(%rbp), %rax
	movl	$8, 12(%rax)
.LBB19_29:                              # %while.cond105
                                        #   Parent Loop BB19_3 Depth=1
                                        #     Parent Loop BB19_26 Depth=2
                                        # =>    This Inner Loop Header: Depth=3
	movq	-8(%rbp), %rax
	cmpl	$7, 80(%rax)
	jle	.LBB19_31
# %bb.30:                               # %while.body109
                                        #   in Loop: Header=BB19_29 Depth=3
	movq	-8(%rbp), %rax
	movl	80(%rax), %ecx
	subl	$8, %ecx
	movl	%ecx, 80(%rax)
	movq	-8(%rbp), %rax
	movl	88(%rax), %ecx
	addl	$1, %ecx
	movl	%ecx, 88(%rax)
	jmp	.LBB19_29
.LBB19_31:                              # %while.end114
                                        #   in Loop: Header=BB19_26 Depth=2
	jmp	.LBB19_32
.LBB19_32:                              # %if.end115
                                        #   in Loop: Header=BB19_26 Depth=2
	jmp	.LBB19_26
.LBB19_33:                              # %while.end116
                                        #   in Loop: Header=BB19_3 Depth=1
	jmp	.LBB19_35
.LBB19_34:                              # %if.else117
                                        #   in Loop: Header=BB19_3 Depth=1
	movq	-8(%rbp), %rax
	movl	16(%rax), %ecx
	addl	$1, %ecx
	movl	%ecx, 16(%rax)
	movl	-12(%rbp), %eax
	subl	$256, %eax              # imm = 0x100
	movl	%eax, -12(%rbp)
.LBB19_35:                              # %if.end121
                                        #   in Loop: Header=BB19_3 Depth=1
	jmp	.LBB19_36
.LBB19_36:                              # %if.end122
                                        #   in Loop: Header=BB19_3 Depth=1
	movl	-12(%rbp), %eax
	shll	$1, %eax
	movl	%eax, -12(%rbp)
	movl	-16(%rbp), %eax
	shll	$1, %eax
	movl	%eax, -16(%rbp)
	jmp	.LBB19_3
.LBB19_37:                              # %while.end125
	movl	-16(%rbp), %eax
	movq	-8(%rbp), %rcx
	movl	%eax, 4(%rcx)
	movl	-12(%rbp), %eax
	movq	-8(%rbp), %rcx
	movl	%eax, (%rcx)
	movq	-8(%rbp), %rax
	movl	80(%rax), %ecx
	addl	$1, %ecx
	movl	%ecx, 80(%rax)
	cmpl	$1716775038, -24(%rbp)  # imm = 0x6653E87E
	jne	.LBB19_39
.LBB19_38:
	addq	$32, %rsp
	popq	%rbp
	.cfi_def_cfa %rsp, 8
	retq
.LBB19_39:                              # %func_exit
	.cfi_def_cfa %rbp, 16
	callq	detect_breach
	jmp	.LBB19_38
.Lfunc_end19:
	.size	biari_encode_symbol_final.11, .Lfunc_end19-biari_encode_symbol_final.11
	.cfi_endproc
                                        # -- End function
	.globl	biari_init_context.12   # -- Begin function biari_init_context.12
	.p2align	4, 0x90
	.type	biari_init_context.12,@function
biari_init_context.12:                  # @biari_init_context.12
	.cfi_startproc
# %bb.0:                                # %entry
	pushq	%rbp
	.cfi_def_cfa_offset 16
	.cfi_offset %rbp, -16
	movq	%rsp, %rbp
	.cfi_def_cfa_register %rbp
	subq	$32, %rsp
	xorl	%ecx, %ecx
	movl	$1609068387, -20(%rbp)  # imm = 0x5FE86F63
	movq	%rdi, -16(%rbp)
	movq	%rsi, -32(%rbp)
	movq	-32(%rbp), %rax
	movl	(%rax), %eax
	movq	img, %rdx
	cmpl	40(%rdx), %ecx
	jle	.LBB20_2
# %bb.1:                                # %cond.true
	xorl	%ecx, %ecx
	jmp	.LBB20_3
.LBB20_2:                               # %cond.false
	movq	img, %rcx
	movl	40(%rcx), %ecx
.LBB20_3:                               # %cond.end
	imull	%ecx, %eax
	sarl	$4, %eax
	movq	-32(%rbp), %rcx
	addl	4(%rcx), %eax
	movl	%eax, -4(%rbp)
	movl	$1, %eax
	cmpl	-4(%rbp), %eax
	jle	.LBB20_5
# %bb.4:                                # %cond.true4
	movl	$1, %eax
	jmp	.LBB20_6
.LBB20_5:                               # %cond.false5
	movl	-4(%rbp), %eax
.LBB20_6:                               # %cond.end6
	cmpl	$126, %eax
	jge	.LBB20_11
# %bb.7:                                # %cond.true9
	movl	$1, %eax
	cmpl	-4(%rbp), %eax
	jle	.LBB20_9
# %bb.8:                                # %cond.true11
	movl	$1, %eax
	jmp	.LBB20_10
.LBB20_9:                               # %cond.false12
	movl	-4(%rbp), %eax
.LBB20_10:                              # %cond.end13
	jmp	.LBB20_12
.LBB20_11:                              # %cond.false15
	movl	$126, %eax
	jmp	.LBB20_12
.LBB20_12:                              # %cond.end16
	movl	%eax, -4(%rbp)
	cmpl	$64, -4(%rbp)
	jl	.LBB20_14
# %bb.13:                               # %if.then
	movl	-4(%rbp), %eax
	subl	$64, %eax
	movq	-16(%rbp), %rcx
	movw	%ax, (%rcx)
	movq	-16(%rbp), %rax
	movb	$1, 2(%rax)
	jmp	.LBB20_15
.LBB20_14:                              # %if.else
	movl	$63, %eax
	subl	-4(%rbp), %eax
	movq	-16(%rbp), %rcx
	movw	%ax, (%rcx)
	movq	-16(%rbp), %rax
	movb	$0, 2(%rax)
.LBB20_15:                              # %if.end
	movq	-16(%rbp), %rax
	movq	$0, 8(%rax)
	cmpl	$1609068387, -20(%rbp)  # imm = 0x5FE86F63
	jne	.LBB20_17
.LBB20_16:
	addq	$32, %rsp
	popq	%rbp
	.cfi_def_cfa %rsp, 8
	retq
.LBB20_17:                              # %func_exit
	.cfi_def_cfa %rbp, 16
	callq	detect_breach
	jmp	.LBB20_16
.Lfunc_end20:
	.size	biari_init_context.12, .Lfunc_end20-biari_init_context.12
	.cfi_endproc
                                        # -- End function
	.globl	biari_init_context.13   # -- Begin function biari_init_context.13
	.p2align	4, 0x90
	.type	biari_init_context.13,@function
biari_init_context.13:                  # @biari_init_context.13
	.cfi_startproc
# %bb.0:                                # %entry
	pushq	%rbp
	.cfi_def_cfa_offset 16
	.cfi_offset %rbp, -16
	movq	%rsp, %rbp
	.cfi_def_cfa_register %rbp
	subq	$32, %rsp
	xorl	%ecx, %ecx
	movl	$1522783891, -20(%rbp)  # imm = 0x5AC3D693
	movq	%rdi, -16(%rbp)
	movq	%rsi, -32(%rbp)
	movq	-32(%rbp), %rax
	movl	(%rax), %eax
	movq	img, %rdx
	cmpl	40(%rdx), %ecx
	jle	.LBB21_2
# %bb.1:                                # %cond.true
	xorl	%ecx, %ecx
	jmp	.LBB21_3
.LBB21_2:                               # %cond.false
	movq	img, %rcx
	movl	40(%rcx), %ecx
.LBB21_3:                               # %cond.end
	imull	%ecx, %eax
	sarl	$4, %eax
	movq	-32(%rbp), %rcx
	addl	4(%rcx), %eax
	movl	%eax, -4(%rbp)
	movl	$1, %eax
	cmpl	-4(%rbp), %eax
	jle	.LBB21_5
# %bb.4:                                # %cond.true4
	movl	$1, %eax
	jmp	.LBB21_6
.LBB21_5:                               # %cond.false5
	movl	-4(%rbp), %eax
.LBB21_6:                               # %cond.end6
	cmpl	$126, %eax
	jge	.LBB21_11
# %bb.7:                                # %cond.true9
	movl	$1, %eax
	cmpl	-4(%rbp), %eax
	jle	.LBB21_9
# %bb.8:                                # %cond.true11
	movl	$1, %eax
	jmp	.LBB21_10
.LBB21_9:                               # %cond.false12
	movl	-4(%rbp), %eax
.LBB21_10:                              # %cond.end13
	jmp	.LBB21_12
.LBB21_11:                              # %cond.false15
	movl	$126, %eax
	jmp	.LBB21_12
.LBB21_12:                              # %cond.end16
	movl	%eax, -4(%rbp)
	cmpl	$64, -4(%rbp)
	jl	.LBB21_14
# %bb.13:                               # %if.then
	movl	-4(%rbp), %eax
	subl	$64, %eax
	movq	-16(%rbp), %rcx
	movw	%ax, (%rcx)
	movq	-16(%rbp), %rax
	movb	$1, 2(%rax)
	jmp	.LBB21_15
.LBB21_14:                              # %if.else
	movl	$63, %eax
	subl	-4(%rbp), %eax
	movq	-16(%rbp), %rcx
	movw	%ax, (%rcx)
	movq	-16(%rbp), %rax
	movb	$0, 2(%rax)
.LBB21_15:                              # %if.end
	movq	-16(%rbp), %rax
	movq	$0, 8(%rax)
	cmpl	$1522783891, -20(%rbp)  # imm = 0x5AC3D693
	jne	.LBB21_17
.LBB21_16:
	addq	$32, %rsp
	popq	%rbp
	.cfi_def_cfa %rsp, 8
	retq
.LBB21_17:                              # %func_exit
	.cfi_def_cfa %rbp, 16
	callq	detect_breach
	jmp	.LBB21_16
.Lfunc_end21:
	.size	biari_init_context.13, .Lfunc_end21-biari_init_context.13
	.cfi_endproc
                                        # -- End function
	.globl	biari_encode_symbol_eq_prob.14 # -- Begin function biari_encode_symbol_eq_prob.14
	.p2align	4, 0x90
	.type	biari_encode_symbol_eq_prob.14,@function
biari_encode_symbol_eq_prob.14:         # @biari_encode_symbol_eq_prob.14
	.cfi_startproc
# %bb.0:                                # %entry
	pushq	%rbp
	.cfi_def_cfa_offset 16
	.cfi_offset %rbp, -16
	movq	%rsp, %rbp
	.cfi_def_cfa_register %rbp
	subq	$32, %rsp
	movl	$265087167, -20(%rbp)   # imm = 0xFCCE8BF
	movq	%rdi, -8(%rbp)
	movw	%si, -14(%rbp)
	movq	-8(%rbp), %rax
	movl	(%rax), %eax
	shll	$1, %eax
	movl	%eax, -12(%rbp)
	movswl	-14(%rbp), %eax
	cmpl	$0, %eax
	je	.LBB22_2
# %bb.1:                                # %if.then
	movq	-8(%rbp), %rax
	movl	4(%rax), %eax
	addl	-12(%rbp), %eax
	movl	%eax, -12(%rbp)
.LBB22_2:                               # %if.end
	cmpl	$1024, -12(%rbp)        # imm = 0x400
	jb	.LBB22_17
# %bb.3:                                # %if.then4
	movq	-8(%rbp), %rax
	movl	8(%rax), %ecx
	shll	$1, %ecx
	movl	%ecx, 8(%rax)
	movq	-8(%rbp), %rax
	movl	8(%rax), %ecx
	orl	$1, %ecx
	movl	%ecx, 8(%rax)
	movq	-8(%rbp), %rax
	movl	12(%rax), %ecx
	addl	$-1, %ecx
	movl	%ecx, 12(%rax)
	cmpl	$0, %ecx
	jne	.LBB22_8
# %bb.4:                                # %if.then9
	movq	-8(%rbp), %rax
	movl	8(%rax), %eax
	movq	-8(%rbp), %rcx
	movq	24(%rcx), %rcx
	movq	-8(%rbp), %rdx
	movq	32(%rdx), %rdx
	movl	(%rdx), %esi
	movl	%esi, %edi
	addl	$1, %edi
	movl	%edi, (%rdx)
	movslq	%esi, %rdx
	movb	%al, (%rcx,%rdx)
	movq	-8(%rbp), %rax
	movl	$8, 12(%rax)
.LBB22_5:                               # %while.cond
                                        # =>This Inner Loop Header: Depth=1
	movq	-8(%rbp), %rax
	cmpl	$7, 80(%rax)
	jle	.LBB22_7
# %bb.6:                                # %while.body
                                        #   in Loop: Header=BB22_5 Depth=1
	movq	-8(%rbp), %rax
	movl	80(%rax), %ecx
	subl	$8, %ecx
	movl	%ecx, 80(%rax)
	movq	-8(%rbp), %rax
	movl	88(%rax), %ecx
	addl	$1, %ecx
	movl	%ecx, 88(%rax)
	jmp	.LBB22_5
.LBB22_7:                               # %while.end
	jmp	.LBB22_8
.LBB22_8:                               # %if.end17
	jmp	.LBB22_9
.LBB22_9:                               # %while.cond18
                                        # =>This Loop Header: Depth=1
                                        #     Child Loop BB22_12 Depth 2
	movq	-8(%rbp), %rax
	cmpl	$0, 16(%rax)
	jbe	.LBB22_16
# %bb.10:                               # %while.body21
                                        #   in Loop: Header=BB22_9 Depth=1
	movq	-8(%rbp), %rax
	movl	16(%rax), %ecx
	addl	$-1, %ecx
	movl	%ecx, 16(%rax)
	movq	-8(%rbp), %rax
	movl	8(%rax), %ecx
	shll	$1, %ecx
	movl	%ecx, 8(%rax)
	movq	-8(%rbp), %rax
	movl	8(%rax), %ecx
	movl	%ecx, 8(%rax)
	movq	-8(%rbp), %rax
	movl	12(%rax), %ecx
	addl	$-1, %ecx
	movl	%ecx, 12(%rax)
	cmpl	$0, %ecx
	jne	.LBB22_15
# %bb.11:                               # %if.then31
                                        #   in Loop: Header=BB22_9 Depth=1
	movq	-8(%rbp), %rax
	movl	8(%rax), %eax
	movq	-8(%rbp), %rcx
	movq	24(%rcx), %rcx
	movq	-8(%rbp), %rdx
	movq	32(%rdx), %rdx
	movl	(%rdx), %esi
	movl	%esi, %edi
	addl	$1, %edi
	movl	%edi, (%rdx)
	movslq	%esi, %rdx
	movb	%al, (%rcx,%rdx)
	movq	-8(%rbp), %rax
	movl	$8, 12(%rax)
.LBB22_12:                              # %while.cond40
                                        #   Parent Loop BB22_9 Depth=1
                                        # =>  This Inner Loop Header: Depth=2
	movq	-8(%rbp), %rax
	cmpl	$7, 80(%rax)
	jle	.LBB22_14
# %bb.13:                               # %while.body44
                                        #   in Loop: Header=BB22_12 Depth=2
	movq	-8(%rbp), %rax
	movl	80(%rax), %ecx
	subl	$8, %ecx
	movl	%ecx, 80(%rax)
	movq	-8(%rbp), %rax
	movl	88(%rax), %ecx
	addl	$1, %ecx
	movl	%ecx, 88(%rax)
	jmp	.LBB22_12
.LBB22_14:                              # %while.end49
                                        #   in Loop: Header=BB22_9 Depth=1
	jmp	.LBB22_15
.LBB22_15:                              # %if.end50
                                        #   in Loop: Header=BB22_9 Depth=1
	jmp	.LBB22_9
.LBB22_16:                              # %while.end51
	movl	-12(%rbp), %eax
	subl	$1024, %eax             # imm = 0x400
	movl	%eax, -12(%rbp)
	jmp	.LBB22_34
.LBB22_17:                              # %if.else
	cmpl	$512, -12(%rbp)         # imm = 0x200
	jae	.LBB22_32
# %bb.18:                               # %if.then55
	movq	-8(%rbp), %rax
	movl	8(%rax), %ecx
	shll	$1, %ecx
	movl	%ecx, 8(%rax)
	movq	-8(%rbp), %rax
	movl	8(%rax), %ecx
	movl	%ecx, 8(%rax)
	movq	-8(%rbp), %rax
	movl	12(%rax), %ecx
	addl	$-1, %ecx
	movl	%ecx, 12(%rax)
	cmpl	$0, %ecx
	jne	.LBB22_23
# %bb.19:                               # %if.then63
	movq	-8(%rbp), %rax
	movl	8(%rax), %eax
	movq	-8(%rbp), %rcx
	movq	24(%rcx), %rcx
	movq	-8(%rbp), %rdx
	movq	32(%rdx), %rdx
	movl	(%rdx), %esi
	movl	%esi, %edi
	addl	$1, %edi
	movl	%edi, (%rdx)
	movslq	%esi, %rdx
	movb	%al, (%rcx,%rdx)
	movq	-8(%rbp), %rax
	movl	$8, 12(%rax)
.LBB22_20:                              # %while.cond72
                                        # =>This Inner Loop Header: Depth=1
	movq	-8(%rbp), %rax
	cmpl	$7, 80(%rax)
	jle	.LBB22_22
# %bb.21:                               # %while.body76
                                        #   in Loop: Header=BB22_20 Depth=1
	movq	-8(%rbp), %rax
	movl	80(%rax), %ecx
	subl	$8, %ecx
	movl	%ecx, 80(%rax)
	movq	-8(%rbp), %rax
	movl	88(%rax), %ecx
	addl	$1, %ecx
	movl	%ecx, 88(%rax)
	jmp	.LBB22_20
.LBB22_22:                              # %while.end81
	jmp	.LBB22_23
.LBB22_23:                              # %if.end82
	jmp	.LBB22_24
.LBB22_24:                              # %while.cond83
                                        # =>This Loop Header: Depth=1
                                        #     Child Loop BB22_27 Depth 2
	movq	-8(%rbp), %rax
	cmpl	$0, 16(%rax)
	jbe	.LBB22_31
# %bb.25:                               # %while.body87
                                        #   in Loop: Header=BB22_24 Depth=1
	movq	-8(%rbp), %rax
	movl	16(%rax), %ecx
	addl	$-1, %ecx
	movl	%ecx, 16(%rax)
	movq	-8(%rbp), %rax
	movl	8(%rax), %ecx
	shll	$1, %ecx
	movl	%ecx, 8(%rax)
	movq	-8(%rbp), %rax
	movl	8(%rax), %ecx
	orl	$1, %ecx
	movl	%ecx, 8(%rax)
	movq	-8(%rbp), %rax
	movl	12(%rax), %ecx
	addl	$-1, %ecx
	movl	%ecx, 12(%rax)
	cmpl	$0, %ecx
	jne	.LBB22_30
# %bb.26:                               # %if.then98
                                        #   in Loop: Header=BB22_24 Depth=1
	movq	-8(%rbp), %rax
	movl	8(%rax), %eax
	movq	-8(%rbp), %rcx
	movq	24(%rcx), %rcx
	movq	-8(%rbp), %rdx
	movq	32(%rdx), %rdx
	movl	(%rdx), %esi
	movl	%esi, %edi
	addl	$1, %edi
	movl	%edi, (%rdx)
	movslq	%esi, %rdx
	movb	%al, (%rcx,%rdx)
	movq	-8(%rbp), %rax
	movl	$8, 12(%rax)
.LBB22_27:                              # %while.cond107
                                        #   Parent Loop BB22_24 Depth=1
                                        # =>  This Inner Loop Header: Depth=2
	movq	-8(%rbp), %rax
	cmpl	$7, 80(%rax)
	jle	.LBB22_29
# %bb.28:                               # %while.body111
                                        #   in Loop: Header=BB22_27 Depth=2
	movq	-8(%rbp), %rax
	movl	80(%rax), %ecx
	subl	$8, %ecx
	movl	%ecx, 80(%rax)
	movq	-8(%rbp), %rax
	movl	88(%rax), %ecx
	addl	$1, %ecx
	movl	%ecx, 88(%rax)
	jmp	.LBB22_27
.LBB22_29:                              # %while.end116
                                        #   in Loop: Header=BB22_24 Depth=1
	jmp	.LBB22_30
.LBB22_30:                              # %if.end117
                                        #   in Loop: Header=BB22_24 Depth=1
	jmp	.LBB22_24
.LBB22_31:                              # %while.end118
	jmp	.LBB22_33
.LBB22_32:                              # %if.else119
	movq	-8(%rbp), %rax
	movl	16(%rax), %ecx
	addl	$1, %ecx
	movl	%ecx, 16(%rax)
	movl	-12(%rbp), %eax
	subl	$512, %eax              # imm = 0x200
	movl	%eax, -12(%rbp)
.LBB22_33:                              # %if.end123
	jmp	.LBB22_34
.LBB22_34:                              # %if.end124
	movl	-12(%rbp), %eax
	movq	-8(%rbp), %rcx
	movl	%eax, (%rcx)
	movq	-8(%rbp), %rax
	movl	80(%rax), %ecx
	addl	$1, %ecx
	movl	%ecx, 80(%rax)
	cmpl	$265087167, -20(%rbp)   # imm = 0xFCCE8BF
	jne	.LBB22_36
.LBB22_35:
	addq	$32, %rsp
	popq	%rbp
	.cfi_def_cfa %rsp, 8
	retq
.LBB22_36:                              # %func_exit
	.cfi_def_cfa %rbp, 16
	callq	detect_breach
	jmp	.LBB22_35
.Lfunc_end22:
	.size	biari_encode_symbol_eq_prob.14, .Lfunc_end22-biari_encode_symbol_eq_prob.14
	.cfi_endproc
                                        # -- End function
	.globl	arienco_start_encoding.15 # -- Begin function arienco_start_encoding.15
	.p2align	4, 0x90
	.type	arienco_start_encoding.15,@function
arienco_start_encoding.15:              # @arienco_start_encoding.15
	.cfi_startproc
# %bb.0:                                # %entry
	pushq	%rbp
	.cfi_def_cfa_offset 16
	.cfi_offset %rbp, -16
	movq	%rsp, %rbp
	.cfi_def_cfa_register %rbp
	subq	$48, %rsp
	movl	$1219934569, -12(%rbp)  # imm = 0x48B6B969
	movq	%rdi, -8(%rbp)
	movq	%rsi, -32(%rbp)
	movq	%rdx, -24(%rbp)
	movl	%ecx, -36(%rbp)
	movq	-8(%rbp), %rax
	movl	$0, (%rax)
	movq	-8(%rbp), %rax
	movl	$0, 16(%rax)
	movq	-8(%rbp), %rax
	movl	$0, 8(%rax)
	movq	-8(%rbp), %rax
	movl	$9, 12(%rax)
	movq	-32(%rbp), %rax
	movq	-8(%rbp), %rcx
	movq	%rax, 24(%rcx)
	movq	-24(%rbp), %rax
	movq	-8(%rbp), %rcx
	movq	%rax, 32(%rcx)
	movq	-8(%rbp), %rax
	movl	$510, 4(%rax)           # imm = 0x1FE
	movq	-8(%rbp), %rax
	movl	$0, 80(%rax)
	movq	-24(%rbp), %rax
	movl	(%rax), %eax
	movq	-8(%rbp), %rcx
	movl	%eax, 96(%rcx)
	movq	-8(%rbp), %rax
	movl	$0, 88(%rax)
	cmpl	$1219934569, -12(%rbp)  # imm = 0x48B6B969
	jne	.LBB23_2
.LBB23_1:
	addq	$48, %rsp
	popq	%rbp
	.cfi_def_cfa %rsp, 8
	retq
.LBB23_2:                               # %func_exit
	.cfi_def_cfa %rbp, 16
	callq	detect_breach
	jmp	.LBB23_1
.Lfunc_end23:
	.size	arienco_start_encoding.15, .Lfunc_end23-arienco_start_encoding.15
	.cfi_endproc
                                        # -- End function
	.globl	biari_encode_symbol_final.16 # -- Begin function biari_encode_symbol_final.16
	.p2align	4, 0x90
	.type	biari_encode_symbol_final.16,@function
biari_encode_symbol_final.16:           # @biari_encode_symbol_final.16
	.cfi_startproc
# %bb.0:                                # %entry
	pushq	%rbp
	.cfi_def_cfa_offset 16
	.cfi_offset %rbp, -16
	movq	%rsp, %rbp
	.cfi_def_cfa_register %rbp
	subq	$32, %rsp
	movl	$661115023, -24(%rbp)   # imm = 0x2767D08F
	movq	%rdi, -8(%rbp)
	movw	%si, -18(%rbp)
	movq	-8(%rbp), %rax
	movl	4(%rax), %eax
	subl	$2, %eax
	movl	%eax, -16(%rbp)
	movq	-8(%rbp), %rax
	movl	(%rax), %eax
	movl	%eax, -12(%rbp)
	cmpw	$0, -18(%rbp)
	je	.LBB24_2
# %bb.1:                                # %if.then
	movl	-16(%rbp), %eax
	addl	-12(%rbp), %eax
	movl	%eax, -12(%rbp)
	movl	$2, -16(%rbp)
.LBB24_2:                               # %if.end
	jmp	.LBB24_3
.LBB24_3:                               # %while.cond
                                        # =>This Loop Header: Depth=1
                                        #     Child Loop BB24_7 Depth 2
                                        #     Child Loop BB24_11 Depth 2
                                        #       Child Loop BB24_14 Depth 3
                                        #     Child Loop BB24_22 Depth 2
                                        #     Child Loop BB24_26 Depth 2
                                        #       Child Loop BB24_29 Depth 3
	cmpl	$256, -16(%rbp)         # imm = 0x100
	jae	.LBB24_37
# %bb.4:                                # %while.body
                                        #   in Loop: Header=BB24_3 Depth=1
	cmpl	$512, -12(%rbp)         # imm = 0x200
	jb	.LBB24_19
# %bb.5:                                # %if.then2
                                        #   in Loop: Header=BB24_3 Depth=1
	movq	-8(%rbp), %rax
	movl	8(%rax), %ecx
	shll	$1, %ecx
	movl	%ecx, 8(%rax)
	movq	-8(%rbp), %rax
	movl	8(%rax), %ecx
	orl	$1, %ecx
	movl	%ecx, 8(%rax)
	movq	-8(%rbp), %rax
	movl	12(%rax), %ecx
	addl	$-1, %ecx
	movl	%ecx, 12(%rax)
	cmpl	$0, %ecx
	jne	.LBB24_10
# %bb.6:                                # %if.then5
                                        #   in Loop: Header=BB24_3 Depth=1
	movq	-8(%rbp), %rax
	movl	8(%rax), %eax
	movq	-8(%rbp), %rcx
	movq	24(%rcx), %rcx
	movq	-8(%rbp), %rdx
	movq	32(%rdx), %rdx
	movl	(%rdx), %esi
	movl	%esi, %edi
	addl	$1, %edi
	movl	%edi, (%rdx)
	movslq	%esi, %rdx
	movb	%al, (%rcx,%rdx)
	movq	-8(%rbp), %rax
	movl	$8, 12(%rax)
.LBB24_7:                               # %while.cond8
                                        #   Parent Loop BB24_3 Depth=1
                                        # =>  This Inner Loop Header: Depth=2
	movq	-8(%rbp), %rax
	cmpl	$7, 80(%rax)
	jle	.LBB24_9
# %bb.8:                                # %while.body11
                                        #   in Loop: Header=BB24_7 Depth=2
	movq	-8(%rbp), %rax
	movl	80(%rax), %ecx
	subl	$8, %ecx
	movl	%ecx, 80(%rax)
	movq	-8(%rbp), %rax
	movl	88(%rax), %ecx
	addl	$1, %ecx
	movl	%ecx, 88(%rax)
	jmp	.LBB24_7
.LBB24_9:                               # %while.end
                                        #   in Loop: Header=BB24_3 Depth=1
	jmp	.LBB24_10
.LBB24_10:                              # %if.end15
                                        #   in Loop: Header=BB24_3 Depth=1
	jmp	.LBB24_11
.LBB24_11:                              # %while.cond16
                                        #   Parent Loop BB24_3 Depth=1
                                        # =>  This Loop Header: Depth=2
                                        #       Child Loop BB24_14 Depth 3
	movq	-8(%rbp), %rax
	cmpl	$0, 16(%rax)
	jbe	.LBB24_18
# %bb.12:                               # %while.body19
                                        #   in Loop: Header=BB24_11 Depth=2
	movq	-8(%rbp), %rax
	movl	16(%rax), %ecx
	addl	$-1, %ecx
	movl	%ecx, 16(%rax)
	movq	-8(%rbp), %rax
	movl	8(%rax), %ecx
	shll	$1, %ecx
	movl	%ecx, 8(%rax)
	movq	-8(%rbp), %rax
	movl	8(%rax), %ecx
	movl	%ecx, 8(%rax)
	movq	-8(%rbp), %rax
	movl	12(%rax), %ecx
	addl	$-1, %ecx
	movl	%ecx, 12(%rax)
	cmpl	$0, %ecx
	jne	.LBB24_17
# %bb.13:                               # %if.then29
                                        #   in Loop: Header=BB24_11 Depth=2
	movq	-8(%rbp), %rax
	movl	8(%rax), %eax
	movq	-8(%rbp), %rcx
	movq	24(%rcx), %rcx
	movq	-8(%rbp), %rdx
	movq	32(%rdx), %rdx
	movl	(%rdx), %esi
	movl	%esi, %edi
	addl	$1, %edi
	movl	%edi, (%rdx)
	movslq	%esi, %rdx
	movb	%al, (%rcx,%rdx)
	movq	-8(%rbp), %rax
	movl	$8, 12(%rax)
.LBB24_14:                              # %while.cond38
                                        #   Parent Loop BB24_3 Depth=1
                                        #     Parent Loop BB24_11 Depth=2
                                        # =>    This Inner Loop Header: Depth=3
	movq	-8(%rbp), %rax
	cmpl	$7, 80(%rax)
	jle	.LBB24_16
# %bb.15:                               # %while.body42
                                        #   in Loop: Header=BB24_14 Depth=3
	movq	-8(%rbp), %rax
	movl	80(%rax), %ecx
	subl	$8, %ecx
	movl	%ecx, 80(%rax)
	movq	-8(%rbp), %rax
	movl	88(%rax), %ecx
	addl	$1, %ecx
	movl	%ecx, 88(%rax)
	jmp	.LBB24_14
.LBB24_16:                              # %while.end47
                                        #   in Loop: Header=BB24_11 Depth=2
	jmp	.LBB24_17
.LBB24_17:                              # %if.end48
                                        #   in Loop: Header=BB24_11 Depth=2
	jmp	.LBB24_11
.LBB24_18:                              # %while.end49
                                        #   in Loop: Header=BB24_3 Depth=1
	movl	-12(%rbp), %eax
	subl	$512, %eax              # imm = 0x200
	movl	%eax, -12(%rbp)
	jmp	.LBB24_36
.LBB24_19:                              # %if.else
                                        #   in Loop: Header=BB24_3 Depth=1
	cmpl	$256, -12(%rbp)         # imm = 0x100
	jae	.LBB24_34
# %bb.20:                               # %if.then53
                                        #   in Loop: Header=BB24_3 Depth=1
	movq	-8(%rbp), %rax
	movl	8(%rax), %ecx
	shll	$1, %ecx
	movl	%ecx, 8(%rax)
	movq	-8(%rbp), %rax
	movl	8(%rax), %ecx
	movl	%ecx, 8(%rax)
	movq	-8(%rbp), %rax
	movl	12(%rax), %ecx
	addl	$-1, %ecx
	movl	%ecx, 12(%rax)
	cmpl	$0, %ecx
	jne	.LBB24_25
# %bb.21:                               # %if.then61
                                        #   in Loop: Header=BB24_3 Depth=1
	movq	-8(%rbp), %rax
	movl	8(%rax), %eax
	movq	-8(%rbp), %rcx
	movq	24(%rcx), %rcx
	movq	-8(%rbp), %rdx
	movq	32(%rdx), %rdx
	movl	(%rdx), %esi
	movl	%esi, %edi
	addl	$1, %edi
	movl	%edi, (%rdx)
	movslq	%esi, %rdx
	movb	%al, (%rcx,%rdx)
	movq	-8(%rbp), %rax
	movl	$8, 12(%rax)
.LBB24_22:                              # %while.cond70
                                        #   Parent Loop BB24_3 Depth=1
                                        # =>  This Inner Loop Header: Depth=2
	movq	-8(%rbp), %rax
	cmpl	$7, 80(%rax)
	jle	.LBB24_24
# %bb.23:                               # %while.body74
                                        #   in Loop: Header=BB24_22 Depth=2
	movq	-8(%rbp), %rax
	movl	80(%rax), %ecx
	subl	$8, %ecx
	movl	%ecx, 80(%rax)
	movq	-8(%rbp), %rax
	movl	88(%rax), %ecx
	addl	$1, %ecx
	movl	%ecx, 88(%rax)
	jmp	.LBB24_22
.LBB24_24:                              # %while.end79
                                        #   in Loop: Header=BB24_3 Depth=1
	jmp	.LBB24_25
.LBB24_25:                              # %if.end80
                                        #   in Loop: Header=BB24_3 Depth=1
	jmp	.LBB24_26
.LBB24_26:                              # %while.cond81
                                        #   Parent Loop BB24_3 Depth=1
                                        # =>  This Loop Header: Depth=2
                                        #       Child Loop BB24_29 Depth 3
	movq	-8(%rbp), %rax
	cmpl	$0, 16(%rax)
	jbe	.LBB24_33
# %bb.27:                               # %while.body85
                                        #   in Loop: Header=BB24_26 Depth=2
	movq	-8(%rbp), %rax
	movl	16(%rax), %ecx
	addl	$-1, %ecx
	movl	%ecx, 16(%rax)
	movq	-8(%rbp), %rax
	movl	8(%rax), %ecx
	shll	$1, %ecx
	movl	%ecx, 8(%rax)
	movq	-8(%rbp), %rax
	movl	8(%rax), %ecx
	orl	$1, %ecx
	movl	%ecx, 8(%rax)
	movq	-8(%rbp), %rax
	movl	12(%rax), %ecx
	addl	$-1, %ecx
	movl	%ecx, 12(%rax)
	cmpl	$0, %ecx
	jne	.LBB24_32
# %bb.28:                               # %if.then96
                                        #   in Loop: Header=BB24_26 Depth=2
	movq	-8(%rbp), %rax
	movl	8(%rax), %eax
	movq	-8(%rbp), %rcx
	movq	24(%rcx), %rcx
	movq	-8(%rbp), %rdx
	movq	32(%rdx), %rdx
	movl	(%rdx), %esi
	movl	%esi, %edi
	addl	$1, %edi
	movl	%edi, (%rdx)
	movslq	%esi, %rdx
	movb	%al, (%rcx,%rdx)
	movq	-8(%rbp), %rax
	movl	$8, 12(%rax)
.LBB24_29:                              # %while.cond105
                                        #   Parent Loop BB24_3 Depth=1
                                        #     Parent Loop BB24_26 Depth=2
                                        # =>    This Inner Loop Header: Depth=3
	movq	-8(%rbp), %rax
	cmpl	$7, 80(%rax)
	jle	.LBB24_31
# %bb.30:                               # %while.body109
                                        #   in Loop: Header=BB24_29 Depth=3
	movq	-8(%rbp), %rax
	movl	80(%rax), %ecx
	subl	$8, %ecx
	movl	%ecx, 80(%rax)
	movq	-8(%rbp), %rax
	movl	88(%rax), %ecx
	addl	$1, %ecx
	movl	%ecx, 88(%rax)
	jmp	.LBB24_29
.LBB24_31:                              # %while.end114
                                        #   in Loop: Header=BB24_26 Depth=2
	jmp	.LBB24_32
.LBB24_32:                              # %if.end115
                                        #   in Loop: Header=BB24_26 Depth=2
	jmp	.LBB24_26
.LBB24_33:                              # %while.end116
                                        #   in Loop: Header=BB24_3 Depth=1
	jmp	.LBB24_35
.LBB24_34:                              # %if.else117
                                        #   in Loop: Header=BB24_3 Depth=1
	movq	-8(%rbp), %rax
	movl	16(%rax), %ecx
	addl	$1, %ecx
	movl	%ecx, 16(%rax)
	movl	-12(%rbp), %eax
	subl	$256, %eax              # imm = 0x100
	movl	%eax, -12(%rbp)
.LBB24_35:                              # %if.end121
                                        #   in Loop: Header=BB24_3 Depth=1
	jmp	.LBB24_36
.LBB24_36:                              # %if.end122
                                        #   in Loop: Header=BB24_3 Depth=1
	movl	-12(%rbp), %eax
	shll	$1, %eax
	movl	%eax, -12(%rbp)
	movl	-16(%rbp), %eax
	shll	$1, %eax
	movl	%eax, -16(%rbp)
	jmp	.LBB24_3
.LBB24_37:                              # %while.end125
	movl	-16(%rbp), %eax
	movq	-8(%rbp), %rcx
	movl	%eax, 4(%rcx)
	movl	-12(%rbp), %eax
	movq	-8(%rbp), %rcx
	movl	%eax, (%rcx)
	movq	-8(%rbp), %rax
	movl	80(%rax), %ecx
	addl	$1, %ecx
	movl	%ecx, 80(%rax)
	cmpl	$661115023, -24(%rbp)   # imm = 0x2767D08F
	jne	.LBB24_39
.LBB24_38:
	addq	$32, %rsp
	popq	%rbp
	.cfi_def_cfa %rsp, 8
	retq
.LBB24_39:                              # %func_exit
	.cfi_def_cfa %rbp, 16
	callq	detect_breach
	jmp	.LBB24_38
.Lfunc_end24:
	.size	biari_encode_symbol_final.16, .Lfunc_end24-biari_encode_symbol_final.16
	.cfi_endproc
                                        # -- End function
	.globl	biari_init_context.17   # -- Begin function biari_init_context.17
	.p2align	4, 0x90
	.type	biari_init_context.17,@function
biari_init_context.17:                  # @biari_init_context.17
	.cfi_startproc
# %bb.0:                                # %entry
	pushq	%rbp
	.cfi_def_cfa_offset 16
	.cfi_offset %rbp, -16
	movq	%rsp, %rbp
	.cfi_def_cfa_register %rbp
	subq	$32, %rsp
	xorl	%ecx, %ecx
	movl	$573200786, -20(%rbp)   # imm = 0x222A5992
	movq	%rdi, -16(%rbp)
	movq	%rsi, -32(%rbp)
	movq	-32(%rbp), %rax
	movl	(%rax), %eax
	movq	img, %rdx
	cmpl	40(%rdx), %ecx
	jle	.LBB25_2
# %bb.1:                                # %cond.true
	xorl	%ecx, %ecx
	jmp	.LBB25_3
.LBB25_2:                               # %cond.false
	movq	img, %rcx
	movl	40(%rcx), %ecx
.LBB25_3:                               # %cond.end
	imull	%ecx, %eax
	sarl	$4, %eax
	movq	-32(%rbp), %rcx
	addl	4(%rcx), %eax
	movl	%eax, -4(%rbp)
	movl	$1, %eax
	cmpl	-4(%rbp), %eax
	jle	.LBB25_5
# %bb.4:                                # %cond.true4
	movl	$1, %eax
	jmp	.LBB25_6
.LBB25_5:                               # %cond.false5
	movl	-4(%rbp), %eax
.LBB25_6:                               # %cond.end6
	cmpl	$126, %eax
	jge	.LBB25_11
# %bb.7:                                # %cond.true9
	movl	$1, %eax
	cmpl	-4(%rbp), %eax
	jle	.LBB25_9
# %bb.8:                                # %cond.true11
	movl	$1, %eax
	jmp	.LBB25_10
.LBB25_9:                               # %cond.false12
	movl	-4(%rbp), %eax
.LBB25_10:                              # %cond.end13
	jmp	.LBB25_12
.LBB25_11:                              # %cond.false15
	movl	$126, %eax
	jmp	.LBB25_12
.LBB25_12:                              # %cond.end16
	movl	%eax, -4(%rbp)
	cmpl	$64, -4(%rbp)
	jl	.LBB25_14
# %bb.13:                               # %if.then
	movl	-4(%rbp), %eax
	subl	$64, %eax
	movq	-16(%rbp), %rcx
	movw	%ax, (%rcx)
	movq	-16(%rbp), %rax
	movb	$1, 2(%rax)
	jmp	.LBB25_15
.LBB25_14:                              # %if.else
	movl	$63, %eax
	subl	-4(%rbp), %eax
	movq	-16(%rbp), %rcx
	movw	%ax, (%rcx)
	movq	-16(%rbp), %rax
	movb	$0, 2(%rax)
.LBB25_15:                              # %if.end
	movq	-16(%rbp), %rax
	movq	$0, 8(%rax)
	cmpl	$573200786, -20(%rbp)   # imm = 0x222A5992
	jne	.LBB25_17
.LBB25_16:
	addq	$32, %rsp
	popq	%rbp
	.cfi_def_cfa %rsp, 8
	retq
.LBB25_17:                              # %func_exit
	.cfi_def_cfa %rbp, 16
	callq	detect_breach
	jmp	.LBB25_16
.Lfunc_end25:
	.size	biari_init_context.17, .Lfunc_end25-biari_init_context.17
	.cfi_endproc
                                        # -- End function
	.globl	biari_encode_symbol_eq_prob.18 # -- Begin function biari_encode_symbol_eq_prob.18
	.p2align	4, 0x90
	.type	biari_encode_symbol_eq_prob.18,@function
biari_encode_symbol_eq_prob.18:         # @biari_encode_symbol_eq_prob.18
	.cfi_startproc
# %bb.0:                                # %entry
	pushq	%rbp
	.cfi_def_cfa_offset 16
	.cfi_offset %rbp, -16
	movq	%rsp, %rbp
	.cfi_def_cfa_register %rbp
	subq	$32, %rsp
	movl	$1658172368, -20(%rbp)  # imm = 0x62D5B3D0
	movq	%rdi, -8(%rbp)
	movw	%si, -14(%rbp)
	movq	-8(%rbp), %rax
	movl	(%rax), %eax
	shll	$1, %eax
	movl	%eax, -12(%rbp)
	movswl	-14(%rbp), %eax
	cmpl	$0, %eax
	je	.LBB26_2
# %bb.1:                                # %if.then
	movq	-8(%rbp), %rax
	movl	4(%rax), %eax
	addl	-12(%rbp), %eax
	movl	%eax, -12(%rbp)
.LBB26_2:                               # %if.end
	cmpl	$1024, -12(%rbp)        # imm = 0x400
	jb	.LBB26_17
# %bb.3:                                # %if.then4
	movq	-8(%rbp), %rax
	movl	8(%rax), %ecx
	shll	$1, %ecx
	movl	%ecx, 8(%rax)
	movq	-8(%rbp), %rax
	movl	8(%rax), %ecx
	orl	$1, %ecx
	movl	%ecx, 8(%rax)
	movq	-8(%rbp), %rax
	movl	12(%rax), %ecx
	addl	$-1, %ecx
	movl	%ecx, 12(%rax)
	cmpl	$0, %ecx
	jne	.LBB26_8
# %bb.4:                                # %if.then9
	movq	-8(%rbp), %rax
	movl	8(%rax), %eax
	movq	-8(%rbp), %rcx
	movq	24(%rcx), %rcx
	movq	-8(%rbp), %rdx
	movq	32(%rdx), %rdx
	movl	(%rdx), %esi
	movl	%esi, %edi
	addl	$1, %edi
	movl	%edi, (%rdx)
	movslq	%esi, %rdx
	movb	%al, (%rcx,%rdx)
	movq	-8(%rbp), %rax
	movl	$8, 12(%rax)
.LBB26_5:                               # %while.cond
                                        # =>This Inner Loop Header: Depth=1
	movq	-8(%rbp), %rax
	cmpl	$7, 80(%rax)
	jle	.LBB26_7
# %bb.6:                                # %while.body
                                        #   in Loop: Header=BB26_5 Depth=1
	movq	-8(%rbp), %rax
	movl	80(%rax), %ecx
	subl	$8, %ecx
	movl	%ecx, 80(%rax)
	movq	-8(%rbp), %rax
	movl	88(%rax), %ecx
	addl	$1, %ecx
	movl	%ecx, 88(%rax)
	jmp	.LBB26_5
.LBB26_7:                               # %while.end
	jmp	.LBB26_8
.LBB26_8:                               # %if.end17
	jmp	.LBB26_9
.LBB26_9:                               # %while.cond18
                                        # =>This Loop Header: Depth=1
                                        #     Child Loop BB26_12 Depth 2
	movq	-8(%rbp), %rax
	cmpl	$0, 16(%rax)
	jbe	.LBB26_16
# %bb.10:                               # %while.body21
                                        #   in Loop: Header=BB26_9 Depth=1
	movq	-8(%rbp), %rax
	movl	16(%rax), %ecx
	addl	$-1, %ecx
	movl	%ecx, 16(%rax)
	movq	-8(%rbp), %rax
	movl	8(%rax), %ecx
	shll	$1, %ecx
	movl	%ecx, 8(%rax)
	movq	-8(%rbp), %rax
	movl	8(%rax), %ecx
	movl	%ecx, 8(%rax)
	movq	-8(%rbp), %rax
	movl	12(%rax), %ecx
	addl	$-1, %ecx
	movl	%ecx, 12(%rax)
	cmpl	$0, %ecx
	jne	.LBB26_15
# %bb.11:                               # %if.then31
                                        #   in Loop: Header=BB26_9 Depth=1
	movq	-8(%rbp), %rax
	movl	8(%rax), %eax
	movq	-8(%rbp), %rcx
	movq	24(%rcx), %rcx
	movq	-8(%rbp), %rdx
	movq	32(%rdx), %rdx
	movl	(%rdx), %esi
	movl	%esi, %edi
	addl	$1, %edi
	movl	%edi, (%rdx)
	movslq	%esi, %rdx
	movb	%al, (%rcx,%rdx)
	movq	-8(%rbp), %rax
	movl	$8, 12(%rax)
.LBB26_12:                              # %while.cond40
                                        #   Parent Loop BB26_9 Depth=1
                                        # =>  This Inner Loop Header: Depth=2
	movq	-8(%rbp), %rax
	cmpl	$7, 80(%rax)
	jle	.LBB26_14
# %bb.13:                               # %while.body44
                                        #   in Loop: Header=BB26_12 Depth=2
	movq	-8(%rbp), %rax
	movl	80(%rax), %ecx
	subl	$8, %ecx
	movl	%ecx, 80(%rax)
	movq	-8(%rbp), %rax
	movl	88(%rax), %ecx
	addl	$1, %ecx
	movl	%ecx, 88(%rax)
	jmp	.LBB26_12
.LBB26_14:                              # %while.end49
                                        #   in Loop: Header=BB26_9 Depth=1
	jmp	.LBB26_15
.LBB26_15:                              # %if.end50
                                        #   in Loop: Header=BB26_9 Depth=1
	jmp	.LBB26_9
.LBB26_16:                              # %while.end51
	movl	-12(%rbp), %eax
	subl	$1024, %eax             # imm = 0x400
	movl	%eax, -12(%rbp)
	jmp	.LBB26_34
.LBB26_17:                              # %if.else
	cmpl	$512, -12(%rbp)         # imm = 0x200
	jae	.LBB26_32
# %bb.18:                               # %if.then55
	movq	-8(%rbp), %rax
	movl	8(%rax), %ecx
	shll	$1, %ecx
	movl	%ecx, 8(%rax)
	movq	-8(%rbp), %rax
	movl	8(%rax), %ecx
	movl	%ecx, 8(%rax)
	movq	-8(%rbp), %rax
	movl	12(%rax), %ecx
	addl	$-1, %ecx
	movl	%ecx, 12(%rax)
	cmpl	$0, %ecx
	jne	.LBB26_23
# %bb.19:                               # %if.then63
	movq	-8(%rbp), %rax
	movl	8(%rax), %eax
	movq	-8(%rbp), %rcx
	movq	24(%rcx), %rcx
	movq	-8(%rbp), %rdx
	movq	32(%rdx), %rdx
	movl	(%rdx), %esi
	movl	%esi, %edi
	addl	$1, %edi
	movl	%edi, (%rdx)
	movslq	%esi, %rdx
	movb	%al, (%rcx,%rdx)
	movq	-8(%rbp), %rax
	movl	$8, 12(%rax)
.LBB26_20:                              # %while.cond72
                                        # =>This Inner Loop Header: Depth=1
	movq	-8(%rbp), %rax
	cmpl	$7, 80(%rax)
	jle	.LBB26_22
# %bb.21:                               # %while.body76
                                        #   in Loop: Header=BB26_20 Depth=1
	movq	-8(%rbp), %rax
	movl	80(%rax), %ecx
	subl	$8, %ecx
	movl	%ecx, 80(%rax)
	movq	-8(%rbp), %rax
	movl	88(%rax), %ecx
	addl	$1, %ecx
	movl	%ecx, 88(%rax)
	jmp	.LBB26_20
.LBB26_22:                              # %while.end81
	jmp	.LBB26_23
.LBB26_23:                              # %if.end82
	jmp	.LBB26_24
.LBB26_24:                              # %while.cond83
                                        # =>This Loop Header: Depth=1
                                        #     Child Loop BB26_27 Depth 2
	movq	-8(%rbp), %rax
	cmpl	$0, 16(%rax)
	jbe	.LBB26_31
# %bb.25:                               # %while.body87
                                        #   in Loop: Header=BB26_24 Depth=1
	movq	-8(%rbp), %rax
	movl	16(%rax), %ecx
	addl	$-1, %ecx
	movl	%ecx, 16(%rax)
	movq	-8(%rbp), %rax
	movl	8(%rax), %ecx
	shll	$1, %ecx
	movl	%ecx, 8(%rax)
	movq	-8(%rbp), %rax
	movl	8(%rax), %ecx
	orl	$1, %ecx
	movl	%ecx, 8(%rax)
	movq	-8(%rbp), %rax
	movl	12(%rax), %ecx
	addl	$-1, %ecx
	movl	%ecx, 12(%rax)
	cmpl	$0, %ecx
	jne	.LBB26_30
# %bb.26:                               # %if.then98
                                        #   in Loop: Header=BB26_24 Depth=1
	movq	-8(%rbp), %rax
	movl	8(%rax), %eax
	movq	-8(%rbp), %rcx
	movq	24(%rcx), %rcx
	movq	-8(%rbp), %rdx
	movq	32(%rdx), %rdx
	movl	(%rdx), %esi
	movl	%esi, %edi
	addl	$1, %edi
	movl	%edi, (%rdx)
	movslq	%esi, %rdx
	movb	%al, (%rcx,%rdx)
	movq	-8(%rbp), %rax
	movl	$8, 12(%rax)
.LBB26_27:                              # %while.cond107
                                        #   Parent Loop BB26_24 Depth=1
                                        # =>  This Inner Loop Header: Depth=2
	movq	-8(%rbp), %rax
	cmpl	$7, 80(%rax)
	jle	.LBB26_29
# %bb.28:                               # %while.body111
                                        #   in Loop: Header=BB26_27 Depth=2
	movq	-8(%rbp), %rax
	movl	80(%rax), %ecx
	subl	$8, %ecx
	movl	%ecx, 80(%rax)
	movq	-8(%rbp), %rax
	movl	88(%rax), %ecx
	addl	$1, %ecx
	movl	%ecx, 88(%rax)
	jmp	.LBB26_27
.LBB26_29:                              # %while.end116
                                        #   in Loop: Header=BB26_24 Depth=1
	jmp	.LBB26_30
.LBB26_30:                              # %if.end117
                                        #   in Loop: Header=BB26_24 Depth=1
	jmp	.LBB26_24
.LBB26_31:                              # %while.end118
	jmp	.LBB26_33
.LBB26_32:                              # %if.else119
	movq	-8(%rbp), %rax
	movl	16(%rax), %ecx
	addl	$1, %ecx
	movl	%ecx, 16(%rax)
	movl	-12(%rbp), %eax
	subl	$512, %eax              # imm = 0x200
	movl	%eax, -12(%rbp)
.LBB26_33:                              # %if.end123
	jmp	.LBB26_34
.LBB26_34:                              # %if.end124
	movl	-12(%rbp), %eax
	movq	-8(%rbp), %rcx
	movl	%eax, (%rcx)
	movq	-8(%rbp), %rax
	movl	80(%rax), %ecx
	addl	$1, %ecx
	movl	%ecx, 80(%rax)
	cmpl	$1658172368, -20(%rbp)  # imm = 0x62D5B3D0
	jne	.LBB26_36
.LBB26_35:
	addq	$32, %rsp
	popq	%rbp
	.cfi_def_cfa %rsp, 8
	retq
.LBB26_36:                              # %func_exit
	.cfi_def_cfa %rbp, 16
	callq	detect_breach
	jmp	.LBB26_35
.Lfunc_end26:
	.size	biari_encode_symbol_eq_prob.18, .Lfunc_end26-biari_encode_symbol_eq_prob.18
	.cfi_endproc
                                        # -- End function
	.globl	biari_encode_symbol_final.19 # -- Begin function biari_encode_symbol_final.19
	.p2align	4, 0x90
	.type	biari_encode_symbol_final.19,@function
biari_encode_symbol_final.19:           # @biari_encode_symbol_final.19
	.cfi_startproc
# %bb.0:                                # %entry
	pushq	%rbp
	.cfi_def_cfa_offset 16
	.cfi_offset %rbp, -16
	movq	%rsp, %rbp
	.cfi_def_cfa_register %rbp
	subq	$32, %rsp
	movl	$1979167875, -24(%rbp)  # imm = 0x75F7B483
	movq	%rdi, -8(%rbp)
	movw	%si, -18(%rbp)
	movq	-8(%rbp), %rax
	movl	4(%rax), %eax
	subl	$2, %eax
	movl	%eax, -16(%rbp)
	movq	-8(%rbp), %rax
	movl	(%rax), %eax
	movl	%eax, -12(%rbp)
	cmpw	$0, -18(%rbp)
	je	.LBB27_2
# %bb.1:                                # %if.then
	movl	-16(%rbp), %eax
	addl	-12(%rbp), %eax
	movl	%eax, -12(%rbp)
	movl	$2, -16(%rbp)
.LBB27_2:                               # %if.end
	jmp	.LBB27_3
.LBB27_3:                               # %while.cond
                                        # =>This Loop Header: Depth=1
                                        #     Child Loop BB27_7 Depth 2
                                        #     Child Loop BB27_11 Depth 2
                                        #       Child Loop BB27_14 Depth 3
                                        #     Child Loop BB27_22 Depth 2
                                        #     Child Loop BB27_26 Depth 2
                                        #       Child Loop BB27_29 Depth 3
	cmpl	$256, -16(%rbp)         # imm = 0x100
	jae	.LBB27_37
# %bb.4:                                # %while.body
                                        #   in Loop: Header=BB27_3 Depth=1
	cmpl	$512, -12(%rbp)         # imm = 0x200
	jb	.LBB27_19
# %bb.5:                                # %if.then2
                                        #   in Loop: Header=BB27_3 Depth=1
	movq	-8(%rbp), %rax
	movl	8(%rax), %ecx
	shll	$1, %ecx
	movl	%ecx, 8(%rax)
	movq	-8(%rbp), %rax
	movl	8(%rax), %ecx
	orl	$1, %ecx
	movl	%ecx, 8(%rax)
	movq	-8(%rbp), %rax
	movl	12(%rax), %ecx
	addl	$-1, %ecx
	movl	%ecx, 12(%rax)
	cmpl	$0, %ecx
	jne	.LBB27_10
# %bb.6:                                # %if.then5
                                        #   in Loop: Header=BB27_3 Depth=1
	movq	-8(%rbp), %rax
	movl	8(%rax), %eax
	movq	-8(%rbp), %rcx
	movq	24(%rcx), %rcx
	movq	-8(%rbp), %rdx
	movq	32(%rdx), %rdx
	movl	(%rdx), %esi
	movl	%esi, %edi
	addl	$1, %edi
	movl	%edi, (%rdx)
	movslq	%esi, %rdx
	movb	%al, (%rcx,%rdx)
	movq	-8(%rbp), %rax
	movl	$8, 12(%rax)
.LBB27_7:                               # %while.cond8
                                        #   Parent Loop BB27_3 Depth=1
                                        # =>  This Inner Loop Header: Depth=2
	movq	-8(%rbp), %rax
	cmpl	$7, 80(%rax)
	jle	.LBB27_9
# %bb.8:                                # %while.body11
                                        #   in Loop: Header=BB27_7 Depth=2
	movq	-8(%rbp), %rax
	movl	80(%rax), %ecx
	subl	$8, %ecx
	movl	%ecx, 80(%rax)
	movq	-8(%rbp), %rax
	movl	88(%rax), %ecx
	addl	$1, %ecx
	movl	%ecx, 88(%rax)
	jmp	.LBB27_7
.LBB27_9:                               # %while.end
                                        #   in Loop: Header=BB27_3 Depth=1
	jmp	.LBB27_10
.LBB27_10:                              # %if.end15
                                        #   in Loop: Header=BB27_3 Depth=1
	jmp	.LBB27_11
.LBB27_11:                              # %while.cond16
                                        #   Parent Loop BB27_3 Depth=1
                                        # =>  This Loop Header: Depth=2
                                        #       Child Loop BB27_14 Depth 3
	movq	-8(%rbp), %rax
	cmpl	$0, 16(%rax)
	jbe	.LBB27_18
# %bb.12:                               # %while.body19
                                        #   in Loop: Header=BB27_11 Depth=2
	movq	-8(%rbp), %rax
	movl	16(%rax), %ecx
	addl	$-1, %ecx
	movl	%ecx, 16(%rax)
	movq	-8(%rbp), %rax
	movl	8(%rax), %ecx
	shll	$1, %ecx
	movl	%ecx, 8(%rax)
	movq	-8(%rbp), %rax
	movl	8(%rax), %ecx
	movl	%ecx, 8(%rax)
	movq	-8(%rbp), %rax
	movl	12(%rax), %ecx
	addl	$-1, %ecx
	movl	%ecx, 12(%rax)
	cmpl	$0, %ecx
	jne	.LBB27_17
# %bb.13:                               # %if.then29
                                        #   in Loop: Header=BB27_11 Depth=2
	movq	-8(%rbp), %rax
	movl	8(%rax), %eax
	movq	-8(%rbp), %rcx
	movq	24(%rcx), %rcx
	movq	-8(%rbp), %rdx
	movq	32(%rdx), %rdx
	movl	(%rdx), %esi
	movl	%esi, %edi
	addl	$1, %edi
	movl	%edi, (%rdx)
	movslq	%esi, %rdx
	movb	%al, (%rcx,%rdx)
	movq	-8(%rbp), %rax
	movl	$8, 12(%rax)
.LBB27_14:                              # %while.cond38
                                        #   Parent Loop BB27_3 Depth=1
                                        #     Parent Loop BB27_11 Depth=2
                                        # =>    This Inner Loop Header: Depth=3
	movq	-8(%rbp), %rax
	cmpl	$7, 80(%rax)
	jle	.LBB27_16
# %bb.15:                               # %while.body42
                                        #   in Loop: Header=BB27_14 Depth=3
	movq	-8(%rbp), %rax
	movl	80(%rax), %ecx
	subl	$8, %ecx
	movl	%ecx, 80(%rax)
	movq	-8(%rbp), %rax
	movl	88(%rax), %ecx
	addl	$1, %ecx
	movl	%ecx, 88(%rax)
	jmp	.LBB27_14
.LBB27_16:                              # %while.end47
                                        #   in Loop: Header=BB27_11 Depth=2
	jmp	.LBB27_17
.LBB27_17:                              # %if.end48
                                        #   in Loop: Header=BB27_11 Depth=2
	jmp	.LBB27_11
.LBB27_18:                              # %while.end49
                                        #   in Loop: Header=BB27_3 Depth=1
	movl	-12(%rbp), %eax
	subl	$512, %eax              # imm = 0x200
	movl	%eax, -12(%rbp)
	jmp	.LBB27_36
.LBB27_19:                              # %if.else
                                        #   in Loop: Header=BB27_3 Depth=1
	cmpl	$256, -12(%rbp)         # imm = 0x100
	jae	.LBB27_34
# %bb.20:                               # %if.then53
                                        #   in Loop: Header=BB27_3 Depth=1
	movq	-8(%rbp), %rax
	movl	8(%rax), %ecx
	shll	$1, %ecx
	movl	%ecx, 8(%rax)
	movq	-8(%rbp), %rax
	movl	8(%rax), %ecx
	movl	%ecx, 8(%rax)
	movq	-8(%rbp), %rax
	movl	12(%rax), %ecx
	addl	$-1, %ecx
	movl	%ecx, 12(%rax)
	cmpl	$0, %ecx
	jne	.LBB27_25
# %bb.21:                               # %if.then61
                                        #   in Loop: Header=BB27_3 Depth=1
	movq	-8(%rbp), %rax
	movl	8(%rax), %eax
	movq	-8(%rbp), %rcx
	movq	24(%rcx), %rcx
	movq	-8(%rbp), %rdx
	movq	32(%rdx), %rdx
	movl	(%rdx), %esi
	movl	%esi, %edi
	addl	$1, %edi
	movl	%edi, (%rdx)
	movslq	%esi, %rdx
	movb	%al, (%rcx,%rdx)
	movq	-8(%rbp), %rax
	movl	$8, 12(%rax)
.LBB27_22:                              # %while.cond70
                                        #   Parent Loop BB27_3 Depth=1
                                        # =>  This Inner Loop Header: Depth=2
	movq	-8(%rbp), %rax
	cmpl	$7, 80(%rax)
	jle	.LBB27_24
# %bb.23:                               # %while.body74
                                        #   in Loop: Header=BB27_22 Depth=2
	movq	-8(%rbp), %rax
	movl	80(%rax), %ecx
	subl	$8, %ecx
	movl	%ecx, 80(%rax)
	movq	-8(%rbp), %rax
	movl	88(%rax), %ecx
	addl	$1, %ecx
	movl	%ecx, 88(%rax)
	jmp	.LBB27_22
.LBB27_24:                              # %while.end79
                                        #   in Loop: Header=BB27_3 Depth=1
	jmp	.LBB27_25
.LBB27_25:                              # %if.end80
                                        #   in Loop: Header=BB27_3 Depth=1
	jmp	.LBB27_26
.LBB27_26:                              # %while.cond81
                                        #   Parent Loop BB27_3 Depth=1
                                        # =>  This Loop Header: Depth=2
                                        #       Child Loop BB27_29 Depth 3
	movq	-8(%rbp), %rax
	cmpl	$0, 16(%rax)
	jbe	.LBB27_33
# %bb.27:                               # %while.body85
                                        #   in Loop: Header=BB27_26 Depth=2
	movq	-8(%rbp), %rax
	movl	16(%rax), %ecx
	addl	$-1, %ecx
	movl	%ecx, 16(%rax)
	movq	-8(%rbp), %rax
	movl	8(%rax), %ecx
	shll	$1, %ecx
	movl	%ecx, 8(%rax)
	movq	-8(%rbp), %rax
	movl	8(%rax), %ecx
	orl	$1, %ecx
	movl	%ecx, 8(%rax)
	movq	-8(%rbp), %rax
	movl	12(%rax), %ecx
	addl	$-1, %ecx
	movl	%ecx, 12(%rax)
	cmpl	$0, %ecx
	jne	.LBB27_32
# %bb.28:                               # %if.then96
                                        #   in Loop: Header=BB27_26 Depth=2
	movq	-8(%rbp), %rax
	movl	8(%rax), %eax
	movq	-8(%rbp), %rcx
	movq	24(%rcx), %rcx
	movq	-8(%rbp), %rdx
	movq	32(%rdx), %rdx
	movl	(%rdx), %esi
	movl	%esi, %edi
	addl	$1, %edi
	movl	%edi, (%rdx)
	movslq	%esi, %rdx
	movb	%al, (%rcx,%rdx)
	movq	-8(%rbp), %rax
	movl	$8, 12(%rax)
.LBB27_29:                              # %while.cond105
                                        #   Parent Loop BB27_3 Depth=1
                                        #     Parent Loop BB27_26 Depth=2
                                        # =>    This Inner Loop Header: Depth=3
	movq	-8(%rbp), %rax
	cmpl	$7, 80(%rax)
	jle	.LBB27_31
# %bb.30:                               # %while.body109
                                        #   in Loop: Header=BB27_29 Depth=3
	movq	-8(%rbp), %rax
	movl	80(%rax), %ecx
	subl	$8, %ecx
	movl	%ecx, 80(%rax)
	movq	-8(%rbp), %rax
	movl	88(%rax), %ecx
	addl	$1, %ecx
	movl	%ecx, 88(%rax)
	jmp	.LBB27_29
.LBB27_31:                              # %while.end114
                                        #   in Loop: Header=BB27_26 Depth=2
	jmp	.LBB27_32
.LBB27_32:                              # %if.end115
                                        #   in Loop: Header=BB27_26 Depth=2
	jmp	.LBB27_26
.LBB27_33:                              # %while.end116
                                        #   in Loop: Header=BB27_3 Depth=1
	jmp	.LBB27_35
.LBB27_34:                              # %if.else117
                                        #   in Loop: Header=BB27_3 Depth=1
	movq	-8(%rbp), %rax
	movl	16(%rax), %ecx
	addl	$1, %ecx
	movl	%ecx, 16(%rax)
	movl	-12(%rbp), %eax
	subl	$256, %eax              # imm = 0x100
	movl	%eax, -12(%rbp)
.LBB27_35:                              # %if.end121
                                        #   in Loop: Header=BB27_3 Depth=1
	jmp	.LBB27_36
.LBB27_36:                              # %if.end122
                                        #   in Loop: Header=BB27_3 Depth=1
	movl	-12(%rbp), %eax
	shll	$1, %eax
	movl	%eax, -12(%rbp)
	movl	-16(%rbp), %eax
	shll	$1, %eax
	movl	%eax, -16(%rbp)
	jmp	.LBB27_3
.LBB27_37:                              # %while.end125
	movl	-16(%rbp), %eax
	movq	-8(%rbp), %rcx
	movl	%eax, 4(%rcx)
	movl	-12(%rbp), %eax
	movq	-8(%rbp), %rcx
	movl	%eax, (%rcx)
	movq	-8(%rbp), %rax
	movl	80(%rax), %ecx
	addl	$1, %ecx
	movl	%ecx, 80(%rax)
	cmpl	$1979167875, -24(%rbp)  # imm = 0x75F7B483
	jne	.LBB27_39
.LBB27_38:
	addq	$32, %rsp
	popq	%rbp
	.cfi_def_cfa %rsp, 8
	retq
.LBB27_39:                              # %func_exit
	.cfi_def_cfa %rbp, 16
	callq	detect_breach
	jmp	.LBB27_38
.Lfunc_end27:
	.size	biari_encode_symbol_final.19, .Lfunc_end27-biari_encode_symbol_final.19
	.cfi_endproc
                                        # -- End function
	.globl	biari_encode_symbol.20  # -- Begin function biari_encode_symbol.20
	.p2align	4, 0x90
	.type	biari_encode_symbol.20,@function
biari_encode_symbol.20:                 # @biari_encode_symbol.20
	.cfi_startproc
# %bb.0:                                # %entry
	pushq	%rbp
	.cfi_def_cfa_offset 16
	.cfi_offset %rbp, -16
	movq	%rsp, %rbp
	.cfi_def_cfa_register %rbp
	subq	$48, %rsp
	movl	$423470159, -40(%rbp)   # imm = 0x193DA44F
	movq	%rdi, -8(%rbp)
	movw	%si, -18(%rbp)
	movq	%rdx, -32(%rbp)
	movq	-8(%rbp), %rax
	movl	4(%rax), %eax
	movl	%eax, -16(%rbp)
	movq	-8(%rbp), %rax
	movl	(%rax), %eax
	movl	%eax, -12(%rbp)
	movq	-32(%rbp), %rax
	movzwl	(%rax), %eax
	shlq	$2, %rax
	movabsq	$rLPS_table_64x4, %rcx
	addq	%rax, %rcx
	movl	-16(%rbp), %eax
	shrl	$6, %eax
	andl	$3, %eax
	movl	%eax, %eax
	movzbl	(%rcx,%rax), %eax
	movl	%eax, -36(%rbp)
	cmpl	$0, cabac_encoding
	je	.LBB28_2
# %bb.1:                                # %if.then
	movq	-32(%rbp), %rax
	movq	8(%rax), %rcx
	addq	$1, %rcx
	movq	%rcx, 8(%rax)
.LBB28_2:                               # %if.end
	movswl	-18(%rbp), %eax
	cmpl	$0, %eax
	je	.LBB28_4
# %bb.3:                                # %if.then5
	movw	$1, -18(%rbp)
.LBB28_4:                               # %if.end6
	movl	-36(%rbp), %eax
	movl	-16(%rbp), %ecx
	subl	%eax, %ecx
	movl	%ecx, -16(%rbp)
	movswl	-18(%rbp), %eax
	movq	-32(%rbp), %rcx
	movzbl	2(%rcx), %ecx
	cmpl	%ecx, %eax
	je	.LBB28_8
# %bb.5:                                # %if.then11
	movl	-16(%rbp), %eax
	addl	-12(%rbp), %eax
	movl	%eax, -12(%rbp)
	movl	-36(%rbp), %eax
	movl	%eax, -16(%rbp)
	movq	-32(%rbp), %rax
	cmpw	$0, (%rax)
	jne	.LBB28_7
# %bb.6:                                # %if.then14
	movq	-32(%rbp), %rax
	movzbl	2(%rax), %eax
	xorl	$1, %eax
	movq	-32(%rbp), %rcx
	movb	%al, 2(%rcx)
.LBB28_7:                               # %if.end19
	movq	-32(%rbp), %rax
	movzwl	(%rax), %eax
	movw	AC_next_state_LPS_64(,%rax,2), %ax
	movq	-32(%rbp), %rcx
	movw	%ax, (%rcx)
	jmp	.LBB28_9
.LBB28_8:                               # %if.else
	movq	-32(%rbp), %rax
	movzwl	(%rax), %eax
	movw	AC_next_state_MPS_64(,%rax,2), %ax
	movq	-32(%rbp), %rcx
	movw	%ax, (%rcx)
.LBB28_9:                               # %if.end28
	jmp	.LBB28_10
.LBB28_10:                              # %while.cond
                                        # =>This Loop Header: Depth=1
                                        #     Child Loop BB28_14 Depth 2
                                        #     Child Loop BB28_18 Depth 2
                                        #       Child Loop BB28_21 Depth 3
                                        #     Child Loop BB28_29 Depth 2
                                        #     Child Loop BB28_33 Depth 2
                                        #       Child Loop BB28_36 Depth 3
	cmpl	$256, -16(%rbp)         # imm = 0x100
	jae	.LBB28_44
# %bb.11:                               # %while.body
                                        #   in Loop: Header=BB28_10 Depth=1
	cmpl	$512, -12(%rbp)         # imm = 0x200
	jb	.LBB28_26
# %bb.12:                               # %if.then33
                                        #   in Loop: Header=BB28_10 Depth=1
	movq	-8(%rbp), %rax
	movl	8(%rax), %ecx
	shll	$1, %ecx
	movl	%ecx, 8(%rax)
	movq	-8(%rbp), %rax
	movl	8(%rax), %ecx
	orl	$1, %ecx
	movl	%ecx, 8(%rax)
	movq	-8(%rbp), %rax
	movl	12(%rax), %ecx
	addl	$-1, %ecx
	movl	%ecx, 12(%rax)
	cmpl	$0, %ecx
	jne	.LBB28_17
# %bb.13:                               # %if.then37
                                        #   in Loop: Header=BB28_10 Depth=1
	movq	-8(%rbp), %rax
	movl	8(%rax), %eax
	movq	-8(%rbp), %rcx
	movq	24(%rcx), %rcx
	movq	-8(%rbp), %rdx
	movq	32(%rdx), %rdx
	movl	(%rdx), %esi
	movl	%esi, %edi
	addl	$1, %edi
	movl	%edi, (%rdx)
	movslq	%esi, %rdx
	movb	%al, (%rcx,%rdx)
	movq	-8(%rbp), %rax
	movl	$8, 12(%rax)
.LBB28_14:                              # %while.cond44
                                        #   Parent Loop BB28_10 Depth=1
                                        # =>  This Inner Loop Header: Depth=2
	movq	-8(%rbp), %rax
	cmpl	$7, 80(%rax)
	jle	.LBB28_16
# %bb.15:                               # %while.body47
                                        #   in Loop: Header=BB28_14 Depth=2
	movq	-8(%rbp), %rax
	movl	80(%rax), %ecx
	subl	$8, %ecx
	movl	%ecx, 80(%rax)
	movq	-8(%rbp), %rax
	movl	88(%rax), %ecx
	addl	$1, %ecx
	movl	%ecx, 88(%rax)
	jmp	.LBB28_14
.LBB28_16:                              # %while.end
                                        #   in Loop: Header=BB28_10 Depth=1
	jmp	.LBB28_17
.LBB28_17:                              # %if.end51
                                        #   in Loop: Header=BB28_10 Depth=1
	jmp	.LBB28_18
.LBB28_18:                              # %while.cond52
                                        #   Parent Loop BB28_10 Depth=1
                                        # =>  This Loop Header: Depth=2
                                        #       Child Loop BB28_21 Depth 3
	movq	-8(%rbp), %rax
	cmpl	$0, 16(%rax)
	jbe	.LBB28_25
# %bb.19:                               # %while.body55
                                        #   in Loop: Header=BB28_18 Depth=2
	movq	-8(%rbp), %rax
	movl	16(%rax), %ecx
	addl	$-1, %ecx
	movl	%ecx, 16(%rax)
	movq	-8(%rbp), %rax
	movl	8(%rax), %ecx
	shll	$1, %ecx
	movl	%ecx, 8(%rax)
	movq	-8(%rbp), %rax
	movl	8(%rax), %ecx
	movl	%ecx, 8(%rax)
	movq	-8(%rbp), %rax
	movl	12(%rax), %ecx
	addl	$-1, %ecx
	movl	%ecx, 12(%rax)
	cmpl	$0, %ecx
	jne	.LBB28_24
# %bb.20:                               # %if.then65
                                        #   in Loop: Header=BB28_18 Depth=2
	movq	-8(%rbp), %rax
	movl	8(%rax), %eax
	movq	-8(%rbp), %rcx
	movq	24(%rcx), %rcx
	movq	-8(%rbp), %rdx
	movq	32(%rdx), %rdx
	movl	(%rdx), %esi
	movl	%esi, %edi
	addl	$1, %edi
	movl	%edi, (%rdx)
	movslq	%esi, %rdx
	movb	%al, (%rcx,%rdx)
	movq	-8(%rbp), %rax
	movl	$8, 12(%rax)
.LBB28_21:                              # %while.cond74
                                        #   Parent Loop BB28_10 Depth=1
                                        #     Parent Loop BB28_18 Depth=2
                                        # =>    This Inner Loop Header: Depth=3
	movq	-8(%rbp), %rax
	cmpl	$7, 80(%rax)
	jle	.LBB28_23
# %bb.22:                               # %while.body78
                                        #   in Loop: Header=BB28_21 Depth=3
	movq	-8(%rbp), %rax
	movl	80(%rax), %ecx
	subl	$8, %ecx
	movl	%ecx, 80(%rax)
	movq	-8(%rbp), %rax
	movl	88(%rax), %ecx
	addl	$1, %ecx
	movl	%ecx, 88(%rax)
	jmp	.LBB28_21
.LBB28_23:                              # %while.end83
                                        #   in Loop: Header=BB28_18 Depth=2
	jmp	.LBB28_24
.LBB28_24:                              # %if.end84
                                        #   in Loop: Header=BB28_18 Depth=2
	jmp	.LBB28_18
.LBB28_25:                              # %while.end85
                                        #   in Loop: Header=BB28_10 Depth=1
	movl	-12(%rbp), %eax
	subl	$512, %eax              # imm = 0x200
	movl	%eax, -12(%rbp)
	jmp	.LBB28_43
.LBB28_26:                              # %if.else87
                                        #   in Loop: Header=BB28_10 Depth=1
	cmpl	$256, -12(%rbp)         # imm = 0x100
	jae	.LBB28_41
# %bb.27:                               # %if.then90
                                        #   in Loop: Header=BB28_10 Depth=1
	movq	-8(%rbp), %rax
	movl	8(%rax), %ecx
	shll	$1, %ecx
	movl	%ecx, 8(%rax)
	movq	-8(%rbp), %rax
	movl	8(%rax), %ecx
	movl	%ecx, 8(%rax)
	movq	-8(%rbp), %rax
	movl	12(%rax), %ecx
	addl	$-1, %ecx
	movl	%ecx, 12(%rax)
	cmpl	$0, %ecx
	jne	.LBB28_32
# %bb.28:                               # %if.then98
                                        #   in Loop: Header=BB28_10 Depth=1
	movq	-8(%rbp), %rax
	movl	8(%rax), %eax
	movq	-8(%rbp), %rcx
	movq	24(%rcx), %rcx
	movq	-8(%rbp), %rdx
	movq	32(%rdx), %rdx
	movl	(%rdx), %esi
	movl	%esi, %edi
	addl	$1, %edi
	movl	%edi, (%rdx)
	movslq	%esi, %rdx
	movb	%al, (%rcx,%rdx)
	movq	-8(%rbp), %rax
	movl	$8, 12(%rax)
.LBB28_29:                              # %while.cond107
                                        #   Parent Loop BB28_10 Depth=1
                                        # =>  This Inner Loop Header: Depth=2
	movq	-8(%rbp), %rax
	cmpl	$7, 80(%rax)
	jle	.LBB28_31
# %bb.30:                               # %while.body111
                                        #   in Loop: Header=BB28_29 Depth=2
	movq	-8(%rbp), %rax
	movl	80(%rax), %ecx
	subl	$8, %ecx
	movl	%ecx, 80(%rax)
	movq	-8(%rbp), %rax
	movl	88(%rax), %ecx
	addl	$1, %ecx
	movl	%ecx, 88(%rax)
	jmp	.LBB28_29
.LBB28_31:                              # %while.end116
                                        #   in Loop: Header=BB28_10 Depth=1
	jmp	.LBB28_32
.LBB28_32:                              # %if.end117
                                        #   in Loop: Header=BB28_10 Depth=1
	jmp	.LBB28_33
.LBB28_33:                              # %while.cond118
                                        #   Parent Loop BB28_10 Depth=1
                                        # =>  This Loop Header: Depth=2
                                        #       Child Loop BB28_36 Depth 3
	movq	-8(%rbp), %rax
	cmpl	$0, 16(%rax)
	jbe	.LBB28_40
# %bb.34:                               # %while.body122
                                        #   in Loop: Header=BB28_33 Depth=2
	movq	-8(%rbp), %rax
	movl	16(%rax), %ecx
	addl	$-1, %ecx
	movl	%ecx, 16(%rax)
	movq	-8(%rbp), %rax
	movl	8(%rax), %ecx
	shll	$1, %ecx
	movl	%ecx, 8(%rax)
	movq	-8(%rbp), %rax
	movl	8(%rax), %ecx
	orl	$1, %ecx
	movl	%ecx, 8(%rax)
	movq	-8(%rbp), %rax
	movl	12(%rax), %ecx
	addl	$-1, %ecx
	movl	%ecx, 12(%rax)
	cmpl	$0, %ecx
	jne	.LBB28_39
# %bb.35:                               # %if.then133
                                        #   in Loop: Header=BB28_33 Depth=2
	movq	-8(%rbp), %rax
	movl	8(%rax), %eax
	movq	-8(%rbp), %rcx
	movq	24(%rcx), %rcx
	movq	-8(%rbp), %rdx
	movq	32(%rdx), %rdx
	movl	(%rdx), %esi
	movl	%esi, %edi
	addl	$1, %edi
	movl	%edi, (%rdx)
	movslq	%esi, %rdx
	movb	%al, (%rcx,%rdx)
	movq	-8(%rbp), %rax
	movl	$8, 12(%rax)
.LBB28_36:                              # %while.cond142
                                        #   Parent Loop BB28_10 Depth=1
                                        #     Parent Loop BB28_33 Depth=2
                                        # =>    This Inner Loop Header: Depth=3
	movq	-8(%rbp), %rax
	cmpl	$7, 80(%rax)
	jle	.LBB28_38
# %bb.37:                               # %while.body146
                                        #   in Loop: Header=BB28_36 Depth=3
	movq	-8(%rbp), %rax
	movl	80(%rax), %ecx
	subl	$8, %ecx
	movl	%ecx, 80(%rax)
	movq	-8(%rbp), %rax
	movl	88(%rax), %ecx
	addl	$1, %ecx
	movl	%ecx, 88(%rax)
	jmp	.LBB28_36
.LBB28_38:                              # %while.end151
                                        #   in Loop: Header=BB28_33 Depth=2
	jmp	.LBB28_39
.LBB28_39:                              # %if.end152
                                        #   in Loop: Header=BB28_33 Depth=2
	jmp	.LBB28_33
.LBB28_40:                              # %while.end153
                                        #   in Loop: Header=BB28_10 Depth=1
	jmp	.LBB28_42
.LBB28_41:                              # %if.else154
                                        #   in Loop: Header=BB28_10 Depth=1
	movq	-8(%rbp), %rax
	movl	16(%rax), %ecx
	addl	$1, %ecx
	movl	%ecx, 16(%rax)
	movl	-12(%rbp), %eax
	subl	$256, %eax              # imm = 0x100
	movl	%eax, -12(%rbp)
.LBB28_42:                              # %if.end158
                                        #   in Loop: Header=BB28_10 Depth=1
	jmp	.LBB28_43
.LBB28_43:                              # %if.end159
                                        #   in Loop: Header=BB28_10 Depth=1
	movl	-12(%rbp), %eax
	shll	$1, %eax
	movl	%eax, -12(%rbp)
	movl	-16(%rbp), %eax
	shll	$1, %eax
	movl	%eax, -16(%rbp)
	jmp	.LBB28_10
.LBB28_44:                              # %while.end162
	movl	-16(%rbp), %eax
	movq	-8(%rbp), %rcx
	movl	%eax, 4(%rcx)
	movl	-12(%rbp), %eax
	movq	-8(%rbp), %rcx
	movl	%eax, (%rcx)
	movq	-8(%rbp), %rax
	movl	80(%rax), %ecx
	addl	$1, %ecx
	movl	%ecx, 80(%rax)
	cmpl	$423470159, -40(%rbp)   # imm = 0x193DA44F
	jne	.LBB28_46
.LBB28_45:
	addq	$48, %rsp
	popq	%rbp
	.cfi_def_cfa %rsp, 8
	retq
.LBB28_46:                              # %func_exit
	.cfi_def_cfa %rbp, 16
	callq	detect_breach
	jmp	.LBB28_45
.Lfunc_end28:
	.size	biari_encode_symbol.20, .Lfunc_end28-biari_encode_symbol.20
	.cfi_endproc
                                        # -- End function
	.globl	arienco_start_encoding.21 # -- Begin function arienco_start_encoding.21
	.p2align	4, 0x90
	.type	arienco_start_encoding.21,@function
arienco_start_encoding.21:              # @arienco_start_encoding.21
	.cfi_startproc
# %bb.0:                                # %entry
	pushq	%rbp
	.cfi_def_cfa_offset 16
	.cfi_offset %rbp, -16
	movq	%rsp, %rbp
	.cfi_def_cfa_register %rbp
	subq	$48, %rsp
	movl	$1106271809, -12(%rbp)  # imm = 0x41F05E41
	movq	%rdi, -8(%rbp)
	movq	%rsi, -32(%rbp)
	movq	%rdx, -24(%rbp)
	movl	%ecx, -36(%rbp)
	movq	-8(%rbp), %rax
	movl	$0, (%rax)
	movq	-8(%rbp), %rax
	movl	$0, 16(%rax)
	movq	-8(%rbp), %rax
	movl	$0, 8(%rax)
	movq	-8(%rbp), %rax
	movl	$9, 12(%rax)
	movq	-32(%rbp), %rax
	movq	-8(%rbp), %rcx
	movq	%rax, 24(%rcx)
	movq	-24(%rbp), %rax
	movq	-8(%rbp), %rcx
	movq	%rax, 32(%rcx)
	movq	-8(%rbp), %rax
	movl	$510, 4(%rax)           # imm = 0x1FE
	movq	-8(%rbp), %rax
	movl	$0, 80(%rax)
	movq	-24(%rbp), %rax
	movl	(%rax), %eax
	movq	-8(%rbp), %rcx
	movl	%eax, 96(%rcx)
	movq	-8(%rbp), %rax
	movl	$0, 88(%rax)
	cmpl	$1106271809, -12(%rbp)  # imm = 0x41F05E41
	jne	.LBB29_2
.LBB29_1:
	addq	$48, %rsp
	popq	%rbp
	.cfi_def_cfa %rsp, 8
	retq
.LBB29_2:                               # %func_exit
	.cfi_def_cfa %rbp, 16
	callq	detect_breach
	jmp	.LBB29_1
.Lfunc_end29:
	.size	arienco_start_encoding.21, .Lfunc_end29-arienco_start_encoding.21
	.cfi_endproc
                                        # -- End function
	.globl	biari_encode_symbol.22  # -- Begin function biari_encode_symbol.22
	.p2align	4, 0x90
	.type	biari_encode_symbol.22,@function
biari_encode_symbol.22:                 # @biari_encode_symbol.22
	.cfi_startproc
# %bb.0:                                # %entry
	pushq	%rbp
	.cfi_def_cfa_offset 16
	.cfi_offset %rbp, -16
	movq	%rsp, %rbp
	.cfi_def_cfa_register %rbp
	subq	$48, %rsp
	movl	$1171655714, -40(%rbp)  # imm = 0x45D60C22
	movq	%rdi, -8(%rbp)
	movw	%si, -18(%rbp)
	movq	%rdx, -32(%rbp)
	movq	-8(%rbp), %rax
	movl	4(%rax), %eax
	movl	%eax, -16(%rbp)
	movq	-8(%rbp), %rax
	movl	(%rax), %eax
	movl	%eax, -12(%rbp)
	movq	-32(%rbp), %rax
	movzwl	(%rax), %eax
	shlq	$2, %rax
	movabsq	$rLPS_table_64x4, %rcx
	addq	%rax, %rcx
	movl	-16(%rbp), %eax
	shrl	$6, %eax
	andl	$3, %eax
	movl	%eax, %eax
	movzbl	(%rcx,%rax), %eax
	movl	%eax, -36(%rbp)
	cmpl	$0, cabac_encoding
	je	.LBB30_2
# %bb.1:                                # %if.then
	movq	-32(%rbp), %rax
	movq	8(%rax), %rcx
	addq	$1, %rcx
	movq	%rcx, 8(%rax)
.LBB30_2:                               # %if.end
	movswl	-18(%rbp), %eax
	cmpl	$0, %eax
	je	.LBB30_4
# %bb.3:                                # %if.then5
	movw	$1, -18(%rbp)
.LBB30_4:                               # %if.end6
	movl	-36(%rbp), %eax
	movl	-16(%rbp), %ecx
	subl	%eax, %ecx
	movl	%ecx, -16(%rbp)
	movswl	-18(%rbp), %eax
	movq	-32(%rbp), %rcx
	movzbl	2(%rcx), %ecx
	cmpl	%ecx, %eax
	je	.LBB30_8
# %bb.5:                                # %if.then11
	movl	-16(%rbp), %eax
	addl	-12(%rbp), %eax
	movl	%eax, -12(%rbp)
	movl	-36(%rbp), %eax
	movl	%eax, -16(%rbp)
	movq	-32(%rbp), %rax
	cmpw	$0, (%rax)
	jne	.LBB30_7
# %bb.6:                                # %if.then14
	movq	-32(%rbp), %rax
	movzbl	2(%rax), %eax
	xorl	$1, %eax
	movq	-32(%rbp), %rcx
	movb	%al, 2(%rcx)
.LBB30_7:                               # %if.end19
	movq	-32(%rbp), %rax
	movzwl	(%rax), %eax
	movw	AC_next_state_LPS_64(,%rax,2), %ax
	movq	-32(%rbp), %rcx
	movw	%ax, (%rcx)
	jmp	.LBB30_9
.LBB30_8:                               # %if.else
	movq	-32(%rbp), %rax
	movzwl	(%rax), %eax
	movw	AC_next_state_MPS_64(,%rax,2), %ax
	movq	-32(%rbp), %rcx
	movw	%ax, (%rcx)
.LBB30_9:                               # %if.end28
	jmp	.LBB30_10
.LBB30_10:                              # %while.cond
                                        # =>This Loop Header: Depth=1
                                        #     Child Loop BB30_14 Depth 2
                                        #     Child Loop BB30_18 Depth 2
                                        #       Child Loop BB30_21 Depth 3
                                        #     Child Loop BB30_29 Depth 2
                                        #     Child Loop BB30_33 Depth 2
                                        #       Child Loop BB30_36 Depth 3
	cmpl	$256, -16(%rbp)         # imm = 0x100
	jae	.LBB30_44
# %bb.11:                               # %while.body
                                        #   in Loop: Header=BB30_10 Depth=1
	cmpl	$512, -12(%rbp)         # imm = 0x200
	jb	.LBB30_26
# %bb.12:                               # %if.then33
                                        #   in Loop: Header=BB30_10 Depth=1
	movq	-8(%rbp), %rax
	movl	8(%rax), %ecx
	shll	$1, %ecx
	movl	%ecx, 8(%rax)
	movq	-8(%rbp), %rax
	movl	8(%rax), %ecx
	orl	$1, %ecx
	movl	%ecx, 8(%rax)
	movq	-8(%rbp), %rax
	movl	12(%rax), %ecx
	addl	$-1, %ecx
	movl	%ecx, 12(%rax)
	cmpl	$0, %ecx
	jne	.LBB30_17
# %bb.13:                               # %if.then37
                                        #   in Loop: Header=BB30_10 Depth=1
	movq	-8(%rbp), %rax
	movl	8(%rax), %eax
	movq	-8(%rbp), %rcx
	movq	24(%rcx), %rcx
	movq	-8(%rbp), %rdx
	movq	32(%rdx), %rdx
	movl	(%rdx), %esi
	movl	%esi, %edi
	addl	$1, %edi
	movl	%edi, (%rdx)
	movslq	%esi, %rdx
	movb	%al, (%rcx,%rdx)
	movq	-8(%rbp), %rax
	movl	$8, 12(%rax)
.LBB30_14:                              # %while.cond44
                                        #   Parent Loop BB30_10 Depth=1
                                        # =>  This Inner Loop Header: Depth=2
	movq	-8(%rbp), %rax
	cmpl	$7, 80(%rax)
	jle	.LBB30_16
# %bb.15:                               # %while.body47
                                        #   in Loop: Header=BB30_14 Depth=2
	movq	-8(%rbp), %rax
	movl	80(%rax), %ecx
	subl	$8, %ecx
	movl	%ecx, 80(%rax)
	movq	-8(%rbp), %rax
	movl	88(%rax), %ecx
	addl	$1, %ecx
	movl	%ecx, 88(%rax)
	jmp	.LBB30_14
.LBB30_16:                              # %while.end
                                        #   in Loop: Header=BB30_10 Depth=1
	jmp	.LBB30_17
.LBB30_17:                              # %if.end51
                                        #   in Loop: Header=BB30_10 Depth=1
	jmp	.LBB30_18
.LBB30_18:                              # %while.cond52
                                        #   Parent Loop BB30_10 Depth=1
                                        # =>  This Loop Header: Depth=2
                                        #       Child Loop BB30_21 Depth 3
	movq	-8(%rbp), %rax
	cmpl	$0, 16(%rax)
	jbe	.LBB30_25
# %bb.19:                               # %while.body55
                                        #   in Loop: Header=BB30_18 Depth=2
	movq	-8(%rbp), %rax
	movl	16(%rax), %ecx
	addl	$-1, %ecx
	movl	%ecx, 16(%rax)
	movq	-8(%rbp), %rax
	movl	8(%rax), %ecx
	shll	$1, %ecx
	movl	%ecx, 8(%rax)
	movq	-8(%rbp), %rax
	movl	8(%rax), %ecx
	movl	%ecx, 8(%rax)
	movq	-8(%rbp), %rax
	movl	12(%rax), %ecx
	addl	$-1, %ecx
	movl	%ecx, 12(%rax)
	cmpl	$0, %ecx
	jne	.LBB30_24
# %bb.20:                               # %if.then65
                                        #   in Loop: Header=BB30_18 Depth=2
	movq	-8(%rbp), %rax
	movl	8(%rax), %eax
	movq	-8(%rbp), %rcx
	movq	24(%rcx), %rcx
	movq	-8(%rbp), %rdx
	movq	32(%rdx), %rdx
	movl	(%rdx), %esi
	movl	%esi, %edi
	addl	$1, %edi
	movl	%edi, (%rdx)
	movslq	%esi, %rdx
	movb	%al, (%rcx,%rdx)
	movq	-8(%rbp), %rax
	movl	$8, 12(%rax)
.LBB30_21:                              # %while.cond74
                                        #   Parent Loop BB30_10 Depth=1
                                        #     Parent Loop BB30_18 Depth=2
                                        # =>    This Inner Loop Header: Depth=3
	movq	-8(%rbp), %rax
	cmpl	$7, 80(%rax)
	jle	.LBB30_23
# %bb.22:                               # %while.body78
                                        #   in Loop: Header=BB30_21 Depth=3
	movq	-8(%rbp), %rax
	movl	80(%rax), %ecx
	subl	$8, %ecx
	movl	%ecx, 80(%rax)
	movq	-8(%rbp), %rax
	movl	88(%rax), %ecx
	addl	$1, %ecx
	movl	%ecx, 88(%rax)
	jmp	.LBB30_21
.LBB30_23:                              # %while.end83
                                        #   in Loop: Header=BB30_18 Depth=2
	jmp	.LBB30_24
.LBB30_24:                              # %if.end84
                                        #   in Loop: Header=BB30_18 Depth=2
	jmp	.LBB30_18
.LBB30_25:                              # %while.end85
                                        #   in Loop: Header=BB30_10 Depth=1
	movl	-12(%rbp), %eax
	subl	$512, %eax              # imm = 0x200
	movl	%eax, -12(%rbp)
	jmp	.LBB30_43
.LBB30_26:                              # %if.else87
                                        #   in Loop: Header=BB30_10 Depth=1
	cmpl	$256, -12(%rbp)         # imm = 0x100
	jae	.LBB30_41
# %bb.27:                               # %if.then90
                                        #   in Loop: Header=BB30_10 Depth=1
	movq	-8(%rbp), %rax
	movl	8(%rax), %ecx
	shll	$1, %ecx
	movl	%ecx, 8(%rax)
	movq	-8(%rbp), %rax
	movl	8(%rax), %ecx
	movl	%ecx, 8(%rax)
	movq	-8(%rbp), %rax
	movl	12(%rax), %ecx
	addl	$-1, %ecx
	movl	%ecx, 12(%rax)
	cmpl	$0, %ecx
	jne	.LBB30_32
# %bb.28:                               # %if.then98
                                        #   in Loop: Header=BB30_10 Depth=1
	movq	-8(%rbp), %rax
	movl	8(%rax), %eax
	movq	-8(%rbp), %rcx
	movq	24(%rcx), %rcx
	movq	-8(%rbp), %rdx
	movq	32(%rdx), %rdx
	movl	(%rdx), %esi
	movl	%esi, %edi
	addl	$1, %edi
	movl	%edi, (%rdx)
	movslq	%esi, %rdx
	movb	%al, (%rcx,%rdx)
	movq	-8(%rbp), %rax
	movl	$8, 12(%rax)
.LBB30_29:                              # %while.cond107
                                        #   Parent Loop BB30_10 Depth=1
                                        # =>  This Inner Loop Header: Depth=2
	movq	-8(%rbp), %rax
	cmpl	$7, 80(%rax)
	jle	.LBB30_31
# %bb.30:                               # %while.body111
                                        #   in Loop: Header=BB30_29 Depth=2
	movq	-8(%rbp), %rax
	movl	80(%rax), %ecx
	subl	$8, %ecx
	movl	%ecx, 80(%rax)
	movq	-8(%rbp), %rax
	movl	88(%rax), %ecx
	addl	$1, %ecx
	movl	%ecx, 88(%rax)
	jmp	.LBB30_29
.LBB30_31:                              # %while.end116
                                        #   in Loop: Header=BB30_10 Depth=1
	jmp	.LBB30_32
.LBB30_32:                              # %if.end117
                                        #   in Loop: Header=BB30_10 Depth=1
	jmp	.LBB30_33
.LBB30_33:                              # %while.cond118
                                        #   Parent Loop BB30_10 Depth=1
                                        # =>  This Loop Header: Depth=2
                                        #       Child Loop BB30_36 Depth 3
	movq	-8(%rbp), %rax
	cmpl	$0, 16(%rax)
	jbe	.LBB30_40
# %bb.34:                               # %while.body122
                                        #   in Loop: Header=BB30_33 Depth=2
	movq	-8(%rbp), %rax
	movl	16(%rax), %ecx
	addl	$-1, %ecx
	movl	%ecx, 16(%rax)
	movq	-8(%rbp), %rax
	movl	8(%rax), %ecx
	shll	$1, %ecx
	movl	%ecx, 8(%rax)
	movq	-8(%rbp), %rax
	movl	8(%rax), %ecx
	orl	$1, %ecx
	movl	%ecx, 8(%rax)
	movq	-8(%rbp), %rax
	movl	12(%rax), %ecx
	addl	$-1, %ecx
	movl	%ecx, 12(%rax)
	cmpl	$0, %ecx
	jne	.LBB30_39
# %bb.35:                               # %if.then133
                                        #   in Loop: Header=BB30_33 Depth=2
	movq	-8(%rbp), %rax
	movl	8(%rax), %eax
	movq	-8(%rbp), %rcx
	movq	24(%rcx), %rcx
	movq	-8(%rbp), %rdx
	movq	32(%rdx), %rdx
	movl	(%rdx), %esi
	movl	%esi, %edi
	addl	$1, %edi
	movl	%edi, (%rdx)
	movslq	%esi, %rdx
	movb	%al, (%rcx,%rdx)
	movq	-8(%rbp), %rax
	movl	$8, 12(%rax)
.LBB30_36:                              # %while.cond142
                                        #   Parent Loop BB30_10 Depth=1
                                        #     Parent Loop BB30_33 Depth=2
                                        # =>    This Inner Loop Header: Depth=3
	movq	-8(%rbp), %rax
	cmpl	$7, 80(%rax)
	jle	.LBB30_38
# %bb.37:                               # %while.body146
                                        #   in Loop: Header=BB30_36 Depth=3
	movq	-8(%rbp), %rax
	movl	80(%rax), %ecx
	subl	$8, %ecx
	movl	%ecx, 80(%rax)
	movq	-8(%rbp), %rax
	movl	88(%rax), %ecx
	addl	$1, %ecx
	movl	%ecx, 88(%rax)
	jmp	.LBB30_36
.LBB30_38:                              # %while.end151
                                        #   in Loop: Header=BB30_33 Depth=2
	jmp	.LBB30_39
.LBB30_39:                              # %if.end152
                                        #   in Loop: Header=BB30_33 Depth=2
	jmp	.LBB30_33
.LBB30_40:                              # %while.end153
                                        #   in Loop: Header=BB30_10 Depth=1
	jmp	.LBB30_42
.LBB30_41:                              # %if.else154
                                        #   in Loop: Header=BB30_10 Depth=1
	movq	-8(%rbp), %rax
	movl	16(%rax), %ecx
	addl	$1, %ecx
	movl	%ecx, 16(%rax)
	movl	-12(%rbp), %eax
	subl	$256, %eax              # imm = 0x100
	movl	%eax, -12(%rbp)
.LBB30_42:                              # %if.end158
                                        #   in Loop: Header=BB30_10 Depth=1
	jmp	.LBB30_43
.LBB30_43:                              # %if.end159
                                        #   in Loop: Header=BB30_10 Depth=1
	movl	-12(%rbp), %eax
	shll	$1, %eax
	movl	%eax, -12(%rbp)
	movl	-16(%rbp), %eax
	shll	$1, %eax
	movl	%eax, -16(%rbp)
	jmp	.LBB30_10
.LBB30_44:                              # %while.end162
	movl	-16(%rbp), %eax
	movq	-8(%rbp), %rcx
	movl	%eax, 4(%rcx)
	movl	-12(%rbp), %eax
	movq	-8(%rbp), %rcx
	movl	%eax, (%rcx)
	movq	-8(%rbp), %rax
	movl	80(%rax), %ecx
	addl	$1, %ecx
	movl	%ecx, 80(%rax)
	cmpl	$1171655714, -40(%rbp)  # imm = 0x45D60C22
	jne	.LBB30_46
.LBB30_45:
	addq	$48, %rsp
	popq	%rbp
	.cfi_def_cfa %rsp, 8
	retq
.LBB30_46:                              # %func_exit
	.cfi_def_cfa %rbp, 16
	callq	detect_breach
	jmp	.LBB30_45
.Lfunc_end30:
	.size	biari_encode_symbol.22, .Lfunc_end30-biari_encode_symbol.22
	.cfi_endproc
                                        # -- End function
	.globl	biari_encode_symbol_eq_prob.23 # -- Begin function biari_encode_symbol_eq_prob.23
	.p2align	4, 0x90
	.type	biari_encode_symbol_eq_prob.23,@function
biari_encode_symbol_eq_prob.23:         # @biari_encode_symbol_eq_prob.23
	.cfi_startproc
# %bb.0:                                # %entry
	pushq	%rbp
	.cfi_def_cfa_offset 16
	.cfi_offset %rbp, -16
	movq	%rsp, %rbp
	.cfi_def_cfa_register %rbp
	subq	$32, %rsp
	movl	$981252464, -20(%rbp)   # imm = 0x3A7CB970
	movq	%rdi, -8(%rbp)
	movw	%si, -14(%rbp)
	movq	-8(%rbp), %rax
	movl	(%rax), %eax
	shll	$1, %eax
	movl	%eax, -12(%rbp)
	movswl	-14(%rbp), %eax
	cmpl	$0, %eax
	je	.LBB31_2
# %bb.1:                                # %if.then
	movq	-8(%rbp), %rax
	movl	4(%rax), %eax
	addl	-12(%rbp), %eax
	movl	%eax, -12(%rbp)
.LBB31_2:                               # %if.end
	cmpl	$1024, -12(%rbp)        # imm = 0x400
	jb	.LBB31_17
# %bb.3:                                # %if.then4
	movq	-8(%rbp), %rax
	movl	8(%rax), %ecx
	shll	$1, %ecx
	movl	%ecx, 8(%rax)
	movq	-8(%rbp), %rax
	movl	8(%rax), %ecx
	orl	$1, %ecx
	movl	%ecx, 8(%rax)
	movq	-8(%rbp), %rax
	movl	12(%rax), %ecx
	addl	$-1, %ecx
	movl	%ecx, 12(%rax)
	cmpl	$0, %ecx
	jne	.LBB31_8
# %bb.4:                                # %if.then9
	movq	-8(%rbp), %rax
	movl	8(%rax), %eax
	movq	-8(%rbp), %rcx
	movq	24(%rcx), %rcx
	movq	-8(%rbp), %rdx
	movq	32(%rdx), %rdx
	movl	(%rdx), %esi
	movl	%esi, %edi
	addl	$1, %edi
	movl	%edi, (%rdx)
	movslq	%esi, %rdx
	movb	%al, (%rcx,%rdx)
	movq	-8(%rbp), %rax
	movl	$8, 12(%rax)
.LBB31_5:                               # %while.cond
                                        # =>This Inner Loop Header: Depth=1
	movq	-8(%rbp), %rax
	cmpl	$7, 80(%rax)
	jle	.LBB31_7
# %bb.6:                                # %while.body
                                        #   in Loop: Header=BB31_5 Depth=1
	movq	-8(%rbp), %rax
	movl	80(%rax), %ecx
	subl	$8, %ecx
	movl	%ecx, 80(%rax)
	movq	-8(%rbp), %rax
	movl	88(%rax), %ecx
	addl	$1, %ecx
	movl	%ecx, 88(%rax)
	jmp	.LBB31_5
.LBB31_7:                               # %while.end
	jmp	.LBB31_8
.LBB31_8:                               # %if.end17
	jmp	.LBB31_9
.LBB31_9:                               # %while.cond18
                                        # =>This Loop Header: Depth=1
                                        #     Child Loop BB31_12 Depth 2
	movq	-8(%rbp), %rax
	cmpl	$0, 16(%rax)
	jbe	.LBB31_16
# %bb.10:                               # %while.body21
                                        #   in Loop: Header=BB31_9 Depth=1
	movq	-8(%rbp), %rax
	movl	16(%rax), %ecx
	addl	$-1, %ecx
	movl	%ecx, 16(%rax)
	movq	-8(%rbp), %rax
	movl	8(%rax), %ecx
	shll	$1, %ecx
	movl	%ecx, 8(%rax)
	movq	-8(%rbp), %rax
	movl	8(%rax), %ecx
	movl	%ecx, 8(%rax)
	movq	-8(%rbp), %rax
	movl	12(%rax), %ecx
	addl	$-1, %ecx
	movl	%ecx, 12(%rax)
	cmpl	$0, %ecx
	jne	.LBB31_15
# %bb.11:                               # %if.then31
                                        #   in Loop: Header=BB31_9 Depth=1
	movq	-8(%rbp), %rax
	movl	8(%rax), %eax
	movq	-8(%rbp), %rcx
	movq	24(%rcx), %rcx
	movq	-8(%rbp), %rdx
	movq	32(%rdx), %rdx
	movl	(%rdx), %esi
	movl	%esi, %edi
	addl	$1, %edi
	movl	%edi, (%rdx)
	movslq	%esi, %rdx
	movb	%al, (%rcx,%rdx)
	movq	-8(%rbp), %rax
	movl	$8, 12(%rax)
.LBB31_12:                              # %while.cond40
                                        #   Parent Loop BB31_9 Depth=1
                                        # =>  This Inner Loop Header: Depth=2
	movq	-8(%rbp), %rax
	cmpl	$7, 80(%rax)
	jle	.LBB31_14
# %bb.13:                               # %while.body44
                                        #   in Loop: Header=BB31_12 Depth=2
	movq	-8(%rbp), %rax
	movl	80(%rax), %ecx
	subl	$8, %ecx
	movl	%ecx, 80(%rax)
	movq	-8(%rbp), %rax
	movl	88(%rax), %ecx
	addl	$1, %ecx
	movl	%ecx, 88(%rax)
	jmp	.LBB31_12
.LBB31_14:                              # %while.end49
                                        #   in Loop: Header=BB31_9 Depth=1
	jmp	.LBB31_15
.LBB31_15:                              # %if.end50
                                        #   in Loop: Header=BB31_9 Depth=1
	jmp	.LBB31_9
.LBB31_16:                              # %while.end51
	movl	-12(%rbp), %eax
	subl	$1024, %eax             # imm = 0x400
	movl	%eax, -12(%rbp)
	jmp	.LBB31_34
.LBB31_17:                              # %if.else
	cmpl	$512, -12(%rbp)         # imm = 0x200
	jae	.LBB31_32
# %bb.18:                               # %if.then55
	movq	-8(%rbp), %rax
	movl	8(%rax), %ecx
	shll	$1, %ecx
	movl	%ecx, 8(%rax)
	movq	-8(%rbp), %rax
	movl	8(%rax), %ecx
	movl	%ecx, 8(%rax)
	movq	-8(%rbp), %rax
	movl	12(%rax), %ecx
	addl	$-1, %ecx
	movl	%ecx, 12(%rax)
	cmpl	$0, %ecx
	jne	.LBB31_23
# %bb.19:                               # %if.then63
	movq	-8(%rbp), %rax
	movl	8(%rax), %eax
	movq	-8(%rbp), %rcx
	movq	24(%rcx), %rcx
	movq	-8(%rbp), %rdx
	movq	32(%rdx), %rdx
	movl	(%rdx), %esi
	movl	%esi, %edi
	addl	$1, %edi
	movl	%edi, (%rdx)
	movslq	%esi, %rdx
	movb	%al, (%rcx,%rdx)
	movq	-8(%rbp), %rax
	movl	$8, 12(%rax)
.LBB31_20:                              # %while.cond72
                                        # =>This Inner Loop Header: Depth=1
	movq	-8(%rbp), %rax
	cmpl	$7, 80(%rax)
	jle	.LBB31_22
# %bb.21:                               # %while.body76
                                        #   in Loop: Header=BB31_20 Depth=1
	movq	-8(%rbp), %rax
	movl	80(%rax), %ecx
	subl	$8, %ecx
	movl	%ecx, 80(%rax)
	movq	-8(%rbp), %rax
	movl	88(%rax), %ecx
	addl	$1, %ecx
	movl	%ecx, 88(%rax)
	jmp	.LBB31_20
.LBB31_22:                              # %while.end81
	jmp	.LBB31_23
.LBB31_23:                              # %if.end82
	jmp	.LBB31_24
.LBB31_24:                              # %while.cond83
                                        # =>This Loop Header: Depth=1
                                        #     Child Loop BB31_27 Depth 2
	movq	-8(%rbp), %rax
	cmpl	$0, 16(%rax)
	jbe	.LBB31_31
# %bb.25:                               # %while.body87
                                        #   in Loop: Header=BB31_24 Depth=1
	movq	-8(%rbp), %rax
	movl	16(%rax), %ecx
	addl	$-1, %ecx
	movl	%ecx, 16(%rax)
	movq	-8(%rbp), %rax
	movl	8(%rax), %ecx
	shll	$1, %ecx
	movl	%ecx, 8(%rax)
	movq	-8(%rbp), %rax
	movl	8(%rax), %ecx
	orl	$1, %ecx
	movl	%ecx, 8(%rax)
	movq	-8(%rbp), %rax
	movl	12(%rax), %ecx
	addl	$-1, %ecx
	movl	%ecx, 12(%rax)
	cmpl	$0, %ecx
	jne	.LBB31_30
# %bb.26:                               # %if.then98
                                        #   in Loop: Header=BB31_24 Depth=1
	movq	-8(%rbp), %rax
	movl	8(%rax), %eax
	movq	-8(%rbp), %rcx
	movq	24(%rcx), %rcx
	movq	-8(%rbp), %rdx
	movq	32(%rdx), %rdx
	movl	(%rdx), %esi
	movl	%esi, %edi
	addl	$1, %edi
	movl	%edi, (%rdx)
	movslq	%esi, %rdx
	movb	%al, (%rcx,%rdx)
	movq	-8(%rbp), %rax
	movl	$8, 12(%rax)
.LBB31_27:                              # %while.cond107
                                        #   Parent Loop BB31_24 Depth=1
                                        # =>  This Inner Loop Header: Depth=2
	movq	-8(%rbp), %rax
	cmpl	$7, 80(%rax)
	jle	.LBB31_29
# %bb.28:                               # %while.body111
                                        #   in Loop: Header=BB31_27 Depth=2
	movq	-8(%rbp), %rax
	movl	80(%rax), %ecx
	subl	$8, %ecx
	movl	%ecx, 80(%rax)
	movq	-8(%rbp), %rax
	movl	88(%rax), %ecx
	addl	$1, %ecx
	movl	%ecx, 88(%rax)
	jmp	.LBB31_27
.LBB31_29:                              # %while.end116
                                        #   in Loop: Header=BB31_24 Depth=1
	jmp	.LBB31_30
.LBB31_30:                              # %if.end117
                                        #   in Loop: Header=BB31_24 Depth=1
	jmp	.LBB31_24
.LBB31_31:                              # %while.end118
	jmp	.LBB31_33
.LBB31_32:                              # %if.else119
	movq	-8(%rbp), %rax
	movl	16(%rax), %ecx
	addl	$1, %ecx
	movl	%ecx, 16(%rax)
	movl	-12(%rbp), %eax
	subl	$512, %eax              # imm = 0x200
	movl	%eax, -12(%rbp)
.LBB31_33:                              # %if.end123
	jmp	.LBB31_34
.LBB31_34:                              # %if.end124
	movl	-12(%rbp), %eax
	movq	-8(%rbp), %rcx
	movl	%eax, (%rcx)
	movq	-8(%rbp), %rax
	movl	80(%rax), %ecx
	addl	$1, %ecx
	movl	%ecx, 80(%rax)
	cmpl	$981252464, -20(%rbp)   # imm = 0x3A7CB970
	jne	.LBB31_36
.LBB31_35:
	addq	$32, %rsp
	popq	%rbp
	.cfi_def_cfa %rsp, 8
	retq
.LBB31_36:                              # %func_exit
	.cfi_def_cfa %rbp, 16
	callq	detect_breach
	jmp	.LBB31_35
.Lfunc_end31:
	.size	biari_encode_symbol_eq_prob.23, .Lfunc_end31-biari_encode_symbol_eq_prob.23
	.cfi_endproc
                                        # -- End function
	.globl	biari_encode_symbol_final.24 # -- Begin function biari_encode_symbol_final.24
	.p2align	4, 0x90
	.type	biari_encode_symbol_final.24,@function
biari_encode_symbol_final.24:           # @biari_encode_symbol_final.24
	.cfi_startproc
# %bb.0:                                # %entry
	pushq	%rbp
	.cfi_def_cfa_offset 16
	.cfi_offset %rbp, -16
	movq	%rsp, %rbp
	.cfi_def_cfa_register %rbp
	subq	$32, %rsp
	movl	$2076184327, -24(%rbp)  # imm = 0x7BC00F07
	movq	%rdi, -8(%rbp)
	movw	%si, -18(%rbp)
	movq	-8(%rbp), %rax
	movl	4(%rax), %eax
	subl	$2, %eax
	movl	%eax, -16(%rbp)
	movq	-8(%rbp), %rax
	movl	(%rax), %eax
	movl	%eax, -12(%rbp)
	cmpw	$0, -18(%rbp)
	je	.LBB32_2
# %bb.1:                                # %if.then
	movl	-16(%rbp), %eax
	addl	-12(%rbp), %eax
	movl	%eax, -12(%rbp)
	movl	$2, -16(%rbp)
.LBB32_2:                               # %if.end
	jmp	.LBB32_3
.LBB32_3:                               # %while.cond
                                        # =>This Loop Header: Depth=1
                                        #     Child Loop BB32_7 Depth 2
                                        #     Child Loop BB32_11 Depth 2
                                        #       Child Loop BB32_14 Depth 3
                                        #     Child Loop BB32_22 Depth 2
                                        #     Child Loop BB32_26 Depth 2
                                        #       Child Loop BB32_29 Depth 3
	cmpl	$256, -16(%rbp)         # imm = 0x100
	jae	.LBB32_37
# %bb.4:                                # %while.body
                                        #   in Loop: Header=BB32_3 Depth=1
	cmpl	$512, -12(%rbp)         # imm = 0x200
	jb	.LBB32_19
# %bb.5:                                # %if.then2
                                        #   in Loop: Header=BB32_3 Depth=1
	movq	-8(%rbp), %rax
	movl	8(%rax), %ecx
	shll	$1, %ecx
	movl	%ecx, 8(%rax)
	movq	-8(%rbp), %rax
	movl	8(%rax), %ecx
	orl	$1, %ecx
	movl	%ecx, 8(%rax)
	movq	-8(%rbp), %rax
	movl	12(%rax), %ecx
	addl	$-1, %ecx
	movl	%ecx, 12(%rax)
	cmpl	$0, %ecx
	jne	.LBB32_10
# %bb.6:                                # %if.then5
                                        #   in Loop: Header=BB32_3 Depth=1
	movq	-8(%rbp), %rax
	movl	8(%rax), %eax
	movq	-8(%rbp), %rcx
	movq	24(%rcx), %rcx
	movq	-8(%rbp), %rdx
	movq	32(%rdx), %rdx
	movl	(%rdx), %esi
	movl	%esi, %edi
	addl	$1, %edi
	movl	%edi, (%rdx)
	movslq	%esi, %rdx
	movb	%al, (%rcx,%rdx)
	movq	-8(%rbp), %rax
	movl	$8, 12(%rax)
.LBB32_7:                               # %while.cond8
                                        #   Parent Loop BB32_3 Depth=1
                                        # =>  This Inner Loop Header: Depth=2
	movq	-8(%rbp), %rax
	cmpl	$7, 80(%rax)
	jle	.LBB32_9
# %bb.8:                                # %while.body11
                                        #   in Loop: Header=BB32_7 Depth=2
	movq	-8(%rbp), %rax
	movl	80(%rax), %ecx
	subl	$8, %ecx
	movl	%ecx, 80(%rax)
	movq	-8(%rbp), %rax
	movl	88(%rax), %ecx
	addl	$1, %ecx
	movl	%ecx, 88(%rax)
	jmp	.LBB32_7
.LBB32_9:                               # %while.end
                                        #   in Loop: Header=BB32_3 Depth=1
	jmp	.LBB32_10
.LBB32_10:                              # %if.end15
                                        #   in Loop: Header=BB32_3 Depth=1
	jmp	.LBB32_11
.LBB32_11:                              # %while.cond16
                                        #   Parent Loop BB32_3 Depth=1
                                        # =>  This Loop Header: Depth=2
                                        #       Child Loop BB32_14 Depth 3
	movq	-8(%rbp), %rax
	cmpl	$0, 16(%rax)
	jbe	.LBB32_18
# %bb.12:                               # %while.body19
                                        #   in Loop: Header=BB32_11 Depth=2
	movq	-8(%rbp), %rax
	movl	16(%rax), %ecx
	addl	$-1, %ecx
	movl	%ecx, 16(%rax)
	movq	-8(%rbp), %rax
	movl	8(%rax), %ecx
	shll	$1, %ecx
	movl	%ecx, 8(%rax)
	movq	-8(%rbp), %rax
	movl	8(%rax), %ecx
	movl	%ecx, 8(%rax)
	movq	-8(%rbp), %rax
	movl	12(%rax), %ecx
	addl	$-1, %ecx
	movl	%ecx, 12(%rax)
	cmpl	$0, %ecx
	jne	.LBB32_17
# %bb.13:                               # %if.then29
                                        #   in Loop: Header=BB32_11 Depth=2
	movq	-8(%rbp), %rax
	movl	8(%rax), %eax
	movq	-8(%rbp), %rcx
	movq	24(%rcx), %rcx
	movq	-8(%rbp), %rdx
	movq	32(%rdx), %rdx
	movl	(%rdx), %esi
	movl	%esi, %edi
	addl	$1, %edi
	movl	%edi, (%rdx)
	movslq	%esi, %rdx
	movb	%al, (%rcx,%rdx)
	movq	-8(%rbp), %rax
	movl	$8, 12(%rax)
.LBB32_14:                              # %while.cond38
                                        #   Parent Loop BB32_3 Depth=1
                                        #     Parent Loop BB32_11 Depth=2
                                        # =>    This Inner Loop Header: Depth=3
	movq	-8(%rbp), %rax
	cmpl	$7, 80(%rax)
	jle	.LBB32_16
# %bb.15:                               # %while.body42
                                        #   in Loop: Header=BB32_14 Depth=3
	movq	-8(%rbp), %rax
	movl	80(%rax), %ecx
	subl	$8, %ecx
	movl	%ecx, 80(%rax)
	movq	-8(%rbp), %rax
	movl	88(%rax), %ecx
	addl	$1, %ecx
	movl	%ecx, 88(%rax)
	jmp	.LBB32_14
.LBB32_16:                              # %while.end47
                                        #   in Loop: Header=BB32_11 Depth=2
	jmp	.LBB32_17
.LBB32_17:                              # %if.end48
                                        #   in Loop: Header=BB32_11 Depth=2
	jmp	.LBB32_11
.LBB32_18:                              # %while.end49
                                        #   in Loop: Header=BB32_3 Depth=1
	movl	-12(%rbp), %eax
	subl	$512, %eax              # imm = 0x200
	movl	%eax, -12(%rbp)
	jmp	.LBB32_36
.LBB32_19:                              # %if.else
                                        #   in Loop: Header=BB32_3 Depth=1
	cmpl	$256, -12(%rbp)         # imm = 0x100
	jae	.LBB32_34
# %bb.20:                               # %if.then53
                                        #   in Loop: Header=BB32_3 Depth=1
	movq	-8(%rbp), %rax
	movl	8(%rax), %ecx
	shll	$1, %ecx
	movl	%ecx, 8(%rax)
	movq	-8(%rbp), %rax
	movl	8(%rax), %ecx
	movl	%ecx, 8(%rax)
	movq	-8(%rbp), %rax
	movl	12(%rax), %ecx
	addl	$-1, %ecx
	movl	%ecx, 12(%rax)
	cmpl	$0, %ecx
	jne	.LBB32_25
# %bb.21:                               # %if.then61
                                        #   in Loop: Header=BB32_3 Depth=1
	movq	-8(%rbp), %rax
	movl	8(%rax), %eax
	movq	-8(%rbp), %rcx
	movq	24(%rcx), %rcx
	movq	-8(%rbp), %rdx
	movq	32(%rdx), %rdx
	movl	(%rdx), %esi
	movl	%esi, %edi
	addl	$1, %edi
	movl	%edi, (%rdx)
	movslq	%esi, %rdx
	movb	%al, (%rcx,%rdx)
	movq	-8(%rbp), %rax
	movl	$8, 12(%rax)
.LBB32_22:                              # %while.cond70
                                        #   Parent Loop BB32_3 Depth=1
                                        # =>  This Inner Loop Header: Depth=2
	movq	-8(%rbp), %rax
	cmpl	$7, 80(%rax)
	jle	.LBB32_24
# %bb.23:                               # %while.body74
                                        #   in Loop: Header=BB32_22 Depth=2
	movq	-8(%rbp), %rax
	movl	80(%rax), %ecx
	subl	$8, %ecx
	movl	%ecx, 80(%rax)
	movq	-8(%rbp), %rax
	movl	88(%rax), %ecx
	addl	$1, %ecx
	movl	%ecx, 88(%rax)
	jmp	.LBB32_22
.LBB32_24:                              # %while.end79
                                        #   in Loop: Header=BB32_3 Depth=1
	jmp	.LBB32_25
.LBB32_25:                              # %if.end80
                                        #   in Loop: Header=BB32_3 Depth=1
	jmp	.LBB32_26
.LBB32_26:                              # %while.cond81
                                        #   Parent Loop BB32_3 Depth=1
                                        # =>  This Loop Header: Depth=2
                                        #       Child Loop BB32_29 Depth 3
	movq	-8(%rbp), %rax
	cmpl	$0, 16(%rax)
	jbe	.LBB32_33
# %bb.27:                               # %while.body85
                                        #   in Loop: Header=BB32_26 Depth=2
	movq	-8(%rbp), %rax
	movl	16(%rax), %ecx
	addl	$-1, %ecx
	movl	%ecx, 16(%rax)
	movq	-8(%rbp), %rax
	movl	8(%rax), %ecx
	shll	$1, %ecx
	movl	%ecx, 8(%rax)
	movq	-8(%rbp), %rax
	movl	8(%rax), %ecx
	orl	$1, %ecx
	movl	%ecx, 8(%rax)
	movq	-8(%rbp), %rax
	movl	12(%rax), %ecx
	addl	$-1, %ecx
	movl	%ecx, 12(%rax)
	cmpl	$0, %ecx
	jne	.LBB32_32
# %bb.28:                               # %if.then96
                                        #   in Loop: Header=BB32_26 Depth=2
	movq	-8(%rbp), %rax
	movl	8(%rax), %eax
	movq	-8(%rbp), %rcx
	movq	24(%rcx), %rcx
	movq	-8(%rbp), %rdx
	movq	32(%rdx), %rdx
	movl	(%rdx), %esi
	movl	%esi, %edi
	addl	$1, %edi
	movl	%edi, (%rdx)
	movslq	%esi, %rdx
	movb	%al, (%rcx,%rdx)
	movq	-8(%rbp), %rax
	movl	$8, 12(%rax)
.LBB32_29:                              # %while.cond105
                                        #   Parent Loop BB32_3 Depth=1
                                        #     Parent Loop BB32_26 Depth=2
                                        # =>    This Inner Loop Header: Depth=3
	movq	-8(%rbp), %rax
	cmpl	$7, 80(%rax)
	jle	.LBB32_31
# %bb.30:                               # %while.body109
                                        #   in Loop: Header=BB32_29 Depth=3
	movq	-8(%rbp), %rax
	movl	80(%rax), %ecx
	subl	$8, %ecx
	movl	%ecx, 80(%rax)
	movq	-8(%rbp), %rax
	movl	88(%rax), %ecx
	addl	$1, %ecx
	movl	%ecx, 88(%rax)
	jmp	.LBB32_29
.LBB32_31:                              # %while.end114
                                        #   in Loop: Header=BB32_26 Depth=2
	jmp	.LBB32_32
.LBB32_32:                              # %if.end115
                                        #   in Loop: Header=BB32_26 Depth=2
	jmp	.LBB32_26
.LBB32_33:                              # %while.end116
                                        #   in Loop: Header=BB32_3 Depth=1
	jmp	.LBB32_35
.LBB32_34:                              # %if.else117
                                        #   in Loop: Header=BB32_3 Depth=1
	movq	-8(%rbp), %rax
	movl	16(%rax), %ecx
	addl	$1, %ecx
	movl	%ecx, 16(%rax)
	movl	-12(%rbp), %eax
	subl	$256, %eax              # imm = 0x100
	movl	%eax, -12(%rbp)
.LBB32_35:                              # %if.end121
                                        #   in Loop: Header=BB32_3 Depth=1
	jmp	.LBB32_36
.LBB32_36:                              # %if.end122
                                        #   in Loop: Header=BB32_3 Depth=1
	movl	-12(%rbp), %eax
	shll	$1, %eax
	movl	%eax, -12(%rbp)
	movl	-16(%rbp), %eax
	shll	$1, %eax
	movl	%eax, -16(%rbp)
	jmp	.LBB32_3
.LBB32_37:                              # %while.end125
	movl	-16(%rbp), %eax
	movq	-8(%rbp), %rcx
	movl	%eax, 4(%rcx)
	movl	-12(%rbp), %eax
	movq	-8(%rbp), %rcx
	movl	%eax, (%rcx)
	movq	-8(%rbp), %rax
	movl	80(%rax), %ecx
	addl	$1, %ecx
	movl	%ecx, 80(%rax)
	cmpl	$2076184327, -24(%rbp)  # imm = 0x7BC00F07
	jne	.LBB32_39
.LBB32_38:
	addq	$32, %rsp
	popq	%rbp
	.cfi_def_cfa %rsp, 8
	retq
.LBB32_39:                              # %func_exit
	.cfi_def_cfa %rbp, 16
	callq	detect_breach
	jmp	.LBB32_38
.Lfunc_end32:
	.size	biari_encode_symbol_final.24, .Lfunc_end32-biari_encode_symbol_final.24
	.cfi_endproc
                                        # -- End function
	.globl	biari_encode_symbol_eq_prob.25 # -- Begin function biari_encode_symbol_eq_prob.25
	.p2align	4, 0x90
	.type	biari_encode_symbol_eq_prob.25,@function
biari_encode_symbol_eq_prob.25:         # @biari_encode_symbol_eq_prob.25
	.cfi_startproc
# %bb.0:                                # %entry
	pushq	%rbp
	.cfi_def_cfa_offset 16
	.cfi_offset %rbp, -16
	movq	%rsp, %rbp
	.cfi_def_cfa_register %rbp
	subq	$32, %rsp
	movl	$1560203442, -20(%rbp)  # imm = 0x5CFED0B2
	movq	%rdi, -8(%rbp)
	movw	%si, -14(%rbp)
	movq	-8(%rbp), %rax
	movl	(%rax), %eax
	shll	$1, %eax
	movl	%eax, -12(%rbp)
	movswl	-14(%rbp), %eax
	cmpl	$0, %eax
	je	.LBB33_2
# %bb.1:                                # %if.then
	movq	-8(%rbp), %rax
	movl	4(%rax), %eax
	addl	-12(%rbp), %eax
	movl	%eax, -12(%rbp)
.LBB33_2:                               # %if.end
	cmpl	$1024, -12(%rbp)        # imm = 0x400
	jb	.LBB33_17
# %bb.3:                                # %if.then4
	movq	-8(%rbp), %rax
	movl	8(%rax), %ecx
	shll	$1, %ecx
	movl	%ecx, 8(%rax)
	movq	-8(%rbp), %rax
	movl	8(%rax), %ecx
	orl	$1, %ecx
	movl	%ecx, 8(%rax)
	movq	-8(%rbp), %rax
	movl	12(%rax), %ecx
	addl	$-1, %ecx
	movl	%ecx, 12(%rax)
	cmpl	$0, %ecx
	jne	.LBB33_8
# %bb.4:                                # %if.then9
	movq	-8(%rbp), %rax
	movl	8(%rax), %eax
	movq	-8(%rbp), %rcx
	movq	24(%rcx), %rcx
	movq	-8(%rbp), %rdx
	movq	32(%rdx), %rdx
	movl	(%rdx), %esi
	movl	%esi, %edi
	addl	$1, %edi
	movl	%edi, (%rdx)
	movslq	%esi, %rdx
	movb	%al, (%rcx,%rdx)
	movq	-8(%rbp), %rax
	movl	$8, 12(%rax)
.LBB33_5:                               # %while.cond
                                        # =>This Inner Loop Header: Depth=1
	movq	-8(%rbp), %rax
	cmpl	$7, 80(%rax)
	jle	.LBB33_7
# %bb.6:                                # %while.body
                                        #   in Loop: Header=BB33_5 Depth=1
	movq	-8(%rbp), %rax
	movl	80(%rax), %ecx
	subl	$8, %ecx
	movl	%ecx, 80(%rax)
	movq	-8(%rbp), %rax
	movl	88(%rax), %ecx
	addl	$1, %ecx
	movl	%ecx, 88(%rax)
	jmp	.LBB33_5
.LBB33_7:                               # %while.end
	jmp	.LBB33_8
.LBB33_8:                               # %if.end17
	jmp	.LBB33_9
.LBB33_9:                               # %while.cond18
                                        # =>This Loop Header: Depth=1
                                        #     Child Loop BB33_12 Depth 2
	movq	-8(%rbp), %rax
	cmpl	$0, 16(%rax)
	jbe	.LBB33_16
# %bb.10:                               # %while.body21
                                        #   in Loop: Header=BB33_9 Depth=1
	movq	-8(%rbp), %rax
	movl	16(%rax), %ecx
	addl	$-1, %ecx
	movl	%ecx, 16(%rax)
	movq	-8(%rbp), %rax
	movl	8(%rax), %ecx
	shll	$1, %ecx
	movl	%ecx, 8(%rax)
	movq	-8(%rbp), %rax
	movl	8(%rax), %ecx
	movl	%ecx, 8(%rax)
	movq	-8(%rbp), %rax
	movl	12(%rax), %ecx
	addl	$-1, %ecx
	movl	%ecx, 12(%rax)
	cmpl	$0, %ecx
	jne	.LBB33_15
# %bb.11:                               # %if.then31
                                        #   in Loop: Header=BB33_9 Depth=1
	movq	-8(%rbp), %rax
	movl	8(%rax), %eax
	movq	-8(%rbp), %rcx
	movq	24(%rcx), %rcx
	movq	-8(%rbp), %rdx
	movq	32(%rdx), %rdx
	movl	(%rdx), %esi
	movl	%esi, %edi
	addl	$1, %edi
	movl	%edi, (%rdx)
	movslq	%esi, %rdx
	movb	%al, (%rcx,%rdx)
	movq	-8(%rbp), %rax
	movl	$8, 12(%rax)
.LBB33_12:                              # %while.cond40
                                        #   Parent Loop BB33_9 Depth=1
                                        # =>  This Inner Loop Header: Depth=2
	movq	-8(%rbp), %rax
	cmpl	$7, 80(%rax)
	jle	.LBB33_14
# %bb.13:                               # %while.body44
                                        #   in Loop: Header=BB33_12 Depth=2
	movq	-8(%rbp), %rax
	movl	80(%rax), %ecx
	subl	$8, %ecx
	movl	%ecx, 80(%rax)
	movq	-8(%rbp), %rax
	movl	88(%rax), %ecx
	addl	$1, %ecx
	movl	%ecx, 88(%rax)
	jmp	.LBB33_12
.LBB33_14:                              # %while.end49
                                        #   in Loop: Header=BB33_9 Depth=1
	jmp	.LBB33_15
.LBB33_15:                              # %if.end50
                                        #   in Loop: Header=BB33_9 Depth=1
	jmp	.LBB33_9
.LBB33_16:                              # %while.end51
	movl	-12(%rbp), %eax
	subl	$1024, %eax             # imm = 0x400
	movl	%eax, -12(%rbp)
	jmp	.LBB33_34
.LBB33_17:                              # %if.else
	cmpl	$512, -12(%rbp)         # imm = 0x200
	jae	.LBB33_32
# %bb.18:                               # %if.then55
	movq	-8(%rbp), %rax
	movl	8(%rax), %ecx
	shll	$1, %ecx
	movl	%ecx, 8(%rax)
	movq	-8(%rbp), %rax
	movl	8(%rax), %ecx
	movl	%ecx, 8(%rax)
	movq	-8(%rbp), %rax
	movl	12(%rax), %ecx
	addl	$-1, %ecx
	movl	%ecx, 12(%rax)
	cmpl	$0, %ecx
	jne	.LBB33_23
# %bb.19:                               # %if.then63
	movq	-8(%rbp), %rax
	movl	8(%rax), %eax
	movq	-8(%rbp), %rcx
	movq	24(%rcx), %rcx
	movq	-8(%rbp), %rdx
	movq	32(%rdx), %rdx
	movl	(%rdx), %esi
	movl	%esi, %edi
	addl	$1, %edi
	movl	%edi, (%rdx)
	movslq	%esi, %rdx
	movb	%al, (%rcx,%rdx)
	movq	-8(%rbp), %rax
	movl	$8, 12(%rax)
.LBB33_20:                              # %while.cond72
                                        # =>This Inner Loop Header: Depth=1
	movq	-8(%rbp), %rax
	cmpl	$7, 80(%rax)
	jle	.LBB33_22
# %bb.21:                               # %while.body76
                                        #   in Loop: Header=BB33_20 Depth=1
	movq	-8(%rbp), %rax
	movl	80(%rax), %ecx
	subl	$8, %ecx
	movl	%ecx, 80(%rax)
	movq	-8(%rbp), %rax
	movl	88(%rax), %ecx
	addl	$1, %ecx
	movl	%ecx, 88(%rax)
	jmp	.LBB33_20
.LBB33_22:                              # %while.end81
	jmp	.LBB33_23
.LBB33_23:                              # %if.end82
	jmp	.LBB33_24
.LBB33_24:                              # %while.cond83
                                        # =>This Loop Header: Depth=1
                                        #     Child Loop BB33_27 Depth 2
	movq	-8(%rbp), %rax
	cmpl	$0, 16(%rax)
	jbe	.LBB33_31
# %bb.25:                               # %while.body87
                                        #   in Loop: Header=BB33_24 Depth=1
	movq	-8(%rbp), %rax
	movl	16(%rax), %ecx
	addl	$-1, %ecx
	movl	%ecx, 16(%rax)
	movq	-8(%rbp), %rax
	movl	8(%rax), %ecx
	shll	$1, %ecx
	movl	%ecx, 8(%rax)
	movq	-8(%rbp), %rax
	movl	8(%rax), %ecx
	orl	$1, %ecx
	movl	%ecx, 8(%rax)
	movq	-8(%rbp), %rax
	movl	12(%rax), %ecx
	addl	$-1, %ecx
	movl	%ecx, 12(%rax)
	cmpl	$0, %ecx
	jne	.LBB33_30
# %bb.26:                               # %if.then98
                                        #   in Loop: Header=BB33_24 Depth=1
	movq	-8(%rbp), %rax
	movl	8(%rax), %eax
	movq	-8(%rbp), %rcx
	movq	24(%rcx), %rcx
	movq	-8(%rbp), %rdx
	movq	32(%rdx), %rdx
	movl	(%rdx), %esi
	movl	%esi, %edi
	addl	$1, %edi
	movl	%edi, (%rdx)
	movslq	%esi, %rdx
	movb	%al, (%rcx,%rdx)
	movq	-8(%rbp), %rax
	movl	$8, 12(%rax)
.LBB33_27:                              # %while.cond107
                                        #   Parent Loop BB33_24 Depth=1
                                        # =>  This Inner Loop Header: Depth=2
	movq	-8(%rbp), %rax
	cmpl	$7, 80(%rax)
	jle	.LBB33_29
# %bb.28:                               # %while.body111
                                        #   in Loop: Header=BB33_27 Depth=2
	movq	-8(%rbp), %rax
	movl	80(%rax), %ecx
	subl	$8, %ecx
	movl	%ecx, 80(%rax)
	movq	-8(%rbp), %rax
	movl	88(%rax), %ecx
	addl	$1, %ecx
	movl	%ecx, 88(%rax)
	jmp	.LBB33_27
.LBB33_29:                              # %while.end116
                                        #   in Loop: Header=BB33_24 Depth=1
	jmp	.LBB33_30
.LBB33_30:                              # %if.end117
                                        #   in Loop: Header=BB33_24 Depth=1
	jmp	.LBB33_24
.LBB33_31:                              # %while.end118
	jmp	.LBB33_33
.LBB33_32:                              # %if.else119
	movq	-8(%rbp), %rax
	movl	16(%rax), %ecx
	addl	$1, %ecx
	movl	%ecx, 16(%rax)
	movl	-12(%rbp), %eax
	subl	$512, %eax              # imm = 0x200
	movl	%eax, -12(%rbp)
.LBB33_33:                              # %if.end123
	jmp	.LBB33_34
.LBB33_34:                              # %if.end124
	movl	-12(%rbp), %eax
	movq	-8(%rbp), %rcx
	movl	%eax, (%rcx)
	movq	-8(%rbp), %rax
	movl	80(%rax), %ecx
	addl	$1, %ecx
	movl	%ecx, 80(%rax)
	cmpl	$1560203442, -20(%rbp)  # imm = 0x5CFED0B2
	jne	.LBB33_36
.LBB33_35:
	addq	$32, %rsp
	popq	%rbp
	.cfi_def_cfa %rsp, 8
	retq
.LBB33_36:                              # %func_exit
	.cfi_def_cfa %rbp, 16
	callq	detect_breach
	jmp	.LBB33_35
.Lfunc_end33:
	.size	biari_encode_symbol_eq_prob.25, .Lfunc_end33-biari_encode_symbol_eq_prob.25
	.cfi_endproc
                                        # -- End function
	.globl	arienco_start_encoding.26 # -- Begin function arienco_start_encoding.26
	.p2align	4, 0x90
	.type	arienco_start_encoding.26,@function
arienco_start_encoding.26:              # @arienco_start_encoding.26
	.cfi_startproc
# %bb.0:                                # %entry
	pushq	%rbp
	.cfi_def_cfa_offset 16
	.cfi_offset %rbp, -16
	movq	%rsp, %rbp
	.cfi_def_cfa_register %rbp
	subq	$48, %rsp
	movl	$1081804749, -12(%rbp)  # imm = 0x407B07CD
	movq	%rdi, -8(%rbp)
	movq	%rsi, -32(%rbp)
	movq	%rdx, -24(%rbp)
	movl	%ecx, -36(%rbp)
	movq	-8(%rbp), %rax
	movl	$0, (%rax)
	movq	-8(%rbp), %rax
	movl	$0, 16(%rax)
	movq	-8(%rbp), %rax
	movl	$0, 8(%rax)
	movq	-8(%rbp), %rax
	movl	$9, 12(%rax)
	movq	-32(%rbp), %rax
	movq	-8(%rbp), %rcx
	movq	%rax, 24(%rcx)
	movq	-24(%rbp), %rax
	movq	-8(%rbp), %rcx
	movq	%rax, 32(%rcx)
	movq	-8(%rbp), %rax
	movl	$510, 4(%rax)           # imm = 0x1FE
	movq	-8(%rbp), %rax
	movl	$0, 80(%rax)
	movq	-24(%rbp), %rax
	movl	(%rax), %eax
	movq	-8(%rbp), %rcx
	movl	%eax, 96(%rcx)
	movq	-8(%rbp), %rax
	movl	$0, 88(%rax)
	cmpl	$1081804749, -12(%rbp)  # imm = 0x407B07CD
	jne	.LBB34_2
.LBB34_1:
	addq	$48, %rsp
	popq	%rbp
	.cfi_def_cfa %rsp, 8
	retq
.LBB34_2:                               # %func_exit
	.cfi_def_cfa %rbp, 16
	callq	detect_breach
	jmp	.LBB34_1
.Lfunc_end34:
	.size	arienco_start_encoding.26, .Lfunc_end34-arienco_start_encoding.26
	.cfi_endproc
                                        # -- End function
	.globl	biari_encode_symbol_final.27 # -- Begin function biari_encode_symbol_final.27
	.p2align	4, 0x90
	.type	biari_encode_symbol_final.27,@function
biari_encode_symbol_final.27:           # @biari_encode_symbol_final.27
	.cfi_startproc
# %bb.0:                                # %entry
	pushq	%rbp
	.cfi_def_cfa_offset 16
	.cfi_offset %rbp, -16
	movq	%rsp, %rbp
	.cfi_def_cfa_register %rbp
	subq	$32, %rsp
	movl	$261839351, -24(%rbp)   # imm = 0xF9B59F7
	movq	%rdi, -8(%rbp)
	movw	%si, -18(%rbp)
	movq	-8(%rbp), %rax
	movl	4(%rax), %eax
	subl	$2, %eax
	movl	%eax, -16(%rbp)
	movq	-8(%rbp), %rax
	movl	(%rax), %eax
	movl	%eax, -12(%rbp)
	cmpw	$0, -18(%rbp)
	je	.LBB35_2
# %bb.1:                                # %if.then
	movl	-16(%rbp), %eax
	addl	-12(%rbp), %eax
	movl	%eax, -12(%rbp)
	movl	$2, -16(%rbp)
.LBB35_2:                               # %if.end
	jmp	.LBB35_3
.LBB35_3:                               # %while.cond
                                        # =>This Loop Header: Depth=1
                                        #     Child Loop BB35_7 Depth 2
                                        #     Child Loop BB35_11 Depth 2
                                        #       Child Loop BB35_14 Depth 3
                                        #     Child Loop BB35_22 Depth 2
                                        #     Child Loop BB35_26 Depth 2
                                        #       Child Loop BB35_29 Depth 3
	cmpl	$256, -16(%rbp)         # imm = 0x100
	jae	.LBB35_37
# %bb.4:                                # %while.body
                                        #   in Loop: Header=BB35_3 Depth=1
	cmpl	$512, -12(%rbp)         # imm = 0x200
	jb	.LBB35_19
# %bb.5:                                # %if.then2
                                        #   in Loop: Header=BB35_3 Depth=1
	movq	-8(%rbp), %rax
	movl	8(%rax), %ecx
	shll	$1, %ecx
	movl	%ecx, 8(%rax)
	movq	-8(%rbp), %rax
	movl	8(%rax), %ecx
	orl	$1, %ecx
	movl	%ecx, 8(%rax)
	movq	-8(%rbp), %rax
	movl	12(%rax), %ecx
	addl	$-1, %ecx
	movl	%ecx, 12(%rax)
	cmpl	$0, %ecx
	jne	.LBB35_10
# %bb.6:                                # %if.then5
                                        #   in Loop: Header=BB35_3 Depth=1
	movq	-8(%rbp), %rax
	movl	8(%rax), %eax
	movq	-8(%rbp), %rcx
	movq	24(%rcx), %rcx
	movq	-8(%rbp), %rdx
	movq	32(%rdx), %rdx
	movl	(%rdx), %esi
	movl	%esi, %edi
	addl	$1, %edi
	movl	%edi, (%rdx)
	movslq	%esi, %rdx
	movb	%al, (%rcx,%rdx)
	movq	-8(%rbp), %rax
	movl	$8, 12(%rax)
.LBB35_7:                               # %while.cond8
                                        #   Parent Loop BB35_3 Depth=1
                                        # =>  This Inner Loop Header: Depth=2
	movq	-8(%rbp), %rax
	cmpl	$7, 80(%rax)
	jle	.LBB35_9
# %bb.8:                                # %while.body11
                                        #   in Loop: Header=BB35_7 Depth=2
	movq	-8(%rbp), %rax
	movl	80(%rax), %ecx
	subl	$8, %ecx
	movl	%ecx, 80(%rax)
	movq	-8(%rbp), %rax
	movl	88(%rax), %ecx
	addl	$1, %ecx
	movl	%ecx, 88(%rax)
	jmp	.LBB35_7
.LBB35_9:                               # %while.end
                                        #   in Loop: Header=BB35_3 Depth=1
	jmp	.LBB35_10
.LBB35_10:                              # %if.end15
                                        #   in Loop: Header=BB35_3 Depth=1
	jmp	.LBB35_11
.LBB35_11:                              # %while.cond16
                                        #   Parent Loop BB35_3 Depth=1
                                        # =>  This Loop Header: Depth=2
                                        #       Child Loop BB35_14 Depth 3
	movq	-8(%rbp), %rax
	cmpl	$0, 16(%rax)
	jbe	.LBB35_18
# %bb.12:                               # %while.body19
                                        #   in Loop: Header=BB35_11 Depth=2
	movq	-8(%rbp), %rax
	movl	16(%rax), %ecx
	addl	$-1, %ecx
	movl	%ecx, 16(%rax)
	movq	-8(%rbp), %rax
	movl	8(%rax), %ecx
	shll	$1, %ecx
	movl	%ecx, 8(%rax)
	movq	-8(%rbp), %rax
	movl	8(%rax), %ecx
	movl	%ecx, 8(%rax)
	movq	-8(%rbp), %rax
	movl	12(%rax), %ecx
	addl	$-1, %ecx
	movl	%ecx, 12(%rax)
	cmpl	$0, %ecx
	jne	.LBB35_17
# %bb.13:                               # %if.then29
                                        #   in Loop: Header=BB35_11 Depth=2
	movq	-8(%rbp), %rax
	movl	8(%rax), %eax
	movq	-8(%rbp), %rcx
	movq	24(%rcx), %rcx
	movq	-8(%rbp), %rdx
	movq	32(%rdx), %rdx
	movl	(%rdx), %esi
	movl	%esi, %edi
	addl	$1, %edi
	movl	%edi, (%rdx)
	movslq	%esi, %rdx
	movb	%al, (%rcx,%rdx)
	movq	-8(%rbp), %rax
	movl	$8, 12(%rax)
.LBB35_14:                              # %while.cond38
                                        #   Parent Loop BB35_3 Depth=1
                                        #     Parent Loop BB35_11 Depth=2
                                        # =>    This Inner Loop Header: Depth=3
	movq	-8(%rbp), %rax
	cmpl	$7, 80(%rax)
	jle	.LBB35_16
# %bb.15:                               # %while.body42
                                        #   in Loop: Header=BB35_14 Depth=3
	movq	-8(%rbp), %rax
	movl	80(%rax), %ecx
	subl	$8, %ecx
	movl	%ecx, 80(%rax)
	movq	-8(%rbp), %rax
	movl	88(%rax), %ecx
	addl	$1, %ecx
	movl	%ecx, 88(%rax)
	jmp	.LBB35_14
.LBB35_16:                              # %while.end47
                                        #   in Loop: Header=BB35_11 Depth=2
	jmp	.LBB35_17
.LBB35_17:                              # %if.end48
                                        #   in Loop: Header=BB35_11 Depth=2
	jmp	.LBB35_11
.LBB35_18:                              # %while.end49
                                        #   in Loop: Header=BB35_3 Depth=1
	movl	-12(%rbp), %eax
	subl	$512, %eax              # imm = 0x200
	movl	%eax, -12(%rbp)
	jmp	.LBB35_36
.LBB35_19:                              # %if.else
                                        #   in Loop: Header=BB35_3 Depth=1
	cmpl	$256, -12(%rbp)         # imm = 0x100
	jae	.LBB35_34
# %bb.20:                               # %if.then53
                                        #   in Loop: Header=BB35_3 Depth=1
	movq	-8(%rbp), %rax
	movl	8(%rax), %ecx
	shll	$1, %ecx
	movl	%ecx, 8(%rax)
	movq	-8(%rbp), %rax
	movl	8(%rax), %ecx
	movl	%ecx, 8(%rax)
	movq	-8(%rbp), %rax
	movl	12(%rax), %ecx
	addl	$-1, %ecx
	movl	%ecx, 12(%rax)
	cmpl	$0, %ecx
	jne	.LBB35_25
# %bb.21:                               # %if.then61
                                        #   in Loop: Header=BB35_3 Depth=1
	movq	-8(%rbp), %rax
	movl	8(%rax), %eax
	movq	-8(%rbp), %rcx
	movq	24(%rcx), %rcx
	movq	-8(%rbp), %rdx
	movq	32(%rdx), %rdx
	movl	(%rdx), %esi
	movl	%esi, %edi
	addl	$1, %edi
	movl	%edi, (%rdx)
	movslq	%esi, %rdx
	movb	%al, (%rcx,%rdx)
	movq	-8(%rbp), %rax
	movl	$8, 12(%rax)
.LBB35_22:                              # %while.cond70
                                        #   Parent Loop BB35_3 Depth=1
                                        # =>  This Inner Loop Header: Depth=2
	movq	-8(%rbp), %rax
	cmpl	$7, 80(%rax)
	jle	.LBB35_24
# %bb.23:                               # %while.body74
                                        #   in Loop: Header=BB35_22 Depth=2
	movq	-8(%rbp), %rax
	movl	80(%rax), %ecx
	subl	$8, %ecx
	movl	%ecx, 80(%rax)
	movq	-8(%rbp), %rax
	movl	88(%rax), %ecx
	addl	$1, %ecx
	movl	%ecx, 88(%rax)
	jmp	.LBB35_22
.LBB35_24:                              # %while.end79
                                        #   in Loop: Header=BB35_3 Depth=1
	jmp	.LBB35_25
.LBB35_25:                              # %if.end80
                                        #   in Loop: Header=BB35_3 Depth=1
	jmp	.LBB35_26
.LBB35_26:                              # %while.cond81
                                        #   Parent Loop BB35_3 Depth=1
                                        # =>  This Loop Header: Depth=2
                                        #       Child Loop BB35_29 Depth 3
	movq	-8(%rbp), %rax
	cmpl	$0, 16(%rax)
	jbe	.LBB35_33
# %bb.27:                               # %while.body85
                                        #   in Loop: Header=BB35_26 Depth=2
	movq	-8(%rbp), %rax
	movl	16(%rax), %ecx
	addl	$-1, %ecx
	movl	%ecx, 16(%rax)
	movq	-8(%rbp), %rax
	movl	8(%rax), %ecx
	shll	$1, %ecx
	movl	%ecx, 8(%rax)
	movq	-8(%rbp), %rax
	movl	8(%rax), %ecx
	orl	$1, %ecx
	movl	%ecx, 8(%rax)
	movq	-8(%rbp), %rax
	movl	12(%rax), %ecx
	addl	$-1, %ecx
	movl	%ecx, 12(%rax)
	cmpl	$0, %ecx
	jne	.LBB35_32
# %bb.28:                               # %if.then96
                                        #   in Loop: Header=BB35_26 Depth=2
	movq	-8(%rbp), %rax
	movl	8(%rax), %eax
	movq	-8(%rbp), %rcx
	movq	24(%rcx), %rcx
	movq	-8(%rbp), %rdx
	movq	32(%rdx), %rdx
	movl	(%rdx), %esi
	movl	%esi, %edi
	addl	$1, %edi
	movl	%edi, (%rdx)
	movslq	%esi, %rdx
	movb	%al, (%rcx,%rdx)
	movq	-8(%rbp), %rax
	movl	$8, 12(%rax)
.LBB35_29:                              # %while.cond105
                                        #   Parent Loop BB35_3 Depth=1
                                        #     Parent Loop BB35_26 Depth=2
                                        # =>    This Inner Loop Header: Depth=3
	movq	-8(%rbp), %rax
	cmpl	$7, 80(%rax)
	jle	.LBB35_31
# %bb.30:                               # %while.body109
                                        #   in Loop: Header=BB35_29 Depth=3
	movq	-8(%rbp), %rax
	movl	80(%rax), %ecx
	subl	$8, %ecx
	movl	%ecx, 80(%rax)
	movq	-8(%rbp), %rax
	movl	88(%rax), %ecx
	addl	$1, %ecx
	movl	%ecx, 88(%rax)
	jmp	.LBB35_29
.LBB35_31:                              # %while.end114
                                        #   in Loop: Header=BB35_26 Depth=2
	jmp	.LBB35_32
.LBB35_32:                              # %if.end115
                                        #   in Loop: Header=BB35_26 Depth=2
	jmp	.LBB35_26
.LBB35_33:                              # %while.end116
                                        #   in Loop: Header=BB35_3 Depth=1
	jmp	.LBB35_35
.LBB35_34:                              # %if.else117
                                        #   in Loop: Header=BB35_3 Depth=1
	movq	-8(%rbp), %rax
	movl	16(%rax), %ecx
	addl	$1, %ecx
	movl	%ecx, 16(%rax)
	movl	-12(%rbp), %eax
	subl	$256, %eax              # imm = 0x100
	movl	%eax, -12(%rbp)
.LBB35_35:                              # %if.end121
                                        #   in Loop: Header=BB35_3 Depth=1
	jmp	.LBB35_36
.LBB35_36:                              # %if.end122
                                        #   in Loop: Header=BB35_3 Depth=1
	movl	-12(%rbp), %eax
	shll	$1, %eax
	movl	%eax, -12(%rbp)
	movl	-16(%rbp), %eax
	shll	$1, %eax
	movl	%eax, -16(%rbp)
	jmp	.LBB35_3
.LBB35_37:                              # %while.end125
	movl	-16(%rbp), %eax
	movq	-8(%rbp), %rcx
	movl	%eax, 4(%rcx)
	movl	-12(%rbp), %eax
	movq	-8(%rbp), %rcx
	movl	%eax, (%rcx)
	movq	-8(%rbp), %rax
	movl	80(%rax), %ecx
	addl	$1, %ecx
	movl	%ecx, 80(%rax)
	cmpl	$261839351, -24(%rbp)   # imm = 0xF9B59F7
	jne	.LBB35_39
.LBB35_38:
	addq	$32, %rsp
	popq	%rbp
	.cfi_def_cfa %rsp, 8
	retq
.LBB35_39:                              # %func_exit
	.cfi_def_cfa %rbp, 16
	callq	detect_breach
	jmp	.LBB35_38
.Lfunc_end35:
	.size	biari_encode_symbol_final.27, .Lfunc_end35-biari_encode_symbol_final.27
	.cfi_endproc
                                        # -- End function
	.globl	biari_encode_symbol_eq_prob.28 # -- Begin function biari_encode_symbol_eq_prob.28
	.p2align	4, 0x90
	.type	biari_encode_symbol_eq_prob.28,@function
biari_encode_symbol_eq_prob.28:         # @biari_encode_symbol_eq_prob.28
	.cfi_startproc
# %bb.0:                                # %entry
	pushq	%rbp
	.cfi_def_cfa_offset 16
	.cfi_offset %rbp, -16
	movq	%rsp, %rbp
	.cfi_def_cfa_register %rbp
	subq	$32, %rsp
	movl	$160007009, -20(%rbp)   # imm = 0x9898361
	movq	%rdi, -8(%rbp)
	movw	%si, -14(%rbp)
	movq	-8(%rbp), %rax
	movl	(%rax), %eax
	shll	$1, %eax
	movl	%eax, -12(%rbp)
	movswl	-14(%rbp), %eax
	cmpl	$0, %eax
	je	.LBB36_2
# %bb.1:                                # %if.then
	movq	-8(%rbp), %rax
	movl	4(%rax), %eax
	addl	-12(%rbp), %eax
	movl	%eax, -12(%rbp)
.LBB36_2:                               # %if.end
	cmpl	$1024, -12(%rbp)        # imm = 0x400
	jb	.LBB36_17
# %bb.3:                                # %if.then4
	movq	-8(%rbp), %rax
	movl	8(%rax), %ecx
	shll	$1, %ecx
	movl	%ecx, 8(%rax)
	movq	-8(%rbp), %rax
	movl	8(%rax), %ecx
	orl	$1, %ecx
	movl	%ecx, 8(%rax)
	movq	-8(%rbp), %rax
	movl	12(%rax), %ecx
	addl	$-1, %ecx
	movl	%ecx, 12(%rax)
	cmpl	$0, %ecx
	jne	.LBB36_8
# %bb.4:                                # %if.then9
	movq	-8(%rbp), %rax
	movl	8(%rax), %eax
	movq	-8(%rbp), %rcx
	movq	24(%rcx), %rcx
	movq	-8(%rbp), %rdx
	movq	32(%rdx), %rdx
	movl	(%rdx), %esi
	movl	%esi, %edi
	addl	$1, %edi
	movl	%edi, (%rdx)
	movslq	%esi, %rdx
	movb	%al, (%rcx,%rdx)
	movq	-8(%rbp), %rax
	movl	$8, 12(%rax)
.LBB36_5:                               # %while.cond
                                        # =>This Inner Loop Header: Depth=1
	movq	-8(%rbp), %rax
	cmpl	$7, 80(%rax)
	jle	.LBB36_7
# %bb.6:                                # %while.body
                                        #   in Loop: Header=BB36_5 Depth=1
	movq	-8(%rbp), %rax
	movl	80(%rax), %ecx
	subl	$8, %ecx
	movl	%ecx, 80(%rax)
	movq	-8(%rbp), %rax
	movl	88(%rax), %ecx
	addl	$1, %ecx
	movl	%ecx, 88(%rax)
	jmp	.LBB36_5
.LBB36_7:                               # %while.end
	jmp	.LBB36_8
.LBB36_8:                               # %if.end17
	jmp	.LBB36_9
.LBB36_9:                               # %while.cond18
                                        # =>This Loop Header: Depth=1
                                        #     Child Loop BB36_12 Depth 2
	movq	-8(%rbp), %rax
	cmpl	$0, 16(%rax)
	jbe	.LBB36_16
# %bb.10:                               # %while.body21
                                        #   in Loop: Header=BB36_9 Depth=1
	movq	-8(%rbp), %rax
	movl	16(%rax), %ecx
	addl	$-1, %ecx
	movl	%ecx, 16(%rax)
	movq	-8(%rbp), %rax
	movl	8(%rax), %ecx
	shll	$1, %ecx
	movl	%ecx, 8(%rax)
	movq	-8(%rbp), %rax
	movl	8(%rax), %ecx
	movl	%ecx, 8(%rax)
	movq	-8(%rbp), %rax
	movl	12(%rax), %ecx
	addl	$-1, %ecx
	movl	%ecx, 12(%rax)
	cmpl	$0, %ecx
	jne	.LBB36_15
# %bb.11:                               # %if.then31
                                        #   in Loop: Header=BB36_9 Depth=1
	movq	-8(%rbp), %rax
	movl	8(%rax), %eax
	movq	-8(%rbp), %rcx
	movq	24(%rcx), %rcx
	movq	-8(%rbp), %rdx
	movq	32(%rdx), %rdx
	movl	(%rdx), %esi
	movl	%esi, %edi
	addl	$1, %edi
	movl	%edi, (%rdx)
	movslq	%esi, %rdx
	movb	%al, (%rcx,%rdx)
	movq	-8(%rbp), %rax
	movl	$8, 12(%rax)
.LBB36_12:                              # %while.cond40
                                        #   Parent Loop BB36_9 Depth=1
                                        # =>  This Inner Loop Header: Depth=2
	movq	-8(%rbp), %rax
	cmpl	$7, 80(%rax)
	jle	.LBB36_14
# %bb.13:                               # %while.body44
                                        #   in Loop: Header=BB36_12 Depth=2
	movq	-8(%rbp), %rax
	movl	80(%rax), %ecx
	subl	$8, %ecx
	movl	%ecx, 80(%rax)
	movq	-8(%rbp), %rax
	movl	88(%rax), %ecx
	addl	$1, %ecx
	movl	%ecx, 88(%rax)
	jmp	.LBB36_12
.LBB36_14:                              # %while.end49
                                        #   in Loop: Header=BB36_9 Depth=1
	jmp	.LBB36_15
.LBB36_15:                              # %if.end50
                                        #   in Loop: Header=BB36_9 Depth=1
	jmp	.LBB36_9
.LBB36_16:                              # %while.end51
	movl	-12(%rbp), %eax
	subl	$1024, %eax             # imm = 0x400
	movl	%eax, -12(%rbp)
	jmp	.LBB36_34
.LBB36_17:                              # %if.else
	cmpl	$512, -12(%rbp)         # imm = 0x200
	jae	.LBB36_32
# %bb.18:                               # %if.then55
	movq	-8(%rbp), %rax
	movl	8(%rax), %ecx
	shll	$1, %ecx
	movl	%ecx, 8(%rax)
	movq	-8(%rbp), %rax
	movl	8(%rax), %ecx
	movl	%ecx, 8(%rax)
	movq	-8(%rbp), %rax
	movl	12(%rax), %ecx
	addl	$-1, %ecx
	movl	%ecx, 12(%rax)
	cmpl	$0, %ecx
	jne	.LBB36_23
# %bb.19:                               # %if.then63
	movq	-8(%rbp), %rax
	movl	8(%rax), %eax
	movq	-8(%rbp), %rcx
	movq	24(%rcx), %rcx
	movq	-8(%rbp), %rdx
	movq	32(%rdx), %rdx
	movl	(%rdx), %esi
	movl	%esi, %edi
	addl	$1, %edi
	movl	%edi, (%rdx)
	movslq	%esi, %rdx
	movb	%al, (%rcx,%rdx)
	movq	-8(%rbp), %rax
	movl	$8, 12(%rax)
.LBB36_20:                              # %while.cond72
                                        # =>This Inner Loop Header: Depth=1
	movq	-8(%rbp), %rax
	cmpl	$7, 80(%rax)
	jle	.LBB36_22
# %bb.21:                               # %while.body76
                                        #   in Loop: Header=BB36_20 Depth=1
	movq	-8(%rbp), %rax
	movl	80(%rax), %ecx
	subl	$8, %ecx
	movl	%ecx, 80(%rax)
	movq	-8(%rbp), %rax
	movl	88(%rax), %ecx
	addl	$1, %ecx
	movl	%ecx, 88(%rax)
	jmp	.LBB36_20
.LBB36_22:                              # %while.end81
	jmp	.LBB36_23
.LBB36_23:                              # %if.end82
	jmp	.LBB36_24
.LBB36_24:                              # %while.cond83
                                        # =>This Loop Header: Depth=1
                                        #     Child Loop BB36_27 Depth 2
	movq	-8(%rbp), %rax
	cmpl	$0, 16(%rax)
	jbe	.LBB36_31
# %bb.25:                               # %while.body87
                                        #   in Loop: Header=BB36_24 Depth=1
	movq	-8(%rbp), %rax
	movl	16(%rax), %ecx
	addl	$-1, %ecx
	movl	%ecx, 16(%rax)
	movq	-8(%rbp), %rax
	movl	8(%rax), %ecx
	shll	$1, %ecx
	movl	%ecx, 8(%rax)
	movq	-8(%rbp), %rax
	movl	8(%rax), %ecx
	orl	$1, %ecx
	movl	%ecx, 8(%rax)
	movq	-8(%rbp), %rax
	movl	12(%rax), %ecx
	addl	$-1, %ecx
	movl	%ecx, 12(%rax)
	cmpl	$0, %ecx
	jne	.LBB36_30
# %bb.26:                               # %if.then98
                                        #   in Loop: Header=BB36_24 Depth=1
	movq	-8(%rbp), %rax
	movl	8(%rax), %eax
	movq	-8(%rbp), %rcx
	movq	24(%rcx), %rcx
	movq	-8(%rbp), %rdx
	movq	32(%rdx), %rdx
	movl	(%rdx), %esi
	movl	%esi, %edi
	addl	$1, %edi
	movl	%edi, (%rdx)
	movslq	%esi, %rdx
	movb	%al, (%rcx,%rdx)
	movq	-8(%rbp), %rax
	movl	$8, 12(%rax)
.LBB36_27:                              # %while.cond107
                                        #   Parent Loop BB36_24 Depth=1
                                        # =>  This Inner Loop Header: Depth=2
	movq	-8(%rbp), %rax
	cmpl	$7, 80(%rax)
	jle	.LBB36_29
# %bb.28:                               # %while.body111
                                        #   in Loop: Header=BB36_27 Depth=2
	movq	-8(%rbp), %rax
	movl	80(%rax), %ecx
	subl	$8, %ecx
	movl	%ecx, 80(%rax)
	movq	-8(%rbp), %rax
	movl	88(%rax), %ecx
	addl	$1, %ecx
	movl	%ecx, 88(%rax)
	jmp	.LBB36_27
.LBB36_29:                              # %while.end116
                                        #   in Loop: Header=BB36_24 Depth=1
	jmp	.LBB36_30
.LBB36_30:                              # %if.end117
                                        #   in Loop: Header=BB36_24 Depth=1
	jmp	.LBB36_24
.LBB36_31:                              # %while.end118
	jmp	.LBB36_33
.LBB36_32:                              # %if.else119
	movq	-8(%rbp), %rax
	movl	16(%rax), %ecx
	addl	$1, %ecx
	movl	%ecx, 16(%rax)
	movl	-12(%rbp), %eax
	subl	$512, %eax              # imm = 0x200
	movl	%eax, -12(%rbp)
.LBB36_33:                              # %if.end123
	jmp	.LBB36_34
.LBB36_34:                              # %if.end124
	movl	-12(%rbp), %eax
	movq	-8(%rbp), %rcx
	movl	%eax, (%rcx)
	movq	-8(%rbp), %rax
	movl	80(%rax), %ecx
	addl	$1, %ecx
	movl	%ecx, 80(%rax)
	cmpl	$160007009, -20(%rbp)   # imm = 0x9898361
	jne	.LBB36_36
.LBB36_35:
	addq	$32, %rsp
	popq	%rbp
	.cfi_def_cfa %rsp, 8
	retq
.LBB36_36:                              # %func_exit
	.cfi_def_cfa %rbp, 16
	callq	detect_breach
	jmp	.LBB36_35
.Lfunc_end36:
	.size	biari_encode_symbol_eq_prob.28, .Lfunc_end36-biari_encode_symbol_eq_prob.28
	.cfi_endproc
                                        # -- End function
	.globl	biari_encode_symbol.29  # -- Begin function biari_encode_symbol.29
	.p2align	4, 0x90
	.type	biari_encode_symbol.29,@function
biari_encode_symbol.29:                 # @biari_encode_symbol.29
	.cfi_startproc
# %bb.0:                                # %entry
	pushq	%rbp
	.cfi_def_cfa_offset 16
	.cfi_offset %rbp, -16
	movq	%rsp, %rbp
	.cfi_def_cfa_register %rbp
	subq	$48, %rsp
	movl	$270194793, -40(%rbp)   # imm = 0x101AD869
	movq	%rdi, -8(%rbp)
	movw	%si, -18(%rbp)
	movq	%rdx, -32(%rbp)
	movq	-8(%rbp), %rax
	movl	4(%rax), %eax
	movl	%eax, -16(%rbp)
	movq	-8(%rbp), %rax
	movl	(%rax), %eax
	movl	%eax, -12(%rbp)
	movq	-32(%rbp), %rax
	movzwl	(%rax), %eax
	shlq	$2, %rax
	movabsq	$rLPS_table_64x4, %rcx
	addq	%rax, %rcx
	movl	-16(%rbp), %eax
	shrl	$6, %eax
	andl	$3, %eax
	movl	%eax, %eax
	movzbl	(%rcx,%rax), %eax
	movl	%eax, -36(%rbp)
	cmpl	$0, cabac_encoding
	je	.LBB37_2
# %bb.1:                                # %if.then
	movq	-32(%rbp), %rax
	movq	8(%rax), %rcx
	addq	$1, %rcx
	movq	%rcx, 8(%rax)
.LBB37_2:                               # %if.end
	movswl	-18(%rbp), %eax
	cmpl	$0, %eax
	je	.LBB37_4
# %bb.3:                                # %if.then5
	movw	$1, -18(%rbp)
.LBB37_4:                               # %if.end6
	movl	-36(%rbp), %eax
	movl	-16(%rbp), %ecx
	subl	%eax, %ecx
	movl	%ecx, -16(%rbp)
	movswl	-18(%rbp), %eax
	movq	-32(%rbp), %rcx
	movzbl	2(%rcx), %ecx
	cmpl	%ecx, %eax
	je	.LBB37_8
# %bb.5:                                # %if.then11
	movl	-16(%rbp), %eax
	addl	-12(%rbp), %eax
	movl	%eax, -12(%rbp)
	movl	-36(%rbp), %eax
	movl	%eax, -16(%rbp)
	movq	-32(%rbp), %rax
	cmpw	$0, (%rax)
	jne	.LBB37_7
# %bb.6:                                # %if.then14
	movq	-32(%rbp), %rax
	movzbl	2(%rax), %eax
	xorl	$1, %eax
	movq	-32(%rbp), %rcx
	movb	%al, 2(%rcx)
.LBB37_7:                               # %if.end19
	movq	-32(%rbp), %rax
	movzwl	(%rax), %eax
	movw	AC_next_state_LPS_64(,%rax,2), %ax
	movq	-32(%rbp), %rcx
	movw	%ax, (%rcx)
	jmp	.LBB37_9
.LBB37_8:                               # %if.else
	movq	-32(%rbp), %rax
	movzwl	(%rax), %eax
	movw	AC_next_state_MPS_64(,%rax,2), %ax
	movq	-32(%rbp), %rcx
	movw	%ax, (%rcx)
.LBB37_9:                               # %if.end28
	jmp	.LBB37_10
.LBB37_10:                              # %while.cond
                                        # =>This Loop Header: Depth=1
                                        #     Child Loop BB37_14 Depth 2
                                        #     Child Loop BB37_18 Depth 2
                                        #       Child Loop BB37_21 Depth 3
                                        #     Child Loop BB37_29 Depth 2
                                        #     Child Loop BB37_33 Depth 2
                                        #       Child Loop BB37_36 Depth 3
	cmpl	$256, -16(%rbp)         # imm = 0x100
	jae	.LBB37_44
# %bb.11:                               # %while.body
                                        #   in Loop: Header=BB37_10 Depth=1
	cmpl	$512, -12(%rbp)         # imm = 0x200
	jb	.LBB37_26
# %bb.12:                               # %if.then33
                                        #   in Loop: Header=BB37_10 Depth=1
	movq	-8(%rbp), %rax
	movl	8(%rax), %ecx
	shll	$1, %ecx
	movl	%ecx, 8(%rax)
	movq	-8(%rbp), %rax
	movl	8(%rax), %ecx
	orl	$1, %ecx
	movl	%ecx, 8(%rax)
	movq	-8(%rbp), %rax
	movl	12(%rax), %ecx
	addl	$-1, %ecx
	movl	%ecx, 12(%rax)
	cmpl	$0, %ecx
	jne	.LBB37_17
# %bb.13:                               # %if.then37
                                        #   in Loop: Header=BB37_10 Depth=1
	movq	-8(%rbp), %rax
	movl	8(%rax), %eax
	movq	-8(%rbp), %rcx
	movq	24(%rcx), %rcx
	movq	-8(%rbp), %rdx
	movq	32(%rdx), %rdx
	movl	(%rdx), %esi
	movl	%esi, %edi
	addl	$1, %edi
	movl	%edi, (%rdx)
	movslq	%esi, %rdx
	movb	%al, (%rcx,%rdx)
	movq	-8(%rbp), %rax
	movl	$8, 12(%rax)
.LBB37_14:                              # %while.cond44
                                        #   Parent Loop BB37_10 Depth=1
                                        # =>  This Inner Loop Header: Depth=2
	movq	-8(%rbp), %rax
	cmpl	$7, 80(%rax)
	jle	.LBB37_16
# %bb.15:                               # %while.body47
                                        #   in Loop: Header=BB37_14 Depth=2
	movq	-8(%rbp), %rax
	movl	80(%rax), %ecx
	subl	$8, %ecx
	movl	%ecx, 80(%rax)
	movq	-8(%rbp), %rax
	movl	88(%rax), %ecx
	addl	$1, %ecx
	movl	%ecx, 88(%rax)
	jmp	.LBB37_14
.LBB37_16:                              # %while.end
                                        #   in Loop: Header=BB37_10 Depth=1
	jmp	.LBB37_17
.LBB37_17:                              # %if.end51
                                        #   in Loop: Header=BB37_10 Depth=1
	jmp	.LBB37_18
.LBB37_18:                              # %while.cond52
                                        #   Parent Loop BB37_10 Depth=1
                                        # =>  This Loop Header: Depth=2
                                        #       Child Loop BB37_21 Depth 3
	movq	-8(%rbp), %rax
	cmpl	$0, 16(%rax)
	jbe	.LBB37_25
# %bb.19:                               # %while.body55
                                        #   in Loop: Header=BB37_18 Depth=2
	movq	-8(%rbp), %rax
	movl	16(%rax), %ecx
	addl	$-1, %ecx
	movl	%ecx, 16(%rax)
	movq	-8(%rbp), %rax
	movl	8(%rax), %ecx
	shll	$1, %ecx
	movl	%ecx, 8(%rax)
	movq	-8(%rbp), %rax
