	.text
	.file	"biariencode.c"
	.globl	arienco_create_encoding_environment # -- Begin function arienco_create_encoding_environment
	.p2align	4, 0x90
	.type	arienco_create_encoding_environment,@function
arienco_create_encoding_environment:    # @arienco_create_encoding_environment
	.cfi_startproc
# %bb.0:                                # %entry
	pushq	%rbp
	.cfi_def_cfa_offset 16
	.cfi_offset %rbp, -16
	movq	%rsp, %rbp
	.cfi_def_cfa_register %rbp
	subq	$16, %rsp
	movl	$1, %edi
	movl	$104, %esi
	callq	calloc
	movq	%rax, -8(%rbp)
	cmpq	$0, %rax
	jne	.LBB0_2
# %bb.1:                                # %if.then
	movabsq	$.L.str, %rdi
	callq	no_mem_exit
.LBB0_2:                                # %if.end
	movq	-8(%rbp), %rax
	addq	$16, %rsp
	popq	%rbp
	.cfi_def_cfa %rsp, 8
	retq
.Lfunc_end0:
	.size	arienco_create_encoding_environment, .Lfunc_end0-arienco_create_encoding_environment
	.cfi_endproc
                                        # -- End function
	.globl	arienco_delete_encoding_environment # -- Begin function arienco_delete_encoding_environment
	.p2align	4, 0x90
	.type	arienco_delete_encoding_environment,@function
arienco_delete_encoding_environment:    # @arienco_delete_encoding_environment
	.cfi_startproc
# %bb.0:                                # %entry
	pushq	%rbp
	.cfi_def_cfa_offset 16
	.cfi_offset %rbp, -16
	movq	%rsp, %rbp
	.cfi_def_cfa_register %rbp
	subq	$16, %rsp
	movq	%rdi, -8(%rbp)
	cmpq	$0, -8(%rbp)
	jne	.LBB1_2
# %bb.1:                                # %if.then
	movabsq	$errortext, %rdi
	movl	$300, %esi              # imm = 0x12C
	movabsq	$.L.str.1, %rdx
	movb	$0, %al
	callq	snprintf
	movabsq	$errortext, %rdi
	movl	$200, %esi
	callq	error
	jmp	.LBB1_3
.LBB1_2:                                # %if.else
	movq	-8(%rbp), %rdi
	callq	free
.LBB1_3:                                # %if.end
	addq	$16, %rsp
	popq	%rbp
	.cfi_def_cfa %rsp, 8
	retq
.Lfunc_end1:
	.size	arienco_delete_encoding_environment, .Lfunc_end1-arienco_delete_encoding_environment
	.cfi_endproc
                                        # -- End function
	.globl	arienco_start_encoding  # -- Begin function arienco_start_encoding
	.p2align	4, 0x90
	.type	arienco_start_encoding,@function
arienco_start_encoding:                 # @arienco_start_encoding
	.cfi_startproc
# %bb.0:                                # %rand_bb
	pushq	%rbp
	.cfi_def_cfa_offset 16
	.cfi_offset %rbp, -16
	movq	%rsp, %rbp
	.cfi_def_cfa_register %rbp
	pushq	%r15
	pushq	%r14
	pushq	%r12
	pushq	%rbx
	.cfi_offset %rbx, -48
	.cfi_offset %r12, -40
	.cfi_offset %r14, -32
	.cfi_offset %r15, -24
	movl	%ecx, %r14d
	movq	%rdx, %r15
	movq	%rsi, %r12
	movq	%rdi, %rbx
	callq	get_rand
	cmpl	$0, %eax
	jne	.LBB2_9
# %bb.1:                                # %func_arienco_start_encoding.7
	movq	%rbx, %rdi
	movq	%r12, %rsi
	movq	%r15, %rdx
	movl	%r14d, %ecx
	callq	arienco_start_encoding.7
	popq	%rbx
	popq	%r12
	popq	%r14
	popq	%r15
	popq	%rbp
	.cfi_def_cfa %rsp, 8
	retq
.LBB2_2:                                # %func_arienco_start_encoding.10
	.cfi_def_cfa %rbp, 16
	movq	%rbx, %rdi
	movq	%r12, %rsi
	movq	%r15, %rdx
	movl	%r14d, %ecx
	callq	arienco_start_encoding.10
	popq	%rbx
	popq	%r12
	popq	%r14
	popq	%r15
	popq	%rbp
	.cfi_def_cfa %rsp, 8
	retq
.LBB2_3:                                # %func_arienco_start_encoding.12
	.cfi_def_cfa %rbp, 16
	movq	%rbx, %rdi
	movq	%r12, %rsi
	movq	%r15, %rdx
	movl	%r14d, %ecx
	callq	arienco_start_encoding.12
	popq	%rbx
	popq	%r12
	popq	%r14
	popq	%r15
	popq	%rbp
	.cfi_def_cfa %rsp, 8
	retq
.LBB2_4:                                # %func_arienco_start_encoding.14
	.cfi_def_cfa %rbp, 16
	movq	%rbx, %rdi
	movq	%r12, %rsi
	movq	%r15, %rdx
	movl	%r14d, %ecx
	callq	arienco_start_encoding.14
	popq	%rbx
	popq	%r12
	popq	%r14
	popq	%r15
	popq	%rbp
	.cfi_def_cfa %rsp, 8
	retq
.LBB2_5:                                # %func_arienco_start_encoding.22
	.cfi_def_cfa %rbp, 16
	movq	%rbx, %rdi
	movq	%r12, %rsi
	movq	%r15, %rdx
	movl	%r14d, %ecx
	callq	arienco_start_encoding.22
	popq	%rbx
	popq	%r12
	popq	%r14
	popq	%r15
	popq	%rbp
	.cfi_def_cfa %rsp, 8
	retq
.LBB2_6:                                # %func_arienco_start_encoding.23
	.cfi_def_cfa %rbp, 16
	movq	%rbx, %rdi
	movq	%r12, %rsi
	movq	%r15, %rdx
	movl	%r14d, %ecx
	callq	arienco_start_encoding.23
	popq	%rbx
	popq	%r12
	popq	%r14
	popq	%r15
	popq	%rbp
	.cfi_def_cfa %rsp, 8
	retq
.LBB2_7:                                # %func_arienco_start_encoding.27
	.cfi_def_cfa %rbp, 16
	movq	%rbx, %rdi
	movq	%r12, %rsi
	movq	%r15, %rdx
	movl	%r14d, %ecx
	callq	arienco_start_encoding.27
	popq	%rbx
	popq	%r12
	popq	%r14
	popq	%r15
	popq	%rbp
	.cfi_def_cfa %rsp, 8
	retq
.LBB2_8:                                # %func_arienco_start_encoding.28
	.cfi_def_cfa %rbp, 16
	movq	%rbx, %rdi
	movq	%r12, %rsi
	movq	%r15, %rdx
	movl	%r14d, %ecx
	callq	arienco_start_encoding.28
	popq	%rbx
	popq	%r12
	popq	%r14
	popq	%r15
	popq	%rbp
	.cfi_def_cfa %rsp, 8
	retq
.LBB2_9:                                # %ctrl0
	.cfi_def_cfa %rbp, 16
	cmpl	$1, %eax
	je	.LBB2_2
# %bb.10:                               # %ctrl1
	cmpl	$2, %eax
	je	.LBB2_3
# %bb.11:                               # %ctrl2
	cmpl	$3, %eax
	je	.LBB2_4
# %bb.12:                               # %ctrl3
	cmpl	$4, %eax
	je	.LBB2_5
# %bb.13:                               # %ctrl4
	cmpl	$5, %eax
	je	.LBB2_6
# %bb.14:                               # %ctrl5
	cmpl	$6, %eax
	je	.LBB2_7
	jmp	.LBB2_8
.Lfunc_end2:
	.size	arienco_start_encoding, .Lfunc_end2-arienco_start_encoding
	.cfi_endproc
                                        # -- End function
	.globl	arienco_bits_written    # -- Begin function arienco_bits_written
	.p2align	4, 0x90
	.type	arienco_bits_written,@function
arienco_bits_written:                   # @arienco_bits_written
	.cfi_startproc
# %bb.0:                                # %entry
	pushq	%rbp
	.cfi_def_cfa_offset 16
	.cfi_offset %rbp, -16
	movq	%rsp, %rbp
	.cfi_def_cfa_register %rbp
	movq	%rdi, -8(%rbp)
	movq	-8(%rbp), %rax
	movq	32(%rax), %rax
	movl	(%rax), %eax
	shll	$3, %eax
	movq	-8(%rbp), %rcx
	addl	16(%rcx), %eax
	addl	$8, %eax
	movq	-8(%rbp), %rcx
	subl	12(%rcx), %eax
	popq	%rbp
	.cfi_def_cfa %rsp, 8
	retq
.Lfunc_end3:
	.size	arienco_bits_written, .Lfunc_end3-arienco_bits_written
	.cfi_endproc
                                        # -- End function
	.globl	arienco_done_encoding   # -- Begin function arienco_done_encoding
	.p2align	4, 0x90
	.type	arienco_done_encoding,@function
arienco_done_encoding:                  # @arienco_done_encoding
	.cfi_startproc
# %bb.0:                                # %entry
	pushq	%rbp
	.cfi_def_cfa_offset 16
	.cfi_offset %rbp, -16
	movq	%rsp, %rbp
	.cfi_def_cfa_register %rbp
	movq	%rdi, -8(%rbp)
	movq	-8(%rbp), %rax
	movl	8(%rax), %ecx
	shll	$1, %ecx
	movl	%ecx, 8(%rax)
	movq	-8(%rbp), %rax
	movl	(%rax), %eax
	shrl	$9, %eax
	andl	$1, %eax
	movq	-8(%rbp), %rcx
	orl	8(%rcx), %eax
	movl	%eax, 8(%rcx)
	movq	-8(%rbp), %rax
	movl	12(%rax), %ecx
	addl	$-1, %ecx
	movl	%ecx, 12(%rax)
	cmpl	$0, %ecx
	jne	.LBB4_5
# %bb.1:                                # %if.then
	movq	-8(%rbp), %rax
	movl	8(%rax), %eax
	movq	-8(%rbp), %rcx
	movq	24(%rcx), %rcx
	movq	-8(%rbp), %rdx
	movq	32(%rdx), %rdx
	movl	(%rdx), %esi
	movl	%esi, %edi
	addl	$1, %edi
	movl	%edi, (%rdx)
	movslq	%esi, %rdx
	movb	%al, (%rcx,%rdx)
	movq	-8(%rbp), %rax
	movl	$8, 12(%rax)
.LBB4_2:                                # %while.cond
                                        # =>This Inner Loop Header: Depth=1
	movq	-8(%rbp), %rax
	cmpl	$7, 80(%rax)
	jle	.LBB4_4
# %bb.3:                                # %while.body
                                        #   in Loop: Header=BB4_2 Depth=1
	movq	-8(%rbp), %rax
	movl	80(%rax), %ecx
	subl	$8, %ecx
	movl	%ecx, 80(%rax)
	movq	-8(%rbp), %rax
	movl	88(%rax), %ecx
	addl	$1, %ecx
	movl	%ecx, 88(%rax)
	jmp	.LBB4_2
.LBB4_4:                                # %while.end
	jmp	.LBB4_5
.LBB4_5:                                # %if.end
	jmp	.LBB4_6
.LBB4_6:                                # %while.cond8
                                        # =>This Loop Header: Depth=1
                                        #     Child Loop BB4_9 Depth 2
	movq	-8(%rbp), %rax
	cmpl	$0, 16(%rax)
	jbe	.LBB4_13
# %bb.7:                                # %while.body11
                                        #   in Loop: Header=BB4_6 Depth=1
	movq	-8(%rbp), %rax
	movl	16(%rax), %ecx
	addl	$-1, %ecx
	movl	%ecx, 16(%rax)
	movq	-8(%rbp), %rax
	movl	8(%rax), %ecx
	shll	$1, %ecx
	movl	%ecx, 8(%rax)
	movq	-8(%rbp), %rax
	movl	(%rax), %eax
	shrl	$9, %eax
	andl	$1, %eax
	cmpl	$0, %eax
	setne	%al
	xorb	$-1, %al
	andb	$1, %al
	movzbl	%al, %eax
	movq	-8(%rbp), %rcx
	orl	8(%rcx), %eax
	movl	%eax, 8(%rcx)
	movq	-8(%rbp), %rax
	movl	12(%rax), %ecx
	addl	$-1, %ecx
	movl	%ecx, 12(%rax)
	cmpl	$0, %ecx
	jne	.LBB4_12
# %bb.8:                                # %if.then25
                                        #   in Loop: Header=BB4_6 Depth=1
	movq	-8(%rbp), %rax
	movl	8(%rax), %eax
	movq	-8(%rbp), %rcx
	movq	24(%rcx), %rcx
	movq	-8(%rbp), %rdx
	movq	32(%rdx), %rdx
	movl	(%rdx), %esi
	movl	%esi, %edi
	addl	$1, %edi
	movl	%edi, (%rdx)
	movslq	%esi, %rdx
	movb	%al, (%rcx,%rdx)
	movq	-8(%rbp), %rax
	movl	$8, 12(%rax)
.LBB4_9:                                # %while.cond34
                                        #   Parent Loop BB4_6 Depth=1
                                        # =>  This Inner Loop Header: Depth=2
	movq	-8(%rbp), %rax
	cmpl	$7, 80(%rax)
	jle	.LBB4_11
# %bb.10:                               # %while.body38
                                        #   in Loop: Header=BB4_9 Depth=2
	movq	-8(%rbp), %rax
	movl	80(%rax), %ecx
	subl	$8, %ecx
	movl	%ecx, 80(%rax)
	movq	-8(%rbp), %rax
	movl	88(%rax), %ecx
	addl	$1, %ecx
	movl	%ecx, 88(%rax)
	jmp	.LBB4_9
.LBB4_11:                               # %while.end43
                                        #   in Loop: Header=BB4_6 Depth=1
	jmp	.LBB4_12
.LBB4_12:                               # %if.end44
                                        #   in Loop: Header=BB4_6 Depth=1
	jmp	.LBB4_6
.LBB4_13:                               # %while.end45
	movq	-8(%rbp), %rax
	movl	8(%rax), %ecx
	shll	$1, %ecx
	movl	%ecx, 8(%rax)
	movq	-8(%rbp), %rax
	movl	(%rax), %eax
	shrl	$8, %eax
	andl	$1, %eax
	movq	-8(%rbp), %rcx
	orl	8(%rcx), %eax
	movl	%eax, 8(%rcx)
	movq	-8(%rbp), %rax
	movl	12(%rax), %ecx
	addl	$-1, %ecx
	movl	%ecx, 12(%rax)
	cmpl	$0, %ecx
	jne	.LBB4_18
# %bb.14:                               # %if.then57
	movq	-8(%rbp), %rax
	movl	8(%rax), %eax
	movq	-8(%rbp), %rcx
	movq	24(%rcx), %rcx
	movq	-8(%rbp), %rdx
	movq	32(%rdx), %rdx
	movl	(%rdx), %esi
	movl	%esi, %edi
	addl	$1, %edi
	movl	%edi, (%rdx)
	movslq	%esi, %rdx
	movb	%al, (%rcx,%rdx)
	movq	-8(%rbp), %rax
	movl	$8, 12(%rax)
.LBB4_15:                               # %while.cond66
                                        # =>This Inner Loop Header: Depth=1
	movq	-8(%rbp), %rax
	cmpl	$7, 80(%rax)
	jle	.LBB4_17
# %bb.16:                               # %while.body70
                                        #   in Loop: Header=BB4_15 Depth=1
	movq	-8(%rbp), %rax
	movl	80(%rax), %ecx
	subl	$8, %ecx
	movl	%ecx, 80(%rax)
	movq	-8(%rbp), %rax
	movl	88(%rax), %ecx
	addl	$1, %ecx
	movl	%ecx, 88(%rax)
	jmp	.LBB4_15
.LBB4_17:                               # %while.end75
	jmp	.LBB4_18
.LBB4_18:                               # %if.end76
	movq	-8(%rbp), %rax
	movl	8(%rax), %ecx
	shll	$1, %ecx
	movl	%ecx, 8(%rax)
	movq	-8(%rbp), %rax
	movl	8(%rax), %ecx
	orl	$1, %ecx
	movl	%ecx, 8(%rax)
	movq	-8(%rbp), %rax
	movl	12(%rax), %ecx
	addl	$-1, %ecx
	movl	%ecx, 12(%rax)
	cmpl	$0, %ecx
	jne	.LBB4_23
# %bb.19:                               # %if.then85
	movq	-8(%rbp), %rax
	movl	8(%rax), %eax
	movq	-8(%rbp), %rcx
	movq	24(%rcx), %rcx
	movq	-8(%rbp), %rdx
	movq	32(%rdx), %rdx
	movl	(%rdx), %esi
	movl	%esi, %edi
	addl	$1, %edi
	movl	%edi, (%rdx)
	movslq	%esi, %rdx
	movb	%al, (%rcx,%rdx)
	movq	-8(%rbp), %rax
	movl	$8, 12(%rax)
.LBB4_20:                               # %while.cond94
                                        # =>This Inner Loop Header: Depth=1
	movq	-8(%rbp), %rax
	cmpl	$7, 80(%rax)
	jle	.LBB4_22
# %bb.21:                               # %while.body98
                                        #   in Loop: Header=BB4_20 Depth=1
	movq	-8(%rbp), %rax
	movl	80(%rax), %ecx
	subl	$8, %ecx
	movl	%ecx, 80(%rax)
	movq	-8(%rbp), %rax
	movl	88(%rax), %ecx
	addl	$1, %ecx
	movl	%ecx, 88(%rax)
	jmp	.LBB4_20
.LBB4_22:                               # %while.end103
	jmp	.LBB4_23
.LBB4_23:                               # %if.end104
	movq	-8(%rbp), %rax
	movl	$8, %ecx
	subl	12(%rax), %ecx
	movq	stats, %rax
	movq	img, %rdx
	movslq	24(%rdx), %rdx
	addl	1328(%rax,%rdx,4), %ecx
	movl	%ecx, 1328(%rax,%rdx,4)
.LBB4_24:                               # %while.cond109
                                        # =>This Loop Header: Depth=1
                                        #     Child Loop BB4_27 Depth 2
	movq	-8(%rbp), %rax
	cmpl	$8, 12(%rax)
	je	.LBB4_31
# %bb.25:                               # %while.body113
                                        #   in Loop: Header=BB4_24 Depth=1
	movq	-8(%rbp), %rax
	movl	8(%rax), %ecx
	shll	$1, %ecx
	movl	%ecx, 8(%rax)
	movq	-8(%rbp), %rax
	movl	8(%rax), %ecx
	movl	%ecx, 8(%rax)
	movq	-8(%rbp), %rax
	movl	12(%rax), %ecx
	addl	$-1, %ecx
	movl	%ecx, 12(%rax)
	cmpl	$0, %ecx
	jne	.LBB4_30
# %bb.26:                               # %if.then121
                                        #   in Loop: Header=BB4_24 Depth=1
	movq	-8(%rbp), %rax
	movl	8(%rax), %eax
	movq	-8(%rbp), %rcx
	movq	24(%rcx), %rcx
	movq	-8(%rbp), %rdx
	movq	32(%rdx), %rdx
	movl	(%rdx), %esi
	movl	%esi, %edi
	addl	$1, %edi
	movl	%edi, (%rdx)
	movslq	%esi, %rdx
	movb	%al, (%rcx,%rdx)
	movq	-8(%rbp), %rax
	movl	$8, 12(%rax)
.LBB4_27:                               # %while.cond130
                                        #   Parent Loop BB4_24 Depth=1
                                        # =>  This Inner Loop Header: Depth=2
	movq	-8(%rbp), %rax
	cmpl	$7, 80(%rax)
	jle	.LBB4_29
# %bb.28:                               # %while.body134
                                        #   in Loop: Header=BB4_27 Depth=2
	movq	-8(%rbp), %rax
	movl	80(%rax), %ecx
	subl	$8, %ecx
	movl	%ecx, 80(%rax)
	movq	-8(%rbp), %rax
	movl	88(%rax), %ecx
	addl	$1, %ecx
	movl	%ecx, 88(%rax)
	jmp	.LBB4_27
.LBB4_29:                               # %while.end139
                                        #   in Loop: Header=BB4_24 Depth=1
	jmp	.LBB4_30
.LBB4_30:                               # %if.end140
                                        #   in Loop: Header=BB4_24 Depth=1
	jmp	.LBB4_24
.LBB4_31:                               # %while.end141
	movq	-8(%rbp), %rax
	movl	88(%rax), %eax
	shll	$3, %eax
	movq	-8(%rbp), %rcx
	addl	80(%rcx), %eax
	movq	-8(%rbp), %rcx
	movl	%eax, 88(%rcx)
	movq	-8(%rbp), %rax
	movq	32(%rax), %rax
	movl	(%rax), %eax
	movq	-8(%rbp), %rcx
	subl	96(%rcx), %eax
	movq	-8(%rbp), %rcx
	movl	%eax, 96(%rcx)
	movq	img, %rax
	movl	12(%rax), %eax
	movq	img, %rcx
	movq	14160(%rcx), %rcx
	subl	12(%rcx), %eax
	movq	-8(%rbp), %rcx
	movl	88(%rcx), %edx
	subl	%eax, %edx
	movl	%edx, 88(%rcx)
	movq	-8(%rbp), %rax
	movl	88(%rax), %eax
	addl	$31, %eax
	sarl	$5, %eax
	movq	-8(%rbp), %rcx
	movl	%eax, 88(%rcx)
	popq	%rbp
	.cfi_def_cfa %rsp, 8
	retq
.Lfunc_end4:
	.size	arienco_done_encoding, .Lfunc_end4-arienco_done_encoding
	.cfi_endproc
                                        # -- End function
	.globl	biari_encode_symbol     # -- Begin function biari_encode_symbol
	.p2align	4, 0x90
	.type	biari_encode_symbol,@function
biari_encode_symbol:                    # @biari_encode_symbol
	.cfi_startproc
# %bb.0:                                # %rand_bb
	pushq	%rbp
	.cfi_def_cfa_offset 16
	.cfi_offset %rbp, -16
	movq	%rsp, %rbp
	.cfi_def_cfa_register %rbp
	pushq	%r15
	pushq	%r14
	pushq	%rbx
	pushq	%rax
	.cfi_offset %rbx, -40
	.cfi_offset %r14, -32
	.cfi_offset %r15, -24
	movq	%rdx, %r14
	movl	%esi, %r15d
	movq	%rdi, %rbx
	callq	get_rand
	cmpl	$0, %eax
	jne	.LBB5_9
# %bb.1:                                # %func_biari_encode_symbol.2
	movq	%rbx, %rdi
	movswl	%r15w, %esi
	movq	%r14, %rdx
	callq	biari_encode_symbol.2
	addq	$8, %rsp
	popq	%rbx
	popq	%r14
	popq	%r15
	popq	%rbp
	.cfi_def_cfa %rsp, 8
	retq
.LBB5_2:                                # %func_biari_encode_symbol.9
	.cfi_def_cfa %rbp, 16
	movq	%rbx, %rdi
	movswl	%r15w, %esi
	movq	%r14, %rdx
	callq	biari_encode_symbol.9
	addq	$8, %rsp
	popq	%rbx
	popq	%r14
	popq	%r15
	popq	%rbp
	.cfi_def_cfa %rsp, 8
	retq
.LBB5_3:                                # %func_biari_encode_symbol.20
	.cfi_def_cfa %rbp, 16
	movq	%rbx, %rdi
	movswl	%r15w, %esi
	movq	%r14, %rdx
	callq	biari_encode_symbol.20
	addq	$8, %rsp
	popq	%rbx
	popq	%r14
	popq	%r15
	popq	%rbp
	.cfi_def_cfa %rsp, 8
	retq
.LBB5_4:                                # %func_biari_encode_symbol.24
	.cfi_def_cfa %rbp, 16
	movq	%rbx, %rdi
	movswl	%r15w, %esi
	movq	%r14, %rdx
	callq	biari_encode_symbol.24
	addq	$8, %rsp
	popq	%rbx
	popq	%r14
	popq	%r15
	popq	%rbp
	.cfi_def_cfa %rsp, 8
	retq
.LBB5_5:                                # %func_biari_encode_symbol.25
	.cfi_def_cfa %rbp, 16
	movq	%rbx, %rdi
	movswl	%r15w, %esi
	movq	%r14, %rdx
	callq	biari_encode_symbol.25
	addq	$8, %rsp
	popq	%rbx
	popq	%r14
	popq	%r15
	popq	%rbp
	.cfi_def_cfa %rsp, 8
	retq
.LBB5_6:                                # %func_biari_encode_symbol.26
	.cfi_def_cfa %rbp, 16
	movq	%rbx, %rdi
	movswl	%r15w, %esi
	movq	%r14, %rdx
	callq	biari_encode_symbol.26
	addq	$8, %rsp
	popq	%rbx
	popq	%r14
	popq	%r15
	popq	%rbp
	.cfi_def_cfa %rsp, 8
	retq
.LBB5_7:                                # %func_biari_encode_symbol.29
	.cfi_def_cfa %rbp, 16
	movq	%rbx, %rdi
	movswl	%r15w, %esi
	movq	%r14, %rdx
	callq	biari_encode_symbol.29
	addq	$8, %rsp
	popq	%rbx
	popq	%r14
	popq	%r15
	popq	%rbp
	.cfi_def_cfa %rsp, 8
	retq
.LBB5_8:                                # %func_biari_encode_symbol.34
	.cfi_def_cfa %rbp, 16
	movq	%rbx, %rdi
	movswl	%r15w, %esi
	movq	%r14, %rdx
	callq	biari_encode_symbol.34
	addq	$8, %rsp
	popq	%rbx
	popq	%r14
	popq	%r15
	popq	%rbp
	.cfi_def_cfa %rsp, 8
	retq
.LBB5_9:                                # %ctrl0
	.cfi_def_cfa %rbp, 16
	cmpl	$1, %eax
	je	.LBB5_2
# %bb.10:                               # %ctrl1
	cmpl	$2, %eax
	je	.LBB5_3
# %bb.11:                               # %ctrl2
	cmpl	$3, %eax
	je	.LBB5_4
# %bb.12:                               # %ctrl3
	cmpl	$4, %eax
	je	.LBB5_5
# %bb.13:                               # %ctrl4
	cmpl	$5, %eax
	je	.LBB5_6
# %bb.14:                               # %ctrl5
	cmpl	$6, %eax
	je	.LBB5_7
	jmp	.LBB5_8
.Lfunc_end5:
	.size	biari_encode_symbol, .Lfunc_end5-biari_encode_symbol
	.cfi_endproc
                                        # -- End function
	.globl	biari_encode_symbol_eq_prob # -- Begin function biari_encode_symbol_eq_prob
	.p2align	4, 0x90
	.type	biari_encode_symbol_eq_prob,@function
biari_encode_symbol_eq_prob:            # @biari_encode_symbol_eq_prob
	.cfi_startproc
# %bb.0:                                # %rand_bb
	pushq	%rbp
	.cfi_def_cfa_offset 16
	.cfi_offset %rbp, -16
	movq	%rsp, %rbp
	.cfi_def_cfa_register %rbp
	pushq	%r14
	pushq	%rbx
	.cfi_offset %rbx, -32
	.cfi_offset %r14, -24
	movl	%esi, %r14d
	movq	%rdi, %rbx
	callq	get_rand
	cmpl	$0, %eax
	jne	.LBB6_7
# %bb.1:                                # %func_biari_encode_symbol_eq_prob.1
	movq	%rbx, %rdi
	movswl	%r14w, %esi
	callq	biari_encode_symbol_eq_prob.1
	popq	%rbx
	popq	%r14
	popq	%rbp
	.cfi_def_cfa %rsp, 8
	retq
.LBB6_2:                                # %func_biari_encode_symbol_eq_prob.5
	.cfi_def_cfa %rbp, 16
	movq	%rbx, %rdi
	movswl	%r14w, %esi
	callq	biari_encode_symbol_eq_prob.5
	popq	%rbx
	popq	%r14
	popq	%rbp
	.cfi_def_cfa %rsp, 8
	retq
.LBB6_3:                                # %func_biari_encode_symbol_eq_prob.8
	.cfi_def_cfa %rbp, 16
	movq	%rbx, %rdi
	movswl	%r14w, %esi
	callq	biari_encode_symbol_eq_prob.8
	popq	%rbx
	popq	%r14
	popq	%rbp
	.cfi_def_cfa %rsp, 8
	retq
.LBB6_4:                                # %func_biari_encode_symbol_eq_prob.16
	.cfi_def_cfa %rbp, 16
	movq	%rbx, %rdi
	movswl	%r14w, %esi
	callq	biari_encode_symbol_eq_prob.16
	popq	%rbx
	popq	%r14
	popq	%rbp
	.cfi_def_cfa %rsp, 8
	retq
.LBB6_5:                                # %func_biari_encode_symbol_eq_prob.19
	.cfi_def_cfa %rbp, 16
	movq	%rbx, %rdi
	movswl	%r14w, %esi
	callq	biari_encode_symbol_eq_prob.19
	popq	%rbx
	popq	%r14
	popq	%rbp
	.cfi_def_cfa %rsp, 8
	retq
.LBB6_6:                                # %func_biari_encode_symbol_eq_prob.21
	.cfi_def_cfa %rbp, 16
	movq	%rbx, %rdi
	movswl	%r14w, %esi
	callq	biari_encode_symbol_eq_prob.21
	popq	%rbx
	popq	%r14
	popq	%rbp
	.cfi_def_cfa %rsp, 8
	retq
.LBB6_7:                                # %ctrl0
	.cfi_def_cfa %rbp, 16
	cmpl	$1, %eax
	je	.LBB6_2
# %bb.8:                                # %ctrl1
	cmpl	$2, %eax
	je	.LBB6_3
# %bb.9:                                # %ctrl2
	cmpl	$3, %eax
	je	.LBB6_4
# %bb.10:                               # %ctrl3
	cmpl	$4, %eax
	je	.LBB6_5
	jmp	.LBB6_6
.Lfunc_end6:
	.size	biari_encode_symbol_eq_prob, .Lfunc_end6-biari_encode_symbol_eq_prob
	.cfi_endproc
                                        # -- End function
	.globl	biari_encode_symbol_final # -- Begin function biari_encode_symbol_final
	.p2align	4, 0x90
	.type	biari_encode_symbol_final,@function
biari_encode_symbol_final:              # @biari_encode_symbol_final
	.cfi_startproc
# %bb.0:                                # %rand_bb
	pushq	%rbp
	.cfi_def_cfa_offset 16
	.cfi_offset %rbp, -16
	movq	%rsp, %rbp
	.cfi_def_cfa_register %rbp
	pushq	%r14
	pushq	%rbx
	.cfi_offset %rbx, -32
	.cfi_offset %r14, -24
	movl	%esi, %r14d
	movq	%rdi, %rbx
	callq	get_rand
	cmpl	$0, %eax
	jne	.LBB7_9
# %bb.1:                                # %func_biari_encode_symbol_final.11
	movq	%rbx, %rdi
	movswl	%r14w, %esi
	callq	biari_encode_symbol_final.11
	popq	%rbx
	popq	%r14
	popq	%rbp
	.cfi_def_cfa %rsp, 8
	retq
.LBB7_2:                                # %func_biari_encode_symbol_final.13
	.cfi_def_cfa %rbp, 16
	movq	%rbx, %rdi
	movswl	%r14w, %esi
	callq	biari_encode_symbol_final.13
	popq	%rbx
	popq	%r14
	popq	%rbp
	.cfi_def_cfa %rsp, 8
	retq
.LBB7_3:                                # %func_biari_encode_symbol_final.30
	.cfi_def_cfa %rbp, 16
	movq	%rbx, %rdi
	movswl	%r14w, %esi
	callq	biari_encode_symbol_final.30
	popq	%rbx
	popq	%r14
	popq	%rbp
	.cfi_def_cfa %rsp, 8
	retq
.LBB7_4:                                # %func_biari_encode_symbol_final.31
	.cfi_def_cfa %rbp, 16
	movq	%rbx, %rdi
	movswl	%r14w, %esi
	callq	biari_encode_symbol_final.31
	popq	%rbx
	popq	%r14
	popq	%rbp
	.cfi_def_cfa %rsp, 8
	retq
.LBB7_5:                                # %func_biari_encode_symbol_final.32
	.cfi_def_cfa %rbp, 16
	movq	%rbx, %rdi
	movswl	%r14w, %esi
	callq	biari_encode_symbol_final.32
	popq	%rbx
	popq	%r14
	popq	%rbp
	.cfi_def_cfa %rsp, 8
	retq
.LBB7_6:                                # %func_biari_encode_symbol_final.33
	.cfi_def_cfa %rbp, 16
	movq	%rbx, %rdi
	movswl	%r14w, %esi
	callq	biari_encode_symbol_final.33
	popq	%rbx
	popq	%r14
	popq	%rbp
	.cfi_def_cfa %rsp, 8
	retq
.LBB7_7:                                # %func_biari_encode_symbol_final.35
	.cfi_def_cfa %rbp, 16
	movq	%rbx, %rdi
	movswl	%r14w, %esi
	callq	biari_encode_symbol_final.35
	popq	%rbx
	popq	%r14
	popq	%rbp
	.cfi_def_cfa %rsp, 8
	retq
.LBB7_8:                                # %func_biari_encode_symbol_final.36
	.cfi_def_cfa %rbp, 16
	movq	%rbx, %rdi
	movswl	%r14w, %esi
	callq	biari_encode_symbol_final.36
	popq	%rbx
	popq	%r14
	popq	%rbp
	.cfi_def_cfa %rsp, 8
	retq
.LBB7_9:                                # %ctrl0
	.cfi_def_cfa %rbp, 16
	cmpl	$1, %eax
	je	.LBB7_2
# %bb.10:                               # %ctrl1
	cmpl	$2, %eax
	je	.LBB7_3
# %bb.11:                               # %ctrl2
	cmpl	$3, %eax
	je	.LBB7_4
# %bb.12:                               # %ctrl3
	cmpl	$4, %eax
	je	.LBB7_5
# %bb.13:                               # %ctrl4
	cmpl	$5, %eax
	je	.LBB7_6
# %bb.14:                               # %ctrl5
	cmpl	$6, %eax
	je	.LBB7_7
	jmp	.LBB7_8
.Lfunc_end7:
	.size	biari_encode_symbol_final, .Lfunc_end7-biari_encode_symbol_final
	.cfi_endproc
                                        # -- End function
	.globl	biari_init_context      # -- Begin function biari_init_context
	.p2align	4, 0x90
	.type	biari_init_context,@function
biari_init_context:                     # @biari_init_context
	.cfi_startproc
# %bb.0:                                # %rand_bb
	pushq	%rbp
	.cfi_def_cfa_offset 16
	.cfi_offset %rbp, -16
	movq	%rsp, %rbp
	.cfi_def_cfa_register %rbp
	pushq	%r14
	pushq	%rbx
	.cfi_offset %rbx, -32
	.cfi_offset %r14, -24
	movq	%rsi, %r14
	movq	%rdi, %rbx
	callq	get_rand
	cmpl	$0, %eax
	jne	.LBB8_7
# %bb.1:                                # %func_biari_init_context.3
	movq	%rbx, %rdi
	movq	%r14, %rsi
	callq	biari_init_context.3
	popq	%rbx
	popq	%r14
	popq	%rbp
	.cfi_def_cfa %rsp, 8
	retq
.LBB8_2:                                # %func_biari_init_context.4
	.cfi_def_cfa %rbp, 16
	movq	%rbx, %rdi
	movq	%r14, %rsi
	callq	biari_init_context.4
	popq	%rbx
	popq	%r14
	popq	%rbp
	.cfi_def_cfa %rsp, 8
	retq
.LBB8_3:                                # %func_biari_init_context.6
	.cfi_def_cfa %rbp, 16
	movq	%rbx, %rdi
	movq	%r14, %rsi
	callq	biari_init_context.6
	popq	%rbx
	popq	%r14
	popq	%rbp
	.cfi_def_cfa %rsp, 8
	retq
.LBB8_4:                                # %func_biari_init_context.15
	.cfi_def_cfa %rbp, 16
	movq	%rbx, %rdi
	movq	%r14, %rsi
	callq	biari_init_context.15
	popq	%rbx
	popq	%r14
	popq	%rbp
	.cfi_def_cfa %rsp, 8
	retq
.LBB8_5:                                # %func_biari_init_context.17
	.cfi_def_cfa %rbp, 16
	movq	%rbx, %rdi
	movq	%r14, %rsi
	callq	biari_init_context.17
	popq	%rbx
	popq	%r14
	popq	%rbp
	.cfi_def_cfa %rsp, 8
	retq
.LBB8_6:                                # %func_biari_init_context.18
	.cfi_def_cfa %rbp, 16
	movq	%rbx, %rdi
	movq	%r14, %rsi
	callq	biari_init_context.18
	popq	%rbx
	popq	%r14
	popq	%rbp
	.cfi_def_cfa %rsp, 8
	retq
.LBB8_7:                                # %ctrl0
	.cfi_def_cfa %rbp, 16
	cmpl	$1, %eax
	je	.LBB8_2
# %bb.8:                                # %ctrl1
	cmpl	$2, %eax
	je	.LBB8_3
# %bb.9:                                # %ctrl2
	cmpl	$3, %eax
	je	.LBB8_4
# %bb.10:                               # %ctrl3
	cmpl	$4, %eax
	je	.LBB8_5
	jmp	.LBB8_6
.Lfunc_end8:
	.size	biari_init_context, .Lfunc_end8-biari_init_context
	.cfi_endproc
                                        # -- End function
	.globl	biari_encode_symbol_eq_prob.1 # -- Begin function biari_encode_symbol_eq_prob.1
	.p2align	4, 0x90
	.type	biari_encode_symbol_eq_prob.1,@function
biari_encode_symbol_eq_prob.1:          # @biari_encode_symbol_eq_prob.1
	.cfi_startproc
# %bb.0:                                # %entry
	pushq	%rbp
	.cfi_def_cfa_offset 16
	.cfi_offset %rbp, -16
	movq	%rsp, %rbp
	.cfi_def_cfa_register %rbp
	subq	$32, %rsp
	movl	$65758022, -20(%rbp)    # imm = 0x3EB6346
	movq	%rdi, -8(%rbp)
	movw	%si, -14(%rbp)
	movq	-8(%rbp), %rax
	movl	(%rax), %eax
	shll	$1, %eax
	movl	%eax, -12(%rbp)
	movswl	-14(%rbp), %eax
	cmpl	$0, %eax
	je	.LBB9_2
# %bb.1:                                # %if.then
	movq	-8(%rbp), %rax
	movl	4(%rax), %eax
	addl	-12(%rbp), %eax
	movl	%eax, -12(%rbp)
.LBB9_2:                                # %if.end
	cmpl	$1024, -12(%rbp)        # imm = 0x400
	jb	.LBB9_17
# %bb.3:                                # %if.then4
	movq	-8(%rbp), %rax
	movl	8(%rax), %ecx
	shll	$1, %ecx
	movl	%ecx, 8(%rax)
	movq	-8(%rbp), %rax
	movl	8(%rax), %ecx
	orl	$1, %ecx
	movl	%ecx, 8(%rax)
	movq	-8(%rbp), %rax
	movl	12(%rax), %ecx
	addl	$-1, %ecx
	movl	%ecx, 12(%rax)
	cmpl	$0, %ecx
	jne	.LBB9_8
# %bb.4:                                # %if.then9
	movq	-8(%rbp), %rax
	movl	8(%rax), %eax
	movq	-8(%rbp), %rcx
	movq	24(%rcx), %rcx
	movq	-8(%rbp), %rdx
	movq	32(%rdx), %rdx
	movl	(%rdx), %esi
	movl	%esi, %edi
	addl	$1, %edi
	movl	%edi, (%rdx)
	movslq	%esi, %rdx
	movb	%al, (%rcx,%rdx)
	movq	-8(%rbp), %rax
	movl	$8, 12(%rax)
.LBB9_5:                                # %while.cond
                                        # =>This Inner Loop Header: Depth=1
	movq	-8(%rbp), %rax
	cmpl	$7, 80(%rax)
	jle	.LBB9_7
# %bb.6:                                # %while.body
                                        #   in Loop: Header=BB9_5 Depth=1
	movq	-8(%rbp), %rax
	movl	80(%rax), %ecx
	subl	$8, %ecx
	movl	%ecx, 80(%rax)
	movq	-8(%rbp), %rax
	movl	88(%rax), %ecx
	addl	$1, %ecx
	movl	%ecx, 88(%rax)
	jmp	.LBB9_5
.LBB9_7:                                # %while.end
	jmp	.LBB9_8
.LBB9_8:                                # %if.end17
	jmp	.LBB9_9
.LBB9_9:                                # %while.cond18
                                        # =>This Loop Header: Depth=1
                                        #     Child Loop BB9_12 Depth 2
	movq	-8(%rbp), %rax
	cmpl	$0, 16(%rax)
	jbe	.LBB9_16
# %bb.10:                               # %while.body21
                                        #   in Loop: Header=BB9_9 Depth=1
	movq	-8(%rbp), %rax
	movl	16(%rax), %ecx
	addl	$-1, %ecx
	movl	%ecx, 16(%rax)
	movq	-8(%rbp), %rax
	movl	8(%rax), %ecx
	shll	$1, %ecx
	movl	%ecx, 8(%rax)
	movq	-8(%rbp), %rax
	movl	8(%rax), %ecx
	movl	%ecx, 8(%rax)
	movq	-8(%rbp), %rax
	movl	12(%rax), %ecx
	addl	$-1, %ecx
	movl	%ecx, 12(%rax)
	cmpl	$0, %ecx
	jne	.LBB9_15
# %bb.11:                               # %if.then31
                                        #   in Loop: Header=BB9_9 Depth=1
	movq	-8(%rbp), %rax
	movl	8(%rax), %eax
	movq	-8(%rbp), %rcx
	movq	24(%rcx), %rcx
	movq	-8(%rbp), %rdx
	movq	32(%rdx), %rdx
	movl	(%rdx), %esi
	movl	%esi, %edi
	addl	$1, %edi
	movl	%edi, (%rdx)
	movslq	%esi, %rdx
	movb	%al, (%rcx,%rdx)
	movq	-8(%rbp), %rax
	movl	$8, 12(%rax)
.LBB9_12:                               # %while.cond40
                                        #   Parent Loop BB9_9 Depth=1
                                        # =>  This Inner Loop Header: Depth=2
	movq	-8(%rbp), %rax
	cmpl	$7, 80(%rax)
	jle	.LBB9_14
# %bb.13:                               # %while.body44
                                        #   in Loop: Header=BB9_12 Depth=2
	movq	-8(%rbp), %rax
	movl	80(%rax), %ecx
	subl	$8, %ecx
	movl	%ecx, 80(%rax)
	movq	-8(%rbp), %rax
	movl	88(%rax), %ecx
	addl	$1, %ecx
	movl	%ecx, 88(%rax)
	jmp	.LBB9_12
.LBB9_14:                               # %while.end49
                                        #   in Loop: Header=BB9_9 Depth=1
	jmp	.LBB9_15
.LBB9_15:                               # %if.end50
                                        #   in Loop: Header=BB9_9 Depth=1
	jmp	.LBB9_9
.LBB9_16:                               # %while.end51
	movl	-12(%rbp), %eax
	subl	$1024, %eax             # imm = 0x400
	movl	%eax, -12(%rbp)
	jmp	.LBB9_34
.LBB9_17:                               # %if.else
	cmpl	$512, -12(%rbp)         # imm = 0x200
	jae	.LBB9_32
# %bb.18:                               # %if.then55
	movq	-8(%rbp), %rax
	movl	8(%rax), %ecx
	shll	$1, %ecx
	movl	%ecx, 8(%rax)
	movq	-8(%rbp), %rax
	movl	8(%rax), %ecx
	movl	%ecx, 8(%rax)
	movq	-8(%rbp), %rax
	movl	12(%rax), %ecx
	addl	$-1, %ecx
	movl	%ecx, 12(%rax)
	cmpl	$0, %ecx
	jne	.LBB9_23
# %bb.19:                               # %if.then63
	movq	-8(%rbp), %rax
	movl	8(%rax), %eax
	movq	-8(%rbp), %rcx
	movq	24(%rcx), %rcx
	movq	-8(%rbp), %rdx
	movq	32(%rdx), %rdx
	movl	(%rdx), %esi
	movl	%esi, %edi
	addl	$1, %edi
	movl	%edi, (%rdx)
	movslq	%esi, %rdx
	movb	%al, (%rcx,%rdx)
	movq	-8(%rbp), %rax
	movl	$8, 12(%rax)
.LBB9_20:                               # %while.cond72
                                        # =>This Inner Loop Header: Depth=1
	movq	-8(%rbp), %rax
	cmpl	$7, 80(%rax)
	jle	.LBB9_22
# %bb.21:                               # %while.body76
                                        #   in Loop: Header=BB9_20 Depth=1
	movq	-8(%rbp), %rax
	movl	80(%rax), %ecx
	subl	$8, %ecx
	movl	%ecx, 80(%rax)
	movq	-8(%rbp), %rax
	movl	88(%rax), %ecx
	addl	$1, %ecx
	movl	%ecx, 88(%rax)
	jmp	.LBB9_20
.LBB9_22:                               # %while.end81
	jmp	.LBB9_23
.LBB9_23:                               # %if.end82
	jmp	.LBB9_24
.LBB9_24:                               # %while.cond83
                                        # =>This Loop Header: Depth=1
                                        #     Child Loop BB9_27 Depth 2
	movq	-8(%rbp), %rax
	cmpl	$0, 16(%rax)
	jbe	.LBB9_31
# %bb.25:                               # %while.body87
                                        #   in Loop: Header=BB9_24 Depth=1
	movq	-8(%rbp), %rax
	movl	16(%rax), %ecx
	addl	$-1, %ecx
	movl	%ecx, 16(%rax)
	movq	-8(%rbp), %rax
	movl	8(%rax), %ecx
	shll	$1, %ecx
	movl	%ecx, 8(%rax)
	movq	-8(%rbp), %rax
	movl	8(%rax), %ecx
	orl	$1, %ecx
	movl	%ecx, 8(%rax)
	movq	-8(%rbp), %rax
	movl	12(%rax), %ecx
	addl	$-1, %ecx
	movl	%ecx, 12(%rax)
	cmpl	$0, %ecx
	jne	.LBB9_30
# %bb.26:                               # %if.then98
                                        #   in Loop: Header=BB9_24 Depth=1
	movq	-8(%rbp), %rax
	movl	8(%rax), %eax
	movq	-8(%rbp), %rcx
	movq	24(%rcx), %rcx
	movq	-8(%rbp), %rdx
	movq	32(%rdx), %rdx
	movl	(%rdx), %esi
	movl	%esi, %edi
	addl	$1, %edi
	movl	%edi, (%rdx)
	movslq	%esi, %rdx
	movb	%al, (%rcx,%rdx)
	movq	-8(%rbp), %rax
	movl	$8, 12(%rax)
.LBB9_27:                               # %while.cond107
                                        #   Parent Loop BB9_24 Depth=1
                                        # =>  This Inner Loop Header: Depth=2
	movq	-8(%rbp), %rax
	cmpl	$7, 80(%rax)
	jle	.LBB9_29
# %bb.28:                               # %while.body111
                                        #   in Loop: Header=BB9_27 Depth=2
	movq	-8(%rbp), %rax
	movl	80(%rax), %ecx
	subl	$8, %ecx
	movl	%ecx, 80(%rax)
	movq	-8(%rbp), %rax
	movl	88(%rax), %ecx
	addl	$1, %ecx
	movl	%ecx, 88(%rax)
	jmp	.LBB9_27
.LBB9_29:                               # %while.end116
                                        #   in Loop: Header=BB9_24 Depth=1
	jmp	.LBB9_30
.LBB9_30:                               # %if.end117
                                        #   in Loop: Header=BB9_24 Depth=1
	jmp	.LBB9_24
.LBB9_31:                               # %while.end118
	jmp	.LBB9_33
.LBB9_32:                               # %if.else119
	movq	-8(%rbp), %rax
	movl	16(%rax), %ecx
	addl	$1, %ecx
	movl	%ecx, 16(%rax)
	movl	-12(%rbp), %eax
	subl	$512, %eax              # imm = 0x200
	movl	%eax, -12(%rbp)
.LBB9_33:                               # %if.end123
	jmp	.LBB9_34
.LBB9_34:                               # %if.end124
	movl	-12(%rbp), %eax
	movq	-8(%rbp), %rcx
	movl	%eax, (%rcx)
	movq	-8(%rbp), %rax
	movl	80(%rax), %ecx
	addl	$1, %ecx
	movl	%ecx, 80(%rax)
	cmpl	$65758022, -20(%rbp)    # imm = 0x3EB6346
	jne	.LBB9_36
.LBB9_35:
	addq	$32, %rsp
	popq	%rbp
	.cfi_def_cfa %rsp, 8
	retq
.LBB9_36:                               # %func_exit
	.cfi_def_cfa %rbp, 16
	callq	detect_breach
	jmp	.LBB9_35
.Lfunc_end9:
	.size	biari_encode_symbol_eq_prob.1, .Lfunc_end9-biari_encode_symbol_eq_prob.1
	.cfi_endproc
                                        # -- End function
	.globl	biari_encode_symbol.2   # -- Begin function biari_encode_symbol.2
	.p2align	4, 0x90
	.type	biari_encode_symbol.2,@function
biari_encode_symbol.2:                  # @biari_encode_symbol.2
	.cfi_startproc
# %bb.0:                                # %entry
	pushq	%rbp
	.cfi_def_cfa_offset 16
	.cfi_offset %rbp, -16
	movq	%rsp, %rbp
	.cfi_def_cfa_register %rbp
	subq	$48, %rsp
	movl	$672563747, -40(%rbp)   # imm = 0x28168223
	movq	%rdi, -8(%rbp)
	movw	%si, -18(%rbp)
	movq	%rdx, -32(%rbp)
	movq	-8(%rbp), %rax
	movl	4(%rax), %eax
	movl	%eax, -16(%rbp)
	movq	-8(%rbp), %rax
	movl	(%rax), %eax
	movl	%eax, -12(%rbp)
	movq	-32(%rbp), %rax
	movzwl	(%rax), %eax
	shlq	$2, %rax
	movabsq	$rLPS_table_64x4, %rcx
	addq	%rax, %rcx
	movl	-16(%rbp), %eax
	shrl	$6, %eax
	andl	$3, %eax
	movl	%eax, %eax
	movzbl	(%rcx,%rax), %eax
	movl	%eax, -36(%rbp)
	cmpl	$0, cabac_encoding
	je	.LBB10_2
# %bb.1:                                # %if.then
	movq	-32(%rbp), %rax
	movq	8(%rax), %rcx
	addq	$1, %rcx
	movq	%rcx, 8(%rax)
.LBB10_2:                               # %if.end
	movswl	-18(%rbp), %eax
	cmpl	$0, %eax
	je	.LBB10_4
# %bb.3:                                # %if.then5
	movw	$1, -18(%rbp)
.LBB10_4:                               # %if.end6
	movl	-36(%rbp), %eax
	movl	-16(%rbp), %ecx
	subl	%eax, %ecx
	movl	%ecx, -16(%rbp)
	movswl	-18(%rbp), %eax
	movq	-32(%rbp), %rcx
	movzbl	2(%rcx), %ecx
	cmpl	%ecx, %eax
	je	.LBB10_8
# %bb.5:                                # %if.then11
	movl	-16(%rbp), %eax
	addl	-12(%rbp), %eax
	movl	%eax, -12(%rbp)
	movl	-36(%rbp), %eax
	movl	%eax, -16(%rbp)
	movq	-32(%rbp), %rax
	cmpw	$0, (%rax)
	jne	.LBB10_7
# %bb.6:                                # %if.then14
	movq	-32(%rbp), %rax
	movzbl	2(%rax), %eax
	xorl	$1, %eax
	movq	-32(%rbp), %rcx
	movb	%al, 2(%rcx)
.LBB10_7:                               # %if.end19
	movq	-32(%rbp), %rax
	movzwl	(%rax), %eax
	movw	AC_next_state_LPS_64(,%rax,2), %ax
	movq	-32(%rbp), %rcx
	movw	%ax, (%rcx)
	jmp	.LBB10_9
.LBB10_8:                               # %if.else
	movq	-32(%rbp), %rax
	movzwl	(%rax), %eax
	movw	AC_next_state_MPS_64(,%rax,2), %ax
	movq	-32(%rbp), %rcx
	movw	%ax, (%rcx)
.LBB10_9:                               # %if.end28
	jmp	.LBB10_10
.LBB10_10:                              # %while.cond
                                        # =>This Loop Header: Depth=1
                                        #     Child Loop BB10_14 Depth 2
                                        #     Child Loop BB10_18 Depth 2
                                        #       Child Loop BB10_21 Depth 3
                                        #     Child Loop BB10_29 Depth 2
                                        #     Child Loop BB10_33 Depth 2
                                        #       Child Loop BB10_36 Depth 3
	cmpl	$256, -16(%rbp)         # imm = 0x100
	jae	.LBB10_44
# %bb.11:                               # %while.body
                                        #   in Loop: Header=BB10_10 Depth=1
	cmpl	$512, -12(%rbp)         # imm = 0x200
	jb	.LBB10_26
# %bb.12:                               # %if.then33
                                        #   in Loop: Header=BB10_10 Depth=1
	movq	-8(%rbp), %rax
	movl	8(%rax), %ecx
	shll	$1, %ecx
	movl	%ecx, 8(%rax)
	movq	-8(%rbp), %rax
	movl	8(%rax), %ecx
	orl	$1, %ecx
	movl	%ecx, 8(%rax)
	movq	-8(%rbp), %rax
	movl	12(%rax), %ecx
	addl	$-1, %ecx
	movl	%ecx, 12(%rax)
	cmpl	$0, %ecx
	jne	.LBB10_17
# %bb.13:                               # %if.then37
                                        #   in Loop: Header=BB10_10 Depth=1
	movq	-8(%rbp), %rax
	movl	8(%rax), %eax
	movq	-8(%rbp), %rcx
	movq	24(%rcx), %rcx
	movq	-8(%rbp), %rdx
	movq	32(%rdx), %rdx
	movl	(%rdx), %esi
	movl	%esi, %edi
	addl	$1, %edi
	movl	%edi, (%rdx)
	movslq	%esi, %rdx
	movb	%al, (%rcx,%rdx)
	movq	-8(%rbp), %rax
	movl	$8, 12(%rax)
.LBB10_14:                              # %while.cond44
                                        #   Parent Loop BB10_10 Depth=1
                                        # =>  This Inner Loop Header: Depth=2
	movq	-8(%rbp), %rax
	cmpl	$7, 80(%rax)
	jle	.LBB10_16
# %bb.15:                               # %while.body47
                                        #   in Loop: Header=BB10_14 Depth=2
	movq	-8(%rbp), %rax
	movl	80(%rax), %ecx
	subl	$8, %ecx
	movl	%ecx, 80(%rax)
	movq	-8(%rbp), %rax
	movl	88(%rax), %ecx
	addl	$1, %ecx
	movl	%ecx, 88(%rax)
	jmp	.LBB10_14
.LBB10_16:                              # %while.end
                                        #   in Loop: Header=BB10_10 Depth=1
	jmp	.LBB10_17
.LBB10_17:                              # %if.end51
                                        #   in Loop: Header=BB10_10 Depth=1
	jmp	.LBB10_18
.LBB10_18:                              # %while.cond52
                                        #   Parent Loop BB10_10 Depth=1
                                        # =>  This Loop Header: Depth=2
                                        #       Child Loop BB10_21 Depth 3
	movq	-8(%rbp), %rax
	cmpl	$0, 16(%rax)
	jbe	.LBB10_25
# %bb.19:                               # %while.body55
                                        #   in Loop: Header=BB10_18 Depth=2
	movq	-8(%rbp), %rax
	movl	16(%rax), %ecx
	addl	$-1, %ecx
	movl	%ecx, 16(%rax)
	movq	-8(%rbp), %rax
	movl	8(%rax), %ecx
	shll	$1, %ecx
	movl	%ecx, 8(%rax)
	movq	-8(%rbp), %rax
	movl	8(%rax), %ecx
	movl	%ecx, 8(%rax)
	movq	-8(%rbp), %rax
	movl	12(%rax), %ecx
	addl	$-1, %ecx
	movl	%ecx, 12(%rax)
	cmpl	$0, %ecx
	jne	.LBB10_24
# %bb.20:                               # %if.then65
                                        #   in Loop: Header=BB10_18 Depth=2
	movq	-8(%rbp), %rax
	movl	8(%rax), %eax
	movq	-8(%rbp), %rcx
	movq	24(%rcx), %rcx
	movq	-8(%rbp), %rdx
	movq	32(%rdx), %rdx
	movl	(%rdx), %esi
	movl	%esi, %edi
	addl	$1, %edi
	movl	%edi, (%rdx)
	movslq	%esi, %rdx
	movb	%al, (%rcx,%rdx)
	movq	-8(%rbp), %rax
	movl	$8, 12(%rax)
.LBB10_21:                              # %while.cond74
                                        #   Parent Loop BB10_10 Depth=1
                                        #     Parent Loop BB10_18 Depth=2
                                        # =>    This Inner Loop Header: Depth=3
	movq	-8(%rbp), %rax
	cmpl	$7, 80(%rax)
	jle	.LBB10_23
# %bb.22:                               # %while.body78
                                        #   in Loop: Header=BB10_21 Depth=3
	movq	-8(%rbp), %rax
	movl	80(%rax), %ecx
	subl	$8, %ecx
	movl	%ecx, 80(%rax)
	movq	-8(%rbp), %rax
	movl	88(%rax), %ecx
	addl	$1, %ecx
	movl	%ecx, 88(%rax)
	jmp	.LBB10_21
.LBB10_23:                              # %while.end83
                                        #   in Loop: Header=BB10_18 Depth=2
	jmp	.LBB10_24
.LBB10_24:                              # %if.end84
                                        #   in Loop: Header=BB10_18 Depth=2
	jmp	.LBB10_18
.LBB10_25:                              # %while.end85
                                        #   in Loop: Header=BB10_10 Depth=1
	movl	-12(%rbp), %eax
	subl	$512, %eax              # imm = 0x200
	movl	%eax, -12(%rbp)
	jmp	.LBB10_43
.LBB10_26:                              # %if.else87
                                        #   in Loop: Header=BB10_10 Depth=1
	cmpl	$256, -12(%rbp)         # imm = 0x100
	jae	.LBB10_41
# %bb.27:                               # %if.then90
                                        #   in Loop: Header=BB10_10 Depth=1
	movq	-8(%rbp), %rax
	movl	8(%rax), %ecx
	shll	$1, %ecx
	movl	%ecx, 8(%rax)
	movq	-8(%rbp), %rax
	movl	8(%rax), %ecx
	movl	%ecx, 8(%rax)
	movq	-8(%rbp), %rax
	movl	12(%rax), %ecx
	addl	$-1, %ecx
	movl	%ecx, 12(%rax)
	cmpl	$0, %ecx
	jne	.LBB10_32
# %bb.28:                               # %if.then98
                                        #   in Loop: Header=BB10_10 Depth=1
	movq	-8(%rbp), %rax
	movl	8(%rax), %eax
	movq	-8(%rbp), %rcx
	movq	24(%rcx), %rcx
	movq	-8(%rbp), %rdx
	movq	32(%rdx), %rdx
	movl	(%rdx), %esi
	movl	%esi, %edi
	addl	$1, %edi
	movl	%edi, (%rdx)
	movslq	%esi, %rdx
	movb	%al, (%rcx,%rdx)
	movq	-8(%rbp), %rax
	movl	$8, 12(%rax)
.LBB10_29:                              # %while.cond107
                                        #   Parent Loop BB10_10 Depth=1
                                        # =>  This Inner Loop Header: Depth=2
	movq	-8(%rbp), %rax
	cmpl	$7, 80(%rax)
	jle	.LBB10_31
# %bb.30:                               # %while.body111
                                        #   in Loop: Header=BB10_29 Depth=2
	movq	-8(%rbp), %rax
	movl	80(%rax), %ecx
	subl	$8, %ecx
	movl	%ecx, 80(%rax)
	movq	-8(%rbp), %rax
	movl	88(%rax), %ecx
	addl	$1, %ecx
	movl	%ecx, 88(%rax)
	jmp	.LBB10_29
.LBB10_31:                              # %while.end116
                                        #   in Loop: Header=BB10_10 Depth=1
	jmp	.LBB10_32
.LBB10_32:                              # %if.end117
                                        #   in Loop: Header=BB10_10 Depth=1
	jmp	.LBB10_33
.LBB10_33:                              # %while.cond118
                                        #   Parent Loop BB10_10 Depth=1
                                        # =>  This Loop Header: Depth=2
                                        #       Child Loop BB10_36 Depth 3
	movq	-8(%rbp), %rax
	cmpl	$0, 16(%rax)
	jbe	.LBB10_40
# %bb.34:                               # %while.body122
                                        #   in Loop: Header=BB10_33 Depth=2
	movq	-8(%rbp), %rax
	movl	16(%rax), %ecx
	addl	$-1, %ecx
	movl	%ecx, 16(%rax)
	movq	-8(%rbp), %rax
	movl	8(%rax), %ecx
	shll	$1, %ecx
	movl	%ecx, 8(%rax)
	movq	-8(%rbp), %rax
	movl	8(%rax), %ecx
	orl	$1, %ecx
	movl	%ecx, 8(%rax)
	movq	-8(%rbp), %rax
	movl	12(%rax), %ecx
	addl	$-1, %ecx
	movl	%ecx, 12(%rax)
	cmpl	$0, %ecx
	jne	.LBB10_39
# %bb.35:                               # %if.then133
                                        #   in Loop: Header=BB10_33 Depth=2
	movq	-8(%rbp), %rax
	movl	8(%rax), %eax
	movq	-8(%rbp), %rcx
	movq	24(%rcx), %rcx
	movq	-8(%rbp), %rdx
	movq	32(%rdx), %rdx
	movl	(%rdx), %esi
	movl	%esi, %edi
	addl	$1, %edi
	movl	%edi, (%rdx)
	movslq	%esi, %rdx
	movb	%al, (%rcx,%rdx)
	movq	-8(%rbp), %rax
	movl	$8, 12(%rax)
.LBB10_36:                              # %while.cond142
                                        #   Parent Loop BB10_10 Depth=1
                                        #     Parent Loop BB10_33 Depth=2
                                        # =>    This Inner Loop Header: Depth=3
	movq	-8(%rbp), %rax
	cmpl	$7, 80(%rax)
	jle	.LBB10_38
# %bb.37:                               # %while.body146
                                        #   in Loop: Header=BB10_36 Depth=3
	movq	-8(%rbp), %rax
	movl	80(%rax), %ecx
	subl	$8, %ecx
	movl	%ecx, 80(%rax)
	movq	-8(%rbp), %rax
	movl	88(%rax), %ecx
	addl	$1, %ecx
	movl	%ecx, 88(%rax)
	jmp	.LBB10_36
.LBB10_38:                              # %while.end151
                                        #   in Loop: Header=BB10_33 Depth=2
	jmp	.LBB10_39
.LBB10_39:                              # %if.end152
                                        #   in Loop: Header=BB10_33 Depth=2
	jmp	.LBB10_33
.LBB10_40:                              # %while.end153
                                        #   in Loop: Header=BB10_10 Depth=1
	jmp	.LBB10_42
.LBB10_41:                              # %if.else154
                                        #   in Loop: Header=BB10_10 Depth=1
	movq	-8(%rbp), %rax
	movl	16(%rax), %ecx
	addl	$1, %ecx
	movl	%ecx, 16(%rax)
	movl	-12(%rbp), %eax
	subl	$256, %eax              # imm = 0x100
	movl	%eax, -12(%rbp)
.LBB10_42:                              # %if.end158
                                        #   in Loop: Header=BB10_10 Depth=1
	jmp	.LBB10_43
.LBB10_43:                              # %if.end159
                                        #   in Loop: Header=BB10_10 Depth=1
	movl	-12(%rbp), %eax
	shll	$1, %eax
	movl	%eax, -12(%rbp)
	movl	-16(%rbp), %eax
	shll	$1, %eax
	movl	%eax, -16(%rbp)
	jmp	.LBB10_10
.LBB10_44:                              # %while.end162
	movl	-16(%rbp), %eax
	movq	-8(%rbp), %rcx
	movl	%eax, 4(%rcx)
	movl	-12(%rbp), %eax
	movq	-8(%rbp), %rcx
	movl	%eax, (%rcx)
	movq	-8(%rbp), %rax
	movl	80(%rax), %ecx
	addl	$1, %ecx
	movl	%ecx, 80(%rax)
	cmpl	$672563747, -40(%rbp)   # imm = 0x28168223
	jne	.LBB10_46
.LBB10_45:
	addq	$48, %rsp
	popq	%rbp
	.cfi_def_cfa %rsp, 8
	retq
.LBB10_46:                              # %func_exit
	.cfi_def_cfa %rbp, 16
	callq	detect_breach
	jmp	.LBB10_45
.Lfunc_end10:
	.size	biari_encode_symbol.2, .Lfunc_end10-biari_encode_symbol.2
	.cfi_endproc
                                        # -- End function
	.globl	biari_init_context.3    # -- Begin function biari_init_context.3
	.p2align	4, 0x90
	.type	biari_init_context.3,@function
biari_init_context.3:                   # @biari_init_context.3
	.cfi_startproc
# %bb.0:                                # %entry
	pushq	%rbp
	.cfi_def_cfa_offset 16
	.cfi_offset %rbp, -16
	movq	%rsp, %rbp
	.cfi_def_cfa_register %rbp
	subq	$32, %rsp
	xorl	%ecx, %ecx
	movl	$766968957, -20(%rbp)   # imm = 0x2DB7047D
	movq	%rdi, -16(%rbp)
	movq	%rsi, -32(%rbp)
	movq	-32(%rbp), %rax
	movl	(%rax), %eax
	movq	img, %rdx
	cmpl	40(%rdx), %ecx
	jle	.LBB11_2
# %bb.1:                                # %cond.true
	xorl	%ecx, %ecx
	jmp	.LBB11_3
.LBB11_2:                               # %cond.false
	movq	img, %rcx
	movl	40(%rcx), %ecx
.LBB11_3:                               # %cond.end
	imull	%ecx, %eax
	sarl	$4, %eax
	movq	-32(%rbp), %rcx
	addl	4(%rcx), %eax
	movl	%eax, -4(%rbp)
	movl	$1, %eax
	cmpl	-4(%rbp), %eax
	jle	.LBB11_5
# %bb.4:                                # %cond.true4
	movl	$1, %eax
	jmp	.LBB11_6
.LBB11_5:                               # %cond.false5
	movl	-4(%rbp), %eax
.LBB11_6:                               # %cond.end6
	cmpl	$126, %eax
	jge	.LBB11_11
# %bb.7:                                # %cond.true9
	movl	$1, %eax
	cmpl	-4(%rbp), %eax
	jle	.LBB11_9
# %bb.8:                                # %cond.true11
	movl	$1, %eax
	jmp	.LBB11_10
.LBB11_9:                               # %cond.false12
	movl	-4(%rbp), %eax
.LBB11_10:                              # %cond.end13
	jmp	.LBB11_12
.LBB11_11:                              # %cond.false15
	movl	$126, %eax
	jmp	.LBB11_12
.LBB11_12:                              # %cond.end16
	movl	%eax, -4(%rbp)
	cmpl	$64, -4(%rbp)
	jl	.LBB11_14
# %bb.13:                               # %if.then
	movl	-4(%rbp), %eax
	subl	$64, %eax
	movq	-16(%rbp), %rcx
	movw	%ax, (%rcx)
	movq	-16(%rbp), %rax
	movb	$1, 2(%rax)
	jmp	.LBB11_15
.LBB11_14:                              # %if.else
	movl	$63, %eax
	subl	-4(%rbp), %eax
	movq	-16(%rbp), %rcx
	movw	%ax, (%rcx)
	movq	-16(%rbp), %rax
	movb	$0, 2(%rax)
.LBB11_15:                              # %if.end
	movq	-16(%rbp), %rax
	movq	$0, 8(%rax)
	cmpl	$766968957, -20(%rbp)   # imm = 0x2DB7047D
	jne	.LBB11_17
.LBB11_16:
	addq	$32, %rsp
	popq	%rbp
	.cfi_def_cfa %rsp, 8
	retq
.LBB11_17:                              # %func_exit
	.cfi_def_cfa %rbp, 16
	callq	detect_breach
	jmp	.LBB11_16
.Lfunc_end11:
	.size	biari_init_context.3, .Lfunc_end11-biari_init_context.3
	.cfi_endproc
                                        # -- End function
	.globl	biari_init_context.4    # -- Begin function biari_init_context.4
	.p2align	4, 0x90
	.type	biari_init_context.4,@function
biari_init_context.4:                   # @biari_init_context.4
	.cfi_startproc
# %bb.0:                                # %entry
	pushq	%rbp
	.cfi_def_cfa_offset 16
	.cfi_offset %rbp, -16
	movq	%rsp, %rbp
	.cfi_def_cfa_register %rbp
	subq	$32, %rsp
	xorl	%ecx, %ecx
	movl	$911426221, -20(%rbp)   # imm = 0x365342AD
	movq	%rdi, -16(%rbp)
	movq	%rsi, -32(%rbp)
	movq	-32(%rbp), %rax
	movl	(%rax), %eax
	movq	img, %rdx
	cmpl	40(%rdx), %ecx
	jle	.LBB12_2
# %bb.1:                                # %cond.true
	xorl	%ecx, %ecx
	jmp	.LBB12_3
.LBB12_2:                               # %cond.false
	movq	img, %rcx
	movl	40(%rcx), %ecx
.LBB12_3:                               # %cond.end
	imull	%ecx, %eax
	sarl	$4, %eax
	movq	-32(%rbp), %rcx
	addl	4(%rcx), %eax
	movl	%eax, -4(%rbp)
	movl	$1, %eax
	cmpl	-4(%rbp), %eax
	jle	.LBB12_5
# %bb.4:                                # %cond.true4
	movl	$1, %eax
	jmp	.LBB12_6
.LBB12_5:                               # %cond.false5
	movl	-4(%rbp), %eax
.LBB12_6:                               # %cond.end6
	cmpl	$126, %eax
	jge	.LBB12_11
# %bb.7:                                # %cond.true9
	movl	$1, %eax
	cmpl	-4(%rbp), %eax
	jle	.LBB12_9
# %bb.8:                                # %cond.true11
	movl	$1, %eax
	jmp	.LBB12_10
.LBB12_9:                               # %cond.false12
	movl	-4(%rbp), %eax
.LBB12_10:                              # %cond.end13
	jmp	.LBB12_12
.LBB12_11:                              # %cond.false15
	movl	$126, %eax
	jmp	.LBB12_12
.LBB12_12:                              # %cond.end16
	movl	%eax, -4(%rbp)
	cmpl	$64, -4(%rbp)
	jl	.LBB12_14
# %bb.13:                               # %if.then
	movl	-4(%rbp), %eax
	subl	$64, %eax
	movq	-16(%rbp), %rcx
	movw	%ax, (%rcx)
	movq	-16(%rbp), %rax
	movb	$1, 2(%rax)
	jmp	.LBB12_15
.LBB12_14:                              # %if.else
	movl	$63, %eax
	subl	-4(%rbp), %eax
	movq	-16(%rbp), %rcx
	movw	%ax, (%rcx)
	movq	-16(%rbp), %rax
	movb	$0, 2(%rax)
.LBB12_15:                              # %if.end
	movq	-16(%rbp), %rax
	movq	$0, 8(%rax)
	cmpl	$911426221, -20(%rbp)   # imm = 0x365342AD
	jne	.LBB12_17
.LBB12_16:
	addq	$32, %rsp
	popq	%rbp
	.cfi_def_cfa %rsp, 8
	retq
.LBB12_17:                              # %func_exit
	.cfi_def_cfa %rbp, 16
	callq	detect_breach
	jmp	.LBB12_16
.Lfunc_end12:
	.size	biari_init_context.4, .Lfunc_end12-biari_init_context.4
	.cfi_endproc
                                        # -- End function
	.globl	biari_encode_symbol_eq_prob.5 # -- Begin function biari_encode_symbol_eq_prob.5
	.p2align	4, 0x90
	.type	biari_encode_symbol_eq_prob.5,@function
biari_encode_symbol_eq_prob.5:          # @biari_encode_symbol_eq_prob.5
	.cfi_startproc
# %bb.0:                                # %entry
	pushq	%rbp
	.cfi_def_cfa_offset 16
	.cfi_offset %rbp, -16
	movq	%rsp, %rbp
	.cfi_def_cfa_register %rbp
	subq	$32, %rsp
	movl	$1925480797, -20(%rbp)  # imm = 0x72C4815D
	movq	%rdi, -8(%rbp)
	movw	%si, -14(%rbp)
	movq	-8(%rbp), %rax
	movl	(%rax), %eax
	shll	$1, %eax
	movl	%eax, -12(%rbp)
	movswl	-14(%rbp), %eax
	cmpl	$0, %eax
	je	.LBB13_2
# %bb.1:                                # %if.then
	movq	-8(%rbp), %rax
	movl	4(%rax), %eax
	addl	-12(%rbp), %eax
	movl	%eax, -12(%rbp)
.LBB13_2:                               # %if.end
	cmpl	$1024, -12(%rbp)        # imm = 0x400
	jb	.LBB13_17
# %bb.3:                                # %if.then4
	movq	-8(%rbp), %rax
	movl	8(%rax), %ecx
	shll	$1, %ecx
	movl	%ecx, 8(%rax)
	movq	-8(%rbp), %rax
	movl	8(%rax), %ecx
	orl	$1, %ecx
	movl	%ecx, 8(%rax)
	movq	-8(%rbp), %rax
	movl	12(%rax), %ecx
	addl	$-1, %ecx
	movl	%ecx, 12(%rax)
	cmpl	$0, %ecx
	jne	.LBB13_8
# %bb.4:                                # %if.then9
	movq	-8(%rbp), %rax
	movl	8(%rax), %eax
	movq	-8(%rbp), %rcx
	movq	24(%rcx), %rcx
	movq	-8(%rbp), %rdx
	movq	32(%rdx), %rdx
	movl	(%rdx), %esi
	movl	%esi, %edi
	addl	$1, %edi
	movl	%edi, (%rdx)
	movslq	%esi, %rdx
	movb	%al, (%rcx,%rdx)
	movq	-8(%rbp), %rax
	movl	$8, 12(%rax)
.LBB13_5:                               # %while.cond
                                        # =>This Inner Loop Header: Depth=1
	movq	-8(%rbp), %rax
	cmpl	$7, 80(%rax)
	jle	.LBB13_7
# %bb.6:                                # %while.body
                                        #   in Loop: Header=BB13_5 Depth=1
	movq	-8(%rbp), %rax
	movl	80(%rax), %ecx
	subl	$8, %ecx
	movl	%ecx, 80(%rax)
	movq	-8(%rbp), %rax
	movl	88(%rax), %ecx
	addl	$1, %ecx
	movl	%ecx, 88(%rax)
	jmp	.LBB13_5
.LBB13_7:                               # %while.end
	jmp	.LBB13_8
.LBB13_8:                               # %if.end17
	jmp	.LBB13_9
.LBB13_9:                               # %while.cond18
                                        # =>This Loop Header: Depth=1
                                        #     Child Loop BB13_12 Depth 2
	movq	-8(%rbp), %rax
	cmpl	$0, 16(%rax)
	jbe	.LBB13_16
# %bb.10:                               # %while.body21
                                        #   in Loop: Header=BB13_9 Depth=1
	movq	-8(%rbp), %rax
	movl	16(%rax), %ecx
	addl	$-1, %ecx
	movl	%ecx, 16(%rax)
	movq	-8(%rbp), %rax
	movl	8(%rax), %ecx
	shll	$1, %ecx
	movl	%ecx, 8(%rax)
	movq	-8(%rbp), %rax
	movl	8(%rax), %ecx
	movl	%ecx, 8(%rax)
	movq	-8(%rbp), %rax
	movl	12(%rax), %ecx
	addl	$-1, %ecx
	movl	%ecx, 12(%rax)
	cmpl	$0, %ecx
	jne	.LBB13_15
# %bb.11:                               # %if.then31
                                        #   in Loop: Header=BB13_9 Depth=1
	movq	-8(%rbp), %rax
	movl	8(%rax), %eax
	movq	-8(%rbp), %rcx
	movq	24(%rcx), %rcx
	movq	-8(%rbp), %rdx
	movq	32(%rdx), %rdx
	movl	(%rdx), %esi
	movl	%esi, %edi
	addl	$1, %edi
	movl	%edi, (%rdx)
	movslq	%esi, %rdx
	movb	%al, (%rcx,%rdx)
	movq	-8(%rbp), %rax
	movl	$8, 12(%rax)
.LBB13_12:                              # %while.cond40
                                        #   Parent Loop BB13_9 Depth=1
                                        # =>  This Inner Loop Header: Depth=2
	movq	-8(%rbp), %rax
	cmpl	$7, 80(%rax)
	jle	.LBB13_14
# %bb.13:                               # %while.body44
                                        #   in Loop: Header=BB13_12 Depth=2
	movq	-8(%rbp), %rax
	movl	80(%rax), %ecx
	subl	$8, %ecx
	movl	%ecx, 80(%rax)
	movq	-8(%rbp), %rax
	movl	88(%rax), %ecx
	addl	$1, %ecx
	movl	%ecx, 88(%rax)
	jmp	.LBB13_12
.LBB13_14:                              # %while.end49
                                        #   in Loop: Header=BB13_9 Depth=1
	jmp	.LBB13_15
.LBB13_15:                              # %if.end50
                                        #   in Loop: Header=BB13_9 Depth=1
	jmp	.LBB13_9
.LBB13_16:                              # %while.end51
	movl	-12(%rbp), %eax
	subl	$1024, %eax             # imm = 0x400
	movl	%eax, -12(%rbp)
	jmp	.LBB13_34
.LBB13_17:                              # %if.else
	cmpl	$512, -12(%rbp)         # imm = 0x200
	jae	.LBB13_32
# %bb.18:                               # %if.then55
	movq	-8(%rbp), %rax
	movl	8(%rax), %ecx
	shll	$1, %ecx
	movl	%ecx, 8(%rax)
	movq	-8(%rbp), %rax
	movl	8(%rax), %ecx
	movl	%ecx, 8(%rax)
	movq	-8(%rbp), %rax
	movl	12(%rax), %ecx
	addl	$-1, %ecx
	movl	%ecx, 12(%rax)
	cmpl	$0, %ecx
	jne	.LBB13_23
# %bb.19:                               # %if.then63
	movq	-8(%rbp), %rax
	movl	8(%rax), %eax
	movq	-8(%rbp), %rcx
	movq	24(%rcx), %rcx
	movq	-8(%rbp), %rdx
	movq	32(%rdx), %rdx
	movl	(%rdx), %esi
	movl	%esi, %edi
	addl	$1, %edi
	movl	%edi, (%rdx)
	movslq	%esi, %rdx
	movb	%al, (%rcx,%rdx)
	movq	-8(%rbp), %rax
	movl	$8, 12(%rax)
.LBB13_20:                              # %while.cond72
                                        # =>This Inner Loop Header: Depth=1
	movq	-8(%rbp), %rax
	cmpl	$7, 80(%rax)
	jle	.LBB13_22
# %bb.21:                               # %while.body76
                                        #   in Loop: Header=BB13_20 Depth=1
	movq	-8(%rbp), %rax
	movl	80(%rax), %ecx
	subl	$8, %ecx
	movl	%ecx, 80(%rax)
	movq	-8(%rbp), %rax
	movl	88(%rax), %ecx
	addl	$1, %ecx
	movl	%ecx, 88(%rax)
	jmp	.LBB13_20
.LBB13_22:                              # %while.end81
	jmp	.LBB13_23
.LBB13_23:                              # %if.end82
	jmp	.LBB13_24
.LBB13_24:                              # %while.cond83
                                        # =>This Loop Header: Depth=1
                                        #     Child Loop BB13_27 Depth 2
	movq	-8(%rbp), %rax
	cmpl	$0, 16(%rax)
	jbe	.LBB13_31
# %bb.25:                               # %while.body87
                                        #   in Loop: Header=BB13_24 Depth=1
	movq	-8(%rbp), %rax
	movl	16(%rax), %ecx
	addl	$-1, %ecx
	movl	%ecx, 16(%rax)
	movq	-8(%rbp), %rax
	movl	8(%rax), %ecx
	shll	$1, %ecx
	movl	%ecx, 8(%rax)
	movq	-8(%rbp), %rax
	movl	8(%rax), %ecx
	orl	$1, %ecx
	movl	%ecx, 8(%rax)
	movq	-8(%rbp), %rax
	movl	12(%rax), %ecx
	addl	$-1, %ecx
	movl	%ecx, 12(%rax)
	cmpl	$0, %ecx
	jne	.LBB13_30
# %bb.26:                               # %if.then98
                                        #   in Loop: Header=BB13_24 Depth=1
	movq	-8(%rbp), %rax
	movl	8(%rax), %eax
	movq	-8(%rbp), %rcx
	movq	24(%rcx), %rcx
	movq	-8(%rbp), %rdx
	movq	32(%rdx), %rdx
	movl	(%rdx), %esi
	movl	%esi, %edi
	addl	$1, %edi
	movl	%edi, (%rdx)
	movslq	%esi, %rdx
	movb	%al, (%rcx,%rdx)
	movq	-8(%rbp), %rax
	movl	$8, 12(%rax)
.LBB13_27:                              # %while.cond107
                                        #   Parent Loop BB13_24 Depth=1
                                        # =>  This Inner Loop Header: Depth=2
	movq	-8(%rbp), %rax
	cmpl	$7, 80(%rax)
	jle	.LBB13_29
# %bb.28:                               # %while.body111
                                        #   in Loop: Header=BB13_27 Depth=2
	movq	-8(%rbp), %rax
	movl	80(%rax), %ecx
	subl	$8, %ecx
	movl	%ecx, 80(%rax)
	movq	-8(%rbp), %rax
	movl	88(%rax), %ecx
	addl	$1, %ecx
	movl	%ecx, 88(%rax)
	jmp	.LBB13_27
.LBB13_29:                              # %while.end116
                                        #   in Loop: Header=BB13_24 Depth=1
	jmp	.LBB13_30
.LBB13_30:                              # %if.end117
                                        #   in Loop: Header=BB13_24 Depth=1
	jmp	.LBB13_24
.LBB13_31:                              # %while.end118
	jmp	.LBB13_33
.LBB13_32:                              # %if.else119
	movq	-8(%rbp), %rax
	movl	16(%rax), %ecx
	addl	$1, %ecx
	movl	%ecx, 16(%rax)
	movl	-12(%rbp), %eax
	subl	$512, %eax              # imm = 0x200
	movl	%eax, -12(%rbp)
.LBB13_33:                              # %if.end123
	jmp	.LBB13_34
.LBB13_34:                              # %if.end124
	movl	-12(%rbp), %eax
	movq	-8(%rbp), %rcx
	movl	%eax, (%rcx)
	movq	-8(%rbp), %rax
	movl	80(%rax), %ecx
	addl	$1, %ecx
	movl	%ecx, 80(%rax)
	cmpl	$1925480797, -20(%rbp)  # imm = 0x72C4815D
	jne	.LBB13_36
.LBB13_35:
	addq	$32, %rsp
	popq	%rbp
	.cfi_def_cfa %rsp, 8
	retq
.LBB13_36:                              # %func_exit
	.cfi_def_cfa %rbp, 16
	callq	detect_breach
	jmp	.LBB13_35
.Lfunc_end13:
	.size	biari_encode_symbol_eq_prob.5, .Lfunc_end13-biari_encode_symbol_eq_prob.5
	.cfi_endproc
                                        # -- End function
	.globl	biari_init_context.6    # -- Begin function biari_init_context.6
	.p2align	4, 0x90
	.type	biari_init_context.6,@function
biari_init_context.6:                   # @biari_init_context.6
	.cfi_startproc
# %bb.0:                                # %entry
	pushq	%rbp
	.cfi_def_cfa_offset 16
	.cfi_offset %rbp, -16
	movq	%rsp, %rbp
	.cfi_def_cfa_register %rbp
	subq	$32, %rsp
	xorl	%ecx, %ecx
	movl	$675056062, -20(%rbp)   # imm = 0x283C89BE
	movq	%rdi, -16(%rbp)
	movq	%rsi, -32(%rbp)
	movq	-32(%rbp), %rax
	movl	(%rax), %eax
	movq	img, %rdx
	cmpl	40(%rdx), %ecx
	jle	.LBB14_2
# %bb.1:                                # %cond.true
	xorl	%ecx, %ecx
	jmp	.LBB14_3
.LBB14_2:                               # %cond.false
	movq	img, %rcx
	movl	40(%rcx), %ecx
.LBB14_3:                               # %cond.end
	imull	%ecx, %eax
	sarl	$4, %eax
	movq	-32(%rbp), %rcx
	addl	4(%rcx), %eax
	movl	%eax, -4(%rbp)
	movl	$1, %eax
	cmpl	-4(%rbp), %eax
	jle	.LBB14_5
# %bb.4:                                # %cond.true4
	movl	$1, %eax
	jmp	.LBB14_6
.LBB14_5:                               # %cond.false5
	movl	-4(%rbp), %eax
.LBB14_6:                               # %cond.end6
	cmpl	$126, %eax
	jge	.LBB14_11
# %bb.7:                                # %cond.true9
	movl	$1, %eax
	cmpl	-4(%rbp), %eax
	jle	.LBB14_9
# %bb.8:                                # %cond.true11
	movl	$1, %eax
	jmp	.LBB14_10
.LBB14_9:                               # %cond.false12
	movl	-4(%rbp), %eax
.LBB14_10:                              # %cond.end13
	jmp	.LBB14_12
.LBB14_11:                              # %cond.false15
	movl	$126, %eax
	jmp	.LBB14_12
.LBB14_12:                              # %cond.end16
	movl	%eax, -4(%rbp)
	cmpl	$64, -4(%rbp)
	jl	.LBB14_14
# %bb.13:                               # %if.then
	movl	-4(%rbp), %eax
	subl	$64, %eax
	movq	-16(%rbp), %rcx
	movw	%ax, (%rcx)
	movq	-16(%rbp), %rax
	movb	$1, 2(%rax)
	jmp	.LBB14_15
.LBB14_14:                              # %if.else
	movl	$63, %eax
	subl	-4(%rbp), %eax
	movq	-16(%rbp), %rcx
	movw	%ax, (%rcx)
	movq	-16(%rbp), %rax
	movb	$0, 2(%rax)
.LBB14_15:                              # %if.end
	movq	-16(%rbp), %rax
	movq	$0, 8(%rax)
	cmpl	$675056062, -20(%rbp)   # imm = 0x283C89BE
	jne	.LBB14_17
.LBB14_16:
	addq	$32, %rsp
	popq	%rbp
	.cfi_def_cfa %rsp, 8
	retq
.LBB14_17:                              # %func_exit
	.cfi_def_cfa %rbp, 16
	callq	detect_breach
	jmp	.LBB14_16
.Lfunc_end14:
	.size	biari_init_context.6, .Lfunc_end14-biari_init_context.6
	.cfi_endproc
                                        # -- End function
	.globl	arienco_start_encoding.7 # -- Begin function arienco_start_encoding.7
	.p2align	4, 0x90
	.type	arienco_start_encoding.7,@function
arienco_start_encoding.7:               # @arienco_start_encoding.7
	.cfi_startproc
# %bb.0:                                # %entry
	pushq	%rbp
	.cfi_def_cfa_offset 16
	.cfi_offset %rbp, -16
	movq	%rsp, %rbp
	.cfi_def_cfa_register %rbp
	subq	$48, %rsp
	movl	$1694060216, -12(%rbp)  # imm = 0x64F94EB8
	movq	%rdi, -8(%rbp)
	movq	%rsi, -32(%rbp)
	movq	%rdx, -24(%rbp)
	movl	%ecx, -36(%rbp)
	movq	-8(%rbp), %rax
	movl	$0, (%rax)
	movq	-8(%rbp), %rax
	movl	$0, 16(%rax)
	movq	-8(%rbp), %rax
	movl	$0, 8(%rax)
	movq	-8(%rbp), %rax
	movl	$9, 12(%rax)
	movq	-32(%rbp), %rax
	movq	-8(%rbp), %rcx
	movq	%rax, 24(%rcx)
	movq	-24(%rbp), %rax
	movq	-8(%rbp), %rcx
	movq	%rax, 32(%rcx)
	movq	-8(%rbp), %rax
	movl	$510, 4(%rax)           # imm = 0x1FE
	movq	-8(%rbp), %rax
	movl	$0, 80(%rax)
	movq	-24(%rbp), %rax
	movl	(%rax), %eax
	movq	-8(%rbp), %rcx
	movl	%eax, 96(%rcx)
	movq	-8(%rbp), %rax
	movl	$0, 88(%rax)
	cmpl	$1694060216, -12(%rbp)  # imm = 0x64F94EB8
	jne	.LBB15_2
.LBB15_1:
	addq	$48, %rsp
	popq	%rbp
	.cfi_def_cfa %rsp, 8
	retq
.LBB15_2:                               # %func_exit
	.cfi_def_cfa %rbp, 16
	callq	detect_breach
	jmp	.LBB15_1
.Lfunc_end15:
	.size	arienco_start_encoding.7, .Lfunc_end15-arienco_start_encoding.7
	.cfi_endproc
                                        # -- End function
	.globl	biari_encode_symbol_eq_prob.8 # -- Begin function biari_encode_symbol_eq_prob.8
	.p2align	4, 0x90
	.type	biari_encode_symbol_eq_prob.8,@function
biari_encode_symbol_eq_prob.8:          # @biari_encode_symbol_eq_prob.8
	.cfi_startproc
# %bb.0:                                # %entry
	pushq	%rbp
	.cfi_def_cfa_offset 16
	.cfi_offset %rbp, -16
	movq	%rsp, %rbp
	.cfi_def_cfa_register %rbp
	subq	$32, %rsp
	movl	$1621309201, -20(%rbp)  # imm = 0x60A33711
	movq	%rdi, -8(%rbp)
	movw	%si, -14(%rbp)
	movq	-8(%rbp), %rax
	movl	(%rax), %eax
	shll	$1, %eax
	movl	%eax, -12(%rbp)
	movswl	-14(%rbp), %eax
	cmpl	$0, %eax
	je	.LBB16_2
# %bb.1:                                # %if.then
	movq	-8(%rbp), %rax
	movl	4(%rax), %eax
	addl	-12(%rbp), %eax
	movl	%eax, -12(%rbp)
.LBB16_2:                               # %if.end
	cmpl	$1024, -12(%rbp)        # imm = 0x400
	jb	.LBB16_17
# %bb.3:                                # %if.then4
	movq	-8(%rbp), %rax
	movl	8(%rax), %ecx
	shll	$1, %ecx
	movl	%ecx, 8(%rax)
	movq	-8(%rbp), %rax
	movl	8(%rax), %ecx
	orl	$1, %ecx
	movl	%ecx, 8(%rax)
	movq	-8(%rbp), %rax
	movl	12(%rax), %ecx
	addl	$-1, %ecx
	movl	%ecx, 12(%rax)
	cmpl	$0, %ecx
	jne	.LBB16_8
# %bb.4:                                # %if.then9
	movq	-8(%rbp), %rax
	movl	8(%rax), %eax
	movq	-8(%rbp), %rcx
	movq	24(%rcx), %rcx
	movq	-8(%rbp), %rdx
	movq	32(%rdx), %rdx
	movl	(%rdx), %esi
	movl	%esi, %edi
	addl	$1, %edi
	movl	%edi, (%rdx)
	movslq	%esi, %rdx
	movb	%al, (%rcx,%rdx)
	movq	-8(%rbp), %rax
	movl	$8, 12(%rax)
.LBB16_5:                               # %while.cond
                                        # =>This Inner Loop Header: Depth=1
	movq	-8(%rbp), %rax
	cmpl	$7, 80(%rax)
	jle	.LBB16_7
# %bb.6:                                # %while.body
                                        #   in Loop: Header=BB16_5 Depth=1
	movq	-8(%rbp), %rax
	movl	80(%rax), %ecx
	subl	$8, %ecx
	movl	%ecx, 80(%rax)
	movq	-8(%rbp), %rax
	movl	88(%rax), %ecx
	addl	$1, %ecx
	movl	%ecx, 88(%rax)
	jmp	.LBB16_5
.LBB16_7:                               # %while.end
	jmp	.LBB16_8
.LBB16_8:                               # %if.end17
	jmp	.LBB16_9
.LBB16_9:                               # %while.cond18
                                        # =>This Loop Header: Depth=1
                                        #     Child Loop BB16_12 Depth 2
	movq	-8(%rbp), %rax
	cmpl	$0, 16(%rax)
	jbe	.LBB16_16
# %bb.10:                               # %while.body21
                                        #   in Loop: Header=BB16_9 Depth=1
	movq	-8(%rbp), %rax
	movl	16(%rax), %ecx
	addl	$-1, %ecx
	movl	%ecx, 16(%rax)
	movq	-8(%rbp), %rax
	movl	8(%rax), %ecx
	shll	$1, %ecx
	movl	%ecx, 8(%rax)
	movq	-8(%rbp), %rax
	movl	8(%rax), %ecx
	movl	%ecx, 8(%rax)
	movq	-8(%rbp), %rax
	movl	12(%rax), %ecx
	addl	$-1, %ecx
	movl	%ecx, 12(%rax)
	cmpl	$0, %ecx
	jne	.LBB16_15
# %bb.11:                               # %if.then31
                                        #   in Loop: Header=BB16_9 Depth=1
	movq	-8(%rbp), %rax
	movl	8(%rax), %eax
	movq	-8(%rbp), %rcx
	movq	24(%rcx), %rcx
	movq	-8(%rbp), %rdx
	movq	32(%rdx), %rdx
	movl	(%rdx), %esi
	movl	%esi, %edi
	addl	$1, %edi
	movl	%edi, (%rdx)
	movslq	%esi, %rdx
	movb	%al, (%rcx,%rdx)
	movq	-8(%rbp), %rax
	movl	$8, 12(%rax)
.LBB16_12:                              # %while.cond40
                                        #   Parent Loop BB16_9 Depth=1
                                        # =>  This Inner Loop Header: Depth=2
	movq	-8(%rbp), %rax
	cmpl	$7, 80(%rax)
	jle	.LBB16_14
# %bb.13:                               # %while.body44
                                        #   in Loop: Header=BB16_12 Depth=2
	movq	-8(%rbp), %rax
	movl	80(%rax), %ecx
	subl	$8, %ecx
	movl	%ecx, 80(%rax)
	movq	-8(%rbp), %rax
	movl	88(%rax), %ecx
	addl	$1, %ecx
	movl	%ecx, 88(%rax)
	jmp	.LBB16_12
.LBB16_14:                              # %while.end49
                                        #   in Loop: Header=BB16_9 Depth=1
	jmp	.LBB16_15
.LBB16_15:                              # %if.end50
                                        #   in Loop: Header=BB16_9 Depth=1
	jmp	.LBB16_9
.LBB16_16:                              # %while.end51
	movl	-12(%rbp), %eax
	subl	$1024, %eax             # imm = 0x400
	movl	%eax, -12(%rbp)
	jmp	.LBB16_34
.LBB16_17:                              # %if.else
	cmpl	$512, -12(%rbp)         # imm = 0x200
	jae	.LBB16_32
# %bb.18:                               # %if.then55
	movq	-8(%rbp), %rax
	movl	8(%rax), %ecx
	shll	$1, %ecx
	movl	%ecx, 8(%rax)
	movq	-8(%rbp), %rax
	movl	8(%rax), %ecx
	movl	%ecx, 8(%rax)
	movq	-8(%rbp), %rax
	movl	12(%rax), %ecx
	addl	$-1, %ecx
	movl	%ecx, 12(%rax)
	cmpl	$0, %ecx
	jne	.LBB16_23
# %bb.19:                               # %if.then63
	movq	-8(%rbp), %rax
	movl	8(%rax), %eax
	movq	-8(%rbp), %rcx
	movq	24(%rcx), %rcx
	movq	-8(%rbp), %rdx
	movq	32(%rdx), %rdx
	movl	(%rdx), %esi
	movl	%esi, %edi
	addl	$1, %edi
	movl	%edi, (%rdx)
	movslq	%esi, %rdx
	movb	%al, (%rcx,%rdx)
	movq	-8(%rbp), %rax
	movl	$8, 12(%rax)
.LBB16_20:                              # %while.cond72
                                        # =>This Inner Loop Header: Depth=1
	movq	-8(%rbp), %rax
	cmpl	$7, 80(%rax)
	jle	.LBB16_22
# %bb.21:                               # %while.body76
                                        #   in Loop: Header=BB16_20 Depth=1
	movq	-8(%rbp), %rax
	movl	80(%rax), %ecx
	subl	$8, %ecx
	movl	%ecx, 80(%rax)
	movq	-8(%rbp), %rax
	movl	88(%rax), %ecx
	addl	$1, %ecx
	movl	%ecx, 88(%rax)
	jmp	.LBB16_20
.LBB16_22:                              # %while.end81
	jmp	.LBB16_23
.LBB16_23:                              # %if.end82
	jmp	.LBB16_24
.LBB16_24:                              # %while.cond83
                                        # =>This Loop Header: Depth=1
                                        #     Child Loop BB16_27 Depth 2
	movq	-8(%rbp), %rax
	cmpl	$0, 16(%rax)
	jbe	.LBB16_31
# %bb.25:                               # %while.body87
                                        #   in Loop: Header=BB16_24 Depth=1
	movq	-8(%rbp), %rax
	movl	16(%rax), %ecx
	addl	$-1, %ecx
	movl	%ecx, 16(%rax)
	movq	-8(%rbp), %rax
	movl	8(%rax), %ecx
	shll	$1, %ecx
	movl	%ecx, 8(%rax)
	movq	-8(%rbp), %rax
	movl	8(%rax), %ecx
	orl	$1, %ecx
	movl	%ecx, 8(%rax)
	movq	-8(%rbp), %rax
	movl	12(%rax), %ecx
	addl	$-1, %ecx
	movl	%ecx, 12(%rax)
	cmpl	$0, %ecx
	jne	.LBB16_30
# %bb.26:                               # %if.then98
                                        #   in Loop: Header=BB16_24 Depth=1
	movq	-8(%rbp), %rax
	movl	8(%rax), %eax
	movq	-8(%rbp), %rcx
	movq	24(%rcx), %rcx
	movq	-8(%rbp), %rdx
	movq	32(%rdx), %rdx
	movl	(%rdx), %esi
	movl	%esi, %edi
	addl	$1, %edi
	movl	%edi, (%rdx)
	movslq	%esi, %rdx
	movb	%al, (%rcx,%rdx)
	movq	-8(%rbp), %rax
	movl	$8, 12(%rax)
.LBB16_27:                              # %while.cond107
                                        #   Parent Loop BB16_24 Depth=1
                                        # =>  This Inner Loop Header: Depth=2
	movq	-8(%rbp), %rax
	cmpl	$7, 80(%rax)
	jle	.LBB16_29
# %bb.28:                               # %while.body111
                                        #   in Loop: Header=BB16_27 Depth=2
	movq	-8(%rbp), %rax
	movl	80(%rax), %ecx
	subl	$8, %ecx
	movl	%ecx, 80(%rax)
	movq	-8(%rbp), %rax
	movl	88(%rax), %ecx
	addl	$1, %ecx
	movl	%ecx, 88(%rax)
	jmp	.LBB16_27
.LBB16_29:                              # %while.end116
                                        #   in Loop: Header=BB16_24 Depth=1
	jmp	.LBB16_30
.LBB16_30:                              # %if.end117
                                        #   in Loop: Header=BB16_24 Depth=1
	jmp	.LBB16_24
.LBB16_31:                              # %while.end118
	jmp	.LBB16_33
.LBB16_32:                              # %if.else119
	movq	-8(%rbp), %rax
	movl	16(%rax), %ecx
	addl	$1, %ecx
	movl	%ecx, 16(%rax)
	movl	-12(%rbp), %eax
	subl	$512, %eax              # imm = 0x200
	movl	%eax, -12(%rbp)
.LBB16_33:                              # %if.end123
	jmp	.LBB16_34
.LBB16_34:                              # %if.end124
	movl	-12(%rbp), %eax
	movq	-8(%rbp), %rcx
	movl	%eax, (%rcx)
	movq	-8(%rbp), %rax
	movl	80(%rax), %ecx
	addl	$1, %ecx
	movl	%ecx, 80(%rax)
	cmpl	$1621309201, -20(%rbp)  # imm = 0x60A33711
	jne	.LBB16_36
.LBB16_35:
	addq	$32, %rsp
	popq	%rbp
	.cfi_def_cfa %rsp, 8
	retq
.LBB16_36:                              # %func_exit
	.cfi_def_cfa %rbp, 16
	callq	detect_breach
	jmp	.LBB16_35
.Lfunc_end16:
	.size	biari_encode_symbol_eq_prob.8, .Lfunc_end16-biari_encode_symbol_eq_prob.8
	.cfi_endproc
                                        # -- End function
	.globl	biari_encode_symbol.9   # -- Begin function biari_encode_symbol.9
	.p2align	4, 0x90
	.type	biari_encode_symbol.9,@function
biari_encode_symbol.9:                  # @biari_encode_symbol.9
	.cfi_startproc
# %bb.0:                                # %entry
	pushq	%rbp
	.cfi_def_cfa_offset 16
	.cfi_offset %rbp, -16
	movq	%rsp, %rbp
	.cfi_def_cfa_register %rbp
	subq	$48, %rsp
	movl	$2055534936, -40(%rbp)  # imm = 0x7A84F958
	movq	%rdi, -8(%rbp)
	movw	%si, -18(%rbp)
	movq	%rdx, -32(%rbp)
	movq	-8(%rbp), %rax
	movl	4(%rax), %eax
	movl	%eax, -16(%rbp)
	movq	-8(%rbp), %rax
	movl	(%rax), %eax
	movl	%eax, -12(%rbp)
	movq	-32(%rbp), %rax
	movzwl	(%rax), %eax
	shlq	$2, %rax
	movabsq	$rLPS_table_64x4, %rcx
	addq	%rax, %rcx
	movl	-16(%rbp), %eax
	shrl	$6, %eax
	andl	$3, %eax
	movl	%eax, %eax
	movzbl	(%rcx,%rax), %eax
	movl	%eax, -36(%rbp)
	cmpl	$0, cabac_encoding
	je	.LBB17_2
# %bb.1:                                # %if.then
	movq	-32(%rbp), %rax
	movq	8(%rax), %rcx
	addq	$1, %rcx
	movq	%rcx, 8(%rax)
.LBB17_2:                               # %if.end
	movswl	-18(%rbp), %eax
	cmpl	$0, %eax
	je	.LBB17_4
# %bb.3:                                # %if.then5
	movw	$1, -18(%rbp)
.LBB17_4:                               # %if.end6
	movl	-36(%rbp), %eax
	movl	-16(%rbp), %ecx
	subl	%eax, %ecx
	movl	%ecx, -16(%rbp)
	movswl	-18(%rbp), %eax
	movq	-32(%rbp), %rcx
	movzbl	2(%rcx), %ecx
	cmpl	%ecx, %eax
	je	.LBB17_8
# %bb.5:                                # %if.then11
	movl	-16(%rbp), %eax
	addl	-12(%rbp), %eax
	movl	%eax, -12(%rbp)
	movl	-36(%rbp), %eax
	movl	%eax, -16(%rbp)
	movq	-32(%rbp), %rax
	cmpw	$0, (%rax)
	jne	.LBB17_7
# %bb.6:                                # %if.then14
	movq	-32(%rbp), %rax
	movzbl	2(%rax), %eax
	xorl	$1, %eax
	movq	-32(%rbp), %rcx
	movb	%al, 2(%rcx)
.LBB17_7:                               # %if.end19
	movq	-32(%rbp), %rax
	movzwl	(%rax), %eax
	movw	AC_next_state_LPS_64(,%rax,2), %ax
	movq	-32(%rbp), %rcx
	movw	%ax, (%rcx)
	jmp	.LBB17_9
.LBB17_8:                               # %if.else
	movq	-32(%rbp), %rax
	movzwl	(%rax), %eax
	movw	AC_next_state_MPS_64(,%rax,2), %ax
	movq	-32(%rbp), %rcx
	movw	%ax, (%rcx)
.LBB17_9:                               # %if.end28
	jmp	.LBB17_10
.LBB17_10:                              # %while.cond
                                        # =>This Loop Header: Depth=1
                                        #     Child Loop BB17_14 Depth 2
                                        #     Child Loop BB17_18 Depth 2
                                        #       Child Loop BB17_21 Depth 3
                                        #     Child Loop BB17_29 Depth 2
                                        #     Child Loop BB17_33 Depth 2
                                        #       Child Loop BB17_36 Depth 3
	cmpl	$256, -16(%rbp)         # imm = 0x100
	jae	.LBB17_44
# %bb.11:                               # %while.body
                                        #   in Loop: Header=BB17_10 Depth=1
	cmpl	$512, -12(%rbp)         # imm = 0x200
	jb	.LBB17_26
# %bb.12:                               # %if.then33
                                        #   in Loop: Header=BB17_10 Depth=1
	movq	-8(%rbp), %rax
	movl	8(%rax), %ecx
	shll	$1, %ecx
	movl	%ecx, 8(%rax)
	movq	-8(%rbp), %rax
	movl	8(%rax), %ecx
	orl	$1, %ecx
	movl	%ecx, 8(%rax)
	movq	-8(%rbp), %rax
	movl	12(%rax), %ecx
	addl	$-1, %ecx
	movl	%ecx, 12(%rax)
	cmpl	$0, %ecx
	jne	.LBB17_17
# %bb.13:                               # %if.then37
                                        #   in Loop: Header=BB17_10 Depth=1
	movq	-8(%rbp), %rax
	movl	8(%rax), %eax
	movq	-8(%rbp), %rcx
	movq	24(%rcx), %rcx
	movq	-8(%rbp), %rdx
	movq	32(%rdx), %rdx
	movl	(%rdx), %esi
	movl	%esi, %edi
	addl	$1, %edi
	movl	%edi, (%rdx)
	movslq	%esi, %rdx
	movb	%al, (%rcx,%rdx)
	movq	-8(%rbp), %rax
	movl	$8, 12(%rax)
.LBB17_14:                              # %while.cond44
                                        #   Parent Loop BB17_10 Depth=1
                                        # =>  This Inner Loop Header: Depth=2
	movq	-8(%rbp), %rax
	cmpl	$7, 80(%rax)
	jle	.LBB17_16
# %bb.15:                               # %while.body47
                                        #   in Loop: Header=BB17_14 Depth=2
	movq	-8(%rbp), %rax
	movl	80(%rax), %ecx
	subl	$8, %ecx
	movl	%ecx, 80(%rax)
	movq	-8(%rbp), %rax
	movl	88(%rax), %ecx
	addl	$1, %ecx
	movl	%ecx, 88(%rax)
	jmp	.LBB17_14
.LBB17_16:                              # %while.end
                                        #   in Loop: Header=BB17_10 Depth=1
	jmp	.LBB17_17
.LBB17_17:                              # %if.end51
                                        #   in Loop: Header=BB17_10 Depth=1
	jmp	.LBB17_18
.LBB17_18:                              # %while.cond52
                                        #   Parent Loop BB17_10 Depth=1
                                        # =>  This Loop Header: Depth=2
                                        #       Child Loop BB17_21 Depth 3
	movq	-8(%rbp), %rax
	cmpl	$0, 16(%rax)
	jbe	.LBB17_25
# %bb.19:                               # %while.body55
                                        #   in Loop: Header=BB17_18 Depth=2
	movq	-8(%rbp), %rax
	movl	16(%rax), %ecx
	addl	$-1, %ecx
	movl	%ecx, 16(%rax)
	movq	-8(%rbp), %rax
	movl	8(%rax), %ecx
	shll	$1, %ecx
	movl	%ecx, 8(%rax)
	movq	-8(%rbp), %rax
	movl	8(%rax), %ecx
	movl	%ecx, 8(%rax)
	movq	-8(%rbp), %rax
	movl	12(%rax), %ecx
	addl	$-1, %ecx
	movl	%ecx, 12(%rax)
	cmpl	$0, %ecx
	jne	.LBB17_24
# %bb.20:                               # %if.then65
                                        #   in Loop: Header=BB17_18 Depth=2
	movq	-8(%rbp), %rax
	movl	8(%rax), %eax
	movq	-8(%rbp), %rcx
	movq	24(%rcx), %rcx
	movq	-8(%rbp), %rdx
	movq	32(%rdx), %rdx
	movl	(%rdx), %esi
	movl	%esi, %edi
	addl	$1, %edi
	movl	%edi, (%rdx)
	movslq	%esi, %rdx
	movb	%al, (%rcx,%rdx)
	movq	-8(%rbp), %rax
	movl	$8, 12(%rax)
.LBB17_21:                              # %while.cond74
                                        #   Parent Loop BB17_10 Depth=1
                                        #     Parent Loop BB17_18 Depth=2
                                        # =>    This Inner Loop Header: Depth=3
	movq	-8(%rbp), %rax
	cmpl	$7, 80(%rax)
	jle	.LBB17_23
# %bb.22:                               # %while.body78
                                        #   in Loop: Header=BB17_21 Depth=3
	movq	-8(%rbp), %rax
	movl	80(%rax), %ecx
	subl	$8, %ecx
	movl	%ecx, 80(%rax)
	movq	-8(%rbp), %rax
	movl	88(%rax), %ecx
	addl	$1, %ecx
	movl	%ecx, 88(%rax)
	jmp	.LBB17_21
.LBB17_23:                              # %while.end83
                                        #   in Loop: Header=BB17_18 Depth=2
	jmp	.LBB17_24
.LBB17_24:                              # %if.end84
                                        #   in Loop: Header=BB17_18 Depth=2
	jmp	.LBB17_18
.LBB17_25:                              # %while.end85
                                        #   in Loop: Header=BB17_10 Depth=1
	movl	-12(%rbp), %eax
	subl	$512, %eax              # imm = 0x200
	movl	%eax, -12(%rbp)
	jmp	.LBB17_43
.LBB17_26:                              # %if.else87
                                        #   in Loop: Header=BB17_10 Depth=1
	cmpl	$256, -12(%rbp)         # imm = 0x100
	jae	.LBB17_41
# %bb.27:                               # %if.then90
                                        #   in Loop: Header=BB17_10 Depth=1
	movq	-8(%rbp), %rax
	movl	8(%rax), %ecx
	shll	$1, %ecx
	movl	%ecx, 8(%rax)
	movq	-8(%rbp), %rax
	movl	8(%rax), %ecx
	movl	%ecx, 8(%rax)
	movq	-8(%rbp), %rax
	movl	12(%rax), %ecx
	addl	$-1, %ecx
	movl	%ecx, 12(%rax)
	cmpl	$0, %ecx
	jne	.LBB17_32
# %bb.28:                               # %if.then98
                                        #   in Loop: Header=BB17_10 Depth=1
	movq	-8(%rbp), %rax
	movl	8(%rax), %eax
	movq	-8(%rbp), %rcx
	movq	24(%rcx), %rcx
	movq	-8(%rbp), %rdx
	movq	32(%rdx), %rdx
	movl	(%rdx), %esi
	movl	%esi, %edi
	addl	$1, %edi
	movl	%edi, (%rdx)
	movslq	%esi, %rdx
	movb	%al, (%rcx,%rdx)
	movq	-8(%rbp), %rax
	movl	$8, 12(%rax)
.LBB17_29:                              # %while.cond107
                                        #   Parent Loop BB17_10 Depth=1
                                        # =>  This Inner Loop Header: Depth=2
	movq	-8(%rbp), %rax
	cmpl	$7, 80(%rax)
	jle	.LBB17_31
# %bb.30:                               # %while.body111
                                        #   in Loop: Header=BB17_29 Depth=2
	movq	-8(%rbp), %rax
	movl	80(%rax), %ecx
	subl	$8, %ecx
	movl	%ecx, 80(%rax)
	movq	-8(%rbp), %rax
	movl	88(%rax), %ecx
	addl	$1, %ecx
	movl	%ecx, 88(%rax)
	jmp	.LBB17_29
.LBB17_31:                              # %while.end116
                                        #   in Loop: Header=BB17_10 Depth=1
	jmp	.LBB17_32
.LBB17_32:                              # %if.end117
                                        #   in Loop: Header=BB17_10 Depth=1
	jmp	.LBB17_33
.LBB17_33:                              # %while.cond118
                                        #   Parent Loop BB17_10 Depth=1
                                        # =>  This Loop Header: Depth=2
                                        #       Child Loop BB17_36 Depth 3
	movq	-8(%rbp), %rax
	cmpl	$0, 16(%rax)
	jbe	.LBB17_40
# %bb.34:                               # %while.body122
                                        #   in Loop: Header=BB17_33 Depth=2
	movq	-8(%rbp), %rax
	movl	16(%rax), %ecx
	addl	$-1, %ecx
	movl	%ecx, 16(%rax)
	movq	-8(%rbp), %rax
	movl	8(%rax), %ecx
	shll	$1, %ecx
	movl	%ecx, 8(%rax)
	movq	-8(%rbp), %rax
	movl	8(%rax), %ecx
	orl	$1, %ecx
	movl	%ecx, 8(%rax)
	movq	-8(%rbp), %rax
	movl	12(%rax), %ecx
	addl	$-1, %ecx
	movl	%ecx, 12(%rax)
	cmpl	$0, %ecx
	jne	.LBB17_39
# %bb.35:                               # %if.then133
                                        #   in Loop: Header=BB17_33 Depth=2
	movq	-8(%rbp), %rax
	movl	8(%rax), %eax
	movq	-8(%rbp), %rcx
	movq	24(%rcx), %rcx
	movq	-8(%rbp), %rdx
	movq	32(%rdx), %rdx
	movl	(%rdx), %esi
	movl	%esi, %edi
	addl	$1, %edi
	movl	%edi, (%rdx)
	movslq	%esi, %rdx
	movb	%al, (%rcx,%rdx)
	movq	-8(%rbp), %rax
	movl	$8, 12(%rax)
.LBB17_36:                              # %while.cond142
                                        #   Parent Loop BB17_10 Depth=1
                                        #     Parent Loop BB17_33 Depth=2
                                        # =>    This Inner Loop Header: Depth=3
	movq	-8(%rbp), %rax
	cmpl	$7, 80(%rax)
	jle	.LBB17_38
# %bb.37:                               # %while.body146
                                        #   in Loop: Header=BB17_36 Depth=3
	movq	-8(%rbp), %rax
	movl	80(%rax), %ecx
	subl	$8, %ecx
	movl	%ecx, 80(%rax)
	movq	-8(%rbp), %rax
	movl	88(%rax), %ecx
	addl	$1, %ecx
	movl	%ecx, 88(%rax)
	jmp	.LBB17_36
.LBB17_38:                              # %while.end151
                                        #   in Loop: Header=BB17_33 Depth=2
	jmp	.LBB17_39
.LBB17_39:                              # %if.end152
                                        #   in Loop: Header=BB17_33 Depth=2
	jmp	.LBB17_33
.LBB17_40:                              # %while.end153
                                        #   in Loop: Header=BB17_10 Depth=1
	jmp	.LBB17_42
.LBB17_41:                              # %if.else154
                                        #   in Loop: Header=BB17_10 Depth=1
	movq	-8(%rbp), %rax
	movl	16(%rax), %ecx
	addl	$1, %ecx
	movl	%ecx, 16(%rax)
	movl	-12(%rbp), %eax
	subl	$256, %eax              # imm = 0x100
	movl	%eax, -12(%rbp)
.LBB17_42:                              # %if.end158
                                        #   in Loop: Header=BB17_10 Depth=1
	jmp	.LBB17_43
.LBB17_43:                              # %if.end159
                                        #   in Loop: Header=BB17_10 Depth=1
	movl	-12(%rbp), %eax
	shll	$1, %eax
	movl	%eax, -12(%rbp)
	movl	-16(%rbp), %eax
	shll	$1, %eax
	movl	%eax, -16(%rbp)
	jmp	.LBB17_10
.LBB17_44:                              # %while.end162
	movl	-16(%rbp), %eax
	movq	-8(%rbp), %rcx
	movl	%eax, 4(%rcx)
	movl	-12(%rbp), %eax
	movq	-8(%rbp), %rcx
	movl	%eax, (%rcx)
	movq	-8(%rbp), %rax
	movl	80(%rax), %ecx
	addl	$1, %ecx
	movl	%ecx, 80(%rax)
	cmpl	$2055534936, -40(%rbp)  # imm = 0x7A84F958
	jne	.LBB17_46
.LBB17_45:
	addq	$48, %rsp
	popq	%rbp
	.cfi_def_cfa %rsp, 8
	retq
.LBB17_46:                              # %func_exit
	.cfi_def_cfa %rbp, 16
	callq	detect_breach
	jmp	.LBB17_45
.Lfunc_end17:
	.size	biari_encode_symbol.9, .Lfunc_end17-biari_encode_symbol.9
	.cfi_endproc
                                        # -- End function
	.globl	arienco_start_encoding.10 # -- Begin function arienco_start_encoding.10
	.p2align	4, 0x90
	.type	arienco_start_encoding.10,@function
arienco_start_encoding.10:              # @arienco_start_encoding.10
	.cfi_startproc
# %bb.0:                                # %entry
	pushq	%rbp
	.cfi_def_cfa_offset 16
	.cfi_offset %rbp, -16
	movq	%rsp, %rbp
	.cfi_def_cfa_register %rbp
	subq	$48, %rsp
	movl	$172154221, -12(%rbp)   # imm = 0xA42DD6D
	movq	%rdi, -8(%rbp)
	movq	%rsi, -32(%rbp)
	movq	%rdx, -24(%rbp)
	movl	%ecx, -36(%rbp)
	movq	-8(%rbp), %rax
	movl	$0, (%rax)
	movq	-8(%rbp), %rax
	movl	$0, 16(%rax)
	movq	-8(%rbp), %rax
	movl	$0, 8(%rax)
	movq	-8(%rbp), %rax
	movl	$9, 12(%rax)
	movq	-32(%rbp), %rax
	movq	-8(%rbp), %rcx
	movq	%rax, 24(%rcx)
	movq	-24(%rbp), %rax
	movq	-8(%rbp), %rcx
	movq	%rax, 32(%rcx)
	movq	-8(%rbp), %rax
	movl	$510, 4(%rax)           # imm = 0x1FE
	movq	-8(%rbp), %rax
	movl	$0, 80(%rax)
	movq	-24(%rbp), %rax
	movl	(%rax), %eax
	movq	-8(%rbp), %rcx
	movl	%eax, 96(%rcx)
	movq	-8(%rbp), %rax
	movl	$0, 88(%rax)
	cmpl	$172154221, -12(%rbp)   # imm = 0xA42DD6D
	jne	.LBB18_2
.LBB18_1:
	addq	$48, %rsp
	popq	%rbp
	.cfi_def_cfa %rsp, 8
	retq
.LBB18_2:                               # %func_exit
	.cfi_def_cfa %rbp, 16
	callq	detect_breach
	jmp	.LBB18_1
.Lfunc_end18:
	.size	arienco_start_encoding.10, .Lfunc_end18-arienco_start_encoding.10
	.cfi_endproc
                                        # -- End function
	.globl	biari_encode_symbol_final.11 # -- Begin function biari_encode_symbol_final.11
	.p2align	4, 0x90
	.type	biari_encode_symbol_final.11,@function
biari_encode_symbol_final.11:           # @biari_encode_symbol_final.11
	.cfi_startproc
# %bb.0:                                # %entry
	pushq	%rbp
	.cfi_def_cfa_offset 16
	.cfi_offset %rbp, -16
	movq	%rsp, %rbp
	.cfi_def_cfa_register %rbp
	subq	$32, %rsp
	movl	$1322546795, -24(%rbp)  # imm = 0x4ED4766B
	movq	%rdi, -8(%rbp)
	movw	%si, -18(%rbp)
	movq	-8(%rbp), %rax
	movl	4(%rax), %eax
	subl	$2, %eax
	movl	%eax, -16(%rbp)
	movq	-8(%rbp), %rax
	movl	(%rax), %eax
	movl	%eax, -12(%rbp)
	cmpw	$0, -18(%rbp)
	je	.LBB19_2
# %bb.1:                                # %if.then
	movl	-16(%rbp), %eax
	addl	-12(%rbp), %eax
	movl	%eax, -12(%rbp)
	movl	$2, -16(%rbp)
.LBB19_2:                               # %if.end
	jmp	.LBB19_3
.LBB19_3:                               # %while.cond
                                        # =>This Loop Header: Depth=1
                                        #     Child Loop BB19_7 Depth 2
                                        #     Child Loop BB19_11 Depth 2
                                        #       Child Loop BB19_14 Depth 3
                                        #     Child Loop BB19_22 Depth 2
                                        #     Child Loop BB19_26 Depth 2
                                        #       Child Loop BB19_29 Depth 3
	cmpl	$256, -16(%rbp)         # imm = 0x100
	jae	.LBB19_37
# %bb.4:                                # %while.body
                                        #   in Loop: Header=BB19_3 Depth=1
	cmpl	$512, -12(%rbp)         # imm = 0x200
	jb	.LBB19_19
# %bb.5:                                # %if.then2
                                        #   in Loop: Header=BB19_3 Depth=1
	movq	-8(%rbp), %rax
	movl	8(%rax), %ecx
	shll	$1, %ecx
	movl	%ecx, 8(%rax)
	movq	-8(%rbp), %rax
	movl	8(%rax), %ecx
	orl	$1, %ecx
	movl	%ecx, 8(%rax)
	movq	-8(%rbp), %rax
	movl	12(%rax), %ecx
	addl	$-1, %ecx
	movl	%ecx, 12(%rax)
	cmpl	$0, %ecx
	jne	.LBB19_10
# %bb.6:                                # %if.then5
                                        #   in Loop: Header=BB19_3 Depth=1
	movq	-8(%rbp), %rax
	movl	8(%rax), %eax
	movq	-8(%rbp), %rcx
	movq	24(%rcx), %rcx
	movq	-8(%rbp), %rdx
	movq	32(%rdx), %rdx
	movl	(%rdx), %esi
	movl	%esi, %edi
	addl	$1, %edi
	movl	%edi, (%rdx)
	movslq	%esi, %rdx
	movb	%al, (%rcx,%rdx)
	movq	-8(%rbp), %rax
	movl	$8, 12(%rax)
.LBB19_7:                               # %while.cond8
                                        #   Parent Loop BB19_3 Depth=1
                                        # =>  This Inner Loop Header: Depth=2
	movq	-8(%rbp), %rax
	cmpl	$7, 80(%rax)
	jle	.LBB19_9
# %bb.8:                                # %while.body11
                                        #   in Loop: Header=BB19_7 Depth=2
	movq	-8(%rbp), %rax
	movl	80(%rax), %ecx
	subl	$8, %ecx
	movl	%ecx, 80(%rax)
	movq	-8(%rbp), %rax
	movl	88(%rax), %ecx
	addl	$1, %ecx
	movl	%ecx, 88(%rax)
	jmp	.LBB19_7
.LBB19_9:                               # %while.end
                                        #   in Loop: Header=BB19_3 Depth=1
	jmp	.LBB19_10
.LBB19_10:                              # %if.end15
                                        #   in Loop: Header=BB19_3 Depth=1
	jmp	.LBB19_11
.LBB19_11:                              # %while.cond16
                                        #   Parent Loop BB19_3 Depth=1
                                        # =>  This Loop Header: Depth=2
                                        #       Child Loop BB19_14 Depth 3
	movq	-8(%rbp), %rax
	cmpl	$0, 16(%rax)
	jbe	.LBB19_18
# %bb.12:                               # %while.body19
                                        #   in Loop: Header=BB19_11 Depth=2
	movq	-8(%rbp), %rax
	movl	16(%rax), %ecx
	addl	$-1, %ecx
	movl	%ecx, 16(%rax)
	movq	-8(%rbp), %rax
	movl	8(%rax), %ecx
	shll	$1, %ecx
	movl	%ecx, 8(%rax)
	movq	-8(%rbp), %rax
	movl	8(%rax), %ecx
	movl	%ecx, 8(%rax)
	movq	-8(%rbp), %rax
	movl	12(%rax), %ecx
	addl	$-1, %ecx
	movl	%ecx, 12(%rax)
	cmpl	$0, %ecx
	jne	.LBB19_17
# %bb.13:                               # %if.then29
                                        #   in Loop: Header=BB19_11 Depth=2
	movq	-8(%rbp), %rax
	movl	8(%rax), %eax
	movq	-8(%rbp), %rcx
	movq	24(%rcx), %rcx
	movq	-8(%rbp), %rdx
	movq	32(%rdx), %rdx
	movl	(%rdx), %esi
	movl	%esi, %edi
	addl	$1, %edi
	movl	%edi, (%rdx)
	movslq	%esi, %rdx
	movb	%al, (%rcx,%rdx)
	movq	-8(%rbp), %rax
	movl	$8, 12(%rax)
.LBB19_14:                              # %while.cond38
                                        #   Parent Loop BB19_3 Depth=1
                                        #     Parent Loop BB19_11 Depth=2
                                        # =>    This Inner Loop Header: Depth=3
	movq	-8(%rbp), %rax
	cmpl	$7, 80(%rax)
	jle	.LBB19_16
# %bb.15:                               # %while.body42
                                        #   in Loop: Header=BB19_14 Depth=3
	movq	-8(%rbp), %rax
	movl	80(%rax), %ecx
	subl	$8, %ecx
	movl	%ecx, 80(%rax)
	movq	-8(%rbp), %rax
	movl	88(%rax), %ecx
	addl	$1, %ecx
	movl	%ecx, 88(%rax)
	jmp	.LBB19_14
.LBB19_16:                              # %while.end47
                                        #   in Loop: Header=BB19_11 Depth=2
	jmp	.LBB19_17
.LBB19_17:                              # %if.end48
                                        #   in Loop: Header=BB19_11 Depth=2
	jmp	.LBB19_11
.LBB19_18:                              # %while.end49
                                        #   in Loop: Header=BB19_3 Depth=1
	movl	-12(%rbp), %eax
	subl	$512, %eax              # imm = 0x200
	movl	%eax, -12(%rbp)
	jmp	.LBB19_36
.LBB19_19:                              # %if.else
                                        #   in Loop: Header=BB19_3 Depth=1
	cmpl	$256, -12(%rbp)         # imm = 0x100
	jae	.LBB19_34
# %bb.20:                               # %if.then53
                                        #   in Loop: Header=BB19_3 Depth=1
	movq	-8(%rbp), %rax
	movl	8(%rax), %ecx
	shll	$1, %ecx
	movl	%ecx, 8(%rax)
	movq	-8(%rbp), %rax
	movl	8(%rax), %ecx
	movl	%ecx, 8(%rax)
	movq	-8(%rbp), %rax
	movl	12(%rax), %ecx
	addl	$-1, %ecx
	movl	%ecx, 12(%rax)
	cmpl	$0, %ecx
	jne	.LBB19_25
# %bb.21:                               # %if.then61
                                        #   in Loop: Header=BB19_3 Depth=1
	movq	-8(%rbp), %rax
	movl	8(%rax), %eax
	movq	-8(%rbp), %rcx
	movq	24(%rcx), %rcx
	movq	-8(%rbp), %rdx
	movq	32(%rdx), %rdx
	movl	(%rdx), %esi
	movl	%esi, %edi
	addl	$1, %edi
	movl	%edi, (%rdx)
	movslq	%esi, %rdx
	movb	%al, (%rcx,%rdx)
	movq	-8(%rbp), %rax
	movl	$8, 12(%rax)
.LBB19_22:                              # %while.cond70
                                        #   Parent Loop BB19_3 Depth=1
                                        # =>  This Inner Loop Header: Depth=2
	movq	-8(%rbp), %rax
	cmpl	$7, 80(%rax)
	jle	.LBB19_24
# %bb.23:                               # %while.body74
                                        #   in Loop: Header=BB19_22 Depth=2
	movq	-8(%rbp), %rax
	movl	80(%rax), %ecx
	subl	$8, %ecx
	movl	%ecx, 80(%rax)
	movq	-8(%rbp), %rax
	movl	88(%rax), %ecx
	addl	$1, %ecx
	movl	%ecx, 88(%rax)
	jmp	.LBB19_22
.LBB19_24:                              # %while.end79
                                        #   in Loop: Header=BB19_3 Depth=1
	jmp	.LBB19_25
.LBB19_25:                              # %if.end80
                                        #   in Loop: Header=BB19_3 Depth=1
	jmp	.LBB19_26
.LBB19_26:                              # %while.cond81
                                        #   Parent Loop BB19_3 Depth=1
                                        # =>  This Loop Header: Depth=2
                                        #       Child Loop BB19_29 Depth 3
	movq	-8(%rbp), %rax
	cmpl	$0, 16(%rax)
	jbe	.LBB19_33
# %bb.27:                               # %while.body85
                                        #   in Loop: Header=BB19_26 Depth=2
	movq	-8(%rbp), %rax
	movl	16(%rax), %ecx
	addl	$-1, %ecx
	movl	%ecx, 16(%rax)
	movq	-8(%rbp), %rax
	movl	8(%rax), %ecx
	shll	$1, %ecx
	movl	%ecx, 8(%rax)
	movq	-8(%rbp), %rax
	movl	8(%rax), %ecx
	orl	$1, %ecx
	movl	%ecx, 8(%rax)
	movq	-8(%rbp), %rax
	movl	12(%rax), %ecx
	addl	$-1, %ecx
	movl	%ecx, 12(%rax)
	cmpl	$0, %ecx
	jne	.LBB19_32
# %bb.28:                               # %if.then96
                                        #   in Loop: Header=BB19_26 Depth=2
	movq	-8(%rbp), %rax
	movl	8(%rax), %eax
	movq	-8(%rbp), %rcx
	movq	24(%rcx), %rcx
	movq	-8(%rbp), %rdx
	movq	32(%rdx), %rdx
	movl	(%rdx), %esi
	movl	%esi, %edi
	addl	$1, %edi
	movl	%edi, (%rdx)
	movslq	%esi, %rdx
	movb	%al, (%rcx,%rdx)
	movq	-8(%rbp), %rax
	movl	$8, 12(%rax)
.LBB19_29:                              # %while.cond105
                                        #   Parent Loop BB19_3 Depth=1
                                        #     Parent Loop BB19_26 Depth=2
                                        # =>    This Inner Loop Header: Depth=3
	movq	-8(%rbp), %rax
	cmpl	$7, 80(%rax)
	jle	.LBB19_31
# %bb.30:                               # %while.body109
                                        #   in Loop: Header=BB19_29 Depth=3
	movq	-8(%rbp), %rax
	movl	80(%rax), %ecx
	subl	$8, %ecx
	movl	%ecx, 80(%rax)
	movq	-8(%rbp), %rax
	movl	88(%rax), %ecx
	addl	$1, %ecx
	movl	%ecx, 88(%rax)
	jmp	.LBB19_29
.LBB19_31:                              # %while.end114
                                        #   in Loop: Header=BB19_26 Depth=2
	jmp	.LBB19_32
.LBB19_32:                              # %if.end115
                                        #   in Loop: Header=BB19_26 Depth=2
	jmp	.LBB19_26
.LBB19_33:                              # %while.end116
                                        #   in Loop: Header=BB19_3 Depth=1
	jmp	.LBB19_35
.LBB19_34:                              # %if.else117
                                        #   in Loop: Header=BB19_3 Depth=1
	movq	-8(%rbp), %rax
	movl	16(%rax), %ecx
	addl	$1, %ecx
	movl	%ecx, 16(%rax)
	movl	-12(%rbp), %eax
	subl	$256, %eax              # imm = 0x100
	movl	%eax, -12(%rbp)
.LBB19_35:                              # %if.end121
                                        #   in Loop: Header=BB19_3 Depth=1
	jmp	.LBB19_36
.LBB19_36:                              # %if.end122
                                        #   in Loop: Header=BB19_3 Depth=1
	movl	-12(%rbp), %eax
	shll	$1, %eax
	movl	%eax, -12(%rbp)
	movl	-16(%rbp), %eax
	shll	$1, %eax
	movl	%eax, -16(%rbp)
	jmp	.LBB19_3
.LBB19_37:                              # %while.end125
	movl	-16(%rbp), %eax
	movq	-8(%rbp), %rcx
	movl	%eax, 4(%rcx)
	movl	-12(%rbp), %eax
	movq	-8(%rbp), %rcx
	movl	%eax, (%rcx)
	movq	-8(%rbp), %rax
	movl	80(%rax), %ecx
	addl	$1, %ecx
	movl	%ecx, 80(%rax)
	cmpl	$1322546795, -24(%rbp)  # imm = 0x4ED4766B
	jne	.LBB19_39
.LBB19_38:
	addq	$32, %rsp
	popq	%rbp
	.cfi_def_cfa %rsp, 8
	retq
.LBB19_39:                              # %func_exit
	.cfi_def_cfa %rbp, 16
	callq	detect_breach
	jmp	.LBB19_38
.Lfunc_end19:
	.size	biari_encode_symbol_final.11, .Lfunc_end19-biari_encode_symbol_final.11
	.cfi_endproc
                                        # -- End function
	.globl	arienco_start_encoding.12 # -- Begin function arienco_start_encoding.12
	.p2align	4, 0x90
	.type	arienco_start_encoding.12,@function
arienco_start_encoding.12:              # @arienco_start_encoding.12
	.cfi_startproc
# %bb.0:                                # %entry
	pushq	%rbp
	.cfi_def_cfa_offset 16
	.cfi_offset %rbp, -16
	movq	%rsp, %rbp
	.cfi_def_cfa_register %rbp
	subq	$48, %rsp
	movl	$1651060578, -12(%rbp)  # imm = 0x62692F62
	movq	%rdi, -8(%rbp)
	movq	%rsi, -32(%rbp)
	movq	%rdx, -24(%rbp)
	movl	%ecx, -36(%rbp)
	movq	-8(%rbp), %rax
	movl	$0, (%rax)
	movq	-8(%rbp), %rax
	movl	$0, 16(%rax)
	movq	-8(%rbp), %rax
	movl	$0, 8(%rax)
	movq	-8(%rbp), %rax
	movl	$9, 12(%rax)
	movq	-32(%rbp), %rax
	movq	-8(%rbp), %rcx
	movq	%rax, 24(%rcx)
	movq	-24(%rbp), %rax
	movq	-8(%rbp), %rcx
	movq	%rax, 32(%rcx)
	movq	-8(%rbp), %rax
	movl	$510, 4(%rax)           # imm = 0x1FE
	movq	-8(%rbp), %rax
	movl	$0, 80(%rax)
	movq	-24(%rbp), %rax
	movl	(%rax), %eax
	movq	-8(%rbp), %rcx
	movl	%eax, 96(%rcx)
	movq	-8(%rbp), %rax
	movl	$0, 88(%rax)
	cmpl	$1651060578, -12(%rbp)  # imm = 0x62692F62
	jne	.LBB20_2
.LBB20_1:
	addq	$48, %rsp
	popq	%rbp
	.cfi_def_cfa %rsp, 8
	retq
.LBB20_2:                               # %func_exit
	.cfi_def_cfa %rbp, 16
	callq	detect_breach
	jmp	.LBB20_1
.Lfunc_end20:
	.size	arienco_start_encoding.12, .Lfunc_end20-arienco_start_encoding.12
	.cfi_endproc
                                        # -- End function
	.globl	biari_encode_symbol_final.13 # -- Begin function biari_encode_symbol_final.13
	.p2align	4, 0x90
	.type	biari_encode_symbol_final.13,@function
biari_encode_symbol_final.13:           # @biari_encode_symbol_final.13
	.cfi_startproc
# %bb.0:                                # %entry
	pushq	%rbp
	.cfi_def_cfa_offset 16
	.cfi_offset %rbp, -16
	movq	%rsp, %rbp
	.cfi_def_cfa_register %rbp
	subq	$32, %rsp
	movl	$1547054311, -24(%rbp)  # imm = 0x5C362CE7
	movq	%rdi, -8(%rbp)
	movw	%si, -18(%rbp)
	movq	-8(%rbp), %rax
	movl	4(%rax), %eax
	subl	$2, %eax
	movl	%eax, -16(%rbp)
	movq	-8(%rbp), %rax
	movl	(%rax), %eax
	movl	%eax, -12(%rbp)
	cmpw	$0, -18(%rbp)
	je	.LBB21_2
# %bb.1:                                # %if.then
	movl	-16(%rbp), %eax
	addl	-12(%rbp), %eax
	movl	%eax, -12(%rbp)
	movl	$2, -16(%rbp)
.LBB21_2:                               # %if.end
	jmp	.LBB21_3
.LBB21_3:                               # %while.cond
                                        # =>This Loop Header: Depth=1
                                        #     Child Loop BB21_7 Depth 2
                                        #     Child Loop BB21_11 Depth 2
                                        #       Child Loop BB21_14 Depth 3
                                        #     Child Loop BB21_22 Depth 2
                                        #     Child Loop BB21_26 Depth 2
                                        #       Child Loop BB21_29 Depth 3
	cmpl	$256, -16(%rbp)         # imm = 0x100
	jae	.LBB21_37
# %bb.4:                                # %while.body
                                        #   in Loop: Header=BB21_3 Depth=1
	cmpl	$512, -12(%rbp)         # imm = 0x200
	jb	.LBB21_19
# %bb.5:                                # %if.then2
                                        #   in Loop: Header=BB21_3 Depth=1
	movq	-8(%rbp), %rax
	movl	8(%rax), %ecx
	shll	$1, %ecx
	movl	%ecx, 8(%rax)
	movq	-8(%rbp), %rax
	movl	8(%rax), %ecx
	orl	$1, %ecx
	movl	%ecx, 8(%rax)
	movq	-8(%rbp), %rax
	movl	12(%rax), %ecx
	addl	$-1, %ecx
	movl	%ecx, 12(%rax)
	cmpl	$0, %ecx
	jne	.LBB21_10
# %bb.6:                                # %if.then5
                                        #   in Loop: Header=BB21_3 Depth=1
	movq	-8(%rbp), %rax
	movl	8(%rax), %eax
	movq	-8(%rbp), %rcx
	movq	24(%rcx), %rcx
	movq	-8(%rbp), %rdx
	movq	32(%rdx), %rdx
	movl	(%rdx), %esi
	movl	%esi, %edi
	addl	$1, %edi
	movl	%edi, (%rdx)
	movslq	%esi, %rdx
	movb	%al, (%rcx,%rdx)
	movq	-8(%rbp), %rax
	movl	$8, 12(%rax)
.LBB21_7:                               # %while.cond8
                                        #   Parent Loop BB21_3 Depth=1
                                        # =>  This Inner Loop Header: Depth=2
	movq	-8(%rbp), %rax
	cmpl	$7, 80(%rax)
	jle	.LBB21_9
# %bb.8:                                # %while.body11
                                        #   in Loop: Header=BB21_7 Depth=2
	movq	-8(%rbp), %rax
	movl	80(%rax), %ecx
	subl	$8, %ecx
	movl	%ecx, 80(%rax)
	movq	-8(%rbp), %rax
	movl	88(%rax), %ecx
	addl	$1, %ecx
	movl	%ecx, 88(%rax)
	jmp	.LBB21_7
.LBB21_9:                               # %while.end
                                        #   in Loop: Header=BB21_3 Depth=1
	jmp	.LBB21_10
.LBB21_10:                              # %if.end15
                                        #   in Loop: Header=BB21_3 Depth=1
	jmp	.LBB21_11
.LBB21_11:                              # %while.cond16
                                        #   Parent Loop BB21_3 Depth=1
                                        # =>  This Loop Header: Depth=2
                                        #       Child Loop BB21_14 Depth 3
	movq	-8(%rbp), %rax
	cmpl	$0, 16(%rax)
	jbe	.LBB21_18
# %bb.12:                               # %while.body19
                                        #   in Loop: Header=BB21_11 Depth=2
	movq	-8(%rbp), %rax
	movl	16(%rax), %ecx
	addl	$-1, %ecx
	movl	%ecx, 16(%rax)
	movq	-8(%rbp), %rax
	movl	8(%rax), %ecx
	shll	$1, %ecx
	movl	%ecx, 8(%rax)
	movq	-8(%rbp), %rax
	movl	8(%rax), %ecx
	movl	%ecx, 8(%rax)
	movq	-8(%rbp), %rax
	movl	12(%rax), %ecx
	addl	$-1, %ecx
	movl	%ecx, 12(%rax)
	cmpl	$0, %ecx
	jne	.LBB21_17
# %bb.13:                               # %if.then29
                                        #   in Loop: Header=BB21_11 Depth=2
	movq	-8(%rbp), %rax
	movl	8(%rax), %eax
	movq	-8(%rbp), %rcx
	movq	24(%rcx), %rcx
	movq	-8(%rbp), %rdx
	movq	32(%rdx), %rdx
	movl	(%rdx), %esi
	movl	%esi, %edi
	addl	$1, %edi
	movl	%edi, (%rdx)
	movslq	%esi, %rdx
	movb	%al, (%rcx,%rdx)
	movq	-8(%rbp), %rax
	movl	$8, 12(%rax)
.LBB21_14:                              # %while.cond38
                                        #   Parent Loop BB21_3 Depth=1
                                        #     Parent Loop BB21_11 Depth=2
                                        # =>    This Inner Loop Header: Depth=3
	movq	-8(%rbp), %rax
	cmpl	$7, 80(%rax)
	jle	.LBB21_16
# %bb.15:                               # %while.body42
                                        #   in Loop: Header=BB21_14 Depth=3
	movq	-8(%rbp), %rax
	movl	80(%rax), %ecx
	subl	$8, %ecx
	movl	%ecx, 80(%rax)
	movq	-8(%rbp), %rax
	movl	88(%rax), %ecx
	addl	$1, %ecx
	movl	%ecx, 88(%rax)
	jmp	.LBB21_14
.LBB21_16:                              # %while.end47
                                        #   in Loop: Header=BB21_11 Depth=2
	jmp	.LBB21_17
.LBB21_17:                              # %if.end48
                                        #   in Loop: Header=BB21_11 Depth=2
	jmp	.LBB21_11
.LBB21_18:                              # %while.end49
                                        #   in Loop: Header=BB21_3 Depth=1
	movl	-12(%rbp), %eax
	subl	$512, %eax              # imm = 0x200
	movl	%eax, -12(%rbp)
	jmp	.LBB21_36
.LBB21_19:                              # %if.else
                                        #   in Loop: Header=BB21_3 Depth=1
	cmpl	$256, -12(%rbp)         # imm = 0x100
	jae	.LBB21_34
# %bb.20:                               # %if.then53
                                        #   in Loop: Header=BB21_3 Depth=1
	movq	-8(%rbp), %rax
	movl	8(%rax), %ecx
	shll	$1, %ecx
	movl	%ecx, 8(%rax)
	movq	-8(%rbp), %rax
	movl	8(%rax), %ecx
	movl	%ecx, 8(%rax)
	movq	-8(%rbp), %rax
	movl	12(%rax), %ecx
	addl	$-1, %ecx
	movl	%ecx, 12(%rax)
	cmpl	$0, %ecx
	jne	.LBB21_25
# %bb.21:                               # %if.then61
                                        #   in Loop: Header=BB21_3 Depth=1
	movq	-8(%rbp), %rax
	movl	8(%rax), %eax
	movq	-8(%rbp), %rcx
	movq	24(%rcx), %rcx
	movq	-8(%rbp), %rdx
	movq	32(%rdx), %rdx
	movl	(%rdx), %esi
	movl	%esi, %edi
	addl	$1, %edi
	movl	%edi, (%rdx)
	movslq	%esi, %rdx
	movb	%al, (%rcx,%rdx)
	movq	-8(%rbp), %rax
	movl	$8, 12(%rax)
.LBB21_22:                              # %while.cond70
                                        #   Parent Loop BB21_3 Depth=1
                                        # =>  This Inner Loop Header: Depth=2
	movq	-8(%rbp), %rax
	cmpl	$7, 80(%rax)
	jle	.LBB21_24
# %bb.23:                               # %while.body74
                                        #   in Loop: Header=BB21_22 Depth=2
	movq	-8(%rbp), %rax
	movl	80(%rax), %ecx
	subl	$8, %ecx
	movl	%ecx, 80(%rax)
	movq	-8(%rbp), %rax
	movl	88(%rax), %ecx
	addl	$1, %ecx
	movl	%ecx, 88(%rax)
	jmp	.LBB21_22
.LBB21_24:                              # %while.end79
                                        #   in Loop: Header=BB21_3 Depth=1
	jmp	.LBB21_25
.LBB21_25:                              # %if.end80
                                        #   in Loop: Header=BB21_3 Depth=1
	jmp	.LBB21_26
.LBB21_26:                              # %while.cond81
                                        #   Parent Loop BB21_3 Depth=1
                                        # =>  This Loop Header: Depth=2
                                        #       Child Loop BB21_29 Depth 3
	movq	-8(%rbp), %rax
	cmpl	$0, 16(%rax)
	jbe	.LBB21_33
# %bb.27:                               # %while.body85
                                        #   in Loop: Header=BB21_26 Depth=2
	movq	-8(%rbp), %rax
	movl	16(%rax), %ecx
	addl	$-1, %ecx
	movl	%ecx, 16(%rax)
	movq	-8(%rbp), %rax
	movl	8(%rax), %ecx
	shll	$1, %ecx
	movl	%ecx, 8(%rax)
	movq	-8(%rbp), %rax
	movl	8(%rax), %ecx
	orl	$1, %ecx
	movl	%ecx, 8(%rax)
	movq	-8(%rbp), %rax
	movl	12(%rax), %ecx
	addl	$-1, %ecx
	movl	%ecx, 12(%rax)
	cmpl	$0, %ecx
	jne	.LBB21_32
# %bb.28:                               # %if.then96
                                        #   in Loop: Header=BB21_26 Depth=2
	movq	-8(%rbp), %rax
	movl	8(%rax), %eax
	movq	-8(%rbp), %rcx
	movq	24(%rcx), %rcx
	movq	-8(%rbp), %rdx
	movq	32(%rdx), %rdx
	movl	(%rdx), %esi
	movl	%esi, %edi
	addl	$1, %edi
	movl	%edi, (%rdx)
	movslq	%esi, %rdx
	movb	%al, (%rcx,%rdx)
	movq	-8(%rbp), %rax
	movl	$8, 12(%rax)
.LBB21_29:                              # %while.cond105
                                        #   Parent Loop BB21_3 Depth=1
                                        #     Parent Loop BB21_26 Depth=2
                                        # =>    This Inner Loop Header: Depth=3
	movq	-8(%rbp), %rax
	cmpl	$7, 80(%rax)
	jle	.LBB21_31
# %bb.30:                               # %while.body109
                                        #   in Loop: Header=BB21_29 Depth=3
	movq	-8(%rbp), %rax
	movl	80(%rax), %ecx
	subl	$8, %ecx
	movl	%ecx, 80(%rax)
	movq	-8(%rbp), %rax
	movl	88(%rax), %ecx
	addl	$1, %ecx
	movl	%ecx, 88(%rax)
	jmp	.LBB21_29
.LBB21_31:                              # %while.end114
                                        #   in Loop: Header=BB21_26 Depth=2
	jmp	.LBB21_32
.LBB21_32:                              # %if.end115
                                        #   in Loop: Header=BB21_26 Depth=2
	jmp	.LBB21_26
.LBB21_33:                              # %while.end116
                                        #   in Loop: Header=BB21_3 Depth=1
	jmp	.LBB21_35
.LBB21_34:                              # %if.else117
                                        #   in Loop: Header=BB21_3 Depth=1
	movq	-8(%rbp), %rax
	movl	16(%rax), %ecx
	addl	$1, %ecx
	movl	%ecx, 16(%rax)
	movl	-12(%rbp), %eax
	subl	$256, %eax              # imm = 0x100
	movl	%eax, -12(%rbp)
.LBB21_35:                              # %if.end121
                                        #   in Loop: Header=BB21_3 Depth=1
	jmp	.LBB21_36
.LBB21_36:                              # %if.end122
                                        #   in Loop: Header=BB21_3 Depth=1
	movl	-12(%rbp), %eax
	shll	$1, %eax
	movl	%eax, -12(%rbp)
	movl	-16(%rbp), %eax
	shll	$1, %eax
	movl	%eax, -16(%rbp)
	jmp	.LBB21_3
.LBB21_37:                              # %while.end125
	movl	-16(%rbp), %eax
	movq	-8(%rbp), %rcx
	movl	%eax, 4(%rcx)
	movl	-12(%rbp), %eax
	movq	-8(%rbp), %rcx
	movl	%eax, (%rcx)
	movq	-8(%rbp), %rax
	movl	80(%rax), %ecx
	addl	$1, %ecx
	movl	%ecx, 80(%rax)
	cmpl	$1547054311, -24(%rbp)  # imm = 0x5C362CE7
	jne	.LBB21_39
.LBB21_38:
	addq	$32, %rsp
	popq	%rbp
	.cfi_def_cfa %rsp, 8
	retq
.LBB21_39:                              # %func_exit
	.cfi_def_cfa %rbp, 16
	callq	detect_breach
	jmp	.LBB21_38
.Lfunc_end21:
	.size	biari_encode_symbol_final.13, .Lfunc_end21-biari_encode_symbol_final.13
	.cfi_endproc
                                        # -- End function
	.globl	arienco_start_encoding.14 # -- Begin function arienco_start_encoding.14
	.p2align	4, 0x90
	.type	arienco_start_encoding.14,@function
arienco_start_encoding.14:              # @arienco_start_encoding.14
	.cfi_startproc
# %bb.0:                                # %entry
	pushq	%rbp
	.cfi_def_cfa_offset 16
	.cfi_offset %rbp, -16
	movq	%rsp, %rbp
	.cfi_def_cfa_register %rbp
	subq	$48, %rsp
	movl	$1408171550, -12(%rbp)  # imm = 0x53EEFE1E
	movq	%rdi, -8(%rbp)
	movq	%rsi, -32(%rbp)
	movq	%rdx, -24(%rbp)
	movl	%ecx, -36(%rbp)
	movq	-8(%rbp), %rax
	movl	$0, (%rax)
	movq	-8(%rbp), %rax
	movl	$0, 16(%rax)
	movq	-8(%rbp), %rax
	movl	$0, 8(%rax)
	movq	-8(%rbp), %rax
	movl	$9, 12(%rax)
	movq	-32(%rbp), %rax
	movq	-8(%rbp), %rcx
	movq	%rax, 24(%rcx)
	movq	-24(%rbp), %rax
	movq	-8(%rbp), %rcx
	movq	%rax, 32(%rcx)
	movq	-8(%rbp), %rax
	movl	$510, 4(%rax)           # imm = 0x1FE
	movq	-8(%rbp), %rax
	movl	$0, 80(%rax)
	movq	-24(%rbp), %rax
	movl	(%rax), %eax
	movq	-8(%rbp), %rcx
	movl	%eax, 96(%rcx)
	movq	-8(%rbp), %rax
	movl	$0, 88(%rax)
	cmpl	$1408171550, -12(%rbp)  # imm = 0x53EEFE1E
	jne	.LBB22_2
.LBB22_1:
	addq	$48, %rsp
	popq	%rbp
	.cfi_def_cfa %rsp, 8
	retq
.LBB22_2:                               # %func_exit
	.cfi_def_cfa %rbp, 16
	callq	detect_breach
	jmp	.LBB22_1
.Lfunc_end22:
	.size	arienco_start_encoding.14, .Lfunc_end22-arienco_start_encoding.14
	.cfi_endproc
                                        # -- End function
	.globl	biari_init_context.15   # -- Begin function biari_init_context.15
	.p2align	4, 0x90
	.type	biari_init_context.15,@function
biari_init_context.15:                  # @biari_init_context.15
	.cfi_startproc
# %bb.0:                                # %entry
	pushq	%rbp
	.cfi_def_cfa_offset 16
	.cfi_offset %rbp, -16
	movq	%rsp, %rbp
	.cfi_def_cfa_register %rbp
	subq	$32, %rsp
	xorl	%ecx, %ecx
	movl	$1951346538, -20(%rbp)  # imm = 0x744F2F6A
	movq	%rdi, -16(%rbp)
	movq	%rsi, -32(%rbp)
	movq	-32(%rbp), %rax
	movl	(%rax), %eax
	movq	img, %rdx
	cmpl	40(%rdx), %ecx
	jle	.LBB23_2
# %bb.1:                                # %cond.true
	xorl	%ecx, %ecx
	jmp	.LBB23_3
.LBB23_2:                               # %cond.false
	movq	img, %rcx
	movl	40(%rcx), %ecx
.LBB23_3:                               # %cond.end
	imull	%ecx, %eax
	sarl	$4, %eax
	movq	-32(%rbp), %rcx
	addl	4(%rcx), %eax
	movl	%eax, -4(%rbp)
	movl	$1, %eax
	cmpl	-4(%rbp), %eax
	jle	.LBB23_5
# %bb.4:                                # %cond.true4
	movl	$1, %eax
	jmp	.LBB23_6
.LBB23_5:                               # %cond.false5
	movl	-4(%rbp), %eax
.LBB23_6:                               # %cond.end6
	cmpl	$126, %eax
	jge	.LBB23_11
# %bb.7:                                # %cond.true9
	movl	$1, %eax
	cmpl	-4(%rbp), %eax
	jle	.LBB23_9
# %bb.8:                                # %cond.true11
	movl	$1, %eax
	jmp	.LBB23_10
.LBB23_9:                               # %cond.false12
	movl	-4(%rbp), %eax
.LBB23_10:                              # %cond.end13
	jmp	.LBB23_12
.LBB23_11:                              # %cond.false15
	movl	$126, %eax
	jmp	.LBB23_12
.LBB23_12:                              # %cond.end16
	movl	%eax, -4(%rbp)
	cmpl	$64, -4(%rbp)
	jl	.LBB23_14
# %bb.13:                               # %if.then
	movl	-4(%rbp), %eax
	subl	$64, %eax
	movq	-16(%rbp), %rcx
	movw	%ax, (%rcx)
	movq	-16(%rbp), %rax
	movb	$1, 2(%rax)
	jmp	.LBB23_15
.LBB23_14:                              # %if.else
	movl	$63, %eax
	subl	-4(%rbp), %eax
	movq	-16(%rbp), %rcx
	movw	%ax, (%rcx)
	movq	-16(%rbp), %rax
	movb	$0, 2(%rax)
.LBB23_15:                              # %if.end
	movq	-16(%rbp), %rax
	movq	$0, 8(%rax)
	cmpl	$1951346538, -20(%rbp)  # imm = 0x744F2F6A
	jne	.LBB23_17
.LBB23_16:
	addq	$32, %rsp
	popq	%rbp
	.cfi_def_cfa %rsp, 8
	retq
.LBB23_17:                              # %func_exit
	.cfi_def_cfa %rbp, 16
	callq	detect_breach
	jmp	.LBB23_16
.Lfunc_end23:
	.size	biari_init_context.15, .Lfunc_end23-biari_init_context.15
	.cfi_endproc
                                        # -- End function
	.globl	biari_encode_symbol_eq_prob.16 # -- Begin function biari_encode_symbol_eq_prob.16
	.p2align	4, 0x90
	.type	biari_encode_symbol_eq_prob.16,@function
biari_encode_symbol_eq_prob.16:         # @biari_encode_symbol_eq_prob.16
	.cfi_startproc
# %bb.0:                                # %entry
	pushq	%rbp
	.cfi_def_cfa_offset 16
	.cfi_offset %rbp, -16
	movq	%rsp, %rbp
	.cfi_def_cfa_register %rbp
	subq	$32, %rsp
	movl	$1798093328, -20(%rbp)  # imm = 0x6B2CBA10
	movq	%rdi, -8(%rbp)
	movw	%si, -14(%rbp)
	movq	-8(%rbp), %rax
	movl	(%rax), %eax
	shll	$1, %eax
	movl	%eax, -12(%rbp)
	movswl	-14(%rbp), %eax
	cmpl	$0, %eax
	je	.LBB24_2
# %bb.1:                                # %if.then
	movq	-8(%rbp), %rax
	movl	4(%rax), %eax
	addl	-12(%rbp), %eax
	movl	%eax, -12(%rbp)
.LBB24_2:                               # %if.end
	cmpl	$1024, -12(%rbp)        # imm = 0x400
	jb	.LBB24_17
# %bb.3:                                # %if.then4
	movq	-8(%rbp), %rax
	movl	8(%rax), %ecx
	shll	$1, %ecx
	movl	%ecx, 8(%rax)
	movq	-8(%rbp), %rax
	movl	8(%rax), %ecx
	orl	$1, %ecx
	movl	%ecx, 8(%rax)
	movq	-8(%rbp), %rax
	movl	12(%rax), %ecx
	addl	$-1, %ecx
	movl	%ecx, 12(%rax)
	cmpl	$0, %ecx
	jne	.LBB24_8
# %bb.4:                                # %if.then9
	movq	-8(%rbp), %rax
	movl	8(%rax), %eax
	movq	-8(%rbp), %rcx
	movq	24(%rcx), %rcx
	movq	-8(%rbp), %rdx
	movq	32(%rdx), %rdx
	movl	(%rdx), %esi
	movl	%esi, %edi
	addl	$1, %edi
	movl	%edi, (%rdx)
	movslq	%esi, %rdx
	movb	%al, (%rcx,%rdx)
	movq	-8(%rbp), %rax
	movl	$8, 12(%rax)
.LBB24_5:                               # %while.cond
                                        # =>This Inner Loop Header: Depth=1
	movq	-8(%rbp), %rax
	cmpl	$7, 80(%rax)
	jle	.LBB24_7
# %bb.6:                                # %while.body
                                        #   in Loop: Header=BB24_5 Depth=1
	movq	-8(%rbp), %rax
	movl	80(%rax), %ecx
	subl	$8, %ecx
	movl	%ecx, 80(%rax)
	movq	-8(%rbp), %rax
	movl	88(%rax), %ecx
	addl	$1, %ecx
	movl	%ecx, 88(%rax)
	jmp	.LBB24_5
.LBB24_7:                               # %while.end
	jmp	.LBB24_8
.LBB24_8:                               # %if.end17
	jmp	.LBB24_9
.LBB24_9:                               # %while.cond18
                                        # =>This Loop Header: Depth=1
                                        #     Child Loop BB24_12 Depth 2
	movq	-8(%rbp), %rax
	cmpl	$0, 16(%rax)
	jbe	.LBB24_16
# %bb.10:                               # %while.body21
                                        #   in Loop: Header=BB24_9 Depth=1
	movq	-8(%rbp), %rax
	movl	16(%rax), %ecx
	addl	$-1, %ecx
	movl	%ecx, 16(%rax)
	movq	-8(%rbp), %rax
	movl	8(%rax), %ecx
	shll	$1, %ecx
	movl	%ecx, 8(%rax)
	movq	-8(%rbp), %rax
	movl	8(%rax), %ecx
	movl	%ecx, 8(%rax)
	movq	-8(%rbp), %rax
	movl	12(%rax), %ecx
	addl	$-1, %ecx
	movl	%ecx, 12(%rax)
	cmpl	$0, %ecx
	jne	.LBB24_15
# %bb.11:                               # %if.then31
                                        #   in Loop: Header=BB24_9 Depth=1
	movq	-8(%rbp), %rax
	movl	8(%rax), %eax
	movq	-8(%rbp), %rcx
	movq	24(%rcx), %rcx
	movq	-8(%rbp), %rdx
	movq	32(%rdx), %rdx
	movl	(%rdx), %esi
	movl	%esi, %edi
	addl	$1, %edi
	movl	%edi, (%rdx)
	movslq	%esi, %rdx
	movb	%al, (%rcx,%rdx)
	movq	-8(%rbp), %rax
	movl	$8, 12(%rax)
.LBB24_12:                              # %while.cond40
                                        #   Parent Loop BB24_9 Depth=1
                                        # =>  This Inner Loop Header: Depth=2
	movq	-8(%rbp), %rax
	cmpl	$7, 80(%rax)
	jle	.LBB24_14
# %bb.13:                               # %while.body44
                                        #   in Loop: Header=BB24_12 Depth=2
	movq	-8(%rbp), %rax
	movl	80(%rax), %ecx
	subl	$8, %ecx
	movl	%ecx, 80(%rax)
	movq	-8(%rbp), %rax
	movl	88(%rax), %ecx
	addl	$1, %ecx
	movl	%ecx, 88(%rax)
	jmp	.LBB24_12
.LBB24_14:                              # %while.end49
                                        #   in Loop: Header=BB24_9 Depth=1
	jmp	.LBB24_15
.LBB24_15:                              # %if.end50
                                        #   in Loop: Header=BB24_9 Depth=1
	jmp	.LBB24_9
.LBB24_16:                              # %while.end51
	movl	-12(%rbp), %eax
	subl	$1024, %eax             # imm = 0x400
	movl	%eax, -12(%rbp)
	jmp	.LBB24_34
.LBB24_17:                              # %if.else
	cmpl	$512, -12(%rbp)         # imm = 0x200
	jae	.LBB24_32
# %bb.18:                               # %if.then55
	movq	-8(%rbp), %rax
	movl	8(%rax), %ecx
	shll	$1, %ecx
	movl	%ecx, 8(%rax)
	movq	-8(%rbp), %rax
	movl	8(%rax), %ecx
	movl	%ecx, 8(%rax)
	movq	-8(%rbp), %rax
	movl	12(%rax), %ecx
	addl	$-1, %ecx
	movl	%ecx, 12(%rax)
	cmpl	$0, %ecx
	jne	.LBB24_23
# %bb.19:                               # %if.then63
	movq	-8(%rbp), %rax
	movl	8(%rax), %eax
	movq	-8(%rbp), %rcx
	movq	24(%rcx), %rcx
	movq	-8(%rbp), %rdx
	movq	32(%rdx), %rdx
	movl	(%rdx), %esi
	movl	%esi, %edi
	addl	$1, %edi
	movl	%edi, (%rdx)
	movslq	%esi, %rdx
	movb	%al, (%rcx,%rdx)
	movq	-8(%rbp), %rax
	movl	$8, 12(%rax)
.LBB24_20:                              # %while.cond72
                                        # =>This Inner Loop Header: Depth=1
	movq	-8(%rbp), %rax
	cmpl	$7, 80(%rax)
	jle	.LBB24_22
# %bb.21:                               # %while.body76
                                        #   in Loop: Header=BB24_20 Depth=1
	movq	-8(%rbp), %rax
	movl	80(%rax), %ecx
	subl	$8, %ecx
	movl	%ecx, 80(%rax)
	movq	-8(%rbp), %rax
	movl	88(%rax), %ecx
	addl	$1, %ecx
	movl	%ecx, 88(%rax)
	jmp	.LBB24_20
.LBB24_22:                              # %while.end81
	jmp	.LBB24_23
.LBB24_23:                              # %if.end82
	jmp	.LBB24_24
.LBB24_24:                              # %while.cond83
                                        # =>This Loop Header: Depth=1
                                        #     Child Loop BB24_27 Depth 2
	movq	-8(%rbp), %rax
	cmpl	$0, 16(%rax)
	jbe	.LBB24_31
# %bb.25:                               # %while.body87
                                        #   in Loop: Header=BB24_24 Depth=1
	movq	-8(%rbp), %rax
	movl	16(%rax), %ecx
	addl	$-1, %ecx
	movl	%ecx, 16(%rax)
	movq	-8(%rbp), %rax
	movl	8(%rax), %ecx
	shll	$1, %ecx
	movl	%ecx, 8(%rax)
	movq	-8(%rbp), %rax
	movl	8(%rax), %ecx
	orl	$1, %ecx
	movl	%ecx, 8(%rax)
	movq	-8(%rbp), %rax
	movl	12(%rax), %ecx
	addl	$-1, %ecx
	movl	%ecx, 12(%rax)
	cmpl	$0, %ecx
	jne	.LBB24_30
# %bb.26:                               # %if.then98
                                        #   in Loop: Header=BB24_24 Depth=1
	movq	-8(%rbp), %rax
	movl	8(%rax), %eax
	movq	-8(%rbp), %rcx
	movq	24(%rcx), %rcx
	movq	-8(%rbp), %rdx
	movq	32(%rdx), %rdx
	movl	(%rdx), %esi
	movl	%esi, %edi
	addl	$1, %edi
	movl	%edi, (%rdx)
	movslq	%esi, %rdx
	movb	%al, (%rcx,%rdx)
	movq	-8(%rbp), %rax
	movl	$8, 12(%rax)
.LBB24_27:                              # %while.cond107
                                        #   Parent Loop BB24_24 Depth=1
                                        # =>  This Inner Loop Header: Depth=2
	movq	-8(%rbp), %rax
	cmpl	$7, 80(%rax)
	jle	.LBB24_29
# %bb.28:                               # %while.body111
                                        #   in Loop: Header=BB24_27 Depth=2
	movq	-8(%rbp), %rax
	movl	80(%rax), %ecx
	subl	$8, %ecx
	movl	%ecx, 80(%rax)
	movq	-8(%rbp), %rax
	movl	88(%rax), %ecx
	addl	$1, %ecx
	movl	%ecx, 88(%rax)
	jmp	.LBB24_27
.LBB24_29:                              # %while.end116
                                        #   in Loop: Header=BB24_24 Depth=1
	jmp	.LBB24_30
.LBB24_30:                              # %if.end117
                                        #   in Loop: Header=BB24_24 Depth=1
	jmp	.LBB24_24
.LBB24_31:                              # %while.end118
	jmp	.LBB24_33
.LBB24_32:                              # %if.else119
	movq	-8(%rbp), %rax
	movl	16(%rax), %ecx
	addl	$1, %ecx
	movl	%ecx, 16(%rax)
	movl	-12(%rbp), %eax
	subl	$512, %eax              # imm = 0x200
	movl	%eax, -12(%rbp)
.LBB24_33:                              # %if.end123
	jmp	.LBB24_34
.LBB24_34:                              # %if.end124
	movl	-12(%rbp), %eax
	movq	-8(%rbp), %rcx
	movl	%eax, (%rcx)
	movq	-8(%rbp), %rax
	movl	80(%rax), %ecx
	addl	$1, %ecx
	movl	%ecx, 80(%rax)
	cmpl	$1798093328, -20(%rbp)  # imm = 0x6B2CBA10
	jne	.LBB24_36
.LBB24_35:
	addq	$32, %rsp
	popq	%rbp
	.cfi_def_cfa %rsp, 8
	retq
.LBB24_36:                              # %func_exit
	.cfi_def_cfa %rbp, 16
	callq	detect_breach
	jmp	.LBB24_35
.Lfunc_end24:
	.size	biari_encode_symbol_eq_prob.16, .Lfunc_end24-biari_encode_symbol_eq_prob.16
	.cfi_endproc
                                        # -- End function
	.globl	biari_init_context.17   # -- Begin function biari_init_context.17
	.p2align	4, 0x90
	.type	biari_init_context.17,@function
biari_init_context.17:                  # @biari_init_context.17
	.cfi_startproc
# %bb.0:                                # %entry
	pushq	%rbp
	.cfi_def_cfa_offset 16
	.cfi_offset %rbp, -16
	movq	%rsp, %rbp
	.cfi_def_cfa_register %rbp
	subq	$32, %rsp
	xorl	%ecx, %ecx
	movl	$717481821, -20(%rbp)   # imm = 0x2AC3E75D
	movq	%rdi, -16(%rbp)
	movq	%rsi, -32(%rbp)
	movq	-32(%rbp), %rax
	movl	(%rax), %eax
	movq	img, %rdx
	cmpl	40(%rdx), %ecx
	jle	.LBB25_2
# %bb.1:                                # %cond.true
	xorl	%ecx, %ecx
	jmp	.LBB25_3
.LBB25_2:                               # %cond.false
	movq	img, %rcx
	movl	40(%rcx), %ecx
.LBB25_3:                               # %cond.end
	imull	%ecx, %eax
	sarl	$4, %eax
	movq	-32(%rbp), %rcx
	addl	4(%rcx), %eax
	movl	%eax, -4(%rbp)
	movl	$1, %eax
	cmpl	-4(%rbp), %eax
	jle	.LBB25_5
# %bb.4:                                # %cond.true4
	movl	$1, %eax
	jmp	.LBB25_6
.LBB25_5:                               # %cond.false5
	movl	-4(%rbp), %eax
.LBB25_6:                               # %cond.end6
	cmpl	$126, %eax
	jge	.LBB25_11
# %bb.7:                                # %cond.true9
	movl	$1, %eax
	cmpl	-4(%rbp), %eax
	jle	.LBB25_9
# %bb.8:                                # %cond.true11
	movl	$1, %eax
	jmp	.LBB25_10
.LBB25_9:                               # %cond.false12
	movl	-4(%rbp), %eax
.LBB25_10:                              # %cond.end13
	jmp	.LBB25_12
.LBB25_11:                              # %cond.false15
	movl	$126, %eax
	jmp	.LBB25_12
.LBB25_12:                              # %cond.end16
	movl	%eax, -4(%rbp)
	cmpl	$64, -4(%rbp)
	jl	.LBB25_14
# %bb.13:                               # %if.then
	movl	-4(%rbp), %eax
	subl	$64, %eax
	movq	-16(%rbp), %rcx
	movw	%ax, (%rcx)
	movq	-16(%rbp), %rax
	movb	$1, 2(%rax)
	jmp	.LBB25_15
.LBB25_14:                              # %if.else
	movl	$63, %eax
	subl	-4(%rbp), %eax
	movq	-16(%rbp), %rcx
	movw	%ax, (%rcx)
	movq	-16(%rbp), %rax
	movb	$0, 2(%rax)
.LBB25_15:                              # %if.end
	movq	-16(%rbp), %rax
	movq	$0, 8(%rax)
	cmpl	$717481821, -20(%rbp)   # imm = 0x2AC3E75D
	jne	.LBB25_17
.LBB25_16:
	addq	$32, %rsp
	popq	%rbp
	.cfi_def_cfa %rsp, 8
	retq
.LBB25_17:                              # %func_exit
	.cfi_def_cfa %rbp, 16
	callq	detect_breach
	jmp	.LBB25_16
.Lfunc_end25:
	.size	biari_init_context.17, .Lfunc_end25-biari_init_context.17
	.cfi_endproc
                                        # -- End function
	.globl	biari_init_context.18   # -- Begin function biari_init_context.18
	.p2align	4, 0x90
	.type	biari_init_context.18,@function
biari_init_context.18:                  # @biari_init_context.18
	.cfi_startproc
# %bb.0:                                # %entry
	pushq	%rbp
	.cfi_def_cfa_offset 16
	.cfi_offset %rbp, -16
	movq	%rsp, %rbp
	.cfi_def_cfa_register %rbp
	subq	$32, %rsp
	xorl	%ecx, %ecx
	movl	$809825719, -20(%rbp)   # imm = 0x3044F5B7
	movq	%rdi, -16(%rbp)
	movq	%rsi, -32(%rbp)
	movq	-32(%rbp), %rax
	movl	(%rax), %eax
	movq	img, %rdx
	cmpl	40(%rdx), %ecx
	jle	.LBB26_2
# %bb.1:                                # %cond.true
	xorl	%ecx, %ecx
	jmp	.LBB26_3
.LBB26_2:                               # %cond.false
	movq	img, %rcx
	movl	40(%rcx), %ecx
.LBB26_3:                               # %cond.end
	imull	%ecx, %eax
	sarl	$4, %eax
	movq	-32(%rbp), %rcx
	addl	4(%rcx), %eax
	movl	%eax, -4(%rbp)
	movl	$1, %eax
	cmpl	-4(%rbp), %eax
	jle	.LBB26_5
# %bb.4:                                # %cond.true4
	movl	$1, %eax
	jmp	.LBB26_6
.LBB26_5:                               # %cond.false5
	movl	-4(%rbp), %eax
.LBB26_6:                               # %cond.end6
	cmpl	$126, %eax
	jge	.LBB26_11
# %bb.7:                                # %cond.true9
	movl	$1, %eax
	cmpl	-4(%rbp), %eax
	jle	.LBB26_9
# %bb.8:                                # %cond.true11
	movl	$1, %eax
	jmp	.LBB26_10
.LBB26_9:                               # %cond.false12
	movl	-4(%rbp), %eax
.LBB26_10:                              # %cond.end13
	jmp	.LBB26_12
.LBB26_11:                              # %cond.false15
	movl	$126, %eax
	jmp	.LBB26_12
.LBB26_12:                              # %cond.end16
	movl	%eax, -4(%rbp)
	cmpl	$64, -4(%rbp)
	jl	.LBB26_14
# %bb.13:                               # %if.then
	movl	-4(%rbp), %eax
	subl	$64, %eax
	movq	-16(%rbp), %rcx
	movw	%ax, (%rcx)
	movq	-16(%rbp), %rax
	movb	$1, 2(%rax)
	jmp	.LBB26_15
.LBB26_14:                              # %if.else
	movl	$63, %eax
	subl	-4(%rbp), %eax
	movq	-16(%rbp), %rcx
	movw	%ax, (%rcx)
	movq	-16(%rbp), %rax
	movb	$0, 2(%rax)
.LBB26_15:                              # %if.end
	movq	-16(%rbp), %rax
	movq	$0, 8(%rax)
	cmpl	$809825719, -20(%rbp)   # imm = 0x3044F5B7
	jne	.LBB26_17
.LBB26_16:
	addq	$32, %rsp
	popq	%rbp
	.cfi_def_cfa %rsp, 8
	retq
.LBB26_17:                              # %func_exit
	.cfi_def_cfa %rbp, 16
	callq	detect_breach
	jmp	.LBB26_16
.Lfunc_end26:
	.size	biari_init_context.18, .Lfunc_end26-biari_init_context.18
	.cfi_endproc
                                        # -- End function
	.globl	biari_encode_symbol_eq_prob.19 # -- Begin function biari_encode_symbol_eq_prob.19
	.p2align	4, 0x90
	.type	biari_encode_symbol_eq_prob.19,@function
biari_encode_symbol_eq_prob.19:         # @biari_encode_symbol_eq_prob.19
	.cfi_startproc
# %bb.0:                                # %entry
	pushq	%rbp
	.cfi_def_cfa_offset 16
	.cfi_offset %rbp, -16
	movq	%rsp, %rbp
	.cfi_def_cfa_register %rbp
	subq	$32, %rsp
	movl	$800491433, -20(%rbp)   # imm = 0x2FB687A9
	movq	%rdi, -8(%rbp)
	movw	%si, -14(%rbp)
	movq	-8(%rbp), %rax
	movl	(%rax), %eax
	shll	$1, %eax
	movl	%eax, -12(%rbp)
	movswl	-14(%rbp), %eax
	cmpl	$0, %eax
	je	.LBB27_2
# %bb.1:                                # %if.then
	movq	-8(%rbp), %rax
	movl	4(%rax), %eax
	addl	-12(%rbp), %eax
	movl	%eax, -12(%rbp)
.LBB27_2:                               # %if.end
	cmpl	$1024, -12(%rbp)        # imm = 0x400
	jb	.LBB27_17
# %bb.3:                                # %if.then4
	movq	-8(%rbp), %rax
	movl	8(%rax), %ecx
	shll	$1, %ecx
	movl	%ecx, 8(%rax)
	movq	-8(%rbp), %rax
	movl	8(%rax), %ecx
	orl	$1, %ecx
	movl	%ecx, 8(%rax)
	movq	-8(%rbp), %rax
	movl	12(%rax), %ecx
	addl	$-1, %ecx
	movl	%ecx, 12(%rax)
	cmpl	$0, %ecx
	jne	.LBB27_8
# %bb.4:                                # %if.then9
	movq	-8(%rbp), %rax
	movl	8(%rax), %eax
	movq	-8(%rbp), %rcx
	movq	24(%rcx), %rcx
	movq	-8(%rbp), %rdx
	movq	32(%rdx), %rdx
	movl	(%rdx), %esi
	movl	%esi, %edi
	addl	$1, %edi
	movl	%edi, (%rdx)
	movslq	%esi, %rdx
	movb	%al, (%rcx,%rdx)
	movq	-8(%rbp), %rax
	movl	$8, 12(%rax)
.LBB27_5:                               # %while.cond
                                        # =>This Inner Loop Header: Depth=1
	movq	-8(%rbp), %rax
	cmpl	$7, 80(%rax)
	jle	.LBB27_7
# %bb.6:                                # %while.body
                                        #   in Loop: Header=BB27_5 Depth=1
	movq	-8(%rbp), %rax
	movl	80(%rax), %ecx
	subl	$8, %ecx
	movl	%ecx, 80(%rax)
	movq	-8(%rbp), %rax
	movl	88(%rax), %ecx
	addl	$1, %ecx
	movl	%ecx, 88(%rax)
	jmp	.LBB27_5
.LBB27_7:                               # %while.end
	jmp	.LBB27_8
.LBB27_8:                               # %if.end17
	jmp	.LBB27_9
.LBB27_9:                               # %while.cond18
                                        # =>This Loop Header: Depth=1
                                        #     Child Loop BB27_12 Depth 2
	movq	-8(%rbp), %rax
	cmpl	$0, 16(%rax)
	jbe	.LBB27_16
# %bb.10:                               # %while.body21
                                        #   in Loop: Header=BB27_9 Depth=1
	movq	-8(%rbp), %rax
	movl	16(%rax), %ecx
	addl	$-1, %ecx
	movl	%ecx, 16(%rax)
	movq	-8(%rbp), %rax
	movl	8(%rax), %ecx
	shll	$1, %ecx
	movl	%ecx, 8(%rax)
	movq	-8(%rbp), %rax
	movl	8(%rax), %ecx
	movl	%ecx, 8(%rax)
	movq	-8(%rbp), %rax
	movl	12(%rax), %ecx
	addl	$-1, %ecx
	movl	%ecx, 12(%rax)
	cmpl	$0, %ecx
	jne	.LBB27_15
# %bb.11:                               # %if.then31
                                        #   in Loop: Header=BB27_9 Depth=1
	movq	-8(%rbp), %rax
	movl	8(%rax), %eax
	movq	-8(%rbp), %rcx
	movq	24(%rcx), %rcx
	movq	-8(%rbp), %rdx
	movq	32(%rdx), %rdx
	movl	(%rdx), %esi
	movl	%esi, %edi
	addl	$1, %edi
	movl	%edi, (%rdx)
	movslq	%esi, %rdx
	movb	%al, (%rcx,%rdx)
	movq	-8(%rbp), %rax
	movl	$8, 12(%rax)
.LBB27_12:                              # %while.cond40
                                        #   Parent Loop BB27_9 Depth=1
                                        # =>  This Inner Loop Header: Depth=2
	movq	-8(%rbp), %rax
	cmpl	$7, 80(%rax)
	jle	.LBB27_14
# %bb.13:                               # %while.body44
                                        #   in Loop: Header=BB27_12 Depth=2
	movq	-8(%rbp), %rax
	movl	80(%rax), %ecx
	subl	$8, %ecx
	movl	%ecx, 80(%rax)
	movq	-8(%rbp), %rax
	movl	88(%rax), %ecx
	addl	$1, %ecx
	movl	%ecx, 88(%rax)
	jmp	.LBB27_12
.LBB27_14:                              # %while.end49
                                        #   in Loop: Header=BB27_9 Depth=1
	jmp	.LBB27_15
.LBB27_15:                              # %if.end50
                                        #   in Loop: Header=BB27_9 Depth=1
	jmp	.LBB27_9
.LBB27_16:                              # %while.end51
	movl	-12(%rbp), %eax
	subl	$1024, %eax             # imm = 0x400
	movl	%eax, -12(%rbp)
	jmp	.LBB27_34
.LBB27_17:                              # %if.else
	cmpl	$512, -12(%rbp)         # imm = 0x200
	jae	.LBB27_32
# %bb.18:                               # %if.then55
	movq	-8(%rbp), %rax
	movl	8(%rax), %ecx
	shll	$1, %ecx
	movl	%ecx, 8(%rax)
	movq	-8(%rbp), %rax
	movl	8(%rax), %ecx
	movl	%ecx, 8(%rax)
	movq	-8(%rbp), %rax
	movl	12(%rax), %ecx
	addl	$-1, %ecx
	movl	%ecx, 12(%rax)
	cmpl	$0, %ecx
	jne	.LBB27_23
# %bb.19:                               # %if.then63
	movq	-8(%rbp), %rax
	movl	8(%rax), %eax
	movq	-8(%rbp), %rcx
	movq	24(%rcx), %rcx
	movq	-8(%rbp), %rdx
	movq	32(%rdx), %rdx
	movl	(%rdx), %esi
	movl	%esi, %edi
	addl	$1, %edi
	movl	%edi, (%rdx)
	movslq	%esi, %rdx
	movb	%al, (%rcx,%rdx)
	movq	-8(%rbp), %rax
	movl	$8, 12(%rax)
.LBB27_20:                              # %while.cond72
                                        # =>This Inner Loop Header: Depth=1
	movq	-8(%rbp), %rax
	cmpl	$7, 80(%rax)
	jle	.LBB27_22
# %bb.21:                               # %while.body76
                                        #   in Loop: Header=BB27_20 Depth=1
	movq	-8(%rbp), %rax
	movl	80(%rax), %ecx
	subl	$8, %ecx
	movl	%ecx, 80(%rax)
	movq	-8(%rbp), %rax
	movl	88(%rax), %ecx
	addl	$1, %ecx
	movl	%ecx, 88(%rax)
	jmp	.LBB27_20
.LBB27_22:                              # %while.end81
	jmp	.LBB27_23
.LBB27_23:                              # %if.end82
	jmp	.LBB27_24
.LBB27_24:                              # %while.cond83
                                        # =>This Loop Header: Depth=1
                                        #     Child Loop BB27_27 Depth 2
	movq	-8(%rbp), %rax
	cmpl	$0, 16(%rax)
	jbe	.LBB27_31
# %bb.25:                               # %while.body87
                                        #   in Loop: Header=BB27_24 Depth=1
	movq	-8(%rbp), %rax
	movl	16(%rax), %ecx
	addl	$-1, %ecx
	movl	%ecx, 16(%rax)
	movq	-8(%rbp), %rax
	movl	8(%rax), %ecx
	shll	$1, %ecx
	movl	%ecx, 8(%rax)
	movq	-8(%rbp), %rax
	movl	8(%rax), %ecx
	orl	$1, %ecx
	movl	%ecx, 8(%rax)
	movq	-8(%rbp), %rax
	movl	12(%rax), %ecx
	addl	$-1, %ecx
	movl	%ecx, 12(%rax)
	cmpl	$0, %ecx
	jne	.LBB27_30
# %bb.26:                               # %if.then98
                                        #   in Loop: Header=BB27_24 Depth=1
	movq	-8(%rbp), %rax
	movl	8(%rax), %eax
	movq	-8(%rbp), %rcx
	movq	24(%rcx), %rcx
	movq	-8(%rbp), %rdx
	movq	32(%rdx), %rdx
	movl	(%rdx), %esi
	movl	%esi, %edi
	addl	$1, %edi
	movl	%edi, (%rdx)
	movslq	%esi, %rdx
	movb	%al, (%rcx,%rdx)
	movq	-8(%rbp), %rax
	movl	$8, 12(%rax)
.LBB27_27:                              # %while.cond107
                                        #   Parent Loop BB27_24 Depth=1
                                        # =>  This Inner Loop Header: Depth=2
	movq	-8(%rbp), %rax
	cmpl	$7, 80(%rax)
	jle	.LBB27_29
# %bb.28:                               # %while.body111
                                        #   in Loop: Header=BB27_27 Depth=2
	movq	-8(%rbp), %rax
	movl	80(%rax), %ecx
	subl	$8, %ecx
	movl	%ecx, 80(%rax)
	movq	-8(%rbp), %rax
	movl	88(%rax), %ecx
	addl	$1, %ecx
	movl	%ecx, 88(%rax)
	jmp	.LBB27_27
.LBB27_29:                              # %while.end116
                                        #   in Loop: Header=BB27_24 Depth=1
	jmp	.LBB27_30
.LBB27_30:                              # %if.end117
                                        #   in Loop: Header=BB27_24 Depth=1
	jmp	.LBB27_24
.LBB27_31:                              # %while.end118
	jmp	.LBB27_33
.LBB27_32:                              # %if.else119
	movq	-8(%rbp), %rax
	movl	16(%rax), %ecx
	addl	$1, %ecx
	movl	%ecx, 16(%rax)
	movl	-12(%rbp), %eax
	subl	$512, %eax              # imm = 0x200
	movl	%eax, -12(%rbp)
.LBB27_33:                              # %if.end123
	jmp	.LBB27_34
.LBB27_34:                              # %if.end124
	movl	-12(%rbp), %eax
	movq	-8(%rbp), %rcx
	movl	%eax, (%rcx)
	movq	-8(%rbp), %rax
	movl	80(%rax), %ecx
	addl	$1, %ecx
	movl	%ecx, 80(%rax)
	cmpl	$800491433, -20(%rbp)   # imm = 0x2FB687A9
	jne	.LBB27_36
.LBB27_35:
	addq	$32, %rsp
	popq	%rbp
	.cfi_def_cfa %rsp, 8
	retq
.LBB27_36:                              # %func_exit
	.cfi_def_cfa %rbp, 16
	callq	detect_breach
	jmp	.LBB27_35
.Lfunc_end27:
	.size	biari_encode_symbol_eq_prob.19, .Lfunc_end27-biari_encode_symbol_eq_prob.19
	.cfi_endproc
                                        # -- End function
	.globl	biari_encode_symbol.20  # -- Begin function biari_encode_symbol.20
	.p2align	4, 0x90
	.type	biari_encode_symbol.20,@function
biari_encode_symbol.20:                 # @biari_encode_symbol.20
	.cfi_startproc
# %bb.0:                                # %entry
	pushq	%rbp
	.cfi_def_cfa_offset 16
	.cfi_offset %rbp, -16
	movq	%rsp, %rbp
	.cfi_def_cfa_register %rbp
	subq	$48, %rsp
	movl	$1435462237, -40(%rbp)  # imm = 0x558F6A5D
	movq	%rdi, -8(%rbp)
	movw	%si, -18(%rbp)
	movq	%rdx, -32(%rbp)
	movq	-8(%rbp), %rax
	movl	4(%rax), %eax
	movl	%eax, -16(%rbp)
	movq	-8(%rbp), %rax
	movl	(%rax), %eax
	movl	%eax, -12(%rbp)
	movq	-32(%rbp), %rax
	movzwl	(%rax), %eax
	shlq	$2, %rax
	movabsq	$rLPS_table_64x4, %rcx
	addq	%rax, %rcx
	movl	-16(%rbp), %eax
	shrl	$6, %eax
	andl	$3, %eax
	movl	%eax, %eax
	movzbl	(%rcx,%rax), %eax
	movl	%eax, -36(%rbp)
	cmpl	$0, cabac_encoding
	je	.LBB28_2
# %bb.1:                                # %if.then
	movq	-32(%rbp), %rax
	movq	8(%rax), %rcx
	addq	$1, %rcx
	movq	%rcx, 8(%rax)
.LBB28_2:                               # %if.end
	movswl	-18(%rbp), %eax
	cmpl	$0, %eax
	je	.LBB28_4
# %bb.3:                                # %if.then5
	movw	$1, -18(%rbp)
.LBB28_4:                               # %if.end6
	movl	-36(%rbp), %eax
	movl	-16(%rbp), %ecx
	subl	%eax, %ecx
	movl	%ecx, -16(%rbp)
	movswl	-18(%rbp), %eax
	movq	-32(%rbp), %rcx
	movzbl	2(%rcx), %ecx
	cmpl	%ecx, %eax
	je	.LBB28_8
# %bb.5:                                # %if.then11
	movl	-16(%rbp), %eax
	addl	-12(%rbp), %eax
	movl	%eax, -12(%rbp)
	movl	-36(%rbp), %eax
	movl	%eax, -16(%rbp)
	movq	-32(%rbp), %rax
	cmpw	$0, (%rax)
	jne	.LBB28_7
# %bb.6:                                # %if.then14
	movq	-32(%rbp), %rax
	movzbl	2(%rax), %eax
	xorl	$1, %eax
	movq	-32(%rbp), %rcx
	movb	%al, 2(%rcx)
.LBB28_7:                               # %if.end19
	movq	-32(%rbp), %rax
	movzwl	(%rax), %eax
	movw	AC_next_state_LPS_64(,%rax,2), %ax
	movq	-32(%rbp), %rcx
	movw	%ax, (%rcx)
	jmp	.LBB28_9
.LBB28_8:                               # %if.else
	movq	-32(%rbp), %rax
	movzwl	(%rax), %eax
	movw	AC_next_state_MPS_64(,%rax,2), %ax
	movq	-32(%rbp), %rcx
	movw	%ax, (%rcx)
.LBB28_9:                               # %if.end28
	jmp	.LBB28_10
.LBB28_10:                              # %while.cond
                                        # =>This Loop Header: Depth=1
                                        #     Child Loop BB28_14 Depth 2
                                        #     Child Loop BB28_18 Depth 2
                                        #       Child Loop BB28_21 Depth 3
                                        #     Child Loop BB28_29 Depth 2
                                        #     Child Loop BB28_33 Depth 2
                                        #       Child Loop BB28_36 Depth 3
	cmpl	$256, -16(%rbp)         # imm = 0x100
	jae	.LBB28_44
# %bb.11:                               # %while.body
                                        #   in Loop: Header=BB28_10 Depth=1
	cmpl	$512, -12(%rbp)         # imm = 0x200
	jb	.LBB28_26
# %bb.12:                               # %if.then33
                                        #   in Loop: Header=BB28_10 Depth=1
	movq	-8(%rbp), %rax
	movl	8(%rax), %ecx
	shll	$1, %ecx
	movl	%ecx, 8(%rax)
	movq	-8(%rbp), %rax
	movl	8(%rax), %ecx
	orl	$1, %ecx
	movl	%ecx, 8(%rax)
	movq	-8(%rbp), %rax
	movl	12(%rax), %ecx
	addl	$-1, %ecx
	movl	%ecx, 12(%rax)
	cmpl	$0, %ecx
	jne	.LBB28_17
# %bb.13:                               # %if.then37
                                        #   in Loop: Header=BB28_10 Depth=1
	movq	-8(%rbp), %rax
	movl	8(%rax), %eax
	movq	-8(%rbp), %rcx
	movq	24(%rcx), %rcx
	movq	-8(%rbp), %rdx
	movq	32(%rdx), %rdx
	movl	(%rdx), %esi
	movl	%esi, %edi
	addl	$1, %edi
	movl	%edi, (%rdx)
	movslq	%esi, %rdx
	movb	%al, (%rcx,%rdx)
	movq	-8(%rbp), %rax
	movl	$8, 12(%rax)
.LBB28_14:                              # %while.cond44
                                        #   Parent Loop BB28_10 Depth=1
                                        # =>  This Inner Loop Header: Depth=2
	movq	-8(%rbp), %rax
	cmpl	$7, 80(%rax)
	jle	.LBB28_16
# %bb.15:                               # %while.body47
                                        #   in Loop: Header=BB28_14 Depth=2
	movq	-8(%rbp), %rax
	movl	80(%rax), %ecx
	subl	$8, %ecx
	movl	%ecx, 80(%rax)
	movq	-8(%rbp), %rax
	movl	88(%rax), %ecx
	addl	$1, %ecx
	movl	%ecx, 88(%rax)
	jmp	.LBB28_14
.LBB28_16:                              # %while.end
                                        #   in Loop: Header=BB28_10 Depth=1
	jmp	.LBB28_17
.LBB28_17:                              # %if.end51
                                        #   in Loop: Header=BB28_10 Depth=1
	jmp	.LBB28_18
.LBB28_18:                              # %while.cond52
                                        #   Parent Loop BB28_10 Depth=1
                                        # =>  This Loop Header: Depth=2
                                        #       Child Loop BB28_21 Depth 3
	movq	-8(%rbp), %rax
	cmpl	$0, 16(%rax)
	jbe	.LBB28_25
# %bb.19:                               # %while.body55
                                        #   in Loop: Header=BB28_18 Depth=2
	movq	-8(%rbp), %rax
	movl	16(%rax), %ecx
	addl	$-1, %ecx
	movl	%ecx, 16(%rax)
	movq	-8(%rbp), %rax
	movl	8(%rax), %ecx
	shll	$1, %ecx
	movl	%ecx, 8(%rax)
	movq	-8(%rbp), %rax
	movl	8(%rax), %ecx
	movl	%ecx, 8(%rax)
	movq	-8(%rbp), %rax
	movl	12(%rax), %ecx
	addl	$-1, %ecx
	movl	%ecx, 12(%rax)
	cmpl	$0, %ecx
	jne	.LBB28_24
# %bb.20:                               # %if.then65
                                        #   in Loop: Header=BB28_18 Depth=2
	movq	-8(%rbp), %rax
	movl	8(%rax), %eax
	movq	-8(%rbp), %rcx
	movq	24(%rcx), %rcx
	movq	-8(%rbp), %rdx
	movq	32(%rdx), %rdx
	movl	(%rdx), %esi
	movl	%esi, %edi
	addl	$1, %edi
	movl	%edi, (%rdx)
	movslq	%esi, %rdx
	movb	%al, (%rcx,%rdx)
	movq	-8(%rbp), %rax
	movl	$8, 12(%rax)
.LBB28_21:                              # %while.cond74
                                        #   Parent Loop BB28_10 Depth=1
                                        #     Parent Loop BB28_18 Depth=2
                                        # =>    This Inner Loop Header: Depth=3
	movq	-8(%rbp), %rax
	cmpl	$7, 80(%rax)
	jle	.LBB28_23
# %bb.22:                               # %while.body78
                                        #   in Loop: Header=BB28_21 Depth=3
	movq	-8(%rbp), %rax
	movl	80(%rax), %ecx
	subl	$8, %ecx
	movl	%ecx, 80(%rax)
	movq	-8(%rbp), %rax
	movl	88(%rax), %ecx
	addl	$1, %ecx
	movl	%ecx, 88(%rax)
	jmp	.LBB28_21
.LBB28_23:                              # %while.end83
                                        #   in Loop: Header=BB28_18 Depth=2
	jmp	.LBB28_24
.LBB28_24:                              # %if.end84
                                        #   in Loop: Header=BB28_18 Depth=2
	jmp	.LBB28_18
.LBB28_25:                              # %while.end85
                                        #   in Loop: Header=BB28_10 Depth=1
	movl	-12(%rbp), %eax
	subl	$512, %eax              # imm = 0x200
	movl	%eax, -12(%rbp)
	jmp	.LBB28_43
.LBB28_26:                              # %if.else87
                                        #   in Loop: Header=BB28_10 Depth=1
	cmpl	$256, -12(%rbp)         # imm = 0x100
	jae	.LBB28_41
# %bb.27:                               # %if.then90
                                        #   in Loop: Header=BB28_10 Depth=1
	movq	-8(%rbp), %rax
	movl	8(%rax), %ecx
	shll	$1, %ecx
	movl	%ecx, 8(%rax)
	movq	-8(%rbp), %rax
	movl	8(%rax), %ecx
	movl	%ecx, 8(%rax)
	movq	-8(%rbp), %rax
	movl	12(%rax), %ecx
	addl	$-1, %ecx
	movl	%ecx, 12(%rax)
	cmpl	$0, %ecx
	jne	.LBB28_32
# %bb.28:                               # %if.then98
                                        #   in Loop: Header=BB28_10 Depth=1
	movq	-8(%rbp), %rax
	movl	8(%rax), %eax
	movq	-8(%rbp), %rcx
	movq	24(%rcx), %rcx
	movq	-8(%rbp), %rdx
	movq	32(%rdx), %rdx
	movl	(%rdx), %esi
	movl	%esi, %edi
	addl	$1, %edi
	movl	%edi, (%rdx)
	movslq	%esi, %rdx
	movb	%al, (%rcx,%rdx)
	movq	-8(%rbp), %rax
	movl	$8, 12(%rax)
.LBB28_29:                              # %while.cond107
                                        #   Parent Loop BB28_10 Depth=1
                                        # =>  This Inner Loop Header: Depth=2
	movq	-8(%rbp), %rax
	cmpl	$7, 80(%rax)
	jle	.LBB28_31
# %bb.30:                               # %while.body111
                                        #   in Loop: Header=BB28_29 Depth=2
	movq	-8(%rbp), %rax
	movl	80(%rax), %ecx
	subl	$8, %ecx
	movl	%ecx, 80(%rax)
	movq	-8(%rbp), %rax
	movl	88(%rax), %ecx
	addl	$1, %ecx
	movl	%ecx, 88(%rax)
	jmp	.LBB28_29
.LBB28_31:                              # %while.end116
                                        #   in Loop: Header=BB28_10 Depth=1
	jmp	.LBB28_32
.LBB28_32:                              # %if.end117
                                        #   in Loop: Header=BB28_10 Depth=1
	jmp	.LBB28_33
.LBB28_33:                              # %while.cond118
                                        #   Parent Loop BB28_10 Depth=1
                                        # =>  This Loop Header: Depth=2
                                        #       Child Loop BB28_36 Depth 3
	movq	-8(%rbp), %rax
	cmpl	$0, 16(%rax)
	jbe	.LBB28_40
# %bb.34:                               # %while.body122
                                        #   in Loop: Header=BB28_33 Depth=2
	movq	-8(%rbp), %rax
	movl	16(%rax), %ecx
	addl	$-1, %ecx
	movl	%ecx, 16(%rax)
	movq	-8(%rbp), %rax
	movl	8(%rax), %ecx
	shll	$1, %ecx
	movl	%ecx, 8(%rax)
	movq	-8(%rbp), %rax
	movl	8(%rax), %ecx
	orl	$1, %ecx
	movl	%ecx, 8(%rax)
	movq	-8(%rbp), %rax
	movl	12(%rax), %ecx
	addl	$-1, %ecx
	movl	%ecx, 12(%rax)
	cmpl	$0, %ecx
	jne	.LBB28_39
# %bb.35:                               # %if.then133
                                        #   in Loop: Header=BB28_33 Depth=2
	movq	-8(%rbp), %rax
	movl	8(%rax), %eax
	movq	-8(%rbp), %rcx
	movq	24(%rcx), %rcx
	movq	-8(%rbp), %rdx
	movq	32(%rdx), %rdx
	movl	(%rdx), %esi
	movl	%esi, %edi
	addl	$1, %edi
	movl	%edi, (%rdx)
	movslq	%esi, %rdx
	movb	%al, (%rcx,%rdx)
	movq	-8(%rbp), %rax
	movl	$8, 12(%rax)
.LBB28_36:                              # %while.cond142
                                        #   Parent Loop BB28_10 Depth=1
                                        #     Parent Loop BB28_33 Depth=2
                                        # =>    This Inner Loop Header: Depth=3
	movq	-8(%rbp), %rax
	cmpl	$7, 80(%rax)
	jle	.LBB28_38
# %bb.37:                               # %while.body146
                                        #   in Loop: Header=BB28_36 Depth=3
	movq	-8(%rbp), %rax
	movl	80(%rax), %ecx
	subl	$8, %ecx
	movl	%ecx, 80(%rax)
	movq	-8(%rbp), %rax
	movl	88(%rax), %ecx
	addl	$1, %ecx
	movl	%ecx, 88(%rax)
	jmp	.LBB28_36
.LBB28_38:                              # %while.end151
                                        #   in Loop: Header=BB28_33 Depth=2
	jmp	.LBB28_39
.LBB28_39:                              # %if.end152
                                        #   in Loop: Header=BB28_33 Depth=2
	jmp	.LBB28_33
.LBB28_40:                              # %while.end153
                                        #   in Loop: Header=BB28_10 Depth=1
	jmp	.LBB28_42
.LBB28_41:                              # %if.else154
                                        #   in Loop: Header=BB28_10 Depth=1
	movq	-8(%rbp), %rax
	movl	16(%rax), %ecx
	addl	$1, %ecx
	movl	%ecx, 16(%rax)
	movl	-12(%rbp), %eax
	subl	$256, %eax              # imm = 0x100
	movl	%eax, -12(%rbp)
.LBB28_42:                              # %if.end158
                                        #   in Loop: Header=BB28_10 Depth=1
	jmp	.LBB28_43
.LBB28_43:                              # %if.end159
                                        #   in Loop: Header=BB28_10 Depth=1
	movl	-12(%rbp), %eax
	shll	$1, %eax
	movl	%eax, -12(%rbp)
	movl	-16(%rbp), %eax
	shll	$1, %eax
	movl	%eax, -16(%rbp)
	jmp	.LBB28_10
.LBB28_44:                              # %while.end162
	movl	-16(%rbp), %eax
	movq	-8(%rbp), %rcx
	movl	%eax, 4(%rcx)
	movl	-12(%rbp), %eax
	movq	-8(%rbp), %rcx
	movl	%eax, (%rcx)
	movq	-8(%rbp), %rax
	movl	80(%rax), %ecx
	addl	$1, %ecx
	movl	%ecx, 80(%rax)
	cmpl	$1435462237, -40(%rbp)  # imm = 0x558F6A5D
	jne	.LBB28_46
.LBB28_45:
	addq	$48, %rsp
	popq	%rbp
	.cfi_def_cfa %rsp, 8
	retq
.LBB28_46:                              # %func_exit
	.cfi_def_cfa %rbp, 16
	callq	detect_breach
	jmp	.LBB28_45
.Lfunc_end28:
	.size	biari_encode_symbol.20, .Lfunc_end28-biari_encode_symbol.20
	.cfi_endproc
                                        # -- End function
	.globl	biari_encode_symbol_eq_prob.21 # -- Begin function biari_encode_symbol_eq_prob.21
	.p2align	4, 0x90
	.type	biari_encode_symbol_eq_prob.21,@function
biari_encode_symbol_eq_prob.21:         # @biari_encode_symbol_eq_prob.21
	.cfi_startproc
# %bb.0:                                # %entry
	pushq	%rbp
	.cfi_def_cfa_offset 16
	.cfi_offset %rbp, -16
	movq	%rsp, %rbp
	.cfi_def_cfa_register %rbp
	subq	$32, %rsp
	movl	$2116954609, -20(%rbp)  # imm = 0x7E2E29F1
	movq	%rdi, -8(%rbp)
	movw	%si, -14(%rbp)
	movq	-8(%rbp), %rax
	movl	(%rax), %eax
	shll	$1, %eax
	movl	%eax, -12(%rbp)
	movswl	-14(%rbp), %eax
	cmpl	$0, %eax
	je	.LBB29_2
# %bb.1:                                # %if.then
	movq	-8(%rbp), %rax
	movl	4(%rax), %eax
	addl	-12(%rbp), %eax
	movl	%eax, -12(%rbp)
.LBB29_2:                               # %if.end
	cmpl	$1024, -12(%rbp)        # imm = 0x400
	jb	.LBB29_17
# %bb.3:                                # %if.then4
	movq	-8(%rbp), %rax
	movl	8(%rax), %ecx
	shll	$1, %ecx
	movl	%ecx, 8(%rax)
	movq	-8(%rbp), %rax
	movl	8(%rax), %ecx
	orl	$1, %ecx
	movl	%ecx, 8(%rax)
	movq	-8(%rbp), %rax
	movl	12(%rax), %ecx
	addl	$-1, %ecx
	movl	%ecx, 12(%rax)
	cmpl	$0, %ecx
	jne	.LBB29_8
# %bb.4:                                # %if.then9
	movq	-8(%rbp), %rax
	movl	8(%rax), %eax
	movq	-8(%rbp), %rcx
	movq	24(%rcx), %rcx
	movq	-8(%rbp), %rdx
	movq	32(%rdx), %rdx
	movl	(%rdx), %esi
	movl	%esi, %edi
	addl	$1, %edi
	movl	%edi, (%rdx)
	movslq	%esi, %rdx
	movb	%al, (%rcx,%rdx)
	movq	-8(%rbp), %rax
	movl	$8, 12(%rax)
.LBB29_5:                               # %while.cond
                                        # =>This Inner Loop Header: Depth=1
	movq	-8(%rbp), %rax
	cmpl	$7, 80(%rax)
	jle	.LBB29_7
# %bb.6:                                # %while.body
                                        #   in Loop: Header=BB29_5 Depth=1
	movq	-8(%rbp), %rax
	movl	80(%rax), %ecx
	subl	$8, %ecx
	movl	%ecx, 80(%rax)
	movq	-8(%rbp), %rax
	movl	88(%rax), %ecx
	addl	$1, %ecx
	movl	%ecx, 88(%rax)
	jmp	.LBB29_5
.LBB29_7:                               # %while.end
	jmp	.LBB29_8
.LBB29_8:                               # %if.end17
	jmp	.LBB29_9
.LBB29_9:                               # %while.cond18
                                        # =>This Loop Header: Depth=1
                                        #     Child Loop BB29_12 Depth 2
	movq	-8(%rbp), %rax
	cmpl	$0, 16(%rax)
	jbe	.LBB29_16
# %bb.10:                               # %while.body21
                                        #   in Loop: Header=BB29_9 Depth=1
	movq	-8(%rbp), %rax
	movl	16(%rax), %ecx
	addl	$-1, %ecx
	movl	%ecx, 16(%rax)
	movq	-8(%rbp), %rax
	movl	8(%rax), %ecx
	shll	$1, %ecx
	movl	%ecx, 8(%rax)
	movq	-8(%rbp), %rax
	movl	8(%rax), %ecx
	movl	%ecx, 8(%rax)
	movq	-8(%rbp), %rax
	movl	12(%rax), %ecx
	addl	$-1, %ecx
	movl	%ecx, 12(%rax)
	cmpl	$0, %ecx
	jne	.LBB29_15
# %bb.11:                               # %if.then31
                                        #   in Loop: Header=BB29_9 Depth=1
	movq	-8(%rbp), %rax
	movl	8(%rax), %eax
	movq	-8(%rbp), %rcx
	movq	24(%rcx), %rcx
	movq	-8(%rbp), %rdx
	movq	32(%rdx), %rdx
	movl	(%rdx), %esi
	movl	%esi, %edi
	addl	$1, %edi
	movl	%edi, (%rdx)
	movslq	%esi, %rdx
	movb	%al, (%rcx,%rdx)
	movq	-8(%rbp), %rax
	movl	$8, 12(%rax)
.LBB29_12:                              # %while.cond40
                                        #   Parent Loop BB29_9 Depth=1
                                        # =>  This Inner Loop Header: Depth=2
	movq	-8(%rbp), %rax
	cmpl	$7, 80(%rax)
	jle	.LBB29_14
# %bb.13:                               # %while.body44
                                        #   in Loop: Header=BB29_12 Depth=2
	movq	-8(%rbp), %rax
	movl	80(%rax), %ecx
	subl	$8, %ecx
	movl	%ecx, 80(%rax)
	movq	-8(%rbp), %rax
	movl	88(%rax), %ecx
	addl	$1, %ecx
	movl	%ecx, 88(%rax)
	jmp	.LBB29_12
.LBB29_14:                              # %while.end49
                                        #   in Loop: Header=BB29_9 Depth=1
	jmp	.LBB29_15
.LBB29_15:                              # %if.end50
                                        #   in Loop: Header=BB29_9 Depth=1
	jmp	.LBB29_9
.LBB29_16:                              # %while.end51
	movl	-12(%rbp), %eax
	subl	$1024, %eax             # imm = 0x400
	movl	%eax, -12(%rbp)
	jmp	.LBB29_34
.LBB29_17:                              # %if.else
	cmpl	$512, -12(%rbp)         # imm = 0x200
	jae	.LBB29_32
# %bb.18:                               # %if.then55
	movq	-8(%rbp), %rax
	movl	8(%rax), %ecx
	shll	$1, %ecx
	movl	%ecx, 8(%rax)
	movq	-8(%rbp), %rax
	movl	8(%rax), %ecx
	movl	%ecx, 8(%rax)
	movq	-8(%rbp), %rax
	movl	12(%rax), %ecx
	addl	$-1, %ecx
	movl	%ecx, 12(%rax)
	cmpl	$0, %ecx
	jne	.LBB29_23
# %bb.19:                               # %if.then63
	movq	-8(%rbp), %rax
	movl	8(%rax), %eax
	movq	-8(%rbp), %rcx
	movq	24(%rcx), %rcx
	movq	-8(%rbp), %rdx
	movq	32(%rdx), %rdx
	movl	(%rdx), %esi
	movl	%esi, %edi
	addl	$1, %edi
	movl	%edi, (%rdx)
	movslq	%esi, %rdx
	movb	%al, (%rcx,%rdx)
	movq	-8(%rbp), %rax
	movl	$8, 12(%rax)
.LBB29_20:                              # %while.cond72
                                        # =>This Inner Loop Header: Depth=1
	movq	-8(%rbp), %rax
	cmpl	$7, 80(%rax)
	jle	.LBB29_22
# %bb.21:                               # %while.body76
                                        #   in Loop: Header=BB29_20 Depth=1
	movq	-8(%rbp), %rax
	movl	80(%rax), %ecx
	subl	$8, %ecx
	movl	%ecx, 80(%rax)
	movq	-8(%rbp), %rax
	movl	88(%rax), %ecx
	addl	$1, %ecx
	movl	%ecx, 88(%rax)
	jmp	.LBB29_20
.LBB29_22:                              # %while.end81
	jmp	.LBB29_23
.LBB29_23:                              # %if.end82
	jmp	.LBB29_24
.LBB29_24:                              # %while.cond83
                                        # =>This Loop Header: Depth=1
                                        #     Child Loop BB29_27 Depth 2
	movq	-8(%rbp), %rax
	cmpl	$0, 16(%rax)
	jbe	.LBB29_31
# %bb.25:                               # %while.body87
                                        #   in Loop: Header=BB29_24 Depth=1
	movq	-8(%rbp), %rax
	movl	16(%rax), %ecx
	addl	$-1, %ecx
	movl	%ecx, 16(%rax)
	movq	-8(%rbp), %rax
	movl	8(%rax), %ecx
	shll	$1, %ecx
	movl	%ecx, 8(%rax)
	movq	-8(%rbp), %rax
	movl	8(%rax), %ecx
	orl	$1, %ecx
	movl	%ecx, 8(%rax)
	movq	-8(%rbp), %rax
	movl	12(%rax), %ecx
	addl	$-1, %ecx
	movl	%ecx, 12(%rax)
	cmpl	$0, %ecx
	jne	.LBB29_30
# %bb.26:                               # %if.then98
                                        #   in Loop: Header=BB29_24 Depth=1
	movq	-8(%rbp), %rax
	movl	8(%rax), %eax
	movq	-8(%rbp), %rcx
	movq	24(%rcx), %rcx
	movq	-8(%rbp), %rdx
	movq	32(%rdx), %rdx
	movl	(%rdx), %esi
	movl	%esi, %edi
	addl	$1, %edi
	movl	%edi, (%rdx)
	movslq	%esi, %rdx
	movb	%al, (%rcx,%rdx)
	movq	-8(%rbp), %rax
	movl	$8, 12(%rax)
.LBB29_27:                              # %while.cond107
                                        #   Parent Loop BB29_24 Depth=1
                                        # =>  This Inner Loop Header: Depth=2
	movq	-8(%rbp), %rax
	cmpl	$7, 80(%rax)
	jle	.LBB29_29
# %bb.28:                               # %while.body111
                                        #   in Loop: Header=BB29_27 Depth=2
	movq	-8(%rbp), %rax
	movl	80(%rax), %ecx
	subl	$8, %ecx
	movl	%ecx, 80(%rax)
	movq	-8(%rbp), %rax
	movl	88(%rax), %ecx
	addl	$1, %ecx
	movl	%ecx, 88(%rax)
	jmp	.LBB29_27
.LBB29_29:                              # %while.end116
                                        #   in Loop: Header=BB29_24 Depth=1
	jmp	.LBB29_30
.LBB29_30:                              # %if.end117
                                        #   in Loop: Header=BB29_24 Depth=1
	jmp	.LBB29_24
.LBB29_31:                              # %while.end118
	jmp	.LBB29_33
.LBB29_32:                              # %if.else119
	movq	-8(%rbp), %rax
	movl	16(%rax), %ecx
	addl	$1, %ecx
	movl	%ecx, 16(%rax)
	movl	-12(%rbp), %eax
	subl	$512, %eax              # imm = 0x200
	movl	%eax, -12(%rbp)
.LBB29_33:                              # %if.end123
	jmp	.LBB29_34
.LBB29_34:                              # %if.end124
	movl	-12(%rbp), %eax
	movq	-8(%rbp), %rcx
	movl	%eax, (%rcx)
	movq	-8(%rbp), %rax
	movl	80(%rax), %ecx
	addl	$1, %ecx
	movl	%ecx, 80(%rax)
	cmpl	$2116954609, -20(%rbp)  # imm = 0x7E2E29F1
	jne	.LBB29_36
.LBB29_35:
	addq	$32, %rsp
	popq	%rbp
	.cfi_def_cfa %rsp, 8
	retq
.LBB29_36:                              # %func_exit
	.cfi_def_cfa %rbp, 16
	callq	detect_breach
	jmp	.LBB29_35
.Lfunc_end29:
	.size	biari_encode_symbol_eq_prob.21, .Lfunc_end29-biari_encode_symbol_eq_prob.21
	.cfi_endproc
                                        # -- End function
	.globl	arienco_start_encoding.22 # -- Begin function arienco_start_encoding.22
	.p2align	4, 0x90
	.type	arienco_start_encoding.22,@function
arienco_start_encoding.22:              # @arienco_start_encoding.22
	.cfi_startproc
# %bb.0:                                # %entry
	pushq	%rbp
	.cfi_def_cfa_offset 16
	.cfi_offset %rbp, -16
	movq	%rsp, %rbp
	.cfi_def_cfa_register %rbp
	subq	$48, %rsp
	movl	$1175464365, -12(%rbp)  # imm = 0x461029AD
	movq	%rdi, -8(%rbp)
	movq	%rsi, -32(%rbp)
	movq	%rdx, -24(%rbp)
	movl	%ecx, -36(%rbp)
	movq	-8(%rbp), %rax
	movl	$0, (%rax)
	movq	-8(%rbp), %rax
	movl	$0, 16(%rax)
	movq	-8(%rbp), %rax
	movl	$0, 8(%rax)
	movq	-8(%rbp), %rax
	movl	$9, 12(%rax)
	movq	-32(%rbp), %rax
	movq	-8(%rbp), %rcx
	movq	%rax, 24(%rcx)
	movq	-24(%rbp), %rax
	movq	-8(%rbp), %rcx
	movq	%rax, 32(%rcx)
	movq	-8(%rbp), %rax
	movl	$510, 4(%rax)           # imm = 0x1FE
	movq	-8(%rbp), %rax
	movl	$0, 80(%rax)
	movq	-24(%rbp), %rax
	movl	(%rax), %eax
	movq	-8(%rbp), %rcx
	movl	%eax, 96(%rcx)
	movq	-8(%rbp), %rax
	movl	$0, 88(%rax)
	cmpl	$1175464365, -12(%rbp)  # imm = 0x461029AD
	jne	.LBB30_2
.LBB30_1:
	addq	$48, %rsp
	popq	%rbp
	.cfi_def_cfa %rsp, 8
	retq
.LBB30_2:                               # %func_exit
	.cfi_def_cfa %rbp, 16
	callq	detect_breach
	jmp	.LBB30_1
.Lfunc_end30:
	.size	arienco_start_encoding.22, .Lfunc_end30-arienco_start_encoding.22
	.cfi_endproc
                                        # -- End function
	.globl	arienco_start_encoding.23 # -- Begin function arienco_start_encoding.23
	.p2align	4, 0x90
	.type	arienco_start_encoding.23,@function
arienco_start_encoding.23:              # @arienco_start_encoding.23
	.cfi_startproc
# %bb.0:                                # %entry
	pushq	%rbp
	.cfi_def_cfa_offset 16
	.cfi_offset %rbp, -16
	movq	%rsp, %rbp
	.cfi_def_cfa_register %rbp
	subq	$48, %rsp
	movl	$1014801692, -12(%rbp)  # imm = 0x3C7CA51C
	movq	%rdi, -8(%rbp)
	movq	%rsi, -32(%rbp)
	movq	%rdx, -24(%rbp)
	movl	%ecx, -36(%rbp)
	movq	-8(%rbp), %rax
	movl	$0, (%rax)
	movq	-8(%rbp), %rax
	movl	$0, 16(%rax)
	movq	-8(%rbp), %rax
	movl	$0, 8(%rax)
	movq	-8(%rbp), %rax
	movl	$9, 12(%rax)
	movq	-32(%rbp), %rax
	movq	-8(%rbp), %rcx
	movq	%rax, 24(%rcx)
	movq	-24(%rbp), %rax
	movq	-8(%rbp), %rcx
	movq	%rax, 32(%rcx)
	movq	-8(%rbp), %rax
	movl	$510, 4(%rax)           # imm = 0x1FE
	movq	-8(%rbp), %rax
	movl	$0, 80(%rax)
	movq	-24(%rbp), %rax
	movl	(%rax), %eax
	movq	-8(%rbp), %rcx
	movl	%eax, 96(%rcx)
	movq	-8(%rbp), %rax
	movl	$0, 88(%rax)
	cmpl	$1014801692, -12(%rbp)  # imm = 0x3C7CA51C
	jne	.LBB31_2
.LBB31_1:
	addq	$48, %rsp
	popq	%rbp
	.cfi_def_cfa %rsp, 8
	retq
.LBB31_2:                               # %func_exit
	.cfi_def_cfa %rbp, 16
	callq	detect_breach
	jmp	.LBB31_1
.Lfunc_end31:
	.size	arienco_start_encoding.23, .Lfunc_end31-arienco_start_encoding.23
	.cfi_endproc
                                        # -- End function
	.globl	biari_encode_symbol.24  # -- Begin function biari_encode_symbol.24
	.p2align	4, 0x90
	.type	biari_encode_symbol.24,@function
biari_encode_symbol.24:                 # @biari_encode_symbol.24
	.cfi_startproc
# %bb.0:                                # %entry
	pushq	%rbp
	.cfi_def_cfa_offset 16
	.cfi_offset %rbp, -16
	movq	%rsp, %rbp
	.cfi_def_cfa_register %rbp
	subq	$48, %rsp
	movl	$974616385, -40(%rbp)   # imm = 0x3A177741
	movq	%rdi, -8(%rbp)
	movw	%si, -18(%rbp)
	movq	%rdx, -32(%rbp)
	movq	-8(%rbp), %rax
	movl	4(%rax), %eax
	movl	%eax, -16(%rbp)
	movq	-8(%rbp), %rax
	movl	(%rax), %eax
	movl	%eax, -12(%rbp)
	movq	-32(%rbp), %rax
	movzwl	(%rax), %eax
	shlq	$2, %rax
	movabsq	$rLPS_table_64x4, %rcx
	addq	%rax, %rcx
	movl	-16(%rbp), %eax
	shrl	$6, %eax
	andl	$3, %eax
	movl	%eax, %eax
	movzbl	(%rcx,%rax), %eax
	movl	%eax, -36(%rbp)
	cmpl	$0, cabac_encoding
	je	.LBB32_2
# %bb.1:                                # %if.then
	movq	-32(%rbp), %rax
	movq	8(%rax), %rcx
	addq	$1, %rcx
	movq	%rcx, 8(%rax)
.LBB32_2:                               # %if.end
	movswl	-18(%rbp), %eax
	cmpl	$0, %eax
	je	.LBB32_4
# %bb.3:                                # %if.then5
	movw	$1, -18(%rbp)
.LBB32_4:                               # %if.end6
	movl	-36(%rbp), %eax
	movl	-16(%rbp), %ecx
	subl	%eax, %ecx
	movl	%ecx, -16(%rbp)
	movswl	-18(%rbp), %eax
	movq	-32(%rbp), %rcx
	movzbl	2(%rcx), %ecx
	cmpl	%ecx, %eax
	je	.LBB32_8
# %bb.5:                                # %if.then11
	movl	-16(%rbp), %eax
	addl	-12(%rbp), %eax
	movl	%eax, -12(%rbp)
	movl	-36(%rbp), %eax
	movl	%eax, -16(%rbp)
	movq	-32(%rbp), %rax
	cmpw	$0, (%rax)
	jne	.LBB32_7
# %bb.6:                                # %if.then14
	movq	-32(%rbp), %rax
	movzbl	2(%rax), %eax
	xorl	$1, %eax
	movq	-32(%rbp), %rcx
	movb	%al, 2(%rcx)
.LBB32_7:                               # %if.end19
	movq	-32(%rbp), %rax
	movzwl	(%rax), %eax
	movw	AC_next_state_LPS_64(,%rax,2), %ax
	movq	-32(%rbp), %rcx
	movw	%ax, (%rcx)
	jmp	.LBB32_9
.LBB32_8:                               # %if.else
	movq	-32(%rbp), %rax
	movzwl	(%rax), %eax
	movw	AC_next_state_MPS_64(,%rax,2), %ax
	movq	-32(%rbp), %rcx
	movw	%ax, (%rcx)
.LBB32_9:                               # %if.end28
	jmp	.LBB32_10
.LBB32_10:                              # %while.cond
                                        # =>This Loop Header: Depth=1
                                        #     Child Loop BB32_14 Depth 2
                                        #     Child Loop BB32_18 Depth 2
                                        #       Child Loop BB32_21 Depth 3
                                        #     Child Loop BB32_29 Depth 2
                                        #     Child Loop BB32_33 Depth 2
                                        #       Child Loop BB32_36 Depth 3
	cmpl	$256, -16(%rbp)         # imm = 0x100
	jae	.LBB32_44
# %bb.11:                               # %while.body
                                        #   in Loop: Header=BB32_10 Depth=1
	cmpl	$512, -12(%rbp)         # imm = 0x200
	jb	.LBB32_26
# %bb.12:                               # %if.then33
                                        #   in Loop: Header=BB32_10 Depth=1
	movq	-8(%rbp), %rax
	movl	8(%rax), %ecx
	shll	$1, %ecx
	movl	%ecx, 8(%rax)
	movq	-8(%rbp), %rax
	movl	8(%rax), %ecx
	orl	$1, %ecx
	movl	%ecx, 8(%rax)
	movq	-8(%rbp), %rax
	movl	12(%rax), %ecx
	addl	$-1, %ecx
	movl	%ecx, 12(%rax)
	cmpl	$0, %ecx
	jne	.LBB32_17
# %bb.13:                               # %if.then37
                                        #   in Loop: Header=BB32_10 Depth=1
	movq	-8(%rbp), %rax
	movl	8(%rax), %eax
	movq	-8(%rbp), %rcx
	movq	24(%rcx), %rcx
	movq	-8(%rbp), %rdx
	movq	32(%rdx), %rdx
	movl	(%rdx), %esi
	movl	%esi, %edi
	addl	$1, %edi
	movl	%edi, (%rdx)
	movslq	%esi, %rdx
	movb	%al, (%rcx,%rdx)
	movq	-8(%rbp), %rax
	movl	$8, 12(%rax)
.LBB32_14:                              # %while.cond44
                                        #   Parent Loop BB32_10 Depth=1
                                        # =>  This Inner Loop Header: Depth=2
	movq	-8(%rbp), %rax
	cmpl	$7, 80(%rax)
	jle	.LBB32_16
# %bb.15:                               # %while.body47
                                        #   in Loop: Header=BB32_14 Depth=2
	movq	-8(%rbp), %rax
	movl	80(%rax), %ecx
	subl	$8, %ecx
	movl	%ecx, 80(%rax)
	movq	-8(%rbp), %rax
	movl	88(%rax), %ecx
	addl	$1, %ecx
	movl	%ecx, 88(%rax)
	jmp	.LBB32_14
.LBB32_16:                              # %while.end
                                        #   in Loop: Header=BB32_10 Depth=1
	jmp	.LBB32_17
.LBB32_17:                              # %if.end51
                                        #   in Loop: Header=BB32_10 Depth=1
	jmp	.LBB32_18
.LBB32_18:                              # %while.cond52
                                        #   Parent Loop BB32_10 Depth=1
                                        # =>  This Loop Header: Depth=2
                                        #       Child Loop BB32_21 Depth 3
	movq	-8(%rbp), %rax
	cmpl	$0, 16(%rax)
	jbe	.LBB32_25
# %bb.19:                               # %while.body55
                                        #   in Loop: Header=BB32_18 Depth=2
	movq	-8(%rbp), %rax
	movl	16(%rax), %ecx
	addl	$-1, %ecx
	movl	%ecx, 16(%rax)
	movq	-8(%rbp), %rax
	movl	8(%rax), %ecx
	shll	$1, %ecx
	movl	%ecx, 8(%rax)
	movq	-8(%rbp), %rax
	movl	8(%rax), %ecx
	movl	%ecx, 8(%rax)
	movq	-8(%rbp), %rax
	movl	12(%rax), %ecx
	addl	$-1, %ecx
	movl	%ecx, 12(%rax)
	cmpl	$0, %ecx
	jne	.LBB32_24
# %bb.20:                               # %if.then65
                                        #   in Loop: Header=BB32_18 Depth=2
	movq	-8(%rbp), %rax
	movl	8(%rax), %eax
	movq	-8(%rbp), %rcx
	movq	24(%rcx), %rcx
	movq	-8(%rbp), %rdx
	movq	32(%rdx), %rdx
	movl	(%rdx), %esi
	movl	%esi, %edi
	addl	$1, %edi
	movl	%edi, (%rdx)
	movslq	%esi, %rdx
	movb	%al, (%rcx,%rdx)
	movq	-8(%rbp), %rax
	movl	$8, 12(%rax)
.LBB32_21:                              # %while.cond74
                                        #   Parent Loop BB32_10 Depth=1
                                        #     Parent Loop BB32_18 Depth=2
                                        # =>    This Inner Loop Header: Depth=3
	movq	-8(%rbp), %rax
	cmpl	$7, 80(%rax)
	jle	.LBB32_23
# %bb.22:                               # %while.body78
                                        #   in Loop: Header=BB32_21 Depth=3
	movq	-8(%rbp), %rax
	movl	80(%rax), %ecx
	subl	$8, %ecx
	movl	%ecx, 80(%rax)
	movq	-8(%rbp), %rax
	movl	88(%rax), %ecx
	addl	$1, %ecx
	movl	%ecx, 88(%rax)
	jmp	.LBB32_21
.LBB32_23:                              # %while.end83
                                        #   in Loop: Header=BB32_18 Depth=2
	jmp	.LBB32_24
.LBB32_24:                              # %if.end84
                                        #   in Loop: Header=BB32_18 Depth=2
	jmp	.LBB32_18
.LBB32_25:                              # %while.end85
                                        #   in Loop: Header=BB32_10 Depth=1
	movl	-12(%rbp), %eax
	subl	$512, %eax              # imm = 0x200
	movl	%eax, -12(%rbp)
	jmp	.LBB32_43
.LBB32_26:                              # %if.else87
                                        #   in Loop: Header=BB32_10 Depth=1
	cmpl	$256, -12(%rbp)         # imm = 0x100
	jae	.LBB32_41
# %bb.27:                               # %if.then90
                                        #   in Loop: Header=BB32_10 Depth=1
	movq	-8(%rbp), %rax
	movl	8(%rax), %ecx
	shll	$1, %ecx
	movl	%ecx, 8(%rax)
	movq	-8(%rbp), %rax
	movl	8(%rax), %ecx
	movl	%ecx, 8(%rax)
	movq	-8(%rbp), %rax
	movl	12(%rax), %ecx
	addl	$-1, %ecx
	movl	%ecx, 12(%rax)
	cmpl	$0, %ecx
	jne	.LBB32_32
# %bb.28:                               # %if.then98
                                        #   in Loop: Header=BB32_10 Depth=1
	movq	-8(%rbp), %rax
	movl	8(%rax), %eax
	movq	-8(%rbp), %rcx
	movq	24(%rcx), %rcx
	movq	-8(%rbp), %rdx
	movq	32(%rdx), %rdx
	movl	(%rdx), %esi
	movl	%esi, %edi
	addl	$1, %edi
	movl	%edi, (%rdx)
	movslq	%esi, %rdx
	movb	%al, (%rcx,%rdx)
	movq	-8(%rbp), %rax
	movl	$8, 12(%rax)
.LBB32_29:                              # %while.cond107
                                        #   Parent Loop BB32_10 Depth=1
                                        # =>  This Inner Loop Header: Depth=2
	movq	-8(%rbp), %rax
	cmpl	$7, 80(%rax)
	jle	.LBB32_31
# %bb.30:                               # %while.body111
                                        #   in Loop: Header=BB32_29 Depth=2
	movq	-8(%rbp), %rax
	movl	80(%rax), %ecx
	subl	$8, %ecx
	movl	%ecx, 80(%rax)
	movq	-8(%rbp), %rax
	movl	88(%rax), %ecx
	addl	$1, %ecx
	movl	%ecx, 88(%rax)
	jmp	.LBB32_29
.LBB32_31:                              # %while.end116
                                        #   in Loop: Header=BB32_10 Depth=1
	jmp	.LBB32_32
.LBB32_32:                              # %if.end117
                                        #   in Loop: Header=BB32_10 Depth=1
	jmp	.LBB32_33
.LBB32_33:                              # %while.cond118
                                        #   Parent Loop BB32_10 Depth=1
                                        # =>  This Loop Header: Depth=2
                                        #       Child Loop BB32_36 Depth 3
	movq	-8(%rbp), %rax
	cmpl	$0, 16(%rax)
	jbe	.LBB32_40
# %bb.34:                               # %while.body122
                                        #   in Loop: Header=BB32_33 Depth=2
	movq	-8(%rbp), %rax
	movl	16(%rax), %ecx
	addl	$-1, %ecx
	movl	%ecx, 16(%rax)
	movq	-8(%rbp), %rax
	movl	8(%rax), %ecx
	shll	$1, %ecx
	movl	%ecx, 8(%rax)
	movq	-8(%rbp), %rax
	movl	8(%rax), %ecx
	orl	$1, %ecx
	movl	%ecx, 8(%rax)
	movq	-8(%rbp), %rax
	movl	12(%rax), %ecx
	addl	$-1, %ecx
	movl	%ecx, 12(%rax)
	cmpl	$0, %ecx
	jne	.LBB32_39
# %bb.35:                               # %if.then133
                                        #   in Loop: Header=BB32_33 Depth=2
	movq	-8(%rbp), %rax
	movl	8(%rax), %eax
	movq	-8(%rbp), %rcx
	movq	24(%rcx), %rcx
	movq	-8(%rbp), %rdx
	movq	32(%rdx), %rdx
	movl	(%rdx), %esi
	movl	%esi, %edi
	addl	$1, %edi
	movl	%edi, (%rdx)
	movslq	%esi, %rdx
	movb	%al, (%rcx,%rdx)
	movq	-8(%rbp), %rax
	movl	$8, 12(%rax)
.LBB32_36:                              # %while.cond142
                                        #   Parent Loop BB32_10 Depth=1
                                        #     Parent Loop BB32_33 Depth=2
                                        # =>    This Inner Loop Header: Depth=3
	movq	-8(%rbp), %rax
	cmpl	$7, 80(%rax)
	jle	.LBB32_38
# %bb.37:                               # %while.body146
                                        #   in Loop: Header=BB32_36 Depth=3
	movq	-8(%rbp), %rax
	movl	80(%rax), %ecx
	subl	$8, %ecx
	movl	%ecx, 80(%rax)
	movq	-8(%rbp), %rax
	movl	88(%rax), %ecx
	addl	$1, %ecx
	movl	%ecx, 88(%rax)
	jmp	.LBB32_36
.LBB32_38:                              # %while.end151
                                        #   in Loop: Header=BB32_33 Depth=2
	jmp	.LBB32_39
.LBB32_39:                              # %if.end152
                                        #   in Loop: Header=BB32_33 Depth=2
	jmp	.LBB32_33
.LBB32_40:                              # %while.end153
                                        #   in Loop: Header=BB32_10 Depth=1
	jmp	.LBB32_42
.LBB32_41:                              # %if.else154
                                        #   in Loop: Header=BB32_10 Depth=1
	movq	-8(%rbp), %rax
	movl	16(%rax), %ecx
	addl	$1, %ecx
	movl	%ecx, 16(%rax)
	movl	-12(%rbp), %eax
	subl	$256, %eax              # imm = 0x100
	movl	%eax, -12(%rbp)
.LBB32_42:                              # %if.end158
                                        #   in Loop: Header=BB32_10 Depth=1
	jmp	.LBB32_43
.LBB32_43:                              # %if.end159
                                        #   in Loop: Header=BB32_10 Depth=1
	movl	-12(%rbp), %eax
	shll	$1, %eax
	movl	%eax, -12(%rbp)
	movl	-16(%rbp), %eax
	shll	$1, %eax
	movl	%eax, -16(%rbp)
	jmp	.LBB32_10
.LBB32_44:                              # %while.end162
	movl	-16(%rbp), %eax
	movq	-8(%rbp), %rcx
	movl	%eax, 4(%rcx)
	movl	-12(%rbp), %eax
	movq	-8(%rbp), %rcx
	movl	%eax, (%rcx)
	movq	-8(%rbp), %rax
	movl	80(%rax), %ecx
	addl	$1, %ecx
	movl	%ecx, 80(%rax)
	cmpl	$974616385, -40(%rbp)   # imm = 0x3A177741
	jne	.LBB32_46
.LBB32_45:
	addq	$48, %rsp
	popq	%rbp
	.cfi_def_cfa %rsp, 8
	retq
.LBB32_46:                              # %func_exit
	.cfi_def_cfa %rbp, 16
	callq	detect_breach
	jmp	.LBB32_45
.Lfunc_end32:
	.size	biari_encode_symbol.24, .Lfunc_end32-biari_encode_symbol.24
	.cfi_endproc
                                        # -- End function
	.globl	biari_encode_symbol.25  # -- Begin function biari_encode_symbol.25
	.p2align	4, 0x90
	.type	biari_encode_symbol.25,@function
biari_encode_symbol.25:                 # @biari_encode_symbol.25
	.cfi_startproc
# %bb.0:                                # %entry
	pushq	%rbp
	.cfi_def_cfa_offset 16
	.cfi_offset %rbp, -16
	movq	%rsp, %rbp
	.cfi_def_cfa_register %rbp
	subq	$48, %rsp
	movl	$2029890376, -40(%rbp)  # imm = 0x78FDAB48
	movq	%rdi, -8(%rbp)
	movw	%si, -18(%rbp)
	movq	%rdx, -32(%rbp)
	movq	-8(%rbp), %rax
	movl	4(%rax), %eax
	movl	%eax, -16(%rbp)
	movq	-8(%rbp), %rax
	movl	(%rax), %eax
	movl	%eax, -12(%rbp)
	movq	-32(%rbp), %rax
	movzwl	(%rax), %eax
	shlq	$2, %rax
	movabsq	$rLPS_table_64x4, %rcx
	addq	%rax, %rcx
	movl	-16(%rbp), %eax
	shrl	$6, %eax
	andl	$3, %eax
	movl	%eax, %eax
	movzbl	(%rcx,%rax), %eax
	movl	%eax, -36(%rbp)
	cmpl	$0, cabac_encoding
	je	.LBB33_2
# %bb.1:                                # %if.then
	movq	-32(%rbp), %rax
	movq	8(%rax), %rcx
	addq	$1, %rcx
	movq	%rcx, 8(%rax)
.LBB33_2:                               # %if.end
	movswl	-18(%rbp), %eax
	cmpl	$0, %eax
	je	.LBB33_4
# %bb.3:                                # %if.then5
	movw	$1, -18(%rbp)
.LBB33_4:                               # %if.end6
	movl	-36(%rbp), %eax
	movl	-16(%rbp), %ecx
	subl	%eax, %ecx
	movl	%ecx, -16(%rbp)
	movswl	-18(%rbp), %eax
	movq	-32(%rbp), %rcx
	movzbl	2(%rcx), %ecx
	cmpl	%ecx, %eax
	je	.LBB33_8
# %bb.5:                                # %if.then11
	movl	-16(%rbp), %eax
	addl	-12(%rbp), %eax
	movl	%eax, -12(%rbp)
	movl	-36(%rbp), %eax
	movl	%eax, -16(%rbp)
	movq	-32(%rbp), %rax
	cmpw	$0, (%rax)
	jne	.LBB33_7
# %bb.6:                                # %if.then14
	movq	-32(%rbp), %rax
	movzbl	2(%rax), %eax
	xorl	$1, %eax
	movq	-32(%rbp), %rcx
	movb	%al, 2(%rcx)
.LBB33_7:                               # %if.end19
	movq	-32(%rbp), %rax
	movzwl	(%rax), %eax
	movw	AC_next_state_LPS_64(,%rax,2), %ax
	movq	-32(%rbp), %rcx
	movw	%ax, (%rcx)
	jmp	.LBB33_9
.LBB33_8:                               # %if.else
	movq	-32(%rbp), %rax
	movzwl	(%rax), %eax
	movw	AC_next_state_MPS_64(,%rax,2), %ax
	movq	-32(%rbp), %rcx
	movw	%ax, (%rcx)
.LBB33_9:                               # %if.end28
	jmp	.LBB33_10
.LBB33_10:                              # %while.cond
                                        # =>This Loop Header: Depth=1
                                        #     Child Loop BB33_14 Depth 2
                                        #     Child Loop BB33_18 Depth 2
                                        #       Child Loop BB33_21 Depth 3
                                        #     Child Loop BB33_29 Depth 2
                                        #     Child Loop BB33_33 Depth 2
                                        #       Child Loop BB33_36 Depth 3
	cmpl	$256, -16(%rbp)         # imm = 0x100
	jae	.LBB33_44
# %bb.11:                               # %while.body
                                        #   in Loop: Header=BB33_10 Depth=1
	cmpl	$512, -12(%rbp)         # imm = 0x200
	jb	.LBB33_26
# %bb.12:                               # %if.then33
                                        #   in Loop: Header=BB33_10 Depth=1
	movq	-8(%rbp), %rax
	movl	8(%rax), %ecx
	shll	$1, %ecx
	movl	%ecx, 8(%rax)
	movq	-8(%rbp), %rax
	movl	8(%rax), %ecx
	orl	$1, %ecx
	movl	%ecx, 8(%rax)
	movq	-8(%rbp), %rax
	movl	12(%rax), %ecx
	addl	$-1, %ecx
	movl	%ecx, 12(%rax)
	cmpl	$0, %ecx
	jne	.LBB33_17
# %bb.13:                               # %if.then37
                                        #   in Loop: Header=BB33_10 Depth=1
	movq	-8(%rbp), %rax
	movl	8(%rax), %eax
	movq	-8(%rbp), %rcx
	movq	24(%rcx), %rcx
	movq	-8(%rbp), %rdx
	movq	32(%rdx), %rdx
	movl	(%rdx), %esi
	movl	%esi, %edi
	addl	$1, %edi
	movl	%edi, (%rdx)
	movslq	%esi, %rdx
	movb	%al, (%rcx,%rdx)
	movq	-8(%rbp), %rax
	movl	$8, 12(%rax)
.LBB33_14:                              # %while.cond44
                                        #   Parent Loop BB33_10 Depth=1
                                        # =>  This Inner Loop Header: Depth=2
	movq	-8(%rbp), %rax
	cmpl	$7, 80(%rax)
	jle	.LBB33_16
# %bb.15:                               # %while.body47
                                        #   in Loop: Header=BB33_14 Depth=2
	movq	-8(%rbp), %rax
	movl	80(%rax), %ecx
	subl	$8, %ecx
	movl	%ecx, 80(%rax)
	movq	-8(%rbp), %rax
	movl	88(%rax), %ecx
	addl	$1, %ecx
	movl	%ecx, 88(%rax)
	jmp	.LBB33_14
.LBB33_16:                              # %while.end
                                        #   in Loop: Header=BB33_10 Depth=1
	jmp	.LBB33_17
.LBB33_17:                              # %if.end51
                                        #   in Loop: Header=BB33_10 Depth=1
	jmp	.LBB33_18
.LBB33_18:                              # %while.cond52
                                        #   Parent Loop BB33_10 Depth=1
                                        # =>  This Loop Header: Depth=2
                                        #       Child Loop BB33_21 Depth 3
	movq	-8(%rbp), %rax
	cmpl	$0, 16(%rax)
	jbe	.LBB33_25
# %bb.19:                               # %while.body55
                                        #   in Loop: Header=BB33_18 Depth=2
	movq	-8(%rbp), %rax
	movl	16(%rax), %ecx
	addl	$-1, %ecx
	movl	%ecx, 16(%rax)
	movq	-8(%rbp), %rax
	movl	8(%rax), %ecx
	shll	$1, %ecx
	movl	%ecx, 8(%rax)
	movq	-8(%rbp), %rax
	movl	8(%rax), %ecx
	movl	%ecx, 8(%rax)
	movq	-8(%rbp), %rax
	movl	12(%rax), %ecx
	addl	$-1, %ecx
	movl	%ecx, 12(%rax)
	cmpl	$0, %ecx
	jne	.LBB33_24
# %bb.20:                               # %if.then65
                                        #   in Loop: Header=BB33_18 Depth=2
	movq	-8(%rbp), %rax
	movl	8(%rax), %eax
	movq	-8(%rbp), %rcx
	movq	24(%rcx), %rcx
	movq	-8(%rbp), %rdx
	movq	32(%rdx), %rdx
	movl	(%rdx), %esi
	movl	%esi, %edi
	addl	$1, %edi
	movl	%edi, (%rdx)
	movslq	%esi, %rdx
	movb	%al, (%rcx,%rdx)
	movq	-8(%rbp), %rax
	movl	$8, 12(%rax)
.LBB33_21:                              # %while.cond74
                                        #   Parent Loop BB33_10 Depth=1
                                        #     Parent Loop BB33_18 Depth=2
                                        # =>    This Inner Loop Header: Depth=3
	movq	-8(%rbp), %rax
	cmpl	$7, 80(%rax)
	jle	.LBB33_23
# %bb.22:                               # %while.body78
                                        #   in Loop: Header=BB33_21 Depth=3
	movq	-8(%rbp), %rax
	movl	80(%rax), %ecx
	subl	$8, %ecx
	movl	%ecx, 80(%rax)
	movq	-8(%rbp), %rax
	movl	88(%rax), %ecx
	addl	$1, %ecx
	movl	%ecx, 88(%rax)
	jmp	.LBB33_21
.LBB33_23:                              # %while.end83
                                        #   in Loop: Header=BB33_18 Depth=2
	jmp	.LBB33_24
.LBB33_24:                              # %if.end84
                                        #   in Loop: Header=BB33_18 Depth=2
	jmp	.LBB33_18
.LBB33_25:                              # %while.end85
                                        #   in Loop: Header=BB33_10 Depth=1
	movl	-12(%rbp), %eax
	subl	$512, %eax              # imm = 0x200
	movl	%eax, -12(%rbp)
	jmp	.LBB33_43
.LBB33_26:                              # %if.else87
                                        #   in Loop: Header=BB33_10 Depth=1
	cmpl	$256, -12(%rbp)         # imm = 0x100
	jae	.LBB33_41
# %bb.27:                               # %if.then90
                                        #   in Loop: Header=BB33_10 Depth=1
	movq	-8(%rbp), %rax
	movl	8(%rax), %ecx
	shll	$1, %ecx
	movl	%ecx, 8(%rax)
	movq	-8(%rbp), %rax
	movl	8(%rax), %ecx
	movl	%ecx, 8(%rax)
	movq	-8(%rbp), %rax
	movl	12(%rax), %ecx
	addl	$-1, %ecx
	movl	%ecx, 12(%rax)
	cmpl	$0, %ecx
	jne	.LBB33_32
# %bb.28:                               # %if.then98
                                        #   in Loop: Header=BB33_10 Depth=1
	movq	-8(%rbp), %rax
	movl	8(%rax), %eax
	movq	-8(%rbp), %rcx
	movq	24(%rcx), %rcx
	movq	-8(%rbp), %rdx
	movq	32(%rdx), %rdx
	movl	(%rdx), %esi
	movl	%esi, %edi
	addl	$1, %edi
	movl	%edi, (%rdx)
	movslq	%esi, %rdx
	movb	%al, (%rcx,%rdx)
	movq	-8(%rbp), %rax
	movl	$8, 12(%rax)
.LBB33_29:                              # %while.cond107
                                        #   Parent Loop BB33_10 Depth=1
                                        # =>  This Inner Loop Header: Depth=2
	movq	-8(%rbp), %rax
	cmpl	$7, 80(%rax)
	jle	.LBB33_31
# %bb.30:                               # %while.body111
                                        #   in Loop: Header=BB33_29 Depth=2
	movq	-8(%rbp), %rax
	movl	80(%rax), %ecx
	subl	$8, %ecx
	movl	%ecx, 80(%rax)
	movq	-8(%rbp), %rax
	movl	88(%rax), %ecx
	addl	$1, %ecx
	movl	%ecx, 88(%rax)
	jmp	.LBB33_29
.LBB33_31:                              # %while.end116
                                        #   in Loop: Header=BB33_10 Depth=1
	jmp	.LBB33_32
.LBB33_32:                              # %if.end117
                                        #   in Loop: Header=BB33_10 Depth=1
	jmp	.LBB33_33
.LBB33_33:                              # %while.cond118
                                        #   Parent Loop BB33_10 Depth=1
                                        # =>  This Loop Header: Depth=2
                                        #       Child Loop BB33_36 Depth 3
	movq	-8(%rbp), %rax
	cmpl	$0, 16(%rax)
	jbe	.LBB33_40
# %bb.34:                               # %while.body122
                                        #   in Loop: Header=BB33_33 Depth=2
	movq	-8(%rbp), %rax
	movl	16(%rax), %ecx
	addl	$-1, %ecx
	movl	%ecx, 16(%rax)
	movq	-8(%rbp), %rax
	movl	8(%rax), %ecx
	shll	$1, %ecx
	movl	%ecx, 8(%rax)
	movq	-8(%rbp), %rax
	movl	8(%rax), %ecx
	orl	$1, %ecx
	movl	%ecx, 8(%rax)
	movq	-8(%rbp), %rax
	movl	12(%rax), %ecx
	addl	$-1, %ecx
	movl	%ecx, 12(%rax)
	cmpl	$0, %ecx
	jne	.LBB33_39
# %bb.35:                               # %if.then133
                                        #   in Loop: Header=BB33_33 Depth=2
	movq	-8(%rbp), %rax
	movl	8(%rax), %eax
	movq	-8(%rbp), %rcx
	movq	24(%rcx), %rcx
	movq	-8(%rbp), %rdx
	movq	32(%rdx), %rdx
	movl	(%rdx), %esi
	movl	%esi, %edi
	addl	$1, %edi
	movl	%edi, (%rdx)
	movslq	%esi, %rdx
	movb	%al, (%rcx,%rdx)
	movq	-8(%rbp), %rax
	movl	$8, 12(%rax)
.LBB33_36:                              # %while.cond142
                                        #   Parent Loop BB33_10 Depth=1
                                        #     Parent Loop BB33_33 Depth=2
                                        # =>    This Inner Loop Header: Depth=3
	movq	-8(%rbp), %rax
	cmpl	$7, 80(%rax)
	jle	.LBB33_38
# %bb.37:                               # %while.body146
                                        #   in Loop: Header=BB33_36 Depth=3
	movq	-8(%rbp), %rax
	movl	80(%rax), %ecx
	subl	$8, %ecx
	movl	%ecx, 80(%rax)
	movq	-8(%rbp), %rax
	movl	88(%rax), %ecx
	addl	$1, %ecx
	movl	%ecx, 88(%rax)
	jmp	.LBB33_36
.LBB33_38:                              # %while.end151
                                        #   in Loop: Header=BB33_33 Depth=2
	jmp	.LBB33_39
.LBB33_39:                              # %if.end152
                                        #   in Loop: Header=BB33_33 Depth=2
	jmp	.LBB33_33
.LBB33_40:                              # %while.end153
                                        #   in Loop: Header=BB33_10 Depth=1
	jmp	.LBB33_42
.LBB33_41:                              # %if.else154
                                        #   in Loop: Header=BB33_10 Depth=1
	movq	-8(%rbp), %rax
	movl	16(%rax), %ecx
	addl	$1, %ecx
	movl	%ecx, 16(%rax)
	movl	-12(%rbp), %eax
	subl	$256, %eax              # imm = 0x100
	movl	%eax, -12(%rbp)
.LBB33_42:                              # %if.end158
                                        #   in Loop: Header=BB33_10 Depth=1
	jmp	.LBB33_43
.LBB33_43:                              # %if.end159
                                        #   in Loop: Header=BB33_10 Depth=1
	movl	-12(%rbp), %eax
	shll	$1, %eax
	movl	%eax, -12(%rbp)
	movl	-16(%rbp), %eax
	shll	$1, %eax
	movl	%eax, -16(%rbp)
	jmp	.LBB33_10
.LBB33_44:                              # %while.end162
	movl	-16(%rbp), %eax
	movq	-8(%rbp), %rcx
	movl	%eax, 4(%rcx)
	movl	-12(%rbp), %eax
	movq	-8(%rbp), %rcx
	movl	%eax, (%rcx)
	movq	-8(%rbp), %rax
	movl	80(%rax), %ecx
	addl	$1, %ecx
	movl	%ecx, 80(%rax)
	cmpl	$2029890376, -40(%rbp)  # imm = 0x78FDAB48
	jne	.LBB33_46
.LBB33_45:
	addq	$48, %rsp
	popq	%rbp
	.cfi_def_cfa %rsp, 8
	retq
.LBB33_46:                              # %func_exit
	.cfi_def_cfa %rbp, 16
	callq	detect_breach
	jmp	.LBB33_45
.Lfunc_end33:
	.size	biari_encode_symbol.25, .Lfunc_end33-biari_encode_symbol.25
	.cfi_endproc
                                        # -- End function
	.globl	biari_encode_symbol.26  # -- Begin function biari_encode_symbol.26
	.p2align	4, 0x90
	.type	biari_encode_symbol.26,@function
biari_encode_symbol.26:                 # @biari_encode_symbol.26
	.cfi_startproc
# %bb.0:                                # %entry
	pushq	%rbp
	.cfi_def_cfa_offset 16
	.cfi_offset %rbp, -16
	movq	%rsp, %rbp
	.cfi_def_cfa_register %rbp
	subq	$48, %rsp
	movl	$780690635, -40(%rbp)   # imm = 0x2E8864CB
	movq	%rdi, -8(%rbp)
	movw	%si, -18(%rbp)
	movq	%rdx, -32(%rbp)
	movq	-8(%rbp), %rax
	movl	4(%rax), %eax
	movl	%eax, -16(%rbp)
	movq	-8(%rbp), %rax
	movl	(%rax), %eax
	movl	%eax, -12(%rbp)
	movq	-32(%rbp), %rax
	movzwl	(%rax), %eax
	shlq	$2, %rax
	movabsq	$rLPS_table_64x4, %rcx
	addq	%rax, %rcx
	movl	-16(%rbp), %eax
	shrl	$6, %eax
	andl	$3, %eax
	movl	%eax, %eax
	movzbl	(%rcx,%rax), %eax
	movl	%eax, -36(%rbp)
	cmpl	$0, cabac_encoding
	je	.LBB34_2
# %bb.1:                                # %if.then
	movq	-32(%rbp), %rax
	movq	8(%rax), %rcx
	addq	$1, %rcx
	movq	%rcx, 8(%rax)
.LBB34_2:                               # %if.end
	movswl	-18(%rbp), %eax
	cmpl	$0, %eax
	je	.LBB34_4
# %bb.3:                                # %if.then5
	movw	$1, -18(%rbp)
.LBB34_4:                               # %if.end6
	movl	-36(%rbp), %eax
	movl	-16(%rbp), %ecx
	subl	%eax, %ecx
	movl	%ecx, -16(%rbp)
	movswl	-18(%rbp), %eax
	movq	-32(%rbp), %rcx
	movzbl	2(%rcx), %ecx
	cmpl	%ecx, %eax
	je	.LBB34_8
# %bb.5:                                # %if.then11
	movl	-16(%rbp), %eax
	addl	-12(%rbp), %eax
	movl	%eax, -12(%rbp)
	movl	-36(%rbp), %eax
	movl	%eax, -16(%rbp)
	movq	-32(%rbp), %rax
	cmpw	$0, (%rax)
	jne	.LBB34_7
# %bb.6:                                # %if.then14
	movq	-32(%rbp), %rax
	movzbl	2(%rax), %eax
	xorl	$1, %eax
	movq	-32(%rbp), %rcx
	movb	%al, 2(%rcx)
.LBB34_7:                               # %if.end19
	movq	-32(%rbp), %rax
	movzwl	(%rax), %eax
	movw	AC_next_state_LPS_64(,%rax,2), %ax
	movq	-32(%rbp), %rcx
	movw	%ax, (%rcx)
	jmp	.LBB34_9
.LBB34_8:                               # %if.else
	movq	-32(%rbp), %rax
	movzwl	(%rax), %eax
	movw	AC_next_state_MPS_64(,%rax,2), %ax
	movq	-32(%rbp), %rcx
	movw	%ax, (%rcx)
.LBB34_9:                               # %if.end28
	jmp	.LBB34_10
.LBB34_10:                              # %while.cond
                                        # =>This Loop Header: Depth=1
                                        #     Child Loop BB34_14 Depth 2
                                        #     Child Loop BB34_18 Depth 2
                                        #       Child Loop BB34_21 Depth 3
                                        #     Child Loop BB34_29 Depth 2
                                        #     Child Loop BB34_33 Depth 2
                                        #       Child Loop BB34_36 Depth 3
	cmpl	$256, -16(%rbp)         # imm = 0x100
	jae	.LBB34_44
# %bb.11:                               # %while.body
                                        #   in Loop: Header=BB34_10 Depth=1
	cmpl	$512, -12(%rbp)         # imm = 0x200
	jb	.LBB34_26
# %bb.12:                               # %if.then33
                                        #   in Loop: Header=BB34_10 Depth=1
	movq	-8(%rbp), %rax
	movl	8(%rax), %ecx
	shll	$1, %ecx
	movl	%ecx, 8(%rax)
	movq	-8(%rbp), %rax
	movl	8(%rax), %ecx
	orl	$1, %ecx
	movl	%ecx, 8(%rax)
	movq	-8(%rbp), %rax
	movl	12(%rax), %ecx
	addl	$-1, %ecx
	movl	%ecx, 12(%rax)
	cmpl	$0, %ecx
	jne	.LBB34_17
# %bb.13:                               # %if.then37
                                        #   in Loop: Header=BB34_10 Depth=1
	movq	-8(%rbp), %rax
	movl	8(%rax), %eax
	movq	-8(%rbp), %rcx
	movq	24(%rcx), %rcx
	movq	-8(%rbp), %rdx
	movq	32(%rdx), %rdx
	movl	(%rdx), %esi
	movl	%esi, %edi
	addl	$1, %edi
	movl	%edi, (%rdx)
	movslq	%esi, %rdx
	movb	%al, (%rcx,%rdx)
	movq	-8(%rbp), %rax
	movl	$8, 12(%rax)
.LBB34_14:                              # %while.cond44
                                        #   Parent Loop BB34_10 Depth=1
                                        # =>  This Inner Loop Header: Depth=2
	movq	-8(%rbp), %rax
	cmpl	$7, 80(%rax)
	jle	.LBB34_16
# %bb.15:                               # %while.body47
                                        #   in Loop: Header=BB34_14 Depth=2
	movq	-8(%rbp), %rax
	movl	80(%rax), %ecx
	subl	$8, %ecx
	movl	%ecx, 80(%rax)
	movq	-8(%rbp), %rax
	movl	88(%rax), %ecx
	addl	$1, %ecx
	movl	%ecx, 88(%rax)
	jmp	.LBB34_14
.LBB34_16:                              # %while.end
                                        #   in Loop: Header=BB34_10 Depth=1
	jmp	.LBB34_17
.LBB34_17:                              # %if.end51
                                        #   in Loop: Header=BB34_10 Depth=1
	jmp	.LBB34_18
.LBB34_18:                              # %while.cond52
                                        #   Parent Loop BB34_10 Depth=1
                                        # =>  This Loop Header: Depth=2
                                        #       Child Loop BB34_21 Depth 3
	movq	-8(%rbp), %rax
	cmpl	$0, 16(%rax)
	jbe	.LBB34_25
# %bb.19:                               # %while.body55
                                        #   in Loop: Header=BB34_18 Depth=2
	movq	-8(%rbp), %rax
	movl	16(%rax), %ecx
	addl	$-1, %ecx
	movl	%ecx, 16(%rax)
	movq	-8(%rbp), %rax
	movl	8(%rax), %ecx
	shll	$1, %ecx
	movl	%ecx, 8(%rax)
	movq	-8(%rbp), %rax
	movl	8(%rax), %ecx
	movl	%ecx, 8(%rax)
	movq	-8(%rbp), %rax
	movl	12(%rax), %ecx
	addl	$-1, %ecx
	movl	%ecx, 12(%rax)
	cmpl	$0, %ecx
	jne	.LBB34_24
# %bb.20:                               # %if.then65
                                        #   in Loop: Header=BB34_18 Depth=2
	movq	-8(%rbp), %rax
	movl	8(%rax), %eax
	movq	-8(%rbp), %rcx
	movq	24(%rcx), %rcx
	movq	-8(%rbp), %rdx
	movq	32(%rdx), %rdx
	movl	(%rdx), %esi
	movl	%esi, %edi
	addl	$1, %edi
	movl	%edi, (%rdx)
	movslq	%esi, %rdx
	movb	%al, (%rcx,%rdx)
	movq	-8(%rbp), %rax
	movl	$8, 12(%rax)
.LBB34_21:                              # %while.cond74
                                        #   Parent Loop BB34_10 Depth=1
                                        #     Parent Loop BB34_18 Depth=2
                                        # =>    This Inner Loop Header: Depth=3
	movq	-8(%rbp), %rax
	cmpl	$7, 80(%rax)
	jle	.LBB34_23
# %bb.22:                               # %while.body78
                                        #   in Loop: Header=BB34_21 Depth=3
	movq	-8(%rbp), %rax
	movl	80(%rax), %ecx
	subl	$8, %ecx
	movl	%ecx, 80(%rax)
	movq	-8(%rbp), %rax
	movl	88(%rax), %ecx
	addl	$1, %ecx
	movl	%ecx, 88(%rax)
	jmp	.LBB34_21
.LBB34_23:                              # %while.end83
                                        #   in Loop: Header=BB34_18 Depth=2
	jmp	.LBB34_24
.LBB34_24:                              # %if.end84
                                        #   in Loop: Header=BB34_18 Depth=2
	jmp	.LBB34_18
.LBB34_25:                              # %while.end85
                                        #   in Loop: Header=BB34_10 Depth=1
	movl	-12(%rbp), %eax
	subl	$512, %eax              # imm = 0x200
	movl	%eax, -12(%rbp)
	jmp	.LBB34_43
.LBB34_26:                              # %if.else87
                                        #   in Loop: Header=BB34_10 Depth=1
	cmpl	$256, -12(%rbp)         # imm = 0x100
	jae	.LBB34_41
# %bb.27:                               # %if.then90
                                        #   in Loop: Header=BB34_10 Depth=1
	movq	-8(%rbp), %rax
	movl	8(%rax), %ecx
	shll	$1, %ecx
	movl	%ecx, 8(%rax)
	movq	-8(%rbp), %rax
	movl	8(%rax), %ecx
	movl	%ecx, 8(%rax)
	movq	-8(%rbp), %rax
	movl	12(%rax), %ecx
	addl	$-1, %ecx
	movl	%ecx, 12(%rax)
	cmpl	$0, %ecx
	jne	.LBB34_32
# %bb.28:                               # %if.then98
                                        #   in Loop: Header=BB34_10 Depth=1
	movq	-8(%rbp), %rax
	movl	8(%rax), %eax
	movq	-8(%rbp), %rcx
	movq	24(%rcx), %rcx
	movq	-8(%rbp), %rdx
	movq	32(%rdx), %rdx
	movl	(%rdx), %esi
	movl	%esi, %edi
	addl	$1, %edi
	movl	%edi, (%rdx)
	movslq	%esi, %rdx
	movb	%al, (%rcx,%rdx)
	movq	-8(%rbp), %rax
	movl	$8, 12(%rax)
.LBB34_29:                              # %while.cond107
                                        #   Parent Loop BB34_10 Depth=1
                                        # =>  This Inner Loop Header: Depth=2
	movq	-8(%rbp), %rax
	cmpl	$7, 80(%rax)
	jle	.LBB34_31
# %bb.30:                               # %while.body111
                                        #   in Loop: Header=BB34_29 Depth=2
	movq	-8(%rbp), %rax
	movl	80(%rax), %ecx
	subl	$8, %ecx
	movl	%ecx, 80(%rax)
	movq	-8(%rbp), %rax
	movl	88(%rax), %ecx
	addl	$1, %ecx
	movl	%ecx, 88(%rax)
	jmp	.LBB34_29
.LBB34_31:                              # %while.end116
                                        #   in Loop: Header=BB34_10 Depth=1
	jmp	.LBB34_32
.LBB34_32:                              # %if.end117
                                        #   in Loop: Header=BB34_10 Depth=1
	jmp	.LBB34_33
.LBB34_33:                              # %while.cond118
                                        #   Parent Loop BB34_10 Depth=1
                                        # =>  This Loop Header: Depth=2
                                        #       Child Loop BB34_36 Depth 3
	movq	-8(%rbp), %rax
	cmpl	$0, 16(%rax)
	jbe	.LBB34_40
# %bb.34:                               # %while.body122
                                        #   in Loop: Header=BB34_33 Depth=2
	movq	-8(%rbp), %rax
	movl	16(%rax), %ecx
	addl	$-1, %ecx
	movl	%ecx, 16(%rax)
	movq	-8(%rbp), %rax
	movl	8(%rax), %ecx
	shll	$1, %ecx
	movl	%ecx, 8(%rax)
	movq	-8(%rbp), %rax
	movl	8(%rax), %ecx
	orl	$1, %ecx
	movl	%ecx, 8(%rax)
	movq	-8(%rbp), %rax
	movl	12(%rax), %ecx
	addl	$-1, %ecx
	movl	%ecx, 12(%rax)
	cmpl	$0, %ecx
	jne	.LBB34_39
# %bb.35:                               # %if.then133
                                        #   in Loop: Header=BB34_33 Depth=2
	movq	-8(%rbp), %rax
	movl	8(%rax), %eax
	movq	-8(%rbp), %rcx
	movq	24(%rcx), %rcx
	movq	-8(%rbp), %rdx
	movq	32(%rdx), %rdx
	movl	(%rdx), %esi
	movl	%esi, %edi
	addl	$1, %edi
	movl	%edi, (%rdx)
	movslq	%esi, %rdx
	movb	%al, (%rcx,%rdx)
	movq	-8(%rbp), %rax
	movl	$8, 12(%rax)
.LBB34_36:                              # %while.cond142
                                        #   Parent Loop BB34_10 Depth=1
                                        #     Parent Loop BB34_33 Depth=2
                                        # =>    This Inner Loop Header: Depth=3
	movq	-8(%rbp), %rax
	cmpl	$7, 80(%rax)
	jle	.LBB34_38
# %bb.37:                               # %while.body146
                                        #   in Loop: Header=BB34_36 Depth=3
	movq	-8(%rbp), %rax
	movl	80(%rax), %ecx
	subl	$8, %ecx
	movl	%ecx, 80(%rax)
	movq	-8(%rbp), %rax
	movl	88(%rax), %ecx
	addl	$1, %ecx
	movl	%ecx, 88(%rax)
	jmp	.LBB34_36
.LBB34_38:                              # %while.end151
                                        #   in Loop: Header=BB34_33 Depth=2
	jmp	.LBB34_39
.LBB34_39:                              # %if.end152
                                        #   in Loop: Header=BB34_33 Depth=2
	jmp	.LBB34_33
.LBB34_40:                              # %while.end153
                                        #   in Loop: Header=BB34_10 Depth=1
	jmp	.LBB34_42
.LBB34_41:                              # %if.else154
                                        #   in Loop: Header=BB34_10 Depth=1
	movq	-8(%rbp), %rax
	movl	16(%rax), %ecx
	addl	$1, %ecx
	movl	%ecx, 16(%rax)
	movl	-12(%rbp), %eax
	subl	$256, %eax              # imm = 0x100
	movl	%eax, -12(%rbp)
.LBB34_42:                              # %if.end158
                                        #   in Loop: Header=BB34_10 Depth=1
	jmp	.LBB34_43
.LBB34_43:                              # %if.end159
                                        #   in Loop: Header=BB34_10 Depth=1
	movl	-12(%rbp), %eax
	shll	$1, %eax
	movl	%eax, -12(%rbp)
	movl	-16(%rbp), %eax
	shll	$1, %eax
	movl	%eax, -16(%rbp)
	jmp	.LBB34_10
.LBB34_44:                              # %while.end162
	movl	-16(%rbp), %eax
	movq	-8(%rbp), %rcx
	movl	%eax, 4(%rcx)
	movl	-12(%rbp), %eax
	movq	-8(%rbp), %rcx
	movl	%eax, (%rcx)
	movq	-8(%rbp), %rax
	movl	80(%rax), %ecx
	addl	$1, %ecx
	movl	%ecx, 80(%rax)
	cmpl	$780690635, -40(%rbp)   # imm = 0x2E8864CB
	jne	.LBB34_46
.LBB34_45:
	addq	$48, %rsp
	popq	%rbp
	.cfi_def_cfa %rsp, 8
	retq
.LBB34_46:                              # %func_exit
	.cfi_def_cfa %rbp, 16
	callq	detect_breach
	jmp	.LBB34_45
.Lfunc_end34:
	.size	biari_encode_symbol.26, .Lfunc_end34-biari_encode_symbol.26
	.cfi_endproc
                                        # -- End function
	.globl	arienco_start_encoding.27 # -- Begin function arienco_start_encoding.27
	.p2align	4, 0x90
	.type	arienco_start_encoding.27,@function
arienco_start_encoding.27:              # @arienco_start_encoding.27
	.cfi_startproc
# %bb.0:                                # %entry
	pushq	%rbp
	.cfi_def_cfa_offset 16
	.cfi_offset %rbp, -16
	movq	%rsp, %rbp
	.cfi_def_cfa_register %rbp
	subq	$48, %rsp
	movl	$1875531408, -12(%rbp)  # imm = 0x6FCA5690
	movq	%rdi, -8(%rbp)
	movq	%rsi, -32(%rbp)
	movq	%rdx, -24(%rbp)
	movl	%ecx, -36(%rbp)
	movq	-8(%rbp), %rax
	movl	$0, (%rax)
	movq	-8(%rbp), %rax
	movl	$0, 16(%rax)
	movq	-8(%rbp), %rax
	movl	$0, 8(%rax)
	movq	-8(%rbp), %rax
	movl	$9, 12(%rax)
	movq	-32(%rbp), %rax
	movq	-8(%rbp), %rcx
	movq	%rax, 24(%rcx)
	movq	-24(%rbp), %rax
	movq	-8(%rbp), %rcx
	movq	%rax, 32(%rcx)
	movq	-8(%rbp), %rax
	movl	$510, 4(%rax)           # imm = 0x1FE
	movq	-8(%rbp), %rax
	movl	$0, 80(%rax)
	movq	-24(%rbp), %rax
	movl	(%rax), %eax
	movq	-8(%rbp), %rcx
	movl	%eax, 96(%rcx)
	movq	-8(%rbp), %rax
	movl	$0, 88(%rax)
	cmpl	$1875531408, -12(%rbp)  # imm = 0x6FCA5690
	jne	.LBB35_2
.LBB35_1:
	addq	$48, %rsp
	popq	%rbp
	.cfi_def_cfa %rsp, 8
	retq
.LBB35_2:                               # %func_exit
	.cfi_def_cfa %rbp, 16
	callq	detect_breach
	jmp	.LBB35_1
.Lfunc_end35:
	.size	arienco_start_encoding.27, .Lfunc_end35-arienco_start_encoding.27
	.cfi_endproc
                                        # -- End function
	.globl	arienco_start_encoding.28 # -- Begin function arienco_start_encoding.28
	.p2align	4, 0x90
	.type	arienco_start_encoding.28,@function
arienco_start_encoding.28:              # @arienco_start_encoding.28
	.cfi_startproc
# %bb.0:                                # %entry
	pushq	%rbp
	.cfi_def_cfa_offset 16
	.cfi_offset %rbp, -16
	movq	%rsp, %rbp
	.cfi_def_cfa_register %rbp
	subq	$48, %rsp
	movl	$1770614937, -12(%rbp)  # imm = 0x69897099
	movq	%rdi, -8(%rbp)
	movq	%rsi, -32(%rbp)
	movq	%rdx, -24(%rbp)
	movl	%ecx, -36(%rbp)
	movq	-8(%rbp), %rax
	movl	$0, (%rax)
	movq	-8(%rbp), %rax
	movl	$0, 16(%rax)
	movq	-8(%rbp), %rax
	movl	$0, 8(%rax)
	movq	-8(%rbp), %rax
	movl	$9, 12(%rax)
	movq	-32(%rbp), %rax
	movq	-8(%rbp), %rcx
	movq	%rax, 24(%rcx)
	movq	-24(%rbp), %rax
	movq	-8(%rbp), %rcx
	movq	%rax, 32(%rcx)
	movq	-8(%rbp), %rax
	movl	$510, 4(%rax)           # imm = 0x1FE
	movq	-8(%rbp), %rax
	movl	$0, 80(%rax)
	movq	-24(%rbp), %rax
	movl	(%rax), %eax
	movq	-8(%rbp), %rcx
	movl	%eax, 96(%rcx)
	movq	-8(%rbp), %rax
	movl	$0, 88(%rax)
	cmpl	$1770614937, -12(%rbp)  # imm = 0x69897099
	jne	.LBB36_2
.LBB36_1:
	addq	$48, %rsp
	popq	%rbp
	.cfi_def_cfa %rsp, 8
	retq
.LBB36_2:                               # %func_exit
	.cfi_def_cfa %rbp, 16
	callq	detect_breach
	jmp	.LBB36_1
.Lfunc_end36:
	.size	arienco_start_encoding.28, .Lfunc_end36-arienco_start_encoding.28
	.cfi_endproc
                                        # -- End function
	.globl	biari_encode_symbol.29  # -- Begin function biari_encode_symbol.29
	.p2align	4, 0x90
	.type	biari_encode_symbol.29,@function
biari_encode_symbol.29:                 # @biari_encode_symbol.29
	.cfi_startproc
# %bb.0:                                # %entry
	pushq	%rbp
	.cfi_def_cfa_offset 16
	.cfi_offset %rbp, -16
	movq	%rsp, %rbp
	.cfi_def_cfa_register %rbp
	subq	$48, %rsp
	movl	$430034814, -40(%rbp)   # imm = 0x19A1CF7E
	movq	%rdi, -8(%rbp)
	movw	%si, -18(%rbp)
	movq	%rdx, -32(%rbp)
	movq	-8(%rbp), %rax
	movl	4(%rax), %eax
	movl	%eax, -16(%rbp)
	movq	-8(%rbp), %rax
	movl	(%rax), %eax
	movl	%eax, -12(%rbp)
	movq	-32(%rbp), %rax
	movzwl	(%rax), %eax
	shlq	$2, %rax
	movabsq	$rLPS_table_64x4, %rcx
	addq	%rax, %rcx
	movl	-16(%rbp), %eax
	shrl	$6, %eax
	andl	$3, %eax
	movl	%eax, %eax
	movzbl	(%rcx,%rax), %eax
	movl	%eax, -36(%rbp)
	cmpl	$0, cabac_encoding
	je	.LBB37_2
# %bb.1:                                # %if.then
	movq	-32(%rbp), %rax
	movq	8(%rax), %rcx
	addq	$1, %rcx
	movq	%rcx, 8(%rax)
.LBB37_2:                               # %if.end
	movswl	-18(%rbp), %eax
	cmpl	$0, %eax
	je	.LBB37_4
# %bb.3:                                # %if.then5
	movw	$1, -18(%rbp)
.LBB37_4:                               # %if.end6
	movl	-36(%rbp), %eax
	movl	-16(%rbp), %ecx
	subl	%eax, %ecx
	movl	%ecx, -16(%rbp)
	movswl	-18(%rbp), %eax
	movq	-32(%rbp), %rcx
	movzbl	2(%rcx), %ecx
	cmpl	%ecx, %eax
	je	.LBB37_8
# %bb.5:                                # %if.then11
	movl	-16(%rbp), %eax
	addl	-12(%rbp), %eax
	movl	%eax, -12(%rbp)
	movl	-36(%rbp), %eax
	movl	%eax, -16(%rbp)
	movq	-32(%rbp), %rax
	cmpw	$0, (%rax)
	jne	.LBB37_7
# %bb.6:                                # %if.then14
	movq	-32(%rbp), %rax
	movzbl	2(%rax), %eax
	xorl	$1, %eax
	movq	-32(%rbp), %rcx
	movb	%al, 2(%rcx)
.LBB37_7:                               # %if.end19
	movq	-32(%rbp), %rax
	movzwl	(%rax), %eax
	movw	AC_next_state_LPS_64(,%rax,2), %ax
	movq	-32(%rbp), %rcx
	movw	%ax, (%rcx)
	jmp	.LBB37_9
.LBB37_8:                               # %if.else
	movq	-32(%rbp), %rax
	movzwl	(%rax), %eax
	movw	AC_next_state_MPS_64(,%rax,2), %ax
	movq	-32(%rbp), %rcx
	movw	%ax, (%rcx)
.LBB37_9:                               # %if.end28
	jmp	.LBB37_10
.LBB37_10:                              # %while.cond
                                        # =>This Loop Header: Depth=1
                                        #     Child Loop BB37_14 Depth 2
                                        #     Child Loop BB37_18 Depth 2
                                        #       Child Loop BB37_21 Depth 3
                                        #     Child Loop BB37_29 Depth 2
                                        #     Child Loop BB37_33 Depth 2
                                        #       Child Loop BB37_36 Depth 3
	cmpl	$256, -16(%rbp)         # imm = 0x100
	jae	.LBB37_44
# %bb.11:                               # %while.body
                                        #   in Loop: Header=BB37_10 Depth=1
	cmpl	$512, -12(%rbp)         # imm = 0x200
	jb	.LBB37_26
# %bb.12:                               # %if.then33
                                        #   in Loop: Header=BB37_10 Depth=1
	movq	-8(%rbp), %rax
	movl	8(%rax), %ecx
	shll	$1, %ecx
	movl	%ecx, 8(%rax)
	movq	-8(%rbp), %rax
	movl	8(%rax), %ecx
	orl	$1, %ecx
	movl	%ecx, 8(%rax)
	movq	-8(%rbp), %rax
	movl	12(%rax), %ecx
	addl	$-1, %ecx
	movl	%ecx, 12(%rax)
	cmpl	$0, %ecx
	jne	.LBB37_17
# %bb.13:                               # %if.then37
                                        #   in Loop: Header=BB37_10 Depth=1
	movq	-8(%rbp), %rax
	movl	8(%rax), %eax
	movq	-8(%rbp), %rcx
	movq	24(%rcx), %rcx
	movq	-8(%rbp), %rdx
	movq	32(%rdx), %rdx
	movl	(%rdx), %esi
	movl	%esi, %edi
	addl	$1, %edi
	movl	%edi, (%rdx)
	movslq	%esi, %rdx
	movb	%al, (%rcx,%rdx)
	movq	-8(%rbp), %rax
	movl	$8, 12(%rax)
.LBB37_14:                              # %while.cond44
                                        #   Parent Loop BB37_10 Depth=1
                                        # =>  This Inner Loop Header: Depth=2
	movq	-8(%rbp), %rax
	cmpl	$7, 80(%rax)
	jle	.LBB37_16
# %bb.15:                               # %while.body47
                                        #   in Loop: Header=BB37_14 Depth=2
	movq	-8(%rbp), %rax
	movl	80(%rax), %ecx
	subl	$8, %ecx
	movl	%ecx, 80(%rax)
	movq	-8(%rbp), %rax
	movl	88(%rax), %ecx
	addl	$1, %ecx
	movl	%ecx, 88(%rax)
	jmp	.LBB37_14
.LBB37_16:                              # %while.end
                                        #   in Loop: Header=BB37_10 Depth=1
	jmp	.LBB37_17
.LBB37_17:                              # %if.end51
                                        #   in Loop: Header=BB37_10 Depth=1
	jmp	.LBB37_18
.LBB37_18:                              # %while.cond52
                                        #   Parent Loop BB37_10 Depth=1
                                        # =>  This Loop Header: Depth=2
                                        #       Child Loop BB37_21 Depth 3
	movq	-8(%rbp), %rax
	cmpl	$0, 16(%rax)
	jbe	.LBB37_25
# %bb.19:                               # %while.body55
                                        #   in Loop: Header=BB37_18 Depth=2
	movq	-8(%rbp), %rax
	movl	16(%rax), %ecx
	addl	$-1, %ecx
	movl	%ecx, 16(%rax)
	movq	-8(%rbp), %rax
	movl	8(%rax), %ecx
	shll	$1, %ecx
	movl	%ecx, 8(%rax)
	movq	-8(%rbp), %rax
	movl	8(%rax), %ecx
	movl	%ecx, 8(%rax)
	movq	-8(%rbp), %rax
	movl	12(%rax), %ecx
	addl	$-1, %ecx
	movl	%ecx, 12(%rax)
	cmpl	$0, %ecx
	jne	.LBB37_24
# %bb.20:                               # %if.then65
                                        #   in Loop: Header=BB37_18 Depth=2
	movq	-8(%rbp), %rax
	movl	8(%rax), %eax
	movq	-8(%rbp), %rcx
	movq	24(%rcx), %rcx
	movq	-8(%rbp), %rdx
	movq	32(%rdx), %rdx
	movl	(%rdx), %esi
	movl	%esi, %edi
	addl	$1, %edi
	movl	%edi, (%rdx)
	movslq	%esi, %rdx
	movb	%al, (%rcx,%rdx)
	movq	-8(%rbp), %rax
	movl	$8, 12(%rax)
.LBB37_21:                              # %while.cond74
                                        #   Parent Loop BB37_10 Depth=1
                                        #     Parent Loop BB37_18 Depth=2
                                        # =>    This Inner Loop Header: Depth=3
	movq	-8(%rbp), %rax
	cmpl	$7, 80(%rax)
	jle	.LBB37_23
# %bb.22:                               # %while.body78
                                        #   in Loop: Header=BB37_21 Depth=3
	movq	-8(%rbp), %rax
	movl	80(%rax), %ecx
	subl	$8, %ecx
	movl	%ecx, 80(%rax)
	movq	-8(%rbp), %rax
	movl	88(%rax), %ecx
	addl	$1, %ecx
	movl	%ecx, 88(%rax)
	jmp	.LBB37_21
.LBB37_23:                              # %while.end83
                                        #   in Loop: Header=BB37_18 Depth=2
	jmp	.LBB37_24
.LBB37_24:                              # %if.end84
                                        #   in Loop: Header=BB37_18 Depth=2
	jmp	.LBB37_18
.LBB37_25:                              # %while.end85
                                        #   in Loop: Header=BB37_10 Depth=1
	movl	-12(%rbp), %eax
	subl	$512, %eax              # imm = 0x200
	movl	%eax, -12(%rbp)
	jmp	.LBB37_43
.LBB37_26:                              # %if.else87
                                        #   in Loop: Header=BB37_10 Depth=1
	cmpl	$256, -12(%rbp)         # imm = 0x100
	jae	.LBB37_41
# %bb.27:                               # %if.then90
                                        #   in Loop: Header=BB37_10 Depth=1
	movq	-8(%rbp), %rax
	movl	8(%rax), %ecx
	shll	$1, %ecx
	movl	%ecx, 8(%rax)
	movq	-8(%rbp), %rax
	movl	8(%rax), %ecx
	movl	%ecx, 8(%rax)
	movq	-8(%rbp), %rax
	movl	12(%rax), %ecx
	addl	$-1, %ecx
	movl	%ecx, 12(%rax)
	cmpl	$0, %ecx
	jne	.LBB37_32
# %bb.28:                               # %if.then98
                                        #   in Loop: Header=BB37_10 Depth=1
	movq	-8(%rbp), %rax
	movl	8(%rax), %eax
	movq	-8(%rbp), %rcx
	movq	24(%rcx), %rcx
	movq	-8(%rbp), %rdx
	movq	32(%rdx), %rdx
	movl	(%rdx), %esi
	movl	%esi, %edi
	addl	$1, %edi
	movl	%edi, (%rdx)
	movslq	%esi, %rdx
	movb	%al, (%rcx,%rdx)
	movq	-8(%rbp), %rax
	movl	$8, 12(%rax)
.LBB37_29:                              # %while.cond107
                                        #   Parent Loop BB37_10 Depth=1
                                        # =>  This Inner Loop Header: Depth=2
	movq	-8(%rbp), %rax
	cmpl	$7, 80(%rax)
	jle	.LBB37_31
# %bb.30:                               # %while.body111
                                        #   in Loop: Header=BB37_29 Depth=2
	movq	-8(%rbp), %rax
	movl	80(%rax), %ecx
	subl	$8, %ecx
	movl	%ecx, 80(%rax)
	movq	-8(%rbp), %rax
	movl	88(%rax), %ecx
	addl	$1, %ecx
	movl	%ecx, 88(%rax)
	jmp	.LBB37_29
.LBB37_31:                              # %while.end116
                                        #   in Loop: Header=BB37_10 Depth=1
	jmp	.LBB37_32
.LBB37_32:                              # %if.end117
                                        #   in Loop: Header=BB37_10 Depth=1
	jmp	.LBB37_33
.LBB37_33:                              # %while.cond118
                                        #   Parent Loop BB37_10 Depth=1
                                        # =>  This Loop Header: Depth=2
                                        #       Child Loop BB37_36 Depth 3
	movq	-8(%rbp), %rax
	cmpl	$0, 16(%rax)
	jbe	.LBB37_40
# %bb.34:                               # %while.body122
                                        #   in Loop: Header=BB37_33 Depth=2
	movq	-8(%rbp), %rax
	movl	16(%rax), %ecx
	addl	$-1, %ecx
	movl	%ecx, 16(%rax)
	movq	-8(%rbp), %rax
	movl	8(%rax), %ecx
	shll	$1, %ecx
	movl	%ecx, 8(%rax)
	movq	-8(%rbp), %rax
	movl	8(%rax), %ecx
	orl	$1, %ecx
	movl	%ecx, 8(%rax)
	movq	-8(%rbp), %rax
	movl	12(%rax), %ecx
	addl	$-1, %ecx
	movl	%ecx, 12(%rax)
	cmpl	$0, %ecx
	jne	.LBB37_39
# %bb.35:                               # %if.then133
                                        #   in Loop: Header=BB37_33 Depth=2
	movq	-8(%rbp), %rax
	movl	8(%rax), %eax
	movq	-8(%rbp), %rcx
	movq	24(%rcx), %rcx
	movq	-8(%rbp), %rdx
	movq	32(%rdx), %rdx
	movl	(%rdx), %esi
	movl	%esi, %edi
	addl	$1, %edi
	movl	%edi, (%rdx)
	movslq	%esi, %rdx
	movb	%al, (%rcx,%rdx)
	movq	-8(%rbp), %rax
	movl	$8, 12(%rax)
.LBB37_36:                              # %while.cond142
                                        #   Parent Loop BB37_10 Depth=1
                                        #     Parent Loop BB37_33 Depth=2
                                        # =>    This Inner Loop Header: Depth=3
	movq	-8(%rbp), %rax
	cmpl	$7, 80(%rax)
	jle	.LBB37_38
# %bb.37:                               # %while.body146
                                        #   in Loop: Header=BB37_36 Depth=3
	movq	-8(%rbp), %rax
	movl	80(%rax), %ecx
	subl	$8, %ecx
	movl	%ecx, 80(%rax)
	movq	-8(%rbp), %rax
	movl	88(%rax), %ecx
	addl	$1, %ecx
	movl	%ecx, 88(%rax)
	jmp	.LBB37_36
.LBB37_38:                              # %while.end151
                                        #   in Loop: Header=BB37_33 Depth=2
	jmp	.LBB37_39
.LBB37_39:                              # %if.end152
                                        #   in Loop: Header=BB37_33 Depth=2
	jmp	.LBB37_33
.LBB37_40:                              # %while.end153
                                        #   in Loop: Header=BB37_10 Depth=1
	jmp	.LBB37_42
.LBB37_41:                              # %if.else154
                                        #   in Loop: Header=BB37_10 Depth=1
	movq	-8(%rbp), %rax
	movl	16(%rax), %ecx
	addl	$1, %ecx
	movl	%ecx, 16(%rax)
	movl	-12(%rbp), %eax
	subl	$256, %eax              # imm = 0x100
	movl	%eax, -12(%rbp)
.LBB37_42:                              # %if.end158
                                        #   in Loop: Header=BB37_10 Depth=1
	jmp	.LBB37_43
.LBB37_43:                              # %if.end159
                                        #   in Loop: Header=BB37_10 Depth=1
	movl	-12(%rbp), %eax
	shll	$1, %eax
	movl	%eax, -12(%rbp)
	movl	-16(%rbp), %eax
	shll	$1, %eax
	movl	%eax, -16(%rbp)
	jmp	.LBB37_10
.LBB37_44:                              # %while.end162
	movl	-16(%rbp), %eax
	movq	-8(%rbp), %rcx
	movl	%eax, 4(%rcx)
	movl	-12(%rbp), %eax
	movq	-8(%rbp), %rcx
	movl	%eax, (%rcx)
	movq	-8(%rbp), %rax
	movl	80(%rax), %ecx
	addl	$1, %ecx
	movl	%ecx, 80(%rax)
	cmpl	$430034814, -40(%rbp)   # imm = 0x19A1CF7E
	jne	.LBB37_46
.LBB37_45:
	addq	$48, %rsp
	popq	%rbp
	.cfi_def_cfa %rsp, 8
	retq
.LBB37_46:                              # %func_exit
	.cfi_def_cfa %rbp, 16
	callq	detect_breach
	jmp	.LBB37_45
.Lfunc_end37:
	.size	biari_encode_symbol.29, .Lfunc_end37-biari_encode_symbol.29
	.cfi_endproc
                                        # -- End function
	.globl	biari_encode_symbol_final.30 # -- Begin function biari_encode_symbol_final.30
	.p2align	4, 0x90
	.type	biari_encode_symbol_final.30,@function
biari_encode_symbol_final.30:           # @biari_encode_symbol_final.30
	.cfi_startproc
# %bb.0:                                # %entry
	pushq	%rbp
	.cfi_def_cfa_offset 16
	.cfi_offset %rbp, -16
	movq	%rsp, %rbp
	.cfi_def_cfa_register %rbp
	subq	$32, %rsp
	movl	$1846761684, -24(%rbp)  # imm = 0x6E1358D4
	movq	%rdi, -8(%rbp)
	movw	%si, -18(%rbp)
	movq	-8(%rbp), %rax
	movl	4(%rax), %eax
	subl	$2, %eax
	movl	%eax, -16(%rbp)
	movq	-8(%rbp), %rax
	movl	(%rax), %eax
	movl	%eax, -12(%rbp)
	cmpw	$0, -18(%rbp)
	je	.LBB38_2
# %bb.1:                                # %if.then
	movl	-16(%rbp), %eax
	addl	-12(%rbp), %eax
	movl	%eax, -12(%rbp)
	movl	$2, -16(%rbp)
.LBB38_2:                               # %if.end
	jmp	.LBB38_3
.LBB38_3:                               # %while.cond
                                        # =>This Loop Header: Depth=1
                                        #     Child Loop BB38_7 Depth 2
                                        #     Child Loop BB38_11 Depth 2
                                        #       Child Loop BB38_14 Depth 3
                                        #     Child Loop BB38_22 Depth 2
                                        #     Child Loop BB38_26 Depth 2
                                        #       Child Loop BB38_29 Depth 3
	cmpl	$256, -16(%rbp)         # imm = 0x100
	jae	.LBB38_37
# %bb.4:                                # %while.body
                                        #   in Loop: Header=BB38_3 Depth=1
	cmpl	$512, -12(%rbp)         # imm = 0x200
	jb	.LBB38_19
# %bb.5:                                # %if.then2
                                        #   in Loop: Header=BB38_3 Depth=1
	movq	-8(%rbp), %rax
	movl	8(%rax), %ecx
	shll	$1, %ecx
	movl	%ecx, 8(%rax)
	movq	-8(%rbp), %rax
	movl	8(%rax), %ecx
	orl	$1, %ecx
	movl	%ecx, 8(%rax)
	movq	-8(%rbp), %rax
	movl	12(%rax), %ecx
	addl	$-1, %ecx
	movl	%ecx, 12(%rax)
	cmpl	$0, %ecx
	jne	.LBB38_10
# %bb.6:                                # %if.then5
                                        #   in Loop: Header=BB38_3 Depth=1
	movq	-8(%rbp), %rax
	movl	8(%rax), %eax
	movq	-8(%rbp), %rcx
	movq	24(%rcx), %rcx
	movq	-8(%rbp), %rdx
	movq	32(%rdx), %rdx
	movl	(%rdx), %esi
	movl	%esi, %edi
	addl	$1, %edi
	movl	%edi, (%rdx)
	movslq	%esi, %rdx
	movb	%al, (%rcx,%rdx)
	movq	-8(%rbp), %rax
	movl	$8, 12(%rax)
.LBB38_7:                               # %while.cond8
                                        #   Parent Loop BB38_3 Depth=1
                                        # =>  This Inner Loop Header: Depth=2
	movq	-8(%rbp), %rax
	cmpl	$7, 80(%rax)
	jle	.LBB38_9
# %bb.8:                                # %while.body11
                                        #   in Loop: Header=BB38_7 Depth=2
	movq	-8(%rbp), %rax
	movl	80(%rax), %ecx
	subl	$8, %ecx
	movl	%ecx, 80(%rax)
	movq	-8(%rbp), %rax
	movl	88(%rax), %ecx
	addl	$1, %ecx
	movl	%ecx, 88(%rax)
	jmp	.LBB38_7
.LBB38_9:                               # %while.end
                                        #   in Loop: Header=BB38_3 Depth=1
	jmp	.LBB38_10
.LBB38_10:                              # %if.end15
                                        #   in Loop: Header=BB38_3 Depth=1
	jmp	.LBB38_11
.LBB38_11:                              # %while.cond16
                                        #   Parent Loop BB38_3 Depth=1
                                        # =>  This Loop Header: Depth=2
                                        #       Child Loop BB38_14 Depth 3
	movq	-8(%rbp), %rax
	cmpl	$0, 16(%rax)
	jbe	.LBB38_18
# %bb.12:                               # %while.body19
                                        #   in Loop: Header=BB38_11 Depth=2
	movq	-8(%rbp), %rax
	movl	16(%rax), %ecx
	addl	$-1, %ecx
	movl	%ecx, 16(%rax)
	movq	-8(%rbp), %rax
	movl	8(%rax), %ecx
	shll	$1, %ecx
	movl	%ecx, 8(%rax)
	movq	-8(%rbp), %rax
	movl	8(%rax), %ecx
	movl	%ecx, 8(%rax)
	movq	-8(%rbp), %rax
	movl	12(%rax), %ecx
	addl	$-1, %ecx
	movl	%ecx, 12(%rax)
	cmpl	$0, %ecx
	jne	.LBB38_17
# %bb.13:                               # %if.then29
                                        #   in Loop: Header=BB38_11 Depth=2
	movq	-8(%rbp), %rax
	movl	8(%rax), %eax
	movq	-8(%rbp), %rcx
	movq	24(%rcx), %rcx
	movq	-8(%rbp), %rdx
	movq	32(%rdx), %rdx
	movl	(%rdx), %esi
	movl	%esi, %edi
	addl	$1, %edi
	movl	%edi, (%rdx)
	movslq	%esi, %rdx
	movb	%al, (%rcx,%rdx)
	movq	-8(%rbp), %rax
	movl	$8, 12(%rax)
.LBB38_14:                              # %while.cond38
                                        #   Parent Loop BB38_3 Depth=1
                                        #     Parent Loop BB38_11 Depth=2
                                        # =>    This Inner Loop Header: Depth=3
	movq	-8(%rbp), %rax
	cmpl	$7, 80(%rax)
	jle	.LBB38_16
# %bb.15:                               # %while.body42
                                        #   in Loop: Header=BB38_14 Depth=3
	movq	-8(%rbp), %rax
	movl	80(%rax), %ecx
	subl	$8, %ecx
	movl	%ecx, 80(%rax)
	movq	-8(%rbp), %rax
	movl	88(%rax), %ecx
	addl	$1, %ecx
	movl	%ecx, 88(%rax)
	jmp	.LBB38_14
.LBB38_16:                              # %while.end47
                                        #   in Loop: Header=BB38_11 Depth=2
	jmp	.LBB38_17
.LBB38_17:                              # %if.end48
                                        #   in Loop: Header=BB38_11 Depth=2
	jmp	.LBB38_11
.LBB38_18:                              # %while.end49
                                        #   in Loop: Header=BB38_3 Depth=1
	movl	-12(%rbp), %eax
	subl	$512, %eax              # imm = 0x200
	movl	%eax, -12(%rbp)
	jmp	.LBB38_36
.LBB38_19:                              # %if.else
                                        #   in Loop: Header=BB38_3 Depth=1
	cmpl	$256, -12(%rbp)         # imm = 0x100
	jae	.LBB38_34
# %bb.20:                               # %if.then53
                                        #   in Loop: Header=BB38_3 Depth=1
	movq	-8(%rbp), %rax
	movl	8(%rax), %ecx
	shll	$1, %ecx
	movl	%ecx, 8(%rax)
	movq	-8(%rbp), %rax
	movl	8(%rax), %ecx
	movl	%ecx, 8(%rax)
	movq	-8(%rbp), %rax
	movl	12(%rax), %ecx
	addl	$-1, %ecx
	movl	%ecx, 12(%rax)
	cmpl	$0, %ecx
	jne	.LBB38_25
# %bb.21:                               # %if.then61
                                        #   in Loop: Header=BB38_3 Depth=1
	movq	-8(%rbp), %rax
	movl	8(%rax), %eax
	movq	-8(%rbp), %rcx
	movq	24(%rcx), %rcx
	movq	-8(%rbp), %rdx
	movq	32(%rdx), %rdx
	movl	(%rdx), %esi
	movl	%esi, %edi
	addl	$1, %edi
	movl	%edi, (%rdx)
	movslq	%esi, %rdx
	movb	%al, (%rcx,%rdx)
	movq	-8(%rbp), %rax
	movl	$8, 12(%rax)
.LBB38_22:                              # %while.cond70
                                        #   Parent Loop BB38_3 Depth=1
                                        # =>  This Inner Loop Header: Depth=2
	movq	-8(%rbp), %rax
	cmpl	$7, 80(%rax)
	jle	.LBB38_24
# %bb.23:                               # %while.body74
                                        #   in Loop: Header=BB38_22 Depth=2
	movq	-8(%rbp), %rax
	movl	80(%rax), %ecx
	subl	$8, %ecx
	movl	%ecx, 80(%rax)
	movq	-8(%rbp), %rax
	movl	88(%rax), %ecx
	addl	$1, %ecx
	movl	%ecx, 88(%rax)
	jmp	.LBB38_22
.LBB38_24:                              # %while.end79
                                        #   in Loop: Header=BB38_3 Depth=1
	jmp	.LBB38_25
.LBB38_25:                              # %if.end80
                                        #   in Loop: Header=BB38_3 Depth=1
	jmp	.LBB38_26
.LBB38_26:                              # %while.cond81
                                        #   Parent Loop BB38_3 Depth=1
                                        # =>  This Loop Header: Depth=2
                                        #       Child Loop BB38_29 Depth 3
	movq	-8(%rbp), %rax
	cmpl	$0, 16(%rax)
	jbe	.LBB38_33
# %bb.27:                               # %while.body85
                                        #   in Loop: Header=BB38_26 Depth=2
	movq	-8(%rbp), %rax
	movl	16(%rax), %ecx
	addl	$-1, %ecx
	movl	%ecx, 16(%rax)
	movq	-8(%rbp), %rax
	movl	8(%rax), %ecx
	shll	$1, %ecx
	movl	%ecx, 8(%rax)
	movq	-8(%rbp), %rax
	movl	8(%rax), %ecx
	orl	$1, %ecx
	movl	%ecx, 8(%rax)
	movq	-8(%rbp), %rax
	movl	12(%rax), %ecx
	addl	$-1, %ecx
	movl	%ecx, 12(%rax)
	cmpl	$0, %ecx
	jne	.LBB38_32
# %bb.28:                               # %if.then96
                                        #   in Loop: Header=BB38_26 Depth=2
	movq	-8(%rbp), %rax
	movl	8(%rax), %eax
	movq	-8(%rbp), %rcx
	movq	24(%rcx), %rcx
	movq	-8(%rbp), %rdx
	movq	32(%rdx), %rdx
	movl	(%rdx), %esi
	movl	%esi, %edi
	addl	$1, %edi
	movl	%edi, (%rdx)
	movslq	%esi, %rdx
	movb	%al, (%rcx,%rdx)
	movq	-8(%rbp), %rax
	movl	$8, 12(%rax)
.LBB38_29:                              # %while.cond105
                                        #   Parent Loop BB38_3 Depth=1
                                        #     Parent Loop BB38_26 Depth=2
                                        # =>    This Inner Loop Header: Depth=3
	movq	-8(%rbp), %rax
	cmpl	$7, 80(%rax)
	jle	.LBB38_31
# %bb.30:                               # %while.body109
                                        #   in Loop: Header=BB38_29 Depth=3
	movq	-8(%rbp), %rax
	movl	80(%rax), %ecx
	subl	$8, %ecx
	movl	%ecx, 80(%rax)
	movq	-8(%rbp), %rax
	movl	88(%rax), %ecx
	addl	$1, %ecx
	movl	%ecx, 88(%rax)
	jmp	.LBB38_29
.LBB38_31:                              # %while.end114
                                        #   in Loop: Header=BB38_26 Depth=2
	jmp	.LBB38_32
.LBB38_32:                              # %if.end115
                                        #   in Loop: Header=BB38_26 Depth=2
	jmp	.LBB38_26
.LBB38_33:                              # %while.end116
                                        #   in Loop: Header=BB38_3 Depth=1
	jmp	.LBB38_35
.LBB38_34:                              # %if.else117
                                        #   in Loop: Header=BB38_3 Depth=1
	movq	-8(%rbp), %rax
	movl	16(%rax), %ecx
	addl	$1, %ecx
	movl	%ecx, 16(%rax)
	movl	-12(%rbp), %eax
	subl	$256, %eax              # imm = 0x100
	movl	%eax, -12(%rbp)
.LBB38_35:                              # %if.end121
                                        #   in Loop: Header=BB38_3 Depth=1
	jmp	.LBB38_36
.LBB38_36:                              # %if.end122
                                        #   in Loop: Header=BB38_3 Depth=1
	movl	-12(%rbp), %eax
	shll	$1, %eax
	movl	%eax, -12(%rbp)
	movl	-16(%rbp), %eax
	shll	$1, %eax
	movl	%eax, -16(%rbp)
	jmp	.LBB38_3
.LBB38_37:                              # %while.end125
	movl	-16(%rbp), %eax
	movq	-8(%rbp), %rcx
	movl	%eax, 4(%rcx)
	movl	-12(%rbp), %eax
	movq	-8(%rbp), %rcx
	movl	%eax, (%rcx)
	movq	-8(%rbp), %rax
	movl	80(%rax), %ecx
	addl	$1, %ecx
	movl	%ecx, 80(%rax)
	cmpl	$1846761684, -24(%rbp)  # imm = 0x6E1358D4
	jne	.LBB38_39
.LBB38_38:
	addq	$32, %rsp
	popq	%rbp
	.cfi_def_cfa %rsp, 8
	retq
.LBB38_39:                              # %func_exit
	.cfi_def_cfa %rbp, 16
	callq	detect_breach
	jmp	.LBB38_38
.Lfunc_end38:
	.size	biari_encode_symbol_final.30, .Lfunc_end38-biari_encode_symbol_final.30
	.cfi_endproc
                                        # -- End function
	.globl	biari_encode_symbol_final.31 # -- Begin function biari_encode_symbol_final.31
	.p2align	4, 0x90
	.type	biari_encode_symbol_final.31,@function
biari_encode_symbol_final.31:           # @biari_encode_symbol_final.31
	.cfi_startproc
# %bb.0:                                # %entry
	pushq	%rbp
	.cfi_def_cfa_offset 16
	.cfi_offset %rbp, -16
	movq	%rsp, %rbp
	.cfi_def_cfa_register %rbp
	subq	$32, %rsp
	movl	$1748999273, -24(%rbp)  # imm = 0x683F9C69
	movq	%rdi, -8(%rbp)
	movw	%si, -18(%rbp)
	movq	-8(%rbp), %rax
	movl	4(%rax), %eax
	subl	$2, %eax
	movl	%eax, -16(%rbp)
	movq	-8(%rbp), %rax
	movl	(%rax), %eax
	movl	%eax, -12(%rbp)
	cmpw	$0, -18(%rbp)
	je	.LBB39_2
# %bb.1:                                # %if.then
	movl	-16(%rbp), %eax
	addl	-12(%rbp), %eax
	movl	%eax, -12(%rbp)
	movl	$2, -16(%rbp)
.LBB39_2:                               # %if.end
	jmp	.LBB39_3
.LBB39_3:                               # %while.cond
                                        # =>This Loop Header: Depth=1
                                        #     Child Loop BB39_7 Depth 2
                                        #     Child Loop BB39_11 Depth 2
                                        #       Child Loop BB39_14 Depth 3
                                        #     Child Loop BB39_22 Depth 2
                                        #     Child Loop BB39_26 Depth 2
                                        #       Child Loop BB39_29 Depth 3
	cmpl	$256, -16(%rbp)         # imm = 0x100
	jae	.LBB39_37
# %bb.4:                                # %while.body
                                        #   in Loop: Header=BB39_3 Depth=1
	cmpl	$512, -12(%rbp)         # imm = 0x200
	jb	.LBB39_19
# %bb.5:                                # %if.then2
                                        #   in Loop: Header=BB39_3 Depth=1
	movq	-8(%rbp), %rax
	movl	8(%rax), %ecx
	shll	$1, %ecx
	movl	%ecx, 8(%rax)
	movq	-8(%rbp), %rax
	movl	8(%rax), %ecx
	orl	$1, %ecx
	movl	%ecx, 8(%rax)
	movq	-8(%rbp), %rax
	movl	12(%rax), %ecx
	addl	$-1, %ecx
	movl	%ecx, 12(%rax)
	cmpl	$0, %ecx
	jne	.LBB39_10
# %bb.6:                                # %if.then5
                                        #   in Loop: Header=BB39_3 Depth=1
	movq	-8(%rbp), %rax
	movl	8(%rax), %eax
	movq	-8(%rbp), %rcx
	movq	24(%rcx), %rcx
	movq	-8(%rbp), %rdx
	movq	32(%rdx), %rdx
	movl	(%rdx), %esi
	movl	%esi, %edi
	addl	$1, %edi
	movl	%edi, (%rdx)
	movslq	%esi, %rdx
	movb	%al, (%rcx,%rdx)
	movq	-8(%rbp), %rax
	movl	$8, 12(%rax)
.LBB39_7:                               # %while.cond8
                                        #   Parent Loop BB39_3 Depth=1
                                        # =>  This Inner Loop Header: Depth=2
	movq	-8(%rbp), %rax
	cmpl	$7, 80(%rax)
	jle	.LBB39_9
# %bb.8:                                # %while.body11
                                        #   in Loop: Header=BB39_7 Depth=2
	movq	-8(%rbp), %rax
	movl	80(%rax), %ecx
	subl	$8, %ecx
	movl	%ecx, 80(%rax)
	movq	-8(%rbp), %rax
	movl	88(%rax), %ecx
	addl	$1, %ecx
	movl	%ecx, 88(%rax)
	jmp	.LBB39_7
.LBB39_9:                               # %while.end
                                        #   in Loop: Header=BB39_3 Depth=1
	jmp	.LBB39_10
.LBB39_10:                              # %if.end15
                                        #   in Loop: Header=BB39_3 Depth=1
	jmp	.LBB39_11
.LBB39_11:                              # %while.cond16
                                        #   Parent Loop BB39_3 Depth=1
                                        # =>  This Loop Header: Depth=2
                                        #       Child Loop BB39_14 Depth 3
	movq	-8(%rbp), %rax
	cmpl	$0, 16(%rax)
	jbe	.LBB39_18
# %bb.12:                               # %while.body19
                                        #   in Loop: Header=BB39_11 Depth=2
	movq	-8(%rbp), %rax
	movl	16(%rax), %ecx
	addl	$-1, %ecx
	movl	%ecx, 16(%rax)
	movq	-8(%rbp), %rax
	movl	8(%rax), %ecx
	shll	$1, %ecx
	movl	%ecx, 8(%rax)
	movq	-8(%rbp), %rax
	movl	8(%rax), %ecx
	movl	%ecx, 8(%rax)
	movq	-8(%rbp), %rax
	movl	12(%rax), %ecx
	addl	$-1, %ecx
	movl	%ecx, 12(%rax)
	cmpl	$0, %ecx
	jne	.LBB39_17
# %bb.13:                               # %if.then29
                                        #   in Loop: Header=BB39_11 Depth=2
	movq	-8(%rbp), %rax
	movl	8(%rax), %eax
	movq	-8(%rbp), %rcx
	movq	24(%rcx), %rcx
	movq	-8(%rbp), %rdx
	movq	32(%rdx), %rdx
	movl	(%rdx), %esi
	movl	%esi, %edi
	addl	$1, %edi
	movl	%edi, (%rdx)
	movslq	%esi, %rdx
	movb	%al, (%rcx,%rdx)
	movq	-8(%rbp), %rax
	movl	$8, 12(%rax)
.LBB39_14:                              # %while.cond38
                                        #   Parent Loop BB39_3 Depth=1
                                        #     Parent Loop BB39_11 Depth=2
                                        # =>    This Inner Loop Header: Depth=3
	movq	-8(%rbp), %rax
	cmpl	$7, 80(%rax)
	jle	.LBB39_16
# %bb.15:                               # %while.body42
                                        #   in Loop: Header=BB39_14 Depth=3
	movq	-8(%rbp), %rax
	movl	80(%rax), %ecx
	subl	$8, %ecx
	movl	%ecx, 80(%rax)
	movq	-8(%rbp), %rax
	movl	88(%rax), %ecx
	addl	$1, %ecx
	movl	%ecx, 88(%rax)
	jmp	.LBB39_14
.LBB39_16:                              # %while.end47
                                        #   in Loop: Header=BB39_11 Depth=2
	jmp	.LBB39_17
.LBB39_17:                              # %if.end48
                                        #   in Loop: Header=BB39_11 Depth=2
	jmp	.LBB39_11
.LBB39_18:                              # %while.end49
                                        #   in Loop: Header=BB39_3 Depth=1
	movl	-12(%rbp), %eax
	subl	$512, %eax              # imm = 0x200
	movl	%eax, -12(%rbp)
	jmp	.LBB39_36
.LBB39_19:                              # %if.else
                                        #   in Loop: Header=BB39_3 Depth=1
	cmpl	$256, -12(%rbp)         # imm = 0x100
	jae	.LBB39_34
# %bb.20:                               # %if.then53
                                        #   in Loop: Header=BB39_3 Depth=1
	movq	-8(%rbp), %rax
	movl	8(%rax), %ecx
	shll	$1, %ecx
	movl	%ecx, 8(%rax)
	movq	-8(%rbp), %rax
	movl	8(%rax), %ecx
	movl	%ecx, 8(%rax)
	movq	-8(%rbp), %rax
	movl	12(%rax), %ecx
	addl	$-1, %ecx
	movl	%ecx, 12(%rax)
	cmpl	$0, %ecx
	jne	.LBB39_25
# %bb.21:                               # %if.then61
                                        #   in Loop: Header=BB39_3 Depth=1
	movq	-8(%rbp), %rax
	movl	8(%rax), %eax
	movq	-8(%rbp), %rcx
	movq	24(%rcx), %rcx
	movq	-8(%rbp), %rdx
	movq	32(%rdx), %rdx
	movl	(%rdx), %esi
	movl	%esi, %edi
	addl	$1, %edi
	movl	%edi, (%rdx)
	movslq	%esi, %rdx
	movb	%al, (%rcx,%rdx)
	movq	-8(%rbp), %rax
	movl	$8, 12(%rax)
.LBB39_22:                              # %while.cond70
                                        #   Parent Loop BB39_3 Depth=1
                                        # =>  This Inner Loop Header: Depth=2
	movq	-8(%rbp), %rax
	cmpl	$7, 80(%rax)
	jle	.LBB39_24
# %bb.23:                               # %while.body74
                                        #   in Loop: Header=BB39_22 Depth=2
	movq	-8(%rbp), %rax
	movl	80(%rax), %ecx
	subl	$8, %ecx
	movl	%ecx, 80(%rax)
	movq	-8(%rbp), %rax
	movl	88(%rax), %ecx
	addl	$1, %ecx
	movl	%ecx, 88(%rax)
	jmp	.LBB39_22
.LBB39_24:                              # %while.end79
                                        #   in Loop: Header=BB39_3 Depth=1
	jmp	.LBB39_25
.LBB39_25:                              # %if.end80
                                        #   in Loop: Header=BB39_3 Depth=1
	jmp	.LBB39_26
.LBB39_26:                              # %while.cond81
                                        #   Parent Loop BB39_3 Depth=1
                                        # =>  This Loop Header: Depth=2
                                        #       Child Loop BB39_29 Depth 3
	movq	-8(%rbp), %rax
	cmpl	$0, 16(%rax)
	jbe	.LBB39_33
# %bb.27:                               # %while.body85
                                        #   in Loop: Header=BB39_26 Depth=2
	movq	-8(%rbp), %rax
	movl	16(%rax), %ecx
	addl	$-1, %ecx
	movl	%ecx, 16(%rax)
	movq	-8(%rbp), %rax
	movl	8(%rax), %ecx
	shll	$1, %ecx
	movl	%ecx, 8(%rax)
	movq	-8(%rbp), %rax
	movl	8(%rax), %ecx
	orl	$1, %ecx
	movl	%ecx, 8(%rax)
	movq	-8(%rbp), %rax
	movl	12(%rax), %ecx
	addl	$-1, %ecx
	movl	%ecx, 12(%rax)
	cmpl	$0, %ecx
	jne	.LBB39_32
# %bb.28:                               # %if.then96
                                        #   in Loop: Header=BB39_26 Depth=2
	movq	-8(%rbp), %rax
	movl	8(%rax), %eax
	movq	-8(%rbp), %rcx
	movq	24(%rcx), %rcx
	movq	-8(%rbp), %rdx
	movq	32(%rdx), %rdx
	movl	(%rdx), %esi
	movl	%esi, %edi
	addl	$1, %edi
	movl	%edi, (%rdx)
	movslq	%esi, %rdx
	movb	%al, (%rcx,%rdx)
	movq	-8(%rbp), %rax
	movl	$8, 12(%rax)
.LBB39_29:                              # %while.cond105
                                        #   Parent Loop BB39_3 Depth=1
                                        #     Parent Loop BB39_26 Depth=2
                                        # =>    This Inner Loop Header: Depth=3
	movq	-8(%rbp), %rax
	cmpl	$7, 80(%rax)
	jle	.LBB39_31
# %bb.30:                               # %while.body109
                                        #   in Loop: Header=BB39_29 Depth=3
	movq	-8(%rbp), %rax
	movl	80(%rax), %ecx
	subl	$8, %ecx
	movl	%ecx, 80(%rax)
	movq	-8(%rbp), %rax
	movl	88(%rax), %ecx
	addl	$1, %ecx
	movl	%ecx, 88(%rax)
	jmp	.LBB39_29
.LBB39_31:                              # %while.end114
                                        #   in Loop: Header=BB39_26 Depth=2
	jmp	.LBB39_32
.LBB39_32:                              # %if.end115
                                        #   in Loop: Header=BB39_26 Depth=2
	jmp	.LBB39_26
.LBB39_33:                              # %while.end116
                                        #   in Loop: Header=BB39_3 Depth=1
	jmp	.LBB39_35
.LBB39_34:                              # %if.else117
                                        #   in Loop: Header=BB39_3 Depth=1
	movq	-8(%rbp), %rax
	movl	16(%rax), %ecx
	addl	$1, %ecx
	movl	%ecx, 16(%rax)
	movl	-12(%rbp), %eax
	subl	$256, %eax              # imm = 0x100
	movl	%eax, -12(%rbp)
.LBB39_35:                              # %if.end121
                                        #   in Loop: Header=BB39_3 Depth=1
	jmp	.LBB39_36
.LBB39_36:                              # %if.end122
                                        #   in Loop: Header=BB39_3 Depth=1
	movl	-12(%rbp), %eax
	shll	$1, %eax
	movl	%eax, -12(%rbp)
	movl	-16(%rbp), %eax
	shll	$1, %eax
	movl	%eax, -16(%rbp)
	jmp	.LBB39_3
.LBB39_37:                              # %while.end125
	movl	-16(%rbp), %eax
	movq	-8(%rbp), %rcx
	movl	%eax, 4(%rcx)
	movl	-12(%rbp), %eax
	movq	-8(%rbp), %rcx
	movl	%eax, (%rcx)
	movq	-8(%rbp), %rax
	movl	80(%rax), %ecx
	addl	$1, %ecx
	movl	%ecx, 80(%rax)
	cmpl	$1748999273, -24(%rbp)  # imm = 0x683F9C69
	jne	.LBB39_39
.LBB39_38:
	addq	$32, %rsp
	popq	%rbp
	.cfi_def_cfa %rsp, 8
	retq
.LBB39_39:                              # %func_exit
	.cfi_def_cfa %rbp, 16
	callq	detect_breach
	jmp	.LBB39_38
.Lfunc_end39:
	.size	biari_encode_symbol_final.31, .Lfunc_end39-biari_encode_symbol_final.31
	.cfi_endproc
                                        # -- End function
	.globl	biari_encode_symbol_final.32 # -- Begin function biari_encode_symbol_final.32
	.p2align	4, 0x90
	.type	biari_encode_symbol_final.32,@function
biari_encode_symbol_final.32:           # @biari_encode_symbol_final.32
	.cfi_startproc
# %bb.0:                                # %entry
	pushq	%rbp
	.cfi_def_cfa_offset 16
	.cfi_offset %rbp, -16
	movq	%rsp, %rbp
	.cfi_def_cfa_register %rbp
	subq	$32, %rsp
	movl	$967142098, -24(%rbp)   # imm = 0x39A56AD2
	movq	%rdi, -8(%rbp)
	movw	%si, -18(%rbp)
	movq	-8(%rbp), %rax
	movl	4(%rax), %eax
	subl	$2, %eax
	movl	%eax, -16(%rbp)
	movq	-8(%rbp), %rax
	movl	(%rax), %eax
	movl	%eax, -12(%rbp)
	cmpw	$0, -18(%rbp)
	je	.LBB40_2
# %bb.1:                                # %if.then
	movl	-16(%rbp), %eax
	addl	-12(%rbp), %eax
	movl	%eax, -12(%rbp)
	movl	$2, -16(%rbp)
.LBB40_2:                               # %if.end
	jmp	.LBB40_3
.LBB40_3:                               # %while.cond
                                        # =>This Loop Header: Depth=1
                                        #     Child Loop BB40_7 Depth 2
                                        #     Child Loop BB40_11 Depth 2
                                        #       Child Loop BB40_14 Depth 3
                                        #     Child Loop BB40_22 Depth 2
                                        #     Child Loop BB40_26 Depth 2
                                        #       Child Loop BB40_29 Depth 3
	cmpl	$256, -16(%rbp)         # imm = 0x100
	jae	.LBB40_37
# %bb.4:                                # %while.body
                                        #   in Loop: Header=BB40_3 Depth=1
	cmpl	$512, -12(%rbp)         # imm = 0x200
	jb	.LBB40_19
# %bb.5:                                # %if.then2
                                        #   in Loop: Header=BB40_3 Depth=1
	movq	-8(%rbp), %rax
	movl	8(%rax), %ecx
	shll	$1, %ecx
	movl	%ecx, 8(%rax)
	movq	-8(%rbp), %rax
	movl	8(%rax), %ecx
	orl	$1, %ecx
	movl	%ecx, 8(%rax)
	movq	-8(%rbp), %rax
	movl	12(%rax), %ecx
	addl	$-1, %ecx
	movl	%ecx, 12(%rax)
	cmpl	$0, %ecx
	jne	.LBB40_10
# %bb.6:                                # %if.then5
                                        #   in Loop: Header=BB40_3 Depth=1
	movq	-8(%rbp), %rax
	movl	8(%rax), %eax
	movq	-8(%rbp), %rcx
	movq	24(%rcx), %rcx
	movq	-8(%rbp), %rdx
	movq	32(%rdx), %rdx
	movl	(%rdx), %esi
	movl	%esi, %edi
	addl	$1, %edi
	movl	%edi, (%rdx)
	movslq	%esi, %rdx
	movb	%al, (%rcx,%rdx)
	movq	-8(%rbp), %rax
	movl	$8, 12(%rax)
.LBB40_7:                               # %while.cond8
                                        #   Parent Loop BB40_3 Depth=1
                                        # =>  This Inner Loop Header: Depth=2
	movq	-8(%rbp), %rax
	cmpl	$7, 80(%rax)
	jle	.LBB40_9
# %bb.8:                                # %while.body11
                                        #   in Loop: Header=BB40_7 Depth=2
	movq	-8(%rbp), %rax
	movl	80(%rax), %ecx
	subl	$8, %ecx
	movl	%ecx, 80(%rax)
	movq	-8(%rbp), %rax
	movl	88(%rax), %ecx
	addl	$1, %ecx
	movl	%ecx, 88(%rax)
	jmp	.LBB40_7
.LBB40_9:                               # %while.end
                                        #   in Loop: Header=BB40_3 Depth=1
	jmp	.LBB40_10
.LBB40_10:                              # %if.end15
                                        #   in Loop: Header=BB40_3 Depth=1
	jmp	.LBB40_11
.LBB40_11:                              # %while.cond16
                                        #   Parent Loop BB40_3 Depth=1
                                        # =>  This Loop Header: Depth=2
                                        #       Child Loop BB40_14 Depth 3
	movq	-8(%rbp), %rax
	cmpl	$0, 16(%rax)
	jbe	.LBB40_18
# %bb.12:                               # %while.body19
                                        #   in Loop: Header=BB40_11 Depth=2
	movq	-8(%rbp), %rax
	movl	16(%rax), %ecx
	addl	$-1, %ecx
	movl	%ecx, 16(%rax)
	movq	-8(%rbp), %rax
	movl	8(%rax), %ecx
	shll	$1, %ecx
	movl	%ecx, 8(%rax)
	movq	-8(%rbp), %rax
	movl	8(%rax), %ecx
	movl	%ecx, 8(%rax)
	movq	-8(%rbp), %rax
	movl	12(%rax), %ecx
	addl	$-1, %ecx
	movl	%ecx, 12(%rax)
	cmpl	$0, %ecx
	jne	.LBB40_17
# %bb.13:                               # %if.then29
                                        #   in Loop: Header=BB40_11 Depth=2
	movq	-8(%rbp), %rax
	movl	8(%rax), %eax
	movq	-8(%rbp), %rcx
	movq	24(%rcx), %rcx
	movq	-8(%rbp), %rdx
	movq	32(%rdx), %rdx
	movl	(%rdx), %esi
	movl	%esi, %edi
	addl	$1, %edi
	movl	%edi, (%rdx)
	movslq	%esi, %rdx
	movb	%al, (%rcx,%rdx)
	movq	-8(%rbp), %rax
	movl	$8, 12(%rax)
.LBB40_14:                              # %while.cond38
                                        #   Parent Loop BB40_3 Depth=1
                                        #     Parent Loop BB40_11 Depth=2
                                        # =>    This Inner Loop Header: Depth=3
	movq	-8(%rbp), %rax
	cmpl	$7, 80(%rax)
	jle	.LBB40_16
# %bb.15:                               # %while.body42
                                        #   in Loop: Header=BB40_14 Depth=3
	movq	-8(%rbp), %rax
	movl	80(%rax), %ecx
	subl	$8, %ecx
	movl	%ecx, 80(%rax)
	movq	-8(%rbp), %rax
	movl	88(%rax), %ecx
	addl	$1, %ecx
	movl	%ecx, 88(%rax)
	jmp	.LBB40_14
.LBB40_16:                              # %while.end47
                                        #   in Loop: Header=BB40_11 Depth=2
	jmp	.LBB40_17
.LBB40_17:                              # %if.end48
                                        #   in Loop: Header=BB40_11 Depth=2
	jmp	.LBB40_11
.LBB40_18:                              # %while.end49
                                        #   in Loop: Header=BB40_3 Depth=1
	movl	-12(%rbp), %eax
	subl	$512, %eax              # imm = 0x200
	movl	%eax, -12(%rbp)
	jmp	.LBB40_36
.LBB40_19:                              # %if.else
                                        #   in Loop: Header=BB40_3 Depth=1
	cmpl	$256, -12(%rbp)         # imm = 0x100
	jae	.LBB40_34
# %bb.20:                               # %if.then53
                                        #   in Loop: Header=BB40_3 Depth=1
	movq	-8(%rbp), %rax
	movl	8(%rax), %ecx
	shll	$1, %ecx
	movl	%ecx, 8(%rax)
	movq	-8(%rbp), %rax
	movl	8(%rax), %ecx
	movl	%ecx, 8(%rax)
	movq	-8(%rbp), %rax
	movl	12(%rax), %ecx
	addl	$-1, %ecx
	movl	%ecx, 12(%rax)
	cmpl	$0, %ecx
	jne	.LBB40_25
# %bb.21:                               # %if.then61
                                        #   in Loop: Header=BB40_3 Depth=1
	movq	-8(%rbp), %rax
	movl	8(%rax), %eax
	movq	-8(%rbp), %rcx
	movq	24(%rcx), %rcx
	movq	-8(%rbp), %rdx
	movq	32(%rdx), %rdx
	movl	(%rdx), %esi
	movl	%esi, %edi
	addl	$1, %edi
	movl	%edi, (%rdx)
	movslq	%esi, %rdx
	movb	%al, (%rcx,%rdx)
	movq	-8(%rbp), %rax
	movl	$8, 12(%rax)
.LBB40_22:                              # %while.cond70
                                        #   Parent Loop BB40_3 Depth=1
                                        # =>  This Inner Loop Header: Depth=2
	movq	-8(%rbp), %rax
	cmpl	$7, 80(%rax)
	jle	.LBB40_24
# %bb.23:                               # %while.body74
                                        #   in Loop: Header=BB40_22 Depth=2
	movq	-8(%rbp), %rax
	movl	80(%rax), %ecx
	subl	$8, %ecx
	movl	%ecx, 80(%rax)
	movq	-8(%rbp), %rax
	movl	88(%rax), %ecx
	addl	$1, %ecx
	movl	%ecx, 88(%rax)
	jmp	.LBB40_22
.LBB40_24:                              # %while.end79
                                        #   in Loop: Header=BB40_3 Depth=1
	jmp	.LBB40_25
.LBB40_25:                              # %if.end80
                                        #   in Loop: Header=BB40_3 Depth=1
	jmp	.LBB40_26
.LBB40_26:                              # %while.cond81
                                        #   Parent Loop BB40_3 Depth=1
                                        # =>  This Loop Header: Depth=2
                                        #       Child Loop BB40_29 Depth 3
	movq	-8(%rbp), %rax
	cmpl	$0, 16(%rax)
	jbe	.LBB40_33
# %bb.27:                               # %while.body85
                                        #   in Loop: Header=BB40_26 Depth=2
	movq	-8(%rbp), %rax
	movl	16(%rax), %ecx
	addl	$-1, %ecx
	movl	%ecx, 16(%rax)
	movq	-8(%rbp), %rax
	movl	8(%rax), %ecx
	shll	$1, %ecx
	movl	%ecx, 8(%rax)
	movq	-8(%rbp), %rax
	movl	8(%rax), %ecx
	orl	$1, %ecx
	movl	%ecx, 8(%rax)
	movq	-8(%rbp), %rax
	movl	12(%rax), %ecx
	addl	$-1, %ecx
	movl	%ecx, 12(%rax)
	cmpl	$0, %ecx
	jne	.LBB40_32
# %bb.28:                               # %if.then96
                                        #   in Loop: Header=BB40_26 Depth=2
	movq	-8(%rbp), %rax
	movl	8(%rax), %eax
	movq	-8(%rbp), %rcx
	movq	24(%rcx), %rcx
	movq	-8(%rbp), %rdx
	movq	32(%rdx), %rdx
	movl	(%rdx), %esi
	movl	%esi, %edi
	addl	$1, %edi
	movl	%edi, (%rdx)
	movslq	%esi, %rdx
	movb	%al, (%rcx,%rdx)
	movq	-8(%rbp), %rax
	movl	$8, 12(%rax)
.LBB40_29:                              # %while.cond105
                                        #   Parent Loop BB40_3 Depth=1
                                        #     Parent Loop BB40_26 Depth=2
                                        # =>    This Inner Loop Header: Depth=3
	movq	-8(%rbp), %rax
	cmpl	$7, 80(%rax)
	jle	.LBB40_31
# %bb.30:                               # %while.body109
                                        #   in Loop: Header=BB40_29 Depth=3
	movq	-8(%rbp), %rax
	movl	80(%rax), %ecx
	subl	$8, %ecx
	movl	%ecx, 80(%rax)
	movq	-8(%rbp), %rax
	movl	88(%rax), %ecx
	addl	$1, %ecx
	movl	%ecx, 88(%rax)
	jmp	.LBB40_29
.LBB40_31:                              # %while.end114
                                        #   in Loop: Header=BB40_26 Depth=2
	jmp	.LBB40_32
.LBB40_32:                              # %if.end115
                                        #   in Loop: Header=BB40_26 Depth=2
	jmp	.LBB40_26
.LBB40_33:                              # %while.end116
                                        #   in Loop: Header=BB40_3 Depth=1
	jmp	.LBB40_35
.LBB40_34:                              # %if.else117
                                        #   in Loop: Header=BB40_3 Depth=1
	movq	-8(%rbp), %rax
	movl	16(%rax), %ecx
	addl	$1, %ecx
	movl	%ecx, 16(%rax)
	movl	-12(%rbp), %eax
	subl	$256, %eax              # imm = 0x100
	movl	%eax, -12(%rbp)
.LBB40_35:                              # %if.end121
                                        #   in Loop: Header=BB40_3 Depth=1
	jmp	.LBB40_36
.LBB40_36:                              # %if.end122
                                        #   in Loop: Header=BB40_3 Depth=1
	movl	-12(%rbp), %eax
	shll	$1, %eax
	movl	%eax, -12(%rbp)
	movl	-16(%rbp), %eax
	shll	$1, %eax
	movl	%eax, -16(%rbp)
	jmp	.LBB40_3
.LBB40_37:                              # %while.end125
	movl	-16(%rbp), %eax
	movq	-8(%rbp), %rcx
	movl	%eax, 4(%rcx)
	movl	-12(%rbp), %eax
	movq	-8(%rbp), %rcx
	movl	%eax, (%rcx)
	movq	-8(%rbp), %rax
	movl	80(%rax), %ecx
	addl	$1, %ecx
	movl	%ecx, 80(%rax)
	cmpl	$967142098, -24(%rbp)   # imm = 0x39A56AD2
	jne	.LBB40_39
.LBB40_38:
	addq	$32, %rsp
	popq	%rbp
	.cfi_def_cfa %rsp, 8
	retq
.LBB40_39:                              # %func_exit
	.cfi_def_cfa %rbp, 16
	callq	detect_breach
	jmp	.LBB40_38
.Lfunc_end40:
	.size	biari_encode_symbol_final.32, .Lfunc_end40-biari_encode_symbol_final.32
	.cfi_endproc
                                        # -- End function
	.globl	biari_encode_symbol_final.33 # -- Begin function biari_encode_symbol_final.33
	.p2align	4, 0x90
	.type	biari_encode_symbol_final.33,@function
biari_encode_symbol_final.33:           # @biari_encode_symbol_final.33
	.cfi_startproc
# %bb.0:                                # %entry
	pushq	%rbp
	.cfi_def_cfa_offset 16
	.cfi_offset %rbp, -16
	movq	%rsp, %rbp
	.cfi_def_cfa_register %rbp
	subq	$32, %rsp
	movl	$2014236220, -24(%rbp)  # imm = 0x780ECE3C
	movq	%rdi, -8(%rbp)
	movw	%si, -18(%rbp)
	movq	-8(%rbp), %rax
	movl	4(%rax), %eax
	subl	$2, %eax
	movl	%eax, -16(%rbp)
	movq	-8(%rbp), %rax
	movl	(%rax), %eax
	movl	%eax, -12(%rbp)
	cmpw	$0, -18(%rbp)
	je	.LBB41_2
# %bb.1:                                # %if.then
	movl	-16(%rbp), %eax
	addl	-12(%rbp), %eax
	movl	%eax, -12(%rbp)
	movl	$2, -16(%rbp)
.LBB41_2:                               # %if.end
	jmp	.LBB41_3
.LBB41_3:                               # %while.cond
                                        # =>This Loop Header: Depth=1
                                        #     Child Loop BB41_7 Depth 2
                                        #     Child Loop BB41_11 Depth 2
                                        #       Child Loop BB41_14 Depth 3
                                        #     Child Loop BB41_22 Depth 2
                                        #     Child Loop BB41_26 Depth 2
                                        #       Child Loop BB41_29 Depth 3
	cmpl	$256, -16(%rbp)         # imm = 0x100
	jae	.LBB41_37
# %bb.4:                                # %while.body
                                        #   in Loop: Header=BB41_3 Depth=1
	cmpl	$512, -12(%rbp)         # imm = 0x200
	jb	.LBB41_19
# %bb.5:                                # %if.then2
                                        #   in Loop: Header=BB41_3 Depth=1
	movq	-8(%rbp), %rax
	movl	8(%rax), %ecx
	shll	$1, %ecx
	movl	%ecx, 8(%rax)
	movq	-8(%rbp), %rax
	movl	8(%rax), %ecx
	orl	$1, %ecx
	movl	%ecx, 8(%rax)
	movq	-8(%rbp), %rax
	movl	12(%rax), %ecx
	addl	$-1, %ecx
	movl	%ecx, 12(%rax)
	cmpl	$0, %ecx
	jne	.LBB41_10
