	.text
	.file	"block.c"
	.globl	intrapred_luma          # -- Begin function intrapred_luma
	.p2align	4, 0x90
	.type	intrapred_luma,@function
intrapred_luma:                         # @intrapred_luma
	.cfi_startproc
# %bb.0:                                # %rand_bb
	pushq	%rbp
	.cfi_def_cfa_offset 16
	.cfi_offset %rbp, -16
	movq	%rsp, %rbp
	.cfi_def_cfa_register %rbp
	pushq	%r15
	pushq	%r14
	pushq	%r13
	pushq	%r12
	pushq	%rbx
	pushq	%rax
	.cfi_offset %rbx, -56
	.cfi_offset %r12, -48
	.cfi_offset %r13, -40
	.cfi_offset %r14, -32
	.cfi_offset %r15, -24
	movq	%r8, %r14
	movq	%rcx, %r15
	movq	%rdx, %r12
	movl	%esi, %r13d
	movl	%edi, %ebx
	callq	get_rand
	cmpl	$0, %eax
	jne	.LBB0_9
# %bb.1:                                # %func_intrapred_luma.2
	movl	%ebx, %edi
	movl	%r13d, %esi
	movq	%r12, %rdx
	movq	%r15, %rcx
	movq	%r14, %r8
	callq	intrapred_luma.2
	addq	$8, %rsp
	popq	%rbx
	popq	%r12
	popq	%r13
	popq	%r14
	popq	%r15
	popq	%rbp
	.cfi_def_cfa %rsp, 8
	retq
.LBB0_2:                                # %func_intrapred_luma.14
	.cfi_def_cfa %rbp, 16
	movl	%ebx, %edi
	movl	%r13d, %esi
	movq	%r12, %rdx
	movq	%r15, %rcx
	movq	%r14, %r8
	callq	intrapred_luma.14
	addq	$8, %rsp
	popq	%rbx
	popq	%r12
	popq	%r13
	popq	%r14
	popq	%r15
	popq	%rbp
	.cfi_def_cfa %rsp, 8
	retq
.LBB0_3:                                # %func_intrapred_luma.20
	.cfi_def_cfa %rbp, 16
	movl	%ebx, %edi
	movl	%r13d, %esi
	movq	%r12, %rdx
	movq	%r15, %rcx
	movq	%r14, %r8
	callq	intrapred_luma.20
	addq	$8, %rsp
	popq	%rbx
	popq	%r12
	popq	%r13
	popq	%r14
	popq	%r15
	popq	%rbp
	.cfi_def_cfa %rsp, 8
	retq
.LBB0_4:                                # %func_intrapred_luma.36
	.cfi_def_cfa %rbp, 16
	movl	%ebx, %edi
	movl	%r13d, %esi
	movq	%r12, %rdx
	movq	%r15, %rcx
	movq	%r14, %r8
	callq	intrapred_luma.36
	addq	$8, %rsp
	popq	%rbx
	popq	%r12
	popq	%r13
	popq	%r14
	popq	%r15
	popq	%rbp
	.cfi_def_cfa %rsp, 8
	retq
.LBB0_5:                                # %func_intrapred_luma.63
	.cfi_def_cfa %rbp, 16
	movl	%ebx, %edi
	movl	%r13d, %esi
	movq	%r12, %rdx
	movq	%r15, %rcx
	movq	%r14, %r8
	callq	intrapred_luma.63
	addq	$8, %rsp
	popq	%rbx
	popq	%r12
	popq	%r13
	popq	%r14
	popq	%r15
	popq	%rbp
	.cfi_def_cfa %rsp, 8
	retq
.LBB0_6:                                # %func_intrapred_luma.65
	.cfi_def_cfa %rbp, 16
	movl	%ebx, %edi
	movl	%r13d, %esi
	movq	%r12, %rdx
	movq	%r15, %rcx
	movq	%r14, %r8
	callq	intrapred_luma.65
	addq	$8, %rsp
	popq	%rbx
	popq	%r12
	popq	%r13
	popq	%r14
	popq	%r15
	popq	%rbp
	.cfi_def_cfa %rsp, 8
	retq
.LBB0_7:                                # %func_intrapred_luma.69
	.cfi_def_cfa %rbp, 16
	movl	%ebx, %edi
	movl	%r13d, %esi
	movq	%r12, %rdx
	movq	%r15, %rcx
	movq	%r14, %r8
	callq	intrapred_luma.69
	addq	$8, %rsp
	popq	%rbx
	popq	%r12
	popq	%r13
	popq	%r14
	popq	%r15
	popq	%rbp
	.cfi_def_cfa %rsp, 8
	retq
.LBB0_8:                                # %func_intrapred_luma.70
	.cfi_def_cfa %rbp, 16
	movl	%ebx, %edi
	movl	%r13d, %esi
	movq	%r12, %rdx
	movq	%r15, %rcx
	movq	%r14, %r8
	callq	intrapred_luma.70
	addq	$8, %rsp
	popq	%rbx
	popq	%r12
	popq	%r13
	popq	%r14
	popq	%r15
	popq	%rbp
	.cfi_def_cfa %rsp, 8
	retq
.LBB0_9:                                # %ctrl0
	.cfi_def_cfa %rbp, 16
	cmpl	$1, %eax
	je	.LBB0_2
# %bb.10:                               # %ctrl1
	cmpl	$2, %eax
	je	.LBB0_3
# %bb.11:                               # %ctrl2
	cmpl	$3, %eax
	je	.LBB0_4
# %bb.12:                               # %ctrl3
	cmpl	$4, %eax
	je	.LBB0_5
# %bb.13:                               # %ctrl4
	cmpl	$5, %eax
	je	.LBB0_6
# %bb.14:                               # %ctrl5
	cmpl	$6, %eax
	je	.LBB0_7
	jmp	.LBB0_8
.Lfunc_end0:
	.size	intrapred_luma, .Lfunc_end0-intrapred_luma
	.cfi_endproc
                                        # -- End function
	.globl	intrapred_luma_16x16    # -- Begin function intrapred_luma_16x16
	.p2align	4, 0x90
	.type	intrapred_luma_16x16,@function
intrapred_luma_16x16:                   # @intrapred_luma_16x16
	.cfi_startproc
# %bb.0:                                # %rand_bb
	pushq	%rbp
	.cfi_def_cfa_offset 16
	.cfi_offset %rbp, -16
	movq	%rsp, %rbp
	.cfi_def_cfa_register %rbp
	callq	get_rand
	cmpl	$0, %eax
	jne	.LBB1_9
# %bb.1:                                # %func_intrapred_luma_16x16.11
	callq	intrapred_luma_16x16.11
	popq	%rbp
	.cfi_def_cfa %rsp, 8
	retq
.LBB1_2:                                # %func_intrapred_luma_16x16.18
	.cfi_def_cfa %rbp, 16
	callq	intrapred_luma_16x16.18
	popq	%rbp
	.cfi_def_cfa %rsp, 8
	retq
.LBB1_3:                                # %func_intrapred_luma_16x16.31
	.cfi_def_cfa %rbp, 16
	callq	intrapred_luma_16x16.31
	popq	%rbp
	.cfi_def_cfa %rsp, 8
	retq
.LBB1_4:                                # %func_intrapred_luma_16x16.47
	.cfi_def_cfa %rbp, 16
	callq	intrapred_luma_16x16.47
	popq	%rbp
	.cfi_def_cfa %rsp, 8
	retq
.LBB1_5:                                # %func_intrapred_luma_16x16.48
	.cfi_def_cfa %rbp, 16
	callq	intrapred_luma_16x16.48
	popq	%rbp
	.cfi_def_cfa %rsp, 8
	retq
.LBB1_6:                                # %func_intrapred_luma_16x16.57
	.cfi_def_cfa %rbp, 16
	callq	intrapred_luma_16x16.57
	popq	%rbp
	.cfi_def_cfa %rsp, 8
	retq
.LBB1_7:                                # %func_intrapred_luma_16x16.58
	.cfi_def_cfa %rbp, 16
	callq	intrapred_luma_16x16.58
	popq	%rbp
	.cfi_def_cfa %rsp, 8
	retq
.LBB1_8:                                # %func_intrapred_luma_16x16.61
	.cfi_def_cfa %rbp, 16
	callq	intrapred_luma_16x16.61
	popq	%rbp
	.cfi_def_cfa %rsp, 8
	retq
.LBB1_9:                                # %ctrl0
	.cfi_def_cfa %rbp, 16
	cmpl	$1, %eax
	je	.LBB1_2
# %bb.10:                               # %ctrl1
	cmpl	$2, %eax
	je	.LBB1_3
# %bb.11:                               # %ctrl2
	cmpl	$3, %eax
	je	.LBB1_4
# %bb.12:                               # %ctrl3
	cmpl	$4, %eax
	je	.LBB1_5
# %bb.13:                               # %ctrl4
	cmpl	$5, %eax
	je	.LBB1_6
# %bb.14:                               # %ctrl5
	cmpl	$6, %eax
	je	.LBB1_7
	jmp	.LBB1_8
.Lfunc_end1:
	.size	intrapred_luma_16x16, .Lfunc_end1-intrapred_luma_16x16
	.cfi_endproc
                                        # -- End function
	.globl	dct_luma_16x16          # -- Begin function dct_luma_16x16
	.p2align	4, 0x90
	.type	dct_luma_16x16,@function
dct_luma_16x16:                         # @dct_luma_16x16
	.cfi_startproc
# %bb.0:                                # %rand_bb
	pushq	%rbp
	.cfi_def_cfa_offset 16
	.cfi_offset %rbp, -16
	movq	%rsp, %rbp
	.cfi_def_cfa_register %rbp
	pushq	%rbx
	pushq	%rax
	.cfi_offset %rbx, -24
	movl	%edi, %ebx
	callq	get_rand
	cmpl	$0, %eax
	jne	.LBB2_9
# %bb.1:                                # %func_dct_luma_16x16.9
	movl	%ebx, %edi
	callq	dct_luma_16x16.9
	addq	$8, %rsp
	popq	%rbx
	popq	%rbp
	.cfi_def_cfa %rsp, 8
	retq
.LBB2_2:                                # %func_dct_luma_16x16.25
	.cfi_def_cfa %rbp, 16
	movl	%ebx, %edi
	callq	dct_luma_16x16.25
	addq	$8, %rsp
	popq	%rbx
	popq	%rbp
	.cfi_def_cfa %rsp, 8
	retq
.LBB2_3:                                # %func_dct_luma_16x16.54
	.cfi_def_cfa %rbp, 16
	movl	%ebx, %edi
	callq	dct_luma_16x16.54
	addq	$8, %rsp
	popq	%rbx
	popq	%rbp
	.cfi_def_cfa %rsp, 8
	retq
.LBB2_4:                                # %func_dct_luma_16x16.68
	.cfi_def_cfa %rbp, 16
	movl	%ebx, %edi
	callq	dct_luma_16x16.68
	addq	$8, %rsp
	popq	%rbx
	popq	%rbp
	.cfi_def_cfa %rsp, 8
	retq
.LBB2_5:                                # %func_dct_luma_16x16.75
	.cfi_def_cfa %rbp, 16
	movl	%ebx, %edi
	callq	dct_luma_16x16.75
	addq	$8, %rsp
	popq	%rbx
	popq	%rbp
	.cfi_def_cfa %rsp, 8
	retq
.LBB2_6:                                # %func_dct_luma_16x16.78
	.cfi_def_cfa %rbp, 16
	movl	%ebx, %edi
	callq	dct_luma_16x16.78
	addq	$8, %rsp
	popq	%rbx
	popq	%rbp
	.cfi_def_cfa %rsp, 8
	retq
.LBB2_7:                                # %func_dct_luma_16x16.79
	.cfi_def_cfa %rbp, 16
	movl	%ebx, %edi
	callq	dct_luma_16x16.79
	addq	$8, %rsp
	popq	%rbx
	popq	%rbp
	.cfi_def_cfa %rsp, 8
	retq
.LBB2_8:                                # %func_dct_luma_16x16.80
	.cfi_def_cfa %rbp, 16
	movl	%ebx, %edi
	callq	dct_luma_16x16.80
	addq	$8, %rsp
	popq	%rbx
	popq	%rbp
	.cfi_def_cfa %rsp, 8
	retq
.LBB2_9:                                # %ctrl0
	.cfi_def_cfa %rbp, 16
	cmpl	$1, %eax
	je	.LBB2_2
# %bb.10:                               # %ctrl1
	cmpl	$2, %eax
	je	.LBB2_3
# %bb.11:                               # %ctrl2
	cmpl	$3, %eax
	je	.LBB2_4
# %bb.12:                               # %ctrl3
	cmpl	$4, %eax
	je	.LBB2_5
# %bb.13:                               # %ctrl4
	cmpl	$5, %eax
	je	.LBB2_6
# %bb.14:                               # %ctrl5
	cmpl	$6, %eax
	je	.LBB2_7
	jmp	.LBB2_8
.Lfunc_end2:
	.size	dct_luma_16x16, .Lfunc_end2-dct_luma_16x16
	.cfi_endproc
                                        # -- End function
	.globl	dct_luma                # -- Begin function dct_luma
	.p2align	4, 0x90
	.type	dct_luma,@function
dct_luma:                               # @dct_luma
	.cfi_startproc
# %bb.0:                                # %rand_bb
	pushq	%rbp
	.cfi_def_cfa_offset 16
	.cfi_offset %rbp, -16
	movq	%rsp, %rbp
	.cfi_def_cfa_register %rbp
	pushq	%r15
	pushq	%r14
	pushq	%r12
	pushq	%rbx
	.cfi_offset %rbx, -48
	.cfi_offset %r12, -40
	.cfi_offset %r14, -32
	.cfi_offset %r15, -24
	movl	%ecx, %r14d
	movq	%rdx, %r15
	movl	%esi, %r12d
	movl	%edi, %ebx
	callq	get_rand
	cmpl	$0, %eax
	jne	.LBB3_9
# %bb.1:                                # %func_dct_luma.6
	movl	%ebx, %edi
	movl	%r12d, %esi
	movq	%r15, %rdx
	movl	%r14d, %ecx
	callq	dct_luma.6
	popq	%rbx
	popq	%r12
	popq	%r14
	popq	%r15
	popq	%rbp
	.cfi_def_cfa %rsp, 8
	retq
.LBB3_2:                                # %func_dct_luma.32
	.cfi_def_cfa %rbp, 16
	movl	%ebx, %edi
	movl	%r12d, %esi
	movq	%r15, %rdx
	movl	%r14d, %ecx
	callq	dct_luma.32
	popq	%rbx
	popq	%r12
	popq	%r14
	popq	%r15
	popq	%rbp
	.cfi_def_cfa %rsp, 8
	retq
.LBB3_3:                                # %func_dct_luma.37
	.cfi_def_cfa %rbp, 16
	movl	%ebx, %edi
	movl	%r12d, %esi
	movq	%r15, %rdx
	movl	%r14d, %ecx
	callq	dct_luma.37
	popq	%rbx
	popq	%r12
	popq	%r14
	popq	%r15
	popq	%rbp
	.cfi_def_cfa %rsp, 8
	retq
.LBB3_4:                                # %func_dct_luma.42
	.cfi_def_cfa %rbp, 16
	movl	%ebx, %edi
	movl	%r12d, %esi
	movq	%r15, %rdx
	movl	%r14d, %ecx
	callq	dct_luma.42
	popq	%rbx
	popq	%r12
	popq	%r14
	popq	%r15
	popq	%rbp
	.cfi_def_cfa %rsp, 8
	retq
.LBB3_5:                                # %func_dct_luma.51
	.cfi_def_cfa %rbp, 16
	movl	%ebx, %edi
	movl	%r12d, %esi
	movq	%r15, %rdx
	movl	%r14d, %ecx
	callq	dct_luma.51
	popq	%rbx
	popq	%r12
	popq	%r14
	popq	%r15
	popq	%rbp
	.cfi_def_cfa %rsp, 8
	retq
.LBB3_6:                                # %func_dct_luma.52
	.cfi_def_cfa %rbp, 16
	movl	%ebx, %edi
	movl	%r12d, %esi
	movq	%r15, %rdx
	movl	%r14d, %ecx
	callq	dct_luma.52
	popq	%rbx
	popq	%r12
	popq	%r14
	popq	%r15
	popq	%rbp
	.cfi_def_cfa %rsp, 8
	retq
.LBB3_7:                                # %func_dct_luma.66
	.cfi_def_cfa %rbp, 16
	movl	%ebx, %edi
	movl	%r12d, %esi
	movq	%r15, %rdx
	movl	%r14d, %ecx
	callq	dct_luma.66
	popq	%rbx
	popq	%r12
	popq	%r14
	popq	%r15
	popq	%rbp
	.cfi_def_cfa %rsp, 8
	retq
.LBB3_8:                                # %func_dct_luma.67
	.cfi_def_cfa %rbp, 16
	movl	%ebx, %edi
	movl	%r12d, %esi
	movq	%r15, %rdx
	movl	%r14d, %ecx
	callq	dct_luma.67
	popq	%rbx
	popq	%r12
	popq	%r14
	popq	%r15
	popq	%rbp
	.cfi_def_cfa %rsp, 8
	retq
.LBB3_9:                                # %ctrl0
	.cfi_def_cfa %rbp, 16
	cmpl	$1, %eax
	je	.LBB3_2
# %bb.10:                               # %ctrl1
	cmpl	$2, %eax
	je	.LBB3_3
# %bb.11:                               # %ctrl2
	cmpl	$3, %eax
	je	.LBB3_4
# %bb.12:                               # %ctrl3
	cmpl	$4, %eax
	je	.LBB3_5
# %bb.13:                               # %ctrl4
	cmpl	$5, %eax
	je	.LBB3_6
# %bb.14:                               # %ctrl5
	cmpl	$6, %eax
	je	.LBB3_7
	jmp	.LBB3_8
.Lfunc_end3:
	.size	dct_luma, .Lfunc_end3-dct_luma
	.cfi_endproc
                                        # -- End function
	.globl	dct_chroma              # -- Begin function dct_chroma
	.p2align	4, 0x90
	.type	dct_chroma,@function
dct_chroma:                             # @dct_chroma
	.cfi_startproc
# %bb.0:                                # %rand_bb
	pushq	%rbp
	.cfi_def_cfa_offset 16
	.cfi_offset %rbp, -16
	movq	%rsp, %rbp
	.cfi_def_cfa_register %rbp
	pushq	%r14
	pushq	%rbx
	.cfi_offset %rbx, -32
	.cfi_offset %r14, -24
	movl	%esi, %r14d
	movl	%edi, %ebx
	callq	get_rand
	cmpl	$0, %eax
	jne	.LBB4_9
# %bb.1:                                # %func_dct_chroma.3
	movl	%ebx, %edi
	movl	%r14d, %esi
	callq	dct_chroma.3
	popq	%rbx
	popq	%r14
	popq	%rbp
	.cfi_def_cfa %rsp, 8
	retq
.LBB4_2:                                # %func_dct_chroma.4
	.cfi_def_cfa %rbp, 16
	movl	%ebx, %edi
	movl	%r14d, %esi
	callq	dct_chroma.4
	popq	%rbx
	popq	%r14
	popq	%rbp
	.cfi_def_cfa %rsp, 8
	retq
.LBB4_3:                                # %func_dct_chroma.5
	.cfi_def_cfa %rbp, 16
	movl	%ebx, %edi
	movl	%r14d, %esi
	callq	dct_chroma.5
	popq	%rbx
	popq	%r14
	popq	%rbp
	.cfi_def_cfa %rsp, 8
	retq
.LBB4_4:                                # %func_dct_chroma.21
	.cfi_def_cfa %rbp, 16
	movl	%ebx, %edi
	movl	%r14d, %esi
	callq	dct_chroma.21
	popq	%rbx
	popq	%r14
	popq	%rbp
	.cfi_def_cfa %rsp, 8
	retq
.LBB4_5:                                # %func_dct_chroma.29
	.cfi_def_cfa %rbp, 16
	movl	%ebx, %edi
	movl	%r14d, %esi
	callq	dct_chroma.29
	popq	%rbx
	popq	%r14
	popq	%rbp
	.cfi_def_cfa %rsp, 8
	retq
.LBB4_6:                                # %func_dct_chroma.30
	.cfi_def_cfa %rbp, 16
	movl	%ebx, %edi
	movl	%r14d, %esi
	callq	dct_chroma.30
	popq	%rbx
	popq	%r14
	popq	%rbp
	.cfi_def_cfa %rsp, 8
	retq
.LBB4_7:                                # %func_dct_chroma.33
	.cfi_def_cfa %rbp, 16
	movl	%ebx, %edi
	movl	%r14d, %esi
	callq	dct_chroma.33
	popq	%rbx
	popq	%r14
	popq	%rbp
	.cfi_def_cfa %rsp, 8
	retq
.LBB4_8:                                # %func_dct_chroma.43
	.cfi_def_cfa %rbp, 16
	movl	%ebx, %edi
	movl	%r14d, %esi
	callq	dct_chroma.43
	popq	%rbx
	popq	%r14
	popq	%rbp
	.cfi_def_cfa %rsp, 8
	retq
.LBB4_9:                                # %ctrl0
	.cfi_def_cfa %rbp, 16
	cmpl	$1, %eax
	je	.LBB4_2
# %bb.10:                               # %ctrl1
	cmpl	$2, %eax
	je	.LBB4_3
# %bb.11:                               # %ctrl2
	cmpl	$3, %eax
	je	.LBB4_4
# %bb.12:                               # %ctrl3
	cmpl	$4, %eax
	je	.LBB4_5
# %bb.13:                               # %ctrl4
	cmpl	$5, %eax
	je	.LBB4_6
# %bb.14:                               # %ctrl5
	cmpl	$6, %eax
	je	.LBB4_7
	jmp	.LBB4_8
.Lfunc_end4:
	.size	dct_chroma, .Lfunc_end4-dct_chroma
	.cfi_endproc
                                        # -- End function
	.globl	dct_chroma4x4           # -- Begin function dct_chroma4x4
	.p2align	4, 0x90
	.type	dct_chroma4x4,@function
dct_chroma4x4:                          # @dct_chroma4x4
	.cfi_startproc
# %bb.0:                                # %rand_bb
	pushq	%rbp
	.cfi_def_cfa_offset 16
	.cfi_offset %rbp, -16
	movq	%rsp, %rbp
	.cfi_def_cfa_register %rbp
	pushq	%r15
	pushq	%r14
	pushq	%rbx
	pushq	%rax
	.cfi_offset %rbx, -40
	.cfi_offset %r14, -32
	.cfi_offset %r15, -24
	movl	%edx, %r14d
	movl	%esi, %r15d
	movl	%edi, %ebx
	callq	get_rand
	cmpl	$0, %eax
	jne	.LBB5_9
# %bb.1:                                # %func_dct_chroma4x4.16
	movl	%ebx, %edi
	movl	%r15d, %esi
	movl	%r14d, %edx
	callq	dct_chroma4x4.16
	addq	$8, %rsp
	popq	%rbx
	popq	%r14
	popq	%r15
	popq	%rbp
	.cfi_def_cfa %rsp, 8
	retq
.LBB5_2:                                # %func_dct_chroma4x4.19
	.cfi_def_cfa %rbp, 16
	movl	%ebx, %edi
	movl	%r15d, %esi
	movl	%r14d, %edx
	callq	dct_chroma4x4.19
	addq	$8, %rsp
	popq	%rbx
	popq	%r14
	popq	%r15
	popq	%rbp
	.cfi_def_cfa %rsp, 8
	retq
.LBB5_3:                                # %func_dct_chroma4x4.28
	.cfi_def_cfa %rbp, 16
	movl	%ebx, %edi
	movl	%r15d, %esi
	movl	%r14d, %edx
	callq	dct_chroma4x4.28
	addq	$8, %rsp
	popq	%rbx
	popq	%r14
	popq	%r15
	popq	%rbp
	.cfi_def_cfa %rsp, 8
	retq
.LBB5_4:                                # %func_dct_chroma4x4.40
	.cfi_def_cfa %rbp, 16
	movl	%ebx, %edi
	movl	%r15d, %esi
	movl	%r14d, %edx
	callq	dct_chroma4x4.40
	addq	$8, %rsp
	popq	%rbx
	popq	%r14
	popq	%r15
	popq	%rbp
	.cfi_def_cfa %rsp, 8
	retq
.LBB5_5:                                # %func_dct_chroma4x4.44
	.cfi_def_cfa %rbp, 16
	movl	%ebx, %edi
	movl	%r15d, %esi
	movl	%r14d, %edx
	callq	dct_chroma4x4.44
	addq	$8, %rsp
	popq	%rbx
	popq	%r14
	popq	%r15
	popq	%rbp
	.cfi_def_cfa %rsp, 8
	retq
.LBB5_6:                                # %func_dct_chroma4x4.45
	.cfi_def_cfa %rbp, 16
	movl	%ebx, %edi
	movl	%r15d, %esi
	movl	%r14d, %edx
	callq	dct_chroma4x4.45
	addq	$8, %rsp
	popq	%rbx
	popq	%r14
	popq	%r15
	popq	%rbp
	.cfi_def_cfa %rsp, 8
	retq
.LBB5_7:                                # %func_dct_chroma4x4.60
	.cfi_def_cfa %rbp, 16
	movl	%ebx, %edi
	movl	%r15d, %esi
	movl	%r14d, %edx
	callq	dct_chroma4x4.60
	addq	$8, %rsp
	popq	%rbx
	popq	%r14
	popq	%r15
	popq	%rbp
	.cfi_def_cfa %rsp, 8
	retq
.LBB5_8:                                # %func_dct_chroma4x4.64
	.cfi_def_cfa %rbp, 16
	movl	%ebx, %edi
	movl	%r15d, %esi
	movl	%r14d, %edx
	callq	dct_chroma4x4.64
	addq	$8, %rsp
	popq	%rbx
	popq	%r14
	popq	%r15
	popq	%rbp
	.cfi_def_cfa %rsp, 8
	retq
.LBB5_9:                                # %ctrl0
	.cfi_def_cfa %rbp, 16
	cmpl	$1, %eax
	je	.LBB5_2
# %bb.10:                               # %ctrl1
	cmpl	$2, %eax
	je	.LBB5_3
# %bb.11:                               # %ctrl2
	cmpl	$3, %eax
	je	.LBB5_4
# %bb.12:                               # %ctrl3
	cmpl	$4, %eax
	je	.LBB5_5
# %bb.13:                               # %ctrl4
	cmpl	$5, %eax
	je	.LBB5_6
# %bb.14:                               # %ctrl5
	cmpl	$6, %eax
	je	.LBB5_7
	jmp	.LBB5_8
.Lfunc_end5:
	.size	dct_chroma4x4, .Lfunc_end5-dct_chroma4x4
	.cfi_endproc
                                        # -- End function
	.globl	dct_chroma_DC           # -- Begin function dct_chroma_DC
	.p2align	4, 0x90
	.type	dct_chroma_DC,@function
dct_chroma_DC:                          # @dct_chroma_DC
	.cfi_startproc
# %bb.0:                                # %rand_bb
	pushq	%rbp
	.cfi_def_cfa_offset 16
	.cfi_offset %rbp, -16
	movq	%rsp, %rbp
	.cfi_def_cfa_register %rbp
	pushq	%r14
	pushq	%rbx
	.cfi_offset %rbx, -32
	.cfi_offset %r14, -24
	movl	%esi, %r14d
	movl	%edi, %ebx
	callq	get_rand
	cmpl	$0, %eax
	jne	.LBB6_9
# %bb.1:                                # %func_dct_chroma_DC.17
	movl	%ebx, %edi
	movl	%r14d, %esi
	callq	dct_chroma_DC.17
	popq	%rbx
	popq	%r14
	popq	%rbp
	.cfi_def_cfa %rsp, 8
	retq
.LBB6_2:                                # %func_dct_chroma_DC.24
	.cfi_def_cfa %rbp, 16
	movl	%ebx, %edi
	movl	%r14d, %esi
	callq	dct_chroma_DC.24
	popq	%rbx
	popq	%r14
	popq	%rbp
	.cfi_def_cfa %rsp, 8
	retq
.LBB6_3:                                # %func_dct_chroma_DC.38
	.cfi_def_cfa %rbp, 16
	movl	%ebx, %edi
	movl	%r14d, %esi
	callq	dct_chroma_DC.38
	popq	%rbx
	popq	%r14
	popq	%rbp
	.cfi_def_cfa %rsp, 8
	retq
.LBB6_4:                                # %func_dct_chroma_DC.41
	.cfi_def_cfa %rbp, 16
	movl	%ebx, %edi
	movl	%r14d, %esi
	callq	dct_chroma_DC.41
	popq	%rbx
	popq	%r14
	popq	%rbp
	.cfi_def_cfa %rsp, 8
	retq
.LBB6_5:                                # %func_dct_chroma_DC.46
	.cfi_def_cfa %rbp, 16
	movl	%ebx, %edi
	movl	%r14d, %esi
	callq	dct_chroma_DC.46
	popq	%rbx
	popq	%r14
	popq	%rbp
	.cfi_def_cfa %rsp, 8
	retq
.LBB6_6:                                # %func_dct_chroma_DC.53
	.cfi_def_cfa %rbp, 16
	movl	%ebx, %edi
	movl	%r14d, %esi
	callq	dct_chroma_DC.53
	popq	%rbx
	popq	%r14
	popq	%rbp
	.cfi_def_cfa %rsp, 8
	retq
.LBB6_7:                                # %func_dct_chroma_DC.74
	.cfi_def_cfa %rbp, 16
	movl	%ebx, %edi
	movl	%r14d, %esi
	callq	dct_chroma_DC.74
	popq	%rbx
	popq	%r14
	popq	%rbp
	.cfi_def_cfa %rsp, 8
	retq
.LBB6_8:                                # %func_dct_chroma_DC.76
	.cfi_def_cfa %rbp, 16
	movl	%ebx, %edi
	movl	%r14d, %esi
	callq	dct_chroma_DC.76
	popq	%rbx
	popq	%r14
	popq	%rbp
	.cfi_def_cfa %rsp, 8
	retq
.LBB6_9:                                # %ctrl0
	.cfi_def_cfa %rbp, 16
	cmpl	$1, %eax
	je	.LBB6_2
# %bb.10:                               # %ctrl1
	cmpl	$2, %eax
	je	.LBB6_3
# %bb.11:                               # %ctrl2
	cmpl	$3, %eax
	je	.LBB6_4
# %bb.12:                               # %ctrl3
	cmpl	$4, %eax
	je	.LBB6_5
# %bb.13:                               # %ctrl4
	cmpl	$5, %eax
	je	.LBB6_6
# %bb.14:                               # %ctrl5
	cmpl	$6, %eax
	je	.LBB6_7
	jmp	.LBB6_8
.Lfunc_end6:
	.size	dct_chroma_DC, .Lfunc_end6-dct_chroma_DC
	.cfi_endproc
                                        # -- End function
	.globl	dct_luma_sp             # -- Begin function dct_luma_sp
	.p2align	4, 0x90
	.type	dct_luma_sp,@function
dct_luma_sp:                            # @dct_luma_sp
	.cfi_startproc
# %bb.0:                                # %rand_bb
	pushq	%rbp
	.cfi_def_cfa_offset 16
	.cfi_offset %rbp, -16
	movq	%rsp, %rbp
	.cfi_def_cfa_register %rbp
	pushq	%r15
	pushq	%r14
	pushq	%rbx
	pushq	%rax
	.cfi_offset %rbx, -40
	.cfi_offset %r14, -32
	.cfi_offset %r15, -24
	movq	%rdx, %r14
	movl	%esi, %r15d
	movl	%edi, %ebx
	callq	get_rand
	cmpl	$0, %eax
	jne	.LBB7_9
# %bb.1:                                # %func_dct_luma_sp.1
	movl	%ebx, %edi
	movl	%r15d, %esi
	movq	%r14, %rdx
	callq	dct_luma_sp.1
	addq	$8, %rsp
	popq	%rbx
	popq	%r14
	popq	%r15
	popq	%rbp
	.cfi_def_cfa %rsp, 8
	retq
.LBB7_2:                                # %func_dct_luma_sp.7
	.cfi_def_cfa %rbp, 16
	movl	%ebx, %edi
	movl	%r15d, %esi
	movq	%r14, %rdx
	callq	dct_luma_sp.7
	addq	$8, %rsp
	popq	%rbx
	popq	%r14
	popq	%r15
	popq	%rbp
	.cfi_def_cfa %rsp, 8
	retq
.LBB7_3:                                # %func_dct_luma_sp.12
	.cfi_def_cfa %rbp, 16
	movl	%ebx, %edi
	movl	%r15d, %esi
	movq	%r14, %rdx
	callq	dct_luma_sp.12
	addq	$8, %rsp
	popq	%rbx
	popq	%r14
	popq	%r15
	popq	%rbp
	.cfi_def_cfa %rsp, 8
	retq
.LBB7_4:                                # %func_dct_luma_sp.13
	.cfi_def_cfa %rbp, 16
	movl	%ebx, %edi
	movl	%r15d, %esi
	movq	%r14, %rdx
	callq	dct_luma_sp.13
	addq	$8, %rsp
	popq	%rbx
	popq	%r14
	popq	%r15
	popq	%rbp
	.cfi_def_cfa %rsp, 8
	retq
.LBB7_5:                                # %func_dct_luma_sp.23
	.cfi_def_cfa %rbp, 16
	movl	%ebx, %edi
	movl	%r15d, %esi
	movq	%r14, %rdx
	callq	dct_luma_sp.23
	addq	$8, %rsp
	popq	%rbx
	popq	%r14
	popq	%r15
	popq	%rbp
	.cfi_def_cfa %rsp, 8
	retq
.LBB7_6:                                # %func_dct_luma_sp.35
	.cfi_def_cfa %rbp, 16
	movl	%ebx, %edi
	movl	%r15d, %esi
	movq	%r14, %rdx
	callq	dct_luma_sp.35
	addq	$8, %rsp
	popq	%rbx
	popq	%r14
	popq	%r15
	popq	%rbp
	.cfi_def_cfa %rsp, 8
	retq
.LBB7_7:                                # %func_dct_luma_sp.49
	.cfi_def_cfa %rbp, 16
	movl	%ebx, %edi
	movl	%r15d, %esi
	movq	%r14, %rdx
	callq	dct_luma_sp.49
	addq	$8, %rsp
	popq	%rbx
	popq	%r14
	popq	%r15
	popq	%rbp
	.cfi_def_cfa %rsp, 8
	retq
.LBB7_8:                                # %func_dct_luma_sp.59
	.cfi_def_cfa %rbp, 16
	movl	%ebx, %edi
	movl	%r15d, %esi
	movq	%r14, %rdx
	callq	dct_luma_sp.59
	addq	$8, %rsp
	popq	%rbx
	popq	%r14
	popq	%r15
	popq	%rbp
	.cfi_def_cfa %rsp, 8
	retq
.LBB7_9:                                # %ctrl0
	.cfi_def_cfa %rbp, 16
	cmpl	$1, %eax
	je	.LBB7_2
# %bb.10:                               # %ctrl1
	cmpl	$2, %eax
	je	.LBB7_3
# %bb.11:                               # %ctrl2
	cmpl	$3, %eax
	je	.LBB7_4
# %bb.12:                               # %ctrl3
	cmpl	$4, %eax
	je	.LBB7_5
# %bb.13:                               # %ctrl4
	cmpl	$5, %eax
	je	.LBB7_6
# %bb.14:                               # %ctrl5
	cmpl	$6, %eax
	je	.LBB7_7
	jmp	.LBB7_8
.Lfunc_end7:
	.size	dct_luma_sp, .Lfunc_end7-dct_luma_sp
	.cfi_endproc
                                        # -- End function
	.globl	dct_chroma_sp           # -- Begin function dct_chroma_sp
	.p2align	4, 0x90
	.type	dct_chroma_sp,@function
dct_chroma_sp:                          # @dct_chroma_sp
	.cfi_startproc
# %bb.0:                                # %rand_bb
	pushq	%rbp
	.cfi_def_cfa_offset 16
	.cfi_offset %rbp, -16
	movq	%rsp, %rbp
	.cfi_def_cfa_register %rbp
	pushq	%r14
	pushq	%rbx
	.cfi_offset %rbx, -32
	.cfi_offset %r14, -24
	movl	%esi, %r14d
	movl	%edi, %ebx
	callq	get_rand
	cmpl	$0, %eax
	jne	.LBB8_9
# %bb.1:                                # %func_dct_chroma_sp.22
	movl	%ebx, %edi
	movl	%r14d, %esi
	callq	dct_chroma_sp.22
	popq	%rbx
	popq	%r14
	popq	%rbp
	.cfi_def_cfa %rsp, 8
	retq
.LBB8_2:                                # %func_dct_chroma_sp.34
	.cfi_def_cfa %rbp, 16
	movl	%ebx, %edi
	movl	%r14d, %esi
	callq	dct_chroma_sp.34
	popq	%rbx
	popq	%r14
	popq	%rbp
	.cfi_def_cfa %rsp, 8
	retq
.LBB8_3:                                # %func_dct_chroma_sp.50
	.cfi_def_cfa %rbp, 16
	movl	%ebx, %edi
	movl	%r14d, %esi
	callq	dct_chroma_sp.50
	popq	%rbx
	popq	%r14
	popq	%rbp
	.cfi_def_cfa %rsp, 8
	retq
.LBB8_4:                                # %func_dct_chroma_sp.62
	.cfi_def_cfa %rbp, 16
	movl	%ebx, %edi
	movl	%r14d, %esi
	callq	dct_chroma_sp.62
	popq	%rbx
	popq	%r14
	popq	%rbp
	.cfi_def_cfa %rsp, 8
	retq
.LBB8_5:                                # %func_dct_chroma_sp.71
	.cfi_def_cfa %rbp, 16
	movl	%ebx, %edi
	movl	%r14d, %esi
	callq	dct_chroma_sp.71
	popq	%rbx
	popq	%r14
	popq	%rbp
	.cfi_def_cfa %rsp, 8
	retq
.LBB8_6:                                # %func_dct_chroma_sp.72
	.cfi_def_cfa %rbp, 16
	movl	%ebx, %edi
	movl	%r14d, %esi
	callq	dct_chroma_sp.72
	popq	%rbx
	popq	%r14
	popq	%rbp
	.cfi_def_cfa %rsp, 8
	retq
.LBB8_7:                                # %func_dct_chroma_sp.73
	.cfi_def_cfa %rbp, 16
	movl	%ebx, %edi
	movl	%r14d, %esi
	callq	dct_chroma_sp.73
	popq	%rbx
	popq	%r14
	popq	%rbp
	.cfi_def_cfa %rsp, 8
	retq
.LBB8_8:                                # %func_dct_chroma_sp.77
	.cfi_def_cfa %rbp, 16
	movl	%ebx, %edi
	movl	%r14d, %esi
	callq	dct_chroma_sp.77
	popq	%rbx
	popq	%r14
	popq	%rbp
	.cfi_def_cfa %rsp, 8
	retq
.LBB8_9:                                # %ctrl0
	.cfi_def_cfa %rbp, 16
	cmpl	$1, %eax
	je	.LBB8_2
# %bb.10:                               # %ctrl1
	cmpl	$2, %eax
	je	.LBB8_3
# %bb.11:                               # %ctrl2
	cmpl	$3, %eax
	je	.LBB8_4
# %bb.12:                               # %ctrl3
	cmpl	$4, %eax
	je	.LBB8_5
# %bb.13:                               # %ctrl4
	cmpl	$5, %eax
	je	.LBB8_6
# %bb.14:                               # %ctrl5
	cmpl	$6, %eax
	je	.LBB8_7
	jmp	.LBB8_8
.Lfunc_end8:
	.size	dct_chroma_sp, .Lfunc_end8-dct_chroma_sp
	.cfi_endproc
                                        # -- End function
	.globl	copyblock_sp            # -- Begin function copyblock_sp
	.p2align	4, 0x90
	.type	copyblock_sp,@function
copyblock_sp:                           # @copyblock_sp
	.cfi_startproc
# %bb.0:                                # %rand_bb
	pushq	%rbp
	.cfi_def_cfa_offset 16
	.cfi_offset %rbp, -16
	movq	%rsp, %rbp
	.cfi_def_cfa_register %rbp
	pushq	%r14
	pushq	%rbx
	.cfi_offset %rbx, -32
	.cfi_offset %r14, -24
	movl	%esi, %r14d
	movl	%edi, %ebx
	callq	get_rand
	cmpl	$0, %eax
	jne	.LBB9_9
# %bb.1:                                # %func_copyblock_sp.8
	movl	%ebx, %edi
	movl	%r14d, %esi
	callq	copyblock_sp.8
	popq	%rbx
	popq	%r14
	popq	%rbp
	.cfi_def_cfa %rsp, 8
	retq
.LBB9_2:                                # %func_copyblock_sp.10
	.cfi_def_cfa %rbp, 16
	movl	%ebx, %edi
	movl	%r14d, %esi
	callq	copyblock_sp.10
	popq	%rbx
	popq	%r14
	popq	%rbp
	.cfi_def_cfa %rsp, 8
	retq
.LBB9_3:                                # %func_copyblock_sp.15
	.cfi_def_cfa %rbp, 16
	movl	%ebx, %edi
	movl	%r14d, %esi
	callq	copyblock_sp.15
	popq	%rbx
	popq	%r14
	popq	%rbp
	.cfi_def_cfa %rsp, 8
	retq
.LBB9_4:                                # %func_copyblock_sp.26
	.cfi_def_cfa %rbp, 16
	movl	%ebx, %edi
	movl	%r14d, %esi
	callq	copyblock_sp.26
	popq	%rbx
	popq	%r14
	popq	%rbp
	.cfi_def_cfa %rsp, 8
	retq
.LBB9_5:                                # %func_copyblock_sp.27
	.cfi_def_cfa %rbp, 16
	movl	%ebx, %edi
	movl	%r14d, %esi
	callq	copyblock_sp.27
	popq	%rbx
	popq	%r14
	popq	%rbp
	.cfi_def_cfa %rsp, 8
	retq
.LBB9_6:                                # %func_copyblock_sp.39
	.cfi_def_cfa %rbp, 16
	movl	%ebx, %edi
	movl	%r14d, %esi
	callq	copyblock_sp.39
	popq	%rbx
	popq	%r14
	popq	%rbp
	.cfi_def_cfa %rsp, 8
	retq
.LBB9_7:                                # %func_copyblock_sp.55
	.cfi_def_cfa %rbp, 16
	movl	%ebx, %edi
	movl	%r14d, %esi
	callq	copyblock_sp.55
	popq	%rbx
	popq	%r14
	popq	%rbp
	.cfi_def_cfa %rsp, 8
	retq
.LBB9_8:                                # %func_copyblock_sp.56
	.cfi_def_cfa %rbp, 16
	movl	%ebx, %edi
	movl	%r14d, %esi
	callq	copyblock_sp.56
	popq	%rbx
	popq	%r14
	popq	%rbp
	.cfi_def_cfa %rsp, 8
	retq
.LBB9_9:                                # %ctrl0
	.cfi_def_cfa %rbp, 16
	cmpl	$1, %eax
	je	.LBB9_2
# %bb.10:                               # %ctrl1
	cmpl	$2, %eax
	je	.LBB9_3
# %bb.11:                               # %ctrl2
	cmpl	$3, %eax
	je	.LBB9_4
# %bb.12:                               # %ctrl3
	cmpl	$4, %eax
	je	.LBB9_5
# %bb.13:                               # %ctrl4
	cmpl	$5, %eax
	je	.LBB9_6
# %bb.14:                               # %ctrl5
	cmpl	$6, %eax
	je	.LBB9_7
	jmp	.LBB9_8
.Lfunc_end9:
	.size	copyblock_sp, .Lfunc_end9-copyblock_sp
	.cfi_endproc
                                        # -- End function
	.section	.rodata.cst8,"aM",@progbits,8
	.p2align	3               # -- Begin function dct_luma_sp.1
.LCPI10_0:
	.quad	4616189618054758400     # double 4
.LCPI10_1:
	.quad	4605831338911806259     # double 0.84999999999999998
.LCPI10_2:
	.quad	4611686018427387904     # double 2
.LCPI10_3:
	.quad	4613937818241073152     # double 3
	.text
	.globl	dct_luma_sp.1
	.p2align	4, 0x90
	.type	dct_luma_sp.1,@function
dct_luma_sp.1:                          # @dct_luma_sp.1
	.cfi_startproc
# %bb.0:                                # %entry
	pushq	%rbp
	.cfi_def_cfa_offset 16
	.cfi_offset %rbp, -16
	movq	%rsp, %rbp
	.cfi_def_cfa_register %rbp
	pushq	%rbx
	subq	$312, %rsp              # imm = 0x138
	.cfi_offset %rbx, -24
	vmovsd	.LCPI10_2(%rip), %xmm0  # xmm0 = mem[0],zero
	vmovsd	.LCPI10_3(%rip), %xmm1  # xmm1 = mem[0],zero
	movl	$873127459, -216(%rbp)  # imm = 0x340ADE23
	movl	%edi, -136(%rbp)
	movl	%esi, -140(%rbp)
	movq	%rdx, -240(%rbp)
	movl	-136(%rbp), %eax
	cltd
	movl	$4, %ecx
	idivl	%ecx
	movl	%eax, -192(%rbp)
	movl	-140(%rbp), %eax
	cltd
	idivl	%ecx
	movl	%eax, -184(%rbp)
	movl	-184(%rbp), %eax
	cltd
	movl	$2, %esi
	idivl	%esi
	movl	%eax, %ecx
	shll	$1, %ecx
	movl	-192(%rbp), %eax
	cltd
	idivl	%esi
	addl	%eax, %ecx
	movl	%ecx, -200(%rbp)
	movl	-184(%rbp), %eax
	cltd
	idivl	%esi
	movl	%edx, %ecx
	shll	$1, %ecx
	movl	-192(%rbp), %eax
	cltd
	idivl	%esi
	addl	%edx, %ecx
	movl	%ecx, -188(%rbp)
	movq	img, %rax
	movq	14136(%rax), %rax
	movslq	-200(%rbp), %rcx
	movq	(%rax,%rcx,8), %rax
	movslq	-188(%rbp), %rcx
	movq	(%rax,%rcx,8), %rax
	movq	(%rax), %rax
	movq	%rax, -232(%rbp)
	movq	img, %rax
	movq	14136(%rax), %rax
	movslq	-200(%rbp), %rcx
	movq	(%rax,%rcx,8), %rax
	movslq	-188(%rbp), %rcx
	movq	(%rax,%rcx,8), %rax
	movq	8(%rax), %rax
	movq	%rax, -248(%rbp)
	movq	img, %rax
	movq	14168(%rax), %rax
	movq	img, %rcx
	movslq	12(%rcx), %rcx
	imulq	$632, %rcx, %rcx        # imm = 0x278
	addq	%rcx, %rax
	movq	%rax, -168(%rbp)
	movq	-168(%rbp), %rax
	movl	12(%rax), %eax
	subl	$12, %eax
	vcvtsi2sd	%eax, %xmm0, %xmm2
	vdivsd	%xmm1, %xmm2, %xmm1
	callq	pow
	vmovsd	.LCPI10_0(%rip), %xmm1  # xmm1 = mem[0],zero
	vmovsd	.LCPI10_1(%rip), %xmm2  # xmm2 = mem[0],zero
	vmulsd	%xmm0, %xmm2, %xmm0
	vmulsd	%xmm1, %xmm0, %xmm0
	vmovsd	%xmm0, -224(%rbp)
	movq	-168(%rbp), %rax
	movl	12(%rax), %eax
	subl	$0, %eax
	cltd
	movl	$6, %edi
	idivl	%edi
	movl	%eax, -132(%rbp)
	movq	-168(%rbp), %rax
	movl	12(%rax), %eax
	subl	$0, %eax
	cltd
	idivl	%edi
	movl	%edx, -100(%rbp)
	movl	-132(%rbp), %eax
	addl	$15, %eax
	movl	%eax, -148(%rbp)
	movq	-168(%rbp), %rax
	movl	16(%rax), %eax
	subl	$0, %eax
	cltd
	idivl	%edi
	movl	%eax, -180(%rbp)
	movq	-168(%rbp), %rax
	movl	16(%rax), %eax
	subl	$0, %eax
	cltd
	idivl	%edi
	movl	%edx, -120(%rbp)
	movl	-180(%rbp), %eax
	addl	$15, %eax
	movl	%eax, -128(%rbp)
	movl	-148(%rbp), %ecx
                                        # kill: def $cl killed $ecx
	movl	$1, %esi
	movl	$1, %eax
	shll	%cl, %eax
	cltd
	idivl	%edi
	movl	%eax, -208(%rbp)
	movl	-128(%rbp), %ecx
                                        # kill: def $cl killed $ecx
	shll	%cl, %esi
	movl	%esi, %eax
	cltd
	movl	$2, %ecx
	idivl	%ecx
	movl	%eax, -196(%rbp)
	movl	$0, -12(%rbp)
.LBB10_1:                               # %for.cond
                                        # =>This Loop Header: Depth=1
                                        #     Child Loop BB10_3 Depth 2
	cmpl	$4, -12(%rbp)
	jge	.LBB10_8
# %bb.2:                                # %for.body
                                        #   in Loop: Header=BB10_1 Depth=1
	movl	$0, -16(%rbp)
.LBB10_3:                               # %for.cond38
                                        #   Parent Loop BB10_1 Depth=1
                                        # =>  This Inner Loop Header: Depth=2
	cmpl	$4, -16(%rbp)
	jge	.LBB10_6
# %bb.4:                                # %for.body41
                                        #   in Loop: Header=BB10_3 Depth=2
	movq	img, %rax
	addq	$12600, %rax            # imm = 0x3138
	movl	-16(%rbp), %ecx
	addl	-136(%rbp), %ecx
	movslq	%ecx, %rcx
	shlq	$5, %rcx
	addq	%rcx, %rax
	movl	-12(%rbp), %ecx
	addl	-140(%rbp), %ecx
	movslq	%ecx, %rcx
	movzwl	(%rax,%rcx,2), %eax
	movq	img, %rcx
	addq	$13112, %rcx            # imm = 0x3338
	movslq	-16(%rbp), %rdx
	shlq	$6, %rdx
	addq	%rdx, %rcx
	movslq	-12(%rbp), %rdx
	addl	(%rcx,%rdx,4), %eax
	movl	%eax, (%rcx,%rdx,4)
	movq	img, %rax
	addq	$12600, %rax            # imm = 0x3138
	movl	-16(%rbp), %ecx
	addl	-136(%rbp), %ecx
	movslq	%ecx, %rcx
	shlq	$5, %rcx
	addq	%rcx, %rax
	movl	-12(%rbp), %ecx
	addl	-140(%rbp), %ecx
	movslq	%ecx, %rcx
	movzwl	(%rax,%rcx,2), %eax
	movslq	-16(%rbp), %rcx
	shlq	$4, %rcx
	leaq	-320(%rbp), %rdx
	addq	%rcx, %rdx
	movslq	-12(%rbp), %rcx
	movl	%eax, (%rdx,%rcx,4)
# %bb.5:                                # %for.inc
                                        #   in Loop: Header=BB10_3 Depth=2
	movl	-16(%rbp), %eax
	addl	$1, %eax
	movl	%eax, -16(%rbp)
	jmp	.LBB10_3
.LBB10_6:                               # %for.end
                                        #   in Loop: Header=BB10_1 Depth=1
	jmp	.LBB10_7
.LBB10_7:                               # %for.inc66
                                        #   in Loop: Header=BB10_1 Depth=1
	movl	-12(%rbp), %eax
	addl	$1, %eax
	movl	%eax, -12(%rbp)
	jmp	.LBB10_1
.LBB10_8:                               # %for.end68
	movl	$0, -12(%rbp)
.LBB10_9:                               # %for.cond69
                                        # =>This Loop Header: Depth=1
                                        #     Child Loop BB10_11 Depth 2
	cmpl	$4, -12(%rbp)
	jge	.LBB10_16
# %bb.10:                               # %for.body72
                                        #   in Loop: Header=BB10_9 Depth=1
	movl	$0, -16(%rbp)
.LBB10_11:                              # %for.cond73
                                        #   Parent Loop BB10_9 Depth=1
                                        # =>  This Inner Loop Header: Depth=2
	cmpl	$2, -16(%rbp)
	jge	.LBB10_14
# %bb.12:                               # %for.body76
                                        #   in Loop: Header=BB10_11 Depth=2
	movl	$3, %eax
	subl	-16(%rbp), %eax
	movl	%eax, -52(%rbp)
	movq	img, %rax
	addq	$13112, %rax            # imm = 0x3338
	movslq	-16(%rbp), %rcx
	shlq	$6, %rcx
	addq	%rcx, %rax
	movslq	-12(%rbp), %rcx
	movl	(%rax,%rcx,4), %eax
	movq	img, %rcx
	addq	$13112, %rcx            # imm = 0x3338
	movslq	-52(%rbp), %rdx
	shlq	$6, %rdx
	addq	%rdx, %rcx
	movslq	-12(%rbp), %rdx
	addl	(%rcx,%rdx,4), %eax
	movslq	-16(%rbp), %rcx
	movl	%eax, -48(%rbp,%rcx,4)
	movq	img, %rax
	addq	$13112, %rax            # imm = 0x3338
	movslq	-16(%rbp), %rcx
	shlq	$6, %rcx
	addq	%rcx, %rax
	movslq	-12(%rbp), %rcx
	movl	(%rax,%rcx,4), %eax
	movq	img, %rcx
	addq	$13112, %rcx            # imm = 0x3338
	movslq	-52(%rbp), %rdx
	shlq	$6, %rdx
	addq	%rdx, %rcx
	movslq	-12(%rbp), %rdx
	subl	(%rcx,%rdx,4), %eax
	movslq	-52(%rbp), %rcx
	movl	%eax, -48(%rbp,%rcx,4)
# %bb.13:                               # %for.inc104
                                        #   in Loop: Header=BB10_11 Depth=2
	movl	-16(%rbp), %eax
	addl	$1, %eax
	movl	%eax, -16(%rbp)
	jmp	.LBB10_11
.LBB10_14:                              # %for.end106
                                        #   in Loop: Header=BB10_9 Depth=1
	movl	-48(%rbp), %eax
	addl	-44(%rbp), %eax
	movq	img, %rcx
	movslq	-12(%rbp), %rdx
	movl	%eax, 13112(%rcx,%rdx,4)
	movl	-48(%rbp), %eax
	subl	-44(%rbp), %eax
	movq	img, %rcx
	movslq	-12(%rbp), %rdx
	movl	%eax, 13240(%rcx,%rdx,4)
	movl	-36(%rbp), %eax
	shll	$1, %eax
	addl	-40(%rbp), %eax
	movq	img, %rcx
	movslq	-12(%rbp), %rdx
	movl	%eax, 13176(%rcx,%rdx,4)
	movl	-36(%rbp), %eax
	movl	-40(%rbp), %ecx
	shll	$1, %ecx
	subl	%ecx, %eax
	movq	img, %rcx
	movslq	-12(%rbp), %rdx
	movl	%eax, 13304(%rcx,%rdx,4)
# %bb.15:                               # %for.inc137
                                        #   in Loop: Header=BB10_9 Depth=1
	movl	-12(%rbp), %eax
	addl	$1, %eax
	movl	%eax, -12(%rbp)
	jmp	.LBB10_9
.LBB10_16:                              # %for.end139
	movl	$0, -16(%rbp)
.LBB10_17:                              # %for.cond140
                                        # =>This Loop Header: Depth=1
                                        #     Child Loop BB10_19 Depth 2
	cmpl	$4, -16(%rbp)
	jge	.LBB10_24
# %bb.18:                               # %for.body143
                                        #   in Loop: Header=BB10_17 Depth=1
	movl	$0, -12(%rbp)
.LBB10_19:                              # %for.cond144
                                        #   Parent Loop BB10_17 Depth=1
                                        # =>  This Inner Loop Header: Depth=2
	cmpl	$2, -12(%rbp)
	jge	.LBB10_22
# %bb.20:                               # %for.body147
                                        #   in Loop: Header=BB10_19 Depth=2
	movl	$3, %eax
	subl	-12(%rbp), %eax
	movl	%eax, -24(%rbp)
	movq	img, %rax
	addq	$13112, %rax            # imm = 0x3338
	movslq	-16(%rbp), %rcx
	shlq	$6, %rcx
	addq	%rcx, %rax
	movslq	-12(%rbp), %rcx
	movl	(%rax,%rcx,4), %eax
	movq	img, %rcx
	addq	$13112, %rcx            # imm = 0x3338
	movslq	-16(%rbp), %rdx
	shlq	$6, %rdx
	addq	%rdx, %rcx
	movslq	-24(%rbp), %rdx
	addl	(%rcx,%rdx,4), %eax
	movslq	-12(%rbp), %rcx
	movl	%eax, -48(%rbp,%rcx,4)
	movq	img, %rax
	addq	$13112, %rax            # imm = 0x3338
	movslq	-16(%rbp), %rcx
	shlq	$6, %rcx
	addq	%rcx, %rax
	movslq	-12(%rbp), %rcx
	movl	(%rax,%rcx,4), %eax
	movq	img, %rcx
	addq	$13112, %rcx            # imm = 0x3338
	movslq	-16(%rbp), %rdx
	shlq	$6, %rdx
	addq	%rdx, %rcx
	movslq	-24(%rbp), %rdx
	subl	(%rcx,%rdx,4), %eax
	movslq	-24(%rbp), %rcx
	movl	%eax, -48(%rbp,%rcx,4)
# %bb.21:                               # %for.inc175
                                        #   in Loop: Header=BB10_19 Depth=2
	movl	-12(%rbp), %eax
	addl	$1, %eax
	movl	%eax, -12(%rbp)
	jmp	.LBB10_19
.LBB10_22:                              # %for.end177
                                        #   in Loop: Header=BB10_17 Depth=1
	movl	-48(%rbp), %eax
	addl	-44(%rbp), %eax
	movq	img, %rcx
	addq	$13112, %rcx            # imm = 0x3338
	movslq	-16(%rbp), %rdx
	shlq	$6, %rdx
	addq	%rdx, %rcx
	movl	%eax, (%rcx)
	movl	-48(%rbp), %eax
	subl	-44(%rbp), %eax
	movq	img, %rcx
	addq	$13112, %rcx            # imm = 0x3338
	movslq	-16(%rbp), %rdx
	shlq	$6, %rdx
	addq	%rdx, %rcx
	movl	%eax, 8(%rcx)
	movl	-36(%rbp), %eax
	shll	$1, %eax
	addl	-40(%rbp), %eax
	movq	img, %rcx
	addq	$13112, %rcx            # imm = 0x3338
	movslq	-16(%rbp), %rdx
	shlq	$6, %rdx
	addq	%rdx, %rcx
	movl	%eax, 4(%rcx)
	movl	-36(%rbp), %eax
	movl	-40(%rbp), %ecx
	shll	$1, %ecx
	subl	%ecx, %eax
	movq	img, %rcx
	addq	$13112, %rcx            # imm = 0x3338
	movslq	-16(%rbp), %rdx
	shlq	$6, %rdx
	addq	%rdx, %rcx
	movl	%eax, 12(%rcx)
# %bb.23:                               # %for.inc208
                                        #   in Loop: Header=BB10_17 Depth=1
	movl	-16(%rbp), %eax
	addl	$1, %eax
	movl	%eax, -16(%rbp)
	jmp	.LBB10_17
.LBB10_24:                              # %for.end210
	movl	$0, -12(%rbp)
.LBB10_25:                              # %for.cond211
                                        # =>This Loop Header: Depth=1
                                        #     Child Loop BB10_27 Depth 2
	cmpl	$4, -12(%rbp)
	jge	.LBB10_32
# %bb.26:                               # %for.body214
                                        #   in Loop: Header=BB10_25 Depth=1
	movl	$0, -16(%rbp)
.LBB10_27:                              # %for.cond215
                                        #   Parent Loop BB10_25 Depth=1
                                        # =>  This Inner Loop Header: Depth=2
	cmpl	$2, -16(%rbp)
	jge	.LBB10_30
# %bb.28:                               # %for.body218
                                        #   in Loop: Header=BB10_27 Depth=2
	movl	$3, %eax
	subl	-16(%rbp), %eax
	movl	%eax, -52(%rbp)
	movslq	-16(%rbp), %rax
	shlq	$4, %rax
	leaq	-320(%rbp), %rcx
	movq	%rcx, %rdx
	addq	%rax, %rdx
	movslq	-12(%rbp), %rax
	movl	(%rdx,%rax,4), %eax
	movslq	-52(%rbp), %rdx
	shlq	$4, %rdx
	movq	%rcx, %rsi
	addq	%rdx, %rsi
	movslq	-12(%rbp), %rdx
	addl	(%rsi,%rdx,4), %eax
	movslq	-16(%rbp), %rdx
	movl	%eax, -48(%rbp,%rdx,4)
	movslq	-16(%rbp), %rax
	shlq	$4, %rax
	movq	%rcx, %rdx
	addq	%rax, %rdx
	movslq	-12(%rbp), %rax
	movl	(%rdx,%rax,4), %eax
	movslq	-52(%rbp), %rdx
	shlq	$4, %rdx
	addq	%rdx, %rcx
	movslq	-12(%rbp), %rdx
	subl	(%rcx,%rdx,4), %eax
	movslq	-52(%rbp), %rcx
	movl	%eax, -48(%rbp,%rcx,4)
# %bb.29:                               # %for.inc242
                                        #   in Loop: Header=BB10_27 Depth=2
	movl	-16(%rbp), %eax
	addl	$1, %eax
	movl	%eax, -16(%rbp)
	jmp	.LBB10_27
.LBB10_30:                              # %for.end244
                                        #   in Loop: Header=BB10_25 Depth=1
	movl	-48(%rbp), %eax
	addl	-44(%rbp), %eax
	movslq	-12(%rbp), %rcx
	movl	%eax, -320(%rbp,%rcx,4)
	movl	-48(%rbp), %eax
	subl	-44(%rbp), %eax
	movslq	-12(%rbp), %rcx
	movl	%eax, -288(%rbp,%rcx,4)
	movl	-36(%rbp), %eax
	shll	$1, %eax
	addl	-40(%rbp), %eax
	movslq	-12(%rbp), %rcx
	movl	%eax, -304(%rbp,%rcx,4)
	movl	-36(%rbp), %eax
	movl	-40(%rbp), %ecx
	shll	$1, %ecx
	subl	%ecx, %eax
	movslq	-12(%rbp), %rcx
	movl	%eax, -272(%rbp,%rcx,4)
# %bb.31:                               # %for.inc271
                                        #   in Loop: Header=BB10_25 Depth=1
	movl	-12(%rbp), %eax
	addl	$1, %eax
	movl	%eax, -12(%rbp)
	jmp	.LBB10_25
.LBB10_32:                              # %for.end273
	movl	$0, -16(%rbp)
.LBB10_33:                              # %for.cond274
                                        # =>This Loop Header: Depth=1
                                        #     Child Loop BB10_35 Depth 2
	cmpl	$4, -16(%rbp)
	jge	.LBB10_40
# %bb.34:                               # %for.body277
                                        #   in Loop: Header=BB10_33 Depth=1
	movl	$0, -12(%rbp)
.LBB10_35:                              # %for.cond278
                                        #   Parent Loop BB10_33 Depth=1
                                        # =>  This Inner Loop Header: Depth=2
	cmpl	$2, -12(%rbp)
	jge	.LBB10_38
# %bb.36:                               # %for.body281
                                        #   in Loop: Header=BB10_35 Depth=2
	movl	$3, %eax
	subl	-12(%rbp), %eax
	movl	%eax, -24(%rbp)
	movslq	-16(%rbp), %rax
	shlq	$4, %rax
	leaq	-320(%rbp), %rcx
	movq	%rcx, %rdx
	addq	%rax, %rdx
	movslq	-12(%rbp), %rax
	movl	(%rdx,%rax,4), %eax
	movslq	-16(%rbp), %rdx
	shlq	$4, %rdx
	movq	%rcx, %rsi
	addq	%rdx, %rsi
	movslq	-24(%rbp), %rdx
	addl	(%rsi,%rdx,4), %eax
	movslq	-12(%rbp), %rdx
	movl	%eax, -48(%rbp,%rdx,4)
	movslq	-16(%rbp), %rax
	shlq	$4, %rax
	movq	%rcx, %rdx
	addq	%rax, %rdx
	movslq	-12(%rbp), %rax
	movl	(%rdx,%rax,4), %eax
	movslq	-16(%rbp), %rdx
	shlq	$4, %rdx
	addq	%rdx, %rcx
	movslq	-24(%rbp), %rdx
	subl	(%rcx,%rdx,4), %eax
	movslq	-24(%rbp), %rcx
	movl	%eax, -48(%rbp,%rcx,4)
# %bb.37:                               # %for.inc305
                                        #   in Loop: Header=BB10_35 Depth=2
	movl	-12(%rbp), %eax
	addl	$1, %eax
	movl	%eax, -12(%rbp)
	jmp	.LBB10_35
.LBB10_38:                              # %for.end307
                                        #   in Loop: Header=BB10_33 Depth=1
	movl	-48(%rbp), %ecx
	addl	-44(%rbp), %ecx
	movslq	-16(%rbp), %rdx
	shlq	$4, %rdx
	leaq	-320(%rbp), %rax
	movq	%rax, %rsi
	addq	%rdx, %rsi
	movl	%ecx, (%rsi)
	movl	-48(%rbp), %ecx
	subl	-44(%rbp), %ecx
	movslq	-16(%rbp), %rdx
	shlq	$4, %rdx
	movq	%rax, %rsi
	addq	%rdx, %rsi
	movl	%ecx, 8(%rsi)
	movl	-36(%rbp), %ecx
	shll	$1, %ecx
	addl	-40(%rbp), %ecx
	movslq	-16(%rbp), %rdx
	shlq	$4, %rdx
	movq	%rax, %rsi
	addq	%rdx, %rsi
	movl	%ecx, 4(%rsi)
	movl	-36(%rbp), %ecx
	movl	-40(%rbp), %edx
	shll	$1, %edx
	subl	%edx, %ecx
	movslq	-16(%rbp), %rdx
	shlq	$4, %rdx
	addq	%rdx, %rax
	movl	%ecx, 12(%rax)
# %bb.39:                               # %for.inc334
                                        #   in Loop: Header=BB10_33 Depth=1
	movl	-16(%rbp), %eax
	addl	$1, %eax
	movl	%eax, -16(%rbp)
	jmp	.LBB10_33
.LBB10_40:                              # %for.end336
	movl	$0, -204(%rbp)
	movl	$-1, -68(%rbp)
	movl	$0, -104(%rbp)
	movl	$0, -64(%rbp)
.LBB10_41:                              # %for.cond337
                                        # =>This Inner Loop Header: Depth=1
	cmpl	$16, -64(%rbp)
	jge	.LBB10_80
# %bb.42:                               # %for.body340
                                        #   in Loop: Header=BB10_41 Depth=1
	movq	img, %rax
	cmpl	$0, 72444(%rax)
	jne	.LBB10_45
# %bb.43:                               # %lor.lhs.false
                                        #   in Loop: Header=BB10_41 Depth=1
	cmpl	$0, mb_adaptive
	je	.LBB10_46
# %bb.44:                               # %land.lhs.true
                                        #   in Loop: Header=BB10_41 Depth=1
	movq	img, %rax
	cmpl	$0, 72008(%rax)
	je	.LBB10_46
.LBB10_45:                              # %if.then
                                        #   in Loop: Header=BB10_41 Depth=1
	movslq	-64(%rbp), %rax
	movzbl	FIELD_SCAN(,%rax,2), %eax
	movl	%eax, -16(%rbp)
	movslq	-64(%rbp), %rax
	movzbl	FIELD_SCAN+1(,%rax,2), %eax
	movl	%eax, -12(%rbp)
	jmp	.LBB10_47
.LBB10_46:                              # %if.else
                                        #   in Loop: Header=BB10_41 Depth=1
	movslq	-64(%rbp), %rax
	movzbl	SNGL_SCAN(,%rax,2), %eax
	movl	%eax, -16(%rbp)
	movslq	-64(%rbp), %rax
	movzbl	SNGL_SCAN+1(,%rax,2), %eax
	movl	%eax, -12(%rbp)
.LBB10_47:                              # %if.end
                                        #   in Loop: Header=BB10_41 Depth=1
	movl	-68(%rbp), %eax
	addl	$1, %eax
	movl	%eax, -68(%rbp)
	movl	$0, -112(%rbp)
	movslq	-16(%rbp), %rax
	shlq	$4, %rax
	leaq	-320(%rbp), %rcx
	addq	%rax, %rcx
	movslq	-12(%rbp), %rax
	movl	(%rcx,%rax,4), %edi
	callq	abs
	movslq	-120(%rbp), %rcx
	shlq	$6, %rcx
	movabsq	$quant_coef, %rsi
	movq	%rsi, %rdx
	addq	%rcx, %rdx
	movslq	-16(%rbp), %rcx
	shlq	$4, %rcx
	addq	%rcx, %rdx
	movslq	-12(%rbp), %rcx
	imull	(%rdx,%rcx,4), %eax
	addl	-196(%rbp), %eax
	movl	-128(%rbp), %ecx
                                        # kill: def $cl killed $ecx
	sarl	%cl, %eax
	movl	%eax, -20(%rbp)
	movl	-20(%rbp), %eax
	movl	-128(%rbp), %ecx
                                        # kill: def $cl killed $ecx
	shll	%cl, %eax
	movslq	-120(%rbp), %rcx
	shlq	$6, %rcx
	addq	%rcx, %rsi
	movslq	-16(%rbp), %rcx
	shlq	$4, %rcx
	addq	%rcx, %rsi
	movslq	-12(%rbp), %rcx
	cltd
	idivl	(%rsi,%rcx,4)
	movl	%eax, -20(%rbp)
	movq	img, %rax
	addq	$13112, %rax            # imm = 0x3338
	movslq	-16(%rbp), %rcx
	shlq	$6, %rcx
	addq	%rcx, %rax
	movslq	-12(%rbp), %rcx
	movl	(%rax,%rcx,4), %ebx
	movl	-20(%rbp), %edi
	movslq	-16(%rbp), %rax
	shlq	$4, %rax
	leaq	-320(%rbp), %rcx
	addq	%rax, %rcx
	movslq	-12(%rbp), %rax
	movl	(%rcx,%rax,4), %esi
	callq	sign
	subl	%eax, %ebx
	movl	%ebx, -108(%rbp)
	movl	-108(%rbp), %edi
	callq	abs
	movslq	-100(%rbp), %rcx
	shlq	$6, %rcx
	movabsq	$quant_coef, %rdx
	addq	%rcx, %rdx
	movslq	-16(%rbp), %rcx
	shlq	$4, %rcx
	addq	%rcx, %rdx
	movslq	-12(%rbp), %rcx
	imull	(%rdx,%rcx,4), %eax
	addl	-208(%rbp), %eax
	movl	-148(%rbp), %ecx
                                        # kill: def $cl killed $ecx
	sarl	%cl, %eax
	movl	%eax, -20(%rbp)
	movq	img, %rax
	addq	$13112, %rax            # imm = 0x3338
	movslq	-16(%rbp), %rcx
	shlq	$6, %rcx
	addq	%rcx, %rax
	movslq	-12(%rbp), %rcx
	movl	(%rax,%rcx,4), %eax
	movslq	-16(%rbp), %rcx
	shlq	$4, %rcx
	leaq	-320(%rbp), %rdx
	addq	%rcx, %rdx
	movslq	-12(%rbp), %rcx
	subl	(%rdx,%rcx,4), %eax
	movl	%eax, -124(%rbp)
	movl	-124(%rbp), %edi
	callq	abs
	movslq	-100(%rbp), %rcx
	shlq	$6, %rcx
	movabsq	$quant_coef, %rdx
	addq	%rcx, %rdx
	movslq	-16(%rbp), %rcx
	shlq	$4, %rcx
	addq	%rcx, %rdx
	movslq	-12(%rbp), %rcx
	imull	(%rdx,%rcx,4), %eax
	addl	-208(%rbp), %eax
	movl	-148(%rbp), %ecx
                                        # kill: def $cl killed $ecx
	sarl	%cl, %eax
	movl	%eax, -56(%rbp)
	movl	-20(%rbp), %eax
	cmpl	-56(%rbp), %eax
	je	.LBB10_63
# %bb.48:                               # %land.lhs.true424
                                        #   in Loop: Header=BB10_41 Depth=1
	cmpl	$0, -20(%rbp)
	je	.LBB10_63
# %bb.49:                               # %land.lhs.true427
                                        #   in Loop: Header=BB10_41 Depth=1
	cmpl	$0, -56(%rbp)
	je	.LBB10_63
# %bb.50:                               # %if.then430
                                        #   in Loop: Header=BB10_41 Depth=1
	movq	img, %rax
	addq	$13112, %rax            # imm = 0x3338
	movslq	-16(%rbp), %rcx
	shlq	$6, %rcx
	addq	%rcx, %rax
	movslq	-12(%rbp), %rcx
	movl	(%rax,%rcx,4), %ebx
	movl	-20(%rbp), %edi
	movl	-108(%rbp), %esi
	callq	sign
	movslq	-100(%rbp), %rcx
	shlq	$6, %rcx
	movabsq	$dequant_coef, %rdx
	addq	%rcx, %rdx
	movslq	-16(%rbp), %rcx
	shlq	$4, %rcx
	addq	%rcx, %rdx
	movslq	-12(%rbp), %rcx
	imull	(%rdx,%rcx,4), %eax
	movslq	-16(%rbp), %rcx
	shlq	$4, %rcx
	movabsq	$A, %rdx
	addq	%rcx, %rdx
	movslq	-12(%rbp), %rcx
	imull	(%rdx,%rcx,4), %eax
	movl	-132(%rbp), %ecx
                                        # kill: def $cl killed $ecx
	shll	%cl, %eax
	sarl	$6, %eax
	subl	%eax, %ebx
	movslq	-16(%rbp), %rax
	shlq	$4, %rax
	leaq	-320(%rbp), %rcx
	addq	%rax, %rcx
	movslq	-12(%rbp), %rax
	subl	(%rcx,%rax,4), %ebx
	vcvtsi2sd	%ebx, %xmm0, %xmm0
	vmovsd	%xmm0, -176(%rbp)
	movl	-20(%rbp), %edi
	movl	-68(%rbp), %esi
	leaq	-144(%rbp), %rdx
	leaq	-212(%rbp), %rcx
	callq	levrun_linfo_inter
	vmovsd	-176(%rbp), %xmm0       # xmm0 = mem[0],zero
	vmulsd	-176(%rbp), %xmm0, %xmm0
	vmovsd	-224(%rbp), %xmm1       # xmm1 = mem[0],zero
	vcvtsi2sdl	-144(%rbp), %xmm0, %xmm2
	vmulsd	%xmm2, %xmm1, %xmm1
	vaddsd	%xmm1, %xmm0, %xmm0
	vmovsd	%xmm0, -176(%rbp)
	movq	img, %rax
	addq	$13112, %rax            # imm = 0x3338
	movslq	-16(%rbp), %rcx
	shlq	$6, %rcx
	addq	%rcx, %rax
	movslq	-12(%rbp), %rcx
	movl	(%rax,%rcx,4), %ebx
	movl	-56(%rbp), %edi
	movl	-124(%rbp), %esi
	callq	sign
	movslq	-100(%rbp), %rcx
	shlq	$6, %rcx
	movabsq	$dequant_coef, %rdx
	addq	%rcx, %rdx
	movslq	-16(%rbp), %rcx
	shlq	$4, %rcx
	addq	%rcx, %rdx
	movslq	-12(%rbp), %rcx
	imull	(%rdx,%rcx,4), %eax
	movslq	-16(%rbp), %rcx
	shlq	$4, %rcx
	movabsq	$A, %rdx
	addq	%rcx, %rdx
	movslq	-12(%rbp), %rcx
	imull	(%rdx,%rcx,4), %eax
	movl	-132(%rbp), %ecx
                                        # kill: def $cl killed $ecx
	shll	%cl, %eax
	sarl	$6, %eax
	subl	%eax, %ebx
	movslq	-16(%rbp), %rax
	shlq	$4, %rax
	leaq	-320(%rbp), %rcx
	addq	%rax, %rcx
	movslq	-12(%rbp), %rax
	subl	(%rcx,%rax,4), %ebx
	vcvtsi2sd	%ebx, %xmm0, %xmm0
	vmovsd	%xmm0, -160(%rbp)
	movl	-56(%rbp), %edi
	movl	-68(%rbp), %esi
	leaq	-144(%rbp), %rdx
	leaq	-212(%rbp), %rcx
	callq	levrun_linfo_inter
	vmovsd	-160(%rbp), %xmm0       # xmm0 = mem[0],zero
	vmulsd	-160(%rbp), %xmm0, %xmm0
	vmovsd	-224(%rbp), %xmm1       # xmm1 = mem[0],zero
	vcvtsi2sdl	-144(%rbp), %xmm0, %xmm2
	vmulsd	%xmm2, %xmm1, %xmm1
	vaddsd	%xmm1, %xmm0, %xmm0
	vmovsd	%xmm0, -160(%rbp)
	vmovsd	-176(%rbp), %xmm0       # xmm0 = mem[0],zero
	vucomisd	-160(%rbp), %xmm0
	jne	.LBB10_55
	jp	.LBB10_55
# %bb.51:                               # %if.then495
                                        #   in Loop: Header=BB10_41 Depth=1
	movl	-20(%rbp), %edi
	callq	abs
	movl	%eax, %ebx
	movl	-56(%rbp), %edi
	callq	abs
	cmpl	%eax, %ebx
	jge	.LBB10_53
# %bb.52:                               # %cond.true
                                        #   in Loop: Header=BB10_41 Depth=1
	movl	-20(%rbp), %eax
	jmp	.LBB10_54
.LBB10_53:                              # %cond.false
                                        #   in Loop: Header=BB10_41 Depth=1
	movl	-56(%rbp), %eax
.LBB10_54:                              # %cond.end
                                        #   in Loop: Header=BB10_41 Depth=1
	movl	%eax, -60(%rbp)
	jmp	.LBB10_59
.LBB10_55:                              # %if.else500
                                        #   in Loop: Header=BB10_41 Depth=1
	vmovsd	-176(%rbp), %xmm0       # xmm0 = mem[0],zero
	vmovsd	-160(%rbp), %xmm1       # xmm1 = mem[0],zero
	vucomisd	%xmm0, %xmm1
	jbe	.LBB10_57
# %bb.56:                               # %if.then503
                                        #   in Loop: Header=BB10_41 Depth=1
	movl	-20(%rbp), %eax
	movl	%eax, -60(%rbp)
	jmp	.LBB10_58
.LBB10_57:                              # %if.else504
                                        #   in Loop: Header=BB10_41 Depth=1
	movl	-56(%rbp), %eax
	movl	%eax, -60(%rbp)
.LBB10_58:                              # %if.end505
                                        #   in Loop: Header=BB10_41 Depth=1
	jmp	.LBB10_59
.LBB10_59:                              # %if.end506
                                        #   in Loop: Header=BB10_41 Depth=1
	movl	-60(%rbp), %eax
	cmpl	-20(%rbp), %eax
	jne	.LBB10_61
# %bb.60:                               # %cond.true509
                                        #   in Loop: Header=BB10_41 Depth=1
	movl	-108(%rbp), %eax
	jmp	.LBB10_62
.LBB10_61:                              # %cond.false510
                                        #   in Loop: Header=BB10_41 Depth=1
	movl	-124(%rbp), %eax
.LBB10_62:                              # %cond.end511
                                        #   in Loop: Header=BB10_41 Depth=1
	movl	%eax, -116(%rbp)
	jmp	.LBB10_73
.LBB10_63:                              # %if.else513
                                        #   in Loop: Header=BB10_41 Depth=1
	movl	-20(%rbp), %eax
	cmpl	-56(%rbp), %eax
	jne	.LBB10_65
# %bb.64:                               # %if.then516
                                        #   in Loop: Header=BB10_41 Depth=1
	movl	-20(%rbp), %eax
	movl	%eax, -60(%rbp)
	movl	-108(%rbp), %eax
	movl	%eax, -116(%rbp)
	jmp	.LBB10_72
.LBB10_65:                              # %if.else517
                                        #   in Loop: Header=BB10_41 Depth=1
	cmpl	$0, -20(%rbp)
	jne	.LBB10_67
# %bb.66:                               # %cond.true520
                                        #   in Loop: Header=BB10_41 Depth=1
	movl	-20(%rbp), %eax
	jmp	.LBB10_68
.LBB10_67:                              # %cond.false521
                                        #   in Loop: Header=BB10_41 Depth=1
	movl	-56(%rbp), %eax
.LBB10_68:                              # %cond.end522
                                        #   in Loop: Header=BB10_41 Depth=1
	movl	%eax, -60(%rbp)
	cmpl	$0, -20(%rbp)
	jne	.LBB10_70
# %bb.69:                               # %cond.true526
                                        #   in Loop: Header=BB10_41 Depth=1
	movl	-108(%rbp), %eax
	jmp	.LBB10_71
.LBB10_70:                              # %cond.false527
                                        #   in Loop: Header=BB10_41 Depth=1
	movl	-124(%rbp), %eax
.LBB10_71:                              # %cond.end528
                                        #   in Loop: Header=BB10_41 Depth=1
	movl	%eax, -116(%rbp)
.LBB10_72:                              # %if.end530
                                        #   in Loop: Header=BB10_41 Depth=1
	jmp	.LBB10_73
.LBB10_73:                              # %if.end531
                                        #   in Loop: Header=BB10_41 Depth=1
	cmpl	$0, -60(%rbp)
	je	.LBB10_78
# %bb.74:                               # %if.then534
                                        #   in Loop: Header=BB10_41 Depth=1
	movl	$1, -204(%rbp)
	cmpl	$1, -60(%rbp)
	jle	.LBB10_76
# %bb.75:                               # %if.then537
                                        #   in Loop: Header=BB10_41 Depth=1
	movq	-240(%rbp), %rax
	movl	(%rax), %ecx
	addl	$999999, %ecx           # imm = 0xF423F
	movl	%ecx, (%rax)
	jmp	.LBB10_77
.LBB10_76:                              # %if.else539
                                        #   in Loop: Header=BB10_41 Depth=1
	movabsq	$COEFF_COST, %rax
	movq	input, %rcx
	movslq	2468(%rcx), %rcx
	shlq	$4, %rcx
	addq	%rcx, %rax
	movslq	-68(%rbp), %rcx
	movzbl	(%rax,%rcx), %eax
	movq	-240(%rbp), %rcx
	addl	(%rcx), %eax
	movl	%eax, (%rcx)
.LBB10_77:                              # %if.end546
                                        #   in Loop: Header=BB10_41 Depth=1
	movl	-60(%rbp), %edi
	movl	-116(%rbp), %esi
	callq	sign
	movq	-232(%rbp), %rcx
	movslq	-104(%rbp), %rdx
	movl	%eax, (%rcx,%rdx,4)
	movl	-68(%rbp), %eax
	movq	-248(%rbp), %rcx
	movslq	-104(%rbp), %rdx
	movl	%eax, (%rcx,%rdx,4)
	movl	-104(%rbp), %eax
	addl	$1, %eax
	movl	%eax, -104(%rbp)
	movl	$-1, -68(%rbp)
	movl	-60(%rbp), %edi
	movl	-116(%rbp), %esi
	callq	sign
	movslq	-100(%rbp), %rcx
	shlq	$6, %rcx
	movabsq	$dequant_coef, %rdx
	addq	%rcx, %rdx
	movslq	-16(%rbp), %rcx
	shlq	$4, %rcx
	addq	%rcx, %rdx
	movslq	-12(%rbp), %rcx
	imull	(%rdx,%rcx,4), %eax
	movslq	-16(%rbp), %rcx
	shlq	$4, %rcx
	movabsq	$A, %rdx
	addq	%rcx, %rdx
	movslq	-12(%rbp), %rcx
	imull	(%rdx,%rcx,4), %eax
	movl	-132(%rbp), %ecx
                                        # kill: def $cl killed $ecx
	shll	%cl, %eax
	sarl	$6, %eax
	movl	%eax, -112(%rbp)
.LBB10_78:                              # %if.end568
                                        #   in Loop: Header=BB10_41 Depth=1
	movslq	-16(%rbp), %rax
	shlq	$4, %rax
	leaq	-320(%rbp), %rcx
	addq	%rax, %rcx
	movslq	-12(%rbp), %rax
	movl	(%rcx,%rax,4), %eax
	addl	-112(%rbp), %eax
	movl	%eax, -112(%rbp)
	movl	-112(%rbp), %edi
	callq	abs
	movslq	-120(%rbp), %rcx
	shlq	$6, %rcx
	movabsq	$quant_coef, %rdx
	addq	%rcx, %rdx
	movslq	-16(%rbp), %rcx
	shlq	$4, %rcx
	addq	%rcx, %rdx
	movslq	-12(%rbp), %rcx
	imull	(%rdx,%rcx,4), %eax
	addl	-196(%rbp), %eax
	movl	-128(%rbp), %ecx
                                        # kill: def $cl killed $ecx
	sarl	%cl, %eax
	movl	-112(%rbp), %esi
	movl	%eax, %edi
	callq	sign
	movslq	-120(%rbp), %rcx
	shlq	$6, %rcx
	movabsq	$dequant_coef, %rdx
	addq	%rcx, %rdx
	movslq	-16(%rbp), %rcx
	shlq	$4, %rcx
	addq	%rcx, %rdx
	movslq	-12(%rbp), %rcx
	imull	(%rdx,%rcx,4), %eax
	movl	-180(%rbp), %ecx
                                        # kill: def $cl killed $ecx
	shll	%cl, %eax
	movq	img, %rcx
	addq	$13112, %rcx            # imm = 0x3338
	movslq	-16(%rbp), %rdx
	shlq	$6, %rdx
	addq	%rdx, %rcx
	movslq	-12(%rbp), %rdx
	movl	%eax, (%rcx,%rdx,4)
# %bb.79:                               # %for.inc598
                                        #   in Loop: Header=BB10_41 Depth=1
	movl	-64(%rbp), %eax
	addl	$1, %eax
	movl	%eax, -64(%rbp)
	jmp	.LBB10_41
.LBB10_80:                              # %for.end600
	movq	-232(%rbp), %rax
	movslq	-104(%rbp), %rcx
	movl	$0, (%rax,%rcx,4)
	movl	$0, -12(%rbp)
.LBB10_81:                              # %for.cond603
                                        # =>This Loop Header: Depth=1
                                        #     Child Loop BB10_83 Depth 2
                                        #     Child Loop BB10_87 Depth 2
	cmpl	$4, -12(%rbp)
	jge	.LBB10_92
# %bb.82:                               # %for.body606
                                        #   in Loop: Header=BB10_81 Depth=1
	movl	$0, -16(%rbp)
.LBB10_83:                              # %for.cond607
                                        #   Parent Loop BB10_81 Depth=1
                                        # =>  This Inner Loop Header: Depth=2
	cmpl	$4, -16(%rbp)
	jge	.LBB10_86
# %bb.84:                               # %for.body610
                                        #   in Loop: Header=BB10_83 Depth=2
	movq	img, %rax
	addq	$13112, %rax            # imm = 0x3338
	movslq	-16(%rbp), %rcx
	shlq	$6, %rcx
	addq	%rcx, %rax
	movslq	-12(%rbp), %rcx
	movl	(%rax,%rcx,4), %eax
	movslq	-16(%rbp), %rcx
	movl	%eax, -48(%rbp,%rcx,4)
# %bb.85:                               # %for.inc618
                                        #   in Loop: Header=BB10_83 Depth=2
	movl	-16(%rbp), %eax
	addl	$1, %eax
	movl	%eax, -16(%rbp)
	jmp	.LBB10_83
.LBB10_86:                              # %for.end620
                                        #   in Loop: Header=BB10_81 Depth=1
	movl	-48(%rbp), %eax
	addl	-40(%rbp), %eax
	movl	%eax, -96(%rbp)
	movl	-48(%rbp), %eax
	subl	-40(%rbp), %eax
	movl	%eax, -92(%rbp)
	movl	-44(%rbp), %eax
	sarl	$1, %eax
	subl	-36(%rbp), %eax
	movl	%eax, -88(%rbp)
	movl	-44(%rbp), %eax
	movl	-36(%rbp), %ecx
	sarl	$1, %ecx
	addl	%ecx, %eax
	movl	%eax, -84(%rbp)
	movl	$0, -16(%rbp)
.LBB10_87:                              # %for.cond639
                                        #   Parent Loop BB10_81 Depth=1
                                        # =>  This Inner Loop Header: Depth=2
	cmpl	$2, -16(%rbp)
	jge	.LBB10_90
# %bb.88:                               # %for.body642
                                        #   in Loop: Header=BB10_87 Depth=2
	movl	$3, %eax
	subl	-16(%rbp), %eax
	movl	%eax, -52(%rbp)
	movslq	-16(%rbp), %rax
	movl	-96(%rbp,%rax,4), %eax
	movslq	-52(%rbp), %rcx
	addl	-96(%rbp,%rcx,4), %eax
	movq	img, %rcx
	addq	$13112, %rcx            # imm = 0x3338
	movslq	-16(%rbp), %rdx
	shlq	$6, %rdx
	addq	%rdx, %rcx
	movslq	-12(%rbp), %rdx
	movl	%eax, (%rcx,%rdx,4)
	movslq	-16(%rbp), %rax
	movl	-96(%rbp,%rax,4), %eax
	movslq	-52(%rbp), %rcx
	subl	-96(%rbp,%rcx,4), %eax
	movq	img, %rcx
	addq	$13112, %rcx            # imm = 0x3338
	movslq	-52(%rbp), %rdx
	shlq	$6, %rdx
	addq	%rdx, %rcx
	movslq	-12(%rbp), %rdx
	movl	%eax, (%rcx,%rdx,4)
# %bb.89:                               # %for.inc664
                                        #   in Loop: Header=BB10_87 Depth=2
	movl	-16(%rbp), %eax
	addl	$1, %eax
	movl	%eax, -16(%rbp)
	jmp	.LBB10_87
.LBB10_90:                              # %for.end666
                                        #   in Loop: Header=BB10_81 Depth=1
	jmp	.LBB10_91
.LBB10_91:                              # %for.inc667
                                        #   in Loop: Header=BB10_81 Depth=1
	movl	-12(%rbp), %eax
	addl	$1, %eax
	movl	%eax, -12(%rbp)
	jmp	.LBB10_81
.LBB10_92:                              # %for.end669
	movl	$0, -16(%rbp)
.LBB10_93:                              # %for.cond670
                                        # =>This Loop Header: Depth=1
                                        #     Child Loop BB10_95 Depth 2
                                        #     Child Loop BB10_99 Depth 2
	cmpl	$4, -16(%rbp)
	jge	.LBB10_122
# %bb.94:                               # %for.body673
                                        #   in Loop: Header=BB10_93 Depth=1
	movl	$0, -12(%rbp)
.LBB10_95:                              # %for.cond674
                                        #   Parent Loop BB10_93 Depth=1
                                        # =>  This Inner Loop Header: Depth=2
	cmpl	$4, -12(%rbp)
	jge	.LBB10_98
# %bb.96:                               # %for.body677
                                        #   in Loop: Header=BB10_95 Depth=2
	movq	img, %rax
	addq	$13112, %rax            # imm = 0x3338
	movslq	-16(%rbp), %rcx
	shlq	$6, %rcx
	addq	%rcx, %rax
	movslq	-12(%rbp), %rcx
	movl	(%rax,%rcx,4), %eax
	movslq	-12(%rbp), %rcx
	movl	%eax, -48(%rbp,%rcx,4)
# %bb.97:                               # %for.inc685
                                        #   in Loop: Header=BB10_95 Depth=2
	movl	-12(%rbp), %eax
	addl	$1, %eax
	movl	%eax, -12(%rbp)
	jmp	.LBB10_95
.LBB10_98:                              # %for.end687
                                        #   in Loop: Header=BB10_93 Depth=1
	movl	-48(%rbp), %eax
	addl	-40(%rbp), %eax
	movl	%eax, -96(%rbp)
	movl	-48(%rbp), %eax
	subl	-40(%rbp), %eax
	movl	%eax, -92(%rbp)
	movl	-44(%rbp), %eax
	sarl	$1, %eax
	subl	-36(%rbp), %eax
	movl	%eax, -88(%rbp)
	movl	-44(%rbp), %eax
	movl	-36(%rbp), %ecx
	sarl	$1, %ecx
	addl	%ecx, %eax
	movl	%eax, -84(%rbp)
	movl	$0, -12(%rbp)
.LBB10_99:                              # %for.cond706
                                        #   Parent Loop BB10_93 Depth=1
                                        # =>  This Inner Loop Header: Depth=2
	cmpl	$2, -12(%rbp)
	jge	.LBB10_120
# %bb.100:                              # %for.body709
                                        #   in Loop: Header=BB10_99 Depth=2
	xorl	%ecx, %ecx
	movl	$3, %eax
	subl	-12(%rbp), %eax
	movl	%eax, -24(%rbp)
	movq	img, %rax
	movl	72684(%rax), %eax
	movslq	-12(%rbp), %rdx
	movl	-96(%rbp,%rdx,4), %edx
	movslq	-24(%rbp), %rsi
	addl	-96(%rbp,%rsi,4), %edx
	addl	$32, %edx
	sarl	$6, %edx
	cmpl	%edx, %ecx
	jle	.LBB10_102
# %bb.101:                              # %cond.true720
                                        #   in Loop: Header=BB10_99 Depth=2
	xorl	%ecx, %ecx
	jmp	.LBB10_103
.LBB10_102:                             # %cond.false721
                                        #   in Loop: Header=BB10_99 Depth=2
	movslq	-12(%rbp), %rcx
	movl	-96(%rbp,%rcx,4), %ecx
	movslq	-24(%rbp), %rdx
	addl	-96(%rbp,%rdx,4), %ecx
	addl	$32, %ecx
	sarl	$6, %ecx
.LBB10_103:                             # %cond.end729
                                        #   in Loop: Header=BB10_99 Depth=2
	cmpl	%ecx, %eax
	jge	.LBB10_105
# %bb.104:                              # %cond.true733
                                        #   in Loop: Header=BB10_99 Depth=2
	movq	img, %rax
	movl	72684(%rax), %eax
	jmp	.LBB10_109
.LBB10_105:                             # %cond.false735
                                        #   in Loop: Header=BB10_99 Depth=2
	xorl	%eax, %eax
	movslq	-12(%rbp), %rcx
	movl	-96(%rbp,%rcx,4), %ecx
	movslq	-24(%rbp), %rdx
	addl	-96(%rbp,%rdx,4), %ecx
	addl	$32, %ecx
	sarl	$6, %ecx
	cmpl	%ecx, %eax
	jle	.LBB10_107
# %bb.106:                              # %cond.true745
                                        #   in Loop: Header=BB10_99 Depth=2
	xorl	%eax, %eax
	jmp	.LBB10_108
.LBB10_107:                             # %cond.false746
                                        #   in Loop: Header=BB10_99 Depth=2
	movslq	-12(%rbp), %rax
	movl	-96(%rbp,%rax,4), %eax
	movslq	-24(%rbp), %rcx
	addl	-96(%rbp,%rcx,4), %eax
	addl	$32, %eax
	sarl	$6, %eax
.LBB10_108:                             # %cond.end754
                                        #   in Loop: Header=BB10_99 Depth=2
.LBB10_109:                             # %cond.end756
                                        #   in Loop: Header=BB10_99 Depth=2
	xorl	%ecx, %ecx
	movq	img, %rdx
	addq	$13112, %rdx            # imm = 0x3338
	movslq	-16(%rbp), %rsi
	shlq	$6, %rsi
	addq	%rsi, %rdx
	movslq	-12(%rbp), %rsi
	movl	%eax, (%rdx,%rsi,4)
	movq	img, %rax
	movl	72684(%rax), %eax
	movslq	-12(%rbp), %rdx
	movl	-96(%rbp,%rdx,4), %edx
	movslq	-24(%rbp), %rsi
	subl	-96(%rbp,%rsi,4), %edx
	addl	$32, %edx
	sarl	$6, %edx
	cmpl	%edx, %ecx
	jle	.LBB10_111
# %bb.110:                              # %cond.true773
                                        #   in Loop: Header=BB10_99 Depth=2
	xorl	%ecx, %ecx
	jmp	.LBB10_112
.LBB10_111:                             # %cond.false774
                                        #   in Loop: Header=BB10_99 Depth=2
	movslq	-12(%rbp), %rcx
	movl	-96(%rbp,%rcx,4), %ecx
	movslq	-24(%rbp), %rdx
	subl	-96(%rbp,%rdx,4), %ecx
	addl	$32, %ecx
	sarl	$6, %ecx
.LBB10_112:                             # %cond.end782
                                        #   in Loop: Header=BB10_99 Depth=2
	cmpl	%ecx, %eax
	jge	.LBB10_114
# %bb.113:                              # %cond.true786
                                        #   in Loop: Header=BB10_99 Depth=2
	movq	img, %rax
	movl	72684(%rax), %eax
	jmp	.LBB10_118
.LBB10_114:                             # %cond.false788
                                        #   in Loop: Header=BB10_99 Depth=2
	xorl	%eax, %eax
	movslq	-12(%rbp), %rcx
	movl	-96(%rbp,%rcx,4), %ecx
	movslq	-24(%rbp), %rdx
	subl	-96(%rbp,%rdx,4), %ecx
	addl	$32, %ecx
	sarl	$6, %ecx
	cmpl	%ecx, %eax
	jle	.LBB10_116
# %bb.115:                              # %cond.true798
                                        #   in Loop: Header=BB10_99 Depth=2
	xorl	%eax, %eax
	jmp	.LBB10_117
.LBB10_116:                             # %cond.false799
                                        #   in Loop: Header=BB10_99 Depth=2
	movslq	-12(%rbp), %rax
	movl	-96(%rbp,%rax,4), %eax
	movslq	-24(%rbp), %rcx
	subl	-96(%rbp,%rcx,4), %eax
	addl	$32, %eax
	sarl	$6, %eax
.LBB10_117:                             # %cond.end807
                                        #   in Loop: Header=BB10_99 Depth=2
.LBB10_118:                             # %cond.end809
                                        #   in Loop: Header=BB10_99 Depth=2
	movq	img, %rcx
	addq	$13112, %rcx            # imm = 0x3338
	movslq	-16(%rbp), %rdx
	shlq	$6, %rdx
	addq	%rdx, %rcx
	movslq	-24(%rbp), %rdx
	movl	%eax, (%rcx,%rdx,4)
# %bb.119:                              # %for.inc816
                                        #   in Loop: Header=BB10_99 Depth=2
	movl	-12(%rbp), %eax
	addl	$1, %eax
	movl	%eax, -12(%rbp)
	jmp	.LBB10_99
.LBB10_120:                             # %for.end818
                                        #   in Loop: Header=BB10_93 Depth=1
	jmp	.LBB10_121
.LBB10_121:                             # %for.inc819
                                        #   in Loop: Header=BB10_93 Depth=1
	movl	-16(%rbp), %eax
	addl	$1, %eax
	movl	%eax, -16(%rbp)
	jmp	.LBB10_93
.LBB10_122:                             # %for.end821
	movl	$0, -12(%rbp)
.LBB10_123:                             # %for.cond822
                                        # =>This Loop Header: Depth=1
                                        #     Child Loop BB10_125 Depth 2
	cmpl	$4, -12(%rbp)
	jge	.LBB10_130
# %bb.124:                              # %for.body825
                                        #   in Loop: Header=BB10_123 Depth=1
	movl	$0, -16(%rbp)
.LBB10_125:                             # %for.cond826
                                        #   Parent Loop BB10_123 Depth=1
                                        # =>  This Inner Loop Header: Depth=2
	cmpl	$4, -16(%rbp)
	jge	.LBB10_128
# %bb.126:                              # %for.body829
                                        #   in Loop: Header=BB10_125 Depth=2
	movq	img, %rax
	addq	$13112, %rax            # imm = 0x3338
	movslq	-16(%rbp), %rcx
	shlq	$6, %rcx
	addq	%rcx, %rax
	movslq	-12(%rbp), %rcx
	movl	(%rax,%rcx,4), %eax
	movq	enc_picture, %rcx
	movq	6424(%rcx), %rcx
	movq	img, %rdx
	movl	156(%rdx), %edx
	addl	-140(%rbp), %edx
	addl	-12(%rbp), %edx
	movslq	%edx, %rdx
	movq	(%rcx,%rdx,8), %rcx
	movq	img, %rdx
	movl	152(%rdx), %edx
	addl	-136(%rbp), %edx
	addl	-16(%rbp), %edx
	movslq	%edx, %rdx
	movw	%ax, (%rcx,%rdx,2)
# %bb.127:                              # %for.inc844
                                        #   in Loop: Header=BB10_125 Depth=2
	movl	-16(%rbp), %eax
	addl	$1, %eax
	movl	%eax, -16(%rbp)
	jmp	.LBB10_125
.LBB10_128:                             # %for.end846
                                        #   in Loop: Header=BB10_123 Depth=1
	jmp	.LBB10_129
.LBB10_129:                             # %for.inc847
                                        #   in Loop: Header=BB10_123 Depth=1
	movl	-12(%rbp), %eax
	addl	$1, %eax
	movl	%eax, -12(%rbp)
	jmp	.LBB10_123
.LBB10_130:                             # %for.end849
	movl	-204(%rbp), %ebx
	cmpl	$873127459, -216(%rbp)  # imm = 0x340ADE23
	jne	.LBB10_132
.LBB10_131:
	movl	%ebx, %eax
	addq	$312, %rsp              # imm = 0x138
	popq	%rbx
	popq	%rbp
	.cfi_def_cfa %rsp, 8
	retq
.LBB10_132:                             # %func_exit
	.cfi_def_cfa %rbp, 16
	callq	detect_breach
	jmp	.LBB10_131
.Lfunc_end10:
	.size	dct_luma_sp.1, .Lfunc_end10-dct_luma_sp.1
	.cfi_endproc
                                        # -- End function
	.globl	intrapred_luma.2        # -- Begin function intrapred_luma.2
	.p2align	4, 0x90
	.type	intrapred_luma.2,@function
intrapred_luma.2:                       # @intrapred_luma.2
	.cfi_startproc
# %bb.0:                                # %entry
	pushq	%rbp
	.cfi_def_cfa_offset 16
	.cfi_offset %rbp, -16
	movq	%rsp, %rbp
	.cfi_def_cfa_register %rbp
	subq	$320, %rsp              # imm = 0x140
	movl	$103039775, -172(%rbp)  # imm = 0x624431F
	movl	%edi, -108(%rbp)
	movl	%esi, -112(%rbp)
	movq	%rdx, -216(%rbp)
	movq	%rcx, -224(%rbp)
	movq	%r8, -184(%rbp)
	movq	enc_picture, %rax
	movq	6424(%rax), %rax
	movq	%rax, -80(%rbp)
	movl	-108(%rbp), %eax
	andl	$15, %eax
	movl	%eax, -88(%rbp)
	movl	-112(%rbp), %eax
	andl	$15, %eax
	movl	%eax, -84(%rbp)
	movq	img, %rax
	movl	12(%rax), %eax
	movl	%eax, -100(%rbp)
	movl	$0, -4(%rbp)
.LBB11_1:                               # %for.cond
                                        # =>This Inner Loop Header: Depth=1
	cmpl	$4, -4(%rbp)
	jge	.LBB11_4
# %bb.2:                                # %for.body
                                        #   in Loop: Header=BB11_1 Depth=1
	movl	-100(%rbp), %edi
	movl	-88(%rbp), %esi
	subl	$1, %esi
	movl	-84(%rbp), %edx
	addl	-4(%rbp), %edx
	movslq	-4(%rbp), %rax
	imulq	$24, %rax, %rax
	leaq	-320(%rbp), %r8
	addq	%rax, %r8
	movl	$1, %ecx
	callq	getNeighbour
# %bb.3:                                # %for.inc
                                        #   in Loop: Header=BB11_1 Depth=1
	movl	-4(%rbp), %eax
	addl	$1, %eax
	movl	%eax, -4(%rbp)
	jmp	.LBB11_1
.LBB11_4:                               # %for.end
	movl	-100(%rbp), %edi
	movl	-88(%rbp), %esi
	movl	-84(%rbp), %edx
	subl	$1, %edx
	movl	$1, %ecx
	leaq	-168(%rbp), %r8
	callq	getNeighbour
	movl	-100(%rbp), %edi
	movl	-88(%rbp), %esi
	addl	$4, %esi
	movl	-84(%rbp), %edx
	subl	$1, %edx
	movl	$1, %ecx
	leaq	-144(%rbp), %r8
	callq	getNeighbour
	movl	-100(%rbp), %edi
	movl	-88(%rbp), %esi
	subl	$1, %esi
	movl	-84(%rbp), %edx
	subl	$1, %edx
	movl	$1, %ecx
	leaq	-208(%rbp), %r8
	callq	getNeighbour
	xorl	%eax, %eax
	cmpl	$0, -144(%rbp)
	je	.LBB11_11
# %bb.5:                                # %land.rhs
	cmpl	$4, -88(%rbp)
	je	.LBB11_7
# %bb.6:                                # %lor.lhs.false
	xorl	%eax, %eax
	cmpl	$12, -88(%rbp)
	jne	.LBB11_10
.LBB11_7:                               # %land.rhs10
	cmpl	$4, -84(%rbp)
	movb	$1, %al
	je	.LBB11_9
# %bb.8:                                # %lor.rhs
	cmpl	$12, -84(%rbp)
	sete	%al
.LBB11_9:                               # %lor.end
.LBB11_10:                              # %land.end
	xorb	$-1, %al
.LBB11_11:                              # %land.end13
	andb	$1, %al
	movzbl	%al, %eax
	movl	%eax, -144(%rbp)
	movq	input, %rax
	cmpl	$0, 216(%rax)
	je	.LBB11_29
# %bb.12:                               # %if.then
	movl	$0, -4(%rbp)
	movl	$1, -68(%rbp)
.LBB11_13:                              # %for.cond16
                                        # =>This Inner Loop Header: Depth=1
	cmpl	$4, -4(%rbp)
	jge	.LBB11_19
# %bb.14:                               # %for.body18
                                        #   in Loop: Header=BB11_13 Depth=1
	movslq	-4(%rbp), %rax
	imulq	$24, %rax, %rax
	leaq	-320(%rbp), %rcx
	addq	%rax, %rcx
	cmpl	$0, (%rcx)
	je	.LBB11_16
# %bb.15:                               # %cond.true
                                        #   in Loop: Header=BB11_13 Depth=1
	movq	img, %rax
	movq	71784(%rax), %rax
	movslq	-4(%rbp), %rcx
	imulq	$24, %rcx, %rcx
	leaq	-320(%rbp), %rdx
	addq	%rcx, %rdx
	movslq	4(%rdx), %rcx
	movl	(%rax,%rcx,4), %eax
	jmp	.LBB11_17
.LBB11_16:                              # %cond.false
                                        #   in Loop: Header=BB11_13 Depth=1
	xorl	%eax, %eax
	jmp	.LBB11_17
.LBB11_17:                              # %cond.end
                                        #   in Loop: Header=BB11_13 Depth=1
	andl	-68(%rbp), %eax
	movl	%eax, -68(%rbp)
# %bb.18:                               # %for.inc28
                                        #   in Loop: Header=BB11_13 Depth=1
	movl	-4(%rbp), %eax
	addl	$1, %eax
	movl	%eax, -4(%rbp)
	jmp	.LBB11_13
.LBB11_19:                              # %for.end30
	cmpl	$0, -168(%rbp)
	je	.LBB11_21
# %bb.20:                               # %cond.true33
	movq	img, %rax
	movq	71784(%rax), %rax
	movslq	-164(%rbp), %rcx
	movl	(%rax,%rcx,4), %eax
	jmp	.LBB11_22
.LBB11_21:                              # %cond.false38
	xorl	%eax, %eax
	jmp	.LBB11_22
.LBB11_22:                              # %cond.end39
	movl	%eax, -72(%rbp)
	cmpl	$0, -144(%rbp)
	je	.LBB11_24
# %bb.23:                               # %cond.true43
	movq	img, %rax
	movq	71784(%rax), %rax
	movslq	-140(%rbp), %rcx
	movl	(%rax,%rcx,4), %eax
	jmp	.LBB11_25
.LBB11_24:                              # %cond.false48
	xorl	%eax, %eax
	jmp	.LBB11_25
.LBB11_25:                              # %cond.end49
	movl	%eax, -116(%rbp)
	cmpl	$0, -208(%rbp)
	je	.LBB11_27
# %bb.26:                               # %cond.true53
	movq	img, %rax
	movq	71784(%rax), %rax
	movslq	-204(%rbp), %rcx
	movl	(%rax,%rcx,4), %eax
	jmp	.LBB11_28
.LBB11_27:                              # %cond.false58
	xorl	%eax, %eax
	jmp	.LBB11_28
.LBB11_28:                              # %cond.end59
	movl	%eax, -104(%rbp)
	jmp	.LBB11_30
.LBB11_29:                              # %if.else
	movl	-320(%rbp), %eax
	movl	%eax, -68(%rbp)
	movl	-168(%rbp), %eax
	movl	%eax, -72(%rbp)
	movl	-144(%rbp), %eax
	movl	%eax, -116(%rbp)
	movl	-208(%rbp), %eax
	movl	%eax, -104(%rbp)
.LBB11_30:                              # %if.end
	xorl	%eax, %eax
	movl	-68(%rbp), %ecx
	movq	-216(%rbp), %rdx
	movl	%ecx, (%rdx)
	movl	-72(%rbp), %ecx
	movq	-224(%rbp), %rdx
	movl	%ecx, (%rdx)
	cmpl	$0, -72(%rbp)
	je	.LBB11_33
# %bb.31:                               # %land.lhs.true
	xorl	%eax, %eax
	cmpl	$0, -68(%rbp)
	je	.LBB11_33
# %bb.32:                               # %land.rhs68
	cmpl	$0, -104(%rbp)
	setne	%al
.LBB11_33:                              # %land.end70
	andb	$1, %al
	movzbl	%al, %eax
	movq	-184(%rbp), %rcx
	movl	%eax, (%rcx)
	movl	-108(%rbp), %eax
	andl	$15, %eax
	movl	%eax, -4(%rbp)
	movl	-112(%rbp), %eax
	andl	$15, %eax
	movl	%eax, -96(%rbp)
	cmpl	$0, -72(%rbp)
	je	.LBB11_35
# %bb.34:                               # %if.then75
	movq	-80(%rbp), %rax
	movslq	-148(%rbp), %rcx
	movq	(%rax,%rcx,8), %rax
	movl	-152(%rbp), %ecx
	addl	$0, %ecx
	movslq	%ecx, %rcx
	movzwl	(%rax,%rcx,2), %eax
	movl	%eax, -60(%rbp)
	movq	-80(%rbp), %rax
	movslq	-148(%rbp), %rcx
	movq	(%rax,%rcx,8), %rax
	movl	-152(%rbp), %ecx
	addl	$1, %ecx
	movslq	%ecx, %rcx
	movzwl	(%rax,%rcx,2), %eax
	movl	%eax, -56(%rbp)
	movq	-80(%rbp), %rax
	movslq	-148(%rbp), %rcx
	movq	(%rax,%rcx,8), %rax
	movl	-152(%rbp), %ecx
	addl	$2, %ecx
	movslq	%ecx, %rcx
	movzwl	(%rax,%rcx,2), %eax
	movl	%eax, -52(%rbp)
	movq	-80(%rbp), %rax
	movslq	-148(%rbp), %rcx
	movq	(%rax,%rcx,8), %rax
	movl	-152(%rbp), %ecx
	addl	$3, %ecx
	movslq	%ecx, %rcx
	movzwl	(%rax,%rcx,2), %eax
	movl	%eax, -48(%rbp)
	jmp	.LBB11_36
.LBB11_35:                              # %if.else109
	movq	img, %rax
	movl	72680(%rax), %eax
	movl	%eax, -48(%rbp)
	movl	%eax, -52(%rbp)
	movl	%eax, -56(%rbp)
	movl	%eax, -60(%rbp)
.LBB11_36:                              # %if.end114
	cmpl	$0, -116(%rbp)
	je	.LBB11_38
# %bb.37:                               # %if.then116
	movq	-80(%rbp), %rax
	movslq	-124(%rbp), %rcx
	movq	(%rax,%rcx,8), %rax
	movl	-128(%rbp), %ecx
	addl	$0, %ecx
	movslq	%ecx, %rcx
	movzwl	(%rax,%rcx,2), %eax
	movl	%eax, -44(%rbp)
	movq	-80(%rbp), %rax
	movslq	-124(%rbp), %rcx
	movq	(%rax,%rcx,8), %rax
	movl	-128(%rbp), %ecx
	addl	$1, %ecx
	movslq	%ecx, %rcx
	movzwl	(%rax,%rcx,2), %eax
	movl	%eax, -40(%rbp)
	movq	-80(%rbp), %rax
	movslq	-124(%rbp), %rcx
	movq	(%rax,%rcx,8), %rax
	movl	-128(%rbp), %ecx
	addl	$2, %ecx
	movslq	%ecx, %rcx
	movzwl	(%rax,%rcx,2), %eax
	movl	%eax, -36(%rbp)
	movq	-80(%rbp), %rax
	movslq	-124(%rbp), %rcx
	movq	(%rax,%rcx,8), %rax
	movl	-128(%rbp), %ecx
	addl	$3, %ecx
	movslq	%ecx, %rcx
	movzwl	(%rax,%rcx,2), %eax
	movl	%eax, -32(%rbp)
	jmp	.LBB11_39
.LBB11_38:                              # %if.else153
	movl	-48(%rbp), %eax
	movl	%eax, -32(%rbp)
	movl	%eax, -36(%rbp)
	movl	%eax, -40(%rbp)
	movl	%eax, -44(%rbp)
.LBB11_39:                              # %if.end159
	cmpl	$0, -68(%rbp)
	je	.LBB11_41
# %bb.40:                               # %if.then161
	movq	-80(%rbp), %rax
	movslq	-300(%rbp), %rcx
	movq	(%rax,%rcx,8), %rax
	movslq	-304(%rbp), %rcx
	movzwl	(%rax,%rcx,2), %eax
	movl	%eax, -28(%rbp)
	movq	-80(%rbp), %rax
	movslq	-276(%rbp), %rcx
	movq	(%rax,%rcx,8), %rax
	movslq	-280(%rbp), %rcx
	movzwl	(%rax,%rcx,2), %eax
	movl	%eax, -24(%rbp)
	movq	-80(%rbp), %rax
	movslq	-252(%rbp), %rcx
	movq	(%rax,%rcx,8), %rax
	movslq	-256(%rbp), %rcx
	movzwl	(%rax,%rcx,2), %eax
	movl	%eax, -20(%rbp)
	movq	-80(%rbp), %rax
	movslq	-228(%rbp), %rcx
	movq	(%rax,%rcx,8), %rax
	movslq	-232(%rbp), %rcx
	movzwl	(%rax,%rcx,2), %eax
	movl	%eax, -16(%rbp)
	jmp	.LBB11_42
.LBB11_41:                              # %if.else202
	movq	img, %rax
	movl	72680(%rax), %eax
	movl	%eax, -16(%rbp)
	movl	%eax, -20(%rbp)
	movl	%eax, -24(%rbp)
	movl	%eax, -28(%rbp)
.LBB11_42:                              # %if.end208
	cmpl	$0, -104(%rbp)
	je	.LBB11_44
# %bb.43:                               # %if.then210
	movq	-80(%rbp), %rax
	movslq	-188(%rbp), %rcx
	movq	(%rax,%rcx,8), %rax
	movslq	-192(%rbp), %rcx
	movzwl	(%rax,%rcx,2), %eax
	movl	%eax, -64(%rbp)
	jmp	.LBB11_45
.LBB11_44:                              # %if.else219
	movq	img, %rax
	movl	72680(%rax), %eax
	movl	%eax, -64(%rbp)
.LBB11_45:                              # %if.end222
	movl	$0, -4(%rbp)
.LBB11_46:                              # %for.cond223
                                        # =>This Inner Loop Header: Depth=1
	cmpl	$9, -4(%rbp)
	jge	.LBB11_49
# %bb.47:                               # %for.body226
                                        #   in Loop: Header=BB11_46 Depth=1
	movq	img, %rax
	addq	$184, %rax
	movslq	-4(%rbp), %rcx
	shlq	$9, %rcx
	addq	%rcx, %rax
	movw	$-1, (%rax)
# %bb.48:                               # %for.inc231
                                        #   in Loop: Header=BB11_46 Depth=1
	movl	-4(%rbp), %eax
	addl	$1, %eax
	movl	%eax, -4(%rbp)
	jmp	.LBB11_46
.LBB11_49:                              # %for.end233
	movl	$0, -92(%rbp)
	cmpl	$0, -72(%rbp)
	je	.LBB11_52
# %bb.50:                               # %land.lhs.true235
	cmpl	$0, -68(%rbp)
	je	.LBB11_52
# %bb.51:                               # %if.then237
	movl	-60(%rbp), %eax
	addl	-56(%rbp), %eax
	addl	-52(%rbp), %eax
	addl	-48(%rbp), %eax
	addl	-28(%rbp), %eax
	addl	-24(%rbp), %eax
	addl	-20(%rbp), %eax
	addl	-16(%rbp), %eax
	addl	$4, %eax
	cltd
	movl	$8, %ecx
	idivl	%ecx
	movl	%eax, -92(%rbp)
	jmp	.LBB11_61
.LBB11_52:                              # %if.else254
	cmpl	$0, -72(%rbp)
	jne	.LBB11_55
# %bb.53:                               # %land.lhs.true256
	cmpl	$0, -68(%rbp)
	je	.LBB11_55
# %bb.54:                               # %if.then258
	movl	-28(%rbp), %eax
	addl	-24(%rbp), %eax
	addl	-20(%rbp), %eax
	addl	-16(%rbp), %eax
	addl	$2, %eax
	cltd
	movl	$4, %ecx
	idivl	%ecx
	movl	%eax, -92(%rbp)
	jmp	.LBB11_60
.LBB11_55:                              # %if.else268
	cmpl	$0, -72(%rbp)
	je	.LBB11_58
# %bb.56:                               # %land.lhs.true270
	cmpl	$0, -68(%rbp)
	jne	.LBB11_58
# %bb.57:                               # %if.then272
	movl	-60(%rbp), %eax
	addl	-56(%rbp), %eax
	addl	-52(%rbp), %eax
	addl	-48(%rbp), %eax
	addl	$2, %eax
	cltd
	movl	$4, %ecx
	idivl	%ecx
	movl	%eax, -92(%rbp)
	jmp	.LBB11_59
.LBB11_58:                              # %if.else282
	movq	img, %rax
	movl	72680(%rax), %eax
	movl	%eax, -92(%rbp)
.LBB11_59:                              # %if.end284
	jmp	.LBB11_60
.LBB11_60:                              # %if.end285
	jmp	.LBB11_61
.LBB11_61:                              # %if.end286
	movl	$0, -96(%rbp)
.LBB11_62:                              # %for.cond287
                                        # =>This Loop Header: Depth=1
                                        #     Child Loop BB11_64 Depth 2
	cmpl	$4, -96(%rbp)
	jge	.LBB11_69
# %bb.63:                               # %for.body290
                                        #   in Loop: Header=BB11_62 Depth=1
	movl	$0, -4(%rbp)
.LBB11_64:                              # %for.cond291
                                        #   Parent Loop BB11_62 Depth=1
                                        # =>  This Inner Loop Header: Depth=2
	cmpl	$4, -4(%rbp)
	jge	.LBB11_67
# %bb.65:                               # %for.body294
                                        #   in Loop: Header=BB11_64 Depth=2
	movl	-92(%rbp), %eax
	movq	img, %rcx
	addq	$184, %rcx
	addq	$1024, %rcx             # imm = 0x400
	movslq	-4(%rbp), %rdx
	shlq	$5, %rdx
	addq	%rdx, %rcx
	movslq	-96(%rbp), %rdx
	movw	%ax, (%rcx,%rdx,2)
# %bb.66:                               # %for.inc302
                                        #   in Loop: Header=BB11_64 Depth=2
	movl	-4(%rbp), %eax
	addl	$1, %eax
	movl	%eax, -4(%rbp)
	jmp	.LBB11_64
.LBB11_67:                              # %for.end304
                                        #   in Loop: Header=BB11_62 Depth=1
	jmp	.LBB11_68
.LBB11_68:                              # %for.inc305
                                        #   in Loop: Header=BB11_62 Depth=1
	movl	-96(%rbp), %eax
	addl	$1, %eax
	movl	%eax, -96(%rbp)
	jmp	.LBB11_62
.LBB11_69:                              # %for.end307
	movl	$0, -4(%rbp)
.LBB11_70:                              # %for.cond308
                                        # =>This Inner Loop Header: Depth=1
	cmpl	$4, -4(%rbp)
	jge	.LBB11_73
# %bb.71:                               # %for.body311
                                        #   in Loop: Header=BB11_70 Depth=1
	movslq	-4(%rbp), %rax
	movl	-60(%rbp,%rax,4), %eax
	movq	img, %rcx
	movslq	-4(%rbp), %rdx
	movw	%ax, 280(%rcx,%rdx,2)
	movq	img, %rcx
	movslq	-4(%rbp), %rdx
	movw	%ax, 248(%rcx,%rdx,2)
	movq	img, %rcx
	movslq	-4(%rbp), %rdx
	movw	%ax, 216(%rcx,%rdx,2)
	movq	img, %rcx
	movslq	-4(%rbp), %rdx
	movw	%ax, 184(%rcx,%rdx,2)
	movslq	-4(%rbp), %rax
	movl	-28(%rbp,%rax,4), %eax
	movq	img, %rcx
	addq	$184, %rcx
	addq	$512, %rcx              # imm = 0x200
	movslq	-4(%rbp), %rdx
	shlq	$5, %rdx
	addq	%rdx, %rcx
	movw	%ax, 6(%rcx)
	movq	img, %rcx
	addq	$184, %rcx
	addq	$512, %rcx              # imm = 0x200
	movslq	-4(%rbp), %rdx
	shlq	$5, %rdx
	addq	%rdx, %rcx
	movw	%ax, 4(%rcx)
	movq	img, %rcx
	addq	$184, %rcx
	addq	$512, %rcx              # imm = 0x200
	movslq	-4(%rbp), %rdx
	shlq	$5, %rdx
	addq	%rdx, %rcx
	movw	%ax, 2(%rcx)
	movq	img, %rcx
	addq	$184, %rcx
	addq	$512, %rcx              # imm = 0x200
	movslq	-4(%rbp), %rdx
	shlq	$5, %rdx
	addq	%rdx, %rcx
	movw	%ax, (%rcx)
# %bb.72:                               # %for.inc360
                                        #   in Loop: Header=BB11_70 Depth=1
	movl	-4(%rbp), %eax
	addl	$1, %eax
	movl	%eax, -4(%rbp)
	jmp	.LBB11_70
.LBB11_73:                              # %for.end362
	cmpl	$0, -72(%rbp)
	jne	.LBB11_75
# %bb.74:                               # %if.then364
	movq	img, %rax
	movw	$-1, 184(%rax)
.LBB11_75:                              # %if.end369
	cmpl	$0, -68(%rbp)
	jne	.LBB11_77
# %bb.76:                               # %if.then371
	movq	img, %rax
	movw	$-1, 696(%rax)
.LBB11_77:                              # %if.end376
	cmpl	$0, -72(%rbp)
	je	.LBB11_79
# %bb.78:                               # %if.then378
	movl	-60(%rbp), %eax
	addl	-52(%rbp), %eax
	movl	-56(%rbp), %ecx
	shll	$1, %ecx
	addl	%ecx, %eax
	addl	$2, %eax
	cltd
	movl	$4, %ecx
	idivl	%ecx
	movq	img, %rdx
	movw	%ax, 1720(%rdx)
	movl	-56(%rbp), %eax
	addl	-48(%rbp), %eax
	movl	-52(%rbp), %edx
	shll	$1, %edx
	addl	%edx, %eax
	addl	$2, %eax
	cltd
	idivl	%ecx
	movq	img, %rdx
	movw	%ax, 1752(%rdx)
	movq	img, %rdx
	movw	%ax, 1722(%rdx)
	movl	-52(%rbp), %eax
	addl	-44(%rbp), %eax
	movl	-48(%rbp), %edx
	shll	$1, %edx
	addl	%edx, %eax
	addl	$2, %eax
	cltd
	idivl	%ecx
	movq	img, %rdx
	movw	%ax, 1784(%rdx)
	movq	img, %rdx
	movw	%ax, 1754(%rdx)
	movq	img, %rdx
	movw	%ax, 1724(%rdx)
	movl	-48(%rbp), %eax
	addl	-40(%rbp), %eax
	movl	-44(%rbp), %edx
	shll	$1, %edx
	addl	%edx, %eax
	addl	$2, %eax
	cltd
	idivl	%ecx
	movq	img, %rdx
	movw	%ax, 1816(%rdx)
	movq	img, %rdx
	movw	%ax, 1786(%rdx)
	movq	img, %rdx
	movw	%ax, 1756(%rdx)
	movq	img, %rdx
	movw	%ax, 1726(%rdx)
	movl	-44(%rbp), %eax
	addl	-36(%rbp), %eax
	movl	-40(%rbp), %edx
	shll	$1, %edx
	addl	%edx, %eax
	addl	$2, %eax
	cltd
	idivl	%ecx
	movq	img, %rdx
	movw	%ax, 1818(%rdx)
	movq	img, %rdx
	movw	%ax, 1788(%rdx)
	movq	img, %rdx
	movw	%ax, 1758(%rdx)
	movl	-40(%rbp), %eax
	addl	-32(%rbp), %eax
	movl	-36(%rbp), %edx
	shll	$1, %edx
	addl	%edx, %eax
	addl	$2, %eax
	cltd
	idivl	%ecx
	movq	img, %rdx
	movw	%ax, 1820(%rdx)
	movq	img, %rdx
	movw	%ax, 1790(%rdx)
	movl	-36(%rbp), %eax
	imull	$3, -32(%rbp), %edx
	addl	%edx, %eax
	addl	$2, %eax
	cltd
	idivl	%ecx
	movq	img, %rdx
	movw	%ax, 1822(%rdx)
	movl	-60(%rbp), %eax
	addl	-56(%rbp), %eax
	addl	$1, %eax
	cltd
	movl	$2, %esi
	idivl	%esi
	movq	img, %rdx
	movw	%ax, 3768(%rdx)
	movl	-56(%rbp), %eax
	addl	-52(%rbp), %eax
	addl	$1, %eax
	cltd
	idivl	%esi
	movq	img, %rdx
	movw	%ax, 3832(%rdx)
	movq	img, %rdx
	movw	%ax, 3770(%rdx)
	movl	-52(%rbp), %eax
	addl	-48(%rbp), %eax
	addl	$1, %eax
	cltd
	idivl	%esi
	movq	img, %rdx
	movw	%ax, 3834(%rdx)
	movq	img, %rdx
	movw	%ax, 3772(%rdx)
	movl	-48(%rbp), %eax
	addl	-44(%rbp), %eax
	addl	$1, %eax
	cltd
	idivl	%esi
	movq	img, %rdx
	movw	%ax, 3836(%rdx)
	movq	img, %rdx
	movw	%ax, 3774(%rdx)
	movl	-44(%rbp), %eax
	addl	-40(%rbp), %eax
	addl	$1, %eax
	cltd
	idivl	%esi
	movq	img, %rdx
	movw	%ax, 3838(%rdx)
	movl	-60(%rbp), %eax
	movl	-56(%rbp), %edx
	shll	$1, %edx
	addl	%edx, %eax
	addl	-52(%rbp), %eax
	addl	$2, %eax
	cltd
	idivl	%ecx
	movq	img, %rdx
	movw	%ax, 3800(%rdx)
	movl	-56(%rbp), %eax
	movl	-52(%rbp), %edx
	shll	$1, %edx
	addl	%edx, %eax
	addl	-48(%rbp), %eax
	addl	$2, %eax
	cltd
	idivl	%ecx
	movq	img, %rdx
	movw	%ax, 3864(%rdx)
	movq	img, %rdx
	movw	%ax, 3802(%rdx)
	movl	-52(%rbp), %eax
	movl	-48(%rbp), %edx
	shll	$1, %edx
	addl	%edx, %eax
	addl	-44(%rbp), %eax
	addl	$2, %eax
	cltd
	idivl	%ecx
	movq	img, %rdx
	movw	%ax, 3866(%rdx)
	movq	img, %rdx
	movw	%ax, 3804(%rdx)
	movl	-48(%rbp), %eax
	movl	-44(%rbp), %edx
	shll	$1, %edx
	addl	%edx, %eax
	addl	-40(%rbp), %eax
	addl	$2, %eax
	cltd
	idivl	%ecx
	movq	img, %rdx
	movw	%ax, 3868(%rdx)
	movq	img, %rdx
	movw	%ax, 3806(%rdx)
	movl	-44(%rbp), %eax
	movl	-40(%rbp), %edx
	shll	$1, %edx
	addl	%edx, %eax
	addl	-36(%rbp), %eax
	addl	$2, %eax
	cltd
	idivl	%ecx
	movq	img, %rcx
	movw	%ax, 3870(%rcx)
.LBB11_79:                              # %if.end642
	cmpl	$0, -68(%rbp)
	je	.LBB11_81
# %bb.80:                               # %if.then644
	movl	-28(%rbp), %eax
	addl	-24(%rbp), %eax
	addl	$1, %eax
	cltd
	movl	$2, %esi
	idivl	%esi
	movq	img, %rcx
	movw	%ax, 4280(%rcx)
	movl	-28(%rbp), %eax
	movl	-24(%rbp), %ecx
	shll	$1, %ecx
	addl	%ecx, %eax
	addl	-20(%rbp), %eax
	addl	$2, %eax
	cltd
	movl	$4, %ecx
	idivl	%ecx
	movq	img, %rdx
	movw	%ax, 4282(%rdx)
	movl	-24(%rbp), %eax
	addl	-20(%rbp), %eax
	addl	$1, %eax
	cltd
	idivl	%esi
	movq	img, %rdx
	movw	%ax, 4312(%rdx)
	movq	img, %rdx
	movw	%ax, 4284(%rdx)
	movl	-24(%rbp), %eax
	movl	-20(%rbp), %edx
	shll	$1, %edx
	addl	%edx, %eax
	addl	-16(%rbp), %eax
	addl	$2, %eax
	cltd
	idivl	%ecx
	movq	img, %rdx
	movw	%ax, 4314(%rdx)
	movq	img, %rdx
	movw	%ax, 4286(%rdx)
	movl	-20(%rbp), %eax
	addl	-16(%rbp), %eax
	addl	$1, %eax
	cltd
	idivl	%esi
	movq	img, %rdx
	movw	%ax, 4344(%rdx)
	movq	img, %rdx
	movw	%ax, 4316(%rdx)
	movl	-20(%rbp), %eax
	movl	-16(%rbp), %edx
	shll	$1, %edx
	addl	%edx, %eax
	addl	-16(%rbp), %eax
	addl	$2, %eax
	cltd
	idivl	%ecx
	movq	img, %rcx
	movw	%ax, 4346(%rcx)
	movq	img, %rcx
	movw	%ax, 4318(%rcx)
	movl	-16(%rbp), %eax
	movq	img, %rcx
	movw	%ax, 4382(%rcx)
	movq	img, %rcx
	movw	%ax, 4380(%rcx)
	movq	img, %rcx
	movw	%ax, 4378(%rcx)
	movq	img, %rcx
	movw	%ax, 4350(%rcx)
	movq	img, %rcx
	movw	%ax, 4348(%rcx)
	movq	img, %rcx
	movw	%ax, 4376(%rcx)
.LBB11_81:                              # %if.end756
	cmpl	$0, -72(%rbp)
	je	.LBB11_85
# %bb.82:                               # %land.lhs.true758
	cmpl	$0, -68(%rbp)
	je	.LBB11_85
# %bb.83:                               # %land.lhs.true760
	cmpl	$0, -104(%rbp)
	je	.LBB11_85
# %bb.84:                               # %if.then762
	movl	-16(%rbp), %eax
	movl	-20(%rbp), %ecx
	shll	$1, %ecx
	addl	%ecx, %eax
	addl	-24(%rbp), %eax
	addl	$2, %eax
	cltd
	movl	$4, %ecx
	idivl	%ecx
	movq	img, %rdx
	movw	%ax, 2328(%rdx)
	movl	-20(%rbp), %eax
	movl	-24(%rbp), %edx
	shll	$1, %edx
	addl	%edx, %eax
	addl	-28(%rbp), %eax
	addl	$2, %eax
	cltd
	idivl	%ecx
	movq	img, %rdx
	movw	%ax, 2330(%rdx)
	movq	img, %rdx
	movw	%ax, 2296(%rdx)
	movl	-24(%rbp), %eax
	movl	-28(%rbp), %edx
	shll	$1, %edx
	addl	%edx, %eax
	addl	-64(%rbp), %eax
	addl	$2, %eax
	cltd
	idivl	%ecx
	movq	img, %rdx
	movw	%ax, 2332(%rdx)
	movq	img, %rdx
	movw	%ax, 2298(%rdx)
	movq	img, %rdx
	movw	%ax, 2264(%rdx)
	movl	-28(%rbp), %eax
	movl	-64(%rbp), %edx
	shll	$1, %edx
	addl	%edx, %eax
	addl	-60(%rbp), %eax
	addl	$2, %eax
	cltd
	idivl	%ecx
	movq	img, %rdx
	movw	%ax, 2334(%rdx)
	movq	img, %rdx
	movw	%ax, 2300(%rdx)
	movq	img, %rdx
	movw	%ax, 2266(%rdx)
	movq	img, %rdx
	movw	%ax, 2232(%rdx)
	movl	-64(%rbp), %eax
	movl	-60(%rbp), %edx
	shll	$1, %edx
	addl	%edx, %eax
	addl	-56(%rbp), %eax
	addl	$2, %eax
	cltd
	idivl	%ecx
	movq	img, %rdx
	movw	%ax, 2302(%rdx)
	movq	img, %rdx
	movw	%ax, 2268(%rdx)
	movq	img, %rdx
	movw	%ax, 2234(%rdx)
	movl	-60(%rbp), %eax
	movl	-56(%rbp), %edx
	shll	$1, %edx
	addl	%edx, %eax
	addl	-52(%rbp), %eax
	addl	$2, %eax
	cltd
	idivl	%ecx
	movq	img, %rdx
	movw	%ax, 2270(%rdx)
	movq	img, %rdx
	movw	%ax, 2236(%rdx)
	movl	-56(%rbp), %eax
	movl	-52(%rbp), %edx
	shll	$1, %edx
	addl	%edx, %eax
	addl	-48(%rbp), %eax
	addl	$2, %eax
	cltd
	idivl	%ecx
	movq	img, %rdx
	movw	%ax, 2238(%rdx)
	movl	-64(%rbp), %eax
	addl	-60(%rbp), %eax
	addl	$1, %eax
	cltd
	movl	$2, %esi
	idivl	%esi
	movq	img, %rdx
	movw	%ax, 2810(%rdx)
	movq	img, %rdx
	movw	%ax, 2744(%rdx)
	movl	-60(%rbp), %eax
	addl	-56(%rbp), %eax
	addl	$1, %eax
	cltd
	idivl	%esi
	movq	img, %rdx
	movw	%ax, 2812(%rdx)
	movq	img, %rdx
	movw	%ax, 2746(%rdx)
	movl	-56(%rbp), %eax
	addl	-52(%rbp), %eax
	addl	$1, %eax
	cltd
	idivl	%esi
	movq	img, %rdx
	movw	%ax, 2814(%rdx)
	movq	img, %rdx
	movw	%ax, 2748(%rdx)
	movl	-52(%rbp), %eax
	addl	-48(%rbp), %eax
	addl	$1, %eax
	cltd
	idivl	%esi
	movq	img, %rdx
	movw	%ax, 2750(%rdx)
	movl	-28(%rbp), %eax
	movl	-64(%rbp), %edx
	shll	$1, %edx
	addl	%edx, %eax
	addl	-60(%rbp), %eax
	addl	$2, %eax
	cltd
	idivl	%ecx
	movq	img, %rdx
	movw	%ax, 2842(%rdx)
	movq	img, %rdx
	movw	%ax, 2776(%rdx)
	movl	-64(%rbp), %eax
	movl	-60(%rbp), %edx
	shll	$1, %edx
	addl	%edx, %eax
	addl	-56(%rbp), %eax
	addl	$2, %eax
	cltd
	idivl	%ecx
	movq	img, %rdx
	movw	%ax, 2844(%rdx)
	movq	img, %rdx
	movw	%ax, 2778(%rdx)
	movl	-60(%rbp), %eax
	movl	-56(%rbp), %edx
	shll	$1, %edx
	addl	%edx, %eax
	addl	-52(%rbp), %eax
	addl	$2, %eax
	cltd
	idivl	%ecx
	movq	img, %rdx
	movw	%ax, 2846(%rdx)
	movq	img, %rdx
	movw	%ax, 2780(%rdx)
	movl	-56(%rbp), %eax
	movl	-52(%rbp), %edx
	shll	$1, %edx
	addl	%edx, %eax
	addl	-48(%rbp), %eax
	addl	$2, %eax
	cltd
	idivl	%ecx
	movq	img, %rdx
	movw	%ax, 2782(%rdx)
	movl	-64(%rbp), %eax
	movl	-28(%rbp), %edx
	shll	$1, %edx
	addl	%edx, %eax
	addl	-24(%rbp), %eax
	addl	$2, %eax
	cltd
	idivl	%ecx
	movq	img, %rdx
	movw	%ax, 2808(%rdx)
	movl	-28(%rbp), %eax
	movl	-24(%rbp), %edx
	shll	$1, %edx
	addl	%edx, %eax
	addl	-20(%rbp), %eax
	addl	$2, %eax
	cltd
	idivl	%ecx
	movq	img, %rdx
	movw	%ax, 2840(%rdx)
	movl	-64(%rbp), %eax
	addl	-28(%rbp), %eax
	addl	$1, %eax
	cltd
	idivl	%esi
	movq	img, %rdx
	movw	%ax, 3292(%rdx)
	movq	img, %rdx
	movw	%ax, 3256(%rdx)
	movl	-28(%rbp), %eax
	movl	-64(%rbp), %edx
	shll	$1, %edx
	addl	%edx, %eax
	addl	-60(%rbp), %eax
	addl	$2, %eax
	cltd
	idivl	%ecx
	movq	img, %rdx
	movw	%ax, 3294(%rdx)
	movq	img, %rdx
	movw	%ax, 3258(%rdx)
	movl	-64(%rbp), %eax
	movl	-60(%rbp), %edx
	shll	$1, %edx
	addl	%edx, %eax
	addl	-56(%rbp), %eax
	addl	$2, %eax
	cltd
	idivl	%ecx
	movq	img, %rdx
	movw	%ax, 3260(%rdx)
	movl	-60(%rbp), %eax
	movl	-56(%rbp), %edx
	shll	$1, %edx
	addl	%edx, %eax
	addl	-52(%rbp), %eax
	addl	$2, %eax
	cltd
	idivl	%ecx
	movq	img, %rdx
	movw	%ax, 3262(%rdx)
	movl	-28(%rbp), %eax
	addl	-24(%rbp), %eax
	addl	$1, %eax
	cltd
	idivl	%esi
	movq	img, %rdx
	movw	%ax, 3324(%rdx)
	movq	img, %rdx
	movw	%ax, 3288(%rdx)
	movl	-64(%rbp), %eax
	movl	-28(%rbp), %edx
	shll	$1, %edx
	addl	%edx, %eax
	addl	-24(%rbp), %eax
	addl	$2, %eax
	cltd
	idivl	%ecx
	movq	img, %rdx
	movw	%ax, 3326(%rdx)
	movq	img, %rdx
	movw	%ax, 3290(%rdx)
	movl	-24(%rbp), %eax
	addl	-20(%rbp), %eax
	addl	$1, %eax
	cltd
	idivl	%esi
	movq	img, %rdx
	movw	%ax, 3356(%rdx)
	movq	img, %rdx
	movw	%ax, 3320(%rdx)
	movl	-28(%rbp), %eax
	movl	-24(%rbp), %edx
	shll	$1, %edx
	addl	%edx, %eax
	addl	-20(%rbp), %eax
	addl	$2, %eax
	cltd
	idivl	%ecx
	movq	img, %rdx
	movw	%ax, 3358(%rdx)
	movq	img, %rdx
	movw	%ax, 3322(%rdx)
	movl	-20(%rbp), %eax
	addl	-16(%rbp), %eax
	addl	$1, %eax
	cltd
	idivl	%esi
	movq	img, %rdx
	movw	%ax, 3352(%rdx)
	movl	-24(%rbp), %eax
	movl	-20(%rbp), %edx
	shll	$1, %edx
	addl	%edx, %eax
	addl	-16(%rbp), %eax
	addl	$2, %eax
	cltd
	idivl	%ecx
	movq	img, %rcx
	movw	%ax, 3354(%rcx)
.LBB11_85:                              # %if.end1174
	cmpl	$103039775, -172(%rbp)  # imm = 0x624431F
	jne	.LBB11_87
.LBB11_86:
	addq	$320, %rsp              # imm = 0x140
	popq	%rbp
	.cfi_def_cfa %rsp, 8
	retq
.LBB11_87:                              # %func_exit
	.cfi_def_cfa %rbp, 16
	callq	detect_breach
	jmp	.LBB11_86
.Lfunc_end11:
	.size	intrapred_luma.2, .Lfunc_end11-intrapred_luma.2
	.cfi_endproc
                                        # -- End function
	.globl	dct_chroma.3            # -- Begin function dct_chroma.3
	.p2align	4, 0x90
	.type	dct_chroma.3,@function
dct_chroma.3:                           # @dct_chroma.3
	.cfi_startproc
# %bb.0:                                # %entry
	pushq	%rbp
	.cfi_def_cfa_offset 16
	.cfi_offset %rbp, -16
	movq	%rsp, %rbp
	.cfi_def_cfa_register %rbp
	pushq	%rbx
	subq	$424, %rsp              # imm = 0x1A8
	.cfi_offset %rbx, -24
	movl	$2087005548, -380(%rbp) # imm = 0x7C652D6C
	movl	%edi, -20(%rbp)
	movl	%esi, -132(%rbp)
	movl	$0, -204(%rbp)
	movq	img, %rax
	movq	14168(%rax), %rax
	movq	img, %rcx
	movslq	12(%rcx), %rcx
	imulq	$632, %rcx, %rcx        # imm = 0x278
	addq	%rcx, %rax
	movq	%rax, -192(%rbp)
	movq	img, %rax
	movq	14144(%rax), %rax
	movl	-20(%rbp), %ecx
	addl	$1, %ecx
	movslq	%ecx, %rcx
	movq	(%rax,%rcx,8), %rax
	movq	(%rax), %rax
	movq	%rax, -224(%rbp)
	movq	img, %rax
	movq	14144(%rax), %rax
	movl	-20(%rbp), %ecx
	addl	$1, %ecx
	movslq	%ecx, %rcx
	movq	(%rax,%rcx,8), %rax
	movq	8(%rax), %rax
	movq	%rax, -376(%rbp)
	movq	-192(%rbp), %rax
	cmpl	$9, 72(%rax)
	movb	$1, %al
	je	.LBB12_3
# %bb.1:                                # %lor.lhs.false
	movq	-192(%rbp), %rax
	cmpl	$10, 72(%rax)
	movb	$1, %al
	je	.LBB12_3
# %bb.2:                                # %lor.rhs
	movq	-192(%rbp), %rax
	cmpl	$13, 72(%rax)
	sete	%al
.LBB12_3:                               # %lor.end
	xorl	%ecx, %ecx
	andb	$1, %al
	movzbl	%al, %eax
	movl	%eax, -124(%rbp)
	movl	-20(%rbp), %esi
	movq	img, %rax
	movl	72692(%rax), %eax
	cltd
	movl	$2, %edi
	idivl	%edi
	imull	%eax, %esi
	movl	%esi, -200(%rbp)
	movq	.L__const.dct_chroma.cbpblk_pattern, %rax
	movq	%rax, -432(%rbp)
	movq	.L__const.dct_chroma.cbpblk_pattern+8, %rax
	movq	%rax, -424(%rbp)
	movq	.L__const.dct_chroma.cbpblk_pattern+16, %rax
	movq	%rax, -416(%rbp)
	movq	.L__const.dct_chroma.cbpblk_pattern+24, %rax
	movq	%rax, -408(%rbp)
	movq	img, %rax
	movl	72700(%rax), %eax
	movl	%eax, -144(%rbp)
	movl	$0, -104(%rbp)
	movl	$0, -136(%rbp)
	movl	$0, -212(%rbp)
	movq	-192(%rbp), %rax
	movl	12(%rax), %eax
	movq	img, %rdx
	addl	72668(%rdx), %eax
	cmpl	$0, %eax
	jne	.LBB12_5
# %bb.4:                                # %land.rhs
	movq	img, %rax
	cmpl	$1, 72704(%rax)
	sete	%cl
.LBB12_5:                               # %land.end
	xorl	%eax, %eax
	andb	$1, %cl
	movzbl	%cl, %ecx
	movl	%ecx, -108(%rbp)
	movq	-192(%rbp), %rcx
	movl	12(%rcx), %ecx
	movq	img, %rdx
	movslq	-20(%rbp), %rsi
	addl	72716(%rdx,%rsi,4), %ecx
	movl	%ecx, -128(%rbp)
	movl	-128(%rbp), %ecx
	movq	img, %rdx
	subl	72672(%rdx), %eax
	cmpl	%eax, %ecx
	jge	.LBB12_7
# %bb.6:                                # %cond.true
	xorl	%eax, %eax
	movq	img, %rcx
	subl	72672(%rcx), %eax
	jmp	.LBB12_11
.LBB12_7:                               # %cond.false
	cmpl	$51, -128(%rbp)
	jle	.LBB12_9
# %bb.8:                                # %cond.true24
	movl	$51, %eax
	jmp	.LBB12_10
.LBB12_9:                               # %cond.false25
	movl	-128(%rbp), %eax
.LBB12_10:                              # %cond.end
.LBB12_11:                              # %cond.end26
	movl	%eax, -128(%rbp)
	cmpl	$0, -128(%rbp)
	jge	.LBB12_13
# %bb.12:                               # %cond.true29
	movl	-128(%rbp), %eax
	jmp	.LBB12_14
.LBB12_13:                              # %cond.false30
	movl	-128(%rbp), %eax
	subl	$0, %eax
	cltq
	movzbl	QP_SCALE_CR(,%rax), %eax
.LBB12_14:                              # %cond.end34
	movl	%eax, -128(%rbp)
	movl	-128(%rbp), %eax
	movq	img, %rcx
	addl	72672(%rcx), %eax
	cltd
	movl	$6, %ecx
	idivl	%ecx
	movl	%eax, -40(%rbp)
	movl	-128(%rbp), %eax
	movq	img, %rdx
	addl	72672(%rdx), %eax
	cltd
	idivl	%ecx
	movl	%edx, -76(%rbp)
	movl	-40(%rbp), %eax
	addl	$15, %eax
	movl	%eax, -180(%rbp)
	movq	img, %rax
	cmpl	$2, 72700(%rax)
	jne	.LBB12_16
# %bb.15:                               # %if.then
	movl	-128(%rbp), %eax
	addl	$3, %eax
	movq	img, %rcx
	addl	72672(%rcx), %eax
	cltd
	movl	$6, %ecx
	idivl	%ecx
	movl	%eax, -104(%rbp)
	movl	-128(%rbp), %eax
	addl	$3, %eax
	movq	img, %rdx
	addl	72672(%rdx), %eax
	cltd
	idivl	%ecx
	movl	%edx, -136(%rbp)
	movl	-104(%rbp), %eax
	addl	$15, %eax
	movl	%eax, -212(%rbp)
.LBB12_16:                              # %if.end
	movl	$0, -24(%rbp)
.LBB12_17:                              # %for.cond
                                        # =>This Loop Header: Depth=1
                                        #     Child Loop BB12_19 Depth 2
                                        #       Child Loop BB12_21 Depth 3
                                        #         Child Loop BB12_25 Depth 4
                                        #       Child Loop BB12_31 Depth 3
                                        #         Child Loop BB12_35 Depth 4
	movl	-24(%rbp), %eax
	movq	img, %rcx
	cmpl	72712(%rcx), %eax
	jge	.LBB12_44
# %bb.18:                               # %for.body
                                        #   in Loop: Header=BB12_17 Depth=1
	movl	$0, -28(%rbp)
.LBB12_19:                              # %for.cond56
                                        #   Parent Loop BB12_17 Depth=1
                                        # =>  This Loop Header: Depth=2
                                        #       Child Loop BB12_21 Depth 3
                                        #         Child Loop BB12_25 Depth 4
                                        #       Child Loop BB12_31 Depth 3
                                        #         Child Loop BB12_35 Depth 4
	movl	-28(%rbp), %eax
	movq	img, %rcx
	cmpl	72708(%rcx), %eax
	jge	.LBB12_42
# %bb.20:                               # %for.body59
                                        #   in Loop: Header=BB12_19 Depth=2
	movl	$0, -12(%rbp)
.LBB12_21:                              # %for.cond60
                                        #   Parent Loop BB12_17 Depth=1
                                        #     Parent Loop BB12_19 Depth=2
                                        # =>    This Loop Header: Depth=3
                                        #         Child Loop BB12_25 Depth 4
	xorl	%eax, %eax
	cmpl	$4, -12(%rbp)
	jge	.LBB12_23
# %bb.22:                               # %land.rhs63
                                        #   in Loop: Header=BB12_21 Depth=3
	cmpl	$0, -108(%rbp)
	setne	%al
	xorb	$-1, %al
.LBB12_23:                              # %land.end64
                                        #   in Loop: Header=BB12_21 Depth=3
	testb	$1, %al
	jne	.LBB12_24
	jmp	.LBB12_30
.LBB12_24:                              # %for.body66
                                        #   in Loop: Header=BB12_21 Depth=3
	movl	-24(%rbp), %eax
	addl	-12(%rbp), %eax
	movl	%eax, -148(%rbp)
	movl	$0, -16(%rbp)
.LBB12_25:                              # %for.cond68
                                        #   Parent Loop BB12_17 Depth=1
                                        #     Parent Loop BB12_19 Depth=2
                                        #       Parent Loop BB12_21 Depth=3
                                        # =>      This Inner Loop Header: Depth=4
	cmpl	$2, -16(%rbp)
	jge	.LBB12_28
# %bb.26:                               # %for.body71
                                        #   in Loop: Header=BB12_25 Depth=4
	movl	$3, %eax
	subl	-16(%rbp), %eax
	movl	%eax, -120(%rbp)
	movq	img, %rax
	addq	$13112, %rax            # imm = 0x3338
	movl	-16(%rbp), %ecx
	addl	-28(%rbp), %ecx
	movslq	%ecx, %rcx
	shlq	$6, %rcx
	addq	%rcx, %rax
	movslq	-148(%rbp), %rcx
	movl	(%rax,%rcx,4), %eax
	movq	img, %rcx
	addq	$13112, %rcx            # imm = 0x3338
	movl	-120(%rbp), %edx
	addl	-28(%rbp), %edx
	movslq	%edx, %rdx
	shlq	$6, %rdx
	addq	%rdx, %rcx
	movslq	-148(%rbp), %rdx
	addl	(%rcx,%rdx,4), %eax
	movslq	-16(%rbp), %rcx
	movl	%eax, -64(%rbp,%rcx,4)
	movq	img, %rax
	addq	$13112, %rax            # imm = 0x3338
	movl	-16(%rbp), %ecx
	addl	-28(%rbp), %ecx
	movslq	%ecx, %rcx
	shlq	$6, %rcx
	addq	%rcx, %rax
	movslq	-148(%rbp), %rcx
	movl	(%rax,%rcx,4), %eax
	movq	img, %rcx
	addq	$13112, %rcx            # imm = 0x3338
	movl	-120(%rbp), %edx
	addl	-28(%rbp), %edx
	movslq	%edx, %rdx
	shlq	$6, %rdx
	addq	%rdx, %rcx
	movslq	-148(%rbp), %rdx
	subl	(%rcx,%rdx,4), %eax
	movslq	-120(%rbp), %rcx
	movl	%eax, -64(%rbp,%rcx,4)
# %bb.27:                               # %for.inc
                                        #   in Loop: Header=BB12_25 Depth=4
	movl	-16(%rbp), %eax
	addl	$1, %eax
	movl	%eax, -16(%rbp)
	jmp	.LBB12_25
.LBB12_28:                              # %for.end
                                        #   in Loop: Header=BB12_21 Depth=3
	movl	-64(%rbp), %eax
	addl	-60(%rbp), %eax
	movq	img, %rcx
	addq	$13112, %rcx            # imm = 0x3338
	movslq	-28(%rbp), %rdx
	shlq	$6, %rdx
	addq	%rdx, %rcx
	movslq	-148(%rbp), %rdx
	movl	%eax, (%rcx,%rdx,4)
	movl	-64(%rbp), %eax
	subl	-60(%rbp), %eax
	movq	img, %rcx
	addq	$13112, %rcx            # imm = 0x3338
	movl	-28(%rbp), %edx
	addl	$2, %edx
	movslq	%edx, %rdx
	shlq	$6, %rdx
	addq	%rdx, %rcx
	movslq	-148(%rbp), %rdx
	movl	%eax, (%rcx,%rdx,4)
	movl	-52(%rbp), %eax
	shll	$1, %eax
	addl	-56(%rbp), %eax
	movq	img, %rcx
	addq	$13112, %rcx            # imm = 0x3338
	movl	-28(%rbp), %edx
	addl	$1, %edx
	movslq	%edx, %rdx
	shlq	$6, %rdx
	addq	%rdx, %rcx
	movslq	-148(%rbp), %rdx
	movl	%eax, (%rcx,%rdx,4)
	movl	-52(%rbp), %eax
	movl	-56(%rbp), %ecx
	shll	$1, %ecx
	subl	%ecx, %eax
	movq	img, %rcx
	addq	$13112, %rcx            # imm = 0x3338
	movl	-28(%rbp), %edx
	addl	$3, %edx
	movslq	%edx, %rdx
	shlq	$6, %rdx
	addq	%rdx, %rcx
	movslq	-148(%rbp), %rdx
	movl	%eax, (%rcx,%rdx,4)
# %bb.29:                               # %for.inc139
                                        #   in Loop: Header=BB12_21 Depth=3
	movl	-12(%rbp), %eax
	addl	$1, %eax
	movl	%eax, -12(%rbp)
	jmp	.LBB12_21
.LBB12_30:                              # %for.end141
                                        #   in Loop: Header=BB12_19 Depth=2
	movl	$0, -16(%rbp)
.LBB12_31:                              # %for.cond142
                                        #   Parent Loop BB12_17 Depth=1
                                        #     Parent Loop BB12_19 Depth=2
                                        # =>    This Loop Header: Depth=3
                                        #         Child Loop BB12_35 Depth 4
	xorl	%eax, %eax
	cmpl	$4, -16(%rbp)
	jge	.LBB12_33
# %bb.32:                               # %land.rhs145
                                        #   in Loop: Header=BB12_31 Depth=3
	cmpl	$0, -108(%rbp)
	setne	%al
	xorb	$-1, %al
.LBB12_33:                              # %land.end148
                                        #   in Loop: Header=BB12_31 Depth=3
	testb	$1, %al
	jne	.LBB12_34
	jmp	.LBB12_40
.LBB12_34:                              # %for.body150
                                        #   in Loop: Header=BB12_31 Depth=3
	movl	-28(%rbp), %eax
	addl	-16(%rbp), %eax
	movl	%eax, -32(%rbp)
	movl	$0, -12(%rbp)
.LBB12_35:                              # %for.cond152
                                        #   Parent Loop BB12_17 Depth=1
                                        #     Parent Loop BB12_19 Depth=2
                                        #       Parent Loop BB12_31 Depth=3
                                        # =>      This Inner Loop Header: Depth=4
	cmpl	$2, -12(%rbp)
	jge	.LBB12_38
# %bb.36:                               # %for.body155
                                        #   in Loop: Header=BB12_35 Depth=4
	movl	$3, %eax
	subl	-12(%rbp), %eax
	movl	%eax, -68(%rbp)
	movq	img, %rax
	addq	$13112, %rax            # imm = 0x3338
	movslq	-32(%rbp), %rcx
	shlq	$6, %rcx
	addq	%rcx, %rax
	movl	-24(%rbp), %ecx
	addl	-12(%rbp), %ecx
	movslq	%ecx, %rcx
	movl	(%rax,%rcx,4), %eax
	movq	img, %rcx
	addq	$13112, %rcx            # imm = 0x3338
	movslq	-32(%rbp), %rdx
	shlq	$6, %rdx
	addq	%rdx, %rcx
	movl	-24(%rbp), %edx
	addl	-68(%rbp), %edx
	movslq	%edx, %rdx
	addl	(%rcx,%rdx,4), %eax
	movslq	-12(%rbp), %rcx
	movl	%eax, -64(%rbp,%rcx,4)
	movq	img, %rax
	addq	$13112, %rax            # imm = 0x3338
	movslq	-32(%rbp), %rcx
	shlq	$6, %rcx
	addq	%rcx, %rax
	movl	-24(%rbp), %ecx
	addl	-12(%rbp), %ecx
	movslq	%ecx, %rcx
	movl	(%rax,%rcx,4), %eax
	movq	img, %rcx
	addq	$13112, %rcx            # imm = 0x3338
	movslq	-32(%rbp), %rdx
	shlq	$6, %rdx
	addq	%rdx, %rcx
	movl	-24(%rbp), %edx
	addl	-68(%rbp), %edx
	movslq	%edx, %rdx
	subl	(%rcx,%rdx,4), %eax
	movslq	-68(%rbp), %rcx
	movl	%eax, -64(%rbp,%rcx,4)
# %bb.37:                               # %for.inc187
                                        #   in Loop: Header=BB12_35 Depth=4
	movl	-12(%rbp), %eax
	addl	$1, %eax
	movl	%eax, -12(%rbp)
	jmp	.LBB12_35
.LBB12_38:                              # %for.end189
                                        #   in Loop: Header=BB12_31 Depth=3
	movl	-64(%rbp), %eax
	addl	-60(%rbp), %eax
	movq	img, %rcx
	addq	$13112, %rcx            # imm = 0x3338
	movslq	-32(%rbp), %rdx
	shlq	$6, %rdx
	addq	%rdx, %rcx
	movl	-24(%rbp), %edx
	addl	$0, %edx
	movslq	%edx, %rdx
	movl	%eax, (%rcx,%rdx,4)
	movl	-64(%rbp), %eax
	subl	-60(%rbp), %eax
	movq	img, %rcx
	addq	$13112, %rcx            # imm = 0x3338
	movslq	-32(%rbp), %rdx
	shlq	$6, %rdx
	addq	%rdx, %rcx
	movl	-24(%rbp), %edx
	addl	$2, %edx
	movslq	%edx, %rdx
	movl	%eax, (%rcx,%rdx,4)
	movl	-52(%rbp), %eax
	shll	$1, %eax
	addl	-56(%rbp), %eax
	movq	img, %rcx
	addq	$13112, %rcx            # imm = 0x3338
	movslq	-32(%rbp), %rdx
	shlq	$6, %rdx
	addq	%rdx, %rcx
	movl	-24(%rbp), %edx
	addl	$1, %edx
	movslq	%edx, %rdx
	movl	%eax, (%rcx,%rdx,4)
	movl	-52(%rbp), %eax
	movl	-56(%rbp), %ecx
	shll	$1, %ecx
	subl	%ecx, %eax
	movq	img, %rcx
	addq	$13112, %rcx            # imm = 0x3338
	movslq	-32(%rbp), %rdx
	shlq	$6, %rdx
	addq	%rdx, %rcx
	movl	-24(%rbp), %edx
	addl	$3, %edx
	movslq	%edx, %rdx
	movl	%eax, (%rcx,%rdx,4)
# %bb.39:                               # %for.inc228
                                        #   in Loop: Header=BB12_31 Depth=3
	movl	-16(%rbp), %eax
	addl	$1, %eax
	movl	%eax, -16(%rbp)
	jmp	.LBB12_31
.LBB12_40:                              # %for.end230
                                        #   in Loop: Header=BB12_19 Depth=2
	jmp	.LBB12_41
.LBB12_41:                              # %for.inc231
                                        #   in Loop: Header=BB12_19 Depth=2
	movl	-28(%rbp), %eax
	addl	$4, %eax
	movl	%eax, -28(%rbp)
	jmp	.LBB12_19
.LBB12_42:                              # %for.end233
                                        #   in Loop: Header=BB12_17 Depth=1
	jmp	.LBB12_43
.LBB12_43:                              # %for.inc234
                                        #   in Loop: Header=BB12_17 Depth=1
	movl	-24(%rbp), %eax
	addl	$4, %eax
	movl	%eax, -24(%rbp)
	jmp	.LBB12_17
.LBB12_44:                              # %for.end236
	cmpl	$1, -144(%rbp)
	jne	.LBB12_76
# %bb.45:                               # %if.then239
	movq	img, %rax
	movl	13112(%rax), %eax
	movq	img, %rcx
	addl	13368(%rcx), %eax
	movq	img, %rcx
	addl	13128(%rcx), %eax
	movq	img, %rcx
	addl	13384(%rcx), %eax
	movl	%eax, -176(%rbp)
	movq	img, %rax
	movl	13112(%rax), %eax
	movq	img, %rcx
	subl	13368(%rcx), %eax
	movq	img, %rcx
	addl	13128(%rcx), %eax
	movq	img, %rcx
	subl	13384(%rcx), %eax
	movl	%eax, -172(%rbp)
	movq	img, %rax
	movl	13112(%rax), %eax
	movq	img, %rcx
	addl	13368(%rcx), %eax
	movq	img, %rcx
	subl	13128(%rcx), %eax
	movq	img, %rcx
	subl	13384(%rcx), %eax
	movl	%eax, -168(%rbp)
	movq	img, %rax
	movl	13112(%rax), %eax
	movq	img, %rcx
	subl	13368(%rcx), %eax
	movq	img, %rcx
	subl	13128(%rcx), %eax
	movq	img, %rcx
	addl	13384(%rcx), %eax
	movl	%eax, -164(%rbp)
	movl	$-1, -100(%rbp)
	movl	$0, -72(%rbp)
	movl	$0, -36(%rbp)
.LBB12_46:                              # %for.cond304
                                        # =>This Inner Loop Header: Depth=1
	cmpl	$4, -36(%rbp)
	jge	.LBB12_62
# %bb.47:                               # %for.body307
                                        #   in Loop: Header=BB12_46 Depth=1
	movl	-100(%rbp), %eax
	addl	$1, %eax
	movl	%eax, -100(%rbp)
	movl	$0, -140(%rbp)
	cmpl	$1, -124(%rbp)
	jne	.LBB12_49
# %bb.48:                               # %if.then311
                                        #   in Loop: Header=BB12_46 Depth=1
	movslq	-36(%rbp), %rax
	movl	-176(%rbp,%rax,4), %edi
	callq	abs
	movslq	-20(%rbp), %rcx
	imulq	$384, %rcx, %rcx        # imm = 0x180
	movabsq	$LevelScale4x4Chroma_Intra, %rdx
	addq	%rcx, %rdx
	movslq	-76(%rbp), %rcx
	shlq	$6, %rcx
	addq	%rcx, %rdx
	imull	(%rdx), %eax
	movslq	-20(%rbp), %rcx
	imulq	$832, %rcx, %rcx        # imm = 0x340
	movabsq	$LevelOffset4x4Chroma_Intra, %rdx
	addq	%rcx, %rdx
	movslq	-40(%rbp), %rcx
	shlq	$6, %rcx
	addq	%rcx, %rdx
	movl	(%rdx), %ecx
	shll	$1, %ecx
	addl	%ecx, %eax
	movl	-180(%rbp), %ecx
	addl	$1, %ecx
                                        # kill: def $cl killed $ecx
	sarl	%cl, %eax
	movl	%eax, -44(%rbp)
	jmp	.LBB12_50
.LBB12_49:                              # %if.else
                                        #   in Loop: Header=BB12_46 Depth=1
	movslq	-36(%rbp), %rax
	movl	-176(%rbp,%rax,4), %edi
	callq	abs
	movslq	-20(%rbp), %rcx
	imulq	$384, %rcx, %rcx        # imm = 0x180
	movabsq	$LevelScale4x4Chroma_Inter, %rdx
	addq	%rcx, %rdx
	movslq	-76(%rbp), %rcx
	shlq	$6, %rcx
	addq	%rcx, %rdx
	imull	(%rdx), %eax
	movslq	-20(%rbp), %rcx
	imulq	$832, %rcx, %rcx        # imm = 0x340
	movabsq	$LevelOffset4x4Chroma_Inter, %rdx
	addq	%rcx, %rdx
	movslq	-40(%rbp), %rcx
	shlq	$6, %rcx
	addq	%rcx, %rdx
	movl	(%rdx), %ecx
	shll	$1, %ecx
	addl	%ecx, %eax
	movl	-180(%rbp), %ecx
	addl	$1, %ecx
                                        # kill: def $cl killed $ecx
	sarl	%cl, %eax
	movl	%eax, -44(%rbp)
.LBB12_50:                              # %if.end349
                                        #   in Loop: Header=BB12_46 Depth=1
	movq	input, %rax
	cmpl	$0, 2356(%rax)
	jne	.LBB12_55
# %bb.51:                               # %land.lhs.true
                                        #   in Loop: Header=BB12_46 Depth=1
	movq	img, %rax
	cmpl	$4, 40(%rax)
	jge	.LBB12_55
# %bb.52:                               # %if.then355
                                        #   in Loop: Header=BB12_46 Depth=1
	cmpl	$2063, -44(%rbp)        # imm = 0x80F
	jle	.LBB12_54
# %bb.53:                               # %if.then358
                                        #   in Loop: Header=BB12_46 Depth=1
	movl	$2063, -44(%rbp)        # imm = 0x80F
.LBB12_54:                              # %if.end359
                                        #   in Loop: Header=BB12_46 Depth=1
	jmp	.LBB12_55
.LBB12_55:                              # %if.end360
                                        #   in Loop: Header=BB12_46 Depth=1
	cmpl	$0, -44(%rbp)
	je	.LBB12_60
# %bb.56:                               # %if.then363
                                        #   in Loop: Header=BB12_46 Depth=1
	movl	-20(%rbp), %ecx
	shll	$2, %ecx
                                        # kill: def $cl killed $ecx
	movl	$983040, %eax           # imm = 0xF0000
	shll	%cl, %eax
	cltq
	movq	-192(%rbp), %rcx
	orq	464(%rcx), %rax
	movq	%rax, 464(%rcx)
	movl	$1, %eax
	cmpl	-132(%rbp), %eax
	jle	.LBB12_58
# %bb.57:                               # %cond.true369
                                        #   in Loop: Header=BB12_46 Depth=1
	movl	$1, %eax
	jmp	.LBB12_59
.LBB12_58:                              # %cond.false370
                                        #   in Loop: Header=BB12_46 Depth=1
	movl	-132(%rbp), %eax
.LBB12_59:                              # %cond.end371
                                        #   in Loop: Header=BB12_46 Depth=1
	movl	%eax, -132(%rbp)
	movl	$1, -204(%rbp)
	movl	-44(%rbp), %edi
	movslq	-36(%rbp), %rax
	movl	-176(%rbp,%rax,4), %esi
	callq	sign
	movq	-224(%rbp), %rcx
	movslq	-72(%rbp), %rdx
	movl	%eax, (%rcx,%rdx,4)
	movl	-100(%rbp), %eax
	movq	-376(%rbp), %rcx
	movslq	-72(%rbp), %rdx
	movl	%eax, (%rcx,%rdx,4)
	movl	-72(%rbp), %eax
	addl	$1, %eax
	movl	%eax, -72(%rbp)
	movl	$-1, -100(%rbp)
	movl	-44(%rbp), %edi
	movslq	-36(%rbp), %rax
	movl	-176(%rbp,%rax,4), %esi
	callq	sign
	movl	%eax, -140(%rbp)
.LBB12_60:                              # %if.end384
                                        #   in Loop: Header=BB12_46 Depth=1
	movl	-140(%rbp), %eax
	movslq	-36(%rbp), %rcx
	movl	%eax, -176(%rbp,%rcx,4)
# %bb.61:                               # %for.inc387
                                        #   in Loop: Header=BB12_46 Depth=1
	movl	-36(%rbp), %eax
	addl	$1, %eax
	movl	%eax, -36(%rbp)
	jmp	.LBB12_46
.LBB12_62:                              # %for.end389
	movq	-224(%rbp), %rax
	movslq	-72(%rbp), %rcx
	movl	$0, (%rax,%rcx,4)
	movl	-176(%rbp), %eax
	addl	-172(%rbp), %eax
	addl	-168(%rbp), %eax
	addl	-164(%rbp), %eax
	movl	%eax, -64(%rbp)
	movl	-176(%rbp), %eax
	subl	-172(%rbp), %eax
	addl	-168(%rbp), %eax
	subl	-164(%rbp), %eax
	movl	%eax, -60(%rbp)
	movl	-176(%rbp), %eax
	addl	-172(%rbp), %eax
	subl	-168(%rbp), %eax
	subl	-164(%rbp), %eax
	movl	%eax, -56(%rbp)
	movl	-176(%rbp), %eax
	subl	-172(%rbp), %eax
	subl	-168(%rbp), %eax
	addl	-164(%rbp), %eax
	movl	%eax, -52(%rbp)
	movl	$0, -16(%rbp)
.LBB12_63:                              # %for.cond424
                                        # =>This Inner Loop Header: Depth=1
	cmpl	$4, -16(%rbp)
	jge	.LBB12_75
# %bb.64:                               # %for.body427
                                        #   in Loop: Header=BB12_63 Depth=1
	cmpl	$5, -40(%rbp)
	jge	.LBB12_69
# %bb.65:                               # %if.then430
                                        #   in Loop: Header=BB12_63 Depth=1
	cmpl	$1, -124(%rbp)
	jne	.LBB12_67
# %bb.66:                               # %if.then433
                                        #   in Loop: Header=BB12_63 Depth=1
	movslq	-16(%rbp), %rax
	movl	-64(%rbp,%rax,4), %eax
	movslq	-20(%rbp), %rcx
	imulq	$384, %rcx, %rcx        # imm = 0x180
	movabsq	$InvLevelScale4x4Chroma_Intra, %rdx
	addq	%rcx, %rdx
	movslq	-76(%rbp), %rcx
	shlq	$6, %rcx
	addq	%rcx, %rdx
	imull	(%rdx), %eax
	movl	$5, %ecx
	subl	-40(%rbp), %ecx
                                        # kill: def $cl killed $ecx
	sarl	%cl, %eax
	movslq	-16(%rbp), %rcx
	movl	%eax, -176(%rbp,%rcx,4)
	jmp	.LBB12_68
.LBB12_67:                              # %if.else447
                                        #   in Loop: Header=BB12_63 Depth=1
	movslq	-16(%rbp), %rax
	movl	-64(%rbp,%rax,4), %eax
	movslq	-20(%rbp), %rcx
	imulq	$384, %rcx, %rcx        # imm = 0x180
	movabsq	$InvLevelScale4x4Chroma_Inter, %rdx
	addq	%rcx, %rdx
	movslq	-76(%rbp), %rcx
	shlq	$6, %rcx
	addq	%rcx, %rdx
	imull	(%rdx), %eax
	movl	$5, %ecx
	subl	-40(%rbp), %ecx
                                        # kill: def $cl killed $ecx
	sarl	%cl, %eax
	movslq	-16(%rbp), %rcx
	movl	%eax, -176(%rbp,%rcx,4)
.LBB12_68:                              # %if.end461
                                        #   in Loop: Header=BB12_63 Depth=1
	jmp	.LBB12_73
.LBB12_69:                              # %if.else462
                                        #   in Loop: Header=BB12_63 Depth=1
	cmpl	$1, -124(%rbp)
	jne	.LBB12_71
# %bb.70:                               # %if.then465
                                        #   in Loop: Header=BB12_63 Depth=1
	movslq	-16(%rbp), %rax
	movl	-64(%rbp,%rax,4), %eax
	movslq	-20(%rbp), %rcx
	imulq	$384, %rcx, %rcx        # imm = 0x180
	movabsq	$InvLevelScale4x4Chroma_Intra, %rdx
	addq	%rcx, %rdx
	movslq	-76(%rbp), %rcx
	shlq	$6, %rcx
	addq	%rcx, %rdx
	imull	(%rdx), %eax
	movl	-40(%rbp), %ecx
	subl	$5, %ecx
                                        # kill: def $cl killed $ecx
	shll	%cl, %eax
	movslq	-16(%rbp), %rcx
	movl	%eax, -176(%rbp,%rcx,4)
	jmp	.LBB12_72
.LBB12_71:                              # %if.else479
                                        #   in Loop: Header=BB12_63 Depth=1
	movslq	-16(%rbp), %rax
	movl	-64(%rbp,%rax,4), %eax
	movslq	-20(%rbp), %rcx
	imulq	$384, %rcx, %rcx        # imm = 0x180
	movabsq	$InvLevelScale4x4Chroma_Inter, %rdx
	addq	%rcx, %rdx
	movslq	-76(%rbp), %rcx
	shlq	$6, %rcx
	addq	%rcx, %rdx
	imull	(%rdx), %eax
	movl	-40(%rbp), %ecx
	subl	$5, %ecx
                                        # kill: def $cl killed $ecx
	shll	%cl, %eax
	movslq	-16(%rbp), %rcx
	movl	%eax, -176(%rbp,%rcx,4)
.LBB12_72:                              # %if.end493
                                        #   in Loop: Header=BB12_63 Depth=1
	jmp	.LBB12_73
.LBB12_73:                              # %if.end494
                                        #   in Loop: Header=BB12_63 Depth=1
	jmp	.LBB12_74
.LBB12_74:                              # %for.inc495
                                        #   in Loop: Header=BB12_63 Depth=1
	movl	-16(%rbp), %eax
	addl	$1, %eax
	movl	%eax, -16(%rbp)
	jmp	.LBB12_63
.LBB12_75:                              # %for.end497
	movl	-176(%rbp), %eax
	movq	img, %rcx
	movl	%eax, 13112(%rcx)
	movl	-172(%rbp), %eax
	movq	img, %rcx
	movl	%eax, 13368(%rcx)
	movl	-168(%rbp), %eax
	movq	img, %rcx
	movl	%eax, 13128(%rcx)
	movl	-164(%rbp), %eax
	movq	img, %rcx
	movl	%eax, 13384(%rcx)
	jmp	.LBB12_213
.LBB12_76:                              # %if.else514
	cmpl	$2, -144(%rbp)
	jne	.LBB12_127
# %bb.77:                               # %if.then517
	movl	$0, -12(%rbp)
.LBB12_78:                              # %for.cond518
                                        # =>This Loop Header: Depth=1
                                        #     Child Loop BB12_80 Depth 2
	movl	-12(%rbp), %eax
	movq	img, %rcx
	cmpl	72712(%rcx), %eax
	jge	.LBB12_85
# %bb.79:                               # %for.body522
                                        #   in Loop: Header=BB12_78 Depth=1
	movl	$0, -16(%rbp)
.LBB12_80:                              # %for.cond523
                                        #   Parent Loop BB12_78 Depth=1
                                        # =>  This Inner Loop Header: Depth=2
	movl	-16(%rbp), %eax
	movq	img, %rcx
	cmpl	72708(%rcx), %eax
	jge	.LBB12_83
# %bb.81:                               # %for.body527
                                        #   in Loop: Header=BB12_80 Depth=2
	movq	img, %rax
	addq	$13112, %rax            # imm = 0x3338
	movslq	-16(%rbp), %rcx
	shlq	$6, %rcx
	addq	%rcx, %rax
	movslq	-12(%rbp), %rcx
	movl	(%rax,%rcx,4), %eax
	movl	-16(%rbp), %ecx
	sarl	$2, %ecx
	movslq	%ecx, %rcx
	shlq	$4, %rcx
	leaq	-368(%rbp), %rdx
	addq	%rcx, %rdx
	movl	-12(%rbp), %ecx
	sarl	$2, %ecx
	movslq	%ecx, %rcx
	movl	%eax, (%rdx,%rcx,4)
# %bb.82:                               # %for.inc539
                                        #   in Loop: Header=BB12_80 Depth=2
	movl	-16(%rbp), %eax
	addl	$4, %eax
	movl	%eax, -16(%rbp)
	jmp	.LBB12_80
.LBB12_83:                              # %for.end541
                                        #   in Loop: Header=BB12_78 Depth=1
	jmp	.LBB12_84
.LBB12_84:                              # %for.inc542
                                        #   in Loop: Header=BB12_78 Depth=1
	movl	-12(%rbp), %eax
	addl	$4, %eax
	movl	%eax, -12(%rbp)
	jmp	.LBB12_78
.LBB12_85:                              # %for.end544
	movl	-368(%rbp), %eax
	addl	-352(%rbp), %eax
	movl	%eax, -304(%rbp)
	movl	-364(%rbp), %eax
	addl	-348(%rbp), %eax
	movl	%eax, -300(%rbp)
	movl	-360(%rbp), %eax
	addl	-344(%rbp), %eax
	movl	%eax, -296(%rbp)
	movl	-356(%rbp), %eax
	addl	-340(%rbp), %eax
	movl	%eax, -292(%rbp)
	movl	-368(%rbp), %eax
	subl	-352(%rbp), %eax
	movl	%eax, -288(%rbp)
	movl	-364(%rbp), %eax
	subl	-348(%rbp), %eax
	movl	%eax, -284(%rbp)
	movl	-360(%rbp), %eax
	subl	-344(%rbp), %eax
	movl	%eax, -280(%rbp)
	movl	-356(%rbp), %eax
	subl	-340(%rbp), %eax
	movl	%eax, -276(%rbp)
	movl	$0, -16(%rbp)
.LBB12_86:                              # %for.cond601
                                        # =>This Loop Header: Depth=1
                                        #     Child Loop BB12_88 Depth 2
	cmpl	$2, -16(%rbp)
	jge	.LBB12_93
# %bb.87:                               # %for.body604
                                        #   in Loop: Header=BB12_86 Depth=1
	movl	$0, -12(%rbp)
.LBB12_88:                              # %for.cond605
                                        #   Parent Loop BB12_86 Depth=1
                                        # =>  This Inner Loop Header: Depth=2
	cmpl	$2, -12(%rbp)
	jge	.LBB12_91
# %bb.89:                               # %for.body608
                                        #   in Loop: Header=BB12_88 Depth=2
	movl	$3, %eax
	subl	-12(%rbp), %eax
	movl	%eax, -32(%rbp)
	movslq	-16(%rbp), %rax
	shlq	$4, %rax
	leaq	-304(%rbp), %rcx
	movq	%rcx, %rdx
	addq	%rax, %rdx
	movslq	-12(%rbp), %rax
	movl	(%rdx,%rax,4), %eax
	movslq	-16(%rbp), %rdx
	shlq	$4, %rdx
	movq	%rcx, %rsi
	addq	%rdx, %rsi
	movslq	-32(%rbp), %rdx
	addl	(%rsi,%rdx,4), %eax
	movslq	-12(%rbp), %rdx
	movl	%eax, -64(%rbp,%rdx,4)
	movslq	-16(%rbp), %rax
	shlq	$4, %rax
	movq	%rcx, %rdx
	addq	%rax, %rdx
	movslq	-12(%rbp), %rax
	movl	(%rdx,%rax,4), %eax
	movslq	-16(%rbp), %rdx
	shlq	$4, %rdx
	addq	%rdx, %rcx
	movslq	-32(%rbp), %rdx
	subl	(%rcx,%rdx,4), %eax
	movslq	-32(%rbp), %rcx
	movl	%eax, -64(%rbp,%rcx,4)
# %bb.90:                               # %for.inc632
                                        #   in Loop: Header=BB12_88 Depth=2
	movl	-12(%rbp), %eax
	addl	$1, %eax
	movl	%eax, -12(%rbp)
	jmp	.LBB12_88
.LBB12_91:                              # %for.end634
                                        #   in Loop: Header=BB12_86 Depth=1
	movl	-64(%rbp), %eax
	addl	-60(%rbp), %eax
	movslq	-16(%rbp), %rcx
	shlq	$4, %rcx
	leaq	-304(%rbp), %rdx
	movq	%rdx, %rsi
	addq	%rcx, %rsi
	movl	%eax, (%rsi)
	movl	-64(%rbp), %eax
	subl	-60(%rbp), %eax
	movslq	-16(%rbp), %rcx
	shlq	$4, %rcx
	movq	%rdx, %rsi
	addq	%rcx, %rsi
	movl	%eax, 8(%rsi)
	movl	-52(%rbp), %eax
	addl	-56(%rbp), %eax
	movslq	-16(%rbp), %rcx
	shlq	$4, %rcx
	movq	%rdx, %rsi
	addq	%rcx, %rsi
	movl	%eax, 4(%rsi)
	movl	-52(%rbp), %eax
	subl	-56(%rbp), %eax
	movslq	-16(%rbp), %rcx
	shlq	$4, %rcx
	addq	%rcx, %rdx
	movl	%eax, 12(%rdx)
# %bb.92:                               # %for.inc659
                                        #   in Loop: Header=BB12_86 Depth=1
	movl	-16(%rbp), %eax
	addl	$1, %eax
	movl	%eax, -16(%rbp)
	jmp	.LBB12_86
.LBB12_93:                              # %for.end661
	movl	$-1, -100(%rbp)
	movl	$0, -72(%rbp)
	movl	$0, -36(%rbp)
.LBB12_94:                              # %for.cond662
                                        # =>This Inner Loop Header: Depth=1
	cmpl	$8, -36(%rbp)
	jge	.LBB12_105
# %bb.95:                               # %for.body665
                                        #   in Loop: Header=BB12_94 Depth=1
	movslq	-36(%rbp), %rax
	movzbl	SCAN_YUV422(,%rax,2), %eax
	movl	%eax, -16(%rbp)
	movslq	-36(%rbp), %rax
	movzbl	SCAN_YUV422+1(,%rax,2), %eax
	movl	%eax, -12(%rbp)
	movl	-100(%rbp), %eax
	addl	$1, %eax
	movl	%eax, -100(%rbp)
	cmpl	$1, -124(%rbp)
	jne	.LBB12_97
# %bb.96:                               # %if.then677
                                        #   in Loop: Header=BB12_94 Depth=1
	movslq	-16(%rbp), %rax
	shlq	$4, %rax
	leaq	-304(%rbp), %rcx
	addq	%rax, %rcx
	movslq	-12(%rbp), %rax
	movl	(%rcx,%rax,4), %edi
	callq	abs
	movslq	-20(%rbp), %rcx
	imulq	$384, %rcx, %rcx        # imm = 0x180
	movabsq	$LevelScale4x4Chroma_Intra, %rdx
	addq	%rcx, %rdx
	movslq	-136(%rbp), %rcx
	shlq	$6, %rcx
	addq	%rcx, %rdx
	imull	(%rdx), %eax
	movslq	-20(%rbp), %rcx
	imulq	$832, %rcx, %rcx        # imm = 0x340
	movabsq	$LevelOffset4x4Chroma_Intra, %rdx
	addq	%rcx, %rdx
	movslq	-104(%rbp), %rcx
	shlq	$6, %rcx
	addq	%rcx, %rdx
	movl	(%rdx), %ecx
	shll	$1, %ecx
	addl	%ecx, %eax
	movl	-212(%rbp), %ecx
	addl	$1, %ecx
                                        # kill: def $cl killed $ecx
	sarl	%cl, %eax
	movl	%eax, -44(%rbp)
	jmp	.LBB12_98
.LBB12_97:                              # %if.else700
                                        #   in Loop: Header=BB12_94 Depth=1
	movslq	-16(%rbp), %rax
	shlq	$4, %rax
	leaq	-304(%rbp), %rcx
	addq	%rax, %rcx
	movslq	-12(%rbp), %rax
	movl	(%rcx,%rax,4), %edi
	callq	abs
	movslq	-20(%rbp), %rcx
	imulq	$384, %rcx, %rcx        # imm = 0x180
	movabsq	$LevelScale4x4Chroma_Inter, %rdx
	addq	%rcx, %rdx
	movslq	-136(%rbp), %rcx
	shlq	$6, %rcx
	addq	%rcx, %rdx
	imull	(%rdx), %eax
	movslq	-20(%rbp), %rcx
	imulq	$832, %rcx, %rcx        # imm = 0x340
	movabsq	$LevelOffset4x4Chroma_Inter, %rdx
	addq	%rcx, %rdx
	movslq	-104(%rbp), %rcx
	shlq	$6, %rcx
	addq	%rcx, %rdx
	movl	(%rdx), %ecx
	shll	$1, %ecx
	addl	%ecx, %eax
	movl	-212(%rbp), %ecx
	addl	$1, %ecx
                                        # kill: def $cl killed $ecx
	sarl	%cl, %eax
	movl	%eax, -44(%rbp)
.LBB12_98:                              # %if.end723
                                        #   in Loop: Header=BB12_94 Depth=1
	cmpl	$0, -44(%rbp)
	je	.LBB12_103
# %bb.99:                               # %if.then726
                                        #   in Loop: Header=BB12_94 Depth=1
	movl	-20(%rbp), %ecx
	shll	$3, %ecx
                                        # kill: def $cl killed $ecx
	movl	$16711680, %eax         # imm = 0xFF0000
	shll	%cl, %eax
	cltq
	movq	-192(%rbp), %rcx
	orq	464(%rcx), %rax
	movq	%rax, 464(%rcx)
	movl	$1, %eax
	cmpl	-132(%rbp), %eax
	jle	.LBB12_101
# %bb.100:                              # %cond.true734
                                        #   in Loop: Header=BB12_94 Depth=1
	movl	$1, %eax
	jmp	.LBB12_102
.LBB12_101:                             # %cond.false735
                                        #   in Loop: Header=BB12_94 Depth=1
	movl	-132(%rbp), %eax
.LBB12_102:                             # %cond.end736
                                        #   in Loop: Header=BB12_94 Depth=1
	movl	%eax, -132(%rbp)
	movl	$1, -204(%rbp)
	movl	-44(%rbp), %edi
	movslq	-16(%rbp), %rax
	shlq	$4, %rax
	leaq	-304(%rbp), %rcx
	addq	%rax, %rcx
	movslq	-12(%rbp), %rax
	movl	(%rcx,%rax,4), %esi
	callq	sign
	movq	-224(%rbp), %rcx
	movslq	-72(%rbp), %rdx
	movl	%eax, (%rcx,%rdx,4)
	movl	-100(%rbp), %eax
	movq	-376(%rbp), %rcx
	movslq	-72(%rbp), %rdx
	movl	%eax, (%rcx,%rdx,4)
	movl	-72(%rbp), %eax
	addl	$1, %eax
	movl	%eax, -72(%rbp)
	movl	$-1, -100(%rbp)
.LBB12_103:                             # %if.end748
                                        #   in Loop: Header=BB12_94 Depth=1
	movl	-44(%rbp), %edi
	movslq	-16(%rbp), %rax
	shlq	$4, %rax
	leaq	-304(%rbp), %rcx
	addq	%rax, %rcx
	movslq	-12(%rbp), %rax
	movl	(%rcx,%rax,4), %esi
	callq	sign
	movslq	-16(%rbp), %rcx
	shlq	$4, %rcx
	leaq	-368(%rbp), %rdx
	addq	%rcx, %rdx
	movslq	-12(%rbp), %rcx
	movl	%eax, (%rdx,%rcx,4)
# %bb.104:                              # %for.inc758
                                        #   in Loop: Header=BB12_94 Depth=1
	movl	-36(%rbp), %eax
	addl	$1, %eax
	movl	%eax, -36(%rbp)
	jmp	.LBB12_94
.LBB12_105:                             # %for.end760
	movq	-224(%rbp), %rax
	movslq	-72(%rbp), %rcx
	movl	$0, (%rax,%rcx,4)
	movl	-368(%rbp), %eax
	addl	-352(%rbp), %eax
	movl	%eax, -304(%rbp)
	movl	-364(%rbp), %eax
	addl	-348(%rbp), %eax
	movl	%eax, -300(%rbp)
	movl	-360(%rbp), %eax
	addl	-344(%rbp), %eax
	movl	%eax, -296(%rbp)
	movl	-356(%rbp), %eax
	addl	-340(%rbp), %eax
	movl	%eax, -292(%rbp)
	movl	-368(%rbp), %eax
	subl	-352(%rbp), %eax
	movl	%eax, -288(%rbp)
	movl	-364(%rbp), %eax
	subl	-348(%rbp), %eax
	movl	%eax, -284(%rbp)
	movl	-360(%rbp), %eax
	subl	-344(%rbp), %eax
	movl	%eax, -280(%rbp)
	movl	-356(%rbp), %eax
	subl	-340(%rbp), %eax
	movl	%eax, -276(%rbp)
	movl	$0, -16(%rbp)
.LBB12_106:                             # %for.cond819
                                        # =>This Loop Header: Depth=1
                                        #     Child Loop BB12_108 Depth 2
                                        #     Child Loop BB12_112 Depth 2
	cmpl	$2, -16(%rbp)
	jge	.LBB12_126
# %bb.107:                              # %for.body822
                                        #   in Loop: Header=BB12_106 Depth=1
	movl	$0, -12(%rbp)
.LBB12_108:                             # %for.cond823
                                        #   Parent Loop BB12_106 Depth=1
                                        # =>  This Inner Loop Header: Depth=2
	cmpl	$4, -12(%rbp)
	jge	.LBB12_111
# %bb.109:                              # %for.body826
                                        #   in Loop: Header=BB12_108 Depth=2
	movslq	-16(%rbp), %rax
	shlq	$4, %rax
	leaq	-304(%rbp), %rcx
	addq	%rax, %rcx
	movslq	-12(%rbp), %rax
	movl	(%rcx,%rax,4), %eax
	movslq	-12(%rbp), %rcx
	movl	%eax, -64(%rbp,%rcx,4)
# %bb.110:                              # %for.inc833
                                        #   in Loop: Header=BB12_108 Depth=2
	movl	-12(%rbp), %eax
	addl	$1, %eax
	movl	%eax, -12(%rbp)
	jmp	.LBB12_108
.LBB12_111:                             # %for.end835
                                        #   in Loop: Header=BB12_106 Depth=1
	movl	-64(%rbp), %eax
	addl	-56(%rbp), %eax
	movl	%eax, -96(%rbp)
	movl	-64(%rbp), %eax
	subl	-56(%rbp), %eax
	movl	%eax, -92(%rbp)
	movl	-60(%rbp), %eax
	subl	-52(%rbp), %eax
	movl	%eax, -88(%rbp)
	movl	-60(%rbp), %eax
	addl	-52(%rbp), %eax
	movl	%eax, -84(%rbp)
	movl	$0, -12(%rbp)
.LBB12_112:                             # %for.cond852
                                        #   Parent Loop BB12_106 Depth=1
                                        # =>  This Inner Loop Header: Depth=2
	cmpl	$2, -12(%rbp)
	jge	.LBB12_124
# %bb.113:                              # %for.body855
                                        #   in Loop: Header=BB12_112 Depth=2
	movl	$3, %eax
	subl	-12(%rbp), %eax
	movl	%eax, -32(%rbp)
	cmpl	$4, -104(%rbp)
	jge	.LBB12_118
# %bb.114:                              # %if.then859
                                        #   in Loop: Header=BB12_112 Depth=2
	cmpl	$1, -124(%rbp)
	jne	.LBB12_116
# %bb.115:                              # %if.then862
                                        #   in Loop: Header=BB12_112 Depth=2
	movslq	-12(%rbp), %rax
	movl	-96(%rbp,%rax,4), %ebx
	movslq	-32(%rbp), %rax
	addl	-96(%rbp,%rax,4), %ebx
	movslq	-20(%rbp), %rax
	imulq	$384, %rax, %rax        # imm = 0x180
	movabsq	$InvLevelScale4x4Chroma_Intra, %rsi
	movq	%rsi, %rcx
	addq	%rax, %rcx
	movslq	-136(%rbp), %rax
	shlq	$6, %rax
	addq	%rax, %rcx
	imull	(%rcx), %ebx
	movl	$3, %eax
	movl	$3, %ecx
	subl	-104(%rbp), %ecx
                                        # kill: def $cl killed $ecx
	movl	$1, %r8d
	movl	$1, %edx
	shll	%cl, %edx
	addl	%edx, %ebx
	movl	$4, %edx
	movl	$4, %ecx
	subl	-104(%rbp), %ecx
                                        # kill: def $cl killed $ecx
	sarl	%cl, %ebx
	addl	$2, %ebx
	sarl	$2, %ebx
	movq	img, %rcx
	addq	$13112, %rcx            # imm = 0x3338
	movl	-16(%rbp), %edi
	shll	$2, %edi
	movslq	%edi, %rdi
	shlq	$6, %rdi
	addq	%rdi, %rcx
	movl	-12(%rbp), %edi
	shll	$2, %edi
	movslq	%edi, %rdi
	movl	%ebx, (%rcx,%rdi,4)
	movslq	-12(%rbp), %rcx
	movl	-96(%rbp,%rcx,4), %ebx
	movslq	-32(%rbp), %rcx
	subl	-96(%rbp,%rcx,4), %ebx
	movslq	-20(%rbp), %rcx
	imulq	$384, %rcx, %rcx        # imm = 0x180
	addq	%rcx, %rsi
	movslq	-136(%rbp), %rcx
	shlq	$6, %rcx
	addq	%rcx, %rsi
	imull	(%rsi), %ebx
	subl	-104(%rbp), %eax
	movl	%eax, %ecx
                                        # kill: def $cl killed $ecx
	shll	%cl, %r8d
	addl	%r8d, %ebx
	subl	-104(%rbp), %edx
	movl	%edx, %ecx
                                        # kill: def $cl killed $ecx
	sarl	%cl, %ebx
	addl	$2, %ebx
	sarl	$2, %ebx
	movq	img, %rax
	addq	$13112, %rax            # imm = 0x3338
	movl	-16(%rbp), %ecx
	shll	$2, %ecx
	movslq	%ecx, %rcx
	shlq	$6, %rcx
	addq	%rcx, %rax
	movl	-32(%rbp), %ecx
	shll	$2, %ecx
	movslq	%ecx, %rcx
	movl	%ebx, (%rax,%rcx,4)
	jmp	.LBB12_117
.LBB12_116:                             # %if.else915
                                        #   in Loop: Header=BB12_112 Depth=2
	movslq	-12(%rbp), %rax
	movl	-96(%rbp,%rax,4), %ebx
	movslq	-32(%rbp), %rax
	addl	-96(%rbp,%rax,4), %ebx
	movslq	-20(%rbp), %rax
	imulq	$384, %rax, %rax        # imm = 0x180
	movabsq	$InvLevelScale4x4Chroma_Inter, %rsi
	movq	%rsi, %rcx
	addq	%rax, %rcx
	movslq	-136(%rbp), %rax
	shlq	$6, %rax
	addq	%rax, %rcx
	imull	(%rcx), %ebx
	movl	$3, %eax
	movl	$3, %ecx
	subl	-104(%rbp), %ecx
                                        # kill: def $cl killed $ecx
	movl	$1, %r8d
	movl	$1, %edx
	shll	%cl, %edx
	addl	%edx, %ebx
	movl	$4, %edx
	movl	$4, %ecx
	subl	-104(%rbp), %ecx
                                        # kill: def $cl killed $ecx
	sarl	%cl, %ebx
	addl	$2, %ebx
	sarl	$2, %ebx
	movq	img, %rcx
	addq	$13112, %rcx            # imm = 0x3338
	movl	-16(%rbp), %edi
	shll	$2, %edi
	movslq	%edi, %rdi
	shlq	$6, %rdi
	addq	%rdi, %rcx
	movl	-12(%rbp), %edi
	shll	$2, %edi
	movslq	%edi, %rdi
	movl	%ebx, (%rcx,%rdi,4)
	movslq	-12(%rbp), %rcx
	movl	-96(%rbp,%rcx,4), %ebx
	movslq	-32(%rbp), %rcx
	subl	-96(%rbp,%rcx,4), %ebx
	movslq	-20(%rbp), %rcx
	imulq	$384, %rcx, %rcx        # imm = 0x180
	addq	%rcx, %rsi
	movslq	-136(%rbp), %rcx
	shlq	$6, %rcx
	addq	%rcx, %rsi
	imull	(%rsi), %ebx
	subl	-104(%rbp), %eax
	movl	%eax, %ecx
                                        # kill: def $cl killed $ecx
	shll	%cl, %r8d
	addl	%r8d, %ebx
	subl	-104(%rbp), %edx
	movl	%edx, %ecx
                                        # kill: def $cl killed $ecx
	sarl	%cl, %ebx
	addl	$2, %ebx
	sarl	$2, %ebx
	movq	img, %rax
	addq	$13112, %rax            # imm = 0x3338
	movl	-16(%rbp), %ecx
	shll	$2, %ecx
	movslq	%ecx, %rcx
	shlq	$6, %rcx
	addq	%rcx, %rax
	movl	-32(%rbp), %ecx
	shll	$2, %ecx
	movslq	%ecx, %rcx
	movl	%ebx, (%rax,%rcx,4)
.LBB12_117:                             # %if.end968
                                        #   in Loop: Header=BB12_112 Depth=2
	jmp	.LBB12_122
.LBB12_118:                             # %if.else969
                                        #   in Loop: Header=BB12_112 Depth=2
	cmpl	$1, -124(%rbp)
	jne	.LBB12_120
# %bb.119:                              # %if.then972
                                        #   in Loop: Header=BB12_112 Depth=2
	movslq	-12(%rbp), %rax
	movl	-96(%rbp,%rax,4), %edx
	movslq	-32(%rbp), %rax
	addl	-96(%rbp,%rax,4), %edx
	movslq	-20(%rbp), %rax
	imulq	$384, %rax, %rcx        # imm = 0x180
	movabsq	$InvLevelScale4x4Chroma_Intra, %rax
	movq	%rax, %rsi
	addq	%rcx, %rsi
	movslq	-136(%rbp), %rcx
	shlq	$6, %rcx
	addq	%rcx, %rsi
	imull	(%rsi), %edx
	movl	-104(%rbp), %ecx
	subl	$4, %ecx
                                        # kill: def $cl killed $ecx
	shll	%cl, %edx
	addl	$2, %edx
	sarl	$2, %edx
	movq	img, %rcx
	addq	$13112, %rcx            # imm = 0x3338
	movl	-16(%rbp), %esi
	shll	$2, %esi
	movslq	%esi, %rsi
	shlq	$6, %rsi
	addq	%rsi, %rcx
	movl	-12(%rbp), %esi
	shll	$2, %esi
	movslq	%esi, %rsi
	movl	%edx, (%rcx,%rsi,4)
	movslq	-12(%rbp), %rcx
	movl	-96(%rbp,%rcx,4), %edx
	movslq	-32(%rbp), %rcx
	subl	-96(%rbp,%rcx,4), %edx
	movslq	-20(%rbp), %rcx
	imulq	$384, %rcx, %rcx        # imm = 0x180
	addq	%rcx, %rax
	movslq	-136(%rbp), %rcx
	shlq	$6, %rcx
	addq	%rcx, %rax
	imull	(%rax), %edx
	movl	-104(%rbp), %ecx
	subl	$4, %ecx
                                        # kill: def $cl killed $ecx
	shll	%cl, %edx
	addl	$2, %edx
	sarl	$2, %edx
	movq	img, %rax
	addq	$13112, %rax            # imm = 0x3338
	movl	-16(%rbp), %ecx
	shll	$2, %ecx
	movslq	%ecx, %rcx
	shlq	$6, %rcx
	addq	%rcx, %rax
	movl	-32(%rbp), %ecx
	shll	$2, %ecx
	movslq	%ecx, %rcx
	movl	%edx, (%rax,%rcx,4)
	jmp	.LBB12_121
.LBB12_120:                             # %if.else1019
                                        #   in Loop: Header=BB12_112 Depth=2
	movslq	-12(%rbp), %rax
	movl	-96(%rbp,%rax,4), %edx
	movslq	-32(%rbp), %rax
	addl	-96(%rbp,%rax,4), %edx
	movslq	-20(%rbp), %rax
	imulq	$384, %rax, %rcx        # imm = 0x180
	movabsq	$InvLevelScale4x4Chroma_Inter, %rax
	movq	%rax, %rsi
	addq	%rcx, %rsi
	movslq	-136(%rbp), %rcx
	shlq	$6, %rcx
	addq	%rcx, %rsi
	imull	(%rsi), %edx
	movl	-104(%rbp), %ecx
	subl	$4, %ecx
                                        # kill: def $cl killed $ecx
	shll	%cl, %edx
	addl	$2, %edx
	sarl	$2, %edx
	movq	img, %rcx
	addq	$13112, %rcx            # imm = 0x3338
	movl	-16(%rbp), %esi
	shll	$2, %esi
	movslq	%esi, %rsi
	shlq	$6, %rsi
	addq	%rsi, %rcx
	movl	-12(%rbp), %esi
	shll	$2, %esi
	movslq	%esi, %rsi
	movl	%edx, (%rcx,%rsi,4)
	movslq	-12(%rbp), %rcx
	movl	-96(%rbp,%rcx,4), %edx
	movslq	-32(%rbp), %rcx
	subl	-96(%rbp,%rcx,4), %edx
	movslq	-20(%rbp), %rcx
	imulq	$384, %rcx, %rcx        # imm = 0x180
	addq	%rcx, %rax
	movslq	-136(%rbp), %rcx
	shlq	$6, %rcx
	addq	%rcx, %rax
	imull	(%rax), %edx
	movl	-104(%rbp), %ecx
	subl	$4, %ecx
                                        # kill: def $cl killed $ecx
	shll	%cl, %edx
	addl	$2, %edx
	sarl	$2, %edx
	movq	img, %rax
	addq	$13112, %rax            # imm = 0x3338
	movl	-16(%rbp), %ecx
	shll	$2, %ecx
	movslq	%ecx, %rcx
	shlq	$6, %rcx
	addq	%rcx, %rax
	movl	-32(%rbp), %ecx
	shll	$2, %ecx
	movslq	%ecx, %rcx
	movl	%edx, (%rax,%rcx,4)
.LBB12_121:                             # %if.end1066
                                        #   in Loop: Header=BB12_112 Depth=2
	jmp	.LBB12_122
.LBB12_122:                             # %if.end1067
                                        #   in Loop: Header=BB12_112 Depth=2
	jmp	.LBB12_123
.LBB12_123:                             # %for.inc1068
                                        #   in Loop: Header=BB12_112 Depth=2
	movl	-12(%rbp), %eax
	addl	$1, %eax
	movl	%eax, -12(%rbp)
	jmp	.LBB12_112
.LBB12_124:                             # %for.end1070
                                        #   in Loop: Header=BB12_106 Depth=1
	jmp	.LBB12_125
.LBB12_125:                             # %for.inc1071
                                        #   in Loop: Header=BB12_106 Depth=1
	movl	-16(%rbp), %eax
	addl	$1, %eax
	movl	%eax, -16(%rbp)
	jmp	.LBB12_106
.LBB12_126:                             # %for.end1073
	jmp	.LBB12_212
.LBB12_127:                             # %if.else1074
	cmpl	$3, -144(%rbp)
	jne	.LBB12_211
# %bb.128:                              # %if.then1077
	movl	$0, -12(%rbp)
.LBB12_129:                             # %for.cond1078
                                        # =>This Loop Header: Depth=1
                                        #     Child Loop BB12_131 Depth 2
	movl	-12(%rbp), %eax
	movq	img, %rcx
	cmpl	72712(%rcx), %eax
	jge	.LBB12_136
# %bb.130:                              # %for.body1082
                                        #   in Loop: Header=BB12_129 Depth=1
	movl	$0, -16(%rbp)
.LBB12_131:                             # %for.cond1083
                                        #   Parent Loop BB12_129 Depth=1
                                        # =>  This Inner Loop Header: Depth=2
	movl	-16(%rbp), %eax
	movq	img, %rcx
	cmpl	72708(%rcx), %eax
	jge	.LBB12_134
# %bb.132:                              # %for.body1087
                                        #   in Loop: Header=BB12_131 Depth=2
	movq	img, %rax
	addq	$13112, %rax            # imm = 0x3338
	movslq	-16(%rbp), %rcx
	shlq	$6, %rcx
	addq	%rcx, %rax
	movslq	-12(%rbp), %rcx
	movl	(%rax,%rcx,4), %eax
	movl	-16(%rbp), %ecx
	sarl	$2, %ecx
	movslq	%ecx, %rcx
	shlq	$4, %rcx
	leaq	-304(%rbp), %rdx
	addq	%rcx, %rdx
	movl	-12(%rbp), %ecx
	sarl	$2, %ecx
	movslq	%ecx, %rcx
	movl	%eax, (%rdx,%rcx,4)
# %bb.133:                              # %for.inc1099
                                        #   in Loop: Header=BB12_131 Depth=2
	movl	-16(%rbp), %eax
	addl	$4, %eax
	movl	%eax, -16(%rbp)
	jmp	.LBB12_131
.LBB12_134:                             # %for.end1101
                                        #   in Loop: Header=BB12_129 Depth=1
	jmp	.LBB12_135
.LBB12_135:                             # %for.inc1102
                                        #   in Loop: Header=BB12_129 Depth=1
	movl	-12(%rbp), %eax
	addl	$4, %eax
	movl	%eax, -12(%rbp)
	jmp	.LBB12_129
.LBB12_136:                             # %for.end1104
	movl	$0, -12(%rbp)
.LBB12_137:                             # %for.cond1105
                                        # =>This Loop Header: Depth=1
                                        #     Child Loop BB12_141 Depth 2
	xorl	%eax, %eax
	cmpl	$4, -12(%rbp)
	jge	.LBB12_139
# %bb.138:                              # %land.rhs1108
                                        #   in Loop: Header=BB12_137 Depth=1
	cmpl	$0, -108(%rbp)
	setne	%al
	xorb	$-1, %al
.LBB12_139:                             # %land.end1111
                                        #   in Loop: Header=BB12_137 Depth=1
	testb	$1, %al
	jne	.LBB12_140
	jmp	.LBB12_146
.LBB12_140:                             # %for.body1113
                                        #   in Loop: Header=BB12_137 Depth=1
	movl	$0, -16(%rbp)
.LBB12_141:                             # %for.cond1114
                                        #   Parent Loop BB12_137 Depth=1
                                        # =>  This Inner Loop Header: Depth=2
	cmpl	$2, -16(%rbp)
	jge	.LBB12_144
# %bb.142:                              # %for.body1117
                                        #   in Loop: Header=BB12_141 Depth=2
	movl	$3, %eax
	subl	-16(%rbp), %eax
	movl	%eax, -120(%rbp)
	movslq	-16(%rbp), %rax
	shlq	$4, %rax
	leaq	-304(%rbp), %rcx
	movq	%rcx, %rdx
	addq	%rax, %rdx
	movslq	-12(%rbp), %rax
	movl	(%rdx,%rax,4), %eax
	movslq	-120(%rbp), %rdx
	shlq	$4, %rdx
	movq	%rcx, %rsi
	addq	%rdx, %rsi
	movslq	-12(%rbp), %rdx
	addl	(%rsi,%rdx,4), %eax
	movslq	-16(%rbp), %rdx
	movl	%eax, -64(%rbp,%rdx,4)
	movslq	-16(%rbp), %rax
	shlq	$4, %rax
	movq	%rcx, %rdx
	addq	%rax, %rdx
	movslq	-12(%rbp), %rax
	movl	(%rdx,%rax,4), %eax
	movslq	-120(%rbp), %rdx
	shlq	$4, %rdx
	addq	%rdx, %rcx
	movslq	-12(%rbp), %rdx
	subl	(%rcx,%rdx,4), %eax
	movslq	-120(%rbp), %rcx
	movl	%eax, -64(%rbp,%rcx,4)
# %bb.143:                              # %for.inc1141
                                        #   in Loop: Header=BB12_141 Depth=2
	movl	-16(%rbp), %eax
	addl	$1, %eax
	movl	%eax, -16(%rbp)
	jmp	.LBB12_141
.LBB12_144:                             # %for.end1143
                                        #   in Loop: Header=BB12_137 Depth=1
	movl	-64(%rbp), %eax
	addl	-60(%rbp), %eax
	movslq	-12(%rbp), %rcx
	movl	%eax, -304(%rbp,%rcx,4)
	movl	-64(%rbp), %eax
	subl	-60(%rbp), %eax
	movslq	-12(%rbp), %rcx
	movl	%eax, -272(%rbp,%rcx,4)
	movl	-52(%rbp), %eax
	addl	-56(%rbp), %eax
	movslq	-12(%rbp), %rcx
	movl	%eax, -288(%rbp,%rcx,4)
	movl	-52(%rbp), %eax
	subl	-56(%rbp), %eax
	movslq	-12(%rbp), %rcx
	movl	%eax, -256(%rbp,%rcx,4)
# %bb.145:                              # %for.inc1168
                                        #   in Loop: Header=BB12_137 Depth=1
	movl	-12(%rbp), %eax
	addl	$1, %eax
	movl	%eax, -12(%rbp)
	jmp	.LBB12_137
.LBB12_146:                             # %for.end1170
	movl	$0, -16(%rbp)
.LBB12_147:                             # %for.cond1171
                                        # =>This Loop Header: Depth=1
                                        #     Child Loop BB12_151 Depth 2
	xorl	%eax, %eax
	cmpl	$4, -16(%rbp)
	jge	.LBB12_149
# %bb.148:                              # %land.rhs1174
                                        #   in Loop: Header=BB12_147 Depth=1
	cmpl	$0, -108(%rbp)
	setne	%al
	xorb	$-1, %al
.LBB12_149:                             # %land.end1177
                                        #   in Loop: Header=BB12_147 Depth=1
	testb	$1, %al
	jne	.LBB12_150
	jmp	.LBB12_156
.LBB12_150:                             # %for.body1179
                                        #   in Loop: Header=BB12_147 Depth=1
	movl	$0, -12(%rbp)
.LBB12_151:                             # %for.cond1180
                                        #   Parent Loop BB12_147 Depth=1
                                        # =>  This Inner Loop Header: Depth=2
	cmpl	$2, -12(%rbp)
	jge	.LBB12_154
# %bb.152:                              # %for.body1183
                                        #   in Loop: Header=BB12_151 Depth=2
	movl	$3, %eax
	subl	-12(%rbp), %eax
	movl	%eax, -32(%rbp)
	movslq	-16(%rbp), %rax
	shlq	$4, %rax
	leaq	-304(%rbp), %rcx
	movq	%rcx, %rdx
	addq	%rax, %rdx
	movslq	-12(%rbp), %rax
	movl	(%rdx,%rax,4), %eax
	movslq	-16(%rbp), %rdx
	shlq	$4, %rdx
	movq	%rcx, %rsi
	addq	%rdx, %rsi
	movslq	-32(%rbp), %rdx
	addl	(%rsi,%rdx,4), %eax
	movslq	-12(%rbp), %rdx
	movl	%eax, -64(%rbp,%rdx,4)
	movslq	-16(%rbp), %rax
	shlq	$4, %rax
	movq	%rcx, %rdx
	addq	%rax, %rdx
	movslq	-12(%rbp), %rax
	movl	(%rdx,%rax,4), %eax
	movslq	-16(%rbp), %rdx
	shlq	$4, %rdx
	addq	%rdx, %rcx
	movslq	-32(%rbp), %rdx
	subl	(%rcx,%rdx,4), %eax
	movslq	-32(%rbp), %rcx
	movl	%eax, -64(%rbp,%rcx,4)
# %bb.153:                              # %for.inc1207
                                        #   in Loop: Header=BB12_151 Depth=2
	movl	-12(%rbp), %eax
	addl	$1, %eax
	movl	%eax, -12(%rbp)
	jmp	.LBB12_151
.LBB12_154:                             # %for.end1209
                                        #   in Loop: Header=BB12_147 Depth=1
	movl	-64(%rbp), %ecx
	addl	-60(%rbp), %ecx
	sarl	$1, %ecx
	movslq	-16(%rbp), %rdx
	shlq	$4, %rdx
	leaq	-304(%rbp), %rax
	movq	%rax, %rsi
	addq	%rdx, %rsi
	movl	%ecx, (%rsi)
	movl	-64(%rbp), %ecx
	subl	-60(%rbp), %ecx
	sarl	$1, %ecx
	movslq	-16(%rbp), %rdx
	shlq	$4, %rdx
	movq	%rax, %rsi
	addq	%rdx, %rsi
	movl	%ecx, 8(%rsi)
	movl	-52(%rbp), %ecx
	addl	-56(%rbp), %ecx
	sarl	$1, %ecx
	movslq	-16(%rbp), %rdx
	shlq	$4, %rdx
	movq	%rax, %rsi
	addq	%rdx, %rsi
	movl	%ecx, 4(%rsi)
	movl	-52(%rbp), %ecx
	subl	-56(%rbp), %ecx
	sarl	$1, %ecx
	movslq	-16(%rbp), %rdx
	shlq	$4, %rdx
	addq	%rdx, %rax
	movl	%ecx, 12(%rax)
# %bb.155:                              # %for.inc1238
                                        #   in Loop: Header=BB12_147 Depth=1
	movl	-16(%rbp), %eax
	addl	$1, %eax
	movl	%eax, -16(%rbp)
	jmp	.LBB12_147
.LBB12_156:                             # %for.end1240
	movl	$-1, -100(%rbp)
	movl	$0, -72(%rbp)
	movl	$0, -36(%rbp)
.LBB12_157:                             # %for.cond1241
                                        # =>This Inner Loop Header: Depth=1
	cmpl	$16, -36(%rbp)
	jge	.LBB12_173
# %bb.158:                              # %for.body1244
                                        #   in Loop: Header=BB12_157 Depth=1
	movslq	-36(%rbp), %rax
	movzbl	SNGL_SCAN(,%rax,2), %eax
	movl	%eax, -16(%rbp)
	movslq	-36(%rbp), %rax
	movzbl	SNGL_SCAN+1(,%rax,2), %eax
	movl	%eax, -12(%rbp)
	movl	-100(%rbp), %eax
	addl	$1, %eax
	movl	%eax, -100(%rbp)
	cmpl	$0, -108(%rbp)
	je	.LBB12_160
# %bb.159:                              # %if.then1255
                                        #   in Loop: Header=BB12_157 Depth=1
	movslq	-16(%rbp), %rax
	shlq	$4, %rax
	leaq	-304(%rbp), %rcx
	addq	%rax, %rcx
	movslq	-12(%rbp), %rax
	movl	(%rcx,%rax,4), %edi
	callq	abs
	movl	%eax, -44(%rbp)
	jmp	.LBB12_164
.LBB12_160:                             # %if.else1261
                                        #   in Loop: Header=BB12_157 Depth=1
	cmpl	$1, -124(%rbp)
	jne	.LBB12_162
# %bb.161:                              # %if.then1264
                                        #   in Loop: Header=BB12_157 Depth=1
	movslq	-16(%rbp), %rax
	shlq	$4, %rax
	leaq	-304(%rbp), %rcx
	addq	%rax, %rcx
	movslq	-12(%rbp), %rax
	movl	(%rcx,%rax,4), %edi
	callq	abs
	movslq	-20(%rbp), %rcx
	imulq	$384, %rcx, %rcx        # imm = 0x180
	movabsq	$LevelScale4x4Chroma_Intra, %rdx
	addq	%rcx, %rdx
	movslq	-76(%rbp), %rcx
	shlq	$6, %rcx
	addq	%rcx, %rdx
	imull	(%rdx), %eax
	movslq	-20(%rbp), %rcx
	imulq	$832, %rcx, %rcx        # imm = 0x340
	movabsq	$LevelOffset4x4Chroma_Intra, %rdx
	addq	%rcx, %rdx
	movslq	-40(%rbp), %rcx
	shlq	$6, %rcx
	addq	%rcx, %rdx
	movl	(%rdx), %ecx
	shll	$1, %ecx
	addl	%ecx, %eax
	movl	-180(%rbp), %ecx
	addl	$1, %ecx
                                        # kill: def $cl killed $ecx
	sarl	%cl, %eax
	movl	%eax, -44(%rbp)
	jmp	.LBB12_163
.LBB12_162:                             # %if.else1287
                                        #   in Loop: Header=BB12_157 Depth=1
	movslq	-16(%rbp), %rax
	shlq	$4, %rax
	leaq	-304(%rbp), %rcx
	addq	%rax, %rcx
	movslq	-12(%rbp), %rax
	movl	(%rcx,%rax,4), %edi
	callq	abs
	movslq	-20(%rbp), %rcx
	imulq	$384, %rcx, %rcx        # imm = 0x180
	movabsq	$LevelScale4x4Chroma_Inter, %rdx
	addq	%rcx, %rdx
	movslq	-76(%rbp), %rcx
	shlq	$6, %rcx
	addq	%rcx, %rdx
	imull	(%rdx), %eax
	movslq	-20(%rbp), %rcx
	imulq	$832, %rcx, %rcx        # imm = 0x340
	movabsq	$LevelOffset4x4Chroma_Inter, %rdx
	addq	%rcx, %rdx
	movslq	-40(%rbp), %rcx
	shlq	$6, %rcx
	addq	%rcx, %rdx
	movl	(%rdx), %ecx
	shll	$1, %ecx
	addl	%ecx, %eax
	movl	-180(%rbp), %ecx
	addl	$1, %ecx
                                        # kill: def $cl killed $ecx
	sarl	%cl, %eax
	movl	%eax, -44(%rbp)
.LBB12_163:                             # %if.end1310
                                        #   in Loop: Header=BB12_157 Depth=1
	jmp	.LBB12_164
.LBB12_164:                             # %if.end1311
                                        #   in Loop: Header=BB12_157 Depth=1
	cmpl	$0, -44(%rbp)
	je	.LBB12_169
# %bb.165:                              # %if.then1314
                                        #   in Loop: Header=BB12_157 Depth=1
	movl	-20(%rbp), %eax
	shll	$4, %eax
	movl	%eax, %ecx
                                        # kill: def $cl killed $rcx
	movl	$4294901760, %eax       # imm = 0xFFFF0000
	shlq	%cl, %rax
	movq	-192(%rbp), %rcx
	orq	464(%rcx), %rax
	movq	%rax, 464(%rcx)
	movl	$1, %eax
	cmpl	-132(%rbp), %eax
	jle	.LBB12_167
# %bb.166:                              # %cond.true1321
                                        #   in Loop: Header=BB12_157 Depth=1
	movl	$1, %eax
	jmp	.LBB12_168
.LBB12_167:                             # %cond.false1322
                                        #   in Loop: Header=BB12_157 Depth=1
	movl	-132(%rbp), %eax
.LBB12_168:                             # %cond.end1323
                                        #   in Loop: Header=BB12_157 Depth=1
	movl	%eax, -132(%rbp)
	movl	$1, -204(%rbp)
	movl	-44(%rbp), %edi
	movslq	-16(%rbp), %rax
	shlq	$4, %rax
	leaq	-304(%rbp), %rcx
	addq	%rax, %rcx
	movslq	-12(%rbp), %rax
	movl	(%rcx,%rax,4), %esi
	callq	sign
	movq	-224(%rbp), %rcx
	movslq	-72(%rbp), %rdx
	movl	%eax, (%rcx,%rdx,4)
	movl	-100(%rbp), %eax
	movq	-376(%rbp), %rcx
	movslq	-72(%rbp), %rdx
	movl	%eax, (%rcx,%rdx,4)
	movl	-72(%rbp), %eax
	addl	$1, %eax
	movl	%eax, -72(%rbp)
	movl	$-1, -100(%rbp)
.LBB12_169:                             # %if.end1335
                                        #   in Loop: Header=BB12_157 Depth=1
	cmpl	$0, -108(%rbp)
	jne	.LBB12_171
# %bb.170:                              # %if.then1337
                                        #   in Loop: Header=BB12_157 Depth=1
	movl	-44(%rbp), %edi
	movslq	-16(%rbp), %rax
	shlq	$4, %rax
	leaq	-304(%rbp), %rcx
	addq	%rax, %rcx
	movslq	-12(%rbp), %rax
	movl	(%rcx,%rax,4), %esi
	callq	sign
	movslq	-16(%rbp), %rcx
	shlq	$4, %rcx
	leaq	-304(%rbp), %rdx
	addq	%rcx, %rdx
	movslq	-12(%rbp), %rcx
	movl	%eax, (%rdx,%rcx,4)
.LBB12_171:                             # %if.end1347
                                        #   in Loop: Header=BB12_157 Depth=1
	jmp	.LBB12_172
.LBB12_172:                             # %for.inc1348
                                        #   in Loop: Header=BB12_157 Depth=1
	movl	-36(%rbp), %eax
	addl	$1, %eax
	movl	%eax, -36(%rbp)
	jmp	.LBB12_157
.LBB12_173:                             # %for.end1350
	movq	-224(%rbp), %rax
	movslq	-72(%rbp), %rcx
	movl	$0, (%rax,%rcx,4)
	movl	$0, -12(%rbp)
.LBB12_174:                             # %for.cond1353
                                        # =>This Loop Header: Depth=1
                                        #     Child Loop BB12_178 Depth 2
                                        #     Child Loop BB12_182 Depth 2
	xorl	%eax, %eax
	cmpl	$4, -12(%rbp)
	jge	.LBB12_176
# %bb.175:                              # %land.rhs1356
                                        #   in Loop: Header=BB12_174 Depth=1
	cmpl	$0, -108(%rbp)
	setne	%al
	xorb	$-1, %al
.LBB12_176:                             # %land.end1359
                                        #   in Loop: Header=BB12_174 Depth=1
	testb	$1, %al
	jne	.LBB12_177
	jmp	.LBB12_187
.LBB12_177:                             # %for.body1361
                                        #   in Loop: Header=BB12_174 Depth=1
	movl	$0, -16(%rbp)
.LBB12_178:                             # %for.cond1362
                                        #   Parent Loop BB12_174 Depth=1
                                        # =>  This Inner Loop Header: Depth=2
	cmpl	$4, -16(%rbp)
	jge	.LBB12_181
# %bb.179:                              # %for.body1365
                                        #   in Loop: Header=BB12_178 Depth=2
	movslq	-16(%rbp), %rax
	shlq	$4, %rax
	leaq	-304(%rbp), %rcx
	addq	%rax, %rcx
	movslq	-12(%rbp), %rax
	movl	(%rcx,%rax,4), %eax
	movslq	-16(%rbp), %rcx
	movl	%eax, -64(%rbp,%rcx,4)
# %bb.180:                              # %for.inc1372
                                        #   in Loop: Header=BB12_178 Depth=2
	movl	-16(%rbp), %eax
	addl	$1, %eax
	movl	%eax, -16(%rbp)
	jmp	.LBB12_178
.LBB12_181:                             # %for.end1374
                                        #   in Loop: Header=BB12_174 Depth=1
	movl	-64(%rbp), %eax
	addl	-56(%rbp), %eax
	movl	%eax, -96(%rbp)
	movl	-64(%rbp), %eax
	subl	-56(%rbp), %eax
	movl	%eax, -92(%rbp)
	movl	-60(%rbp), %eax
	subl	-52(%rbp), %eax
	movl	%eax, -88(%rbp)
	movl	-60(%rbp), %eax
	addl	-52(%rbp), %eax
	movl	%eax, -84(%rbp)
	movl	$0, -16(%rbp)
.LBB12_182:                             # %for.cond1391
                                        #   Parent Loop BB12_174 Depth=1
                                        # =>  This Inner Loop Header: Depth=2
	cmpl	$2, -16(%rbp)
	jge	.LBB12_185
# %bb.183:                              # %for.body1394
                                        #   in Loop: Header=BB12_182 Depth=2
	movl	$3, %eax
	subl	-16(%rbp), %eax
	movl	%eax, -120(%rbp)
	movslq	-16(%rbp), %rax
	movl	-96(%rbp,%rax,4), %eax
	movslq	-120(%rbp), %rcx
	addl	-96(%rbp,%rcx,4), %eax
	movslq	-16(%rbp), %rcx
	shlq	$4, %rcx
	leaq	-304(%rbp), %rdx
	movq	%rdx, %rsi
	addq	%rcx, %rsi
	movslq	-12(%rbp), %rcx
	movl	%eax, (%rsi,%rcx,4)
	movslq	-16(%rbp), %rax
	movl	-96(%rbp,%rax,4), %eax
	movslq	-120(%rbp), %rcx
	subl	-96(%rbp,%rcx,4), %eax
	movslq	-120(%rbp), %rcx
	shlq	$4, %rcx
	addq	%rcx, %rdx
	movslq	-12(%rbp), %rcx
	movl	%eax, (%rdx,%rcx,4)
# %bb.184:                              # %for.inc1414
                                        #   in Loop: Header=BB12_182 Depth=2
	movl	-16(%rbp), %eax
	addl	$1, %eax
	movl	%eax, -16(%rbp)
	jmp	.LBB12_182
.LBB12_185:                             # %for.end1416
                                        #   in Loop: Header=BB12_174 Depth=1
	jmp	.LBB12_186
.LBB12_186:                             # %for.inc1417
                                        #   in Loop: Header=BB12_174 Depth=1
	movl	-12(%rbp), %eax
	addl	$1, %eax
	movl	%eax, -12(%rbp)
	jmp	.LBB12_174
.LBB12_187:                             # %for.end1419
	movl	$0, -16(%rbp)
.LBB12_188:                             # %for.cond1420
                                        # =>This Loop Header: Depth=1
                                        #     Child Loop BB12_192 Depth 2
                                        #     Child Loop BB12_196 Depth 2
	xorl	%eax, %eax
	cmpl	$4, -16(%rbp)
	jge	.LBB12_190
# %bb.189:                              # %land.rhs1423
                                        #   in Loop: Header=BB12_188 Depth=1
	cmpl	$0, -108(%rbp)
	setne	%al
	xorb	$-1, %al
.LBB12_190:                             # %land.end1426
                                        #   in Loop: Header=BB12_188 Depth=1
	testb	$1, %al
	jne	.LBB12_191
	jmp	.LBB12_210
.LBB12_191:                             # %for.body1428
                                        #   in Loop: Header=BB12_188 Depth=1
	movl	$0, -12(%rbp)
.LBB12_192:                             # %for.cond1429
                                        #   Parent Loop BB12_188 Depth=1
                                        # =>  This Inner Loop Header: Depth=2
	cmpl	$4, -12(%rbp)
	jge	.LBB12_195
# %bb.193:                              # %for.body1432
                                        #   in Loop: Header=BB12_192 Depth=2
	movslq	-16(%rbp), %rax
	shlq	$4, %rax
	leaq	-304(%rbp), %rcx
	addq	%rax, %rcx
	movslq	-12(%rbp), %rax
	movl	(%rcx,%rax,4), %eax
	movslq	-12(%rbp), %rcx
	movl	%eax, -64(%rbp,%rcx,4)
# %bb.194:                              # %for.inc1439
                                        #   in Loop: Header=BB12_192 Depth=2
	movl	-12(%rbp), %eax
	addl	$1, %eax
	movl	%eax, -12(%rbp)
	jmp	.LBB12_192
.LBB12_195:                             # %for.end1441
                                        #   in Loop: Header=BB12_188 Depth=1
	movl	-64(%rbp), %eax
	addl	-56(%rbp), %eax
	movl	%eax, -96(%rbp)
	movl	-64(%rbp), %eax
	subl	-56(%rbp), %eax
	movl	%eax, -92(%rbp)
	movl	-60(%rbp), %eax
	subl	-52(%rbp), %eax
	movl	%eax, -88(%rbp)
	movl	-60(%rbp), %eax
	addl	-52(%rbp), %eax
	movl	%eax, -84(%rbp)
	movl	$0, -12(%rbp)
.LBB12_196:                             # %for.cond1458
                                        #   Parent Loop BB12_188 Depth=1
                                        # =>  This Inner Loop Header: Depth=2
	cmpl	$2, -12(%rbp)
	jge	.LBB12_208
# %bb.197:                              # %for.body1461
                                        #   in Loop: Header=BB12_196 Depth=2
	movl	$3, %eax
	subl	-12(%rbp), %eax
	movl	%eax, -32(%rbp)
	cmpl	$4, -40(%rbp)
	jge	.LBB12_202
# %bb.198:                              # %if.then1465
                                        #   in Loop: Header=BB12_196 Depth=2
	cmpl	$1, -124(%rbp)
	jne	.LBB12_200
# %bb.199:                              # %if.then1468
                                        #   in Loop: Header=BB12_196 Depth=2
	movslq	-12(%rbp), %rax
	movl	-96(%rbp,%rax,4), %ebx
	movslq	-32(%rbp), %rax
	addl	-96(%rbp,%rax,4), %ebx
	movslq	-20(%rbp), %rax
	imulq	$384, %rax, %rax        # imm = 0x180
	movabsq	$InvLevelScale4x4Chroma_Intra, %rsi
	movq	%rsi, %rcx
	addq	%rax, %rcx
	movslq	-76(%rbp), %rax
	shlq	$6, %rax
	addq	%rax, %rcx
	imull	(%rcx), %ebx
	movl	$3, %eax
	movl	$3, %ecx
	subl	-40(%rbp), %ecx
                                        # kill: def $cl killed $ecx
	movl	$1, %r8d
	movl	$1, %edx
	shll	%cl, %edx
	addl	%edx, %ebx
	movl	$4, %edx
	movl	$4, %ecx
	subl	-40(%rbp), %ecx
                                        # kill: def $cl killed $ecx
	sarl	%cl, %ebx
	addl	$2, %ebx
	sarl	$2, %ebx
	movq	img, %rcx
	addq	$13112, %rcx            # imm = 0x3338
	movl	-16(%rbp), %edi
	shll	$2, %edi
	movslq	%edi, %rdi
	shlq	$6, %rdi
	addq	%rdi, %rcx
	movl	-12(%rbp), %edi
	shll	$2, %edi
	movslq	%edi, %rdi
	movl	%ebx, (%rcx,%rdi,4)
	movslq	-12(%rbp), %rcx
	movl	-96(%rbp,%rcx,4), %ebx
	movslq	-32(%rbp), %rcx
	subl	-96(%rbp,%rcx,4), %ebx
	movslq	-20(%rbp), %rcx
	imulq	$384, %rcx, %rcx        # imm = 0x180
	addq	%rcx, %rsi
	movslq	-76(%rbp), %rcx
	shlq	$6, %rcx
	addq	%rcx, %rsi
	imull	(%rsi), %ebx
	subl	-40(%rbp), %eax
	movl	%eax, %ecx
                                        # kill: def $cl killed $ecx
	shll	%cl, %r8d
	addl	%r8d, %ebx
	subl	-40(%rbp), %edx
	movl	%edx, %ecx
                                        # kill: def $cl killed $ecx
	sarl	%cl, %ebx
	addl	$2, %ebx
	sarl	$2, %ebx
	movq	img, %rax
	addq	$13112, %rax            # imm = 0x3338
	movl	-16(%rbp), %ecx
	shll	$2, %ecx
	movslq	%ecx, %rcx
	shlq	$6, %rcx
	addq	%rcx, %rax
	movl	-32(%rbp), %ecx
	shll	$2, %ecx
	movslq	%ecx, %rcx
	movl	%ebx, (%rax,%rcx,4)
	jmp	.LBB12_201
.LBB12_200:                             # %if.else1521
                                        #   in Loop: Header=BB12_196 Depth=2
	movslq	-12(%rbp), %rax
	movl	-96(%rbp,%rax,4), %ebx
	movslq	-32(%rbp), %rax
	addl	-96(%rbp,%rax,4), %ebx
	movslq	-20(%rbp), %rax
	imulq	$384, %rax, %rax        # imm = 0x180
	movabsq	$InvLevelScale4x4Chroma_Inter, %rsi
	movq	%rsi, %rcx
	addq	%rax, %rcx
	movslq	-76(%rbp), %rax
	shlq	$6, %rax
	addq	%rax, %rcx
	imull	(%rcx), %ebx
	movl	$3, %eax
	movl	$3, %ecx
	subl	-40(%rbp), %ecx
                                        # kill: def $cl killed $ecx
	movl	$1, %r8d
	movl	$1, %edx
	shll	%cl, %edx
	addl	%edx, %ebx
	movl	$4, %edx
	movl	$4, %ecx
	subl	-40(%rbp), %ecx
                                        # kill: def $cl killed $ecx
	sarl	%cl, %ebx
	addl	$2, %ebx
	sarl	$2, %ebx
	movq	img, %rcx
	addq	$13112, %rcx            # imm = 0x3338
	movl	-16(%rbp), %edi
	shll	$2, %edi
	movslq	%edi, %rdi
	shlq	$6, %rdi
	addq	%rdi, %rcx
	movl	-12(%rbp), %edi
	shll	$2, %edi
	movslq	%edi, %rdi
	movl	%ebx, (%rcx,%rdi,4)
	movslq	-12(%rbp), %rcx
	movl	-96(%rbp,%rcx,4), %ebx
	movslq	-32(%rbp), %rcx
	subl	-96(%rbp,%rcx,4), %ebx
	movslq	-20(%rbp), %rcx
	imulq	$384, %rcx, %rcx        # imm = 0x180
	addq	%rcx, %rsi
	movslq	-76(%rbp), %rcx
	shlq	$6, %rcx
	addq	%rcx, %rsi
	imull	(%rsi), %ebx
	subl	-40(%rbp), %eax
	movl	%eax, %ecx
                                        # kill: def $cl killed $ecx
	shll	%cl, %r8d
	addl	%r8d, %ebx
	subl	-40(%rbp), %edx
	movl	%edx, %ecx
                                        # kill: def $cl killed $ecx
	sarl	%cl, %ebx
	addl	$2, %ebx
	sarl	$2, %ebx
	movq	img, %rax
	addq	$13112, %rax            # imm = 0x3338
	movl	-16(%rbp), %ecx
	shll	$2, %ecx
	movslq	%ecx, %rcx
	shlq	$6, %rcx
	addq	%rcx, %rax
	movl	-32(%rbp), %ecx
	shll	$2, %ecx
	movslq	%ecx, %rcx
	movl	%ebx, (%rax,%rcx,4)
.LBB12_201:                             # %if.end1574
                                        #   in Loop: Header=BB12_196 Depth=2
	jmp	.LBB12_206
.LBB12_202:                             # %if.else1575
                                        #   in Loop: Header=BB12_196 Depth=2
	cmpl	$1, -124(%rbp)
	jne	.LBB12_204
# %bb.203:                              # %if.then1578
                                        #   in Loop: Header=BB12_196 Depth=2
	movslq	-12(%rbp), %rax
	movl	-96(%rbp,%rax,4), %edx
	movslq	-32(%rbp), %rax
	addl	-96(%rbp,%rax,4), %edx
	movslq	-20(%rbp), %rax
	imulq	$384, %rax, %rcx        # imm = 0x180
	movabsq	$InvLevelScale4x4Chroma_Intra, %rax
	movq	%rax, %rsi
	addq	%rcx, %rsi
	movslq	-76(%rbp), %rcx
	shlq	$6, %rcx
	addq	%rcx, %rsi
	imull	(%rsi), %edx
	movl	-40(%rbp), %ecx
	subl	$4, %ecx
                                        # kill: def $cl killed $ecx
	shll	%cl, %edx
	addl	$2, %edx
	sarl	$2, %edx
	movq	img, %rcx
	addq	$13112, %rcx            # imm = 0x3338
	movl	-16(%rbp), %esi
	shll	$2, %esi
	movslq	%esi, %rsi
	shlq	$6, %rsi
	addq	%rsi, %rcx
	movl	-12(%rbp), %esi
	shll	$2, %esi
	movslq	%esi, %rsi
	movl	%edx, (%rcx,%rsi,4)
	movslq	-12(%rbp), %rcx
	movl	-96(%rbp,%rcx,4), %edx
	movslq	-32(%rbp), %rcx
	subl	-96(%rbp,%rcx,4), %edx
	movslq	-20(%rbp), %rcx
	imulq	$384, %rcx, %rcx        # imm = 0x180
	addq	%rcx, %rax
	movslq	-76(%rbp), %rcx
	shlq	$6, %rcx
	addq	%rcx, %rax
	imull	(%rax), %edx
	movl	-40(%rbp), %ecx
	subl	$4, %ecx
                                        # kill: def $cl killed $ecx
	shll	%cl, %edx
	addl	$2, %edx
	sarl	$2, %edx
	movq	img, %rax
	addq	$13112, %rax            # imm = 0x3338
	movl	-16(%rbp), %ecx
	shll	$2, %ecx
	movslq	%ecx, %rcx
	shlq	$6, %rcx
	addq	%rcx, %rax
	movl	-32(%rbp), %ecx
	shll	$2, %ecx
	movslq	%ecx, %rcx
	movl	%edx, (%rax,%rcx,4)
	jmp	.LBB12_205
.LBB12_204:                             # %if.else1625
                                        #   in Loop: Header=BB12_196 Depth=2
	movslq	-12(%rbp), %rax
	movl	-96(%rbp,%rax,4), %edx
	movslq	-32(%rbp), %rax
	addl	-96(%rbp,%rax,4), %edx
	movslq	-20(%rbp), %rax
	imulq	$384, %rax, %rcx        # imm = 0x180
	movabsq	$InvLevelScale4x4Chroma_Inter, %rax
	movq	%rax, %rsi
	addq	%rcx, %rsi
	movslq	-76(%rbp), %rcx
	shlq	$6, %rcx
	addq	%rcx, %rsi
	imull	(%rsi), %edx
	movl	-40(%rbp), %ecx
	subl	$4, %ecx
                                        # kill: def $cl killed $ecx
	shll	%cl, %edx
	addl	$2, %edx
	sarl	$2, %edx
	movq	img, %rcx
	addq	$13112, %rcx            # imm = 0x3338
	movl	-16(%rbp), %esi
	shll	$2, %esi
	movslq	%esi, %rsi
	shlq	$6, %rsi
	addq	%rsi, %rcx
	movl	-12(%rbp), %esi
	shll	$2, %esi
	movslq	%esi, %rsi
	movl	%edx, (%rcx,%rsi,4)
	movslq	-12(%rbp), %rcx
	movl	-96(%rbp,%rcx,4), %edx
	movslq	-32(%rbp), %rcx
	subl	-96(%rbp,%rcx,4), %edx
	movslq	-20(%rbp), %rcx
	imulq	$384, %rcx, %rcx        # imm = 0x180
	addq	%rcx, %rax
	movslq	-76(%rbp), %rcx
	shlq	$6, %rcx
	addq	%rcx, %rax
	imull	(%rax), %edx
	movl	-40(%rbp), %ecx
	subl	$4, %ecx
                                        # kill: def $cl killed $ecx
	shll	%cl, %edx
	addl	$2, %edx
	sarl	$2, %edx
	movq	img, %rax
	addq	$13112, %rax            # imm = 0x3338
	movl	-16(%rbp), %ecx
	shll	$2, %ecx
	movslq	%ecx, %rcx
	shlq	$6, %rcx
	addq	%rcx, %rax
	movl	-32(%rbp), %ecx
	shll	$2, %ecx
	movslq	%ecx, %rcx
	movl	%edx, (%rax,%rcx,4)
.LBB12_205:                             # %if.end1672
                                        #   in Loop: Header=BB12_196 Depth=2
	jmp	.LBB12_206
.LBB12_206:                             # %if.end1673
                                        #   in Loop: Header=BB12_196 Depth=2
	jmp	.LBB12_207
.LBB12_207:                             # %for.inc1674
                                        #   in Loop: Header=BB12_196 Depth=2
	movl	-12(%rbp), %eax
	addl	$1, %eax
	movl	%eax, -12(%rbp)
	jmp	.LBB12_196
.LBB12_208:                             # %for.end1676
                                        #   in Loop: Header=BB12_188 Depth=1
	jmp	.LBB12_209
.LBB12_209:                             # %for.inc1677
                                        #   in Loop: Header=BB12_188 Depth=1
	movl	-16(%rbp), %eax
	addl	$1, %eax
	movl	%eax, -16(%rbp)
	jmp	.LBB12_188
.LBB12_210:                             # %for.end1679
	jmp	.LBB12_211
.LBB12_211:                             # %if.end1680
	jmp	.LBB12_212
.LBB12_212:                             # %if.end1681
	jmp	.LBB12_213
.LBB12_213:                             # %if.end1682
	movl	$0, -196(%rbp)
	movl	$0, -208(%rbp)
	movl	$0, -116(%rbp)
.LBB12_214:                             # %for.cond1683
                                        # =>This Loop Header: Depth=1
                                        #     Child Loop BB12_216 Depth 2
                                        #       Child Loop BB12_218 Depth 3
	movl	-116(%rbp), %ecx
	movq	img, %rax
	movl	72692(%rax), %eax
	cltd
	movl	$2, %esi
	idivl	%esi
	cmpl	%eax, %ecx
	jge	.LBB12_256
# %bb.215:                              # %for.body1688
                                        #   in Loop: Header=BB12_214 Depth=1
	movl	$0, -112(%rbp)
.LBB12_216:                             # %for.cond1689
                                        #   Parent Loop BB12_214 Depth=1
                                        # =>  This Loop Header: Depth=2
                                        #       Child Loop BB12_218 Depth 3
	cmpl	$4, -112(%rbp)
	jge	.LBB12_254
# %bb.217:                              # %for.body1692
                                        #   in Loop: Header=BB12_216 Depth=2
	movslq	-144(%rbp), %rax
	shlq	$4, %rax
	movabsq	$hor_offset, %rcx
	addq	%rax, %rcx
	movslq	-116(%rbp), %rax
	shlq	$2, %rax
	addq	%rax, %rcx
	movslq	-112(%rbp), %rax
	movzbl	(%rcx,%rax), %eax
	movl	%eax, -28(%rbp)
	movslq	-144(%rbp), %rax
	shlq	$4, %rax
	movabsq	$ver_offset, %rcx
	addq	%rax, %rcx
	movslq	-116(%rbp), %rax
	shlq	$2, %rax
	addq	%rax, %rcx
	movslq	-112(%rbp), %rax
	movzbl	(%rcx,%rax), %eax
	movl	%eax, -24(%rbp)
	movq	img, %rax
	movq	14136(%rax), %rax
	movl	-116(%rbp), %ecx
	addl	$4, %ecx
	addl	-200(%rbp), %ecx
	movslq	%ecx, %rcx
	movq	(%rax,%rcx,8), %rax
	movslq	-112(%rbp), %rcx
	movq	(%rax,%rcx,8), %rax
	movq	(%rax), %rax
	movq	%rax, -232(%rbp)
	movq	img, %rax
	movq	14136(%rax), %rax
	movl	-116(%rbp), %ecx
	addl	$4, %ecx
	addl	-200(%rbp), %ecx
	movslq	%ecx, %rcx
	movq	(%rax,%rcx,8), %rax
	movslq	-112(%rbp), %rcx
	movq	(%rax,%rcx,8), %rax
	movq	8(%rax), %rax
	movq	%rax, -392(%rbp)
	movl	$-1, -100(%rbp)
	movl	$0, -72(%rbp)
	movl	$1, -36(%rbp)
.LBB12_218:                             # %for.cond1722
                                        #   Parent Loop BB12_214 Depth=1
                                        #     Parent Loop BB12_216 Depth=2
                                        # =>    This Inner Loop Header: Depth=3
	cmpl	$16, -36(%rbp)
	jge	.LBB12_252
# %bb.219:                              # %for.body1725
                                        #   in Loop: Header=BB12_218 Depth=3
	movq	img, %rax
	cmpl	$0, 72444(%rax)
	jne	.LBB12_222
# %bb.220:                              # %lor.lhs.false1727
                                        #   in Loop: Header=BB12_218 Depth=3
	movq	img, %rax
	cmpl	$0, 72400(%rax)
	je	.LBB12_223
# %bb.221:                              # %land.lhs.true1729
                                        #   in Loop: Header=BB12_218 Depth=3
	movq	-192(%rbp), %rax
	cmpl	$0, 532(%rax)
	je	.LBB12_223
.LBB12_222:                             # %if.then1731
                                        #   in Loop: Header=BB12_218 Depth=3
	movslq	-36(%rbp), %rax
	movzbl	FIELD_SCAN(,%rax,2), %eax
	movl	%eax, -16(%rbp)
	movslq	-36(%rbp), %rax
	movzbl	FIELD_SCAN+1(,%rax,2), %eax
	movl	%eax, -12(%rbp)
	jmp	.LBB12_224
.LBB12_223:                             # %if.else1740
                                        #   in Loop: Header=BB12_218 Depth=3
	movslq	-36(%rbp), %rax
	movzbl	SNGL_SCAN(,%rax,2), %eax
	movl	%eax, -16(%rbp)
	movslq	-36(%rbp), %rax
	movzbl	SNGL_SCAN+1(,%rax,2), %eax
	movl	%eax, -12(%rbp)
.LBB12_224:                             # %if.end1749
                                        #   in Loop: Header=BB12_218 Depth=3
	movl	-100(%rbp), %eax
	addl	$1, %eax
	movl	%eax, -100(%rbp)
	movl	$0, -140(%rbp)
	cmpl	$0, -108(%rbp)
	je	.LBB12_226
# %bb.225:                              # %if.then1752
                                        #   in Loop: Header=BB12_218 Depth=3
	movq	img, %rax
	addq	$13112, %rax            # imm = 0x3338
	movl	-28(%rbp), %ecx
	addl	-16(%rbp), %ecx
	movslq	%ecx, %rcx
	shlq	$6, %rcx
	addq	%rcx, %rax
	movl	-24(%rbp), %ecx
	addl	-12(%rbp), %ecx
	movslq	%ecx, %rcx
	movl	(%rax,%rcx,4), %edi
	callq	abs
	movl	%eax, -44(%rbp)
	jmp	.LBB12_230
.LBB12_226:                             # %if.else1761
                                        #   in Loop: Header=BB12_218 Depth=3
	cmpl	$1, -124(%rbp)
	jne	.LBB12_228
# %bb.227:                              # %if.then1764
                                        #   in Loop: Header=BB12_218 Depth=3
	movq	img, %rax
	addq	$13112, %rax            # imm = 0x3338
	movl	-28(%rbp), %ecx
	addl	-16(%rbp), %ecx
	movslq	%ecx, %rcx
	shlq	$6, %rcx
	addq	%rcx, %rax
	movl	-24(%rbp), %ecx
	addl	-12(%rbp), %ecx
	movslq	%ecx, %rcx
	movl	(%rax,%rcx,4), %edi
	callq	abs
	movslq	-20(%rbp), %rcx
	imulq	$384, %rcx, %rcx        # imm = 0x180
	movabsq	$LevelScale4x4Chroma_Intra, %rdx
	addq	%rcx, %rdx
	movslq	-76(%rbp), %rcx
	shlq	$6, %rcx
	addq	%rcx, %rdx
	movslq	-16(%rbp), %rcx
	shlq	$4, %rcx
	addq	%rcx, %rdx
	movslq	-12(%rbp), %rcx
	imull	(%rdx,%rcx,4), %eax
	movslq	-20(%rbp), %rcx
	imulq	$832, %rcx, %rcx        # imm = 0x340
	movabsq	$LevelOffset4x4Chroma_Intra, %rdx
	addq	%rcx, %rdx
	movslq	-40(%rbp), %rcx
	shlq	$6, %rcx
	addq	%rcx, %rdx
	movslq	-16(%rbp), %rcx
	shlq	$4, %rcx
	addq	%rcx, %rdx
	movslq	-12(%rbp), %rcx
	addl	(%rdx,%rcx,4), %eax
	movl	-180(%rbp), %ecx
                                        # kill: def $cl killed $ecx
	sarl	%cl, %eax
	movl	%eax, -44(%rbp)
	jmp	.LBB12_229
.LBB12_228:                             # %if.else1792
                                        #   in Loop: Header=BB12_218 Depth=3
	movq	img, %rax
	addq	$13112, %rax            # imm = 0x3338
	movl	-28(%rbp), %ecx
	addl	-16(%rbp), %ecx
	movslq	%ecx, %rcx
	shlq	$6, %rcx
	addq	%rcx, %rax
	movl	-24(%rbp), %ecx
	addl	-12(%rbp), %ecx
	movslq	%ecx, %rcx
	movl	(%rax,%rcx,4), %edi
	callq	abs
	movslq	-20(%rbp), %rcx
	imulq	$384, %rcx, %rcx        # imm = 0x180
	movabsq	$LevelScale4x4Chroma_Inter, %rdx
	addq	%rcx, %rdx
	movslq	-76(%rbp), %rcx
	shlq	$6, %rcx
	addq	%rcx, %rdx
	movslq	-16(%rbp), %rcx
	shlq	$4, %rcx
	addq	%rcx, %rdx
	movslq	-12(%rbp), %rcx
	imull	(%rdx,%rcx,4), %eax
	movslq	-20(%rbp), %rcx
	imulq	$832, %rcx, %rcx        # imm = 0x340
	movabsq	$LevelOffset4x4Chroma_Inter, %rdx
	addq	%rcx, %rdx
	movslq	-40(%rbp), %rcx
	shlq	$6, %rcx
	addq	%rcx, %rdx
	movslq	-16(%rbp), %rcx
	shlq	$4, %rcx
	addq	%rcx, %rdx
	movslq	-12(%rbp), %rcx
	addl	(%rdx,%rcx,4), %eax
	movl	-180(%rbp), %ecx
                                        # kill: def $cl killed $ecx
	sarl	%cl, %eax
	movl	%eax, -44(%rbp)
.LBB12_229:                             # %if.end1820
                                        #   in Loop: Header=BB12_218 Depth=3
	jmp	.LBB12_230
.LBB12_230:                             # %if.end1821
                                        #   in Loop: Header=BB12_218 Depth=3
	cmpl	$0, -44(%rbp)
	je	.LBB12_248
# %bb.231:                              # %if.then1824
                                        #   in Loop: Header=BB12_218 Depth=3
	movl	-116(%rbp), %eax
	addl	-200(%rbp), %eax
	cltq
	shlq	$2, %rax
	movabsq	$cbp_blk_chroma, %rcx
	addq	%rax, %rcx
	movslq	-112(%rbp), %rax
	movzbl	(%rcx,%rax), %eax
	movl	%eax, %ecx
                                        # kill: def $cl killed $rcx
	movl	$1, %eax
	shlq	%cl, %rax
	movq	-192(%rbp), %rcx
	orq	464(%rcx), %rax
	movq	%rax, 464(%rcx)
	cmpl	$1, -44(%rbp)
	jg	.LBB12_233
# %bb.232:                              # %lor.lhs.false1837
                                        #   in Loop: Header=BB12_218 Depth=3
	cmpl	$0, -108(%rbp)
	je	.LBB12_234
.LBB12_233:                             # %if.then1839
                                        #   in Loop: Header=BB12_218 Depth=3
	movl	-196(%rbp), %eax
	addl	$999999, %eax           # imm = 0xF423F
	movl	%eax, -196(%rbp)
	jmp	.LBB12_235
.LBB12_234:                             # %if.else1841
                                        #   in Loop: Header=BB12_218 Depth=3
	movabsq	$COEFF_COST, %rax
	movq	input, %rcx
	movslq	2468(%rcx), %rcx
	shlq	$4, %rcx
	addq	%rcx, %rax
	movslq	-100(%rbp), %rcx
	movzbl	(%rax,%rcx), %eax
	addl	-196(%rbp), %eax
	movl	%eax, -196(%rbp)
.LBB12_235:                             # %if.end1848
                                        #   in Loop: Header=BB12_218 Depth=3
	movl	$2, -208(%rbp)
	movl	-44(%rbp), %edi
	movq	img, %rax
	addq	$13112, %rax            # imm = 0x3338
	movl	-28(%rbp), %ecx
	addl	-16(%rbp), %ecx
	movslq	%ecx, %rcx
	shlq	$6, %rcx
	addq	%rcx, %rax
	movl	-24(%rbp), %ecx
	addl	-12(%rbp), %ecx
	movslq	%ecx, %rcx
	movl	(%rax,%rcx,4), %esi
	callq	sign
	movq	-232(%rbp), %rcx
	movslq	-72(%rbp), %rdx
	movl	%eax, (%rcx,%rdx,4)
	movl	-100(%rbp), %eax
	movq	-392(%rbp), %rcx
	movslq	-72(%rbp), %rdx
	movl	%eax, (%rcx,%rdx,4)
	movl	-72(%rbp), %eax
	addl	$1, %eax
	movl	%eax, -72(%rbp)
	movl	$-1, -100(%rbp)
	movl	-44(%rbp), %edi
	movq	img, %rax
	addq	$13112, %rax            # imm = 0x3338
	movl	-28(%rbp), %ecx
	addl	-16(%rbp), %ecx
	movslq	%ecx, %rcx
	shlq	$6, %rcx
	addq	%rcx, %rax
	movl	-24(%rbp), %ecx
	addl	-12(%rbp), %ecx
	movslq	%ecx, %rcx
	movl	(%rax,%rcx,4), %esi
	callq	sign
	movl	%eax, -44(%rbp)
	cmpl	$0, -108(%rbp)
	je	.LBB12_237
# %bb.236:                              # %if.then1871
                                        #   in Loop: Header=BB12_218 Depth=3
	movl	-44(%rbp), %eax
	movl	%eax, -140(%rbp)
	jmp	.LBB12_247
.LBB12_237:                             # %if.else1872
                                        #   in Loop: Header=BB12_218 Depth=3
	cmpl	$4, -40(%rbp)
	jge	.LBB12_242
# %bb.238:                              # %if.then1875
                                        #   in Loop: Header=BB12_218 Depth=3
	cmpl	$1, -124(%rbp)
	jne	.LBB12_240
# %bb.239:                              # %if.then1878
                                        #   in Loop: Header=BB12_218 Depth=3
	movl	-44(%rbp), %eax
	movslq	-20(%rbp), %rcx
	imulq	$384, %rcx, %rcx        # imm = 0x180
	movabsq	$InvLevelScale4x4Chroma_Intra, %rdx
	addq	%rcx, %rdx
	movslq	-76(%rbp), %rcx
	shlq	$6, %rcx
	addq	%rcx, %rdx
	movslq	-16(%rbp), %rcx
	shlq	$4, %rcx
	addq	%rcx, %rdx
	movslq	-12(%rbp), %rcx
	imull	(%rdx,%rcx,4), %eax
	movl	$3, %ecx
	subl	-40(%rbp), %ecx
                                        # kill: def $cl killed $ecx
	movl	$1, %edx
	shll	%cl, %edx
	addl	%edx, %eax
	movl	$4, %ecx
	subl	-40(%rbp), %ecx
                                        # kill: def $cl killed $ecx
	sarl	%cl, %eax
	movl	%eax, -140(%rbp)
	jmp	.LBB12_241
.LBB12_240:                             # %if.else1893
                                        #   in Loop: Header=BB12_218 Depth=3
	movl	-44(%rbp), %eax
	movslq	-20(%rbp), %rcx
	imulq	$384, %rcx, %rcx        # imm = 0x180
	movabsq	$InvLevelScale4x4Chroma_Inter, %rdx
	addq	%rcx, %rdx
	movslq	-76(%rbp), %rcx
	shlq	$6, %rcx
	addq	%rcx, %rdx
	movslq	-16(%rbp), %rcx
	shlq	$4, %rcx
	addq	%rcx, %rdx
	movslq	-12(%rbp), %rcx
	imull	(%rdx,%rcx,4), %eax
	movl	$3, %ecx
	subl	-40(%rbp), %ecx
                                        # kill: def $cl killed $ecx
	movl	$1, %edx
	shll	%cl, %edx
	addl	%edx, %eax
	movl	$4, %ecx
	subl	-40(%rbp), %ecx
                                        # kill: def $cl killed $ecx
	sarl	%cl, %eax
	movl	%eax, -140(%rbp)
.LBB12_241:                             # %if.end1908
                                        #   in Loop: Header=BB12_218 Depth=3
	jmp	.LBB12_246
.LBB12_242:                             # %if.else1909
                                        #   in Loop: Header=BB12_218 Depth=3
	cmpl	$1, -124(%rbp)
	jne	.LBB12_244
# %bb.243:                              # %if.then1912
                                        #   in Loop: Header=BB12_218 Depth=3
	movl	-44(%rbp), %eax
	movslq	-20(%rbp), %rcx
	imulq	$384, %rcx, %rcx        # imm = 0x180
	movabsq	$InvLevelScale4x4Chroma_Intra, %rdx
	addq	%rcx, %rdx
	movslq	-76(%rbp), %rcx
	shlq	$6, %rcx
	addq	%rcx, %rdx
	movslq	-16(%rbp), %rcx
	shlq	$4, %rcx
	addq	%rcx, %rdx
	movslq	-12(%rbp), %rcx
	imull	(%rdx,%rcx,4), %eax
	movl	-40(%rbp), %ecx
	subl	$4, %ecx
                                        # kill: def $cl killed $ecx
	shll	%cl, %eax
	movl	%eax, -140(%rbp)
	jmp	.LBB12_245
.LBB12_244:                             # %if.else1924
                                        #   in Loop: Header=BB12_218 Depth=3
	movl	-44(%rbp), %eax
	movslq	-20(%rbp), %rcx
	imulq	$384, %rcx, %rcx        # imm = 0x180
	movabsq	$InvLevelScale4x4Chroma_Inter, %rdx
	addq	%rcx, %rdx
	movslq	-76(%rbp), %rcx
	shlq	$6, %rcx
	addq	%rcx, %rdx
	movslq	-16(%rbp), %rcx
	shlq	$4, %rcx
	addq	%rcx, %rdx
	movslq	-12(%rbp), %rcx
	imull	(%rdx,%rcx,4), %eax
	movl	-40(%rbp), %ecx
	subl	$4, %ecx
                                        # kill: def $cl killed $ecx
	shll	%cl, %eax
	movl	%eax, -140(%rbp)
.LBB12_245:                             # %if.end1936
                                        #   in Loop: Header=BB12_218 Depth=3
	jmp	.LBB12_246
.LBB12_246:                             # %if.end1937
                                        #   in Loop: Header=BB12_218 Depth=3
	jmp	.LBB12_247
.LBB12_247:                             # %if.end1938
                                        #   in Loop: Header=BB12_218 Depth=3
	jmp	.LBB12_248
.LBB12_248:                             # %if.end1939
                                        #   in Loop: Header=BB12_218 Depth=3
	cmpl	$0, -108(%rbp)
	jne	.LBB12_250
# %bb.249:                              # %if.then1941
                                        #   in Loop: Header=BB12_218 Depth=3
	movl	-140(%rbp), %eax
	movq	img, %rcx
	addq	$13112, %rcx            # imm = 0x3338
	movl	-28(%rbp), %edx
	addl	-16(%rbp), %edx
	movslq	%edx, %rdx
	shlq	$6, %rdx
	addq	%rdx, %rcx
	movl	-24(%rbp), %edx
	addl	-12(%rbp), %edx
	movslq	%edx, %rdx
	movl	%eax, (%rcx,%rdx,4)
.LBB12_250:                             # %if.end1949
                                        #   in Loop: Header=BB12_218 Depth=3
	jmp	.LBB12_251
.LBB12_251:                             # %for.inc1950
                                        #   in Loop: Header=BB12_218 Depth=3
	movl	-36(%rbp), %eax
	addl	$1, %eax
	movl	%eax, -36(%rbp)
	jmp	.LBB12_218
.LBB12_252:                             # %for.end1952
                                        #   in Loop: Header=BB12_216 Depth=2
	movq	-232(%rbp), %rax
	movslq	-72(%rbp), %rcx
	movl	$0, (%rax,%rcx,4)
# %bb.253:                              # %for.inc1955
                                        #   in Loop: Header=BB12_216 Depth=2
	movl	-112(%rbp), %eax
	addl	$1, %eax
	movl	%eax, -112(%rbp)
	jmp	.LBB12_216
.LBB12_254:                             # %for.end1957
                                        #   in Loop: Header=BB12_214 Depth=1
	jmp	.LBB12_255
.LBB12_255:                             # %for.inc1958
                                        #   in Loop: Header=BB12_214 Depth=1
	movl	-116(%rbp), %eax
	addl	$1, %eax
	movl	%eax, -116(%rbp)
	jmp	.LBB12_214
.LBB12_256:                             # %for.end1960
	cmpl	$4, -196(%rbp)
	jge	.LBB12_278
# %bb.257:                              # %land.lhs.true1963
	cmpl	$0, -108(%rbp)
	jne	.LBB12_278
# %bb.258:                              # %if.then1965
	movl	$0, -208(%rbp)
	movl	$0, -116(%rbp)
.LBB12_259:                             # %for.cond1966
                                        # =>This Loop Header: Depth=1
                                        #     Child Loop BB12_261 Depth 2
                                        #       Child Loop BB12_265 Depth 3
	movl	-116(%rbp), %ecx
	movq	img, %rax
	movl	72692(%rax), %eax
	cltd
	movl	$2, %esi
	idivl	%esi
	cmpl	%eax, %ecx
	jge	.LBB12_277
# %bb.260:                              # %for.body1971
                                        #   in Loop: Header=BB12_259 Depth=1
	movl	$0, -112(%rbp)
.LBB12_261:                             # %for.cond1972
                                        #   Parent Loop BB12_259 Depth=1
                                        # =>  This Loop Header: Depth=2
                                        #       Child Loop BB12_265 Depth 3
	cmpl	$4, -112(%rbp)
	jge	.LBB12_275
# %bb.262:                              # %for.body1975
                                        #   in Loop: Header=BB12_261 Depth=2
	movslq	-144(%rbp), %rax
	shlq	$4, %rax
	movabsq	$hor_offset, %rcx
	addq	%rax, %rcx
	movslq	-116(%rbp), %rax
	shlq	$2, %rax
	addq	%rax, %rcx
	movslq	-112(%rbp), %rax
	movzbl	(%rcx,%rax), %eax
	movl	%eax, -28(%rbp)
	movslq	-144(%rbp), %rax
	shlq	$4, %rax
	movabsq	$ver_offset, %rcx
	addq	%rax, %rcx
	movslq	-116(%rbp), %rax
	shlq	$2, %rax
	addq	%rax, %rcx
	movslq	-112(%rbp), %rax
	movzbl	(%rcx,%rax), %eax
	movl	%eax, -24(%rbp)
	movq	img, %rax
	movq	14136(%rax), %rax
	movl	-116(%rbp), %ecx
	addl	$4, %ecx
	addl	-200(%rbp), %ecx
	movslq	%ecx, %rcx
	movq	(%rax,%rcx,8), %rax
	movslq	-112(%rbp), %rcx
	movq	(%rax,%rcx,8), %rax
	movq	(%rax), %rax
	movq	%rax, -232(%rbp)
	movq	img, %rax
	movq	14136(%rax), %rax
	movl	-116(%rbp), %ecx
	addl	$4, %ecx
	addl	-200(%rbp), %ecx
	movslq	%ecx, %rcx
	movq	(%rax,%rcx,8), %rax
	movslq	-112(%rbp), %rcx
	movq	(%rax,%rcx,8), %rax
	movq	8(%rax), %rax
	movq	%rax, -392(%rbp)
	cmpl	$0, -204(%rbp)
	jne	.LBB12_264
# %bb.263:                              # %if.then2008
                                        #   in Loop: Header=BB12_261 Depth=2
	movslq	-144(%rbp), %rax
	movq	-432(%rbp,%rax,8), %rax
	movl	-20(%rbp), %edx
	movl	-144(%rbp), %ecx
	addl	$1, %ecx
                                        # kill: def $cl killed $ecx
	shll	%cl, %edx
	movl	%edx, %ecx
                                        # kill: def $cl killed $rcx
	shlq	%cl, %rax
	xorq	$-1, %rax
	movq	-192(%rbp), %rcx
	andq	464(%rcx), %rax
	movq	%rax, 464(%rcx)
.LBB12_264:                             # %if.end2016
                                        #   in Loop: Header=BB12_261 Depth=2
	movq	-232(%rbp), %rax
	movl	$0, (%rax)
	movl	$1, -36(%rbp)
.LBB12_265:                             # %for.cond2018
                                        #   Parent Loop BB12_259 Depth=1
                                        #     Parent Loop BB12_261 Depth=2
                                        # =>    This Inner Loop Header: Depth=3
	cmpl	$16, -36(%rbp)
	jge	.LBB12_273
# %bb.266:                              # %for.body2021
                                        #   in Loop: Header=BB12_265 Depth=3
	movq	img, %rax
	cmpl	$0, 72444(%rax)
	jne	.LBB12_269
# %bb.267:                              # %lor.lhs.false2024
                                        #   in Loop: Header=BB12_265 Depth=3
	movq	img, %rax
	cmpl	$0, 72400(%rax)
	je	.LBB12_270
# %bb.268:                              # %land.lhs.true2027
                                        #   in Loop: Header=BB12_265 Depth=3
	movq	-192(%rbp), %rax
	cmpl	$0, 532(%rax)
	je	.LBB12_270
.LBB12_269:                             # %if.then2030
                                        #   in Loop: Header=BB12_265 Depth=3
	movslq	-36(%rbp), %rax
	movzbl	FIELD_SCAN(,%rax,2), %eax
	movl	%eax, -16(%rbp)
	movslq	-36(%rbp), %rax
	movzbl	FIELD_SCAN+1(,%rax,2), %eax
	movl	%eax, -12(%rbp)
	jmp	.LBB12_271
.LBB12_270:                             # %if.else2039
                                        #   in Loop: Header=BB12_265 Depth=3
	movslq	-36(%rbp), %rax
	movzbl	SNGL_SCAN(,%rax,2), %eax
	movl	%eax, -16(%rbp)
	movslq	-36(%rbp), %rax
	movzbl	SNGL_SCAN+1(,%rax,2), %eax
	movl	%eax, -12(%rbp)
.LBB12_271:                             # %if.end2048
                                        #   in Loop: Header=BB12_265 Depth=3
	movq	img, %rax
	addq	$13112, %rax            # imm = 0x3338
	movl	-28(%rbp), %ecx
	addl	-16(%rbp), %ecx
	movslq	%ecx, %rcx
	shlq	$6, %rcx
	addq	%rcx, %rax
	movl	-24(%rbp), %ecx
	addl	-12(%rbp), %ecx
	movslq	%ecx, %rcx
	movl	$0, (%rax,%rcx,4)
	movq	-232(%rbp), %rax
	movslq	-36(%rbp), %rcx
	movl	$0, (%rax,%rcx,4)
# %bb.272:                              # %for.inc2058
                                        #   in Loop: Header=BB12_265 Depth=3
	movl	-36(%rbp), %eax
	addl	$1, %eax
	movl	%eax, -36(%rbp)
	jmp	.LBB12_265
.LBB12_273:                             # %for.end2060
                                        #   in Loop: Header=BB12_261 Depth=2
	jmp	.LBB12_274
.LBB12_274:                             # %for.inc2061
                                        #   in Loop: Header=BB12_261 Depth=2
	movl	-112(%rbp), %eax
	addl	$1, %eax
	movl	%eax, -112(%rbp)
	jmp	.LBB12_261
.LBB12_275:                             # %for.end2063
                                        #   in Loop: Header=BB12_259 Depth=1
	jmp	.LBB12_276
.LBB12_276:                             # %for.inc2064
                                        #   in Loop: Header=BB12_259 Depth=1
	movl	-116(%rbp), %eax
	addl	$1, %eax
	movl	%eax, -116(%rbp)
	jmp	.LBB12_259
.LBB12_277:                             # %for.end2066
	jmp	.LBB12_278
.LBB12_278:                             # %if.end2067
	cmpl	$2, -208(%rbp)
	jne	.LBB12_280
# %bb.279:                              # %if.then2070
	movl	$2, -132(%rbp)
.LBB12_280:                             # %if.end2071
	movl	$0, -24(%rbp)
.LBB12_281:                             # %for.cond2072
                                        # =>This Loop Header: Depth=1
                                        #     Child Loop BB12_285 Depth 2
                                        #       Child Loop BB12_287 Depth 3
                                        #         Child Loop BB12_289 Depth 4
                                        #         Child Loop BB12_293 Depth 4
                                        #       Child Loop BB12_299 Depth 3
                                        #         Child Loop BB12_303 Depth 4
                                        #         Child Loop BB12_307 Depth 4
	xorl	%eax, %eax
	movl	-24(%rbp), %ecx
	movq	img, %rdx
	cmpl	72712(%rdx), %ecx
	jge	.LBB12_283
# %bb.282:                              # %land.rhs2076
                                        #   in Loop: Header=BB12_281 Depth=1
	cmpl	$0, -108(%rbp)
	setne	%al
	xorb	$-1, %al
.LBB12_283:                             # %land.end2079
                                        #   in Loop: Header=BB12_281 Depth=1
	testb	$1, %al
	jne	.LBB12_284
	jmp	.LBB12_340
.LBB12_284:                             # %for.body2081
                                        #   in Loop: Header=BB12_281 Depth=1
	movl	$0, -28(%rbp)
.LBB12_285:                             # %for.cond2082
                                        #   Parent Loop BB12_281 Depth=1
                                        # =>  This Loop Header: Depth=2
                                        #       Child Loop BB12_287 Depth 3
                                        #         Child Loop BB12_289 Depth 4
                                        #         Child Loop BB12_293 Depth 4
                                        #       Child Loop BB12_299 Depth 3
                                        #         Child Loop BB12_303 Depth 4
                                        #         Child Loop BB12_307 Depth 4
	movl	-28(%rbp), %eax
	movq	img, %rcx
	cmpl	72708(%rcx), %eax
	jge	.LBB12_338
# %bb.286:                              # %for.body2086
                                        #   in Loop: Header=BB12_285 Depth=2
	movl	$0, -12(%rbp)
.LBB12_287:                             # %for.cond2087
                                        #   Parent Loop BB12_281 Depth=1
                                        #     Parent Loop BB12_285 Depth=2
                                        # =>    This Loop Header: Depth=3
                                        #         Child Loop BB12_289 Depth 4
                                        #         Child Loop BB12_293 Depth 4
	cmpl	$4, -12(%rbp)
	jge	.LBB12_298
# %bb.288:                              # %for.body2090
                                        #   in Loop: Header=BB12_287 Depth=3
	movl	$0, -16(%rbp)
.LBB12_289:                             # %for.cond2091
                                        #   Parent Loop BB12_281 Depth=1
                                        #     Parent Loop BB12_285 Depth=2
                                        #       Parent Loop BB12_287 Depth=3
                                        # =>      This Inner Loop Header: Depth=4
	cmpl	$4, -16(%rbp)
	jge	.LBB12_292
# %bb.290:                              # %for.body2094
                                        #   in Loop: Header=BB12_289 Depth=4
	movq	img, %rax
	addq	$13112, %rax            # imm = 0x3338
	movl	-28(%rbp), %ecx
	addl	-16(%rbp), %ecx
	movslq	%ecx, %rcx
	shlq	$6, %rcx
	addq	%rcx, %rax
	movl	-24(%rbp), %ecx
	addl	-12(%rbp), %ecx
	movslq	%ecx, %rcx
	movl	(%rax,%rcx,4), %eax
	movslq	-16(%rbp), %rcx
	movl	%eax, -64(%rbp,%rcx,4)
# %bb.291:                              # %for.inc2104
                                        #   in Loop: Header=BB12_289 Depth=4
	movl	-16(%rbp), %eax
	addl	$1, %eax
	movl	%eax, -16(%rbp)
	jmp	.LBB12_289
.LBB12_292:                             # %for.end2106
                                        #   in Loop: Header=BB12_287 Depth=3
	movl	-64(%rbp), %eax
	addl	-56(%rbp), %eax
	movl	%eax, -96(%rbp)
	movl	-64(%rbp), %eax
	subl	-56(%rbp), %eax
	movl	%eax, -92(%rbp)
	movl	-60(%rbp), %eax
	sarl	$1, %eax
	subl	-52(%rbp), %eax
	movl	%eax, -88(%rbp)
	movl	-60(%rbp), %eax
	movl	-52(%rbp), %ecx
	sarl	$1, %ecx
	addl	%ecx, %eax
	movl	%eax, -84(%rbp)
	movl	$0, -16(%rbp)
.LBB12_293:                             # %for.cond2125
                                        #   Parent Loop BB12_281 Depth=1
                                        #     Parent Loop BB12_285 Depth=2
                                        #       Parent Loop BB12_287 Depth=3
                                        # =>      This Inner Loop Header: Depth=4
	cmpl	$2, -16(%rbp)
	jge	.LBB12_296
# %bb.294:                              # %for.body2128
                                        #   in Loop: Header=BB12_293 Depth=4
	movl	$3, %eax
	subl	-16(%rbp), %eax
	movl	%eax, -120(%rbp)
	movslq	-16(%rbp), %rax
	movl	-96(%rbp,%rax,4), %eax
	movslq	-120(%rbp), %rcx
	addl	-96(%rbp,%rcx,4), %eax
	movq	img, %rcx
	addq	$13112, %rcx            # imm = 0x3338
	movl	-28(%rbp), %edx
	addl	-16(%rbp), %edx
	movslq	%edx, %rdx
	shlq	$6, %rdx
	addq	%rdx, %rcx
	movl	-24(%rbp), %edx
	addl	-12(%rbp), %edx
	movslq	%edx, %rdx
	movl	%eax, (%rcx,%rdx,4)
	movslq	-16(%rbp), %rax
	movl	-96(%rbp,%rax,4), %eax
	movslq	-120(%rbp), %rcx
	subl	-96(%rbp,%rcx,4), %eax
	movq	img, %rcx
	addq	$13112, %rcx            # imm = 0x3338
	movl	-28(%rbp), %edx
	addl	-120(%rbp), %edx
	movslq	%edx, %rdx
	shlq	$6, %rdx
	addq	%rdx, %rcx
	movl	-24(%rbp), %edx
	addl	-12(%rbp), %edx
	movslq	%edx, %rdx
	movl	%eax, (%rcx,%rdx,4)
# %bb.295:                              # %for.inc2154
                                        #   in Loop: Header=BB12_293 Depth=4
	movl	-16(%rbp), %eax
	addl	$1, %eax
	movl	%eax, -16(%rbp)
	jmp	.LBB12_293
.LBB12_296:                             # %for.end2156
                                        #   in Loop: Header=BB12_287 Depth=3
	jmp	.LBB12_297
.LBB12_297:                             # %for.inc2157
                                        #   in Loop: Header=BB12_287 Depth=3
	movl	-12(%rbp), %eax
	addl	$1, %eax
	movl	%eax, -12(%rbp)
	jmp	.LBB12_287
.LBB12_298:                             # %for.end2159
                                        #   in Loop: Header=BB12_285 Depth=2
	movl	$0, -16(%rbp)
.LBB12_299:                             # %for.cond2160
                                        #   Parent Loop BB12_281 Depth=1
                                        #     Parent Loop BB12_285 Depth=2
                                        # =>    This Loop Header: Depth=3
                                        #         Child Loop BB12_303 Depth 4
                                        #         Child Loop BB12_307 Depth 4
	xorl	%eax, %eax
	cmpl	$4, -16(%rbp)
	jge	.LBB12_301
# %bb.300:                              # %land.rhs2163
                                        #   in Loop: Header=BB12_299 Depth=3
	cmpl	$0, -108(%rbp)
	setne	%al
	xorb	$-1, %al
.LBB12_301:                             # %land.end2166
                                        #   in Loop: Header=BB12_299 Depth=3
	testb	$1, %al
	jne	.LBB12_302
	jmp	.LBB12_336
.LBB12_302:                             # %for.body2168
                                        #   in Loop: Header=BB12_299 Depth=3
	movl	$0, -12(%rbp)
.LBB12_303:                             # %for.cond2169
                                        #   Parent Loop BB12_281 Depth=1
                                        #     Parent Loop BB12_285 Depth=2
                                        #       Parent Loop BB12_299 Depth=3
                                        # =>      This Inner Loop Header: Depth=4
	cmpl	$4, -12(%rbp)
	jge	.LBB12_306
# %bb.304:                              # %for.body2172
                                        #   in Loop: Header=BB12_303 Depth=4
	movq	img, %rax
	addq	$13112, %rax            # imm = 0x3338
	movl	-28(%rbp), %ecx
	addl	-16(%rbp), %ecx
	movslq	%ecx, %rcx
	shlq	$6, %rcx
	addq	%rcx, %rax
	movl	-24(%rbp), %ecx
	addl	-12(%rbp), %ecx
	movslq	%ecx, %rcx
	movl	(%rax,%rcx,4), %eax
	movslq	-12(%rbp), %rcx
	movl	%eax, -64(%rbp,%rcx,4)
# %bb.305:                              # %for.inc2182
                                        #   in Loop: Header=BB12_303 Depth=4
	movl	-12(%rbp), %eax
	addl	$1, %eax
	movl	%eax, -12(%rbp)
	jmp	.LBB12_303
.LBB12_306:                             # %for.end2184
                                        #   in Loop: Header=BB12_299 Depth=3
	movl	-64(%rbp), %eax
	addl	-56(%rbp), %eax
	movl	%eax, -96(%rbp)
	movl	-64(%rbp), %eax
	subl	-56(%rbp), %eax
	movl	%eax, -92(%rbp)
	movl	-60(%rbp), %eax
	sarl	$1, %eax
	subl	-52(%rbp), %eax
	movl	%eax, -88(%rbp)
	movl	-60(%rbp), %eax
	movl	-52(%rbp), %ecx
	sarl	$1, %ecx
	addl	%ecx, %eax
	movl	%eax, -84(%rbp)
	movl	$0, -12(%rbp)
.LBB12_307:                             # %for.cond2203
                                        #   Parent Loop BB12_281 Depth=1
                                        #     Parent Loop BB12_285 Depth=2
                                        #       Parent Loop BB12_299 Depth=3
                                        # =>      This Inner Loop Header: Depth=4
	cmpl	$2, -12(%rbp)
	jge	.LBB12_334
# %bb.308:                              # %for.body2206
                                        #   in Loop: Header=BB12_307 Depth=4
	movl	$3, %eax
	subl	-12(%rbp), %eax
	movl	%eax, -68(%rbp)
	movq	img, %rax
	cmpl	$0, 72724(%rax)
	jne	.LBB12_328
# %bb.309:                              # %if.then2209
                                        #   in Loop: Header=BB12_307 Depth=4
	xorl	%ecx, %ecx
	movq	img, %rax
	movslq	72688(%rax), %rax
	movslq	-12(%rbp), %rdx
	movl	-96(%rbp,%rdx,4), %edx
	movslq	-68(%rbp), %rsi
	addl	-96(%rbp,%rsi,4), %edx
	movslq	%edx, %rdx
	movq	img, %rsi
	addq	$12600, %rsi            # imm = 0x3138
	movl	-28(%rbp), %edi
	addl	-16(%rbp), %edi
	movslq	%edi, %rdi
	shlq	$5, %rdi
	addq	%rdi, %rsi
	movl	-24(%rbp), %edi
	addl	-12(%rbp), %edi
	movslq	%edi, %rdi
	movzwl	(%rsi,%rdi,2), %esi
	shlq	$6, %rsi
	addq	%rsi, %rdx
	addq	$32, %rdx
	sarq	$6, %rdx
	cmpq	%rdx, %rcx
	jle	.LBB12_311
# %bb.310:                              # %cond.true2230
                                        #   in Loop: Header=BB12_307 Depth=4
	xorl	%ecx, %ecx
	jmp	.LBB12_312
.LBB12_311:                             # %cond.false2231
                                        #   in Loop: Header=BB12_307 Depth=4
	movslq	-12(%rbp), %rcx
	movl	-96(%rbp,%rcx,4), %ecx
	movslq	-68(%rbp), %rdx
	addl	-96(%rbp,%rdx,4), %ecx
	movslq	%ecx, %rcx
	movq	img, %rdx
	addq	$12600, %rdx            # imm = 0x3138
	movl	-28(%rbp), %esi
	addl	-16(%rbp), %esi
	movslq	%esi, %rsi
	shlq	$5, %rsi
	addq	%rsi, %rdx
	movl	-24(%rbp), %esi
	addl	-12(%rbp), %esi
	movslq	%esi, %rsi
	movzwl	(%rdx,%rsi,2), %edx
	shlq	$6, %rdx
	addq	%rdx, %rcx
	addq	$32, %rcx
	sarq	$6, %rcx
.LBB12_312:                             # %cond.end2250
                                        #   in Loop: Header=BB12_307 Depth=4
	cmpq	%rcx, %rax
	jge	.LBB12_314
# %bb.313:                              # %cond.true2254
                                        #   in Loop: Header=BB12_307 Depth=4
	movq	img, %rax
	movslq	72688(%rax), %rax
	jmp	.LBB12_318
.LBB12_314:                             # %cond.false2257
                                        #   in Loop: Header=BB12_307 Depth=4
	xorl	%eax, %eax
	movslq	-12(%rbp), %rcx
	movl	-96(%rbp,%rcx,4), %ecx
	movslq	-68(%rbp), %rdx
	addl	-96(%rbp,%rdx,4), %ecx
	movslq	%ecx, %rcx
	movq	img, %rdx
	addq	$12600, %rdx            # imm = 0x3138
	movl	-28(%rbp), %esi
	addl	-16(%rbp), %esi
	movslq	%esi, %rsi
	shlq	$5, %rsi
	addq	%rsi, %rdx
	movl	-24(%rbp), %esi
	addl	-12(%rbp), %esi
	movslq	%esi, %rsi
	movzwl	(%rdx,%rsi,2), %edx
	shlq	$6, %rdx
	addq	%rdx, %rcx
	addq	$32, %rcx
	sarq	$6, %rcx
	cmpq	%rcx, %rax
	jle	.LBB12_316
# %bb.315:                              # %cond.true2278
                                        #   in Loop: Header=BB12_307 Depth=4
	xorl	%eax, %eax
	jmp	.LBB12_317
.LBB12_316:                             # %cond.false2279
                                        #   in Loop: Header=BB12_307 Depth=4
	movslq	-12(%rbp), %rax
	movl	-96(%rbp,%rax,4), %eax
	movslq	-68(%rbp), %rcx
	addl	-96(%rbp,%rcx,4), %eax
	cltq
	movq	img, %rcx
	addq	$12600, %rcx            # imm = 0x3138
	movl	-28(%rbp), %edx
	addl	-16(%rbp), %edx
	movslq	%edx, %rdx
	shlq	$5, %rdx
	addq	%rdx, %rcx
	movl	-24(%rbp), %edx
	addl	-12(%rbp), %edx
	movslq	%edx, %rdx
	movzwl	(%rcx,%rdx,2), %ecx
	shlq	$6, %rcx
	addq	%rcx, %rax
	addq	$32, %rax
	sarq	$6, %rax
.LBB12_317:                             # %cond.end2298
                                        #   in Loop: Header=BB12_307 Depth=4
.LBB12_318:                             # %cond.end2300
                                        #   in Loop: Header=BB12_307 Depth=4
	xorl	%ecx, %ecx
	movq	img, %rdx
	addq	$13112, %rdx            # imm = 0x3338
	movl	-28(%rbp), %esi
	addl	-16(%rbp), %esi
	movslq	%esi, %rsi
	shlq	$6, %rsi
	addq	%rsi, %rdx
	movl	-24(%rbp), %esi
	addl	-12(%rbp), %esi
	movslq	%esi, %rsi
	movl	%eax, (%rdx,%rsi,4)
	movq	img, %rax
	movslq	72688(%rax), %rax
	movslq	-12(%rbp), %rdx
	movl	-96(%rbp,%rdx,4), %edx
	movslq	-68(%rbp), %rsi
	subl	-96(%rbp,%rsi,4), %edx
	movslq	%edx, %rdx
	movq	img, %rsi
	addq	$12600, %rsi            # imm = 0x3138
	movl	-28(%rbp), %edi
	addl	-16(%rbp), %edi
	movslq	%edi, %rdi
	shlq	$5, %rdi
	addq	%rdi, %rsi
	movl	-24(%rbp), %edi
	addl	-68(%rbp), %edi
	movslq	%edi, %rdi
	movzwl	(%rsi,%rdi,2), %esi
	shlq	$6, %rsi
	addq	%rsi, %rdx
	addq	$32, %rdx
	sarq	$6, %rdx
	cmpq	%rdx, %rcx
	jle	.LBB12_320
# %bb.319:                              # %cond.true2332
                                        #   in Loop: Header=BB12_307 Depth=4
	xorl	%ecx, %ecx
	jmp	.LBB12_321
.LBB12_320:                             # %cond.false2333
                                        #   in Loop: Header=BB12_307 Depth=4
	movslq	-12(%rbp), %rcx
	movl	-96(%rbp,%rcx,4), %ecx
	movslq	-68(%rbp), %rdx
	subl	-96(%rbp,%rdx,4), %ecx
	movslq	%ecx, %rcx
	movq	img, %rdx
	addq	$12600, %rdx            # imm = 0x3138
	movl	-28(%rbp), %esi
	addl	-16(%rbp), %esi
	movslq	%esi, %rsi
	shlq	$5, %rsi
	addq	%rsi, %rdx
	movl	-24(%rbp), %esi
	addl	-68(%rbp), %esi
	movslq	%esi, %rsi
	movzwl	(%rdx,%rsi,2), %edx
	shlq	$6, %rdx
	addq	%rdx, %rcx
	addq	$32, %rcx
	sarq	$6, %rcx
.LBB12_321:                             # %cond.end2352
                                        #   in Loop: Header=BB12_307 Depth=4
	cmpq	%rcx, %rax
	jge	.LBB12_323
# %bb.322:                              # %cond.true2356
                                        #   in Loop: Header=BB12_307 Depth=4
	movq	img, %rax
	movslq	72688(%rax), %rax
	jmp	.LBB12_327
.LBB12_323:                             # %cond.false2359
                                        #   in Loop: Header=BB12_307 Depth=4
	xorl	%eax, %eax
	movslq	-12(%rbp), %rcx
	movl	-96(%rbp,%rcx,4), %ecx
	movslq	-68(%rbp), %rdx
	subl	-96(%rbp,%rdx,4), %ecx
	movslq	%ecx, %rcx
	movq	img, %rdx
	addq	$12600, %rdx            # imm = 0x3138
	movl	-28(%rbp), %esi
	addl	-16(%rbp), %esi
	movslq	%esi, %rsi
	shlq	$5, %rsi
	addq	%rsi, %rdx
	movl	-24(%rbp), %esi
	addl	-68(%rbp), %esi
	movslq	%esi, %rsi
	movzwl	(%rdx,%rsi,2), %edx
	shlq	$6, %rdx
	addq	%rdx, %rcx
	addq	$32, %rcx
	sarq	$6, %rcx
	cmpq	%rcx, %rax
	jle	.LBB12_325
# %bb.324:                              # %cond.true2380
                                        #   in Loop: Header=BB12_307 Depth=4
	xorl	%eax, %eax
	jmp	.LBB12_326
.LBB12_325:                             # %cond.false2381
                                        #   in Loop: Header=BB12_307 Depth=4
	movslq	-12(%rbp), %rax
	movl	-96(%rbp,%rax,4), %eax
	movslq	-68(%rbp), %rcx
	subl	-96(%rbp,%rcx,4), %eax
	cltq
	movq	img, %rcx
	addq	$12600, %rcx            # imm = 0x3138
	movl	-28(%rbp), %edx
	addl	-16(%rbp), %edx
	movslq	%edx, %rdx
	shlq	$5, %rdx
	addq	%rdx, %rcx
	movl	-24(%rbp), %edx
	addl	-68(%rbp), %edx
	movslq	%edx, %rdx
	movzwl	(%rcx,%rdx,2), %ecx
	shlq	$6, %rcx
	addq	%rcx, %rax
	addq	$32, %rax
	sarq	$6, %rax
.LBB12_326:                             # %cond.end2400
                                        #   in Loop: Header=BB12_307 Depth=4
.LBB12_327:                             # %cond.end2402
                                        #   in Loop: Header=BB12_307 Depth=4
	movq	img, %rcx
	addq	$13112, %rcx            # imm = 0x3338
	movl	-28(%rbp), %edx
	addl	-16(%rbp), %edx
	movslq	%edx, %rdx
	shlq	$6, %rdx
	addq	%rdx, %rcx
	movl	-24(%rbp), %edx
	addl	-68(%rbp), %edx
	movslq	%edx, %rdx
	movl	%eax, (%rcx,%rdx,4)
	jmp	.LBB12_332
.LBB12_328:                             # %if.else2412
                                        #   in Loop: Header=BB12_307 Depth=4
	cmpl	$0, -108(%rbp)
	je	.LBB12_330
# %bb.329:                              # %if.then2414
                                        #   in Loop: Header=BB12_307 Depth=4
	movslq	-12(%rbp), %rax
	movl	-96(%rbp,%rax,4), %eax
	movslq	-68(%rbp), %rcx
	addl	-96(%rbp,%rcx,4), %eax
	movq	img, %rcx
	addq	$13112, %rcx            # imm = 0x3338
	movl	-28(%rbp), %edx
	addl	-16(%rbp), %edx
	movslq	%edx, %rdx
	shlq	$6, %rdx
	addq	%rdx, %rcx
	movl	-24(%rbp), %edx
	addl	-12(%rbp), %edx
	movslq	%edx, %rdx
	movl	%eax, (%rcx,%rdx,4)
	movslq	-12(%rbp), %rax
	movl	-96(%rbp,%rax,4), %eax
	movslq	-68(%rbp), %rcx
	subl	-96(%rbp,%rcx,4), %eax
	movq	img, %rcx
	addq	$13112, %rcx            # imm = 0x3338
	movl	-28(%rbp), %edx
	addl	-16(%rbp), %edx
	movslq	%edx, %rdx
	shlq	$6, %rdx
	addq	%rdx, %rcx
	movl	-24(%rbp), %edx
	addl	-68(%rbp), %edx
	movslq	%edx, %rdx
	movl	%eax, (%rcx,%rdx,4)
	jmp	.LBB12_331
.LBB12_330:                             # %if.else2439
                                        #   in Loop: Header=BB12_307 Depth=4
	movslq	-12(%rbp), %rax
	movl	-96(%rbp,%rax,4), %eax
	movslq	-68(%rbp), %rcx
	addl	-96(%rbp,%rcx,4), %eax
	addl	$32, %eax
	sarl	$6, %eax
	movq	img, %rcx
	addq	$13112, %rcx            # imm = 0x3338
	movl	-28(%rbp), %edx
	addl	-16(%rbp), %edx
	movslq	%edx, %rdx
	shlq	$6, %rdx
	addq	%rdx, %rcx
	movl	-24(%rbp), %edx
	addl	-12(%rbp), %edx
	movslq	%edx, %rdx
	movl	%eax, (%rcx,%rdx,4)
	movslq	-12(%rbp), %rax
	movl	-96(%rbp,%rax,4), %eax
	movslq	-68(%rbp), %rcx
	subl	-96(%rbp,%rcx,4), %eax
	addl	$32, %eax
	sarl	$6, %eax
	movq	img, %rcx
	addq	$13112, %rcx            # imm = 0x3338
	movl	-28(%rbp), %edx
	addl	-16(%rbp), %edx
	movslq	%edx, %rdx
	shlq	$6, %rdx
	addq	%rdx, %rcx
	movl	-24(%rbp), %edx
	addl	-68(%rbp), %edx
	movslq	%edx, %rdx
	movl	%eax, (%rcx,%rdx,4)
.LBB12_331:                             # %if.end2468
                                        #   in Loop: Header=BB12_307 Depth=4
	jmp	.LBB12_332
.LBB12_332:                             # %if.end2469
                                        #   in Loop: Header=BB12_307 Depth=4
	jmp	.LBB12_333
.LBB12_333:                             # %for.inc2470
                                        #   in Loop: Header=BB12_307 Depth=4
	movl	-12(%rbp), %eax
	addl	$1, %eax
	movl	%eax, -12(%rbp)
	jmp	.LBB12_307
.LBB12_334:                             # %for.end2472
                                        #   in Loop: Header=BB12_299 Depth=3
	jmp	.LBB12_335
.LBB12_335:                             # %for.inc2473
                                        #   in Loop: Header=BB12_299 Depth=3
	movl	-16(%rbp), %eax
	addl	$1, %eax
	movl	%eax, -16(%rbp)
	jmp	.LBB12_299
.LBB12_336:                             # %for.end2475
                                        #   in Loop: Header=BB12_285 Depth=2
	jmp	.LBB12_337
.LBB12_337:                             # %for.inc2476
                                        #   in Loop: Header=BB12_285 Depth=2
	movl	-28(%rbp), %eax
	addl	$4, %eax
	movl	%eax, -28(%rbp)
	jmp	.LBB12_285
.LBB12_338:                             # %for.end2478
                                        #   in Loop: Header=BB12_281 Depth=1
	jmp	.LBB12_339
.LBB12_339:                             # %for.inc2479
                                        #   in Loop: Header=BB12_281 Depth=1
	movl	-24(%rbp), %eax
	addl	$4, %eax
	movl	%eax, -24(%rbp)
	jmp	.LBB12_281
.LBB12_340:                             # %for.end2481
	movq	img, %rax
	cmpl	$0, 72724(%rax)
	jne	.LBB12_353
# %bb.341:                              # %if.then2484
	movl	$0, -12(%rbp)
.LBB12_342:                             # %for.cond2485
                                        # =>This Loop Header: Depth=1
                                        #     Child Loop BB12_344 Depth 2
	movl	-12(%rbp), %eax
	movq	img, %rcx
	cmpl	72712(%rcx), %eax
	jge	.LBB12_352
# %bb.343:                              # %for.body2489
                                        #   in Loop: Header=BB12_342 Depth=1
	movl	$0, -16(%rbp)
.LBB12_344:                             # %for.cond2490
                                        #   Parent Loop BB12_342 Depth=1
                                        # =>  This Inner Loop Header: Depth=2
	movl	-16(%rbp), %eax
	movq	img, %rcx
	cmpl	72708(%rcx), %eax
	jge	.LBB12_350
# %bb.345:                              # %for.body2494
                                        #   in Loop: Header=BB12_344 Depth=2
	cmpl	$0, -108(%rbp)
	je	.LBB12_347
# %bb.346:                              # %if.then2496
                                        #   in Loop: Header=BB12_344 Depth=2
	movq	img, %rax
	addq	$13112, %rax            # imm = 0x3338
	movslq	-16(%rbp), %rcx
	shlq	$6, %rcx
	addq	%rcx, %rax
	movslq	-12(%rbp), %rcx
	movl	(%rax,%rcx,4), %eax
	movq	img, %rcx
	addq	$12600, %rcx            # imm = 0x3138
	movslq	-16(%rbp), %rdx
	shlq	$5, %rdx
	addq	%rdx, %rcx
	movslq	-12(%rbp), %rdx
	movzwl	(%rcx,%rdx,2), %ecx
	addl	%ecx, %eax
	movq	enc_picture, %rcx
	movq	6464(%rcx), %rcx
	movslq	-20(%rbp), %rdx
	movq	(%rcx,%rdx,8), %rcx
	movq	img, %rdx
	movl	164(%rdx), %edx
	addl	-12(%rbp), %edx
	movslq	%edx, %rdx
	movq	(%rcx,%rdx,8), %rcx
	movq	img, %rdx
	movl	160(%rdx), %edx
	addl	-16(%rbp), %edx
	movslq	%edx, %rdx
	movw	%ax, (%rcx,%rdx,2)
	jmp	.LBB12_348
.LBB12_347:                             # %if.else2518
                                        #   in Loop: Header=BB12_344 Depth=2
	movq	img, %rax
	addq	$13112, %rax            # imm = 0x3338
	movslq	-16(%rbp), %rcx
	shlq	$6, %rcx
	addq	%rcx, %rax
	movslq	-12(%rbp), %rcx
	movl	(%rax,%rcx,4), %eax
	movq	enc_picture, %rcx
	movq	6464(%rcx), %rcx
	movslq	-20(%rbp), %rdx
	movq	(%rcx,%rdx,8), %rcx
	movq	img, %rdx
	movl	164(%rdx), %edx
	addl	-12(%rbp), %edx
	movslq	%edx, %rdx
	movq	(%rcx,%rdx,8), %rcx
	movq	img, %rdx
	movl	160(%rdx), %edx
	addl	-16(%rbp), %edx
	movslq	%edx, %rdx
	movw	%ax, (%rcx,%rdx,2)
.LBB12_348:                             # %if.end2536
                                        #   in Loop: Header=BB12_344 Depth=2
	jmp	.LBB12_349
.LBB12_349:                             # %for.inc2537
                                        #   in Loop: Header=BB12_344 Depth=2
	movl	-16(%rbp), %eax
	addl	$1, %eax
	movl	%eax, -16(%rbp)
	jmp	.LBB12_344
.LBB12_350:                             # %for.end2539
                                        #   in Loop: Header=BB12_342 Depth=1
	jmp	.LBB12_351
.LBB12_351:                             # %for.inc2540
                                        #   in Loop: Header=BB12_342 Depth=1
	movl	-12(%rbp), %eax
	addl	$1, %eax
	movl	%eax, -12(%rbp)
	jmp	.LBB12_342
.LBB12_352:                             # %for.end2542
	jmp	.LBB12_353
.LBB12_353:                             # %if.end2543
	movl	-132(%rbp), %ebx
	cmpl	$2087005548, -380(%rbp) # imm = 0x7C652D6C
	jne	.LBB12_355
.LBB12_354:
	movl	%ebx, %eax
	addq	$424, %rsp              # imm = 0x1A8
	popq	%rbx
	popq	%rbp
	.cfi_def_cfa %rsp, 8
	retq
.LBB12_355:                             # %func_exit
	.cfi_def_cfa %rbp, 16
	callq	detect_breach
	jmp	.LBB12_354
.Lfunc_end12:
	.size	dct_chroma.3, .Lfunc_end12-dct_chroma.3
	.cfi_endproc
                                        # -- End function
	.globl	dct_chroma.4            # -- Begin function dct_chroma.4
	.p2align	4, 0x90
	.type	dct_chroma.4,@function
dct_chroma.4:                           # @dct_chroma.4
	.cfi_startproc
# %bb.0:                                # %entry
	pushq	%rbp
	.cfi_def_cfa_offset 16
	.cfi_offset %rbp, -16
	movq	%rsp, %rbp
	.cfi_def_cfa_register %rbp
	pushq	%rbx
	subq	$424, %rsp              # imm = 0x1A8
	.cfi_offset %rbx, -24
	movl	$1739015577, -380(%rbp) # imm = 0x67A74599
	movl	%edi, -20(%rbp)
	movl	%esi, -136(%rbp)
	movl	$0, -204(%rbp)
	movq	img, %rax
	movq	14168(%rax), %rax
	movq	img, %rcx
	movslq	12(%rcx), %rcx
	imulq	$632, %rcx, %rcx        # imm = 0x278
	addq	%rcx, %rax
	movq	%rax, -192(%rbp)
	movq	img, %rax
	movq	14144(%rax), %rax
	movl	-20(%rbp), %ecx
	addl	$1, %ecx
	movslq	%ecx, %rcx
	movq	(%rax,%rcx,8), %rax
	movq	(%rax), %rax
	movq	%rax, -224(%rbp)
	movq	img, %rax
	movq	14144(%rax), %rax
	movl	-20(%rbp), %ecx
	addl	$1, %ecx
	movslq	%ecx, %rcx
	movq	(%rax,%rcx,8), %rax
	movq	8(%rax), %rax
	movq	%rax, -376(%rbp)
	movq	-192(%rbp), %rax
	cmpl	$9, 72(%rax)
	movb	$1, %al
	je	.LBB13_3
# %bb.1:                                # %lor.lhs.false
	movq	-192(%rbp), %rax
	cmpl	$10, 72(%rax)
	movb	$1, %al
	je	.LBB13_3
# %bb.2:                                # %lor.rhs
	movq	-192(%rbp), %rax
	cmpl	$13, 72(%rax)
	sete	%al
.LBB13_3:                               # %lor.end
	xorl	%ecx, %ecx
	andb	$1, %al
	movzbl	%al, %eax
	movl	%eax, -124(%rbp)
	movl	-20(%rbp), %esi
	movq	img, %rax
	movl	72692(%rax), %eax
	cltd
	movl	$2, %edi
	idivl	%edi
	imull	%eax, %esi
	movl	%esi, -196(%rbp)
	movq	.L__const.dct_chroma.cbpblk_pattern, %rax
	movq	%rax, -432(%rbp)
	movq	.L__const.dct_chroma.cbpblk_pattern+8, %rax
	movq	%rax, -424(%rbp)
	movq	.L__const.dct_chroma.cbpblk_pattern+16, %rax
	movq	%rax, -416(%rbp)
	movq	.L__const.dct_chroma.cbpblk_pattern+24, %rax
	movq	%rax, -408(%rbp)
	movq	img, %rax
	movl	72700(%rax), %eax
	movl	%eax, -140(%rbp)
	movl	$0, -108(%rbp)
	movl	$0, -132(%rbp)
	movl	$0, -208(%rbp)
	movq	-192(%rbp), %rax
	movl	12(%rax), %eax
	movq	img, %rdx
	addl	72668(%rdx), %eax
	cmpl	$0, %eax
	jne	.LBB13_5
# %bb.4:                                # %land.rhs
	movq	img, %rax
	cmpl	$1, 72704(%rax)
	sete	%cl
.LBB13_5:                               # %land.end
	xorl	%eax, %eax
	andb	$1, %cl
	movzbl	%cl, %ecx
	movl	%ecx, -104(%rbp)
	movq	-192(%rbp), %rcx
	movl	12(%rcx), %ecx
	movq	img, %rdx
	movslq	-20(%rbp), %rsi
	addl	72716(%rdx,%rsi,4), %ecx
	movl	%ecx, -128(%rbp)
	movl	-128(%rbp), %ecx
	movq	img, %rdx
	subl	72672(%rdx), %eax
	cmpl	%eax, %ecx
	jge	.LBB13_7
# %bb.6:                                # %cond.true
	xorl	%eax, %eax
	movq	img, %rcx
	subl	72672(%rcx), %eax
	jmp	.LBB13_11
.LBB13_7:                               # %cond.false
	cmpl	$51, -128(%rbp)
	jle	.LBB13_9
# %bb.8:                                # %cond.true24
	movl	$51, %eax
	jmp	.LBB13_10
.LBB13_9:                               # %cond.false25
	movl	-128(%rbp), %eax
.LBB13_10:                              # %cond.end
.LBB13_11:                              # %cond.end26
	movl	%eax, -128(%rbp)
	cmpl	$0, -128(%rbp)
	jge	.LBB13_13
# %bb.12:                               # %cond.true29
	movl	-128(%rbp), %eax
	jmp	.LBB13_14
.LBB13_13:                              # %cond.false30
	movl	-128(%rbp), %eax
	subl	$0, %eax
	cltq
	movzbl	QP_SCALE_CR(,%rax), %eax
.LBB13_14:                              # %cond.end34
	movl	%eax, -128(%rbp)
	movl	-128(%rbp), %eax
	movq	img, %rcx
	addl	72672(%rcx), %eax
	cltd
	movl	$6, %ecx
	idivl	%ecx
	movl	%eax, -40(%rbp)
	movl	-128(%rbp), %eax
	movq	img, %rdx
	addl	72672(%rdx), %eax
	cltd
	idivl	%ecx
	movl	%edx, -76(%rbp)
	movl	-40(%rbp), %eax
	addl	$15, %eax
	movl	%eax, -180(%rbp)
	movq	img, %rax
	cmpl	$2, 72700(%rax)
	jne	.LBB13_16
# %bb.15:                               # %if.then
	movl	-128(%rbp), %eax
	addl	$3, %eax
	movq	img, %rcx
	addl	72672(%rcx), %eax
	cltd
	movl	$6, %ecx
	idivl	%ecx
	movl	%eax, -108(%rbp)
	movl	-128(%rbp), %eax
	addl	$3, %eax
	movq	img, %rdx
	addl	72672(%rdx), %eax
	cltd
	idivl	%ecx
	movl	%edx, -132(%rbp)
	movl	-108(%rbp), %eax
	addl	$15, %eax
	movl	%eax, -208(%rbp)
.LBB13_16:                              # %if.end
	movl	$0, -24(%rbp)
.LBB13_17:                              # %for.cond
                                        # =>This Loop Header: Depth=1
                                        #     Child Loop BB13_19 Depth 2
                                        #       Child Loop BB13_21 Depth 3
                                        #         Child Loop BB13_25 Depth 4
                                        #       Child Loop BB13_31 Depth 3
                                        #         Child Loop BB13_35 Depth 4
	movl	-24(%rbp), %eax
	movq	img, %rcx
	cmpl	72712(%rcx), %eax
	jge	.LBB13_44
# %bb.18:                               # %for.body
                                        #   in Loop: Header=BB13_17 Depth=1
	movl	$0, -28(%rbp)
.LBB13_19:                              # %for.cond56
                                        #   Parent Loop BB13_17 Depth=1
                                        # =>  This Loop Header: Depth=2
                                        #       Child Loop BB13_21 Depth 3
                                        #         Child Loop BB13_25 Depth 4
                                        #       Child Loop BB13_31 Depth 3
                                        #         Child Loop BB13_35 Depth 4
	movl	-28(%rbp), %eax
	movq	img, %rcx
	cmpl	72708(%rcx), %eax
	jge	.LBB13_42
# %bb.20:                               # %for.body59
                                        #   in Loop: Header=BB13_19 Depth=2
	movl	$0, -12(%rbp)
.LBB13_21:                              # %for.cond60
                                        #   Parent Loop BB13_17 Depth=1
                                        #     Parent Loop BB13_19 Depth=2
                                        # =>    This Loop Header: Depth=3
                                        #         Child Loop BB13_25 Depth 4
	xorl	%eax, %eax
	cmpl	$4, -12(%rbp)
	jge	.LBB13_23
# %bb.22:                               # %land.rhs63
                                        #   in Loop: Header=BB13_21 Depth=3
	cmpl	$0, -104(%rbp)
	setne	%al
	xorb	$-1, %al
.LBB13_23:                              # %land.end64
                                        #   in Loop: Header=BB13_21 Depth=3
	testb	$1, %al
	jne	.LBB13_24
	jmp	.LBB13_30
.LBB13_24:                              # %for.body66
                                        #   in Loop: Header=BB13_21 Depth=3
	movl	-24(%rbp), %eax
	addl	-12(%rbp), %eax
	movl	%eax, -148(%rbp)
	movl	$0, -16(%rbp)
.LBB13_25:                              # %for.cond68
                                        #   Parent Loop BB13_17 Depth=1
                                        #     Parent Loop BB13_19 Depth=2
                                        #       Parent Loop BB13_21 Depth=3
                                        # =>      This Inner Loop Header: Depth=4
	cmpl	$2, -16(%rbp)
	jge	.LBB13_28
# %bb.26:                               # %for.body71
                                        #   in Loop: Header=BB13_25 Depth=4
	movl	$3, %eax
	subl	-16(%rbp), %eax
	movl	%eax, -120(%rbp)
	movq	img, %rax
	addq	$13112, %rax            # imm = 0x3338
	movl	-16(%rbp), %ecx
	addl	-28(%rbp), %ecx
	movslq	%ecx, %rcx
	shlq	$6, %rcx
	addq	%rcx, %rax
	movslq	-148(%rbp), %rcx
	movl	(%rax,%rcx,4), %eax
	movq	img, %rcx
	addq	$13112, %rcx            # imm = 0x3338
	movl	-120(%rbp), %edx
	addl	-28(%rbp), %edx
	movslq	%edx, %rdx
	shlq	$6, %rdx
	addq	%rdx, %rcx
	movslq	-148(%rbp), %rdx
	addl	(%rcx,%rdx,4), %eax
	movslq	-16(%rbp), %rcx
	movl	%eax, -64(%rbp,%rcx,4)
	movq	img, %rax
	addq	$13112, %rax            # imm = 0x3338
	movl	-16(%rbp), %ecx
	addl	-28(%rbp), %ecx
	movslq	%ecx, %rcx
	shlq	$6, %rcx
	addq	%rcx, %rax
	movslq	-148(%rbp), %rcx
	movl	(%rax,%rcx,4), %eax
	movq	img, %rcx
	addq	$13112, %rcx            # imm = 0x3338
	movl	-120(%rbp), %edx
	addl	-28(%rbp), %edx
	movslq	%edx, %rdx
	shlq	$6, %rdx
	addq	%rdx, %rcx
	movslq	-148(%rbp), %rdx
	subl	(%rcx,%rdx,4), %eax
	movslq	-120(%rbp), %rcx
	movl	%eax, -64(%rbp,%rcx,4)
# %bb.27:                               # %for.inc
                                        #   in Loop: Header=BB13_25 Depth=4
	movl	-16(%rbp), %eax
	addl	$1, %eax
	movl	%eax, -16(%rbp)
	jmp	.LBB13_25
.LBB13_28:                              # %for.end
                                        #   in Loop: Header=BB13_21 Depth=3
	movl	-64(%rbp), %eax
	addl	-60(%rbp), %eax
	movq	img, %rcx
	addq	$13112, %rcx            # imm = 0x3338
	movslq	-28(%rbp), %rdx
	shlq	$6, %rdx
	addq	%rdx, %rcx
	movslq	-148(%rbp), %rdx
	movl	%eax, (%rcx,%rdx,4)
	movl	-64(%rbp), %eax
	subl	-60(%rbp), %eax
	movq	img, %rcx
	addq	$13112, %rcx            # imm = 0x3338
	movl	-28(%rbp), %edx
	addl	$2, %edx
	movslq	%edx, %rdx
	shlq	$6, %rdx
	addq	%rdx, %rcx
	movslq	-148(%rbp), %rdx
	movl	%eax, (%rcx,%rdx,4)
	movl	-52(%rbp), %eax
	shll	$1, %eax
	addl	-56(%rbp), %eax
	movq	img, %rcx
	addq	$13112, %rcx            # imm = 0x3338
	movl	-28(%rbp), %edx
	addl	$1, %edx
	movslq	%edx, %rdx
	shlq	$6, %rdx
	addq	%rdx, %rcx
	movslq	-148(%rbp), %rdx
	movl	%eax, (%rcx,%rdx,4)
	movl	-52(%rbp), %eax
	movl	-56(%rbp), %ecx
	shll	$1, %ecx
	subl	%ecx, %eax
	movq	img, %rcx
	addq	$13112, %rcx            # imm = 0x3338
	movl	-28(%rbp), %edx
	addl	$3, %edx
	movslq	%edx, %rdx
	shlq	$6, %rdx
	addq	%rdx, %rcx
	movslq	-148(%rbp), %rdx
	movl	%eax, (%rcx,%rdx,4)
# %bb.29:                               # %for.inc139
                                        #   in Loop: Header=BB13_21 Depth=3
	movl	-12(%rbp), %eax
	addl	$1, %eax
	movl	%eax, -12(%rbp)
	jmp	.LBB13_21
.LBB13_30:                              # %for.end141
                                        #   in Loop: Header=BB13_19 Depth=2
	movl	$0, -16(%rbp)
.LBB13_31:                              # %for.cond142
                                        #   Parent Loop BB13_17 Depth=1
                                        #     Parent Loop BB13_19 Depth=2
                                        # =>    This Loop Header: Depth=3
                                        #         Child Loop BB13_35 Depth 4
	xorl	%eax, %eax
	cmpl	$4, -16(%rbp)
	jge	.LBB13_33
# %bb.32:                               # %land.rhs145
                                        #   in Loop: Header=BB13_31 Depth=3
	cmpl	$0, -104(%rbp)
	setne	%al
	xorb	$-1, %al
.LBB13_33:                              # %land.end148
                                        #   in Loop: Header=BB13_31 Depth=3
	testb	$1, %al
	jne	.LBB13_34
	jmp	.LBB13_40
.LBB13_34:                              # %for.body150
                                        #   in Loop: Header=BB13_31 Depth=3
	movl	-28(%rbp), %eax
	addl	-16(%rbp), %eax
	movl	%eax, -32(%rbp)
	movl	$0, -12(%rbp)
.LBB13_35:                              # %for.cond152
                                        #   Parent Loop BB13_17 Depth=1
                                        #     Parent Loop BB13_19 Depth=2
                                        #       Parent Loop BB13_31 Depth=3
                                        # =>      This Inner Loop Header: Depth=4
	cmpl	$2, -12(%rbp)
	jge	.LBB13_38
# %bb.36:                               # %for.body155
                                        #   in Loop: Header=BB13_35 Depth=4
	movl	$3, %eax
	subl	-12(%rbp), %eax
	movl	%eax, -68(%rbp)
	movq	img, %rax
	addq	$13112, %rax            # imm = 0x3338
	movslq	-32(%rbp), %rcx
	shlq	$6, %rcx
	addq	%rcx, %rax
	movl	-24(%rbp), %ecx
	addl	-12(%rbp), %ecx
	movslq	%ecx, %rcx
	movl	(%rax,%rcx,4), %eax
	movq	img, %rcx
	addq	$13112, %rcx            # imm = 0x3338
	movslq	-32(%rbp), %rdx
	shlq	$6, %rdx
	addq	%rdx, %rcx
	movl	-24(%rbp), %edx
	addl	-68(%rbp), %edx
	movslq	%edx, %rdx
	addl	(%rcx,%rdx,4), %eax
	movslq	-12(%rbp), %rcx
	movl	%eax, -64(%rbp,%rcx,4)
	movq	img, %rax
	addq	$13112, %rax            # imm = 0x3338
	movslq	-32(%rbp), %rcx
	shlq	$6, %rcx
	addq	%rcx, %rax
	movl	-24(%rbp), %ecx
	addl	-12(%rbp), %ecx
	movslq	%ecx, %rcx
	movl	(%rax,%rcx,4), %eax
	movq	img, %rcx
	addq	$13112, %rcx            # imm = 0x3338
	movslq	-32(%rbp), %rdx
	shlq	$6, %rdx
	addq	%rdx, %rcx
	movl	-24(%rbp), %edx
	addl	-68(%rbp), %edx
	movslq	%edx, %rdx
	subl	(%rcx,%rdx,4), %eax
	movslq	-68(%rbp), %rcx
	movl	%eax, -64(%rbp,%rcx,4)
# %bb.37:                               # %for.inc187
                                        #   in Loop: Header=BB13_35 Depth=4
	movl	-12(%rbp), %eax
	addl	$1, %eax
	movl	%eax, -12(%rbp)
	jmp	.LBB13_35
.LBB13_38:                              # %for.end189
                                        #   in Loop: Header=BB13_31 Depth=3
	movl	-64(%rbp), %eax
	addl	-60(%rbp), %eax
	movq	img, %rcx
	addq	$13112, %rcx            # imm = 0x3338
	movslq	-32(%rbp), %rdx
	shlq	$6, %rdx
	addq	%rdx, %rcx
	movl	-24(%rbp), %edx
	addl	$0, %edx
	movslq	%edx, %rdx
	movl	%eax, (%rcx,%rdx,4)
	movl	-64(%rbp), %eax
	subl	-60(%rbp), %eax
	movq	img, %rcx
	addq	$13112, %rcx            # imm = 0x3338
	movslq	-32(%rbp), %rdx
	shlq	$6, %rdx
	addq	%rdx, %rcx
	movl	-24(%rbp), %edx
	addl	$2, %edx
	movslq	%edx, %rdx
	movl	%eax, (%rcx,%rdx,4)
	movl	-52(%rbp), %eax
	shll	$1, %eax
	addl	-56(%rbp), %eax
	movq	img, %rcx
	addq	$13112, %rcx            # imm = 0x3338
	movslq	-32(%rbp), %rdx
	shlq	$6, %rdx
	addq	%rdx, %rcx
	movl	-24(%rbp), %edx
	addl	$1, %edx
	movslq	%edx, %rdx
	movl	%eax, (%rcx,%rdx,4)
	movl	-52(%rbp), %eax
	movl	-56(%rbp), %ecx
	shll	$1, %ecx
	subl	%ecx, %eax
	movq	img, %rcx
	addq	$13112, %rcx            # imm = 0x3338
	movslq	-32(%rbp), %rdx
	shlq	$6, %rdx
	addq	%rdx, %rcx
	movl	-24(%rbp), %edx
	addl	$3, %edx
	movslq	%edx, %rdx
	movl	%eax, (%rcx,%rdx,4)
# %bb.39:                               # %for.inc228
                                        #   in Loop: Header=BB13_31 Depth=3
	movl	-16(%rbp), %eax
	addl	$1, %eax
	movl	%eax, -16(%rbp)
	jmp	.LBB13_31
.LBB13_40:                              # %for.end230
                                        #   in Loop: Header=BB13_19 Depth=2
	jmp	.LBB13_41
.LBB13_41:                              # %for.inc231
                                        #   in Loop: Header=BB13_19 Depth=2
	movl	-28(%rbp), %eax
	addl	$4, %eax
	movl	%eax, -28(%rbp)
	jmp	.LBB13_19
.LBB13_42:                              # %for.end233
                                        #   in Loop: Header=BB13_17 Depth=1
	jmp	.LBB13_43
.LBB13_43:                              # %for.inc234
                                        #   in Loop: Header=BB13_17 Depth=1
	movl	-24(%rbp), %eax
	addl	$4, %eax
	movl	%eax, -24(%rbp)
	jmp	.LBB13_17
.LBB13_44:                              # %for.end236
	cmpl	$1, -140(%rbp)
	jne	.LBB13_76
# %bb.45:                               # %if.then239
	movq	img, %rax
	movl	13112(%rax), %eax
	movq	img, %rcx
	addl	13368(%rcx), %eax
	movq	img, %rcx
	addl	13128(%rcx), %eax
	movq	img, %rcx
	addl	13384(%rcx), %eax
	movl	%eax, -176(%rbp)
	movq	img, %rax
	movl	13112(%rax), %eax
	movq	img, %rcx
	subl	13368(%rcx), %eax
	movq	img, %rcx
	addl	13128(%rcx), %eax
	movq	img, %rcx
	subl	13384(%rcx), %eax
	movl	%eax, -172(%rbp)
	movq	img, %rax
	movl	13112(%rax), %eax
	movq	img, %rcx
	addl	13368(%rcx), %eax
	movq	img, %rcx
	subl	13128(%rcx), %eax
	movq	img, %rcx
	subl	13384(%rcx), %eax
	movl	%eax, -168(%rbp)
	movq	img, %rax
	movl	13112(%rax), %eax
	movq	img, %rcx
	subl	13368(%rcx), %eax
	movq	img, %rcx
	subl	13128(%rcx), %eax
	movq	img, %rcx
	addl	13384(%rcx), %eax
	movl	%eax, -164(%rbp)
	movl	$-1, -100(%rbp)
	movl	$0, -72(%rbp)
	movl	$0, -36(%rbp)
.LBB13_46:                              # %for.cond304
                                        # =>This Inner Loop Header: Depth=1
	cmpl	$4, -36(%rbp)
	jge	.LBB13_62
# %bb.47:                               # %for.body307
                                        #   in Loop: Header=BB13_46 Depth=1
	movl	-100(%rbp), %eax
	addl	$1, %eax
	movl	%eax, -100(%rbp)
	movl	$0, -144(%rbp)
	cmpl	$1, -124(%rbp)
	jne	.LBB13_49
# %bb.48:                               # %if.then311
                                        #   in Loop: Header=BB13_46 Depth=1
	movslq	-36(%rbp), %rax
	movl	-176(%rbp,%rax,4), %edi
	callq	abs
	movslq	-20(%rbp), %rcx
	imulq	$384, %rcx, %rcx        # imm = 0x180
	movabsq	$LevelScale4x4Chroma_Intra, %rdx
	addq	%rcx, %rdx
	movslq	-76(%rbp), %rcx
	shlq	$6, %rcx
	addq	%rcx, %rdx
	imull	(%rdx), %eax
	movslq	-20(%rbp), %rcx
	imulq	$832, %rcx, %rcx        # imm = 0x340
	movabsq	$LevelOffset4x4Chroma_Intra, %rdx
	addq	%rcx, %rdx
	movslq	-40(%rbp), %rcx
	shlq	$6, %rcx
	addq	%rcx, %rdx
	movl	(%rdx), %ecx
	shll	$1, %ecx
	addl	%ecx, %eax
	movl	-180(%rbp), %ecx
	addl	$1, %ecx
                                        # kill: def $cl killed $ecx
	sarl	%cl, %eax
	movl	%eax, -44(%rbp)
	jmp	.LBB13_50
.LBB13_49:                              # %if.else
                                        #   in Loop: Header=BB13_46 Depth=1
	movslq	-36(%rbp), %rax
	movl	-176(%rbp,%rax,4), %edi
	callq	abs
	movslq	-20(%rbp), %rcx
	imulq	$384, %rcx, %rcx        # imm = 0x180
	movabsq	$LevelScale4x4Chroma_Inter, %rdx
	addq	%rcx, %rdx
	movslq	-76(%rbp), %rcx
	shlq	$6, %rcx
	addq	%rcx, %rdx
	imull	(%rdx), %eax
	movslq	-20(%rbp), %rcx
	imulq	$832, %rcx, %rcx        # imm = 0x340
	movabsq	$LevelOffset4x4Chroma_Inter, %rdx
	addq	%rcx, %rdx
	movslq	-40(%rbp), %rcx
	shlq	$6, %rcx
	addq	%rcx, %rdx
	movl	(%rdx), %ecx
	shll	$1, %ecx
	addl	%ecx, %eax
	movl	-180(%rbp), %ecx
	addl	$1, %ecx
                                        # kill: def $cl killed $ecx
	sarl	%cl, %eax
	movl	%eax, -44(%rbp)
.LBB13_50:                              # %if.end349
                                        #   in Loop: Header=BB13_46 Depth=1
	movq	input, %rax
	cmpl	$0, 2356(%rax)
	jne	.LBB13_55
# %bb.51:                               # %land.lhs.true
                                        #   in Loop: Header=BB13_46 Depth=1
	movq	img, %rax
	cmpl	$4, 40(%rax)
	jge	.LBB13_55
# %bb.52:                               # %if.then355
                                        #   in Loop: Header=BB13_46 Depth=1
	cmpl	$2063, -44(%rbp)        # imm = 0x80F
	jle	.LBB13_54
# %bb.53:                               # %if.then358
                                        #   in Loop: Header=BB13_46 Depth=1
	movl	$2063, -44(%rbp)        # imm = 0x80F
.LBB13_54:                              # %if.end359
                                        #   in Loop: Header=BB13_46 Depth=1
	jmp	.LBB13_55
.LBB13_55:                              # %if.end360
                                        #   in Loop: Header=BB13_46 Depth=1
	cmpl	$0, -44(%rbp)
	je	.LBB13_60
# %bb.56:                               # %if.then363
                                        #   in Loop: Header=BB13_46 Depth=1
	movl	-20(%rbp), %ecx
	shll	$2, %ecx
                                        # kill: def $cl killed $ecx
	movl	$983040, %eax           # imm = 0xF0000
	shll	%cl, %eax
	cltq
	movq	-192(%rbp), %rcx
	orq	464(%rcx), %rax
	movq	%rax, 464(%rcx)
	movl	$1, %eax
	cmpl	-136(%rbp), %eax
	jle	.LBB13_58
# %bb.57:                               # %cond.true369
                                        #   in Loop: Header=BB13_46 Depth=1
	movl	$1, %eax
	jmp	.LBB13_59
.LBB13_58:                              # %cond.false370
                                        #   in Loop: Header=BB13_46 Depth=1
	movl	-136(%rbp), %eax
.LBB13_59:                              # %cond.end371
                                        #   in Loop: Header=BB13_46 Depth=1
	movl	%eax, -136(%rbp)
	movl	$1, -204(%rbp)
	movl	-44(%rbp), %edi
	movslq	-36(%rbp), %rax
	movl	-176(%rbp,%rax,4), %esi
	callq	sign
	movq	-224(%rbp), %rcx
	movslq	-72(%rbp), %rdx
	movl	%eax, (%rcx,%rdx,4)
	movl	-100(%rbp), %eax
	movq	-376(%rbp), %rcx
	movslq	-72(%rbp), %rdx
	movl	%eax, (%rcx,%rdx,4)
	movl	-72(%rbp), %eax
	addl	$1, %eax
	movl	%eax, -72(%rbp)
	movl	$-1, -100(%rbp)
	movl	-44(%rbp), %edi
	movslq	-36(%rbp), %rax
	movl	-176(%rbp,%rax,4), %esi
	callq	sign
	movl	%eax, -144(%rbp)
.LBB13_60:                              # %if.end384
                                        #   in Loop: Header=BB13_46 Depth=1
	movl	-144(%rbp), %eax
	movslq	-36(%rbp), %rcx
	movl	%eax, -176(%rbp,%rcx,4)
# %bb.61:                               # %for.inc387
                                        #   in Loop: Header=BB13_46 Depth=1
	movl	-36(%rbp), %eax
	addl	$1, %eax
	movl	%eax, -36(%rbp)
	jmp	.LBB13_46
.LBB13_62:                              # %for.end389
	movq	-224(%rbp), %rax
	movslq	-72(%rbp), %rcx
	movl	$0, (%rax,%rcx,4)
	movl	-176(%rbp), %eax
	addl	-172(%rbp), %eax
	addl	-168(%rbp), %eax
	addl	-164(%rbp), %eax
	movl	%eax, -64(%rbp)
	movl	-176(%rbp), %eax
	subl	-172(%rbp), %eax
	addl	-168(%rbp), %eax
	subl	-164(%rbp), %eax
	movl	%eax, -60(%rbp)
	movl	-176(%rbp), %eax
	addl	-172(%rbp), %eax
	subl	-168(%rbp), %eax
	subl	-164(%rbp), %eax
	movl	%eax, -56(%rbp)
	movl	-176(%rbp), %eax
	subl	-172(%rbp), %eax
	subl	-168(%rbp), %eax
	addl	-164(%rbp), %eax
	movl	%eax, -52(%rbp)
	movl	$0, -16(%rbp)
.LBB13_63:                              # %for.cond424
                                        # =>This Inner Loop Header: Depth=1
	cmpl	$4, -16(%rbp)
	jge	.LBB13_75
# %bb.64:                               # %for.body427
                                        #   in Loop: Header=BB13_63 Depth=1
	cmpl	$5, -40(%rbp)
	jge	.LBB13_69
# %bb.65:                               # %if.then430
                                        #   in Loop: Header=BB13_63 Depth=1
	cmpl	$1, -124(%rbp)
	jne	.LBB13_67
# %bb.66:                               # %if.then433
                                        #   in Loop: Header=BB13_63 Depth=1
	movslq	-16(%rbp), %rax
	movl	-64(%rbp,%rax,4), %eax
	movslq	-20(%rbp), %rcx
	imulq	$384, %rcx, %rcx        # imm = 0x180
	movabsq	$InvLevelScale4x4Chroma_Intra, %rdx
	addq	%rcx, %rdx
	movslq	-76(%rbp), %rcx
	shlq	$6, %rcx
	addq	%rcx, %rdx
	imull	(%rdx), %eax
	movl	$5, %ecx
	subl	-40(%rbp), %ecx
                                        # kill: def $cl killed $ecx
	sarl	%cl, %eax
	movslq	-16(%rbp), %rcx
	movl	%eax, -176(%rbp,%rcx,4)
	jmp	.LBB13_68
.LBB13_67:                              # %if.else447
                                        #   in Loop: Header=BB13_63 Depth=1
	movslq	-16(%rbp), %rax
	movl	-64(%rbp,%rax,4), %eax
	movslq	-20(%rbp), %rcx
	imulq	$384, %rcx, %rcx        # imm = 0x180
	movabsq	$InvLevelScale4x4Chroma_Inter, %rdx
	addq	%rcx, %rdx
	movslq	-76(%rbp), %rcx
	shlq	$6, %rcx
	addq	%rcx, %rdx
	imull	(%rdx), %eax
	movl	$5, %ecx
	subl	-40(%rbp), %ecx
                                        # kill: def $cl killed $ecx
	sarl	%cl, %eax
	movslq	-16(%rbp), %rcx
	movl	%eax, -176(%rbp,%rcx,4)
.LBB13_68:                              # %if.end461
                                        #   in Loop: Header=BB13_63 Depth=1
	jmp	.LBB13_73
.LBB13_69:                              # %if.else462
                                        #   in Loop: Header=BB13_63 Depth=1
	cmpl	$1, -124(%rbp)
	jne	.LBB13_71
# %bb.70:                               # %if.then465
                                        #   in Loop: Header=BB13_63 Depth=1
	movslq	-16(%rbp), %rax
	movl	-64(%rbp,%rax,4), %eax
	movslq	-20(%rbp), %rcx
	imulq	$384, %rcx, %rcx        # imm = 0x180
	movabsq	$InvLevelScale4x4Chroma_Intra, %rdx
	addq	%rcx, %rdx
	movslq	-76(%rbp), %rcx
	shlq	$6, %rcx
	addq	%rcx, %rdx
	imull	(%rdx), %eax
	movl	-40(%rbp), %ecx
	subl	$5, %ecx
                                        # kill: def $cl killed $ecx
	shll	%cl, %eax
	movslq	-16(%rbp), %rcx
	movl	%eax, -176(%rbp,%rcx,4)
	jmp	.LBB13_72
.LBB13_71:                              # %if.else479
                                        #   in Loop: Header=BB13_63 Depth=1
	movslq	-16(%rbp), %rax
	movl	-64(%rbp,%rax,4), %eax
	movslq	-20(%rbp), %rcx
	imulq	$384, %rcx, %rcx        # imm = 0x180
	movabsq	$InvLevelScale4x4Chroma_Inter, %rdx
	addq	%rcx, %rdx
	movslq	-76(%rbp), %rcx
	shlq	$6, %rcx
	addq	%rcx, %rdx
	imull	(%rdx), %eax
	movl	-40(%rbp), %ecx
	subl	$5, %ecx
                                        # kill: def $cl killed $ecx
	shll	%cl, %eax
	movslq	-16(%rbp), %rcx
	movl	%eax, -176(%rbp,%rcx,4)
.LBB13_72:                              # %if.end493
                                        #   in Loop: Header=BB13_63 Depth=1
	jmp	.LBB13_73
.LBB13_73:                              # %if.end494
                                        #   in Loop: Header=BB13_63 Depth=1
	jmp	.LBB13_74
.LBB13_74:                              # %for.inc495
                                        #   in Loop: Header=BB13_63 Depth=1
	movl	-16(%rbp), %eax
	addl	$1, %eax
	movl	%eax, -16(%rbp)
	jmp	.LBB13_63
.LBB13_75:                              # %for.end497
	movl	-176(%rbp), %eax
	movq	img, %rcx
	movl	%eax, 13112(%rcx)
	movl	-172(%rbp), %eax
	movq	img, %rcx
	movl	%eax, 13368(%rcx)
	movl	-168(%rbp), %eax
	movq	img, %rcx
	movl	%eax, 13128(%rcx)
	movl	-164(%rbp), %eax
	movq	img, %rcx
	movl	%eax, 13384(%rcx)
	jmp	.LBB13_213
.LBB13_76:                              # %if.else514
	cmpl	$2, -140(%rbp)
	jne	.LBB13_127
# %bb.77:                               # %if.then517
	movl	$0, -12(%rbp)
.LBB13_78:                              # %for.cond518
                                        # =>This Loop Header: Depth=1
                                        #     Child Loop BB13_80 Depth 2
	movl	-12(%rbp), %eax
	movq	img, %rcx
	cmpl	72712(%rcx), %eax
	jge	.LBB13_85
# %bb.79:                               # %for.body522
                                        #   in Loop: Header=BB13_78 Depth=1
	movl	$0, -16(%rbp)
.LBB13_80:                              # %for.cond523
                                        #   Parent Loop BB13_78 Depth=1
                                        # =>  This Inner Loop Header: Depth=2
	movl	-16(%rbp), %eax
	movq	img, %rcx
	cmpl	72708(%rcx), %eax
	jge	.LBB13_83
# %bb.81:                               # %for.body527
                                        #   in Loop: Header=BB13_80 Depth=2
	movq	img, %rax
	addq	$13112, %rax            # imm = 0x3338
	movslq	-16(%rbp), %rcx
	shlq	$6, %rcx
	addq	%rcx, %rax
	movslq	-12(%rbp), %rcx
	movl	(%rax,%rcx,4), %eax
	movl	-16(%rbp), %ecx
	sarl	$2, %ecx
	movslq	%ecx, %rcx
	shlq	$4, %rcx
	leaq	-368(%rbp), %rdx
	addq	%rcx, %rdx
	movl	-12(%rbp), %ecx
	sarl	$2, %ecx
	movslq	%ecx, %rcx
	movl	%eax, (%rdx,%rcx,4)
# %bb.82:                               # %for.inc539
                                        #   in Loop: Header=BB13_80 Depth=2
	movl	-16(%rbp), %eax
	addl	$4, %eax
	movl	%eax, -16(%rbp)
	jmp	.LBB13_80
.LBB13_83:                              # %for.end541
                                        #   in Loop: Header=BB13_78 Depth=1
	jmp	.LBB13_84
.LBB13_84:                              # %for.inc542
                                        #   in Loop: Header=BB13_78 Depth=1
	movl	-12(%rbp), %eax
	addl	$4, %eax
	movl	%eax, -12(%rbp)
	jmp	.LBB13_78
.LBB13_85:                              # %for.end544
	movl	-368(%rbp), %eax
	addl	-352(%rbp), %eax
	movl	%eax, -304(%rbp)
	movl	-364(%rbp), %eax
	addl	-348(%rbp), %eax
	movl	%eax, -300(%rbp)
	movl	-360(%rbp), %eax
	addl	-344(%rbp), %eax
	movl	%eax, -296(%rbp)
	movl	-356(%rbp), %eax
	addl	-340(%rbp), %eax
	movl	%eax, -292(%rbp)
	movl	-368(%rbp), %eax
	subl	-352(%rbp), %eax
	movl	%eax, -288(%rbp)
	movl	-364(%rbp), %eax
	subl	-348(%rbp), %eax
	movl	%eax, -284(%rbp)
	movl	-360(%rbp), %eax
	subl	-344(%rbp), %eax
	movl	%eax, -280(%rbp)
	movl	-356(%rbp), %eax
	subl	-340(%rbp), %eax
	movl	%eax, -276(%rbp)
	movl	$0, -16(%rbp)
.LBB13_86:                              # %for.cond601
                                        # =>This Loop Header: Depth=1
                                        #     Child Loop BB13_88 Depth 2
	cmpl	$2, -16(%rbp)
	jge	.LBB13_93
# %bb.87:                               # %for.body604
                                        #   in Loop: Header=BB13_86 Depth=1
	movl	$0, -12(%rbp)
.LBB13_88:                              # %for.cond605
                                        #   Parent Loop BB13_86 Depth=1
                                        # =>  This Inner Loop Header: Depth=2
	cmpl	$2, -12(%rbp)
	jge	.LBB13_91
# %bb.89:                               # %for.body608
                                        #   in Loop: Header=BB13_88 Depth=2
	movl	$3, %eax
	subl	-12(%rbp), %eax
	movl	%eax, -32(%rbp)
	movslq	-16(%rbp), %rax
	shlq	$4, %rax
	leaq	-304(%rbp), %rcx
	movq	%rcx, %rdx
	addq	%rax, %rdx
	movslq	-12(%rbp), %rax
	movl	(%rdx,%rax,4), %eax
	movslq	-16(%rbp), %rdx
	shlq	$4, %rdx
	movq	%rcx, %rsi
	addq	%rdx, %rsi
	movslq	-32(%rbp), %rdx
	addl	(%rsi,%rdx,4), %eax
	movslq	-12(%rbp), %rdx
	movl	%eax, -64(%rbp,%rdx,4)
	movslq	-16(%rbp), %rax
	shlq	$4, %rax
	movq	%rcx, %rdx
	addq	%rax, %rdx
	movslq	-12(%rbp), %rax
	movl	(%rdx,%rax,4), %eax
	movslq	-16(%rbp), %rdx
	shlq	$4, %rdx
	addq	%rdx, %rcx
	movslq	-32(%rbp), %rdx
	subl	(%rcx,%rdx,4), %eax
	movslq	-32(%rbp), %rcx
	movl	%eax, -64(%rbp,%rcx,4)
# %bb.90:                               # %for.inc632
                                        #   in Loop: Header=BB13_88 Depth=2
	movl	-12(%rbp), %eax
	addl	$1, %eax
	movl	%eax, -12(%rbp)
	jmp	.LBB13_88
.LBB13_91:                              # %for.end634
                                        #   in Loop: Header=BB13_86 Depth=1
	movl	-64(%rbp), %eax
	addl	-60(%rbp), %eax
	movslq	-16(%rbp), %rcx
	shlq	$4, %rcx
	leaq	-304(%rbp), %rdx
	movq	%rdx, %rsi
	addq	%rcx, %rsi
	movl	%eax, (%rsi)
	movl	-64(%rbp), %eax
	subl	-60(%rbp), %eax
	movslq	-16(%rbp), %rcx
	shlq	$4, %rcx
	movq	%rdx, %rsi
	addq	%rcx, %rsi
	movl	%eax, 8(%rsi)
	movl	-52(%rbp), %eax
	addl	-56(%rbp), %eax
	movslq	-16(%rbp), %rcx
	shlq	$4, %rcx
	movq	%rdx, %rsi
	addq	%rcx, %rsi
	movl	%eax, 4(%rsi)
	movl	-52(%rbp), %eax
	subl	-56(%rbp), %eax
	movslq	-16(%rbp), %rcx
	shlq	$4, %rcx
	addq	%rcx, %rdx
	movl	%eax, 12(%rdx)
# %bb.92:                               # %for.inc659
                                        #   in Loop: Header=BB13_86 Depth=1
	movl	-16(%rbp), %eax
	addl	$1, %eax
	movl	%eax, -16(%rbp)
	jmp	.LBB13_86
.LBB13_93:                              # %for.end661
	movl	$-1, -100(%rbp)
	movl	$0, -72(%rbp)
	movl	$0, -36(%rbp)
.LBB13_94:                              # %for.cond662
                                        # =>This Inner Loop Header: Depth=1
	cmpl	$8, -36(%rbp)
	jge	.LBB13_105
# %bb.95:                               # %for.body665
                                        #   in Loop: Header=BB13_94 Depth=1
	movslq	-36(%rbp), %rax
	movzbl	SCAN_YUV422(,%rax,2), %eax
	movl	%eax, -16(%rbp)
	movslq	-36(%rbp), %rax
	movzbl	SCAN_YUV422+1(,%rax,2), %eax
	movl	%eax, -12(%rbp)
	movl	-100(%rbp), %eax
	addl	$1, %eax
	movl	%eax, -100(%rbp)
	cmpl	$1, -124(%rbp)
	jne	.LBB13_97
# %bb.96:                               # %if.then677
                                        #   in Loop: Header=BB13_94 Depth=1
	movslq	-16(%rbp), %rax
	shlq	$4, %rax
	leaq	-304(%rbp), %rcx
	addq	%rax, %rcx
	movslq	-12(%rbp), %rax
	movl	(%rcx,%rax,4), %edi
	callq	abs
	movslq	-20(%rbp), %rcx
	imulq	$384, %rcx, %rcx        # imm = 0x180
	movabsq	$LevelScale4x4Chroma_Intra, %rdx
	addq	%rcx, %rdx
	movslq	-132(%rbp), %rcx
	shlq	$6, %rcx
	addq	%rcx, %rdx
	imull	(%rdx), %eax
	movslq	-20(%rbp), %rcx
	imulq	$832, %rcx, %rcx        # imm = 0x340
	movabsq	$LevelOffset4x4Chroma_Intra, %rdx
	addq	%rcx, %rdx
	movslq	-108(%rbp), %rcx
	shlq	$6, %rcx
	addq	%rcx, %rdx
	movl	(%rdx), %ecx
	shll	$1, %ecx
	addl	%ecx, %eax
	movl	-208(%rbp), %ecx
	addl	$1, %ecx
                                        # kill: def $cl killed $ecx
	sarl	%cl, %eax
	movl	%eax, -44(%rbp)
	jmp	.LBB13_98
.LBB13_97:                              # %if.else700
                                        #   in Loop: Header=BB13_94 Depth=1
	movslq	-16(%rbp), %rax
	shlq	$4, %rax
	leaq	-304(%rbp), %rcx
	addq	%rax, %rcx
	movslq	-12(%rbp), %rax
	movl	(%rcx,%rax,4), %edi
	callq	abs
	movslq	-20(%rbp), %rcx
	imulq	$384, %rcx, %rcx        # imm = 0x180
	movabsq	$LevelScale4x4Chroma_Inter, %rdx
	addq	%rcx, %rdx
	movslq	-132(%rbp), %rcx
	shlq	$6, %rcx
	addq	%rcx, %rdx
	imull	(%rdx), %eax
	movslq	-20(%rbp), %rcx
	imulq	$832, %rcx, %rcx        # imm = 0x340
	movabsq	$LevelOffset4x4Chroma_Inter, %rdx
	addq	%rcx, %rdx
	movslq	-108(%rbp), %rcx
	shlq	$6, %rcx
	addq	%rcx, %rdx
	movl	(%rdx), %ecx
	shll	$1, %ecx
	addl	%ecx, %eax
	movl	-208(%rbp), %ecx
	addl	$1, %ecx
                                        # kill: def $cl killed $ecx
	sarl	%cl, %eax
	movl	%eax, -44(%rbp)
.LBB13_98:                              # %if.end723
                                        #   in Loop: Header=BB13_94 Depth=1
	cmpl	$0, -44(%rbp)
	je	.LBB13_103
# %bb.99:                               # %if.then726
                                        #   in Loop: Header=BB13_94 Depth=1
	movl	-20(%rbp), %ecx
	shll	$3, %ecx
                                        # kill: def $cl killed $ecx
	movl	$16711680, %eax         # imm = 0xFF0000
	shll	%cl, %eax
	cltq
	movq	-192(%rbp), %rcx
	orq	464(%rcx), %rax
	movq	%rax, 464(%rcx)
	movl	$1, %eax
	cmpl	-136(%rbp), %eax
	jle	.LBB13_101
# %bb.100:                              # %cond.true734
                                        #   in Loop: Header=BB13_94 Depth=1
	movl	$1, %eax
	jmp	.LBB13_102
.LBB13_101:                             # %cond.false735
                                        #   in Loop: Header=BB13_94 Depth=1
	movl	-136(%rbp), %eax
.LBB13_102:                             # %cond.end736
                                        #   in Loop: Header=BB13_94 Depth=1
	movl	%eax, -136(%rbp)
	movl	$1, -204(%rbp)
	movl	-44(%rbp), %edi
	movslq	-16(%rbp), %rax
	shlq	$4, %rax
	leaq	-304(%rbp), %rcx
	addq	%rax, %rcx
	movslq	-12(%rbp), %rax
	movl	(%rcx,%rax,4), %esi
	callq	sign
	movq	-224(%rbp), %rcx
	movslq	-72(%rbp), %rdx
	movl	%eax, (%rcx,%rdx,4)
	movl	-100(%rbp), %eax
	movq	-376(%rbp), %rcx
	movslq	-72(%rbp), %rdx
	movl	%eax, (%rcx,%rdx,4)
	movl	-72(%rbp), %eax
	addl	$1, %eax
	movl	%eax, -72(%rbp)
	movl	$-1, -100(%rbp)
.LBB13_103:                             # %if.end748
                                        #   in Loop: Header=BB13_94 Depth=1
	movl	-44(%rbp), %edi
	movslq	-16(%rbp), %rax
	shlq	$4, %rax
	leaq	-304(%rbp), %rcx
	addq	%rax, %rcx
