	.text
	.file	"block.c"
	.globl	intrapred_luma          # -- Begin function intrapred_luma
	.p2align	4, 0x90
	.type	intrapred_luma,@function
intrapred_luma:                         # @intrapred_luma
	.cfi_startproc
# %bb.0:                                # %entry
	pushq	%rbp
	.cfi_def_cfa_offset 16
	.cfi_offset %rbp, -16
	movq	%rsp, %rbp
	.cfi_def_cfa_register %rbp
	subq	$320, %rsp              # imm = 0x140
	movl	%edi, -116(%rbp)
	movl	%esi, -112(%rbp)
	movq	%rdx, -216(%rbp)
	movq	%rcx, -208(%rbp)
	movq	%r8, -200(%rbp)
	movq	enc_picture, %rax
	movq	6424(%rax), %rax
	movq	%rax, -80(%rbp)
	movl	-116(%rbp), %eax
	andl	$15, %eax
	movl	%eax, -88(%rbp)
	movl	-112(%rbp), %eax
	andl	$15, %eax
	movl	%eax, -84(%rbp)
	movq	img, %rax
	movl	12(%rax), %eax
	movl	%eax, -104(%rbp)
	movl	$0, -4(%rbp)
.LBB0_1:                                # %for.cond
                                        # =>This Inner Loop Header: Depth=1
	cmpl	$4, -4(%rbp)
	jge	.LBB0_4
# %bb.2:                                # %for.body
                                        #   in Loop: Header=BB0_1 Depth=1
	movl	-104(%rbp), %edi
	movl	-88(%rbp), %esi
	subl	$1, %esi
	movl	-84(%rbp), %edx
	addl	-4(%rbp), %edx
	movslq	-4(%rbp), %rax
	imulq	$24, %rax, %rax
	leaq	-320(%rbp), %r8
	addq	%rax, %r8
	movl	$1, %ecx
	callq	getNeighbour
# %bb.3:                                # %for.inc
                                        #   in Loop: Header=BB0_1 Depth=1
	movl	-4(%rbp), %eax
	addl	$1, %eax
	movl	%eax, -4(%rbp)
	jmp	.LBB0_1
.LBB0_4:                                # %for.end
	movl	-104(%rbp), %edi
	movl	-88(%rbp), %esi
	movl	-84(%rbp), %edx
	subl	$1, %edx
	movl	$1, %ecx
	leaq	-168(%rbp), %r8
	callq	getNeighbour
	movl	-104(%rbp), %edi
	movl	-88(%rbp), %esi
	addl	$4, %esi
	movl	-84(%rbp), %edx
	subl	$1, %edx
	movl	$1, %ecx
	leaq	-144(%rbp), %r8
	callq	getNeighbour
	movl	-104(%rbp), %edi
	movl	-88(%rbp), %esi
	subl	$1, %esi
	movl	-84(%rbp), %edx
	subl	$1, %edx
	movl	$1, %ecx
	leaq	-192(%rbp), %r8
	callq	getNeighbour
	xorl	%eax, %eax
	cmpl	$0, -144(%rbp)
	je	.LBB0_11
# %bb.5:                                # %land.rhs
	cmpl	$4, -88(%rbp)
	je	.LBB0_7
# %bb.6:                                # %lor.lhs.false
	xorl	%eax, %eax
	cmpl	$12, -88(%rbp)
	jne	.LBB0_10
.LBB0_7:                                # %land.rhs10
	cmpl	$4, -84(%rbp)
	movb	$1, %al
	je	.LBB0_9
# %bb.8:                                # %lor.rhs
	cmpl	$12, -84(%rbp)
	sete	%al
.LBB0_9:                                # %lor.end
.LBB0_10:                               # %land.end
	xorb	$-1, %al
.LBB0_11:                               # %land.end13
	andb	$1, %al
	movzbl	%al, %eax
	movl	%eax, -144(%rbp)
	movq	input, %rax
	cmpl	$0, 216(%rax)
	je	.LBB0_29
# %bb.12:                               # %if.then
	movl	$0, -4(%rbp)
	movl	$1, -68(%rbp)
.LBB0_13:                               # %for.cond16
                                        # =>This Inner Loop Header: Depth=1
	cmpl	$4, -4(%rbp)
	jge	.LBB0_19
# %bb.14:                               # %for.body18
                                        #   in Loop: Header=BB0_13 Depth=1
	movslq	-4(%rbp), %rax
	imulq	$24, %rax, %rax
	leaq	-320(%rbp), %rcx
	addq	%rax, %rcx
	cmpl	$0, (%rcx)
	je	.LBB0_16
# %bb.15:                               # %cond.true
                                        #   in Loop: Header=BB0_13 Depth=1
	movq	img, %rax
	movq	71784(%rax), %rax
	movslq	-4(%rbp), %rcx
	imulq	$24, %rcx, %rcx
	leaq	-320(%rbp), %rdx
	addq	%rcx, %rdx
	movslq	4(%rdx), %rcx
	movl	(%rax,%rcx,4), %eax
	jmp	.LBB0_17
.LBB0_16:                               # %cond.false
                                        #   in Loop: Header=BB0_13 Depth=1
	xorl	%eax, %eax
	jmp	.LBB0_17
.LBB0_17:                               # %cond.end
                                        #   in Loop: Header=BB0_13 Depth=1
	andl	-68(%rbp), %eax
	movl	%eax, -68(%rbp)
# %bb.18:                               # %for.inc28
                                        #   in Loop: Header=BB0_13 Depth=1
	movl	-4(%rbp), %eax
	addl	$1, %eax
	movl	%eax, -4(%rbp)
	jmp	.LBB0_13
.LBB0_19:                               # %for.end30
	cmpl	$0, -168(%rbp)
	je	.LBB0_21
# %bb.20:                               # %cond.true33
	movq	img, %rax
	movq	71784(%rax), %rax
	movslq	-164(%rbp), %rcx
	movl	(%rax,%rcx,4), %eax
	jmp	.LBB0_22
.LBB0_21:                               # %cond.false38
	xorl	%eax, %eax
	jmp	.LBB0_22
.LBB0_22:                               # %cond.end39
	movl	%eax, -72(%rbp)
	cmpl	$0, -144(%rbp)
	je	.LBB0_24
# %bb.23:                               # %cond.true43
	movq	img, %rax
	movq	71784(%rax), %rax
	movslq	-140(%rbp), %rcx
	movl	(%rax,%rcx,4), %eax
	jmp	.LBB0_25
.LBB0_24:                               # %cond.false48
	xorl	%eax, %eax
	jmp	.LBB0_25
.LBB0_25:                               # %cond.end49
	movl	%eax, -108(%rbp)
	cmpl	$0, -192(%rbp)
	je	.LBB0_27
# %bb.26:                               # %cond.true53
	movq	img, %rax
	movq	71784(%rax), %rax
	movslq	-188(%rbp), %rcx
	movl	(%rax,%rcx,4), %eax
	jmp	.LBB0_28
.LBB0_27:                               # %cond.false58
	xorl	%eax, %eax
	jmp	.LBB0_28
.LBB0_28:                               # %cond.end59
	movl	%eax, -100(%rbp)
	jmp	.LBB0_30
.LBB0_29:                               # %if.else
	movl	-320(%rbp), %eax
	movl	%eax, -68(%rbp)
	movl	-168(%rbp), %eax
	movl	%eax, -72(%rbp)
	movl	-144(%rbp), %eax
	movl	%eax, -108(%rbp)
	movl	-192(%rbp), %eax
	movl	%eax, -100(%rbp)
.LBB0_30:                               # %if.end
	xorl	%eax, %eax
	movl	-68(%rbp), %ecx
	movq	-216(%rbp), %rdx
	movl	%ecx, (%rdx)
	movl	-72(%rbp), %ecx
	movq	-208(%rbp), %rdx
	movl	%ecx, (%rdx)
	cmpl	$0, -72(%rbp)
	je	.LBB0_33
# %bb.31:                               # %land.lhs.true
	xorl	%eax, %eax
	cmpl	$0, -68(%rbp)
	je	.LBB0_33
# %bb.32:                               # %land.rhs68
	cmpl	$0, -100(%rbp)
	setne	%al
.LBB0_33:                               # %land.end70
	andb	$1, %al
	movzbl	%al, %eax
	movq	-200(%rbp), %rcx
	movl	%eax, (%rcx)
	movl	-116(%rbp), %eax
	andl	$15, %eax
	movl	%eax, -4(%rbp)
	movl	-112(%rbp), %eax
	andl	$15, %eax
	movl	%eax, -96(%rbp)
	cmpl	$0, -72(%rbp)
	je	.LBB0_35
# %bb.34:                               # %if.then75
	movq	-80(%rbp), %rax
	movslq	-148(%rbp), %rcx
	movq	(%rax,%rcx,8), %rax
	movl	-152(%rbp), %ecx
	addl	$0, %ecx
	movslq	%ecx, %rcx
	movzwl	(%rax,%rcx,2), %eax
	movl	%eax, -60(%rbp)
	movq	-80(%rbp), %rax
	movslq	-148(%rbp), %rcx
	movq	(%rax,%rcx,8), %rax
	movl	-152(%rbp), %ecx
	addl	$1, %ecx
	movslq	%ecx, %rcx
	movzwl	(%rax,%rcx,2), %eax
	movl	%eax, -56(%rbp)
	movq	-80(%rbp), %rax
	movslq	-148(%rbp), %rcx
	movq	(%rax,%rcx,8), %rax
	movl	-152(%rbp), %ecx
	addl	$2, %ecx
	movslq	%ecx, %rcx
	movzwl	(%rax,%rcx,2), %eax
	movl	%eax, -52(%rbp)
	movq	-80(%rbp), %rax
	movslq	-148(%rbp), %rcx
	movq	(%rax,%rcx,8), %rax
	movl	-152(%rbp), %ecx
	addl	$3, %ecx
	movslq	%ecx, %rcx
	movzwl	(%rax,%rcx,2), %eax
	movl	%eax, -48(%rbp)
	jmp	.LBB0_36
.LBB0_35:                               # %if.else109
	movq	img, %rax
	movl	72680(%rax), %eax
	movl	%eax, -48(%rbp)
	movl	%eax, -52(%rbp)
	movl	%eax, -56(%rbp)
	movl	%eax, -60(%rbp)
.LBB0_36:                               # %if.end114
	cmpl	$0, -108(%rbp)
	je	.LBB0_38
# %bb.37:                               # %if.then116
	movq	-80(%rbp), %rax
	movslq	-124(%rbp), %rcx
	movq	(%rax,%rcx,8), %rax
	movl	-128(%rbp), %ecx
	addl	$0, %ecx
	movslq	%ecx, %rcx
	movzwl	(%rax,%rcx,2), %eax
	movl	%eax, -44(%rbp)
	movq	-80(%rbp), %rax
	movslq	-124(%rbp), %rcx
	movq	(%rax,%rcx,8), %rax
	movl	-128(%rbp), %ecx
	addl	$1, %ecx
	movslq	%ecx, %rcx
	movzwl	(%rax,%rcx,2), %eax
	movl	%eax, -40(%rbp)
	movq	-80(%rbp), %rax
	movslq	-124(%rbp), %rcx
	movq	(%rax,%rcx,8), %rax
	movl	-128(%rbp), %ecx
	addl	$2, %ecx
	movslq	%ecx, %rcx
	movzwl	(%rax,%rcx,2), %eax
	movl	%eax, -36(%rbp)
	movq	-80(%rbp), %rax
	movslq	-124(%rbp), %rcx
	movq	(%rax,%rcx,8), %rax
	movl	-128(%rbp), %ecx
	addl	$3, %ecx
	movslq	%ecx, %rcx
	movzwl	(%rax,%rcx,2), %eax
	movl	%eax, -32(%rbp)
	jmp	.LBB0_39
.LBB0_38:                               # %if.else153
	movl	-48(%rbp), %eax
	movl	%eax, -32(%rbp)
	movl	%eax, -36(%rbp)
	movl	%eax, -40(%rbp)
	movl	%eax, -44(%rbp)
.LBB0_39:                               # %if.end159
	cmpl	$0, -68(%rbp)
	je	.LBB0_41
# %bb.40:                               # %if.then161
	movq	-80(%rbp), %rax
	movslq	-300(%rbp), %rcx
	movq	(%rax,%rcx,8), %rax
	movslq	-304(%rbp), %rcx
	movzwl	(%rax,%rcx,2), %eax
	movl	%eax, -28(%rbp)
	movq	-80(%rbp), %rax
	movslq	-276(%rbp), %rcx
	movq	(%rax,%rcx,8), %rax
	movslq	-280(%rbp), %rcx
	movzwl	(%rax,%rcx,2), %eax
	movl	%eax, -24(%rbp)
	movq	-80(%rbp), %rax
	movslq	-252(%rbp), %rcx
	movq	(%rax,%rcx,8), %rax
	movslq	-256(%rbp), %rcx
	movzwl	(%rax,%rcx,2), %eax
	movl	%eax, -20(%rbp)
	movq	-80(%rbp), %rax
	movslq	-228(%rbp), %rcx
	movq	(%rax,%rcx,8), %rax
	movslq	-232(%rbp), %rcx
	movzwl	(%rax,%rcx,2), %eax
	movl	%eax, -16(%rbp)
	jmp	.LBB0_42
.LBB0_41:                               # %if.else202
	movq	img, %rax
	movl	72680(%rax), %eax
	movl	%eax, -16(%rbp)
	movl	%eax, -20(%rbp)
	movl	%eax, -24(%rbp)
	movl	%eax, -28(%rbp)
.LBB0_42:                               # %if.end208
	cmpl	$0, -100(%rbp)
	je	.LBB0_44
# %bb.43:                               # %if.then210
	movq	-80(%rbp), %rax
	movslq	-172(%rbp), %rcx
	movq	(%rax,%rcx,8), %rax
	movslq	-176(%rbp), %rcx
	movzwl	(%rax,%rcx,2), %eax
	movl	%eax, -64(%rbp)
	jmp	.LBB0_45
.LBB0_44:                               # %if.else219
	movq	img, %rax
	movl	72680(%rax), %eax
	movl	%eax, -64(%rbp)
.LBB0_45:                               # %if.end222
	movl	$0, -4(%rbp)
.LBB0_46:                               # %for.cond223
                                        # =>This Inner Loop Header: Depth=1
	cmpl	$9, -4(%rbp)
	jge	.LBB0_49
# %bb.47:                               # %for.body226
                                        #   in Loop: Header=BB0_46 Depth=1
	movq	img, %rax
	addq	$184, %rax
	movslq	-4(%rbp), %rcx
	shlq	$9, %rcx
	addq	%rcx, %rax
	movw	$-1, (%rax)
# %bb.48:                               # %for.inc231
                                        #   in Loop: Header=BB0_46 Depth=1
	movl	-4(%rbp), %eax
	addl	$1, %eax
	movl	%eax, -4(%rbp)
	jmp	.LBB0_46
.LBB0_49:                               # %for.end233
	movl	$0, -92(%rbp)
	cmpl	$0, -72(%rbp)
	je	.LBB0_52
# %bb.50:                               # %land.lhs.true235
	cmpl	$0, -68(%rbp)
	je	.LBB0_52
# %bb.51:                               # %if.then237
	movl	-60(%rbp), %eax
	addl	-56(%rbp), %eax
	addl	-52(%rbp), %eax
	addl	-48(%rbp), %eax
	addl	-28(%rbp), %eax
	addl	-24(%rbp), %eax
	addl	-20(%rbp), %eax
	addl	-16(%rbp), %eax
	addl	$4, %eax
	cltd
	movl	$8, %ecx
	idivl	%ecx
	movl	%eax, -92(%rbp)
	jmp	.LBB0_61
.LBB0_52:                               # %if.else254
	cmpl	$0, -72(%rbp)
	jne	.LBB0_55
# %bb.53:                               # %land.lhs.true256
	cmpl	$0, -68(%rbp)
	je	.LBB0_55
# %bb.54:                               # %if.then258
	movl	-28(%rbp), %eax
	addl	-24(%rbp), %eax
	addl	-20(%rbp), %eax
	addl	-16(%rbp), %eax
	addl	$2, %eax
	cltd
	movl	$4, %ecx
	idivl	%ecx
	movl	%eax, -92(%rbp)
	jmp	.LBB0_60
.LBB0_55:                               # %if.else268
	cmpl	$0, -72(%rbp)
	je	.LBB0_58
# %bb.56:                               # %land.lhs.true270
	cmpl	$0, -68(%rbp)
	jne	.LBB0_58
# %bb.57:                               # %if.then272
	movl	-60(%rbp), %eax
	addl	-56(%rbp), %eax
	addl	-52(%rbp), %eax
	addl	-48(%rbp), %eax
	addl	$2, %eax
	cltd
	movl	$4, %ecx
	idivl	%ecx
	movl	%eax, -92(%rbp)
	jmp	.LBB0_59
.LBB0_58:                               # %if.else282
	movq	img, %rax
	movl	72680(%rax), %eax
	movl	%eax, -92(%rbp)
.LBB0_59:                               # %if.end284
	jmp	.LBB0_60
.LBB0_60:                               # %if.end285
	jmp	.LBB0_61
.LBB0_61:                               # %if.end286
	movl	$0, -96(%rbp)
.LBB0_62:                               # %for.cond287
                                        # =>This Loop Header: Depth=1
                                        #     Child Loop BB0_64 Depth 2
	cmpl	$4, -96(%rbp)
	jge	.LBB0_69
# %bb.63:                               # %for.body290
                                        #   in Loop: Header=BB0_62 Depth=1
	movl	$0, -4(%rbp)
.LBB0_64:                               # %for.cond291
                                        #   Parent Loop BB0_62 Depth=1
                                        # =>  This Inner Loop Header: Depth=2
	cmpl	$4, -4(%rbp)
	jge	.LBB0_67
# %bb.65:                               # %for.body294
                                        #   in Loop: Header=BB0_64 Depth=2
	movl	-92(%rbp), %eax
	movq	img, %rcx
	addq	$184, %rcx
	addq	$1024, %rcx             # imm = 0x400
	movslq	-4(%rbp), %rdx
	shlq	$5, %rdx
	addq	%rdx, %rcx
	movslq	-96(%rbp), %rdx
	movw	%ax, (%rcx,%rdx,2)
# %bb.66:                               # %for.inc302
                                        #   in Loop: Header=BB0_64 Depth=2
	movl	-4(%rbp), %eax
	addl	$1, %eax
	movl	%eax, -4(%rbp)
	jmp	.LBB0_64
.LBB0_67:                               # %for.end304
                                        #   in Loop: Header=BB0_62 Depth=1
	jmp	.LBB0_68
.LBB0_68:                               # %for.inc305
                                        #   in Loop: Header=BB0_62 Depth=1
	movl	-96(%rbp), %eax
	addl	$1, %eax
	movl	%eax, -96(%rbp)
	jmp	.LBB0_62
.LBB0_69:                               # %for.end307
	movl	$0, -4(%rbp)
.LBB0_70:                               # %for.cond308
                                        # =>This Inner Loop Header: Depth=1
	cmpl	$4, -4(%rbp)
	jge	.LBB0_73
# %bb.71:                               # %for.body311
                                        #   in Loop: Header=BB0_70 Depth=1
	movslq	-4(%rbp), %rax
	movl	-60(%rbp,%rax,4), %eax
	movq	img, %rcx
	movslq	-4(%rbp), %rdx
	movw	%ax, 280(%rcx,%rdx,2)
	movq	img, %rcx
	movslq	-4(%rbp), %rdx
	movw	%ax, 248(%rcx,%rdx,2)
	movq	img, %rcx
	movslq	-4(%rbp), %rdx
	movw	%ax, 216(%rcx,%rdx,2)
	movq	img, %rcx
	movslq	-4(%rbp), %rdx
	movw	%ax, 184(%rcx,%rdx,2)
	movslq	-4(%rbp), %rax
	movl	-28(%rbp,%rax,4), %eax
	movq	img, %rcx
	addq	$184, %rcx
	addq	$512, %rcx              # imm = 0x200
	movslq	-4(%rbp), %rdx
	shlq	$5, %rdx
	addq	%rdx, %rcx
	movw	%ax, 6(%rcx)
	movq	img, %rcx
	addq	$184, %rcx
	addq	$512, %rcx              # imm = 0x200
	movslq	-4(%rbp), %rdx
	shlq	$5, %rdx
	addq	%rdx, %rcx
	movw	%ax, 4(%rcx)
	movq	img, %rcx
	addq	$184, %rcx
	addq	$512, %rcx              # imm = 0x200
	movslq	-4(%rbp), %rdx
	shlq	$5, %rdx
	addq	%rdx, %rcx
	movw	%ax, 2(%rcx)
	movq	img, %rcx
	addq	$184, %rcx
	addq	$512, %rcx              # imm = 0x200
	movslq	-4(%rbp), %rdx
	shlq	$5, %rdx
	addq	%rdx, %rcx
	movw	%ax, (%rcx)
# %bb.72:                               # %for.inc360
                                        #   in Loop: Header=BB0_70 Depth=1
	movl	-4(%rbp), %eax
	addl	$1, %eax
	movl	%eax, -4(%rbp)
	jmp	.LBB0_70
.LBB0_73:                               # %for.end362
	cmpl	$0, -72(%rbp)
	jne	.LBB0_75
# %bb.74:                               # %if.then364
	movq	img, %rax
	movw	$-1, 184(%rax)
.LBB0_75:                               # %if.end369
	cmpl	$0, -68(%rbp)
	jne	.LBB0_77
# %bb.76:                               # %if.then371
	movq	img, %rax
	movw	$-1, 696(%rax)
.LBB0_77:                               # %if.end376
	cmpl	$0, -72(%rbp)
	je	.LBB0_79
# %bb.78:                               # %if.then378
	movl	-60(%rbp), %eax
	addl	-52(%rbp), %eax
	movl	-56(%rbp), %ecx
	shll	$1, %ecx
	addl	%ecx, %eax
	addl	$2, %eax
	cltd
	movl	$4, %ecx
	idivl	%ecx
	movq	img, %rdx
	movw	%ax, 1720(%rdx)
	movl	-56(%rbp), %eax
	addl	-48(%rbp), %eax
	movl	-52(%rbp), %edx
	shll	$1, %edx
	addl	%edx, %eax
	addl	$2, %eax
	cltd
	idivl	%ecx
	movq	img, %rdx
	movw	%ax, 1752(%rdx)
	movq	img, %rdx
	movw	%ax, 1722(%rdx)
	movl	-52(%rbp), %eax
	addl	-44(%rbp), %eax
	movl	-48(%rbp), %edx
	shll	$1, %edx
	addl	%edx, %eax
	addl	$2, %eax
	cltd
	idivl	%ecx
	movq	img, %rdx
	movw	%ax, 1784(%rdx)
	movq	img, %rdx
	movw	%ax, 1754(%rdx)
	movq	img, %rdx
	movw	%ax, 1724(%rdx)
	movl	-48(%rbp), %eax
	addl	-40(%rbp), %eax
	movl	-44(%rbp), %edx
	shll	$1, %edx
	addl	%edx, %eax
	addl	$2, %eax
	cltd
	idivl	%ecx
	movq	img, %rdx
	movw	%ax, 1816(%rdx)
	movq	img, %rdx
	movw	%ax, 1786(%rdx)
	movq	img, %rdx
	movw	%ax, 1756(%rdx)
	movq	img, %rdx
	movw	%ax, 1726(%rdx)
	movl	-44(%rbp), %eax
	addl	-36(%rbp), %eax
	movl	-40(%rbp), %edx
	shll	$1, %edx
	addl	%edx, %eax
	addl	$2, %eax
	cltd
	idivl	%ecx
	movq	img, %rdx
	movw	%ax, 1818(%rdx)
	movq	img, %rdx
	movw	%ax, 1788(%rdx)
	movq	img, %rdx
	movw	%ax, 1758(%rdx)
	movl	-40(%rbp), %eax
	addl	-32(%rbp), %eax
	movl	-36(%rbp), %edx
	shll	$1, %edx
	addl	%edx, %eax
	addl	$2, %eax
	cltd
	idivl	%ecx
	movq	img, %rdx
	movw	%ax, 1820(%rdx)
	movq	img, %rdx
	movw	%ax, 1790(%rdx)
	movl	-36(%rbp), %eax
	imull	$3, -32(%rbp), %edx
	addl	%edx, %eax
	addl	$2, %eax
	cltd
	idivl	%ecx
	movq	img, %rdx
	movw	%ax, 1822(%rdx)
	movl	-60(%rbp), %eax
	addl	-56(%rbp), %eax
	addl	$1, %eax
	cltd
	movl	$2, %esi
	idivl	%esi
	movq	img, %rdx
	movw	%ax, 3768(%rdx)
	movl	-56(%rbp), %eax
	addl	-52(%rbp), %eax
	addl	$1, %eax
	cltd
	idivl	%esi
	movq	img, %rdx
	movw	%ax, 3832(%rdx)
	movq	img, %rdx
	movw	%ax, 3770(%rdx)
	movl	-52(%rbp), %eax
	addl	-48(%rbp), %eax
	addl	$1, %eax
	cltd
	idivl	%esi
	movq	img, %rdx
	movw	%ax, 3834(%rdx)
	movq	img, %rdx
	movw	%ax, 3772(%rdx)
	movl	-48(%rbp), %eax
	addl	-44(%rbp), %eax
	addl	$1, %eax
	cltd
	idivl	%esi
	movq	img, %rdx
	movw	%ax, 3836(%rdx)
	movq	img, %rdx
	movw	%ax, 3774(%rdx)
	movl	-44(%rbp), %eax
	addl	-40(%rbp), %eax
	addl	$1, %eax
	cltd
	idivl	%esi
	movq	img, %rdx
	movw	%ax, 3838(%rdx)
	movl	-60(%rbp), %eax
	movl	-56(%rbp), %edx
	shll	$1, %edx
	addl	%edx, %eax
	addl	-52(%rbp), %eax
	addl	$2, %eax
	cltd
	idivl	%ecx
	movq	img, %rdx
	movw	%ax, 3800(%rdx)
	movl	-56(%rbp), %eax
	movl	-52(%rbp), %edx
	shll	$1, %edx
	addl	%edx, %eax
	addl	-48(%rbp), %eax
	addl	$2, %eax
	cltd
	idivl	%ecx
	movq	img, %rdx
	movw	%ax, 3864(%rdx)
	movq	img, %rdx
	movw	%ax, 3802(%rdx)
	movl	-52(%rbp), %eax
	movl	-48(%rbp), %edx
	shll	$1, %edx
	addl	%edx, %eax
	addl	-44(%rbp), %eax
	addl	$2, %eax
	cltd
	idivl	%ecx
	movq	img, %rdx
	movw	%ax, 3866(%rdx)
	movq	img, %rdx
	movw	%ax, 3804(%rdx)
	movl	-48(%rbp), %eax
	movl	-44(%rbp), %edx
	shll	$1, %edx
	addl	%edx, %eax
	addl	-40(%rbp), %eax
	addl	$2, %eax
	cltd
	idivl	%ecx
	movq	img, %rdx
	movw	%ax, 3868(%rdx)
	movq	img, %rdx
	movw	%ax, 3806(%rdx)
	movl	-44(%rbp), %eax
	movl	-40(%rbp), %edx
	shll	$1, %edx
	addl	%edx, %eax
	addl	-36(%rbp), %eax
	addl	$2, %eax
	cltd
	idivl	%ecx
	movq	img, %rcx
	movw	%ax, 3870(%rcx)
.LBB0_79:                               # %if.end642
	cmpl	$0, -68(%rbp)
	je	.LBB0_81
# %bb.80:                               # %if.then644
	movl	-28(%rbp), %eax
	addl	-24(%rbp), %eax
	addl	$1, %eax
	cltd
	movl	$2, %esi
	idivl	%esi
	movq	img, %rcx
	movw	%ax, 4280(%rcx)
	movl	-28(%rbp), %eax
	movl	-24(%rbp), %ecx
	shll	$1, %ecx
	addl	%ecx, %eax
	addl	-20(%rbp), %eax
	addl	$2, %eax
	cltd
	movl	$4, %ecx
	idivl	%ecx
	movq	img, %rdx
	movw	%ax, 4282(%rdx)
	movl	-24(%rbp), %eax
	addl	-20(%rbp), %eax
	addl	$1, %eax
	cltd
	idivl	%esi
	movq	img, %rdx
	movw	%ax, 4312(%rdx)
	movq	img, %rdx
	movw	%ax, 4284(%rdx)
	movl	-24(%rbp), %eax
	movl	-20(%rbp), %edx
	shll	$1, %edx
	addl	%edx, %eax
	addl	-16(%rbp), %eax
	addl	$2, %eax
	cltd
	idivl	%ecx
	movq	img, %rdx
	movw	%ax, 4314(%rdx)
	movq	img, %rdx
	movw	%ax, 4286(%rdx)
	movl	-20(%rbp), %eax
	addl	-16(%rbp), %eax
	addl	$1, %eax
	cltd
	idivl	%esi
	movq	img, %rdx
	movw	%ax, 4344(%rdx)
	movq	img, %rdx
	movw	%ax, 4316(%rdx)
	movl	-20(%rbp), %eax
	movl	-16(%rbp), %edx
	shll	$1, %edx
	addl	%edx, %eax
	addl	-16(%rbp), %eax
	addl	$2, %eax
	cltd
	idivl	%ecx
	movq	img, %rcx
	movw	%ax, 4346(%rcx)
	movq	img, %rcx
	movw	%ax, 4318(%rcx)
	movl	-16(%rbp), %eax
	movq	img, %rcx
	movw	%ax, 4382(%rcx)
	movq	img, %rcx
	movw	%ax, 4380(%rcx)
	movq	img, %rcx
	movw	%ax, 4378(%rcx)
	movq	img, %rcx
	movw	%ax, 4350(%rcx)
	movq	img, %rcx
	movw	%ax, 4348(%rcx)
	movq	img, %rcx
	movw	%ax, 4376(%rcx)
.LBB0_81:                               # %if.end756
	cmpl	$0, -72(%rbp)
	je	.LBB0_85
# %bb.82:                               # %land.lhs.true758
	cmpl	$0, -68(%rbp)
	je	.LBB0_85
# %bb.83:                               # %land.lhs.true760
	cmpl	$0, -100(%rbp)
	je	.LBB0_85
# %bb.84:                               # %if.then762
	movl	-16(%rbp), %eax
	movl	-20(%rbp), %ecx
	shll	$1, %ecx
	addl	%ecx, %eax
	addl	-24(%rbp), %eax
	addl	$2, %eax
	cltd
	movl	$4, %ecx
	idivl	%ecx
	movq	img, %rdx
	movw	%ax, 2328(%rdx)
	movl	-20(%rbp), %eax
	movl	-24(%rbp), %edx
	shll	$1, %edx
	addl	%edx, %eax
	addl	-28(%rbp), %eax
	addl	$2, %eax
	cltd
	idivl	%ecx
	movq	img, %rdx
	movw	%ax, 2330(%rdx)
	movq	img, %rdx
	movw	%ax, 2296(%rdx)
	movl	-24(%rbp), %eax
	movl	-28(%rbp), %edx
	shll	$1, %edx
	addl	%edx, %eax
	addl	-64(%rbp), %eax
	addl	$2, %eax
	cltd
	idivl	%ecx
	movq	img, %rdx
	movw	%ax, 2332(%rdx)
	movq	img, %rdx
	movw	%ax, 2298(%rdx)
	movq	img, %rdx
	movw	%ax, 2264(%rdx)
	movl	-28(%rbp), %eax
	movl	-64(%rbp), %edx
	shll	$1, %edx
	addl	%edx, %eax
	addl	-60(%rbp), %eax
	addl	$2, %eax
	cltd
	idivl	%ecx
	movq	img, %rdx
	movw	%ax, 2334(%rdx)
	movq	img, %rdx
	movw	%ax, 2300(%rdx)
	movq	img, %rdx
	movw	%ax, 2266(%rdx)
	movq	img, %rdx
	movw	%ax, 2232(%rdx)
	movl	-64(%rbp), %eax
	movl	-60(%rbp), %edx
	shll	$1, %edx
	addl	%edx, %eax
	addl	-56(%rbp), %eax
	addl	$2, %eax
	cltd
	idivl	%ecx
	movq	img, %rdx
	movw	%ax, 2302(%rdx)
	movq	img, %rdx
	movw	%ax, 2268(%rdx)
	movq	img, %rdx
	movw	%ax, 2234(%rdx)
	movl	-60(%rbp), %eax
	movl	-56(%rbp), %edx
	shll	$1, %edx
	addl	%edx, %eax
	addl	-52(%rbp), %eax
	addl	$2, %eax
	cltd
	idivl	%ecx
	movq	img, %rdx
	movw	%ax, 2270(%rdx)
	movq	img, %rdx
	movw	%ax, 2236(%rdx)
	movl	-56(%rbp), %eax
	movl	-52(%rbp), %edx
	shll	$1, %edx
	addl	%edx, %eax
	addl	-48(%rbp), %eax
	addl	$2, %eax
	cltd
	idivl	%ecx
	movq	img, %rdx
	movw	%ax, 2238(%rdx)
	movl	-64(%rbp), %eax
	addl	-60(%rbp), %eax
	addl	$1, %eax
	cltd
	movl	$2, %esi
	idivl	%esi
	movq	img, %rdx
	movw	%ax, 2810(%rdx)
	movq	img, %rdx
	movw	%ax, 2744(%rdx)
	movl	-60(%rbp), %eax
	addl	-56(%rbp), %eax
	addl	$1, %eax
	cltd
	idivl	%esi
	movq	img, %rdx
	movw	%ax, 2812(%rdx)
	movq	img, %rdx
	movw	%ax, 2746(%rdx)
	movl	-56(%rbp), %eax
	addl	-52(%rbp), %eax
	addl	$1, %eax
	cltd
	idivl	%esi
	movq	img, %rdx
	movw	%ax, 2814(%rdx)
	movq	img, %rdx
	movw	%ax, 2748(%rdx)
	movl	-52(%rbp), %eax
	addl	-48(%rbp), %eax
	addl	$1, %eax
	cltd
	idivl	%esi
	movq	img, %rdx
	movw	%ax, 2750(%rdx)
	movl	-28(%rbp), %eax
	movl	-64(%rbp), %edx
	shll	$1, %edx
	addl	%edx, %eax
	addl	-60(%rbp), %eax
	addl	$2, %eax
	cltd
	idivl	%ecx
	movq	img, %rdx
	movw	%ax, 2842(%rdx)
	movq	img, %rdx
	movw	%ax, 2776(%rdx)
	movl	-64(%rbp), %eax
	movl	-60(%rbp), %edx
	shll	$1, %edx
	addl	%edx, %eax
	addl	-56(%rbp), %eax
	addl	$2, %eax
	cltd
	idivl	%ecx
	movq	img, %rdx
	movw	%ax, 2844(%rdx)
	movq	img, %rdx
	movw	%ax, 2778(%rdx)
	movl	-60(%rbp), %eax
	movl	-56(%rbp), %edx
	shll	$1, %edx
	addl	%edx, %eax
	addl	-52(%rbp), %eax
	addl	$2, %eax
	cltd
	idivl	%ecx
	movq	img, %rdx
	movw	%ax, 2846(%rdx)
	movq	img, %rdx
	movw	%ax, 2780(%rdx)
	movl	-56(%rbp), %eax
	movl	-52(%rbp), %edx
	shll	$1, %edx
	addl	%edx, %eax
	addl	-48(%rbp), %eax
	addl	$2, %eax
	cltd
	idivl	%ecx
	movq	img, %rdx
	movw	%ax, 2782(%rdx)
	movl	-64(%rbp), %eax
	movl	-28(%rbp), %edx
	shll	$1, %edx
	addl	%edx, %eax
	addl	-24(%rbp), %eax
	addl	$2, %eax
	cltd
	idivl	%ecx
	movq	img, %rdx
	movw	%ax, 2808(%rdx)
	movl	-28(%rbp), %eax
	movl	-24(%rbp), %edx
	shll	$1, %edx
	addl	%edx, %eax
	addl	-20(%rbp), %eax
	addl	$2, %eax
	cltd
	idivl	%ecx
	movq	img, %rdx
	movw	%ax, 2840(%rdx)
	movl	-64(%rbp), %eax
	addl	-28(%rbp), %eax
	addl	$1, %eax
	cltd
	idivl	%esi
	movq	img, %rdx
	movw	%ax, 3292(%rdx)
	movq	img, %rdx
	movw	%ax, 3256(%rdx)
	movl	-28(%rbp), %eax
	movl	-64(%rbp), %edx
	shll	$1, %edx
	addl	%edx, %eax
	addl	-60(%rbp), %eax
	addl	$2, %eax
	cltd
	idivl	%ecx
	movq	img, %rdx
	movw	%ax, 3294(%rdx)
	movq	img, %rdx
	movw	%ax, 3258(%rdx)
	movl	-64(%rbp), %eax
	movl	-60(%rbp), %edx
	shll	$1, %edx
	addl	%edx, %eax
	addl	-56(%rbp), %eax
	addl	$2, %eax
	cltd
	idivl	%ecx
	movq	img, %rdx
	movw	%ax, 3260(%rdx)
	movl	-60(%rbp), %eax
	movl	-56(%rbp), %edx
	shll	$1, %edx
	addl	%edx, %eax
	addl	-52(%rbp), %eax
	addl	$2, %eax
	cltd
	idivl	%ecx
	movq	img, %rdx
	movw	%ax, 3262(%rdx)
	movl	-28(%rbp), %eax
	addl	-24(%rbp), %eax
	addl	$1, %eax
	cltd
	idivl	%esi
	movq	img, %rdx
	movw	%ax, 3324(%rdx)
	movq	img, %rdx
	movw	%ax, 3288(%rdx)
	movl	-64(%rbp), %eax
	movl	-28(%rbp), %edx
	shll	$1, %edx
	addl	%edx, %eax
	addl	-24(%rbp), %eax
	addl	$2, %eax
	cltd
	idivl	%ecx
	movq	img, %rdx
	movw	%ax, 3326(%rdx)
	movq	img, %rdx
	movw	%ax, 3290(%rdx)
	movl	-24(%rbp), %eax
	addl	-20(%rbp), %eax
	addl	$1, %eax
	cltd
	idivl	%esi
	movq	img, %rdx
	movw	%ax, 3356(%rdx)
	movq	img, %rdx
	movw	%ax, 3320(%rdx)
	movl	-28(%rbp), %eax
	movl	-24(%rbp), %edx
	shll	$1, %edx
	addl	%edx, %eax
	addl	-20(%rbp), %eax
	addl	$2, %eax
	cltd
	idivl	%ecx
	movq	img, %rdx
	movw	%ax, 3358(%rdx)
	movq	img, %rdx
	movw	%ax, 3322(%rdx)
	movl	-20(%rbp), %eax
	addl	-16(%rbp), %eax
	addl	$1, %eax
	cltd
	idivl	%esi
	movq	img, %rdx
	movw	%ax, 3352(%rdx)
	movl	-24(%rbp), %eax
	movl	-20(%rbp), %edx
	shll	$1, %edx
	addl	%edx, %eax
	addl	-16(%rbp), %eax
	addl	$2, %eax
	cltd
	idivl	%ecx
	movq	img, %rcx
	movw	%ax, 3354(%rcx)
.LBB0_85:                               # %if.end1174
	addq	$320, %rsp              # imm = 0x140
	popq	%rbp
	.cfi_def_cfa %rsp, 8
	retq
.Lfunc_end0:
	.size	intrapred_luma, .Lfunc_end0-intrapred_luma
	.cfi_endproc
                                        # -- End function
	.globl	intrapred_luma_16x16    # -- Begin function intrapred_luma_16x16
	.p2align	4, 0x90
	.type	intrapred_luma_16x16,@function
intrapred_luma_16x16:                   # @intrapred_luma_16x16
	.cfi_startproc
# %bb.0:                                # %entry
	pushq	%rbp
	.cfi_def_cfa_offset 16
	.cfi_offset %rbp, -16
	movq	%rsp, %rbp
	.cfi_def_cfa_register %rbp
	subq	$624, %rsp              # imm = 0x270
	movl	$0, -32(%rbp)
	movq	enc_picture, %rax
	movq	6424(%rax), %rax
	movq	%rax, -24(%rbp)
	movq	img, %rax
	movl	12(%rax), %eax
	movl	%eax, -64(%rbp)
	movl	$0, -4(%rbp)
.LBB1_1:                                # %for.cond
                                        # =>This Inner Loop Header: Depth=1
	cmpl	$17, -4(%rbp)
	jge	.LBB1_4
# %bb.2:                                # %for.body
                                        #   in Loop: Header=BB1_1 Depth=1
	movl	-64(%rbp), %edi
	movl	-4(%rbp), %edx
	subl	$1, %edx
	movslq	-4(%rbp), %rax
	imulq	$24, %rax, %rax
	leaq	-496(%rbp), %r8
	addq	%rax, %r8
	movl	$4294967295, %esi       # imm = 0xFFFFFFFF
	movl	$1, %ecx
	callq	getNeighbour
# %bb.3:                                # %for.inc
                                        #   in Loop: Header=BB1_1 Depth=1
	movl	-4(%rbp), %eax
	addl	$1, %eax
	movl	%eax, -4(%rbp)
	jmp	.LBB1_1
.LBB1_4:                                # %for.end
	movl	-64(%rbp), %edi
	xorl	%esi, %esi
	movl	$4294967295, %edx       # imm = 0xFFFFFFFF
	movl	$1, %ecx
	leaq	-88(%rbp), %r8
	callq	getNeighbour
	movq	input, %rax
	cmpl	$0, 216(%rax)
	jne	.LBB1_6
# %bb.5:                                # %if.then
	movl	-88(%rbp), %eax
	movl	%eax, -16(%rbp)
	movl	-472(%rbp), %eax
	movl	%eax, -12(%rbp)
	movl	-496(%rbp), %eax
	movl	%eax, -60(%rbp)
	jmp	.LBB1_20
.LBB1_6:                                # %if.else
	cmpl	$0, -88(%rbp)
	je	.LBB1_8
# %bb.7:                                # %cond.true
	movq	img, %rax
	movq	71784(%rax), %rax
	movslq	-84(%rbp), %rcx
	movl	(%rax,%rcx,4), %eax
	jmp	.LBB1_9
.LBB1_8:                                # %cond.false
	xorl	%eax, %eax
	jmp	.LBB1_9
.LBB1_9:                                # %cond.end
	movl	%eax, -16(%rbp)
	movl	$1, -4(%rbp)
	movl	$1, -12(%rbp)
.LBB1_10:                               # %for.cond9
                                        # =>This Inner Loop Header: Depth=1
	cmpl	$17, -4(%rbp)
	jge	.LBB1_16
# %bb.11:                               # %for.body11
                                        #   in Loop: Header=BB1_10 Depth=1
	movslq	-4(%rbp), %rax
	imulq	$24, %rax, %rax
	leaq	-496(%rbp), %rcx
	addq	%rax, %rcx
	cmpl	$0, (%rcx)
	je	.LBB1_13
# %bb.12:                               # %cond.true16
                                        #   in Loop: Header=BB1_10 Depth=1
	movq	img, %rax
	movq	71784(%rax), %rax
	movslq	-4(%rbp), %rcx
	imulq	$24, %rcx, %rcx
	leaq	-496(%rbp), %rdx
	addq	%rcx, %rdx
	movslq	4(%rdx), %rcx
	movl	(%rax,%rcx,4), %eax
	jmp	.LBB1_14
.LBB1_13:                               # %cond.false23
                                        #   in Loop: Header=BB1_10 Depth=1
	xorl	%eax, %eax
	jmp	.LBB1_14
.LBB1_14:                               # %cond.end24
                                        #   in Loop: Header=BB1_10 Depth=1
	andl	-12(%rbp), %eax
	movl	%eax, -12(%rbp)
# %bb.15:                               # %for.inc26
                                        #   in Loop: Header=BB1_10 Depth=1
	movl	-4(%rbp), %eax
	addl	$1, %eax
	movl	%eax, -4(%rbp)
	jmp	.LBB1_10
.LBB1_16:                               # %for.end28
	cmpl	$0, -496(%rbp)
	je	.LBB1_18
# %bb.17:                               # %cond.true32
	movq	img, %rax
	movq	71784(%rax), %rax
	movslq	-492(%rbp), %rcx
	movl	(%rax,%rcx,4), %eax
	jmp	.LBB1_19
.LBB1_18:                               # %cond.false38
	xorl	%eax, %eax
	jmp	.LBB1_19
.LBB1_19:                               # %cond.end39
	movl	%eax, -60(%rbp)
.LBB1_20:                               # %if.end
	movl	$0, -48(%rbp)
	movl	$0, -52(%rbp)
	movl	$0, -4(%rbp)
.LBB1_21:                               # %for.cond41
                                        # =>This Inner Loop Header: Depth=1
	cmpl	$16, -4(%rbp)
	jge	.LBB1_28
# %bb.22:                               # %for.body43
                                        #   in Loop: Header=BB1_21 Depth=1
	cmpl	$0, -16(%rbp)
	je	.LBB1_24
# %bb.23:                               # %if.then45
                                        #   in Loop: Header=BB1_21 Depth=1
	movq	-24(%rbp), %rax
	movslq	-68(%rbp), %rcx
	movq	(%rax,%rcx,8), %rax
	movl	-72(%rbp), %ecx
	addl	-4(%rbp), %ecx
	movslq	%ecx, %rcx
	movzwl	(%rax,%rcx,2), %eax
	addl	-52(%rbp), %eax
	movl	%eax, -52(%rbp)
.LBB1_24:                               # %if.end51
                                        #   in Loop: Header=BB1_21 Depth=1
	cmpl	$0, -12(%rbp)
	je	.LBB1_26
# %bb.25:                               # %if.then53
                                        #   in Loop: Header=BB1_21 Depth=1
	movq	-24(%rbp), %rax
	movl	-4(%rbp), %ecx
	addl	$1, %ecx
	movslq	%ecx, %rcx
	imulq	$24, %rcx, %rcx
	leaq	-496(%rbp), %rdx
	movq	%rdx, %rsi
	addq	%rcx, %rsi
	movslq	20(%rsi), %rcx
	movq	(%rax,%rcx,8), %rax
	movl	-4(%rbp), %ecx
	addl	$1, %ecx
	movslq	%ecx, %rcx
	imulq	$24, %rcx, %rcx
	addq	%rcx, %rdx
	movslq	16(%rdx), %rcx
	movzwl	(%rax,%rcx,2), %eax
	addl	-48(%rbp), %eax
	movl	%eax, -48(%rbp)
.LBB1_26:                               # %if.end68
                                        #   in Loop: Header=BB1_21 Depth=1
	jmp	.LBB1_27
.LBB1_27:                               # %for.inc69
                                        #   in Loop: Header=BB1_21 Depth=1
	movl	-4(%rbp), %eax
	addl	$1, %eax
	movl	%eax, -4(%rbp)
	jmp	.LBB1_21
.LBB1_28:                               # %for.end71
	cmpl	$0, -16(%rbp)
	je	.LBB1_31
# %bb.29:                               # %land.lhs.true
	cmpl	$0, -12(%rbp)
	je	.LBB1_31
# %bb.30:                               # %if.then74
	movl	-52(%rbp), %eax
	addl	-48(%rbp), %eax
	addl	$16, %eax
	cltd
	movl	$32, %ecx
	idivl	%ecx
	movl	%eax, -32(%rbp)
.LBB1_31:                               # %if.end77
	cmpl	$0, -16(%rbp)
	jne	.LBB1_34
# %bb.32:                               # %land.lhs.true79
	cmpl	$0, -12(%rbp)
	je	.LBB1_34
# %bb.33:                               # %if.then81
	movl	-48(%rbp), %eax
	addl	$8, %eax
	cltd
	movl	$16, %ecx
	idivl	%ecx
	movl	%eax, -32(%rbp)
.LBB1_34:                               # %if.end84
	cmpl	$0, -16(%rbp)
	je	.LBB1_37
# %bb.35:                               # %land.lhs.true86
	cmpl	$0, -12(%rbp)
	jne	.LBB1_37
# %bb.36:                               # %if.then88
	movl	-52(%rbp), %eax
	addl	$8, %eax
	cltd
	movl	$16, %ecx
	idivl	%ecx
	movl	%eax, -32(%rbp)
.LBB1_37:                               # %if.end91
	cmpl	$0, -16(%rbp)
	jne	.LBB1_40
# %bb.38:                               # %land.lhs.true93
	cmpl	$0, -12(%rbp)
	jne	.LBB1_40
# %bb.39:                               # %if.then95
	movq	img, %rax
	movl	72680(%rax), %eax
	movl	%eax, -32(%rbp)
.LBB1_40:                               # %if.end96
	movl	$0, -4(%rbp)
.LBB1_41:                               # %for.cond97
                                        # =>This Inner Loop Header: Depth=1
	cmpl	$16, -4(%rbp)
	jge	.LBB1_48
# %bb.42:                               # %for.body100
                                        #   in Loop: Header=BB1_41 Depth=1
	cmpl	$0, -16(%rbp)
	je	.LBB1_44
# %bb.43:                               # %if.then102
                                        #   in Loop: Header=BB1_41 Depth=1
	movq	-24(%rbp), %rax
	movslq	-68(%rbp), %rcx
	movq	(%rax,%rcx,8), %rax
	movl	-72(%rbp), %ecx
	addl	-4(%rbp), %ecx
	movslq	%ecx, %rcx
	movzwl	(%rax,%rcx,2), %eax
	movslq	-4(%rbp), %rcx
	movl	%eax, -624(%rbp,%rcx,8)
.LBB1_44:                               # %if.end114
                                        #   in Loop: Header=BB1_41 Depth=1
	cmpl	$0, -12(%rbp)
	je	.LBB1_46
# %bb.45:                               # %if.then116
                                        #   in Loop: Header=BB1_41 Depth=1
	movq	-24(%rbp), %rax
	movl	-4(%rbp), %ecx
	addl	$1, %ecx
	movslq	%ecx, %rcx
	imulq	$24, %rcx, %rcx
	leaq	-496(%rbp), %rdx
	movq	%rdx, %rsi
	addq	%rcx, %rsi
	movslq	20(%rsi), %rcx
	movq	(%rax,%rcx,8), %rax
	movl	-4(%rbp), %ecx
	addl	$1, %ecx
	movslq	%ecx, %rcx
	imulq	$24, %rcx, %rcx
	addq	%rcx, %rdx
	movslq	16(%rdx), %rcx
	movzwl	(%rax,%rcx,2), %eax
	movslq	-4(%rbp), %rcx
	movl	%eax, -620(%rbp,%rcx,8)
.LBB1_46:                               # %if.end133
                                        #   in Loop: Header=BB1_41 Depth=1
	jmp	.LBB1_47
.LBB1_47:                               # %for.inc134
                                        #   in Loop: Header=BB1_41 Depth=1
	movl	-4(%rbp), %eax
	addl	$1, %eax
	movl	%eax, -4(%rbp)
	jmp	.LBB1_41
.LBB1_48:                               # %for.end136
	movl	$0, -8(%rbp)
.LBB1_49:                               # %for.cond137
                                        # =>This Loop Header: Depth=1
                                        #     Child Loop BB1_51 Depth 2
	cmpl	$16, -8(%rbp)
	jge	.LBB1_56
# %bb.50:                               # %for.body140
                                        #   in Loop: Header=BB1_49 Depth=1
	movl	$0, -4(%rbp)
.LBB1_51:                               # %for.cond141
                                        #   Parent Loop BB1_49 Depth=1
                                        # =>  This Inner Loop Header: Depth=2
	cmpl	$16, -4(%rbp)
	jge	.LBB1_54
# %bb.52:                               # %for.body144
                                        #   in Loop: Header=BB1_51 Depth=2
	movslq	-4(%rbp), %rax
	movl	-624(%rbp,%rax,8), %eax
	movq	img, %rcx
	addq	$4792, %rcx             # imm = 0x12B8
	movslq	-8(%rbp), %rdx
	shlq	$5, %rdx
	addq	%rdx, %rcx
	movslq	-4(%rbp), %rdx
	movw	%ax, (%rcx,%rdx,2)
	movslq	-8(%rbp), %rax
	movl	-620(%rbp,%rax,8), %eax
	movq	img, %rcx
	addq	$4792, %rcx             # imm = 0x12B8
	addq	$512, %rcx              # imm = 0x200
	movslq	-8(%rbp), %rdx
	shlq	$5, %rdx
	addq	%rdx, %rcx
	movslq	-4(%rbp), %rdx
	movw	%ax, (%rcx,%rdx,2)
	movl	-32(%rbp), %eax
	movq	img, %rcx
	addq	$4792, %rcx             # imm = 0x12B8
	addq	$1024, %rcx             # imm = 0x400
	movslq	-8(%rbp), %rdx
	shlq	$5, %rdx
	addq	%rdx, %rcx
	movslq	-4(%rbp), %rdx
	movw	%ax, (%rcx,%rdx,2)
# %bb.53:                               # %for.inc171
                                        #   in Loop: Header=BB1_51 Depth=2
	movl	-4(%rbp), %eax
	addl	$1, %eax
	movl	%eax, -4(%rbp)
	jmp	.LBB1_51
.LBB1_54:                               # %for.end173
                                        #   in Loop: Header=BB1_49 Depth=1
	jmp	.LBB1_55
.LBB1_55:                               # %for.inc174
                                        #   in Loop: Header=BB1_49 Depth=1
	movl	-8(%rbp), %eax
	addl	$1, %eax
	movl	%eax, -8(%rbp)
	jmp	.LBB1_49
.LBB1_56:                               # %for.end176
	cmpl	$0, -16(%rbp)
	je	.LBB1_59
# %bb.57:                               # %lor.lhs.false
	cmpl	$0, -12(%rbp)
	je	.LBB1_59
# %bb.58:                               # %lor.lhs.false179
	cmpl	$0, -60(%rbp)
	jne	.LBB1_60
.LBB1_59:                               # %if.then181
	jmp	.LBB1_85
.LBB1_60:                               # %if.end182
	movl	$0, -28(%rbp)
	movl	$0, -56(%rbp)
	movl	$1, -4(%rbp)
.LBB1_61:                               # %for.cond183
                                        # =>This Inner Loop Header: Depth=1
	cmpl	$9, -4(%rbp)
	jge	.LBB1_67
# %bb.62:                               # %for.body186
                                        #   in Loop: Header=BB1_61 Depth=1
	cmpl	$8, -4(%rbp)
	jge	.LBB1_64
# %bb.63:                               # %if.then189
                                        #   in Loop: Header=BB1_61 Depth=1
	movl	-4(%rbp), %eax
	movq	-24(%rbp), %rcx
	movslq	-68(%rbp), %rdx
	movq	(%rcx,%rdx,8), %rcx
	movl	-72(%rbp), %edx
	addl	$7, %edx
	addl	-4(%rbp), %edx
	movslq	%edx, %rdx
	movzwl	(%rcx,%rdx,2), %ecx
	movq	-24(%rbp), %rdx
	movslq	-68(%rbp), %rsi
	movq	(%rdx,%rsi,8), %rdx
	movl	-72(%rbp), %esi
	addl	$7, %esi
	subl	-4(%rbp), %esi
	movslq	%esi, %rsi
	movzwl	(%rdx,%rsi,2), %edx
	subl	%edx, %ecx
	imull	%ecx, %eax
	addl	-28(%rbp), %eax
	movl	%eax, -28(%rbp)
	jmp	.LBB1_65
.LBB1_64:                               # %if.else210
                                        #   in Loop: Header=BB1_61 Depth=1
	movl	-4(%rbp), %eax
	movq	-24(%rbp), %rcx
	movslq	-68(%rbp), %rdx
	movq	(%rcx,%rdx,8), %rcx
	movl	-72(%rbp), %edx
	addl	$7, %edx
	addl	-4(%rbp), %edx
	movslq	%edx, %rdx
	movzwl	(%rcx,%rdx,2), %ecx
	movq	-24(%rbp), %rdx
	movslq	-476(%rbp), %rsi
	movq	(%rdx,%rsi,8), %rdx
	movslq	-480(%rbp), %rsi
	movzwl	(%rdx,%rsi,2), %edx
	subl	%edx, %ecx
	imull	%ecx, %eax
	addl	-28(%rbp), %eax
	movl	%eax, -28(%rbp)
.LBB1_65:                               # %if.end232
                                        #   in Loop: Header=BB1_61 Depth=1
	movl	-4(%rbp), %eax
	movq	-24(%rbp), %rsi
	movl	-4(%rbp), %edx
	addl	$8, %edx
	movslq	%edx, %rdx
	imulq	$24, %rdx, %rdx
	leaq	-496(%rbp), %rcx
	movq	%rcx, %rdi
	addq	%rdx, %rdi
	movslq	20(%rdi), %rdx
	movq	(%rsi,%rdx,8), %rsi
	movl	-4(%rbp), %edx
	addl	$8, %edx
	movslq	%edx, %rdx
	imulq	$24, %rdx, %rdx
	movq	%rcx, %rdi
	addq	%rdx, %rdi
	movslq	16(%rdi), %rdx
	movzwl	(%rsi,%rdx,2), %r9d
	movq	-24(%rbp), %r8
	movl	$8, %edi
	movl	$8, %edx
	subl	-4(%rbp), %edx
	movslq	%edx, %rdx
	imulq	$24, %rdx, %rdx
	movq	%rcx, %rsi
	addq	%rdx, %rsi
	movslq	20(%rsi), %rdx
	movq	(%r8,%rdx,8), %rdx
	subl	-4(%rbp), %edi
	movslq	%edi, %rsi
	imulq	$24, %rsi, %rsi
	addq	%rsi, %rcx
	movslq	16(%rcx), %rcx
	movzwl	(%rdx,%rcx,2), %ecx
	subl	%ecx, %r9d
	imull	%r9d, %eax
	addl	-56(%rbp), %eax
	movl	%eax, -56(%rbp)
# %bb.66:                               # %for.inc262
                                        #   in Loop: Header=BB1_61 Depth=1
	movl	-4(%rbp), %eax
	addl	$1, %eax
	movl	%eax, -4(%rbp)
	jmp	.LBB1_61
.LBB1_67:                               # %for.end264
	imull	$5, -28(%rbp), %eax
	addl	$32, %eax
	sarl	$6, %eax
	movl	%eax, -44(%rbp)
	imull	$5, -56(%rbp), %eax
	addl	$32, %eax
	sarl	$6, %eax
	movl	%eax, -40(%rbp)
	movq	-24(%rbp), %rax
	movslq	-68(%rbp), %rcx
	movq	(%rax,%rcx,8), %rax
	movl	-72(%rbp), %ecx
	addl	$15, %ecx
	movslq	%ecx, %rcx
	movzwl	(%rax,%rcx,2), %eax
	movq	-24(%rbp), %rcx
	movslq	-92(%rbp), %rdx
	movq	(%rcx,%rdx,8), %rcx
	movslq	-96(%rbp), %rdx
	movzwl	(%rcx,%rdx,2), %ecx
	addl	%ecx, %eax
	shll	$4, %eax
	movl	%eax, -36(%rbp)
	movl	$0, -8(%rbp)
.LBB1_68:                               # %for.cond289
                                        # =>This Loop Header: Depth=1
                                        #     Child Loop BB1_70 Depth 2
	cmpl	$16, -8(%rbp)
	jge	.LBB1_84
# %bb.69:                               # %for.body292
                                        #   in Loop: Header=BB1_68 Depth=1
	movl	$0, -4(%rbp)
.LBB1_70:                               # %for.cond293
                                        #   Parent Loop BB1_68 Depth=1
                                        # =>  This Inner Loop Header: Depth=2
	cmpl	$16, -4(%rbp)
	jge	.LBB1_82
# %bb.71:                               # %for.body296
                                        #   in Loop: Header=BB1_70 Depth=2
	movq	img, %rax
	movl	72684(%rax), %ecx
	movl	-36(%rbp), %eax
	movl	-4(%rbp), %edx
	subl	$7, %edx
	imull	-44(%rbp), %edx
	addl	%edx, %eax
	movl	-8(%rbp), %edx
	subl	$7, %edx
	imull	-40(%rbp), %edx
	addl	%edx, %eax
	addl	$16, %eax
	cltd
	movl	$32, %esi
	idivl	%esi
	cmpl	%eax, %ecx
	jge	.LBB1_73
# %bb.72:                               # %cond.true307
                                        #   in Loop: Header=BB1_70 Depth=2
	movq	img, %rax
	movl	72684(%rax), %eax
	jmp	.LBB1_74
.LBB1_73:                               # %cond.false309
                                        #   in Loop: Header=BB1_70 Depth=2
	movl	-36(%rbp), %eax
	movl	-4(%rbp), %ecx
	subl	$7, %ecx
	imull	-44(%rbp), %ecx
	addl	%ecx, %eax
	movl	-8(%rbp), %ecx
	subl	$7, %ecx
	imull	-40(%rbp), %ecx
	addl	%ecx, %eax
	addl	$16, %eax
	cltd
	movl	$32, %ecx
	idivl	%ecx
.LBB1_74:                               # %cond.end318
                                        #   in Loop: Header=BB1_70 Depth=2
	xorl	%ecx, %ecx
	cmpl	%eax, %ecx
	jle	.LBB1_76
# %bb.75:                               # %cond.true322
                                        #   in Loop: Header=BB1_70 Depth=2
	xorl	%eax, %eax
	jmp	.LBB1_80
.LBB1_76:                               # %cond.false323
                                        #   in Loop: Header=BB1_70 Depth=2
	movq	img, %rax
	movl	72684(%rax), %ecx
	movl	-36(%rbp), %eax
	movl	-4(%rbp), %edx
	subl	$7, %edx
	imull	-44(%rbp), %edx
	addl	%edx, %eax
	movl	-8(%rbp), %edx
	subl	$7, %edx
	imull	-40(%rbp), %edx
	addl	%edx, %eax
	addl	$16, %eax
	cltd
	movl	$32, %esi
	idivl	%esi
	cmpl	%eax, %ecx
	jge	.LBB1_78
# %bb.77:                               # %cond.true335
                                        #   in Loop: Header=BB1_70 Depth=2
	movq	img, %rax
	movl	72684(%rax), %eax
	jmp	.LBB1_79
.LBB1_78:                               # %cond.false337
                                        #   in Loop: Header=BB1_70 Depth=2
	movl	-36(%rbp), %eax
	movl	-4(%rbp), %ecx
	subl	$7, %ecx
	imull	-44(%rbp), %ecx
	addl	%ecx, %eax
	movl	-8(%rbp), %ecx
	subl	$7, %ecx
	imull	-40(%rbp), %ecx
	addl	%ecx, %eax
	addl	$16, %eax
	cltd
	movl	$32, %ecx
	idivl	%ecx
.LBB1_79:                               # %cond.end346
                                        #   in Loop: Header=BB1_70 Depth=2
.LBB1_80:                               # %cond.end348
                                        #   in Loop: Header=BB1_70 Depth=2
	movq	img, %rcx
	addq	$4792, %rcx             # imm = 0x12B8
	addq	$1536, %rcx             # imm = 0x600
	movslq	-8(%rbp), %rdx
	shlq	$5, %rdx
	addq	%rdx, %rcx
	movslq	-4(%rbp), %rdx
	movw	%ax, (%rcx,%rdx,2)
# %bb.81:                               # %for.inc357
                                        #   in Loop: Header=BB1_70 Depth=2
	movl	-4(%rbp), %eax
	addl	$1, %eax
	movl	%eax, -4(%rbp)
	jmp	.LBB1_70
.LBB1_82:                               # %for.end359
                                        #   in Loop: Header=BB1_68 Depth=1
	jmp	.LBB1_83
.LBB1_83:                               # %for.inc360
                                        #   in Loop: Header=BB1_68 Depth=1
	movl	-8(%rbp), %eax
	addl	$1, %eax
	movl	%eax, -8(%rbp)
	jmp	.LBB1_68
.LBB1_84:                               # %for.end362.loopexit
	jmp	.LBB1_85
.LBB1_85:                               # %for.end362
	addq	$624, %rsp              # imm = 0x270
	popq	%rbp
	.cfi_def_cfa %rsp, 8
	retq
.Lfunc_end1:
	.size	intrapred_luma_16x16, .Lfunc_end1-intrapred_luma_16x16
	.cfi_endproc
                                        # -- End function
	.globl	dct_luma_16x16          # -- Begin function dct_luma_16x16
	.p2align	4, 0x90
	.type	dct_luma_16x16,@function
dct_luma_16x16:                         # @dct_luma_16x16
	.cfi_startproc
# %bb.0:                                # %entry
	pushq	%rbp
	.cfi_def_cfa_offset 16
	.cfi_offset %rbp, -16
	movq	%rsp, %rbp
	.cfi_def_cfa_register %rbp
	subq	$2256, %rsp             # imm = 0x8D0
	xorl	%eax, %eax
	movl	%edi, -88(%rbp)
	movl	$0, -100(%rbp)
	movq	img, %rcx
	movq	14168(%rcx), %rcx
	movq	img, %rdx
	movslq	12(%rdx), %rdx
	imulq	$632, %rdx, %rdx        # imm = 0x278
	addq	%rdx, %rcx
	movq	%rcx, -112(%rbp)
	movq	img, %rcx
	movq	14144(%rcx), %rcx
	movq	(%rcx), %rcx
	movq	(%rcx), %rcx
	movq	%rcx, -128(%rbp)
	movq	img, %rcx
	movq	14144(%rcx), %rcx
	movq	(%rcx), %rcx
	movq	8(%rcx), %rcx
	movq	%rcx, -208(%rbp)
	movq	-112(%rbp), %rcx
	movl	12(%rcx), %ecx
	movq	img, %rdx
	addl	72668(%rdx), %ecx
	cmpl	$0, %ecx
	jne	.LBB2_2
# %bb.1:                                # %land.rhs
	movq	img, %rax
	cmpl	$1, 72704(%rax)
	sete	%al
.LBB2_2:                                # %land.end
	andb	$1, %al
	movzbl	%al, %eax
	movl	%eax, -56(%rbp)
	movq	-112(%rbp), %rax
	movl	12(%rax), %eax
	movq	img, %rcx
	addl	72668(%rcx), %eax
	subl	$0, %eax
	cltd
	movl	$6, %ecx
	idivl	%ecx
	movl	%eax, -48(%rbp)
	movq	-112(%rbp), %rax
	movl	12(%rax), %eax
	movq	img, %rdx
	addl	72668(%rdx), %eax
	subl	$0, %eax
	cltd
	idivl	%ecx
	movl	%edx, -84(%rbp)
	movl	-48(%rbp), %eax
	addl	$15, %eax
	movl	%eax, -104(%rbp)
	movl	$0, -4(%rbp)
.LBB2_3:                                # %for.cond
                                        # =>This Loop Header: Depth=1
                                        #     Child Loop BB2_5 Depth 2
	cmpl	$16, -4(%rbp)
	jge	.LBB2_13
# %bb.4:                                # %for.body
                                        #   in Loop: Header=BB2_3 Depth=1
	movl	$0, -8(%rbp)
.LBB2_5:                                # %for.cond16
                                        #   Parent Loop BB2_3 Depth=1
                                        # =>  This Inner Loop Header: Depth=2
	cmpl	$16, -8(%rbp)
	jge	.LBB2_11
# %bb.6:                                # %for.body18
                                        #   in Loop: Header=BB2_5 Depth=2
	movq	img, %rax
	cmpl	$0, 72724(%rax)
	jne	.LBB2_8
# %bb.7:                                # %if.then
                                        #   in Loop: Header=BB2_5 Depth=2
	movq	imgY_org, %rax
	movq	img, %rcx
	movl	172(%rcx), %ecx
	addl	-4(%rbp), %ecx
	movslq	%ecx, %rcx
	movq	(%rax,%rcx,8), %rax
	movq	img, %rcx
	movl	168(%rcx), %ecx
	addl	-8(%rbp), %ecx
	movslq	%ecx, %rcx
	movzwl	(%rax,%rcx,2), %eax
	movq	img, %rcx
	addq	$4792, %rcx             # imm = 0x12B8
	movslq	-88(%rbp), %rdx
	shlq	$9, %rdx
	addq	%rdx, %rcx
	movslq	-4(%rbp), %rdx
	shlq	$5, %rdx
	addq	%rdx, %rcx
	movslq	-8(%rbp), %rdx
	movzwl	(%rcx,%rdx,2), %ecx
	subl	%ecx, %eax
	movslq	-8(%rbp), %rcx
	shlq	$6, %rcx
	leaq	-2256(%rbp), %rdx
	addq	%rcx, %rdx
	movslq	-4(%rbp), %rcx
	movl	%eax, (%rdx,%rcx,4)
	jmp	.LBB2_9
.LBB2_8:                                # %if.else
                                        #   in Loop: Header=BB2_5 Depth=2
	movq	img, %rax
	addq	$13112, %rax            # imm = 0x3338
	movslq	-8(%rbp), %rcx
	shlq	$6, %rcx
	addq	%rcx, %rax
	movslq	-4(%rbp), %rcx
	movl	(%rax,%rcx,4), %eax
	movslq	-8(%rbp), %rcx
	shlq	$6, %rcx
	leaq	-2256(%rbp), %rdx
	addq	%rcx, %rdx
	movslq	-4(%rbp), %rcx
	movl	%eax, (%rdx,%rcx,4)
.LBB2_9:                                # %if.end
                                        #   in Loop: Header=BB2_5 Depth=2
	movslq	-8(%rbp), %rax
	shlq	$6, %rax
	leaq	-2256(%rbp), %rcx
	addq	%rax, %rcx
	movslq	-4(%rbp), %rax
	movl	(%rcx,%rax,4), %ecx
	movl	-8(%rbp), %eax
	cltd
	movl	$4, %esi
	idivl	%esi
	movslq	%edx, %rax
	shlq	$8, %rax
	leaq	-1232(%rbp), %rdi
	addq	%rax, %rdi
	movl	-8(%rbp), %eax
	cltd
	idivl	%esi
	cltq
	shlq	$6, %rax
	addq	%rax, %rdi
	movl	-4(%rbp), %eax
	cltd
	idivl	%esi
	movslq	%edx, %rax
	shlq	$4, %rax
	addq	%rax, %rdi
	movl	-4(%rbp), %eax
	cltd
	idivl	%esi
	cltq
	movl	%ecx, (%rdi,%rax,4)
# %bb.10:                               # %for.inc
                                        #   in Loop: Header=BB2_5 Depth=2
	movl	-8(%rbp), %eax
	addl	$1, %eax
	movl	%eax, -8(%rbp)
	jmp	.LBB2_5
.LBB2_11:                               # %for.end
                                        #   in Loop: Header=BB2_3 Depth=1
	jmp	.LBB2_12
.LBB2_12:                               # %for.inc61
                                        #   in Loop: Header=BB2_3 Depth=1
	movl	-4(%rbp), %eax
	addl	$1, %eax
	movl	%eax, -4(%rbp)
	jmp	.LBB2_3
.LBB2_13:                               # %for.end63
	movl	$0, -12(%rbp)
.LBB2_14:                               # %for.cond64
                                        # =>This Loop Header: Depth=1
                                        #     Child Loop BB2_18 Depth 2
                                        #       Child Loop BB2_20 Depth 3
                                        #         Child Loop BB2_22 Depth 4
                                        #       Child Loop BB2_28 Depth 3
                                        #         Child Loop BB2_30 Depth 4
	xorl	%eax, %eax
	cmpl	$4, -12(%rbp)
	jge	.LBB2_16
# %bb.15:                               # %land.rhs67
                                        #   in Loop: Header=BB2_14 Depth=1
	cmpl	$0, -56(%rbp)
	setne	%al
	xorb	$-1, %al
.LBB2_16:                               # %land.end69
                                        #   in Loop: Header=BB2_14 Depth=1
	testb	$1, %al
	jne	.LBB2_17
	jmp	.LBB2_39
.LBB2_17:                               # %for.body71
                                        #   in Loop: Header=BB2_14 Depth=1
	movl	$0, -16(%rbp)
.LBB2_18:                               # %for.cond72
                                        #   Parent Loop BB2_14 Depth=1
                                        # =>  This Loop Header: Depth=2
                                        #       Child Loop BB2_20 Depth 3
                                        #         Child Loop BB2_22 Depth 4
                                        #       Child Loop BB2_28 Depth 3
                                        #         Child Loop BB2_30 Depth 4
	cmpl	$4, -16(%rbp)
	jge	.LBB2_37
# %bb.19:                               # %for.body75
                                        #   in Loop: Header=BB2_18 Depth=2
	movl	$0, -4(%rbp)
.LBB2_20:                               # %for.cond76
                                        #   Parent Loop BB2_14 Depth=1
                                        #     Parent Loop BB2_18 Depth=2
                                        # =>    This Loop Header: Depth=3
                                        #         Child Loop BB2_22 Depth 4
	cmpl	$4, -4(%rbp)
	jge	.LBB2_27
# %bb.21:                               # %for.body79
                                        #   in Loop: Header=BB2_20 Depth=3
	movl	$0, -8(%rbp)
.LBB2_22:                               # %for.cond80
                                        #   Parent Loop BB2_14 Depth=1
                                        #     Parent Loop BB2_18 Depth=2
                                        #       Parent Loop BB2_20 Depth=3
                                        # =>      This Inner Loop Header: Depth=4
	cmpl	$2, -8(%rbp)
	jge	.LBB2_25
# %bb.23:                               # %for.body83
                                        #   in Loop: Header=BB2_22 Depth=4
	movl	$3, %eax
	subl	-8(%rbp), %eax
	movl	%eax, -44(%rbp)
	movslq	-8(%rbp), %rcx
	shlq	$8, %rcx
	leaq	-1232(%rbp), %rax
	movq	%rax, %rdx
	addq	%rcx, %rdx
	movslq	-16(%rbp), %rcx
	shlq	$6, %rcx
	addq	%rcx, %rdx
	movslq	-4(%rbp), %rcx
	shlq	$4, %rcx
	addq	%rcx, %rdx
	movslq	-12(%rbp), %rcx
	movl	(%rdx,%rcx,4), %ecx
	movslq	-44(%rbp), %rdx
	shlq	$8, %rdx
	movq	%rax, %rsi
	addq	%rdx, %rsi
	movslq	-16(%rbp), %rdx
	shlq	$6, %rdx
	addq	%rdx, %rsi
	movslq	-4(%rbp), %rdx
	shlq	$4, %rdx
	addq	%rdx, %rsi
	movslq	-12(%rbp), %rdx
	addl	(%rsi,%rdx,4), %ecx
	movslq	-8(%rbp), %rdx
	movl	%ecx, -32(%rbp,%rdx,4)
	movslq	-8(%rbp), %rcx
	shlq	$8, %rcx
	movq	%rax, %rdx
	addq	%rcx, %rdx
	movslq	-16(%rbp), %rcx
	shlq	$6, %rcx
	addq	%rcx, %rdx
	movslq	-4(%rbp), %rcx
	shlq	$4, %rcx
	addq	%rcx, %rdx
	movslq	-12(%rbp), %rcx
	movl	(%rdx,%rcx,4), %ecx
	movslq	-44(%rbp), %rdx
	shlq	$8, %rdx
	addq	%rdx, %rax
	movslq	-16(%rbp), %rdx
	shlq	$6, %rdx
	addq	%rdx, %rax
	movslq	-4(%rbp), %rdx
	shlq	$4, %rdx
	addq	%rdx, %rax
	movslq	-12(%rbp), %rdx
	subl	(%rax,%rdx,4), %ecx
	movslq	-44(%rbp), %rax
	movl	%ecx, -32(%rbp,%rax,4)
# %bb.24:                               # %for.inc123
                                        #   in Loop: Header=BB2_22 Depth=4
	movl	-8(%rbp), %eax
	addl	$1, %eax
	movl	%eax, -8(%rbp)
	jmp	.LBB2_22
.LBB2_25:                               # %for.end125
                                        #   in Loop: Header=BB2_20 Depth=3
	leaq	-1232(%rbp), %rax
	movl	-32(%rbp), %ecx
	addl	-28(%rbp), %ecx
	movslq	-16(%rbp), %rdx
	shlq	$6, %rdx
	movq	%rax, %rsi
	addq	%rdx, %rsi
	movslq	-4(%rbp), %rdx
	shlq	$4, %rdx
	addq	%rdx, %rsi
	movslq	-12(%rbp), %rdx
	movl	%ecx, (%rsi,%rdx,4)
	movl	-32(%rbp), %ecx
	subl	-28(%rbp), %ecx
	movq	%rax, %rdx
	addq	$512, %rdx              # imm = 0x200
	movslq	-16(%rbp), %rsi
	shlq	$6, %rsi
	addq	%rsi, %rdx
	movslq	-4(%rbp), %rsi
	shlq	$4, %rsi
	addq	%rsi, %rdx
	movslq	-12(%rbp), %rsi
	movl	%ecx, (%rdx,%rsi,4)
	movl	-20(%rbp), %ecx
	shll	$1, %ecx
	addl	-24(%rbp), %ecx
	movq	%rax, %rdx
	addq	$256, %rdx              # imm = 0x100
	movslq	-16(%rbp), %rsi
	shlq	$6, %rsi
	addq	%rsi, %rdx
	movslq	-4(%rbp), %rsi
	shlq	$4, %rsi
	addq	%rsi, %rdx
	movslq	-12(%rbp), %rsi
	movl	%ecx, (%rdx,%rsi,4)
	movl	-20(%rbp), %ecx
	movl	-24(%rbp), %edx
	shll	$1, %edx
	subl	%edx, %ecx
	addq	$768, %rax              # imm = 0x300
	movslq	-16(%rbp), %rdx
	shlq	$6, %rdx
	addq	%rdx, %rax
	movslq	-4(%rbp), %rdx
	shlq	$4, %rdx
	addq	%rdx, %rax
	movslq	-12(%rbp), %rdx
	movl	%ecx, (%rax,%rdx,4)
# %bb.26:                               # %for.inc167
                                        #   in Loop: Header=BB2_20 Depth=3
	movl	-4(%rbp), %eax
	addl	$1, %eax
	movl	%eax, -4(%rbp)
	jmp	.LBB2_20
.LBB2_27:                               # %for.end169
                                        #   in Loop: Header=BB2_18 Depth=2
	movl	$0, -8(%rbp)
.LBB2_28:                               # %for.cond170
                                        #   Parent Loop BB2_14 Depth=1
                                        #     Parent Loop BB2_18 Depth=2
                                        # =>    This Loop Header: Depth=3
                                        #         Child Loop BB2_30 Depth 4
	cmpl	$4, -8(%rbp)
	jge	.LBB2_35
# %bb.29:                               # %for.body173
                                        #   in Loop: Header=BB2_28 Depth=3
	movl	$0, -4(%rbp)
.LBB2_30:                               # %for.cond174
                                        #   Parent Loop BB2_14 Depth=1
                                        #     Parent Loop BB2_18 Depth=2
                                        #       Parent Loop BB2_28 Depth=3
                                        # =>      This Inner Loop Header: Depth=4
	cmpl	$2, -4(%rbp)
	jge	.LBB2_33
# %bb.31:                               # %for.body177
                                        #   in Loop: Header=BB2_30 Depth=4
	movl	$3, %eax
	subl	-4(%rbp), %eax
	movl	%eax, -36(%rbp)
	movslq	-8(%rbp), %rcx
	shlq	$8, %rcx
	leaq	-1232(%rbp), %rax
	movq	%rax, %rdx
	addq	%rcx, %rdx
	movslq	-16(%rbp), %rcx
	shlq	$6, %rcx
	addq	%rcx, %rdx
	movslq	-4(%rbp), %rcx
	shlq	$4, %rcx
	addq	%rcx, %rdx
	movslq	-12(%rbp), %rcx
	movl	(%rdx,%rcx,4), %ecx
	movslq	-8(%rbp), %rdx
	shlq	$8, %rdx
	movq	%rax, %rsi
	addq	%rdx, %rsi
	movslq	-16(%rbp), %rdx
	shlq	$6, %rdx
	addq	%rdx, %rsi
	movslq	-36(%rbp), %rdx
	shlq	$4, %rdx
	addq	%rdx, %rsi
	movslq	-12(%rbp), %rdx
	addl	(%rsi,%rdx,4), %ecx
	movslq	-4(%rbp), %rdx
	movl	%ecx, -32(%rbp,%rdx,4)
	movslq	-8(%rbp), %rcx
	shlq	$8, %rcx
	movq	%rax, %rdx
	addq	%rcx, %rdx
	movslq	-16(%rbp), %rcx
	shlq	$6, %rcx
	addq	%rcx, %rdx
	movslq	-4(%rbp), %rcx
	shlq	$4, %rcx
	addq	%rcx, %rdx
	movslq	-12(%rbp), %rcx
	movl	(%rdx,%rcx,4), %ecx
	movslq	-8(%rbp), %rdx
	shlq	$8, %rdx
	addq	%rdx, %rax
	movslq	-16(%rbp), %rdx
	shlq	$6, %rdx
	addq	%rdx, %rax
	movslq	-36(%rbp), %rdx
	shlq	$4, %rdx
	addq	%rdx, %rax
	movslq	-12(%rbp), %rdx
	subl	(%rax,%rdx,4), %ecx
	movslq	-36(%rbp), %rax
	movl	%ecx, -32(%rbp,%rax,4)
# %bb.32:                               # %for.inc217
                                        #   in Loop: Header=BB2_30 Depth=4
	movl	-4(%rbp), %eax
	addl	$1, %eax
	movl	%eax, -4(%rbp)
	jmp	.LBB2_30
.LBB2_33:                               # %for.end219
                                        #   in Loop: Header=BB2_28 Depth=3
	movl	-32(%rbp), %ecx
	addl	-28(%rbp), %ecx
	movslq	-8(%rbp), %rdx
	shlq	$8, %rdx
	leaq	-1232(%rbp), %rax
	movq	%rax, %rsi
	addq	%rdx, %rsi
	movslq	-16(%rbp), %rdx
	shlq	$6, %rdx
	addq	%rdx, %rsi
	movslq	-12(%rbp), %rdx
	movl	%ecx, (%rsi,%rdx,4)
	movl	-32(%rbp), %ecx
	subl	-28(%rbp), %ecx
	movslq	-8(%rbp), %rdx
	shlq	$8, %rdx
	movq	%rax, %rsi
	addq	%rdx, %rsi
	movslq	-16(%rbp), %rdx
	shlq	$6, %rdx
	addq	%rdx, %rsi
	movslq	-12(%rbp), %rdx
	movl	%ecx, 32(%rsi,%rdx,4)
	movl	-20(%rbp), %ecx
	shll	$1, %ecx
	addl	-24(%rbp), %ecx
	movslq	-8(%rbp), %rdx
	shlq	$8, %rdx
	movq	%rax, %rsi
	addq	%rdx, %rsi
	movslq	-16(%rbp), %rdx
	shlq	$6, %rdx
	addq	%rdx, %rsi
	movslq	-12(%rbp), %rdx
	movl	%ecx, 16(%rsi,%rdx,4)
	movl	-20(%rbp), %ecx
	movl	-24(%rbp), %edx
	shll	$1, %edx
	subl	%edx, %ecx
	movslq	-8(%rbp), %rdx
	shlq	$8, %rdx
	addq	%rdx, %rax
	movslq	-16(%rbp), %rdx
	shlq	$6, %rdx
	addq	%rdx, %rax
	movslq	-12(%rbp), %rdx
	movl	%ecx, 48(%rax,%rdx,4)
# %bb.34:                               # %for.inc262
                                        #   in Loop: Header=BB2_28 Depth=3
	movl	-8(%rbp), %eax
	addl	$1, %eax
	movl	%eax, -8(%rbp)
	jmp	.LBB2_28
.LBB2_35:                               # %for.end264
                                        #   in Loop: Header=BB2_18 Depth=2
	jmp	.LBB2_36
.LBB2_36:                               # %for.inc265
                                        #   in Loop: Header=BB2_18 Depth=2
	movl	-16(%rbp), %eax
	addl	$1, %eax
	movl	%eax, -16(%rbp)
	jmp	.LBB2_18
.LBB2_37:                               # %for.end267
                                        #   in Loop: Header=BB2_14 Depth=1
	jmp	.LBB2_38
.LBB2_38:                               # %for.inc268
                                        #   in Loop: Header=BB2_14 Depth=1
	movl	-12(%rbp), %eax
	addl	$1, %eax
	movl	%eax, -12(%rbp)
	jmp	.LBB2_14
.LBB2_39:                               # %for.end270
	movl	$0, -4(%rbp)
.LBB2_40:                               # %for.cond271
                                        # =>This Loop Header: Depth=1
                                        #     Child Loop BB2_42 Depth 2
	cmpl	$4, -4(%rbp)
	jge	.LBB2_47
# %bb.41:                               # %for.body274
                                        #   in Loop: Header=BB2_40 Depth=1
	movl	$0, -8(%rbp)
.LBB2_42:                               # %for.cond275
                                        #   Parent Loop BB2_40 Depth=1
                                        # =>  This Inner Loop Header: Depth=2
	cmpl	$4, -8(%rbp)
	jge	.LBB2_45
# %bb.43:                               # %for.body278
                                        #   in Loop: Header=BB2_42 Depth=2
	leaq	-1232(%rbp), %rax
	movslq	-8(%rbp), %rcx
	shlq	$6, %rcx
	addq	%rcx, %rax
	movslq	-4(%rbp), %rcx
	movl	(%rax,%rcx,4), %eax
	movslq	-8(%rbp), %rcx
	shlq	$4, %rcx
	leaq	-192(%rbp), %rdx
	addq	%rcx, %rdx
	movslq	-4(%rbp), %rcx
	movl	%eax, (%rdx,%rcx,4)
# %bb.44:                               # %for.inc289
                                        #   in Loop: Header=BB2_42 Depth=2
	movl	-8(%rbp), %eax
	addl	$1, %eax
	movl	%eax, -8(%rbp)
	jmp	.LBB2_42
.LBB2_45:                               # %for.end291
                                        #   in Loop: Header=BB2_40 Depth=1
	jmp	.LBB2_46
.LBB2_46:                               # %for.inc292
                                        #   in Loop: Header=BB2_40 Depth=1
	movl	-4(%rbp), %eax
	addl	$1, %eax
	movl	%eax, -4(%rbp)
	jmp	.LBB2_40
.LBB2_47:                               # %for.end294
	movl	$0, -4(%rbp)
.LBB2_48:                               # %for.cond295
                                        # =>This Loop Header: Depth=1
                                        #     Child Loop BB2_52 Depth 2
	xorl	%eax, %eax
	cmpl	$4, -4(%rbp)
	jge	.LBB2_50
# %bb.49:                               # %land.rhs298
                                        #   in Loop: Header=BB2_48 Depth=1
	cmpl	$0, -56(%rbp)
	setne	%al
	xorb	$-1, %al
.LBB2_50:                               # %land.end301
                                        #   in Loop: Header=BB2_48 Depth=1
	testb	$1, %al
	jne	.LBB2_51
	jmp	.LBB2_57
.LBB2_51:                               # %for.body303
                                        #   in Loop: Header=BB2_48 Depth=1
	movl	$0, -8(%rbp)
.LBB2_52:                               # %for.cond304
                                        #   Parent Loop BB2_48 Depth=1
                                        # =>  This Inner Loop Header: Depth=2
	cmpl	$2, -8(%rbp)
	jge	.LBB2_55
# %bb.53:                               # %for.body307
                                        #   in Loop: Header=BB2_52 Depth=2
	movl	$3, %eax
	subl	-8(%rbp), %eax
	movl	%eax, -44(%rbp)
	movslq	-8(%rbp), %rax
	shlq	$4, %rax
	leaq	-192(%rbp), %rcx
	movq	%rcx, %rdx
	addq	%rax, %rdx
	movslq	-4(%rbp), %rax
	movl	(%rdx,%rax,4), %eax
	movslq	-44(%rbp), %rdx
	shlq	$4, %rdx
	movq	%rcx, %rsi
	addq	%rdx, %rsi
	movslq	-4(%rbp), %rdx
	addl	(%rsi,%rdx,4), %eax
	movslq	-8(%rbp), %rdx
	movl	%eax, -32(%rbp,%rdx,4)
	movslq	-8(%rbp), %rax
	shlq	$4, %rax
	movq	%rcx, %rdx
	addq	%rax, %rdx
	movslq	-4(%rbp), %rax
	movl	(%rdx,%rax,4), %eax
	movslq	-44(%rbp), %rdx
	shlq	$4, %rdx
	addq	%rdx, %rcx
	movslq	-4(%rbp), %rdx
	subl	(%rcx,%rdx,4), %eax
	movslq	-44(%rbp), %rcx
	movl	%eax, -32(%rbp,%rcx,4)
# %bb.54:                               # %for.inc331
                                        #   in Loop: Header=BB2_52 Depth=2
	movl	-8(%rbp), %eax
	addl	$1, %eax
	movl	%eax, -8(%rbp)
	jmp	.LBB2_52
.LBB2_55:                               # %for.end333
                                        #   in Loop: Header=BB2_48 Depth=1
	movl	-32(%rbp), %eax
	addl	-28(%rbp), %eax
	movslq	-4(%rbp), %rcx
	movl	%eax, -192(%rbp,%rcx,4)
	movl	-32(%rbp), %eax
	subl	-28(%rbp), %eax
	movslq	-4(%rbp), %rcx
	movl	%eax, -160(%rbp,%rcx,4)
	movl	-20(%rbp), %eax
	addl	-24(%rbp), %eax
	movslq	-4(%rbp), %rcx
	movl	%eax, -176(%rbp,%rcx,4)
	movl	-20(%rbp), %eax
	subl	-24(%rbp), %eax
	movslq	-4(%rbp), %rcx
	movl	%eax, -144(%rbp,%rcx,4)
# %bb.56:                               # %for.inc358
                                        #   in Loop: Header=BB2_48 Depth=1
	movl	-4(%rbp), %eax
	addl	$1, %eax
	movl	%eax, -4(%rbp)
	jmp	.LBB2_48
.LBB2_57:                               # %for.end360
	movl	$0, -8(%rbp)
.LBB2_58:                               # %for.cond361
                                        # =>This Loop Header: Depth=1
                                        #     Child Loop BB2_62 Depth 2
	xorl	%eax, %eax
	cmpl	$4, -8(%rbp)
	jge	.LBB2_60
# %bb.59:                               # %land.rhs364
                                        #   in Loop: Header=BB2_58 Depth=1
	cmpl	$0, -56(%rbp)
	setne	%al
	xorb	$-1, %al
.LBB2_60:                               # %land.end367
                                        #   in Loop: Header=BB2_58 Depth=1
	testb	$1, %al
	jne	.LBB2_61
	jmp	.LBB2_67
.LBB2_61:                               # %for.body369
                                        #   in Loop: Header=BB2_58 Depth=1
	movl	$0, -4(%rbp)
.LBB2_62:                               # %for.cond370
                                        #   Parent Loop BB2_58 Depth=1
                                        # =>  This Inner Loop Header: Depth=2
	cmpl	$2, -4(%rbp)
	jge	.LBB2_65
# %bb.63:                               # %for.body373
                                        #   in Loop: Header=BB2_62 Depth=2
	movl	$3, %eax
	subl	-4(%rbp), %eax
	movl	%eax, -36(%rbp)
	movslq	-8(%rbp), %rax
	shlq	$4, %rax
	leaq	-192(%rbp), %rcx
	movq	%rcx, %rdx
	addq	%rax, %rdx
	movslq	-4(%rbp), %rax
	movl	(%rdx,%rax,4), %eax
	movslq	-8(%rbp), %rdx
	shlq	$4, %rdx
	movq	%rcx, %rsi
	addq	%rdx, %rsi
	movslq	-36(%rbp), %rdx
	addl	(%rsi,%rdx,4), %eax
	movslq	-4(%rbp), %rdx
	movl	%eax, -32(%rbp,%rdx,4)
	movslq	-8(%rbp), %rax
	shlq	$4, %rax
	movq	%rcx, %rdx
	addq	%rax, %rdx
	movslq	-4(%rbp), %rax
	movl	(%rdx,%rax,4), %eax
	movslq	-8(%rbp), %rdx
	shlq	$4, %rdx
	addq	%rdx, %rcx
	movslq	-36(%rbp), %rdx
	subl	(%rcx,%rdx,4), %eax
	movslq	-36(%rbp), %rcx
	movl	%eax, -32(%rbp,%rcx,4)
# %bb.64:                               # %for.inc397
                                        #   in Loop: Header=BB2_62 Depth=2
	movl	-4(%rbp), %eax
	addl	$1, %eax
	movl	%eax, -4(%rbp)
	jmp	.LBB2_62
.LBB2_65:                               # %for.end399
                                        #   in Loop: Header=BB2_58 Depth=1
	movl	-32(%rbp), %ecx
	addl	-28(%rbp), %ecx
	sarl	$1, %ecx
	movslq	-8(%rbp), %rdx
	shlq	$4, %rdx
	leaq	-192(%rbp), %rax
	movq	%rax, %rsi
	addq	%rdx, %rsi
	movl	%ecx, (%rsi)
	movl	-32(%rbp), %ecx
	subl	-28(%rbp), %ecx
	sarl	$1, %ecx
	movslq	-8(%rbp), %rdx
	shlq	$4, %rdx
	movq	%rax, %rsi
	addq	%rdx, %rsi
	movl	%ecx, 8(%rsi)
	movl	-20(%rbp), %ecx
	addl	-24(%rbp), %ecx
	sarl	$1, %ecx
	movslq	-8(%rbp), %rdx
	shlq	$4, %rdx
	movq	%rax, %rsi
	addq	%rdx, %rsi
	movl	%ecx, 4(%rsi)
	movl	-20(%rbp), %ecx
	subl	-24(%rbp), %ecx
	sarl	$1, %ecx
	movslq	-8(%rbp), %rdx
	shlq	$4, %rdx
	addq	%rdx, %rax
	movl	%ecx, 12(%rax)
# %bb.66:                               # %for.inc427
                                        #   in Loop: Header=BB2_58 Depth=1
	movl	-8(%rbp), %eax
	addl	$1, %eax
	movl	%eax, -8(%rbp)
	jmp	.LBB2_58
.LBB2_67:                               # %for.end429
	movl	$-1, -64(%rbp)
	movl	$0, -60(%rbp)
	movl	$0, -40(%rbp)
.LBB2_68:                               # %for.cond430
                                        # =>This Inner Loop Header: Depth=1
	cmpl	$16, -40(%rbp)
	jge	.LBB2_88
# %bb.69:                               # %for.body433
                                        #   in Loop: Header=BB2_68 Depth=1
	movq	img, %rax
	cmpl	$0, 72444(%rax)
	jne	.LBB2_72
# %bb.70:                               # %lor.lhs.false
                                        #   in Loop: Header=BB2_68 Depth=1
	cmpl	$0, mb_adaptive
	je	.LBB2_73
# %bb.71:                               # %land.lhs.true
                                        #   in Loop: Header=BB2_68 Depth=1
	movq	img, %rax
	cmpl	$0, 72008(%rax)
	je	.LBB2_73
.LBB2_72:                               # %if.then437
                                        #   in Loop: Header=BB2_68 Depth=1
	movslq	-40(%rbp), %rax
	movzbl	FIELD_SCAN(,%rax,2), %eax
	movl	%eax, -8(%rbp)
	movslq	-40(%rbp), %rax
	movzbl	FIELD_SCAN+1(,%rax,2), %eax
	movl	%eax, -4(%rbp)
	jmp	.LBB2_74
.LBB2_73:                               # %if.else446
                                        #   in Loop: Header=BB2_68 Depth=1
	movslq	-40(%rbp), %rax
	movzbl	SNGL_SCAN(,%rax,2), %eax
	movl	%eax, -8(%rbp)
	movslq	-40(%rbp), %rax
	movzbl	SNGL_SCAN+1(,%rax,2), %eax
	movl	%eax, -4(%rbp)
.LBB2_74:                               # %if.end455
                                        #   in Loop: Header=BB2_68 Depth=1
	movl	-64(%rbp), %eax
	addl	$1, %eax
	movl	%eax, -64(%rbp)
	cmpl	$0, -56(%rbp)
	je	.LBB2_76
# %bb.75:                               # %if.then458
                                        #   in Loop: Header=BB2_68 Depth=1
	movslq	-8(%rbp), %rax
	shlq	$4, %rax
	leaq	-192(%rbp), %rcx
	addq	%rax, %rcx
	movslq	-4(%rbp), %rax
	movl	(%rcx,%rax,4), %edi
	callq	abs
	movl	%eax, -52(%rbp)
	jmp	.LBB2_77
.LBB2_76:                               # %if.else463
                                        #   in Loop: Header=BB2_68 Depth=1
	movslq	-8(%rbp), %rax
	shlq	$4, %rax
	leaq	-192(%rbp), %rcx
	addq	%rax, %rcx
	movslq	-4(%rbp), %rax
	movl	(%rcx,%rax,4), %edi
	callq	abs
	movslq	-84(%rbp), %rcx
	shlq	$6, %rcx
	movabsq	$LevelScale4x4Luma_Intra, %rdx
	addq	%rcx, %rdx
	imull	(%rdx), %eax
	movslq	-48(%rbp), %rcx
	shlq	$6, %rcx
	movabsq	$LevelOffset4x4Luma_Intra, %rdx
	addq	%rcx, %rdx
	movl	(%rdx), %ecx
	shll	$1, %ecx
	addl	%ecx, %eax
	movl	-104(%rbp), %ecx
	addl	$1, %ecx
                                        # kill: def $cl killed $ecx
	sarl	%cl, %eax
	movl	%eax, -52(%rbp)
.LBB2_77:                               # %if.end481
                                        #   in Loop: Header=BB2_68 Depth=1
	movq	input, %rax
	cmpl	$0, 2356(%rax)
	jne	.LBB2_82
# %bb.78:                               # %land.lhs.true484
                                        #   in Loop: Header=BB2_68 Depth=1
	movq	img, %rax
	cmpl	$10, 40(%rax)
	jge	.LBB2_82
# %bb.79:                               # %if.then488
                                        #   in Loop: Header=BB2_68 Depth=1
	cmpl	$2063, -52(%rbp)        # imm = 0x80F
	jle	.LBB2_81
# %bb.80:                               # %if.then491
                                        #   in Loop: Header=BB2_68 Depth=1
	movl	$2063, -52(%rbp)        # imm = 0x80F
.LBB2_81:                               # %if.end492
                                        #   in Loop: Header=BB2_68 Depth=1
	jmp	.LBB2_82
.LBB2_82:                               # %if.end493
                                        #   in Loop: Header=BB2_68 Depth=1
	cmpl	$0, -52(%rbp)
	je	.LBB2_84
# %bb.83:                               # %if.then496
                                        #   in Loop: Header=BB2_68 Depth=1
	movl	-52(%rbp), %edi
	movslq	-8(%rbp), %rax
	shlq	$4, %rax
	leaq	-192(%rbp), %rcx
	addq	%rax, %rcx
	movslq	-4(%rbp), %rax
	movl	(%rcx,%rax,4), %esi
	callq	sign
	movq	-128(%rbp), %rcx
	movslq	-60(%rbp), %rdx
	movl	%eax, (%rcx,%rdx,4)
	movl	-64(%rbp), %eax
	movq	-208(%rbp), %rcx
	movslq	-60(%rbp), %rdx
	movl	%eax, (%rcx,%rdx,4)
	movl	-60(%rbp), %eax
	addl	$1, %eax
	movl	%eax, -60(%rbp)
	movl	$-1, -64(%rbp)
.LBB2_84:                               # %if.end507
                                        #   in Loop: Header=BB2_68 Depth=1
	cmpl	$0, -56(%rbp)
	jne	.LBB2_86
# %bb.85:                               # %if.then509
                                        #   in Loop: Header=BB2_68 Depth=1
	movl	-52(%rbp), %edi
	movslq	-8(%rbp), %rax
	shlq	$4, %rax
	leaq	-192(%rbp), %rcx
	addq	%rax, %rcx
	movslq	-4(%rbp), %rax
	movl	(%rcx,%rax,4), %esi
	callq	sign
	movslq	-8(%rbp), %rcx
	shlq	$4, %rcx
	leaq	-192(%rbp), %rdx
	addq	%rcx, %rdx
	movslq	-4(%rbp), %rcx
	movl	%eax, (%rdx,%rcx,4)
.LBB2_86:                               # %if.end519
                                        #   in Loop: Header=BB2_68 Depth=1
	jmp	.LBB2_87
.LBB2_87:                               # %for.inc520
                                        #   in Loop: Header=BB2_68 Depth=1
	movl	-40(%rbp), %eax
	addl	$1, %eax
	movl	%eax, -40(%rbp)
	jmp	.LBB2_68
.LBB2_88:                               # %for.end522
	movq	-128(%rbp), %rax
	movslq	-60(%rbp), %rcx
	movl	$0, (%rax,%rcx,4)
	movl	$0, -4(%rbp)
.LBB2_89:                               # %for.cond525
                                        # =>This Loop Header: Depth=1
                                        #     Child Loop BB2_93 Depth 2
                                        #     Child Loop BB2_97 Depth 2
	xorl	%eax, %eax
	cmpl	$4, -4(%rbp)
	jge	.LBB2_91
# %bb.90:                               # %land.rhs528
                                        #   in Loop: Header=BB2_89 Depth=1
	cmpl	$0, -56(%rbp)
	setne	%al
	xorb	$-1, %al
.LBB2_91:                               # %land.end531
                                        #   in Loop: Header=BB2_89 Depth=1
	testb	$1, %al
	jne	.LBB2_92
	jmp	.LBB2_102
.LBB2_92:                               # %for.body533
                                        #   in Loop: Header=BB2_89 Depth=1
	movl	$0, -8(%rbp)
.LBB2_93:                               # %for.cond534
                                        #   Parent Loop BB2_89 Depth=1
                                        # =>  This Inner Loop Header: Depth=2
	cmpl	$4, -8(%rbp)
	jge	.LBB2_96
# %bb.94:                               # %for.body537
                                        #   in Loop: Header=BB2_93 Depth=2
	movslq	-8(%rbp), %rax
	shlq	$4, %rax
	leaq	-192(%rbp), %rcx
	addq	%rax, %rcx
	movslq	-4(%rbp), %rax
	movl	(%rcx,%rax,4), %eax
	movslq	-8(%rbp), %rcx
	movl	%eax, -32(%rbp,%rcx,4)
# %bb.95:                               # %for.inc544
                                        #   in Loop: Header=BB2_93 Depth=2
	movl	-8(%rbp), %eax
	addl	$1, %eax
	movl	%eax, -8(%rbp)
	jmp	.LBB2_93
.LBB2_96:                               # %for.end546
                                        #   in Loop: Header=BB2_89 Depth=1
	movl	-32(%rbp), %eax
	addl	-24(%rbp), %eax
	movl	%eax, -80(%rbp)
	movl	-32(%rbp), %eax
	subl	-24(%rbp), %eax
	movl	%eax, -76(%rbp)
	movl	-28(%rbp), %eax
	subl	-20(%rbp), %eax
	movl	%eax, -72(%rbp)
	movl	-28(%rbp), %eax
	addl	-20(%rbp), %eax
	movl	%eax, -68(%rbp)
	movl	$0, -8(%rbp)
.LBB2_97:                               # %for.cond563
                                        #   Parent Loop BB2_89 Depth=1
                                        # =>  This Inner Loop Header: Depth=2
	cmpl	$2, -8(%rbp)
	jge	.LBB2_100
# %bb.98:                               # %for.body566
                                        #   in Loop: Header=BB2_97 Depth=2
	movl	$3, %eax
	subl	-8(%rbp), %eax
	movl	%eax, -44(%rbp)
	movslq	-8(%rbp), %rax
	movl	-80(%rbp,%rax,4), %eax
	movslq	-44(%rbp), %rcx
	addl	-80(%rbp,%rcx,4), %eax
	movslq	-8(%rbp), %rcx
	shlq	$4, %rcx
	leaq	-192(%rbp), %rdx
	movq	%rdx, %rsi
	addq	%rcx, %rsi
	movslq	-4(%rbp), %rcx
	movl	%eax, (%rsi,%rcx,4)
	movslq	-8(%rbp), %rax
	movl	-80(%rbp,%rax,4), %eax
	movslq	-44(%rbp), %rcx
	subl	-80(%rbp,%rcx,4), %eax
	movslq	-44(%rbp), %rcx
	shlq	$4, %rcx
	addq	%rcx, %rdx
	movslq	-4(%rbp), %rcx
	movl	%eax, (%rdx,%rcx,4)
# %bb.99:                               # %for.inc586
                                        #   in Loop: Header=BB2_97 Depth=2
	movl	-8(%rbp), %eax
	addl	$1, %eax
	movl	%eax, -8(%rbp)
	jmp	.LBB2_97
.LBB2_100:                              # %for.end588
                                        #   in Loop: Header=BB2_89 Depth=1
	jmp	.LBB2_101
.LBB2_101:                              # %for.inc589
                                        #   in Loop: Header=BB2_89 Depth=1
	movl	-4(%rbp), %eax
	addl	$1, %eax
	movl	%eax, -4(%rbp)
	jmp	.LBB2_89
.LBB2_102:                              # %for.end591
	movl	$0, -8(%rbp)
.LBB2_103:                              # %for.cond592
                                        # =>This Loop Header: Depth=1
                                        #     Child Loop BB2_107 Depth 2
                                        #     Child Loop BB2_111 Depth 2
	xorl	%eax, %eax
	cmpl	$4, -8(%rbp)
	jge	.LBB2_105
# %bb.104:                              # %land.rhs595
                                        #   in Loop: Header=BB2_103 Depth=1
	cmpl	$0, -56(%rbp)
	setne	%al
	xorb	$-1, %al
.LBB2_105:                              # %land.end598
                                        #   in Loop: Header=BB2_103 Depth=1
	testb	$1, %al
	jne	.LBB2_106
	jmp	.LBB2_119
.LBB2_106:                              # %for.body600
                                        #   in Loop: Header=BB2_103 Depth=1
	movl	$0, -4(%rbp)
.LBB2_107:                              # %for.cond601
                                        #   Parent Loop BB2_103 Depth=1
                                        # =>  This Inner Loop Header: Depth=2
	cmpl	$4, -4(%rbp)
	jge	.LBB2_110
# %bb.108:                              # %for.body604
                                        #   in Loop: Header=BB2_107 Depth=2
	movslq	-8(%rbp), %rax
	shlq	$4, %rax
	leaq	-192(%rbp), %rcx
	addq	%rax, %rcx
	movslq	-4(%rbp), %rax
	movl	(%rcx,%rax,4), %eax
	movslq	-4(%rbp), %rcx
	movl	%eax, -32(%rbp,%rcx,4)
# %bb.109:                              # %for.inc611
                                        #   in Loop: Header=BB2_107 Depth=2
	movl	-4(%rbp), %eax
	addl	$1, %eax
	movl	%eax, -4(%rbp)
	jmp	.LBB2_107
.LBB2_110:                              # %for.end613
                                        #   in Loop: Header=BB2_103 Depth=1
	movl	-32(%rbp), %eax
	addl	-24(%rbp), %eax
	movl	%eax, -80(%rbp)
	movl	-32(%rbp), %eax
	subl	-24(%rbp), %eax
	movl	%eax, -76(%rbp)
	movl	-28(%rbp), %eax
	subl	-20(%rbp), %eax
	movl	%eax, -72(%rbp)
	movl	-28(%rbp), %eax
	addl	-20(%rbp), %eax
	movl	%eax, -68(%rbp)
	movl	$0, -4(%rbp)
.LBB2_111:                              # %for.cond630
                                        #   Parent Loop BB2_103 Depth=1
                                        # =>  This Inner Loop Header: Depth=2
	cmpl	$2, -4(%rbp)
	jge	.LBB2_117
# %bb.112:                              # %for.body633
                                        #   in Loop: Header=BB2_111 Depth=2
	movl	$3, %eax
	subl	-4(%rbp), %eax
	movl	%eax, -36(%rbp)
	cmpl	$6, -48(%rbp)
	jge	.LBB2_114
# %bb.113:                              # %if.then637
                                        #   in Loop: Header=BB2_111 Depth=2
	leaq	-1232(%rbp), %r8
	movslq	-4(%rbp), %rax
	movl	-80(%rbp,%rax,4), %esi
	movslq	-36(%rbp), %rax
	addl	-80(%rbp,%rax,4), %esi
	movslq	-84(%rbp), %rax
	shlq	$6, %rax
	movabsq	$InvLevelScale4x4Luma_Intra, %rdi
	movq	%rdi, %rcx
	addq	%rax, %rcx
	imull	(%rcx), %esi
	movl	$5, %r10d
	movl	$5, %ecx
	subl	-48(%rbp), %ecx
                                        # kill: def $cl killed $ecx
	movl	$1, %r9d
	movl	$1, %edx
	shll	%cl, %edx
	addl	%edx, %esi
	movl	$6, %edx
	movl	$6, %ecx
	subl	-48(%rbp), %ecx
                                        # kill: def $cl killed $ecx
	sarl	%cl, %esi
	movslq	-8(%rbp), %rcx
	shlq	$6, %rcx
	movq	%r8, %rax
	addq	%rcx, %rax
	movslq	-4(%rbp), %rcx
	movl	%esi, (%rax,%rcx,4)
	movslq	-4(%rbp), %rax
	movl	-80(%rbp,%rax,4), %eax
	movslq	-36(%rbp), %rcx
	subl	-80(%rbp,%rcx,4), %eax
	movslq	-84(%rbp), %rcx
	shlq	$6, %rcx
	addq	%rcx, %rdi
	imull	(%rdi), %eax
	subl	-48(%rbp), %r10d
	movl	%r10d, %ecx
                                        # kill: def $cl killed $ecx
	shll	%cl, %r9d
	addl	%r9d, %eax
	subl	-48(%rbp), %edx
	movl	%edx, %ecx
                                        # kill: def $cl killed $ecx
	sarl	%cl, %eax
	movslq	-8(%rbp), %rcx
	shlq	$6, %rcx
	addq	%rcx, %r8
	movslq	-36(%rbp), %rcx
	movl	%eax, (%r8,%rcx,4)
	jmp	.LBB2_115
.LBB2_114:                              # %if.else680
                                        #   in Loop: Header=BB2_111 Depth=2
	leaq	-1232(%rbp), %rax
	movslq	-4(%rbp), %rcx
	movl	-80(%rbp,%rcx,4), %edx
	movslq	-36(%rbp), %rcx
	addl	-80(%rbp,%rcx,4), %edx
	movslq	-84(%rbp), %rcx
	shlq	$6, %rcx
	movabsq	$InvLevelScale4x4Luma_Intra, %rsi
	movq	%rsi, %rdi
	addq	%rcx, %rdi
	imull	(%rdi), %edx
	movl	-48(%rbp), %ecx
	subl	$6, %ecx
                                        # kill: def $cl killed $ecx
	shll	%cl, %edx
	movslq	-8(%rbp), %rcx
	shlq	$6, %rcx
	movq	%rax, %rdi
	addq	%rcx, %rdi
	movslq	-4(%rbp), %rcx
	movl	%edx, (%rdi,%rcx,4)
	movslq	-4(%rbp), %rcx
	movl	-80(%rbp,%rcx,4), %edx
	movslq	-36(%rbp), %rcx
	subl	-80(%rbp,%rcx,4), %edx
	movslq	-84(%rbp), %rcx
	shlq	$6, %rcx
	addq	%rcx, %rsi
	imull	(%rsi), %edx
	movl	-48(%rbp), %ecx
	subl	$6, %ecx
                                        # kill: def $cl killed $ecx
	shll	%cl, %edx
	movslq	-8(%rbp), %rcx
	shlq	$6, %rcx
	addq	%rcx, %rax
	movslq	-36(%rbp), %rcx
	movl	%edx, (%rax,%rcx,4)
.LBB2_115:                              # %if.end717
                                        #   in Loop: Header=BB2_111 Depth=2
	jmp	.LBB2_116
.LBB2_116:                              # %for.inc718
                                        #   in Loop: Header=BB2_111 Depth=2
	movl	-4(%rbp), %eax
	addl	$1, %eax
	movl	%eax, -4(%rbp)
	jmp	.LBB2_111
.LBB2_117:                              # %for.end720
                                        #   in Loop: Header=BB2_103 Depth=1
	jmp	.LBB2_118
.LBB2_118:                              # %for.inc721
                                        #   in Loop: Header=BB2_103 Depth=1
	movl	-8(%rbp), %eax
	addl	$1, %eax
	movl	%eax, -8(%rbp)
	jmp	.LBB2_103
.LBB2_119:                              # %for.end723
	movl	$0, -12(%rbp)
.LBB2_120:                              # %for.cond724
                                        # =>This Loop Header: Depth=1
                                        #     Child Loop BB2_122 Depth 2
                                        #       Child Loop BB2_124 Depth 3
                                        #       Child Loop BB2_143 Depth 3
                                        #         Child Loop BB2_147 Depth 4
                                        #         Child Loop BB2_151 Depth 4
                                        #       Child Loop BB2_157 Depth 3
                                        #         Child Loop BB2_161 Depth 4
                                        #         Child Loop BB2_165 Depth 4
	cmpl	$4, -12(%rbp)
	jge	.LBB2_174
# %bb.121:                              # %for.body727
                                        #   in Loop: Header=BB2_120 Depth=1
	movl	$0, -16(%rbp)
.LBB2_122:                              # %for.cond728
                                        #   Parent Loop BB2_120 Depth=1
                                        # =>  This Loop Header: Depth=2
                                        #       Child Loop BB2_124 Depth 3
                                        #       Child Loop BB2_143 Depth 3
                                        #         Child Loop BB2_147 Depth 4
                                        #         Child Loop BB2_151 Depth 4
                                        #       Child Loop BB2_157 Depth 3
                                        #         Child Loop BB2_161 Depth 4
                                        #         Child Loop BB2_165 Depth 4
	cmpl	$4, -16(%rbp)
	jge	.LBB2_172
# %bb.123:                              # %for.body731
                                        #   in Loop: Header=BB2_122 Depth=2
	movl	$-1, -64(%rbp)
	movl	$0, -60(%rbp)
	movl	-12(%rbp), %eax
	cltd
	movl	$2, %esi
	idivl	%esi
	movl	%eax, %ecx
	shll	$1, %ecx
	movl	-16(%rbp), %eax
	cltd
	idivl	%esi
	addl	%eax, %ecx
	movl	%ecx, -96(%rbp)
	movl	-12(%rbp), %eax
	cltd
	idivl	%esi
	movl	%edx, %ecx
	shll	$1, %ecx
	movl	-16(%rbp), %eax
	cltd
	idivl	%esi
	addl	%edx, %ecx
	movl	%ecx, -92(%rbp)
	movq	img, %rax
	movq	14136(%rax), %rax
	movslq	-96(%rbp), %rcx
	movq	(%rax,%rcx,8), %rax
	movslq	-92(%rbp), %rcx
	movq	(%rax,%rcx,8), %rax
	movq	(%rax), %rax
	movq	%rax, -120(%rbp)
	movq	img, %rax
	movq	14136(%rax), %rax
	movslq	-96(%rbp), %rcx
	movq	(%rax,%rcx,8), %rax
	movslq	-92(%rbp), %rcx
	movq	(%rax,%rcx,8), %rax
	movq	8(%rax), %rax
	movq	%rax, -200(%rbp)
	movl	$1, -40(%rbp)
.LBB2_124:                              # %for.cond751
                                        #   Parent Loop BB2_120 Depth=1
                                        #     Parent Loop BB2_122 Depth=2
                                        # =>    This Inner Loop Header: Depth=3
	cmpl	$16, -40(%rbp)
	jge	.LBB2_142
# %bb.125:                              # %for.body754
                                        #   in Loop: Header=BB2_124 Depth=3
	movq	img, %rax
	cmpl	$0, 72444(%rax)
	jne	.LBB2_128
# %bb.126:                              # %lor.lhs.false757
                                        #   in Loop: Header=BB2_124 Depth=3
	cmpl	$0, mb_adaptive
	je	.LBB2_129
# %bb.127:                              # %land.lhs.true759
                                        #   in Loop: Header=BB2_124 Depth=3
	movq	img, %rax
	cmpl	$0, 72008(%rax)
	je	.LBB2_129
.LBB2_128:                              # %if.then762
                                        #   in Loop: Header=BB2_124 Depth=3
	movslq	-40(%rbp), %rax
	movzbl	FIELD_SCAN(,%rax,2), %eax
	movl	%eax, -8(%rbp)
	movslq	-40(%rbp), %rax
	movzbl	FIELD_SCAN+1(,%rax,2), %eax
	movl	%eax, -4(%rbp)
	jmp	.LBB2_130
.LBB2_129:                              # %if.else771
                                        #   in Loop: Header=BB2_124 Depth=3
	movslq	-40(%rbp), %rax
	movzbl	SNGL_SCAN(,%rax,2), %eax
	movl	%eax, -8(%rbp)
	movslq	-40(%rbp), %rax
	movzbl	SNGL_SCAN+1(,%rax,2), %eax
	movl	%eax, -4(%rbp)
.LBB2_130:                              # %if.end780
                                        #   in Loop: Header=BB2_124 Depth=3
	movl	-64(%rbp), %eax
	addl	$1, %eax
	movl	%eax, -64(%rbp)
	cmpl	$0, -56(%rbp)
	je	.LBB2_132
# %bb.131:                              # %if.then783
                                        #   in Loop: Header=BB2_124 Depth=3
	movslq	-8(%rbp), %rax
	shlq	$8, %rax
	leaq	-1232(%rbp), %rcx
	addq	%rax, %rcx
	movslq	-16(%rbp), %rax
	shlq	$6, %rax
	addq	%rax, %rcx
	movslq	-4(%rbp), %rax
	shlq	$4, %rax
	addq	%rax, %rcx
	movslq	-12(%rbp), %rax
	movl	(%rcx,%rax,4), %edi
	callq	abs
	movl	%eax, -52(%rbp)
	jmp	.LBB2_133
.LBB2_132:                              # %if.else793
                                        #   in Loop: Header=BB2_124 Depth=3
	movslq	-8(%rbp), %rax
	shlq	$8, %rax
	leaq	-1232(%rbp), %rcx
	addq	%rax, %rcx
	movslq	-16(%rbp), %rax
	shlq	$6, %rax
	addq	%rax, %rcx
	movslq	-4(%rbp), %rax
	shlq	$4, %rax
	addq	%rax, %rcx
	movslq	-12(%rbp), %rax
	movl	(%rcx,%rax,4), %edi
	callq	abs
	movslq	-84(%rbp), %rcx
	shlq	$6, %rcx
	movabsq	$LevelScale4x4Luma_Intra, %rdx
	addq	%rcx, %rdx
	movslq	-8(%rbp), %rcx
	shlq	$4, %rcx
	addq	%rcx, %rdx
	movslq	-4(%rbp), %rcx
	imull	(%rdx,%rcx,4), %eax
	movslq	-48(%rbp), %rcx
	shlq	$6, %rcx
	movabsq	$LevelOffset4x4Luma_Intra, %rdx
	addq	%rcx, %rdx
	movslq	-8(%rbp), %rcx
	shlq	$4, %rcx
	addq	%rcx, %rdx
	movslq	-4(%rbp), %rcx
	addl	(%rdx,%rcx,4), %eax
	movl	-104(%rbp), %ecx
                                        # kill: def $cl killed $ecx
	sarl	%cl, %eax
	movl	%eax, -52(%rbp)
.LBB2_133:                              # %if.end818
                                        #   in Loop: Header=BB2_124 Depth=3
	cmpl	$0, -52(%rbp)
	je	.LBB2_135
# %bb.134:                              # %if.then821
                                        #   in Loop: Header=BB2_124 Depth=3
	movl	$15, -100(%rbp)
	movl	-52(%rbp), %edi
	movslq	-8(%rbp), %rax
	shlq	$8, %rax
	leaq	-1232(%rbp), %rcx
	addq	%rax, %rcx
	movslq	-16(%rbp), %rax
	shlq	$6, %rax
	addq	%rax, %rcx
	movslq	-4(%rbp), %rax
	shlq	$4, %rax
	addq	%rax, %rcx
	movslq	-12(%rbp), %rax
	movl	(%rcx,%rax,4), %esi
	callq	sign
	movq	-120(%rbp), %rcx
	movslq	-60(%rbp), %rdx
	movl	%eax, (%rcx,%rdx,4)
	movl	-64(%rbp), %eax
	movq	-200(%rbp), %rcx
	movslq	-60(%rbp), %rdx
	movl	%eax, (%rcx,%rdx,4)
	movl	-60(%rbp), %eax
	addl	$1, %eax
	movl	%eax, -60(%rbp)
	movl	$-1, -64(%rbp)
.LBB2_135:                              # %if.end836
                                        #   in Loop: Header=BB2_124 Depth=3
	cmpl	$0, -56(%rbp)
	jne	.LBB2_140
# %bb.136:                              # %if.then838
                                        #   in Loop: Header=BB2_124 Depth=3
	movl	-52(%rbp), %edi
	movslq	-8(%rbp), %rax
	shlq	$8, %rax
	leaq	-1232(%rbp), %rcx
	addq	%rax, %rcx
	movslq	-16(%rbp), %rax
	shlq	$6, %rax
	addq	%rax, %rcx
	movslq	-4(%rbp), %rax
	shlq	$4, %rax
	addq	%rax, %rcx
	movslq	-12(%rbp), %rax
	movl	(%rcx,%rax,4), %esi
	callq	sign
	movl	%eax, -52(%rbp)
	cmpl	$4, -48(%rbp)
	jge	.LBB2_138
# %bb.137:                              # %if.then850
                                        #   in Loop: Header=BB2_124 Depth=3
	movl	-52(%rbp), %eax
	movslq	-84(%rbp), %rcx
	shlq	$6, %rcx
	movabsq	$InvLevelScale4x4Luma_Intra, %rdx
	addq	%rcx, %rdx
	movslq	-8(%rbp), %rcx
	shlq	$4, %rcx
	addq	%rcx, %rdx
	movslq	-4(%rbp), %rcx
	imull	(%rdx,%rcx,4), %eax
	movl	$3, %ecx
	subl	-48(%rbp), %ecx
                                        # kill: def $cl killed $ecx
	movl	$1, %edx
	shll	%cl, %edx
	addl	%edx, %eax
	movl	$4, %ecx
	subl	-48(%rbp), %ecx
                                        # kill: def $cl killed $ecx
	sarl	%cl, %eax
	movslq	-8(%rbp), %rcx
	shlq	$8, %rcx
	leaq	-1232(%rbp), %rdx
	addq	%rcx, %rdx
	movslq	-16(%rbp), %rcx
	shlq	$6, %rcx
	addq	%rcx, %rdx
	movslq	-4(%rbp), %rcx
	shlq	$4, %rcx
	addq	%rcx, %rdx
	movslq	-12(%rbp), %rcx
	movl	%eax, (%rdx,%rcx,4)
	jmp	.LBB2_139
.LBB2_138:                              # %if.else871
                                        #   in Loop: Header=BB2_124 Depth=3
	movl	-52(%rbp), %eax
	movslq	-84(%rbp), %rcx
	shlq	$6, %rcx
	movabsq	$InvLevelScale4x4Luma_Intra, %rdx
	addq	%rcx, %rdx
	movslq	-8(%rbp), %rcx
	shlq	$4, %rcx
	addq	%rcx, %rdx
	movslq	-4(%rbp), %rcx
	imull	(%rdx,%rcx,4), %eax
	movl	-48(%rbp), %ecx
	subl	$4, %ecx
                                        # kill: def $cl killed $ecx
	shll	%cl, %eax
	movslq	-8(%rbp), %rcx
	shlq	$8, %rcx
	leaq	-1232(%rbp), %rdx
	addq	%rcx, %rdx
	movslq	-16(%rbp), %rcx
	shlq	$6, %rcx
	addq	%rcx, %rdx
	movslq	-4(%rbp), %rcx
	shlq	$4, %rcx
	addq	%rcx, %rdx
	movslq	-12(%rbp), %rcx
	movl	%eax, (%rdx,%rcx,4)
.LBB2_139:                              # %if.end889
                                        #   in Loop: Header=BB2_124 Depth=3
	jmp	.LBB2_140
.LBB2_140:                              # %if.end890
                                        #   in Loop: Header=BB2_124 Depth=3
	jmp	.LBB2_141
.LBB2_141:                              # %for.inc891
                                        #   in Loop: Header=BB2_124 Depth=3
	movl	-40(%rbp), %eax
	addl	$1, %eax
	movl	%eax, -40(%rbp)
	jmp	.LBB2_124
.LBB2_142:                              # %for.end893
                                        #   in Loop: Header=BB2_122 Depth=2
	movq	-120(%rbp), %rax
	movslq	-60(%rbp), %rcx
	movl	$0, (%rax,%rcx,4)
	movl	$0, -4(%rbp)
.LBB2_143:                              # %for.cond896
                                        #   Parent Loop BB2_120 Depth=1
                                        #     Parent Loop BB2_122 Depth=2
                                        # =>    This Loop Header: Depth=3
                                        #         Child Loop BB2_147 Depth 4
                                        #         Child Loop BB2_151 Depth 4
	xorl	%eax, %eax
	cmpl	$4, -4(%rbp)
	jge	.LBB2_145
# %bb.144:                              # %land.rhs899
                                        #   in Loop: Header=BB2_143 Depth=3
	cmpl	$0, -56(%rbp)
	setne	%al
	xorb	$-1, %al
.LBB2_145:                              # %land.end902
                                        #   in Loop: Header=BB2_143 Depth=3
	testb	$1, %al
	jne	.LBB2_146
	jmp	.LBB2_156
.LBB2_146:                              # %for.body904
                                        #   in Loop: Header=BB2_143 Depth=3
	movl	$0, -8(%rbp)
.LBB2_147:                              # %for.cond905
                                        #   Parent Loop BB2_120 Depth=1
                                        #     Parent Loop BB2_122 Depth=2
                                        #       Parent Loop BB2_143 Depth=3
                                        # =>      This Inner Loop Header: Depth=4
	cmpl	$4, -8(%rbp)
	jge	.LBB2_150
# %bb.148:                              # %for.body908
                                        #   in Loop: Header=BB2_147 Depth=4
	movslq	-8(%rbp), %rax
	shlq	$8, %rax
	leaq	-1232(%rbp), %rcx
	addq	%rax, %rcx
	movslq	-16(%rbp), %rax
	shlq	$6, %rax
	addq	%rax, %rcx
	movslq	-4(%rbp), %rax
	shlq	$4, %rax
	addq	%rax, %rcx
	movslq	-12(%rbp), %rax
	movl	(%rcx,%rax,4), %eax
	movslq	-8(%rbp), %rcx
	movl	%eax, -32(%rbp,%rcx,4)
# %bb.149:                              # %for.inc919
                                        #   in Loop: Header=BB2_147 Depth=4
	movl	-8(%rbp), %eax
	addl	$1, %eax
	movl	%eax, -8(%rbp)
	jmp	.LBB2_147
.LBB2_150:                              # %for.end921
                                        #   in Loop: Header=BB2_143 Depth=3
	movl	-32(%rbp), %eax
	addl	-24(%rbp), %eax
	movl	%eax, -80(%rbp)
	movl	-32(%rbp), %eax
	subl	-24(%rbp), %eax
	movl	%eax, -76(%rbp)
	movl	-28(%rbp), %eax
	sarl	$1, %eax
	subl	-20(%rbp), %eax
	movl	%eax, -72(%rbp)
	movl	-28(%rbp), %eax
	movl	-20(%rbp), %ecx
	sarl	$1, %ecx
	addl	%ecx, %eax
	movl	%eax, -68(%rbp)
	movl	$0, -8(%rbp)
.LBB2_151:                              # %for.cond940
                                        #   Parent Loop BB2_120 Depth=1
                                        #     Parent Loop BB2_122 Depth=2
                                        #       Parent Loop BB2_143 Depth=3
                                        # =>      This Inner Loop Header: Depth=4
	cmpl	$2, -8(%rbp)
	jge	.LBB2_154
# %bb.152:                              # %for.body943
                                        #   in Loop: Header=BB2_151 Depth=4
	movl	$3, %eax
	subl	-8(%rbp), %eax
	movl	%eax, -44(%rbp)
	movslq	-8(%rbp), %rax
	movl	-80(%rbp,%rax,4), %ecx
	movslq	-44(%rbp), %rax
	addl	-80(%rbp,%rax,4), %ecx
	movslq	-8(%rbp), %rdx
	shlq	$8, %rdx
	leaq	-1232(%rbp), %rax
	movq	%rax, %rsi
	addq	%rdx, %rsi
	movslq	-16(%rbp), %rdx
	shlq	$6, %rdx
	addq	%rdx, %rsi
	movslq	-4(%rbp), %rdx
	shlq	$4, %rdx
	addq	%rdx, %rsi
	movslq	-12(%rbp), %rdx
	movl	%ecx, (%rsi,%rdx,4)
	movslq	-8(%rbp), %rcx
	movl	-80(%rbp,%rcx,4), %ecx
	movslq	-44(%rbp), %rdx
	subl	-80(%rbp,%rdx,4), %ecx
	movslq	-44(%rbp), %rdx
	shlq	$8, %rdx
	addq	%rdx, %rax
	movslq	-16(%rbp), %rdx
	shlq	$6, %rdx
	addq	%rdx, %rax
	movslq	-4(%rbp), %rdx
	shlq	$4, %rdx
	addq	%rdx, %rax
	movslq	-12(%rbp), %rdx
	movl	%ecx, (%rax,%rdx,4)
# %bb.153:                              # %for.inc971
                                        #   in Loop: Header=BB2_151 Depth=4
	movl	-8(%rbp), %eax
	addl	$1, %eax
	movl	%eax, -8(%rbp)
	jmp	.LBB2_151
.LBB2_154:                              # %for.end973
                                        #   in Loop: Header=BB2_143 Depth=3
	jmp	.LBB2_155
.LBB2_155:                              # %for.inc974
                                        #   in Loop: Header=BB2_143 Depth=3
	movl	-4(%rbp), %eax
	addl	$1, %eax
	movl	%eax, -4(%rbp)
	jmp	.LBB2_143
.LBB2_156:                              # %for.end976
                                        #   in Loop: Header=BB2_122 Depth=2
	movl	$0, -8(%rbp)
.LBB2_157:                              # %for.cond977
                                        #   Parent Loop BB2_120 Depth=1
                                        #     Parent Loop BB2_122 Depth=2
                                        # =>    This Loop Header: Depth=3
                                        #         Child Loop BB2_161 Depth 4
                                        #         Child Loop BB2_165 Depth 4
	xorl	%eax, %eax
	cmpl	$4, -8(%rbp)
	jge	.LBB2_159
# %bb.158:                              # %land.rhs980
                                        #   in Loop: Header=BB2_157 Depth=3
	cmpl	$0, -56(%rbp)
	setne	%al
	xorb	$-1, %al
.LBB2_159:                              # %land.end983
                                        #   in Loop: Header=BB2_157 Depth=3
	testb	$1, %al
	jne	.LBB2_160
	jmp	.LBB2_170
.LBB2_160:                              # %for.body985
                                        #   in Loop: Header=BB2_157 Depth=3
	movl	$0, -4(%rbp)
.LBB2_161:                              # %for.cond986
                                        #   Parent Loop BB2_120 Depth=1
                                        #     Parent Loop BB2_122 Depth=2
                                        #       Parent Loop BB2_157 Depth=3
                                        # =>      This Inner Loop Header: Depth=4
	cmpl	$4, -4(%rbp)
	jge	.LBB2_164
# %bb.162:                              # %for.body989
                                        #   in Loop: Header=BB2_161 Depth=4
	movslq	-8(%rbp), %rax
	shlq	$8, %rax
	leaq	-1232(%rbp), %rcx
	addq	%rax, %rcx
	movslq	-16(%rbp), %rax
	shlq	$6, %rax
	addq	%rax, %rcx
	movslq	-4(%rbp), %rax
	shlq	$4, %rax
	addq	%rax, %rcx
	movslq	-12(%rbp), %rax
	movl	(%rcx,%rax,4), %eax
	movslq	-4(%rbp), %rcx
	movl	%eax, -32(%rbp,%rcx,4)
# %bb.163:                              # %for.inc1000
                                        #   in Loop: Header=BB2_161 Depth=4
	movl	-4(%rbp), %eax
	addl	$1, %eax
	movl	%eax, -4(%rbp)
	jmp	.LBB2_161
.LBB2_164:                              # %for.end1002
                                        #   in Loop: Header=BB2_157 Depth=3
	movl	-32(%rbp), %eax
	addl	-24(%rbp), %eax
	movl	%eax, -80(%rbp)
	movl	-32(%rbp), %eax
	subl	-24(%rbp), %eax
	movl	%eax, -76(%rbp)
	movl	-28(%rbp), %eax
	sarl	$1, %eax
	subl	-20(%rbp), %eax
	movl	%eax, -72(%rbp)
	movl	-28(%rbp), %eax
	movl	-20(%rbp), %ecx
	sarl	$1, %ecx
	addl	%ecx, %eax
	movl	%eax, -68(%rbp)
	movl	$0, -4(%rbp)
.LBB2_165:                              # %for.cond1021
                                        #   Parent Loop BB2_120 Depth=1
                                        #     Parent Loop BB2_122 Depth=2
                                        #       Parent Loop BB2_157 Depth=3
                                        # =>      This Inner Loop Header: Depth=4
	cmpl	$2, -4(%rbp)
	jge	.LBB2_168
# %bb.166:                              # %for.body1024
                                        #   in Loop: Header=BB2_165 Depth=4
	movl	$3, %eax
	subl	-4(%rbp), %eax
	movl	%eax, -36(%rbp)
	movslq	-4(%rbp), %rax
	movl	-80(%rbp,%rax,4), %ecx
	movslq	-36(%rbp), %rax
	addl	-80(%rbp,%rax,4), %ecx
	movslq	-8(%rbp), %rdx
	shlq	$8, %rdx
	leaq	-1232(%rbp), %rax
	movq	%rax, %rsi
	addq	%rdx, %rsi
	movslq	-16(%rbp), %rdx
	shlq	$6, %rdx
	addq	%rdx, %rsi
	movslq	-4(%rbp), %rdx
	shlq	$4, %rdx
	addq	%rdx, %rsi
	movslq	-12(%rbp), %rdx
	movl	%ecx, (%rsi,%rdx,4)
	movslq	-4(%rbp), %rcx
	movl	-80(%rbp,%rcx,4), %ecx
	movslq	-36(%rbp), %rdx
	subl	-80(%rbp,%rdx,4), %ecx
	movslq	-8(%rbp), %rdx
	shlq	$8, %rdx
	addq	%rdx, %rax
	movslq	-16(%rbp), %rdx
	shlq	$6, %rdx
	addq	%rdx, %rax
	movslq	-36(%rbp), %rdx
	shlq	$4, %rdx
	addq	%rdx, %rax
	movslq	-12(%rbp), %rdx
	movl	%ecx, (%rax,%rdx,4)
# %bb.167:                              # %for.inc1052
                                        #   in Loop: Header=BB2_165 Depth=4
	movl	-4(%rbp), %eax
	addl	$1, %eax
	movl	%eax, -4(%rbp)
	jmp	.LBB2_165
.LBB2_168:                              # %for.end1054
                                        #   in Loop: Header=BB2_157 Depth=3
	jmp	.LBB2_169
.LBB2_169:                              # %for.inc1055
                                        #   in Loop: Header=BB2_157 Depth=3
	movl	-8(%rbp), %eax
	addl	$1, %eax
	movl	%eax, -8(%rbp)
	jmp	.LBB2_157
.LBB2_170:                              # %for.end1057
                                        #   in Loop: Header=BB2_122 Depth=2
	jmp	.LBB2_171
.LBB2_171:                              # %for.inc1058
                                        #   in Loop: Header=BB2_122 Depth=2
	movl	-16(%rbp), %eax
	addl	$1, %eax
	movl	%eax, -16(%rbp)
	jmp	.LBB2_122
.LBB2_172:                              # %for.end1060
                                        #   in Loop: Header=BB2_120 Depth=1
	jmp	.LBB2_173
.LBB2_173:                              # %for.inc1061
                                        #   in Loop: Header=BB2_120 Depth=1
	movl	-12(%rbp), %eax
	addl	$1, %eax
	movl	%eax, -12(%rbp)
	jmp	.LBB2_120
.LBB2_174:                              # %for.end1063
	movq	img, %rax
	cmpl	$0, 72724(%rax)
	jne	.LBB2_184
# %bb.175:                              # %if.then1066
	movl	$0, -4(%rbp)
.LBB2_176:                              # %for.cond1067
                                        # =>This Loop Header: Depth=1
                                        #     Child Loop BB2_178 Depth 2
	cmpl	$16, -4(%rbp)
	jge	.LBB2_183
# %bb.177:                              # %for.body1070
                                        #   in Loop: Header=BB2_176 Depth=1
	movl	$0, -8(%rbp)
.LBB2_178:                              # %for.cond1071
                                        #   Parent Loop BB2_176 Depth=1
                                        # =>  This Inner Loop Header: Depth=2
	cmpl	$16, -8(%rbp)
	jge	.LBB2_181
# %bb.179:                              # %for.body1074
                                        #   in Loop: Header=BB2_178 Depth=2
	movl	-8(%rbp), %eax
	cltd
	movl	$4, %ecx
	idivl	%ecx
	movslq	%edx, %rax
	shlq	$8, %rax
	leaq	-1232(%rbp), %rsi
	addq	%rax, %rsi
	movl	-8(%rbp), %eax
	cltd
	idivl	%ecx
	cltq
	shlq	$6, %rax
	addq	%rax, %rsi
	movl	-4(%rbp), %eax
	cltd
	idivl	%ecx
	movslq	%edx, %rax
	shlq	$4, %rax
	addq	%rax, %rsi
	movl	-4(%rbp), %eax
	cltd
	idivl	%ecx
	cltq
	movl	(%rsi,%rax,4), %eax
	movslq	-8(%rbp), %rcx
	shlq	$6, %rcx
	leaq	-2256(%rbp), %rdx
	addq	%rcx, %rdx
	movslq	-4(%rbp), %rcx
	movl	%eax, (%rdx,%rcx,4)
# %bb.180:                              # %for.inc1091
                                        #   in Loop: Header=BB2_178 Depth=2
	movl	-8(%rbp), %eax
	addl	$1, %eax
	movl	%eax, -8(%rbp)
	jmp	.LBB2_178
.LBB2_181:                              # %for.end1093
                                        #   in Loop: Header=BB2_176 Depth=1
	jmp	.LBB2_182
.LBB2_182:                              # %for.inc1094
                                        #   in Loop: Header=BB2_176 Depth=1
	movl	-4(%rbp), %eax
	addl	$1, %eax
	movl	%eax, -4(%rbp)
	jmp	.LBB2_176
.LBB2_183:                              # %for.end1096
	jmp	.LBB2_196
.LBB2_184:                              # %if.else1097
	movl	$0, -4(%rbp)
.LBB2_185:                              # %for.cond1098
                                        # =>This Loop Header: Depth=1
                                        #     Child Loop BB2_187 Depth 2
	cmpl	$16, -4(%rbp)
	jge	.LBB2_195
# %bb.186:                              # %for.body1101
                                        #   in Loop: Header=BB2_185 Depth=1
	movl	$0, -8(%rbp)
.LBB2_187:                              # %for.cond1102
                                        #   Parent Loop BB2_185 Depth=1
                                        # =>  This Inner Loop Header: Depth=2
	cmpl	$16, -8(%rbp)
	jge	.LBB2_193
# %bb.188:                              # %for.body1105
                                        #   in Loop: Header=BB2_187 Depth=2
	cmpl	$0, -56(%rbp)
	je	.LBB2_190
# %bb.189:                              # %if.then1107
                                        #   in Loop: Header=BB2_187 Depth=2
	movl	-8(%rbp), %eax
	cltd
	movl	$4, %ecx
	idivl	%ecx
	movslq	%edx, %rax
	shlq	$8, %rax
	leaq	-1232(%rbp), %rsi
	addq	%rax, %rsi
	movl	-8(%rbp), %eax
	cltd
	idivl	%ecx
	cltq
	shlq	$6, %rax
	addq	%rax, %rsi
	movl	-4(%rbp), %eax
	cltd
	idivl	%ecx
	movslq	%edx, %rax
	shlq	$4, %rax
	addq	%rax, %rsi
	movl	-4(%rbp), %eax
	cltd
	idivl	%ecx
	cltq
	movl	(%rsi,%rax,4), %eax
	movq	img, %rcx
	addq	$13112, %rcx            # imm = 0x3338
	movslq	-8(%rbp), %rdx
	shlq	$6, %rdx
	addq	%rdx, %rcx
	movslq	-4(%rbp), %rdx
	movl	%eax, (%rcx,%rdx,4)
	jmp	.LBB2_191
.LBB2_190:                              # %if.else1125
                                        #   in Loop: Header=BB2_187 Depth=2
	movl	-8(%rbp), %eax
	cltd
	movl	$4, %ecx
	idivl	%ecx
	movslq	%edx, %rax
	shlq	$8, %rax
	leaq	-1232(%rbp), %rsi
	addq	%rax, %rsi
	movl	-8(%rbp), %eax
	cltd
	idivl	%ecx
	cltq
	shlq	$6, %rax
	addq	%rax, %rsi
	movl	-4(%rbp), %eax
	cltd
	idivl	%ecx
	movslq	%edx, %rax
	shlq	$4, %rax
	addq	%rax, %rsi
	movl	-4(%rbp), %eax
	cltd
	idivl	%ecx
	cltq
	movl	(%rsi,%rax,4), %eax
	addl	$32, %eax
	sarl	$6, %eax
	movq	img, %rcx
	addq	$13112, %rcx            # imm = 0x3338
	movslq	-8(%rbp), %rdx
	shlq	$6, %rdx
	addq	%rdx, %rcx
	movslq	-4(%rbp), %rdx
	movl	%eax, (%rcx,%rdx,4)
.LBB2_191:                              # %if.end1145
                                        #   in Loop: Header=BB2_187 Depth=2
	jmp	.LBB2_192
.LBB2_192:                              # %for.inc1146
                                        #   in Loop: Header=BB2_187 Depth=2
	movl	-8(%rbp), %eax
	addl	$1, %eax
	movl	%eax, -8(%rbp)
	jmp	.LBB2_187
.LBB2_193:                              # %for.end1148
                                        #   in Loop: Header=BB2_185 Depth=1
	jmp	.LBB2_194
.LBB2_194:                              # %for.inc1149
                                        #   in Loop: Header=BB2_185 Depth=1
	movl	-4(%rbp), %eax
	addl	$1, %eax
	movl	%eax, -4(%rbp)
	jmp	.LBB2_185
.LBB2_195:                              # %for.end1151
	jmp	.LBB2_196
.LBB2_196:                              # %if.end1152
	movq	img, %rax
	cmpl	$0, 72724(%rax)
	jne	.LBB2_218
# %bb.197:                              # %if.then1155
	movl	$0, -4(%rbp)
.LBB2_198:                              # %for.cond1156
                                        # =>This Loop Header: Depth=1
                                        #     Child Loop BB2_200 Depth 2
	cmpl	$16, -4(%rbp)
	jge	.LBB2_217
# %bb.199:                              # %for.body1159
                                        #   in Loop: Header=BB2_198 Depth=1
	movl	$0, -8(%rbp)
.LBB2_200:                              # %for.cond1160
                                        #   Parent Loop BB2_198 Depth=1
                                        # =>  This Inner Loop Header: Depth=2
	cmpl	$16, -8(%rbp)
	jge	.LBB2_215
# %bb.201:                              # %for.body1163
                                        #   in Loop: Header=BB2_200 Depth=2
	cmpl	$0, -56(%rbp)
	je	.LBB2_203
# %bb.202:                              # %if.then1165
                                        #   in Loop: Header=BB2_200 Depth=2
	movslq	-8(%rbp), %rax
	shlq	$6, %rax
	leaq	-2256(%rbp), %rcx
	addq	%rax, %rcx
	movslq	-4(%rbp), %rax
	movl	(%rcx,%rax,4), %eax
	movq	img, %rcx
	addq	$4792, %rcx             # imm = 0x12B8
	movslq	-88(%rbp), %rdx
	shlq	$9, %rdx
	addq	%rdx, %rcx
	movslq	-4(%rbp), %rdx
	shlq	$5, %rdx
	addq	%rdx, %rcx
	movslq	-8(%rbp), %rdx
	movzwl	(%rcx,%rdx,2), %ecx
	addl	%ecx, %eax
	movq	enc_picture, %rcx
	movq	6424(%rcx), %rcx
	movq	img, %rdx
	movl	156(%rdx), %edx
	addl	-4(%rbp), %edx
	movslq	%edx, %rdx
	movq	(%rcx,%rdx,8), %rcx
	movq	img, %rdx
	movl	152(%rdx), %edx
	addl	-8(%rbp), %edx
	movslq	%edx, %rdx
	movw	%ax, (%rcx,%rdx,2)
	jmp	.LBB2_213
.LBB2_203:                              # %if.else1186
                                        #   in Loop: Header=BB2_200 Depth=2
	xorl	%ecx, %ecx
	movq	img, %rax
	movslq	72684(%rax), %rax
	movslq	-8(%rbp), %rdx
	shlq	$6, %rdx
	leaq	-2256(%rbp), %rsi
	addq	%rdx, %rsi
	movslq	-4(%rbp), %rdx
	movslq	(%rsi,%rdx,4), %rdx
	movq	img, %rsi
	addq	$4792, %rsi             # imm = 0x12B8
	movslq	-88(%rbp), %rdi
	shlq	$9, %rdi
	addq	%rdi, %rsi
	movslq	-4(%rbp), %rdi
	shlq	$5, %rdi
	addq	%rdi, %rsi
	movslq	-8(%rbp), %rdi
	movzwl	(%rsi,%rdi,2), %esi
	shlq	$6, %rsi
	addq	%rsi, %rdx
	addq	$32, %rdx
	sarq	$6, %rdx
	cmpq	%rdx, %rcx
	jle	.LBB2_205
# %bb.204:                              # %cond.true
                                        #   in Loop: Header=BB2_200 Depth=2
	xorl	%ecx, %ecx
	jmp	.LBB2_206
.LBB2_205:                              # %cond.false
                                        #   in Loop: Header=BB2_200 Depth=2
	movslq	-8(%rbp), %rcx
	shlq	$6, %rcx
	leaq	-2256(%rbp), %rdx
	addq	%rcx, %rdx
	movslq	-4(%rbp), %rcx
	movslq	(%rdx,%rcx,4), %rcx
	movq	img, %rdx
	addq	$4792, %rdx             # imm = 0x12B8
	movslq	-88(%rbp), %rsi
	shlq	$9, %rsi
	addq	%rsi, %rdx
	movslq	-4(%rbp), %rsi
	shlq	$5, %rsi
	addq	%rsi, %rdx
	movslq	-8(%rbp), %rsi
	movzwl	(%rdx,%rsi,2), %edx
	shlq	$6, %rdx
	addq	%rdx, %rcx
	addq	$32, %rcx
	sarq	$6, %rcx
.LBB2_206:                              # %cond.end
                                        #   in Loop: Header=BB2_200 Depth=2
	cmpq	%rcx, %rax
	jge	.LBB2_208
# %bb.207:                              # %cond.true1226
                                        #   in Loop: Header=BB2_200 Depth=2
	movq	img, %rax
	movslq	72684(%rax), %rax
	jmp	.LBB2_212
.LBB2_208:                              # %cond.false1229
                                        #   in Loop: Header=BB2_200 Depth=2
	xorl	%eax, %eax
	movslq	-8(%rbp), %rcx
	shlq	$6, %rcx
	leaq	-2256(%rbp), %rdx
	addq	%rcx, %rdx
	movslq	-4(%rbp), %rcx
	movslq	(%rdx,%rcx,4), %rcx
	movq	img, %rdx
	addq	$4792, %rdx             # imm = 0x12B8
	movslq	-88(%rbp), %rsi
	shlq	$9, %rsi
	addq	%rsi, %rdx
	movslq	-4(%rbp), %rsi
	shlq	$5, %rsi
	addq	%rsi, %rdx
	movslq	-8(%rbp), %rsi
	movzwl	(%rdx,%rsi,2), %edx
	shlq	$6, %rdx
	addq	%rdx, %rcx
	addq	$32, %rcx
	sarq	$6, %rcx
	cmpq	%rcx, %rax
	jle	.LBB2_210
# %bb.209:                              # %cond.true1249
                                        #   in Loop: Header=BB2_200 Depth=2
	xorl	%eax, %eax
	jmp	.LBB2_211
.LBB2_210:                              # %cond.false1250
                                        #   in Loop: Header=BB2_200 Depth=2
	movslq	-8(%rbp), %rax
	shlq	$6, %rax
	leaq	-2256(%rbp), %rcx
	addq	%rax, %rcx
	movslq	-4(%rbp), %rax
	movslq	(%rcx,%rax,4), %rax
	movq	img, %rcx
	addq	$4792, %rcx             # imm = 0x12B8
	movslq	-88(%rbp), %rdx
	shlq	$9, %rdx
	addq	%rdx, %rcx
	movslq	-4(%rbp), %rdx
	shlq	$5, %rdx
	addq	%rdx, %rcx
	movslq	-8(%rbp), %rdx
	movzwl	(%rcx,%rdx,2), %ecx
	shlq	$6, %rcx
	addq	%rcx, %rax
	addq	$32, %rax
	sarq	$6, %rax
.LBB2_211:                              # %cond.end1268
                                        #   in Loop: Header=BB2_200 Depth=2
.LBB2_212:                              # %cond.end1270
                                        #   in Loop: Header=BB2_200 Depth=2
	movq	enc_picture, %rcx
	movq	6424(%rcx), %rcx
	movq	img, %rdx
	movl	156(%rdx), %edx
	addl	-4(%rbp), %edx
	movslq	%edx, %rdx
	movq	(%rcx,%rdx,8), %rcx
	movq	img, %rdx
	movl	152(%rdx), %edx
	addl	-8(%rbp), %edx
	movslq	%edx, %rdx
	movw	%ax, (%rcx,%rdx,2)
.LBB2_213:                              # %if.end1282
                                        #   in Loop: Header=BB2_200 Depth=2
	jmp	.LBB2_214
.LBB2_214:                              # %for.inc1283
                                        #   in Loop: Header=BB2_200 Depth=2
	movl	-8(%rbp), %eax
	addl	$1, %eax
	movl	%eax, -8(%rbp)
	jmp	.LBB2_200
.LBB2_215:                              # %for.end1285
                                        #   in Loop: Header=BB2_198 Depth=1
	jmp	.LBB2_216
.LBB2_216:                              # %for.inc1286
                                        #   in Loop: Header=BB2_198 Depth=1
	movl	-4(%rbp), %eax
	addl	$1, %eax
	movl	%eax, -4(%rbp)
	jmp	.LBB2_198
.LBB2_217:                              # %for.end1288
	jmp	.LBB2_218
.LBB2_218:                              # %if.end1289
	movl	-100(%rbp), %eax
	addq	$2256, %rsp             # imm = 0x8D0
	popq	%rbp
	.cfi_def_cfa %rsp, 8
	retq
.Lfunc_end2:
	.size	dct_luma_16x16, .Lfunc_end2-dct_luma_16x16
	.cfi_endproc
                                        # -- End function
	.globl	dct_luma                # -- Begin function dct_luma
	.p2align	4, 0x90
	.type	dct_luma,@function
dct_luma:                               # @dct_luma
	.cfi_startproc
# %bb.0:                                # %entry
	pushq	%rbp
	.cfi_def_cfa_offset 16
	.cfi_offset %rbp, -16
	movq	%rsp, %rbp
	.cfi_def_cfa_register %rbp
	subq	$160, %rsp
	xorl	%r8d, %r8d
	movl	%edi, -24(%rbp)
	movl	%esi, -20(%rbp)
	movq	%rdx, -144(%rbp)
	movl	%ecx, -92(%rbp)
	movl	-24(%rbp), %eax
	cltd
	movl	$4, %ecx
	idivl	%ecx
	movl	%eax, -108(%rbp)
	movl	-20(%rbp), %eax
	cltd
	idivl	%ecx
	movl	%eax, -104(%rbp)
	movl	-104(%rbp), %eax
	cltd
	movl	$2, %esi
	idivl	%esi
	movl	%eax, %ecx
	shll	$1, %ecx
	movl	-108(%rbp), %eax
	cltd
	idivl	%esi
	addl	%eax, %ecx
	movl	%ecx, -100(%rbp)
	movl	-104(%rbp), %eax
	cltd
	idivl	%esi
	movl	%edx, %ecx
	shll	$1, %ecx
	movl	-108(%rbp), %eax
	cltd
	idivl	%esi
	addl	%edx, %ecx
	movl	%ecx, -96(%rbp)
	movq	img, %rax
	movq	14136(%rax), %rax
	movslq	-100(%rbp), %rcx
	movq	(%rax,%rcx,8), %rax
	movslq	-96(%rbp), %rcx
	movq	(%rax,%rcx,8), %rax
	movq	(%rax), %rax
	movq	%rax, -136(%rbp)
	movq	img, %rax
	movq	14136(%rax), %rax
	movslq	-100(%rbp), %rcx
	movq	(%rax,%rcx,8), %rax
	movslq	-96(%rbp), %rcx
	movq	(%rax,%rcx,8), %rax
	movq	8(%rax), %rax
	movq	%rax, -152(%rbp)
	movq	img, %rax
	movq	14168(%rax), %rax
	movq	img, %rcx
	movslq	12(%rcx), %rcx
	imulq	$632, %rcx, %rcx        # imm = 0x278
	addq	%rcx, %rax
	movq	%rax, -128(%rbp)
	movq	-128(%rbp), %rax
	movl	12(%rax), %eax
	movq	img, %rcx
	addl	72668(%rcx), %eax
	cmpl	$0, %eax
	jne	.LBB3_2
# %bb.1:                                # %land.rhs
	movq	img, %rax
	cmpl	$1, 72704(%rax)
	sete	%r8b
.LBB3_2:                                # %land.end
	andb	$1, %r8b
	movzbl	%r8b, %eax
	movl	%eax, -28(%rbp)
	movq	-128(%rbp), %rax
	movl	12(%rax), %eax
	movq	img, %rcx
	addl	72668(%rcx), %eax
	subl	$0, %eax
	cltd
	movl	$6, %ecx
	idivl	%ecx
	movl	%eax, -32(%rbp)
	movq	-128(%rbp), %rax
	movl	12(%rax), %eax
	movq	img, %rdx
	addl	72668(%rdx), %eax
	subl	$0, %eax
	cltd
	idivl	%ecx
	movl	%edx, -76(%rbp)
	movl	-32(%rbp), %eax
	addl	$15, %eax
	movl	%eax, -112(%rbp)
	movl	$0, -4(%rbp)
.LBB3_3:                                # %for.cond
                                        # =>This Loop Header: Depth=1
                                        #     Child Loop BB3_7 Depth 2
	xorl	%eax, %eax
	cmpl	$4, -4(%rbp)
	jge	.LBB3_5
# %bb.4:                                # %land.rhs31
                                        #   in Loop: Header=BB3_3 Depth=1
	cmpl	$0, -28(%rbp)
	setne	%al
	xorb	$-1, %al
.LBB3_5:                                # %land.end32
                                        #   in Loop: Header=BB3_3 Depth=1
	testb	$1, %al
	jne	.LBB3_6
	jmp	.LBB3_12
.LBB3_6:                                # %for.body
                                        #   in Loop: Header=BB3_3 Depth=1
	movl	$0, -8(%rbp)
.LBB3_7:                                # %for.cond34
                                        #   Parent Loop BB3_3 Depth=1
                                        # =>  This Inner Loop Header: Depth=2
	cmpl	$2, -8(%rbp)
	jge	.LBB3_10
# %bb.8:                                # %for.body36
                                        #   in Loop: Header=BB3_7 Depth=2
	movl	$3, %eax
	subl	-8(%rbp), %eax
	movl	%eax, -72(%rbp)
	movq	img, %rax
	addq	$13112, %rax            # imm = 0x3338
	movslq	-8(%rbp), %rcx
	shlq	$6, %rcx
	addq	%rcx, %rax
	movslq	-4(%rbp), %rcx
	movl	(%rax,%rcx,4), %eax
	movq	img, %rcx
	addq	$13112, %rcx            # imm = 0x3338
	movslq	-72(%rbp), %rdx
	shlq	$6, %rdx
	addq	%rdx, %rcx
	movslq	-4(%rbp), %rdx
	addl	(%rcx,%rdx,4), %eax
	movslq	-8(%rbp), %rcx
	movl	%eax, -48(%rbp,%rcx,4)
	movq	img, %rax
	addq	$13112, %rax            # imm = 0x3338
	movslq	-8(%rbp), %rcx
	shlq	$6, %rcx
	addq	%rcx, %rax
	movslq	-4(%rbp), %rcx
	movl	(%rax,%rcx,4), %eax
	movq	img, %rcx
	addq	$13112, %rcx            # imm = 0x3338
	movslq	-72(%rbp), %rdx
	shlq	$6, %rdx
	addq	%rdx, %rcx
	movslq	-4(%rbp), %rdx
	subl	(%rcx,%rdx,4), %eax
	movslq	-72(%rbp), %rcx
	movl	%eax, -48(%rbp,%rcx,4)
# %bb.9:                                # %for.inc
                                        #   in Loop: Header=BB3_7 Depth=2
	movl	-8(%rbp), %eax
	addl	$1, %eax
	movl	%eax, -8(%rbp)
	jmp	.LBB3_7
.LBB3_10:                               # %for.end
                                        #   in Loop: Header=BB3_3 Depth=1
	movl	-48(%rbp), %eax
	addl	-44(%rbp), %eax
	movq	img, %rcx
	movslq	-4(%rbp), %rdx
	movl	%eax, 13112(%rcx,%rdx,4)
	movl	-48(%rbp), %eax
	subl	-44(%rbp), %eax
	movq	img, %rcx
	movslq	-4(%rbp), %rdx
	movl	%eax, 13240(%rcx,%rdx,4)
	movl	-36(%rbp), %eax
	shll	$1, %eax
	addl	-40(%rbp), %eax
	movq	img, %rcx
	movslq	-4(%rbp), %rdx
	movl	%eax, 13176(%rcx,%rdx,4)
	movl	-36(%rbp), %eax
	movl	-40(%rbp), %ecx
	shll	$1, %ecx
	subl	%ecx, %eax
	movq	img, %rcx
	movslq	-4(%rbp), %rdx
	movl	%eax, 13304(%rcx,%rdx,4)
# %bb.11:                               # %for.inc93
                                        #   in Loop: Header=BB3_3 Depth=1
	movl	-4(%rbp), %eax
	addl	$1, %eax
	movl	%eax, -4(%rbp)
	jmp	.LBB3_3
.LBB3_12:                               # %for.end95
	movl	$0, -8(%rbp)
.LBB3_13:                               # %for.cond96
                                        # =>This Loop Header: Depth=1
                                        #     Child Loop BB3_17 Depth 2
	xorl	%eax, %eax
	cmpl	$4, -8(%rbp)
	jge	.LBB3_15
# %bb.14:                               # %land.rhs98
                                        #   in Loop: Header=BB3_13 Depth=1
	cmpl	$0, -28(%rbp)
	setne	%al
	xorb	$-1, %al
.LBB3_15:                               # %land.end101
                                        #   in Loop: Header=BB3_13 Depth=1
	testb	$1, %al
	jne	.LBB3_16
	jmp	.LBB3_22
.LBB3_16:                               # %for.body103
                                        #   in Loop: Header=BB3_13 Depth=1
	movl	$0, -4(%rbp)
.LBB3_17:                               # %for.cond104
                                        #   Parent Loop BB3_13 Depth=1
                                        # =>  This Inner Loop Header: Depth=2
	cmpl	$2, -4(%rbp)
	jge	.LBB3_20
# %bb.18:                               # %for.body106
                                        #   in Loop: Header=BB3_17 Depth=2
	movl	$3, %eax
	subl	-4(%rbp), %eax
	movl	%eax, -12(%rbp)
	movq	img, %rax
	addq	$13112, %rax            # imm = 0x3338
	movslq	-8(%rbp), %rcx
	shlq	$6, %rcx
	addq	%rcx, %rax
	movslq	-4(%rbp), %rcx
	movl	(%rax,%rcx,4), %eax
	movq	img, %rcx
	addq	$13112, %rcx            # imm = 0x3338
	movslq	-8(%rbp), %rdx
	shlq	$6, %rdx
	addq	%rdx, %rcx
	movslq	-12(%rbp), %rdx
	addl	(%rcx,%rdx,4), %eax
	movslq	-4(%rbp), %rcx
	movl	%eax, -48(%rbp,%rcx,4)
	movq	img, %rax
	addq	$13112, %rax            # imm = 0x3338
	movslq	-8(%rbp), %rcx
	shlq	$6, %rcx
	addq	%rcx, %rax
	movslq	-4(%rbp), %rcx
	movl	(%rax,%rcx,4), %eax
	movq	img, %rcx
	addq	$13112, %rcx            # imm = 0x3338
	movslq	-8(%rbp), %rdx
	shlq	$6, %rdx
	addq	%rdx, %rcx
	movslq	-12(%rbp), %rdx
	subl	(%rcx,%rdx,4), %eax
	movslq	-12(%rbp), %rcx
	movl	%eax, -48(%rbp,%rcx,4)
# %bb.19:                               # %for.inc134
                                        #   in Loop: Header=BB3_17 Depth=2
	movl	-4(%rbp), %eax
	addl	$1, %eax
	movl	%eax, -4(%rbp)
	jmp	.LBB3_17
.LBB3_20:                               # %for.end136
                                        #   in Loop: Header=BB3_13 Depth=1
	movl	-48(%rbp), %eax
	addl	-44(%rbp), %eax
	movq	img, %rcx
	addq	$13112, %rcx            # imm = 0x3338
	movslq	-8(%rbp), %rdx
	shlq	$6, %rdx
	addq	%rdx, %rcx
	movl	%eax, (%rcx)
	movl	-48(%rbp), %eax
	subl	-44(%rbp), %eax
	movq	img, %rcx
	addq	$13112, %rcx            # imm = 0x3338
	movslq	-8(%rbp), %rdx
	shlq	$6, %rdx
	addq	%rdx, %rcx
	movl	%eax, 8(%rcx)
	movl	-36(%rbp), %eax
	shll	$1, %eax
	addl	-40(%rbp), %eax
	movq	img, %rcx
	addq	$13112, %rcx            # imm = 0x3338
	movslq	-8(%rbp), %rdx
	shlq	$6, %rdx
	addq	%rdx, %rcx
	movl	%eax, 4(%rcx)
	movl	-36(%rbp), %eax
	movl	-40(%rbp), %ecx
	shll	$1, %ecx
	subl	%ecx, %eax
	movq	img, %rcx
	addq	$13112, %rcx            # imm = 0x3338
	movslq	-8(%rbp), %rdx
	shlq	$6, %rdx
	addq	%rdx, %rcx
	movl	%eax, 12(%rcx)
# %bb.21:                               # %for.inc167
                                        #   in Loop: Header=BB3_13 Depth=1
	movl	-8(%rbp), %eax
	addl	$1, %eax
	movl	%eax, -8(%rbp)
	jmp	.LBB3_13
.LBB3_22:                               # %for.end169
	movl	$0, -116(%rbp)
	movl	$-1, -84(%rbp)
	movl	$0, -88(%rbp)
	movl	$0, -68(%rbp)
.LBB3_23:                               # %for.cond170
                                        # =>This Inner Loop Header: Depth=1
	cmpl	$16, -68(%rbp)
	jge	.LBB3_57
# %bb.24:                               # %for.body172
                                        #   in Loop: Header=BB3_23 Depth=1
	movq	img, %rax
	cmpl	$0, 72444(%rax)
	jne	.LBB3_27
# %bb.25:                               # %lor.lhs.false
                                        #   in Loop: Header=BB3_23 Depth=1
	movq	img, %rax
	cmpl	$0, 72400(%rax)
	je	.LBB3_28
# %bb.26:                               # %land.lhs.true
                                        #   in Loop: Header=BB3_23 Depth=1
	movq	-128(%rbp), %rax
	cmpl	$0, 532(%rax)
	je	.LBB3_28
.LBB3_27:                               # %if.then
                                        #   in Loop: Header=BB3_23 Depth=1
	movslq	-68(%rbp), %rax
	movzbl	FIELD_SCAN(,%rax,2), %eax
	movl	%eax, -8(%rbp)
	movslq	-68(%rbp), %rax
	movzbl	FIELD_SCAN+1(,%rax,2), %eax
	movl	%eax, -4(%rbp)
	jmp	.LBB3_29
.LBB3_28:                               # %if.else
                                        #   in Loop: Header=BB3_23 Depth=1
	movslq	-68(%rbp), %rax
	movzbl	SNGL_SCAN(,%rax,2), %eax
	movl	%eax, -8(%rbp)
	movslq	-68(%rbp), %rax
	movzbl	SNGL_SCAN+1(,%rax,2), %eax
	movl	%eax, -4(%rbp)
.LBB3_29:                               # %if.end
                                        #   in Loop: Header=BB3_23 Depth=1
	movl	-84(%rbp), %eax
	addl	$1, %eax
	movl	%eax, -84(%rbp)
	movl	$0, -80(%rbp)
	cmpl	$0, -28(%rbp)
	je	.LBB3_31
# %bb.30:                               # %if.then193
                                        #   in Loop: Header=BB3_23 Depth=1
	movq	img, %rax
	addq	$13112, %rax            # imm = 0x3338
	movslq	-8(%rbp), %rcx
	shlq	$6, %rcx
	addq	%rcx, %rax
	movslq	-4(%rbp), %rcx
	movl	(%rax,%rcx,4), %edi
	callq	abs
	movl	%eax, -16(%rbp)
	jmp	.LBB3_35
.LBB3_31:                               # %if.else199
                                        #   in Loop: Header=BB3_23 Depth=1
	cmpl	$1, -92(%rbp)
	jne	.LBB3_33
# %bb.32:                               # %if.then202
                                        #   in Loop: Header=BB3_23 Depth=1
	movq	img, %rax
	addq	$13112, %rax            # imm = 0x3338
	movslq	-8(%rbp), %rcx
	shlq	$6, %rcx
	addq	%rcx, %rax
	movslq	-4(%rbp), %rcx
	movl	(%rax,%rcx,4), %edi
	callq	abs
	movslq	-76(%rbp), %rcx
	shlq	$6, %rcx
	movabsq	$LevelScale4x4Luma_Intra, %rdx
	addq	%rcx, %rdx
	movslq	-8(%rbp), %rcx
	shlq	$4, %rcx
	addq	%rcx, %rdx
	movslq	-4(%rbp), %rcx
	imull	(%rdx,%rcx,4), %eax
	movslq	-32(%rbp), %rcx
	shlq	$6, %rcx
	movabsq	$LevelOffset4x4Luma_Intra, %rdx
	addq	%rcx, %rdx
	movslq	-8(%rbp), %rcx
	shlq	$4, %rcx
	addq	%rcx, %rdx
	movslq	-4(%rbp), %rcx
	addl	(%rdx,%rcx,4), %eax
	movl	-112(%rbp), %ecx
                                        # kill: def $cl killed $ecx
	sarl	%cl, %eax
	movl	%eax, -16(%rbp)
	jmp	.LBB3_34
.LBB3_33:                               # %if.else223
                                        #   in Loop: Header=BB3_23 Depth=1
	movq	img, %rax
	addq	$13112, %rax            # imm = 0x3338
	movslq	-8(%rbp), %rcx
	shlq	$6, %rcx
	addq	%rcx, %rax
	movslq	-4(%rbp), %rcx
	movl	(%rax,%rcx,4), %edi
	callq	abs
	movslq	-76(%rbp), %rcx
	shlq	$6, %rcx
	movabsq	$LevelScale4x4Luma_Inter, %rdx
	addq	%rcx, %rdx
	movslq	-8(%rbp), %rcx
	shlq	$4, %rcx
	addq	%rcx, %rdx
	movslq	-4(%rbp), %rcx
	imull	(%rdx,%rcx,4), %eax
	movslq	-32(%rbp), %rcx
	shlq	$6, %rcx
	movabsq	$LevelOffset4x4Luma_Inter, %rdx
	addq	%rcx, %rdx
	movslq	-8(%rbp), %rcx
	shlq	$4, %rcx
	addq	%rcx, %rdx
	movslq	-4(%rbp), %rcx
	addl	(%rdx,%rcx,4), %eax
	movl	-112(%rbp), %ecx
                                        # kill: def $cl killed $ecx
	sarl	%cl, %eax
	movl	%eax, -16(%rbp)
.LBB3_34:                               # %if.end245
                                        #   in Loop: Header=BB3_23 Depth=1
	jmp	.LBB3_35
.LBB3_35:                               # %if.end246
                                        #   in Loop: Header=BB3_23 Depth=1
	cmpl	$0, -16(%rbp)
	je	.LBB3_53
# %bb.36:                               # %if.then249
                                        #   in Loop: Header=BB3_23 Depth=1
	movl	$1, -116(%rbp)
	cmpl	$1, -16(%rbp)
	jg	.LBB3_38
# %bb.37:                               # %lor.lhs.false252
                                        #   in Loop: Header=BB3_23 Depth=1
	cmpl	$0, -28(%rbp)
	je	.LBB3_39
.LBB3_38:                               # %if.then254
                                        #   in Loop: Header=BB3_23 Depth=1
	movq	-144(%rbp), %rax
	movl	(%rax), %ecx
	addl	$999999, %ecx           # imm = 0xF423F
	movl	%ecx, (%rax)
	jmp	.LBB3_40
.LBB3_39:                               # %if.else256
                                        #   in Loop: Header=BB3_23 Depth=1
	movabsq	$COEFF_COST, %rax
	movq	input, %rcx
	movslq	2468(%rcx), %rcx
	shlq	$4, %rcx
	addq	%rcx, %rax
	movslq	-84(%rbp), %rcx
	movzbl	(%rax,%rcx), %eax
	movq	-144(%rbp), %rcx
	addl	(%rcx), %eax
	movl	%eax, (%rcx)
.LBB3_40:                               # %if.end263
                                        #   in Loop: Header=BB3_23 Depth=1
	movl	-16(%rbp), %edi
	movq	img, %rax
	addq	$13112, %rax            # imm = 0x3338
	movslq	-8(%rbp), %rcx
	shlq	$6, %rcx
	addq	%rcx, %rax
	movslq	-4(%rbp), %rcx
	movl	(%rax,%rcx,4), %esi
	callq	sign
	movq	-136(%rbp), %rcx
	movslq	-88(%rbp), %rdx
	movl	%eax, (%rcx,%rdx,4)
	movl	-84(%rbp), %eax
	movq	-152(%rbp), %rcx
	movslq	-88(%rbp), %rdx
	movl	%eax, (%rcx,%rdx,4)
	movl	-88(%rbp), %eax
	addl	$1, %eax
	movl	%eax, -88(%rbp)
	movl	$-1, -84(%rbp)
	movl	-16(%rbp), %edi
	movq	img, %rax
	addq	$13112, %rax            # imm = 0x3338
	movslq	-8(%rbp), %rcx
	shlq	$6, %rcx
	addq	%rcx, %rax
	movslq	-4(%rbp), %rcx
	movl	(%rax,%rcx,4), %esi
	callq	sign
	movl	%eax, -16(%rbp)
	cmpl	$0, -28(%rbp)
	je	.LBB3_42
# %bb.41:                               # %if.then282
                                        #   in Loop: Header=BB3_23 Depth=1
	movl	-16(%rbp), %eax
	movl	%eax, -80(%rbp)
	jmp	.LBB3_52
.LBB3_42:                               # %if.else283
                                        #   in Loop: Header=BB3_23 Depth=1
	cmpl	$4, -32(%rbp)
	jge	.LBB3_47
# %bb.43:                               # %if.then286
                                        #   in Loop: Header=BB3_23 Depth=1
	cmpl	$1, -92(%rbp)
	jne	.LBB3_45
# %bb.44:                               # %if.then289
                                        #   in Loop: Header=BB3_23 Depth=1
	movl	-16(%rbp), %eax
	movslq	-76(%rbp), %rcx
	shlq	$6, %rcx
	movabsq	$InvLevelScale4x4Luma_Intra, %rdx
	addq	%rcx, %rdx
	movslq	-8(%rbp), %rcx
	shlq	$4, %rcx
	addq	%rcx, %rdx
	movslq	-4(%rbp), %rcx
	imull	(%rdx,%rcx,4), %eax
	movl	$3, %ecx
	subl	-32(%rbp), %ecx
                                        # kill: def $cl killed $ecx
	movl	$1, %edx
	shll	%cl, %edx
	addl	%edx, %eax
	movl	$4, %ecx
	subl	-32(%rbp), %ecx
                                        # kill: def $cl killed $ecx
	sarl	%cl, %eax
	movl	%eax, -80(%rbp)
	jmp	.LBB3_46
.LBB3_45:                               # %if.else301
                                        #   in Loop: Header=BB3_23 Depth=1
	movl	-16(%rbp), %eax
	movslq	-76(%rbp), %rcx
	shlq	$6, %rcx
	movabsq	$InvLevelScale4x4Luma_Inter, %rdx
	addq	%rcx, %rdx
	movslq	-8(%rbp), %rcx
	shlq	$4, %rcx
	addq	%rcx, %rdx
	movslq	-4(%rbp), %rcx
	imull	(%rdx,%rcx,4), %eax
	movl	$3, %ecx
	subl	-32(%rbp), %ecx
                                        # kill: def $cl killed $ecx
	movl	$1, %edx
	shll	%cl, %edx
	addl	%edx, %eax
	movl	$4, %ecx
	subl	-32(%rbp), %ecx
                                        # kill: def $cl killed $ecx
	sarl	%cl, %eax
	movl	%eax, -80(%rbp)
.LBB3_46:                               # %if.end314
                                        #   in Loop: Header=BB3_23 Depth=1
	jmp	.LBB3_51
.LBB3_47:                               # %if.else315
                                        #   in Loop: Header=BB3_23 Depth=1
	cmpl	$1, -92(%rbp)
	jne	.LBB3_49
# %bb.48:                               # %if.then318
                                        #   in Loop: Header=BB3_23 Depth=1
	movl	-16(%rbp), %eax
	movslq	-76(%rbp), %rcx
	shlq	$6, %rcx
	movabsq	$InvLevelScale4x4Luma_Intra, %rdx
	addq	%rcx, %rdx
	movslq	-8(%rbp), %rcx
	shlq	$4, %rcx
	addq	%rcx, %rdx
	movslq	-4(%rbp), %rcx
	imull	(%rdx,%rcx,4), %eax
	movl	-32(%rbp), %ecx
	subl	$4, %ecx
                                        # kill: def $cl killed $ecx
	shll	%cl, %eax
	movl	%eax, -80(%rbp)
	jmp	.LBB3_50
.LBB3_49:                               # %if.else328
                                        #   in Loop: Header=BB3_23 Depth=1
	movl	-16(%rbp), %eax
	movslq	-76(%rbp), %rcx
	shlq	$6, %rcx
	movabsq	$InvLevelScale4x4Luma_Inter, %rdx
	addq	%rcx, %rdx
	movslq	-8(%rbp), %rcx
	shlq	$4, %rcx
	addq	%rcx, %rdx
	movslq	-4(%rbp), %rcx
	imull	(%rdx,%rcx,4), %eax
	movl	-32(%rbp), %ecx
	subl	$4, %ecx
                                        # kill: def $cl killed $ecx
	shll	%cl, %eax
	movl	%eax, -80(%rbp)
.LBB3_50:                               # %if.end338
                                        #   in Loop: Header=BB3_23 Depth=1
	jmp	.LBB3_51
.LBB3_51:                               # %if.end339
                                        #   in Loop: Header=BB3_23 Depth=1
	jmp	.LBB3_52
.LBB3_52:                               # %if.end340
                                        #   in Loop: Header=BB3_23 Depth=1
	jmp	.LBB3_53
.LBB3_53:                               # %if.end341
                                        #   in Loop: Header=BB3_23 Depth=1
	cmpl	$0, -28(%rbp)
	jne	.LBB3_55
# %bb.54:                               # %if.then343
                                        #   in Loop: Header=BB3_23 Depth=1
	movl	-80(%rbp), %eax
	movq	img, %rcx
	addq	$13112, %rcx            # imm = 0x3338
	movslq	-8(%rbp), %rdx
	shlq	$6, %rdx
	addq	%rdx, %rcx
	movslq	-4(%rbp), %rdx
	movl	%eax, (%rcx,%rdx,4)
.LBB3_55:                               # %if.end349
                                        #   in Loop: Header=BB3_23 Depth=1
	jmp	.LBB3_56
.LBB3_56:                               # %for.inc350
                                        #   in Loop: Header=BB3_23 Depth=1
	movl	-68(%rbp), %eax
	addl	$1, %eax
	movl	%eax, -68(%rbp)
	jmp	.LBB3_23
.LBB3_57:                               # %for.end352
	movq	-136(%rbp), %rax
	movslq	-88(%rbp), %rcx
	movl	$0, (%rax,%rcx,4)
	movl	$0, -4(%rbp)
.LBB3_58:                               # %for.cond355
                                        # =>This Loop Header: Depth=1
                                        #     Child Loop BB3_62 Depth 2
                                        #     Child Loop BB3_66 Depth 2
	xorl	%eax, %eax
	cmpl	$4, -4(%rbp)
	jge	.LBB3_60
# %bb.59:                               # %land.rhs358
                                        #   in Loop: Header=BB3_58 Depth=1
	cmpl	$0, -28(%rbp)
	setne	%al
	xorb	$-1, %al
.LBB3_60:                               # %land.end361
                                        #   in Loop: Header=BB3_58 Depth=1
	testb	$1, %al
	jne	.LBB3_61
	jmp	.LBB3_71
.LBB3_61:                               # %for.body363
                                        #   in Loop: Header=BB3_58 Depth=1
	movl	$0, -8(%rbp)
.LBB3_62:                               # %for.cond364
                                        #   Parent Loop BB3_58 Depth=1
                                        # =>  This Inner Loop Header: Depth=2
	cmpl	$4, -8(%rbp)
	jge	.LBB3_65
# %bb.63:                               # %for.body367
                                        #   in Loop: Header=BB3_62 Depth=2
	movq	img, %rax
	addq	$13112, %rax            # imm = 0x3338
	movslq	-8(%rbp), %rcx
	shlq	$6, %rcx
	addq	%rcx, %rax
	movslq	-4(%rbp), %rcx
	movl	(%rax,%rcx,4), %eax
	movslq	-8(%rbp), %rcx
	movl	%eax, -48(%rbp,%rcx,4)
# %bb.64:                               # %for.inc375
                                        #   in Loop: Header=BB3_62 Depth=2
	movl	-8(%rbp), %eax
	addl	$1, %eax
	movl	%eax, -8(%rbp)
	jmp	.LBB3_62
.LBB3_65:                               # %for.end377
                                        #   in Loop: Header=BB3_58 Depth=1
	movl	-48(%rbp), %eax
	addl	-40(%rbp), %eax
	movl	%eax, -64(%rbp)
	movl	-48(%rbp), %eax
	subl	-40(%rbp), %eax
	movl	%eax, -60(%rbp)
	movl	-44(%rbp), %eax
	sarl	$1, %eax
	subl	-36(%rbp), %eax
	movl	%eax, -56(%rbp)
	movl	-44(%rbp), %eax
	movl	-36(%rbp), %ecx
	sarl	$1, %ecx
	addl	%ecx, %eax
	movl	%eax, -52(%rbp)
	movl	$0, -8(%rbp)
.LBB3_66:                               # %for.cond396
                                        #   Parent Loop BB3_58 Depth=1
                                        # =>  This Inner Loop Header: Depth=2
	cmpl	$2, -8(%rbp)
	jge	.LBB3_69
# %bb.67:                               # %for.body399
                                        #   in Loop: Header=BB3_66 Depth=2
	movl	$3, %eax
	subl	-8(%rbp), %eax
	movl	%eax, -72(%rbp)
	movslq	-8(%rbp), %rax
	movl	-64(%rbp,%rax,4), %eax
	movslq	-72(%rbp), %rcx
	addl	-64(%rbp,%rcx,4), %eax
	movq	img, %rcx
	addq	$13112, %rcx            # imm = 0x3338
	movslq	-8(%rbp), %rdx
	shlq	$6, %rdx
	addq	%rdx, %rcx
	movslq	-4(%rbp), %rdx
	movl	%eax, (%rcx,%rdx,4)
	movslq	-8(%rbp), %rax
	movl	-64(%rbp,%rax,4), %eax
	movslq	-72(%rbp), %rcx
	subl	-64(%rbp,%rcx,4), %eax
	movq	img, %rcx
	addq	$13112, %rcx            # imm = 0x3338
	movslq	-72(%rbp), %rdx
	shlq	$6, %rdx
	addq	%rdx, %rcx
	movslq	-4(%rbp), %rdx
	movl	%eax, (%rcx,%rdx,4)
# %bb.68:                               # %for.inc421
                                        #   in Loop: Header=BB3_66 Depth=2
	movl	-8(%rbp), %eax
	addl	$1, %eax
	movl	%eax, -8(%rbp)
	jmp	.LBB3_66
.LBB3_69:                               # %for.end423
                                        #   in Loop: Header=BB3_58 Depth=1
	jmp	.LBB3_70
.LBB3_70:                               # %for.inc424
                                        #   in Loop: Header=BB3_58 Depth=1
	movl	-4(%rbp), %eax
	addl	$1, %eax
	movl	%eax, -4(%rbp)
	jmp	.LBB3_58
.LBB3_71:                               # %for.end426
	movl	$0, -8(%rbp)
.LBB3_72:                               # %for.cond427
                                        # =>This Loop Header: Depth=1
                                        #     Child Loop BB3_76 Depth 2
                                        #     Child Loop BB3_80 Depth 2
	xorl	%eax, %eax
	cmpl	$4, -8(%rbp)
	jge	.LBB3_74
# %bb.73:                               # %land.rhs430
                                        #   in Loop: Header=BB3_72 Depth=1
	cmpl	$0, -28(%rbp)
	setne	%al
	xorb	$-1, %al
.LBB3_74:                               # %land.end433
                                        #   in Loop: Header=BB3_72 Depth=1
	testb	$1, %al
	jne	.LBB3_75
	jmp	.LBB3_109
.LBB3_75:                               # %for.body435
                                        #   in Loop: Header=BB3_72 Depth=1
	movl	$0, -4(%rbp)
.LBB3_76:                               # %for.cond436
                                        #   Parent Loop BB3_72 Depth=1
                                        # =>  This Inner Loop Header: Depth=2
	cmpl	$4, -4(%rbp)
	jge	.LBB3_79
# %bb.77:                               # %for.body439
                                        #   in Loop: Header=BB3_76 Depth=2
	movq	img, %rax
	addq	$13112, %rax            # imm = 0x3338
	movslq	-8(%rbp), %rcx
	shlq	$6, %rcx
	addq	%rcx, %rax
	movslq	-4(%rbp), %rcx
	movl	(%rax,%rcx,4), %eax
	movslq	-4(%rbp), %rcx
	movl	%eax, -48(%rbp,%rcx,4)
# %bb.78:                               # %for.inc447
                                        #   in Loop: Header=BB3_76 Depth=2
	movl	-4(%rbp), %eax
	addl	$1, %eax
	movl	%eax, -4(%rbp)
	jmp	.LBB3_76
.LBB3_79:                               # %for.end449
                                        #   in Loop: Header=BB3_72 Depth=1
	movl	-48(%rbp), %eax
	addl	-40(%rbp), %eax
	movl	%eax, -64(%rbp)
	movl	-48(%rbp), %eax
	subl	-40(%rbp), %eax
	movl	%eax, -60(%rbp)
	movl	-44(%rbp), %eax
	sarl	$1, %eax
	subl	-36(%rbp), %eax
	movl	%eax, -56(%rbp)
	movl	-44(%rbp), %eax
	movl	-36(%rbp), %ecx
	sarl	$1, %ecx
	addl	%ecx, %eax
	movl	%eax, -52(%rbp)
	movl	$0, -4(%rbp)
.LBB3_80:                               # %for.cond468
                                        #   Parent Loop BB3_72 Depth=1
                                        # =>  This Inner Loop Header: Depth=2
	cmpl	$2, -4(%rbp)
	jge	.LBB3_107
# %bb.81:                               # %for.body471
                                        #   in Loop: Header=BB3_80 Depth=2
	movl	$3, %eax
	subl	-4(%rbp), %eax
	movl	%eax, -12(%rbp)
	movq	img, %rax
	cmpl	$0, 72724(%rax)
	jne	.LBB3_101
# %bb.82:                               # %if.then474
                                        #   in Loop: Header=BB3_80 Depth=2
	xorl	%ecx, %ecx
	movq	img, %rax
	movslq	72684(%rax), %rax
	movslq	-4(%rbp), %rdx
	movl	-64(%rbp,%rdx,4), %edx
	movslq	-12(%rbp), %rsi
	addl	-64(%rbp,%rsi,4), %edx
	movslq	%edx, %rdx
	movq	img, %rsi
	addq	$12600, %rsi            # imm = 0x3138
	movl	-8(%rbp), %edi
	addl	-24(%rbp), %edi
	movslq	%edi, %rdi
	shlq	$5, %rdi
	addq	%rdi, %rsi
	movl	-4(%rbp), %edi
	addl	-20(%rbp), %edi
	movslq	%edi, %rdi
	movzwl	(%rsi,%rdi,2), %esi
	shlq	$6, %rsi
	addq	%rsi, %rdx
	addq	$32, %rdx
	sarq	$6, %rdx
	cmpq	%rdx, %rcx
	jle	.LBB3_84
# %bb.83:                               # %cond.true
                                        #   in Loop: Header=BB3_80 Depth=2
	xorl	%ecx, %ecx
	jmp	.LBB3_85
.LBB3_84:                               # %cond.false
                                        #   in Loop: Header=BB3_80 Depth=2
	movslq	-4(%rbp), %rcx
	movl	-64(%rbp,%rcx,4), %ecx
	movslq	-12(%rbp), %rdx
	addl	-64(%rbp,%rdx,4), %ecx
	movslq	%ecx, %rcx
	movq	img, %rdx
	addq	$12600, %rdx            # imm = 0x3138
	movl	-8(%rbp), %esi
	addl	-24(%rbp), %esi
	movslq	%esi, %rsi
	shlq	$5, %rsi
	addq	%rsi, %rdx
	movl	-4(%rbp), %esi
	addl	-20(%rbp), %esi
	movslq	%esi, %rsi
	movzwl	(%rdx,%rsi,2), %edx
	shlq	$6, %rdx
	addq	%rdx, %rcx
	addq	$32, %rcx
	sarq	$6, %rcx
.LBB3_85:                               # %cond.end
                                        #   in Loop: Header=BB3_80 Depth=2
	cmpq	%rcx, %rax
	jge	.LBB3_87
# %bb.86:                               # %cond.true515
                                        #   in Loop: Header=BB3_80 Depth=2
	movq	img, %rax
	movslq	72684(%rax), %rax
	jmp	.LBB3_91
.LBB3_87:                               # %cond.false518
                                        #   in Loop: Header=BB3_80 Depth=2
	xorl	%eax, %eax
	movslq	-4(%rbp), %rcx
	movl	-64(%rbp,%rcx,4), %ecx
	movslq	-12(%rbp), %rdx
	addl	-64(%rbp,%rdx,4), %ecx
	movslq	%ecx, %rcx
	movq	img, %rdx
	addq	$12600, %rdx            # imm = 0x3138
	movl	-8(%rbp), %esi
	addl	-24(%rbp), %esi
	movslq	%esi, %rsi
	shlq	$5, %rsi
	addq	%rsi, %rdx
	movl	-4(%rbp), %esi
	addl	-20(%rbp), %esi
	movslq	%esi, %rsi
	movzwl	(%rdx,%rsi,2), %edx
	shlq	$6, %rdx
	addq	%rdx, %rcx
	addq	$32, %rcx
	sarq	$6, %rcx
	cmpq	%rcx, %rax
	jle	.LBB3_89
# %bb.88:                               # %cond.true539
                                        #   in Loop: Header=BB3_80 Depth=2
	xorl	%eax, %eax
	jmp	.LBB3_90
.LBB3_89:                               # %cond.false540
                                        #   in Loop: Header=BB3_80 Depth=2
	movslq	-4(%rbp), %rax
	movl	-64(%rbp,%rax,4), %eax
	movslq	-12(%rbp), %rcx
	addl	-64(%rbp,%rcx,4), %eax
	cltq
	movq	img, %rcx
	addq	$12600, %rcx            # imm = 0x3138
	movl	-8(%rbp), %edx
	addl	-24(%rbp), %edx
	movslq	%edx, %rdx
	shlq	$5, %rdx
	addq	%rdx, %rcx
	movl	-4(%rbp), %edx
	addl	-20(%rbp), %edx
	movslq	%edx, %rdx
	movzwl	(%rcx,%rdx,2), %ecx
	shlq	$6, %rcx
	addq	%rcx, %rax
	addq	$32, %rax
	sarq	$6, %rax
.LBB3_90:                               # %cond.end559
                                        #   in Loop: Header=BB3_80 Depth=2
.LBB3_91:                               # %cond.end561
                                        #   in Loop: Header=BB3_80 Depth=2
	xorl	%ecx, %ecx
	movq	img, %rdx
	addq	$13112, %rdx            # imm = 0x3338
	movslq	-8(%rbp), %rsi
	shlq	$6, %rsi
	addq	%rsi, %rdx
	movslq	-4(%rbp), %rsi
	movl	%eax, (%rdx,%rsi,4)
	movq	img, %rax
	movslq	72684(%rax), %rax
	movslq	-4(%rbp), %rdx
	movl	-64(%rbp,%rdx,4), %edx
	movslq	-12(%rbp), %rsi
	subl	-64(%rbp,%rsi,4), %edx
	movslq	%edx, %rdx
	movq	img, %rsi
	addq	$12600, %rsi            # imm = 0x3138
	movl	-8(%rbp), %edi
	addl	-24(%rbp), %edi
	movslq	%edi, %rdi
	shlq	$5, %rdi
	addq	%rdi, %rsi
	movl	-12(%rbp), %edi
	addl	-20(%rbp), %edi
	movslq	%edi, %rdi
	movzwl	(%rsi,%rdi,2), %esi
	shlq	$6, %rsi
	addq	%rsi, %rdx
	addq	$32, %rdx
	sarq	$6, %rdx
	cmpq	%rdx, %rcx
	jle	.LBB3_93
# %bb.92:                               # %cond.true591
                                        #   in Loop: Header=BB3_80 Depth=2
	xorl	%ecx, %ecx
	jmp	.LBB3_94
.LBB3_93:                               # %cond.false592
                                        #   in Loop: Header=BB3_80 Depth=2
	movslq	-4(%rbp), %rcx
	movl	-64(%rbp,%rcx,4), %ecx
	movslq	-12(%rbp), %rdx
	subl	-64(%rbp,%rdx,4), %ecx
	movslq	%ecx, %rcx
	movq	img, %rdx
	addq	$12600, %rdx            # imm = 0x3138
	movl	-8(%rbp), %esi
	addl	-24(%rbp), %esi
	movslq	%esi, %rsi
	shlq	$5, %rsi
	addq	%rsi, %rdx
	movl	-12(%rbp), %esi
	addl	-20(%rbp), %esi
	movslq	%esi, %rsi
	movzwl	(%rdx,%rsi,2), %edx
	shlq	$6, %rdx
	addq	%rdx, %rcx
	addq	$32, %rcx
	sarq	$6, %rcx
.LBB3_94:                               # %cond.end611
                                        #   in Loop: Header=BB3_80 Depth=2
	cmpq	%rcx, %rax
	jge	.LBB3_96
# %bb.95:                               # %cond.true615
                                        #   in Loop: Header=BB3_80 Depth=2
	movq	img, %rax
	movslq	72684(%rax), %rax
	jmp	.LBB3_100
.LBB3_96:                               # %cond.false618
                                        #   in Loop: Header=BB3_80 Depth=2
	xorl	%eax, %eax
	movslq	-4(%rbp), %rcx
	movl	-64(%rbp,%rcx,4), %ecx
	movslq	-12(%rbp), %rdx
	subl	-64(%rbp,%rdx,4), %ecx
	movslq	%ecx, %rcx
	movq	img, %rdx
	addq	$12600, %rdx            # imm = 0x3138
	movl	-8(%rbp), %esi
	addl	-24(%rbp), %esi
	movslq	%esi, %rsi
	shlq	$5, %rsi
	addq	%rsi, %rdx
	movl	-12(%rbp), %esi
	addl	-20(%rbp), %esi
	movslq	%esi, %rsi
	movzwl	(%rdx,%rsi,2), %edx
	shlq	$6, %rdx
	addq	%rdx, %rcx
	addq	$32, %rcx
	sarq	$6, %rcx
	cmpq	%rcx, %rax
	jle	.LBB3_98
# %bb.97:                               # %cond.true639
                                        #   in Loop: Header=BB3_80 Depth=2
	xorl	%eax, %eax
	jmp	.LBB3_99
.LBB3_98:                               # %cond.false640
                                        #   in Loop: Header=BB3_80 Depth=2
	movslq	-4(%rbp), %rax
	movl	-64(%rbp,%rax,4), %eax
	movslq	-12(%rbp), %rcx
	subl	-64(%rbp,%rcx,4), %eax
	cltq
	movq	img, %rcx
	addq	$12600, %rcx            # imm = 0x3138
	movl	-8(%rbp), %edx
	addl	-24(%rbp), %edx
	movslq	%edx, %rdx
	shlq	$5, %rdx
	addq	%rdx, %rcx
	movl	-12(%rbp), %edx
	addl	-20(%rbp), %edx
	movslq	%edx, %rdx
	movzwl	(%rcx,%rdx,2), %ecx
	shlq	$6, %rcx
	addq	%rcx, %rax
	addq	$32, %rax
	sarq	$6, %rax
.LBB3_99:                               # %cond.end659
                                        #   in Loop: Header=BB3_80 Depth=2
.LBB3_100:                              # %cond.end661
                                        #   in Loop: Header=BB3_80 Depth=2
	movq	img, %rcx
	addq	$13112, %rcx            # imm = 0x3338
	movslq	-8(%rbp), %rdx
	shlq	$6, %rdx
	addq	%rdx, %rcx
	movslq	-12(%rbp), %rdx
	movl	%eax, (%rcx,%rdx,4)
	jmp	.LBB3_105
.LBB3_101:                              # %if.else669
                                        #   in Loop: Header=BB3_80 Depth=2
	cmpl	$0, -28(%rbp)
	je	.LBB3_103
# %bb.102:                              # %if.then671
                                        #   in Loop: Header=BB3_80 Depth=2
	movslq	-4(%rbp), %rax
	movl	-64(%rbp,%rax,4), %eax
	movslq	-12(%rbp), %rcx
	addl	-64(%rbp,%rcx,4), %eax
	movq	img, %rcx
	addq	$13112, %rcx            # imm = 0x3338
	movslq	-8(%rbp), %rdx
	shlq	$6, %rdx
	addq	%rdx, %rcx
	movslq	-4(%rbp), %rdx
	movl	%eax, (%rcx,%rdx,4)
	movslq	-4(%rbp), %rax
	movl	-64(%rbp,%rax,4), %eax
	movslq	-12(%rbp), %rcx
	subl	-64(%rbp,%rcx,4), %eax
	movq	img, %rcx
	addq	$13112, %rcx            # imm = 0x3338
	movslq	-8(%rbp), %rdx
	shlq	$6, %rdx
	addq	%rdx, %rcx
	movslq	-12(%rbp), %rdx
	movl	%eax, (%rcx,%rdx,4)
	jmp	.LBB3_104
.LBB3_103:                              # %if.else692
                                        #   in Loop: Header=BB3_80 Depth=2
	movslq	-4(%rbp), %rax
	movl	-64(%rbp,%rax,4), %eax
	movslq	-12(%rbp), %rcx
	addl	-64(%rbp,%rcx,4), %eax
	addl	$32, %eax
	sarl	$6, %eax
	movq	img, %rcx
	addq	$13112, %rcx            # imm = 0x3338
	movslq	-8(%rbp), %rdx
	shlq	$6, %rdx
	addq	%rdx, %rcx
	movslq	-4(%rbp), %rdx
	movl	%eax, (%rcx,%rdx,4)
	movslq	-4(%rbp), %rax
	movl	-64(%rbp,%rax,4), %eax
	movslq	-12(%rbp), %rcx
	subl	-64(%rbp,%rcx,4), %eax
	addl	$32, %eax
	sarl	$6, %eax
	movq	img, %rcx
	addq	$13112, %rcx            # imm = 0x3338
	movslq	-8(%rbp), %rdx
	shlq	$6, %rdx
	addq	%rdx, %rcx
	movslq	-12(%rbp), %rdx
	movl	%eax, (%rcx,%rdx,4)
.LBB3_104:                              # %if.end717
                                        #   in Loop: Header=BB3_80 Depth=2
	jmp	.LBB3_105
.LBB3_105:                              # %if.end718
                                        #   in Loop: Header=BB3_80 Depth=2
	jmp	.LBB3_106
.LBB3_106:                              # %for.inc719
                                        #   in Loop: Header=BB3_80 Depth=2
	movl	-4(%rbp), %eax
	addl	$1, %eax
	movl	%eax, -4(%rbp)
	jmp	.LBB3_80
.LBB3_107:                              # %for.end721
                                        #   in Loop: Header=BB3_72 Depth=1
	jmp	.LBB3_108
.LBB3_108:                              # %for.inc722
                                        #   in Loop: Header=BB3_72 Depth=1
	movl	-8(%rbp), %eax
	addl	$1, %eax
	movl	%eax, -8(%rbp)
	jmp	.LBB3_72
.LBB3_109:                              # %for.end724
	movq	img, %rax
	cmpl	$0, 72724(%rax)
	jne	.LBB3_122
# %bb.110:                              # %if.then727
	movl	$0, -4(%rbp)
.LBB3_111:                              # %for.cond728
                                        # =>This Loop Header: Depth=1
                                        #     Child Loop BB3_113 Depth 2
	cmpl	$4, -4(%rbp)
	jge	.LBB3_121
# %bb.112:                              # %for.body731
                                        #   in Loop: Header=BB3_111 Depth=1
	movl	$0, -8(%rbp)
.LBB3_113:                              # %for.cond732
                                        #   Parent Loop BB3_111 Depth=1
                                        # =>  This Inner Loop Header: Depth=2
	cmpl	$4, -8(%rbp)
	jge	.LBB3_119
# %bb.114:                              # %for.body735
                                        #   in Loop: Header=BB3_113 Depth=2
	cmpl	$0, -28(%rbp)
	je	.LBB3_116
# %bb.115:                              # %if.then737
                                        #   in Loop: Header=BB3_113 Depth=2
	movq	img, %rax
	addq	$13112, %rax            # imm = 0x3338
	movslq	-8(%rbp), %rcx
	shlq	$6, %rcx
	addq	%rcx, %rax
	movslq	-4(%rbp), %rcx
	movl	(%rax,%rcx,4), %eax
	movq	img, %rcx
	addq	$12600, %rcx            # imm = 0x3138
	movl	-8(%rbp), %edx
	addl	-24(%rbp), %edx
	movslq	%edx, %rdx
	shlq	$5, %rdx
	addq	%rdx, %rcx
	movl	-4(%rbp), %edx
	addl	-20(%rbp), %edx
	movslq	%edx, %rdx
	movzwl	(%rcx,%rdx,2), %ecx
	addl	%ecx, %eax
	movq	enc_picture, %rcx
	movq	6424(%rcx), %rcx
	movq	img, %rdx
	movl	156(%rdx), %edx
	addl	-20(%rbp), %edx
	addl	-4(%rbp), %edx
	movslq	%edx, %rdx
	movq	(%rcx,%rdx,8), %rcx
	movq	img, %rdx
	movl	152(%rdx), %edx
	addl	-24(%rbp), %edx
	addl	-8(%rbp), %edx
	movslq	%edx, %rdx
	movw	%ax, (%rcx,%rdx,2)
	jmp	.LBB3_117
.LBB3_116:                              # %if.else761
                                        #   in Loop: Header=BB3_113 Depth=2
	movq	img, %rax
	addq	$13112, %rax            # imm = 0x3338
	movslq	-8(%rbp), %rcx
	shlq	$6, %rcx
	addq	%rcx, %rax
	movslq	-4(%rbp), %rcx
	movl	(%rax,%rcx,4), %eax
	movq	enc_picture, %rcx
	movq	6424(%rcx), %rcx
	movq	img, %rdx
	movl	156(%rdx), %edx
	addl	-20(%rbp), %edx
	addl	-4(%rbp), %edx
	movslq	%edx, %rdx
	movq	(%rcx,%rdx,8), %rcx
	movq	img, %rdx
	movl	152(%rdx), %edx
	addl	-24(%rbp), %edx
	addl	-8(%rbp), %edx
	movslq	%edx, %rdx
	movw	%ax, (%rcx,%rdx,2)
.LBB3_117:                              # %if.end779
                                        #   in Loop: Header=BB3_113 Depth=2
	jmp	.LBB3_118
.LBB3_118:                              # %for.inc780
                                        #   in Loop: Header=BB3_113 Depth=2
	movl	-8(%rbp), %eax
	addl	$1, %eax
	movl	%eax, -8(%rbp)
	jmp	.LBB3_113
.LBB3_119:                              # %for.end782
                                        #   in Loop: Header=BB3_111 Depth=1
	jmp	.LBB3_120
.LBB3_120:                              # %for.inc783
                                        #   in Loop: Header=BB3_111 Depth=1
	movl	-4(%rbp), %eax
	addl	$1, %eax
	movl	%eax, -4(%rbp)
	jmp	.LBB3_111
.LBB3_121:                              # %for.end785
	jmp	.LBB3_122
.LBB3_122:                              # %if.end786
	movl	-116(%rbp), %eax
	addq	$160, %rsp
	popq	%rbp
	.cfi_def_cfa %rsp, 8
	retq
.Lfunc_end3:
	.size	dct_luma, .Lfunc_end3-dct_luma
	.cfi_endproc
                                        # -- End function
	.globl	dct_chroma              # -- Begin function dct_chroma
	.p2align	4, 0x90
	.type	dct_chroma,@function
dct_chroma:                             # @dct_chroma
	.cfi_startproc
# %bb.0:                                # %entry
	pushq	%rbp
	.cfi_def_cfa_offset 16
	.cfi_offset %rbp, -16
	movq	%rsp, %rbp
	.cfi_def_cfa_register %rbp
	subq	$416, %rsp              # imm = 0x1A0
	movl	%edi, -12(%rbp)
	movl	%esi, -136(%rbp)
	movl	$0, -204(%rbp)
	movq	img, %rax
	movq	14168(%rax), %rax
	movq	img, %rcx
	movslq	12(%rcx), %rcx
	imulq	$632, %rcx, %rcx        # imm = 0x278
	addq	%rcx, %rax
	movq	%rax, -192(%rbp)
	movq	img, %rax
	movq	14144(%rax), %rax
	movl	-12(%rbp), %ecx
	addl	$1, %ecx
	movslq	%ecx, %rcx
	movq	(%rax,%rcx,8), %rax
	movq	(%rax), %rax
	movq	%rax, -224(%rbp)
	movq	img, %rax
	movq	14144(%rax), %rax
	movl	-12(%rbp), %ecx
	addl	$1, %ecx
	movslq	%ecx, %rcx
	movq	(%rax,%rcx,8), %rax
	movq	8(%rax), %rax
	movq	%rax, -376(%rbp)
	movq	-192(%rbp), %rax
	cmpl	$9, 72(%rax)
	movb	$1, %al
	je	.LBB4_3
# %bb.1:                                # %lor.lhs.false
	movq	-192(%rbp), %rax
	cmpl	$10, 72(%rax)
	movb	$1, %al
	je	.LBB4_3
# %bb.2:                                # %lor.rhs
	movq	-192(%rbp), %rax
	cmpl	$13, 72(%rax)
	sete	%al
.LBB4_3:                                # %lor.end
	xorl	%ecx, %ecx
	andb	$1, %al
	movzbl	%al, %eax
	movl	%eax, -124(%rbp)
	movl	-12(%rbp), %esi
	movq	img, %rax
	movl	72692(%rax), %eax
	cltd
	movl	$2, %edi
	idivl	%edi
	imull	%eax, %esi
	movl	%esi, -196(%rbp)
	movq	.L__const.dct_chroma.cbpblk_pattern, %rax
	movq	%rax, -416(%rbp)
	movq	.L__const.dct_chroma.cbpblk_pattern+8, %rax
	movq	%rax, -408(%rbp)
	movq	.L__const.dct_chroma.cbpblk_pattern+16, %rax
	movq	%rax, -400(%rbp)
	movq	.L__const.dct_chroma.cbpblk_pattern+24, %rax
	movq	%rax, -392(%rbp)
	movq	img, %rax
	movl	72700(%rax), %eax
	movl	%eax, -140(%rbp)
	movl	$0, -108(%rbp)
	movl	$0, -132(%rbp)
	movl	$0, -208(%rbp)
	movq	-192(%rbp), %rax
	movl	12(%rax), %eax
	movq	img, %rdx
	addl	72668(%rdx), %eax
	cmpl	$0, %eax
	jne	.LBB4_5
# %bb.4:                                # %land.rhs
	movq	img, %rax
	cmpl	$1, 72704(%rax)
	sete	%cl
.LBB4_5:                                # %land.end
	xorl	%eax, %eax
	andb	$1, %cl
	movzbl	%cl, %ecx
	movl	%ecx, -104(%rbp)
	movq	-192(%rbp), %rcx
	movl	12(%rcx), %ecx
	movq	img, %rdx
	movslq	-12(%rbp), %rsi
	addl	72716(%rdx,%rsi,4), %ecx
	movl	%ecx, -128(%rbp)
	movl	-128(%rbp), %ecx
	movq	img, %rdx
	subl	72672(%rdx), %eax
	cmpl	%eax, %ecx
	jge	.LBB4_7
# %bb.6:                                # %cond.true
	xorl	%eax, %eax
	movq	img, %rcx
	subl	72672(%rcx), %eax
	jmp	.LBB4_11
.LBB4_7:                                # %cond.false
	cmpl	$51, -128(%rbp)
	jle	.LBB4_9
# %bb.8:                                # %cond.true24
	movl	$51, %eax
	jmp	.LBB4_10
.LBB4_9:                                # %cond.false25
	movl	-128(%rbp), %eax
.LBB4_10:                               # %cond.end
.LBB4_11:                               # %cond.end26
	movl	%eax, -128(%rbp)
	cmpl	$0, -128(%rbp)
	jge	.LBB4_13
# %bb.12:                               # %cond.true29
	movl	-128(%rbp), %eax
	jmp	.LBB4_14
.LBB4_13:                               # %cond.false30
	movl	-128(%rbp), %eax
	subl	$0, %eax
	cltq
	movzbl	QP_SCALE_CR(,%rax), %eax
.LBB4_14:                               # %cond.end34
	movl	%eax, -128(%rbp)
	movl	-128(%rbp), %eax
	movq	img, %rcx
	addl	72672(%rcx), %eax
	cltd
	movl	$6, %ecx
	idivl	%ecx
	movl	%eax, -32(%rbp)
	movl	-128(%rbp), %eax
	movq	img, %rdx
	addl	72672(%rdx), %eax
	cltd
	idivl	%ecx
	movl	%edx, -76(%rbp)
	movl	-32(%rbp), %eax
	addl	$15, %eax
	movl	%eax, -180(%rbp)
	movq	img, %rax
	cmpl	$2, 72700(%rax)
	jne	.LBB4_16
# %bb.15:                               # %if.then
	movl	-128(%rbp), %eax
	addl	$3, %eax
	movq	img, %rcx
	addl	72672(%rcx), %eax
	cltd
	movl	$6, %ecx
	idivl	%ecx
	movl	%eax, -108(%rbp)
	movl	-128(%rbp), %eax
	addl	$3, %eax
	movq	img, %rdx
	addl	72672(%rdx), %eax
	cltd
	idivl	%ecx
	movl	%edx, -132(%rbp)
	movl	-108(%rbp), %eax
	addl	$15, %eax
	movl	%eax, -208(%rbp)
.LBB4_16:                               # %if.end
	movl	$0, -20(%rbp)
.LBB4_17:                               # %for.cond
                                        # =>This Loop Header: Depth=1
                                        #     Child Loop BB4_19 Depth 2
                                        #       Child Loop BB4_21 Depth 3
                                        #         Child Loop BB4_25 Depth 4
                                        #       Child Loop BB4_31 Depth 3
                                        #         Child Loop BB4_35 Depth 4
	movl	-20(%rbp), %eax
	movq	img, %rcx
	cmpl	72712(%rcx), %eax
	jge	.LBB4_44
# %bb.18:                               # %for.body
                                        #   in Loop: Header=BB4_17 Depth=1
	movl	$0, -16(%rbp)
.LBB4_19:                               # %for.cond56
                                        #   Parent Loop BB4_17 Depth=1
                                        # =>  This Loop Header: Depth=2
                                        #       Child Loop BB4_21 Depth 3
                                        #         Child Loop BB4_25 Depth 4
                                        #       Child Loop BB4_31 Depth 3
                                        #         Child Loop BB4_35 Depth 4
	movl	-16(%rbp), %eax
	movq	img, %rcx
	cmpl	72708(%rcx), %eax
	jge	.LBB4_42
# %bb.20:                               # %for.body59
                                        #   in Loop: Header=BB4_19 Depth=2
	movl	$0, -4(%rbp)
.LBB4_21:                               # %for.cond60
                                        #   Parent Loop BB4_17 Depth=1
                                        #     Parent Loop BB4_19 Depth=2
                                        # =>    This Loop Header: Depth=3
                                        #         Child Loop BB4_25 Depth 4
	xorl	%eax, %eax
	cmpl	$4, -4(%rbp)
	jge	.LBB4_23
# %bb.22:                               # %land.rhs63
                                        #   in Loop: Header=BB4_21 Depth=3
	cmpl	$0, -104(%rbp)
	setne	%al
	xorb	$-1, %al
.LBB4_23:                               # %land.end64
                                        #   in Loop: Header=BB4_21 Depth=3
	testb	$1, %al
	jne	.LBB4_24
	jmp	.LBB4_30
.LBB4_24:                               # %for.body66
                                        #   in Loop: Header=BB4_21 Depth=3
	movl	-20(%rbp), %eax
	addl	-4(%rbp), %eax
	movl	%eax, -148(%rbp)
	movl	$0, -8(%rbp)
.LBB4_25:                               # %for.cond68
                                        #   Parent Loop BB4_17 Depth=1
                                        #     Parent Loop BB4_19 Depth=2
                                        #       Parent Loop BB4_21 Depth=3
                                        # =>      This Inner Loop Header: Depth=4
	cmpl	$2, -8(%rbp)
	jge	.LBB4_28
# %bb.26:                               # %for.body71
                                        #   in Loop: Header=BB4_25 Depth=4
	movl	$3, %eax
	subl	-8(%rbp), %eax
	movl	%eax, -120(%rbp)
	movq	img, %rax
	addq	$13112, %rax            # imm = 0x3338
	movl	-8(%rbp), %ecx
	addl	-16(%rbp), %ecx
	movslq	%ecx, %rcx
	shlq	$6, %rcx
	addq	%rcx, %rax
	movslq	-148(%rbp), %rcx
	movl	(%rax,%rcx,4), %eax
	movq	img, %rcx
	addq	$13112, %rcx            # imm = 0x3338
	movl	-120(%rbp), %edx
	addl	-16(%rbp), %edx
	movslq	%edx, %rdx
	shlq	$6, %rdx
	addq	%rdx, %rcx
	movslq	-148(%rbp), %rdx
	addl	(%rcx,%rdx,4), %eax
	movslq	-8(%rbp), %rcx
	movl	%eax, -64(%rbp,%rcx,4)
	movq	img, %rax
	addq	$13112, %rax            # imm = 0x3338
	movl	-8(%rbp), %ecx
	addl	-16(%rbp), %ecx
	movslq	%ecx, %rcx
	shlq	$6, %rcx
	addq	%rcx, %rax
	movslq	-148(%rbp), %rcx
	movl	(%rax,%rcx,4), %eax
	movq	img, %rcx
	addq	$13112, %rcx            # imm = 0x3338
	movl	-120(%rbp), %edx
	addl	-16(%rbp), %edx
	movslq	%edx, %rdx
	shlq	$6, %rdx
	addq	%rdx, %rcx
	movslq	-148(%rbp), %rdx
	subl	(%rcx,%rdx,4), %eax
	movslq	-120(%rbp), %rcx
	movl	%eax, -64(%rbp,%rcx,4)
# %bb.27:                               # %for.inc
                                        #   in Loop: Header=BB4_25 Depth=4
	movl	-8(%rbp), %eax
	addl	$1, %eax
	movl	%eax, -8(%rbp)
	jmp	.LBB4_25
.LBB4_28:                               # %for.end
                                        #   in Loop: Header=BB4_21 Depth=3
	movl	-64(%rbp), %eax
	addl	-60(%rbp), %eax
	movq	img, %rcx
	addq	$13112, %rcx            # imm = 0x3338
	movslq	-16(%rbp), %rdx
	shlq	$6, %rdx
	addq	%rdx, %rcx
	movslq	-148(%rbp), %rdx
	movl	%eax, (%rcx,%rdx,4)
	movl	-64(%rbp), %eax
	subl	-60(%rbp), %eax
	movq	img, %rcx
	addq	$13112, %rcx            # imm = 0x3338
	movl	-16(%rbp), %edx
	addl	$2, %edx
	movslq	%edx, %rdx
	shlq	$6, %rdx
	addq	%rdx, %rcx
	movslq	-148(%rbp), %rdx
	movl	%eax, (%rcx,%rdx,4)
	movl	-52(%rbp), %eax
	shll	$1, %eax
	addl	-56(%rbp), %eax
	movq	img, %rcx
	addq	$13112, %rcx            # imm = 0x3338
	movl	-16(%rbp), %edx
	addl	$1, %edx
	movslq	%edx, %rdx
	shlq	$6, %rdx
	addq	%rdx, %rcx
	movslq	-148(%rbp), %rdx
	movl	%eax, (%rcx,%rdx,4)
	movl	-52(%rbp), %eax
	movl	-56(%rbp), %ecx
	shll	$1, %ecx
	subl	%ecx, %eax
	movq	img, %rcx
	addq	$13112, %rcx            # imm = 0x3338
	movl	-16(%rbp), %edx
	addl	$3, %edx
	movslq	%edx, %rdx
	shlq	$6, %rdx
	addq	%rdx, %rcx
	movslq	-148(%rbp), %rdx
	movl	%eax, (%rcx,%rdx,4)
# %bb.29:                               # %for.inc139
                                        #   in Loop: Header=BB4_21 Depth=3
	movl	-4(%rbp), %eax
	addl	$1, %eax
	movl	%eax, -4(%rbp)
	jmp	.LBB4_21
.LBB4_30:                               # %for.end141
                                        #   in Loop: Header=BB4_19 Depth=2
	movl	$0, -8(%rbp)
.LBB4_31:                               # %for.cond142
                                        #   Parent Loop BB4_17 Depth=1
                                        #     Parent Loop BB4_19 Depth=2
                                        # =>    This Loop Header: Depth=3
                                        #         Child Loop BB4_35 Depth 4
	xorl	%eax, %eax
	cmpl	$4, -8(%rbp)
	jge	.LBB4_33
# %bb.32:                               # %land.rhs145
                                        #   in Loop: Header=BB4_31 Depth=3
	cmpl	$0, -104(%rbp)
	setne	%al
	xorb	$-1, %al
.LBB4_33:                               # %land.end148
                                        #   in Loop: Header=BB4_31 Depth=3
	testb	$1, %al
	jne	.LBB4_34
	jmp	.LBB4_40
.LBB4_34:                               # %for.body150
                                        #   in Loop: Header=BB4_31 Depth=3
	movl	-16(%rbp), %eax
	addl	-8(%rbp), %eax
	movl	%eax, -24(%rbp)
	movl	$0, -4(%rbp)
.LBB4_35:                               # %for.cond152
                                        #   Parent Loop BB4_17 Depth=1
                                        #     Parent Loop BB4_19 Depth=2
                                        #       Parent Loop BB4_31 Depth=3
                                        # =>      This Inner Loop Header: Depth=4
	cmpl	$2, -4(%rbp)
	jge	.LBB4_38
# %bb.36:                               # %for.body155
                                        #   in Loop: Header=BB4_35 Depth=4
	movl	$3, %eax
	subl	-4(%rbp), %eax
	movl	%eax, -72(%rbp)
	movq	img, %rax
	addq	$13112, %rax            # imm = 0x3338
	movslq	-24(%rbp), %rcx
	shlq	$6, %rcx
	addq	%rcx, %rax
	movl	-20(%rbp), %ecx
	addl	-4(%rbp), %ecx
	movslq	%ecx, %rcx
	movl	(%rax,%rcx,4), %eax
	movq	img, %rcx
	addq	$13112, %rcx            # imm = 0x3338
	movslq	-24(%rbp), %rdx
	shlq	$6, %rdx
	addq	%rdx, %rcx
	movl	-20(%rbp), %edx
	addl	-72(%rbp), %edx
	movslq	%edx, %rdx
	addl	(%rcx,%rdx,4), %eax
	movslq	-4(%rbp), %rcx
	movl	%eax, -64(%rbp,%rcx,4)
	movq	img, %rax
	addq	$13112, %rax            # imm = 0x3338
	movslq	-24(%rbp), %rcx
	shlq	$6, %rcx
	addq	%rcx, %rax
	movl	-20(%rbp), %ecx
	addl	-4(%rbp), %ecx
	movslq	%ecx, %rcx
	movl	(%rax,%rcx,4), %eax
	movq	img, %rcx
	addq	$13112, %rcx            # imm = 0x3338
	movslq	-24(%rbp), %rdx
	shlq	$6, %rdx
	addq	%rdx, %rcx
	movl	-20(%rbp), %edx
	addl	-72(%rbp), %edx
	movslq	%edx, %rdx
	subl	(%rcx,%rdx,4), %eax
	movslq	-72(%rbp), %rcx
	movl	%eax, -64(%rbp,%rcx,4)
# %bb.37:                               # %for.inc187
                                        #   in Loop: Header=BB4_35 Depth=4
	movl	-4(%rbp), %eax
	addl	$1, %eax
	movl	%eax, -4(%rbp)
	jmp	.LBB4_35
.LBB4_38:                               # %for.end189
                                        #   in Loop: Header=BB4_31 Depth=3
	movl	-64(%rbp), %eax
	addl	-60(%rbp), %eax
	movq	img, %rcx
	addq	$13112, %rcx            # imm = 0x3338
	movslq	-24(%rbp), %rdx
	shlq	$6, %rdx
	addq	%rdx, %rcx
	movl	-20(%rbp), %edx
	addl	$0, %edx
	movslq	%edx, %rdx
	movl	%eax, (%rcx,%rdx,4)
	movl	-64(%rbp), %eax
	subl	-60(%rbp), %eax
	movq	img, %rcx
	addq	$13112, %rcx            # imm = 0x3338
	movslq	-24(%rbp), %rdx
	shlq	$6, %rdx
	addq	%rdx, %rcx
	movl	-20(%rbp), %edx
	addl	$2, %edx
	movslq	%edx, %rdx
	movl	%eax, (%rcx,%rdx,4)
	movl	-52(%rbp), %eax
	shll	$1, %eax
	addl	-56(%rbp), %eax
	movq	img, %rcx
	addq	$13112, %rcx            # imm = 0x3338
	movslq	-24(%rbp), %rdx
	shlq	$6, %rdx
	addq	%rdx, %rcx
	movl	-20(%rbp), %edx
	addl	$1, %edx
	movslq	%edx, %rdx
	movl	%eax, (%rcx,%rdx,4)
	movl	-52(%rbp), %eax
	movl	-56(%rbp), %ecx
	shll	$1, %ecx
	subl	%ecx, %eax
	movq	img, %rcx
	addq	$13112, %rcx            # imm = 0x3338
	movslq	-24(%rbp), %rdx
	shlq	$6, %rdx
	addq	%rdx, %rcx
	movl	-20(%rbp), %edx
	addl	$3, %edx
	movslq	%edx, %rdx
	movl	%eax, (%rcx,%rdx,4)
# %bb.39:                               # %for.inc228
                                        #   in Loop: Header=BB4_31 Depth=3
	movl	-8(%rbp), %eax
	addl	$1, %eax
	movl	%eax, -8(%rbp)
	jmp	.LBB4_31
.LBB4_40:                               # %for.end230
                                        #   in Loop: Header=BB4_19 Depth=2
	jmp	.LBB4_41
.LBB4_41:                               # %for.inc231
                                        #   in Loop: Header=BB4_19 Depth=2
	movl	-16(%rbp), %eax
	addl	$4, %eax
	movl	%eax, -16(%rbp)
	jmp	.LBB4_19
.LBB4_42:                               # %for.end233
                                        #   in Loop: Header=BB4_17 Depth=1
	jmp	.LBB4_43
.LBB4_43:                               # %for.inc234
                                        #   in Loop: Header=BB4_17 Depth=1
	movl	-20(%rbp), %eax
	addl	$4, %eax
	movl	%eax, -20(%rbp)
	jmp	.LBB4_17
.LBB4_44:                               # %for.end236
	cmpl	$1, -140(%rbp)
	jne	.LBB4_76
# %bb.45:                               # %if.then239
	movq	img, %rax
	movl	13112(%rax), %eax
	movq	img, %rcx
	addl	13368(%rcx), %eax
	movq	img, %rcx
	addl	13128(%rcx), %eax
	movq	img, %rcx
	addl	13384(%rcx), %eax
	movl	%eax, -176(%rbp)
	movq	img, %rax
	movl	13112(%rax), %eax
	movq	img, %rcx
	subl	13368(%rcx), %eax
	movq	img, %rcx
	addl	13128(%rcx), %eax
	movq	img, %rcx
	subl	13384(%rcx), %eax
	movl	%eax, -172(%rbp)
	movq	img, %rax
	movl	13112(%rax), %eax
	movq	img, %rcx
	addl	13368(%rcx), %eax
	movq	img, %rcx
	subl	13128(%rcx), %eax
	movq	img, %rcx
	subl	13384(%rcx), %eax
	movl	%eax, -168(%rbp)
	movq	img, %rax
	movl	13112(%rax), %eax
	movq	img, %rcx
	subl	13368(%rcx), %eax
	movq	img, %rcx
	subl	13128(%rcx), %eax
	movq	img, %rcx
	addl	13384(%rcx), %eax
	movl	%eax, -164(%rbp)
	movl	$-1, -100(%rbp)
	movl	$0, -68(%rbp)
	movl	$0, -28(%rbp)
.LBB4_46:                               # %for.cond304
                                        # =>This Inner Loop Header: Depth=1
	cmpl	$4, -28(%rbp)
	jge	.LBB4_62
# %bb.47:                               # %for.body307
                                        #   in Loop: Header=BB4_46 Depth=1
	movl	-100(%rbp), %eax
	addl	$1, %eax
	movl	%eax, -100(%rbp)
	movl	$0, -144(%rbp)
	cmpl	$1, -124(%rbp)
	jne	.LBB4_49
# %bb.48:                               # %if.then311
                                        #   in Loop: Header=BB4_46 Depth=1
	movslq	-28(%rbp), %rax
	movl	-176(%rbp,%rax,4), %edi
	callq	abs
	movslq	-12(%rbp), %rcx
	imulq	$384, %rcx, %rcx        # imm = 0x180
	movabsq	$LevelScale4x4Chroma_Intra, %rdx
	addq	%rcx, %rdx
	movslq	-76(%rbp), %rcx
	shlq	$6, %rcx
	addq	%rcx, %rdx
	imull	(%rdx), %eax
	movslq	-12(%rbp), %rcx
	imulq	$832, %rcx, %rcx        # imm = 0x340
	movabsq	$LevelOffset4x4Chroma_Intra, %rdx
	addq	%rcx, %rdx
	movslq	-32(%rbp), %rcx
	shlq	$6, %rcx
	addq	%rcx, %rdx
	movl	(%rdx), %ecx
	shll	$1, %ecx
	addl	%ecx, %eax
	movl	-180(%rbp), %ecx
	addl	$1, %ecx
                                        # kill: def $cl killed $ecx
	sarl	%cl, %eax
	movl	%eax, -36(%rbp)
	jmp	.LBB4_50
.LBB4_49:                               # %if.else
                                        #   in Loop: Header=BB4_46 Depth=1
	movslq	-28(%rbp), %rax
	movl	-176(%rbp,%rax,4), %edi
	callq	abs
	movslq	-12(%rbp), %rcx
	imulq	$384, %rcx, %rcx        # imm = 0x180
	movabsq	$LevelScale4x4Chroma_Inter, %rdx
	addq	%rcx, %rdx
	movslq	-76(%rbp), %rcx
	shlq	$6, %rcx
	addq	%rcx, %rdx
	imull	(%rdx), %eax
	movslq	-12(%rbp), %rcx
	imulq	$832, %rcx, %rcx        # imm = 0x340
	movabsq	$LevelOffset4x4Chroma_Inter, %rdx
	addq	%rcx, %rdx
	movslq	-32(%rbp), %rcx
	shlq	$6, %rcx
	addq	%rcx, %rdx
	movl	(%rdx), %ecx
	shll	$1, %ecx
	addl	%ecx, %eax
	movl	-180(%rbp), %ecx
	addl	$1, %ecx
                                        # kill: def $cl killed $ecx
	sarl	%cl, %eax
	movl	%eax, -36(%rbp)
.LBB4_50:                               # %if.end349
                                        #   in Loop: Header=BB4_46 Depth=1
	movq	input, %rax
	cmpl	$0, 2356(%rax)
	jne	.LBB4_55
# %bb.51:                               # %land.lhs.true
                                        #   in Loop: Header=BB4_46 Depth=1
	movq	img, %rax
	cmpl	$4, 40(%rax)
	jge	.LBB4_55
# %bb.52:                               # %if.then355
                                        #   in Loop: Header=BB4_46 Depth=1
	cmpl	$2063, -36(%rbp)        # imm = 0x80F
	jle	.LBB4_54
# %bb.53:                               # %if.then358
                                        #   in Loop: Header=BB4_46 Depth=1
	movl	$2063, -36(%rbp)        # imm = 0x80F
.LBB4_54:                               # %if.end359
                                        #   in Loop: Header=BB4_46 Depth=1
	jmp	.LBB4_55
.LBB4_55:                               # %if.end360
                                        #   in Loop: Header=BB4_46 Depth=1
	cmpl	$0, -36(%rbp)
	je	.LBB4_60
# %bb.56:                               # %if.then363
                                        #   in Loop: Header=BB4_46 Depth=1
	movl	-12(%rbp), %ecx
	shll	$2, %ecx
                                        # kill: def $cl killed $ecx
	movl	$983040, %eax           # imm = 0xF0000
	shll	%cl, %eax
	cltq
	movq	-192(%rbp), %rcx
	orq	464(%rcx), %rax
	movq	%rax, 464(%rcx)
	movl	$1, %eax
	cmpl	-136(%rbp), %eax
	jle	.LBB4_58
# %bb.57:                               # %cond.true369
                                        #   in Loop: Header=BB4_46 Depth=1
	movl	$1, %eax
	jmp	.LBB4_59
.LBB4_58:                               # %cond.false370
                                        #   in Loop: Header=BB4_46 Depth=1
	movl	-136(%rbp), %eax
.LBB4_59:                               # %cond.end371
                                        #   in Loop: Header=BB4_46 Depth=1
	movl	%eax, -136(%rbp)
	movl	$1, -204(%rbp)
	movl	-36(%rbp), %edi
	movslq	-28(%rbp), %rax
	movl	-176(%rbp,%rax,4), %esi
	callq	sign
	movq	-224(%rbp), %rcx
	movslq	-68(%rbp), %rdx
	movl	%eax, (%rcx,%rdx,4)
	movl	-100(%rbp), %eax
	movq	-376(%rbp), %rcx
	movslq	-68(%rbp), %rdx
	movl	%eax, (%rcx,%rdx,4)
	movl	-68(%rbp), %eax
	addl	$1, %eax
	movl	%eax, -68(%rbp)
	movl	$-1, -100(%rbp)
	movl	-36(%rbp), %edi
	movslq	-28(%rbp), %rax
	movl	-176(%rbp,%rax,4), %esi
	callq	sign
	movl	%eax, -144(%rbp)
.LBB4_60:                               # %if.end384
                                        #   in Loop: Header=BB4_46 Depth=1
	movl	-144(%rbp), %eax
	movslq	-28(%rbp), %rcx
	movl	%eax, -176(%rbp,%rcx,4)
# %bb.61:                               # %for.inc387
                                        #   in Loop: Header=BB4_46 Depth=1
	movl	-28(%rbp), %eax
	addl	$1, %eax
	movl	%eax, -28(%rbp)
	jmp	.LBB4_46
.LBB4_62:                               # %for.end389
	movq	-224(%rbp), %rax
	movslq	-68(%rbp), %rcx
	movl	$0, (%rax,%rcx,4)
	movl	-176(%rbp), %eax
	addl	-172(%rbp), %eax
	addl	-168(%rbp), %eax
	addl	-164(%rbp), %eax
	movl	%eax, -64(%rbp)
	movl	-176(%rbp), %eax
	subl	-172(%rbp), %eax
	addl	-168(%rbp), %eax
	subl	-164(%rbp), %eax
	movl	%eax, -60(%rbp)
	movl	-176(%rbp), %eax
	addl	-172(%rbp), %eax
	subl	-168(%rbp), %eax
	subl	-164(%rbp), %eax
	movl	%eax, -56(%rbp)
	movl	-176(%rbp), %eax
	subl	-172(%rbp), %eax
	subl	-168(%rbp), %eax
	addl	-164(%rbp), %eax
	movl	%eax, -52(%rbp)
	movl	$0, -8(%rbp)
.LBB4_63:                               # %for.cond424
                                        # =>This Inner Loop Header: Depth=1
	cmpl	$4, -8(%rbp)
	jge	.LBB4_75
# %bb.64:                               # %for.body427
                                        #   in Loop: Header=BB4_63 Depth=1
	cmpl	$5, -32(%rbp)
	jge	.LBB4_69
# %bb.65:                               # %if.then430
                                        #   in Loop: Header=BB4_63 Depth=1
	cmpl	$1, -124(%rbp)
	jne	.LBB4_67
# %bb.66:                               # %if.then433
                                        #   in Loop: Header=BB4_63 Depth=1
	movslq	-8(%rbp), %rax
	movl	-64(%rbp,%rax,4), %eax
	movslq	-12(%rbp), %rcx
	imulq	$384, %rcx, %rcx        # imm = 0x180
	movabsq	$InvLevelScale4x4Chroma_Intra, %rdx
	addq	%rcx, %rdx
	movslq	-76(%rbp), %rcx
	shlq	$6, %rcx
	addq	%rcx, %rdx
	imull	(%rdx), %eax
	movl	$5, %ecx
	subl	-32(%rbp), %ecx
                                        # kill: def $cl killed $ecx
	sarl	%cl, %eax
	movslq	-8(%rbp), %rcx
	movl	%eax, -176(%rbp,%rcx,4)
	jmp	.LBB4_68
.LBB4_67:                               # %if.else447
                                        #   in Loop: Header=BB4_63 Depth=1
	movslq	-8(%rbp), %rax
	movl	-64(%rbp,%rax,4), %eax
	movslq	-12(%rbp), %rcx
	imulq	$384, %rcx, %rcx        # imm = 0x180
	movabsq	$InvLevelScale4x4Chroma_Inter, %rdx
	addq	%rcx, %rdx
	movslq	-76(%rbp), %rcx
	shlq	$6, %rcx
	addq	%rcx, %rdx
	imull	(%rdx), %eax
	movl	$5, %ecx
	subl	-32(%rbp), %ecx
                                        # kill: def $cl killed $ecx
	sarl	%cl, %eax
	movslq	-8(%rbp), %rcx
	movl	%eax, -176(%rbp,%rcx,4)
.LBB4_68:                               # %if.end461
                                        #   in Loop: Header=BB4_63 Depth=1
	jmp	.LBB4_73
.LBB4_69:                               # %if.else462
                                        #   in Loop: Header=BB4_63 Depth=1
	cmpl	$1, -124(%rbp)
	jne	.LBB4_71
# %bb.70:                               # %if.then465
                                        #   in Loop: Header=BB4_63 Depth=1
	movslq	-8(%rbp), %rax
	movl	-64(%rbp,%rax,4), %eax
	movslq	-12(%rbp), %rcx
	imulq	$384, %rcx, %rcx        # imm = 0x180
	movabsq	$InvLevelScale4x4Chroma_Intra, %rdx
	addq	%rcx, %rdx
	movslq	-76(%rbp), %rcx
	shlq	$6, %rcx
	addq	%rcx, %rdx
	imull	(%rdx), %eax
	movl	-32(%rbp), %ecx
	subl	$5, %ecx
                                        # kill: def $cl killed $ecx
	shll	%cl, %eax
	movslq	-8(%rbp), %rcx
	movl	%eax, -176(%rbp,%rcx,4)
	jmp	.LBB4_72
.LBB4_71:                               # %if.else479
                                        #   in Loop: Header=BB4_63 Depth=1
	movslq	-8(%rbp), %rax
	movl	-64(%rbp,%rax,4), %eax
	movslq	-12(%rbp), %rcx
	imulq	$384, %rcx, %rcx        # imm = 0x180
	movabsq	$InvLevelScale4x4Chroma_Inter, %rdx
	addq	%rcx, %rdx
	movslq	-76(%rbp), %rcx
	shlq	$6, %rcx
	addq	%rcx, %rdx
	imull	(%rdx), %eax
	movl	-32(%rbp), %ecx
	subl	$5, %ecx
                                        # kill: def $cl killed $ecx
	shll	%cl, %eax
	movslq	-8(%rbp), %rcx
	movl	%eax, -176(%rbp,%rcx,4)
.LBB4_72:                               # %if.end493
                                        #   in Loop: Header=BB4_63 Depth=1
	jmp	.LBB4_73
.LBB4_73:                               # %if.end494
                                        #   in Loop: Header=BB4_63 Depth=1
	jmp	.LBB4_74
.LBB4_74:                               # %for.inc495
                                        #   in Loop: Header=BB4_63 Depth=1
	movl	-8(%rbp), %eax
	addl	$1, %eax
	movl	%eax, -8(%rbp)
	jmp	.LBB4_63
.LBB4_75:                               # %for.end497
	movl	-176(%rbp), %eax
	movq	img, %rcx
	movl	%eax, 13112(%rcx)
	movl	-172(%rbp), %eax
	movq	img, %rcx
	movl	%eax, 13368(%rcx)
	movl	-168(%rbp), %eax
	movq	img, %rcx
	movl	%eax, 13128(%rcx)
	movl	-164(%rbp), %eax
	movq	img, %rcx
	movl	%eax, 13384(%rcx)
	jmp	.LBB4_213
.LBB4_76:                               # %if.else514
	cmpl	$2, -140(%rbp)
	jne	.LBB4_127
# %bb.77:                               # %if.then517
	movl	$0, -4(%rbp)
.LBB4_78:                               # %for.cond518
                                        # =>This Loop Header: Depth=1
                                        #     Child Loop BB4_80 Depth 2
	movl	-4(%rbp), %eax
	movq	img, %rcx
	cmpl	72712(%rcx), %eax
	jge	.LBB4_85
# %bb.79:                               # %for.body522
                                        #   in Loop: Header=BB4_78 Depth=1
	movl	$0, -8(%rbp)
.LBB4_80:                               # %for.cond523
                                        #   Parent Loop BB4_78 Depth=1
                                        # =>  This Inner Loop Header: Depth=2
	movl	-8(%rbp), %eax
	movq	img, %rcx
	cmpl	72708(%rcx), %eax
	jge	.LBB4_83
# %bb.81:                               # %for.body527
                                        #   in Loop: Header=BB4_80 Depth=2
	movq	img, %rax
	addq	$13112, %rax            # imm = 0x3338
	movslq	-8(%rbp), %rcx
	shlq	$6, %rcx
	addq	%rcx, %rax
	movslq	-4(%rbp), %rcx
	movl	(%rax,%rcx,4), %eax
	movl	-8(%rbp), %ecx
	sarl	$2, %ecx
	movslq	%ecx, %rcx
	shlq	$4, %rcx
	leaq	-368(%rbp), %rdx
	addq	%rcx, %rdx
	movl	-4(%rbp), %ecx
	sarl	$2, %ecx
	movslq	%ecx, %rcx
	movl	%eax, (%rdx,%rcx,4)
# %bb.82:                               # %for.inc539
                                        #   in Loop: Header=BB4_80 Depth=2
	movl	-8(%rbp), %eax
	addl	$4, %eax
	movl	%eax, -8(%rbp)
	jmp	.LBB4_80
.LBB4_83:                               # %for.end541
                                        #   in Loop: Header=BB4_78 Depth=1
	jmp	.LBB4_84
.LBB4_84:                               # %for.inc542
                                        #   in Loop: Header=BB4_78 Depth=1
	movl	-4(%rbp), %eax
	addl	$4, %eax
	movl	%eax, -4(%rbp)
	jmp	.LBB4_78
.LBB4_85:                               # %for.end544
	movl	-368(%rbp), %eax
	addl	-352(%rbp), %eax
	movl	%eax, -304(%rbp)
	movl	-364(%rbp), %eax
	addl	-348(%rbp), %eax
	movl	%eax, -300(%rbp)
	movl	-360(%rbp), %eax
	addl	-344(%rbp), %eax
	movl	%eax, -296(%rbp)
	movl	-356(%rbp), %eax
	addl	-340(%rbp), %eax
	movl	%eax, -292(%rbp)
	movl	-368(%rbp), %eax
	subl	-352(%rbp), %eax
	movl	%eax, -288(%rbp)
	movl	-364(%rbp), %eax
	subl	-348(%rbp), %eax
	movl	%eax, -284(%rbp)
	movl	-360(%rbp), %eax
	subl	-344(%rbp), %eax
	movl	%eax, -280(%rbp)
	movl	-356(%rbp), %eax
	subl	-340(%rbp), %eax
	movl	%eax, -276(%rbp)
	movl	$0, -8(%rbp)
.LBB4_86:                               # %for.cond601
                                        # =>This Loop Header: Depth=1
                                        #     Child Loop BB4_88 Depth 2
	cmpl	$2, -8(%rbp)
	jge	.LBB4_93
# %bb.87:                               # %for.body604
                                        #   in Loop: Header=BB4_86 Depth=1
	movl	$0, -4(%rbp)
.LBB4_88:                               # %for.cond605
                                        #   Parent Loop BB4_86 Depth=1
                                        # =>  This Inner Loop Header: Depth=2
	cmpl	$2, -4(%rbp)
	jge	.LBB4_91
# %bb.89:                               # %for.body608
                                        #   in Loop: Header=BB4_88 Depth=2
	movl	$3, %eax
	subl	-4(%rbp), %eax
	movl	%eax, -24(%rbp)
	movslq	-8(%rbp), %rax
	shlq	$4, %rax
	leaq	-304(%rbp), %rcx
	movq	%rcx, %rdx
	addq	%rax, %rdx
	movslq	-4(%rbp), %rax
	movl	(%rdx,%rax,4), %eax
	movslq	-8(%rbp), %rdx
	shlq	$4, %rdx
	movq	%rcx, %rsi
	addq	%rdx, %rsi
	movslq	-24(%rbp), %rdx
	addl	(%rsi,%rdx,4), %eax
	movslq	-4(%rbp), %rdx
	movl	%eax, -64(%rbp,%rdx,4)
	movslq	-8(%rbp), %rax
	shlq	$4, %rax
	movq	%rcx, %rdx
	addq	%rax, %rdx
	movslq	-4(%rbp), %rax
	movl	(%rdx,%rax,4), %eax
	movslq	-8(%rbp), %rdx
	shlq	$4, %rdx
	addq	%rdx, %rcx
	movslq	-24(%rbp), %rdx
	subl	(%rcx,%rdx,4), %eax
	movslq	-24(%rbp), %rcx
	movl	%eax, -64(%rbp,%rcx,4)
# %bb.90:                               # %for.inc632
                                        #   in Loop: Header=BB4_88 Depth=2
	movl	-4(%rbp), %eax
	addl	$1, %eax
	movl	%eax, -4(%rbp)
	jmp	.LBB4_88
.LBB4_91:                               # %for.end634
                                        #   in Loop: Header=BB4_86 Depth=1
	movl	-64(%rbp), %eax
	addl	-60(%rbp), %eax
	movslq	-8(%rbp), %rcx
	shlq	$4, %rcx
	leaq	-304(%rbp), %rdx
	movq	%rdx, %rsi
	addq	%rcx, %rsi
	movl	%eax, (%rsi)
	movl	-64(%rbp), %eax
	subl	-60(%rbp), %eax
	movslq	-8(%rbp), %rcx
	shlq	$4, %rcx
	movq	%rdx, %rsi
	addq	%rcx, %rsi
	movl	%eax, 8(%rsi)
	movl	-52(%rbp), %eax
	addl	-56(%rbp), %eax
	movslq	-8(%rbp), %rcx
	shlq	$4, %rcx
	movq	%rdx, %rsi
	addq	%rcx, %rsi
	movl	%eax, 4(%rsi)
	movl	-52(%rbp), %eax
	subl	-56(%rbp), %eax
	movslq	-8(%rbp), %rcx
	shlq	$4, %rcx
	addq	%rcx, %rdx
	movl	%eax, 12(%rdx)
# %bb.92:                               # %for.inc659
                                        #   in Loop: Header=BB4_86 Depth=1
	movl	-8(%rbp), %eax
	addl	$1, %eax
	movl	%eax, -8(%rbp)
	jmp	.LBB4_86
.LBB4_93:                               # %for.end661
	movl	$-1, -100(%rbp)
	movl	$0, -68(%rbp)
	movl	$0, -28(%rbp)
.LBB4_94:                               # %for.cond662
                                        # =>This Inner Loop Header: Depth=1
	cmpl	$8, -28(%rbp)
	jge	.LBB4_105
# %bb.95:                               # %for.body665
                                        #   in Loop: Header=BB4_94 Depth=1
	movslq	-28(%rbp), %rax
	movzbl	SCAN_YUV422(,%rax,2), %eax
	movl	%eax, -8(%rbp)
	movslq	-28(%rbp), %rax
	movzbl	SCAN_YUV422+1(,%rax,2), %eax
	movl	%eax, -4(%rbp)
	movl	-100(%rbp), %eax
	addl	$1, %eax
	movl	%eax, -100(%rbp)
	cmpl	$1, -124(%rbp)
	jne	.LBB4_97
# %bb.96:                               # %if.then677
                                        #   in Loop: Header=BB4_94 Depth=1
	movslq	-8(%rbp), %rax
	shlq	$4, %rax
	leaq	-304(%rbp), %rcx
	addq	%rax, %rcx
	movslq	-4(%rbp), %rax
	movl	(%rcx,%rax,4), %edi
	callq	abs
	movslq	-12(%rbp), %rcx
	imulq	$384, %rcx, %rcx        # imm = 0x180
	movabsq	$LevelScale4x4Chroma_Intra, %rdx
	addq	%rcx, %rdx
	movslq	-132(%rbp), %rcx
	shlq	$6, %rcx
	addq	%rcx, %rdx
	imull	(%rdx), %eax
	movslq	-12(%rbp), %rcx
	imulq	$832, %rcx, %rcx        # imm = 0x340
	movabsq	$LevelOffset4x4Chroma_Intra, %rdx
	addq	%rcx, %rdx
	movslq	-108(%rbp), %rcx
	shlq	$6, %rcx
	addq	%rcx, %rdx
	movl	(%rdx), %ecx
	shll	$1, %ecx
	addl	%ecx, %eax
	movl	-208(%rbp), %ecx
	addl	$1, %ecx
                                        # kill: def $cl killed $ecx
	sarl	%cl, %eax
	movl	%eax, -36(%rbp)
	jmp	.LBB4_98
.LBB4_97:                               # %if.else700
                                        #   in Loop: Header=BB4_94 Depth=1
	movslq	-8(%rbp), %rax
	shlq	$4, %rax
	leaq	-304(%rbp), %rcx
	addq	%rax, %rcx
	movslq	-4(%rbp), %rax
	movl	(%rcx,%rax,4), %edi
	callq	abs
	movslq	-12(%rbp), %rcx
	imulq	$384, %rcx, %rcx        # imm = 0x180
	movabsq	$LevelScale4x4Chroma_Inter, %rdx
	addq	%rcx, %rdx
	movslq	-132(%rbp), %rcx
	shlq	$6, %rcx
	addq	%rcx, %rdx
	imull	(%rdx), %eax
	movslq	-12(%rbp), %rcx
	imulq	$832, %rcx, %rcx        # imm = 0x340
	movabsq	$LevelOffset4x4Chroma_Inter, %rdx
	addq	%rcx, %rdx
	movslq	-108(%rbp), %rcx
	shlq	$6, %rcx
	addq	%rcx, %rdx
	movl	(%rdx), %ecx
	shll	$1, %ecx
	addl	%ecx, %eax
	movl	-208(%rbp), %ecx
	addl	$1, %ecx
                                        # kill: def $cl killed $ecx
	sarl	%cl, %eax
	movl	%eax, -36(%rbp)
.LBB4_98:                               # %if.end723
                                        #   in Loop: Header=BB4_94 Depth=1
	cmpl	$0, -36(%rbp)
	je	.LBB4_103
# %bb.99:                               # %if.then726
                                        #   in Loop: Header=BB4_94 Depth=1
	movl	-12(%rbp), %ecx
	shll	$3, %ecx
                                        # kill: def $cl killed $ecx
	movl	$16711680, %eax         # imm = 0xFF0000
	shll	%cl, %eax
	cltq
	movq	-192(%rbp), %rcx
	orq	464(%rcx), %rax
	movq	%rax, 464(%rcx)
	movl	$1, %eax
	cmpl	-136(%rbp), %eax
	jle	.LBB4_101
# %bb.100:                              # %cond.true734
                                        #   in Loop: Header=BB4_94 Depth=1
	movl	$1, %eax
	jmp	.LBB4_102
.LBB4_101:                              # %cond.false735
                                        #   in Loop: Header=BB4_94 Depth=1
	movl	-136(%rbp), %eax
.LBB4_102:                              # %cond.end736
                                        #   in Loop: Header=BB4_94 Depth=1
	movl	%eax, -136(%rbp)
	movl	$1, -204(%rbp)
	movl	-36(%rbp), %edi
	movslq	-8(%rbp), %rax
	shlq	$4, %rax
	leaq	-304(%rbp), %rcx
	addq	%rax, %rcx
	movslq	-4(%rbp), %rax
	movl	(%rcx,%rax,4), %esi
	callq	sign
	movq	-224(%rbp), %rcx
	movslq	-68(%rbp), %rdx
	movl	%eax, (%rcx,%rdx,4)
	movl	-100(%rbp), %eax
	movq	-376(%rbp), %rcx
	movslq	-68(%rbp), %rdx
	movl	%eax, (%rcx,%rdx,4)
	movl	-68(%rbp), %eax
	addl	$1, %eax
	movl	%eax, -68(%rbp)
	movl	$-1, -100(%rbp)
.LBB4_103:                              # %if.end748
                                        #   in Loop: Header=BB4_94 Depth=1
	movl	-36(%rbp), %edi
	movslq	-8(%rbp), %rax
	shlq	$4, %rax
	leaq	-304(%rbp), %rcx
	addq	%rax, %rcx
	movslq	-4(%rbp), %rax
	movl	(%rcx,%rax,4), %esi
	callq	sign
	movslq	-8(%rbp), %rcx
	shlq	$4, %rcx
	leaq	-368(%rbp), %rdx
	addq	%rcx, %rdx
	movslq	-4(%rbp), %rcx
	movl	%eax, (%rdx,%rcx,4)
# %bb.104:                              # %for.inc758
                                        #   in Loop: Header=BB4_94 Depth=1
	movl	-28(%rbp), %eax
	addl	$1, %eax
	movl	%eax, -28(%rbp)
	jmp	.LBB4_94
.LBB4_105:                              # %for.end760
	movq	-224(%rbp), %rax
	movslq	-68(%rbp), %rcx
	movl	$0, (%rax,%rcx,4)
	movl	-368(%rbp), %eax
	addl	-352(%rbp), %eax
	movl	%eax, -304(%rbp)
	movl	-364(%rbp), %eax
	addl	-348(%rbp), %eax
	movl	%eax, -300(%rbp)
	movl	-360(%rbp), %eax
	addl	-344(%rbp), %eax
	movl	%eax, -296(%rbp)
	movl	-356(%rbp), %eax
	addl	-340(%rbp), %eax
	movl	%eax, -292(%rbp)
	movl	-368(%rbp), %eax
	subl	-352(%rbp), %eax
	movl	%eax, -288(%rbp)
	movl	-364(%rbp), %eax
	subl	-348(%rbp), %eax
	movl	%eax, -284(%rbp)
	movl	-360(%rbp), %eax
	subl	-344(%rbp), %eax
	movl	%eax, -280(%rbp)
	movl	-356(%rbp), %eax
	subl	-340(%rbp), %eax
	movl	%eax, -276(%rbp)
	movl	$0, -8(%rbp)
.LBB4_106:                              # %for.cond819
                                        # =>This Loop Header: Depth=1
                                        #     Child Loop BB4_108 Depth 2
                                        #     Child Loop BB4_112 Depth 2
	cmpl	$2, -8(%rbp)
	jge	.LBB4_126
# %bb.107:                              # %for.body822
                                        #   in Loop: Header=BB4_106 Depth=1
	movl	$0, -4(%rbp)
.LBB4_108:                              # %for.cond823
                                        #   Parent Loop BB4_106 Depth=1
                                        # =>  This Inner Loop Header: Depth=2
	cmpl	$4, -4(%rbp)
	jge	.LBB4_111
# %bb.109:                              # %for.body826
                                        #   in Loop: Header=BB4_108 Depth=2
	movslq	-8(%rbp), %rax
	shlq	$4, %rax
	leaq	-304(%rbp), %rcx
	addq	%rax, %rcx
	movslq	-4(%rbp), %rax
	movl	(%rcx,%rax,4), %eax
	movslq	-4(%rbp), %rcx
	movl	%eax, -64(%rbp,%rcx,4)
# %bb.110:                              # %for.inc833
                                        #   in Loop: Header=BB4_108 Depth=2
	movl	-4(%rbp), %eax
	addl	$1, %eax
	movl	%eax, -4(%rbp)
	jmp	.LBB4_108
.LBB4_111:                              # %for.end835
                                        #   in Loop: Header=BB4_106 Depth=1
	movl	-64(%rbp), %eax
	addl	-56(%rbp), %eax
	movl	%eax, -96(%rbp)
	movl	-64(%rbp), %eax
	subl	-56(%rbp), %eax
	movl	%eax, -92(%rbp)
	movl	-60(%rbp), %eax
	subl	-52(%rbp), %eax
	movl	%eax, -88(%rbp)
	movl	-60(%rbp), %eax
	addl	-52(%rbp), %eax
	movl	%eax, -84(%rbp)
	movl	$0, -4(%rbp)
.LBB4_112:                              # %for.cond852
                                        #   Parent Loop BB4_106 Depth=1
                                        # =>  This Inner Loop Header: Depth=2
	cmpl	$2, -4(%rbp)
	jge	.LBB4_124
# %bb.113:                              # %for.body855
                                        #   in Loop: Header=BB4_112 Depth=2
	movl	$3, %eax
	subl	-4(%rbp), %eax
	movl	%eax, -24(%rbp)
	cmpl	$4, -108(%rbp)
	jge	.LBB4_118
# %bb.114:                              # %if.then859
                                        #   in Loop: Header=BB4_112 Depth=2
	cmpl	$1, -124(%rbp)
	jne	.LBB4_116
# %bb.115:                              # %if.then862
                                        #   in Loop: Header=BB4_112 Depth=2
	movslq	-4(%rbp), %rax
	movl	-96(%rbp,%rax,4), %edi
	movslq	-24(%rbp), %rax
	addl	-96(%rbp,%rax,4), %edi
	movslq	-12(%rbp), %rax
	imulq	$384, %rax, %rax        # imm = 0x180
	movabsq	$InvLevelScale4x4Chroma_Intra, %rsi
	movq	%rsi, %rcx
	addq	%rax, %rcx
	movslq	-132(%rbp), %rax
	shlq	$6, %rax
	addq	%rax, %rcx
	imull	(%rcx), %edi
	movl	$3, %r9d
	movl	$3, %ecx
	subl	-108(%rbp), %ecx
                                        # kill: def $cl killed $ecx
	movl	$1, %r8d
	movl	$1, %edx
	shll	%cl, %edx
	addl	%edx, %edi
	movl	$4, %edx
	movl	$4, %ecx
	subl	-108(%rbp), %ecx
                                        # kill: def $cl killed $ecx
	sarl	%cl, %edi
	addl	$2, %edi
	sarl	$2, %edi
	movq	img, %rcx
	addq	$13112, %rcx            # imm = 0x3338
	movl	-8(%rbp), %eax
	shll	$2, %eax
	cltq
	shlq	$6, %rax
	addq	%rax, %rcx
	movl	-4(%rbp), %eax
	shll	$2, %eax
	cltq
	movl	%edi, (%rcx,%rax,4)
	movslq	-4(%rbp), %rax
	movl	-96(%rbp,%rax,4), %edi
	movslq	-24(%rbp), %rax
	subl	-96(%rbp,%rax,4), %edi
	movslq	-12(%rbp), %rax
	imulq	$384, %rax, %rax        # imm = 0x180
	addq	%rax, %rsi
	movslq	-132(%rbp), %rax
	shlq	$6, %rax
	addq	%rax, %rsi
	imull	(%rsi), %edi
	subl	-108(%rbp), %r9d
	movl	%r9d, %ecx
                                        # kill: def $cl killed $ecx
	shll	%cl, %r8d
	addl	%r8d, %edi
	subl	-108(%rbp), %edx
	movl	%edx, %ecx
                                        # kill: def $cl killed $ecx
	sarl	%cl, %edi
	addl	$2, %edi
	sarl	$2, %edi
	movq	img, %rax
	addq	$13112, %rax            # imm = 0x3338
	movl	-8(%rbp), %ecx
	shll	$2, %ecx
	movslq	%ecx, %rcx
	shlq	$6, %rcx
	addq	%rcx, %rax
	movl	-24(%rbp), %ecx
	shll	$2, %ecx
	movslq	%ecx, %rcx
	movl	%edi, (%rax,%rcx,4)
	jmp	.LBB4_117
.LBB4_116:                              # %if.else915
                                        #   in Loop: Header=BB4_112 Depth=2
	movslq	-4(%rbp), %rax
	movl	-96(%rbp,%rax,4), %edi
	movslq	-24(%rbp), %rax
	addl	-96(%rbp,%rax,4), %edi
	movslq	-12(%rbp), %rax
	imulq	$384, %rax, %rax        # imm = 0x180
	movabsq	$InvLevelScale4x4Chroma_Inter, %rsi
	movq	%rsi, %rcx
	addq	%rax, %rcx
	movslq	-132(%rbp), %rax
	shlq	$6, %rax
	addq	%rax, %rcx
	imull	(%rcx), %edi
	movl	$3, %r9d
	movl	$3, %ecx
	subl	-108(%rbp), %ecx
                                        # kill: def $cl killed $ecx
	movl	$1, %r8d
	movl	$1, %edx
	shll	%cl, %edx
	addl	%edx, %edi
	movl	$4, %edx
	movl	$4, %ecx
	subl	-108(%rbp), %ecx
                                        # kill: def $cl killed $ecx
	sarl	%cl, %edi
	addl	$2, %edi
	sarl	$2, %edi
	movq	img, %rcx
	addq	$13112, %rcx            # imm = 0x3338
	movl	-8(%rbp), %eax
	shll	$2, %eax
	cltq
	shlq	$6, %rax
	addq	%rax, %rcx
	movl	-4(%rbp), %eax
	shll	$2, %eax
	cltq
	movl	%edi, (%rcx,%rax,4)
	movslq	-4(%rbp), %rax
	movl	-96(%rbp,%rax,4), %edi
	movslq	-24(%rbp), %rax
	subl	-96(%rbp,%rax,4), %edi
	movslq	-12(%rbp), %rax
	imulq	$384, %rax, %rax        # imm = 0x180
	addq	%rax, %rsi
	movslq	-132(%rbp), %rax
	shlq	$6, %rax
	addq	%rax, %rsi
	imull	(%rsi), %edi
	subl	-108(%rbp), %r9d
	movl	%r9d, %ecx
                                        # kill: def $cl killed $ecx
	shll	%cl, %r8d
	addl	%r8d, %edi
	subl	-108(%rbp), %edx
	movl	%edx, %ecx
                                        # kill: def $cl killed $ecx
	sarl	%cl, %edi
	addl	$2, %edi
	sarl	$2, %edi
	movq	img, %rax
	addq	$13112, %rax            # imm = 0x3338
	movl	-8(%rbp), %ecx
	shll	$2, %ecx
	movslq	%ecx, %rcx
	shlq	$6, %rcx
	addq	%rcx, %rax
	movl	-24(%rbp), %ecx
	shll	$2, %ecx
	movslq	%ecx, %rcx
	movl	%edi, (%rax,%rcx,4)
.LBB4_117:                              # %if.end968
                                        #   in Loop: Header=BB4_112 Depth=2
	jmp	.LBB4_122
.LBB4_118:                              # %if.else969
                                        #   in Loop: Header=BB4_112 Depth=2
	cmpl	$1, -124(%rbp)
	jne	.LBB4_120
# %bb.119:                              # %if.then972
                                        #   in Loop: Header=BB4_112 Depth=2
	movslq	-4(%rbp), %rax
	movl	-96(%rbp,%rax,4), %edx
	movslq	-24(%rbp), %rax
	addl	-96(%rbp,%rax,4), %edx
	movslq	-12(%rbp), %rax
	imulq	$384, %rax, %rcx        # imm = 0x180
	movabsq	$InvLevelScale4x4Chroma_Intra, %rax
	movq	%rax, %rsi
	addq	%rcx, %rsi
	movslq	-132(%rbp), %rcx
	shlq	$6, %rcx
	addq	%rcx, %rsi
	imull	(%rsi), %edx
	movl	-108(%rbp), %ecx
	subl	$4, %ecx
                                        # kill: def $cl killed $ecx
	shll	%cl, %edx
	addl	$2, %edx
	sarl	$2, %edx
	movq	img, %rcx
	addq	$13112, %rcx            # imm = 0x3338
	movl	-8(%rbp), %esi
	shll	$2, %esi
	movslq	%esi, %rsi
	shlq	$6, %rsi
	addq	%rsi, %rcx
	movl	-4(%rbp), %esi
	shll	$2, %esi
	movslq	%esi, %rsi
	movl	%edx, (%rcx,%rsi,4)
	movslq	-4(%rbp), %rcx
	movl	-96(%rbp,%rcx,4), %edx
	movslq	-24(%rbp), %rcx
	subl	-96(%rbp,%rcx,4), %edx
	movslq	-12(%rbp), %rcx
	imulq	$384, %rcx, %rcx        # imm = 0x180
	addq	%rcx, %rax
	movslq	-132(%rbp), %rcx
	shlq	$6, %rcx
	addq	%rcx, %rax
	imull	(%rax), %edx
	movl	-108(%rbp), %ecx
	subl	$4, %ecx
                                        # kill: def $cl killed $ecx
	shll	%cl, %edx
	addl	$2, %edx
	sarl	$2, %edx
	movq	img, %rax
	addq	$13112, %rax            # imm = 0x3338
	movl	-8(%rbp), %ecx
	shll	$2, %ecx
	movslq	%ecx, %rcx
	shlq	$6, %rcx
	addq	%rcx, %rax
	movl	-24(%rbp), %ecx
	shll	$2, %ecx
	movslq	%ecx, %rcx
	movl	%edx, (%rax,%rcx,4)
	jmp	.LBB4_121
.LBB4_120:                              # %if.else1019
                                        #   in Loop: Header=BB4_112 Depth=2
	movslq	-4(%rbp), %rax
	movl	-96(%rbp,%rax,4), %edx
	movslq	-24(%rbp), %rax
	addl	-96(%rbp,%rax,4), %edx
	movslq	-12(%rbp), %rax
	imulq	$384, %rax, %rcx        # imm = 0x180
	movabsq	$InvLevelScale4x4Chroma_Inter, %rax
	movq	%rax, %rsi
	addq	%rcx, %rsi
	movslq	-132(%rbp), %rcx
	shlq	$6, %rcx
	addq	%rcx, %rsi
	imull	(%rsi), %edx
	movl	-108(%rbp), %ecx
	subl	$4, %ecx
                                        # kill: def $cl killed $ecx
	shll	%cl, %edx
	addl	$2, %edx
	sarl	$2, %edx
	movq	img, %rcx
	addq	$13112, %rcx            # imm = 0x3338
	movl	-8(%rbp), %esi
	shll	$2, %esi
	movslq	%esi, %rsi
	shlq	$6, %rsi
	addq	%rsi, %rcx
	movl	-4(%rbp), %esi
	shll	$2, %esi
	movslq	%esi, %rsi
	movl	%edx, (%rcx,%rsi,4)
	movslq	-4(%rbp), %rcx
	movl	-96(%rbp,%rcx,4), %edx
	movslq	-24(%rbp), %rcx
	subl	-96(%rbp,%rcx,4), %edx
	movslq	-12(%rbp), %rcx
	imulq	$384, %rcx, %rcx        # imm = 0x180
	addq	%rcx, %rax
	movslq	-132(%rbp), %rcx
	shlq	$6, %rcx
	addq	%rcx, %rax
	imull	(%rax), %edx
	movl	-108(%rbp), %ecx
	subl	$4, %ecx
                                        # kill: def $cl killed $ecx
	shll	%cl, %edx
	addl	$2, %edx
	sarl	$2, %edx
	movq	img, %rax
	addq	$13112, %rax            # imm = 0x3338
	movl	-8(%rbp), %ecx
	shll	$2, %ecx
	movslq	%ecx, %rcx
	shlq	$6, %rcx
	addq	%rcx, %rax
	movl	-24(%rbp), %ecx
	shll	$2, %ecx
	movslq	%ecx, %rcx
	movl	%edx, (%rax,%rcx,4)
.LBB4_121:                              # %if.end1066
                                        #   in Loop: Header=BB4_112 Depth=2
	jmp	.LBB4_122
.LBB4_122:                              # %if.end1067
                                        #   in Loop: Header=BB4_112 Depth=2
	jmp	.LBB4_123
.LBB4_123:                              # %for.inc1068
                                        #   in Loop: Header=BB4_112 Depth=2
	movl	-4(%rbp), %eax
	addl	$1, %eax
	movl	%eax, -4(%rbp)
	jmp	.LBB4_112
.LBB4_124:                              # %for.end1070
                                        #   in Loop: Header=BB4_106 Depth=1
	jmp	.LBB4_125
.LBB4_125:                              # %for.inc1071
                                        #   in Loop: Header=BB4_106 Depth=1
	movl	-8(%rbp), %eax
	addl	$1, %eax
	movl	%eax, -8(%rbp)
	jmp	.LBB4_106
.LBB4_126:                              # %for.end1073
	jmp	.LBB4_212
.LBB4_127:                              # %if.else1074
	cmpl	$3, -140(%rbp)
	jne	.LBB4_211
# %bb.128:                              # %if.then1077
	movl	$0, -4(%rbp)
.LBB4_129:                              # %for.cond1078
                                        # =>This Loop Header: Depth=1
                                        #     Child Loop BB4_131 Depth 2
	movl	-4(%rbp), %eax
	movq	img, %rcx
	cmpl	72712(%rcx), %eax
	jge	.LBB4_136
# %bb.130:                              # %for.body1082
                                        #   in Loop: Header=BB4_129 Depth=1
	movl	$0, -8(%rbp)
.LBB4_131:                              # %for.cond1083
                                        #   Parent Loop BB4_129 Depth=1
                                        # =>  This Inner Loop Header: Depth=2
	movl	-8(%rbp), %eax
	movq	img, %rcx
	cmpl	72708(%rcx), %eax
	jge	.LBB4_134
# %bb.132:                              # %for.body1087
                                        #   in Loop: Header=BB4_131 Depth=2
	movq	img, %rax
	addq	$13112, %rax            # imm = 0x3338
	movslq	-8(%rbp), %rcx
	shlq	$6, %rcx
	addq	%rcx, %rax
	movslq	-4(%rbp), %rcx
	movl	(%rax,%rcx,4), %eax
	movl	-8(%rbp), %ecx
	sarl	$2, %ecx
	movslq	%ecx, %rcx
	shlq	$4, %rcx
	leaq	-304(%rbp), %rdx
	addq	%rcx, %rdx
	movl	-4(%rbp), %ecx
	sarl	$2, %ecx
	movslq	%ecx, %rcx
	movl	%eax, (%rdx,%rcx,4)
# %bb.133:                              # %for.inc1099
                                        #   in Loop: Header=BB4_131 Depth=2
	movl	-8(%rbp), %eax
	addl	$4, %eax
	movl	%eax, -8(%rbp)
	jmp	.LBB4_131
.LBB4_134:                              # %for.end1101
                                        #   in Loop: Header=BB4_129 Depth=1
	jmp	.LBB4_135
.LBB4_135:                              # %for.inc1102
                                        #   in Loop: Header=BB4_129 Depth=1
	movl	-4(%rbp), %eax
	addl	$4, %eax
	movl	%eax, -4(%rbp)
	jmp	.LBB4_129
.LBB4_136:                              # %for.end1104
	movl	$0, -4(%rbp)
.LBB4_137:                              # %for.cond1105
                                        # =>This Loop Header: Depth=1
                                        #     Child Loop BB4_141 Depth 2
	xorl	%eax, %eax
	cmpl	$4, -4(%rbp)
	jge	.LBB4_139
# %bb.138:                              # %land.rhs1108
                                        #   in Loop: Header=BB4_137 Depth=1
	cmpl	$0, -104(%rbp)
	setne	%al
	xorb	$-1, %al
.LBB4_139:                              # %land.end1111
                                        #   in Loop: Header=BB4_137 Depth=1
	testb	$1, %al
	jne	.LBB4_140
	jmp	.LBB4_146
.LBB4_140:                              # %for.body1113
                                        #   in Loop: Header=BB4_137 Depth=1
	movl	$0, -8(%rbp)
.LBB4_141:                              # %for.cond1114
                                        #   Parent Loop BB4_137 Depth=1
                                        # =>  This Inner Loop Header: Depth=2
	cmpl	$2, -8(%rbp)
	jge	.LBB4_144
# %bb.142:                              # %for.body1117
                                        #   in Loop: Header=BB4_141 Depth=2
	movl	$3, %eax
	subl	-8(%rbp), %eax
	movl	%eax, -120(%rbp)
	movslq	-8(%rbp), %rax
	shlq	$4, %rax
	leaq	-304(%rbp), %rcx
	movq	%rcx, %rdx
	addq	%rax, %rdx
	movslq	-4(%rbp), %rax
	movl	(%rdx,%rax,4), %eax
	movslq	-120(%rbp), %rdx
	shlq	$4, %rdx
	movq	%rcx, %rsi
	addq	%rdx, %rsi
	movslq	-4(%rbp), %rdx
	addl	(%rsi,%rdx,4), %eax
	movslq	-8(%rbp), %rdx
	movl	%eax, -64(%rbp,%rdx,4)
	movslq	-8(%rbp), %rax
	shlq	$4, %rax
	movq	%rcx, %rdx
	addq	%rax, %rdx
	movslq	-4(%rbp), %rax
	movl	(%rdx,%rax,4), %eax
	movslq	-120(%rbp), %rdx
	shlq	$4, %rdx
	addq	%rdx, %rcx
	movslq	-4(%rbp), %rdx
	subl	(%rcx,%rdx,4), %eax
	movslq	-120(%rbp), %rcx
	movl	%eax, -64(%rbp,%rcx,4)
# %bb.143:                              # %for.inc1141
                                        #   in Loop: Header=BB4_141 Depth=2
	movl	-8(%rbp), %eax
	addl	$1, %eax
	movl	%eax, -8(%rbp)
	jmp	.LBB4_141
.LBB4_144:                              # %for.end1143
                                        #   in Loop: Header=BB4_137 Depth=1
	movl	-64(%rbp), %eax
	addl	-60(%rbp), %eax
	movslq	-4(%rbp), %rcx
	movl	%eax, -304(%rbp,%rcx,4)
	movl	-64(%rbp), %eax
	subl	-60(%rbp), %eax
	movslq	-4(%rbp), %rcx
	movl	%eax, -272(%rbp,%rcx,4)
	movl	-52(%rbp), %eax
	addl	-56(%rbp), %eax
	movslq	-4(%rbp), %rcx
	movl	%eax, -288(%rbp,%rcx,4)
	movl	-52(%rbp), %eax
	subl	-56(%rbp), %eax
	movslq	-4(%rbp), %rcx
	movl	%eax, -256(%rbp,%rcx,4)
# %bb.145:                              # %for.inc1168
                                        #   in Loop: Header=BB4_137 Depth=1
	movl	-4(%rbp), %eax
	addl	$1, %eax
	movl	%eax, -4(%rbp)
	jmp	.LBB4_137
.LBB4_146:                              # %for.end1170
	movl	$0, -8(%rbp)
.LBB4_147:                              # %for.cond1171
                                        # =>This Loop Header: Depth=1
                                        #     Child Loop BB4_151 Depth 2
	xorl	%eax, %eax
	cmpl	$4, -8(%rbp)
	jge	.LBB4_149
# %bb.148:                              # %land.rhs1174
                                        #   in Loop: Header=BB4_147 Depth=1
	cmpl	$0, -104(%rbp)
	setne	%al
	xorb	$-1, %al
.LBB4_149:                              # %land.end1177
                                        #   in Loop: Header=BB4_147 Depth=1
	testb	$1, %al
	jne	.LBB4_150
	jmp	.LBB4_156
.LBB4_150:                              # %for.body1179
                                        #   in Loop: Header=BB4_147 Depth=1
	movl	$0, -4(%rbp)
.LBB4_151:                              # %for.cond1180
                                        #   Parent Loop BB4_147 Depth=1
                                        # =>  This Inner Loop Header: Depth=2
	cmpl	$2, -4(%rbp)
	jge	.LBB4_154
# %bb.152:                              # %for.body1183
                                        #   in Loop: Header=BB4_151 Depth=2
	movl	$3, %eax
	subl	-4(%rbp), %eax
	movl	%eax, -24(%rbp)
	movslq	-8(%rbp), %rax
	shlq	$4, %rax
	leaq	-304(%rbp), %rcx
	movq	%rcx, %rdx
	addq	%rax, %rdx
	movslq	-4(%rbp), %rax
	movl	(%rdx,%rax,4), %eax
	movslq	-8(%rbp), %rdx
	shlq	$4, %rdx
	movq	%rcx, %rsi
	addq	%rdx, %rsi
	movslq	-24(%rbp), %rdx
	addl	(%rsi,%rdx,4), %eax
	movslq	-4(%rbp), %rdx
	movl	%eax, -64(%rbp,%rdx,4)
	movslq	-8(%rbp), %rax
	shlq	$4, %rax
	movq	%rcx, %rdx
	addq	%rax, %rdx
	movslq	-4(%rbp), %rax
	movl	(%rdx,%rax,4), %eax
	movslq	-8(%rbp), %rdx
	shlq	$4, %rdx
	addq	%rdx, %rcx
	movslq	-24(%rbp), %rdx
	subl	(%rcx,%rdx,4), %eax
	movslq	-24(%rbp), %rcx
	movl	%eax, -64(%rbp,%rcx,4)
# %bb.153:                              # %for.inc1207
                                        #   in Loop: Header=BB4_151 Depth=2
	movl	-4(%rbp), %eax
	addl	$1, %eax
	movl	%eax, -4(%rbp)
	jmp	.LBB4_151
.LBB4_154:                              # %for.end1209
                                        #   in Loop: Header=BB4_147 Depth=1
	movl	-64(%rbp), %ecx
	addl	-60(%rbp), %ecx
	sarl	$1, %ecx
	movslq	-8(%rbp), %rdx
	shlq	$4, %rdx
	leaq	-304(%rbp), %rax
	movq	%rax, %rsi
	addq	%rdx, %rsi
	movl	%ecx, (%rsi)
	movl	-64(%rbp), %ecx
	subl	-60(%rbp), %ecx
	sarl	$1, %ecx
	movslq	-8(%rbp), %rdx
	shlq	$4, %rdx
	movq	%rax, %rsi
	addq	%rdx, %rsi
	movl	%ecx, 8(%rsi)
	movl	-52(%rbp), %ecx
	addl	-56(%rbp), %ecx
	sarl	$1, %ecx
	movslq	-8(%rbp), %rdx
	shlq	$4, %rdx
	movq	%rax, %rsi
	addq	%rdx, %rsi
	movl	%ecx, 4(%rsi)
	movl	-52(%rbp), %ecx
	subl	-56(%rbp), %ecx
	sarl	$1, %ecx
	movslq	-8(%rbp), %rdx
	shlq	$4, %rdx
	addq	%rdx, %rax
	movl	%ecx, 12(%rax)
# %bb.155:                              # %for.inc1238
                                        #   in Loop: Header=BB4_147 Depth=1
	movl	-8(%rbp), %eax
	addl	$1, %eax
	movl	%eax, -8(%rbp)
	jmp	.LBB4_147
.LBB4_156:                              # %for.end1240
	movl	$-1, -100(%rbp)
	movl	$0, -68(%rbp)
	movl	$0, -28(%rbp)
.LBB4_157:                              # %for.cond1241
                                        # =>This Inner Loop Header: Depth=1
	cmpl	$16, -28(%rbp)
	jge	.LBB4_173
# %bb.158:                              # %for.body1244
                                        #   in Loop: Header=BB4_157 Depth=1
	movslq	-28(%rbp), %rax
	movzbl	SNGL_SCAN(,%rax,2), %eax
	movl	%eax, -8(%rbp)
	movslq	-28(%rbp), %rax
	movzbl	SNGL_SCAN+1(,%rax,2), %eax
	movl	%eax, -4(%rbp)
	movl	-100(%rbp), %eax
	addl	$1, %eax
	movl	%eax, -100(%rbp)
	cmpl	$0, -104(%rbp)
	je	.LBB4_160
# %bb.159:                              # %if.then1255
                                        #   in Loop: Header=BB4_157 Depth=1
	movslq	-8(%rbp), %rax
	shlq	$4, %rax
	leaq	-304(%rbp), %rcx
	addq	%rax, %rcx
	movslq	-4(%rbp), %rax
	movl	(%rcx,%rax,4), %edi
	callq	abs
	movl	%eax, -36(%rbp)
	jmp	.LBB4_164
.LBB4_160:                              # %if.else1261
                                        #   in Loop: Header=BB4_157 Depth=1
	cmpl	$1, -124(%rbp)
	jne	.LBB4_162
# %bb.161:                              # %if.then1264
                                        #   in Loop: Header=BB4_157 Depth=1
	movslq	-8(%rbp), %rax
	shlq	$4, %rax
	leaq	-304(%rbp), %rcx
	addq	%rax, %rcx
	movslq	-4(%rbp), %rax
	movl	(%rcx,%rax,4), %edi
	callq	abs
	movslq	-12(%rbp), %rcx
	imulq	$384, %rcx, %rcx        # imm = 0x180
	movabsq	$LevelScale4x4Chroma_Intra, %rdx
	addq	%rcx, %rdx
	movslq	-76(%rbp), %rcx
	shlq	$6, %rcx
	addq	%rcx, %rdx
	imull	(%rdx), %eax
	movslq	-12(%rbp), %rcx
	imulq	$832, %rcx, %rcx        # imm = 0x340
	movabsq	$LevelOffset4x4Chroma_Intra, %rdx
	addq	%rcx, %rdx
	movslq	-32(%rbp), %rcx
	shlq	$6, %rcx
	addq	%rcx, %rdx
	movl	(%rdx), %ecx
	shll	$1, %ecx
	addl	%ecx, %eax
	movl	-180(%rbp), %ecx
	addl	$1, %ecx
                                        # kill: def $cl killed $ecx
	sarl	%cl, %eax
	movl	%eax, -36(%rbp)
	jmp	.LBB4_163
.LBB4_162:                              # %if.else1287
                                        #   in Loop: Header=BB4_157 Depth=1
	movslq	-8(%rbp), %rax
	shlq	$4, %rax
	leaq	-304(%rbp), %rcx
	addq	%rax, %rcx
	movslq	-4(%rbp), %rax
	movl	(%rcx,%rax,4), %edi
	callq	abs
	movslq	-12(%rbp), %rcx
	imulq	$384, %rcx, %rcx        # imm = 0x180
	movabsq	$LevelScale4x4Chroma_Inter, %rdx
	addq	%rcx, %rdx
	movslq	-76(%rbp), %rcx
	shlq	$6, %rcx
	addq	%rcx, %rdx
	imull	(%rdx), %eax
	movslq	-12(%rbp), %rcx
	imulq	$832, %rcx, %rcx        # imm = 0x340
	movabsq	$LevelOffset4x4Chroma_Inter, %rdx
	addq	%rcx, %rdx
	movslq	-32(%rbp), %rcx
	shlq	$6, %rcx
	addq	%rcx, %rdx
	movl	(%rdx), %ecx
	shll	$1, %ecx
	addl	%ecx, %eax
	movl	-180(%rbp), %ecx
	addl	$1, %ecx
                                        # kill: def $cl killed $ecx
	sarl	%cl, %eax
	movl	%eax, -36(%rbp)
.LBB4_163:                              # %if.end1310
                                        #   in Loop: Header=BB4_157 Depth=1
	jmp	.LBB4_164
.LBB4_164:                              # %if.end1311
                                        #   in Loop: Header=BB4_157 Depth=1
	cmpl	$0, -36(%rbp)
	je	.LBB4_169
# %bb.165:                              # %if.then1314
                                        #   in Loop: Header=BB4_157 Depth=1
	movl	-12(%rbp), %eax
	shll	$4, %eax
	movl	%eax, %ecx
                                        # kill: def $cl killed $rcx
	movl	$4294901760, %eax       # imm = 0xFFFF0000
	shlq	%cl, %rax
	movq	-192(%rbp), %rcx
	orq	464(%rcx), %rax
	movq	%rax, 464(%rcx)
	movl	$1, %eax
	cmpl	-136(%rbp), %eax
	jle	.LBB4_167
# %bb.166:                              # %cond.true1321
                                        #   in Loop: Header=BB4_157 Depth=1
	movl	$1, %eax
	jmp	.LBB4_168
.LBB4_167:                              # %cond.false1322
                                        #   in Loop: Header=BB4_157 Depth=1
	movl	-136(%rbp), %eax
.LBB4_168:                              # %cond.end1323
                                        #   in Loop: Header=BB4_157 Depth=1
	movl	%eax, -136(%rbp)
	movl	$1, -204(%rbp)
	movl	-36(%rbp), %edi
	movslq	-8(%rbp), %rax
	shlq	$4, %rax
	leaq	-304(%rbp), %rcx
	addq	%rax, %rcx
	movslq	-4(%rbp), %rax
	movl	(%rcx,%rax,4), %esi
	callq	sign
	movq	-224(%rbp), %rcx
	movslq	-68(%rbp), %rdx
	movl	%eax, (%rcx,%rdx,4)
	movl	-100(%rbp), %eax
	movq	-376(%rbp), %rcx
	movslq	-68(%rbp), %rdx
	movl	%eax, (%rcx,%rdx,4)
	movl	-68(%rbp), %eax
	addl	$1, %eax
	movl	%eax, -68(%rbp)
	movl	$-1, -100(%rbp)
.LBB4_169:                              # %if.end1335
                                        #   in Loop: Header=BB4_157 Depth=1
	cmpl	$0, -104(%rbp)
	jne	.LBB4_171
# %bb.170:                              # %if.then1337
                                        #   in Loop: Header=BB4_157 Depth=1
	movl	-36(%rbp), %edi
	movslq	-8(%rbp), %rax
	shlq	$4, %rax
	leaq	-304(%rbp), %rcx
	addq	%rax, %rcx
	movslq	-4(%rbp), %rax
	movl	(%rcx,%rax,4), %esi
	callq	sign
	movslq	-8(%rbp), %rcx
	shlq	$4, %rcx
	leaq	-304(%rbp), %rdx
	addq	%rcx, %rdx
	movslq	-4(%rbp), %rcx
	movl	%eax, (%rdx,%rcx,4)
.LBB4_171:                              # %if.end1347
                                        #   in Loop: Header=BB4_157 Depth=1
	jmp	.LBB4_172
.LBB4_172:                              # %for.inc1348
                                        #   in Loop: Header=BB4_157 Depth=1
	movl	-28(%rbp), %eax
	addl	$1, %eax
	movl	%eax, -28(%rbp)
	jmp	.LBB4_157
.LBB4_173:                              # %for.end1350
	movq	-224(%rbp), %rax
	movslq	-68(%rbp), %rcx
	movl	$0, (%rax,%rcx,4)
	movl	$0, -4(%rbp)
.LBB4_174:                              # %for.cond1353
                                        # =>This Loop Header: Depth=1
                                        #     Child Loop BB4_178 Depth 2
                                        #     Child Loop BB4_182 Depth 2
	xorl	%eax, %eax
	cmpl	$4, -4(%rbp)
	jge	.LBB4_176
# %bb.175:                              # %land.rhs1356
                                        #   in Loop: Header=BB4_174 Depth=1
	cmpl	$0, -104(%rbp)
	setne	%al
	xorb	$-1, %al
.LBB4_176:                              # %land.end1359
                                        #   in Loop: Header=BB4_174 Depth=1
	testb	$1, %al
	jne	.LBB4_177
	jmp	.LBB4_187
.LBB4_177:                              # %for.body1361
                                        #   in Loop: Header=BB4_174 Depth=1
	movl	$0, -8(%rbp)
.LBB4_178:                              # %for.cond1362
                                        #   Parent Loop BB4_174 Depth=1
                                        # =>  This Inner Loop Header: Depth=2
	cmpl	$4, -8(%rbp)
	jge	.LBB4_181
# %bb.179:                              # %for.body1365
                                        #   in Loop: Header=BB4_178 Depth=2
	movslq	-8(%rbp), %rax
	shlq	$4, %rax
	leaq	-304(%rbp), %rcx
	addq	%rax, %rcx
	movslq	-4(%rbp), %rax
	movl	(%rcx,%rax,4), %eax
	movslq	-8(%rbp), %rcx
	movl	%eax, -64(%rbp,%rcx,4)
# %bb.180:                              # %for.inc1372
                                        #   in Loop: Header=BB4_178 Depth=2
	movl	-8(%rbp), %eax
	addl	$1, %eax
	movl	%eax, -8(%rbp)
	jmp	.LBB4_178
.LBB4_181:                              # %for.end1374
                                        #   in Loop: Header=BB4_174 Depth=1
	movl	-64(%rbp), %eax
	addl	-56(%rbp), %eax
	movl	%eax, -96(%rbp)
	movl	-64(%rbp), %eax
	subl	-56(%rbp), %eax
	movl	%eax, -92(%rbp)
	movl	-60(%rbp), %eax
	subl	-52(%rbp), %eax
	movl	%eax, -88(%rbp)
	movl	-60(%rbp), %eax
	addl	-52(%rbp), %eax
	movl	%eax, -84(%rbp)
	movl	$0, -8(%rbp)
.LBB4_182:                              # %for.cond1391
                                        #   Parent Loop BB4_174 Depth=1
                                        # =>  This Inner Loop Header: Depth=2
	cmpl	$2, -8(%rbp)
	jge	.LBB4_185
# %bb.183:                              # %for.body1394
                                        #   in Loop: Header=BB4_182 Depth=2
	movl	$3, %eax
	subl	-8(%rbp), %eax
	movl	%eax, -120(%rbp)
	movslq	-8(%rbp), %rax
	movl	-96(%rbp,%rax,4), %eax
	movslq	-120(%rbp), %rcx
	addl	-96(%rbp,%rcx,4), %eax
	movslq	-8(%rbp), %rcx
	shlq	$4, %rcx
	leaq	-304(%rbp), %rdx
	movq	%rdx, %rsi
	addq	%rcx, %rsi
	movslq	-4(%rbp), %rcx
	movl	%eax, (%rsi,%rcx,4)
	movslq	-8(%rbp), %rax
	movl	-96(%rbp,%rax,4), %eax
	movslq	-120(%rbp), %rcx
	subl	-96(%rbp,%rcx,4), %eax
	movslq	-120(%rbp), %rcx
	shlq	$4, %rcx
	addq	%rcx, %rdx
	movslq	-4(%rbp), %rcx
	movl	%eax, (%rdx,%rcx,4)
# %bb.184:                              # %for.inc1414
                                        #   in Loop: Header=BB4_182 Depth=2
	movl	-8(%rbp), %eax
	addl	$1, %eax
	movl	%eax, -8(%rbp)
	jmp	.LBB4_182
.LBB4_185:                              # %for.end1416
                                        #   in Loop: Header=BB4_174 Depth=1
	jmp	.LBB4_186
.LBB4_186:                              # %for.inc1417
                                        #   in Loop: Header=BB4_174 Depth=1
	movl	-4(%rbp), %eax
	addl	$1, %eax
	movl	%eax, -4(%rbp)
	jmp	.LBB4_174
.LBB4_187:                              # %for.end1419
	movl	$0, -8(%rbp)
.LBB4_188:                              # %for.cond1420
                                        # =>This Loop Header: Depth=1
                                        #     Child Loop BB4_192 Depth 2
                                        #     Child Loop BB4_196 Depth 2
	xorl	%eax, %eax
	cmpl	$4, -8(%rbp)
	jge	.LBB4_190
# %bb.189:                              # %land.rhs1423
                                        #   in Loop: Header=BB4_188 Depth=1
	cmpl	$0, -104(%rbp)
	setne	%al
	xorb	$-1, %al
.LBB4_190:                              # %land.end1426
                                        #   in Loop: Header=BB4_188 Depth=1
	testb	$1, %al
	jne	.LBB4_191
	jmp	.LBB4_210
.LBB4_191:                              # %for.body1428
                                        #   in Loop: Header=BB4_188 Depth=1
	movl	$0, -4(%rbp)
.LBB4_192:                              # %for.cond1429
                                        #   Parent Loop BB4_188 Depth=1
                                        # =>  This Inner Loop Header: Depth=2
	cmpl	$4, -4(%rbp)
	jge	.LBB4_195
# %bb.193:                              # %for.body1432
                                        #   in Loop: Header=BB4_192 Depth=2
	movslq	-8(%rbp), %rax
	shlq	$4, %rax
	leaq	-304(%rbp), %rcx
	addq	%rax, %rcx
	movslq	-4(%rbp), %rax
	movl	(%rcx,%rax,4), %eax
	movslq	-4(%rbp), %rcx
	movl	%eax, -64(%rbp,%rcx,4)
# %bb.194:                              # %for.inc1439
                                        #   in Loop: Header=BB4_192 Depth=2
	movl	-4(%rbp), %eax
	addl	$1, %eax
	movl	%eax, -4(%rbp)
	jmp	.LBB4_192
.LBB4_195:                              # %for.end1441
                                        #   in Loop: Header=BB4_188 Depth=1
	movl	-64(%rbp), %eax
	addl	-56(%rbp), %eax
	movl	%eax, -96(%rbp)
	movl	-64(%rbp), %eax
	subl	-56(%rbp), %eax
	movl	%eax, -92(%rbp)
	movl	-60(%rbp), %eax
	subl	-52(%rbp), %eax
	movl	%eax, -88(%rbp)
	movl	-60(%rbp), %eax
	addl	-52(%rbp), %eax
	movl	%eax, -84(%rbp)
	movl	$0, -4(%rbp)
.LBB4_196:                              # %for.cond1458
                                        #   Parent Loop BB4_188 Depth=1
                                        # =>  This Inner Loop Header: Depth=2
	cmpl	$2, -4(%rbp)
	jge	.LBB4_208
# %bb.197:                              # %for.body1461
                                        #   in Loop: Header=BB4_196 Depth=2
	movl	$3, %eax
	subl	-4(%rbp), %eax
	movl	%eax, -24(%rbp)
	cmpl	$4, -32(%rbp)
	jge	.LBB4_202
# %bb.198:                              # %if.then1465
                                        #   in Loop: Header=BB4_196 Depth=2
	cmpl	$1, -124(%rbp)
	jne	.LBB4_200
# %bb.199:                              # %if.then1468
                                        #   in Loop: Header=BB4_196 Depth=2
	movslq	-4(%rbp), %rax
	movl	-96(%rbp,%rax,4), %edi
	movslq	-24(%rbp), %rax
	addl	-96(%rbp,%rax,4), %edi
	movslq	-12(%rbp), %rax
	imulq	$384, %rax, %rax        # imm = 0x180
	movabsq	$InvLevelScale4x4Chroma_Intra, %rsi
	movq	%rsi, %rcx
	addq	%rax, %rcx
	movslq	-76(%rbp), %rax
	shlq	$6, %rax
	addq	%rax, %rcx
	imull	(%rcx), %edi
	movl	$3, %r9d
	movl	$3, %ecx
	subl	-32(%rbp), %ecx
                                        # kill: def $cl killed $ecx
	movl	$1, %r8d
	movl	$1, %edx
	shll	%cl, %edx
	addl	%edx, %edi
	movl	$4, %edx
	movl	$4, %ecx
	subl	-32(%rbp), %ecx
                                        # kill: def $cl killed $ecx
	sarl	%cl, %edi
	addl	$2, %edi
	sarl	$2, %edi
	movq	img, %rcx
	addq	$13112, %rcx            # imm = 0x3338
	movl	-8(%rbp), %eax
	shll	$2, %eax
	cltq
	shlq	$6, %rax
	addq	%rax, %rcx
	movl	-4(%rbp), %eax
	shll	$2, %eax
	cltq
	movl	%edi, (%rcx,%rax,4)
	movslq	-4(%rbp), %rax
	movl	-96(%rbp,%rax,4), %edi
	movslq	-24(%rbp), %rax
	subl	-96(%rbp,%rax,4), %edi
	movslq	-12(%rbp), %rax
	imulq	$384, %rax, %rax        # imm = 0x180
	addq	%rax, %rsi
	movslq	-76(%rbp), %rax
	shlq	$6, %rax
	addq	%rax, %rsi
	imull	(%rsi), %edi
	subl	-32(%rbp), %r9d
	movl	%r9d, %ecx
                                        # kill: def $cl killed $ecx
	shll	%cl, %r8d
	addl	%r8d, %edi
	subl	-32(%rbp), %edx
	movl	%edx, %ecx
                                        # kill: def $cl killed $ecx
	sarl	%cl, %edi
	addl	$2, %edi
	sarl	$2, %edi
	movq	img, %rax
	addq	$13112, %rax            # imm = 0x3338
	movl	-8(%rbp), %ecx
	shll	$2, %ecx
	movslq	%ecx, %rcx
	shlq	$6, %rcx
	addq	%rcx, %rax
	movl	-24(%rbp), %ecx
	shll	$2, %ecx
	movslq	%ecx, %rcx
	movl	%edi, (%rax,%rcx,4)
	jmp	.LBB4_201
.LBB4_200:                              # %if.else1521
                                        #   in Loop: Header=BB4_196 Depth=2
	movslq	-4(%rbp), %rax
	movl	-96(%rbp,%rax,4), %edi
	movslq	-24(%rbp), %rax
	addl	-96(%rbp,%rax,4), %edi
	movslq	-12(%rbp), %rax
	imulq	$384, %rax, %rax        # imm = 0x180
	movabsq	$InvLevelScale4x4Chroma_Inter, %rsi
	movq	%rsi, %rcx
	addq	%rax, %rcx
	movslq	-76(%rbp), %rax
	shlq	$6, %rax
	addq	%rax, %rcx
	imull	(%rcx), %edi
	movl	$3, %r9d
	movl	$3, %ecx
	subl	-32(%rbp), %ecx
                                        # kill: def $cl killed $ecx
	movl	$1, %r8d
	movl	$1, %edx
	shll	%cl, %edx
	addl	%edx, %edi
	movl	$4, %edx
	movl	$4, %ecx
	subl	-32(%rbp), %ecx
                                        # kill: def $cl killed $ecx
	sarl	%cl, %edi
	addl	$2, %edi
	sarl	$2, %edi
	movq	img, %rcx
	addq	$13112, %rcx            # imm = 0x3338
	movl	-8(%rbp), %eax
	shll	$2, %eax
	cltq
	shlq	$6, %rax
	addq	%rax, %rcx
	movl	-4(%rbp), %eax
	shll	$2, %eax
	cltq
	movl	%edi, (%rcx,%rax,4)
	movslq	-4(%rbp), %rax
	movl	-96(%rbp,%rax,4), %edi
	movslq	-24(%rbp), %rax
	subl	-96(%rbp,%rax,4), %edi
	movslq	-12(%rbp), %rax
	imulq	$384, %rax, %rax        # imm = 0x180
	addq	%rax, %rsi
	movslq	-76(%rbp), %rax
	shlq	$6, %rax
	addq	%rax, %rsi
	imull	(%rsi), %edi
	subl	-32(%rbp), %r9d
	movl	%r9d, %ecx
                                        # kill: def $cl killed $ecx
	shll	%cl, %r8d
	addl	%r8d, %edi
	subl	-32(%rbp), %edx
	movl	%edx, %ecx
                                        # kill: def $cl killed $ecx
	sarl	%cl, %edi
	addl	$2, %edi
	sarl	$2, %edi
	movq	img, %rax
	addq	$13112, %rax            # imm = 0x3338
	movl	-8(%rbp), %ecx
	shll	$2, %ecx
	movslq	%ecx, %rcx
	shlq	$6, %rcx
	addq	%rcx, %rax
	movl	-24(%rbp), %ecx
	shll	$2, %ecx
	movslq	%ecx, %rcx
	movl	%edi, (%rax,%rcx,4)
.LBB4_201:                              # %if.end1574
                                        #   in Loop: Header=BB4_196 Depth=2
	jmp	.LBB4_206
.LBB4_202:                              # %if.else1575
                                        #   in Loop: Header=BB4_196 Depth=2
	cmpl	$1, -124(%rbp)
	jne	.LBB4_204
# %bb.203:                              # %if.then1578
                                        #   in Loop: Header=BB4_196 Depth=2
	movslq	-4(%rbp), %rax
	movl	-96(%rbp,%rax,4), %edx
	movslq	-24(%rbp), %rax
	addl	-96(%rbp,%rax,4), %edx
	movslq	-12(%rbp), %rax
	imulq	$384, %rax, %rcx        # imm = 0x180
	movabsq	$InvLevelScale4x4Chroma_Intra, %rax
	movq	%rax, %rsi
	addq	%rcx, %rsi
	movslq	-76(%rbp), %rcx
	shlq	$6, %rcx
	addq	%rcx, %rsi
	imull	(%rsi), %edx
	movl	-32(%rbp), %ecx
	subl	$4, %ecx
                                        # kill: def $cl killed $ecx
	shll	%cl, %edx
	addl	$2, %edx
	sarl	$2, %edx
	movq	img, %rcx
	addq	$13112, %rcx            # imm = 0x3338
	movl	-8(%rbp), %esi
	shll	$2, %esi
	movslq	%esi, %rsi
	shlq	$6, %rsi
	addq	%rsi, %rcx
	movl	-4(%rbp), %esi
	shll	$2, %esi
	movslq	%esi, %rsi
	movl	%edx, (%rcx,%rsi,4)
	movslq	-4(%rbp), %rcx
	movl	-96(%rbp,%rcx,4), %edx
	movslq	-24(%rbp), %rcx
	subl	-96(%rbp,%rcx,4), %edx
	movslq	-12(%rbp), %rcx
	imulq	$384, %rcx, %rcx        # imm = 0x180
	addq	%rcx, %rax
	movslq	-76(%rbp), %rcx
	shlq	$6, %rcx
	addq	%rcx, %rax
	imull	(%rax), %edx
	movl	-32(%rbp), %ecx
	subl	$4, %ecx
                                        # kill: def $cl killed $ecx
	shll	%cl, %edx
	addl	$2, %edx
	sarl	$2, %edx
	movq	img, %rax
	addq	$13112, %rax            # imm = 0x3338
	movl	-8(%rbp), %ecx
	shll	$2, %ecx
	movslq	%ecx, %rcx
	shlq	$6, %rcx
	addq	%rcx, %rax
	movl	-24(%rbp), %ecx
	shll	$2, %ecx
	movslq	%ecx, %rcx
	movl	%edx, (%rax,%rcx,4)
	jmp	.LBB4_205
.LBB4_204:                              # %if.else1625
                                        #   in Loop: Header=BB4_196 Depth=2
	movslq	-4(%rbp), %rax
	movl	-96(%rbp,%rax,4), %edx
	movslq	-24(%rbp), %rax
	addl	-96(%rbp,%rax,4), %edx
	movslq	-12(%rbp), %rax
	imulq	$384, %rax, %rcx        # imm = 0x180
	movabsq	$InvLevelScale4x4Chroma_Inter, %rax
	movq	%rax, %rsi
	addq	%rcx, %rsi
	movslq	-76(%rbp), %rcx
	shlq	$6, %rcx
	addq	%rcx, %rsi
	imull	(%rsi), %edx
	movl	-32(%rbp), %ecx
	subl	$4, %ecx
                                        # kill: def $cl killed $ecx
	shll	%cl, %edx
	addl	$2, %edx
	sarl	$2, %edx
	movq	img, %rcx
	addq	$13112, %rcx            # imm = 0x3338
	movl	-8(%rbp), %esi
	shll	$2, %esi
	movslq	%esi, %rsi
	shlq	$6, %rsi
	addq	%rsi, %rcx
	movl	-4(%rbp), %esi
	shll	$2, %esi
	movslq	%esi, %rsi
	movl	%edx, (%rcx,%rsi,4)
	movslq	-4(%rbp), %rcx
	movl	-96(%rbp,%rcx,4), %edx
	movslq	-24(%rbp), %rcx
	subl	-96(%rbp,%rcx,4), %edx
	movslq	-12(%rbp), %rcx
	imulq	$384, %rcx, %rcx        # imm = 0x180
	addq	%rcx, %rax
	movslq	-76(%rbp), %rcx
	shlq	$6, %rcx
	addq	%rcx, %rax
	imull	(%rax), %edx
	movl	-32(%rbp), %ecx
	subl	$4, %ecx
                                        # kill: def $cl killed $ecx
	shll	%cl, %edx
	addl	$2, %edx
	sarl	$2, %edx
	movq	img, %rax
	addq	$13112, %rax            # imm = 0x3338
	movl	-8(%rbp), %ecx
	shll	$2, %ecx
	movslq	%ecx, %rcx
	shlq	$6, %rcx
	addq	%rcx, %rax
	movl	-24(%rbp), %ecx
	shll	$2, %ecx
	movslq	%ecx, %rcx
	movl	%edx, (%rax,%rcx,4)
.LBB4_205:                              # %if.end1672
                                        #   in Loop: Header=BB4_196 Depth=2
	jmp	.LBB4_206
.LBB4_206:                              # %if.end1673
                                        #   in Loop: Header=BB4_196 Depth=2
	jmp	.LBB4_207
.LBB4_207:                              # %for.inc1674
                                        #   in Loop: Header=BB4_196 Depth=2
	movl	-4(%rbp), %eax
	addl	$1, %eax
	movl	%eax, -4(%rbp)
	jmp	.LBB4_196
.LBB4_208:                              # %for.end1676
                                        #   in Loop: Header=BB4_188 Depth=1
	jmp	.LBB4_209
.LBB4_209:                              # %for.inc1677
                                        #   in Loop: Header=BB4_188 Depth=1
	movl	-8(%rbp), %eax
	addl	$1, %eax
	movl	%eax, -8(%rbp)
	jmp	.LBB4_188
.LBB4_210:                              # %for.end1679
	jmp	.LBB4_211
.LBB4_211:                              # %if.end1680
	jmp	.LBB4_212
.LBB4_212:                              # %if.end1681
	jmp	.LBB4_213
.LBB4_213:                              # %if.end1682
	movl	$0, -200(%rbp)
	movl	$0, -212(%rbp)
	movl	$0, -112(%rbp)
.LBB4_214:                              # %for.cond1683
                                        # =>This Loop Header: Depth=1
                                        #     Child Loop BB4_216 Depth 2
                                        #       Child Loop BB4_218 Depth 3
	movl	-112(%rbp), %ecx
	movq	img, %rax
	movl	72692(%rax), %eax
	cltd
	movl	$2, %esi
	idivl	%esi
	cmpl	%eax, %ecx
	jge	.LBB4_256
# %bb.215:                              # %for.body1688
                                        #   in Loop: Header=BB4_214 Depth=1
	movl	$0, -116(%rbp)
.LBB4_216:                              # %for.cond1689
                                        #   Parent Loop BB4_214 Depth=1
                                        # =>  This Loop Header: Depth=2
                                        #       Child Loop BB4_218 Depth 3
	cmpl	$4, -116(%rbp)
	jge	.LBB4_254
# %bb.217:                              # %for.body1692
                                        #   in Loop: Header=BB4_216 Depth=2
	movslq	-140(%rbp), %rax
	shlq	$4, %rax
	movabsq	$hor_offset, %rcx
	addq	%rax, %rcx
	movslq	-112(%rbp), %rax
	shlq	$2, %rax
	addq	%rax, %rcx
	movslq	-116(%rbp), %rax
	movzbl	(%rcx,%rax), %eax
	movl	%eax, -16(%rbp)
	movslq	-140(%rbp), %rax
	shlq	$4, %rax
	movabsq	$ver_offset, %rcx
	addq	%rax, %rcx
	movslq	-112(%rbp), %rax
	shlq	$2, %rax
	addq	%rax, %rcx
	movslq	-116(%rbp), %rax
	movzbl	(%rcx,%rax), %eax
	movl	%eax, -20(%rbp)
	movq	img, %rax
	movq	14136(%rax), %rax
	movl	-112(%rbp), %ecx
	addl	$4, %ecx
	addl	-196(%rbp), %ecx
	movslq	%ecx, %rcx
	movq	(%rax,%rcx,8), %rax
	movslq	-116(%rbp), %rcx
	movq	(%rax,%rcx,8), %rax
	movq	(%rax), %rax
	movq	%rax, -232(%rbp)
	movq	img, %rax
	movq	14136(%rax), %rax
	movl	-112(%rbp), %ecx
	addl	$4, %ecx
	addl	-196(%rbp), %ecx
	movslq	%ecx, %rcx
	movq	(%rax,%rcx,8), %rax
	movslq	-116(%rbp), %rcx
	movq	(%rax,%rcx,8), %rax
	movq	8(%rax), %rax
	movq	%rax, -384(%rbp)
	movl	$-1, -100(%rbp)
	movl	$0, -68(%rbp)
	movl	$1, -28(%rbp)
.LBB4_218:                              # %for.cond1722
                                        #   Parent Loop BB4_214 Depth=1
                                        #     Parent Loop BB4_216 Depth=2
                                        # =>    This Inner Loop Header: Depth=3
	cmpl	$16, -28(%rbp)
	jge	.LBB4_252
# %bb.219:                              # %for.body1725
                                        #   in Loop: Header=BB4_218 Depth=3
	movq	img, %rax
	cmpl	$0, 72444(%rax)
	jne	.LBB4_222
# %bb.220:                              # %lor.lhs.false1727
                                        #   in Loop: Header=BB4_218 Depth=3
	movq	img, %rax
	cmpl	$0, 72400(%rax)
	je	.LBB4_223
# %bb.221:                              # %land.lhs.true1729
                                        #   in Loop: Header=BB4_218 Depth=3
	movq	-192(%rbp), %rax
	cmpl	$0, 532(%rax)
	je	.LBB4_223
.LBB4_222:                              # %if.then1731
                                        #   in Loop: Header=BB4_218 Depth=3
	movslq	-28(%rbp), %rax
	movzbl	FIELD_SCAN(,%rax,2), %eax
	movl	%eax, -8(%rbp)
	movslq	-28(%rbp), %rax
	movzbl	FIELD_SCAN+1(,%rax,2), %eax
	movl	%eax, -4(%rbp)
	jmp	.LBB4_224
.LBB4_223:                              # %if.else1740
                                        #   in Loop: Header=BB4_218 Depth=3
	movslq	-28(%rbp), %rax
	movzbl	SNGL_SCAN(,%rax,2), %eax
	movl	%eax, -8(%rbp)
	movslq	-28(%rbp), %rax
	movzbl	SNGL_SCAN+1(,%rax,2), %eax
	movl	%eax, -4(%rbp)
.LBB4_224:                              # %if.end1749
                                        #   in Loop: Header=BB4_218 Depth=3
	movl	-100(%rbp), %eax
	addl	$1, %eax
	movl	%eax, -100(%rbp)
	movl	$0, -144(%rbp)
	cmpl	$0, -104(%rbp)
	je	.LBB4_226
# %bb.225:                              # %if.then1752
                                        #   in Loop: Header=BB4_218 Depth=3
	movq	img, %rax
	addq	$13112, %rax            # imm = 0x3338
	movl	-16(%rbp), %ecx
	addl	-8(%rbp), %ecx
	movslq	%ecx, %rcx
	shlq	$6, %rcx
	addq	%rcx, %rax
	movl	-20(%rbp), %ecx
	addl	-4(%rbp), %ecx
	movslq	%ecx, %rcx
	movl	(%rax,%rcx,4), %edi
	callq	abs
	movl	%eax, -36(%rbp)
	jmp	.LBB4_230
.LBB4_226:                              # %if.else1761
                                        #   in Loop: Header=BB4_218 Depth=3
	cmpl	$1, -124(%rbp)
	jne	.LBB4_228
# %bb.227:                              # %if.then1764
                                        #   in Loop: Header=BB4_218 Depth=3
	movq	img, %rax
	addq	$13112, %rax            # imm = 0x3338
	movl	-16(%rbp), %ecx
	addl	-8(%rbp), %ecx
	movslq	%ecx, %rcx
	shlq	$6, %rcx
	addq	%rcx, %rax
	movl	-20(%rbp), %ecx
	addl	-4(%rbp), %ecx
	movslq	%ecx, %rcx
	movl	(%rax,%rcx,4), %edi
	callq	abs
	movslq	-12(%rbp), %rcx
	imulq	$384, %rcx, %rcx        # imm = 0x180
	movabsq	$LevelScale4x4Chroma_Intra, %rdx
	addq	%rcx, %rdx
	movslq	-76(%rbp), %rcx
	shlq	$6, %rcx
	addq	%rcx, %rdx
	movslq	-8(%rbp), %rcx
	shlq	$4, %rcx
	addq	%rcx, %rdx
	movslq	-4(%rbp), %rcx
	imull	(%rdx,%rcx,4), %eax
	movslq	-12(%rbp), %rcx
	imulq	$832, %rcx, %rcx        # imm = 0x340
	movabsq	$LevelOffset4x4Chroma_Intra, %rdx
	addq	%rcx, %rdx
	movslq	-32(%rbp), %rcx
	shlq	$6, %rcx
	addq	%rcx, %rdx
	movslq	-8(%rbp), %rcx
	shlq	$4, %rcx
	addq	%rcx, %rdx
	movslq	-4(%rbp), %rcx
	addl	(%rdx,%rcx,4), %eax
	movl	-180(%rbp), %ecx
                                        # kill: def $cl killed $ecx
	sarl	%cl, %eax
	movl	%eax, -36(%rbp)
	jmp	.LBB4_229
.LBB4_228:                              # %if.else1792
                                        #   in Loop: Header=BB4_218 Depth=3
	movq	img, %rax
	addq	$13112, %rax            # imm = 0x3338
	movl	-16(%rbp), %ecx
	addl	-8(%rbp), %ecx
	movslq	%ecx, %rcx
	shlq	$6, %rcx
	addq	%rcx, %rax
	movl	-20(%rbp), %ecx
	addl	-4(%rbp), %ecx
	movslq	%ecx, %rcx
	movl	(%rax,%rcx,4), %edi
	callq	abs
	movslq	-12(%rbp), %rcx
	imulq	$384, %rcx, %rcx        # imm = 0x180
	movabsq	$LevelScale4x4Chroma_Inter, %rdx
	addq	%rcx, %rdx
	movslq	-76(%rbp), %rcx
	shlq	$6, %rcx
	addq	%rcx, %rdx
	movslq	-8(%rbp), %rcx
	shlq	$4, %rcx
	addq	%rcx, %rdx
	movslq	-4(%rbp), %rcx
	imull	(%rdx,%rcx,4), %eax
	movslq	-12(%rbp), %rcx
	imulq	$832, %rcx, %rcx        # imm = 0x340
	movabsq	$LevelOffset4x4Chroma_Inter, %rdx
	addq	%rcx, %rdx
	movslq	-32(%rbp), %rcx
	shlq	$6, %rcx
	addq	%rcx, %rdx
	movslq	-8(%rbp), %rcx
	shlq	$4, %rcx
	addq	%rcx, %rdx
	movslq	-4(%rbp), %rcx
	addl	(%rdx,%rcx,4), %eax
	movl	-180(%rbp), %ecx
                                        # kill: def $cl killed $ecx
	sarl	%cl, %eax
	movl	%eax, -36(%rbp)
.LBB4_229:                              # %if.end1820
                                        #   in Loop: Header=BB4_218 Depth=3
	jmp	.LBB4_230
.LBB4_230:                              # %if.end1821
                                        #   in Loop: Header=BB4_218 Depth=3
	cmpl	$0, -36(%rbp)
	je	.LBB4_248
# %bb.231:                              # %if.then1824
                                        #   in Loop: Header=BB4_218 Depth=3
	movl	-112(%rbp), %eax
	addl	-196(%rbp), %eax
	cltq
	shlq	$2, %rax
	movabsq	$cbp_blk_chroma, %rcx
	addq	%rax, %rcx
	movslq	-116(%rbp), %rax
	movzbl	(%rcx,%rax), %eax
	movl	%eax, %ecx
                                        # kill: def $cl killed $rcx
	movl	$1, %eax
	shlq	%cl, %rax
	movq	-192(%rbp), %rcx
	orq	464(%rcx), %rax
	movq	%rax, 464(%rcx)
	cmpl	$1, -36(%rbp)
	jg	.LBB4_233
# %bb.232:                              # %lor.lhs.false1837
                                        #   in Loop: Header=BB4_218 Depth=3
	cmpl	$0, -104(%rbp)
	je	.LBB4_234
.LBB4_233:                              # %if.then1839
                                        #   in Loop: Header=BB4_218 Depth=3
	movl	-200(%rbp), %eax
	addl	$999999, %eax           # imm = 0xF423F
	movl	%eax, -200(%rbp)
	jmp	.LBB4_235
.LBB4_234:                              # %if.else1841
                                        #   in Loop: Header=BB4_218 Depth=3
	movabsq	$COEFF_COST, %rax
	movq	input, %rcx
	movslq	2468(%rcx), %rcx
	shlq	$4, %rcx
	addq	%rcx, %rax
	movslq	-100(%rbp), %rcx
	movzbl	(%rax,%rcx), %eax
	addl	-200(%rbp), %eax
	movl	%eax, -200(%rbp)
.LBB4_235:                              # %if.end1848
                                        #   in Loop: Header=BB4_218 Depth=3
	movl	$2, -212(%rbp)
	movl	-36(%rbp), %edi
	movq	img, %rax
	addq	$13112, %rax            # imm = 0x3338
	movl	-16(%rbp), %ecx
	addl	-8(%rbp), %ecx
	movslq	%ecx, %rcx
	shlq	$6, %rcx
	addq	%rcx, %rax
	movl	-20(%rbp), %ecx
	addl	-4(%rbp), %ecx
	movslq	%ecx, %rcx
	movl	(%rax,%rcx,4), %esi
	callq	sign
	movq	-232(%rbp), %rcx
	movslq	-68(%rbp), %rdx
	movl	%eax, (%rcx,%rdx,4)
	movl	-100(%rbp), %eax
	movq	-384(%rbp), %rcx
	movslq	-68(%rbp), %rdx
	movl	%eax, (%rcx,%rdx,4)
	movl	-68(%rbp), %eax
	addl	$1, %eax
	movl	%eax, -68(%rbp)
	movl	$-1, -100(%rbp)
	movl	-36(%rbp), %edi
	movq	img, %rax
	addq	$13112, %rax            # imm = 0x3338
	movl	-16(%rbp), %ecx
	addl	-8(%rbp), %ecx
	movslq	%ecx, %rcx
	shlq	$6, %rcx
	addq	%rcx, %rax
	movl	-20(%rbp), %ecx
	addl	-4(%rbp), %ecx
	movslq	%ecx, %rcx
	movl	(%rax,%rcx,4), %esi
	callq	sign
	movl	%eax, -36(%rbp)
	cmpl	$0, -104(%rbp)
	je	.LBB4_237
# %bb.236:                              # %if.then1871
                                        #   in Loop: Header=BB4_218 Depth=3
	movl	-36(%rbp), %eax
	movl	%eax, -144(%rbp)
	jmp	.LBB4_247
.LBB4_237:                              # %if.else1872
                                        #   in Loop: Header=BB4_218 Depth=3
	cmpl	$4, -32(%rbp)
	jge	.LBB4_242
# %bb.238:                              # %if.then1875
                                        #   in Loop: Header=BB4_218 Depth=3
	cmpl	$1, -124(%rbp)
	jne	.LBB4_240
# %bb.239:                              # %if.then1878
                                        #   in Loop: Header=BB4_218 Depth=3
	movl	-36(%rbp), %eax
	movslq	-12(%rbp), %rcx
	imulq	$384, %rcx, %rcx        # imm = 0x180
	movabsq	$InvLevelScale4x4Chroma_Intra, %rdx
	addq	%rcx, %rdx
	movslq	-76(%rbp), %rcx
	shlq	$6, %rcx
	addq	%rcx, %rdx
	movslq	-8(%rbp), %rcx
	shlq	$4, %rcx
	addq	%rcx, %rdx
	movslq	-4(%rbp), %rcx
	imull	(%rdx,%rcx,4), %eax
	movl	$3, %ecx
	subl	-32(%rbp), %ecx
                                        # kill: def $cl killed $ecx
	movl	$1, %edx
	shll	%cl, %edx
	addl	%edx, %eax
	movl	$4, %ecx
	subl	-32(%rbp), %ecx
                                        # kill: def $cl killed $ecx
	sarl	%cl, %eax
	movl	%eax, -144(%rbp)
	jmp	.LBB4_241
.LBB4_240:                              # %if.else1893
                                        #   in Loop: Header=BB4_218 Depth=3
	movl	-36(%rbp), %eax
	movslq	-12(%rbp), %rcx
	imulq	$384, %rcx, %rcx        # imm = 0x180
	movabsq	$InvLevelScale4x4Chroma_Inter, %rdx
	addq	%rcx, %rdx
	movslq	-76(%rbp), %rcx
	shlq	$6, %rcx
	addq	%rcx, %rdx
	movslq	-8(%rbp), %rcx
	shlq	$4, %rcx
	addq	%rcx, %rdx
	movslq	-4(%rbp), %rcx
	imull	(%rdx,%rcx,4), %eax
	movl	$3, %ecx
	subl	-32(%rbp), %ecx
                                        # kill: def $cl killed $ecx
	movl	$1, %edx
	shll	%cl, %edx
	addl	%edx, %eax
	movl	$4, %ecx
	subl	-32(%rbp), %ecx
                                        # kill: def $cl killed $ecx
	sarl	%cl, %eax
	movl	%eax, -144(%rbp)
.LBB4_241:                              # %if.end1908
                                        #   in Loop: Header=BB4_218 Depth=3
	jmp	.LBB4_246
.LBB4_242:                              # %if.else1909
                                        #   in Loop: Header=BB4_218 Depth=3
	cmpl	$1, -124(%rbp)
	jne	.LBB4_244
# %bb.243:                              # %if.then1912
                                        #   in Loop: Header=BB4_218 Depth=3
	movl	-36(%rbp), %eax
	movslq	-12(%rbp), %rcx
	imulq	$384, %rcx, %rcx        # imm = 0x180
	movabsq	$InvLevelScale4x4Chroma_Intra, %rdx
	addq	%rcx, %rdx
	movslq	-76(%rbp), %rcx
	shlq	$6, %rcx
	addq	%rcx, %rdx
	movslq	-8(%rbp), %rcx
	shlq	$4, %rcx
	addq	%rcx, %rdx
	movslq	-4(%rbp), %rcx
	imull	(%rdx,%rcx,4), %eax
	movl	-32(%rbp), %ecx
	subl	$4, %ecx
                                        # kill: def $cl killed $ecx
	shll	%cl, %eax
	movl	%eax, -144(%rbp)
	jmp	.LBB4_245
.LBB4_244:                              # %if.else1924
                                        #   in Loop: Header=BB4_218 Depth=3
	movl	-36(%rbp), %eax
	movslq	-12(%rbp), %rcx
	imulq	$384, %rcx, %rcx        # imm = 0x180
	movabsq	$InvLevelScale4x4Chroma_Inter, %rdx
	addq	%rcx, %rdx
	movslq	-76(%rbp), %rcx
	shlq	$6, %rcx
	addq	%rcx, %rdx
	movslq	-8(%rbp), %rcx
	shlq	$4, %rcx
	addq	%rcx, %rdx
	movslq	-4(%rbp), %rcx
	imull	(%rdx,%rcx,4), %eax
	movl	-32(%rbp), %ecx
	subl	$4, %ecx
                                        # kill: def $cl killed $ecx
	shll	%cl, %eax
	movl	%eax, -144(%rbp)
.LBB4_245:                              # %if.end1936
                                        #   in Loop: Header=BB4_218 Depth=3
	jmp	.LBB4_246
.LBB4_246:                              # %if.end1937
                                        #   in Loop: Header=BB4_218 Depth=3
	jmp	.LBB4_247
.LBB4_247:                              # %if.end1938
                                        #   in Loop: Header=BB4_218 Depth=3
	jmp	.LBB4_248
.LBB4_248:                              # %if.end1939
                                        #   in Loop: Header=BB4_218 Depth=3
	cmpl	$0, -104(%rbp)
	jne	.LBB4_250
# %bb.249:                              # %if.then1941
                                        #   in Loop: Header=BB4_218 Depth=3
	movl	-144(%rbp), %eax
	movq	img, %rcx
	addq	$13112, %rcx            # imm = 0x3338
	movl	-16(%rbp), %edx
	addl	-8(%rbp), %edx
	movslq	%edx, %rdx
	shlq	$6, %rdx
	addq	%rdx, %rcx
	movl	-20(%rbp), %edx
	addl	-4(%rbp), %edx
	movslq	%edx, %rdx
	movl	%eax, (%rcx,%rdx,4)
.LBB4_250:                              # %if.end1949
                                        #   in Loop: Header=BB4_218 Depth=3
	jmp	.LBB4_251
.LBB4_251:                              # %for.inc1950
                                        #   in Loop: Header=BB4_218 Depth=3
	movl	-28(%rbp), %eax
	addl	$1, %eax
	movl	%eax, -28(%rbp)
	jmp	.LBB4_218
.LBB4_252:                              # %for.end1952
                                        #   in Loop: Header=BB4_216 Depth=2
	movq	-232(%rbp), %rax
	movslq	-68(%rbp), %rcx
	movl	$0, (%rax,%rcx,4)
# %bb.253:                              # %for.inc1955
                                        #   in Loop: Header=BB4_216 Depth=2
	movl	-116(%rbp), %eax
	addl	$1, %eax
	movl	%eax, -116(%rbp)
	jmp	.LBB4_216
.LBB4_254:                              # %for.end1957
                                        #   in Loop: Header=BB4_214 Depth=1
	jmp	.LBB4_255
.LBB4_255:                              # %for.inc1958
                                        #   in Loop: Header=BB4_214 Depth=1
	movl	-112(%rbp), %eax
	addl	$1, %eax
	movl	%eax, -112(%rbp)
	jmp	.LBB4_214
.LBB4_256:                              # %for.end1960
	cmpl	$4, -200(%rbp)
	jge	.LBB4_278
# %bb.257:                              # %land.lhs.true1963
	cmpl	$0, -104(%rbp)
	jne	.LBB4_278
# %bb.258:                              # %if.then1965
	movl	$0, -212(%rbp)
	movl	$0, -112(%rbp)
.LBB4_259:                              # %for.cond1966
                                        # =>This Loop Header: Depth=1
                                        #     Child Loop BB4_261 Depth 2
                                        #       Child Loop BB4_265 Depth 3
	movl	-112(%rbp), %ecx
	movq	img, %rax
	movl	72692(%rax), %eax
	cltd
	movl	$2, %esi
	idivl	%esi
	cmpl	%eax, %ecx
	jge	.LBB4_277
# %bb.260:                              # %for.body1971
                                        #   in Loop: Header=BB4_259 Depth=1
	movl	$0, -116(%rbp)
.LBB4_261:                              # %for.cond1972
                                        #   Parent Loop BB4_259 Depth=1
                                        # =>  This Loop Header: Depth=2
                                        #       Child Loop BB4_265 Depth 3
	cmpl	$4, -116(%rbp)
	jge	.LBB4_275
# %bb.262:                              # %for.body1975
                                        #   in Loop: Header=BB4_261 Depth=2
	movslq	-140(%rbp), %rax
	shlq	$4, %rax
	movabsq	$hor_offset, %rcx
	addq	%rax, %rcx
	movslq	-112(%rbp), %rax
	shlq	$2, %rax
	addq	%rax, %rcx
	movslq	-116(%rbp), %rax
	movzbl	(%rcx,%rax), %eax
	movl	%eax, -16(%rbp)
	movslq	-140(%rbp), %rax
	shlq	$4, %rax
	movabsq	$ver_offset, %rcx
	addq	%rax, %rcx
	movslq	-112(%rbp), %rax
	shlq	$2, %rax
	addq	%rax, %rcx
	movslq	-116(%rbp), %rax
	movzbl	(%rcx,%rax), %eax
	movl	%eax, -20(%rbp)
	movq	img, %rax
	movq	14136(%rax), %rax
	movl	-112(%rbp), %ecx
	addl	$4, %ecx
	addl	-196(%rbp), %ecx
	movslq	%ecx, %rcx
	movq	(%rax,%rcx,8), %rax
	movslq	-116(%rbp), %rcx
	movq	(%rax,%rcx,8), %rax
	movq	(%rax), %rax
	movq	%rax, -232(%rbp)
	movq	img, %rax
	movq	14136(%rax), %rax
	movl	-112(%rbp), %ecx
	addl	$4, %ecx
	addl	-196(%rbp), %ecx
	movslq	%ecx, %rcx
	movq	(%rax,%rcx,8), %rax
	movslq	-116(%rbp), %rcx
	movq	(%rax,%rcx,8), %rax
	movq	8(%rax), %rax
	movq	%rax, -384(%rbp)
	cmpl	$0, -204(%rbp)
	jne	.LBB4_264
# %bb.263:                              # %if.then2008
                                        #   in Loop: Header=BB4_261 Depth=2
	movslq	-140(%rbp), %rax
	movq	-416(%rbp,%rax,8), %rax
	movl	-12(%rbp), %edx
	movl	-140(%rbp), %ecx
	addl	$1, %ecx
                                        # kill: def $cl killed $ecx
	shll	%cl, %edx
	movl	%edx, %ecx
                                        # kill: def $cl killed $rcx
	shlq	%cl, %rax
	xorq	$-1, %rax
	movq	-192(%rbp), %rcx
	andq	464(%rcx), %rax
	movq	%rax, 464(%rcx)
.LBB4_264:                              # %if.end2016
                                        #   in Loop: Header=BB4_261 Depth=2
	movq	-232(%rbp), %rax
	movl	$0, (%rax)
	movl	$1, -28(%rbp)
.LBB4_265:                              # %for.cond2018
                                        #   Parent Loop BB4_259 Depth=1
                                        #     Parent Loop BB4_261 Depth=2
                                        # =>    This Inner Loop Header: Depth=3
	cmpl	$16, -28(%rbp)
	jge	.LBB4_273
# %bb.266:                              # %for.body2021
                                        #   in Loop: Header=BB4_265 Depth=3
	movq	img, %rax
	cmpl	$0, 72444(%rax)
	jne	.LBB4_269
# %bb.267:                              # %lor.lhs.false2024
                                        #   in Loop: Header=BB4_265 Depth=3
	movq	img, %rax
	cmpl	$0, 72400(%rax)
	je	.LBB4_270
# %bb.268:                              # %land.lhs.true2027
                                        #   in Loop: Header=BB4_265 Depth=3
	movq	-192(%rbp), %rax
	cmpl	$0, 532(%rax)
	je	.LBB4_270
.LBB4_269:                              # %if.then2030
                                        #   in Loop: Header=BB4_265 Depth=3
	movslq	-28(%rbp), %rax
	movzbl	FIELD_SCAN(,%rax,2), %eax
	movl	%eax, -8(%rbp)
	movslq	-28(%rbp), %rax
	movzbl	FIELD_SCAN+1(,%rax,2), %eax
	movl	%eax, -4(%rbp)
	jmp	.LBB4_271
.LBB4_270:                              # %if.else2039
                                        #   in Loop: Header=BB4_265 Depth=3
	movslq	-28(%rbp), %rax
	movzbl	SNGL_SCAN(,%rax,2), %eax
	movl	%eax, -8(%rbp)
	movslq	-28(%rbp), %rax
	movzbl	SNGL_SCAN+1(,%rax,2), %eax
	movl	%eax, -4(%rbp)
.LBB4_271:                              # %if.end2048
                                        #   in Loop: Header=BB4_265 Depth=3
	movq	img, %rax
	addq	$13112, %rax            # imm = 0x3338
	movl	-16(%rbp), %ecx
	addl	-8(%rbp), %ecx
	movslq	%ecx, %rcx
	shlq	$6, %rcx
	addq	%rcx, %rax
	movl	-20(%rbp), %ecx
	addl	-4(%rbp), %ecx
	movslq	%ecx, %rcx
	movl	$0, (%rax,%rcx,4)
	movq	-232(%rbp), %rax
	movslq	-28(%rbp), %rcx
	movl	$0, (%rax,%rcx,4)
# %bb.272:                              # %for.inc2058
                                        #   in Loop: Header=BB4_265 Depth=3
	movl	-28(%rbp), %eax
	addl	$1, %eax
	movl	%eax, -28(%rbp)
	jmp	.LBB4_265
.LBB4_273:                              # %for.end2060
                                        #   in Loop: Header=BB4_261 Depth=2
	jmp	.LBB4_274
.LBB4_274:                              # %for.inc2061
                                        #   in Loop: Header=BB4_261 Depth=2
	movl	-116(%rbp), %eax
	addl	$1, %eax
	movl	%eax, -116(%rbp)
	jmp	.LBB4_261
.LBB4_275:                              # %for.end2063
                                        #   in Loop: Header=BB4_259 Depth=1
	jmp	.LBB4_276
.LBB4_276:                              # %for.inc2064
                                        #   in Loop: Header=BB4_259 Depth=1
	movl	-112(%rbp), %eax
	addl	$1, %eax
	movl	%eax, -112(%rbp)
	jmp	.LBB4_259
.LBB4_277:                              # %for.end2066
	jmp	.LBB4_278
.LBB4_278:                              # %if.end2067
	cmpl	$2, -212(%rbp)
	jne	.LBB4_280
# %bb.279:                              # %if.then2070
	movl	$2, -136(%rbp)
.LBB4_280:                              # %if.end2071
	movl	$0, -20(%rbp)
.LBB4_281:                              # %for.cond2072
                                        # =>This Loop Header: Depth=1
                                        #     Child Loop BB4_285 Depth 2
                                        #       Child Loop BB4_287 Depth 3
                                        #         Child Loop BB4_289 Depth 4
                                        #         Child Loop BB4_293 Depth 4
                                        #       Child Loop BB4_299 Depth 3
                                        #         Child Loop BB4_303 Depth 4
                                        #         Child Loop BB4_307 Depth 4
	xorl	%eax, %eax
	movl	-20(%rbp), %ecx
	movq	img, %rdx
	cmpl	72712(%rdx), %ecx
	jge	.LBB4_283
# %bb.282:                              # %land.rhs2076
                                        #   in Loop: Header=BB4_281 Depth=1
	cmpl	$0, -104(%rbp)
	setne	%al
	xorb	$-1, %al
.LBB4_283:                              # %land.end2079
                                        #   in Loop: Header=BB4_281 Depth=1
	testb	$1, %al
	jne	.LBB4_284
	jmp	.LBB4_340
.LBB4_284:                              # %for.body2081
                                        #   in Loop: Header=BB4_281 Depth=1
	movl	$0, -16(%rbp)
.LBB4_285:                              # %for.cond2082
                                        #   Parent Loop BB4_281 Depth=1
                                        # =>  This Loop Header: Depth=2
                                        #       Child Loop BB4_287 Depth 3
                                        #         Child Loop BB4_289 Depth 4
                                        #         Child Loop BB4_293 Depth 4
                                        #       Child Loop BB4_299 Depth 3
                                        #         Child Loop BB4_303 Depth 4
                                        #         Child Loop BB4_307 Depth 4
	movl	-16(%rbp), %eax
	movq	img, %rcx
	cmpl	72708(%rcx), %eax
	jge	.LBB4_338
# %bb.286:                              # %for.body2086
                                        #   in Loop: Header=BB4_285 Depth=2
	movl	$0, -4(%rbp)
.LBB4_287:                              # %for.cond2087
                                        #   Parent Loop BB4_281 Depth=1
                                        #     Parent Loop BB4_285 Depth=2
                                        # =>    This Loop Header: Depth=3
                                        #         Child Loop BB4_289 Depth 4
                                        #         Child Loop BB4_293 Depth 4
	cmpl	$4, -4(%rbp)
	jge	.LBB4_298
# %bb.288:                              # %for.body2090
                                        #   in Loop: Header=BB4_287 Depth=3
	movl	$0, -8(%rbp)
.LBB4_289:                              # %for.cond2091
                                        #   Parent Loop BB4_281 Depth=1
                                        #     Parent Loop BB4_285 Depth=2
                                        #       Parent Loop BB4_287 Depth=3
                                        # =>      This Inner Loop Header: Depth=4
	cmpl	$4, -8(%rbp)
	jge	.LBB4_292
# %bb.290:                              # %for.body2094
                                        #   in Loop: Header=BB4_289 Depth=4
	movq	img, %rax
	addq	$13112, %rax            # imm = 0x3338
	movl	-16(%rbp), %ecx
	addl	-8(%rbp), %ecx
	movslq	%ecx, %rcx
	shlq	$6, %rcx
	addq	%rcx, %rax
	movl	-20(%rbp), %ecx
	addl	-4(%rbp), %ecx
	movslq	%ecx, %rcx
	movl	(%rax,%rcx,4), %eax
	movslq	-8(%rbp), %rcx
	movl	%eax, -64(%rbp,%rcx,4)
# %bb.291:                              # %for.inc2104
                                        #   in Loop: Header=BB4_289 Depth=4
	movl	-8(%rbp), %eax
	addl	$1, %eax
	movl	%eax, -8(%rbp)
	jmp	.LBB4_289
.LBB4_292:                              # %for.end2106
                                        #   in Loop: Header=BB4_287 Depth=3
	movl	-64(%rbp), %eax
	addl	-56(%rbp), %eax
	movl	%eax, -96(%rbp)
	movl	-64(%rbp), %eax
	subl	-56(%rbp), %eax
	movl	%eax, -92(%rbp)
	movl	-60(%rbp), %eax
	sarl	$1, %eax
	subl	-52(%rbp), %eax
	movl	%eax, -88(%rbp)
	movl	-60(%rbp), %eax
	movl	-52(%rbp), %ecx
	sarl	$1, %ecx
	addl	%ecx, %eax
	movl	%eax, -84(%rbp)
	movl	$0, -8(%rbp)
.LBB4_293:                              # %for.cond2125
                                        #   Parent Loop BB4_281 Depth=1
                                        #     Parent Loop BB4_285 Depth=2
                                        #       Parent Loop BB4_287 Depth=3
                                        # =>      This Inner Loop Header: Depth=4
	cmpl	$2, -8(%rbp)
	jge	.LBB4_296
# %bb.294:                              # %for.body2128
                                        #   in Loop: Header=BB4_293 Depth=4
	movl	$3, %eax
	subl	-8(%rbp), %eax
	movl	%eax, -120(%rbp)
	movslq	-8(%rbp), %rax
	movl	-96(%rbp,%rax,4), %eax
	movslq	-120(%rbp), %rcx
	addl	-96(%rbp,%rcx,4), %eax
	movq	img, %rcx
	addq	$13112, %rcx            # imm = 0x3338
	movl	-16(%rbp), %edx
	addl	-8(%rbp), %edx
	movslq	%edx, %rdx
	shlq	$6, %rdx
	addq	%rdx, %rcx
	movl	-20(%rbp), %edx
	addl	-4(%rbp), %edx
	movslq	%edx, %rdx
	movl	%eax, (%rcx,%rdx,4)
	movslq	-8(%rbp), %rax
	movl	-96(%rbp,%rax,4), %eax
	movslq	-120(%rbp), %rcx
	subl	-96(%rbp,%rcx,4), %eax
	movq	img, %rcx
	addq	$13112, %rcx            # imm = 0x3338
	movl	-16(%rbp), %edx
	addl	-120(%rbp), %edx
	movslq	%edx, %rdx
	shlq	$6, %rdx
	addq	%rdx, %rcx
	movl	-20(%rbp), %edx
	addl	-4(%rbp), %edx
	movslq	%edx, %rdx
	movl	%eax, (%rcx,%rdx,4)
# %bb.295:                              # %for.inc2154
                                        #   in Loop: Header=BB4_293 Depth=4
	movl	-8(%rbp), %eax
	addl	$1, %eax
	movl	%eax, -8(%rbp)
	jmp	.LBB4_293
.LBB4_296:                              # %for.end2156
                                        #   in Loop: Header=BB4_287 Depth=3
	jmp	.LBB4_297
.LBB4_297:                              # %for.inc2157
                                        #   in Loop: Header=BB4_287 Depth=3
	movl	-4(%rbp), %eax
	addl	$1, %eax
	movl	%eax, -4(%rbp)
	jmp	.LBB4_287
.LBB4_298:                              # %for.end2159
                                        #   in Loop: Header=BB4_285 Depth=2
	movl	$0, -8(%rbp)
.LBB4_299:                              # %for.cond2160
                                        #   Parent Loop BB4_281 Depth=1
                                        #     Parent Loop BB4_285 Depth=2
                                        # =>    This Loop Header: Depth=3
                                        #         Child Loop BB4_303 Depth 4
                                        #         Child Loop BB4_307 Depth 4
	xorl	%eax, %eax
	cmpl	$4, -8(%rbp)
	jge	.LBB4_301
# %bb.300:                              # %land.rhs2163
                                        #   in Loop: Header=BB4_299 Depth=3
	cmpl	$0, -104(%rbp)
	setne	%al
	xorb	$-1, %al
.LBB4_301:                              # %land.end2166
                                        #   in Loop: Header=BB4_299 Depth=3
	testb	$1, %al
	jne	.LBB4_302
	jmp	.LBB4_336
.LBB4_302:                              # %for.body2168
                                        #   in Loop: Header=BB4_299 Depth=3
	movl	$0, -4(%rbp)
.LBB4_303:                              # %for.cond2169
                                        #   Parent Loop BB4_281 Depth=1
                                        #     Parent Loop BB4_285 Depth=2
                                        #       Parent Loop BB4_299 Depth=3
                                        # =>      This Inner Loop Header: Depth=4
	cmpl	$4, -4(%rbp)
	jge	.LBB4_306
# %bb.304:                              # %for.body2172
                                        #   in Loop: Header=BB4_303 Depth=4
	movq	img, %rax
	addq	$13112, %rax            # imm = 0x3338
	movl	-16(%rbp), %ecx
	addl	-8(%rbp), %ecx
	movslq	%ecx, %rcx
	shlq	$6, %rcx
	addq	%rcx, %rax
	movl	-20(%rbp), %ecx
	addl	-4(%rbp), %ecx
	movslq	%ecx, %rcx
	movl	(%rax,%rcx,4), %eax
	movslq	-4(%rbp), %rcx
	movl	%eax, -64(%rbp,%rcx,4)
# %bb.305:                              # %for.inc2182
                                        #   in Loop: Header=BB4_303 Depth=4
	movl	-4(%rbp), %eax
	addl	$1, %eax
	movl	%eax, -4(%rbp)
	jmp	.LBB4_303
.LBB4_306:                              # %for.end2184
                                        #   in Loop: Header=BB4_299 Depth=3
	movl	-64(%rbp), %eax
	addl	-56(%rbp), %eax
	movl	%eax, -96(%rbp)
	movl	-64(%rbp), %eax
	subl	-56(%rbp), %eax
	movl	%eax, -92(%rbp)
	movl	-60(%rbp), %eax
