	.text
	.file	"block.c"
	.globl	intrapred_luma          # -- Begin function intrapred_luma
	.p2align	4, 0x90
	.type	intrapred_luma,@function
intrapred_luma:                         # @intrapred_luma
	.cfi_startproc
# %bb.0:                                # %rand_bb
	pushq	%rbp
	.cfi_def_cfa_offset 16
	.cfi_offset %rbp, -16
	movq	%rsp, %rbp
	.cfi_def_cfa_register %rbp
	pushq	%r15
	pushq	%r14
	pushq	%r13
	pushq	%r12
	pushq	%rbx
	pushq	%rax
	.cfi_offset %rbx, -56
	.cfi_offset %r12, -48
	.cfi_offset %r13, -40
	.cfi_offset %r14, -32
	.cfi_offset %r15, -24
	movq	%r8, %r14
	movq	%rcx, %r15
	movq	%rdx, %r12
	movl	%esi, %r13d
	movl	%edi, %ebx
	callq	get_rand
	cmpl	$0, %eax
	jne	.LBB0_9
# %bb.1:                                # %func_intrapred_luma.10
	movl	%ebx, %edi
	movl	%r13d, %esi
	movq	%r12, %rdx
	movq	%r15, %rcx
	movq	%r14, %r8
	callq	intrapred_luma.10
	addq	$8, %rsp
	popq	%rbx
	popq	%r12
	popq	%r13
	popq	%r14
	popq	%r15
	popq	%rbp
	.cfi_def_cfa %rsp, 8
	retq
.LBB0_2:                                # %func_intrapred_luma.31
	.cfi_def_cfa %rbp, 16
	movl	%ebx, %edi
	movl	%r13d, %esi
	movq	%r12, %rdx
	movq	%r15, %rcx
	movq	%r14, %r8
	callq	intrapred_luma.31
	addq	$8, %rsp
	popq	%rbx
	popq	%r12
	popq	%r13
	popq	%r14
	popq	%r15
	popq	%rbp
	.cfi_def_cfa %rsp, 8
	retq
.LBB0_3:                                # %func_intrapred_luma.37
	.cfi_def_cfa %rbp, 16
	movl	%ebx, %edi
	movl	%r13d, %esi
	movq	%r12, %rdx
	movq	%r15, %rcx
	movq	%r14, %r8
	callq	intrapred_luma.37
	addq	$8, %rsp
	popq	%rbx
	popq	%r12
	popq	%r13
	popq	%r14
	popq	%r15
	popq	%rbp
	.cfi_def_cfa %rsp, 8
	retq
.LBB0_4:                                # %func_intrapred_luma.43
	.cfi_def_cfa %rbp, 16
	movl	%ebx, %edi
	movl	%r13d, %esi
	movq	%r12, %rdx
	movq	%r15, %rcx
	movq	%r14, %r8
	callq	intrapred_luma.43
	addq	$8, %rsp
	popq	%rbx
	popq	%r12
	popq	%r13
	popq	%r14
	popq	%r15
	popq	%rbp
	.cfi_def_cfa %rsp, 8
	retq
.LBB0_5:                                # %func_intrapred_luma.52
	.cfi_def_cfa %rbp, 16
	movl	%ebx, %edi
	movl	%r13d, %esi
	movq	%r12, %rdx
	movq	%r15, %rcx
	movq	%r14, %r8
	callq	intrapred_luma.52
	addq	$8, %rsp
	popq	%rbx
	popq	%r12
	popq	%r13
	popq	%r14
	popq	%r15
	popq	%rbp
	.cfi_def_cfa %rsp, 8
	retq
.LBB0_6:                                # %func_intrapred_luma.56
	.cfi_def_cfa %rbp, 16
	movl	%ebx, %edi
	movl	%r13d, %esi
	movq	%r12, %rdx
	movq	%r15, %rcx
	movq	%r14, %r8
	callq	intrapred_luma.56
	addq	$8, %rsp
	popq	%rbx
	popq	%r12
	popq	%r13
	popq	%r14
	popq	%r15
	popq	%rbp
	.cfi_def_cfa %rsp, 8
	retq
.LBB0_7:                                # %func_intrapred_luma.63
	.cfi_def_cfa %rbp, 16
	movl	%ebx, %edi
	movl	%r13d, %esi
	movq	%r12, %rdx
	movq	%r15, %rcx
	movq	%r14, %r8
	callq	intrapred_luma.63
	addq	$8, %rsp
	popq	%rbx
	popq	%r12
	popq	%r13
	popq	%r14
	popq	%r15
	popq	%rbp
	.cfi_def_cfa %rsp, 8
	retq
.LBB0_8:                                # %func_intrapred_luma.64
	.cfi_def_cfa %rbp, 16
	movl	%ebx, %edi
	movl	%r13d, %esi
	movq	%r12, %rdx
	movq	%r15, %rcx
	movq	%r14, %r8
	callq	intrapred_luma.64
	addq	$8, %rsp
	popq	%rbx
	popq	%r12
	popq	%r13
	popq	%r14
	popq	%r15
	popq	%rbp
	.cfi_def_cfa %rsp, 8
	retq
.LBB0_9:                                # %ctrl0
	.cfi_def_cfa %rbp, 16
	cmpl	$1, %eax
	je	.LBB0_2
# %bb.10:                               # %ctrl1
	cmpl	$2, %eax
	je	.LBB0_3
# %bb.11:                               # %ctrl2
	cmpl	$3, %eax
	je	.LBB0_4
# %bb.12:                               # %ctrl3
	cmpl	$4, %eax
	je	.LBB0_5
# %bb.13:                               # %ctrl4
	cmpl	$5, %eax
	je	.LBB0_6
# %bb.14:                               # %ctrl5
	cmpl	$6, %eax
	je	.LBB0_7
	jmp	.LBB0_8
.Lfunc_end0:
	.size	intrapred_luma, .Lfunc_end0-intrapred_luma
	.cfi_endproc
                                        # -- End function
	.globl	intrapred_luma_16x16    # -- Begin function intrapred_luma_16x16
	.p2align	4, 0x90
	.type	intrapred_luma_16x16,@function
intrapred_luma_16x16:                   # @intrapred_luma_16x16
	.cfi_startproc
# %bb.0:                                # %rand_bb
	pushq	%rbp
	.cfi_def_cfa_offset 16
	.cfi_offset %rbp, -16
	movq	%rsp, %rbp
	.cfi_def_cfa_register %rbp
	callq	get_rand
	cmpl	$0, %eax
	jne	.LBB1_9
# %bb.1:                                # %func_intrapred_luma_16x16.1
	callq	intrapred_luma_16x16.1
	popq	%rbp
	.cfi_def_cfa %rsp, 8
	retq
.LBB1_2:                                # %func_intrapred_luma_16x16.14
	.cfi_def_cfa %rbp, 16
	callq	intrapred_luma_16x16.14
	popq	%rbp
	.cfi_def_cfa %rsp, 8
	retq
.LBB1_3:                                # %func_intrapred_luma_16x16.18
	.cfi_def_cfa %rbp, 16
	callq	intrapred_luma_16x16.18
	popq	%rbp
	.cfi_def_cfa %rsp, 8
	retq
.LBB1_4:                                # %func_intrapred_luma_16x16.20
	.cfi_def_cfa %rbp, 16
	callq	intrapred_luma_16x16.20
	popq	%rbp
	.cfi_def_cfa %rsp, 8
	retq
.LBB1_5:                                # %func_intrapred_luma_16x16.29
	.cfi_def_cfa %rbp, 16
	callq	intrapred_luma_16x16.29
	popq	%rbp
	.cfi_def_cfa %rsp, 8
	retq
.LBB1_6:                                # %func_intrapred_luma_16x16.33
	.cfi_def_cfa %rbp, 16
	callq	intrapred_luma_16x16.33
	popq	%rbp
	.cfi_def_cfa %rsp, 8
	retq
.LBB1_7:                                # %func_intrapred_luma_16x16.38
	.cfi_def_cfa %rbp, 16
	callq	intrapred_luma_16x16.38
	popq	%rbp
	.cfi_def_cfa %rsp, 8
	retq
.LBB1_8:                                # %func_intrapred_luma_16x16.42
	.cfi_def_cfa %rbp, 16
	callq	intrapred_luma_16x16.42
	popq	%rbp
	.cfi_def_cfa %rsp, 8
	retq
.LBB1_9:                                # %ctrl0
	.cfi_def_cfa %rbp, 16
	cmpl	$1, %eax
	je	.LBB1_2
# %bb.10:                               # %ctrl1
	cmpl	$2, %eax
	je	.LBB1_3
# %bb.11:                               # %ctrl2
	cmpl	$3, %eax
	je	.LBB1_4
# %bb.12:                               # %ctrl3
	cmpl	$4, %eax
	je	.LBB1_5
# %bb.13:                               # %ctrl4
	cmpl	$5, %eax
	je	.LBB1_6
# %bb.14:                               # %ctrl5
	cmpl	$6, %eax
	je	.LBB1_7
	jmp	.LBB1_8
.Lfunc_end1:
	.size	intrapred_luma_16x16, .Lfunc_end1-intrapred_luma_16x16
	.cfi_endproc
                                        # -- End function
	.globl	dct_luma_16x16          # -- Begin function dct_luma_16x16
	.p2align	4, 0x90
	.type	dct_luma_16x16,@function
dct_luma_16x16:                         # @dct_luma_16x16
	.cfi_startproc
# %bb.0:                                # %rand_bb
	pushq	%rbp
	.cfi_def_cfa_offset 16
	.cfi_offset %rbp, -16
	movq	%rsp, %rbp
	.cfi_def_cfa_register %rbp
	pushq	%rbx
	pushq	%rax
	.cfi_offset %rbx, -24
	movl	%edi, %ebx
	callq	get_rand
	cmpl	$0, %eax
	jne	.LBB2_9
# %bb.1:                                # %func_dct_luma_16x16.2
	movl	%ebx, %edi
	callq	dct_luma_16x16.2
	addq	$8, %rsp
	popq	%rbx
	popq	%rbp
	.cfi_def_cfa %rsp, 8
	retq
.LBB2_2:                                # %func_dct_luma_16x16.5
	.cfi_def_cfa %rbp, 16
	movl	%ebx, %edi
	callq	dct_luma_16x16.5
	addq	$8, %rsp
	popq	%rbx
	popq	%rbp
	.cfi_def_cfa %rsp, 8
	retq
.LBB2_3:                                # %func_dct_luma_16x16.8
	.cfi_def_cfa %rbp, 16
	movl	%ebx, %edi
	callq	dct_luma_16x16.8
	addq	$8, %rsp
	popq	%rbx
	popq	%rbp
	.cfi_def_cfa %rsp, 8
	retq
.LBB2_4:                                # %func_dct_luma_16x16.11
	.cfi_def_cfa %rbp, 16
	movl	%ebx, %edi
	callq	dct_luma_16x16.11
	addq	$8, %rsp
	popq	%rbx
	popq	%rbp
	.cfi_def_cfa %rsp, 8
	retq
.LBB2_5:                                # %func_dct_luma_16x16.19
	.cfi_def_cfa %rbp, 16
	movl	%ebx, %edi
	callq	dct_luma_16x16.19
	addq	$8, %rsp
	popq	%rbx
	popq	%rbp
	.cfi_def_cfa %rsp, 8
	retq
.LBB2_6:                                # %func_dct_luma_16x16.23
	.cfi_def_cfa %rbp, 16
	movl	%ebx, %edi
	callq	dct_luma_16x16.23
	addq	$8, %rsp
	popq	%rbx
	popq	%rbp
	.cfi_def_cfa %rsp, 8
	retq
.LBB2_7:                                # %func_dct_luma_16x16.32
	.cfi_def_cfa %rbp, 16
	movl	%ebx, %edi
	callq	dct_luma_16x16.32
	addq	$8, %rsp
	popq	%rbx
	popq	%rbp
	.cfi_def_cfa %rsp, 8
	retq
.LBB2_8:                                # %func_dct_luma_16x16.48
	.cfi_def_cfa %rbp, 16
	movl	%ebx, %edi
	callq	dct_luma_16x16.48
	addq	$8, %rsp
	popq	%rbx
	popq	%rbp
	.cfi_def_cfa %rsp, 8
	retq
.LBB2_9:                                # %ctrl0
	.cfi_def_cfa %rbp, 16
	cmpl	$1, %eax
	je	.LBB2_2
# %bb.10:                               # %ctrl1
	cmpl	$2, %eax
	je	.LBB2_3
# %bb.11:                               # %ctrl2
	cmpl	$3, %eax
	je	.LBB2_4
# %bb.12:                               # %ctrl3
	cmpl	$4, %eax
	je	.LBB2_5
# %bb.13:                               # %ctrl4
	cmpl	$5, %eax
	je	.LBB2_6
# %bb.14:                               # %ctrl5
	cmpl	$6, %eax
	je	.LBB2_7
	jmp	.LBB2_8
.Lfunc_end2:
	.size	dct_luma_16x16, .Lfunc_end2-dct_luma_16x16
	.cfi_endproc
                                        # -- End function
	.globl	dct_luma                # -- Begin function dct_luma
	.p2align	4, 0x90
	.type	dct_luma,@function
dct_luma:                               # @dct_luma
	.cfi_startproc
# %bb.0:                                # %rand_bb
	pushq	%rbp
	.cfi_def_cfa_offset 16
	.cfi_offset %rbp, -16
	movq	%rsp, %rbp
	.cfi_def_cfa_register %rbp
	pushq	%r15
	pushq	%r14
	pushq	%r12
	pushq	%rbx
	.cfi_offset %rbx, -48
	.cfi_offset %r12, -40
	.cfi_offset %r14, -32
	.cfi_offset %r15, -24
	movl	%ecx, %r14d
	movq	%rdx, %r15
	movl	%esi, %r12d
	movl	%edi, %ebx
	callq	get_rand
	cmpl	$0, %eax
	jne	.LBB3_9
# %bb.1:                                # %func_dct_luma.3
	movl	%ebx, %edi
	movl	%r12d, %esi
	movq	%r15, %rdx
	movl	%r14d, %ecx
	callq	dct_luma.3
	popq	%rbx
	popq	%r12
	popq	%r14
	popq	%r15
	popq	%rbp
	.cfi_def_cfa %rsp, 8
	retq
.LBB3_2:                                # %func_dct_luma.41
	.cfi_def_cfa %rbp, 16
	movl	%ebx, %edi
	movl	%r12d, %esi
	movq	%r15, %rdx
	movl	%r14d, %ecx
	callq	dct_luma.41
	popq	%rbx
	popq	%r12
	popq	%r14
	popq	%r15
	popq	%rbp
	.cfi_def_cfa %rsp, 8
	retq
.LBB3_3:                                # %func_dct_luma.72
	.cfi_def_cfa %rbp, 16
	movl	%ebx, %edi
	movl	%r12d, %esi
	movq	%r15, %rdx
	movl	%r14d, %ecx
	callq	dct_luma.72
	popq	%rbx
	popq	%r12
	popq	%r14
	popq	%r15
	popq	%rbp
	.cfi_def_cfa %rsp, 8
	retq
.LBB3_4:                                # %func_dct_luma.73
	.cfi_def_cfa %rbp, 16
	movl	%ebx, %edi
	movl	%r12d, %esi
	movq	%r15, %rdx
	movl	%r14d, %ecx
	callq	dct_luma.73
	popq	%rbx
	popq	%r12
	popq	%r14
	popq	%r15
	popq	%rbp
	.cfi_def_cfa %rsp, 8
	retq
.LBB3_5:                                # %func_dct_luma.75
	.cfi_def_cfa %rbp, 16
	movl	%ebx, %edi
	movl	%r12d, %esi
	movq	%r15, %rdx
	movl	%r14d, %ecx
	callq	dct_luma.75
	popq	%rbx
	popq	%r12
	popq	%r14
	popq	%r15
	popq	%rbp
	.cfi_def_cfa %rsp, 8
	retq
.LBB3_6:                                # %func_dct_luma.78
	.cfi_def_cfa %rbp, 16
	movl	%ebx, %edi
	movl	%r12d, %esi
	movq	%r15, %rdx
	movl	%r14d, %ecx
	callq	dct_luma.78
	popq	%rbx
	popq	%r12
	popq	%r14
	popq	%r15
	popq	%rbp
	.cfi_def_cfa %rsp, 8
	retq
.LBB3_7:                                # %func_dct_luma.79
	.cfi_def_cfa %rbp, 16
	movl	%ebx, %edi
	movl	%r12d, %esi
	movq	%r15, %rdx
	movl	%r14d, %ecx
	callq	dct_luma.79
	popq	%rbx
	popq	%r12
	popq	%r14
	popq	%r15
	popq	%rbp
	.cfi_def_cfa %rsp, 8
	retq
.LBB3_8:                                # %func_dct_luma.80
	.cfi_def_cfa %rbp, 16
	movl	%ebx, %edi
	movl	%r12d, %esi
	movq	%r15, %rdx
	movl	%r14d, %ecx
	callq	dct_luma.80
	popq	%rbx
	popq	%r12
	popq	%r14
	popq	%r15
	popq	%rbp
	.cfi_def_cfa %rsp, 8
	retq
.LBB3_9:                                # %ctrl0
	.cfi_def_cfa %rbp, 16
	cmpl	$1, %eax
	je	.LBB3_2
# %bb.10:                               # %ctrl1
	cmpl	$2, %eax
	je	.LBB3_3
# %bb.11:                               # %ctrl2
	cmpl	$3, %eax
	je	.LBB3_4
# %bb.12:                               # %ctrl3
	cmpl	$4, %eax
	je	.LBB3_5
# %bb.13:                               # %ctrl4
	cmpl	$5, %eax
	je	.LBB3_6
# %bb.14:                               # %ctrl5
	cmpl	$6, %eax
	je	.LBB3_7
	jmp	.LBB3_8
.Lfunc_end3:
	.size	dct_luma, .Lfunc_end3-dct_luma
	.cfi_endproc
                                        # -- End function
	.globl	dct_chroma              # -- Begin function dct_chroma
	.p2align	4, 0x90
	.type	dct_chroma,@function
dct_chroma:                             # @dct_chroma
	.cfi_startproc
# %bb.0:                                # %rand_bb
	pushq	%rbp
	.cfi_def_cfa_offset 16
	.cfi_offset %rbp, -16
	movq	%rsp, %rbp
	.cfi_def_cfa_register %rbp
	pushq	%r14
	pushq	%rbx
	.cfi_offset %rbx, -32
	.cfi_offset %r14, -24
	movl	%esi, %r14d
	movl	%edi, %ebx
	callq	get_rand
	cmpl	$0, %eax
	jne	.LBB4_9
# %bb.1:                                # %func_dct_chroma.6
	movl	%ebx, %edi
	movl	%r14d, %esi
	callq	dct_chroma.6
	popq	%rbx
	popq	%r14
	popq	%rbp
	.cfi_def_cfa %rsp, 8
	retq
.LBB4_2:                                # %func_dct_chroma.13
	.cfi_def_cfa %rbp, 16
	movl	%ebx, %edi
	movl	%r14d, %esi
	callq	dct_chroma.13
	popq	%rbx
	popq	%r14
	popq	%rbp
	.cfi_def_cfa %rsp, 8
	retq
.LBB4_3:                                # %func_dct_chroma.16
	.cfi_def_cfa %rbp, 16
	movl	%ebx, %edi
	movl	%r14d, %esi
	callq	dct_chroma.16
	popq	%rbx
	popq	%r14
	popq	%rbp
	.cfi_def_cfa %rsp, 8
	retq
.LBB4_4:                                # %func_dct_chroma.27
	.cfi_def_cfa %rbp, 16
	movl	%ebx, %edi
	movl	%r14d, %esi
	callq	dct_chroma.27
	popq	%rbx
	popq	%r14
	popq	%rbp
	.cfi_def_cfa %rsp, 8
	retq
.LBB4_5:                                # %func_dct_chroma.34
	.cfi_def_cfa %rbp, 16
	movl	%ebx, %edi
	movl	%r14d, %esi
	callq	dct_chroma.34
	popq	%rbx
	popq	%r14
	popq	%rbp
	.cfi_def_cfa %rsp, 8
	retq
.LBB4_6:                                # %func_dct_chroma.36
	.cfi_def_cfa %rbp, 16
	movl	%ebx, %edi
	movl	%r14d, %esi
	callq	dct_chroma.36
	popq	%rbx
	popq	%r14
	popq	%rbp
	.cfi_def_cfa %rsp, 8
	retq
.LBB4_7:                                # %func_dct_chroma.45
	.cfi_def_cfa %rbp, 16
	movl	%ebx, %edi
	movl	%r14d, %esi
	callq	dct_chroma.45
	popq	%rbx
	popq	%r14
	popq	%rbp
	.cfi_def_cfa %rsp, 8
	retq
.LBB4_8:                                # %func_dct_chroma.47
	.cfi_def_cfa %rbp, 16
	movl	%ebx, %edi
	movl	%r14d, %esi
	callq	dct_chroma.47
	popq	%rbx
	popq	%r14
	popq	%rbp
	.cfi_def_cfa %rsp, 8
	retq
.LBB4_9:                                # %ctrl0
	.cfi_def_cfa %rbp, 16
	cmpl	$1, %eax
	je	.LBB4_2
# %bb.10:                               # %ctrl1
	cmpl	$2, %eax
	je	.LBB4_3
# %bb.11:                               # %ctrl2
	cmpl	$3, %eax
	je	.LBB4_4
# %bb.12:                               # %ctrl3
	cmpl	$4, %eax
	je	.LBB4_5
# %bb.13:                               # %ctrl4
	cmpl	$5, %eax
	je	.LBB4_6
# %bb.14:                               # %ctrl5
	cmpl	$6, %eax
	je	.LBB4_7
	jmp	.LBB4_8
.Lfunc_end4:
	.size	dct_chroma, .Lfunc_end4-dct_chroma
	.cfi_endproc
                                        # -- End function
	.globl	dct_chroma4x4           # -- Begin function dct_chroma4x4
	.p2align	4, 0x90
	.type	dct_chroma4x4,@function
dct_chroma4x4:                          # @dct_chroma4x4
	.cfi_startproc
# %bb.0:                                # %rand_bb
	pushq	%rbp
	.cfi_def_cfa_offset 16
	.cfi_offset %rbp, -16
	movq	%rsp, %rbp
	.cfi_def_cfa_register %rbp
	pushq	%r15
	pushq	%r14
	pushq	%rbx
	pushq	%rax
	.cfi_offset %rbx, -40
	.cfi_offset %r14, -32
	.cfi_offset %r15, -24
	movl	%edx, %r14d
	movl	%esi, %r15d
	movl	%edi, %ebx
	callq	get_rand
	cmpl	$0, %eax
	jne	.LBB5_9
# %bb.1:                                # %func_dct_chroma4x4.24
	movl	%ebx, %edi
	movl	%r15d, %esi
	movl	%r14d, %edx
	callq	dct_chroma4x4.24
	addq	$8, %rsp
	popq	%rbx
	popq	%r14
	popq	%r15
	popq	%rbp
	.cfi_def_cfa %rsp, 8
	retq
.LBB5_2:                                # %func_dct_chroma4x4.28
	.cfi_def_cfa %rbp, 16
	movl	%ebx, %edi
	movl	%r15d, %esi
	movl	%r14d, %edx
	callq	dct_chroma4x4.28
	addq	$8, %rsp
	popq	%rbx
	popq	%r14
	popq	%r15
	popq	%rbp
	.cfi_def_cfa %rsp, 8
	retq
.LBB5_3:                                # %func_dct_chroma4x4.50
	.cfi_def_cfa %rbp, 16
	movl	%ebx, %edi
	movl	%r15d, %esi
	movl	%r14d, %edx
	callq	dct_chroma4x4.50
	addq	$8, %rsp
	popq	%rbx
	popq	%r14
	popq	%r15
	popq	%rbp
	.cfi_def_cfa %rsp, 8
	retq
.LBB5_4:                                # %func_dct_chroma4x4.55
	.cfi_def_cfa %rbp, 16
	movl	%ebx, %edi
	movl	%r15d, %esi
	movl	%r14d, %edx
	callq	dct_chroma4x4.55
	addq	$8, %rsp
	popq	%rbx
	popq	%r14
	popq	%r15
	popq	%rbp
	.cfi_def_cfa %rsp, 8
	retq
.LBB5_5:                                # %func_dct_chroma4x4.57
	.cfi_def_cfa %rbp, 16
	movl	%ebx, %edi
	movl	%r15d, %esi
	movl	%r14d, %edx
	callq	dct_chroma4x4.57
	addq	$8, %rsp
	popq	%rbx
	popq	%r14
	popq	%r15
	popq	%rbp
	.cfi_def_cfa %rsp, 8
	retq
.LBB5_6:                                # %func_dct_chroma4x4.67
	.cfi_def_cfa %rbp, 16
	movl	%ebx, %edi
	movl	%r15d, %esi
	movl	%r14d, %edx
	callq	dct_chroma4x4.67
	addq	$8, %rsp
	popq	%rbx
	popq	%r14
	popq	%r15
	popq	%rbp
	.cfi_def_cfa %rsp, 8
	retq
.LBB5_7:                                # %func_dct_chroma4x4.68
	.cfi_def_cfa %rbp, 16
	movl	%ebx, %edi
	movl	%r15d, %esi
	movl	%r14d, %edx
	callq	dct_chroma4x4.68
	addq	$8, %rsp
	popq	%rbx
	popq	%r14
	popq	%r15
	popq	%rbp
	.cfi_def_cfa %rsp, 8
	retq
.LBB5_8:                                # %func_dct_chroma4x4.69
	.cfi_def_cfa %rbp, 16
	movl	%ebx, %edi
	movl	%r15d, %esi
	movl	%r14d, %edx
	callq	dct_chroma4x4.69
	addq	$8, %rsp
	popq	%rbx
	popq	%r14
	popq	%r15
	popq	%rbp
	.cfi_def_cfa %rsp, 8
	retq
.LBB5_9:                                # %ctrl0
	.cfi_def_cfa %rbp, 16
	cmpl	$1, %eax
	je	.LBB5_2
# %bb.10:                               # %ctrl1
	cmpl	$2, %eax
	je	.LBB5_3
# %bb.11:                               # %ctrl2
	cmpl	$3, %eax
	je	.LBB5_4
# %bb.12:                               # %ctrl3
	cmpl	$4, %eax
	je	.LBB5_5
# %bb.13:                               # %ctrl4
	cmpl	$5, %eax
	je	.LBB5_6
# %bb.14:                               # %ctrl5
	cmpl	$6, %eax
	je	.LBB5_7
	jmp	.LBB5_8
.Lfunc_end5:
	.size	dct_chroma4x4, .Lfunc_end5-dct_chroma4x4
	.cfi_endproc
                                        # -- End function
	.globl	dct_chroma_DC           # -- Begin function dct_chroma_DC
	.p2align	4, 0x90
	.type	dct_chroma_DC,@function
dct_chroma_DC:                          # @dct_chroma_DC
	.cfi_startproc
# %bb.0:                                # %rand_bb
	pushq	%rbp
	.cfi_def_cfa_offset 16
	.cfi_offset %rbp, -16
	movq	%rsp, %rbp
	.cfi_def_cfa_register %rbp
	pushq	%r14
	pushq	%rbx
	.cfi_offset %rbx, -32
	.cfi_offset %r14, -24
	movl	%esi, %r14d
	movl	%edi, %ebx
	callq	get_rand
	cmpl	$0, %eax
	jne	.LBB6_9
# %bb.1:                                # %func_dct_chroma_DC.17
	movl	%ebx, %edi
	movl	%r14d, %esi
	callq	dct_chroma_DC.17
	popq	%rbx
	popq	%r14
	popq	%rbp
	.cfi_def_cfa %rsp, 8
	retq
.LBB6_2:                                # %func_dct_chroma_DC.22
	.cfi_def_cfa %rbp, 16
	movl	%ebx, %edi
	movl	%r14d, %esi
	callq	dct_chroma_DC.22
	popq	%rbx
	popq	%r14
	popq	%rbp
	.cfi_def_cfa %rsp, 8
	retq
.LBB6_3:                                # %func_dct_chroma_DC.59
	.cfi_def_cfa %rbp, 16
	movl	%ebx, %edi
	movl	%r14d, %esi
	callq	dct_chroma_DC.59
	popq	%rbx
	popq	%r14
	popq	%rbp
	.cfi_def_cfa %rsp, 8
	retq
.LBB6_4:                                # %func_dct_chroma_DC.70
	.cfi_def_cfa %rbp, 16
	movl	%ebx, %edi
	movl	%r14d, %esi
	callq	dct_chroma_DC.70
	popq	%rbx
	popq	%r14
	popq	%rbp
	.cfi_def_cfa %rsp, 8
	retq
.LBB6_5:                                # %func_dct_chroma_DC.71
	.cfi_def_cfa %rbp, 16
	movl	%ebx, %edi
	movl	%r14d, %esi
	callq	dct_chroma_DC.71
	popq	%rbx
	popq	%r14
	popq	%rbp
	.cfi_def_cfa %rsp, 8
	retq
.LBB6_6:                                # %func_dct_chroma_DC.74
	.cfi_def_cfa %rbp, 16
	movl	%ebx, %edi
	movl	%r14d, %esi
	callq	dct_chroma_DC.74
	popq	%rbx
	popq	%r14
	popq	%rbp
	.cfi_def_cfa %rsp, 8
	retq
.LBB6_7:                                # %func_dct_chroma_DC.76
	.cfi_def_cfa %rbp, 16
	movl	%ebx, %edi
	movl	%r14d, %esi
	callq	dct_chroma_DC.76
	popq	%rbx
	popq	%r14
	popq	%rbp
	.cfi_def_cfa %rsp, 8
	retq
.LBB6_8:                                # %func_dct_chroma_DC.77
	.cfi_def_cfa %rbp, 16
	movl	%ebx, %edi
	movl	%r14d, %esi
	callq	dct_chroma_DC.77
	popq	%rbx
	popq	%r14
	popq	%rbp
	.cfi_def_cfa %rsp, 8
	retq
.LBB6_9:                                # %ctrl0
	.cfi_def_cfa %rbp, 16
	cmpl	$1, %eax
	je	.LBB6_2
# %bb.10:                               # %ctrl1
	cmpl	$2, %eax
	je	.LBB6_3
# %bb.11:                               # %ctrl2
	cmpl	$3, %eax
	je	.LBB6_4
# %bb.12:                               # %ctrl3
	cmpl	$4, %eax
	je	.LBB6_5
# %bb.13:                               # %ctrl4
	cmpl	$5, %eax
	je	.LBB6_6
# %bb.14:                               # %ctrl5
	cmpl	$6, %eax
	je	.LBB6_7
	jmp	.LBB6_8
.Lfunc_end6:
	.size	dct_chroma_DC, .Lfunc_end6-dct_chroma_DC
	.cfi_endproc
                                        # -- End function
	.globl	dct_luma_sp             # -- Begin function dct_luma_sp
	.p2align	4, 0x90
	.type	dct_luma_sp,@function
dct_luma_sp:                            # @dct_luma_sp
	.cfi_startproc
# %bb.0:                                # %rand_bb
	pushq	%rbp
	.cfi_def_cfa_offset 16
	.cfi_offset %rbp, -16
	movq	%rsp, %rbp
	.cfi_def_cfa_register %rbp
	pushq	%r15
	pushq	%r14
	pushq	%rbx
	pushq	%rax
	.cfi_offset %rbx, -40
	.cfi_offset %r14, -32
	.cfi_offset %r15, -24
	movq	%rdx, %r14
	movl	%esi, %r15d
	movl	%edi, %ebx
	callq	get_rand
	cmpl	$0, %eax
	jne	.LBB7_9
# %bb.1:                                # %func_dct_luma_sp.4
	movl	%ebx, %edi
	movl	%r15d, %esi
	movq	%r14, %rdx
	callq	dct_luma_sp.4
	addq	$8, %rsp
	popq	%rbx
	popq	%r14
	popq	%r15
	popq	%rbp
	.cfi_def_cfa %rsp, 8
	retq
.LBB7_2:                                # %func_dct_luma_sp.21
	.cfi_def_cfa %rbp, 16
	movl	%ebx, %edi
	movl	%r15d, %esi
	movq	%r14, %rdx
	callq	dct_luma_sp.21
	addq	$8, %rsp
	popq	%rbx
	popq	%r14
	popq	%r15
	popq	%rbp
	.cfi_def_cfa %rsp, 8
	retq
.LBB7_3:                                # %func_dct_luma_sp.25
	.cfi_def_cfa %rbp, 16
	movl	%ebx, %edi
	movl	%r15d, %esi
	movq	%r14, %rdx
	callq	dct_luma_sp.25
	addq	$8, %rsp
	popq	%rbx
	popq	%r14
	popq	%r15
	popq	%rbp
	.cfi_def_cfa %rsp, 8
	retq
.LBB7_4:                                # %func_dct_luma_sp.30
	.cfi_def_cfa %rbp, 16
	movl	%ebx, %edi
	movl	%r15d, %esi
	movq	%r14, %rdx
	callq	dct_luma_sp.30
	addq	$8, %rsp
	popq	%rbx
	popq	%r14
	popq	%r15
	popq	%rbp
	.cfi_def_cfa %rsp, 8
	retq
.LBB7_5:                                # %func_dct_luma_sp.51
	.cfi_def_cfa %rbp, 16
	movl	%ebx, %edi
	movl	%r15d, %esi
	movq	%r14, %rdx
	callq	dct_luma_sp.51
	addq	$8, %rsp
	popq	%rbx
	popq	%r14
	popq	%r15
	popq	%rbp
	.cfi_def_cfa %rsp, 8
	retq
.LBB7_6:                                # %func_dct_luma_sp.61
	.cfi_def_cfa %rbp, 16
	movl	%ebx, %edi
	movl	%r15d, %esi
	movq	%r14, %rdx
	callq	dct_luma_sp.61
	addq	$8, %rsp
	popq	%rbx
	popq	%r14
	popq	%r15
	popq	%rbp
	.cfi_def_cfa %rsp, 8
	retq
.LBB7_7:                                # %func_dct_luma_sp.65
	.cfi_def_cfa %rbp, 16
	movl	%ebx, %edi
	movl	%r15d, %esi
	movq	%r14, %rdx
	callq	dct_luma_sp.65
	addq	$8, %rsp
	popq	%rbx
	popq	%r14
	popq	%r15
	popq	%rbp
	.cfi_def_cfa %rsp, 8
	retq
.LBB7_8:                                # %func_dct_luma_sp.66
	.cfi_def_cfa %rbp, 16
	movl	%ebx, %edi
	movl	%r15d, %esi
	movq	%r14, %rdx
	callq	dct_luma_sp.66
	addq	$8, %rsp
	popq	%rbx
	popq	%r14
	popq	%r15
	popq	%rbp
	.cfi_def_cfa %rsp, 8
	retq
.LBB7_9:                                # %ctrl0
	.cfi_def_cfa %rbp, 16
	cmpl	$1, %eax
	je	.LBB7_2
# %bb.10:                               # %ctrl1
	cmpl	$2, %eax
	je	.LBB7_3
# %bb.11:                               # %ctrl2
	cmpl	$3, %eax
	je	.LBB7_4
# %bb.12:                               # %ctrl3
	cmpl	$4, %eax
	je	.LBB7_5
# %bb.13:                               # %ctrl4
	cmpl	$5, %eax
	je	.LBB7_6
# %bb.14:                               # %ctrl5
	cmpl	$6, %eax
	je	.LBB7_7
	jmp	.LBB7_8
.Lfunc_end7:
	.size	dct_luma_sp, .Lfunc_end7-dct_luma_sp
	.cfi_endproc
                                        # -- End function
	.globl	dct_chroma_sp           # -- Begin function dct_chroma_sp
	.p2align	4, 0x90
	.type	dct_chroma_sp,@function
dct_chroma_sp:                          # @dct_chroma_sp
	.cfi_startproc
# %bb.0:                                # %rand_bb
	pushq	%rbp
	.cfi_def_cfa_offset 16
	.cfi_offset %rbp, -16
	movq	%rsp, %rbp
	.cfi_def_cfa_register %rbp
	pushq	%r14
	pushq	%rbx
	.cfi_offset %rbx, -32
	.cfi_offset %r14, -24
	movl	%esi, %r14d
	movl	%edi, %ebx
	callq	get_rand
	cmpl	$0, %eax
	jne	.LBB8_9
# %bb.1:                                # %func_dct_chroma_sp.15
	movl	%ebx, %edi
	movl	%r14d, %esi
	callq	dct_chroma_sp.15
	popq	%rbx
	popq	%r14
	popq	%rbp
	.cfi_def_cfa %rsp, 8
	retq
.LBB8_2:                                # %func_dct_chroma_sp.39
	.cfi_def_cfa %rbp, 16
	movl	%ebx, %edi
	movl	%r14d, %esi
	callq	dct_chroma_sp.39
	popq	%rbx
	popq	%r14
	popq	%rbp
	.cfi_def_cfa %rsp, 8
	retq
.LBB8_3:                                # %func_dct_chroma_sp.44
	.cfi_def_cfa %rbp, 16
	movl	%ebx, %edi
	movl	%r14d, %esi
	callq	dct_chroma_sp.44
	popq	%rbx
	popq	%r14
	popq	%rbp
	.cfi_def_cfa %rsp, 8
	retq
.LBB8_4:                                # %func_dct_chroma_sp.49
	.cfi_def_cfa %rbp, 16
	movl	%ebx, %edi
	movl	%r14d, %esi
	callq	dct_chroma_sp.49
	popq	%rbx
	popq	%r14
	popq	%rbp
	.cfi_def_cfa %rsp, 8
	retq
.LBB8_5:                                # %func_dct_chroma_sp.53
	.cfi_def_cfa %rbp, 16
	movl	%ebx, %edi
	movl	%r14d, %esi
	callq	dct_chroma_sp.53
	popq	%rbx
	popq	%r14
	popq	%rbp
	.cfi_def_cfa %rsp, 8
	retq
.LBB8_6:                                # %func_dct_chroma_sp.58
	.cfi_def_cfa %rbp, 16
	movl	%ebx, %edi
	movl	%r14d, %esi
	callq	dct_chroma_sp.58
	popq	%rbx
	popq	%r14
	popq	%rbp
	.cfi_def_cfa %rsp, 8
	retq
.LBB8_7:                                # %func_dct_chroma_sp.60
	.cfi_def_cfa %rbp, 16
	movl	%ebx, %edi
	movl	%r14d, %esi
	callq	dct_chroma_sp.60
	popq	%rbx
	popq	%r14
	popq	%rbp
	.cfi_def_cfa %rsp, 8
	retq
.LBB8_8:                                # %func_dct_chroma_sp.62
	.cfi_def_cfa %rbp, 16
	movl	%ebx, %edi
	movl	%r14d, %esi
	callq	dct_chroma_sp.62
	popq	%rbx
	popq	%r14
	popq	%rbp
	.cfi_def_cfa %rsp, 8
	retq
.LBB8_9:                                # %ctrl0
	.cfi_def_cfa %rbp, 16
	cmpl	$1, %eax
	je	.LBB8_2
# %bb.10:                               # %ctrl1
	cmpl	$2, %eax
	je	.LBB8_3
# %bb.11:                               # %ctrl2
	cmpl	$3, %eax
	je	.LBB8_4
# %bb.12:                               # %ctrl3
	cmpl	$4, %eax
	je	.LBB8_5
# %bb.13:                               # %ctrl4
	cmpl	$5, %eax
	je	.LBB8_6
# %bb.14:                               # %ctrl5
	cmpl	$6, %eax
	je	.LBB8_7
	jmp	.LBB8_8
.Lfunc_end8:
	.size	dct_chroma_sp, .Lfunc_end8-dct_chroma_sp
	.cfi_endproc
                                        # -- End function
	.globl	copyblock_sp            # -- Begin function copyblock_sp
	.p2align	4, 0x90
	.type	copyblock_sp,@function
copyblock_sp:                           # @copyblock_sp
	.cfi_startproc
# %bb.0:                                # %rand_bb
	pushq	%rbp
	.cfi_def_cfa_offset 16
	.cfi_offset %rbp, -16
	movq	%rsp, %rbp
	.cfi_def_cfa_register %rbp
	pushq	%r14
	pushq	%rbx
	.cfi_offset %rbx, -32
	.cfi_offset %r14, -24
	movl	%esi, %r14d
	movl	%edi, %ebx
	callq	get_rand
	cmpl	$0, %eax
	jne	.LBB9_9
# %bb.1:                                # %func_copyblock_sp.7
	movl	%ebx, %edi
	movl	%r14d, %esi
	callq	copyblock_sp.7
	popq	%rbx
	popq	%r14
	popq	%rbp
	.cfi_def_cfa %rsp, 8
	retq
.LBB9_2:                                # %func_copyblock_sp.9
	.cfi_def_cfa %rbp, 16
	movl	%ebx, %edi
	movl	%r14d, %esi
	callq	copyblock_sp.9
	popq	%rbx
	popq	%r14
	popq	%rbp
	.cfi_def_cfa %rsp, 8
	retq
.LBB9_3:                                # %func_copyblock_sp.12
	.cfi_def_cfa %rbp, 16
	movl	%ebx, %edi
	movl	%r14d, %esi
	callq	copyblock_sp.12
	popq	%rbx
	popq	%r14
	popq	%rbp
	.cfi_def_cfa %rsp, 8
	retq
.LBB9_4:                                # %func_copyblock_sp.26
	.cfi_def_cfa %rbp, 16
	movl	%ebx, %edi
	movl	%r14d, %esi
	callq	copyblock_sp.26
	popq	%rbx
	popq	%r14
	popq	%rbp
	.cfi_def_cfa %rsp, 8
	retq
.LBB9_5:                                # %func_copyblock_sp.35
	.cfi_def_cfa %rbp, 16
	movl	%ebx, %edi
	movl	%r14d, %esi
	callq	copyblock_sp.35
	popq	%rbx
	popq	%r14
	popq	%rbp
	.cfi_def_cfa %rsp, 8
	retq
.LBB9_6:                                # %func_copyblock_sp.40
	.cfi_def_cfa %rbp, 16
	movl	%ebx, %edi
	movl	%r14d, %esi
	callq	copyblock_sp.40
	popq	%rbx
	popq	%r14
	popq	%rbp
	.cfi_def_cfa %rsp, 8
	retq
.LBB9_7:                                # %func_copyblock_sp.46
	.cfi_def_cfa %rbp, 16
	movl	%ebx, %edi
	movl	%r14d, %esi
	callq	copyblock_sp.46
	popq	%rbx
	popq	%r14
	popq	%rbp
	.cfi_def_cfa %rsp, 8
	retq
.LBB9_8:                                # %func_copyblock_sp.54
	.cfi_def_cfa %rbp, 16
	movl	%ebx, %edi
	movl	%r14d, %esi
	callq	copyblock_sp.54
	popq	%rbx
	popq	%r14
	popq	%rbp
	.cfi_def_cfa %rsp, 8
	retq
.LBB9_9:                                # %ctrl0
	.cfi_def_cfa %rbp, 16
	cmpl	$1, %eax
	je	.LBB9_2
# %bb.10:                               # %ctrl1
	cmpl	$2, %eax
	je	.LBB9_3
# %bb.11:                               # %ctrl2
	cmpl	$3, %eax
	je	.LBB9_4
# %bb.12:                               # %ctrl3
	cmpl	$4, %eax
	je	.LBB9_5
# %bb.13:                               # %ctrl4
	cmpl	$5, %eax
	je	.LBB9_6
# %bb.14:                               # %ctrl5
	cmpl	$6, %eax
	je	.LBB9_7
	jmp	.LBB9_8
.Lfunc_end9:
	.size	copyblock_sp, .Lfunc_end9-copyblock_sp
	.cfi_endproc
                                        # -- End function
	.globl	intrapred_luma_16x16.1  # -- Begin function intrapred_luma_16x16.1
	.p2align	4, 0x90
	.type	intrapred_luma_16x16.1,@function
intrapred_luma_16x16.1:                 # @intrapred_luma_16x16.1
	.cfi_startproc
# %bb.0:                                # %entry
	pushq	%rbp
	.cfi_def_cfa_offset 16
	.cfi_offset %rbp, -16
	movq	%rsp, %rbp
	.cfi_def_cfa_register %rbp
	subq	$640, %rsp              # imm = 0x280
	movl	$1574754239, -92(%rbp)  # imm = 0x5DDCD7BF
	movl	$0, -32(%rbp)
	movq	enc_picture, %rax
	movq	6424(%rax), %rax
	movq	%rax, -24(%rbp)
	movq	img, %rax
	movl	12(%rax), %eax
	movl	%eax, -60(%rbp)
	movl	$0, -4(%rbp)
.LBB10_1:                               # %for.cond
                                        # =>This Inner Loop Header: Depth=1
	cmpl	$17, -4(%rbp)
	jge	.LBB10_4
# %bb.2:                                # %for.body
                                        #   in Loop: Header=BB10_1 Depth=1
	movl	-60(%rbp), %edi
	movl	-4(%rbp), %edx
	subl	$1, %edx
	movslq	-4(%rbp), %rax
	imulq	$24, %rax, %rax
	leaq	-512(%rbp), %r8
	addq	%rax, %r8
	movl	$4294967295, %esi       # imm = 0xFFFFFFFF
	movl	$1, %ecx
	callq	getNeighbour
# %bb.3:                                # %for.inc
                                        #   in Loop: Header=BB10_1 Depth=1
	movl	-4(%rbp), %eax
	addl	$1, %eax
	movl	%eax, -4(%rbp)
	jmp	.LBB10_1
.LBB10_4:                               # %for.end
	movl	-60(%rbp), %edi
	xorl	%esi, %esi
	movl	$4294967295, %edx       # imm = 0xFFFFFFFF
	movl	$1, %ecx
	leaq	-88(%rbp), %r8
	callq	getNeighbour
	movq	input, %rax
	cmpl	$0, 216(%rax)
	jne	.LBB10_6
# %bb.5:                                # %if.then
	movl	-88(%rbp), %eax
	movl	%eax, -16(%rbp)
	movl	-488(%rbp), %eax
	movl	%eax, -12(%rbp)
	movl	-512(%rbp), %eax
	movl	%eax, -64(%rbp)
	jmp	.LBB10_20
.LBB10_6:                               # %if.else
	cmpl	$0, -88(%rbp)
	je	.LBB10_8
# %bb.7:                                # %cond.true
	movq	img, %rax
	movq	71784(%rax), %rax
	movslq	-84(%rbp), %rcx
	movl	(%rax,%rcx,4), %eax
	jmp	.LBB10_9
.LBB10_8:                               # %cond.false
	xorl	%eax, %eax
	jmp	.LBB10_9
.LBB10_9:                               # %cond.end
	movl	%eax, -16(%rbp)
	movl	$1, -4(%rbp)
	movl	$1, -12(%rbp)
.LBB10_10:                              # %for.cond9
                                        # =>This Inner Loop Header: Depth=1
	cmpl	$17, -4(%rbp)
	jge	.LBB10_16
# %bb.11:                               # %for.body11
                                        #   in Loop: Header=BB10_10 Depth=1
	movslq	-4(%rbp), %rax
	imulq	$24, %rax, %rax
	leaq	-512(%rbp), %rcx
	addq	%rax, %rcx
	cmpl	$0, (%rcx)
	je	.LBB10_13
# %bb.12:                               # %cond.true16
                                        #   in Loop: Header=BB10_10 Depth=1
	movq	img, %rax
	movq	71784(%rax), %rax
	movslq	-4(%rbp), %rcx
	imulq	$24, %rcx, %rcx
	leaq	-512(%rbp), %rdx
	addq	%rcx, %rdx
	movslq	4(%rdx), %rcx
	movl	(%rax,%rcx,4), %eax
	jmp	.LBB10_14
.LBB10_13:                              # %cond.false23
                                        #   in Loop: Header=BB10_10 Depth=1
	xorl	%eax, %eax
	jmp	.LBB10_14
.LBB10_14:                              # %cond.end24
                                        #   in Loop: Header=BB10_10 Depth=1
	andl	-12(%rbp), %eax
	movl	%eax, -12(%rbp)
# %bb.15:                               # %for.inc26
                                        #   in Loop: Header=BB10_10 Depth=1
	movl	-4(%rbp), %eax
	addl	$1, %eax
	movl	%eax, -4(%rbp)
	jmp	.LBB10_10
.LBB10_16:                              # %for.end28
	cmpl	$0, -512(%rbp)
	je	.LBB10_18
# %bb.17:                               # %cond.true32
	movq	img, %rax
	movq	71784(%rax), %rax
	movslq	-508(%rbp), %rcx
	movl	(%rax,%rcx,4), %eax
	jmp	.LBB10_19
.LBB10_18:                              # %cond.false38
	xorl	%eax, %eax
	jmp	.LBB10_19
.LBB10_19:                              # %cond.end39
	movl	%eax, -64(%rbp)
.LBB10_20:                              # %if.end
	movl	$0, -40(%rbp)
	movl	$0, -36(%rbp)
	movl	$0, -4(%rbp)
.LBB10_21:                              # %for.cond41
                                        # =>This Inner Loop Header: Depth=1
	cmpl	$16, -4(%rbp)
	jge	.LBB10_28
# %bb.22:                               # %for.body43
                                        #   in Loop: Header=BB10_21 Depth=1
	cmpl	$0, -16(%rbp)
	je	.LBB10_24
# %bb.23:                               # %if.then45
                                        #   in Loop: Header=BB10_21 Depth=1
	movq	-24(%rbp), %rax
	movslq	-68(%rbp), %rcx
	movq	(%rax,%rcx,8), %rax
	movl	-72(%rbp), %ecx
	addl	-4(%rbp), %ecx
	movslq	%ecx, %rcx
	movzwl	(%rax,%rcx,2), %eax
	addl	-36(%rbp), %eax
	movl	%eax, -36(%rbp)
.LBB10_24:                              # %if.end51
                                        #   in Loop: Header=BB10_21 Depth=1
	cmpl	$0, -12(%rbp)
	je	.LBB10_26
# %bb.25:                               # %if.then53
                                        #   in Loop: Header=BB10_21 Depth=1
	movq	-24(%rbp), %rax
	movl	-4(%rbp), %ecx
	addl	$1, %ecx
	movslq	%ecx, %rcx
	imulq	$24, %rcx, %rcx
	leaq	-512(%rbp), %rdx
	movq	%rdx, %rsi
	addq	%rcx, %rsi
	movslq	20(%rsi), %rcx
	movq	(%rax,%rcx,8), %rax
	movl	-4(%rbp), %ecx
	addl	$1, %ecx
	movslq	%ecx, %rcx
	imulq	$24, %rcx, %rcx
	addq	%rcx, %rdx
	movslq	16(%rdx), %rcx
	movzwl	(%rax,%rcx,2), %eax
	addl	-40(%rbp), %eax
	movl	%eax, -40(%rbp)
.LBB10_26:                              # %if.end68
                                        #   in Loop: Header=BB10_21 Depth=1
	jmp	.LBB10_27
.LBB10_27:                              # %for.inc69
                                        #   in Loop: Header=BB10_21 Depth=1
	movl	-4(%rbp), %eax
	addl	$1, %eax
	movl	%eax, -4(%rbp)
	jmp	.LBB10_21
.LBB10_28:                              # %for.end71
	cmpl	$0, -16(%rbp)
	je	.LBB10_31
# %bb.29:                               # %land.lhs.true
	cmpl	$0, -12(%rbp)
	je	.LBB10_31
# %bb.30:                               # %if.then74
	movl	-36(%rbp), %eax
	addl	-40(%rbp), %eax
	addl	$16, %eax
	cltd
	movl	$32, %ecx
	idivl	%ecx
	movl	%eax, -32(%rbp)
.LBB10_31:                              # %if.end77
	cmpl	$0, -16(%rbp)
	jne	.LBB10_34
# %bb.32:                               # %land.lhs.true79
	cmpl	$0, -12(%rbp)
	je	.LBB10_34
# %bb.33:                               # %if.then81
	movl	-40(%rbp), %eax
	addl	$8, %eax
	cltd
	movl	$16, %ecx
	idivl	%ecx
	movl	%eax, -32(%rbp)
.LBB10_34:                              # %if.end84
	cmpl	$0, -16(%rbp)
	je	.LBB10_37
# %bb.35:                               # %land.lhs.true86
	cmpl	$0, -12(%rbp)
	jne	.LBB10_37
# %bb.36:                               # %if.then88
	movl	-36(%rbp), %eax
	addl	$8, %eax
	cltd
	movl	$16, %ecx
	idivl	%ecx
	movl	%eax, -32(%rbp)
.LBB10_37:                              # %if.end91
	cmpl	$0, -16(%rbp)
	jne	.LBB10_40
# %bb.38:                               # %land.lhs.true93
	cmpl	$0, -12(%rbp)
	jne	.LBB10_40
# %bb.39:                               # %if.then95
	movq	img, %rax
	movl	72680(%rax), %eax
	movl	%eax, -32(%rbp)
.LBB10_40:                              # %if.end96
	movl	$0, -4(%rbp)
.LBB10_41:                              # %for.cond97
                                        # =>This Inner Loop Header: Depth=1
	cmpl	$16, -4(%rbp)
	jge	.LBB10_48
# %bb.42:                               # %for.body100
                                        #   in Loop: Header=BB10_41 Depth=1
	cmpl	$0, -16(%rbp)
	je	.LBB10_44
# %bb.43:                               # %if.then102
                                        #   in Loop: Header=BB10_41 Depth=1
	movq	-24(%rbp), %rax
	movslq	-68(%rbp), %rcx
	movq	(%rax,%rcx,8), %rax
	movl	-72(%rbp), %ecx
	addl	-4(%rbp), %ecx
	movslq	%ecx, %rcx
	movzwl	(%rax,%rcx,2), %eax
	movslq	-4(%rbp), %rcx
	movl	%eax, -640(%rbp,%rcx,8)
.LBB10_44:                              # %if.end114
                                        #   in Loop: Header=BB10_41 Depth=1
	cmpl	$0, -12(%rbp)
	je	.LBB10_46
# %bb.45:                               # %if.then116
                                        #   in Loop: Header=BB10_41 Depth=1
	movq	-24(%rbp), %rax
	movl	-4(%rbp), %ecx
	addl	$1, %ecx
	movslq	%ecx, %rcx
	imulq	$24, %rcx, %rcx
	leaq	-512(%rbp), %rdx
	movq	%rdx, %rsi
	addq	%rcx, %rsi
	movslq	20(%rsi), %rcx
	movq	(%rax,%rcx,8), %rax
	movl	-4(%rbp), %ecx
	addl	$1, %ecx
	movslq	%ecx, %rcx
	imulq	$24, %rcx, %rcx
	addq	%rcx, %rdx
	movslq	16(%rdx), %rcx
	movzwl	(%rax,%rcx,2), %eax
	movslq	-4(%rbp), %rcx
	movl	%eax, -636(%rbp,%rcx,8)
.LBB10_46:                              # %if.end133
                                        #   in Loop: Header=BB10_41 Depth=1
	jmp	.LBB10_47
.LBB10_47:                              # %for.inc134
                                        #   in Loop: Header=BB10_41 Depth=1
	movl	-4(%rbp), %eax
	addl	$1, %eax
	movl	%eax, -4(%rbp)
	jmp	.LBB10_41
.LBB10_48:                              # %for.end136
	movl	$0, -8(%rbp)
.LBB10_49:                              # %for.cond137
                                        # =>This Loop Header: Depth=1
                                        #     Child Loop BB10_51 Depth 2
	cmpl	$16, -8(%rbp)
	jge	.LBB10_56
# %bb.50:                               # %for.body140
                                        #   in Loop: Header=BB10_49 Depth=1
	movl	$0, -4(%rbp)
.LBB10_51:                              # %for.cond141
                                        #   Parent Loop BB10_49 Depth=1
                                        # =>  This Inner Loop Header: Depth=2
	cmpl	$16, -4(%rbp)
	jge	.LBB10_54
# %bb.52:                               # %for.body144
                                        #   in Loop: Header=BB10_51 Depth=2
	movslq	-4(%rbp), %rax
	movl	-640(%rbp,%rax,8), %eax
	movq	img, %rcx
	addq	$4792, %rcx             # imm = 0x12B8
	movslq	-8(%rbp), %rdx
	shlq	$5, %rdx
	addq	%rdx, %rcx
	movslq	-4(%rbp), %rdx
	movw	%ax, (%rcx,%rdx,2)
	movslq	-8(%rbp), %rax
	movl	-636(%rbp,%rax,8), %eax
	movq	img, %rcx
	addq	$4792, %rcx             # imm = 0x12B8
	addq	$512, %rcx              # imm = 0x200
	movslq	-8(%rbp), %rdx
	shlq	$5, %rdx
	addq	%rdx, %rcx
	movslq	-4(%rbp), %rdx
	movw	%ax, (%rcx,%rdx,2)
	movl	-32(%rbp), %eax
	movq	img, %rcx
	addq	$4792, %rcx             # imm = 0x12B8
	addq	$1024, %rcx             # imm = 0x400
	movslq	-8(%rbp), %rdx
	shlq	$5, %rdx
	addq	%rdx, %rcx
	movslq	-4(%rbp), %rdx
	movw	%ax, (%rcx,%rdx,2)
# %bb.53:                               # %for.inc171
                                        #   in Loop: Header=BB10_51 Depth=2
	movl	-4(%rbp), %eax
	addl	$1, %eax
	movl	%eax, -4(%rbp)
	jmp	.LBB10_51
.LBB10_54:                              # %for.end173
                                        #   in Loop: Header=BB10_49 Depth=1
	jmp	.LBB10_55
.LBB10_55:                              # %for.inc174
                                        #   in Loop: Header=BB10_49 Depth=1
	movl	-8(%rbp), %eax
	addl	$1, %eax
	movl	%eax, -8(%rbp)
	jmp	.LBB10_49
.LBB10_56:                              # %for.end176
	cmpl	$0, -16(%rbp)
	je	.LBB10_59
# %bb.57:                               # %lor.lhs.false
	cmpl	$0, -12(%rbp)
	je	.LBB10_59
# %bb.58:                               # %lor.lhs.false179
	cmpl	$0, -64(%rbp)
	jne	.LBB10_60
.LBB10_59:                              # %if.then181
	jmp	.LBB10_85
.LBB10_60:                              # %if.end182
	movl	$0, -28(%rbp)
	movl	$0, -56(%rbp)
	movl	$1, -4(%rbp)
.LBB10_61:                              # %for.cond183
                                        # =>This Inner Loop Header: Depth=1
	cmpl	$9, -4(%rbp)
	jge	.LBB10_67
# %bb.62:                               # %for.body186
                                        #   in Loop: Header=BB10_61 Depth=1
	cmpl	$8, -4(%rbp)
	jge	.LBB10_64
# %bb.63:                               # %if.then189
                                        #   in Loop: Header=BB10_61 Depth=1
	movl	-4(%rbp), %eax
	movq	-24(%rbp), %rcx
	movslq	-68(%rbp), %rdx
	movq	(%rcx,%rdx,8), %rcx
	movl	-72(%rbp), %edx
	addl	$7, %edx
	addl	-4(%rbp), %edx
	movslq	%edx, %rdx
	movzwl	(%rcx,%rdx,2), %ecx
	movq	-24(%rbp), %rdx
	movslq	-68(%rbp), %rsi
	movq	(%rdx,%rsi,8), %rdx
	movl	-72(%rbp), %esi
	addl	$7, %esi
	subl	-4(%rbp), %esi
	movslq	%esi, %rsi
	movzwl	(%rdx,%rsi,2), %edx
	subl	%edx, %ecx
	imull	%ecx, %eax
	addl	-28(%rbp), %eax
	movl	%eax, -28(%rbp)
	jmp	.LBB10_65
.LBB10_64:                              # %if.else210
                                        #   in Loop: Header=BB10_61 Depth=1
	movl	-4(%rbp), %eax
	movq	-24(%rbp), %rcx
	movslq	-68(%rbp), %rdx
	movq	(%rcx,%rdx,8), %rcx
	movl	-72(%rbp), %edx
	addl	$7, %edx
	addl	-4(%rbp), %edx
	movslq	%edx, %rdx
	movzwl	(%rcx,%rdx,2), %ecx
	movq	-24(%rbp), %rdx
	movslq	-492(%rbp), %rsi
	movq	(%rdx,%rsi,8), %rdx
	movslq	-496(%rbp), %rsi
	movzwl	(%rdx,%rsi,2), %edx
	subl	%edx, %ecx
	imull	%ecx, %eax
	addl	-28(%rbp), %eax
	movl	%eax, -28(%rbp)
.LBB10_65:                              # %if.end232
                                        #   in Loop: Header=BB10_61 Depth=1
	movl	-4(%rbp), %eax
	movq	-24(%rbp), %rsi
	movl	-4(%rbp), %edx
	addl	$8, %edx
	movslq	%edx, %rdx
	imulq	$24, %rdx, %rdx
	leaq	-512(%rbp), %rcx
	movq	%rcx, %rdi
	addq	%rdx, %rdi
	movslq	20(%rdi), %rdx
	movq	(%rsi,%rdx,8), %rsi
	movl	-4(%rbp), %edx
	addl	$8, %edx
	movslq	%edx, %rdx
	imulq	$24, %rdx, %rdx
	movq	%rcx, %rdi
	addq	%rdx, %rdi
	movslq	16(%rdi), %rdx
	movzwl	(%rsi,%rdx,2), %r9d
	movq	-24(%rbp), %r8
	movl	$8, %edi
	movl	$8, %edx
	subl	-4(%rbp), %edx
	movslq	%edx, %rdx
	imulq	$24, %rdx, %rdx
	movq	%rcx, %rsi
	addq	%rdx, %rsi
	movslq	20(%rsi), %rdx
	movq	(%r8,%rdx,8), %rdx
	subl	-4(%rbp), %edi
	movslq	%edi, %rsi
	imulq	$24, %rsi, %rsi
	addq	%rsi, %rcx
	movslq	16(%rcx), %rcx
	movzwl	(%rdx,%rcx,2), %ecx
	subl	%ecx, %r9d
	imull	%r9d, %eax
	addl	-56(%rbp), %eax
	movl	%eax, -56(%rbp)
# %bb.66:                               # %for.inc262
                                        #   in Loop: Header=BB10_61 Depth=1
	movl	-4(%rbp), %eax
	addl	$1, %eax
	movl	%eax, -4(%rbp)
	jmp	.LBB10_61
.LBB10_67:                              # %for.end264
	imull	$5, -28(%rbp), %eax
	addl	$32, %eax
	sarl	$6, %eax
	movl	%eax, -52(%rbp)
	imull	$5, -56(%rbp), %eax
	addl	$32, %eax
	sarl	$6, %eax
	movl	%eax, -48(%rbp)
	movq	-24(%rbp), %rax
	movslq	-68(%rbp), %rcx
	movq	(%rax,%rcx,8), %rax
	movl	-72(%rbp), %ecx
	addl	$15, %ecx
	movslq	%ecx, %rcx
	movzwl	(%rax,%rcx,2), %eax
	movq	-24(%rbp), %rcx
	movslq	-108(%rbp), %rdx
	movq	(%rcx,%rdx,8), %rcx
	movslq	-112(%rbp), %rdx
	movzwl	(%rcx,%rdx,2), %ecx
	addl	%ecx, %eax
	shll	$4, %eax
	movl	%eax, -44(%rbp)
	movl	$0, -8(%rbp)
.LBB10_68:                              # %for.cond289
                                        # =>This Loop Header: Depth=1
                                        #     Child Loop BB10_70 Depth 2
	cmpl	$16, -8(%rbp)
	jge	.LBB10_84
# %bb.69:                               # %for.body292
                                        #   in Loop: Header=BB10_68 Depth=1
	movl	$0, -4(%rbp)
.LBB10_70:                              # %for.cond293
                                        #   Parent Loop BB10_68 Depth=1
                                        # =>  This Inner Loop Header: Depth=2
	cmpl	$16, -4(%rbp)
	jge	.LBB10_82
# %bb.71:                               # %for.body296
                                        #   in Loop: Header=BB10_70 Depth=2
	movq	img, %rax
	movl	72684(%rax), %ecx
	movl	-44(%rbp), %eax
	movl	-4(%rbp), %edx
	subl	$7, %edx
	imull	-52(%rbp), %edx
	addl	%edx, %eax
	movl	-8(%rbp), %edx
	subl	$7, %edx
	imull	-48(%rbp), %edx
	addl	%edx, %eax
	addl	$16, %eax
	cltd
	movl	$32, %esi
	idivl	%esi
	cmpl	%eax, %ecx
	jge	.LBB10_73
# %bb.72:                               # %cond.true307
                                        #   in Loop: Header=BB10_70 Depth=2
	movq	img, %rax
	movl	72684(%rax), %eax
	jmp	.LBB10_74
.LBB10_73:                              # %cond.false309
                                        #   in Loop: Header=BB10_70 Depth=2
	movl	-44(%rbp), %eax
	movl	-4(%rbp), %ecx
	subl	$7, %ecx
	imull	-52(%rbp), %ecx
	addl	%ecx, %eax
	movl	-8(%rbp), %ecx
	subl	$7, %ecx
	imull	-48(%rbp), %ecx
	addl	%ecx, %eax
	addl	$16, %eax
	cltd
	movl	$32, %ecx
	idivl	%ecx
.LBB10_74:                              # %cond.end318
                                        #   in Loop: Header=BB10_70 Depth=2
	xorl	%ecx, %ecx
	cmpl	%eax, %ecx
	jle	.LBB10_76
# %bb.75:                               # %cond.true322
                                        #   in Loop: Header=BB10_70 Depth=2
	xorl	%eax, %eax
	jmp	.LBB10_80
.LBB10_76:                              # %cond.false323
                                        #   in Loop: Header=BB10_70 Depth=2
	movq	img, %rax
	movl	72684(%rax), %ecx
	movl	-44(%rbp), %eax
	movl	-4(%rbp), %edx
	subl	$7, %edx
	imull	-52(%rbp), %edx
	addl	%edx, %eax
	movl	-8(%rbp), %edx
	subl	$7, %edx
	imull	-48(%rbp), %edx
	addl	%edx, %eax
	addl	$16, %eax
	cltd
	movl	$32, %esi
	idivl	%esi
	cmpl	%eax, %ecx
	jge	.LBB10_78
# %bb.77:                               # %cond.true335
                                        #   in Loop: Header=BB10_70 Depth=2
	movq	img, %rax
	movl	72684(%rax), %eax
	jmp	.LBB10_79
.LBB10_78:                              # %cond.false337
                                        #   in Loop: Header=BB10_70 Depth=2
	movl	-44(%rbp), %eax
	movl	-4(%rbp), %ecx
	subl	$7, %ecx
	imull	-52(%rbp), %ecx
	addl	%ecx, %eax
	movl	-8(%rbp), %ecx
	subl	$7, %ecx
	imull	-48(%rbp), %ecx
	addl	%ecx, %eax
	addl	$16, %eax
	cltd
	movl	$32, %ecx
	idivl	%ecx
.LBB10_79:                              # %cond.end346
                                        #   in Loop: Header=BB10_70 Depth=2
.LBB10_80:                              # %cond.end348
                                        #   in Loop: Header=BB10_70 Depth=2
	movq	img, %rcx
	addq	$4792, %rcx             # imm = 0x12B8
	addq	$1536, %rcx             # imm = 0x600
	movslq	-8(%rbp), %rdx
	shlq	$5, %rdx
	addq	%rdx, %rcx
	movslq	-4(%rbp), %rdx
	movw	%ax, (%rcx,%rdx,2)
# %bb.81:                               # %for.inc357
                                        #   in Loop: Header=BB10_70 Depth=2
	movl	-4(%rbp), %eax
	addl	$1, %eax
	movl	%eax, -4(%rbp)
	jmp	.LBB10_70
.LBB10_82:                              # %for.end359
                                        #   in Loop: Header=BB10_68 Depth=1
	jmp	.LBB10_83
.LBB10_83:                              # %for.inc360
                                        #   in Loop: Header=BB10_68 Depth=1
	movl	-8(%rbp), %eax
	addl	$1, %eax
	movl	%eax, -8(%rbp)
	jmp	.LBB10_68
.LBB10_84:                              # %for.end362.loopexit
	jmp	.LBB10_85
.LBB10_85:                              # %for.end362
	cmpl	$1574754239, -92(%rbp)  # imm = 0x5DDCD7BF
	jne	.LBB10_87
.LBB10_86:
	addq	$640, %rsp              # imm = 0x280
	popq	%rbp
	.cfi_def_cfa %rsp, 8
	retq
.LBB10_87:                              # %func_exit
	.cfi_def_cfa %rbp, 16
	callq	detect_breach
	jmp	.LBB10_86
.Lfunc_end10:
	.size	intrapred_luma_16x16.1, .Lfunc_end10-intrapred_luma_16x16.1
	.cfi_endproc
                                        # -- End function
	.globl	dct_luma_16x16.2        # -- Begin function dct_luma_16x16.2
	.p2align	4, 0x90
	.type	dct_luma_16x16.2,@function
dct_luma_16x16.2:                       # @dct_luma_16x16.2
	.cfi_startproc
# %bb.0:                                # %entry
	pushq	%rbp
	.cfi_def_cfa_offset 16
	.cfi_offset %rbp, -16
	movq	%rsp, %rbp
	.cfi_def_cfa_register %rbp
	pushq	%rbx
	subq	$2280, %rsp             # imm = 0x8E8
	.cfi_offset %rbx, -24
	xorl	%eax, %eax
	movl	$965364292, -132(%rbp)  # imm = 0x398A4A44
	movl	%edi, -104(%rbp)
	movl	$0, -120(%rbp)
	movq	img, %rcx
	movq	14168(%rcx), %rcx
	movq	img, %rdx
	movslq	12(%rdx), %rdx
	imulq	$632, %rdx, %rdx        # imm = 0x278
	addq	%rdx, %rcx
	movq	%rcx, -128(%rbp)
	movq	img, %rcx
	movq	14144(%rcx), %rcx
	movq	(%rcx), %rcx
	movq	(%rcx), %rcx
	movq	%rcx, -144(%rbp)
	movq	img, %rcx
	movq	14144(%rcx), %rcx
	movq	(%rcx), %rcx
	movq	8(%rcx), %rcx
	movq	%rcx, -232(%rbp)
	movq	-128(%rbp), %rcx
	movl	12(%rcx), %ecx
	movq	img, %rdx
	addl	72668(%rdx), %ecx
	cmpl	$0, %ecx
	jne	.LBB11_2
# %bb.1:                                # %land.rhs
	movq	img, %rax
	cmpl	$1, 72704(%rax)
	sete	%al
.LBB11_2:                               # %land.end
	andb	$1, %al
	movzbl	%al, %eax
	movl	%eax, -72(%rbp)
	movq	-128(%rbp), %rax
	movl	12(%rax), %eax
	movq	img, %rcx
	addl	72668(%rcx), %eax
	subl	$0, %eax
	cltd
	movl	$6, %ecx
	idivl	%ecx
	movl	%eax, -68(%rbp)
	movq	-128(%rbp), %rax
	movl	12(%rax), %eax
	movq	img, %rdx
	addl	72668(%rdx), %eax
	subl	$0, %eax
	cltd
	idivl	%ecx
	movl	%edx, -100(%rbp)
	movl	-68(%rbp), %eax
	addl	$15, %eax
	movl	%eax, -108(%rbp)
	movl	$0, -12(%rbp)
.LBB11_3:                               # %for.cond
                                        # =>This Loop Header: Depth=1
                                        #     Child Loop BB11_5 Depth 2
	cmpl	$16, -12(%rbp)
	jge	.LBB11_13
# %bb.4:                                # %for.body
                                        #   in Loop: Header=BB11_3 Depth=1
	movl	$0, -16(%rbp)
.LBB11_5:                               # %for.cond16
                                        #   Parent Loop BB11_3 Depth=1
                                        # =>  This Inner Loop Header: Depth=2
	cmpl	$16, -16(%rbp)
	jge	.LBB11_11
# %bb.6:                                # %for.body18
                                        #   in Loop: Header=BB11_5 Depth=2
	movq	img, %rax
	cmpl	$0, 72724(%rax)
	jne	.LBB11_8
# %bb.7:                                # %if.then
                                        #   in Loop: Header=BB11_5 Depth=2
	movq	imgY_org, %rax
	movq	img, %rcx
	movl	172(%rcx), %ecx
	addl	-12(%rbp), %ecx
	movslq	%ecx, %rcx
	movq	(%rax,%rcx,8), %rax
	movq	img, %rcx
	movl	168(%rcx), %ecx
	addl	-16(%rbp), %ecx
	movslq	%ecx, %rcx
	movzwl	(%rax,%rcx,2), %eax
	movq	img, %rcx
	addq	$4792, %rcx             # imm = 0x12B8
	movslq	-104(%rbp), %rdx
	shlq	$9, %rdx
	addq	%rdx, %rcx
	movslq	-12(%rbp), %rdx
	shlq	$5, %rdx
	addq	%rdx, %rcx
	movslq	-16(%rbp), %rdx
	movzwl	(%rcx,%rdx,2), %ecx
	subl	%ecx, %eax
	movslq	-16(%rbp), %rcx
	shlq	$6, %rcx
	leaq	-2288(%rbp), %rdx
	addq	%rcx, %rdx
	movslq	-12(%rbp), %rcx
	movl	%eax, (%rdx,%rcx,4)
	jmp	.LBB11_9
.LBB11_8:                               # %if.else
                                        #   in Loop: Header=BB11_5 Depth=2
	movq	img, %rax
	addq	$13112, %rax            # imm = 0x3338
	movslq	-16(%rbp), %rcx
	shlq	$6, %rcx
	addq	%rcx, %rax
	movslq	-12(%rbp), %rcx
	movl	(%rax,%rcx,4), %eax
	movslq	-16(%rbp), %rcx
	shlq	$6, %rcx
	leaq	-2288(%rbp), %rdx
	addq	%rcx, %rdx
	movslq	-12(%rbp), %rcx
	movl	%eax, (%rdx,%rcx,4)
.LBB11_9:                               # %if.end
                                        #   in Loop: Header=BB11_5 Depth=2
	movslq	-16(%rbp), %rax
	shlq	$6, %rax
	leaq	-2288(%rbp), %rcx
	addq	%rax, %rcx
	movslq	-12(%rbp), %rax
	movl	(%rcx,%rax,4), %ecx
	movl	-16(%rbp), %eax
	cltd
	movl	$4, %esi
	idivl	%esi
	movslq	%edx, %rax
	shlq	$8, %rax
	leaq	-1264(%rbp), %rdi
	addq	%rax, %rdi
	movl	-16(%rbp), %eax
	cltd
	idivl	%esi
	cltq
	shlq	$6, %rax
	addq	%rax, %rdi
	movl	-12(%rbp), %eax
	cltd
	idivl	%esi
	movslq	%edx, %rax
	shlq	$4, %rax
	addq	%rax, %rdi
	movl	-12(%rbp), %eax
	cltd
	idivl	%esi
	cltq
	movl	%ecx, (%rdi,%rax,4)
# %bb.10:                               # %for.inc
                                        #   in Loop: Header=BB11_5 Depth=2
	movl	-16(%rbp), %eax
	addl	$1, %eax
	movl	%eax, -16(%rbp)
	jmp	.LBB11_5
.LBB11_11:                              # %for.end
                                        #   in Loop: Header=BB11_3 Depth=1
	jmp	.LBB11_12
.LBB11_12:                              # %for.inc61
                                        #   in Loop: Header=BB11_3 Depth=1
	movl	-12(%rbp), %eax
	addl	$1, %eax
	movl	%eax, -12(%rbp)
	jmp	.LBB11_3
.LBB11_13:                              # %for.end63
	movl	$0, -20(%rbp)
.LBB11_14:                              # %for.cond64
                                        # =>This Loop Header: Depth=1
                                        #     Child Loop BB11_18 Depth 2
                                        #       Child Loop BB11_20 Depth 3
                                        #         Child Loop BB11_22 Depth 4
                                        #       Child Loop BB11_28 Depth 3
                                        #         Child Loop BB11_30 Depth 4
	xorl	%eax, %eax
	cmpl	$4, -20(%rbp)
	jge	.LBB11_16
# %bb.15:                               # %land.rhs67
                                        #   in Loop: Header=BB11_14 Depth=1
	cmpl	$0, -72(%rbp)
	setne	%al
	xorb	$-1, %al
.LBB11_16:                              # %land.end69
                                        #   in Loop: Header=BB11_14 Depth=1
	testb	$1, %al
	jne	.LBB11_17
	jmp	.LBB11_39
.LBB11_17:                              # %for.body71
                                        #   in Loop: Header=BB11_14 Depth=1
	movl	$0, -24(%rbp)
.LBB11_18:                              # %for.cond72
                                        #   Parent Loop BB11_14 Depth=1
                                        # =>  This Loop Header: Depth=2
                                        #       Child Loop BB11_20 Depth 3
                                        #         Child Loop BB11_22 Depth 4
                                        #       Child Loop BB11_28 Depth 3
                                        #         Child Loop BB11_30 Depth 4
	cmpl	$4, -24(%rbp)
	jge	.LBB11_37
# %bb.19:                               # %for.body75
                                        #   in Loop: Header=BB11_18 Depth=2
	movl	$0, -12(%rbp)
.LBB11_20:                              # %for.cond76
                                        #   Parent Loop BB11_14 Depth=1
                                        #     Parent Loop BB11_18 Depth=2
                                        # =>    This Loop Header: Depth=3
                                        #         Child Loop BB11_22 Depth 4
	cmpl	$4, -12(%rbp)
	jge	.LBB11_27
# %bb.21:                               # %for.body79
                                        #   in Loop: Header=BB11_20 Depth=3
	movl	$0, -16(%rbp)
.LBB11_22:                              # %for.cond80
                                        #   Parent Loop BB11_14 Depth=1
                                        #     Parent Loop BB11_18 Depth=2
                                        #       Parent Loop BB11_20 Depth=3
                                        # =>      This Inner Loop Header: Depth=4
	cmpl	$2, -16(%rbp)
	jge	.LBB11_25
# %bb.23:                               # %for.body83
                                        #   in Loop: Header=BB11_22 Depth=4
	movl	$3, %eax
	subl	-16(%rbp), %eax
	movl	%eax, -56(%rbp)
	movslq	-16(%rbp), %rcx
	shlq	$8, %rcx
	leaq	-1264(%rbp), %rax
	movq	%rax, %rdx
	addq	%rcx, %rdx
	movslq	-24(%rbp), %rcx
	shlq	$6, %rcx
	addq	%rcx, %rdx
	movslq	-12(%rbp), %rcx
	shlq	$4, %rcx
	addq	%rcx, %rdx
	movslq	-20(%rbp), %rcx
	movl	(%rdx,%rcx,4), %ecx
	movslq	-56(%rbp), %rdx
	shlq	$8, %rdx
	movq	%rax, %rsi
	addq	%rdx, %rsi
	movslq	-24(%rbp), %rdx
	shlq	$6, %rdx
	addq	%rdx, %rsi
	movslq	-12(%rbp), %rdx
	shlq	$4, %rdx
	addq	%rdx, %rsi
	movslq	-20(%rbp), %rdx
	addl	(%rsi,%rdx,4), %ecx
	movslq	-16(%rbp), %rdx
	movl	%ecx, -48(%rbp,%rdx,4)
	movslq	-16(%rbp), %rcx
	shlq	$8, %rcx
	movq	%rax, %rdx
	addq	%rcx, %rdx
	movslq	-24(%rbp), %rcx
	shlq	$6, %rcx
	addq	%rcx, %rdx
	movslq	-12(%rbp), %rcx
	shlq	$4, %rcx
	addq	%rcx, %rdx
	movslq	-20(%rbp), %rcx
	movl	(%rdx,%rcx,4), %ecx
	movslq	-56(%rbp), %rdx
	shlq	$8, %rdx
	addq	%rdx, %rax
	movslq	-24(%rbp), %rdx
	shlq	$6, %rdx
	addq	%rdx, %rax
	movslq	-12(%rbp), %rdx
	shlq	$4, %rdx
	addq	%rdx, %rax
	movslq	-20(%rbp), %rdx
	subl	(%rax,%rdx,4), %ecx
	movslq	-56(%rbp), %rax
	movl	%ecx, -48(%rbp,%rax,4)
# %bb.24:                               # %for.inc123
                                        #   in Loop: Header=BB11_22 Depth=4
	movl	-16(%rbp), %eax
	addl	$1, %eax
	movl	%eax, -16(%rbp)
	jmp	.LBB11_22
.LBB11_25:                              # %for.end125
                                        #   in Loop: Header=BB11_20 Depth=3
	leaq	-1264(%rbp), %rax
	movl	-48(%rbp), %ecx
	addl	-44(%rbp), %ecx
	movslq	-24(%rbp), %rdx
	shlq	$6, %rdx
	movq	%rax, %rsi
	addq	%rdx, %rsi
	movslq	-12(%rbp), %rdx
	shlq	$4, %rdx
	addq	%rdx, %rsi
	movslq	-20(%rbp), %rdx
	movl	%ecx, (%rsi,%rdx,4)
	movl	-48(%rbp), %ecx
	subl	-44(%rbp), %ecx
	movq	%rax, %rdx
	addq	$512, %rdx              # imm = 0x200
	movslq	-24(%rbp), %rsi
	shlq	$6, %rsi
	addq	%rsi, %rdx
	movslq	-12(%rbp), %rsi
	shlq	$4, %rsi
	addq	%rsi, %rdx
	movslq	-20(%rbp), %rsi
	movl	%ecx, (%rdx,%rsi,4)
	movl	-36(%rbp), %ecx
	shll	$1, %ecx
	addl	-40(%rbp), %ecx
	movq	%rax, %rdx
	addq	$256, %rdx              # imm = 0x100
	movslq	-24(%rbp), %rsi
	shlq	$6, %rsi
	addq	%rsi, %rdx
	movslq	-12(%rbp), %rsi
	shlq	$4, %rsi
	addq	%rsi, %rdx
	movslq	-20(%rbp), %rsi
	movl	%ecx, (%rdx,%rsi,4)
	movl	-36(%rbp), %ecx
	movl	-40(%rbp), %edx
	shll	$1, %edx
	subl	%edx, %ecx
	addq	$768, %rax              # imm = 0x300
	movslq	-24(%rbp), %rdx
	shlq	$6, %rdx
	addq	%rdx, %rax
	movslq	-12(%rbp), %rdx
	shlq	$4, %rdx
	addq	%rdx, %rax
	movslq	-20(%rbp), %rdx
	movl	%ecx, (%rax,%rdx,4)
# %bb.26:                               # %for.inc167
                                        #   in Loop: Header=BB11_20 Depth=3
	movl	-12(%rbp), %eax
	addl	$1, %eax
	movl	%eax, -12(%rbp)
	jmp	.LBB11_20
.LBB11_27:                              # %for.end169
                                        #   in Loop: Header=BB11_18 Depth=2
	movl	$0, -16(%rbp)
.LBB11_28:                              # %for.cond170
                                        #   Parent Loop BB11_14 Depth=1
                                        #     Parent Loop BB11_18 Depth=2
                                        # =>    This Loop Header: Depth=3
                                        #         Child Loop BB11_30 Depth 4
	cmpl	$4, -16(%rbp)
	jge	.LBB11_35
# %bb.29:                               # %for.body173
                                        #   in Loop: Header=BB11_28 Depth=3
	movl	$0, -12(%rbp)
.LBB11_30:                              # %for.cond174
                                        #   Parent Loop BB11_14 Depth=1
                                        #     Parent Loop BB11_18 Depth=2
                                        #       Parent Loop BB11_28 Depth=3
                                        # =>      This Inner Loop Header: Depth=4
	cmpl	$2, -12(%rbp)
	jge	.LBB11_33
# %bb.31:                               # %for.body177
                                        #   in Loop: Header=BB11_30 Depth=4
	movl	$3, %eax
	subl	-12(%rbp), %eax
	movl	%eax, -52(%rbp)
	movslq	-16(%rbp), %rcx
	shlq	$8, %rcx
	leaq	-1264(%rbp), %rax
	movq	%rax, %rdx
	addq	%rcx, %rdx
	movslq	-24(%rbp), %rcx
	shlq	$6, %rcx
	addq	%rcx, %rdx
	movslq	-12(%rbp), %rcx
	shlq	$4, %rcx
	addq	%rcx, %rdx
	movslq	-20(%rbp), %rcx
	movl	(%rdx,%rcx,4), %ecx
	movslq	-16(%rbp), %rdx
	shlq	$8, %rdx
	movq	%rax, %rsi
	addq	%rdx, %rsi
	movslq	-24(%rbp), %rdx
	shlq	$6, %rdx
	addq	%rdx, %rsi
	movslq	-52(%rbp), %rdx
	shlq	$4, %rdx
	addq	%rdx, %rsi
	movslq	-20(%rbp), %rdx
	addl	(%rsi,%rdx,4), %ecx
	movslq	-12(%rbp), %rdx
	movl	%ecx, -48(%rbp,%rdx,4)
	movslq	-16(%rbp), %rcx
	shlq	$8, %rcx
	movq	%rax, %rdx
	addq	%rcx, %rdx
	movslq	-24(%rbp), %rcx
	shlq	$6, %rcx
	addq	%rcx, %rdx
	movslq	-12(%rbp), %rcx
	shlq	$4, %rcx
	addq	%rcx, %rdx
	movslq	-20(%rbp), %rcx
	movl	(%rdx,%rcx,4), %ecx
	movslq	-16(%rbp), %rdx
	shlq	$8, %rdx
	addq	%rdx, %rax
	movslq	-24(%rbp), %rdx
	shlq	$6, %rdx
	addq	%rdx, %rax
	movslq	-52(%rbp), %rdx
	shlq	$4, %rdx
	addq	%rdx, %rax
	movslq	-20(%rbp), %rdx
	subl	(%rax,%rdx,4), %ecx
	movslq	-52(%rbp), %rax
	movl	%ecx, -48(%rbp,%rax,4)
# %bb.32:                               # %for.inc217
                                        #   in Loop: Header=BB11_30 Depth=4
	movl	-12(%rbp), %eax
	addl	$1, %eax
	movl	%eax, -12(%rbp)
	jmp	.LBB11_30
.LBB11_33:                              # %for.end219
                                        #   in Loop: Header=BB11_28 Depth=3
	movl	-48(%rbp), %ecx
	addl	-44(%rbp), %ecx
	movslq	-16(%rbp), %rdx
	shlq	$8, %rdx
	leaq	-1264(%rbp), %rax
	movq	%rax, %rsi
	addq	%rdx, %rsi
	movslq	-24(%rbp), %rdx
	shlq	$6, %rdx
	addq	%rdx, %rsi
	movslq	-20(%rbp), %rdx
	movl	%ecx, (%rsi,%rdx,4)
	movl	-48(%rbp), %ecx
	subl	-44(%rbp), %ecx
	movslq	-16(%rbp), %rdx
	shlq	$8, %rdx
	movq	%rax, %rsi
	addq	%rdx, %rsi
	movslq	-24(%rbp), %rdx
	shlq	$6, %rdx
	addq	%rdx, %rsi
	movslq	-20(%rbp), %rdx
	movl	%ecx, 32(%rsi,%rdx,4)
	movl	-36(%rbp), %ecx
	shll	$1, %ecx
	addl	-40(%rbp), %ecx
	movslq	-16(%rbp), %rdx
	shlq	$8, %rdx
	movq	%rax, %rsi
	addq	%rdx, %rsi
	movslq	-24(%rbp), %rdx
	shlq	$6, %rdx
	addq	%rdx, %rsi
	movslq	-20(%rbp), %rdx
	movl	%ecx, 16(%rsi,%rdx,4)
	movl	-36(%rbp), %ecx
	movl	-40(%rbp), %edx
	shll	$1, %edx
	subl	%edx, %ecx
	movslq	-16(%rbp), %rdx
	shlq	$8, %rdx
	addq	%rdx, %rax
	movslq	-24(%rbp), %rdx
	shlq	$6, %rdx
	addq	%rdx, %rax
	movslq	-20(%rbp), %rdx
	movl	%ecx, 48(%rax,%rdx,4)
# %bb.34:                               # %for.inc262
                                        #   in Loop: Header=BB11_28 Depth=3
	movl	-16(%rbp), %eax
	addl	$1, %eax
	movl	%eax, -16(%rbp)
	jmp	.LBB11_28
.LBB11_35:                              # %for.end264
                                        #   in Loop: Header=BB11_18 Depth=2
	jmp	.LBB11_36
.LBB11_36:                              # %for.inc265
                                        #   in Loop: Header=BB11_18 Depth=2
	movl	-24(%rbp), %eax
	addl	$1, %eax
	movl	%eax, -24(%rbp)
	jmp	.LBB11_18
.LBB11_37:                              # %for.end267
                                        #   in Loop: Header=BB11_14 Depth=1
	jmp	.LBB11_38
.LBB11_38:                              # %for.inc268
                                        #   in Loop: Header=BB11_14 Depth=1
	movl	-20(%rbp), %eax
	addl	$1, %eax
	movl	%eax, -20(%rbp)
	jmp	.LBB11_14
.LBB11_39:                              # %for.end270
	movl	$0, -12(%rbp)
.LBB11_40:                              # %for.cond271
                                        # =>This Loop Header: Depth=1
                                        #     Child Loop BB11_42 Depth 2
	cmpl	$4, -12(%rbp)
	jge	.LBB11_47
# %bb.41:                               # %for.body274
                                        #   in Loop: Header=BB11_40 Depth=1
	movl	$0, -16(%rbp)
.LBB11_42:                              # %for.cond275
                                        #   Parent Loop BB11_40 Depth=1
                                        # =>  This Inner Loop Header: Depth=2
	cmpl	$4, -16(%rbp)
	jge	.LBB11_45
# %bb.43:                               # %for.body278
                                        #   in Loop: Header=BB11_42 Depth=2
	leaq	-1264(%rbp), %rax
	movslq	-16(%rbp), %rcx
	shlq	$6, %rcx
	addq	%rcx, %rax
	movslq	-12(%rbp), %rcx
	movl	(%rax,%rcx,4), %eax
	movslq	-16(%rbp), %rcx
	shlq	$4, %rcx
	leaq	-224(%rbp), %rdx
	addq	%rcx, %rdx
	movslq	-12(%rbp), %rcx
	movl	%eax, (%rdx,%rcx,4)
# %bb.44:                               # %for.inc289
                                        #   in Loop: Header=BB11_42 Depth=2
	movl	-16(%rbp), %eax
	addl	$1, %eax
	movl	%eax, -16(%rbp)
	jmp	.LBB11_42
.LBB11_45:                              # %for.end291
                                        #   in Loop: Header=BB11_40 Depth=1
	jmp	.LBB11_46
.LBB11_46:                              # %for.inc292
                                        #   in Loop: Header=BB11_40 Depth=1
	movl	-12(%rbp), %eax
	addl	$1, %eax
	movl	%eax, -12(%rbp)
	jmp	.LBB11_40
.LBB11_47:                              # %for.end294
	movl	$0, -12(%rbp)
.LBB11_48:                              # %for.cond295
                                        # =>This Loop Header: Depth=1
                                        #     Child Loop BB11_52 Depth 2
	xorl	%eax, %eax
	cmpl	$4, -12(%rbp)
	jge	.LBB11_50
# %bb.49:                               # %land.rhs298
                                        #   in Loop: Header=BB11_48 Depth=1
	cmpl	$0, -72(%rbp)
	setne	%al
	xorb	$-1, %al
.LBB11_50:                              # %land.end301
                                        #   in Loop: Header=BB11_48 Depth=1
	testb	$1, %al
	jne	.LBB11_51
	jmp	.LBB11_57
.LBB11_51:                              # %for.body303
                                        #   in Loop: Header=BB11_48 Depth=1
	movl	$0, -16(%rbp)
.LBB11_52:                              # %for.cond304
                                        #   Parent Loop BB11_48 Depth=1
                                        # =>  This Inner Loop Header: Depth=2
	cmpl	$2, -16(%rbp)
	jge	.LBB11_55
# %bb.53:                               # %for.body307
                                        #   in Loop: Header=BB11_52 Depth=2
	movl	$3, %eax
	subl	-16(%rbp), %eax
	movl	%eax, -56(%rbp)
	movslq	-16(%rbp), %rax
	shlq	$4, %rax
	leaq	-224(%rbp), %rcx
	movq	%rcx, %rdx
	addq	%rax, %rdx
	movslq	-12(%rbp), %rax
	movl	(%rdx,%rax,4), %eax
	movslq	-56(%rbp), %rdx
	shlq	$4, %rdx
	movq	%rcx, %rsi
	addq	%rdx, %rsi
	movslq	-12(%rbp), %rdx
	addl	(%rsi,%rdx,4), %eax
	movslq	-16(%rbp), %rdx
	movl	%eax, -48(%rbp,%rdx,4)
	movslq	-16(%rbp), %rax
	shlq	$4, %rax
	movq	%rcx, %rdx
	addq	%rax, %rdx
	movslq	-12(%rbp), %rax
	movl	(%rdx,%rax,4), %eax
	movslq	-56(%rbp), %rdx
	shlq	$4, %rdx
	addq	%rdx, %rcx
	movslq	-12(%rbp), %rdx
	subl	(%rcx,%rdx,4), %eax
	movslq	-56(%rbp), %rcx
	movl	%eax, -48(%rbp,%rcx,4)
# %bb.54:                               # %for.inc331
                                        #   in Loop: Header=BB11_52 Depth=2
	movl	-16(%rbp), %eax
	addl	$1, %eax
	movl	%eax, -16(%rbp)
	jmp	.LBB11_52
.LBB11_55:                              # %for.end333
                                        #   in Loop: Header=BB11_48 Depth=1
	movl	-48(%rbp), %eax
	addl	-44(%rbp), %eax
	movslq	-12(%rbp), %rcx
	movl	%eax, -224(%rbp,%rcx,4)
	movl	-48(%rbp), %eax
	subl	-44(%rbp), %eax
	movslq	-12(%rbp), %rcx
	movl	%eax, -192(%rbp,%rcx,4)
	movl	-36(%rbp), %eax
	addl	-40(%rbp), %eax
	movslq	-12(%rbp), %rcx
	movl	%eax, -208(%rbp,%rcx,4)
	movl	-36(%rbp), %eax
	subl	-40(%rbp), %eax
	movslq	-12(%rbp), %rcx
	movl	%eax, -176(%rbp,%rcx,4)
# %bb.56:                               # %for.inc358
                                        #   in Loop: Header=BB11_48 Depth=1
	movl	-12(%rbp), %eax
	addl	$1, %eax
	movl	%eax, -12(%rbp)
	jmp	.LBB11_48
.LBB11_57:                              # %for.end360
	movl	$0, -16(%rbp)
.LBB11_58:                              # %for.cond361
                                        # =>This Loop Header: Depth=1
                                        #     Child Loop BB11_62 Depth 2
	xorl	%eax, %eax
	cmpl	$4, -16(%rbp)
	jge	.LBB11_60
# %bb.59:                               # %land.rhs364
                                        #   in Loop: Header=BB11_58 Depth=1
	cmpl	$0, -72(%rbp)
	setne	%al
	xorb	$-1, %al
.LBB11_60:                              # %land.end367
                                        #   in Loop: Header=BB11_58 Depth=1
	testb	$1, %al
	jne	.LBB11_61
	jmp	.LBB11_67
.LBB11_61:                              # %for.body369
                                        #   in Loop: Header=BB11_58 Depth=1
	movl	$0, -12(%rbp)
.LBB11_62:                              # %for.cond370
                                        #   Parent Loop BB11_58 Depth=1
                                        # =>  This Inner Loop Header: Depth=2
	cmpl	$2, -12(%rbp)
	jge	.LBB11_65
# %bb.63:                               # %for.body373
                                        #   in Loop: Header=BB11_62 Depth=2
	movl	$3, %eax
	subl	-12(%rbp), %eax
	movl	%eax, -52(%rbp)
	movslq	-16(%rbp), %rax
	shlq	$4, %rax
	leaq	-224(%rbp), %rcx
	movq	%rcx, %rdx
	addq	%rax, %rdx
	movslq	-12(%rbp), %rax
	movl	(%rdx,%rax,4), %eax
	movslq	-16(%rbp), %rdx
	shlq	$4, %rdx
	movq	%rcx, %rsi
	addq	%rdx, %rsi
	movslq	-52(%rbp), %rdx
	addl	(%rsi,%rdx,4), %eax
	movslq	-12(%rbp), %rdx
	movl	%eax, -48(%rbp,%rdx,4)
	movslq	-16(%rbp), %rax
	shlq	$4, %rax
	movq	%rcx, %rdx
	addq	%rax, %rdx
	movslq	-12(%rbp), %rax
	movl	(%rdx,%rax,4), %eax
	movslq	-16(%rbp), %rdx
	shlq	$4, %rdx
	addq	%rdx, %rcx
	movslq	-52(%rbp), %rdx
	subl	(%rcx,%rdx,4), %eax
	movslq	-52(%rbp), %rcx
	movl	%eax, -48(%rbp,%rcx,4)
# %bb.64:                               # %for.inc397
                                        #   in Loop: Header=BB11_62 Depth=2
	movl	-12(%rbp), %eax
	addl	$1, %eax
	movl	%eax, -12(%rbp)
	jmp	.LBB11_62
.LBB11_65:                              # %for.end399
                                        #   in Loop: Header=BB11_58 Depth=1
	movl	-48(%rbp), %ecx
	addl	-44(%rbp), %ecx
	sarl	$1, %ecx
	movslq	-16(%rbp), %rdx
	shlq	$4, %rdx
	leaq	-224(%rbp), %rax
	movq	%rax, %rsi
	addq	%rdx, %rsi
	movl	%ecx, (%rsi)
	movl	-48(%rbp), %ecx
	subl	-44(%rbp), %ecx
	sarl	$1, %ecx
	movslq	-16(%rbp), %rdx
	shlq	$4, %rdx
	movq	%rax, %rsi
	addq	%rdx, %rsi
	movl	%ecx, 8(%rsi)
	movl	-36(%rbp), %ecx
	addl	-40(%rbp), %ecx
	sarl	$1, %ecx
	movslq	-16(%rbp), %rdx
	shlq	$4, %rdx
	movq	%rax, %rsi
	addq	%rdx, %rsi
	movl	%ecx, 4(%rsi)
	movl	-36(%rbp), %ecx
	subl	-40(%rbp), %ecx
	sarl	$1, %ecx
	movslq	-16(%rbp), %rdx
	shlq	$4, %rdx
	addq	%rdx, %rax
	movl	%ecx, 12(%rax)
# %bb.66:                               # %for.inc427
                                        #   in Loop: Header=BB11_58 Depth=1
	movl	-16(%rbp), %eax
	addl	$1, %eax
	movl	%eax, -16(%rbp)
	jmp	.LBB11_58
.LBB11_67:                              # %for.end429
	movl	$-1, -80(%rbp)
	movl	$0, -76(%rbp)
	movl	$0, -60(%rbp)
.LBB11_68:                              # %for.cond430
                                        # =>This Inner Loop Header: Depth=1
	cmpl	$16, -60(%rbp)
	jge	.LBB11_88
# %bb.69:                               # %for.body433
                                        #   in Loop: Header=BB11_68 Depth=1
	movq	img, %rax
	cmpl	$0, 72444(%rax)
	jne	.LBB11_72
# %bb.70:                               # %lor.lhs.false
                                        #   in Loop: Header=BB11_68 Depth=1
	cmpl	$0, mb_adaptive
	je	.LBB11_73
# %bb.71:                               # %land.lhs.true
                                        #   in Loop: Header=BB11_68 Depth=1
	movq	img, %rax
	cmpl	$0, 72008(%rax)
	je	.LBB11_73
.LBB11_72:                              # %if.then437
                                        #   in Loop: Header=BB11_68 Depth=1
	movslq	-60(%rbp), %rax
	movzbl	FIELD_SCAN(,%rax,2), %eax
	movl	%eax, -16(%rbp)
	movslq	-60(%rbp), %rax
	movzbl	FIELD_SCAN+1(,%rax,2), %eax
	movl	%eax, -12(%rbp)
	jmp	.LBB11_74
.LBB11_73:                              # %if.else446
                                        #   in Loop: Header=BB11_68 Depth=1
	movslq	-60(%rbp), %rax
	movzbl	SNGL_SCAN(,%rax,2), %eax
	movl	%eax, -16(%rbp)
	movslq	-60(%rbp), %rax
	movzbl	SNGL_SCAN+1(,%rax,2), %eax
	movl	%eax, -12(%rbp)
.LBB11_74:                              # %if.end455
                                        #   in Loop: Header=BB11_68 Depth=1
	movl	-80(%rbp), %eax
	addl	$1, %eax
	movl	%eax, -80(%rbp)
	cmpl	$0, -72(%rbp)
	je	.LBB11_76
# %bb.75:                               # %if.then458
                                        #   in Loop: Header=BB11_68 Depth=1
	movslq	-16(%rbp), %rax
	shlq	$4, %rax
	leaq	-224(%rbp), %rcx
	addq	%rax, %rcx
	movslq	-12(%rbp), %rax
	movl	(%rcx,%rax,4), %edi
	callq	abs
	movl	%eax, -64(%rbp)
	jmp	.LBB11_77
.LBB11_76:                              # %if.else463
                                        #   in Loop: Header=BB11_68 Depth=1
	movslq	-16(%rbp), %rax
	shlq	$4, %rax
	leaq	-224(%rbp), %rcx
	addq	%rax, %rcx
	movslq	-12(%rbp), %rax
	movl	(%rcx,%rax,4), %edi
	callq	abs
	movslq	-100(%rbp), %rcx
	shlq	$6, %rcx
	movabsq	$LevelScale4x4Luma_Intra, %rdx
	addq	%rcx, %rdx
	imull	(%rdx), %eax
	movslq	-68(%rbp), %rcx
	shlq	$6, %rcx
	movabsq	$LevelOffset4x4Luma_Intra, %rdx
	addq	%rcx, %rdx
	movl	(%rdx), %ecx
	shll	$1, %ecx
	addl	%ecx, %eax
	movl	-108(%rbp), %ecx
	addl	$1, %ecx
                                        # kill: def $cl killed $ecx
	sarl	%cl, %eax
	movl	%eax, -64(%rbp)
.LBB11_77:                              # %if.end481
                                        #   in Loop: Header=BB11_68 Depth=1
	movq	input, %rax
	cmpl	$0, 2356(%rax)
	jne	.LBB11_82
# %bb.78:                               # %land.lhs.true484
                                        #   in Loop: Header=BB11_68 Depth=1
	movq	img, %rax
	cmpl	$10, 40(%rax)
	jge	.LBB11_82
# %bb.79:                               # %if.then488
                                        #   in Loop: Header=BB11_68 Depth=1
	cmpl	$2063, -64(%rbp)        # imm = 0x80F
	jle	.LBB11_81
# %bb.80:                               # %if.then491
                                        #   in Loop: Header=BB11_68 Depth=1
	movl	$2063, -64(%rbp)        # imm = 0x80F
.LBB11_81:                              # %if.end492
                                        #   in Loop: Header=BB11_68 Depth=1
	jmp	.LBB11_82
.LBB11_82:                              # %if.end493
                                        #   in Loop: Header=BB11_68 Depth=1
	cmpl	$0, -64(%rbp)
	je	.LBB11_84
# %bb.83:                               # %if.then496
                                        #   in Loop: Header=BB11_68 Depth=1
	movl	-64(%rbp), %edi
	movslq	-16(%rbp), %rax
	shlq	$4, %rax
	leaq	-224(%rbp), %rcx
	addq	%rax, %rcx
	movslq	-12(%rbp), %rax
	movl	(%rcx,%rax,4), %esi
	callq	sign
	movq	-144(%rbp), %rcx
	movslq	-76(%rbp), %rdx
	movl	%eax, (%rcx,%rdx,4)
	movl	-80(%rbp), %eax
	movq	-232(%rbp), %rcx
	movslq	-76(%rbp), %rdx
	movl	%eax, (%rcx,%rdx,4)
	movl	-76(%rbp), %eax
	addl	$1, %eax
	movl	%eax, -76(%rbp)
	movl	$-1, -80(%rbp)
.LBB11_84:                              # %if.end507
                                        #   in Loop: Header=BB11_68 Depth=1
	cmpl	$0, -72(%rbp)
	jne	.LBB11_86
# %bb.85:                               # %if.then509
                                        #   in Loop: Header=BB11_68 Depth=1
	movl	-64(%rbp), %edi
	movslq	-16(%rbp), %rax
	shlq	$4, %rax
	leaq	-224(%rbp), %rcx
	addq	%rax, %rcx
	movslq	-12(%rbp), %rax
	movl	(%rcx,%rax,4), %esi
	callq	sign
	movslq	-16(%rbp), %rcx
	shlq	$4, %rcx
	leaq	-224(%rbp), %rdx
	addq	%rcx, %rdx
	movslq	-12(%rbp), %rcx
	movl	%eax, (%rdx,%rcx,4)
.LBB11_86:                              # %if.end519
                                        #   in Loop: Header=BB11_68 Depth=1
	jmp	.LBB11_87
.LBB11_87:                              # %for.inc520
                                        #   in Loop: Header=BB11_68 Depth=1
	movl	-60(%rbp), %eax
	addl	$1, %eax
	movl	%eax, -60(%rbp)
	jmp	.LBB11_68
.LBB11_88:                              # %for.end522
	movq	-144(%rbp), %rax
	movslq	-76(%rbp), %rcx
	movl	$0, (%rax,%rcx,4)
	movl	$0, -12(%rbp)
.LBB11_89:                              # %for.cond525
                                        # =>This Loop Header: Depth=1
                                        #     Child Loop BB11_93 Depth 2
                                        #     Child Loop BB11_97 Depth 2
	xorl	%eax, %eax
	cmpl	$4, -12(%rbp)
	jge	.LBB11_91
# %bb.90:                               # %land.rhs528
                                        #   in Loop: Header=BB11_89 Depth=1
	cmpl	$0, -72(%rbp)
	setne	%al
	xorb	$-1, %al
.LBB11_91:                              # %land.end531
                                        #   in Loop: Header=BB11_89 Depth=1
	testb	$1, %al
	jne	.LBB11_92
	jmp	.LBB11_102
.LBB11_92:                              # %for.body533
                                        #   in Loop: Header=BB11_89 Depth=1
	movl	$0, -16(%rbp)
.LBB11_93:                              # %for.cond534
                                        #   Parent Loop BB11_89 Depth=1
                                        # =>  This Inner Loop Header: Depth=2
	cmpl	$4, -16(%rbp)
	jge	.LBB11_96
# %bb.94:                               # %for.body537
                                        #   in Loop: Header=BB11_93 Depth=2
	movslq	-16(%rbp), %rax
	shlq	$4, %rax
	leaq	-224(%rbp), %rcx
	addq	%rax, %rcx
	movslq	-12(%rbp), %rax
	movl	(%rcx,%rax,4), %eax
	movslq	-16(%rbp), %rcx
	movl	%eax, -48(%rbp,%rcx,4)
# %bb.95:                               # %for.inc544
                                        #   in Loop: Header=BB11_93 Depth=2
	movl	-16(%rbp), %eax
	addl	$1, %eax
	movl	%eax, -16(%rbp)
	jmp	.LBB11_93
.LBB11_96:                              # %for.end546
                                        #   in Loop: Header=BB11_89 Depth=1
	movl	-48(%rbp), %eax
	addl	-40(%rbp), %eax
	movl	%eax, -96(%rbp)
	movl	-48(%rbp), %eax
	subl	-40(%rbp), %eax
	movl	%eax, -92(%rbp)
	movl	-44(%rbp), %eax
	subl	-36(%rbp), %eax
	movl	%eax, -88(%rbp)
	movl	-44(%rbp), %eax
	addl	-36(%rbp), %eax
	movl	%eax, -84(%rbp)
	movl	$0, -16(%rbp)
.LBB11_97:                              # %for.cond563
                                        #   Parent Loop BB11_89 Depth=1
                                        # =>  This Inner Loop Header: Depth=2
	cmpl	$2, -16(%rbp)
	jge	.LBB11_100
# %bb.98:                               # %for.body566
                                        #   in Loop: Header=BB11_97 Depth=2
	movl	$3, %eax
	subl	-16(%rbp), %eax
	movl	%eax, -56(%rbp)
	movslq	-16(%rbp), %rax
	movl	-96(%rbp,%rax,4), %eax
	movslq	-56(%rbp), %rcx
	addl	-96(%rbp,%rcx,4), %eax
	movslq	-16(%rbp), %rcx
	shlq	$4, %rcx
	leaq	-224(%rbp), %rdx
	movq	%rdx, %rsi
	addq	%rcx, %rsi
	movslq	-12(%rbp), %rcx
	movl	%eax, (%rsi,%rcx,4)
	movslq	-16(%rbp), %rax
	movl	-96(%rbp,%rax,4), %eax
	movslq	-56(%rbp), %rcx
	subl	-96(%rbp,%rcx,4), %eax
	movslq	-56(%rbp), %rcx
	shlq	$4, %rcx
	addq	%rcx, %rdx
	movslq	-12(%rbp), %rcx
	movl	%eax, (%rdx,%rcx,4)
# %bb.99:                               # %for.inc586
                                        #   in Loop: Header=BB11_97 Depth=2
	movl	-16(%rbp), %eax
	addl	$1, %eax
	movl	%eax, -16(%rbp)
	jmp	.LBB11_97
.LBB11_100:                             # %for.end588
                                        #   in Loop: Header=BB11_89 Depth=1
	jmp	.LBB11_101
.LBB11_101:                             # %for.inc589
                                        #   in Loop: Header=BB11_89 Depth=1
	movl	-12(%rbp), %eax
	addl	$1, %eax
	movl	%eax, -12(%rbp)
	jmp	.LBB11_89
.LBB11_102:                             # %for.end591
	movl	$0, -16(%rbp)
.LBB11_103:                             # %for.cond592
                                        # =>This Loop Header: Depth=1
                                        #     Child Loop BB11_107 Depth 2
                                        #     Child Loop BB11_111 Depth 2
	xorl	%eax, %eax
	cmpl	$4, -16(%rbp)
	jge	.LBB11_105
# %bb.104:                              # %land.rhs595
                                        #   in Loop: Header=BB11_103 Depth=1
	cmpl	$0, -72(%rbp)
	setne	%al
	xorb	$-1, %al
.LBB11_105:                             # %land.end598
                                        #   in Loop: Header=BB11_103 Depth=1
	testb	$1, %al
	jne	.LBB11_106
	jmp	.LBB11_119
.LBB11_106:                             # %for.body600
                                        #   in Loop: Header=BB11_103 Depth=1
	movl	$0, -12(%rbp)
.LBB11_107:                             # %for.cond601
                                        #   Parent Loop BB11_103 Depth=1
                                        # =>  This Inner Loop Header: Depth=2
	cmpl	$4, -12(%rbp)
	jge	.LBB11_110
# %bb.108:                              # %for.body604
                                        #   in Loop: Header=BB11_107 Depth=2
	movslq	-16(%rbp), %rax
	shlq	$4, %rax
	leaq	-224(%rbp), %rcx
	addq	%rax, %rcx
	movslq	-12(%rbp), %rax
	movl	(%rcx,%rax,4), %eax
	movslq	-12(%rbp), %rcx
	movl	%eax, -48(%rbp,%rcx,4)
# %bb.109:                              # %for.inc611
                                        #   in Loop: Header=BB11_107 Depth=2
	movl	-12(%rbp), %eax
	addl	$1, %eax
	movl	%eax, -12(%rbp)
	jmp	.LBB11_107
.LBB11_110:                             # %for.end613
                                        #   in Loop: Header=BB11_103 Depth=1
	movl	-48(%rbp), %eax
	addl	-40(%rbp), %eax
	movl	%eax, -96(%rbp)
	movl	-48(%rbp), %eax
	subl	-40(%rbp), %eax
	movl	%eax, -92(%rbp)
	movl	-44(%rbp), %eax
	subl	-36(%rbp), %eax
	movl	%eax, -88(%rbp)
	movl	-44(%rbp), %eax
	addl	-36(%rbp), %eax
	movl	%eax, -84(%rbp)
	movl	$0, -12(%rbp)
.LBB11_111:                             # %for.cond630
                                        #   Parent Loop BB11_103 Depth=1
                                        # =>  This Inner Loop Header: Depth=2
	cmpl	$2, -12(%rbp)
	jge	.LBB11_117
# %bb.112:                              # %for.body633
                                        #   in Loop: Header=BB11_111 Depth=2
	movl	$3, %eax
	subl	-12(%rbp), %eax
	movl	%eax, -52(%rbp)
	cmpl	$6, -68(%rbp)
	jge	.LBB11_114
# %bb.113:                              # %if.then637
                                        #   in Loop: Header=BB11_111 Depth=2
	leaq	-1264(%rbp), %r8
	movslq	-12(%rbp), %rax
	movl	-96(%rbp,%rax,4), %esi
	movslq	-52(%rbp), %rax
	addl	-96(%rbp,%rax,4), %esi
	movslq	-100(%rbp), %rax
	shlq	$6, %rax
	movabsq	$InvLevelScale4x4Luma_Intra, %rdi
	movq	%rdi, %rcx
	addq	%rax, %rcx
	imull	(%rcx), %esi
	movl	$5, %eax
	movl	$5, %ecx
	subl	-68(%rbp), %ecx
                                        # kill: def $cl killed $ecx
	movl	$1, %r9d
	movl	$1, %edx
	shll	%cl, %edx
	addl	%edx, %esi
	movl	$6, %edx
	movl	$6, %ecx
	subl	-68(%rbp), %ecx
                                        # kill: def $cl killed $ecx
	sarl	%cl, %esi
	movslq	-16(%rbp), %rcx
	shlq	$6, %rcx
	movq	%r8, %rbx
	addq	%rcx, %rbx
	movslq	-12(%rbp), %rcx
	movl	%esi, (%rbx,%rcx,4)
	movslq	-12(%rbp), %rcx
	movl	-96(%rbp,%rcx,4), %esi
	movslq	-52(%rbp), %rcx
	subl	-96(%rbp,%rcx,4), %esi
	movslq	-100(%rbp), %rcx
	shlq	$6, %rcx
	addq	%rcx, %rdi
	imull	(%rdi), %esi
	subl	-68(%rbp), %eax
	movl	%eax, %ecx
                                        # kill: def $cl killed $ecx
	shll	%cl, %r9d
	addl	%r9d, %esi
	subl	-68(%rbp), %edx
	movl	%edx, %ecx
                                        # kill: def $cl killed $ecx
	sarl	%cl, %esi
	movslq	-16(%rbp), %rax
	shlq	$6, %rax
	addq	%rax, %r8
	movslq	-52(%rbp), %rax
	movl	%esi, (%r8,%rax,4)
	jmp	.LBB11_115
.LBB11_114:                             # %if.else680
                                        #   in Loop: Header=BB11_111 Depth=2
	leaq	-1264(%rbp), %rax
	movslq	-12(%rbp), %rcx
	movl	-96(%rbp,%rcx,4), %edx
	movslq	-52(%rbp), %rcx
	addl	-96(%rbp,%rcx,4), %edx
	movslq	-100(%rbp), %rcx
	shlq	$6, %rcx
	movabsq	$InvLevelScale4x4Luma_Intra, %rsi
	movq	%rsi, %rdi
	addq	%rcx, %rdi
	imull	(%rdi), %edx
	movl	-68(%rbp), %ecx
	subl	$6, %ecx
                                        # kill: def $cl killed $ecx
	shll	%cl, %edx
	movslq	-16(%rbp), %rcx
	shlq	$6, %rcx
	movq	%rax, %rdi
	addq	%rcx, %rdi
	movslq	-12(%rbp), %rcx
	movl	%edx, (%rdi,%rcx,4)
	movslq	-12(%rbp), %rcx
	movl	-96(%rbp,%rcx,4), %edx
	movslq	-52(%rbp), %rcx
	subl	-96(%rbp,%rcx,4), %edx
	movslq	-100(%rbp), %rcx
	shlq	$6, %rcx
	addq	%rcx, %rsi
	imull	(%rsi), %edx
	movl	-68(%rbp), %ecx
	subl	$6, %ecx
                                        # kill: def $cl killed $ecx
	shll	%cl, %edx
	movslq	-16(%rbp), %rcx
	shlq	$6, %rcx
	addq	%rcx, %rax
	movslq	-52(%rbp), %rcx
	movl	%edx, (%rax,%rcx,4)
.LBB11_115:                             # %if.end717
                                        #   in Loop: Header=BB11_111 Depth=2
	jmp	.LBB11_116
.LBB11_116:                             # %for.inc718
                                        #   in Loop: Header=BB11_111 Depth=2
	movl	-12(%rbp), %eax
	addl	$1, %eax
	movl	%eax, -12(%rbp)
	jmp	.LBB11_111
.LBB11_117:                             # %for.end720
                                        #   in Loop: Header=BB11_103 Depth=1
	jmp	.LBB11_118
.LBB11_118:                             # %for.inc721
                                        #   in Loop: Header=BB11_103 Depth=1
	movl	-16(%rbp), %eax
	addl	$1, %eax
	movl	%eax, -16(%rbp)
	jmp	.LBB11_103
.LBB11_119:                             # %for.end723
	movl	$0, -20(%rbp)
.LBB11_120:                             # %for.cond724
                                        # =>This Loop Header: Depth=1
                                        #     Child Loop BB11_122 Depth 2
                                        #       Child Loop BB11_124 Depth 3
                                        #       Child Loop BB11_143 Depth 3
                                        #         Child Loop BB11_147 Depth 4
                                        #         Child Loop BB11_151 Depth 4
                                        #       Child Loop BB11_157 Depth 3
                                        #         Child Loop BB11_161 Depth 4
                                        #         Child Loop BB11_165 Depth 4
	cmpl	$4, -20(%rbp)
	jge	.LBB11_174
# %bb.121:                              # %for.body727
                                        #   in Loop: Header=BB11_120 Depth=1
	movl	$0, -24(%rbp)
.LBB11_122:                             # %for.cond728
                                        #   Parent Loop BB11_120 Depth=1
                                        # =>  This Loop Header: Depth=2
                                        #       Child Loop BB11_124 Depth 3
                                        #       Child Loop BB11_143 Depth 3
                                        #         Child Loop BB11_147 Depth 4
                                        #         Child Loop BB11_151 Depth 4
                                        #       Child Loop BB11_157 Depth 3
                                        #         Child Loop BB11_161 Depth 4
                                        #         Child Loop BB11_165 Depth 4
	cmpl	$4, -24(%rbp)
	jge	.LBB11_172
# %bb.123:                              # %for.body731
                                        #   in Loop: Header=BB11_122 Depth=2
	movl	$-1, -80(%rbp)
	movl	$0, -76(%rbp)
	movl	-20(%rbp), %eax
	cltd
	movl	$2, %esi
	idivl	%esi
	movl	%eax, %ecx
	shll	$1, %ecx
	movl	-24(%rbp), %eax
	cltd
	idivl	%esi
	addl	%eax, %ecx
	movl	%ecx, -116(%rbp)
	movl	-20(%rbp), %eax
	cltd
	idivl	%esi
	movl	%edx, %ecx
	shll	$1, %ecx
	movl	-24(%rbp), %eax
	cltd
	idivl	%esi
	addl	%edx, %ecx
	movl	%ecx, -112(%rbp)
	movq	img, %rax
	movq	14136(%rax), %rax
	movslq	-116(%rbp), %rcx
	movq	(%rax,%rcx,8), %rax
	movslq	-112(%rbp), %rcx
	movq	(%rax,%rcx,8), %rax
	movq	(%rax), %rax
	movq	%rax, -152(%rbp)
	movq	img, %rax
	movq	14136(%rax), %rax
	movslq	-116(%rbp), %rcx
	movq	(%rax,%rcx,8), %rax
	movslq	-112(%rbp), %rcx
	movq	(%rax,%rcx,8), %rax
	movq	8(%rax), %rax
	movq	%rax, -240(%rbp)
	movl	$1, -60(%rbp)
.LBB11_124:                             # %for.cond751
                                        #   Parent Loop BB11_120 Depth=1
                                        #     Parent Loop BB11_122 Depth=2
                                        # =>    This Inner Loop Header: Depth=3
	cmpl	$16, -60(%rbp)
	jge	.LBB11_142
# %bb.125:                              # %for.body754
                                        #   in Loop: Header=BB11_124 Depth=3
	movq	img, %rax
	cmpl	$0, 72444(%rax)
	jne	.LBB11_128
# %bb.126:                              # %lor.lhs.false757
                                        #   in Loop: Header=BB11_124 Depth=3
	cmpl	$0, mb_adaptive
	je	.LBB11_129
# %bb.127:                              # %land.lhs.true759
                                        #   in Loop: Header=BB11_124 Depth=3
	movq	img, %rax
	cmpl	$0, 72008(%rax)
	je	.LBB11_129
.LBB11_128:                             # %if.then762
                                        #   in Loop: Header=BB11_124 Depth=3
	movslq	-60(%rbp), %rax
	movzbl	FIELD_SCAN(,%rax,2), %eax
	movl	%eax, -16(%rbp)
	movslq	-60(%rbp), %rax
	movzbl	FIELD_SCAN+1(,%rax,2), %eax
	movl	%eax, -12(%rbp)
	jmp	.LBB11_130
.LBB11_129:                             # %if.else771
                                        #   in Loop: Header=BB11_124 Depth=3
	movslq	-60(%rbp), %rax
	movzbl	SNGL_SCAN(,%rax,2), %eax
	movl	%eax, -16(%rbp)
	movslq	-60(%rbp), %rax
	movzbl	SNGL_SCAN+1(,%rax,2), %eax
	movl	%eax, -12(%rbp)
.LBB11_130:                             # %if.end780
                                        #   in Loop: Header=BB11_124 Depth=3
	movl	-80(%rbp), %eax
	addl	$1, %eax
	movl	%eax, -80(%rbp)
	cmpl	$0, -72(%rbp)
	je	.LBB11_132
# %bb.131:                              # %if.then783
                                        #   in Loop: Header=BB11_124 Depth=3
	movslq	-16(%rbp), %rax
	shlq	$8, %rax
	leaq	-1264(%rbp), %rcx
	addq	%rax, %rcx
	movslq	-24(%rbp), %rax
	shlq	$6, %rax
	addq	%rax, %rcx
	movslq	-12(%rbp), %rax
	shlq	$4, %rax
	addq	%rax, %rcx
	movslq	-20(%rbp), %rax
	movl	(%rcx,%rax,4), %edi
	callq	abs
	movl	%eax, -64(%rbp)
	jmp	.LBB11_133
.LBB11_132:                             # %if.else793
                                        #   in Loop: Header=BB11_124 Depth=3
	movslq	-16(%rbp), %rax
	shlq	$8, %rax
	leaq	-1264(%rbp), %rcx
	addq	%rax, %rcx
	movslq	-24(%rbp), %rax
	shlq	$6, %rax
	addq	%rax, %rcx
	movslq	-12(%rbp), %rax
	shlq	$4, %rax
	addq	%rax, %rcx
	movslq	-20(%rbp), %rax
	movl	(%rcx,%rax,4), %edi
	callq	abs
	movslq	-100(%rbp), %rcx
	shlq	$6, %rcx
	movabsq	$LevelScale4x4Luma_Intra, %rdx
	addq	%rcx, %rdx
	movslq	-16(%rbp), %rcx
	shlq	$4, %rcx
	addq	%rcx, %rdx
	movslq	-12(%rbp), %rcx
	imull	(%rdx,%rcx,4), %eax
	movslq	-68(%rbp), %rcx
	shlq	$6, %rcx
	movabsq	$LevelOffset4x4Luma_Intra, %rdx
	addq	%rcx, %rdx
	movslq	-16(%rbp), %rcx
	shlq	$4, %rcx
	addq	%rcx, %rdx
	movslq	-12(%rbp), %rcx
	addl	(%rdx,%rcx,4), %eax
	movl	-108(%rbp), %ecx
                                        # kill: def $cl killed $ecx
	sarl	%cl, %eax
	movl	%eax, -64(%rbp)
.LBB11_133:                             # %if.end818
                                        #   in Loop: Header=BB11_124 Depth=3
	cmpl	$0, -64(%rbp)
	je	.LBB11_135
# %bb.134:                              # %if.then821
                                        #   in Loop: Header=BB11_124 Depth=3
	movl	$15, -120(%rbp)
	movl	-64(%rbp), %edi
	movslq	-16(%rbp), %rax
	shlq	$8, %rax
	leaq	-1264(%rbp), %rcx
	addq	%rax, %rcx
	movslq	-24(%rbp), %rax
	shlq	$6, %rax
	addq	%rax, %rcx
	movslq	-12(%rbp), %rax
	shlq	$4, %rax
	addq	%rax, %rcx
	movslq	-20(%rbp), %rax
	movl	(%rcx,%rax,4), %esi
	callq	sign
	movq	-152(%rbp), %rcx
	movslq	-76(%rbp), %rdx
	movl	%eax, (%rcx,%rdx,4)
	movl	-80(%rbp), %eax
	movq	-240(%rbp), %rcx
	movslq	-76(%rbp), %rdx
	movl	%eax, (%rcx,%rdx,4)
	movl	-76(%rbp), %eax
	addl	$1, %eax
	movl	%eax, -76(%rbp)
	movl	$-1, -80(%rbp)
.LBB11_135:                             # %if.end836
                                        #   in Loop: Header=BB11_124 Depth=3
	cmpl	$0, -72(%rbp)
	jne	.LBB11_140
# %bb.136:                              # %if.then838
                                        #   in Loop: Header=BB11_124 Depth=3
	movl	-64(%rbp), %edi
	movslq	-16(%rbp), %rax
	shlq	$8, %rax
	leaq	-1264(%rbp), %rcx
	addq	%rax, %rcx
	movslq	-24(%rbp), %rax
	shlq	$6, %rax
	addq	%rax, %rcx
	movslq	-12(%rbp), %rax
	shlq	$4, %rax
	addq	%rax, %rcx
	movslq	-20(%rbp), %rax
	movl	(%rcx,%rax,4), %esi
	callq	sign
	movl	%eax, -64(%rbp)
	cmpl	$4, -68(%rbp)
	jge	.LBB11_138
# %bb.137:                              # %if.then850
                                        #   in Loop: Header=BB11_124 Depth=3
	movl	-64(%rbp), %eax
	movslq	-100(%rbp), %rcx
	shlq	$6, %rcx
	movabsq	$InvLevelScale4x4Luma_Intra, %rdx
	addq	%rcx, %rdx
	movslq	-16(%rbp), %rcx
	shlq	$4, %rcx
	addq	%rcx, %rdx
	movslq	-12(%rbp), %rcx
	imull	(%rdx,%rcx,4), %eax
	movl	$3, %ecx
	subl	-68(%rbp), %ecx
                                        # kill: def $cl killed $ecx
	movl	$1, %edx
	shll	%cl, %edx
	addl	%edx, %eax
	movl	$4, %ecx
	subl	-68(%rbp), %ecx
                                        # kill: def $cl killed $ecx
	sarl	%cl, %eax
	movslq	-16(%rbp), %rcx
	shlq	$8, %rcx
	leaq	-1264(%rbp), %rdx
	addq	%rcx, %rdx
	movslq	-24(%rbp), %rcx
	shlq	$6, %rcx
	addq	%rcx, %rdx
	movslq	-12(%rbp), %rcx
	shlq	$4, %rcx
	addq	%rcx, %rdx
	movslq	-20(%rbp), %rcx
	movl	%eax, (%rdx,%rcx,4)
	jmp	.LBB11_139
.LBB11_138:                             # %if.else871
                                        #   in Loop: Header=BB11_124 Depth=3
	movl	-64(%rbp), %eax
	movslq	-100(%rbp), %rcx
	shlq	$6, %rcx
	movabsq	$InvLevelScale4x4Luma_Intra, %rdx
	addq	%rcx, %rdx
	movslq	-16(%rbp), %rcx
	shlq	$4, %rcx
	addq	%rcx, %rdx
	movslq	-12(%rbp), %rcx
	imull	(%rdx,%rcx,4), %eax
	movl	-68(%rbp), %ecx
	subl	$4, %ecx
                                        # kill: def $cl killed $ecx
	shll	%cl, %eax
	movslq	-16(%rbp), %rcx
	shlq	$8, %rcx
	leaq	-1264(%rbp), %rdx
	addq	%rcx, %rdx
	movslq	-24(%rbp), %rcx
	shlq	$6, %rcx
	addq	%rcx, %rdx
	movslq	-12(%rbp), %rcx
	shlq	$4, %rcx
	addq	%rcx, %rdx
	movslq	-20(%rbp), %rcx
	movl	%eax, (%rdx,%rcx,4)
.LBB11_139:                             # %if.end889
                                        #   in Loop: Header=BB11_124 Depth=3
	jmp	.LBB11_140
.LBB11_140:                             # %if.end890
                                        #   in Loop: Header=BB11_124 Depth=3
	jmp	.LBB11_141
.LBB11_141:                             # %for.inc891
                                        #   in Loop: Header=BB11_124 Depth=3
	movl	-60(%rbp), %eax
	addl	$1, %eax
	movl	%eax, -60(%rbp)
	jmp	.LBB11_124
.LBB11_142:                             # %for.end893
                                        #   in Loop: Header=BB11_122 Depth=2
	movq	-152(%rbp), %rax
	movslq	-76(%rbp), %rcx
	movl	$0, (%rax,%rcx,4)
	movl	$0, -12(%rbp)
.LBB11_143:                             # %for.cond896
                                        #   Parent Loop BB11_120 Depth=1
                                        #     Parent Loop BB11_122 Depth=2
                                        # =>    This Loop Header: Depth=3
                                        #         Child Loop BB11_147 Depth 4
                                        #         Child Loop BB11_151 Depth 4
	xorl	%eax, %eax
	cmpl	$4, -12(%rbp)
	jge	.LBB11_145
# %bb.144:                              # %land.rhs899
                                        #   in Loop: Header=BB11_143 Depth=3
	cmpl	$0, -72(%rbp)
	setne	%al
	xorb	$-1, %al
.LBB11_145:                             # %land.end902
                                        #   in Loop: Header=BB11_143 Depth=3
	testb	$1, %al
	jne	.LBB11_146
	jmp	.LBB11_156
.LBB11_146:                             # %for.body904
                                        #   in Loop: Header=BB11_143 Depth=3
	movl	$0, -16(%rbp)
.LBB11_147:                             # %for.cond905
                                        #   Parent Loop BB11_120 Depth=1
                                        #     Parent Loop BB11_122 Depth=2
                                        #       Parent Loop BB11_143 Depth=3
                                        # =>      This Inner Loop Header: Depth=4
	cmpl	$4, -16(%rbp)
	jge	.LBB11_150
# %bb.148:                              # %for.body908
                                        #   in Loop: Header=BB11_147 Depth=4
	movslq	-16(%rbp), %rax
	shlq	$8, %rax
	leaq	-1264(%rbp), %rcx
	addq	%rax, %rcx
	movslq	-24(%rbp), %rax
	shlq	$6, %rax
	addq	%rax, %rcx
	movslq	-12(%rbp), %rax
	shlq	$4, %rax
	addq	%rax, %rcx
	movslq	-20(%rbp), %rax
	movl	(%rcx,%rax,4), %eax
	movslq	-16(%rbp), %rcx
	movl	%eax, -48(%rbp,%rcx,4)
# %bb.149:                              # %for.inc919
                                        #   in Loop: Header=BB11_147 Depth=4
	movl	-16(%rbp), %eax
	addl	$1, %eax
	movl	%eax, -16(%rbp)
	jmp	.LBB11_147
.LBB11_150:                             # %for.end921
                                        #   in Loop: Header=BB11_143 Depth=3
	movl	-48(%rbp), %eax
	addl	-40(%rbp), %eax
	movl	%eax, -96(%rbp)
	movl	-48(%rbp), %eax
	subl	-40(%rbp), %eax
	movl	%eax, -92(%rbp)
	movl	-44(%rbp), %eax
	sarl	$1, %eax
	subl	-36(%rbp), %eax
	movl	%eax, -88(%rbp)
	movl	-44(%rbp), %eax
	movl	-36(%rbp), %ecx
	sarl	$1, %ecx
	addl	%ecx, %eax
	movl	%eax, -84(%rbp)
	movl	$0, -16(%rbp)
.LBB11_151:                             # %for.cond940
                                        #   Parent Loop BB11_120 Depth=1
                                        #     Parent Loop BB11_122 Depth=2
                                        #       Parent Loop BB11_143 Depth=3
                                        # =>      This Inner Loop Header: Depth=4
	cmpl	$2, -16(%rbp)
	jge	.LBB11_154
# %bb.152:                              # %for.body943
                                        #   in Loop: Header=BB11_151 Depth=4
	movl	$3, %eax
	subl	-16(%rbp), %eax
	movl	%eax, -56(%rbp)
	movslq	-16(%rbp), %rax
	movl	-96(%rbp,%rax,4), %ecx
	movslq	-56(%rbp), %rax
	addl	-96(%rbp,%rax,4), %ecx
	movslq	-16(%rbp), %rdx
	shlq	$8, %rdx
	leaq	-1264(%rbp), %rax
	movq	%rax, %rsi
	addq	%rdx, %rsi
	movslq	-24(%rbp), %rdx
	shlq	$6, %rdx
	addq	%rdx, %rsi
	movslq	-12(%rbp), %rdx
	shlq	$4, %rdx
	addq	%rdx, %rsi
	movslq	-20(%rbp), %rdx
	movl	%ecx, (%rsi,%rdx,4)
	movslq	-16(%rbp), %rcx
	movl	-96(%rbp,%rcx,4), %ecx
	movslq	-56(%rbp), %rdx
	subl	-96(%rbp,%rdx,4), %ecx
	movslq	-56(%rbp), %rdx
	shlq	$8, %rdx
	addq	%rdx, %rax
	movslq	-24(%rbp), %rdx
	shlq	$6, %rdx
	addq	%rdx, %rax
	movslq	-12(%rbp), %rdx
	shlq	$4, %rdx
	addq	%rdx, %rax
	movslq	-20(%rbp), %rdx
	movl	%ecx, (%rax,%rdx,4)
# %bb.153:                              # %for.inc971
                                        #   in Loop: Header=BB11_151 Depth=4
	movl	-16(%rbp), %eax
	addl	$1, %eax
	movl	%eax, -16(%rbp)
	jmp	.LBB11_151
.LBB11_154:                             # %for.end973
                                        #   in Loop: Header=BB11_143 Depth=3
	jmp	.LBB11_155
.LBB11_155:                             # %for.inc974
                                        #   in Loop: Header=BB11_143 Depth=3
	movl	-12(%rbp), %eax
	addl	$1, %eax
	movl	%eax, -12(%rbp)
	jmp	.LBB11_143
.LBB11_156:                             # %for.end976
                                        #   in Loop: Header=BB11_122 Depth=2
	movl	$0, -16(%rbp)
.LBB11_157:                             # %for.cond977
                                        #   Parent Loop BB11_120 Depth=1
                                        #     Parent Loop BB11_122 Depth=2
                                        # =>    This Loop Header: Depth=3
                                        #         Child Loop BB11_161 Depth 4
                                        #         Child Loop BB11_165 Depth 4
	xorl	%eax, %eax
	cmpl	$4, -16(%rbp)
	jge	.LBB11_159
# %bb.158:                              # %land.rhs980
                                        #   in Loop: Header=BB11_157 Depth=3
	cmpl	$0, -72(%rbp)
	setne	%al
	xorb	$-1, %al
.LBB11_159:                             # %land.end983
                                        #   in Loop: Header=BB11_157 Depth=3
	testb	$1, %al
	jne	.LBB11_160
	jmp	.LBB11_170
.LBB11_160:                             # %for.body985
                                        #   in Loop: Header=BB11_157 Depth=3
	movl	$0, -12(%rbp)
.LBB11_161:                             # %for.cond986
                                        #   Parent Loop BB11_120 Depth=1
                                        #     Parent Loop BB11_122 Depth=2
                                        #       Parent Loop BB11_157 Depth=3
                                        # =>      This Inner Loop Header: Depth=4
	cmpl	$4, -12(%rbp)
	jge	.LBB11_164
# %bb.162:                              # %for.body989
                                        #   in Loop: Header=BB11_161 Depth=4
	movslq	-16(%rbp), %rax
	shlq	$8, %rax
	leaq	-1264(%rbp), %rcx
	addq	%rax, %rcx
	movslq	-24(%rbp), %rax
	shlq	$6, %rax
	addq	%rax, %rcx
	movslq	-12(%rbp), %rax
	shlq	$4, %rax
	addq	%rax, %rcx
	movslq	-20(%rbp), %rax
	movl	(%rcx,%rax,4), %eax
	movslq	-12(%rbp), %rcx
	movl	%eax, -48(%rbp,%rcx,4)
# %bb.163:                              # %for.inc1000
                                        #   in Loop: Header=BB11_161 Depth=4
	movl	-12(%rbp), %eax
	addl	$1, %eax
	movl	%eax, -12(%rbp)
	jmp	.LBB11_161
.LBB11_164:                             # %for.end1002
                                        #   in Loop: Header=BB11_157 Depth=3
	movl	-48(%rbp), %eax
	addl	-40(%rbp), %eax
	movl	%eax, -96(%rbp)
	movl	-48(%rbp), %eax
	subl	-40(%rbp), %eax
	movl	%eax, -92(%rbp)
	movl	-44(%rbp), %eax
	sarl	$1, %eax
	subl	-36(%rbp), %eax
	movl	%eax, -88(%rbp)
	movl	-44(%rbp), %eax
	movl	-36(%rbp), %ecx
	sarl	$1, %ecx
	addl	%ecx, %eax
	movl	%eax, -84(%rbp)
	movl	$0, -12(%rbp)
.LBB11_165:                             # %for.cond1021
                                        #   Parent Loop BB11_120 Depth=1
                                        #     Parent Loop BB11_122 Depth=2
                                        #       Parent Loop BB11_157 Depth=3
                                        # =>      This Inner Loop Header: Depth=4
	cmpl	$2, -12(%rbp)
	jge	.LBB11_168
# %bb.166:                              # %for.body1024
                                        #   in Loop: Header=BB11_165 Depth=4
	movl	$3, %eax
	subl	-12(%rbp), %eax
	movl	%eax, -52(%rbp)
	movslq	-12(%rbp), %rax
	movl	-96(%rbp,%rax,4), %ecx
	movslq	-52(%rbp), %rax
	addl	-96(%rbp,%rax,4), %ecx
	movslq	-16(%rbp), %rdx
	shlq	$8, %rdx
	leaq	-1264(%rbp), %rax
	movq	%rax, %rsi
	addq	%rdx, %rsi
	movslq	-24(%rbp), %rdx
	shlq	$6, %rdx
	addq	%rdx, %rsi
	movslq	-12(%rbp), %rdx
	shlq	$4, %rdx
	addq	%rdx, %rsi
	movslq	-20(%rbp), %rdx
	movl	%ecx, (%rsi,%rdx,4)
	movslq	-12(%rbp), %rcx
	movl	-96(%rbp,%rcx,4), %ecx
	movslq	-52(%rbp), %rdx
	subl	-96(%rbp,%rdx,4), %ecx
	movslq	-16(%rbp), %rdx
	shlq	$8, %rdx
	addq	%rdx, %rax
	movslq	-24(%rbp), %rdx
	shlq	$6, %rdx
	addq	%rdx, %rax
	movslq	-52(%rbp), %rdx
	shlq	$4, %rdx
	addq	%rdx, %rax
	movslq	-20(%rbp), %rdx
	movl	%ecx, (%rax,%rdx,4)
# %bb.167:                              # %for.inc1052
                                        #   in Loop: Header=BB11_165 Depth=4
	movl	-12(%rbp), %eax
	addl	$1, %eax
	movl	%eax, -12(%rbp)
	jmp	.LBB11_165
.LBB11_168:                             # %for.end1054
                                        #   in Loop: Header=BB11_157 Depth=3
	jmp	.LBB11_169
.LBB11_169:                             # %for.inc1055
                                        #   in Loop: Header=BB11_157 Depth=3
	movl	-16(%rbp), %eax
	addl	$1, %eax
	movl	%eax, -16(%rbp)
	jmp	.LBB11_157
.LBB11_170:                             # %for.end1057
                                        #   in Loop: Header=BB11_122 Depth=2
	jmp	.LBB11_171
.LBB11_171:                             # %for.inc1058
                                        #   in Loop: Header=BB11_122 Depth=2
	movl	-24(%rbp), %eax
	addl	$1, %eax
	movl	%eax, -24(%rbp)
	jmp	.LBB11_122
.LBB11_172:                             # %for.end1060
                                        #   in Loop: Header=BB11_120 Depth=1
	jmp	.LBB11_173
.LBB11_173:                             # %for.inc1061
                                        #   in Loop: Header=BB11_120 Depth=1
	movl	-20(%rbp), %eax
	addl	$1, %eax
	movl	%eax, -20(%rbp)
	jmp	.LBB11_120
.LBB11_174:                             # %for.end1063
	movq	img, %rax
	cmpl	$0, 72724(%rax)
	jne	.LBB11_184
# %bb.175:                              # %if.then1066
	movl	$0, -12(%rbp)
.LBB11_176:                             # %for.cond1067
                                        # =>This Loop Header: Depth=1
                                        #     Child Loop BB11_178 Depth 2
	cmpl	$16, -12(%rbp)
	jge	.LBB11_183
# %bb.177:                              # %for.body1070
                                        #   in Loop: Header=BB11_176 Depth=1
	movl	$0, -16(%rbp)
.LBB11_178:                             # %for.cond1071
                                        #   Parent Loop BB11_176 Depth=1
                                        # =>  This Inner Loop Header: Depth=2
	cmpl	$16, -16(%rbp)
	jge	.LBB11_181
# %bb.179:                              # %for.body1074
                                        #   in Loop: Header=BB11_178 Depth=2
	movl	-16(%rbp), %eax
	cltd
	movl	$4, %ecx
	idivl	%ecx
	movslq	%edx, %rax
	shlq	$8, %rax
	leaq	-1264(%rbp), %rsi
	addq	%rax, %rsi
	movl	-16(%rbp), %eax
	cltd
	idivl	%ecx
	cltq
	shlq	$6, %rax
	addq	%rax, %rsi
	movl	-12(%rbp), %eax
	cltd
	idivl	%ecx
	movslq	%edx, %rax
	shlq	$4, %rax
	addq	%rax, %rsi
	movl	-12(%rbp), %eax
	cltd
	idivl	%ecx
	cltq
	movl	(%rsi,%rax,4), %eax
	movslq	-16(%rbp), %rcx
	shlq	$6, %rcx
	leaq	-2288(%rbp), %rdx
	addq	%rcx, %rdx
	movslq	-12(%rbp), %rcx
	movl	%eax, (%rdx,%rcx,4)
# %bb.180:                              # %for.inc1091
                                        #   in Loop: Header=BB11_178 Depth=2
	movl	-16(%rbp), %eax
	addl	$1, %eax
	movl	%eax, -16(%rbp)
	jmp	.LBB11_178
.LBB11_181:                             # %for.end1093
                                        #   in Loop: Header=BB11_176 Depth=1
	jmp	.LBB11_182
.LBB11_182:                             # %for.inc1094
                                        #   in Loop: Header=BB11_176 Depth=1
	movl	-12(%rbp), %eax
	addl	$1, %eax
	movl	%eax, -12(%rbp)
	jmp	.LBB11_176
.LBB11_183:                             # %for.end1096
	jmp	.LBB11_196
.LBB11_184:                             # %if.else1097
	movl	$0, -12(%rbp)
.LBB11_185:                             # %for.cond1098
                                        # =>This Loop Header: Depth=1
                                        #     Child Loop BB11_187 Depth 2
	cmpl	$16, -12(%rbp)
	jge	.LBB11_195
# %bb.186:                              # %for.body1101
                                        #   in Loop: Header=BB11_185 Depth=1
	movl	$0, -16(%rbp)
.LBB11_187:                             # %for.cond1102
                                        #   Parent Loop BB11_185 Depth=1
                                        # =>  This Inner Loop Header: Depth=2
	cmpl	$16, -16(%rbp)
	jge	.LBB11_193
# %bb.188:                              # %for.body1105
                                        #   in Loop: Header=BB11_187 Depth=2
	cmpl	$0, -72(%rbp)
	je	.LBB11_190
# %bb.189:                              # %if.then1107
                                        #   in Loop: Header=BB11_187 Depth=2
	movl	-16(%rbp), %eax
	cltd
	movl	$4, %ecx
	idivl	%ecx
	movslq	%edx, %rax
	shlq	$8, %rax
	leaq	-1264(%rbp), %rsi
	addq	%rax, %rsi
	movl	-16(%rbp), %eax
	cltd
	idivl	%ecx
	cltq
	shlq	$6, %rax
	addq	%rax, %rsi
	movl	-12(%rbp), %eax
	cltd
	idivl	%ecx
	movslq	%edx, %rax
	shlq	$4, %rax
	addq	%rax, %rsi
	movl	-12(%rbp), %eax
	cltd
	idivl	%ecx
	cltq
	movl	(%rsi,%rax,4), %eax
	movq	img, %rcx
	addq	$13112, %rcx            # imm = 0x3338
	movslq	-16(%rbp), %rdx
	shlq	$6, %rdx
	addq	%rdx, %rcx
	movslq	-12(%rbp), %rdx
	movl	%eax, (%rcx,%rdx,4)
	jmp	.LBB11_191
.LBB11_190:                             # %if.else1125
                                        #   in Loop: Header=BB11_187 Depth=2
	movl	-16(%rbp), %eax
	cltd
	movl	$4, %ecx
	idivl	%ecx
	movslq	%edx, %rax
	shlq	$8, %rax
	leaq	-1264(%rbp), %rsi
	addq	%rax, %rsi
	movl	-16(%rbp), %eax
	cltd
	idivl	%ecx
	cltq
	shlq	$6, %rax
	addq	%rax, %rsi
	movl	-12(%rbp), %eax
	cltd
	idivl	%ecx
	movslq	%edx, %rax
	shlq	$4, %rax
	addq	%rax, %rsi
	movl	-12(%rbp), %eax
	cltd
	idivl	%ecx
	cltq
	movl	(%rsi,%rax,4), %eax
	addl	$32, %eax
	sarl	$6, %eax
	movq	img, %rcx
	addq	$13112, %rcx            # imm = 0x3338
	movslq	-16(%rbp), %rdx
	shlq	$6, %rdx
	addq	%rdx, %rcx
	movslq	-12(%rbp), %rdx
	movl	%eax, (%rcx,%rdx,4)
.LBB11_191:                             # %if.end1145
                                        #   in Loop: Header=BB11_187 Depth=2
	jmp	.LBB11_192
.LBB11_192:                             # %for.inc1146
                                        #   in Loop: Header=BB11_187 Depth=2
	movl	-16(%rbp), %eax
	addl	$1, %eax
	movl	%eax, -16(%rbp)
	jmp	.LBB11_187
.LBB11_193:                             # %for.end1148
                                        #   in Loop: Header=BB11_185 Depth=1
	jmp	.LBB11_194
.LBB11_194:                             # %for.inc1149
                                        #   in Loop: Header=BB11_185 Depth=1
	movl	-12(%rbp), %eax
	addl	$1, %eax
	movl	%eax, -12(%rbp)
	jmp	.LBB11_185
.LBB11_195:                             # %for.end1151
	jmp	.LBB11_196
.LBB11_196:                             # %if.end1152
	movq	img, %rax
	cmpl	$0, 72724(%rax)
	jne	.LBB11_218
# %bb.197:                              # %if.then1155
	movl	$0, -12(%rbp)
.LBB11_198:                             # %for.cond1156
                                        # =>This Loop Header: Depth=1
                                        #     Child Loop BB11_200 Depth 2
	cmpl	$16, -12(%rbp)
	jge	.LBB11_217
# %bb.199:                              # %for.body1159
                                        #   in Loop: Header=BB11_198 Depth=1
	movl	$0, -16(%rbp)
.LBB11_200:                             # %for.cond1160
                                        #   Parent Loop BB11_198 Depth=1
                                        # =>  This Inner Loop Header: Depth=2
	cmpl	$16, -16(%rbp)
	jge	.LBB11_215
# %bb.201:                              # %for.body1163
                                        #   in Loop: Header=BB11_200 Depth=2
	cmpl	$0, -72(%rbp)
	je	.LBB11_203
# %bb.202:                              # %if.then1165
                                        #   in Loop: Header=BB11_200 Depth=2
	movslq	-16(%rbp), %rax
	shlq	$6, %rax
	leaq	-2288(%rbp), %rcx
	addq	%rax, %rcx
	movslq	-12(%rbp), %rax
	movl	(%rcx,%rax,4), %eax
	movq	img, %rcx
	addq	$4792, %rcx             # imm = 0x12B8
	movslq	-104(%rbp), %rdx
	shlq	$9, %rdx
	addq	%rdx, %rcx
	movslq	-12(%rbp), %rdx
	shlq	$5, %rdx
	addq	%rdx, %rcx
	movslq	-16(%rbp), %rdx
	movzwl	(%rcx,%rdx,2), %ecx
	addl	%ecx, %eax
	movq	enc_picture, %rcx
	movq	6424(%rcx), %rcx
	movq	img, %rdx
	movl	156(%rdx), %edx
	addl	-12(%rbp), %edx
	movslq	%edx, %rdx
	movq	(%rcx,%rdx,8), %rcx
	movq	img, %rdx
	movl	152(%rdx), %edx
	addl	-16(%rbp), %edx
	movslq	%edx, %rdx
	movw	%ax, (%rcx,%rdx,2)
	jmp	.LBB11_213
.LBB11_203:                             # %if.else1186
                                        #   in Loop: Header=BB11_200 Depth=2
	xorl	%ecx, %ecx
	movq	img, %rax
	movslq	72684(%rax), %rax
	movslq	-16(%rbp), %rdx
	shlq	$6, %rdx
	leaq	-2288(%rbp), %rsi
	addq	%rdx, %rsi
	movslq	-12(%rbp), %rdx
	movslq	(%rsi,%rdx,4), %rdx
	movq	img, %rsi
	addq	$4792, %rsi             # imm = 0x12B8
	movslq	-104(%rbp), %rdi
	shlq	$9, %rdi
	addq	%rdi, %rsi
	movslq	-12(%rbp), %rdi
	shlq	$5, %rdi
	addq	%rdi, %rsi
	movslq	-16(%rbp), %rdi
	movzwl	(%rsi,%rdi,2), %esi
	shlq	$6, %rsi
	addq	%rsi, %rdx
	addq	$32, %rdx
	sarq	$6, %rdx
	cmpq	%rdx, %rcx
	jle	.LBB11_205
# %bb.204:                              # %cond.true
                                        #   in Loop: Header=BB11_200 Depth=2
	xorl	%ecx, %ecx
	jmp	.LBB11_206
.LBB11_205:                             # %cond.false
                                        #   in Loop: Header=BB11_200 Depth=2
	movslq	-16(%rbp), %rcx
	shlq	$6, %rcx
	leaq	-2288(%rbp), %rdx
	addq	%rcx, %rdx
	movslq	-12(%rbp), %rcx
	movslq	(%rdx,%rcx,4), %rcx
	movq	img, %rdx
	addq	$4792, %rdx             # imm = 0x12B8
	movslq	-104(%rbp), %rsi
	shlq	$9, %rsi
	addq	%rsi, %rdx
	movslq	-12(%rbp), %rsi
	shlq	$5, %rsi
	addq	%rsi, %rdx
	movslq	-16(%rbp), %rsi
	movzwl	(%rdx,%rsi,2), %edx
	shlq	$6, %rdx
	addq	%rdx, %rcx
	addq	$32, %rcx
	sarq	$6, %rcx
.LBB11_206:                             # %cond.end
                                        #   in Loop: Header=BB11_200 Depth=2
	cmpq	%rcx, %rax
	jge	.LBB11_208
# %bb.207:                              # %cond.true1226
                                        #   in Loop: Header=BB11_200 Depth=2
	movq	img, %rax
	movslq	72684(%rax), %rax
	jmp	.LBB11_212
.LBB11_208:                             # %cond.false1229
                                        #   in Loop: Header=BB11_200 Depth=2
	xorl	%eax, %eax
	movslq	-16(%rbp), %rcx
	shlq	$6, %rcx
	leaq	-2288(%rbp), %rdx
	addq	%rcx, %rdx
	movslq	-12(%rbp), %rcx
	movslq	(%rdx,%rcx,4), %rcx
	movq	img, %rdx
	addq	$4792, %rdx             # imm = 0x12B8
	movslq	-104(%rbp), %rsi
	shlq	$9, %rsi
	addq	%rsi, %rdx
	movslq	-12(%rbp), %rsi
	shlq	$5, %rsi
	addq	%rsi, %rdx
	movslq	-16(%rbp), %rsi
	movzwl	(%rdx,%rsi,2), %edx
	shlq	$6, %rdx
	addq	%rdx, %rcx
	addq	$32, %rcx
	sarq	$6, %rcx
	cmpq	%rcx, %rax
	jle	.LBB11_210
# %bb.209:                              # %cond.true1249
                                        #   in Loop: Header=BB11_200 Depth=2
	xorl	%eax, %eax
	jmp	.LBB11_211
.LBB11_210:                             # %cond.false1250
                                        #   in Loop: Header=BB11_200 Depth=2
	movslq	-16(%rbp), %rax
	shlq	$6, %rax
	leaq	-2288(%rbp), %rcx
	addq	%rax, %rcx
	movslq	-12(%rbp), %rax
	movslq	(%rcx,%rax,4), %rax
	movq	img, %rcx
	addq	$4792, %rcx             # imm = 0x12B8
	movslq	-104(%rbp), %rdx
	shlq	$9, %rdx
	addq	%rdx, %rcx
	movslq	-12(%rbp), %rdx
	shlq	$5, %rdx
	addq	%rdx, %rcx
	movslq	-16(%rbp), %rdx
	movzwl	(%rcx,%rdx,2), %ecx
	shlq	$6, %rcx
	addq	%rcx, %rax
	addq	$32, %rax
	sarq	$6, %rax
.LBB11_211:                             # %cond.end1268
                                        #   in Loop: Header=BB11_200 Depth=2
.LBB11_212:                             # %cond.end1270
                                        #   in Loop: Header=BB11_200 Depth=2
	movq	enc_picture, %rcx
	movq	6424(%rcx), %rcx
	movq	img, %rdx
	movl	156(%rdx), %edx
	addl	-12(%rbp), %edx
	movslq	%edx, %rdx
	movq	(%rcx,%rdx,8), %rcx
	movq	img, %rdx
	movl	152(%rdx), %edx
	addl	-16(%rbp), %edx
	movslq	%edx, %rdx
	movw	%ax, (%rcx,%rdx,2)
.LBB11_213:                             # %if.end1282
                                        #   in Loop: Header=BB11_200 Depth=2
	jmp	.LBB11_214
.LBB11_214:                             # %for.inc1283
                                        #   in Loop: Header=BB11_200 Depth=2
	movl	-16(%rbp), %eax
	addl	$1, %eax
	movl	%eax, -16(%rbp)
	jmp	.LBB11_200
.LBB11_215:                             # %for.end1285
                                        #   in Loop: Header=BB11_198 Depth=1
	jmp	.LBB11_216
.LBB11_216:                             # %for.inc1286
                                        #   in Loop: Header=BB11_198 Depth=1
	movl	-12(%rbp), %eax
	addl	$1, %eax
	movl	%eax, -12(%rbp)
	jmp	.LBB11_198
.LBB11_217:                             # %for.end1288
	jmp	.LBB11_218
.LBB11_218:                             # %if.end1289
	movl	-120(%rbp), %ebx
	cmpl	$965364292, -132(%rbp)  # imm = 0x398A4A44
	jne	.LBB11_220
.LBB11_219:
	movl	%ebx, %eax
	addq	$2280, %rsp             # imm = 0x8E8
	popq	%rbx
	popq	%rbp
	.cfi_def_cfa %rsp, 8
	retq
.LBB11_220:                             # %func_exit
	.cfi_def_cfa %rbp, 16
	callq	detect_breach
	jmp	.LBB11_219
.Lfunc_end11:
	.size	dct_luma_16x16.2, .Lfunc_end11-dct_luma_16x16.2
	.cfi_endproc
                                        # -- End function
	.globl	dct_luma.3              # -- Begin function dct_luma.3
	.p2align	4, 0x90
	.type	dct_luma.3,@function
dct_luma.3:                             # @dct_luma.3
	.cfi_startproc
# %bb.0:                                # %entry
	pushq	%rbp
	.cfi_def_cfa_offset 16
	.cfi_offset %rbp, -16
	movq	%rsp, %rbp
	.cfi_def_cfa_register %rbp
	pushq	%rbx
	subq	$168, %rsp
	.cfi_offset %rbx, -24
	xorl	%ebx, %ebx
	movl	$947667861, -148(%rbp)  # imm = 0x387C4395
	movl	%edi, -28(%rbp)
	movl	%esi, -24(%rbp)
	movq	%rdx, -160(%rbp)
	movl	%ecx, -108(%rbp)
	movl	-28(%rbp), %eax
	cltd
	movl	$4, %ecx
	idivl	%ecx
	movl	%eax, -128(%rbp)
	movl	-24(%rbp), %eax
	cltd
	idivl	%ecx
	movl	%eax, -124(%rbp)
	movl	-124(%rbp), %eax
	cltd
	movl	$2, %esi
	idivl	%esi
	movl	%eax, %ecx
	shll	$1, %ecx
	movl	-128(%rbp), %eax
	cltd
	idivl	%esi
	addl	%eax, %ecx
	movl	%ecx, -112(%rbp)
	movl	-124(%rbp), %eax
	cltd
	idivl	%esi
	movl	%edx, %ecx
	shll	$1, %ecx
	movl	-128(%rbp), %eax
	cltd
	idivl	%esi
	addl	%edx, %ecx
	movl	%ecx, -120(%rbp)
	movq	img, %rax
	movq	14136(%rax), %rax
	movslq	-112(%rbp), %rcx
	movq	(%rax,%rcx,8), %rax
	movslq	-120(%rbp), %rcx
	movq	(%rax,%rcx,8), %rax
	movq	(%rax), %rax
	movq	%rax, -168(%rbp)
	movq	img, %rax
	movq	14136(%rax), %rax
	movslq	-112(%rbp), %rcx
	movq	(%rax,%rcx,8), %rax
	movslq	-120(%rbp), %rcx
	movq	(%rax,%rcx,8), %rax
	movq	8(%rax), %rax
	movq	%rax, -176(%rbp)
	movq	img, %rax
	movq	14168(%rax), %rax
	movq	img, %rcx
	movslq	12(%rcx), %rcx
	imulq	$632, %rcx, %rcx        # imm = 0x278
	addq	%rcx, %rax
	movq	%rax, -144(%rbp)
	movq	-144(%rbp), %rax
	movl	12(%rax), %eax
	movq	img, %rcx
	addl	72668(%rcx), %eax
	cmpl	$0, %eax
	jne	.LBB12_2
# %bb.1:                                # %land.rhs
	movq	img, %rax
	cmpl	$1, 72704(%rax)
	sete	%bl
.LBB12_2:                               # %land.end
	andb	$1, %bl
	movzbl	%bl, %eax
	movl	%eax, -40(%rbp)
	movq	-144(%rbp), %rax
	movl	12(%rax), %eax
	movq	img, %rcx
	addl	72668(%rcx), %eax
	subl	$0, %eax
	cltd
	movl	$6, %ecx
	idivl	%ecx
	movl	%eax, -36(%rbp)
	movq	-144(%rbp), %rax
	movl	12(%rax), %eax
	movq	img, %rdx
	addl	72668(%rdx), %eax
	subl	$0, %eax
	cltd
	idivl	%ecx
	movl	%edx, -92(%rbp)
	movl	-36(%rbp), %eax
	addl	$15, %eax
	movl	%eax, -132(%rbp)
	movl	$0, -12(%rbp)
.LBB12_3:                               # %for.cond
                                        # =>This Loop Header: Depth=1
                                        #     Child Loop BB12_7 Depth 2
	xorl	%eax, %eax
	cmpl	$4, -12(%rbp)
	jge	.LBB12_5
# %bb.4:                                # %land.rhs31
                                        #   in Loop: Header=BB12_3 Depth=1
	cmpl	$0, -40(%rbp)
	setne	%al
	xorb	$-1, %al
.LBB12_5:                               # %land.end32
                                        #   in Loop: Header=BB12_3 Depth=1
	testb	$1, %al
	jne	.LBB12_6
	jmp	.LBB12_12
.LBB12_6:                               # %for.body
                                        #   in Loop: Header=BB12_3 Depth=1
	movl	$0, -16(%rbp)
.LBB12_7:                               # %for.cond34
                                        #   Parent Loop BB12_3 Depth=1
                                        # =>  This Inner Loop Header: Depth=2
	cmpl	$2, -16(%rbp)
	jge	.LBB12_10
# %bb.8:                                # %for.body36
                                        #   in Loop: Header=BB12_7 Depth=2
	movl	$3, %eax
	subl	-16(%rbp), %eax
	movl	%eax, -84(%rbp)
	movq	img, %rax
	addq	$13112, %rax            # imm = 0x3338
	movslq	-16(%rbp), %rcx
	shlq	$6, %rcx
	addq	%rcx, %rax
	movslq	-12(%rbp), %rcx
	movl	(%rax,%rcx,4), %eax
	movq	img, %rcx
	addq	$13112, %rcx            # imm = 0x3338
	movslq	-84(%rbp), %rdx
	shlq	$6, %rdx
	addq	%rdx, %rcx
	movslq	-12(%rbp), %rdx
	addl	(%rcx,%rdx,4), %eax
	movslq	-16(%rbp), %rcx
	movl	%eax, -64(%rbp,%rcx,4)
	movq	img, %rax
	addq	$13112, %rax            # imm = 0x3338
	movslq	-16(%rbp), %rcx
	shlq	$6, %rcx
	addq	%rcx, %rax
	movslq	-12(%rbp), %rcx
	movl	(%rax,%rcx,4), %eax
	movq	img, %rcx
	addq	$13112, %rcx            # imm = 0x3338
	movslq	-84(%rbp), %rdx
	shlq	$6, %rdx
	addq	%rdx, %rcx
	movslq	-12(%rbp), %rdx
	subl	(%rcx,%rdx,4), %eax
	movslq	-84(%rbp), %rcx
	movl	%eax, -64(%rbp,%rcx,4)
# %bb.9:                                # %for.inc
                                        #   in Loop: Header=BB12_7 Depth=2
	movl	-16(%rbp), %eax
	addl	$1, %eax
	movl	%eax, -16(%rbp)
	jmp	.LBB12_7
.LBB12_10:                              # %for.end
                                        #   in Loop: Header=BB12_3 Depth=1
	movl	-64(%rbp), %eax
	addl	-60(%rbp), %eax
	movq	img, %rcx
	movslq	-12(%rbp), %rdx
	movl	%eax, 13112(%rcx,%rdx,4)
	movl	-64(%rbp), %eax
	subl	-60(%rbp), %eax
	movq	img, %rcx
	movslq	-12(%rbp), %rdx
	movl	%eax, 13240(%rcx,%rdx,4)
	movl	-52(%rbp), %eax
	shll	$1, %eax
	addl	-56(%rbp), %eax
	movq	img, %rcx
	movslq	-12(%rbp), %rdx
	movl	%eax, 13176(%rcx,%rdx,4)
	movl	-52(%rbp), %eax
	movl	-56(%rbp), %ecx
	shll	$1, %ecx
	subl	%ecx, %eax
	movq	img, %rcx
	movslq	-12(%rbp), %rdx
	movl	%eax, 13304(%rcx,%rdx,4)
# %bb.11:                               # %for.inc93
                                        #   in Loop: Header=BB12_3 Depth=1
	movl	-12(%rbp), %eax
	addl	$1, %eax
	movl	%eax, -12(%rbp)
	jmp	.LBB12_3
.LBB12_12:                              # %for.end95
	movl	$0, -16(%rbp)
.LBB12_13:                              # %for.cond96
                                        # =>This Loop Header: Depth=1
                                        #     Child Loop BB12_17 Depth 2
	xorl	%eax, %eax
	cmpl	$4, -16(%rbp)
	jge	.LBB12_15
# %bb.14:                               # %land.rhs98
                                        #   in Loop: Header=BB12_13 Depth=1
	cmpl	$0, -40(%rbp)
	setne	%al
	xorb	$-1, %al
.LBB12_15:                              # %land.end101
                                        #   in Loop: Header=BB12_13 Depth=1
	testb	$1, %al
	jne	.LBB12_16
	jmp	.LBB12_22
.LBB12_16:                              # %for.body103
                                        #   in Loop: Header=BB12_13 Depth=1
	movl	$0, -12(%rbp)
.LBB12_17:                              # %for.cond104
                                        #   Parent Loop BB12_13 Depth=1
                                        # =>  This Inner Loop Header: Depth=2
	cmpl	$2, -12(%rbp)
	jge	.LBB12_20
# %bb.18:                               # %for.body106
                                        #   in Loop: Header=BB12_17 Depth=2
	movl	$3, %eax
	subl	-12(%rbp), %eax
	movl	%eax, -20(%rbp)
	movq	img, %rax
	addq	$13112, %rax            # imm = 0x3338
	movslq	-16(%rbp), %rcx
	shlq	$6, %rcx
	addq	%rcx, %rax
	movslq	-12(%rbp), %rcx
	movl	(%rax,%rcx,4), %eax
	movq	img, %rcx
	addq	$13112, %rcx            # imm = 0x3338
	movslq	-16(%rbp), %rdx
	shlq	$6, %rdx
	addq	%rdx, %rcx
	movslq	-20(%rbp), %rdx
	addl	(%rcx,%rdx,4), %eax
	movslq	-12(%rbp), %rcx
	movl	%eax, -64(%rbp,%rcx,4)
	movq	img, %rax
	addq	$13112, %rax            # imm = 0x3338
	movslq	-16(%rbp), %rcx
	shlq	$6, %rcx
	addq	%rcx, %rax
	movslq	-12(%rbp), %rcx
	movl	(%rax,%rcx,4), %eax
	movq	img, %rcx
	addq	$13112, %rcx            # imm = 0x3338
	movslq	-16(%rbp), %rdx
	shlq	$6, %rdx
	addq	%rdx, %rcx
	movslq	-20(%rbp), %rdx
	subl	(%rcx,%rdx,4), %eax
	movslq	-20(%rbp), %rcx
	movl	%eax, -64(%rbp,%rcx,4)
# %bb.19:                               # %for.inc134
                                        #   in Loop: Header=BB12_17 Depth=2
	movl	-12(%rbp), %eax
	addl	$1, %eax
	movl	%eax, -12(%rbp)
	jmp	.LBB12_17
.LBB12_20:                              # %for.end136
                                        #   in Loop: Header=BB12_13 Depth=1
	movl	-64(%rbp), %eax
	addl	-60(%rbp), %eax
	movq	img, %rcx
	addq	$13112, %rcx            # imm = 0x3338
	movslq	-16(%rbp), %rdx
	shlq	$6, %rdx
	addq	%rdx, %rcx
	movl	%eax, (%rcx)
	movl	-64(%rbp), %eax
	subl	-60(%rbp), %eax
	movq	img, %rcx
	addq	$13112, %rcx            # imm = 0x3338
	movslq	-16(%rbp), %rdx
	shlq	$6, %rdx
	addq	%rdx, %rcx
	movl	%eax, 8(%rcx)
	movl	-52(%rbp), %eax
	shll	$1, %eax
	addl	-56(%rbp), %eax
	movq	img, %rcx
	addq	$13112, %rcx            # imm = 0x3338
	movslq	-16(%rbp), %rdx
	shlq	$6, %rdx
	addq	%rdx, %rcx
	movl	%eax, 4(%rcx)
	movl	-52(%rbp), %eax
	movl	-56(%rbp), %ecx
	shll	$1, %ecx
	subl	%ecx, %eax
	movq	img, %rcx
	addq	$13112, %rcx            # imm = 0x3338
	movslq	-16(%rbp), %rdx
	shlq	$6, %rdx
	addq	%rdx, %rcx
	movl	%eax, 12(%rcx)
# %bb.21:                               # %for.inc167
                                        #   in Loop: Header=BB12_13 Depth=1
	movl	-16(%rbp), %eax
	addl	$1, %eax
	movl	%eax, -16(%rbp)
	jmp	.LBB12_13
.LBB12_22:                              # %for.end169
	movl	$0, -116(%rbp)
	movl	$-1, -104(%rbp)
	movl	$0, -100(%rbp)
	movl	$0, -88(%rbp)
.LBB12_23:                              # %for.cond170
                                        # =>This Inner Loop Header: Depth=1
	cmpl	$16, -88(%rbp)
	jge	.LBB12_57
# %bb.24:                               # %for.body172
                                        #   in Loop: Header=BB12_23 Depth=1
	movq	img, %rax
	cmpl	$0, 72444(%rax)
	jne	.LBB12_27
# %bb.25:                               # %lor.lhs.false
                                        #   in Loop: Header=BB12_23 Depth=1
	movq	img, %rax
	cmpl	$0, 72400(%rax)
	je	.LBB12_28
# %bb.26:                               # %land.lhs.true
                                        #   in Loop: Header=BB12_23 Depth=1
	movq	-144(%rbp), %rax
	cmpl	$0, 532(%rax)
	je	.LBB12_28
.LBB12_27:                              # %if.then
                                        #   in Loop: Header=BB12_23 Depth=1
	movslq	-88(%rbp), %rax
	movzbl	FIELD_SCAN(,%rax,2), %eax
	movl	%eax, -16(%rbp)
	movslq	-88(%rbp), %rax
	movzbl	FIELD_SCAN+1(,%rax,2), %eax
	movl	%eax, -12(%rbp)
	jmp	.LBB12_29
.LBB12_28:                              # %if.else
                                        #   in Loop: Header=BB12_23 Depth=1
	movslq	-88(%rbp), %rax
	movzbl	SNGL_SCAN(,%rax,2), %eax
	movl	%eax, -16(%rbp)
	movslq	-88(%rbp), %rax
	movzbl	SNGL_SCAN+1(,%rax,2), %eax
	movl	%eax, -12(%rbp)
.LBB12_29:                              # %if.end
                                        #   in Loop: Header=BB12_23 Depth=1
	movl	-104(%rbp), %eax
	addl	$1, %eax
	movl	%eax, -104(%rbp)
	movl	$0, -96(%rbp)
	cmpl	$0, -40(%rbp)
	je	.LBB12_31
# %bb.30:                               # %if.then193
                                        #   in Loop: Header=BB12_23 Depth=1
	movq	img, %rax
	addq	$13112, %rax            # imm = 0x3338
	movslq	-16(%rbp), %rcx
	shlq	$6, %rcx
	addq	%rcx, %rax
	movslq	-12(%rbp), %rcx
	movl	(%rax,%rcx,4), %edi
	callq	abs
	movl	%eax, -32(%rbp)
	jmp	.LBB12_35
.LBB12_31:                              # %if.else199
                                        #   in Loop: Header=BB12_23 Depth=1
	cmpl	$1, -108(%rbp)
	jne	.LBB12_33
# %bb.32:                               # %if.then202
                                        #   in Loop: Header=BB12_23 Depth=1
	movq	img, %rax
	addq	$13112, %rax            # imm = 0x3338
	movslq	-16(%rbp), %rcx
	shlq	$6, %rcx
	addq	%rcx, %rax
	movslq	-12(%rbp), %rcx
	movl	(%rax,%rcx,4), %edi
	callq	abs
	movslq	-92(%rbp), %rcx
	shlq	$6, %rcx
	movabsq	$LevelScale4x4Luma_Intra, %rdx
	addq	%rcx, %rdx
	movslq	-16(%rbp), %rcx
	shlq	$4, %rcx
	addq	%rcx, %rdx
	movslq	-12(%rbp), %rcx
	imull	(%rdx,%rcx,4), %eax
	movslq	-36(%rbp), %rcx
	shlq	$6, %rcx
	movabsq	$LevelOffset4x4Luma_Intra, %rdx
	addq	%rcx, %rdx
	movslq	-16(%rbp), %rcx
	shlq	$4, %rcx
	addq	%rcx, %rdx
	movslq	-12(%rbp), %rcx
	addl	(%rdx,%rcx,4), %eax
	movl	-132(%rbp), %ecx
                                        # kill: def $cl killed $ecx
	sarl	%cl, %eax
	movl	%eax, -32(%rbp)
	jmp	.LBB12_34
.LBB12_33:                              # %if.else223
                                        #   in Loop: Header=BB12_23 Depth=1
	movq	img, %rax
	addq	$13112, %rax            # imm = 0x3338
	movslq	-16(%rbp), %rcx
	shlq	$6, %rcx
	addq	%rcx, %rax
	movslq	-12(%rbp), %rcx
	movl	(%rax,%rcx,4), %edi
	callq	abs
	movslq	-92(%rbp), %rcx
	shlq	$6, %rcx
	movabsq	$LevelScale4x4Luma_Inter, %rdx
	addq	%rcx, %rdx
	movslq	-16(%rbp), %rcx
	shlq	$4, %rcx
	addq	%rcx, %rdx
	movslq	-12(%rbp), %rcx
	imull	(%rdx,%rcx,4), %eax
	movslq	-36(%rbp), %rcx
	shlq	$6, %rcx
	movabsq	$LevelOffset4x4Luma_Inter, %rdx
	addq	%rcx, %rdx
	movslq	-16(%rbp), %rcx
	shlq	$4, %rcx
	addq	%rcx, %rdx
	movslq	-12(%rbp), %rcx
	addl	(%rdx,%rcx,4), %eax
	movl	-132(%rbp), %ecx
                                        # kill: def $cl killed $ecx
	sarl	%cl, %eax
	movl	%eax, -32(%rbp)
.LBB12_34:                              # %if.end245
                                        #   in Loop: Header=BB12_23 Depth=1
	jmp	.LBB12_35
.LBB12_35:                              # %if.end246
                                        #   in Loop: Header=BB12_23 Depth=1
	cmpl	$0, -32(%rbp)
	je	.LBB12_53
# %bb.36:                               # %if.then249
                                        #   in Loop: Header=BB12_23 Depth=1
	movl	$1, -116(%rbp)
	cmpl	$1, -32(%rbp)
	jg	.LBB12_38
# %bb.37:                               # %lor.lhs.false252
                                        #   in Loop: Header=BB12_23 Depth=1
	cmpl	$0, -40(%rbp)
	je	.LBB12_39
.LBB12_38:                              # %if.then254
                                        #   in Loop: Header=BB12_23 Depth=1
	movq	-160(%rbp), %rax
	movl	(%rax), %ecx
	addl	$999999, %ecx           # imm = 0xF423F
	movl	%ecx, (%rax)
	jmp	.LBB12_40
.LBB12_39:                              # %if.else256
                                        #   in Loop: Header=BB12_23 Depth=1
	movabsq	$COEFF_COST, %rax
	movq	input, %rcx
	movslq	2468(%rcx), %rcx
	shlq	$4, %rcx
	addq	%rcx, %rax
	movslq	-104(%rbp), %rcx
	movzbl	(%rax,%rcx), %eax
	movq	-160(%rbp), %rcx
	addl	(%rcx), %eax
	movl	%eax, (%rcx)
.LBB12_40:                              # %if.end263
                                        #   in Loop: Header=BB12_23 Depth=1
	movl	-32(%rbp), %edi
	movq	img, %rax
	addq	$13112, %rax            # imm = 0x3338
	movslq	-16(%rbp), %rcx
	shlq	$6, %rcx
	addq	%rcx, %rax
	movslq	-12(%rbp), %rcx
	movl	(%rax,%rcx,4), %esi
	callq	sign
	movq	-168(%rbp), %rcx
	movslq	-100(%rbp), %rdx
	movl	%eax, (%rcx,%rdx,4)
	movl	-104(%rbp), %eax
	movq	-176(%rbp), %rcx
	movslq	-100(%rbp), %rdx
	movl	%eax, (%rcx,%rdx,4)
	movl	-100(%rbp), %eax
	addl	$1, %eax
	movl	%eax, -100(%rbp)
	movl	$-1, -104(%rbp)
	movl	-32(%rbp), %edi
	movq	img, %rax
	addq	$13112, %rax            # imm = 0x3338
	movslq	-16(%rbp), %rcx
	shlq	$6, %rcx
	addq	%rcx, %rax
	movslq	-12(%rbp), %rcx
	movl	(%rax,%rcx,4), %esi
	callq	sign
	movl	%eax, -32(%rbp)
	cmpl	$0, -40(%rbp)
	je	.LBB12_42
# %bb.41:                               # %if.then282
                                        #   in Loop: Header=BB12_23 Depth=1
	movl	-32(%rbp), %eax
	movl	%eax, -96(%rbp)
	jmp	.LBB12_52
.LBB12_42:                              # %if.else283
                                        #   in Loop: Header=BB12_23 Depth=1
	cmpl	$4, -36(%rbp)
	jge	.LBB12_47
# %bb.43:                               # %if.then286
                                        #   in Loop: Header=BB12_23 Depth=1
	cmpl	$1, -108(%rbp)
	jne	.LBB12_45
# %bb.44:                               # %if.then289
                                        #   in Loop: Header=BB12_23 Depth=1
	movl	-32(%rbp), %eax
	movslq	-92(%rbp), %rcx
	shlq	$6, %rcx
	movabsq	$InvLevelScale4x4Luma_Intra, %rdx
	addq	%rcx, %rdx
	movslq	-16(%rbp), %rcx
	shlq	$4, %rcx
	addq	%rcx, %rdx
	movslq	-12(%rbp), %rcx
	imull	(%rdx,%rcx,4), %eax
	movl	$3, %ecx
	subl	-36(%rbp), %ecx
                                        # kill: def $cl killed $ecx
	movl	$1, %edx
	shll	%cl, %edx
	addl	%edx, %eax
	movl	$4, %ecx
	subl	-36(%rbp), %ecx
                                        # kill: def $cl killed $ecx
	sarl	%cl, %eax
	movl	%eax, -96(%rbp)
	jmp	.LBB12_46
.LBB12_45:                              # %if.else301
                                        #   in Loop: Header=BB12_23 Depth=1
	movl	-32(%rbp), %eax
	movslq	-92(%rbp), %rcx
	shlq	$6, %rcx
	movabsq	$InvLevelScale4x4Luma_Inter, %rdx
	addq	%rcx, %rdx
	movslq	-16(%rbp), %rcx
	shlq	$4, %rcx
	addq	%rcx, %rdx
	movslq	-12(%rbp), %rcx
	imull	(%rdx,%rcx,4), %eax
	movl	$3, %ecx
	subl	-36(%rbp), %ecx
                                        # kill: def $cl killed $ecx
	movl	$1, %edx
	shll	%cl, %edx
	addl	%edx, %eax
	movl	$4, %ecx
	subl	-36(%rbp), %ecx
                                        # kill: def $cl killed $ecx
	sarl	%cl, %eax
	movl	%eax, -96(%rbp)
.LBB12_46:                              # %if.end314
                                        #   in Loop: Header=BB12_23 Depth=1
	jmp	.LBB12_51
.LBB12_47:                              # %if.else315
                                        #   in Loop: Header=BB12_23 Depth=1
	cmpl	$1, -108(%rbp)
	jne	.LBB12_49
# %bb.48:                               # %if.then318
                                        #   in Loop: Header=BB12_23 Depth=1
	movl	-32(%rbp), %eax
	movslq	-92(%rbp), %rcx
	shlq	$6, %rcx
	movabsq	$InvLevelScale4x4Luma_Intra, %rdx
	addq	%rcx, %rdx
	movslq	-16(%rbp), %rcx
	shlq	$4, %rcx
	addq	%rcx, %rdx
	movslq	-12(%rbp), %rcx
	imull	(%rdx,%rcx,4), %eax
	movl	-36(%rbp), %ecx
	subl	$4, %ecx
                                        # kill: def $cl killed $ecx
	shll	%cl, %eax
	movl	%eax, -96(%rbp)
	jmp	.LBB12_50
.LBB12_49:                              # %if.else328
                                        #   in Loop: Header=BB12_23 Depth=1
	movl	-32(%rbp), %eax
	movslq	-92(%rbp), %rcx
	shlq	$6, %rcx
	movabsq	$InvLevelScale4x4Luma_Inter, %rdx
	addq	%rcx, %rdx
	movslq	-16(%rbp), %rcx
	shlq	$4, %rcx
	addq	%rcx, %rdx
	movslq	-12(%rbp), %rcx
	imull	(%rdx,%rcx,4), %eax
	movl	-36(%rbp), %ecx
	subl	$4, %ecx
                                        # kill: def $cl killed $ecx
	shll	%cl, %eax
	movl	%eax, -96(%rbp)
.LBB12_50:                              # %if.end338
                                        #   in Loop: Header=BB12_23 Depth=1
	jmp	.LBB12_51
.LBB12_51:                              # %if.end339
                                        #   in Loop: Header=BB12_23 Depth=1
	jmp	.LBB12_52
.LBB12_52:                              # %if.end340
                                        #   in Loop: Header=BB12_23 Depth=1
	jmp	.LBB12_53
.LBB12_53:                              # %if.end341
                                        #   in Loop: Header=BB12_23 Depth=1
	cmpl	$0, -40(%rbp)
	jne	.LBB12_55
# %bb.54:                               # %if.then343
                                        #   in Loop: Header=BB12_23 Depth=1
	movl	-96(%rbp), %eax
	movq	img, %rcx
	addq	$13112, %rcx            # imm = 0x3338
	movslq	-16(%rbp), %rdx
	shlq	$6, %rdx
	addq	%rdx, %rcx
	movslq	-12(%rbp), %rdx
	movl	%eax, (%rcx,%rdx,4)
.LBB12_55:                              # %if.end349
                                        #   in Loop: Header=BB12_23 Depth=1
	jmp	.LBB12_56
.LBB12_56:                              # %for.inc350
                                        #   in Loop: Header=BB12_23 Depth=1
	movl	-88(%rbp), %eax
	addl	$1, %eax
	movl	%eax, -88(%rbp)
	jmp	.LBB12_23
.LBB12_57:                              # %for.end352
	movq	-168(%rbp), %rax
	movslq	-100(%rbp), %rcx
	movl	$0, (%rax,%rcx,4)
	movl	$0, -12(%rbp)
.LBB12_58:                              # %for.cond355
                                        # =>This Loop Header: Depth=1
                                        #     Child Loop BB12_62 Depth 2
                                        #     Child Loop BB12_66 Depth 2
	xorl	%eax, %eax
	cmpl	$4, -12(%rbp)
	jge	.LBB12_60
# %bb.59:                               # %land.rhs358
                                        #   in Loop: Header=BB12_58 Depth=1
	cmpl	$0, -40(%rbp)
	setne	%al
	xorb	$-1, %al
.LBB12_60:                              # %land.end361
                                        #   in Loop: Header=BB12_58 Depth=1
	testb	$1, %al
	jne	.LBB12_61
	jmp	.LBB12_71
.LBB12_61:                              # %for.body363
                                        #   in Loop: Header=BB12_58 Depth=1
	movl	$0, -16(%rbp)
.LBB12_62:                              # %for.cond364
                                        #   Parent Loop BB12_58 Depth=1
                                        # =>  This Inner Loop Header: Depth=2
	cmpl	$4, -16(%rbp)
	jge	.LBB12_65
# %bb.63:                               # %for.body367
                                        #   in Loop: Header=BB12_62 Depth=2
	movq	img, %rax
	addq	$13112, %rax            # imm = 0x3338
	movslq	-16(%rbp), %rcx
	shlq	$6, %rcx
	addq	%rcx, %rax
	movslq	-12(%rbp), %rcx
	movl	(%rax,%rcx,4), %eax
	movslq	-16(%rbp), %rcx
	movl	%eax, -64(%rbp,%rcx,4)
# %bb.64:                               # %for.inc375
                                        #   in Loop: Header=BB12_62 Depth=2
	movl	-16(%rbp), %eax
	addl	$1, %eax
	movl	%eax, -16(%rbp)
	jmp	.LBB12_62
.LBB12_65:                              # %for.end377
                                        #   in Loop: Header=BB12_58 Depth=1
	movl	-64(%rbp), %eax
	addl	-56(%rbp), %eax
	movl	%eax, -80(%rbp)
	movl	-64(%rbp), %eax
	subl	-56(%rbp), %eax
	movl	%eax, -76(%rbp)
	movl	-60(%rbp), %eax
	sarl	$1, %eax
	subl	-52(%rbp), %eax
	movl	%eax, -72(%rbp)
	movl	-60(%rbp), %eax
	movl	-52(%rbp), %ecx
	sarl	$1, %ecx
	addl	%ecx, %eax
	movl	%eax, -68(%rbp)
	movl	$0, -16(%rbp)
.LBB12_66:                              # %for.cond396
                                        #   Parent Loop BB12_58 Depth=1
                                        # =>  This Inner Loop Header: Depth=2
	cmpl	$2, -16(%rbp)
	jge	.LBB12_69
# %bb.67:                               # %for.body399
                                        #   in Loop: Header=BB12_66 Depth=2
	movl	$3, %eax
	subl	-16(%rbp), %eax
	movl	%eax, -84(%rbp)
	movslq	-16(%rbp), %rax
	movl	-80(%rbp,%rax,4), %eax
	movslq	-84(%rbp), %rcx
	addl	-80(%rbp,%rcx,4), %eax
	movq	img, %rcx
	addq	$13112, %rcx            # imm = 0x3338
	movslq	-16(%rbp), %rdx
	shlq	$6, %rdx
	addq	%rdx, %rcx
	movslq	-12(%rbp), %rdx
	movl	%eax, (%rcx,%rdx,4)
	movslq	-16(%rbp), %rax
	movl	-80(%rbp,%rax,4), %eax
	movslq	-84(%rbp), %rcx
	subl	-80(%rbp,%rcx,4), %eax
	movq	img, %rcx
	addq	$13112, %rcx            # imm = 0x3338
	movslq	-84(%rbp), %rdx
	shlq	$6, %rdx
	addq	%rdx, %rcx
	movslq	-12(%rbp), %rdx
	movl	%eax, (%rcx,%rdx,4)
# %bb.68:                               # %for.inc421
                                        #   in Loop: Header=BB12_66 Depth=2
	movl	-16(%rbp), %eax
	addl	$1, %eax
	movl	%eax, -16(%rbp)
	jmp	.LBB12_66
.LBB12_69:                              # %for.end423
                                        #   in Loop: Header=BB12_58 Depth=1
	jmp	.LBB12_70
.LBB12_70:                              # %for.inc424
                                        #   in Loop: Header=BB12_58 Depth=1
	movl	-12(%rbp), %eax
	addl	$1, %eax
	movl	%eax, -12(%rbp)
	jmp	.LBB12_58
.LBB12_71:                              # %for.end426
	movl	$0, -16(%rbp)
.LBB12_72:                              # %for.cond427
                                        # =>This Loop Header: Depth=1
                                        #     Child Loop BB12_76 Depth 2
                                        #     Child Loop BB12_80 Depth 2
	xorl	%eax, %eax
	cmpl	$4, -16(%rbp)
	jge	.LBB12_74
# %bb.73:                               # %land.rhs430
                                        #   in Loop: Header=BB12_72 Depth=1
	cmpl	$0, -40(%rbp)
	setne	%al
	xorb	$-1, %al
.LBB12_74:                              # %land.end433
                                        #   in Loop: Header=BB12_72 Depth=1
	testb	$1, %al
	jne	.LBB12_75
	jmp	.LBB12_109
.LBB12_75:                              # %for.body435
                                        #   in Loop: Header=BB12_72 Depth=1
	movl	$0, -12(%rbp)
.LBB12_76:                              # %for.cond436
                                        #   Parent Loop BB12_72 Depth=1
                                        # =>  This Inner Loop Header: Depth=2
	cmpl	$4, -12(%rbp)
	jge	.LBB12_79
# %bb.77:                               # %for.body439
                                        #   in Loop: Header=BB12_76 Depth=2
	movq	img, %rax
	addq	$13112, %rax            # imm = 0x3338
	movslq	-16(%rbp), %rcx
	shlq	$6, %rcx
	addq	%rcx, %rax
	movslq	-12(%rbp), %rcx
	movl	(%rax,%rcx,4), %eax
	movslq	-12(%rbp), %rcx
	movl	%eax, -64(%rbp,%rcx,4)
# %bb.78:                               # %for.inc447
                                        #   in Loop: Header=BB12_76 Depth=2
	movl	-12(%rbp), %eax
	addl	$1, %eax
	movl	%eax, -12(%rbp)
	jmp	.LBB12_76
.LBB12_79:                              # %for.end449
                                        #   in Loop: Header=BB12_72 Depth=1
	movl	-64(%rbp), %eax
	addl	-56(%rbp), %eax
	movl	%eax, -80(%rbp)
	movl	-64(%rbp), %eax
	subl	-56(%rbp), %eax
	movl	%eax, -76(%rbp)
	movl	-60(%rbp), %eax
	sarl	$1, %eax
	subl	-52(%rbp), %eax
	movl	%eax, -72(%rbp)
	movl	-60(%rbp), %eax
	movl	-52(%rbp), %ecx
	sarl	$1, %ecx
	addl	%ecx, %eax
	movl	%eax, -68(%rbp)
	movl	$0, -12(%rbp)
.LBB12_80:                              # %for.cond468
                                        #   Parent Loop BB12_72 Depth=1
                                        # =>  This Inner Loop Header: Depth=2
	cmpl	$2, -12(%rbp)
	jge	.LBB12_107
# %bb.81:                               # %for.body471
                                        #   in Loop: Header=BB12_80 Depth=2
	movl	$3, %eax
	subl	-12(%rbp), %eax
	movl	%eax, -20(%rbp)
	movq	img, %rax
	cmpl	$0, 72724(%rax)
	jne	.LBB12_101
# %bb.82:                               # %if.then474
                                        #   in Loop: Header=BB12_80 Depth=2
	xorl	%ecx, %ecx
	movq	img, %rax
	movslq	72684(%rax), %rax
	movslq	-12(%rbp), %rdx
	movl	-80(%rbp,%rdx,4), %edx
	movslq	-20(%rbp), %rsi
	addl	-80(%rbp,%rsi,4), %edx
	movslq	%edx, %rdx
	movq	img, %rsi
	addq	$12600, %rsi            # imm = 0x3138
	movl	-16(%rbp), %edi
	addl	-28(%rbp), %edi
	movslq	%edi, %rdi
	shlq	$5, %rdi
	addq	%rdi, %rsi
	movl	-12(%rbp), %edi
	addl	-24(%rbp), %edi
	movslq	%edi, %rdi
	movzwl	(%rsi,%rdi,2), %esi
	shlq	$6, %rsi
	addq	%rsi, %rdx
	addq	$32, %rdx
	sarq	$6, %rdx
	cmpq	%rdx, %rcx
	jle	.LBB12_84
# %bb.83:                               # %cond.true
                                        #   in Loop: Header=BB12_80 Depth=2
	xorl	%ecx, %ecx
	jmp	.LBB12_85
.LBB12_84:                              # %cond.false
                                        #   in Loop: Header=BB12_80 Depth=2
	movslq	-12(%rbp), %rcx
	movl	-80(%rbp,%rcx,4), %ecx
	movslq	-20(%rbp), %rdx
	addl	-80(%rbp,%rdx,4), %ecx
	movslq	%ecx, %rcx
	movq	img, %rdx
	addq	$12600, %rdx            # imm = 0x3138
	movl	-16(%rbp), %esi
	addl	-28(%rbp), %esi
	movslq	%esi, %rsi
	shlq	$5, %rsi
	addq	%rsi, %rdx
	movl	-12(%rbp), %esi
	addl	-24(%rbp), %esi
	movslq	%esi, %rsi
	movzwl	(%rdx,%rsi,2), %edx
	shlq	$6, %rdx
	addq	%rdx, %rcx
	addq	$32, %rcx
	sarq	$6, %rcx
.LBB12_85:                              # %cond.end
                                        #   in Loop: Header=BB12_80 Depth=2
	cmpq	%rcx, %rax
	jge	.LBB12_87
# %bb.86:                               # %cond.true515
                                        #   in Loop: Header=BB12_80 Depth=2
	movq	img, %rax
	movslq	72684(%rax), %rax
	jmp	.LBB12_91
.LBB12_87:                              # %cond.false518
                                        #   in Loop: Header=BB12_80 Depth=2
	xorl	%eax, %eax
	movslq	-12(%rbp), %rcx
	movl	-80(%rbp,%rcx,4), %ecx
	movslq	-20(%rbp), %rdx
	addl	-80(%rbp,%rdx,4), %ecx
	movslq	%ecx, %rcx
	movq	img, %rdx
	addq	$12600, %rdx            # imm = 0x3138
	movl	-16(%rbp), %esi
	addl	-28(%rbp), %esi
	movslq	%esi, %rsi
	shlq	$5, %rsi
	addq	%rsi, %rdx
	movl	-12(%rbp), %esi
	addl	-24(%rbp), %esi
	movslq	%esi, %rsi
	movzwl	(%rdx,%rsi,2), %edx
	shlq	$6, %rdx
	addq	%rdx, %rcx
	addq	$32, %rcx
	sarq	$6, %rcx
	cmpq	%rcx, %rax
	jle	.LBB12_89
# %bb.88:                               # %cond.true539
                                        #   in Loop: Header=BB12_80 Depth=2
	xorl	%eax, %eax
	jmp	.LBB12_90
.LBB12_89:                              # %cond.false540
                                        #   in Loop: Header=BB12_80 Depth=2
	movslq	-12(%rbp), %rax
	movl	-80(%rbp,%rax,4), %eax
	movslq	-20(%rbp), %rcx
	addl	-80(%rbp,%rcx,4), %eax
	cltq
	movq	img, %rcx
	addq	$12600, %rcx            # imm = 0x3138
	movl	-16(%rbp), %edx
	addl	-28(%rbp), %edx
	movslq	%edx, %rdx
	shlq	$5, %rdx
	addq	%rdx, %rcx
	movl	-12(%rbp), %edx
	addl	-24(%rbp), %edx
	movslq	%edx, %rdx
	movzwl	(%rcx,%rdx,2), %ecx
	shlq	$6, %rcx
	addq	%rcx, %rax
	addq	$32, %rax
	sarq	$6, %rax
.LBB12_90:                              # %cond.end559
                                        #   in Loop: Header=BB12_80 Depth=2
.LBB12_91:                              # %cond.end561
                                        #   in Loop: Header=BB12_80 Depth=2
	xorl	%ecx, %ecx
	movq	img, %rdx
	addq	$13112, %rdx            # imm = 0x3338
	movslq	-16(%rbp), %rsi
	shlq	$6, %rsi
	addq	%rsi, %rdx
	movslq	-12(%rbp), %rsi
	movl	%eax, (%rdx,%rsi,4)
	movq	img, %rax
	movslq	72684(%rax), %rax
	movslq	-12(%rbp), %rdx
	movl	-80(%rbp,%rdx,4), %edx
	movslq	-20(%rbp), %rsi
	subl	-80(%rbp,%rsi,4), %edx
	movslq	%edx, %rdx
	movq	img, %rsi
	addq	$12600, %rsi            # imm = 0x3138
	movl	-16(%rbp), %edi
	addl	-28(%rbp), %edi
	movslq	%edi, %rdi
	shlq	$5, %rdi
	addq	%rdi, %rsi
	movl	-20(%rbp), %edi
	addl	-24(%rbp), %edi
	movslq	%edi, %rdi
	movzwl	(%rsi,%rdi,2), %esi
	shlq	$6, %rsi
	addq	%rsi, %rdx
	addq	$32, %rdx
	sarq	$6, %rdx
	cmpq	%rdx, %rcx
	jle	.LBB12_93
# %bb.92:                               # %cond.true591
                                        #   in Loop: Header=BB12_80 Depth=2
	xorl	%ecx, %ecx
	jmp	.LBB12_94
.LBB12_93:                              # %cond.false592
                                        #   in Loop: Header=BB12_80 Depth=2
	movslq	-12(%rbp), %rcx
	movl	-80(%rbp,%rcx,4), %ecx
	movslq	-20(%rbp), %rdx
	subl	-80(%rbp,%rdx,4), %ecx
	movslq	%ecx, %rcx
	movq	img, %rdx
	addq	$12600, %rdx            # imm = 0x3138
	movl	-16(%rbp), %esi
	addl	-28(%rbp), %esi
	movslq	%esi, %rsi
	shlq	$5, %rsi
	addq	%rsi, %rdx
	movl	-20(%rbp), %esi
	addl	-24(%rbp), %esi
	movslq	%esi, %rsi
	movzwl	(%rdx,%rsi,2), %edx
	shlq	$6, %rdx
	addq	%rdx, %rcx
	addq	$32, %rcx
	sarq	$6, %rcx
.LBB12_94:                              # %cond.end611
                                        #   in Loop: Header=BB12_80 Depth=2
	cmpq	%rcx, %rax
	jge	.LBB12_96
# %bb.95:                               # %cond.true615
                                        #   in Loop: Header=BB12_80 Depth=2
	movq	img, %rax
	movslq	72684(%rax), %rax
	jmp	.LBB12_100
.LBB12_96:                              # %cond.false618
                                        #   in Loop: Header=BB12_80 Depth=2
	xorl	%eax, %eax
	movslq	-12(%rbp), %rcx
	movl	-80(%rbp,%rcx,4), %ecx
	movslq	-20(%rbp), %rdx
	subl	-80(%rbp,%rdx,4), %ecx
	movslq	%ecx, %rcx
	movq	img, %rdx
	addq	$12600, %rdx            # imm = 0x3138
	movl	-16(%rbp), %esi
	addl	-28(%rbp), %esi
	movslq	%esi, %rsi
	shlq	$5, %rsi
	addq	%rsi, %rdx
	movl	-20(%rbp), %esi
	addl	-24(%rbp), %esi
	movslq	%esi, %rsi
	movzwl	(%rdx,%rsi,2), %edx
	shlq	$6, %rdx
	addq	%rdx, %rcx
	addq	$32, %rcx
	sarq	$6, %rcx
	cmpq	%rcx, %rax
	jle	.LBB12_98
# %bb.97:                               # %cond.true639
                                        #   in Loop: Header=BB12_80 Depth=2
	xorl	%eax, %eax
	jmp	.LBB12_99
.LBB12_98:                              # %cond.false640
                                        #   in Loop: Header=BB12_80 Depth=2
	movslq	-12(%rbp), %rax
	movl	-80(%rbp,%rax,4), %eax
	movslq	-20(%rbp), %rcx
	subl	-80(%rbp,%rcx,4), %eax
	cltq
	movq	img, %rcx
	addq	$12600, %rcx            # imm = 0x3138
	movl	-16(%rbp), %edx
	addl	-28(%rbp), %edx
	movslq	%edx, %rdx
	shlq	$5, %rdx
	addq	%rdx, %rcx
	movl	-20(%rbp), %edx
	addl	-24(%rbp), %edx
	movslq	%edx, %rdx
	movzwl	(%rcx,%rdx,2), %ecx
	shlq	$6, %rcx
	addq	%rcx, %rax
	addq	$32, %rax
	sarq	$6, %rax
.LBB12_99:                              # %cond.end659
                                        #   in Loop: Header=BB12_80 Depth=2
.LBB12_100:                             # %cond.end661
                                        #   in Loop: Header=BB12_80 Depth=2
	movq	img, %rcx
	addq	$13112, %rcx            # imm = 0x3338
	movslq	-16(%rbp), %rdx
	shlq	$6, %rdx
	addq	%rdx, %rcx
	movslq	-20(%rbp), %rdx
	movl	%eax, (%rcx,%rdx,4)
	jmp	.LBB12_105
.LBB12_101:                             # %if.else669
                                        #   in Loop: Header=BB12_80 Depth=2
	cmpl	$0, -40(%rbp)
	je	.LBB12_103
# %bb.102:                              # %if.then671
                                        #   in Loop: Header=BB12_80 Depth=2
	movslq	-12(%rbp), %rax
	movl	-80(%rbp,%rax,4), %eax
	movslq	-20(%rbp), %rcx
	addl	-80(%rbp,%rcx,4), %eax
	movq	img, %rcx
	addq	$13112, %rcx            # imm = 0x3338
	movslq	-16(%rbp), %rdx
	shlq	$6, %rdx
	addq	%rdx, %rcx
	movslq	-12(%rbp), %rdx
	movl	%eax, (%rcx,%rdx,4)
	movslq	-12(%rbp), %rax
	movl	-80(%rbp,%rax,4), %eax
	movslq	-20(%rbp), %rcx
	subl	-80(%rbp,%rcx,4), %eax
	movq	img, %rcx
	addq	$13112, %rcx            # imm = 0x3338
	movslq	-16(%rbp), %rdx
	shlq	$6, %rdx
	addq	%rdx, %rcx
	movslq	-20(%rbp), %rdx
	movl	%eax, (%rcx,%rdx,4)
	jmp	.LBB12_104
.LBB12_103:                             # %if.else692
                                        #   in Loop: Header=BB12_80 Depth=2
	movslq	-12(%rbp), %rax
	movl	-80(%rbp,%rax,4), %eax
	movslq	-20(%rbp), %rcx
	addl	-80(%rbp,%rcx,4), %eax
	addl	$32, %eax
	sarl	$6, %eax
	movq	img, %rcx
	addq	$13112, %rcx            # imm = 0x3338
	movslq	-16(%rbp), %rdx
	shlq	$6, %rdx
	addq	%rdx, %rcx
	movslq	-12(%rbp), %rdx
	movl	%eax, (%rcx,%rdx,4)
	movslq	-12(%rbp), %rax
	movl	-80(%rbp,%rax,4), %eax
	movslq	-20(%rbp), %rcx
	subl	-80(%rbp,%rcx,4), %eax
	addl	$32, %eax
	sarl	$6, %eax
	movq	img, %rcx
	addq	$13112, %rcx            # imm = 0x3338
	movslq	-16(%rbp), %rdx
	shlq	$6, %rdx
	addq	%rdx, %rcx
	movslq	-20(%rbp), %rdx
	movl	%eax, (%rcx,%rdx,4)
.LBB12_104:                             # %if.end717
                                        #   in Loop: Header=BB12_80 Depth=2
	jmp	.LBB12_105
.LBB12_105:                             # %if.end718
                                        #   in Loop: Header=BB12_80 Depth=2
	jmp	.LBB12_106
.LBB12_106:                             # %for.inc719
                                        #   in Loop: Header=BB12_80 Depth=2
	movl	-12(%rbp), %eax
	addl	$1, %eax
	movl	%eax, -12(%rbp)
	jmp	.LBB12_80
.LBB12_107:                             # %for.end721
                                        #   in Loop: Header=BB12_72 Depth=1
	jmp	.LBB12_108
.LBB12_108:                             # %for.inc722
                                        #   in Loop: Header=BB12_72 Depth=1
	movl	-16(%rbp), %eax
	addl	$1, %eax
	movl	%eax, -16(%rbp)
	jmp	.LBB12_72
.LBB12_109:                             # %for.end724
	movq	img, %rax
	cmpl	$0, 72724(%rax)
	jne	.LBB12_122
# %bb.110:                              # %if.then727
	movl	$0, -12(%rbp)
.LBB12_111:                             # %for.cond728
                                        # =>This Loop Header: Depth=1
                                        #     Child Loop BB12_113 Depth 2
	cmpl	$4, -12(%rbp)
	jge	.LBB12_121
# %bb.112:                              # %for.body731
                                        #   in Loop: Header=BB12_111 Depth=1
	movl	$0, -16(%rbp)
.LBB12_113:                             # %for.cond732
                                        #   Parent Loop BB12_111 Depth=1
                                        # =>  This Inner Loop Header: Depth=2
	cmpl	$4, -16(%rbp)
	jge	.LBB12_119
# %bb.114:                              # %for.body735
                                        #   in Loop: Header=BB12_113 Depth=2
	cmpl	$0, -40(%rbp)
	je	.LBB12_116
# %bb.115:                              # %if.then737
                                        #   in Loop: Header=BB12_113 Depth=2
	movq	img, %rax
	addq	$13112, %rax            # imm = 0x3338
	movslq	-16(%rbp), %rcx
	shlq	$6, %rcx
	addq	%rcx, %rax
	movslq	-12(%rbp), %rcx
	movl	(%rax,%rcx,4), %eax
	movq	img, %rcx
	addq	$12600, %rcx            # imm = 0x3138
	movl	-16(%rbp), %edx
	addl	-28(%rbp), %edx
	movslq	%edx, %rdx
	shlq	$5, %rdx
	addq	%rdx, %rcx
	movl	-12(%rbp), %edx
	addl	-24(%rbp), %edx
	movslq	%edx, %rdx
	movzwl	(%rcx,%rdx,2), %ecx
	addl	%ecx, %eax
	movq	enc_picture, %rcx
	movq	6424(%rcx), %rcx
	movq	img, %rdx
	movl	156(%rdx), %edx
	addl	-24(%rbp), %edx
	addl	-12(%rbp), %edx
	movslq	%edx, %rdx
	movq	(%rcx,%rdx,8), %rcx
	movq	img, %rdx
	movl	152(%rdx), %edx
	addl	-28(%rbp), %edx
	addl	-16(%rbp), %edx
	movslq	%edx, %rdx
	movw	%ax, (%rcx,%rdx,2)
	jmp	.LBB12_117
.LBB12_116:                             # %if.else761
                                        #   in Loop: Header=BB12_113 Depth=2
	movq	img, %rax
	addq	$13112, %rax            # imm = 0x3338
	movslq	-16(%rbp), %rcx
	shlq	$6, %rcx
	addq	%rcx, %rax
	movslq	-12(%rbp), %rcx
	movl	(%rax,%rcx,4), %eax
	movq	enc_picture, %rcx
	movq	6424(%rcx), %rcx
	movq	img, %rdx
	movl	156(%rdx), %edx
	addl	-24(%rbp), %edx
	addl	-12(%rbp), %edx
	movslq	%edx, %rdx
	movq	(%rcx,%rdx,8), %rcx
	movq	img, %rdx
	movl	152(%rdx), %edx
	addl	-28(%rbp), %edx
	addl	-16(%rbp), %edx
	movslq	%edx, %rdx
	movw	%ax, (%rcx,%rdx,2)
.LBB12_117:                             # %if.end779
                                        #   in Loop: Header=BB12_113 Depth=2
	jmp	.LBB12_118
.LBB12_118:                             # %for.inc780
                                        #   in Loop: Header=BB12_113 Depth=2
	movl	-16(%rbp), %eax
	addl	$1, %eax
	movl	%eax, -16(%rbp)
	jmp	.LBB12_113
.LBB12_119:                             # %for.end782
                                        #   in Loop: Header=BB12_111 Depth=1
	jmp	.LBB12_120
.LBB12_120:                             # %for.inc783
                                        #   in Loop: Header=BB12_111 Depth=1
	movl	-12(%rbp), %eax
	addl	$1, %eax
	movl	%eax, -12(%rbp)
	jmp	.LBB12_111
.LBB12_121:                             # %for.end785
	jmp	.LBB12_122
.LBB12_122:                             # %if.end786
	movl	-116(%rbp), %ebx
	cmpl	$947667861, -148(%rbp)  # imm = 0x387C4395
	jne	.LBB12_124
.LBB12_123:
	movl	%ebx, %eax
	addq	$168, %rsp
	popq	%rbx
	popq	%rbp
	.cfi_def_cfa %rsp, 8
	retq
.LBB12_124:                             # %func_exit
	.cfi_def_cfa %rbp, 16
	callq	detect_breach
	jmp	.LBB12_123
.Lfunc_end12:
	.size	dct_luma.3, .Lfunc_end12-dct_luma.3
	.cfi_endproc
                                        # -- End function
	.section	.rodata.cst8,"aM",@progbits,8
	.p2align	3               # -- Begin function dct_luma_sp.4
.LCPI13_0:
	.quad	4616189618054758400     # double 4
.LCPI13_1:
	.quad	4605831338911806259     # double 0.84999999999999998
.LCPI13_2:
	.quad	4611686018427387904     # double 2
.LCPI13_3:
	.quad	4613937818241073152     # double 3
	.text
	.globl	dct_luma_sp.4
	.p2align	4, 0x90
	.type	dct_luma_sp.4,@function
dct_luma_sp.4:                          # @dct_luma_sp.4
	.cfi_startproc
# %bb.0:                                # %entry
	pushq	%rbp
	.cfi_def_cfa_offset 16
	.cfi_offset %rbp, -16
	movq	%rsp, %rbp
	.cfi_def_cfa_register %rbp
	pushq	%rbx
	subq	$312, %rsp              # imm = 0x138
	.cfi_offset %rbx, -24
	vmovsd	.LCPI13_2(%rip), %xmm0  # xmm0 = mem[0],zero
	vmovsd	.LCPI13_3(%rip), %xmm1  # xmm1 = mem[0],zero
	movl	$57285010, -212(%rbp)   # imm = 0x36A1992
	movl	%edi, -140(%rbp)
	movl	%esi, -116(%rbp)
	movq	%rdx, -240(%rbp)
	movl	-140(%rbp), %eax
	cltd
	movl	$4, %ecx
	idivl	%ecx
	movl	%eax, -196(%rbp)
	movl	-116(%rbp), %eax
	cltd
	idivl	%ecx
	movl	%eax, -200(%rbp)
	movl	-200(%rbp), %eax
	cltd
	movl	$2, %esi
	idivl	%esi
	movl	%eax, %ecx
	shll	$1, %ecx
	movl	-196(%rbp), %eax
	cltd
	idivl	%esi
	addl	%eax, %ecx
	movl	%ecx, -204(%rbp)
	movl	-200(%rbp), %eax
	cltd
	idivl	%esi
	movl	%edx, %ecx
	shll	$1, %ecx
	movl	-196(%rbp), %eax
	cltd
	idivl	%esi
	addl	%edx, %ecx
	movl	%ecx, -184(%rbp)
	movq	img, %rax
	movq	14136(%rax), %rax
	movslq	-204(%rbp), %rcx
	movq	(%rax,%rcx,8), %rax
	movslq	-184(%rbp), %rcx
	movq	(%rax,%rcx,8), %rax
	movq	(%rax), %rax
	movq	%rax, -224(%rbp)
	movq	img, %rax
	movq	14136(%rax), %rax
	movslq	-204(%rbp), %rcx
	movq	(%rax,%rcx,8), %rax
	movslq	-184(%rbp), %rcx
	movq	(%rax,%rcx,8), %rax
	movq	8(%rax), %rax
	movq	%rax, -248(%rbp)
	movq	img, %rax
	movq	14168(%rax), %rax
	movq	img, %rcx
	movslq	12(%rcx), %rcx
	imulq	$632, %rcx, %rcx        # imm = 0x278
	addq	%rcx, %rax
	movq	%rax, -168(%rbp)
	movq	-168(%rbp), %rax
	movl	12(%rax), %eax
	subl	$12, %eax
	vcvtsi2sd	%eax, %xmm0, %xmm2
	vdivsd	%xmm1, %xmm2, %xmm1
	callq	pow
	vmovsd	.LCPI13_0(%rip), %xmm1  # xmm1 = mem[0],zero
	vmovsd	.LCPI13_1(%rip), %xmm2  # xmm2 = mem[0],zero
	vmulsd	%xmm0, %xmm2, %xmm0
	vmulsd	%xmm1, %xmm0, %xmm0
	vmovsd	%xmm0, -232(%rbp)
	movq	-168(%rbp), %rax
	movl	12(%rax), %eax
	subl	$0, %eax
	cltd
	movl	$6, %edi
	idivl	%edi
	movl	%eax, -128(%rbp)
	movq	-168(%rbp), %rax
	movl	12(%rax), %eax
	subl	$0, %eax
	cltd
	idivl	%edi
	movl	%edx, -112(%rbp)
	movl	-128(%rbp), %eax
	addl	$15, %eax
	movl	%eax, -144(%rbp)
	movq	-168(%rbp), %rax
	movl	16(%rax), %eax
	subl	$0, %eax
	cltd
	idivl	%edi
	movl	%eax, -192(%rbp)
	movq	-168(%rbp), %rax
	movl	16(%rax), %eax
	subl	$0, %eax
	cltd
	idivl	%edi
	movl	%edx, -124(%rbp)
	movl	-192(%rbp), %eax
	addl	$15, %eax
	movl	%eax, -132(%rbp)
	movl	-144(%rbp), %ecx
                                        # kill: def $cl killed $ecx
	movl	$1, %esi
	movl	$1, %eax
	shll	%cl, %eax
	cltd
	idivl	%edi
	movl	%eax, -208(%rbp)
	movl	-132(%rbp), %ecx
                                        # kill: def $cl killed $ecx
	shll	%cl, %esi
	movl	%esi, %eax
	cltd
	movl	$2, %ecx
	idivl	%ecx
	movl	%eax, -180(%rbp)
	movl	$0, -12(%rbp)
.LBB13_1:                               # %for.cond
                                        # =>This Loop Header: Depth=1
                                        #     Child Loop BB13_3 Depth 2
	cmpl	$4, -12(%rbp)
	jge	.LBB13_8
# %bb.2:                                # %for.body
                                        #   in Loop: Header=BB13_1 Depth=1
	movl	$0, -16(%rbp)
.LBB13_3:                               # %for.cond38
                                        #   Parent Loop BB13_1 Depth=1
                                        # =>  This Inner Loop Header: Depth=2
	cmpl	$4, -16(%rbp)
	jge	.LBB13_6
# %bb.4:                                # %for.body41
                                        #   in Loop: Header=BB13_3 Depth=2
	movq	img, %rax
	addq	$12600, %rax            # imm = 0x3138
	movl	-16(%rbp), %ecx
	addl	-140(%rbp), %ecx
	movslq	%ecx, %rcx
	shlq	$5, %rcx
	addq	%rcx, %rax
	movl	-12(%rbp), %ecx
	addl	-116(%rbp), %ecx
	movslq	%ecx, %rcx
	movzwl	(%rax,%rcx,2), %eax
	movq	img, %rcx
	addq	$13112, %rcx            # imm = 0x3338
	movslq	-16(%rbp), %rdx
	shlq	$6, %rdx
	addq	%rdx, %rcx
	movslq	-12(%rbp), %rdx
	addl	(%rcx,%rdx,4), %eax
	movl	%eax, (%rcx,%rdx,4)
	movq	img, %rax
	addq	$12600, %rax            # imm = 0x3138
	movl	-16(%rbp), %ecx
	addl	-140(%rbp), %ecx
	movslq	%ecx, %rcx
	shlq	$5, %rcx
	addq	%rcx, %rax
	movl	-12(%rbp), %ecx
	addl	-116(%rbp), %ecx
	movslq	%ecx, %rcx
	movzwl	(%rax,%rcx,2), %eax
	movslq	-16(%rbp), %rcx
	shlq	$4, %rcx
	leaq	-320(%rbp), %rdx
	addq	%rcx, %rdx
	movslq	-12(%rbp), %rcx
	movl	%eax, (%rdx,%rcx,4)
# %bb.5:                                # %for.inc
                                        #   in Loop: Header=BB13_3 Depth=2
	movl	-16(%rbp), %eax
	addl	$1, %eax
	movl	%eax, -16(%rbp)
	jmp	.LBB13_3
.LBB13_6:                               # %for.end
                                        #   in Loop: Header=BB13_1 Depth=1
	jmp	.LBB13_7
.LBB13_7:                               # %for.inc66
                                        #   in Loop: Header=BB13_1 Depth=1
	movl	-12(%rbp), %eax
	addl	$1, %eax
	movl	%eax, -12(%rbp)
	jmp	.LBB13_1
.LBB13_8:                               # %for.end68
	movl	$0, -12(%rbp)
.LBB13_9:                               # %for.cond69
                                        # =>This Loop Header: Depth=1
                                        #     Child Loop BB13_11 Depth 2
	cmpl	$4, -12(%rbp)
	jge	.LBB13_16
# %bb.10:                               # %for.body72
                                        #   in Loop: Header=BB13_9 Depth=1
	movl	$0, -16(%rbp)
.LBB13_11:                              # %for.cond73
                                        #   Parent Loop BB13_9 Depth=1
                                        # =>  This Inner Loop Header: Depth=2
	cmpl	$2, -16(%rbp)
	jge	.LBB13_14
# %bb.12:                               # %for.body76
                                        #   in Loop: Header=BB13_11 Depth=2
	movl	$3, %eax
	subl	-16(%rbp), %eax
	movl	%eax, -52(%rbp)
	movq	img, %rax
	addq	$13112, %rax            # imm = 0x3338
	movslq	-16(%rbp), %rcx
	shlq	$6, %rcx
	addq	%rcx, %rax
	movslq	-12(%rbp), %rcx
	movl	(%rax,%rcx,4), %eax
	movq	img, %rcx
	addq	$13112, %rcx            # imm = 0x3338
	movslq	-52(%rbp), %rdx
	shlq	$6, %rdx
	addq	%rdx, %rcx
	movslq	-12(%rbp), %rdx
	addl	(%rcx,%rdx,4), %eax
	movslq	-16(%rbp), %rcx
	movl	%eax, -48(%rbp,%rcx,4)
	movq	img, %rax
	addq	$13112, %rax            # imm = 0x3338
	movslq	-16(%rbp), %rcx
	shlq	$6, %rcx
	addq	%rcx, %rax
	movslq	-12(%rbp), %rcx
	movl	(%rax,%rcx,4), %eax
	movq	img, %rcx
	addq	$13112, %rcx            # imm = 0x3338
	movslq	-52(%rbp), %rdx
	shlq	$6, %rdx
	addq	%rdx, %rcx
	movslq	-12(%rbp), %rdx
	subl	(%rcx,%rdx,4), %eax
	movslq	-52(%rbp), %rcx
	movl	%eax, -48(%rbp,%rcx,4)
# %bb.13:                               # %for.inc104
                                        #   in Loop: Header=BB13_11 Depth=2
	movl	-16(%rbp), %eax
	addl	$1, %eax
	movl	%eax, -16(%rbp)
	jmp	.LBB13_11
.LBB13_14:                              # %for.end106
                                        #   in Loop: Header=BB13_9 Depth=1
	movl	-48(%rbp), %eax
	addl	-44(%rbp), %eax
	movq	img, %rcx
	movslq	-12(%rbp), %rdx
	movl	%eax, 13112(%rcx,%rdx,4)
	movl	-48(%rbp), %eax
	subl	-44(%rbp), %eax
	movq	img, %rcx
	movslq	-12(%rbp), %rdx
	movl	%eax, 13240(%rcx,%rdx,4)
	movl	-36(%rbp), %eax
	shll	$1, %eax
	addl	-40(%rbp), %eax
	movq	img, %rcx
	movslq	-12(%rbp), %rdx
	movl	%eax, 13176(%rcx,%rdx,4)
	movl	-36(%rbp), %eax
	movl	-40(%rbp), %ecx
	shll	$1, %ecx
	subl	%ecx, %eax
	movq	img, %rcx
	movslq	-12(%rbp), %rdx
	movl	%eax, 13304(%rcx,%rdx,4)
# %bb.15:                               # %for.inc137
                                        #   in Loop: Header=BB13_9 Depth=1
	movl	-12(%rbp), %eax
	addl	$1, %eax
	movl	%eax, -12(%rbp)
	jmp	.LBB13_9
.LBB13_16:                              # %for.end139
	movl	$0, -16(%rbp)
.LBB13_17:                              # %for.cond140
                                        # =>This Loop Header: Depth=1
                                        #     Child Loop BB13_19 Depth 2
	cmpl	$4, -16(%rbp)
	jge	.LBB13_24
# %bb.18:                               # %for.body143
                                        #   in Loop: Header=BB13_17 Depth=1
	movl	$0, -12(%rbp)
.LBB13_19:                              # %for.cond144
                                        #   Parent Loop BB13_17 Depth=1
                                        # =>  This Inner Loop Header: Depth=2
	cmpl	$2, -12(%rbp)
	jge	.LBB13_22
# %bb.20:                               # %for.body147
                                        #   in Loop: Header=BB13_19 Depth=2
	movl	$3, %eax
	subl	-12(%rbp), %eax
	movl	%eax, -20(%rbp)
	movq	img, %rax
	addq	$13112, %rax            # imm = 0x3338
	movslq	-16(%rbp), %rcx
	shlq	$6, %rcx
	addq	%rcx, %rax
	movslq	-12(%rbp), %rcx
	movl	(%rax,%rcx,4), %eax
	movq	img, %rcx
	addq	$13112, %rcx            # imm = 0x3338
	movslq	-16(%rbp), %rdx
	shlq	$6, %rdx
	addq	%rdx, %rcx
	movslq	-20(%rbp), %rdx
	addl	(%rcx,%rdx,4), %eax
	movslq	-12(%rbp), %rcx
	movl	%eax, -48(%rbp,%rcx,4)
	movq	img, %rax
	addq	$13112, %rax            # imm = 0x3338
	movslq	-16(%rbp), %rcx
	shlq	$6, %rcx
	addq	%rcx, %rax
	movslq	-12(%rbp), %rcx
	movl	(%rax,%rcx,4), %eax
	movq	img, %rcx
	addq	$13112, %rcx            # imm = 0x3338
	movslq	-16(%rbp), %rdx
	shlq	$6, %rdx
	addq	%rdx, %rcx
	movslq	-20(%rbp), %rdx
	subl	(%rcx,%rdx,4), %eax
	movslq	-20(%rbp), %rcx
	movl	%eax, -48(%rbp,%rcx,4)
# %bb.21:                               # %for.inc175
                                        #   in Loop: Header=BB13_19 Depth=2
	movl	-12(%rbp), %eax
	addl	$1, %eax
	movl	%eax, -12(%rbp)
	jmp	.LBB13_19
.LBB13_22:                              # %for.end177
                                        #   in Loop: Header=BB13_17 Depth=1
	movl	-48(%rbp), %eax
	addl	-44(%rbp), %eax
	movq	img, %rcx
	addq	$13112, %rcx            # imm = 0x3338
	movslq	-16(%rbp), %rdx
	shlq	$6, %rdx
	addq	%rdx, %rcx
	movl	%eax, (%rcx)
	movl	-48(%rbp), %eax
	subl	-44(%rbp), %eax
	movq	img, %rcx
	addq	$13112, %rcx            # imm = 0x3338
	movslq	-16(%rbp), %rdx
	shlq	$6, %rdx
	addq	%rdx, %rcx
	movl	%eax, 8(%rcx)
	movl	-36(%rbp), %eax
	shll	$1, %eax
	addl	-40(%rbp), %eax
	movq	img, %rcx
	addq	$13112, %rcx            # imm = 0x3338
	movslq	-16(%rbp), %rdx
	shlq	$6, %rdx
	addq	%rdx, %rcx
	movl	%eax, 4(%rcx)
	movl	-36(%rbp), %eax
	movl	-40(%rbp), %ecx
	shll	$1, %ecx
	subl	%ecx, %eax
	movq	img, %rcx
	addq	$13112, %rcx            # imm = 0x3338
	movslq	-16(%rbp), %rdx
	shlq	$6, %rdx
	addq	%rdx, %rcx
	movl	%eax, 12(%rcx)
# %bb.23:                               # %for.inc208
                                        #   in Loop: Header=BB13_17 Depth=1
	movl	-16(%rbp), %eax
	addl	$1, %eax
	movl	%eax, -16(%rbp)
	jmp	.LBB13_17
.LBB13_24:                              # %for.end210
	movl	$0, -12(%rbp)
.LBB13_25:                              # %for.cond211
                                        # =>This Loop Header: Depth=1
                                        #     Child Loop BB13_27 Depth 2
	cmpl	$4, -12(%rbp)
	jge	.LBB13_32
# %bb.26:                               # %for.body214
                                        #   in Loop: Header=BB13_25 Depth=1
	movl	$0, -16(%rbp)
.LBB13_27:                              # %for.cond215
                                        #   Parent Loop BB13_25 Depth=1
                                        # =>  This Inner Loop Header: Depth=2
	cmpl	$2, -16(%rbp)
	jge	.LBB13_30
# %bb.28:                               # %for.body218
                                        #   in Loop: Header=BB13_27 Depth=2
	movl	$3, %eax
	subl	-16(%rbp), %eax
	movl	%eax, -52(%rbp)
	movslq	-16(%rbp), %rax
	shlq	$4, %rax
	leaq	-320(%rbp), %rcx
	movq	%rcx, %rdx
	addq	%rax, %rdx
	movslq	-12(%rbp), %rax
	movl	(%rdx,%rax,4), %eax
	movslq	-52(%rbp), %rdx
	shlq	$4, %rdx
	movq	%rcx, %rsi
	addq	%rdx, %rsi
	movslq	-12(%rbp), %rdx
	addl	(%rsi,%rdx,4), %eax
	movslq	-16(%rbp), %rdx
	movl	%eax, -48(%rbp,%rdx,4)
	movslq	-16(%rbp), %rax
	shlq	$4, %rax
	movq	%rcx, %rdx
	addq	%rax, %rdx
	movslq	-12(%rbp), %rax
	movl	(%rdx,%rax,4), %eax
	movslq	-52(%rbp), %rdx
	shlq	$4, %rdx
	addq	%rdx, %rcx
	movslq	-12(%rbp), %rdx
	subl	(%rcx,%rdx,4), %eax
	movslq	-52(%rbp), %rcx
	movl	%eax, -48(%rbp,%rcx,4)
# %bb.29:                               # %for.inc242
                                        #   in Loop: Header=BB13_27 Depth=2
	movl	-16(%rbp), %eax
	addl	$1, %eax
	movl	%eax, -16(%rbp)
	jmp	.LBB13_27
.LBB13_30:                              # %for.end244
                                        #   in Loop: Header=BB13_25 Depth=1
	movl	-48(%rbp), %eax
	addl	-44(%rbp), %eax
	movslq	-12(%rbp), %rcx
	movl	%eax, -320(%rbp,%rcx,4)
	movl	-48(%rbp), %eax
	subl	-44(%rbp), %eax
	movslq	-12(%rbp), %rcx
	movl	%eax, -288(%rbp,%rcx,4)
	movl	-36(%rbp), %eax
	shll	$1, %eax
	addl	-40(%rbp), %eax
	movslq	-12(%rbp), %rcx
	movl	%eax, -304(%rbp,%rcx,4)
	movl	-36(%rbp), %eax
	movl	-40(%rbp), %ecx
	shll	$1, %ecx
	subl	%ecx, %eax
	movslq	-12(%rbp), %rcx
	movl	%eax, -272(%rbp,%rcx,4)
# %bb.31:                               # %for.inc271
                                        #   in Loop: Header=BB13_25 Depth=1
	movl	-12(%rbp), %eax
	addl	$1, %eax
	movl	%eax, -12(%rbp)
	jmp	.LBB13_25
.LBB13_32:                              # %for.end273
	movl	$0, -16(%rbp)
.LBB13_33:                              # %for.cond274
                                        # =>This Loop Header: Depth=1
                                        #     Child Loop BB13_35 Depth 2
	cmpl	$4, -16(%rbp)
	jge	.LBB13_40
# %bb.34:                               # %for.body277
                                        #   in Loop: Header=BB13_33 Depth=1
	movl	$0, -12(%rbp)
.LBB13_35:                              # %for.cond278
                                        #   Parent Loop BB13_33 Depth=1
                                        # =>  This Inner Loop Header: Depth=2
	cmpl	$2, -12(%rbp)
	jge	.LBB13_38
# %bb.36:                               # %for.body281
                                        #   in Loop: Header=BB13_35 Depth=2
	movl	$3, %eax
	subl	-12(%rbp), %eax
	movl	%eax, -20(%rbp)
	movslq	-16(%rbp), %rax
	shlq	$4, %rax
	leaq	-320(%rbp), %rcx
	movq	%rcx, %rdx
	addq	%rax, %rdx
	movslq	-12(%rbp), %rax
	movl	(%rdx,%rax,4), %eax
	movslq	-16(%rbp), %rdx
	shlq	$4, %rdx
	movq	%rcx, %rsi
	addq	%rdx, %rsi
	movslq	-20(%rbp), %rdx
	addl	(%rsi,%rdx,4), %eax
	movslq	-12(%rbp), %rdx
	movl	%eax, -48(%rbp,%rdx,4)
	movslq	-16(%rbp), %rax
	shlq	$4, %rax
	movq	%rcx, %rdx
	addq	%rax, %rdx
	movslq	-12(%rbp), %rax
	movl	(%rdx,%rax,4), %eax
	movslq	-16(%rbp), %rdx
	shlq	$4, %rdx
	addq	%rdx, %rcx
	movslq	-20(%rbp), %rdx
	subl	(%rcx,%rdx,4), %eax
	movslq	-20(%rbp), %rcx
	movl	%eax, -48(%rbp,%rcx,4)
# %bb.37:                               # %for.inc305
                                        #   in Loop: Header=BB13_35 Depth=2
	movl	-12(%rbp), %eax
	addl	$1, %eax
	movl	%eax, -12(%rbp)
	jmp	.LBB13_35
.LBB13_38:                              # %for.end307
                                        #   in Loop: Header=BB13_33 Depth=1
	movl	-48(%rbp), %ecx
	addl	-44(%rbp), %ecx
	movslq	-16(%rbp), %rdx
	shlq	$4, %rdx
	leaq	-320(%rbp), %rax
	movq	%rax, %rsi
	addq	%rdx, %rsi
	movl	%ecx, (%rsi)
	movl	-48(%rbp), %ecx
	subl	-44(%rbp), %ecx
	movslq	-16(%rbp), %rdx
	shlq	$4, %rdx
	movq	%rax, %rsi
	addq	%rdx, %rsi
	movl	%ecx, 8(%rsi)
	movl	-36(%rbp), %ecx
	shll	$1, %ecx
	addl	-40(%rbp), %ecx
	movslq	-16(%rbp), %rdx
	shlq	$4, %rdx
	movq	%rax, %rsi
	addq	%rdx, %rsi
	movl	%ecx, 4(%rsi)
	movl	-36(%rbp), %ecx
	movl	-40(%rbp), %edx
	shll	$1, %edx
	subl	%edx, %ecx
	movslq	-16(%rbp), %rdx
	shlq	$4, %rdx
	addq	%rdx, %rax
	movl	%ecx, 12(%rax)
# %bb.39:                               # %for.inc334
                                        #   in Loop: Header=BB13_33 Depth=1
	movl	-16(%rbp), %eax
	addl	$1, %eax
	movl	%eax, -16(%rbp)
	jmp	.LBB13_33
.LBB13_40:                              # %for.end336
	movl	$0, -188(%rbp)
	movl	$-1, -68(%rbp)
	movl	$0, -104(%rbp)
	movl	$0, -64(%rbp)
.LBB13_41:                              # %for.cond337
                                        # =>This Inner Loop Header: Depth=1
	cmpl	$16, -64(%rbp)
	jge	.LBB13_80
# %bb.42:                               # %for.body340
                                        #   in Loop: Header=BB13_41 Depth=1
	movq	img, %rax
	cmpl	$0, 72444(%rax)
	jne	.LBB13_45
# %bb.43:                               # %lor.lhs.false
                                        #   in Loop: Header=BB13_41 Depth=1
	cmpl	$0, mb_adaptive
	je	.LBB13_46
# %bb.44:                               # %land.lhs.true
                                        #   in Loop: Header=BB13_41 Depth=1
	movq	img, %rax
	cmpl	$0, 72008(%rax)
	je	.LBB13_46
.LBB13_45:                              # %if.then
                                        #   in Loop: Header=BB13_41 Depth=1
	movslq	-64(%rbp), %rax
	movzbl	FIELD_SCAN(,%rax,2), %eax
	movl	%eax, -16(%rbp)
	movslq	-64(%rbp), %rax
	movzbl	FIELD_SCAN+1(,%rax,2), %eax
	movl	%eax, -12(%rbp)
	jmp	.LBB13_47
.LBB13_46:                              # %if.else
                                        #   in Loop: Header=BB13_41 Depth=1
	movslq	-64(%rbp), %rax
	movzbl	SNGL_SCAN(,%rax,2), %eax
	movl	%eax, -16(%rbp)
	movslq	-64(%rbp), %rax
	movzbl	SNGL_SCAN+1(,%rax,2), %eax
	movl	%eax, -12(%rbp)
.LBB13_47:                              # %if.end
                                        #   in Loop: Header=BB13_41 Depth=1
	movl	-68(%rbp), %eax
	addl	$1, %eax
	movl	%eax, -68(%rbp)
	movl	$0, -108(%rbp)
	movslq	-16(%rbp), %rax
	shlq	$4, %rax
	leaq	-320(%rbp), %rcx
	addq	%rax, %rcx
	movslq	-12(%rbp), %rax
	movl	(%rcx,%rax,4), %edi
	callq	abs
	movslq	-124(%rbp), %rcx
	shlq	$6, %rcx
	movabsq	$quant_coef, %rsi
	movq	%rsi, %rdx
	addq	%rcx, %rdx
	movslq	-16(%rbp), %rcx
	shlq	$4, %rcx
	addq	%rcx, %rdx
	movslq	-12(%rbp), %rcx
	imull	(%rdx,%rcx,4), %eax
	addl	-180(%rbp), %eax
	movl	-132(%rbp), %ecx
                                        # kill: def $cl killed $ecx
	sarl	%cl, %eax
	movl	%eax, -24(%rbp)
	movl	-24(%rbp), %eax
	movl	-132(%rbp), %ecx
                                        # kill: def $cl killed $ecx
	shll	%cl, %eax
	movslq	-124(%rbp), %rcx
	shlq	$6, %rcx
	addq	%rcx, %rsi
	movslq	-16(%rbp), %rcx
	shlq	$4, %rcx
	addq	%rcx, %rsi
	movslq	-12(%rbp), %rcx
	cltd
	idivl	(%rsi,%rcx,4)
	movl	%eax, -24(%rbp)
	movq	img, %rax
	addq	$13112, %rax            # imm = 0x3338
	movslq	-16(%rbp), %rcx
	shlq	$6, %rcx
	addq	%rcx, %rax
	movslq	-12(%rbp), %rcx
	movl	(%rax,%rcx,4), %ebx
	movl	-24(%rbp), %edi
	movslq	-16(%rbp), %rax
	shlq	$4, %rax
	leaq	-320(%rbp), %rcx
	addq	%rax, %rcx
	movslq	-12(%rbp), %rax
	movl	(%rcx,%rax,4), %esi
	callq	sign
	subl	%eax, %ebx
	movl	%ebx, -100(%rbp)
	movl	-100(%rbp), %edi
	callq	abs
	movslq	-112(%rbp), %rcx
	shlq	$6, %rcx
	movabsq	$quant_coef, %rdx
	addq	%rcx, %rdx
	movslq	-16(%rbp), %rcx
	shlq	$4, %rcx
	addq	%rcx, %rdx
	movslq	-12(%rbp), %rcx
	imull	(%rdx,%rcx,4), %eax
	addl	-208(%rbp), %eax
	movl	-144(%rbp), %ecx
                                        # kill: def $cl killed $ecx
	sarl	%cl, %eax
	movl	%eax, -24(%rbp)
	movq	img, %rax
	addq	$13112, %rax            # imm = 0x3338
	movslq	-16(%rbp), %rcx
	shlq	$6, %rcx
	addq	%rcx, %rax
	movslq	-12(%rbp), %rcx
	movl	(%rax,%rcx,4), %eax
	movslq	-16(%rbp), %rcx
	shlq	$4, %rcx
	leaq	-320(%rbp), %rdx
	addq	%rcx, %rdx
	movslq	-12(%rbp), %rcx
	subl	(%rdx,%rcx,4), %eax
	movl	%eax, -136(%rbp)
	movl	-136(%rbp), %edi
	callq	abs
	movslq	-112(%rbp), %rcx
	shlq	$6, %rcx
	movabsq	$quant_coef, %rdx
	addq	%rcx, %rdx
	movslq	-16(%rbp), %rcx
	shlq	$4, %rcx
	addq	%rcx, %rdx
	movslq	-12(%rbp), %rcx
	imull	(%rdx,%rcx,4), %eax
	addl	-208(%rbp), %eax
	movl	-144(%rbp), %ecx
                                        # kill: def $cl killed $ecx
	sarl	%cl, %eax
	movl	%eax, -60(%rbp)
	movl	-24(%rbp), %eax
	cmpl	-60(%rbp), %eax
	je	.LBB13_63
# %bb.48:                               # %land.lhs.true424
                                        #   in Loop: Header=BB13_41 Depth=1
	cmpl	$0, -24(%rbp)
	je	.LBB13_63
# %bb.49:                               # %land.lhs.true427
                                        #   in Loop: Header=BB13_41 Depth=1
	cmpl	$0, -60(%rbp)
	je	.LBB13_63
# %bb.50:                               # %if.then430
                                        #   in Loop: Header=BB13_41 Depth=1
	movq	img, %rax
	addq	$13112, %rax            # imm = 0x3338
	movslq	-16(%rbp), %rcx
	shlq	$6, %rcx
	addq	%rcx, %rax
	movslq	-12(%rbp), %rcx
	movl	(%rax,%rcx,4), %ebx
	movl	-24(%rbp), %edi
	movl	-100(%rbp), %esi
	callq	sign
	movslq	-112(%rbp), %rcx
	shlq	$6, %rcx
	movabsq	$dequant_coef, %rdx
	addq	%rcx, %rdx
	movslq	-16(%rbp), %rcx
	shlq	$4, %rcx
	addq	%rcx, %rdx
	movslq	-12(%rbp), %rcx
	imull	(%rdx,%rcx,4), %eax
	movslq	-16(%rbp), %rcx
	shlq	$4, %rcx
	movabsq	$A, %rdx
	addq	%rcx, %rdx
	movslq	-12(%rbp), %rcx
	imull	(%rdx,%rcx,4), %eax
	movl	-128(%rbp), %ecx
                                        # kill: def $cl killed $ecx
	shll	%cl, %eax
	sarl	$6, %eax
	subl	%eax, %ebx
	movslq	-16(%rbp), %rax
	shlq	$4, %rax
	leaq	-320(%rbp), %rcx
	addq	%rax, %rcx
	movslq	-12(%rbp), %rax
	subl	(%rcx,%rax,4), %ebx
	vcvtsi2sd	%ebx, %xmm0, %xmm0
	vmovsd	%xmm0, -176(%rbp)
	movl	-24(%rbp), %edi
	movl	-68(%rbp), %esi
	leaq	-148(%rbp), %rdx
	leaq	-216(%rbp), %rcx
	callq	levrun_linfo_inter
	vmovsd	-176(%rbp), %xmm0       # xmm0 = mem[0],zero
	vmulsd	-176(%rbp), %xmm0, %xmm0
	vmovsd	-232(%rbp), %xmm1       # xmm1 = mem[0],zero
	vcvtsi2sdl	-148(%rbp), %xmm0, %xmm2
	vmulsd	%xmm2, %xmm1, %xmm1
	vaddsd	%xmm1, %xmm0, %xmm0
	vmovsd	%xmm0, -176(%rbp)
	movq	img, %rax
	addq	$13112, %rax            # imm = 0x3338
	movslq	-16(%rbp), %rcx
	shlq	$6, %rcx
	addq	%rcx, %rax
	movslq	-12(%rbp), %rcx
	movl	(%rax,%rcx,4), %ebx
	movl	-60(%rbp), %edi
	movl	-136(%rbp), %esi
	callq	sign
	movslq	-112(%rbp), %rcx
	shlq	$6, %rcx
	movabsq	$dequant_coef, %rdx
	addq	%rcx, %rdx
	movslq	-16(%rbp), %rcx
	shlq	$4, %rcx
	addq	%rcx, %rdx
	movslq	-12(%rbp), %rcx
	imull	(%rdx,%rcx,4), %eax
	movslq	-16(%rbp), %rcx
	shlq	$4, %rcx
	movabsq	$A, %rdx
	addq	%rcx, %rdx
	movslq	-12(%rbp), %rcx
	imull	(%rdx,%rcx,4), %eax
	movl	-128(%rbp), %ecx
                                        # kill: def $cl killed $ecx
	shll	%cl, %eax
	sarl	$6, %eax
	subl	%eax, %ebx
	movslq	-16(%rbp), %rax
	shlq	$4, %rax
	leaq	-320(%rbp), %rcx
	addq	%rax, %rcx
	movslq	-12(%rbp), %rax
	subl	(%rcx,%rax,4), %ebx
	vcvtsi2sd	%ebx, %xmm0, %xmm0
	vmovsd	%xmm0, -160(%rbp)
	movl	-60(%rbp), %edi
	movl	-68(%rbp), %esi
	leaq	-148(%rbp), %rdx
	leaq	-216(%rbp), %rcx
	callq	levrun_linfo_inter
	vmovsd	-160(%rbp), %xmm0       # xmm0 = mem[0],zero
	vmulsd	-160(%rbp), %xmm0, %xmm0
	vmovsd	-232(%rbp), %xmm1       # xmm1 = mem[0],zero
	vcvtsi2sdl	-148(%rbp), %xmm0, %xmm2
	vmulsd	%xmm2, %xmm1, %xmm1
	vaddsd	%xmm1, %xmm0, %xmm0
	vmovsd	%xmm0, -160(%rbp)
	vmovsd	-176(%rbp), %xmm0       # xmm0 = mem[0],zero
	vucomisd	-160(%rbp), %xmm0
	jne	.LBB13_55
	jp	.LBB13_55
# %bb.51:                               # %if.then495
                                        #   in Loop: Header=BB13_41 Depth=1
	movl	-24(%rbp), %edi
	callq	abs
	movl	%eax, %ebx
	movl	-60(%rbp), %edi
	callq	abs
	cmpl	%eax, %ebx
	jge	.LBB13_53
# %bb.52:                               # %cond.true
                                        #   in Loop: Header=BB13_41 Depth=1
	movl	-24(%rbp), %eax
	jmp	.LBB13_54
.LBB13_53:                              # %cond.false
                                        #   in Loop: Header=BB13_41 Depth=1
	movl	-60(%rbp), %eax
.LBB13_54:                              # %cond.end
                                        #   in Loop: Header=BB13_41 Depth=1
	movl	%eax, -56(%rbp)
	jmp	.LBB13_59
.LBB13_55:                              # %if.else500
                                        #   in Loop: Header=BB13_41 Depth=1
	vmovsd	-176(%rbp), %xmm0       # xmm0 = mem[0],zero
	vmovsd	-160(%rbp), %xmm1       # xmm1 = mem[0],zero
	vucomisd	%xmm0, %xmm1
	jbe	.LBB13_57
# %bb.56:                               # %if.then503
                                        #   in Loop: Header=BB13_41 Depth=1
	movl	-24(%rbp), %eax
	movl	%eax, -56(%rbp)
	jmp	.LBB13_58
.LBB13_57:                              # %if.else504
                                        #   in Loop: Header=BB13_41 Depth=1
	movl	-60(%rbp), %eax
	movl	%eax, -56(%rbp)
.LBB13_58:                              # %if.end505
                                        #   in Loop: Header=BB13_41 Depth=1
	jmp	.LBB13_59
.LBB13_59:                              # %if.end506
                                        #   in Loop: Header=BB13_41 Depth=1
	movl	-56(%rbp), %eax
	cmpl	-24(%rbp), %eax
	jne	.LBB13_61
# %bb.60:                               # %cond.true509
                                        #   in Loop: Header=BB13_41 Depth=1
	movl	-100(%rbp), %eax
	jmp	.LBB13_62
.LBB13_61:                              # %cond.false510
                                        #   in Loop: Header=BB13_41 Depth=1
	movl	-136(%rbp), %eax
.LBB13_62:                              # %cond.end511
                                        #   in Loop: Header=BB13_41 Depth=1
	movl	%eax, -120(%rbp)
	jmp	.LBB13_73
.LBB13_63:                              # %if.else513
                                        #   in Loop: Header=BB13_41 Depth=1
	movl	-24(%rbp), %eax
	cmpl	-60(%rbp), %eax
	jne	.LBB13_65
# %bb.64:                               # %if.then516
                                        #   in Loop: Header=BB13_41 Depth=1
	movl	-24(%rbp), %eax
	movl	%eax, -56(%rbp)
	movl	-100(%rbp), %eax
	movl	%eax, -120(%rbp)
	jmp	.LBB13_72
.LBB13_65:                              # %if.else517
                                        #   in Loop: Header=BB13_41 Depth=1
	cmpl	$0, -24(%rbp)
	jne	.LBB13_67
# %bb.66:                               # %cond.true520
                                        #   in Loop: Header=BB13_41 Depth=1
	movl	-24(%rbp), %eax
	jmp	.LBB13_68
.LBB13_67:                              # %cond.false521
                                        #   in Loop: Header=BB13_41 Depth=1
	movl	-60(%rbp), %eax
.LBB13_68:                              # %cond.end522
                                        #   in Loop: Header=BB13_41 Depth=1
	movl	%eax, -56(%rbp)
	cmpl	$0, -24(%rbp)
	jne	.LBB13_70
# %bb.69:                               # %cond.true526
                                        #   in Loop: Header=BB13_41 Depth=1
	movl	-100(%rbp), %eax
	jmp	.LBB13_71
.LBB13_70:                              # %cond.false527
                                        #   in Loop: Header=BB13_41 Depth=1
	movl	-136(%rbp), %eax
.LBB13_71:                              # %cond.end528
                                        #   in Loop: Header=BB13_41 Depth=1
	movl	%eax, -120(%rbp)
.LBB13_72:                              # %if.end530
                                        #   in Loop: Header=BB13_41 Depth=1
	jmp	.LBB13_73
.LBB13_73:                              # %if.end531
                                        #   in Loop: Header=BB13_41 Depth=1
	cmpl	$0, -56(%rbp)
	je	.LBB13_78
# %bb.74:                               # %if.then534
                                        #   in Loop: Header=BB13_41 Depth=1
	movl	$1, -188(%rbp)
	cmpl	$1, -56(%rbp)
	jle	.LBB13_76
# %bb.75:                               # %if.then537
                                        #   in Loop: Header=BB13_41 Depth=1
	movq	-240(%rbp), %rax
	movl	(%rax), %ecx
	addl	$999999, %ecx           # imm = 0xF423F
	movl	%ecx, (%rax)
	jmp	.LBB13_77
.LBB13_76:                              # %if.else539
                                        #   in Loop: Header=BB13_41 Depth=1
	movabsq	$COEFF_COST, %rax
	movq	input, %rcx
	movslq	2468(%rcx), %rcx
	shlq	$4, %rcx
	addq	%rcx, %rax
	movslq	-68(%rbp), %rcx
	movzbl	(%rax,%rcx), %eax
	movq	-240(%rbp), %rcx
	addl	(%rcx), %eax
	movl	%eax, (%rcx)
.LBB13_77:                              # %if.end546
                                        #   in Loop: Header=BB13_41 Depth=1
	movl	-56(%rbp), %edi
	movl	-120(%rbp), %esi
	callq	sign
	movq	-224(%rbp), %rcx
	movslq	-104(%rbp), %rdx
	movl	%eax, (%rcx,%rdx,4)
	movl	-68(%rbp), %eax
	movq	-248(%rbp), %rcx
	movslq	-104(%rbp), %rdx
	movl	%eax, (%rcx,%rdx,4)
	movl	-104(%rbp), %eax
	addl	$1, %eax
	movl	%eax, -104(%rbp)
	movl	$-1, -68(%rbp)
	movl	-56(%rbp), %edi
	movl	-120(%rbp), %esi
	callq	sign
	movslq	-112(%rbp), %rcx
	shlq	$6, %rcx
	movabsq	$dequant_coef, %rdx
	addq	%rcx, %rdx
	movslq	-16(%rbp), %rcx
	shlq	$4, %rcx
	addq	%rcx, %rdx
	movslq	-12(%rbp), %rcx
	imull	(%rdx,%rcx,4), %eax
	movslq	-16(%rbp), %rcx
	shlq	$4, %rcx
	movabsq	$A, %rdx
	addq	%rcx, %rdx
	movslq	-12(%rbp), %rcx
	imull	(%rdx,%rcx,4), %eax
	movl	-128(%rbp), %ecx
                                        # kill: def $cl killed $ecx
	shll	%cl, %eax
	sarl	$6, %eax
	movl	%eax, -108(%rbp)
.LBB13_78:                              # %if.end568
                                        #   in Loop: Header=BB13_41 Depth=1
	movslq	-16(%rbp), %rax
	shlq	$4, %rax
	leaq	-320(%rbp), %rcx
	addq	%rax, %rcx
	movslq	-12(%rbp), %rax
	movl	(%rcx,%rax,4), %eax
	addl	-108(%rbp), %eax
	movl	%eax, -108(%rbp)
	movl	-108(%rbp), %edi
	callq	abs
	movslq	-124(%rbp), %rcx
	shlq	$6, %rcx
	movabsq	$quant_coef, %rdx
	addq	%rcx, %rdx
	movslq	-16(%rbp), %rcx
	shlq	$4, %rcx
	addq	%rcx, %rdx
	movslq	-12(%rbp), %rcx
	imull	(%rdx,%rcx,4), %eax
	addl	-180(%rbp), %eax
	movl	-132(%rbp), %ecx
                                        # kill: def $cl killed $ecx
	sarl	%cl, %eax
	movl	-108(%rbp), %esi
	movl	%eax, %edi
	callq	sign
	movslq	-124(%rbp), %rcx
	shlq	$6, %rcx
	movabsq	$dequant_coef, %rdx
	addq	%rcx, %rdx
	movslq	-16(%rbp), %rcx
	shlq	$4, %rcx
	addq	%rcx, %rdx
	movslq	-12(%rbp), %rcx
	imull	(%rdx,%rcx,4), %eax
	movl	-192(%rbp), %ecx
                                        # kill: def $cl killed $ecx
	shll	%cl, %eax
	movq	img, %rcx
	addq	$13112, %rcx            # imm = 0x3338
	movslq	-16(%rbp), %rdx
	shlq	$6, %rdx
	addq	%rdx, %rcx
	movslq	-12(%rbp), %rdx
	movl	%eax, (%rcx,%rdx,4)
# %bb.79:                               # %for.inc598
                                        #   in Loop: Header=BB13_41 Depth=1
	movl	-64(%rbp), %eax
	addl	$1, %eax
	movl	%eax, -64(%rbp)
	jmp	.LBB13_41
.LBB13_80:                              # %for.end600
	movq	-224(%rbp), %rax
	movslq	-104(%rbp), %rcx
	movl	$0, (%rax,%rcx,4)
	movl	$0, -12(%rbp)
.LBB13_81:                              # %for.cond603
                                        # =>This Loop Header: Depth=1
                                        #     Child Loop BB13_83 Depth 2
                                        #     Child Loop BB13_87 Depth 2
	cmpl	$4, -12(%rbp)
	jge	.LBB13_92
# %bb.82:                               # %for.body606
                                        #   in Loop: Header=BB13_81 Depth=1
	movl	$0, -16(%rbp)
.LBB13_83:                              # %for.cond607
                                        #   Parent Loop BB13_81 Depth=1
                                        # =>  This Inner Loop Header: Depth=2
	cmpl	$4, -16(%rbp)
	jge	.LBB13_86
# %bb.84:                               # %for.body610
                                        #   in Loop: Header=BB13_83 Depth=2
	movq	img, %rax
	addq	$13112, %rax            # imm = 0x3338
	movslq	-16(%rbp), %rcx
	shlq	$6, %rcx
	addq	%rcx, %rax
	movslq	-12(%rbp), %rcx
	movl	(%rax,%rcx,4), %eax
	movslq	-16(%rbp), %rcx
	movl	%eax, -48(%rbp,%rcx,4)
# %bb.85:                               # %for.inc618
                                        #   in Loop: Header=BB13_83 Depth=2
	movl	-16(%rbp), %eax
	addl	$1, %eax
	movl	%eax, -16(%rbp)
	jmp	.LBB13_83
.LBB13_86:                              # %for.end620
                                        #   in Loop: Header=BB13_81 Depth=1
	movl	-48(%rbp), %eax
	addl	-40(%rbp), %eax
	movl	%eax, -96(%rbp)
	movl	-48(%rbp), %eax
	subl	-40(%rbp), %eax
	movl	%eax, -92(%rbp)
	movl	-44(%rbp), %eax
	sarl	$1, %eax
	subl	-36(%rbp), %eax
	movl	%eax, -88(%rbp)
	movl	-44(%rbp), %eax
	movl	-36(%rbp), %ecx
	sarl	$1, %ecx
	addl	%ecx, %eax
	movl	%eax, -84(%rbp)
	movl	$0, -16(%rbp)
.LBB13_87:                              # %for.cond639
                                        #   Parent Loop BB13_81 Depth=1
                                        # =>  This Inner Loop Header: Depth=2
	cmpl	$2, -16(%rbp)
	jge	.LBB13_90
# %bb.88:                               # %for.body642
                                        #   in Loop: Header=BB13_87 Depth=2
	movl	$3, %eax
	subl	-16(%rbp), %eax
	movl	%eax, -52(%rbp)
	movslq	-16(%rbp), %rax
	movl	-96(%rbp,%rax,4), %eax
	movslq	-52(%rbp), %rcx
	addl	-96(%rbp,%rcx,4), %eax
	movq	img, %rcx
	addq	$13112, %rcx            # imm = 0x3338
	movslq	-16(%rbp), %rdx
	shlq	$6, %rdx
	addq	%rdx, %rcx
	movslq	-12(%rbp), %rdx
	movl	%eax, (%rcx,%rdx,4)
	movslq	-16(%rbp), %rax
	movl	-96(%rbp,%rax,4), %eax
	movslq	-52(%rbp), %rcx
	subl	-96(%rbp,%rcx,4), %eax
	movq	img, %rcx
	addq	$13112, %rcx            # imm = 0x3338
	movslq	-52(%rbp), %rdx
	shlq	$6, %rdx
	addq	%rdx, %rcx
	movslq	-12(%rbp), %rdx
	movl	%eax, (%rcx,%rdx,4)
# %bb.89:                               # %for.inc664
                                        #   in Loop: Header=BB13_87 Depth=2
	movl	-16(%rbp), %eax
	addl	$1, %eax
	movl	%eax, -16(%rbp)
	jmp	.LBB13_87
.LBB13_90:                              # %for.end666
                                        #   in Loop: Header=BB13_81 Depth=1
	jmp	.LBB13_91
.LBB13_91:                              # %for.inc667
                                        #   in Loop: Header=BB13_81 Depth=1
	movl	-12(%rbp), %eax
	addl	$1, %eax
	movl	%eax, -12(%rbp)
	jmp	.LBB13_81
.LBB13_92:                              # %for.end669
	movl	$0, -16(%rbp)
.LBB13_93:                              # %for.cond670
                                        # =>This Loop Header: Depth=1
                                        #     Child Loop BB13_95 Depth 2
                                        #     Child Loop BB13_99 Depth 2
	cmpl	$4, -16(%rbp)
	jge	.LBB13_122
# %bb.94:                               # %for.body673
                                        #   in Loop: Header=BB13_93 Depth=1
	movl	$0, -12(%rbp)
.LBB13_95:                              # %for.cond674
                                        #   Parent Loop BB13_93 Depth=1
                                        # =>  This Inner Loop Header: Depth=2
	cmpl	$4, -12(%rbp)
	jge	.LBB13_98
# %bb.96:                               # %for.body677
                                        #   in Loop: Header=BB13_95 Depth=2
	movq	img, %rax
	addq	$13112, %rax            # imm = 0x3338
	movslq	-16(%rbp), %rcx
	shlq	$6, %rcx
	addq	%rcx, %rax
	movslq	-12(%rbp), %rcx
	movl	(%rax,%rcx,4), %eax
	movslq	-12(%rbp), %rcx
	movl	%eax, -48(%rbp,%rcx,4)
# %bb.97:                               # %for.inc685
                                        #   in Loop: Header=BB13_95 Depth=2
	movl	-12(%rbp), %eax
	addl	$1, %eax
	movl	%eax, -12(%rbp)
	jmp	.LBB13_95
.LBB13_98:                              # %for.end687
                                        #   in Loop: Header=BB13_93 Depth=1
	movl	-48(%rbp), %eax
	addl	-40(%rbp), %eax
	movl	%eax, -96(%rbp)
	movl	-48(%rbp), %eax
	subl	-40(%rbp), %eax
	movl	%eax, -92(%rbp)
	movl	-44(%rbp), %eax
	sarl	$1, %eax
	subl	-36(%rbp), %eax
	movl	%eax, -88(%rbp)
	movl	-44(%rbp), %eax
	movl	-36(%rbp), %ecx
	sarl	$1, %ecx
	addl	%ecx, %eax
	movl	%eax, -84(%rbp)
	movl	$0, -12(%rbp)
.LBB13_99:                              # %for.cond706
                                        #   Parent Loop BB13_93 Depth=1
                                        # =>  This Inner Loop Header: Depth=2
	cmpl	$2, -12(%rbp)
	jge	.LBB13_120
# %bb.100:                              # %for.body709
                                        #   in Loop: Header=BB13_99 Depth=2
	xorl	%ecx, %ecx
	movl	$3, %eax
	subl	-12(%rbp), %eax
	movl	%eax, -20(%rbp)
	movq	img, %rax
	movl	72684(%rax), %eax
	movslq	-12(%rbp), %rdx
	movl	-96(%rbp,%rdx,4), %edx
	movslq	-20(%rbp), %rsi
	addl	-96(%rbp,%rsi,4), %edx
	addl	$32, %edx
	sarl	$6, %edx
	cmpl	%edx, %ecx
	jle	.LBB13_102
# %bb.101:                              # %cond.true720
                                        #   in Loop: Header=BB13_99 Depth=2
	xorl	%ecx, %ecx
	jmp	.LBB13_103
.LBB13_102:                             # %cond.false721
                                        #   in Loop: Header=BB13_99 Depth=2
	movslq	-12(%rbp), %rcx
	movl	-96(%rbp,%rcx,4), %ecx
	movslq	-20(%rbp), %rdx
	addl	-96(%rbp,%rdx,4), %ecx
	addl	$32, %ecx
	sarl	$6, %ecx
.LBB13_103:                             # %cond.end729
                                        #   in Loop: Header=BB13_99 Depth=2
	cmpl	%ecx, %eax
	jge	.LBB13_105
# %bb.104:                              # %cond.true733
                                        #   in Loop: Header=BB13_99 Depth=2
	movq	img, %rax
	movl	72684(%rax), %eax
	jmp	.LBB13_109
.LBB13_105:                             # %cond.false735
                                        #   in Loop: Header=BB13_99 Depth=2
	xorl	%eax, %eax
	movslq	-12(%rbp), %rcx
	movl	-96(%rbp,%rcx,4), %ecx
	movslq	-20(%rbp), %rdx
	addl	-96(%rbp,%rdx,4), %ecx
	addl	$32, %ecx
	sarl	$6, %ecx
	cmpl	%ecx, %eax
	jle	.LBB13_107
# %bb.106:                              # %cond.true745
                                        #   in Loop: Header=BB13_99 Depth=2
	xorl	%eax, %eax
	jmp	.LBB13_108
.LBB13_107:                             # %cond.false746
                                        #   in Loop: Header=BB13_99 Depth=2
	movslq	-12(%rbp), %rax
	movl	-96(%rbp,%rax,4), %eax
	movslq	-20(%rbp), %rcx
	addl	-96(%rbp,%rcx,4), %eax
	addl	$32, %eax
	sarl	$6, %eax
.LBB13_108:                             # %cond.end754
                                        #   in Loop: Header=BB13_99 Depth=2
.LBB13_109:                             # %cond.end756
                                        #   in Loop: Header=BB13_99 Depth=2
	xorl	%ecx, %ecx
	movq	img, %rdx
	addq	$13112, %rdx            # imm = 0x3338
	movslq	-16(%rbp), %rsi
	shlq	$6, %rsi
	addq	%rsi, %rdx
	movslq	-12(%rbp), %rsi
	movl	%eax, (%rdx,%rsi,4)
	movq	img, %rax
	movl	72684(%rax), %eax
	movslq	-12(%rbp), %rdx
	movl	-96(%rbp,%rdx,4), %edx
	movslq	-20(%rbp), %rsi
	subl	-96(%rbp,%rsi,4), %edx
	addl	$32, %edx
	sarl	$6, %edx
	cmpl	%edx, %ecx
	jle	.LBB13_111
# %bb.110:                              # %cond.true773
                                        #   in Loop: Header=BB13_99 Depth=2
	xorl	%ecx, %ecx
	jmp	.LBB13_112
.LBB13_111:                             # %cond.false774
                                        #   in Loop: Header=BB13_99 Depth=2
	movslq	-12(%rbp), %rcx
	movl	-96(%rbp,%rcx,4), %ecx
	movslq	-20(%rbp), %rdx
	subl	-96(%rbp,%rdx,4), %ecx
	addl	$32, %ecx
	sarl	$6, %ecx
.LBB13_112:                             # %cond.end782
                                        #   in Loop: Header=BB13_99 Depth=2
	cmpl	%ecx, %eax
	jge	.LBB13_114
# %bb.113:                              # %cond.true786
                                        #   in Loop: Header=BB13_99 Depth=2
	movq	img, %rax
	movl	72684(%rax), %eax
	jmp	.LBB13_118
.LBB13_114:                             # %cond.false788
                                        #   in Loop: Header=BB13_99 Depth=2
	xorl	%eax, %eax
	movslq	-12(%rbp), %rcx
	movl	-96(%rbp,%rcx,4), %ecx
	movslq	-20(%rbp), %rdx
	subl	-96(%rbp,%rdx,4), %ecx
	addl	$32, %ecx
	sarl	$6, %ecx
	cmpl	%ecx, %eax
	jle	.LBB13_116
# %bb.115:                              # %cond.true798
                                        #   in Loop: Header=BB13_99 Depth=2
	xorl	%eax, %eax
	jmp	.LBB13_117
.LBB13_116:                             # %cond.false799
                                        #   in Loop: Header=BB13_99 Depth=2
	movslq	-12(%rbp), %rax
	movl	-96(%rbp,%rax,4), %eax
	movslq	-20(%rbp), %rcx
	subl	-96(%rbp,%rcx,4), %eax
	addl	$32, %eax
	sarl	$6, %eax
.LBB13_117:                             # %cond.end807
                                        #   in Loop: Header=BB13_99 Depth=2
.LBB13_118:                             # %cond.end809
                                        #   in Loop: Header=BB13_99 Depth=2
	movq	img, %rcx
	addq	$13112, %rcx            # imm = 0x3338
	movslq	-16(%rbp), %rdx
	shlq	$6, %rdx
	addq	%rdx, %rcx
	movslq	-20(%rbp), %rdx
	movl	%eax, (%rcx,%rdx,4)
# %bb.119:                              # %for.inc816
                                        #   in Loop: Header=BB13_99 Depth=2
	movl	-12(%rbp), %eax
	addl	$1, %eax
	movl	%eax, -12(%rbp)
	jmp	.LBB13_99
.LBB13_120:                             # %for.end818
                                        #   in Loop: Header=BB13_93 Depth=1
	jmp	.LBB13_121
.LBB13_121:                             # %for.inc819
                                        #   in Loop: Header=BB13_93 Depth=1
	movl	-16(%rbp), %eax
	addl	$1, %eax
	movl	%eax, -16(%rbp)
	jmp	.LBB13_93
.LBB13_122:                             # %for.end821
	movl	$0, -12(%rbp)
.LBB13_123:                             # %for.cond822
                                        # =>This Loop Header: Depth=1
                                        #     Child Loop BB13_125 Depth 2
	cmpl	$4, -12(%rbp)
	jge	.LBB13_130
# %bb.124:                              # %for.body825
                                        #   in Loop: Header=BB13_123 Depth=1
	movl	$0, -16(%rbp)
.LBB13_125:                             # %for.cond826
                                        #   Parent Loop BB13_123 Depth=1
                                        # =>  This Inner Loop Header: Depth=2
	cmpl	$4, -16(%rbp)
	jge	.LBB13_128
# %bb.126:                              # %for.body829
                                        #   in Loop: Header=BB13_125 Depth=2
	movq	img, %rax
	addq	$13112, %rax            # imm = 0x3338
	movslq	-16(%rbp), %rcx
	shlq	$6, %rcx
	addq	%rcx, %rax
	movslq	-12(%rbp), %rcx
	movl	(%rax,%rcx,4), %eax
	movq	enc_picture, %rcx
	movq	6424(%rcx), %rcx
	movq	img, %rdx
	movl	156(%rdx), %edx
	addl	-116(%rbp), %edx
	addl	-12(%rbp), %edx
	movslq	%edx, %rdx
	movq	(%rcx,%rdx,8), %rcx
	movq	img, %rdx
	movl	152(%rdx), %edx
	addl	-140(%rbp), %edx
	addl	-16(%rbp), %edx
	movslq	%edx, %rdx
	movw	%ax, (%rcx,%rdx,2)
# %bb.127:                              # %for.inc844
                                        #   in Loop: Header=BB13_125 Depth=2
	movl	-16(%rbp), %eax
	addl	$1, %eax
	movl	%eax, -16(%rbp)
	jmp	.LBB13_125
.LBB13_128:                             # %for.end846
                                        #   in Loop: Header=BB13_123 Depth=1
	jmp	.LBB13_129
.LBB13_129:                             # %for.inc847
                                        #   in Loop: Header=BB13_123 Depth=1
	movl	-12(%rbp), %eax
	addl	$1, %eax
	movl	%eax, -12(%rbp)
	jmp	.LBB13_123
.LBB13_130:                             # %for.end849
	movl	-188(%rbp), %ebx
	cmpl	$57285010, -212(%rbp)   # imm = 0x36A1992
	jne	.LBB13_132
.LBB13_131:
	movl	%ebx, %eax
	addq	$312, %rsp              # imm = 0x138
	popq	%rbx
	popq	%rbp
	.cfi_def_cfa %rsp, 8
	retq
.LBB13_132:                             # %func_exit
	.cfi_def_cfa %rbp, 16
	callq	detect_breach
	jmp	.LBB13_131
.Lfunc_end13:
	.size	dct_luma_sp.4, .Lfunc_end13-dct_luma_sp.4
	.cfi_endproc
                                        # -- End function
	.globl	dct_luma_16x16.5        # -- Begin function dct_luma_16x16.5
	.p2align	4, 0x90
	.type	dct_luma_16x16.5,@function
dct_luma_16x16.5:                       # @dct_luma_16x16.5
	.cfi_startproc
# %bb.0:                                # %entry
	pushq	%rbp
	.cfi_def_cfa_offset 16
	.cfi_offset %rbp, -16
	movq	%rsp, %rbp
	.cfi_def_cfa_register %rbp
	pushq	%rbx
	subq	$2280, %rsp             # imm = 0x8E8
	.cfi_offset %rbx, -24
	xorl	%eax, %eax
	movl	$829566133, -132(%rbp)  # imm = 0x31722CB5
	movl	%edi, -104(%rbp)
	movl	$0, -120(%rbp)
	movq	img, %rcx
	movq	14168(%rcx), %rcx
	movq	img, %rdx
	movslq	12(%rdx), %rdx
	imulq	$632, %rdx, %rdx        # imm = 0x278
	addq	%rdx, %rcx
	movq	%rcx, -128(%rbp)
	movq	img, %rcx
	movq	14144(%rcx), %rcx
	movq	(%rcx), %rcx
	movq	(%rcx), %rcx
	movq	%rcx, -144(%rbp)
	movq	img, %rcx
	movq	14144(%rcx), %rcx
	movq	(%rcx), %rcx
	movq	8(%rcx), %rcx
	movq	%rcx, -232(%rbp)
	movq	-128(%rbp), %rcx
	movl	12(%rcx), %ecx
	movq	img, %rdx
	addl	72668(%rdx), %ecx
	cmpl	$0, %ecx
	jne	.LBB14_2
# %bb.1:                                # %land.rhs
	movq	img, %rax
	cmpl	$1, 72704(%rax)
	sete	%al
.LBB14_2:                               # %land.end
	andb	$1, %al
	movzbl	%al, %eax
	movl	%eax, -72(%rbp)
	movq	-128(%rbp), %rax
	movl	12(%rax), %eax
	movq	img, %rcx
	addl	72668(%rcx), %eax
	subl	$0, %eax
	cltd
	movl	$6, %ecx
	idivl	%ecx
	movl	%eax, -64(%rbp)
	movq	-128(%rbp), %rax
	movl	12(%rax), %eax
	movq	img, %rdx
	addl	72668(%rdx), %eax
	subl	$0, %eax
	cltd
	idivl	%ecx
	movl	%edx, -100(%rbp)
	movl	-64(%rbp), %eax
	addl	$15, %eax
	movl	%eax, -112(%rbp)
	movl	$0, -12(%rbp)
.LBB14_3:                               # %for.cond
                                        # =>This Loop Header: Depth=1
                                        #     Child Loop BB14_5 Depth 2
	cmpl	$16, -12(%rbp)
	jge	.LBB14_13
# %bb.4:                                # %for.body
                                        #   in Loop: Header=BB14_3 Depth=1
	movl	$0, -16(%rbp)
.LBB14_5:                               # %for.cond16
                                        #   Parent Loop BB14_3 Depth=1
                                        # =>  This Inner Loop Header: Depth=2
	cmpl	$16, -16(%rbp)
	jge	.LBB14_11
# %bb.6:                                # %for.body18
                                        #   in Loop: Header=BB14_5 Depth=2
	movq	img, %rax
	cmpl	$0, 72724(%rax)
	jne	.LBB14_8
# %bb.7:                                # %if.then
                                        #   in Loop: Header=BB14_5 Depth=2
	movq	imgY_org, %rax
	movq	img, %rcx
	movl	172(%rcx), %ecx
	addl	-12(%rbp), %ecx
	movslq	%ecx, %rcx
	movq	(%rax,%rcx,8), %rax
	movq	img, %rcx
	movl	168(%rcx), %ecx
	addl	-16(%rbp), %ecx
	movslq	%ecx, %rcx
	movzwl	(%rax,%rcx,2), %eax
	movq	img, %rcx
	addq	$4792, %rcx             # imm = 0x12B8
	movslq	-104(%rbp), %rdx
	shlq	$9, %rdx
	addq	%rdx, %rcx
	movslq	-12(%rbp), %rdx
	shlq	$5, %rdx
	addq	%rdx, %rcx
	movslq	-16(%rbp), %rdx
	movzwl	(%rcx,%rdx,2), %ecx
	subl	%ecx, %eax
	movslq	-16(%rbp), %rcx
	shlq	$6, %rcx
	leaq	-2288(%rbp), %rdx
	addq	%rcx, %rdx
	movslq	-12(%rbp), %rcx
	movl	%eax, (%rdx,%rcx,4)
	jmp	.LBB14_9
.LBB14_8:                               # %if.else
                                        #   in Loop: Header=BB14_5 Depth=2
	movq	img, %rax
	addq	$13112, %rax            # imm = 0x3338
	movslq	-16(%rbp), %rcx
	shlq	$6, %rcx
	addq	%rcx, %rax
	movslq	-12(%rbp), %rcx
	movl	(%rax,%rcx,4), %eax
	movslq	-16(%rbp), %rcx
	shlq	$6, %rcx
	leaq	-2288(%rbp), %rdx
	addq	%rcx, %rdx
	movslq	-12(%rbp), %rcx
	movl	%eax, (%rdx,%rcx,4)
.LBB14_9:                               # %if.end
                                        #   in Loop: Header=BB14_5 Depth=2
	movslq	-16(%rbp), %rax
	shlq	$6, %rax
	leaq	-2288(%rbp), %rcx
	addq	%rax, %rcx
	movslq	-12(%rbp), %rax
	movl	(%rcx,%rax,4), %ecx
	movl	-16(%rbp), %eax
	cltd
	movl	$4, %esi
	idivl	%esi
	movslq	%edx, %rax
	shlq	$8, %rax
	leaq	-1264(%rbp), %rdi
	addq	%rax, %rdi
	movl	-16(%rbp), %eax
	cltd
	idivl	%esi
	cltq
	shlq	$6, %rax
	addq	%rax, %rdi
	movl	-12(%rbp), %eax
	cltd
	idivl	%esi
	movslq	%edx, %rax
	shlq	$4, %rax
	addq	%rax, %rdi
	movl	-12(%rbp), %eax
	cltd
	idivl	%esi
	cltq
	movl	%ecx, (%rdi,%rax,4)
# %bb.10:                               # %for.inc
                                        #   in Loop: Header=BB14_5 Depth=2
	movl	-16(%rbp), %eax
	addl	$1, %eax
	movl	%eax, -16(%rbp)
	jmp	.LBB14_5
.LBB14_11:                              # %for.end
                                        #   in Loop: Header=BB14_3 Depth=1
	jmp	.LBB14_12
.LBB14_12:                              # %for.inc61
                                        #   in Loop: Header=BB14_3 Depth=1
	movl	-12(%rbp), %eax
	addl	$1, %eax
	movl	%eax, -12(%rbp)
	jmp	.LBB14_3
.LBB14_13:                              # %for.end63
	movl	$0, -24(%rbp)
.LBB14_14:                              # %for.cond64
                                        # =>This Loop Header: Depth=1
                                        #     Child Loop BB14_18 Depth 2
                                        #       Child Loop BB14_20 Depth 3
                                        #         Child Loop BB14_22 Depth 4
                                        #       Child Loop BB14_28 Depth 3
                                        #         Child Loop BB14_30 Depth 4
	xorl	%eax, %eax
	cmpl	$4, -24(%rbp)
	jge	.LBB14_16
# %bb.15:                               # %land.rhs67
                                        #   in Loop: Header=BB14_14 Depth=1
	cmpl	$0, -72(%rbp)
	setne	%al
	xorb	$-1, %al
.LBB14_16:                              # %land.end69
                                        #   in Loop: Header=BB14_14 Depth=1
	testb	$1, %al
	jne	.LBB14_17
	jmp	.LBB14_39
.LBB14_17:                              # %for.body71
                                        #   in Loop: Header=BB14_14 Depth=1
	movl	$0, -20(%rbp)
.LBB14_18:                              # %for.cond72
                                        #   Parent Loop BB14_14 Depth=1
                                        # =>  This Loop Header: Depth=2
                                        #       Child Loop BB14_20 Depth 3
                                        #         Child Loop BB14_22 Depth 4
                                        #       Child Loop BB14_28 Depth 3
                                        #         Child Loop BB14_30 Depth 4
	cmpl	$4, -20(%rbp)
	jge	.LBB14_37
# %bb.19:                               # %for.body75
                                        #   in Loop: Header=BB14_18 Depth=2
	movl	$0, -12(%rbp)
.LBB14_20:                              # %for.cond76
                                        #   Parent Loop BB14_14 Depth=1
                                        #     Parent Loop BB14_18 Depth=2
                                        # =>    This Loop Header: Depth=3
                                        #         Child Loop BB14_22 Depth 4
	cmpl	$4, -12(%rbp)
	jge	.LBB14_27
# %bb.21:                               # %for.body79
                                        #   in Loop: Header=BB14_20 Depth=3
	movl	$0, -16(%rbp)
.LBB14_22:                              # %for.cond80
                                        #   Parent Loop BB14_14 Depth=1
                                        #     Parent Loop BB14_18 Depth=2
                                        #       Parent Loop BB14_20 Depth=3
                                        # =>      This Inner Loop Header: Depth=4
	cmpl	$2, -16(%rbp)
	jge	.LBB14_25
# %bb.23:                               # %for.body83
                                        #   in Loop: Header=BB14_22 Depth=4
	movl	$3, %eax
	subl	-16(%rbp), %eax
	movl	%eax, -56(%rbp)
	movslq	-16(%rbp), %rcx
	shlq	$8, %rcx
	leaq	-1264(%rbp), %rax
	movq	%rax, %rdx
	addq	%rcx, %rdx
	movslq	-20(%rbp), %rcx
	shlq	$6, %rcx
	addq	%rcx, %rdx
	movslq	-12(%rbp), %rcx
	shlq	$4, %rcx
	addq	%rcx, %rdx
	movslq	-24(%rbp), %rcx
	movl	(%rdx,%rcx,4), %ecx
	movslq	-56(%rbp), %rdx
	shlq	$8, %rdx
	movq	%rax, %rsi
	addq	%rdx, %rsi
	movslq	-20(%rbp), %rdx
	shlq	$6, %rdx
	addq	%rdx, %rsi
	movslq	-12(%rbp), %rdx
	shlq	$4, %rdx
	addq	%rdx, %rsi
	movslq	-24(%rbp), %rdx
	addl	(%rsi,%rdx,4), %ecx
	movslq	-16(%rbp), %rdx
	movl	%ecx, -48(%rbp,%rdx,4)
	movslq	-16(%rbp), %rcx
	shlq	$8, %rcx
	movq	%rax, %rdx
	addq	%rcx, %rdx
	movslq	-20(%rbp), %rcx
	shlq	$6, %rcx
	addq	%rcx, %rdx
	movslq	-12(%rbp), %rcx
	shlq	$4, %rcx
	addq	%rcx, %rdx
	movslq	-24(%rbp), %rcx
	movl	(%rdx,%rcx,4), %ecx
	movslq	-56(%rbp), %rdx
	shlq	$8, %rdx
	addq	%rdx, %rax
	movslq	-20(%rbp), %rdx
	shlq	$6, %rdx
	addq	%rdx, %rax
	movslq	-12(%rbp), %rdx
	shlq	$4, %rdx
	addq	%rdx, %rax
	movslq	-24(%rbp), %rdx
	subl	(%rax,%rdx,4), %ecx
	movslq	-56(%rbp), %rax
	movl	%ecx, -48(%rbp,%rax,4)
# %bb.24:                               # %for.inc123
                                        #   in Loop: Header=BB14_22 Depth=4
	movl	-16(%rbp), %eax
	addl	$1, %eax
	movl	%eax, -16(%rbp)
	jmp	.LBB14_22
.LBB14_25:                              # %for.end125
                                        #   in Loop: Header=BB14_20 Depth=3
	leaq	-1264(%rbp), %rax
	movl	-48(%rbp), %ecx
	addl	-44(%rbp), %ecx
	movslq	-20(%rbp), %rdx
	shlq	$6, %rdx
	movq	%rax, %rsi
	addq	%rdx, %rsi
	movslq	-12(%rbp), %rdx
	shlq	$4, %rdx
	addq	%rdx, %rsi
	movslq	-24(%rbp), %rdx
	movl	%ecx, (%rsi,%rdx,4)
	movl	-48(%rbp), %ecx
	subl	-44(%rbp), %ecx
	movq	%rax, %rdx
	addq	$512, %rdx              # imm = 0x200
	movslq	-20(%rbp), %rsi
	shlq	$6, %rsi
	addq	%rsi, %rdx
	movslq	-12(%rbp), %rsi
	shlq	$4, %rsi
	addq	%rsi, %rdx
	movslq	-24(%rbp), %rsi
	movl	%ecx, (%rdx,%rsi,4)
	movl	-36(%rbp), %ecx
	shll	$1, %ecx
	addl	-40(%rbp), %ecx
	movq	%rax, %rdx
	addq	$256, %rdx              # imm = 0x100
	movslq	-20(%rbp), %rsi
	shlq	$6, %rsi
	addq	%rsi, %rdx
	movslq	-12(%rbp), %rsi
	shlq	$4, %rsi
	addq	%rsi, %rdx
	movslq	-24(%rbp), %rsi
	movl	%ecx, (%rdx,%rsi,4)
	movl	-36(%rbp), %ecx
	movl	-40(%rbp), %edx
	shll	$1, %edx
	subl	%edx, %ecx
	addq	$768, %rax              # imm = 0x300
	movslq	-20(%rbp), %rdx
	shlq	$6, %rdx
	addq	%rdx, %rax
	movslq	-12(%rbp), %rdx
	shlq	$4, %rdx
	addq	%rdx, %rax
	movslq	-24(%rbp), %rdx
	movl	%ecx, (%rax,%rdx,4)
# %bb.26:                               # %for.inc167
                                        #   in Loop: Header=BB14_20 Depth=3
	movl	-12(%rbp), %eax
	addl	$1, %eax
	movl	%eax, -12(%rbp)
	jmp	.LBB14_20
.LBB14_27:                              # %for.end169
                                        #   in Loop: Header=BB14_18 Depth=2
	movl	$0, -16(%rbp)
.LBB14_28:                              # %for.cond170
                                        #   Parent Loop BB14_14 Depth=1
                                        #     Parent Loop BB14_18 Depth=2
                                        # =>    This Loop Header: Depth=3
                                        #         Child Loop BB14_30 Depth 4
	cmpl	$4, -16(%rbp)
	jge	.LBB14_35
# %bb.29:                               # %for.body173
                                        #   in Loop: Header=BB14_28 Depth=3
	movl	$0, -12(%rbp)
.LBB14_30:                              # %for.cond174
                                        #   Parent Loop BB14_14 Depth=1
                                        #     Parent Loop BB14_18 Depth=2
                                        #       Parent Loop BB14_28 Depth=3
                                        # =>      This Inner Loop Header: Depth=4
	cmpl	$2, -12(%rbp)
	jge	.LBB14_33
# %bb.31:                               # %for.body177
                                        #   in Loop: Header=BB14_30 Depth=4
	movl	$3, %eax
	subl	-12(%rbp), %eax
	movl	%eax, -52(%rbp)
	movslq	-16(%rbp), %rcx
	shlq	$8, %rcx
	leaq	-1264(%rbp), %rax
	movq	%rax, %rdx
	addq	%rcx, %rdx
	movslq	-20(%rbp), %rcx
	shlq	$6, %rcx
	addq	%rcx, %rdx
	movslq	-12(%rbp), %rcx
	shlq	$4, %rcx
	addq	%rcx, %rdx
	movslq	-24(%rbp), %rcx
	movl	(%rdx,%rcx,4), %ecx
	movslq	-16(%rbp), %rdx
	shlq	$8, %rdx
	movq	%rax, %rsi
	addq	%rdx, %rsi
	movslq	-20(%rbp), %rdx
	shlq	$6, %rdx
	addq	%rdx, %rsi
	movslq	-52(%rbp), %rdx
	shlq	$4, %rdx
	addq	%rdx, %rsi
	movslq	-24(%rbp), %rdx
	addl	(%rsi,%rdx,4), %ecx
	movslq	-12(%rbp), %rdx
	movl	%ecx, -48(%rbp,%rdx,4)
	movslq	-16(%rbp), %rcx
	shlq	$8, %rcx
	movq	%rax, %rdx
	addq	%rcx, %rdx
	movslq	-20(%rbp), %rcx
	shlq	$6, %rcx
	addq	%rcx, %rdx
	movslq	-12(%rbp), %rcx
	shlq	$4, %rcx
	addq	%rcx, %rdx
	movslq	-24(%rbp), %rcx
	movl	(%rdx,%rcx,4), %ecx
	movslq	-16(%rbp), %rdx
	shlq	$8, %rdx
	addq	%rdx, %rax
	movslq	-20(%rbp), %rdx
	shlq	$6, %rdx
	addq	%rdx, %rax
	movslq	-52(%rbp), %rdx
	shlq	$4, %rdx
	addq	%rdx, %rax
	movslq	-24(%rbp), %rdx
	subl	(%rax,%rdx,4), %ecx
	movslq	-52(%rbp), %rax
	movl	%ecx, -48(%rbp,%rax,4)
# %bb.32:                               # %for.inc217
                                        #   in Loop: Header=BB14_30 Depth=4
	movl	-12(%rbp), %eax
	addl	$1, %eax
	movl	%eax, -12(%rbp)
	jmp	.LBB14_30
.LBB14_33:                              # %for.end219
                                        #   in Loop: Header=BB14_28 Depth=3
	movl	-48(%rbp), %ecx
	addl	-44(%rbp), %ecx
	movslq	-16(%rbp), %rdx
	shlq	$8, %rdx
	leaq	-1264(%rbp), %rax
	movq	%rax, %rsi
	addq	%rdx, %rsi
	movslq	-20(%rbp), %rdx
	shlq	$6, %rdx
	addq	%rdx, %rsi
	movslq	-24(%rbp), %rdx
	movl	%ecx, (%rsi,%rdx,4)
	movl	-48(%rbp), %ecx
	subl	-44(%rbp), %ecx
	movslq	-16(%rbp), %rdx
	shlq	$8, %rdx
	movq	%rax, %rsi
	addq	%rdx, %rsi
	movslq	-20(%rbp), %rdx
	shlq	$6, %rdx
	addq	%rdx, %rsi
	movslq	-24(%rbp), %rdx
	movl	%ecx, 32(%rsi,%rdx,4)
	movl	-36(%rbp), %ecx
	shll	$1, %ecx
	addl	-40(%rbp), %ecx
	movslq	-16(%rbp), %rdx
	shlq	$8, %rdx
	movq	%rax, %rsi
	addq	%rdx, %rsi
	movslq	-20(%rbp), %rdx
	shlq	$6, %rdx
	addq	%rdx, %rsi
	movslq	-24(%rbp), %rdx
	movl	%ecx, 16(%rsi,%rdx,4)
	movl	-36(%rbp), %ecx
	movl	-40(%rbp), %edx
	shll	$1, %edx
	subl	%edx, %ecx
	movslq	-16(%rbp), %rdx
	shlq	$8, %rdx
	addq	%rdx, %rax
	movslq	-20(%rbp), %rdx
	shlq	$6, %rdx
	addq	%rdx, %rax
	movslq	-24(%rbp), %rdx
	movl	%ecx, 48(%rax,%rdx,4)
# %bb.34:                               # %for.inc262
                                        #   in Loop: Header=BB14_28 Depth=3
	movl	-16(%rbp), %eax
	addl	$1, %eax
	movl	%eax, -16(%rbp)
	jmp	.LBB14_28
.LBB14_35:                              # %for.end264
                                        #   in Loop: Header=BB14_18 Depth=2
	jmp	.LBB14_36
.LBB14_36:                              # %for.inc265
                                        #   in Loop: Header=BB14_18 Depth=2
	movl	-20(%rbp), %eax
	addl	$1, %eax
	movl	%eax, -20(%rbp)
	jmp	.LBB14_18
.LBB14_37:                              # %for.end267
                                        #   in Loop: Header=BB14_14 Depth=1
	jmp	.LBB14_38
.LBB14_38:                              # %for.inc268
                                        #   in Loop: Header=BB14_14 Depth=1
	movl	-24(%rbp), %eax
	addl	$1, %eax
	movl	%eax, -24(%rbp)
	jmp	.LBB14_14
.LBB14_39:                              # %for.end270
	movl	$0, -12(%rbp)
.LBB14_40:                              # %for.cond271
                                        # =>This Loop Header: Depth=1
                                        #     Child Loop BB14_42 Depth 2
	cmpl	$4, -12(%rbp)
	jge	.LBB14_47
# %bb.41:                               # %for.body274
                                        #   in Loop: Header=BB14_40 Depth=1
	movl	$0, -16(%rbp)
.LBB14_42:                              # %for.cond275
                                        #   Parent Loop BB14_40 Depth=1
                                        # =>  This Inner Loop Header: Depth=2
	cmpl	$4, -16(%rbp)
	jge	.LBB14_45
# %bb.43:                               # %for.body278
                                        #   in Loop: Header=BB14_42 Depth=2
	leaq	-1264(%rbp), %rax
	movslq	-16(%rbp), %rcx
	shlq	$6, %rcx
	addq	%rcx, %rax
	movslq	-12(%rbp), %rcx
	movl	(%rax,%rcx,4), %eax
	movslq	-16(%rbp), %rcx
	shlq	$4, %rcx
	leaq	-224(%rbp), %rdx
	addq	%rcx, %rdx
	movslq	-12(%rbp), %rcx
	movl	%eax, (%rdx,%rcx,4)
# %bb.44:                               # %for.inc289
                                        #   in Loop: Header=BB14_42 Depth=2
	movl	-16(%rbp), %eax
	addl	$1, %eax
	movl	%eax, -16(%rbp)
	jmp	.LBB14_42
.LBB14_45:                              # %for.end291
                                        #   in Loop: Header=BB14_40 Depth=1
	jmp	.LBB14_46
.LBB14_46:                              # %for.inc292
                                        #   in Loop: Header=BB14_40 Depth=1
	movl	-12(%rbp), %eax
	addl	$1, %eax
	movl	%eax, -12(%rbp)
	jmp	.LBB14_40
.LBB14_47:                              # %for.end294
	movl	$0, -12(%rbp)
.LBB14_48:                              # %for.cond295
                                        # =>This Loop Header: Depth=1
                                        #     Child Loop BB14_52 Depth 2
	xorl	%eax, %eax
	cmpl	$4, -12(%rbp)
	jge	.LBB14_50
# %bb.49:                               # %land.rhs298
                                        #   in Loop: Header=BB14_48 Depth=1
	cmpl	$0, -72(%rbp)
	setne	%al
	xorb	$-1, %al
.LBB14_50:                              # %land.end301
                                        #   in Loop: Header=BB14_48 Depth=1
	testb	$1, %al
	jne	.LBB14_51
	jmp	.LBB14_57
.LBB14_51:                              # %for.body303
                                        #   in Loop: Header=BB14_48 Depth=1
	movl	$0, -16(%rbp)
.LBB14_52:                              # %for.cond304
                                        #   Parent Loop BB14_48 Depth=1
                                        # =>  This Inner Loop Header: Depth=2
	cmpl	$2, -16(%rbp)
	jge	.LBB14_55
# %bb.53:                               # %for.body307
                                        #   in Loop: Header=BB14_52 Depth=2
	movl	$3, %eax
	subl	-16(%rbp), %eax
	movl	%eax, -56(%rbp)
	movslq	-16(%rbp), %rax
	shlq	$4, %rax
	leaq	-224(%rbp), %rcx
	movq	%rcx, %rdx
	addq	%rax, %rdx
	movslq	-12(%rbp), %rax
	movl	(%rdx,%rax,4), %eax
	movslq	-56(%rbp), %rdx
	shlq	$4, %rdx
	movq	%rcx, %rsi
	addq	%rdx, %rsi
	movslq	-12(%rbp), %rdx
	addl	(%rsi,%rdx,4), %eax
	movslq	-16(%rbp), %rdx
	movl	%eax, -48(%rbp,%rdx,4)
	movslq	-16(%rbp), %rax
	shlq	$4, %rax
	movq	%rcx, %rdx
	addq	%rax, %rdx
	movslq	-12(%rbp), %rax
	movl	(%rdx,%rax,4), %eax
	movslq	-56(%rbp), %rdx
	shlq	$4, %rdx
	addq	%rdx, %rcx
	movslq	-12(%rbp), %rdx
	subl	(%rcx,%rdx,4), %eax
	movslq	-56(%rbp), %rcx
	movl	%eax, -48(%rbp,%rcx,4)
# %bb.54:                               # %for.inc331
                                        #   in Loop: Header=BB14_52 Depth=2
	movl	-16(%rbp), %eax
	addl	$1, %eax
	movl	%eax, -16(%rbp)
	jmp	.LBB14_52
.LBB14_55:                              # %for.end333
                                        #   in Loop: Header=BB14_48 Depth=1
	movl	-48(%rbp), %eax
	addl	-44(%rbp), %eax
	movslq	-12(%rbp), %rcx
	movl	%eax, -224(%rbp,%rcx,4)
	movl	-48(%rbp), %eax
	subl	-44(%rbp), %eax
	movslq	-12(%rbp), %rcx
	movl	%eax, -192(%rbp,%rcx,4)
	movl	-36(%rbp), %eax
	addl	-40(%rbp), %eax
	movslq	-12(%rbp), %rcx
	movl	%eax, -208(%rbp,%rcx,4)
	movl	-36(%rbp), %eax
	subl	-40(%rbp), %eax
	movslq	-12(%rbp), %rcx
	movl	%eax, -176(%rbp,%rcx,4)
# %bb.56:                               # %for.inc358
                                        #   in Loop: Header=BB14_48 Depth=1
	movl	-12(%rbp), %eax
	addl	$1, %eax
	movl	%eax, -12(%rbp)
	jmp	.LBB14_48
.LBB14_57:                              # %for.end360
	movl	$0, -16(%rbp)
.LBB14_58:                              # %for.cond361
                                        # =>This Loop Header: Depth=1
                                        #     Child Loop BB14_62 Depth 2
	xorl	%eax, %eax
	cmpl	$4, -16(%rbp)
	jge	.LBB14_60
# %bb.59:                               # %land.rhs364
                                        #   in Loop: Header=BB14_58 Depth=1
	cmpl	$0, -72(%rbp)
	setne	%al
	xorb	$-1, %al
.LBB14_60:                              # %land.end367
                                        #   in Loop: Header=BB14_58 Depth=1
	testb	$1, %al
	jne	.LBB14_61
	jmp	.LBB14_67
.LBB14_61:                              # %for.body369
                                        #   in Loop: Header=BB14_58 Depth=1
	movl	$0, -12(%rbp)
.LBB14_62:                              # %for.cond370
                                        #   Parent Loop BB14_58 Depth=1
                                        # =>  This Inner Loop Header: Depth=2
	cmpl	$2, -12(%rbp)
	jge	.LBB14_65
# %bb.63:                               # %for.body373
                                        #   in Loop: Header=BB14_62 Depth=2
	movl	$3, %eax
	subl	-12(%rbp), %eax
	movl	%eax, -52(%rbp)
	movslq	-16(%rbp), %rax
	shlq	$4, %rax
	leaq	-224(%rbp), %rcx
	movq	%rcx, %rdx
	addq	%rax, %rdx
	movslq	-12(%rbp), %rax
	movl	(%rdx,%rax,4), %eax
	movslq	-16(%rbp), %rdx
	shlq	$4, %rdx
	movq	%rcx, %rsi
	addq	%rdx, %rsi
	movslq	-52(%rbp), %rdx
	addl	(%rsi,%rdx,4), %eax
	movslq	-12(%rbp), %rdx
	movl	%eax, -48(%rbp,%rdx,4)
	movslq	-16(%rbp), %rax
	shlq	$4, %rax
	movq	%rcx, %rdx
	addq	%rax, %rdx
	movslq	-12(%rbp), %rax
	movl	(%rdx,%rax,4), %eax
	movslq	-16(%rbp), %rdx
	shlq	$4, %rdx
	addq	%rdx, %rcx
	movslq	-52(%rbp), %rdx
	subl	(%rcx,%rdx,4), %eax
	movslq	-52(%rbp), %rcx
	movl	%eax, -48(%rbp,%rcx,4)
# %bb.64:                               # %for.inc397
                                        #   in Loop: Header=BB14_62 Depth=2
	movl	-12(%rbp), %eax
	addl	$1, %eax
	movl	%eax, -12(%rbp)
	jmp	.LBB14_62
.LBB14_65:                              # %for.end399
                                        #   in Loop: Header=BB14_58 Depth=1
	movl	-48(%rbp), %ecx
	addl	-44(%rbp), %ecx
	sarl	$1, %ecx
	movslq	-16(%rbp), %rdx
	shlq	$4, %rdx
	leaq	-224(%rbp), %rax
	movq	%rax, %rsi
	addq	%rdx, %rsi
	movl	%ecx, (%rsi)
	movl	-48(%rbp), %ecx
	subl	-44(%rbp), %ecx
	sarl	$1, %ecx
	movslq	-16(%rbp), %rdx
	shlq	$4, %rdx
	movq	%rax, %rsi
	addq	%rdx, %rsi
	movl	%ecx, 8(%rsi)
	movl	-36(%rbp), %ecx
	addl	-40(%rbp), %ecx
	sarl	$1, %ecx
	movslq	-16(%rbp), %rdx
	shlq	$4, %rdx
	movq	%rax, %rsi
	addq	%rdx, %rsi
	movl	%ecx, 4(%rsi)
	movl	-36(%rbp), %ecx
	subl	-40(%rbp), %ecx
	sarl	$1, %ecx
	movslq	-16(%rbp), %rdx
	shlq	$4, %rdx
	addq	%rdx, %rax
	movl	%ecx, 12(%rax)
# %bb.66:                               # %for.inc427
                                        #   in Loop: Header=BB14_58 Depth=1
	movl	-16(%rbp), %eax
	addl	$1, %eax
	movl	%eax, -16(%rbp)
	jmp	.LBB14_58
.LBB14_67:                              # %for.end429
	movl	$-1, -80(%rbp)
	movl	$0, -76(%rbp)
	movl	$0, -60(%rbp)
.LBB14_68:                              # %for.cond430
                                        # =>This Inner Loop Header: Depth=1
	cmpl	$16, -60(%rbp)
	jge	.LBB14_88
# %bb.69:                               # %for.body433
                                        #   in Loop: Header=BB14_68 Depth=1
	movq	img, %rax
	cmpl	$0, 72444(%rax)
	jne	.LBB14_72
# %bb.70:                               # %lor.lhs.false
                                        #   in Loop: Header=BB14_68 Depth=1
	cmpl	$0, mb_adaptive
	je	.LBB14_73
# %bb.71:                               # %land.lhs.true
                                        #   in Loop: Header=BB14_68 Depth=1
	movq	img, %rax
	cmpl	$0, 72008(%rax)
	je	.LBB14_73
.LBB14_72:                              # %if.then437
                                        #   in Loop: Header=BB14_68 Depth=1
	movslq	-60(%rbp), %rax
	movzbl	FIELD_SCAN(,%rax,2), %eax
	movl	%eax, -16(%rbp)
	movslq	-60(%rbp), %rax
	movzbl	FIELD_SCAN+1(,%rax,2), %eax
	movl	%eax, -12(%rbp)
	jmp	.LBB14_74
.LBB14_73:                              # %if.else446
                                        #   in Loop: Header=BB14_68 Depth=1
	movslq	-60(%rbp), %rax
	movzbl	SNGL_SCAN(,%rax,2), %eax
	movl	%eax, -16(%rbp)
	movslq	-60(%rbp), %rax
	movzbl	SNGL_SCAN+1(,%rax,2), %eax
	movl	%eax, -12(%rbp)
.LBB14_74:                              # %if.end455
                                        #   in Loop: Header=BB14_68 Depth=1
	movl	-80(%rbp), %eax
	addl	$1, %eax
	movl	%eax, -80(%rbp)
	cmpl	$0, -72(%rbp)
	je	.LBB14_76
# %bb.75:                               # %if.then458
                                        #   in Loop: Header=BB14_68 Depth=1
	movslq	-16(%rbp), %rax
	shlq	$4, %rax
	leaq	-224(%rbp), %rcx
	addq	%rax, %rcx
	movslq	-12(%rbp), %rax
	movl	(%rcx,%rax,4), %edi
	callq	abs
	movl	%eax, -68(%rbp)
	jmp	.LBB14_77
.LBB14_76:                              # %if.else463
                                        #   in Loop: Header=BB14_68 Depth=1
	movslq	-16(%rbp), %rax
	shlq	$4, %rax
	leaq	-224(%rbp), %rcx
	addq	%rax, %rcx
	movslq	-12(%rbp), %rax
	movl	(%rcx,%rax,4), %edi
	callq	abs
	movslq	-100(%rbp), %rcx
	shlq	$6, %rcx
	movabsq	$LevelScale4x4Luma_Intra, %rdx
	addq	%rcx, %rdx
	imull	(%rdx), %eax
	movslq	-64(%rbp), %rcx
	shlq	$6, %rcx
	movabsq	$LevelOffset4x4Luma_Intra, %rdx
	addq	%rcx, %rdx
	movl	(%rdx), %ecx
	shll	$1, %ecx
	addl	%ecx, %eax
	movl	-112(%rbp), %ecx
	addl	$1, %ecx
                                        # kill: def $cl killed $ecx
	sarl	%cl, %eax
	movl	%eax, -68(%rbp)
.LBB14_77:                              # %if.end481
                                        #   in Loop: Header=BB14_68 Depth=1
	movq	input, %rax
	cmpl	$0, 2356(%rax)
	jne	.LBB14_82
# %bb.78:                               # %land.lhs.true484
                                        #   in Loop: Header=BB14_68 Depth=1
	movq	img, %rax
	cmpl	$10, 40(%rax)
	jge	.LBB14_82
# %bb.79:                               # %if.then488
                                        #   in Loop: Header=BB14_68 Depth=1
	cmpl	$2063, -68(%rbp)        # imm = 0x80F
	jle	.LBB14_81
# %bb.80:                               # %if.then491
                                        #   in Loop: Header=BB14_68 Depth=1
	movl	$2063, -68(%rbp)        # imm = 0x80F
.LBB14_81:                              # %if.end492
                                        #   in Loop: Header=BB14_68 Depth=1
	jmp	.LBB14_82
.LBB14_82:                              # %if.end493
                                        #   in Loop: Header=BB14_68 Depth=1
	cmpl	$0, -68(%rbp)
	je	.LBB14_84
# %bb.83:                               # %if.then496
                                        #   in Loop: Header=BB14_68 Depth=1
	movl	-68(%rbp), %edi
	movslq	-16(%rbp), %rax
	shlq	$4, %rax
	leaq	-224(%rbp), %rcx
	addq	%rax, %rcx
	movslq	-12(%rbp), %rax
	movl	(%rcx,%rax,4), %esi
	callq	sign
	movq	-144(%rbp), %rcx
	movslq	-76(%rbp), %rdx
	movl	%eax, (%rcx,%rdx,4)
	movl	-80(%rbp), %eax
	movq	-232(%rbp), %rcx
	movslq	-76(%rbp), %rdx
	movl	%eax, (%rcx,%rdx,4)
	movl	-76(%rbp), %eax
	addl	$1, %eax
	movl	%eax, -76(%rbp)
	movl	$-1, -80(%rbp)
.LBB14_84:                              # %if.end507
                                        #   in Loop: Header=BB14_68 Depth=1
	cmpl	$0, -72(%rbp)
	jne	.LBB14_86
# %bb.85:                               # %if.then509
                                        #   in Loop: Header=BB14_68 Depth=1
	movl	-68(%rbp), %edi
	movslq	-16(%rbp), %rax
	shlq	$4, %rax
	leaq	-224(%rbp), %rcx
	addq	%rax, %rcx
	movslq	-12(%rbp), %rax
	movl	(%rcx,%rax,4), %esi
	callq	sign
	movslq	-16(%rbp), %rcx
	shlq	$4, %rcx
	leaq	-224(%rbp), %rdx
	addq	%rcx, %rdx
	movslq	-12(%rbp), %rcx
	movl	%eax, (%rdx,%rcx,4)
.LBB14_86:                              # %if.end519
                                        #   in Loop: Header=BB14_68 Depth=1
	jmp	.LBB14_87
.LBB14_87:                              # %for.inc520
                                        #   in Loop: Header=BB14_68 Depth=1
	movl	-60(%rbp), %eax
	addl	$1, %eax
	movl	%eax, -60(%rbp)
	jmp	.LBB14_68
.LBB14_88:                              # %for.end522
	movq	-144(%rbp), %rax
	movslq	-76(%rbp), %rcx
	movl	$0, (%rax,%rcx,4)
	movl	$0, -12(%rbp)
.LBB14_89:                              # %for.cond525
                                        # =>This Loop Header: Depth=1
                                        #     Child Loop BB14_93 Depth 2
                                        #     Child Loop BB14_97 Depth 2
	xorl	%eax, %eax
	cmpl	$4, -12(%rbp)
	jge	.LBB14_91
# %bb.90:                               # %land.rhs528
                                        #   in Loop: Header=BB14_89 Depth=1
	cmpl	$0, -72(%rbp)
	setne	%al
	xorb	$-1, %al
.LBB14_91:                              # %land.end531
                                        #   in Loop: Header=BB14_89 Depth=1
	testb	$1, %al
	jne	.LBB14_92
	jmp	.LBB14_102
.LBB14_92:                              # %for.body533
                                        #   in Loop: Header=BB14_89 Depth=1
	movl	$0, -16(%rbp)
.LBB14_93:                              # %for.cond534
                                        #   Parent Loop BB14_89 Depth=1
                                        # =>  This Inner Loop Header: Depth=2
	cmpl	$4, -16(%rbp)
	jge	.LBB14_96
# %bb.94:                               # %for.body537
                                        #   in Loop: Header=BB14_93 Depth=2
	movslq	-16(%rbp), %rax
	shlq	$4, %rax
	leaq	-224(%rbp), %rcx
	addq	%rax, %rcx
	movslq	-12(%rbp), %rax
	movl	(%rcx,%rax,4), %eax
	movslq	-16(%rbp), %rcx
	movl	%eax, -48(%rbp,%rcx,4)
# %bb.95:                               # %for.inc544
                                        #   in Loop: Header=BB14_93 Depth=2
	movl	-16(%rbp), %eax
	addl	$1, %eax
	movl	%eax, -16(%rbp)
	jmp	.LBB14_93
.LBB14_96:                              # %for.end546
                                        #   in Loop: Header=BB14_89 Depth=1
	movl	-48(%rbp), %eax
	addl	-40(%rbp), %eax
	movl	%eax, -96(%rbp)
	movl	-48(%rbp), %eax
	subl	-40(%rbp), %eax
	movl	%eax, -92(%rbp)
	movl	-44(%rbp), %eax
	subl	-36(%rbp), %eax
	movl	%eax, -88(%rbp)
	movl	-44(%rbp), %eax
	addl	-36(%rbp), %eax
	movl	%eax, -84(%rbp)
	movl	$0, -16(%rbp)
.LBB14_97:                              # %for.cond563
                                        #   Parent Loop BB14_89 Depth=1
                                        # =>  This Inner Loop Header: Depth=2
	cmpl	$2, -16(%rbp)
	jge	.LBB14_100
# %bb.98:                               # %for.body566
                                        #   in Loop: Header=BB14_97 Depth=2
	movl	$3, %eax
	subl	-16(%rbp), %eax
	movl	%eax, -56(%rbp)
	movslq	-16(%rbp), %rax
	movl	-96(%rbp,%rax,4), %eax
	movslq	-56(%rbp), %rcx
	addl	-96(%rbp,%rcx,4), %eax
	movslq	-16(%rbp), %rcx
	shlq	$4, %rcx
	leaq	-224(%rbp), %rdx
	movq	%rdx, %rsi
	addq	%rcx, %rsi
	movslq	-12(%rbp), %rcx
	movl	%eax, (%rsi,%rcx,4)
	movslq	-16(%rbp), %rax
	movl	-96(%rbp,%rax,4), %eax
	movslq	-56(%rbp), %rcx
	subl	-96(%rbp,%rcx,4), %eax
	movslq	-56(%rbp), %rcx
	shlq	$4, %rcx
	addq	%rcx, %rdx
	movslq	-12(%rbp), %rcx
	movl	%eax, (%rdx,%rcx,4)
# %bb.99:                               # %for.inc586
                                        #   in Loop: Header=BB14_97 Depth=2
	movl	-16(%rbp), %eax
	addl	$1, %eax
	movl	%eax, -16(%rbp)
	jmp	.LBB14_97
.LBB14_100:                             # %for.end588
                                        #   in Loop: Header=BB14_89 Depth=1
	jmp	.LBB14_101
.LBB14_101:                             # %for.inc589
                                        #   in Loop: Header=BB14_89 Depth=1
	movl	-12(%rbp), %eax
	addl	$1, %eax
	movl	%eax, -12(%rbp)
	jmp	.LBB14_89
.LBB14_102:                             # %for.end591
	movl	$0, -16(%rbp)
.LBB14_103:                             # %for.cond592
                                        # =>This Loop Header: Depth=1
                                        #     Child Loop BB14_107 Depth 2
                                        #     Child Loop BB14_111 Depth 2
	xorl	%eax, %eax
	cmpl	$4, -16(%rbp)
	jge	.LBB14_105
# %bb.104:                              # %land.rhs595
                                        #   in Loop: Header=BB14_103 Depth=1
	cmpl	$0, -72(%rbp)
	setne	%al
	xorb	$-1, %al
.LBB14_105:                             # %land.end598
                                        #   in Loop: Header=BB14_103 Depth=1
	testb	$1, %al
	jne	.LBB14_106
	jmp	.LBB14_119
.LBB14_106:                             # %for.body600
                                        #   in Loop: Header=BB14_103 Depth=1
	movl	$0, -12(%rbp)
.LBB14_107:                             # %for.cond601
                                        #   Parent Loop BB14_103 Depth=1
                                        # =>  This Inner Loop Header: Depth=2
	cmpl	$4, -12(%rbp)
	jge	.LBB14_110
# %bb.108:                              # %for.body604
                                        #   in Loop: Header=BB14_107 Depth=2
	movslq	-16(%rbp), %rax
	shlq	$4, %rax
	leaq	-224(%rbp), %rcx
	addq	%rax, %rcx
	movslq	-12(%rbp), %rax
	movl	(%rcx,%rax,4), %eax
	movslq	-12(%rbp), %rcx
	movl	%eax, -48(%rbp,%rcx,4)
# %bb.109:                              # %for.inc611
                                        #   in Loop: Header=BB14_107 Depth=2
	movl	-12(%rbp), %eax
	addl	$1, %eax
	movl	%eax, -12(%rbp)
	jmp	.LBB14_107
.LBB14_110:                             # %for.end613
                                        #   in Loop: Header=BB14_103 Depth=1
	movl	-48(%rbp), %eax
	addl	-40(%rbp), %eax
	movl	%eax, -96(%rbp)
	movl	-48(%rbp), %eax
	subl	-40(%rbp), %eax
	movl	%eax, -92(%rbp)
	movl	-44(%rbp), %eax
	subl	-36(%rbp), %eax
	movl	%eax, -88(%rbp)
	movl	-44(%rbp), %eax
	addl	-36(%rbp), %eax
	movl	%eax, -84(%rbp)
	movl	$0, -12(%rbp)
.LBB14_111:                             # %for.cond630
                                        #   Parent Loop BB14_103 Depth=1
                                        # =>  This Inner Loop Header: Depth=2
	cmpl	$2, -12(%rbp)
	jge	.LBB14_117
# %bb.112:                              # %for.body633
                                        #   in Loop: Header=BB14_111 Depth=2
	movl	$3, %eax
	subl	-12(%rbp), %eax
	movl	%eax, -52(%rbp)
	cmpl	$6, -64(%rbp)
	jge	.LBB14_114
# %bb.113:                              # %if.then637
                                        #   in Loop: Header=BB14_111 Depth=2
	leaq	-1264(%rbp), %r8
	movslq	-12(%rbp), %rax
	movl	-96(%rbp,%rax,4), %esi
	movslq	-52(%rbp), %rax
	addl	-96(%rbp,%rax,4), %esi
	movslq	-100(%rbp), %rax
	shlq	$6, %rax
	movabsq	$InvLevelScale4x4Luma_Intra, %rdi
	movq	%rdi, %rcx
	addq	%rax, %rcx
	imull	(%rcx), %esi
	movl	$5, %eax
	movl	$5, %ecx
	subl	-64(%rbp), %ecx
                                        # kill: def $cl killed $ecx
	movl	$1, %r9d
	movl	$1, %edx
	shll	%cl, %edx
	addl	%edx, %esi
	movl	$6, %edx
	movl	$6, %ecx
	subl	-64(%rbp), %ecx
                                        # kill: def $cl killed $ecx
	sarl	%cl, %esi
	movslq	-16(%rbp), %rcx
	shlq	$6, %rcx
	movq	%r8, %rbx
	addq	%rcx, %rbx
	movslq	-12(%rbp), %rcx
	movl	%esi, (%rbx,%rcx,4)
	movslq	-12(%rbp), %rcx
	movl	-96(%rbp,%rcx,4), %esi
	movslq	-52(%rbp), %rcx
	subl	-96(%rbp,%rcx,4), %esi
	movslq	-100(%rbp), %rcx
	shlq	$6, %rcx
	addq	%rcx, %rdi
	imull	(%rdi), %esi
	subl	-64(%rbp), %eax
	movl	%eax, %ecx
                                        # kill: def $cl killed $ecx
	shll	%cl, %r9d
	addl	%r9d, %esi
	subl	-64(%rbp), %edx
	movl	%edx, %ecx
                                        # kill: def $cl killed $ecx
	sarl	%cl, %esi
	movslq	-16(%rbp), %rax
	shlq	$6, %rax
	addq	%rax, %r8
	movslq	-52(%rbp), %rax
	movl	%esi, (%r8,%rax,4)
	jmp	.LBB14_115
.LBB14_114:                             # %if.else680
                                        #   in Loop: Header=BB14_111 Depth=2
	leaq	-1264(%rbp), %rax
	movslq	-12(%rbp), %rcx
	movl	-96(%rbp,%rcx,4), %edx
	movslq	-52(%rbp), %rcx
	addl	-96(%rbp,%rcx,4), %edx
	movslq	-100(%rbp), %rcx
	shlq	$6, %rcx
	movabsq	$InvLevelScale4x4Luma_Intra, %rsi
	movq	%rsi, %rdi
	addq	%rcx, %rdi
	imull	(%rdi), %edx
	movl	-64(%rbp), %ecx
	subl	$6, %ecx
                                        # kill: def $cl killed $ecx
	shll	%cl, %edx
	movslq	-16(%rbp), %rcx
	shlq	$6, %rcx
	movq	%rax, %rdi
	addq	%rcx, %rdi
	movslq	-12(%rbp), %rcx
	movl	%edx, (%rdi,%rcx,4)
	movslq	-12(%rbp), %rcx
	movl	-96(%rbp,%rcx,4), %edx
	movslq	-52(%rbp), %rcx
	subl	-96(%rbp,%rcx,4), %edx
	movslq	-100(%rbp), %rcx
	shlq	$6, %rcx
	addq	%rcx, %rsi
	imull	(%rsi), %edx
	movl	-64(%rbp), %ecx
	subl	$6, %ecx
                                        # kill: def $cl killed $ecx
	shll	%cl, %edx
	movslq	-16(%rbp), %rcx
	shlq	$6, %rcx
	addq	%rcx, %rax
	movslq	-52(%rbp), %rcx
	movl	%edx, (%rax,%rcx,4)
.LBB14_115:                             # %if.end717
                                        #   in Loop: Header=BB14_111 Depth=2
	jmp	.LBB14_116
.LBB14_116:                             # %for.inc718
                                        #   in Loop: Header=BB14_111 Depth=2
	movl	-12(%rbp), %eax
	addl	$1, %eax
	movl	%eax, -12(%rbp)
	jmp	.LBB14_111
.LBB14_117:                             # %for.end720
                                        #   in Loop: Header=BB14_103 Depth=1
	jmp	.LBB14_118
.LBB14_118:                             # %for.inc721
                                        #   in Loop: Header=BB14_103 Depth=1
	movl	-16(%rbp), %eax
	addl	$1, %eax
	movl	%eax, -16(%rbp)
	jmp	.LBB14_103
.LBB14_119:                             # %for.end723
	movl	$0, -24(%rbp)
.LBB14_120:                             # %for.cond724
                                        # =>This Loop Header: Depth=1
                                        #     Child Loop BB14_122 Depth 2
                                        #       Child Loop BB14_124 Depth 3
                                        #       Child Loop BB14_143 Depth 3
                                        #         Child Loop BB14_147 Depth 4
                                        #         Child Loop BB14_151 Depth 4
                                        #       Child Loop BB14_157 Depth 3
                                        #         Child Loop BB14_161 Depth 4
                                        #         Child Loop BB14_165 Depth 4
	cmpl	$4, -24(%rbp)
	jge	.LBB14_174
# %bb.121:                              # %for.body727
                                        #   in Loop: Header=BB14_120 Depth=1
	movl	$0, -20(%rbp)
.LBB14_122:                             # %for.cond728
                                        #   Parent Loop BB14_120 Depth=1
                                        # =>  This Loop Header: Depth=2
                                        #       Child Loop BB14_124 Depth 3
                                        #       Child Loop BB14_143 Depth 3
                                        #         Child Loop BB14_147 Depth 4
                                        #         Child Loop BB14_151 Depth 4
                                        #       Child Loop BB14_157 Depth 3
                                        #         Child Loop BB14_161 Depth 4
                                        #         Child Loop BB14_165 Depth 4
	cmpl	$4, -20(%rbp)
	jge	.LBB14_172
# %bb.123:                              # %for.body731
                                        #   in Loop: Header=BB14_122 Depth=2
	movl	$-1, -80(%rbp)
	movl	$0, -76(%rbp)
	movl	-24(%rbp), %eax
	cltd
	movl	$2, %esi
	idivl	%esi
	movl	%eax, %ecx
	shll	$1, %ecx
	movl	-20(%rbp), %eax
	cltd
	idivl	%esi
	addl	%eax, %ecx
	movl	%ecx, -116(%rbp)
	movl	-24(%rbp), %eax
	cltd
	idivl	%esi
	movl	%edx, %ecx
	shll	$1, %ecx
	movl	-20(%rbp), %eax
	cltd
	idivl	%esi
	addl	%edx, %ecx
	movl	%ecx, -108(%rbp)
	movq	img, %rax
	movq	14136(%rax), %rax
	movslq	-116(%rbp), %rcx
	movq	(%rax,%rcx,8), %rax
	movslq	-108(%rbp), %rcx
	movq	(%rax,%rcx,8), %rax
	movq	(%rax), %rax
	movq	%rax, -152(%rbp)
	movq	img, %rax
	movq	14136(%rax), %rax
	movslq	-116(%rbp), %rcx
	movq	(%rax,%rcx,8), %rax
	movslq	-108(%rbp), %rcx
	movq	(%rax,%rcx,8), %rax
	movq	8(%rax), %rax
	movq	%rax, -240(%rbp)
	movl	$1, -60(%rbp)
.LBB14_124:                             # %for.cond751
                                        #   Parent Loop BB14_120 Depth=1
                                        #     Parent Loop BB14_122 Depth=2
                                        # =>    This Inner Loop Header: Depth=3
	cmpl	$16, -60(%rbp)
	jge	.LBB14_142
# %bb.125:                              # %for.body754
                                        #   in Loop: Header=BB14_124 Depth=3
	movq	img, %rax
	cmpl	$0, 72444(%rax)
	jne	.LBB14_128
# %bb.126:                              # %lor.lhs.false757
                                        #   in Loop: Header=BB14_124 Depth=3
	cmpl	$0, mb_adaptive
	je	.LBB14_129
# %bb.127:                              # %land.lhs.true759
                                        #   in Loop: Header=BB14_124 Depth=3
	movq	img, %rax
	cmpl	$0, 72008(%rax)
	je	.LBB14_129
.LBB14_128:                             # %if.then762
                                        #   in Loop: Header=BB14_124 Depth=3
	movslq	-60(%rbp), %rax
	movzbl	FIELD_SCAN(,%rax,2), %eax
	movl	%eax, -16(%rbp)
	movslq	-60(%rbp), %rax
	movzbl	FIELD_SCAN+1(,%rax,2), %eax
	movl	%eax, -12(%rbp)
	jmp	.LBB14_130
.LBB14_129:                             # %if.else771
                                        #   in Loop: Header=BB14_124 Depth=3
	movslq	-60(%rbp), %rax
	movzbl	SNGL_SCAN(,%rax,2), %eax
	movl	%eax, -16(%rbp)
	movslq	-60(%rbp), %rax
	movzbl	SNGL_SCAN+1(,%rax,2), %eax
	movl	%eax, -12(%rbp)
.LBB14_130:                             # %if.end780
                                        #   in Loop: Header=BB14_124 Depth=3
	movl	-80(%rbp), %eax
	addl	$1, %eax
	movl	%eax, -80(%rbp)
	cmpl	$0, -72(%rbp)
	je	.LBB14_132
# %bb.131:                              # %if.then783
                                        #   in Loop: Header=BB14_124 Depth=3
	movslq	-16(%rbp), %rax
	shlq	$8, %rax
	leaq	-1264(%rbp), %rcx
	addq	%rax, %rcx
	movslq	-20(%rbp), %rax
	shlq	$6, %rax
	addq	%rax, %rcx
	movslq	-12(%rbp), %rax
	shlq	$4, %rax
	addq	%rax, %rcx
	movslq	-24(%rbp), %rax
	movl	(%rcx,%rax,4), %edi
	callq	abs
	movl	%eax, -68(%rbp)
	jmp	.LBB14_133
.LBB14_132:                             # %if.else793
                                        #   in Loop: Header=BB14_124 Depth=3
	movslq	-16(%rbp), %rax
	shlq	$8, %rax
	leaq	-1264(%rbp), %rcx
	addq	%rax, %rcx
	movslq	-20(%rbp), %rax
	shlq	$6, %rax
	addq	%rax, %rcx
	movslq	-12(%rbp), %rax
	shlq	$4, %rax
	addq	%rax, %rcx
	movslq	-24(%rbp), %rax
	movl	(%rcx,%rax,4), %edi
	callq	abs
	movslq	-100(%rbp), %rcx
	shlq	$6, %rcx
	movabsq	$LevelScale4x4Luma_Intra, %rdx
	addq	%rcx, %rdx
	movslq	-16(%rbp), %rcx
	shlq	$4, %rcx
	addq	%rcx, %rdx
	movslq	-12(%rbp), %rcx
	imull	(%rdx,%rcx,4), %eax
	movslq	-64(%rbp), %rcx
	shlq	$6, %rcx
	movabsq	$LevelOffset4x4Luma_Intra, %rdx
	addq	%rcx, %rdx
	movslq	-16(%rbp), %rcx
	shlq	$4, %rcx
	addq	%rcx, %rdx
	movslq	-12(%rbp), %rcx
	addl	(%rdx,%rcx,4), %eax
	movl	-112(%rbp), %ecx
                                        # kill: def $cl killed $ecx
	sarl	%cl, %eax
	movl	%eax, -68(%rbp)
.LBB14_133:                             # %if.end818
                                        #   in Loop: Header=BB14_124 Depth=3
	cmpl	$0, -68(%rbp)
	je	.LBB14_135
# %bb.134:                              # %if.then821
                                        #   in Loop: Header=BB14_124 Depth=3
	movl	$15, -120(%rbp)
	movl	-68(%rbp), %edi
	movslq	-16(%rbp), %rax
	shlq	$8, %rax
	leaq	-1264(%rbp), %rcx
	addq	%rax, %rcx
	movslq	-20(%rbp), %rax
	shlq	$6, %rax
	addq	%rax, %rcx
	movslq	-12(%rbp), %rax
	shlq	$4, %rax
	addq	%rax, %rcx
	movslq	-24(%rbp), %rax
	movl	(%rcx,%rax,4), %esi
	callq	sign
	movq	-152(%rbp), %rcx
	movslq	-76(%rbp), %rdx
	movl	%eax, (%rcx,%rdx,4)
	movl	-80(%rbp), %eax
	movq	-240(%rbp), %rcx
	movslq	-76(%rbp), %rdx
	movl	%eax, (%rcx,%rdx,4)
	movl	-76(%rbp), %eax
	addl	$1, %eax
	movl	%eax, -76(%rbp)
	movl	$-1, -80(%rbp)
.LBB14_135:                             # %if.end836
                                        #   in Loop: Header=BB14_124 Depth=3
	cmpl	$0, -72(%rbp)
	jne	.LBB14_140
# %bb.136:                              # %if.then838
                                        #   in Loop: Header=BB14_124 Depth=3
	movl	-68(%rbp), %edi
	movslq	-16(%rbp), %rax
	shlq	$8, %rax
	leaq	-1264(%rbp), %rcx
	addq	%rax, %rcx
	movslq	-20(%rbp), %rax
	shlq	$6, %rax
	addq	%rax, %rcx
	movslq	-12(%rbp), %rax
	shlq	$4, %rax
	addq	%rax, %rcx
	movslq	-24(%rbp), %rax
	movl	(%rcx,%rax,4), %esi
	callq	sign
	movl	%eax, -68(%rbp)
	cmpl	$4, -64(%rbp)
	jge	.LBB14_138
# %bb.137:                              # %if.then850
                                        #   in Loop: Header=BB14_124 Depth=3
	movl	-68(%rbp), %eax
	movslq	-100(%rbp), %rcx
	shlq	$6, %rcx
	movabsq	$InvLevelScale4x4Luma_Intra, %rdx
	addq	%rcx, %rdx
	movslq	-16(%rbp), %rcx
	shlq	$4, %rcx
	addq	%rcx, %rdx
	movslq	-12(%rbp), %rcx
	imull	(%rdx,%rcx,4), %eax
	movl	$3, %ecx
	subl	-64(%rbp), %ecx
                                        # kill: def $cl killed $ecx
	movl	$1, %edx
	shll	%cl, %edx
	addl	%edx, %eax
	movl	$4, %ecx
	subl	-64(%rbp), %ecx
                                        # kill: def $cl killed $ecx
	sarl	%cl, %eax
	movslq	-16(%rbp), %rcx
	shlq	$8, %rcx
	leaq	-1264(%rbp), %rdx
	addq	%rcx, %rdx
	movslq	-20(%rbp), %rcx
	shlq	$6, %rcx
	addq	%rcx, %rdx
	movslq	-12(%rbp), %rcx
	shlq	$4, %rcx
	addq	%rcx, %rdx
	movslq	-24(%rbp), %rcx
	movl	%eax, (%rdx,%rcx,4)
	jmp	.LBB14_139
.LBB14_138:                             # %if.else871
                                        #   in Loop: Header=BB14_124 Depth=3
	movl	-68(%rbp), %eax
	movslq	-100(%rbp), %rcx
	shlq	$6, %rcx
	movabsq	$InvLevelScale4x4Luma_Intra, %rdx
	addq	%rcx, %rdx
	movslq	-16(%rbp), %rcx
	shlq	$4, %rcx
	addq	%rcx, %rdx
	movslq	-12(%rbp), %rcx
	imull	(%rdx,%rcx,4), %eax
	movl	-64(%rbp), %ecx
	subl	$4, %ecx
                                        # kill: def $cl killed $ecx
	shll	%cl, %eax
	movslq	-16(%rbp), %rcx
	shlq	$8, %rcx
	leaq	-1264(%rbp), %rdx
	addq	%rcx, %rdx
	movslq	-20(%rbp), %rcx
	shlq	$6, %rcx
	addq	%rcx, %rdx
	movslq	-12(%rbp), %rcx
	shlq	$4, %rcx
	addq	%rcx, %rdx
	movslq	-24(%rbp), %rcx
	movl	%eax, (%rdx,%rcx,4)
.LBB14_139:                             # %if.end889
                                        #   in Loop: Header=BB14_124 Depth=3
	jmp	.LBB14_140
.LBB14_140:                             # %if.end890
                                        #   in Loop: Header=BB14_124 Depth=3
	jmp	.LBB14_141
.LBB14_141:                             # %for.inc891
                                        #   in Loop: Header=BB14_124 Depth=3
	movl	-60(%rbp), %eax
	addl	$1, %eax
	movl	%eax, -60(%rbp)
	jmp	.LBB14_124
.LBB14_142:                             # %for.end893
                                        #   in Loop: Header=BB14_122 Depth=2
	movq	-152(%rbp), %rax
	movslq	-76(%rbp), %rcx
	movl	$0, (%rax,%rcx,4)
	movl	$0, -12(%rbp)
.LBB14_143:                             # %for.cond896
                                        #   Parent Loop BB14_120 Depth=1
                                        #     Parent Loop BB14_122 Depth=2
                                        # =>    This Loop Header: Depth=3
                                        #         Child Loop BB14_147 Depth 4
                                        #         Child Loop BB14_151 Depth 4
	xorl	%eax, %eax
	cmpl	$4, -12(%rbp)
	jge	.LBB14_145
# %bb.144:                              # %land.rhs899
                                        #   in Loop: Header=BB14_143 Depth=3
	cmpl	$0, -72(%rbp)
	setne	%al
	xorb	$-1, %al
.LBB14_145:                             # %land.end902
                                        #   in Loop: Header=BB14_143 Depth=3
	testb	$1, %al
	jne	.LBB14_146
	jmp	.LBB14_156
.LBB14_146:                             # %for.body904
                                        #   in Loop: Header=BB14_143 Depth=3
	movl	$0, -16(%rbp)
.LBB14_147:                             # %for.cond905
                                        #   Parent Loop BB14_120 Depth=1
                                        #     Parent Loop BB14_122 Depth=2
                                        #       Parent Loop BB14_143 Depth=3
                                        # =>      This Inner Loop Header: Depth=4
	cmpl	$4, -16(%rbp)
	jge	.LBB14_150
# %bb.148:                              # %for.body908
                                        #   in Loop: Header=BB14_147 Depth=4
	movslq	-16(%rbp), %rax
	shlq	$8, %rax
	leaq	-1264(%rbp), %rcx
	addq	%rax, %rcx
	movslq	-20(%rbp), %rax
	shlq	$6, %rax
	addq	%rax, %rcx
	movslq	-12(%rbp), %rax
	shlq	$4, %rax
	addq	%rax, %rcx
	movslq	-24(%rbp), %rax
	movl	(%rcx,%rax,4), %eax
	movslq	-16(%rbp), %rcx
	movl	%eax, -48(%rbp,%rcx,4)
# %bb.149:                              # %for.inc919
                                        #   in Loop: Header=BB14_147 Depth=4
	movl	-16(%rbp), %eax
	addl	$1, %eax
	movl	%eax, -16(%rbp)
	jmp	.LBB14_147
.LBB14_150:                             # %for.end921
                                        #   in Loop: Header=BB14_143 Depth=3
	movl	-48(%rbp), %eax
	addl	-40(%rbp), %eax
	movl	%eax, -96(%rbp)
	movl	-48(%rbp), %eax
	subl	-40(%rbp), %eax
	movl	%eax, -92(%rbp)
	movl	-44(%rbp), %eax
	sarl	$1, %eax
	subl	-36(%rbp), %eax
	movl	%eax, -88(%rbp)
	movl	-44(%rbp), %eax
	movl	-36(%rbp), %ecx
	sarl	$1, %ecx
	addl	%ecx, %eax
	movl	%eax, -84(%rbp)
	movl	$0, -16(%rbp)
.LBB14_151:                             # %for.cond940
                                        #   Parent Loop BB14_120 Depth=1
                                        #     Parent Loop BB14_122 Depth=2
                                        #       Parent Loop BB14_143 Depth=3
                                        # =>      This Inner Loop Header: Depth=4
	cmpl	$2, -16(%rbp)
	jge	.LBB14_154
# %bb.152:                              # %for.body943
                                        #   in Loop: Header=BB14_151 Depth=4
	movl	$3, %eax
	subl	-16(%rbp), %eax
	movl	%eax, -56(%rbp)
	movslq	-16(%rbp), %rax
	movl	-96(%rbp,%rax,4), %ecx
	movslq	-56(%rbp), %rax
	addl	-96(%rbp,%rax,4), %ecx
	movslq	-16(%rbp), %rdx
	shlq	$8, %rdx
	leaq	-1264(%rbp), %rax
	movq	%rax, %rsi
	addq	%rdx, %rsi
	movslq	-20(%rbp), %rdx
	shlq	$6, %rdx
	addq	%rdx, %rsi
	movslq	-12(%rbp), %rdx
	shlq	$4, %rdx
	addq	%rdx, %rsi
	movslq	-24(%rbp), %rdx
	movl	%ecx, (%rsi,%rdx,4)
	movslq	-16(%rbp), %rcx
	movl	-96(%rbp,%rcx,4), %ecx
	movslq	-56(%rbp), %rdx
	subl	-96(%rbp,%rdx,4), %ecx
	movslq	-56(%rbp), %rdx
	shlq	$8, %rdx
	addq	%rdx, %rax
	movslq	-20(%rbp), %rdx
	shlq	$6, %rdx
	addq	%rdx, %rax
	movslq	-12(%rbp), %rdx
	shlq	$4, %rdx
	addq	%rdx, %rax
	movslq	-24(%rbp), %rdx
	movl	%ecx, (%rax,%rdx,4)
# %bb.153:                              # %for.inc971
                                        #   in Loop: Header=BB14_151 Depth=4
	movl	-16(%rbp), %eax
	addl	$1, %eax
	movl	%eax, -16(%rbp)
	jmp	.LBB14_151
.LBB14_154:                             # %for.end973
                                        #   in Loop: Header=BB14_143 Depth=3
	jmp	.LBB14_155
.LBB14_155:                             # %for.inc974
                                        #   in Loop: Header=BB14_143 Depth=3
	movl	-12(%rbp), %eax
	addl	$1, %eax
	movl	%eax, -12(%rbp)
	jmp	.LBB14_143
.LBB14_156:                             # %for.end976
                                        #   in Loop: Header=BB14_122 Depth=2
	movl	$0, -16(%rbp)
.LBB14_157:                             # %for.cond977
                                        #   Parent Loop BB14_120 Depth=1
                                        #     Parent Loop BB14_122 Depth=2
                                        # =>    This Loop Header: Depth=3
                                        #         Child Loop BB14_161 Depth 4
                                        #         Child Loop BB14_165 Depth 4
	xorl	%eax, %eax
	cmpl	$4, -16(%rbp)
	jge	.LBB14_159
# %bb.158:                              # %land.rhs980
                                        #   in Loop: Header=BB14_157 Depth=3
	cmpl	$0, -72(%rbp)
	setne	%al
	xorb	$-1, %al
.LBB14_159:                             # %land.end983
                                        #   in Loop: Header=BB14_157 Depth=3
	testb	$1, %al
	jne	.LBB14_160
	jmp	.LBB14_170
.LBB14_160:                             # %for.body985
                                        #   in Loop: Header=BB14_157 Depth=3
	movl	$0, -12(%rbp)
.LBB14_161:                             # %for.cond986
                                        #   Parent Loop BB14_120 Depth=1
                                        #     Parent Loop BB14_122 Depth=2
                                        #       Parent Loop BB14_157 Depth=3
                                        # =>      This Inner Loop Header: Depth=4
	cmpl	$4, -12(%rbp)
	jge	.LBB14_164
# %bb.162:                              # %for.body989
                                        #   in Loop: Header=BB14_161 Depth=4
	movslq	-16(%rbp), %rax
	shlq	$8, %rax
	leaq	-1264(%rbp), %rcx
	addq	%rax, %rcx
	movslq	-20(%rbp), %rax
	shlq	$6, %rax
	addq	%rax, %rcx
	movslq	-12(%rbp), %rax
	shlq	$4, %rax
	addq	%rax, %rcx
	movslq	-24(%rbp), %rax
	movl	(%rcx,%rax,4), %eax
	movslq	-12(%rbp), %rcx
	movl	%eax, -48(%rbp,%rcx,4)
# %bb.163:                              # %for.inc1000
                                        #   in Loop: Header=BB14_161 Depth=4
	movl	-12(%rbp), %eax
	addl	$1, %eax
