	.text
	.file	"cabac.c"
	.globl	cabac_new_slice         # -- Begin function cabac_new_slice
	.p2align	4, 0x90
	.type	cabac_new_slice,@function
cabac_new_slice:                        # @cabac_new_slice
	.cfi_startproc
# %bb.0:                                # %entry
	pushq	%rbp
	.cfi_def_cfa_offset 16
	.cfi_offset %rbp, -16
	movq	%rsp, %rbp
	.cfi_def_cfa_register %rbp
	movl	$0, last_dquant
	popq	%rbp
	.cfi_def_cfa %rsp, 8
	retq
.Lfunc_end0:
	.size	cabac_new_slice, .Lfunc_end0-cabac_new_slice
	.cfi_endproc
                                        # -- End function
	.globl	CheckAvailabilityOfNeighborsCABAC # -- Begin function CheckAvailabilityOfNeighborsCABAC
	.p2align	4, 0x90
	.type	CheckAvailabilityOfNeighborsCABAC,@function
CheckAvailabilityOfNeighborsCABAC:      # @CheckAvailabilityOfNeighborsCABAC
	.cfi_startproc
# %bb.0:                                # %rand_bb
	pushq	%rbp
	.cfi_def_cfa_offset 16
	.cfi_offset %rbp, -16
	movq	%rsp, %rbp
	.cfi_def_cfa_register %rbp
	callq	get_urand
	cmpl	$0, %eax
	jne	.LBB1_7
# %bb.1:                                # %func_CheckAvailabilityOfNeighborsCABAC.6
	callq	CheckAvailabilityOfNeighborsCABAC.6
	popq	%rbp
	.cfi_def_cfa %rsp, 8
	retq
.LBB1_2:                                # %func_CheckAvailabilityOfNeighborsCABAC.40
	.cfi_def_cfa %rbp, 16
	callq	CheckAvailabilityOfNeighborsCABAC.40
	popq	%rbp
	.cfi_def_cfa %rsp, 8
	retq
.LBB1_3:                                # %func_CheckAvailabilityOfNeighborsCABAC.104
	.cfi_def_cfa %rbp, 16
	callq	CheckAvailabilityOfNeighborsCABAC.104
	popq	%rbp
	.cfi_def_cfa %rsp, 8
	retq
.LBB1_4:                                # %func_CheckAvailabilityOfNeighborsCABAC.127
	.cfi_def_cfa %rbp, 16
	callq	CheckAvailabilityOfNeighborsCABAC.127
	popq	%rbp
	.cfi_def_cfa %rsp, 8
	retq
.LBB1_5:                                # %func_CheckAvailabilityOfNeighborsCABAC.152
	.cfi_def_cfa %rbp, 16
	callq	CheckAvailabilityOfNeighborsCABAC.152
	popq	%rbp
	.cfi_def_cfa %rsp, 8
	retq
.LBB1_6:                                # %func_CheckAvailabilityOfNeighborsCABAC.164
	.cfi_def_cfa %rbp, 16
	callq	CheckAvailabilityOfNeighborsCABAC.164
	popq	%rbp
	.cfi_def_cfa %rsp, 8
	retq
.LBB1_7:                                # %ctrl0
	.cfi_def_cfa %rbp, 16
	cmpl	$1, %eax
	je	.LBB1_2
# %bb.8:                                # %ctrl1
	cmpl	$2, %eax
	je	.LBB1_3
# %bb.9:                                # %ctrl2
	cmpl	$3, %eax
	je	.LBB1_4
# %bb.10:                               # %ctrl3
	cmpl	$4, %eax
	je	.LBB1_5
	jmp	.LBB1_6
.Lfunc_end1:
	.size	CheckAvailabilityOfNeighborsCABAC, .Lfunc_end1-CheckAvailabilityOfNeighborsCABAC
	.cfi_endproc
                                        # -- End function
	.globl	create_contexts_MotionInfo # -- Begin function create_contexts_MotionInfo
	.p2align	4, 0x90
	.type	create_contexts_MotionInfo,@function
create_contexts_MotionInfo:             # @create_contexts_MotionInfo
	.cfi_startproc
# %bb.0:                                # %entry
	pushq	%rbp
	.cfi_def_cfa_offset 16
	.cfi_offset %rbp, -16
	movq	%rsp, %rbp
	.cfi_def_cfa_register %rbp
	subq	$16, %rsp
	movl	$1, %edi
	movl	$1504, %esi             # imm = 0x5E0
	callq	calloc
	movq	%rax, -8(%rbp)
	cmpq	$0, -8(%rbp)
	jne	.LBB2_2
# %bb.1:                                # %if.then
	movabsq	$.L.str, %rdi
	callq	no_mem_exit
.LBB2_2:                                # %if.end
	movq	-8(%rbp), %rax
	addq	$16, %rsp
	popq	%rbp
	.cfi_def_cfa %rsp, 8
	retq
.Lfunc_end2:
	.size	create_contexts_MotionInfo, .Lfunc_end2-create_contexts_MotionInfo
	.cfi_endproc
                                        # -- End function
	.globl	create_contexts_TextureInfo # -- Begin function create_contexts_TextureInfo
	.p2align	4, 0x90
	.type	create_contexts_TextureInfo,@function
create_contexts_TextureInfo:            # @create_contexts_TextureInfo
	.cfi_startproc
# %bb.0:                                # %entry
	pushq	%rbp
	.cfi_def_cfa_offset 16
	.cfi_offset %rbp, -16
	movq	%rsp, %rbp
	.cfi_def_cfa_register %rbp
	subq	$16, %rsp
	movl	$1, %edi
	movl	$12128, %esi            # imm = 0x2F60
	callq	calloc
	movq	%rax, -8(%rbp)
	cmpq	$0, -8(%rbp)
	jne	.LBB3_2
# %bb.1:                                # %if.then
	movabsq	$.L.str.1, %rdi
	callq	no_mem_exit
.LBB3_2:                                # %if.end
	movq	-8(%rbp), %rax
	addq	$16, %rsp
	popq	%rbp
	.cfi_def_cfa %rsp, 8
	retq
.Lfunc_end3:
	.size	create_contexts_TextureInfo, .Lfunc_end3-create_contexts_TextureInfo
	.cfi_endproc
                                        # -- End function
	.globl	delete_contexts_MotionInfo # -- Begin function delete_contexts_MotionInfo
	.p2align	4, 0x90
	.type	delete_contexts_MotionInfo,@function
delete_contexts_MotionInfo:             # @delete_contexts_MotionInfo
	.cfi_startproc
# %bb.0:                                # %entry
	pushq	%rbp
	.cfi_def_cfa_offset 16
	.cfi_offset %rbp, -16
	movq	%rsp, %rbp
	.cfi_def_cfa_register %rbp
	subq	$16, %rsp
	movq	%rdi, -8(%rbp)
	cmpq	$0, -8(%rbp)
	jne	.LBB4_2
# %bb.1:                                # %if.then
	jmp	.LBB4_3
.LBB4_2:                                # %if.end
	movq	-8(%rbp), %rdi
	callq	free
.LBB4_3:                                # %return
	addq	$16, %rsp
	popq	%rbp
	.cfi_def_cfa %rsp, 8
	retq
.Lfunc_end4:
	.size	delete_contexts_MotionInfo, .Lfunc_end4-delete_contexts_MotionInfo
	.cfi_endproc
                                        # -- End function
	.globl	delete_contexts_TextureInfo # -- Begin function delete_contexts_TextureInfo
	.p2align	4, 0x90
	.type	delete_contexts_TextureInfo,@function
delete_contexts_TextureInfo:            # @delete_contexts_TextureInfo
	.cfi_startproc
# %bb.0:                                # %entry
	pushq	%rbp
	.cfi_def_cfa_offset 16
	.cfi_offset %rbp, -16
	movq	%rsp, %rbp
	.cfi_def_cfa_register %rbp
	subq	$16, %rsp
	movq	%rdi, -8(%rbp)
	cmpq	$0, -8(%rbp)
	jne	.LBB5_2
# %bb.1:                                # %if.then
	jmp	.LBB5_3
.LBB5_2:                                # %if.end
	movq	-8(%rbp), %rdi
	callq	free
.LBB5_3:                                # %return
	addq	$16, %rsp
	popq	%rbp
	.cfi_def_cfa %rsp, 8
	retq
.Lfunc_end5:
	.size	delete_contexts_TextureInfo, .Lfunc_end5-delete_contexts_TextureInfo
	.cfi_endproc
                                        # -- End function
	.globl	writeSyntaxElement_CABAC # -- Begin function writeSyntaxElement_CABAC
	.p2align	4, 0x90
	.type	writeSyntaxElement_CABAC,@function
writeSyntaxElement_CABAC:               # @writeSyntaxElement_CABAC
	.cfi_startproc
# %bb.0:                                # %rand_bb
	pushq	%rbp
	.cfi_def_cfa_offset 16
	.cfi_offset %rbp, -16
	movq	%rsp, %rbp
	.cfi_def_cfa_register %rbp
	pushq	%r14
	pushq	%rbx
	.cfi_offset %rbx, -32
	.cfi_offset %r14, -24
	movq	%rsi, %r14
	movq	%rdi, %rbx
	callq	get_urand
	cmpl	$0, %eax
	jne	.LBB6_9
# %bb.1:                                # %func_writeSyntaxElement_CABAC.31
	movq	%rbx, %rdi
	movq	%r14, %rsi
	callq	writeSyntaxElement_CABAC.31
	popq	%rbx
	popq	%r14
	popq	%rbp
	.cfi_def_cfa %rsp, 8
	retq
.LBB6_2:                                # %func_writeSyntaxElement_CABAC.35
	.cfi_def_cfa %rbp, 16
	movq	%rbx, %rdi
	movq	%r14, %rsi
	callq	writeSyntaxElement_CABAC.35
	popq	%rbx
	popq	%r14
	popq	%rbp
	.cfi_def_cfa %rsp, 8
	retq
.LBB6_3:                                # %func_writeSyntaxElement_CABAC.117
	.cfi_def_cfa %rbp, 16
	movq	%rbx, %rdi
	movq	%r14, %rsi
	callq	writeSyntaxElement_CABAC.117
	popq	%rbx
	popq	%r14
	popq	%rbp
	.cfi_def_cfa %rsp, 8
	retq
.LBB6_4:                                # %func_writeSyntaxElement_CABAC.128
	.cfi_def_cfa %rbp, 16
	movq	%rbx, %rdi
	movq	%r14, %rsi
	callq	writeSyntaxElement_CABAC.128
	popq	%rbx
	popq	%r14
	popq	%rbp
	.cfi_def_cfa %rsp, 8
	retq
.LBB6_5:                                # %func_writeSyntaxElement_CABAC.146
	.cfi_def_cfa %rbp, 16
	movq	%rbx, %rdi
	movq	%r14, %rsi
	callq	writeSyntaxElement_CABAC.146
	popq	%rbx
	popq	%r14
	popq	%rbp
	.cfi_def_cfa %rsp, 8
	retq
.LBB6_6:                                # %func_writeSyntaxElement_CABAC.151
	.cfi_def_cfa %rbp, 16
	movq	%rbx, %rdi
	movq	%r14, %rsi
	callq	writeSyntaxElement_CABAC.151
	popq	%rbx
	popq	%r14
	popq	%rbp
	.cfi_def_cfa %rsp, 8
	retq
.LBB6_7:                                # %func_writeSyntaxElement_CABAC.159
	.cfi_def_cfa %rbp, 16
	movq	%rbx, %rdi
	movq	%r14, %rsi
	callq	writeSyntaxElement_CABAC.159
	popq	%rbx
	popq	%r14
	popq	%rbp
	.cfi_def_cfa %rsp, 8
	retq
.LBB6_8:                                # %func_writeSyntaxElement_CABAC.172
	.cfi_def_cfa %rbp, 16
	movq	%rbx, %rdi
	movq	%r14, %rsi
	callq	writeSyntaxElement_CABAC.172
	popq	%rbx
	popq	%r14
	popq	%rbp
	.cfi_def_cfa %rsp, 8
	retq
.LBB6_9:                                # %ctrl0
	.cfi_def_cfa %rbp, 16
	cmpl	$1, %eax
	je	.LBB6_2
# %bb.10:                               # %ctrl1
	cmpl	$2, %eax
	je	.LBB6_3
# %bb.11:                               # %ctrl2
	cmpl	$3, %eax
	je	.LBB6_4
# %bb.12:                               # %ctrl3
	cmpl	$4, %eax
	je	.LBB6_5
# %bb.13:                               # %ctrl4
	cmpl	$5, %eax
	je	.LBB6_6
# %bb.14:                               # %ctrl5
	cmpl	$6, %eax
	je	.LBB6_7
	jmp	.LBB6_8
.Lfunc_end6:
	.size	writeSyntaxElement_CABAC, .Lfunc_end6-writeSyntaxElement_CABAC
	.cfi_endproc
                                        # -- End function
	.globl	writeFieldModeInfo_CABAC # -- Begin function writeFieldModeInfo_CABAC
	.p2align	4, 0x90
	.type	writeFieldModeInfo_CABAC,@function
writeFieldModeInfo_CABAC:               # @writeFieldModeInfo_CABAC
	.cfi_startproc
# %bb.0:                                # %rand_bb
	pushq	%rbp
	.cfi_def_cfa_offset 16
	.cfi_offset %rbp, -16
	movq	%rsp, %rbp
	.cfi_def_cfa_register %rbp
	pushq	%r14
	pushq	%rbx
	.cfi_offset %rbx, -32
	.cfi_offset %r14, -24
	movq	%rsi, %r14
	movq	%rdi, %rbx
	callq	get_urand
	cmpl	$0, %eax
	jne	.LBB7_9
# %bb.1:                                # %func_writeFieldModeInfo_CABAC.13
	movq	%rbx, %rdi
	movq	%r14, %rsi
	callq	writeFieldModeInfo_CABAC.13
	popq	%rbx
	popq	%r14
	popq	%rbp
	.cfi_def_cfa %rsp, 8
	retq
.LBB7_2:                                # %func_writeFieldModeInfo_CABAC.29
	.cfi_def_cfa %rbp, 16
	movq	%rbx, %rdi
	movq	%r14, %rsi
	callq	writeFieldModeInfo_CABAC.29
	popq	%rbx
	popq	%r14
	popq	%rbp
	.cfi_def_cfa %rsp, 8
	retq
.LBB7_3:                                # %func_writeFieldModeInfo_CABAC.32
	.cfi_def_cfa %rbp, 16
	movq	%rbx, %rdi
	movq	%r14, %rsi
	callq	writeFieldModeInfo_CABAC.32
	popq	%rbx
	popq	%r14
	popq	%rbp
	.cfi_def_cfa %rsp, 8
	retq
.LBB7_4:                                # %func_writeFieldModeInfo_CABAC.49
	.cfi_def_cfa %rbp, 16
	movq	%rbx, %rdi
	movq	%r14, %rsi
	callq	writeFieldModeInfo_CABAC.49
	popq	%rbx
	popq	%r14
	popq	%rbp
	.cfi_def_cfa %rsp, 8
	retq
.LBB7_5:                                # %func_writeFieldModeInfo_CABAC.51
	.cfi_def_cfa %rbp, 16
	movq	%rbx, %rdi
	movq	%r14, %rsi
	callq	writeFieldModeInfo_CABAC.51
	popq	%rbx
	popq	%r14
	popq	%rbp
	.cfi_def_cfa %rsp, 8
	retq
.LBB7_6:                                # %func_writeFieldModeInfo_CABAC.83
	.cfi_def_cfa %rbp, 16
	movq	%rbx, %rdi
	movq	%r14, %rsi
	callq	writeFieldModeInfo_CABAC.83
	popq	%rbx
	popq	%r14
	popq	%rbp
	.cfi_def_cfa %rsp, 8
	retq
.LBB7_7:                                # %func_writeFieldModeInfo_CABAC.90
	.cfi_def_cfa %rbp, 16
	movq	%rbx, %rdi
	movq	%r14, %rsi
	callq	writeFieldModeInfo_CABAC.90
	popq	%rbx
	popq	%r14
	popq	%rbp
	.cfi_def_cfa %rsp, 8
	retq
.LBB7_8:                                # %func_writeFieldModeInfo_CABAC.94
	.cfi_def_cfa %rbp, 16
	movq	%rbx, %rdi
	movq	%r14, %rsi
	callq	writeFieldModeInfo_CABAC.94
	popq	%rbx
	popq	%r14
	popq	%rbp
	.cfi_def_cfa %rsp, 8
	retq
.LBB7_9:                                # %ctrl0
	.cfi_def_cfa %rbp, 16
	cmpl	$1, %eax
	je	.LBB7_2
# %bb.10:                               # %ctrl1
	cmpl	$2, %eax
	je	.LBB7_3
# %bb.11:                               # %ctrl2
	cmpl	$3, %eax
	je	.LBB7_4
# %bb.12:                               # %ctrl3
	cmpl	$4, %eax
	je	.LBB7_5
# %bb.13:                               # %ctrl4
	cmpl	$5, %eax
	je	.LBB7_6
# %bb.14:                               # %ctrl5
	cmpl	$6, %eax
	je	.LBB7_7
	jmp	.LBB7_8
.Lfunc_end7:
	.size	writeFieldModeInfo_CABAC, .Lfunc_end7-writeFieldModeInfo_CABAC
	.cfi_endproc
                                        # -- End function
	.globl	writeMB_skip_flagInfo_CABAC # -- Begin function writeMB_skip_flagInfo_CABAC
	.p2align	4, 0x90
	.type	writeMB_skip_flagInfo_CABAC,@function
writeMB_skip_flagInfo_CABAC:            # @writeMB_skip_flagInfo_CABAC
	.cfi_startproc
# %bb.0:                                # %rand_bb
	pushq	%rbp
	.cfi_def_cfa_offset 16
	.cfi_offset %rbp, -16
	movq	%rsp, %rbp
	.cfi_def_cfa_register %rbp
	pushq	%r14
	pushq	%rbx
	.cfi_offset %rbx, -32
	.cfi_offset %r14, -24
	movq	%rsi, %r14
	movq	%rdi, %rbx
	callq	get_urand
	cmpl	$0, %eax
	jne	.LBB8_9
# %bb.1:                                # %func_writeMB_skip_flagInfo_CABAC.5
	movq	%rbx, %rdi
	movq	%r14, %rsi
	callq	writeMB_skip_flagInfo_CABAC.5
	popq	%rbx
	popq	%r14
	popq	%rbp
	.cfi_def_cfa %rsp, 8
	retq
.LBB8_2:                                # %func_writeMB_skip_flagInfo_CABAC.10
	.cfi_def_cfa %rbp, 16
	movq	%rbx, %rdi
	movq	%r14, %rsi
	callq	writeMB_skip_flagInfo_CABAC.10
	popq	%rbx
	popq	%r14
	popq	%rbp
	.cfi_def_cfa %rsp, 8
	retq
.LBB8_3:                                # %func_writeMB_skip_flagInfo_CABAC.46
	.cfi_def_cfa %rbp, 16
	movq	%rbx, %rdi
	movq	%r14, %rsi
	callq	writeMB_skip_flagInfo_CABAC.46
	popq	%rbx
	popq	%r14
	popq	%rbp
	.cfi_def_cfa %rsp, 8
	retq
.LBB8_4:                                # %func_writeMB_skip_flagInfo_CABAC.55
	.cfi_def_cfa %rbp, 16
	movq	%rbx, %rdi
	movq	%r14, %rsi
	callq	writeMB_skip_flagInfo_CABAC.55
	popq	%rbx
	popq	%r14
	popq	%rbp
	.cfi_def_cfa %rsp, 8
	retq
.LBB8_5:                                # %func_writeMB_skip_flagInfo_CABAC.88
	.cfi_def_cfa %rbp, 16
	movq	%rbx, %rdi
	movq	%r14, %rsi
	callq	writeMB_skip_flagInfo_CABAC.88
	popq	%rbx
	popq	%r14
	popq	%rbp
	.cfi_def_cfa %rsp, 8
	retq
.LBB8_6:                                # %func_writeMB_skip_flagInfo_CABAC.95
	.cfi_def_cfa %rbp, 16
	movq	%rbx, %rdi
	movq	%r14, %rsi
	callq	writeMB_skip_flagInfo_CABAC.95
	popq	%rbx
	popq	%r14
	popq	%rbp
	.cfi_def_cfa %rsp, 8
	retq
.LBB8_7:                                # %func_writeMB_skip_flagInfo_CABAC.97
	.cfi_def_cfa %rbp, 16
	movq	%rbx, %rdi
	movq	%r14, %rsi
	callq	writeMB_skip_flagInfo_CABAC.97
	popq	%rbx
	popq	%r14
	popq	%rbp
	.cfi_def_cfa %rsp, 8
	retq
.LBB8_8:                                # %func_writeMB_skip_flagInfo_CABAC.101
	.cfi_def_cfa %rbp, 16
	movq	%rbx, %rdi
	movq	%r14, %rsi
	callq	writeMB_skip_flagInfo_CABAC.101
	popq	%rbx
	popq	%r14
	popq	%rbp
	.cfi_def_cfa %rsp, 8
	retq
.LBB8_9:                                # %ctrl0
	.cfi_def_cfa %rbp, 16
	cmpl	$1, %eax
	je	.LBB8_2
# %bb.10:                               # %ctrl1
	cmpl	$2, %eax
	je	.LBB8_3
# %bb.11:                               # %ctrl2
	cmpl	$3, %eax
	je	.LBB8_4
# %bb.12:                               # %ctrl3
	cmpl	$4, %eax
	je	.LBB8_5
# %bb.13:                               # %ctrl4
	cmpl	$5, %eax
	je	.LBB8_6
# %bb.14:                               # %ctrl5
	cmpl	$6, %eax
	je	.LBB8_7
	jmp	.LBB8_8
.Lfunc_end8:
	.size	writeMB_skip_flagInfo_CABAC, .Lfunc_end8-writeMB_skip_flagInfo_CABAC
	.cfi_endproc
                                        # -- End function
	.globl	writeMB_transform_size_CABAC # -- Begin function writeMB_transform_size_CABAC
	.p2align	4, 0x90
	.type	writeMB_transform_size_CABAC,@function
writeMB_transform_size_CABAC:           # @writeMB_transform_size_CABAC
	.cfi_startproc
# %bb.0:                                # %rand_bb
	pushq	%rbp
	.cfi_def_cfa_offset 16
	.cfi_offset %rbp, -16
	movq	%rsp, %rbp
	.cfi_def_cfa_register %rbp
	pushq	%r14
	pushq	%rbx
	.cfi_offset %rbx, -32
	.cfi_offset %r14, -24
	movq	%rsi, %r14
	movq	%rdi, %rbx
	callq	get_urand
	cmpl	$0, %eax
	jne	.LBB9_9
# %bb.1:                                # %func_writeMB_transform_size_CABAC.4
	movq	%rbx, %rdi
	movq	%r14, %rsi
	callq	writeMB_transform_size_CABAC.4
	popq	%rbx
	popq	%r14
	popq	%rbp
	.cfi_def_cfa %rsp, 8
	retq
.LBB9_2:                                # %func_writeMB_transform_size_CABAC.33
	.cfi_def_cfa %rbp, 16
	movq	%rbx, %rdi
	movq	%r14, %rsi
	callq	writeMB_transform_size_CABAC.33
	popq	%rbx
	popq	%r14
	popq	%rbp
	.cfi_def_cfa %rsp, 8
	retq
.LBB9_3:                                # %func_writeMB_transform_size_CABAC.47
	.cfi_def_cfa %rbp, 16
	movq	%rbx, %rdi
	movq	%r14, %rsi
	callq	writeMB_transform_size_CABAC.47
	popq	%rbx
	popq	%r14
	popq	%rbp
	.cfi_def_cfa %rsp, 8
	retq
.LBB9_4:                                # %func_writeMB_transform_size_CABAC.92
	.cfi_def_cfa %rbp, 16
	movq	%rbx, %rdi
	movq	%r14, %rsi
	callq	writeMB_transform_size_CABAC.92
	popq	%rbx
	popq	%r14
	popq	%rbp
	.cfi_def_cfa %rsp, 8
	retq
.LBB9_5:                                # %func_writeMB_transform_size_CABAC.109
	.cfi_def_cfa %rbp, 16
	movq	%rbx, %rdi
	movq	%r14, %rsi
	callq	writeMB_transform_size_CABAC.109
	popq	%rbx
	popq	%r14
	popq	%rbp
	.cfi_def_cfa %rsp, 8
	retq
.LBB9_6:                                # %func_writeMB_transform_size_CABAC.124
	.cfi_def_cfa %rbp, 16
	movq	%rbx, %rdi
	movq	%r14, %rsi
	callq	writeMB_transform_size_CABAC.124
	popq	%rbx
	popq	%r14
	popq	%rbp
	.cfi_def_cfa %rsp, 8
	retq
.LBB9_7:                                # %func_writeMB_transform_size_CABAC.133
	.cfi_def_cfa %rbp, 16
	movq	%rbx, %rdi
	movq	%r14, %rsi
	callq	writeMB_transform_size_CABAC.133
	popq	%rbx
	popq	%r14
	popq	%rbp
	.cfi_def_cfa %rsp, 8
	retq
.LBB9_8:                                # %func_writeMB_transform_size_CABAC.141
	.cfi_def_cfa %rbp, 16
	movq	%rbx, %rdi
	movq	%r14, %rsi
	callq	writeMB_transform_size_CABAC.141
	popq	%rbx
	popq	%r14
	popq	%rbp
	.cfi_def_cfa %rsp, 8
	retq
.LBB9_9:                                # %ctrl0
	.cfi_def_cfa %rbp, 16
	cmpl	$1, %eax
	je	.LBB9_2
# %bb.10:                               # %ctrl1
	cmpl	$2, %eax
	je	.LBB9_3
# %bb.11:                               # %ctrl2
	cmpl	$3, %eax
	je	.LBB9_4
# %bb.12:                               # %ctrl3
	cmpl	$4, %eax
	je	.LBB9_5
# %bb.13:                               # %ctrl4
	cmpl	$5, %eax
	je	.LBB9_6
# %bb.14:                               # %ctrl5
	cmpl	$6, %eax
	je	.LBB9_7
	jmp	.LBB9_8
.Lfunc_end9:
	.size	writeMB_transform_size_CABAC, .Lfunc_end9-writeMB_transform_size_CABAC
	.cfi_endproc
                                        # -- End function
	.globl	writeMB_typeInfo_CABAC  # -- Begin function writeMB_typeInfo_CABAC
	.p2align	4, 0x90
	.type	writeMB_typeInfo_CABAC,@function
writeMB_typeInfo_CABAC:                 # @writeMB_typeInfo_CABAC
	.cfi_startproc
# %bb.0:                                # %rand_bb
	pushq	%rbp
	.cfi_def_cfa_offset 16
	.cfi_offset %rbp, -16
	movq	%rsp, %rbp
	.cfi_def_cfa_register %rbp
	pushq	%r14
	pushq	%rbx
	.cfi_offset %rbx, -32
	.cfi_offset %r14, -24
	movq	%rsi, %r14
	movq	%rdi, %rbx
	callq	get_urand
	cmpl	$0, %eax
	jne	.LBB10_9
# %bb.1:                                # %func_writeMB_typeInfo_CABAC.12
	movq	%rbx, %rdi
	movq	%r14, %rsi
	callq	writeMB_typeInfo_CABAC.12
	popq	%rbx
	popq	%r14
	popq	%rbp
	.cfi_def_cfa %rsp, 8
	retq
.LBB10_2:                               # %func_writeMB_typeInfo_CABAC.18
	.cfi_def_cfa %rbp, 16
	movq	%rbx, %rdi
	movq	%r14, %rsi
	callq	writeMB_typeInfo_CABAC.18
	popq	%rbx
	popq	%r14
	popq	%rbp
	.cfi_def_cfa %rsp, 8
	retq
.LBB10_3:                               # %func_writeMB_typeInfo_CABAC.43
	.cfi_def_cfa %rbp, 16
	movq	%rbx, %rdi
	movq	%r14, %rsi
	callq	writeMB_typeInfo_CABAC.43
	popq	%rbx
	popq	%r14
	popq	%rbp
	.cfi_def_cfa %rsp, 8
	retq
.LBB10_4:                               # %func_writeMB_typeInfo_CABAC.53
	.cfi_def_cfa %rbp, 16
	movq	%rbx, %rdi
	movq	%r14, %rsi
	callq	writeMB_typeInfo_CABAC.53
	popq	%rbx
	popq	%r14
	popq	%rbp
	.cfi_def_cfa %rsp, 8
	retq
.LBB10_5:                               # %func_writeMB_typeInfo_CABAC.73
	.cfi_def_cfa %rbp, 16
	movq	%rbx, %rdi
	movq	%r14, %rsi
	callq	writeMB_typeInfo_CABAC.73
	popq	%rbx
	popq	%r14
	popq	%rbp
	.cfi_def_cfa %rsp, 8
	retq
.LBB10_6:                               # %func_writeMB_typeInfo_CABAC.79
	.cfi_def_cfa %rbp, 16
	movq	%rbx, %rdi
	movq	%r14, %rsi
	callq	writeMB_typeInfo_CABAC.79
	popq	%rbx
	popq	%r14
	popq	%rbp
	.cfi_def_cfa %rsp, 8
	retq
.LBB10_7:                               # %func_writeMB_typeInfo_CABAC.110
	.cfi_def_cfa %rbp, 16
	movq	%rbx, %rdi
	movq	%r14, %rsi
	callq	writeMB_typeInfo_CABAC.110
	popq	%rbx
	popq	%r14
	popq	%rbp
	.cfi_def_cfa %rsp, 8
	retq
.LBB10_8:                               # %func_writeMB_typeInfo_CABAC.112
	.cfi_def_cfa %rbp, 16
	movq	%rbx, %rdi
	movq	%r14, %rsi
	callq	writeMB_typeInfo_CABAC.112
	popq	%rbx
	popq	%r14
	popq	%rbp
	.cfi_def_cfa %rsp, 8
	retq
.LBB10_9:                               # %ctrl0
	.cfi_def_cfa %rbp, 16
	cmpl	$1, %eax
	je	.LBB10_2
# %bb.10:                               # %ctrl1
	cmpl	$2, %eax
	je	.LBB10_3
# %bb.11:                               # %ctrl2
	cmpl	$3, %eax
	je	.LBB10_4
# %bb.12:                               # %ctrl3
	cmpl	$4, %eax
	je	.LBB10_5
# %bb.13:                               # %ctrl4
	cmpl	$5, %eax
	je	.LBB10_6
# %bb.14:                               # %ctrl5
	cmpl	$6, %eax
	je	.LBB10_7
	jmp	.LBB10_8
.Lfunc_end10:
	.size	writeMB_typeInfo_CABAC, .Lfunc_end10-writeMB_typeInfo_CABAC
	.cfi_endproc
                                        # -- End function
	.globl	writeB8_typeInfo_CABAC  # -- Begin function writeB8_typeInfo_CABAC
	.p2align	4, 0x90
	.type	writeB8_typeInfo_CABAC,@function
writeB8_typeInfo_CABAC:                 # @writeB8_typeInfo_CABAC
	.cfi_startproc
# %bb.0:                                # %rand_bb
	pushq	%rbp
	.cfi_def_cfa_offset 16
	.cfi_offset %rbp, -16
	movq	%rsp, %rbp
	.cfi_def_cfa_register %rbp
	pushq	%r14
	pushq	%rbx
	.cfi_offset %rbx, -32
	.cfi_offset %r14, -24
	movq	%rsi, %r14
	movq	%rdi, %rbx
	callq	get_urand
	cmpl	$0, %eax
	jne	.LBB11_9
# %bb.1:                                # %func_writeB8_typeInfo_CABAC.1
	movq	%rbx, %rdi
	movq	%r14, %rsi
	callq	writeB8_typeInfo_CABAC.1
	popq	%rbx
	popq	%r14
	popq	%rbp
	.cfi_def_cfa %rsp, 8
	retq
.LBB11_2:                               # %func_writeB8_typeInfo_CABAC.14
	.cfi_def_cfa %rbp, 16
	movq	%rbx, %rdi
	movq	%r14, %rsi
	callq	writeB8_typeInfo_CABAC.14
	popq	%rbx
	popq	%r14
	popq	%rbp
	.cfi_def_cfa %rsp, 8
	retq
.LBB11_3:                               # %func_writeB8_typeInfo_CABAC.16
	.cfi_def_cfa %rbp, 16
	movq	%rbx, %rdi
	movq	%r14, %rsi
	callq	writeB8_typeInfo_CABAC.16
	popq	%rbx
	popq	%r14
	popq	%rbp
	.cfi_def_cfa %rsp, 8
	retq
.LBB11_4:                               # %func_writeB8_typeInfo_CABAC.67
	.cfi_def_cfa %rbp, 16
	movq	%rbx, %rdi
	movq	%r14, %rsi
	callq	writeB8_typeInfo_CABAC.67
	popq	%rbx
	popq	%r14
	popq	%rbp
	.cfi_def_cfa %rsp, 8
	retq
.LBB11_5:                               # %func_writeB8_typeInfo_CABAC.72
	.cfi_def_cfa %rbp, 16
	movq	%rbx, %rdi
	movq	%r14, %rsi
	callq	writeB8_typeInfo_CABAC.72
	popq	%rbx
	popq	%r14
	popq	%rbp
	.cfi_def_cfa %rsp, 8
	retq
.LBB11_6:                               # %func_writeB8_typeInfo_CABAC.86
	.cfi_def_cfa %rbp, 16
	movq	%rbx, %rdi
	movq	%r14, %rsi
	callq	writeB8_typeInfo_CABAC.86
	popq	%rbx
	popq	%r14
	popq	%rbp
	.cfi_def_cfa %rsp, 8
	retq
.LBB11_7:                               # %func_writeB8_typeInfo_CABAC.87
	.cfi_def_cfa %rbp, 16
	movq	%rbx, %rdi
	movq	%r14, %rsi
	callq	writeB8_typeInfo_CABAC.87
	popq	%rbx
	popq	%r14
	popq	%rbp
	.cfi_def_cfa %rsp, 8
	retq
.LBB11_8:                               # %func_writeB8_typeInfo_CABAC.148
	.cfi_def_cfa %rbp, 16
	movq	%rbx, %rdi
	movq	%r14, %rsi
	callq	writeB8_typeInfo_CABAC.148
	popq	%rbx
	popq	%r14
	popq	%rbp
	.cfi_def_cfa %rsp, 8
	retq
.LBB11_9:                               # %ctrl0
	.cfi_def_cfa %rbp, 16
	cmpl	$1, %eax
	je	.LBB11_2
# %bb.10:                               # %ctrl1
	cmpl	$2, %eax
	je	.LBB11_3
# %bb.11:                               # %ctrl2
	cmpl	$3, %eax
	je	.LBB11_4
# %bb.12:                               # %ctrl3
	cmpl	$4, %eax
	je	.LBB11_5
# %bb.13:                               # %ctrl4
	cmpl	$5, %eax
	je	.LBB11_6
# %bb.14:                               # %ctrl5
	cmpl	$6, %eax
	je	.LBB11_7
	jmp	.LBB11_8
.Lfunc_end11:
	.size	writeB8_typeInfo_CABAC, .Lfunc_end11-writeB8_typeInfo_CABAC
	.cfi_endproc
                                        # -- End function
	.globl	writeIntraPredMode_CABAC # -- Begin function writeIntraPredMode_CABAC
	.p2align	4, 0x90
	.type	writeIntraPredMode_CABAC,@function
writeIntraPredMode_CABAC:               # @writeIntraPredMode_CABAC
	.cfi_startproc
# %bb.0:                                # %rand_bb
	pushq	%rbp
	.cfi_def_cfa_offset 16
	.cfi_offset %rbp, -16
	movq	%rsp, %rbp
	.cfi_def_cfa_register %rbp
	pushq	%r14
	pushq	%rbx
	.cfi_offset %rbx, -32
	.cfi_offset %r14, -24
	movq	%rsi, %r14
	movq	%rdi, %rbx
	callq	get_urand
	cmpl	$0, %eax
	jne	.LBB12_7
# %bb.1:                                # %func_writeIntraPredMode_CABAC.26
	movq	%rbx, %rdi
	movq	%r14, %rsi
	callq	writeIntraPredMode_CABAC.26
	popq	%rbx
	popq	%r14
	popq	%rbp
	.cfi_def_cfa %rsp, 8
	retq
.LBB12_2:                               # %func_writeIntraPredMode_CABAC.82
	.cfi_def_cfa %rbp, 16
	movq	%rbx, %rdi
	movq	%r14, %rsi
	callq	writeIntraPredMode_CABAC.82
	popq	%rbx
	popq	%r14
	popq	%rbp
	.cfi_def_cfa %rsp, 8
	retq
.LBB12_3:                               # %func_writeIntraPredMode_CABAC.105
	.cfi_def_cfa %rbp, 16
	movq	%rbx, %rdi
	movq	%r14, %rsi
	callq	writeIntraPredMode_CABAC.105
	popq	%rbx
	popq	%r14
	popq	%rbp
	.cfi_def_cfa %rsp, 8
	retq
.LBB12_4:                               # %func_writeIntraPredMode_CABAC.116
	.cfi_def_cfa %rbp, 16
	movq	%rbx, %rdi
	movq	%r14, %rsi
	callq	writeIntraPredMode_CABAC.116
	popq	%rbx
	popq	%r14
	popq	%rbp
	.cfi_def_cfa %rsp, 8
	retq
.LBB12_5:                               # %func_writeIntraPredMode_CABAC.123
	.cfi_def_cfa %rbp, 16
	movq	%rbx, %rdi
	movq	%r14, %rsi
	callq	writeIntraPredMode_CABAC.123
	popq	%rbx
	popq	%r14
	popq	%rbp
	.cfi_def_cfa %rsp, 8
	retq
.LBB12_6:                               # %func_writeIntraPredMode_CABAC.134
	.cfi_def_cfa %rbp, 16
	movq	%rbx, %rdi
	movq	%r14, %rsi
	callq	writeIntraPredMode_CABAC.134
	popq	%rbx
	popq	%r14
	popq	%rbp
	.cfi_def_cfa %rsp, 8
	retq
.LBB12_7:                               # %ctrl0
	.cfi_def_cfa %rbp, 16
	cmpl	$1, %eax
	je	.LBB12_2
# %bb.8:                                # %ctrl1
	cmpl	$2, %eax
	je	.LBB12_3
# %bb.9:                                # %ctrl2
	cmpl	$3, %eax
	je	.LBB12_4
# %bb.10:                               # %ctrl3
	cmpl	$4, %eax
	je	.LBB12_5
	jmp	.LBB12_6
.Lfunc_end12:
	.size	writeIntraPredMode_CABAC, .Lfunc_end12-writeIntraPredMode_CABAC
	.cfi_endproc
                                        # -- End function
	.globl	writeRefFrame_CABAC     # -- Begin function writeRefFrame_CABAC
	.p2align	4, 0x90
	.type	writeRefFrame_CABAC,@function
writeRefFrame_CABAC:                    # @writeRefFrame_CABAC
	.cfi_startproc
# %bb.0:                                # %rand_bb
	pushq	%rbp
	.cfi_def_cfa_offset 16
	.cfi_offset %rbp, -16
	movq	%rsp, %rbp
	.cfi_def_cfa_register %rbp
	pushq	%r14
	pushq	%rbx
	.cfi_offset %rbx, -32
	.cfi_offset %r14, -24
	movq	%rsi, %r14
	movq	%rdi, %rbx
	callq	get_urand
	cmpl	$0, %eax
	jne	.LBB13_9
# %bb.1:                                # %func_writeRefFrame_CABAC.36
	movq	%rbx, %rdi
	movq	%r14, %rsi
	callq	writeRefFrame_CABAC.36
	popq	%rbx
	popq	%r14
	popq	%rbp
	.cfi_def_cfa %rsp, 8
	retq
.LBB13_2:                               # %func_writeRefFrame_CABAC.65
	.cfi_def_cfa %rbp, 16
	movq	%rbx, %rdi
	movq	%r14, %rsi
	callq	writeRefFrame_CABAC.65
	popq	%rbx
	popq	%r14
	popq	%rbp
	.cfi_def_cfa %rsp, 8
	retq
.LBB13_3:                               # %func_writeRefFrame_CABAC.98
	.cfi_def_cfa %rbp, 16
	movq	%rbx, %rdi
	movq	%r14, %rsi
	callq	writeRefFrame_CABAC.98
	popq	%rbx
	popq	%r14
	popq	%rbp
	.cfi_def_cfa %rsp, 8
	retq
.LBB13_4:                               # %func_writeRefFrame_CABAC.108
	.cfi_def_cfa %rbp, 16
	movq	%rbx, %rdi
	movq	%r14, %rsi
	callq	writeRefFrame_CABAC.108
	popq	%rbx
	popq	%r14
	popq	%rbp
	.cfi_def_cfa %rsp, 8
	retq
.LBB13_5:                               # %func_writeRefFrame_CABAC.144
	.cfi_def_cfa %rbp, 16
	movq	%rbx, %rdi
	movq	%r14, %rsi
	callq	writeRefFrame_CABAC.144
	popq	%rbx
	popq	%r14
	popq	%rbp
	.cfi_def_cfa %rsp, 8
	retq
.LBB13_6:                               # %func_writeRefFrame_CABAC.154
	.cfi_def_cfa %rbp, 16
	movq	%rbx, %rdi
	movq	%r14, %rsi
	callq	writeRefFrame_CABAC.154
	popq	%rbx
	popq	%r14
	popq	%rbp
	.cfi_def_cfa %rsp, 8
	retq
.LBB13_7:                               # %func_writeRefFrame_CABAC.167
	.cfi_def_cfa %rbp, 16
	movq	%rbx, %rdi
	movq	%r14, %rsi
	callq	writeRefFrame_CABAC.167
	popq	%rbx
	popq	%r14
	popq	%rbp
	.cfi_def_cfa %rsp, 8
	retq
.LBB13_8:                               # %func_writeRefFrame_CABAC.169
	.cfi_def_cfa %rbp, 16
	movq	%rbx, %rdi
	movq	%r14, %rsi
	callq	writeRefFrame_CABAC.169
	popq	%rbx
	popq	%r14
	popq	%rbp
	.cfi_def_cfa %rsp, 8
	retq
.LBB13_9:                               # %ctrl0
	.cfi_def_cfa %rbp, 16
	cmpl	$1, %eax
	je	.LBB13_2
# %bb.10:                               # %ctrl1
	cmpl	$2, %eax
	je	.LBB13_3
# %bb.11:                               # %ctrl2
	cmpl	$3, %eax
	je	.LBB13_4
# %bb.12:                               # %ctrl3
	cmpl	$4, %eax
	je	.LBB13_5
# %bb.13:                               # %ctrl4
	cmpl	$5, %eax
	je	.LBB13_6
# %bb.14:                               # %ctrl5
	cmpl	$6, %eax
	je	.LBB13_7
	jmp	.LBB13_8
.Lfunc_end13:
	.size	writeRefFrame_CABAC, .Lfunc_end13-writeRefFrame_CABAC
	.cfi_endproc
                                        # -- End function
	.globl	unary_bin_encode        # -- Begin function unary_bin_encode
	.p2align	4, 0x90
	.type	unary_bin_encode,@function
unary_bin_encode:                       # @unary_bin_encode
	.cfi_startproc
# %bb.0:                                # %rand_bb
	pushq	%rbp
	.cfi_def_cfa_offset 16
	.cfi_offset %rbp, -16
	movq	%rsp, %rbp
	.cfi_def_cfa_register %rbp
	pushq	%r15
	pushq	%r14
	pushq	%r12
	pushq	%rbx
	.cfi_offset %rbx, -48
	.cfi_offset %r12, -40
	.cfi_offset %r14, -32
	.cfi_offset %r15, -24
	movl	%ecx, %r14d
	movq	%rdx, %r15
	movl	%esi, %r12d
	movq	%rdi, %rbx
	callq	get_urand
	cmpl	$0, %eax
	jne	.LBB14_9
# %bb.1:                                # %func_unary_bin_encode.28
	movq	%rbx, %rdi
	movl	%r12d, %esi
	movq	%r15, %rdx
	movl	%r14d, %ecx
	callq	unary_bin_encode.28
	popq	%rbx
	popq	%r12
	popq	%r14
	popq	%r15
	popq	%rbp
	.cfi_def_cfa %rsp, 8
	retq
.LBB14_2:                               # %func_unary_bin_encode.48
	.cfi_def_cfa %rbp, 16
	movq	%rbx, %rdi
	movl	%r12d, %esi
	movq	%r15, %rdx
	movl	%r14d, %ecx
	callq	unary_bin_encode.48
	popq	%rbx
	popq	%r12
	popq	%r14
	popq	%r15
	popq	%rbp
	.cfi_def_cfa %rsp, 8
	retq
.LBB14_3:                               # %func_unary_bin_encode.145
	.cfi_def_cfa %rbp, 16
	movq	%rbx, %rdi
	movl	%r12d, %esi
	movq	%r15, %rdx
	movl	%r14d, %ecx
	callq	unary_bin_encode.145
	popq	%rbx
	popq	%r12
	popq	%r14
	popq	%r15
	popq	%rbp
	.cfi_def_cfa %rsp, 8
	retq
.LBB14_4:                               # %func_unary_bin_encode.160
	.cfi_def_cfa %rbp, 16
	movq	%rbx, %rdi
	movl	%r12d, %esi
	movq	%r15, %rdx
	movl	%r14d, %ecx
	callq	unary_bin_encode.160
	popq	%rbx
	popq	%r12
	popq	%r14
	popq	%r15
	popq	%rbp
	.cfi_def_cfa %rsp, 8
	retq
.LBB14_5:                               # %func_unary_bin_encode.163
	.cfi_def_cfa %rbp, 16
	movq	%rbx, %rdi
	movl	%r12d, %esi
	movq	%r15, %rdx
	movl	%r14d, %ecx
	callq	unary_bin_encode.163
	popq	%rbx
	popq	%r12
	popq	%r14
	popq	%r15
	popq	%rbp
	.cfi_def_cfa %rsp, 8
	retq
.LBB14_6:                               # %func_unary_bin_encode.168
	.cfi_def_cfa %rbp, 16
	movq	%rbx, %rdi
	movl	%r12d, %esi
	movq	%r15, %rdx
	movl	%r14d, %ecx
	callq	unary_bin_encode.168
	popq	%rbx
	popq	%r12
	popq	%r14
	popq	%r15
	popq	%rbp
	.cfi_def_cfa %rsp, 8
	retq
.LBB14_7:                               # %func_unary_bin_encode.174
	.cfi_def_cfa %rbp, 16
	movq	%rbx, %rdi
	movl	%r12d, %esi
	movq	%r15, %rdx
	movl	%r14d, %ecx
	callq	unary_bin_encode.174
	popq	%rbx
	popq	%r12
	popq	%r14
	popq	%r15
	popq	%rbp
	.cfi_def_cfa %rsp, 8
	retq
.LBB14_8:                               # %func_unary_bin_encode.175
	.cfi_def_cfa %rbp, 16
	movq	%rbx, %rdi
	movl	%r12d, %esi
	movq	%r15, %rdx
	movl	%r14d, %ecx
	callq	unary_bin_encode.175
	popq	%rbx
	popq	%r12
	popq	%r14
	popq	%r15
	popq	%rbp
	.cfi_def_cfa %rsp, 8
	retq
.LBB14_9:                               # %ctrl0
	.cfi_def_cfa %rbp, 16
	cmpl	$1, %eax
	je	.LBB14_2
# %bb.10:                               # %ctrl1
	cmpl	$2, %eax
	je	.LBB14_3
# %bb.11:                               # %ctrl2
	cmpl	$3, %eax
	je	.LBB14_4
# %bb.12:                               # %ctrl3
	cmpl	$4, %eax
	je	.LBB14_5
# %bb.13:                               # %ctrl4
	cmpl	$5, %eax
	je	.LBB14_6
# %bb.14:                               # %ctrl5
	cmpl	$6, %eax
	je	.LBB14_7
	jmp	.LBB14_8
.Lfunc_end14:
	.size	unary_bin_encode, .Lfunc_end14-unary_bin_encode
	.cfi_endproc
                                        # -- End function
	.globl	writeDquant_CABAC       # -- Begin function writeDquant_CABAC
	.p2align	4, 0x90
	.type	writeDquant_CABAC,@function
writeDquant_CABAC:                      # @writeDquant_CABAC
	.cfi_startproc
# %bb.0:                                # %rand_bb
	pushq	%rbp
	.cfi_def_cfa_offset 16
	.cfi_offset %rbp, -16
	movq	%rsp, %rbp
	.cfi_def_cfa_register %rbp
	pushq	%r14
	pushq	%rbx
	.cfi_offset %rbx, -32
	.cfi_offset %r14, -24
	movq	%rsi, %r14
	movq	%rdi, %rbx
	callq	get_urand
	cmpl	$0, %eax
	jne	.LBB15_9
# %bb.1:                                # %func_writeDquant_CABAC.23
	movq	%rbx, %rdi
	movq	%r14, %rsi
	callq	writeDquant_CABAC.23
	popq	%rbx
	popq	%r14
	popq	%rbp
	.cfi_def_cfa %rsp, 8
	retq
.LBB15_2:                               # %func_writeDquant_CABAC.25
	.cfi_def_cfa %rbp, 16
	movq	%rbx, %rdi
	movq	%r14, %rsi
	callq	writeDquant_CABAC.25
	popq	%rbx
	popq	%r14
	popq	%rbp
	.cfi_def_cfa %rsp, 8
	retq
.LBB15_3:                               # %func_writeDquant_CABAC.58
	.cfi_def_cfa %rbp, 16
	movq	%rbx, %rdi
	movq	%r14, %rsi
	callq	writeDquant_CABAC.58
	popq	%rbx
	popq	%r14
	popq	%rbp
	.cfi_def_cfa %rsp, 8
	retq
.LBB15_4:                               # %func_writeDquant_CABAC.89
	.cfi_def_cfa %rbp, 16
	movq	%rbx, %rdi
	movq	%r14, %rsi
	callq	writeDquant_CABAC.89
	popq	%rbx
	popq	%r14
	popq	%rbp
	.cfi_def_cfa %rsp, 8
	retq
.LBB15_5:                               # %func_writeDquant_CABAC.93
	.cfi_def_cfa %rbp, 16
	movq	%rbx, %rdi
	movq	%r14, %rsi
	callq	writeDquant_CABAC.93
	popq	%rbx
	popq	%r14
	popq	%rbp
	.cfi_def_cfa %rsp, 8
	retq
.LBB15_6:                               # %func_writeDquant_CABAC.103
	.cfi_def_cfa %rbp, 16
	movq	%rbx, %rdi
	movq	%r14, %rsi
	callq	writeDquant_CABAC.103
	popq	%rbx
	popq	%r14
	popq	%rbp
	.cfi_def_cfa %rsp, 8
	retq
.LBB15_7:                               # %func_writeDquant_CABAC.126
	.cfi_def_cfa %rbp, 16
	movq	%rbx, %rdi
	movq	%r14, %rsi
	callq	writeDquant_CABAC.126
	popq	%rbx
	popq	%r14
	popq	%rbp
	.cfi_def_cfa %rsp, 8
	retq
.LBB15_8:                               # %func_writeDquant_CABAC.135
	.cfi_def_cfa %rbp, 16
	movq	%rbx, %rdi
	movq	%r14, %rsi
	callq	writeDquant_CABAC.135
	popq	%rbx
	popq	%r14
	popq	%rbp
	.cfi_def_cfa %rsp, 8
	retq
.LBB15_9:                               # %ctrl0
	.cfi_def_cfa %rbp, 16
	cmpl	$1, %eax
	je	.LBB15_2
# %bb.10:                               # %ctrl1
	cmpl	$2, %eax
	je	.LBB15_3
# %bb.11:                               # %ctrl2
	cmpl	$3, %eax
	je	.LBB15_4
# %bb.12:                               # %ctrl3
	cmpl	$4, %eax
	je	.LBB15_5
# %bb.13:                               # %ctrl4
	cmpl	$5, %eax
	je	.LBB15_6
# %bb.14:                               # %ctrl5
	cmpl	$6, %eax
	je	.LBB15_7
	jmp	.LBB15_8
.Lfunc_end15:
	.size	writeDquant_CABAC, .Lfunc_end15-writeDquant_CABAC
	.cfi_endproc
                                        # -- End function
	.globl	writeMVD_CABAC          # -- Begin function writeMVD_CABAC
	.p2align	4, 0x90
	.type	writeMVD_CABAC,@function
writeMVD_CABAC:                         # @writeMVD_CABAC
	.cfi_startproc
# %bb.0:                                # %rand_bb
	pushq	%rbp
	.cfi_def_cfa_offset 16
	.cfi_offset %rbp, -16
	movq	%rsp, %rbp
	.cfi_def_cfa_register %rbp
	pushq	%r14
	pushq	%rbx
	.cfi_offset %rbx, -32
	.cfi_offset %r14, -24
	movq	%rsi, %r14
	movq	%rdi, %rbx
	callq	get_urand
	cmpl	$0, %eax
	jne	.LBB16_9
# %bb.1:                                # %func_writeMVD_CABAC.69
	movq	%rbx, %rdi
	movq	%r14, %rsi
	callq	writeMVD_CABAC.69
	popq	%rbx
	popq	%r14
	popq	%rbp
	.cfi_def_cfa %rsp, 8
	retq
.LBB16_2:                               # %func_writeMVD_CABAC.80
	.cfi_def_cfa %rbp, 16
	movq	%rbx, %rdi
	movq	%r14, %rsi
	callq	writeMVD_CABAC.80
	popq	%rbx
	popq	%r14
	popq	%rbp
	.cfi_def_cfa %rsp, 8
	retq
.LBB16_3:                               # %func_writeMVD_CABAC.136
	.cfi_def_cfa %rbp, 16
	movq	%rbx, %rdi
	movq	%r14, %rsi
	callq	writeMVD_CABAC.136
	popq	%rbx
	popq	%r14
	popq	%rbp
	.cfi_def_cfa %rsp, 8
	retq
.LBB16_4:                               # %func_writeMVD_CABAC.143
	.cfi_def_cfa %rbp, 16
	movq	%rbx, %rdi
	movq	%r14, %rsi
	callq	writeMVD_CABAC.143
	popq	%rbx
	popq	%r14
	popq	%rbp
	.cfi_def_cfa %rsp, 8
	retq
.LBB16_5:                               # %func_writeMVD_CABAC.149
	.cfi_def_cfa %rbp, 16
	movq	%rbx, %rdi
	movq	%r14, %rsi
	callq	writeMVD_CABAC.149
	popq	%rbx
	popq	%r14
	popq	%rbp
	.cfi_def_cfa %rsp, 8
	retq
.LBB16_6:                               # %func_writeMVD_CABAC.156
	.cfi_def_cfa %rbp, 16
	movq	%rbx, %rdi
	movq	%r14, %rsi
	callq	writeMVD_CABAC.156
	popq	%rbx
	popq	%r14
	popq	%rbp
	.cfi_def_cfa %rsp, 8
	retq
.LBB16_7:                               # %func_writeMVD_CABAC.161
	.cfi_def_cfa %rbp, 16
	movq	%rbx, %rdi
	movq	%r14, %rsi
	callq	writeMVD_CABAC.161
	popq	%rbx
	popq	%r14
	popq	%rbp
	.cfi_def_cfa %rsp, 8
	retq
.LBB16_8:                               # %func_writeMVD_CABAC.173
	.cfi_def_cfa %rbp, 16
	movq	%rbx, %rdi
	movq	%r14, %rsi
	callq	writeMVD_CABAC.173
	popq	%rbx
	popq	%r14
	popq	%rbp
	.cfi_def_cfa %rsp, 8
	retq
.LBB16_9:                               # %ctrl0
	.cfi_def_cfa %rbp, 16
	cmpl	$1, %eax
	je	.LBB16_2
# %bb.10:                               # %ctrl1
	cmpl	$2, %eax
	je	.LBB16_3
# %bb.11:                               # %ctrl2
	cmpl	$3, %eax
	je	.LBB16_4
# %bb.12:                               # %ctrl3
	cmpl	$4, %eax
	je	.LBB16_5
# %bb.13:                               # %ctrl4
	cmpl	$5, %eax
	je	.LBB16_6
# %bb.14:                               # %ctrl5
	cmpl	$6, %eax
	je	.LBB16_7
	jmp	.LBB16_8
.Lfunc_end16:
	.size	writeMVD_CABAC, .Lfunc_end16-writeMVD_CABAC
	.cfi_endproc
                                        # -- End function
	.globl	unary_exp_golomb_mv_encode # -- Begin function unary_exp_golomb_mv_encode
	.p2align	4, 0x90
	.type	unary_exp_golomb_mv_encode,@function
unary_exp_golomb_mv_encode:             # @unary_exp_golomb_mv_encode
	.cfi_startproc
# %bb.0:                                # %rand_bb
	pushq	%rbp
	.cfi_def_cfa_offset 16
	.cfi_offset %rbp, -16
	movq	%rsp, %rbp
	.cfi_def_cfa_register %rbp
	pushq	%r15
	pushq	%r14
	pushq	%r12
	pushq	%rbx
	.cfi_offset %rbx, -48
	.cfi_offset %r12, -40
	.cfi_offset %r14, -32
	.cfi_offset %r15, -24
	movl	%ecx, %r14d
	movq	%rdx, %r15
	movl	%esi, %r12d
	movq	%rdi, %rbx
	callq	get_urand
	cmpl	$0, %eax
	jne	.LBB17_9
# %bb.1:                                # %func_unary_exp_golomb_mv_encode.8
	movq	%rbx, %rdi
	movl	%r12d, %esi
	movq	%r15, %rdx
	movl	%r14d, %ecx
	callq	unary_exp_golomb_mv_encode.8
	popq	%rbx
	popq	%r12
	popq	%r14
	popq	%r15
	popq	%rbp
	.cfi_def_cfa %rsp, 8
	retq
.LBB17_2:                               # %func_unary_exp_golomb_mv_encode.24
	.cfi_def_cfa %rbp, 16
	movq	%rbx, %rdi
	movl	%r12d, %esi
	movq	%r15, %rdx
	movl	%r14d, %ecx
	callq	unary_exp_golomb_mv_encode.24
	popq	%rbx
	popq	%r12
	popq	%r14
	popq	%r15
	popq	%rbp
	.cfi_def_cfa %rsp, 8
	retq
.LBB17_3:                               # %func_unary_exp_golomb_mv_encode.30
	.cfi_def_cfa %rbp, 16
	movq	%rbx, %rdi
	movl	%r12d, %esi
	movq	%r15, %rdx
	movl	%r14d, %ecx
	callq	unary_exp_golomb_mv_encode.30
	popq	%rbx
	popq	%r12
	popq	%r14
	popq	%r15
	popq	%rbp
	.cfi_def_cfa %rsp, 8
	retq
.LBB17_4:                               # %func_unary_exp_golomb_mv_encode.54
	.cfi_def_cfa %rbp, 16
	movq	%rbx, %rdi
	movl	%r12d, %esi
	movq	%r15, %rdx
	movl	%r14d, %ecx
	callq	unary_exp_golomb_mv_encode.54
	popq	%rbx
	popq	%r12
	popq	%r14
	popq	%r15
	popq	%rbp
	.cfi_def_cfa %rsp, 8
	retq
.LBB17_5:                               # %func_unary_exp_golomb_mv_encode.107
	.cfi_def_cfa %rbp, 16
	movq	%rbx, %rdi
	movl	%r12d, %esi
	movq	%r15, %rdx
	movl	%r14d, %ecx
	callq	unary_exp_golomb_mv_encode.107
	popq	%rbx
	popq	%r12
	popq	%r14
	popq	%r15
	popq	%rbp
	.cfi_def_cfa %rsp, 8
	retq
.LBB17_6:                               # %func_unary_exp_golomb_mv_encode.122
	.cfi_def_cfa %rbp, 16
	movq	%rbx, %rdi
	movl	%r12d, %esi
	movq	%r15, %rdx
	movl	%r14d, %ecx
	callq	unary_exp_golomb_mv_encode.122
	popq	%rbx
	popq	%r12
	popq	%r14
	popq	%r15
	popq	%rbp
	.cfi_def_cfa %rsp, 8
	retq
.LBB17_7:                               # %func_unary_exp_golomb_mv_encode.131
	.cfi_def_cfa %rbp, 16
	movq	%rbx, %rdi
	movl	%r12d, %esi
	movq	%r15, %rdx
	movl	%r14d, %ecx
	callq	unary_exp_golomb_mv_encode.131
	popq	%rbx
	popq	%r12
	popq	%r14
	popq	%r15
	popq	%rbp
	.cfi_def_cfa %rsp, 8
	retq
.LBB17_8:                               # %func_unary_exp_golomb_mv_encode.140
	.cfi_def_cfa %rbp, 16
	movq	%rbx, %rdi
	movl	%r12d, %esi
	movq	%r15, %rdx
	movl	%r14d, %ecx
	callq	unary_exp_golomb_mv_encode.140
	popq	%rbx
	popq	%r12
	popq	%r14
	popq	%r15
	popq	%rbp
	.cfi_def_cfa %rsp, 8
	retq
.LBB17_9:                               # %ctrl0
	.cfi_def_cfa %rbp, 16
	cmpl	$1, %eax
	je	.LBB17_2
# %bb.10:                               # %ctrl1
	cmpl	$2, %eax
	je	.LBB17_3
# %bb.11:                               # %ctrl2
	cmpl	$3, %eax
	je	.LBB17_4
# %bb.12:                               # %ctrl3
	cmpl	$4, %eax
	je	.LBB17_5
# %bb.13:                               # %ctrl4
	cmpl	$5, %eax
	je	.LBB17_6
# %bb.14:                               # %ctrl5
	cmpl	$6, %eax
	je	.LBB17_7
	jmp	.LBB17_8
.Lfunc_end17:
	.size	unary_exp_golomb_mv_encode, .Lfunc_end17-unary_exp_golomb_mv_encode
	.cfi_endproc
                                        # -- End function
	.globl	writeCIPredMode_CABAC   # -- Begin function writeCIPredMode_CABAC
	.p2align	4, 0x90
	.type	writeCIPredMode_CABAC,@function
writeCIPredMode_CABAC:                  # @writeCIPredMode_CABAC
	.cfi_startproc
# %bb.0:                                # %rand_bb
	pushq	%rbp
	.cfi_def_cfa_offset 16
	.cfi_offset %rbp, -16
	movq	%rsp, %rbp
	.cfi_def_cfa_register %rbp
	pushq	%r14
	pushq	%rbx
	.cfi_offset %rbx, -32
	.cfi_offset %r14, -24
	movq	%rsi, %r14
	movq	%rdi, %rbx
	callq	get_urand
	cmpl	$0, %eax
	jne	.LBB18_9
# %bb.1:                                # %func_writeCIPredMode_CABAC.9
	movq	%rbx, %rdi
	movq	%r14, %rsi
	callq	writeCIPredMode_CABAC.9
	popq	%rbx
	popq	%r14
	popq	%rbp
	.cfi_def_cfa %rsp, 8
	retq
.LBB18_2:                               # %func_writeCIPredMode_CABAC.27
	.cfi_def_cfa %rbp, 16
	movq	%rbx, %rdi
	movq	%r14, %rsi
	callq	writeCIPredMode_CABAC.27
	popq	%rbx
	popq	%r14
	popq	%rbp
	.cfi_def_cfa %rsp, 8
	retq
.LBB18_3:                               # %func_writeCIPredMode_CABAC.42
	.cfi_def_cfa %rbp, 16
	movq	%rbx, %rdi
	movq	%r14, %rsi
	callq	writeCIPredMode_CABAC.42
	popq	%rbx
	popq	%r14
	popq	%rbp
	.cfi_def_cfa %rsp, 8
	retq
.LBB18_4:                               # %func_writeCIPredMode_CABAC.57
	.cfi_def_cfa %rbp, 16
	movq	%rbx, %rdi
	movq	%r14, %rsi
	callq	writeCIPredMode_CABAC.57
	popq	%rbx
	popq	%r14
	popq	%rbp
	.cfi_def_cfa %rsp, 8
	retq
.LBB18_5:                               # %func_writeCIPredMode_CABAC.66
	.cfi_def_cfa %rbp, 16
	movq	%rbx, %rdi
	movq	%r14, %rsi
	callq	writeCIPredMode_CABAC.66
	popq	%rbx
	popq	%r14
	popq	%rbp
	.cfi_def_cfa %rsp, 8
	retq
.LBB18_6:                               # %func_writeCIPredMode_CABAC.71
	.cfi_def_cfa %rbp, 16
	movq	%rbx, %rdi
	movq	%r14, %rsi
	callq	writeCIPredMode_CABAC.71
	popq	%rbx
	popq	%r14
	popq	%rbp
	.cfi_def_cfa %rsp, 8
	retq
.LBB18_7:                               # %func_writeCIPredMode_CABAC.85
	.cfi_def_cfa %rbp, 16
	movq	%rbx, %rdi
	movq	%r14, %rsi
	callq	writeCIPredMode_CABAC.85
	popq	%rbx
	popq	%r14
	popq	%rbp
	.cfi_def_cfa %rsp, 8
	retq
.LBB18_8:                               # %func_writeCIPredMode_CABAC.91
	.cfi_def_cfa %rbp, 16
	movq	%rbx, %rdi
	movq	%r14, %rsi
	callq	writeCIPredMode_CABAC.91
	popq	%rbx
	popq	%r14
	popq	%rbp
	.cfi_def_cfa %rsp, 8
	retq
.LBB18_9:                               # %ctrl0
	.cfi_def_cfa %rbp, 16
	cmpl	$1, %eax
	je	.LBB18_2
# %bb.10:                               # %ctrl1
	cmpl	$2, %eax
	je	.LBB18_3
# %bb.11:                               # %ctrl2
	cmpl	$3, %eax
	je	.LBB18_4
# %bb.12:                               # %ctrl3
	cmpl	$4, %eax
	je	.LBB18_5
# %bb.13:                               # %ctrl4
	cmpl	$5, %eax
	je	.LBB18_6
# %bb.14:                               # %ctrl5
	cmpl	$6, %eax
	je	.LBB18_7
	jmp	.LBB18_8
.Lfunc_end18:
	.size	writeCIPredMode_CABAC, .Lfunc_end18-writeCIPredMode_CABAC
	.cfi_endproc
                                        # -- End function
	.globl	unary_bin_max_encode    # -- Begin function unary_bin_max_encode
	.p2align	4, 0x90
	.type	unary_bin_max_encode,@function
unary_bin_max_encode:                   # @unary_bin_max_encode
	.cfi_startproc
# %bb.0:                                # %rand_bb
	pushq	%rbp
	.cfi_def_cfa_offset 16
	.cfi_offset %rbp, -16
	movq	%rsp, %rbp
	.cfi_def_cfa_register %rbp
	pushq	%r15
	pushq	%r14
	pushq	%r13
	pushq	%r12
	pushq	%rbx
	pushq	%rax
	.cfi_offset %rbx, -56
	.cfi_offset %r12, -48
	.cfi_offset %r13, -40
	.cfi_offset %r14, -32
	.cfi_offset %r15, -24
	movl	%r8d, %r14d
	movl	%ecx, %r15d
	movq	%rdx, %r12
	movl	%esi, %r13d
	movq	%rdi, %rbx
	callq	get_urand
	cmpl	$0, %eax
	jne	.LBB19_9
# %bb.1:                                # %func_unary_bin_max_encode.39
	movq	%rbx, %rdi
	movl	%r13d, %esi
	movq	%r12, %rdx
	movl	%r15d, %ecx
	movl	%r14d, %r8d
	callq	unary_bin_max_encode.39
	addq	$8, %rsp
	popq	%rbx
	popq	%r12
	popq	%r13
	popq	%r14
	popq	%r15
	popq	%rbp
	.cfi_def_cfa %rsp, 8
	retq
.LBB19_2:                               # %func_unary_bin_max_encode.52
	.cfi_def_cfa %rbp, 16
	movq	%rbx, %rdi
	movl	%r13d, %esi
	movq	%r12, %rdx
	movl	%r15d, %ecx
	movl	%r14d, %r8d
	callq	unary_bin_max_encode.52
	addq	$8, %rsp
	popq	%rbx
	popq	%r12
	popq	%r13
	popq	%r14
	popq	%r15
	popq	%rbp
	.cfi_def_cfa %rsp, 8
	retq
.LBB19_3:                               # %func_unary_bin_max_encode.62
	.cfi_def_cfa %rbp, 16
	movq	%rbx, %rdi
	movl	%r13d, %esi
	movq	%r12, %rdx
	movl	%r15d, %ecx
	movl	%r14d, %r8d
	callq	unary_bin_max_encode.62
	addq	$8, %rsp
	popq	%rbx
	popq	%r12
	popq	%r13
	popq	%r14
	popq	%r15
	popq	%rbp
	.cfi_def_cfa %rsp, 8
	retq
.LBB19_4:                               # %func_unary_bin_max_encode.70
	.cfi_def_cfa %rbp, 16
	movq	%rbx, %rdi
	movl	%r13d, %esi
	movq	%r12, %rdx
	movl	%r15d, %ecx
	movl	%r14d, %r8d
	callq	unary_bin_max_encode.70
	addq	$8, %rsp
	popq	%rbx
	popq	%r12
	popq	%r13
	popq	%r14
	popq	%r15
	popq	%rbp
	.cfi_def_cfa %rsp, 8
	retq
.LBB19_5:                               # %func_unary_bin_max_encode.81
	.cfi_def_cfa %rbp, 16
	movq	%rbx, %rdi
	movl	%r13d, %esi
	movq	%r12, %rdx
	movl	%r15d, %ecx
	movl	%r14d, %r8d
	callq	unary_bin_max_encode.81
	addq	$8, %rsp
	popq	%rbx
	popq	%r12
	popq	%r13
	popq	%r14
	popq	%r15
	popq	%rbp
	.cfi_def_cfa %rsp, 8
	retq
.LBB19_6:                               # %func_unary_bin_max_encode.119
	.cfi_def_cfa %rbp, 16
	movq	%rbx, %rdi
	movl	%r13d, %esi
	movq	%r12, %rdx
	movl	%r15d, %ecx
	movl	%r14d, %r8d
	callq	unary_bin_max_encode.119
	addq	$8, %rsp
	popq	%rbx
	popq	%r12
	popq	%r13
	popq	%r14
	popq	%r15
	popq	%rbp
	.cfi_def_cfa %rsp, 8
	retq
.LBB19_7:                               # %func_unary_bin_max_encode.132
	.cfi_def_cfa %rbp, 16
	movq	%rbx, %rdi
	movl	%r13d, %esi
	movq	%r12, %rdx
	movl	%r15d, %ecx
	movl	%r14d, %r8d
	callq	unary_bin_max_encode.132
	addq	$8, %rsp
	popq	%rbx
	popq	%r12
	popq	%r13
	popq	%r14
	popq	%r15
	popq	%rbp
	.cfi_def_cfa %rsp, 8
	retq
.LBB19_8:                               # %func_unary_bin_max_encode.138
	.cfi_def_cfa %rbp, 16
	movq	%rbx, %rdi
	movl	%r13d, %esi
	movq	%r12, %rdx
	movl	%r15d, %ecx
	movl	%r14d, %r8d
	callq	unary_bin_max_encode.138
	addq	$8, %rsp
	popq	%rbx
	popq	%r12
	popq	%r13
	popq	%r14
	popq	%r15
	popq	%rbp
	.cfi_def_cfa %rsp, 8
	retq
.LBB19_9:                               # %ctrl0
	.cfi_def_cfa %rbp, 16
	cmpl	$1, %eax
	je	.LBB19_2
# %bb.10:                               # %ctrl1
	cmpl	$2, %eax
	je	.LBB19_3
# %bb.11:                               # %ctrl2
	cmpl	$3, %eax
	je	.LBB19_4
# %bb.12:                               # %ctrl3
	cmpl	$4, %eax
	je	.LBB19_5
# %bb.13:                               # %ctrl4
	cmpl	$5, %eax
	je	.LBB19_6
# %bb.14:                               # %ctrl5
	cmpl	$6, %eax
	je	.LBB19_7
	jmp	.LBB19_8
.Lfunc_end19:
	.size	unary_bin_max_encode, .Lfunc_end19-unary_bin_max_encode
	.cfi_endproc
                                        # -- End function
	.globl	writeCBP_BIT_CABAC      # -- Begin function writeCBP_BIT_CABAC
	.p2align	4, 0x90
	.type	writeCBP_BIT_CABAC,@function
writeCBP_BIT_CABAC:                     # @writeCBP_BIT_CABAC
	.cfi_startproc
# %bb.0:                                # %rand_bb
	pushq	%rbp
	.cfi_def_cfa_offset 16
	.cfi_offset %rbp, -16
	movq	%rsp, %rbp
	.cfi_def_cfa_register %rbp
	pushq	%r15
	pushq	%r14
	pushq	%r13
	pushq	%r12
	pushq	%rbx
	pushq	%rax
	.cfi_offset %rbx, -56
	.cfi_offset %r12, -48
	.cfi_offset %r13, -40
	.cfi_offset %r14, -32
	.cfi_offset %r15, -24
	movq	%r9, -48(%rbp)          # 8-byte Spill
	movl	%r8d, %r12d
	movq	%rcx, %r13
	movl	%edx, %ebx
	movl	%esi, %r14d
	movl	%edi, %r15d
	callq	get_urand
	cmpl	$0, %eax
	jne	.LBB20_9
# %bb.1:                                # %func_writeCBP_BIT_CABAC.56
	movl	%r15d, %edi
	movl	%r14d, %esi
	movl	%ebx, %edx
	movq	%r13, %rcx
	movl	%r12d, %r8d
	movq	-48(%rbp), %r9          # 8-byte Reload
	callq	writeCBP_BIT_CABAC.56
	addq	$8, %rsp
	popq	%rbx
	popq	%r12
	popq	%r13
	popq	%r14
	popq	%r15
	popq	%rbp
	.cfi_def_cfa %rsp, 8
	retq
.LBB20_2:                               # %func_writeCBP_BIT_CABAC.60
	.cfi_def_cfa %rbp, 16
	movl	%r15d, %edi
	movl	%r14d, %esi
	movl	%ebx, %edx
	movq	%r13, %rcx
	movl	%r12d, %r8d
	callq	writeCBP_BIT_CABAC.60
	addq	$8, %rsp
	popq	%rbx
	popq	%r12
	popq	%r13
	popq	%r14
	popq	%r15
	popq	%rbp
	.cfi_def_cfa %rsp, 8
	retq
.LBB20_3:                               # %func_writeCBP_BIT_CABAC.77
	.cfi_def_cfa %rbp, 16
	movl	%r15d, %edi
	movl	%r14d, %esi
	movl	%ebx, %edx
	movq	%r13, %rcx
	movl	%r12d, %r8d
	callq	writeCBP_BIT_CABAC.77
	addq	$8, %rsp
	popq	%rbx
	popq	%r12
	popq	%r13
	popq	%r14
	popq	%r15
	popq	%rbp
	.cfi_def_cfa %rsp, 8
	retq
.LBB20_4:                               # %func_writeCBP_BIT_CABAC.96
	.cfi_def_cfa %rbp, 16
	movl	%r15d, %edi
	movl	%r14d, %esi
	movl	%ebx, %edx
	movq	%r13, %rcx
	movl	%r12d, %r8d
	callq	writeCBP_BIT_CABAC.96
	addq	$8, %rsp
	popq	%rbx
	popq	%r12
	popq	%r13
	popq	%r14
	popq	%r15
	popq	%rbp
	.cfi_def_cfa %rsp, 8
	retq
.LBB20_5:                               # %func_writeCBP_BIT_CABAC.115
	.cfi_def_cfa %rbp, 16
	movl	%r15d, %edi
	movl	%r14d, %esi
	movl	%ebx, %edx
	movq	%r13, %rcx
	movl	%r12d, %r8d
	callq	writeCBP_BIT_CABAC.115
	addq	$8, %rsp
	popq	%rbx
	popq	%r12
	popq	%r13
	popq	%r14
	popq	%r15
	popq	%rbp
	.cfi_def_cfa %rsp, 8
	retq
.LBB20_6:                               # %func_writeCBP_BIT_CABAC.121
	.cfi_def_cfa %rbp, 16
	movl	%r15d, %edi
	movl	%r14d, %esi
	movl	%ebx, %edx
	movq	%r13, %rcx
	movl	%r12d, %r8d
	callq	writeCBP_BIT_CABAC.121
	addq	$8, %rsp
	popq	%rbx
	popq	%r12
	popq	%r13
	popq	%r14
	popq	%r15
	popq	%rbp
	.cfi_def_cfa %rsp, 8
	retq
.LBB20_7:                               # %func_writeCBP_BIT_CABAC.125
	.cfi_def_cfa %rbp, 16
	callq	writeCBP_BIT_CABAC.125
	addq	$8, %rsp
	popq	%rbx
	popq	%r12
	popq	%r13
	popq	%r14
	popq	%r15
	popq	%rbp
	.cfi_def_cfa %rsp, 8
	retq
.LBB20_8:                               # %func_writeCBP_BIT_CABAC.155
	.cfi_def_cfa %rbp, 16
	callq	writeCBP_BIT_CABAC.155
	addq	$8, %rsp
	popq	%rbx
	popq	%r12
	popq	%r13
	popq	%r14
	popq	%r15
	popq	%rbp
	.cfi_def_cfa %rsp, 8
	retq
.LBB20_9:                               # %ctrl0
	.cfi_def_cfa %rbp, 16
	movq	-48(%rbp), %r9          # 8-byte Reload
	cmpl	$1, %eax
	je	.LBB20_2
# %bb.10:                               # %ctrl1
	cmpl	$2, %eax
	je	.LBB20_3
# %bb.11:                               # %ctrl2
	cmpl	$3, %eax
	je	.LBB20_4
# %bb.12:                               # %ctrl3
	cmpl	$4, %eax
	je	.LBB20_5
# %bb.13:                               # %ctrl4
	cmpl	$5, %eax
	je	.LBB20_6
# %bb.14:                               # %ctrl5
	cmpl	$6, %eax
	movl	%r12d, %r8d
	movq	%r13, %rcx
	movl	%ebx, %edx
	movl	%r14d, %esi
	movl	%r15d, %edi
	je	.LBB20_7
	jmp	.LBB20_8
.Lfunc_end20:
	.size	writeCBP_BIT_CABAC, .Lfunc_end20-writeCBP_BIT_CABAC
	.cfi_endproc
                                        # -- End function
	.globl	writeCBP_CABAC          # -- Begin function writeCBP_CABAC
	.p2align	4, 0x90
	.type	writeCBP_CABAC,@function
writeCBP_CABAC:                         # @writeCBP_CABAC
	.cfi_startproc
# %bb.0:                                # %rand_bb
	pushq	%rbp
	.cfi_def_cfa_offset 16
	.cfi_offset %rbp, -16
	movq	%rsp, %rbp
	.cfi_def_cfa_register %rbp
	pushq	%r14
	pushq	%rbx
	.cfi_offset %rbx, -32
	.cfi_offset %r14, -24
	movq	%rsi, %r14
	movq	%rdi, %rbx
	callq	get_urand
	cmpl	$0, %eax
	jne	.LBB21_9
# %bb.1:                                # %func_writeCBP_CABAC.22
	movq	%rbx, %rdi
	movq	%r14, %rsi
	callq	writeCBP_CABAC.22
	popq	%rbx
	popq	%r14
	popq	%rbp
	.cfi_def_cfa %rsp, 8
	retq
.LBB21_2:                               # %func_writeCBP_CABAC.34
	.cfi_def_cfa %rbp, 16
	movq	%rbx, %rdi
	movq	%r14, %rsi
	callq	writeCBP_CABAC.34
	popq	%rbx
	popq	%r14
	popq	%rbp
	.cfi_def_cfa %rsp, 8
	retq
.LBB21_3:                               # %func_writeCBP_CABAC.37
	.cfi_def_cfa %rbp, 16
	movq	%rbx, %rdi
	movq	%r14, %rsi
	callq	writeCBP_CABAC.37
	popq	%rbx
	popq	%r14
	popq	%rbp
	.cfi_def_cfa %rsp, 8
	retq
.LBB21_4:                               # %func_writeCBP_CABAC.150
	.cfi_def_cfa %rbp, 16
	movq	%rbx, %rdi
	movq	%r14, %rsi
	callq	writeCBP_CABAC.150
	popq	%rbx
	popq	%r14
	popq	%rbp
	.cfi_def_cfa %rsp, 8
	retq
.LBB21_5:                               # %func_writeCBP_CABAC.153
	.cfi_def_cfa %rbp, 16
	movq	%rbx, %rdi
	movq	%r14, %rsi
	callq	writeCBP_CABAC.153
	popq	%rbx
	popq	%r14
	popq	%rbp
	.cfi_def_cfa %rsp, 8
	retq
.LBB21_6:                               # %func_writeCBP_CABAC.157
	.cfi_def_cfa %rbp, 16
	movq	%rbx, %rdi
	movq	%r14, %rsi
	callq	writeCBP_CABAC.157
	popq	%rbx
	popq	%r14
	popq	%rbp
	.cfi_def_cfa %rsp, 8
	retq
.LBB21_7:                               # %func_writeCBP_CABAC.158
	.cfi_def_cfa %rbp, 16
	movq	%rbx, %rdi
	movq	%r14, %rsi
	callq	writeCBP_CABAC.158
	popq	%rbx
	popq	%r14
	popq	%rbp
	.cfi_def_cfa %rsp, 8
	retq
.LBB21_8:                               # %func_writeCBP_CABAC.171
	.cfi_def_cfa %rbp, 16
	movq	%rbx, %rdi
	movq	%r14, %rsi
	callq	writeCBP_CABAC.171
	popq	%rbx
	popq	%r14
	popq	%rbp
	.cfi_def_cfa %rsp, 8
	retq
.LBB21_9:                               # %ctrl0
	.cfi_def_cfa %rbp, 16
	cmpl	$1, %eax
	je	.LBB21_2
# %bb.10:                               # %ctrl1
	cmpl	$2, %eax
	je	.LBB21_3
# %bb.11:                               # %ctrl2
	cmpl	$3, %eax
	je	.LBB21_4
# %bb.12:                               # %ctrl3
	cmpl	$4, %eax
	je	.LBB21_5
# %bb.13:                               # %ctrl4
	cmpl	$5, %eax
	je	.LBB21_6
# %bb.14:                               # %ctrl5
	cmpl	$6, %eax
	je	.LBB21_7
	jmp	.LBB21_8
.Lfunc_end21:
	.size	writeCBP_CABAC, .Lfunc_end21-writeCBP_CABAC
	.cfi_endproc
                                        # -- End function
	.globl	write_and_store_CBP_block_bit # -- Begin function write_and_store_CBP_block_bit
	.p2align	4, 0x90
	.type	write_and_store_CBP_block_bit,@function
write_and_store_CBP_block_bit:          # @write_and_store_CBP_block_bit
	.cfi_startproc
# %bb.0:                                # %rand_bb
	pushq	%rbp
	.cfi_def_cfa_offset 16
	.cfi_offset %rbp, -16
	movq	%rsp, %rbp
	.cfi_def_cfa_register %rbp
	pushq	%r15
	pushq	%r14
	pushq	%r12
	pushq	%rbx
	.cfi_offset %rbx, -48
	.cfi_offset %r12, -40
	.cfi_offset %r14, -32
	.cfi_offset %r15, -24
	movl	%ecx, %r14d
	movl	%edx, %r15d
	movq	%rsi, %r12
	movq	%rdi, %rbx
	callq	get_urand
	cmpl	$0, %eax
	jne	.LBB22_9
# %bb.1:                                # %func_write_and_store_CBP_block_bit.61
	movq	%rbx, %rdi
	movq	%r12, %rsi
	movl	%r15d, %edx
	movl	%r14d, %ecx
	callq	write_and_store_CBP_block_bit.61
	popq	%rbx
	popq	%r12
	popq	%r14
	popq	%r15
	popq	%rbp
	.cfi_def_cfa %rsp, 8
	retq
.LBB22_2:                               # %func_write_and_store_CBP_block_bit.102
	.cfi_def_cfa %rbp, 16
	movq	%rbx, %rdi
	movq	%r12, %rsi
	movl	%r15d, %edx
	movl	%r14d, %ecx
	callq	write_and_store_CBP_block_bit.102
	popq	%rbx
	popq	%r12
	popq	%r14
	popq	%r15
	popq	%rbp
	.cfi_def_cfa %rsp, 8
	retq
.LBB22_3:                               # %func_write_and_store_CBP_block_bit.111
	.cfi_def_cfa %rbp, 16
	movq	%rbx, %rdi
	movq	%r12, %rsi
	movl	%r15d, %edx
	movl	%r14d, %ecx
	callq	write_and_store_CBP_block_bit.111
	popq	%rbx
	popq	%r12
	popq	%r14
	popq	%r15
	popq	%rbp
	.cfi_def_cfa %rsp, 8
	retq
.LBB22_4:                               # %func_write_and_store_CBP_block_bit.113
	.cfi_def_cfa %rbp, 16
	movq	%rbx, %rdi
	movq	%r12, %rsi
	movl	%r15d, %edx
	movl	%r14d, %ecx
	callq	write_and_store_CBP_block_bit.113
	popq	%rbx
	popq	%r12
	popq	%r14
	popq	%r15
	popq	%rbp
	.cfi_def_cfa %rsp, 8
	retq
.LBB22_5:                               # %func_write_and_store_CBP_block_bit.114
	.cfi_def_cfa %rbp, 16
	movq	%rbx, %rdi
	movq	%r12, %rsi
	movl	%r15d, %edx
	movl	%r14d, %ecx
	callq	write_and_store_CBP_block_bit.114
	popq	%rbx
	popq	%r12
	popq	%r14
	popq	%r15
	popq	%rbp
	.cfi_def_cfa %rsp, 8
	retq
.LBB22_6:                               # %func_write_and_store_CBP_block_bit.118
	.cfi_def_cfa %rbp, 16
	movq	%rbx, %rdi
	movq	%r12, %rsi
	movl	%r15d, %edx
	movl	%r14d, %ecx
	callq	write_and_store_CBP_block_bit.118
	popq	%rbx
	popq	%r12
	popq	%r14
	popq	%r15
	popq	%rbp
	.cfi_def_cfa %rsp, 8
	retq
.LBB22_7:                               # %func_write_and_store_CBP_block_bit.129
	.cfi_def_cfa %rbp, 16
	movq	%rbx, %rdi
	movq	%r12, %rsi
	movl	%r15d, %edx
	movl	%r14d, %ecx
	callq	write_and_store_CBP_block_bit.129
	popq	%rbx
	popq	%r12
	popq	%r14
	popq	%r15
	popq	%rbp
	.cfi_def_cfa %rsp, 8
	retq
.LBB22_8:                               # %func_write_and_store_CBP_block_bit.162
	.cfi_def_cfa %rbp, 16
	movq	%rbx, %rdi
	movq	%r12, %rsi
	movl	%r15d, %edx
	movl	%r14d, %ecx
	callq	write_and_store_CBP_block_bit.162
	popq	%rbx
	popq	%r12
	popq	%r14
	popq	%r15
	popq	%rbp
	.cfi_def_cfa %rsp, 8
	retq
.LBB22_9:                               # %ctrl0
	.cfi_def_cfa %rbp, 16
	cmpl	$1, %eax
	je	.LBB22_2
# %bb.10:                               # %ctrl1
	cmpl	$2, %eax
	je	.LBB22_3
# %bb.11:                               # %ctrl2
	cmpl	$3, %eax
	je	.LBB22_4
# %bb.12:                               # %ctrl3
	cmpl	$4, %eax
	je	.LBB22_5
# %bb.13:                               # %ctrl4
	cmpl	$5, %eax
	je	.LBB22_6
# %bb.14:                               # %ctrl5
	cmpl	$6, %eax
	je	.LBB22_7
	jmp	.LBB22_8
.Lfunc_end22:
	.size	write_and_store_CBP_block_bit, .Lfunc_end22-write_and_store_CBP_block_bit
	.cfi_endproc
                                        # -- End function
	.globl	write_significance_map  # -- Begin function write_significance_map
	.p2align	4, 0x90
	.type	write_significance_map,@function
write_significance_map:                 # @write_significance_map
	.cfi_startproc
# %bb.0:                                # %rand_bb
	pushq	%rbp
	.cfi_def_cfa_offset 16
	.cfi_offset %rbp, -16
	movq	%rsp, %rbp
	.cfi_def_cfa_register %rbp
	pushq	%r15
	pushq	%r14
	pushq	%r13
	pushq	%r12
	pushq	%rbx
	pushq	%rax
	.cfi_offset %rbx, -56
	.cfi_offset %r12, -48
	.cfi_offset %r13, -40
	.cfi_offset %r14, -32
	.cfi_offset %r15, -24
	movl	%r8d, %r14d
	movq	%rcx, %r15
	movl	%edx, %r12d
	movq	%rsi, %r13
	movq	%rdi, %rbx
	callq	get_urand
	cmpl	$0, %eax
	jne	.LBB23_9
# %bb.1:                                # %func_write_significance_map.17
	movq	%rbx, %rdi
	movq	%r13, %rsi
	movl	%r12d, %edx
	movq	%r15, %rcx
	movl	%r14d, %r8d
	callq	write_significance_map.17
	addq	$8, %rsp
	popq	%rbx
	popq	%r12
	popq	%r13
	popq	%r14
	popq	%r15
	popq	%rbp
	.cfi_def_cfa %rsp, 8
	retq
.LBB23_2:                               # %func_write_significance_map.21
	.cfi_def_cfa %rbp, 16
	movq	%rbx, %rdi
	movq	%r13, %rsi
	movl	%r12d, %edx
	movq	%r15, %rcx
	movl	%r14d, %r8d
	callq	write_significance_map.21
	addq	$8, %rsp
	popq	%rbx
	popq	%r12
	popq	%r13
	popq	%r14
	popq	%r15
	popq	%rbp
	.cfi_def_cfa %rsp, 8
	retq
.LBB23_3:                               # %func_write_significance_map.41
	.cfi_def_cfa %rbp, 16
	movq	%rbx, %rdi
	movq	%r13, %rsi
	movl	%r12d, %edx
	movq	%r15, %rcx
	movl	%r14d, %r8d
	callq	write_significance_map.41
	addq	$8, %rsp
	popq	%rbx
	popq	%r12
	popq	%r13
	popq	%r14
	popq	%r15
	popq	%rbp
	.cfi_def_cfa %rsp, 8
	retq
.LBB23_4:                               # %func_write_significance_map.50
	.cfi_def_cfa %rbp, 16
	movq	%rbx, %rdi
	movq	%r13, %rsi
	movl	%r12d, %edx
	movq	%r15, %rcx
	movl	%r14d, %r8d
	callq	write_significance_map.50
	addq	$8, %rsp
	popq	%rbx
	popq	%r12
	popq	%r13
	popq	%r14
	popq	%r15
	popq	%rbp
	.cfi_def_cfa %rsp, 8
	retq
.LBB23_5:                               # %func_write_significance_map.63
	.cfi_def_cfa %rbp, 16
	movq	%rbx, %rdi
	movq	%r13, %rsi
	movl	%r12d, %edx
	movq	%r15, %rcx
	movl	%r14d, %r8d
	callq	write_significance_map.63
	addq	$8, %rsp
	popq	%rbx
	popq	%r12
	popq	%r13
	popq	%r14
	popq	%r15
	popq	%rbp
	.cfi_def_cfa %rsp, 8
	retq
.LBB23_6:                               # %func_write_significance_map.68
	.cfi_def_cfa %rbp, 16
	movq	%rbx, %rdi
	movq	%r13, %rsi
	movl	%r12d, %edx
	movq	%r15, %rcx
	movl	%r14d, %r8d
	callq	write_significance_map.68
	addq	$8, %rsp
	popq	%rbx
	popq	%r12
	popq	%r13
	popq	%r14
	popq	%r15
	popq	%rbp
	.cfi_def_cfa %rsp, 8
	retq
.LBB23_7:                               # %func_write_significance_map.74
	.cfi_def_cfa %rbp, 16
	movq	%rbx, %rdi
	movq	%r13, %rsi
	movl	%r12d, %edx
	movq	%r15, %rcx
	movl	%r14d, %r8d
	callq	write_significance_map.74
	addq	$8, %rsp
	popq	%rbx
	popq	%r12
	popq	%r13
	popq	%r14
	popq	%r15
	popq	%rbp
	.cfi_def_cfa %rsp, 8
	retq
.LBB23_8:                               # %func_write_significance_map.78
	.cfi_def_cfa %rbp, 16
	movq	%rbx, %rdi
	movq	%r13, %rsi
	movl	%r12d, %edx
	movq	%r15, %rcx
	movl	%r14d, %r8d
	callq	write_significance_map.78
	addq	$8, %rsp
	popq	%rbx
	popq	%r12
	popq	%r13
	popq	%r14
	popq	%r15
	popq	%rbp
	.cfi_def_cfa %rsp, 8
	retq
.LBB23_9:                               # %ctrl0
	.cfi_def_cfa %rbp, 16
	cmpl	$1, %eax
	je	.LBB23_2
# %bb.10:                               # %ctrl1
	cmpl	$2, %eax
	je	.LBB23_3
# %bb.11:                               # %ctrl2
	cmpl	$3, %eax
	je	.LBB23_4
# %bb.12:                               # %ctrl3
	cmpl	$4, %eax
	je	.LBB23_5
# %bb.13:                               # %ctrl4
	cmpl	$5, %eax
	je	.LBB23_6
# %bb.14:                               # %ctrl5
	cmpl	$6, %eax
	je	.LBB23_7
	jmp	.LBB23_8
.Lfunc_end23:
	.size	write_significance_map, .Lfunc_end23-write_significance_map
	.cfi_endproc
                                        # -- End function
	.globl	write_significant_coefficients # -- Begin function write_significant_coefficients
	.p2align	4, 0x90
	.type	write_significant_coefficients,@function
write_significant_coefficients:         # @write_significant_coefficients
	.cfi_startproc
# %bb.0:                                # %rand_bb
	pushq	%rbp
	.cfi_def_cfa_offset 16
	.cfi_offset %rbp, -16
	movq	%rsp, %rbp
	.cfi_def_cfa_register %rbp
	pushq	%r15
	pushq	%r14
	pushq	%r12
	pushq	%rbx
	.cfi_offset %rbx, -48
	.cfi_offset %r12, -40
	.cfi_offset %r14, -32
	.cfi_offset %r15, -24
	movq	%rcx, %r14
	movl	%edx, %r15d
	movq	%rsi, %r12
	movq	%rdi, %rbx
	callq	get_urand
	cmpl	$0, %eax
	jne	.LBB24_9
# %bb.1:                                # %func_write_significant_coefficients.59
	movq	%rbx, %rdi
	movq	%r12, %rsi
	movl	%r15d, %edx
	movq	%r14, %rcx
	callq	write_significant_coefficients.59
	popq	%rbx
	popq	%r12
	popq	%r14
	popq	%r15
	popq	%rbp
	.cfi_def_cfa %rsp, 8
	retq
.LBB24_2:                               # %func_write_significant_coefficients.76
	.cfi_def_cfa %rbp, 16
	movq	%rbx, %rdi
	movq	%r12, %rsi
	movl	%r15d, %edx
	movq	%r14, %rcx
	callq	write_significant_coefficients.76
	popq	%rbx
	popq	%r12
	popq	%r14
	popq	%r15
	popq	%rbp
	.cfi_def_cfa %rsp, 8
	retq
.LBB24_3:                               # %func_write_significant_coefficients.84
	.cfi_def_cfa %rbp, 16
	movq	%rbx, %rdi
	movq	%r12, %rsi
	movl	%r15d, %edx
	movq	%r14, %rcx
	callq	write_significant_coefficients.84
	popq	%rbx
	popq	%r12
	popq	%r14
	popq	%r15
	popq	%rbp
	.cfi_def_cfa %rsp, 8
	retq
.LBB24_4:                               # %func_write_significant_coefficients.142
	.cfi_def_cfa %rbp, 16
	movq	%rbx, %rdi
	movq	%r12, %rsi
	movl	%r15d, %edx
	movq	%r14, %rcx
	callq	write_significant_coefficients.142
	popq	%rbx
	popq	%r12
	popq	%r14
	popq	%r15
	popq	%rbp
	.cfi_def_cfa %rsp, 8
	retq
.LBB24_5:                               # %func_write_significant_coefficients.170
	.cfi_def_cfa %rbp, 16
	movq	%rbx, %rdi
	movq	%r12, %rsi
	movl	%r15d, %edx
	movq	%r14, %rcx
	callq	write_significant_coefficients.170
	popq	%rbx
	popq	%r12
	popq	%r14
	popq	%r15
	popq	%rbp
	.cfi_def_cfa %rsp, 8
	retq
.LBB24_6:                               # %func_write_significant_coefficients.176
	.cfi_def_cfa %rbp, 16
	movq	%rbx, %rdi
	movq	%r12, %rsi
	movl	%r15d, %edx
	movq	%r14, %rcx
	callq	write_significant_coefficients.176
	popq	%rbx
	popq	%r12
	popq	%r14
	popq	%r15
	popq	%rbp
	.cfi_def_cfa %rsp, 8
	retq
.LBB24_7:                               # %func_write_significant_coefficients.177
	.cfi_def_cfa %rbp, 16
	movq	%rbx, %rdi
	movq	%r12, %rsi
	movl	%r15d, %edx
	movq	%r14, %rcx
	callq	write_significant_coefficients.177
	popq	%rbx
	popq	%r12
	popq	%r14
	popq	%r15
	popq	%rbp
	.cfi_def_cfa %rsp, 8
	retq
.LBB24_8:                               # %func_write_significant_coefficients.178
	.cfi_def_cfa %rbp, 16
	movq	%rbx, %rdi
	movq	%r12, %rsi
	movl	%r15d, %edx
	movq	%r14, %rcx
	callq	write_significant_coefficients.178
	popq	%rbx
	popq	%r12
	popq	%r14
	popq	%r15
	popq	%rbp
	.cfi_def_cfa %rsp, 8
	retq
.LBB24_9:                               # %ctrl0
	.cfi_def_cfa %rbp, 16
	cmpl	$1, %eax
	je	.LBB24_2
# %bb.10:                               # %ctrl1
	cmpl	$2, %eax
	je	.LBB24_3
# %bb.11:                               # %ctrl2
	cmpl	$3, %eax
	je	.LBB24_4
# %bb.12:                               # %ctrl3
	cmpl	$4, %eax
	je	.LBB24_5
# %bb.13:                               # %ctrl4
	cmpl	$5, %eax
	je	.LBB24_6
# %bb.14:                               # %ctrl5
	cmpl	$6, %eax
	je	.LBB24_7
	jmp	.LBB24_8
.Lfunc_end24:
	.size	write_significant_coefficients, .Lfunc_end24-write_significant_coefficients
	.cfi_endproc
                                        # -- End function
	.globl	unary_exp_golomb_level_encode # -- Begin function unary_exp_golomb_level_encode
	.p2align	4, 0x90
	.type	unary_exp_golomb_level_encode,@function
unary_exp_golomb_level_encode:          # @unary_exp_golomb_level_encode
	.cfi_startproc
# %bb.0:                                # %rand_bb
	pushq	%rbp
	.cfi_def_cfa_offset 16
	.cfi_offset %rbp, -16
	movq	%rsp, %rbp
	.cfi_def_cfa_register %rbp
	pushq	%r15
	pushq	%r14
	pushq	%rbx
	pushq	%rax
	.cfi_offset %rbx, -40
	.cfi_offset %r14, -32
	.cfi_offset %r15, -24
	movq	%rdx, %r14
	movl	%esi, %r15d
	movq	%rdi, %rbx
	callq	get_urand
	cmpl	$0, %eax
	jne	.LBB25_9
# %bb.1:                                # %func_unary_exp_golomb_level_encode.7
	movq	%rbx, %rdi
	movl	%r15d, %esi
	movq	%r14, %rdx
	callq	unary_exp_golomb_level_encode.7
	addq	$8, %rsp
	popq	%rbx
	popq	%r14
	popq	%r15
	popq	%rbp
	.cfi_def_cfa %rsp, 8
	retq
.LBB25_2:                               # %func_unary_exp_golomb_level_encode.15
	.cfi_def_cfa %rbp, 16
	movq	%rbx, %rdi
	movl	%r15d, %esi
	movq	%r14, %rdx
	callq	unary_exp_golomb_level_encode.15
	addq	$8, %rsp
	popq	%rbx
	popq	%r14
	popq	%r15
	popq	%rbp
	.cfi_def_cfa %rsp, 8
	retq
.LBB25_3:                               # %func_unary_exp_golomb_level_encode.19
	.cfi_def_cfa %rbp, 16
	movq	%rbx, %rdi
	movl	%r15d, %esi
	movq	%r14, %rdx
	callq	unary_exp_golomb_level_encode.19
	addq	$8, %rsp
	popq	%rbx
	popq	%r14
	popq	%r15
	popq	%rbp
	.cfi_def_cfa %rsp, 8
	retq
.LBB25_4:                               # %func_unary_exp_golomb_level_encode.44
	.cfi_def_cfa %rbp, 16
	movq	%rbx, %rdi
	movl	%r15d, %esi
	movq	%r14, %rdx
	callq	unary_exp_golomb_level_encode.44
	addq	$8, %rsp
	popq	%rbx
	popq	%r14
	popq	%r15
	popq	%rbp
	.cfi_def_cfa %rsp, 8
	retq
.LBB25_5:                               # %func_unary_exp_golomb_level_encode.45
	.cfi_def_cfa %rbp, 16
	movq	%rbx, %rdi
	movl	%r15d, %esi
	movq	%r14, %rdx
	callq	unary_exp_golomb_level_encode.45
	addq	$8, %rsp
	popq	%rbx
	popq	%r14
	popq	%r15
	popq	%rbp
	.cfi_def_cfa %rsp, 8
	retq
.LBB25_6:                               # %func_unary_exp_golomb_level_encode.75
	.cfi_def_cfa %rbp, 16
	movq	%rbx, %rdi
	movl	%r15d, %esi
	movq	%r14, %rdx
	callq	unary_exp_golomb_level_encode.75
	addq	$8, %rsp
	popq	%rbx
	popq	%r14
	popq	%r15
	popq	%rbp
	.cfi_def_cfa %rsp, 8
	retq
.LBB25_7:                               # %func_unary_exp_golomb_level_encode.99
	.cfi_def_cfa %rbp, 16
	movq	%rbx, %rdi
	movl	%r15d, %esi
	movq	%r14, %rdx
	callq	unary_exp_golomb_level_encode.99
	addq	$8, %rsp
	popq	%rbx
	popq	%r14
	popq	%r15
	popq	%rbp
	.cfi_def_cfa %rsp, 8
	retq
.LBB25_8:                               # %func_unary_exp_golomb_level_encode.106
	.cfi_def_cfa %rbp, 16
	movq	%rbx, %rdi
	movl	%r15d, %esi
	movq	%r14, %rdx
	callq	unary_exp_golomb_level_encode.106
	addq	$8, %rsp
	popq	%rbx
	popq	%r14
	popq	%r15
	popq	%rbp
	.cfi_def_cfa %rsp, 8
	retq
.LBB25_9:                               # %ctrl0
	.cfi_def_cfa %rbp, 16
	cmpl	$1, %eax
	je	.LBB25_2
# %bb.10:                               # %ctrl1
	cmpl	$2, %eax
	je	.LBB25_3
# %bb.11:                               # %ctrl2
	cmpl	$3, %eax
	je	.LBB25_4
# %bb.12:                               # %ctrl3
	cmpl	$4, %eax
	je	.LBB25_5
# %bb.13:                               # %ctrl4
	cmpl	$5, %eax
	je	.LBB25_6
# %bb.14:                               # %ctrl5
	cmpl	$6, %eax
	je	.LBB25_7
	jmp	.LBB25_8
.Lfunc_end25:
	.size	unary_exp_golomb_level_encode, .Lfunc_end25-unary_exp_golomb_level_encode
	.cfi_endproc
                                        # -- End function
	.globl	writeRunLevel_CABAC     # -- Begin function writeRunLevel_CABAC
	.p2align	4, 0x90
	.type	writeRunLevel_CABAC,@function
writeRunLevel_CABAC:                    # @writeRunLevel_CABAC
	.cfi_startproc
# %bb.0:                                # %rand_bb
	pushq	%rbp
	.cfi_def_cfa_offset 16
	.cfi_offset %rbp, -16
	movq	%rsp, %rbp
	.cfi_def_cfa_register %rbp
	pushq	%r14
	pushq	%rbx
	.cfi_offset %rbx, -32
	.cfi_offset %r14, -24
	movq	%rsi, %r14
	movq	%rdi, %rbx
	callq	get_urand
	cmpl	$0, %eax
	jne	.LBB26_9
# %bb.1:                                # %func_writeRunLevel_CABAC.2
	movq	%rbx, %rdi
	movq	%r14, %rsi
	callq	writeRunLevel_CABAC.2
	popq	%rbx
	popq	%r14
	popq	%rbp
	.cfi_def_cfa %rsp, 8
	retq
.LBB26_2:                               # %func_writeRunLevel_CABAC.3
	.cfi_def_cfa %rbp, 16
	movq	%rbx, %rdi
	movq	%r14, %rsi
	callq	writeRunLevel_CABAC.3
	popq	%rbx
	popq	%r14
	popq	%rbp
	.cfi_def_cfa %rsp, 8
	retq
.LBB26_3:                               # %func_writeRunLevel_CABAC.38
	.cfi_def_cfa %rbp, 16
	movq	%rbx, %rdi
	movq	%r14, %rsi
	callq	writeRunLevel_CABAC.38
	popq	%rbx
	popq	%r14
	popq	%rbp
	.cfi_def_cfa %rsp, 8
	retq
.LBB26_4:                               # %func_writeRunLevel_CABAC.64
	.cfi_def_cfa %rbp, 16
	movq	%rbx, %rdi
	movq	%r14, %rsi
	callq	writeRunLevel_CABAC.64
	popq	%rbx
	popq	%r14
	popq	%rbp
	.cfi_def_cfa %rsp, 8
	retq
.LBB26_5:                               # %func_writeRunLevel_CABAC.100
	.cfi_def_cfa %rbp, 16
	movq	%rbx, %rdi
	movq	%r14, %rsi
	callq	writeRunLevel_CABAC.100
	popq	%rbx
	popq	%r14
	popq	%rbp
	.cfi_def_cfa %rsp, 8
	retq
.LBB26_6:                               # %func_writeRunLevel_CABAC.120
	.cfi_def_cfa %rbp, 16
	movq	%rbx, %rdi
	movq	%r14, %rsi
	callq	writeRunLevel_CABAC.120
	popq	%rbx
	popq	%r14
	popq	%rbp
	.cfi_def_cfa %rsp, 8
	retq
.LBB26_7:                               # %func_writeRunLevel_CABAC.137
	.cfi_def_cfa %rbp, 16
	movq	%rbx, %rdi
	movq	%r14, %rsi
	callq	writeRunLevel_CABAC.137
	popq	%rbx
	popq	%r14
	popq	%rbp
	.cfi_def_cfa %rsp, 8
	retq
.LBB26_8:                               # %func_writeRunLevel_CABAC.165
	.cfi_def_cfa %rbp, 16
	movq	%rbx, %rdi
	movq	%r14, %rsi
	callq	writeRunLevel_CABAC.165
	popq	%rbx
	popq	%r14
	popq	%rbp
	.cfi_def_cfa %rsp, 8
	retq
.LBB26_9:                               # %ctrl0
	.cfi_def_cfa %rbp, 16
	cmpl	$1, %eax
	je	.LBB26_2
# %bb.10:                               # %ctrl1
	cmpl	$2, %eax
	je	.LBB26_3
# %bb.11:                               # %ctrl2
	cmpl	$3, %eax
	je	.LBB26_4
# %bb.12:                               # %ctrl3
	cmpl	$4, %eax
	je	.LBB26_5
# %bb.13:                               # %ctrl4
	cmpl	$5, %eax
	je	.LBB26_6
# %bb.14:                               # %ctrl5
	cmpl	$6, %eax
	je	.LBB26_7
	jmp	.LBB26_8
.Lfunc_end26:
	.size	writeRunLevel_CABAC, .Lfunc_end26-writeRunLevel_CABAC
	.cfi_endproc
                                        # -- End function
	.globl	exp_golomb_encode_eq_prob # -- Begin function exp_golomb_encode_eq_prob
	.p2align	4, 0x90
	.type	exp_golomb_encode_eq_prob,@function
exp_golomb_encode_eq_prob:              # @exp_golomb_encode_eq_prob
	.cfi_startproc
# %bb.0:                                # %rand_bb
	pushq	%rbp
	.cfi_def_cfa_offset 16
	.cfi_offset %rbp, -16
	movq	%rsp, %rbp
	.cfi_def_cfa_register %rbp
	pushq	%r15
	pushq	%r14
	pushq	%rbx
	pushq	%rax
	.cfi_offset %rbx, -40
	.cfi_offset %r14, -32
	.cfi_offset %r15, -24
	movl	%edx, %r14d
	movl	%esi, %r15d
	movq	%rdi, %rbx
	callq	get_urand
	cmpl	$0, %eax
	jne	.LBB27_7
# %bb.1:                                # %func_exp_golomb_encode_eq_prob.11
	movq	%rbx, %rdi
	movl	%r15d, %esi
	movl	%r14d, %edx
	callq	exp_golomb_encode_eq_prob.11
	addq	$8, %rsp
	popq	%rbx
	popq	%r14
	popq	%r15
	popq	%rbp
	.cfi_def_cfa %rsp, 8
	retq
.LBB27_2:                               # %func_exp_golomb_encode_eq_prob.20
	.cfi_def_cfa %rbp, 16
	movq	%rbx, %rdi
	movl	%r15d, %esi
	movl	%r14d, %edx
	callq	exp_golomb_encode_eq_prob.20
	addq	$8, %rsp
	popq	%rbx
	popq	%r14
	popq	%r15
	popq	%rbp
	.cfi_def_cfa %rsp, 8
	retq
.LBB27_3:                               # %func_exp_golomb_encode_eq_prob.130
	.cfi_def_cfa %rbp, 16
	movq	%rbx, %rdi
	movl	%r15d, %esi
	movl	%r14d, %edx
	callq	exp_golomb_encode_eq_prob.130
	addq	$8, %rsp
	popq	%rbx
	popq	%r14
	popq	%r15
	popq	%rbp
	.cfi_def_cfa %rsp, 8
	retq
.LBB27_4:                               # %func_exp_golomb_encode_eq_prob.139
	.cfi_def_cfa %rbp, 16
	movq	%rbx, %rdi
	movl	%r15d, %esi
	movl	%r14d, %edx
	callq	exp_golomb_encode_eq_prob.139
	addq	$8, %rsp
	popq	%rbx
	popq	%r14
	popq	%r15
	popq	%rbp
	.cfi_def_cfa %rsp, 8
	retq
.LBB27_5:                               # %func_exp_golomb_encode_eq_prob.147
	.cfi_def_cfa %rbp, 16
	movq	%rbx, %rdi
	movl	%r15d, %esi
	movl	%r14d, %edx
	callq	exp_golomb_encode_eq_prob.147
	addq	$8, %rsp
	popq	%rbx
	popq	%r14
	popq	%r15
	popq	%rbp
	.cfi_def_cfa %rsp, 8
	retq
.LBB27_6:                               # %func_exp_golomb_encode_eq_prob.166
	.cfi_def_cfa %rbp, 16
	movq	%rbx, %rdi
	movl	%r15d, %esi
	movl	%r14d, %edx
	callq	exp_golomb_encode_eq_prob.166
	addq	$8, %rsp
	popq	%rbx
	popq	%r14
	popq	%r15
	popq	%rbp
	.cfi_def_cfa %rsp, 8
	retq
.LBB27_7:                               # %ctrl0
	.cfi_def_cfa %rbp, 16
	cmpl	$1, %eax
	je	.LBB27_2
# %bb.8:                                # %ctrl1
	cmpl	$2, %eax
	je	.LBB27_3
# %bb.9:                                # %ctrl2
	cmpl	$3, %eax
	je	.LBB27_4
# %bb.10:                               # %ctrl3
	cmpl	$4, %eax
	je	.LBB27_5
	jmp	.LBB27_6
.Lfunc_end27:
	.size	exp_golomb_encode_eq_prob, .Lfunc_end27-exp_golomb_encode_eq_prob
	.cfi_endproc
                                        # -- End function
	.globl	writeB8_typeInfo_CABAC.1 # -- Begin function writeB8_typeInfo_CABAC.1
	.p2align	4, 0x90
	.type	writeB8_typeInfo_CABAC.1,@function
writeB8_typeInfo_CABAC.1:               # @writeB8_typeInfo_CABAC.1
	.cfi_startproc
# %bb.0:                                # %entry
	pushq	%rbp
	.cfi_def_cfa_offset 16
	.cfi_offset %rbp, -16
	movq	%rsp, %rbp
	.cfi_def_cfa_register %rbp
	subq	$48, %rsp
	movl	$1858281005, -32(%rbp)  # imm = 0x6EC31E2D
	movq	%rdi, -40(%rbp)
	movq	%rsi, -8(%rbp)
	movq	img, %rax
	cmpl	$1, 24(%rax)
	sete	%al
	andb	$1, %al
	movzbl	%al, %eax
	movl	%eax, -28(%rbp)
	movq	img, %rax
	movq	14160(%rax), %rax
	movq	32(%rax), %rax
	movq	%rax, -16(%rbp)
	movq	-40(%rbp), %rax
	movl	4(%rax), %eax
	movl	%eax, -20(%rbp)
	movl	$0, -44(%rbp)
	cmpl	$0, -28(%rbp)
	jne	.LBB28_8
# %bb.1:                                # %if.then
	movl	-20(%rbp), %eax
	movq	%rax, %rcx
	subq	$3, %rcx
	ja	.LBB28_7
# %bb.2:                                # %if.then
	movq	.LJTI28_0(,%rax,8), %rax
	jmpq	*%rax
.LBB28_3:                               # %sw.bb
	movq	-8(%rbp), %rdi
	movq	-16(%rbp), %rdx
	addq	$528, %rdx              # imm = 0x210
	addq	$16, %rdx
	movl	$1, %esi
	callq	biari_encode_symbol
	jmp	.LBB28_7
.LBB28_4:                               # %sw.bb2
	movq	-8(%rbp), %rdi
	movq	-16(%rbp), %rdx
	addq	$528, %rdx              # imm = 0x210
	addq	$16, %rdx
	xorl	%esi, %esi
	callq	biari_encode_symbol
	movq	-8(%rbp), %rdi
	movq	-16(%rbp), %rdx
	addq	$528, %rdx              # imm = 0x210
	addq	$48, %rdx
	xorl	%esi, %esi
	callq	biari_encode_symbol
	jmp	.LBB28_7
.LBB28_5:                               # %sw.bb9
	movq	-8(%rbp), %rdi
	movq	-16(%rbp), %rdx
	addq	$528, %rdx              # imm = 0x210
	addq	$16, %rdx
	xorl	%esi, %esi
	callq	biari_encode_symbol
	movq	-8(%rbp), %rdi
	movq	-16(%rbp), %rdx
	addq	$528, %rdx              # imm = 0x210
	addq	$48, %rdx
	movl	$1, %esi
	callq	biari_encode_symbol
	movq	-8(%rbp), %rdi
	movq	-16(%rbp), %rdx
	addq	$528, %rdx              # imm = 0x210
	addq	$64, %rdx
	movl	$1, %esi
	callq	biari_encode_symbol
	jmp	.LBB28_7
.LBB28_6:                               # %sw.bb19
	movq	-8(%rbp), %rdi
	movq	-16(%rbp), %rdx
	addq	$528, %rdx              # imm = 0x210
	addq	$16, %rdx
	xorl	%esi, %esi
	callq	biari_encode_symbol
	movq	-8(%rbp), %rdi
	movq	-16(%rbp), %rdx
	addq	$528, %rdx              # imm = 0x210
	addq	$48, %rdx
	movl	$1, %esi
	callq	biari_encode_symbol
	movq	-8(%rbp), %rdi
	movq	-16(%rbp), %rdx
	addq	$528, %rdx              # imm = 0x210
	addq	$64, %rdx
	xorl	%esi, %esi
	callq	biari_encode_symbol
.LBB28_7:                               # %sw.epilog
	jmp	.LBB28_39
.LBB28_8:                               # %if.else
	cmpl	$0, -20(%rbp)
	jne	.LBB28_10
# %bb.9:                                # %if.then31
	movq	-8(%rbp), %rdi
	movq	-16(%rbp), %rdx
	addq	$528, %rdx              # imm = 0x210
	addq	$144, %rdx
	xorl	%esi, %esi
	callq	biari_encode_symbol
	jmp	.LBB28_39
.LBB28_10:                              # %if.else35
	movq	-8(%rbp), %rdi
	movq	-16(%rbp), %rdx
	addq	$528, %rdx              # imm = 0x210
	addq	$144, %rdx
	movl	$1, %esi
	callq	biari_encode_symbol
	movl	-20(%rbp), %eax
	addl	$-1, %eax
	movl	%eax, -20(%rbp)
# %bb.11:                               # %if.end
	cmpl	$2, -20(%rbp)
	jge	.LBB28_16
# %bb.12:                               # %if.then41
	movq	-8(%rbp), %rdi
	movq	-16(%rbp), %rdx
	addq	$528, %rdx              # imm = 0x210
	addq	$144, %rdx
	addq	$16, %rdx
	xorl	%esi, %esi
	callq	biari_encode_symbol
	cmpl	$0, -20(%rbp)
	jne	.LBB28_14
# %bb.13:                               # %if.then47
	movq	-8(%rbp), %rdi
	movq	-16(%rbp), %rdx
	addq	$528, %rdx              # imm = 0x210
	addq	$144, %rdx
	addq	$48, %rdx
	xorl	%esi, %esi
	callq	biari_encode_symbol
	jmp	.LBB28_15
.LBB28_14:                              # %if.else51
	movq	-8(%rbp), %rdi
	movq	-16(%rbp), %rdx
	addq	$528, %rdx              # imm = 0x210
	addq	$144, %rdx
	addq	$48, %rdx
	movl	$1, %esi
	callq	biari_encode_symbol
.LBB28_15:                              # %if.end55
	jmp	.LBB28_38
.LBB28_16:                              # %if.else56
	cmpl	$6, -20(%rbp)
	jge	.LBB28_24
# %bb.17:                               # %if.then59
	movq	-8(%rbp), %rdi
	movq	-16(%rbp), %rdx
	addq	$528, %rdx              # imm = 0x210
	addq	$144, %rdx
	addq	$16, %rdx
	movl	$1, %esi
	callq	biari_encode_symbol
	movq	-8(%rbp), %rdi
	movq	-16(%rbp), %rdx
	addq	$528, %rdx              # imm = 0x210
	addq	$144, %rdx
	addq	$32, %rdx
	xorl	%esi, %esi
	callq	biari_encode_symbol
	movl	-20(%rbp), %eax
	subl	$2, %eax
	sarl	$1, %eax
	andl	$1, %eax
	movl	%eax, -24(%rbp)
	cmpl	$0, -24(%rbp)
	je	.LBB28_19
# %bb.18:                               # %if.then67
	movq	-8(%rbp), %rdi
	movq	-16(%rbp), %rdx
	addq	$528, %rdx              # imm = 0x210
	addq	$144, %rdx
	addq	$48, %rdx
	movl	$1, %esi
	callq	biari_encode_symbol
	jmp	.LBB28_20
.LBB28_19:                              # %if.else71
	movq	-8(%rbp), %rdi
	movq	-16(%rbp), %rdx
	addq	$528, %rdx              # imm = 0x210
	addq	$144, %rdx
	addq	$48, %rdx
	xorl	%esi, %esi
	callq	biari_encode_symbol
.LBB28_20:                              # %if.end75
	movl	-20(%rbp), %eax
	subl	$2, %eax
	andl	$1, %eax
	movl	%eax, -24(%rbp)
	cmpl	$0, -24(%rbp)
	je	.LBB28_22
# %bb.21:                               # %if.then79
	movq	-8(%rbp), %rdi
	movq	-16(%rbp), %rdx
	addq	$528, %rdx              # imm = 0x210
	addq	$144, %rdx
	addq	$48, %rdx
	movl	$1, %esi
	callq	biari_encode_symbol
	jmp	.LBB28_23
.LBB28_22:                              # %if.else83
	movq	-8(%rbp), %rdi
	movq	-16(%rbp), %rdx
	addq	$528, %rdx              # imm = 0x210
	addq	$144, %rdx
	addq	$48, %rdx
	xorl	%esi, %esi
	callq	biari_encode_symbol
.LBB28_23:                              # %if.end87
	jmp	.LBB28_37
.LBB28_24:                              # %if.else88
	movq	-8(%rbp), %rdi
	movq	-16(%rbp), %rdx
	addq	$528, %rdx              # imm = 0x210
	addq	$144, %rdx
	addq	$16, %rdx
	movl	$1, %esi
	callq	biari_encode_symbol
	movq	-8(%rbp), %rdi
	movq	-16(%rbp), %rdx
	addq	$528, %rdx              # imm = 0x210
	addq	$144, %rdx
	addq	$32, %rdx
	movl	$1, %esi
	callq	biari_encode_symbol
	movl	-20(%rbp), %eax
	subl	$6, %eax
	sarl	$2, %eax
	andl	$1, %eax
	movl	%eax, -24(%rbp)
	cmpl	$0, -24(%rbp)
	je	.LBB28_29
# %bb.25:                               # %if.then99
	movq	-8(%rbp), %rdi
	movq	-16(%rbp), %rdx
	addq	$528, %rdx              # imm = 0x210
	addq	$144, %rdx
	addq	$48, %rdx
	movl	$1, %esi
	callq	biari_encode_symbol
	movl	-20(%rbp), %eax
	subl	$6, %eax
	andl	$1, %eax
	movl	%eax, -24(%rbp)
	cmpl	$0, -24(%rbp)
	je	.LBB28_27
# %bb.26:                               # %if.then106
	movq	-8(%rbp), %rdi
	movq	-16(%rbp), %rdx
	addq	$528, %rdx              # imm = 0x210
	addq	$144, %rdx
	addq	$48, %rdx
	movl	$1, %esi
	callq	biari_encode_symbol
	jmp	.LBB28_28
.LBB28_27:                              # %if.else110
	movq	-8(%rbp), %rdi
	movq	-16(%rbp), %rdx
	addq	$528, %rdx              # imm = 0x210
	addq	$144, %rdx
	addq	$48, %rdx
	xorl	%esi, %esi
	callq	biari_encode_symbol
.LBB28_28:                              # %if.end114
	jmp	.LBB28_36
.LBB28_29:                              # %if.else115
	movq	-8(%rbp), %rdi
	movq	-16(%rbp), %rdx
	addq	$528, %rdx              # imm = 0x210
	addq	$144, %rdx
	addq	$48, %rdx
	xorl	%esi, %esi
	callq	biari_encode_symbol
	movl	-20(%rbp), %eax
	subl	$6, %eax
	sarl	$1, %eax
	andl	$1, %eax
	movl	%eax, -24(%rbp)
	cmpl	$0, -24(%rbp)
	je	.LBB28_31
# %bb.30:                               # %if.then123
	movq	-8(%rbp), %rdi
	movq	-16(%rbp), %rdx
	addq	$528, %rdx              # imm = 0x210
	addq	$144, %rdx
	addq	$48, %rdx
	movl	$1, %esi
	callq	biari_encode_symbol
	jmp	.LBB28_32
.LBB28_31:                              # %if.else127
	movq	-8(%rbp), %rdi
	movq	-16(%rbp), %rdx
	addq	$528, %rdx              # imm = 0x210
	addq	$144, %rdx
	addq	$48, %rdx
	xorl	%esi, %esi
	callq	biari_encode_symbol
.LBB28_32:                              # %if.end131
	movl	-20(%rbp), %eax
	subl	$6, %eax
	andl	$1, %eax
	movl	%eax, -24(%rbp)
	cmpl	$0, -24(%rbp)
	je	.LBB28_34
# %bb.33:                               # %if.then135
	movq	-8(%rbp), %rdi
	movq	-16(%rbp), %rdx
	addq	$528, %rdx              # imm = 0x210
	addq	$144, %rdx
	addq	$48, %rdx
	movl	$1, %esi
	callq	biari_encode_symbol
	jmp	.LBB28_35
.LBB28_34:                              # %if.else139
	movq	-8(%rbp), %rdi
	movq	-16(%rbp), %rdx
	addq	$528, %rdx              # imm = 0x210
	addq	$144, %rdx
	addq	$48, %rdx
	xorl	%esi, %esi
	callq	biari_encode_symbol
.LBB28_35:                              # %if.end143
	jmp	.LBB28_36
.LBB28_36:                              # %if.end144
	jmp	.LBB28_37
.LBB28_37:                              # %if.end145
	jmp	.LBB28_38
.LBB28_38:                              # %if.end146
	jmp	.LBB28_39
.LBB28_39:                              # %if.end147
	cmpl	$1858281005, -32(%rbp)  # imm = 0x6EC31E2D
	jne	.LBB28_41
.LBB28_40:
	addq	$48, %rsp
	popq	%rbp
	.cfi_def_cfa %rsp, 8
	retq
.LBB28_41:                              # %func_exit
	.cfi_def_cfa %rbp, 16
	callq	detect_breach
	jmp	.LBB28_40
.Lfunc_end28:
	.size	writeB8_typeInfo_CABAC.1, .Lfunc_end28-writeB8_typeInfo_CABAC.1
	.cfi_endproc
	.section	.rodata,"a",@progbits
	.p2align	3
.LJTI28_0:
	.quad	.LBB28_3
	.quad	.LBB28_4
	.quad	.LBB28_5
	.quad	.LBB28_6
                                        # -- End function
	.text
	.globl	writeRunLevel_CABAC.2   # -- Begin function writeRunLevel_CABAC.2
	.p2align	4, 0x90
	.type	writeRunLevel_CABAC.2,@function
writeRunLevel_CABAC.2:                  # @writeRunLevel_CABAC.2
	.cfi_startproc
# %bb.0:                                # %entry
	pushq	%rbp
	.cfi_def_cfa_offset 16
	.cfi_offset %rbp, -16
	movq	%rsp, %rbp
	.cfi_def_cfa_register %rbp
	subq	$48, %rsp
	movl	$1088584399, -36(%rbp)  # imm = 0x40E27ACF
	movq	%rdi, -16(%rbp)
	movq	%rsi, -24(%rbp)
	movq	img, %rax
	movq	14168(%rax), %rax
	movq	img, %rcx
	movslq	12(%rcx), %rcx
	imulq	$632, %rcx, %rcx        # imm = 0x278
	addq	%rcx, %rax
	movq	%rax, -32(%rbp)
	movq	-16(%rbp), %rax
	cmpl	$0, 4(%rax)
	je	.LBB29_6
# %bb.1:                                # %if.then
	movl	$0, -4(%rbp)
.LBB29_2:                               # %for.cond
                                        # =>This Inner Loop Header: Depth=1
	movl	-4(%rbp), %eax
	movq	-16(%rbp), %rcx
	cmpl	8(%rcx), %eax
	jge	.LBB29_5
# %bb.3:                                # %for.body
                                        #   in Loop: Header=BB29_2 Depth=1
	movl	writeRunLevel_CABAC.pos, %eax
	movl	%eax, %ecx
	addl	$1, %ecx
	movl	%ecx, writeRunLevel_CABAC.pos
	cltq
	movl	$0, writeRunLevel_CABAC.coeff(,%rax,4)
# %bb.4:                                # %for.inc
                                        #   in Loop: Header=BB29_2 Depth=1
	movl	-4(%rbp), %eax
	addl	$1, %eax
	movl	%eax, -4(%rbp)
	jmp	.LBB29_2
.LBB29_5:                               # %for.end
	movq	-16(%rbp), %rax
	movl	4(%rax), %eax
	movl	writeRunLevel_CABAC.pos, %ecx
	movl	%ecx, %edx
	addl	$1, %edx
	movl	%edx, writeRunLevel_CABAC.pos
	movslq	%ecx, %rcx
	movl	%eax, writeRunLevel_CABAC.coeff(,%rcx,4)
	movl	writeRunLevel_CABAC.coeff_ctr, %eax
	addl	$1, %eax
	movl	%eax, writeRunLevel_CABAC.coeff_ctr
	jmp	.LBB29_14
.LBB29_6:                               # %if.else
	jmp	.LBB29_7
.LBB29_7:                               # %for.cond10
                                        # =>This Inner Loop Header: Depth=1
	cmpl	$64, writeRunLevel_CABAC.pos
	jge	.LBB29_10
# %bb.8:                                # %for.body12
                                        #   in Loop: Header=BB29_7 Depth=1
	movslq	writeRunLevel_CABAC.pos, %rax
	movl	$0, writeRunLevel_CABAC.coeff(,%rax,4)
# %bb.9:                                # %for.inc15
                                        #   in Loop: Header=BB29_7 Depth=1
	movl	writeRunLevel_CABAC.pos, %eax
	addl	$1, %eax
	movl	%eax, writeRunLevel_CABAC.pos
	jmp	.LBB29_7
.LBB29_10:                              # %for.end17
	jmp	.LBB29_11
.LBB29_11:                              # %if.end
	xorl	%ecx, %ecx
	movq	-32(%rbp), %rdi
	movq	-24(%rbp), %rsi
	movq	-16(%rbp), %rax
	movl	24(%rax), %edx
	movl	writeRunLevel_CABAC.coeff_ctr, %eax
	cmpl	$0, %eax
	movl	$1, %eax
	cmovgl	%eax, %ecx
	callq	write_and_store_CBP_block_bit
	cmpl	$0, writeRunLevel_CABAC.coeff_ctr
	jle	.LBB29_13
# %bb.12:                               # %if.then20
	movq	-32(%rbp), %rdi
	movq	-24(%rbp), %rsi
	movq	-16(%rbp), %rax
	movl	24(%rax), %edx
	movl	writeRunLevel_CABAC.coeff_ctr, %r8d
	movabsq	$writeRunLevel_CABAC.coeff, %rcx
	callq	write_significance_map
	movq	-32(%rbp), %rdi
	movq	-24(%rbp), %rsi
	movq	-16(%rbp), %rax
	movl	24(%rax), %edx
	movabsq	$writeRunLevel_CABAC.coeff, %rcx
	callq	write_significant_coefficients
.LBB29_13:                              # %if.end23
	movl	$0, writeRunLevel_CABAC.coeff_ctr
	movl	$0, writeRunLevel_CABAC.pos
.LBB29_14:                              # %return
	cmpl	$1088584399, -36(%rbp)  # imm = 0x40E27ACF
	jne	.LBB29_16
.LBB29_15:
	addq	$48, %rsp
	popq	%rbp
	.cfi_def_cfa %rsp, 8
	retq
.LBB29_16:                              # %func_exit
	.cfi_def_cfa %rbp, 16
	callq	detect_breach
	jmp	.LBB29_15
.Lfunc_end29:
	.size	writeRunLevel_CABAC.2, .Lfunc_end29-writeRunLevel_CABAC.2
	.cfi_endproc
                                        # -- End function
	.globl	writeRunLevel_CABAC.3   # -- Begin function writeRunLevel_CABAC.3
	.p2align	4, 0x90
	.type	writeRunLevel_CABAC.3,@function
writeRunLevel_CABAC.3:                  # @writeRunLevel_CABAC.3
	.cfi_startproc
# %bb.0:                                # %entry
	pushq	%rbp
	.cfi_def_cfa_offset 16
	.cfi_offset %rbp, -16
	movq	%rsp, %rbp
	.cfi_def_cfa_register %rbp
	subq	$48, %rsp
	movl	$1610860752, -36(%rbp)  # imm = 0x6003C8D0
	movq	%rdi, -16(%rbp)
	movq	%rsi, -24(%rbp)
	movq	img, %rax
	movq	14168(%rax), %rax
	movq	img, %rcx
	movslq	12(%rcx), %rcx
	imulq	$632, %rcx, %rcx        # imm = 0x278
	addq	%rcx, %rax
	movq	%rax, -32(%rbp)
	movq	-16(%rbp), %rax
	cmpl	$0, 4(%rax)
	je	.LBB30_6
# %bb.1:                                # %if.then
	movl	$0, -4(%rbp)
.LBB30_2:                               # %for.cond
                                        # =>This Inner Loop Header: Depth=1
	movl	-4(%rbp), %eax
	movq	-16(%rbp), %rcx
	cmpl	8(%rcx), %eax
	jge	.LBB30_5
# %bb.3:                                # %for.body
                                        #   in Loop: Header=BB30_2 Depth=1
	movl	writeRunLevel_CABAC.pos, %eax
	movl	%eax, %ecx
	addl	$1, %ecx
	movl	%ecx, writeRunLevel_CABAC.pos
	cltq
	movl	$0, writeRunLevel_CABAC.coeff(,%rax,4)
# %bb.4:                                # %for.inc
                                        #   in Loop: Header=BB30_2 Depth=1
	movl	-4(%rbp), %eax
	addl	$1, %eax
	movl	%eax, -4(%rbp)
	jmp	.LBB30_2
.LBB30_5:                               # %for.end
	movq	-16(%rbp), %rax
	movl	4(%rax), %eax
	movl	writeRunLevel_CABAC.pos, %ecx
	movl	%ecx, %edx
	addl	$1, %edx
	movl	%edx, writeRunLevel_CABAC.pos
	movslq	%ecx, %rcx
	movl	%eax, writeRunLevel_CABAC.coeff(,%rcx,4)
	movl	writeRunLevel_CABAC.coeff_ctr, %eax
	addl	$1, %eax
	movl	%eax, writeRunLevel_CABAC.coeff_ctr
	jmp	.LBB30_14
.LBB30_6:                               # %if.else
	jmp	.LBB30_7
.LBB30_7:                               # %for.cond10
                                        # =>This Inner Loop Header: Depth=1
	cmpl	$64, writeRunLevel_CABAC.pos
	jge	.LBB30_10
# %bb.8:                                # %for.body12
                                        #   in Loop: Header=BB30_7 Depth=1
	movslq	writeRunLevel_CABAC.pos, %rax
	movl	$0, writeRunLevel_CABAC.coeff(,%rax,4)
# %bb.9:                                # %for.inc15
                                        #   in Loop: Header=BB30_7 Depth=1
	movl	writeRunLevel_CABAC.pos, %eax
	addl	$1, %eax
	movl	%eax, writeRunLevel_CABAC.pos
	jmp	.LBB30_7
.LBB30_10:                              # %for.end17
	jmp	.LBB30_11
.LBB30_11:                              # %if.end
	xorl	%ecx, %ecx
	movq	-32(%rbp), %rdi
	movq	-24(%rbp), %rsi
	movq	-16(%rbp), %rax
	movl	24(%rax), %edx
	movl	writeRunLevel_CABAC.coeff_ctr, %eax
	cmpl	$0, %eax
	movl	$1, %eax
	cmovgl	%eax, %ecx
	callq	write_and_store_CBP_block_bit
	cmpl	$0, writeRunLevel_CABAC.coeff_ctr
	jle	.LBB30_13
# %bb.12:                               # %if.then20
	movq	-32(%rbp), %rdi
	movq	-24(%rbp), %rsi
	movq	-16(%rbp), %rax
	movl	24(%rax), %edx
	movl	writeRunLevel_CABAC.coeff_ctr, %r8d
	movabsq	$writeRunLevel_CABAC.coeff, %rcx
	callq	write_significance_map
	movq	-32(%rbp), %rdi
	movq	-24(%rbp), %rsi
	movq	-16(%rbp), %rax
	movl	24(%rax), %edx
	movabsq	$writeRunLevel_CABAC.coeff, %rcx
	callq	write_significant_coefficients
.LBB30_13:                              # %if.end23
	movl	$0, writeRunLevel_CABAC.coeff_ctr
	movl	$0, writeRunLevel_CABAC.pos
.LBB30_14:                              # %return
	cmpl	$1610860752, -36(%rbp)  # imm = 0x6003C8D0
	jne	.LBB30_16
.LBB30_15:
	addq	$48, %rsp
	popq	%rbp
	.cfi_def_cfa %rsp, 8
	retq
.LBB30_16:                              # %func_exit
	.cfi_def_cfa %rbp, 16
	callq	detect_breach
	jmp	.LBB30_15
.Lfunc_end30:
	.size	writeRunLevel_CABAC.3, .Lfunc_end30-writeRunLevel_CABAC.3
	.cfi_endproc
                                        # -- End function
	.globl	writeMB_transform_size_CABAC.4 # -- Begin function writeMB_transform_size_CABAC.4
	.p2align	4, 0x90
	.type	writeMB_transform_size_CABAC.4,@function
writeMB_transform_size_CABAC.4:         # @writeMB_transform_size_CABAC.4
	.cfi_startproc
# %bb.0:                                # %entry
	pushq	%rbp
	.cfi_def_cfa_offset 16
	.cfi_offset %rbp, -16
	movq	%rsp, %rbp
	.cfi_def_cfa_register %rbp
	subq	$64, %rsp
	movl	$193302968, -32(%rbp)   # imm = 0xB8591B8
	movq	%rdi, -56(%rbp)
	movq	%rsi, -40(%rbp)
	movl	$0, -4(%rbp)
	movq	img, %rax
	movq	14160(%rax), %rax
	movq	32(%rax), %rax
	movq	%rax, -48(%rbp)
	movq	img, %rax
	movq	14168(%rax), %rax
	movq	img, %rcx
	movslq	12(%rcx), %rcx
	imulq	$632, %rcx, %rcx        # imm = 0x278
	addq	%rcx, %rax
	movq	%rax, -16(%rbp)
	movq	-16(%rbp), %rax
	cmpq	$0, 56(%rax)
	jne	.LBB31_2
# %bb.1:                                # %if.then
	movl	$0, -20(%rbp)
	jmp	.LBB31_3
.LBB31_2:                               # %if.else
	movq	-16(%rbp), %rax
	movq	56(%rax), %rax
	movl	572(%rax), %eax
	movl	%eax, -20(%rbp)
.LBB31_3:                               # %if.end
	movq	-16(%rbp), %rax
	cmpq	$0, 64(%rax)
	jne	.LBB31_5
# %bb.4:                                # %if.then3
	movl	$0, -24(%rbp)
	jmp	.LBB31_6
.LBB31_5:                               # %if.else4
	movq	-16(%rbp), %rax
	movq	64(%rax), %rax
	movl	572(%rax), %eax
	movl	%eax, -24(%rbp)
.LBB31_6:                               # %if.end7
	movl	-24(%rbp), %eax
	addl	-20(%rbp), %eax
	movl	%eax, -4(%rbp)
	movq	-16(%rbp), %rax
	movl	572(%rax), %eax
	movl	%eax, -28(%rbp)
	movl	-4(%rbp), %eax
	movq	-56(%rbp), %rcx
	movl	%eax, 24(%rcx)
	cmpl	$0, -28(%rbp)
	jne	.LBB31_8
# %bb.7:                                # %if.then10
	movq	-40(%rbp), %rdi
	movq	-48(%rbp), %rdx
	addq	$1456, %rdx             # imm = 0x5B0
	movslq	-4(%rbp), %rax
	shlq	$4, %rax
	addq	%rax, %rdx
	xorl	%esi, %esi
	callq	biari_encode_symbol
	jmp	.LBB31_9
.LBB31_8:                               # %if.else11
	movq	-40(%rbp), %rdi
	movq	-48(%rbp), %rdx
	addq	$1456, %rdx             # imm = 0x5B0
	movslq	-4(%rbp), %rax
	shlq	$4, %rax
	addq	%rax, %rdx
	movl	$1, %esi
	callq	biari_encode_symbol
.LBB31_9:                               # %if.end16
	cmpl	$193302968, -32(%rbp)   # imm = 0xB8591B8
	jne	.LBB31_11
.LBB31_10:
	addq	$64, %rsp
	popq	%rbp
	.cfi_def_cfa %rsp, 8
	retq
.LBB31_11:                              # %func_exit
	.cfi_def_cfa %rbp, 16
	callq	detect_breach
	jmp	.LBB31_10
.Lfunc_end31:
	.size	writeMB_transform_size_CABAC.4, .Lfunc_end31-writeMB_transform_size_CABAC.4
	.cfi_endproc
                                        # -- End function
	.globl	writeMB_skip_flagInfo_CABAC.5 # -- Begin function writeMB_skip_flagInfo_CABAC.5
	.p2align	4, 0x90
	.type	writeMB_skip_flagInfo_CABAC.5,@function
writeMB_skip_flagInfo_CABAC.5:          # @writeMB_skip_flagInfo_CABAC.5
	.cfi_startproc
# %bb.0:                                # %entry
	pushq	%rbp
	.cfi_def_cfa_offset 16
	.cfi_offset %rbp, -16
	movq	%rsp, %rbp
	.cfi_def_cfa_register %rbp
	subq	$64, %rsp
	movl	$1760534602, -60(%rbp)  # imm = 0x68EFA04A
	movq	%rdi, -32(%rbp)
	movq	%rsi, -48(%rbp)
	movq	img, %rax
	cmpl	$1, 24(%rax)
	sete	%al
	andb	$1, %al
	movzbl	%al, %eax
	movl	%eax, -64(%rbp)
	movq	img, %rax
	movq	14160(%rax), %rax
	movq	32(%rax), %rax
	movq	%rax, -56(%rbp)
	movq	img, %rax
	movq	14168(%rax), %rax
	movq	img, %rcx
	movslq	12(%rcx), %rcx
	imulq	$632, %rcx, %rcx        # imm = 0x278
	addq	%rcx, %rax
	movq	%rax, -24(%rbp)
	movq	-32(%rbp), %rax
	movl	4(%rax), %eax
	movl	%eax, -36(%rbp)
	cmpl	$0, -64(%rbp)
	je	.LBB32_14
# %bb.1:                                # %if.then
	movq	-24(%rbp), %rax
	cmpq	$0, 56(%rax)
	jne	.LBB32_3
# %bb.2:                                # %if.then3
	movl	$0, -8(%rbp)
	jmp	.LBB32_4
.LBB32_3:                               # %if.else
	xorl	%eax, %eax
	movq	-24(%rbp), %rcx
	movq	56(%rcx), %rcx
	movl	624(%rcx), %ecx
	cmpl	$0, %ecx
	movl	$1, %ecx
	cmovel	%eax, %ecx
	movl	%ecx, -8(%rbp)
.LBB32_4:                               # %if.end
	movq	-24(%rbp), %rax
	cmpq	$0, 64(%rax)
	jne	.LBB32_6
# %bb.5:                                # %if.then9
	movl	$0, -12(%rbp)
	jmp	.LBB32_7
.LBB32_6:                               # %if.else10
	xorl	%eax, %eax
	movq	-24(%rbp), %rcx
	movq	64(%rcx), %rcx
	movl	624(%rcx), %ecx
	cmpl	$0, %ecx
	movl	$1, %ecx
	cmovel	%eax, %ecx
	movl	%ecx, -12(%rbp)
.LBB32_7:                               # %if.end16
	movl	-12(%rbp), %eax
	addl	$7, %eax
	addl	-8(%rbp), %eax
	movl	%eax, -4(%rbp)
	movq	-32(%rbp), %rax
	cmpl	$0, 4(%rax)
	jne	.LBB32_10
# %bb.8:                                # %land.lhs.true
	movq	-32(%rbp), %rax
	cmpl	$0, 8(%rax)
	jne	.LBB32_10
# %bb.9:                                # %if.then23
	movq	-48(%rbp), %rdi
	movq	-56(%rbp), %rdx
	addq	$352, %rdx              # imm = 0x160
	movslq	-4(%rbp), %rax
	shlq	$4, %rax
	addq	%rax, %rdx
	movl	$1, %esi
	callq	biari_encode_symbol
	jmp	.LBB32_11
.LBB32_10:                              # %if.else27
	movq	-48(%rbp), %rdi
	movq	-56(%rbp), %rdx
	addq	$352, %rdx              # imm = 0x160
	movslq	-4(%rbp), %rax
	shlq	$4, %rax
	addq	%rax, %rdx
	xorl	%esi, %esi
	callq	biari_encode_symbol
.LBB32_11:                              # %if.end32
	xorl	%eax, %eax
	movq	-32(%rbp), %rcx
	cmpl	$0, 4(%rcx)
	jne	.LBB32_13
# %bb.12:                               # %land.rhs
	movq	-32(%rbp), %rax
	cmpl	$0, 8(%rax)
	sete	%al
.LBB32_13:                              # %land.end
	xorl	%ecx, %ecx
	testb	$1, %al
	movl	$1, %eax
	cmovnel	%ecx, %eax
	movq	-24(%rbp), %rcx
	movl	%eax, 624(%rcx)
	jmp	.LBB32_24
.LBB32_14:                              # %if.else41
	movq	-24(%rbp), %rax
	cmpq	$0, 56(%rax)
	jne	.LBB32_16
# %bb.15:                               # %if.then45
	movl	$0, -8(%rbp)
	jmp	.LBB32_17
.LBB32_16:                              # %if.else46
	xorl	%eax, %eax
	movq	-24(%rbp), %rcx
	movq	56(%rcx), %rcx
	movl	624(%rcx), %ecx
	cmpl	$0, %ecx
	movl	$1, %ecx
	cmovnel	%ecx, %eax
	movl	%eax, -8(%rbp)
.LBB32_17:                              # %if.end52
	movq	-24(%rbp), %rax
	cmpq	$0, 64(%rax)
	jne	.LBB32_19
# %bb.18:                               # %if.then56
	movl	$0, -12(%rbp)
	jmp	.LBB32_20
.LBB32_19:                              # %if.else57
	xorl	%eax, %eax
	movq	-24(%rbp), %rcx
	movq	64(%rcx), %rcx
	movl	624(%rcx), %ecx
	cmpl	$0, %ecx
	movl	$1, %ecx
	cmovnel	%ecx, %eax
	movl	%eax, -12(%rbp)
.LBB32_20:                              # %if.end63
	movl	-12(%rbp), %eax
	addl	-8(%rbp), %eax
	movl	%eax, -4(%rbp)
	cmpl	$0, -36(%rbp)
	jne	.LBB32_22
# %bb.21:                               # %if.then67
	movq	-48(%rbp), %rdi
	movq	-56(%rbp), %rdx
	addq	$176, %rdx
	movslq	-4(%rbp), %rax
	shlq	$4, %rax
	addq	%rax, %rdx
	movl	$1, %esi
	callq	biari_encode_symbol
	jmp	.LBB32_23
.LBB32_22:                              # %if.else72
	movq	-48(%rbp), %rdi
	movq	-56(%rbp), %rdx
	addq	$176, %rdx
	movslq	-4(%rbp), %rax
	shlq	$4, %rax
	addq	%rax, %rdx
	xorl	%esi, %esi
	callq	biari_encode_symbol
.LBB32_23:                              # %if.end77
	xorl	%eax, %eax
	movl	-36(%rbp), %ecx
	cmpl	$0, %ecx
	movl	$1, %ecx
	cmovel	%eax, %ecx
	movq	-24(%rbp), %rax
	movl	%ecx, 624(%rax)
.LBB32_24:                              # %if.end82
	movl	-4(%rbp), %eax
	movq	-32(%rbp), %rcx
	movl	%eax, 24(%rcx)
	cmpl	$1760534602, -60(%rbp)  # imm = 0x68EFA04A
	jne	.LBB32_26
.LBB32_25:
	addq	$64, %rsp
	popq	%rbp
	.cfi_def_cfa %rsp, 8
	retq
.LBB32_26:                              # %func_exit
	.cfi_def_cfa %rbp, 16
	callq	detect_breach
	jmp	.LBB32_25
.Lfunc_end32:
	.size	writeMB_skip_flagInfo_CABAC.5, .Lfunc_end32-writeMB_skip_flagInfo_CABAC.5
	.cfi_endproc
                                        # -- End function
	.globl	CheckAvailabilityOfNeighborsCABAC.6 # -- Begin function CheckAvailabilityOfNeighborsCABAC.6
	.p2align	4, 0x90
	.type	CheckAvailabilityOfNeighborsCABAC.6,@function
CheckAvailabilityOfNeighborsCABAC.6:    # @CheckAvailabilityOfNeighborsCABAC.6
	.cfi_startproc
# %bb.0:                                # %entry
	pushq	%rbp
	.cfi_def_cfa_offset 16
	.cfi_offset %rbp, -16
	movq	%rsp, %rbp
	.cfi_def_cfa_register %rbp
	subq	$64, %rsp
	movl	$537501170, -12(%rbp)   # imm = 0x20099DF2
	movq	img, %rax
	movq	14168(%rax), %rax
	movq	img, %rcx
	movslq	12(%rcx), %rcx
	imulq	$632, %rcx, %rcx        # imm = 0x278
	addq	%rcx, %rax
	movq	%rax, -8(%rbp)
	movq	img, %rax
	movl	12(%rax), %edi
	movl	$4294967295, %esi       # imm = 0xFFFFFFFF
	xorl	%edx, %edx
	movl	$1, %ecx
	leaq	-64(%rbp), %r8
	callq	getNeighbour
	movq	img, %rax
	movl	12(%rax), %edi
	xorl	%esi, %esi
	movl	$4294967295, %edx       # imm = 0xFFFFFFFF
	movl	$1, %ecx
	leaq	-40(%rbp), %r8
	callq	getNeighbour
	cmpl	$0, -40(%rbp)
	je	.LBB33_2
# %bb.1:                                # %if.then
	movq	img, %rax
	movq	14168(%rax), %rax
	movslq	-36(%rbp), %rcx
	imulq	$632, %rcx, %rcx        # imm = 0x278
	addq	%rcx, %rax
	movq	-8(%rbp), %rcx
	movq	%rax, 56(%rcx)
	jmp	.LBB33_3
.LBB33_2:                               # %if.else
	movq	-8(%rbp), %rax
	movq	$0, 56(%rax)
.LBB33_3:                               # %if.end
	cmpl	$0, -64(%rbp)
	je	.LBB33_5
# %bb.4:                                # %if.then9
	movq	img, %rax
	movq	14168(%rax), %rax
	movslq	-60(%rbp), %rcx
	imulq	$632, %rcx, %rcx        # imm = 0x278
	addq	%rcx, %rax
	movq	-8(%rbp), %rcx
	movq	%rax, 64(%rcx)
	jmp	.LBB33_6
.LBB33_5:                               # %if.else14
	movq	-8(%rbp), %rax
	movq	$0, 64(%rax)
.LBB33_6:                               # %if.end16
	cmpl	$537501170, -12(%rbp)   # imm = 0x20099DF2
	jne	.LBB33_8
.LBB33_7:
	addq	$64, %rsp
	popq	%rbp
	.cfi_def_cfa %rsp, 8
	retq
.LBB33_8:                               # %func_exit
	.cfi_def_cfa %rbp, 16
	callq	detect_breach
	jmp	.LBB33_7
.Lfunc_end33:
	.size	CheckAvailabilityOfNeighborsCABAC.6, .Lfunc_end33-CheckAvailabilityOfNeighborsCABAC.6
	.cfi_endproc
                                        # -- End function
	.globl	unary_exp_golomb_level_encode.7 # -- Begin function unary_exp_golomb_level_encode.7
	.p2align	4, 0x90
	.type	unary_exp_golomb_level_encode.7,@function
unary_exp_golomb_level_encode.7:        # @unary_exp_golomb_level_encode.7
	.cfi_startproc
# %bb.0:                                # %entry
	pushq	%rbp
	.cfi_def_cfa_offset 16
	.cfi_offset %rbp, -16
	movq	%rsp, %rbp
	.cfi_def_cfa_register %rbp
	subq	$48, %rsp
	movl	$122439710, -36(%rbp)   # imm = 0x74C481E
	movq	%rdi, -16(%rbp)
	movl	%esi, -4(%rbp)
	movq	%rdx, -32(%rbp)
	movl	$13, -8(%rbp)
	cmpl	$0, -4(%rbp)
	jne	.LBB34_2
# %bb.1:                                # %if.then
	movq	-16(%rbp), %rdi
	movq	-32(%rbp), %rdx
	xorl	%esi, %esi
	callq	biari_encode_symbol
	jmp	.LBB34_12
.LBB34_2:                               # %if.else
	movq	-16(%rbp), %rdi
	movq	-32(%rbp), %rdx
	movl	$1, %esi
	callq	biari_encode_symbol
	movl	-4(%rbp), %eax
	movl	%eax, -20(%rbp)
	movl	$1, -24(%rbp)
.LBB34_3:                               # %while.cond
                                        # =>This Inner Loop Header: Depth=1
	xorl	%eax, %eax
	movl	-20(%rbp), %ecx
	addl	$-1, %ecx
	movl	%ecx, -20(%rbp)
	cmpl	$0, %ecx
	jbe	.LBB34_5
# %bb.4:                                # %land.rhs
                                        #   in Loop: Header=BB34_3 Depth=1
	movl	-24(%rbp), %eax
	addl	$1, %eax
	movl	%eax, -24(%rbp)
	cmpl	-8(%rbp), %eax
	setbe	%al
.LBB34_5:                               # %land.end
                                        #   in Loop: Header=BB34_3 Depth=1
	testb	$1, %al
	jne	.LBB34_6
	jmp	.LBB34_7
.LBB34_6:                               # %while.body
                                        #   in Loop: Header=BB34_3 Depth=1
	movq	-16(%rbp), %rdi
	movq	-32(%rbp), %rdx
	movl	$1, %esi
	callq	biari_encode_symbol
	jmp	.LBB34_3
.LBB34_7:                               # %while.end
	movl	-4(%rbp), %eax
	cmpl	-8(%rbp), %eax
	jae	.LBB34_9
# %bb.8:                                # %if.then4
	movq	-16(%rbp), %rdi
	movq	-32(%rbp), %rdx
	xorl	%esi, %esi
	callq	biari_encode_symbol
	jmp	.LBB34_10
.LBB34_9:                               # %if.else5
	movq	-16(%rbp), %rdi
	movl	-4(%rbp), %esi
	subl	-8(%rbp), %esi
	xorl	%edx, %edx
	callq	exp_golomb_encode_eq_prob
.LBB34_10:                              # %if.end
	jmp	.LBB34_11
.LBB34_11:                              # %if.end6
	jmp	.LBB34_12
.LBB34_12:                              # %return
	cmpl	$122439710, -36(%rbp)   # imm = 0x74C481E
	jne	.LBB34_14
.LBB34_13:
	addq	$48, %rsp
	popq	%rbp
	.cfi_def_cfa %rsp, 8
	retq
.LBB34_14:                              # %func_exit
	.cfi_def_cfa %rbp, 16
	callq	detect_breach
	jmp	.LBB34_13
.Lfunc_end34:
	.size	unary_exp_golomb_level_encode.7, .Lfunc_end34-unary_exp_golomb_level_encode.7
	.cfi_endproc
                                        # -- End function
	.globl	unary_exp_golomb_mv_encode.8 # -- Begin function unary_exp_golomb_mv_encode.8
	.p2align	4, 0x90
	.type	unary_exp_golomb_mv_encode.8,@function
unary_exp_golomb_mv_encode.8:           # @unary_exp_golomb_mv_encode.8
	.cfi_startproc
# %bb.0:                                # %entry
	pushq	%rbp
	.cfi_def_cfa_offset 16
	.cfi_offset %rbp, -16
	movq	%rsp, %rbp
	.cfi_def_cfa_register %rbp
	subq	$64, %rsp
	movl	$745828290, -44(%rbp)   # imm = 0x2C746FC2
	movq	%rdi, -32(%rbp)
	movl	%esi, -12(%rbp)
	movq	%rdx, -56(%rbp)
	movl	%ecx, -48(%rbp)
	movl	$1, -16(%rbp)
	movq	-56(%rbp), %rax
	movq	%rax, -8(%rbp)
	movl	$8, -20(%rbp)
	cmpl	$0, -12(%rbp)
	jne	.LBB35_2
# %bb.1:                                # %if.then
	movq	-32(%rbp), %rdi
	movq	-8(%rbp), %rdx
	xorl	%esi, %esi
	callq	biari_encode_symbol
	jmp	.LBB35_16
.LBB35_2:                               # %if.else
	movq	-32(%rbp), %rdi
	movq	-8(%rbp), %rdx
	movl	$1, %esi
	callq	biari_encode_symbol
	movl	-12(%rbp), %eax
	movl	%eax, -36(%rbp)
	movl	$1, -40(%rbp)
	movq	-8(%rbp), %rax
	addq	$16, %rax
	movq	%rax, -8(%rbp)
.LBB35_3:                               # %while.cond
                                        # =>This Inner Loop Header: Depth=1
	xorl	%eax, %eax
	movl	-36(%rbp), %ecx
	addl	$-1, %ecx
	movl	%ecx, -36(%rbp)
	cmpl	$0, %ecx
	jbe	.LBB35_5
# %bb.4:                                # %land.rhs
                                        #   in Loop: Header=BB35_3 Depth=1
	movl	-40(%rbp), %eax
	addl	$1, %eax
	movl	%eax, -40(%rbp)
	cmpl	-20(%rbp), %eax
	setbe	%al
.LBB35_5:                               # %land.end
                                        #   in Loop: Header=BB35_3 Depth=1
	testb	$1, %al
	jne	.LBB35_6
	jmp	.LBB35_11
.LBB35_6:                               # %while.body
                                        #   in Loop: Header=BB35_3 Depth=1
	movq	-32(%rbp), %rdi
	movq	-8(%rbp), %rdx
	movl	$1, %esi
	callq	biari_encode_symbol
	movl	-16(%rbp), %eax
	addl	$1, %eax
	movl	%eax, -16(%rbp)
	cmpl	$2, %eax
	jne	.LBB35_8
# %bb.7:                                # %if.then5
                                        #   in Loop: Header=BB35_3 Depth=1
	movq	-8(%rbp), %rax
	addq	$16, %rax
	movq	%rax, -8(%rbp)
.LBB35_8:                               # %if.end
                                        #   in Loop: Header=BB35_3 Depth=1
	movl	-16(%rbp), %eax
	cmpl	-48(%rbp), %eax
	jne	.LBB35_10
# %bb.9:                                # %if.then8
                                        #   in Loop: Header=BB35_3 Depth=1
	movq	-8(%rbp), %rax
	addq	$16, %rax
	movq	%rax, -8(%rbp)
.LBB35_10:                              # %if.end10
                                        #   in Loop: Header=BB35_3 Depth=1
	jmp	.LBB35_3
.LBB35_11:                              # %while.end
	movl	-12(%rbp), %eax
	cmpl	-20(%rbp), %eax
	jae	.LBB35_13
# %bb.12:                               # %if.then12
	movq	-32(%rbp), %rdi
	movq	-8(%rbp), %rdx
	xorl	%esi, %esi
	callq	biari_encode_symbol
	jmp	.LBB35_14
.LBB35_13:                              # %if.else13
	movq	-32(%rbp), %rdi
	movl	-12(%rbp), %esi
	subl	-20(%rbp), %esi
	movl	$3, %edx
	callq	exp_golomb_encode_eq_prob
.LBB35_14:                              # %if.end14
	jmp	.LBB35_15
.LBB35_15:                              # %if.end15
	jmp	.LBB35_16
.LBB35_16:                              # %return
	cmpl	$745828290, -44(%rbp)   # imm = 0x2C746FC2
	jne	.LBB35_18
.LBB35_17:
	addq	$64, %rsp
	popq	%rbp
	.cfi_def_cfa %rsp, 8
	retq
.LBB35_18:                              # %func_exit
	.cfi_def_cfa %rbp, 16
	callq	detect_breach
	jmp	.LBB35_17
.Lfunc_end35:
	.size	unary_exp_golomb_mv_encode.8, .Lfunc_end35-unary_exp_golomb_mv_encode.8
	.cfi_endproc
                                        # -- End function
	.globl	writeCIPredMode_CABAC.9 # -- Begin function writeCIPredMode_CABAC.9
	.p2align	4, 0x90
	.type	writeCIPredMode_CABAC.9,@function
writeCIPredMode_CABAC.9:                # @writeCIPredMode_CABAC.9
	.cfi_startproc
# %bb.0:                                # %entry
	pushq	%rbp
	.cfi_def_cfa_offset 16
	.cfi_offset %rbp, -16
	movq	%rsp, %rbp
	.cfi_def_cfa_register %rbp
	subq	$64, %rsp
	movl	$566629687, -44(%rbp)   # imm = 0x21C61537
	movq	%rdi, -56(%rbp)
	movq	%rsi, -32(%rbp)
	movq	img, %rax
	movq	14160(%rax), %rax
	movq	40(%rax), %rax
	movq	%rax, -40(%rbp)
	movq	img, %rax
	movq	14168(%rax), %rax
	movq	img, %rcx
	movslq	12(%rcx), %rcx
	imulq	$632, %rcx, %rcx        # imm = 0x278
	addq	%rcx, %rax
	movq	%rax, -24(%rbp)
	movq	-56(%rbp), %rax
	movl	4(%rax), %eax
	movl	%eax, -12(%rbp)
	movq	-24(%rbp), %rax
	cmpq	$0, 56(%rax)
	jne	.LBB36_2
# %bb.1:                                # %if.then
	movl	$0, -8(%rbp)
	jmp	.LBB36_3
.LBB36_2:                               # %if.else
	xorl	%eax, %eax
	movq	-24(%rbp), %rcx
	movq	56(%rcx), %rcx
	movl	524(%rcx), %ecx
	cmpl	$0, %ecx
	movl	$1, %ecx
	cmovnel	%ecx, %eax
	movl	%eax, -8(%rbp)
.LBB36_3:                               # %if.end
	movq	-24(%rbp), %rax
	cmpq	$0, 64(%rax)
	jne	.LBB36_5
# %bb.4:                                # %if.then4
	movl	$0, -4(%rbp)
	jmp	.LBB36_6
.LBB36_5:                               # %if.else5
	xorl	%eax, %eax
	movq	-24(%rbp), %rcx
	movq	64(%rcx), %rcx
	movl	524(%rcx), %ecx
	cmpl	$0, %ecx
	movl	$1, %ecx
	cmovnel	%ecx, %eax
	movl	%eax, -4(%rbp)
.LBB36_6:                               # %if.end10
	movl	-4(%rbp), %eax
	addl	-8(%rbp), %eax
	movl	%eax, -16(%rbp)
	cmpl	$0, -12(%rbp)
	jne	.LBB36_8
# %bb.7:                                # %if.then12
	movq	-32(%rbp), %rdi
	movq	-40(%rbp), %rdx
	addq	$32, %rdx
	movslq	-16(%rbp), %rax
	shlq	$4, %rax
	addq	%rax, %rdx
	xorl	%esi, %esi
	callq	biari_encode_symbol
	jmp	.LBB36_9
.LBB36_8:                               # %if.else13
	movq	-32(%rbp), %rdi
	movq	-40(%rbp), %rdx
	addq	$32, %rdx
	movslq	-16(%rbp), %rax
	shlq	$4, %rax
	addq	%rax, %rdx
	movl	$1, %esi
	callq	biari_encode_symbol
	movq	-32(%rbp), %rdi
	movl	-12(%rbp), %esi
	subl	$1, %esi
	movq	-40(%rbp), %rdx
	addq	$32, %rdx
	addq	$48, %rdx
	xorl	%ecx, %ecx
	movl	$2, %r8d
	callq	unary_bin_max_encode
.LBB36_9:                               # %if.end21
	cmpl	$566629687, -44(%rbp)   # imm = 0x21C61537
	jne	.LBB36_11
.LBB36_10:
	addq	$64, %rsp
	popq	%rbp
	.cfi_def_cfa %rsp, 8
	retq
.LBB36_11:                              # %func_exit
	.cfi_def_cfa %rbp, 16
	callq	detect_breach
	jmp	.LBB36_10
.Lfunc_end36:
	.size	writeCIPredMode_CABAC.9, .Lfunc_end36-writeCIPredMode_CABAC.9
	.cfi_endproc
                                        # -- End function
	.globl	writeMB_skip_flagInfo_CABAC.10 # -- Begin function writeMB_skip_flagInfo_CABAC.10
	.p2align	4, 0x90
	.type	writeMB_skip_flagInfo_CABAC.10,@function
writeMB_skip_flagInfo_CABAC.10:         # @writeMB_skip_flagInfo_CABAC.10
	.cfi_startproc
# %bb.0:                                # %entry
	pushq	%rbp
	.cfi_def_cfa_offset 16
	.cfi_offset %rbp, -16
	movq	%rsp, %rbp
	.cfi_def_cfa_register %rbp
	subq	$64, %rsp
	movl	$168085852, -64(%rbp)   # imm = 0xA04C95C
	movq	%rdi, -32(%rbp)
	movq	%rsi, -48(%rbp)
	movq	img, %rax
	cmpl	$1, 24(%rax)
	sete	%al
	andb	$1, %al
	movzbl	%al, %eax
	movl	%eax, -60(%rbp)
	movq	img, %rax
	movq	14160(%rax), %rax
	movq	32(%rax), %rax
	movq	%rax, -56(%rbp)
	movq	img, %rax
	movq	14168(%rax), %rax
	movq	img, %rcx
	movslq	12(%rcx), %rcx
	imulq	$632, %rcx, %rcx        # imm = 0x278
	addq	%rcx, %rax
	movq	%rax, -24(%rbp)
	movq	-32(%rbp), %rax
	movl	4(%rax), %eax
	movl	%eax, -36(%rbp)
	cmpl	$0, -60(%rbp)
	je	.LBB37_14
# %bb.1:                                # %if.then
	movq	-24(%rbp), %rax
	cmpq	$0, 56(%rax)
	jne	.LBB37_3
# %bb.2:                                # %if.then3
	movl	$0, -12(%rbp)
	jmp	.LBB37_4
.LBB37_3:                               # %if.else
	xorl	%eax, %eax
	movq	-24(%rbp), %rcx
	movq	56(%rcx), %rcx
	movl	624(%rcx), %ecx
	cmpl	$0, %ecx
	movl	$1, %ecx
	cmovel	%eax, %ecx
	movl	%ecx, -12(%rbp)
.LBB37_4:                               # %if.end
	movq	-24(%rbp), %rax
	cmpq	$0, 64(%rax)
	jne	.LBB37_6
# %bb.5:                                # %if.then9
	movl	$0, -8(%rbp)
	jmp	.LBB37_7
.LBB37_6:                               # %if.else10
	xorl	%eax, %eax
	movq	-24(%rbp), %rcx
	movq	64(%rcx), %rcx
	movl	624(%rcx), %ecx
	cmpl	$0, %ecx
	movl	$1, %ecx
	cmovel	%eax, %ecx
	movl	%ecx, -8(%rbp)
.LBB37_7:                               # %if.end16
	movl	-8(%rbp), %eax
	addl	$7, %eax
	addl	-12(%rbp), %eax
	movl	%eax, -4(%rbp)
	movq	-32(%rbp), %rax
	cmpl	$0, 4(%rax)
	jne	.LBB37_10
# %bb.8:                                # %land.lhs.true
	movq	-32(%rbp), %rax
	cmpl	$0, 8(%rax)
	jne	.LBB37_10
# %bb.9:                                # %if.then23
	movq	-48(%rbp), %rdi
	movq	-56(%rbp), %rdx
	addq	$352, %rdx              # imm = 0x160
	movslq	-4(%rbp), %rax
	shlq	$4, %rax
	addq	%rax, %rdx
	movl	$1, %esi
	callq	biari_encode_symbol
	jmp	.LBB37_11
.LBB37_10:                              # %if.else27
	movq	-48(%rbp), %rdi
	movq	-56(%rbp), %rdx
	addq	$352, %rdx              # imm = 0x160
	movslq	-4(%rbp), %rax
	shlq	$4, %rax
	addq	%rax, %rdx
	xorl	%esi, %esi
	callq	biari_encode_symbol
.LBB37_11:                              # %if.end32
	xorl	%eax, %eax
	movq	-32(%rbp), %rcx
	cmpl	$0, 4(%rcx)
	jne	.LBB37_13
# %bb.12:                               # %land.rhs
	movq	-32(%rbp), %rax
	cmpl	$0, 8(%rax)
	sete	%al
.LBB37_13:                              # %land.end
	xorl	%ecx, %ecx
	testb	$1, %al
	movl	$1, %eax
	cmovnel	%ecx, %eax
	movq	-24(%rbp), %rcx
	movl	%eax, 624(%rcx)
	jmp	.LBB37_24
.LBB37_14:                              # %if.else41
	movq	-24(%rbp), %rax
	cmpq	$0, 56(%rax)
	jne	.LBB37_16
# %bb.15:                               # %if.then45
	movl	$0, -12(%rbp)
	jmp	.LBB37_17
.LBB37_16:                              # %if.else46
	xorl	%eax, %eax
	movq	-24(%rbp), %rcx
	movq	56(%rcx), %rcx
	movl	624(%rcx), %ecx
	cmpl	$0, %ecx
	movl	$1, %ecx
	cmovnel	%ecx, %eax
	movl	%eax, -12(%rbp)
.LBB37_17:                              # %if.end52
	movq	-24(%rbp), %rax
	cmpq	$0, 64(%rax)
	jne	.LBB37_19
# %bb.18:                               # %if.then56
	movl	$0, -8(%rbp)
	jmp	.LBB37_20
.LBB37_19:                              # %if.else57
	xorl	%eax, %eax
	movq	-24(%rbp), %rcx
	movq	64(%rcx), %rcx
	movl	624(%rcx), %ecx
	cmpl	$0, %ecx
	movl	$1, %ecx
	cmovnel	%ecx, %eax
	movl	%eax, -8(%rbp)
.LBB37_20:                              # %if.end63
	movl	-8(%rbp), %eax
	addl	-12(%rbp), %eax
	movl	%eax, -4(%rbp)
	cmpl	$0, -36(%rbp)
	jne	.LBB37_22
# %bb.21:                               # %if.then67
	movq	-48(%rbp), %rdi
	movq	-56(%rbp), %rdx
	addq	$176, %rdx
	movslq	-4(%rbp), %rax
	shlq	$4, %rax
	addq	%rax, %rdx
	movl	$1, %esi
	callq	biari_encode_symbol
	jmp	.LBB37_23
.LBB37_22:                              # %if.else72
	movq	-48(%rbp), %rdi
	movq	-56(%rbp), %rdx
	addq	$176, %rdx
	movslq	-4(%rbp), %rax
	shlq	$4, %rax
	addq	%rax, %rdx
	xorl	%esi, %esi
	callq	biari_encode_symbol
.LBB37_23:                              # %if.end77
	xorl	%eax, %eax
	movl	-36(%rbp), %ecx
	cmpl	$0, %ecx
	movl	$1, %ecx
	cmovel	%eax, %ecx
	movq	-24(%rbp), %rax
	movl	%ecx, 624(%rax)
.LBB37_24:                              # %if.end82
	movl	-4(%rbp), %eax
	movq	-32(%rbp), %rcx
	movl	%eax, 24(%rcx)
	cmpl	$168085852, -64(%rbp)   # imm = 0xA04C95C
	jne	.LBB37_26
.LBB37_25:
	addq	$64, %rsp
	popq	%rbp
	.cfi_def_cfa %rsp, 8
	retq
.LBB37_26:                              # %func_exit
	.cfi_def_cfa %rbp, 16
	callq	detect_breach
	jmp	.LBB37_25
.Lfunc_end37:
	.size	writeMB_skip_flagInfo_CABAC.10, .Lfunc_end37-writeMB_skip_flagInfo_CABAC.10
	.cfi_endproc
                                        # -- End function
	.globl	exp_golomb_encode_eq_prob.11 # -- Begin function exp_golomb_encode_eq_prob.11
	.p2align	4, 0x90
	.type	exp_golomb_encode_eq_prob.11,@function
exp_golomb_encode_eq_prob.11:           # @exp_golomb_encode_eq_prob.11
	.cfi_startproc
# %bb.0:                                # %entry
	pushq	%rbp
	.cfi_def_cfa_offset 16
	.cfi_offset %rbp, -16
	movq	%rsp, %rbp
	.cfi_def_cfa_register %rbp
	subq	$32, %rsp
	movl	$1431101266, -20(%rbp)  # imm = 0x554CDF52
	movq	%rdi, -16(%rbp)
	movl	%esi, -8(%rbp)
	movl	%edx, -4(%rbp)
.LBB38_1:                               # %while.body
                                        # =>This Inner Loop Header: Depth=1
	movl	-8(%rbp), %eax
	movl	-4(%rbp), %ecx
                                        # kill: def $cl killed $ecx
	movl	$1, %edx
	shll	%cl, %edx
	cmpl	%edx, %eax
	jb	.LBB38_3
# %bb.2:                                # %if.then
                                        #   in Loop: Header=BB38_1 Depth=1
	movq	-16(%rbp), %rdi
	movl	$1, %esi
	callq	biari_encode_symbol_eq_prob
	movl	-8(%rbp), %eax
	movl	-4(%rbp), %ecx
                                        # kill: def $cl killed $ecx
	movl	$1, %edx
	shll	%cl, %edx
	subl	%edx, %eax
	movl	%eax, -8(%rbp)
	movl	-4(%rbp), %eax
	addl	$1, %eax
	movl	%eax, -4(%rbp)
	jmp	.LBB38_7
.LBB38_3:                               # %if.else
	movq	-16(%rbp), %rdi
	xorl	%esi, %esi
	callq	biari_encode_symbol_eq_prob
.LBB38_4:                               # %while.cond2
                                        # =>This Inner Loop Header: Depth=1
	movl	-4(%rbp), %eax
	movl	%eax, %ecx
	addl	$-1, %ecx
	movl	%ecx, -4(%rbp)
	cmpl	$0, %eax
	je	.LBB38_6
# %bb.5:                                # %while.body3
                                        #   in Loop: Header=BB38_4 Depth=1
	movq	-16(%rbp), %rdi
	movl	-8(%rbp), %eax
	movl	-4(%rbp), %ecx
                                        # kill: def $cl killed $ecx
	shrl	%cl, %eax
	andl	$1, %eax
	movzbl	%al, %eax
	movswl	%ax, %esi
	callq	biari_encode_symbol_eq_prob
	jmp	.LBB38_4
.LBB38_6:                               # %while.end
	jmp	.LBB38_8
.LBB38_7:                               # %if.end
                                        #   in Loop: Header=BB38_1 Depth=1
	jmp	.LBB38_1
.LBB38_8:                               # %while.end5
	cmpl	$1431101266, -20(%rbp)  # imm = 0x554CDF52
	jne	.LBB38_10
.LBB38_9:
	addq	$32, %rsp
	popq	%rbp
	.cfi_def_cfa %rsp, 8
	retq
.LBB38_10:                              # %func_exit
	.cfi_def_cfa %rbp, 16
	callq	detect_breach
	jmp	.LBB38_9
.Lfunc_end38:
	.size	exp_golomb_encode_eq_prob.11, .Lfunc_end38-exp_golomb_encode_eq_prob.11
	.cfi_endproc
                                        # -- End function
	.globl	writeMB_typeInfo_CABAC.12 # -- Begin function writeMB_typeInfo_CABAC.12
	.p2align	4, 0x90
	.type	writeMB_typeInfo_CABAC.12,@function
writeMB_typeInfo_CABAC.12:              # @writeMB_typeInfo_CABAC.12
	.cfi_startproc
# %bb.0:                                # %entry
	pushq	%rbp
	.cfi_def_cfa_offset 16
	.cfi_offset %rbp, -16
	movq	%rsp, %rbp
	.cfi_def_cfa_register %rbp
	subq	$96, %rsp
	movl	$1300819549, -84(%rbp)  # imm = 0x4D88EE5D
	movq	%rdi, -80(%rbp)
	movq	%rsi, -16(%rbp)
	movl	$0, -20(%rbp)
	movq	img, %rax
	cmpl	$1, 24(%rax)
	sete	%al
	andb	$1, %al
	movzbl	%al, %eax
	movl	%eax, -64(%rbp)
	movl	$0, -36(%rbp)
	movq	img, %rax
	movq	14160(%rax), %rax
	movq	32(%rax), %rax
	movq	%rax, -32(%rbp)
	movq	img, %rax
	movq	14168(%rax), %rax
	movq	img, %rcx
	movslq	12(%rcx), %rcx
	imulq	$632, %rcx, %rcx        # imm = 0x278
	addq	%rcx, %rax
	movq	%rax, -56(%rbp)
	movq	-80(%rbp), %rax
	movl	4(%rax), %eax
	movl	%eax, -68(%rbp)
	movq	img, %rax
	cmpl	$2, 24(%rax)
	jne	.LBB39_24
# %bb.1:                                # %if.then
	movq	-56(%rbp), %rax
	cmpq	$0, 56(%rax)
	jne	.LBB39_3
# %bb.2:                                # %if.then6
	movl	$0, -44(%rbp)
	jmp	.LBB39_6
.LBB39_3:                               # %if.else
	xorl	%eax, %eax
	movq	-56(%rbp), %rcx
	movq	56(%rcx), %rcx
	cmpl	$9, 72(%rcx)
	je	.LBB39_5
# %bb.4:                                # %land.rhs
	movq	-56(%rbp), %rax
	movq	56(%rax), %rax
	cmpl	$13, 72(%rax)
	setne	%al
.LBB39_5:                               # %land.end
	xorl	%ecx, %ecx
	testb	$1, %al
	movl	$1, %eax
	cmovnel	%eax, %ecx
	movl	%ecx, -44(%rbp)
.LBB39_6:                               # %if.end
	movq	-56(%rbp), %rax
	cmpq	$0, 64(%rax)
	jne	.LBB39_8
# %bb.7:                                # %if.then16
	movl	$0, -48(%rbp)
	jmp	.LBB39_11
.LBB39_8:                               # %if.else17
	xorl	%eax, %eax
	movq	-56(%rbp), %rcx
	movq	64(%rcx), %rcx
	cmpl	$9, 72(%rcx)
	je	.LBB39_10
# %bb.9:                                # %land.rhs22
	movq	-56(%rbp), %rax
	movq	64(%rax), %rax
	cmpl	$13, 72(%rax)
	setne	%al
.LBB39_10:                              # %land.end27
	xorl	%ecx, %ecx
	testb	$1, %al
	movl	$1, %eax
	cmovnel	%eax, %ecx
	movl	%ecx, -48(%rbp)
.LBB39_11:                              # %if.end29
	movl	-48(%rbp), %eax
	addl	-44(%rbp), %eax
	movl	%eax, -20(%rbp)
	movl	-68(%rbp), %eax
	movl	%eax, -4(%rbp)
	movl	-20(%rbp), %eax
	movq	-80(%rbp), %rcx
	movl	%eax, 24(%rcx)
	cmpl	$0, -4(%rbp)
	jne	.LBB39_13
# %bb.12:                               # %if.then32
	movq	-16(%rbp), %rdi
	movq	-32(%rbp), %rdx
	movslq	-20(%rbp), %rax
	shlq	$4, %rax
	addq	%rax, %rdx
	xorl	%esi, %esi
	callq	biari_encode_symbol
	jmp	.LBB39_23
.LBB39_13:                              # %if.else34
	cmpl	$25, -4(%rbp)
	jne	.LBB39_15
# %bb.14:                               # %if.then37
	movq	-16(%rbp), %rdi
	movq	-32(%rbp), %rdx
	movslq	-20(%rbp), %rax
	shlq	$4, %rax
	addq	%rax, %rdx
	movl	$1, %esi
	callq	biari_encode_symbol
	movq	-16(%rbp), %rdi
	movl	$1, %esi
	callq	biari_encode_symbol_final
	jmp	.LBB39_22
.LBB39_15:                              # %if.else43
	movq	-16(%rbp), %rdi
	movq	-32(%rbp), %rdx
	movslq	-20(%rbp), %rax
	shlq	$4, %rax
	addq	%rax, %rdx
	movl	$1, %esi
	callq	biari_encode_symbol
	movq	-16(%rbp), %rdi
	xorl	%esi, %esi
	callq	biari_encode_symbol_final
	movl	-4(%rbp), %eax
	subl	$1, %eax
	movl	%eax, -36(%rbp)
	movl	$4, -20(%rbp)
	movl	-36(%rbp), %eax
	cltd
	movl	$12, %ecx
	idivl	%ecx
	movl	%eax, -4(%rbp)
	movq	-16(%rbp), %rdi
	movl	-4(%rbp), %eax
	movzbl	%al, %eax
	movq	-32(%rbp), %rdx
	movslq	-20(%rbp), %rcx
	shlq	$4, %rcx
	addq	%rcx, %rdx
	movswl	%ax, %esi
	callq	biari_encode_symbol
	movl	-36(%rbp), %eax
	cltd
	movl	$12, %ecx
	idivl	%ecx
	movl	%edx, -36(%rbp)
	movl	-36(%rbp), %eax
	cltd
	movl	$4, %ecx
	idivl	%ecx
	movl	%eax, -4(%rbp)
	movl	$5, -20(%rbp)
	cmpl	$0, -4(%rbp)
	jne	.LBB39_17
# %bb.16:                               # %if.then59
	movq	-16(%rbp), %rdi
	movq	-32(%rbp), %rdx
	movslq	-20(%rbp), %rax
	shlq	$4, %rax
	addq	%rax, %rdx
	xorl	%esi, %esi
	callq	biari_encode_symbol
	jmp	.LBB39_21
.LBB39_17:                              # %if.else65
	movq	-16(%rbp), %rdi
	movq	-32(%rbp), %rdx
	movslq	-20(%rbp), %rax
	shlq	$4, %rax
	addq	%rax, %rdx
	movl	$1, %esi
	callq	biari_encode_symbol
	movl	$6, -20(%rbp)
	cmpl	$1, -4(%rbp)
	jne	.LBB39_19
# %bb.18:                               # %if.then73
	movq	-16(%rbp), %rdi
	movq	-32(%rbp), %rdx
	movslq	-20(%rbp), %rax
	shlq	$4, %rax
	addq	%rax, %rdx
	xorl	%esi, %esi
	callq	biari_encode_symbol
	jmp	.LBB39_20
.LBB39_19:                              # %if.else79
	movq	-16(%rbp), %rdi
	movq	-32(%rbp), %rdx
	movslq	-20(%rbp), %rax
	shlq	$4, %rax
	addq	%rax, %rdx
	movl	$1, %esi
	callq	biari_encode_symbol
.LBB39_20:                              # %if.end85
	jmp	.LBB39_21
.LBB39_21:                              # %if.end86
	movl	-36(%rbp), %eax
	cltd
	movl	$4, %ecx
	idivl	%ecx
	movl	%edx, -36(%rbp)
	movl	-36(%rbp), %eax
	cltd
	movl	$2, %ecx
	idivl	%ecx
	movl	%eax, -4(%rbp)
	movl	$7, -20(%rbp)
	movq	-16(%rbp), %rdi
	movl	-4(%rbp), %eax
	movzbl	%al, %eax
	movq	-32(%rbp), %rdx
	movslq	-20(%rbp), %rcx
	shlq	$4, %rcx
	addq	%rcx, %rdx
	movswl	%ax, %esi
	callq	biari_encode_symbol
	movl	$8, -20(%rbp)
	movl	-36(%rbp), %eax
	cltd
	movl	$2, %ecx
	idivl	%ecx
	movl	%edx, -4(%rbp)
	movq	-16(%rbp), %rdi
	movl	-4(%rbp), %eax
	movzbl	%al, %eax
	movq	-32(%rbp), %rdx
	movslq	-20(%rbp), %rcx
	shlq	$4, %rcx
	addq	%rcx, %rdx
	movswl	%ax, %esi
	callq	biari_encode_symbol
.LBB39_22:                              # %if.end104
	jmp	.LBB39_23
.LBB39_23:                              # %if.end105
	jmp	.LBB39_102
.LBB39_24:                              # %if.else106
	cmpl	$0, -64(%rbp)
	je	.LBB39_32
# %bb.25:                               # %if.then107
	movq	-56(%rbp), %rax
	cmpq	$0, 56(%rax)
	jne	.LBB39_27
# %bb.26:                               # %if.then111
	movl	$0, -44(%rbp)
	jmp	.LBB39_28
.LBB39_27:                              # %if.else112
	xorl	%eax, %eax
	movq	-56(%rbp), %rcx
	movq	56(%rcx), %rcx
	movl	72(%rcx), %ecx
	cmpl	$0, %ecx
	movl	$1, %ecx
	cmovnel	%ecx, %eax
	movl	%eax, -44(%rbp)
.LBB39_28:                              # %if.end118
	movq	-56(%rbp), %rax
	cmpq	$0, 64(%rax)
	jne	.LBB39_30
# %bb.29:                               # %if.then122
	movl	$0, -48(%rbp)
	jmp	.LBB39_31
.LBB39_30:                              # %if.else123
	xorl	%eax, %eax
	movq	-56(%rbp), %rcx
	movq	64(%rcx), %rcx
	movl	72(%rcx), %ecx
	cmpl	$0, %ecx
	movl	$1, %ecx
	cmovnel	%ecx, %eax
	movl	%eax, -48(%rbp)
.LBB39_31:                              # %if.end129
	movl	-48(%rbp), %eax
	addl	-44(%rbp), %eax
	movl	%eax, -20(%rbp)
	movl	-20(%rbp), %eax
	movq	-80(%rbp), %rcx
	movl	%eax, 24(%rcx)
.LBB39_32:                              # %if.end132
	movl	-68(%rbp), %eax
	movl	%eax, -4(%rbp)
	movl	-4(%rbp), %eax
	movl	-64(%rbp), %ecx
	cmpl	$0, %ecx
	movl	$24, %ecx
	movl	$7, %edx
	cmovnel	%ecx, %edx
	movl	%edx, -60(%rbp)
	cmpl	%edx, %eax
	jl	.LBB39_34
# %bb.33:                               # %if.then137
	movl	-4(%rbp), %eax
	subl	-60(%rbp), %eax
	movl	%eax, -36(%rbp)
	movl	-60(%rbp), %eax
	movl	%eax, -4(%rbp)
.LBB39_34:                              # %if.end139
	cmpl	$0, -64(%rbp)
	jne	.LBB39_46
# %bb.35:                               # %if.then141
	movl	-4(%rbp), %eax
	movq	%rax, %rcx
	subq	$7, %rcx
	ja	.LBB39_44
# %bb.36:                               # %if.then141
	movq	.LJTI39_0(,%rax,8), %rax
	jmpq	*%rax
.LBB39_37:                              # %sw.bb
	jmp	.LBB39_45
.LBB39_38:                              # %sw.bb142
	movq	-16(%rbp), %rdi
	movq	-32(%rbp), %rdx
	addq	$176, %rdx
	addq	$64, %rdx
	xorl	%esi, %esi
	callq	biari_encode_symbol
	movq	-16(%rbp), %rdi
	movq	-32(%rbp), %rdx
	addq	$176, %rdx
	addq	$80, %rdx
	xorl	%esi, %esi
	callq	biari_encode_symbol
	movq	-16(%rbp), %rdi
	movq	-32(%rbp), %rdx
	addq	$176, %rdx
	addq	$96, %rdx
	xorl	%esi, %esi
	callq	biari_encode_symbol
	jmp	.LBB39_45
.LBB39_39:                              # %sw.bb152
	movq	-16(%rbp), %rdi
	movq	-32(%rbp), %rdx
	addq	$176, %rdx
	addq	$64, %rdx
	xorl	%esi, %esi
	callq	biari_encode_symbol
	movq	-16(%rbp), %rdi
	movq	-32(%rbp), %rdx
	addq	$176, %rdx
	addq	$80, %rdx
	movl	$1, %esi
	callq	biari_encode_symbol
	movq	-16(%rbp), %rdi
	movq	-32(%rbp), %rdx
	addq	$176, %rdx
	addq	$112, %rdx
	movl	$1, %esi
	callq	biari_encode_symbol
	jmp	.LBB39_45
.LBB39_40:                              # %sw.bb162
	movq	-16(%rbp), %rdi
	movq	-32(%rbp), %rdx
	addq	$176, %rdx
	addq	$64, %rdx
	xorl	%esi, %esi
	callq	biari_encode_symbol
	movq	-16(%rbp), %rdi
	movq	-32(%rbp), %rdx
	addq	$176, %rdx
	addq	$80, %rdx
	movl	$1, %esi
	callq	biari_encode_symbol
	movq	-16(%rbp), %rdi
	movq	-32(%rbp), %rdx
	addq	$176, %rdx
	addq	$112, %rdx
	xorl	%esi, %esi
	callq	biari_encode_symbol
	jmp	.LBB39_45
.LBB39_41:                              # %sw.bb172
	movq	-16(%rbp), %rdi
	movq	-32(%rbp), %rdx
	addq	$176, %rdx
	addq	$64, %rdx
	xorl	%esi, %esi
	callq	biari_encode_symbol
	movq	-16(%rbp), %rdi
	movq	-32(%rbp), %rdx
	addq	$176, %rdx
	addq	$80, %rdx
	xorl	%esi, %esi
	callq	biari_encode_symbol
	movq	-16(%rbp), %rdi
	movq	-32(%rbp), %rdx
	addq	$176, %rdx
	addq	$96, %rdx
	movl	$1, %esi
	callq	biari_encode_symbol
	jmp	.LBB39_45
.LBB39_42:                              # %sw.bb182
	movq	-16(%rbp), %rdi
	movq	-32(%rbp), %rdx
	addq	$176, %rdx
	addq	$64, %rdx
	movl	$1, %esi
	callq	biari_encode_symbol
	movq	-16(%rbp), %rdi
	movq	-32(%rbp), %rdx
	addq	$176, %rdx
	addq	$112, %rdx
	xorl	%esi, %esi
	callq	biari_encode_symbol
	jmp	.LBB39_45
.LBB39_43:                              # %sw.bb189
	movq	-16(%rbp), %rdi
	movq	-32(%rbp), %rdx
	addq	$176, %rdx
	addq	$64, %rdx
	movl	$1, %esi
	callq	biari_encode_symbol
	movq	-16(%rbp), %rdi
	movq	-32(%rbp), %rdx
	addq	$176, %rdx
	addq	$112, %rdx
	movl	$1, %esi
	callq	biari_encode_symbol
	jmp	.LBB39_45
.LBB39_44:                              # %sw.default
	movabsq	$.L.str.2, %rdi
	movb	$0, %al
	callq	printf
	movl	$1, %edi
	callq	exit
.LBB39_45:                              # %sw.epilog
	jmp	.LBB39_91
.LBB39_46:                              # %if.else196
	cmpl	$0, -4(%rbp)
	jne	.LBB39_48
# %bb.47:                               # %if.then199
	movq	-16(%rbp), %rdi
	movq	-32(%rbp), %rdx
	addq	$352, %rdx              # imm = 0x160
	movslq	-20(%rbp), %rax
	shlq	$4, %rax
	addq	%rax, %rdx
	xorl	%esi, %esi
	callq	biari_encode_symbol
	jmp	.LBB39_90
.LBB39_48:                              # %if.else204
	cmpl	$2, -4(%rbp)
	jg	.LBB39_53
# %bb.49:                               # %if.then207
	movq	-16(%rbp), %rdi
	movq	-32(%rbp), %rdx
	addq	$352, %rdx              # imm = 0x160
	movslq	-20(%rbp), %rax
	shlq	$4, %rax
	addq	%rax, %rdx
	movl	$1, %esi
	callq	biari_encode_symbol
	movq	-16(%rbp), %rdi
	movq	-32(%rbp), %rdx
	addq	$352, %rdx              # imm = 0x160
	addq	$64, %rdx
	xorl	%esi, %esi
	callq	biari_encode_symbol
	movl	-4(%rbp), %eax
	subl	$1, %eax
	movl	%eax, -40(%rbp)
	cmpl	$0, -40(%rbp)
	je	.LBB39_51
# %bb.50:                               # %if.then217
	movq	-16(%rbp), %rdi
	movq	-32(%rbp), %rdx
	addq	$352, %rdx              # imm = 0x160
	addq	$96, %rdx
	movl	$1, %esi
	callq	biari_encode_symbol
	jmp	.LBB39_52
.LBB39_51:                              # %if.else221
	movq	-16(%rbp), %rdi
	movq	-32(%rbp), %rdx
	addq	$352, %rdx              # imm = 0x160
	addq	$96, %rdx
	xorl	%esi, %esi
	callq	biari_encode_symbol
.LBB39_52:                              # %if.end225
	jmp	.LBB39_89
.LBB39_53:                              # %if.else226
	cmpl	$10, -4(%rbp)
	jg	.LBB39_64
# %bb.54:                               # %if.then229
	movq	-16(%rbp), %rdi
	movq	-32(%rbp), %rdx
	addq	$352, %rdx              # imm = 0x160
	movslq	-20(%rbp), %rax
	shlq	$4, %rax
	addq	%rax, %rdx
	movl	$1, %esi
	callq	biari_encode_symbol
	movq	-16(%rbp), %rdi
	movq	-32(%rbp), %rdx
	addq	$352, %rdx              # imm = 0x160
	addq	$64, %rdx
	movl	$1, %esi
	callq	biari_encode_symbol
	movq	-16(%rbp), %rdi
	movq	-32(%rbp), %rdx
	addq	$352, %rdx              # imm = 0x160
	addq	$80, %rdx
	xorl	%esi, %esi
	callq	biari_encode_symbol
	movl	-4(%rbp), %eax
	subl	$3, %eax
	sarl	$2, %eax
	andl	$1, %eax
	movl	%eax, -40(%rbp)
	cmpl	$0, -40(%rbp)
	je	.LBB39_56
# %bb.55:                               # %if.then242
	movq	-16(%rbp), %rdi
	movq	-32(%rbp), %rdx
	addq	$352, %rdx              # imm = 0x160
	addq	$96, %rdx
	movl	$1, %esi
	callq	biari_encode_symbol
	jmp	.LBB39_57
.LBB39_56:                              # %if.else246
	movq	-16(%rbp), %rdi
	movq	-32(%rbp), %rdx
	addq	$352, %rdx              # imm = 0x160
	addq	$96, %rdx
	xorl	%esi, %esi
	callq	biari_encode_symbol
.LBB39_57:                              # %if.end250
	movl	-4(%rbp), %eax
	subl	$3, %eax
	sarl	$1, %eax
	andl	$1, %eax
	movl	%eax, -40(%rbp)
	cmpl	$0, -40(%rbp)
	je	.LBB39_59
# %bb.58:                               # %if.then255
	movq	-16(%rbp), %rdi
	movq	-32(%rbp), %rdx
	addq	$352, %rdx              # imm = 0x160
	addq	$96, %rdx
	movl	$1, %esi
	callq	biari_encode_symbol
	jmp	.LBB39_60
.LBB39_59:                              # %if.else259
	movq	-16(%rbp), %rdi
	movq	-32(%rbp), %rdx
	addq	$352, %rdx              # imm = 0x160
	addq	$96, %rdx
	xorl	%esi, %esi
	callq	biari_encode_symbol
.LBB39_60:                              # %if.end263
	movl	-4(%rbp), %eax
	subl	$3, %eax
	andl	$1, %eax
	movl	%eax, -40(%rbp)
	cmpl	$0, -40(%rbp)
	je	.LBB39_62
# %bb.61:                               # %if.then267
	movq	-16(%rbp), %rdi
	movq	-32(%rbp), %rdx
	addq	$352, %rdx              # imm = 0x160
	addq	$96, %rdx
	movl	$1, %esi
	callq	biari_encode_symbol
	jmp	.LBB39_63
.LBB39_62:                              # %if.else271
	movq	-16(%rbp), %rdi
	movq	-32(%rbp), %rdx
	addq	$352, %rdx              # imm = 0x160
	addq	$96, %rdx
	xorl	%esi, %esi
	callq	biari_encode_symbol
.LBB39_63:                              # %if.end275
	jmp	.LBB39_88
.LBB39_64:                              # %if.else276
	cmpl	$11, -4(%rbp)
	je	.LBB39_66
# %bb.65:                               # %lor.lhs.false
	cmpl	$22, -4(%rbp)
	jne	.LBB39_70
.LBB39_66:                              # %if.then281
	movq	-16(%rbp), %rdi
	movq	-32(%rbp), %rdx
	addq	$352, %rdx              # imm = 0x160
	movslq	-20(%rbp), %rax
	shlq	$4, %rax
	addq	%rax, %rdx
	movl	$1, %esi
	callq	biari_encode_symbol
	movq	-16(%rbp), %rdi
	movq	-32(%rbp), %rdx
	addq	$352, %rdx              # imm = 0x160
	addq	$64, %rdx
	movl	$1, %esi
	callq	biari_encode_symbol
	movq	-16(%rbp), %rdi
	movq	-32(%rbp), %rdx
	addq	$352, %rdx              # imm = 0x160
	addq	$80, %rdx
	movl	$1, %esi
	callq	biari_encode_symbol
	movq	-16(%rbp), %rdi
	movq	-32(%rbp), %rdx
	addq	$352, %rdx              # imm = 0x160
	addq	$96, %rdx
	movl	$1, %esi
	callq	biari_encode_symbol
	movq	-16(%rbp), %rdi
	movq	-32(%rbp), %rdx
	addq	$352, %rdx              # imm = 0x160
	addq	$96, %rdx
	movl	$1, %esi
	callq	biari_encode_symbol
	cmpl	$11, -4(%rbp)
	jne	.LBB39_68
# %bb.67:                               # %if.then300
	movq	-16(%rbp), %rdi
	movq	-32(%rbp), %rdx
	addq	$352, %rdx              # imm = 0x160
	addq	$96, %rdx
	xorl	%esi, %esi
	callq	biari_encode_symbol
	jmp	.LBB39_69
.LBB39_68:                              # %if.else304
	movq	-16(%rbp), %rdi
	movq	-32(%rbp), %rdx
	addq	$352, %rdx              # imm = 0x160
	addq	$96, %rdx
	movl	$1, %esi
	callq	biari_encode_symbol
.LBB39_69:                              # %if.end308
	jmp	.LBB39_87
.LBB39_70:                              # %if.else309
	cmpl	$22, -4(%rbp)
	jle	.LBB39_72
# %bb.71:                               # %if.then312
	movl	-4(%rbp), %eax
	addl	$-1, %eax
	movl	%eax, -4(%rbp)
.LBB39_72:                              # %if.end313
	movq	-16(%rbp), %rdi
	movq	-32(%rbp), %rdx
	addq	$352, %rdx              # imm = 0x160
	movslq	-20(%rbp), %rax
	shlq	$4, %rax
	addq	%rax, %rdx
	movl	$1, %esi
	callq	biari_encode_symbol
	movq	-16(%rbp), %rdi
	movq	-32(%rbp), %rdx
	addq	$352, %rdx              # imm = 0x160
	addq	$64, %rdx
	movl	$1, %esi
	callq	biari_encode_symbol
	movq	-16(%rbp), %rdi
	movq	-32(%rbp), %rdx
	addq	$352, %rdx              # imm = 0x160
	addq	$80, %rdx
	movl	$1, %esi
	callq	biari_encode_symbol
	movl	-4(%rbp), %eax
	subl	$12, %eax
	sarl	$3, %eax
	andl	$1, %eax
	movl	%eax, -40(%rbp)
	cmpl	$0, -40(%rbp)
	je	.LBB39_74
# %bb.73:                               # %if.then328
	movq	-16(%rbp), %rdi
	movq	-32(%rbp), %rdx
	addq	$352, %rdx              # imm = 0x160
	addq	$96, %rdx
	movl	$1, %esi
	callq	biari_encode_symbol
	jmp	.LBB39_75
.LBB39_74:                              # %if.else332
	movq	-16(%rbp), %rdi
	movq	-32(%rbp), %rdx
	addq	$352, %rdx              # imm = 0x160
	addq	$96, %rdx
	xorl	%esi, %esi
	callq	biari_encode_symbol
.LBB39_75:                              # %if.end336
	movl	-4(%rbp), %eax
	subl	$12, %eax
	sarl	$2, %eax
	andl	$1, %eax
	movl	%eax, -40(%rbp)
	cmpl	$0, -40(%rbp)
	je	.LBB39_77
# %bb.76:                               # %if.then341
	movq	-16(%rbp), %rdi
	movq	-32(%rbp), %rdx
	addq	$352, %rdx              # imm = 0x160
	addq	$96, %rdx
	movl	$1, %esi
	callq	biari_encode_symbol
	jmp	.LBB39_78
.LBB39_77:                              # %if.else345
	movq	-16(%rbp), %rdi
	movq	-32(%rbp), %rdx
	addq	$352, %rdx              # imm = 0x160
	addq	$96, %rdx
	xorl	%esi, %esi
	callq	biari_encode_symbol
.LBB39_78:                              # %if.end349
	movl	-4(%rbp), %eax
	subl	$12, %eax
	sarl	$1, %eax
	andl	$1, %eax
	movl	%eax, -40(%rbp)
	cmpl	$0, -40(%rbp)
	je	.LBB39_80
# %bb.79:                               # %if.then354
	movq	-16(%rbp), %rdi
	movq	-32(%rbp), %rdx
	addq	$352, %rdx              # imm = 0x160
	addq	$96, %rdx
	movl	$1, %esi
	callq	biari_encode_symbol
	jmp	.LBB39_81
.LBB39_80:                              # %if.else358
	movq	-16(%rbp), %rdi
	movq	-32(%rbp), %rdx
	addq	$352, %rdx              # imm = 0x160
	addq	$96, %rdx
	xorl	%esi, %esi
	callq	biari_encode_symbol
.LBB39_81:                              # %if.end362
	movl	-4(%rbp), %eax
	subl	$12, %eax
	andl	$1, %eax
	movl	%eax, -40(%rbp)
	cmpl	$0, -40(%rbp)
	je	.LBB39_83
# %bb.82:                               # %if.then366
	movq	-16(%rbp), %rdi
	movq	-32(%rbp), %rdx
	addq	$352, %rdx              # imm = 0x160
	addq	$96, %rdx
	movl	$1, %esi
	callq	biari_encode_symbol
	jmp	.LBB39_84
.LBB39_83:                              # %if.else370
	movq	-16(%rbp), %rdi
	movq	-32(%rbp), %rdx
	addq	$352, %rdx              # imm = 0x160
	addq	$96, %rdx
	xorl	%esi, %esi
	callq	biari_encode_symbol
.LBB39_84:                              # %if.end374
	cmpl	$22, -4(%rbp)
	jl	.LBB39_86
# %bb.85:                               # %if.then377
	movl	-4(%rbp), %eax
	addl	$1, %eax
	movl	%eax, -4(%rbp)
.LBB39_86:                              # %if.end378
	jmp	.LBB39_87
.LBB39_87:                              # %if.end379
	jmp	.LBB39_88
.LBB39_88:                              # %if.end380
	jmp	.LBB39_89
.LBB39_89:                              # %if.end381
	jmp	.LBB39_90
.LBB39_90:                              # %if.end382
	jmp	.LBB39_91
.LBB39_91:                              # %if.end383
	movl	-4(%rbp), %eax
	cmpl	-60(%rbp), %eax
	jne	.LBB39_101
# %bb.92:                               # %if.then386
	cmpl	$25, -36(%rbp)
	jne	.LBB39_94
# %bb.93:                               # %if.then389
	movq	-16(%rbp), %rdi
	movl	$1, %esi
	callq	biari_encode_symbol_final
	jmp	.LBB39_102
.LBB39_94:                              # %if.end390
	movq	-16(%rbp), %rdi
	xorl	%esi, %esi
	callq	biari_encode_symbol_final
	movl	$8, -20(%rbp)
	movl	-36(%rbp), %eax
	cltd
	movl	$12, %ecx
	idivl	%ecx
	movl	%eax, -4(%rbp)
	movq	-16(%rbp), %rdi
	movl	-4(%rbp), %eax
	movzbl	%al, %eax
	movq	-32(%rbp), %rdx
	addq	$176, %rdx
	movslq	-20(%rbp), %rcx
	shlq	$4, %rcx
	addq	%rcx, %rdx
	movswl	%ax, %esi
	callq	biari_encode_symbol
	movl	-36(%rbp), %eax
	cltd
	movl	$12, %ecx
	idivl	%ecx
	movl	%edx, -36(%rbp)
	movl	-36(%rbp), %eax
	cltd
	movl	$4, %ecx
	idivl	%ecx
	movl	%eax, -4(%rbp)
	movl	$9, -20(%rbp)
	cmpl	$0, -4(%rbp)
	jne	.LBB39_96
# %bb.95:                               # %if.then403
	movq	-16(%rbp), %rdi
	movq	-32(%rbp), %rdx
	addq	$176, %rdx
	movslq	-20(%rbp), %rax
	shlq	$4, %rax
	addq	%rax, %rdx
	xorl	%esi, %esi
	callq	biari_encode_symbol
	jmp	.LBB39_100
.LBB39_96:                              # %if.else409
	movq	-16(%rbp), %rdi
	movq	-32(%rbp), %rdx
	addq	$176, %rdx
	movslq	-20(%rbp), %rax
	shlq	$4, %rax
	addq	%rax, %rdx
	movl	$1, %esi
	callq	biari_encode_symbol
	cmpl	$1, -4(%rbp)
	jne	.LBB39_98
# %bb.97:                               # %if.then417
	movq	-16(%rbp), %rdi
	movq	-32(%rbp), %rdx
	addq	$176, %rdx
	movslq	-20(%rbp), %rax
	shlq	$4, %rax
	addq	%rax, %rdx
	xorl	%esi, %esi
	callq	biari_encode_symbol
	jmp	.LBB39_99
.LBB39_98:                              # %if.else423
	movq	-16(%rbp), %rdi
	movq	-32(%rbp), %rdx
	addq	$176, %rdx
	movslq	-20(%rbp), %rax
	shlq	$4, %rax
	addq	%rax, %rdx
	movl	$1, %esi
	callq	biari_encode_symbol
.LBB39_99:                              # %if.end429
	jmp	.LBB39_100
.LBB39_100:                             # %if.end430
	movl	-36(%rbp), %eax
	cltd
	movl	$4, %ecx
	idivl	%ecx
	movl	%edx, -36(%rbp)
	movl	$10, -20(%rbp)
	movl	-36(%rbp), %eax
	cltd
	movl	$2, %ecx
	idivl	%ecx
	movl	%eax, -4(%rbp)
	movq	-16(%rbp), %rdi
	movl	-4(%rbp), %eax
	movzbl	%al, %eax
	movq	-32(%rbp), %rdx
	addq	$176, %rdx
	movslq	-20(%rbp), %rcx
	shlq	$4, %rcx
	addq	%rcx, %rdx
	movswl	%ax, %esi
	callq	biari_encode_symbol
	movl	-36(%rbp), %eax
	cltd
	movl	$2, %ecx
	idivl	%ecx
	movl	%edx, -4(%rbp)
	movq	-16(%rbp), %rdi
	movl	-4(%rbp), %eax
	movzbl	%al, %eax
	movq	-32(%rbp), %rdx
	addq	$176, %rdx
	movslq	-20(%rbp), %rcx
	shlq	$4, %rcx
	addq	%rcx, %rdx
	movswl	%ax, %esi
	callq	biari_encode_symbol
.LBB39_101:                             # %if.end448
	jmp	.LBB39_102
.LBB39_102:                             # %if.end449
	cmpl	$1300819549, -84(%rbp)  # imm = 0x4D88EE5D
	jne	.LBB39_104
.LBB39_103:
	addq	$96, %rsp
	popq	%rbp
	.cfi_def_cfa %rsp, 8
	retq
.LBB39_104:                             # %func_exit
	.cfi_def_cfa %rbp, 16
	callq	detect_breach
	jmp	.LBB39_103
.Lfunc_end39:
	.size	writeMB_typeInfo_CABAC.12, .Lfunc_end39-writeMB_typeInfo_CABAC.12
	.cfi_endproc
	.section	.rodata,"a",@progbits
	.p2align	3
.LJTI39_0:
	.quad	.LBB39_37
	.quad	.LBB39_38
	.quad	.LBB39_39
	.quad	.LBB39_40
	.quad	.LBB39_41
	.quad	.LBB39_41
	.quad	.LBB39_42
	.quad	.LBB39_43
                                        # -- End function
	.text
	.globl	writeFieldModeInfo_CABAC.13 # -- Begin function writeFieldModeInfo_CABAC.13
	.p2align	4, 0x90
	.type	writeFieldModeInfo_CABAC.13,@function
writeFieldModeInfo_CABAC.13:            # @writeFieldModeInfo_CABAC.13
	.cfi_startproc
# %bb.0:                                # %entry
	pushq	%rbp
	.cfi_def_cfa_offset 16
	.cfi_offset %rbp, -16
	movq	%rsp, %rbp
	.cfi_def_cfa_register %rbp
	subq	$64, %rsp
	movl	$1809676319, -32(%rbp)  # imm = 0x6BDD781F
	movq	%rdi, -48(%rbp)
	movq	%rsi, -40(%rbp)
	movq	img, %rax
	movq	14160(%rax), %rax
	movq	32(%rax), %rax
	movq	%rax, -56(%rbp)
	movq	img, %rax
	movq	14168(%rax), %rax
	movq	img, %rcx
	movslq	12(%rcx), %rcx
	imulq	$632, %rcx, %rcx        # imm = 0x278
	addq	%rcx, %rax
	movq	%rax, -24(%rbp)
	movq	-48(%rbp), %rax
	movl	4(%rax), %eax
	movl	%eax, -28(%rbp)
	movq	-24(%rbp), %rax
	cmpl	$0, 552(%rax)
	je	.LBB40_2
# %bb.1:                                # %if.then
	movq	img, %rax
	movq	14168(%rax), %rax
	movq	-24(%rbp), %rcx
	movslq	536(%rcx), %rcx
	imulq	$632, %rcx, %rcx        # imm = 0x278
	addq	%rcx, %rax
	movl	532(%rax), %eax
	movl	%eax, -8(%rbp)
	jmp	.LBB40_3
.LBB40_2:                               # %if.else
	movl	$0, -8(%rbp)
.LBB40_3:                               # %if.end
	movq	-24(%rbp), %rax
	cmpl	$0, 556(%rax)
	je	.LBB40_5
# %bb.4:                                # %if.then6
	movq	img, %rax
	movq	14168(%rax), %rax
	movq	-24(%rbp), %rcx
	movslq	540(%rcx), %rcx
	imulq	$632, %rcx, %rcx        # imm = 0x278
	addq	%rcx, %rax
	movl	532(%rax), %eax
	movl	%eax, -12(%rbp)
	jmp	.LBB40_6
.LBB40_5:                               # %if.else11
	movl	$0, -12(%rbp)
.LBB40_6:                               # %if.end12
	movl	-8(%rbp), %eax
	addl	-12(%rbp), %eax
	movl	%eax, -4(%rbp)
	cmpl	$0, -28(%rbp)
	jne	.LBB40_8
# %bb.7:                                # %if.then13
	movq	-40(%rbp), %rdi
	movq	-56(%rbp), %rdx
	addq	$1392, %rdx             # imm = 0x570
	movslq	-4(%rbp), %rax
	shlq	$4, %rax
	addq	%rax, %rdx
	xorl	%esi, %esi
	callq	biari_encode_symbol
	jmp	.LBB40_9
.LBB40_8:                               # %if.else16
	movq	-40(%rbp), %rdi
	movq	-56(%rbp), %rdx
	addq	$1392, %rdx             # imm = 0x570
	movslq	-4(%rbp), %rax
	shlq	$4, %rax
	addq	%rax, %rdx
	movl	$1, %esi
	callq	biari_encode_symbol
.LBB40_9:                               # %if.end20
	movl	-4(%rbp), %eax
	movq	-48(%rbp), %rcx
	movl	%eax, 24(%rcx)
	cmpl	$1809676319, -32(%rbp)  # imm = 0x6BDD781F
	jne	.LBB40_11
.LBB40_10:
	addq	$64, %rsp
	popq	%rbp
	.cfi_def_cfa %rsp, 8
	retq
.LBB40_11:                              # %func_exit
	.cfi_def_cfa %rbp, 16
	callq	detect_breach
	jmp	.LBB40_10
.Lfunc_end40:
	.size	writeFieldModeInfo_CABAC.13, .Lfunc_end40-writeFieldModeInfo_CABAC.13
	.cfi_endproc
                                        # -- End function
	.globl	writeB8_typeInfo_CABAC.14 # -- Begin function writeB8_typeInfo_CABAC.14
	.p2align	4, 0x90
	.type	writeB8_typeInfo_CABAC.14,@function
writeB8_typeInfo_CABAC.14:              # @writeB8_typeInfo_CABAC.14
	.cfi_startproc
# %bb.0:                                # %entry
	pushq	%rbp
	.cfi_def_cfa_offset 16
	.cfi_offset %rbp, -16
	movq	%rsp, %rbp
	.cfi_def_cfa_register %rbp
	subq	$48, %rsp
	movl	$1226983375, -32(%rbp)  # imm = 0x492247CF
	movq	%rdi, -40(%rbp)
	movq	%rsi, -16(%rbp)
	movq	img, %rax
	cmpl	$1, 24(%rax)
	sete	%al
	andb	$1, %al
	movzbl	%al, %eax
	movl	%eax, -28(%rbp)
	movq	img, %rax
	movq	14160(%rax), %rax
	movq	32(%rax), %rax
	movq	%rax, -8(%rbp)
	movq	-40(%rbp), %rax
	movl	4(%rax), %eax
	movl	%eax, -20(%rbp)
	movl	$0, -44(%rbp)
	cmpl	$0, -28(%rbp)
	jne	.LBB41_8
# %bb.1:                                # %if.then
	movl	-20(%rbp), %eax
	movq	%rax, %rcx
	subq	$3, %rcx
	ja	.LBB41_7
# %bb.2:                                # %if.then
	movq	.LJTI41_0(,%rax,8), %rax
	jmpq	*%rax
.LBB41_3:                               # %sw.bb
	movq	-16(%rbp), %rdi
	movq	-8(%rbp), %rdx
	addq	$528, %rdx              # imm = 0x210
	addq	$16, %rdx
	movl	$1, %esi
	callq	biari_encode_symbol
	jmp	.LBB41_7
.LBB41_4:                               # %sw.bb2
	movq	-16(%rbp), %rdi
	movq	-8(%rbp), %rdx
	addq	$528, %rdx              # imm = 0x210
	addq	$16, %rdx
	xorl	%esi, %esi
	callq	biari_encode_symbol
	movq	-16(%rbp), %rdi
	movq	-8(%rbp), %rdx
	addq	$528, %rdx              # imm = 0x210
	addq	$48, %rdx
	xorl	%esi, %esi
	callq	biari_encode_symbol
	jmp	.LBB41_7
.LBB41_5:                               # %sw.bb9
	movq	-16(%rbp), %rdi
	movq	-8(%rbp), %rdx
	addq	$528, %rdx              # imm = 0x210
	addq	$16, %rdx
	xorl	%esi, %esi
	callq	biari_encode_symbol
	movq	-16(%rbp), %rdi
	movq	-8(%rbp), %rdx
	addq	$528, %rdx              # imm = 0x210
	addq	$48, %rdx
	movl	$1, %esi
	callq	biari_encode_symbol
	movq	-16(%rbp), %rdi
	movq	-8(%rbp), %rdx
	addq	$528, %rdx              # imm = 0x210
	addq	$64, %rdx
	movl	$1, %esi
	callq	biari_encode_symbol
	jmp	.LBB41_7
.LBB41_6:                               # %sw.bb19
	movq	-16(%rbp), %rdi
	movq	-8(%rbp), %rdx
	addq	$528, %rdx              # imm = 0x210
	addq	$16, %rdx
	xorl	%esi, %esi
	callq	biari_encode_symbol
	movq	-16(%rbp), %rdi
	movq	-8(%rbp), %rdx
	addq	$528, %rdx              # imm = 0x210
	addq	$48, %rdx
	movl	$1, %esi
	callq	biari_encode_symbol
	movq	-16(%rbp), %rdi
	movq	-8(%rbp), %rdx
	addq	$528, %rdx              # imm = 0x210
	addq	$64, %rdx
	xorl	%esi, %esi
	callq	biari_encode_symbol
.LBB41_7:                               # %sw.epilog
	jmp	.LBB41_39
.LBB41_8:                               # %if.else
	cmpl	$0, -20(%rbp)
	jne	.LBB41_10
# %bb.9:                                # %if.then31
	movq	-16(%rbp), %rdi
	movq	-8(%rbp), %rdx
	addq	$528, %rdx              # imm = 0x210
	addq	$144, %rdx
	xorl	%esi, %esi
	callq	biari_encode_symbol
	jmp	.LBB41_39
.LBB41_10:                              # %if.else35
	movq	-16(%rbp), %rdi
	movq	-8(%rbp), %rdx
	addq	$528, %rdx              # imm = 0x210
	addq	$144, %rdx
	movl	$1, %esi
	callq	biari_encode_symbol
	movl	-20(%rbp), %eax
	addl	$-1, %eax
	movl	%eax, -20(%rbp)
# %bb.11:                               # %if.end
	cmpl	$2, -20(%rbp)
	jge	.LBB41_16
# %bb.12:                               # %if.then41
	movq	-16(%rbp), %rdi
	movq	-8(%rbp), %rdx
	addq	$528, %rdx              # imm = 0x210
	addq	$144, %rdx
	addq	$16, %rdx
	xorl	%esi, %esi
	callq	biari_encode_symbol
	cmpl	$0, -20(%rbp)
	jne	.LBB41_14
# %bb.13:                               # %if.then47
	movq	-16(%rbp), %rdi
	movq	-8(%rbp), %rdx
	addq	$528, %rdx              # imm = 0x210
	addq	$144, %rdx
	addq	$48, %rdx
	xorl	%esi, %esi
	callq	biari_encode_symbol
	jmp	.LBB41_15
.LBB41_14:                              # %if.else51
	movq	-16(%rbp), %rdi
	movq	-8(%rbp), %rdx
	addq	$528, %rdx              # imm = 0x210
	addq	$144, %rdx
	addq	$48, %rdx
	movl	$1, %esi
	callq	biari_encode_symbol
.LBB41_15:                              # %if.end55
	jmp	.LBB41_38
.LBB41_16:                              # %if.else56
	cmpl	$6, -20(%rbp)
	jge	.LBB41_24
# %bb.17:                               # %if.then59
	movq	-16(%rbp), %rdi
	movq	-8(%rbp), %rdx
	addq	$528, %rdx              # imm = 0x210
	addq	$144, %rdx
	addq	$16, %rdx
	movl	$1, %esi
	callq	biari_encode_symbol
	movq	-16(%rbp), %rdi
	movq	-8(%rbp), %rdx
	addq	$528, %rdx              # imm = 0x210
	addq	$144, %rdx
	addq	$32, %rdx
	xorl	%esi, %esi
	callq	biari_encode_symbol
	movl	-20(%rbp), %eax
	subl	$2, %eax
	sarl	$1, %eax
	andl	$1, %eax
	movl	%eax, -24(%rbp)
	cmpl	$0, -24(%rbp)
	je	.LBB41_19
# %bb.18:                               # %if.then67
	movq	-16(%rbp), %rdi
	movq	-8(%rbp), %rdx
	addq	$528, %rdx              # imm = 0x210
	addq	$144, %rdx
	addq	$48, %rdx
	movl	$1, %esi
	callq	biari_encode_symbol
	jmp	.LBB41_20
.LBB41_19:                              # %if.else71
	movq	-16(%rbp), %rdi
	movq	-8(%rbp), %rdx
	addq	$528, %rdx              # imm = 0x210
	addq	$144, %rdx
	addq	$48, %rdx
	xorl	%esi, %esi
	callq	biari_encode_symbol
.LBB41_20:                              # %if.end75
	movl	-20(%rbp), %eax
	subl	$2, %eax
	andl	$1, %eax
	movl	%eax, -24(%rbp)
	cmpl	$0, -24(%rbp)
	je	.LBB41_22
# %bb.21:                               # %if.then79
	movq	-16(%rbp), %rdi
	movq	-8(%rbp), %rdx
	addq	$528, %rdx              # imm = 0x210
	addq	$144, %rdx
	addq	$48, %rdx
	movl	$1, %esi
	callq	biari_encode_symbol
	jmp	.LBB41_23
.LBB41_22:                              # %if.else83
	movq	-16(%rbp), %rdi
	movq	-8(%rbp), %rdx
	addq	$528, %rdx              # imm = 0x210
	addq	$144, %rdx
	addq	$48, %rdx
	xorl	%esi, %esi
	callq	biari_encode_symbol
.LBB41_23:                              # %if.end87
	jmp	.LBB41_37
.LBB41_24:                              # %if.else88
	movq	-16(%rbp), %rdi
	movq	-8(%rbp), %rdx
	addq	$528, %rdx              # imm = 0x210
	addq	$144, %rdx
	addq	$16, %rdx
	movl	$1, %esi
	callq	biari_encode_symbol
	movq	-16(%rbp), %rdi
	movq	-8(%rbp), %rdx
	addq	$528, %rdx              # imm = 0x210
	addq	$144, %rdx
	addq	$32, %rdx
	movl	$1, %esi
	callq	biari_encode_symbol
	movl	-20(%rbp), %eax
	subl	$6, %eax
	sarl	$2, %eax
	andl	$1, %eax
	movl	%eax, -24(%rbp)
	cmpl	$0, -24(%rbp)
	je	.LBB41_29
# %bb.25:                               # %if.then99
	movq	-16(%rbp), %rdi
	movq	-8(%rbp), %rdx
	addq	$528, %rdx              # imm = 0x210
	addq	$144, %rdx
	addq	$48, %rdx
	movl	$1, %esi
	callq	biari_encode_symbol
	movl	-20(%rbp), %eax
	subl	$6, %eax
	andl	$1, %eax
	movl	%eax, -24(%rbp)
	cmpl	$0, -24(%rbp)
	je	.LBB41_27
# %bb.26:                               # %if.then106
	movq	-16(%rbp), %rdi
	movq	-8(%rbp), %rdx
	addq	$528, %rdx              # imm = 0x210
	addq	$144, %rdx
	addq	$48, %rdx
	movl	$1, %esi
	callq	biari_encode_symbol
	jmp	.LBB41_28
.LBB41_27:                              # %if.else110
	movq	-16(%rbp), %rdi
	movq	-8(%rbp), %rdx
	addq	$528, %rdx              # imm = 0x210
	addq	$144, %rdx
	addq	$48, %rdx
	xorl	%esi, %esi
	callq	biari_encode_symbol
.LBB41_28:                              # %if.end114
	jmp	.LBB41_36
.LBB41_29:                              # %if.else115
	movq	-16(%rbp), %rdi
	movq	-8(%rbp), %rdx
	addq	$528, %rdx              # imm = 0x210
	addq	$144, %rdx
	addq	$48, %rdx
	xorl	%esi, %esi
	callq	biari_encode_symbol
	movl	-20(%rbp), %eax
	subl	$6, %eax
	sarl	$1, %eax
	andl	$1, %eax
	movl	%eax, -24(%rbp)
	cmpl	$0, -24(%rbp)
	je	.LBB41_31
# %bb.30:                               # %if.then123
	movq	-16(%rbp), %rdi
	movq	-8(%rbp), %rdx
	addq	$528, %rdx              # imm = 0x210
	addq	$144, %rdx
	addq	$48, %rdx
	movl	$1, %esi
	callq	biari_encode_symbol
	jmp	.LBB41_32
.LBB41_31:                              # %if.else127
	movq	-16(%rbp), %rdi
	movq	-8(%rbp), %rdx
	addq	$528, %rdx              # imm = 0x210
	addq	$144, %rdx
	addq	$48, %rdx
	xorl	%esi, %esi
	callq	biari_encode_symbol
.LBB41_32:                              # %if.end131
	movl	-20(%rbp), %eax
	subl	$6, %eax
	andl	$1, %eax
	movl	%eax, -24(%rbp)
	cmpl	$0, -24(%rbp)
	je	.LBB41_34
# %bb.33:                               # %if.then135
	movq	-16(%rbp), %rdi
	movq	-8(%rbp), %rdx
	addq	$528, %rdx              # imm = 0x210
	addq	$144, %rdx
	addq	$48, %rdx
	movl	$1, %esi
	callq	biari_encode_symbol
	jmp	.LBB41_35
.LBB41_34:                              # %if.else139
	movq	-16(%rbp), %rdi
	movq	-8(%rbp), %rdx
	addq	$528, %rdx              # imm = 0x210
	addq	$144, %rdx
	addq	$48, %rdx
	xorl	%esi, %esi
	callq	biari_encode_symbol
.LBB41_35:                              # %if.end143
	jmp	.LBB41_36
.LBB41_36:                              # %if.end144
	jmp	.LBB41_37
.LBB41_37:                              # %if.end145
	jmp	.LBB41_38
.LBB41_38:                              # %if.end146
	jmp	.LBB41_39
.LBB41_39:                              # %if.end147
	cmpl	$1226983375, -32(%rbp)  # imm = 0x492247CF
	jne	.LBB41_41
.LBB41_40:
	addq	$48, %rsp
	popq	%rbp
	.cfi_def_cfa %rsp, 8
	retq
.LBB41_41:                              # %func_exit
	.cfi_def_cfa %rbp, 16
	callq	detect_breach
	jmp	.LBB41_40
.Lfunc_end41:
	.size	writeB8_typeInfo_CABAC.14, .Lfunc_end41-writeB8_typeInfo_CABAC.14
	.cfi_endproc
	.section	.rodata,"a",@progbits
	.p2align	3
.LJTI41_0:
	.quad	.LBB41_3
	.quad	.LBB41_4
	.quad	.LBB41_5
	.quad	.LBB41_6
                                        # -- End function
	.text
	.globl	unary_exp_golomb_level_encode.15 # -- Begin function unary_exp_golomb_level_encode.15
	.p2align	4, 0x90
	.type	unary_exp_golomb_level_encode.15,@function
unary_exp_golomb_level_encode.15:       # @unary_exp_golomb_level_encode.15
	.cfi_startproc
# %bb.0:                                # %entry
	pushq	%rbp
	.cfi_def_cfa_offset 16
	.cfi_offset %rbp, -16
	movq	%rsp, %rbp
	.cfi_def_cfa_register %rbp
	subq	$48, %rsp
	movl	$204378762, -36(%rbp)   # imm = 0xC2E928A
	movq	%rdi, -16(%rbp)
	movl	%esi, -4(%rbp)
	movq	%rdx, -32(%rbp)
	movl	$13, -8(%rbp)
	cmpl	$0, -4(%rbp)
	jne	.LBB42_2
# %bb.1:                                # %if.then
	movq	-16(%rbp), %rdi
	movq	-32(%rbp), %rdx
	xorl	%esi, %esi
	callq	biari_encode_symbol
	jmp	.LBB42_12
.LBB42_2:                               # %if.else
	movq	-16(%rbp), %rdi
	movq	-32(%rbp), %rdx
	movl	$1, %esi
	callq	biari_encode_symbol
	movl	-4(%rbp), %eax
	movl	%eax, -20(%rbp)
	movl	$1, -24(%rbp)
.LBB42_3:                               # %while.cond
                                        # =>This Inner Loop Header: Depth=1
	xorl	%eax, %eax
	movl	-20(%rbp), %ecx
	addl	$-1, %ecx
	movl	%ecx, -20(%rbp)
	cmpl	$0, %ecx
	jbe	.LBB42_5
# %bb.4:                                # %land.rhs
                                        #   in Loop: Header=BB42_3 Depth=1
	movl	-24(%rbp), %eax
	addl	$1, %eax
	movl	%eax, -24(%rbp)
	cmpl	-8(%rbp), %eax
	setbe	%al
.LBB42_5:                               # %land.end
                                        #   in Loop: Header=BB42_3 Depth=1
	testb	$1, %al
	jne	.LBB42_6
	jmp	.LBB42_7
.LBB42_6:                               # %while.body
                                        #   in Loop: Header=BB42_3 Depth=1
	movq	-16(%rbp), %rdi
	movq	-32(%rbp), %rdx
	movl	$1, %esi
	callq	biari_encode_symbol
	jmp	.LBB42_3
.LBB42_7:                               # %while.end
	movl	-4(%rbp), %eax
	cmpl	-8(%rbp), %eax
	jae	.LBB42_9
# %bb.8:                                # %if.then4
	movq	-16(%rbp), %rdi
	movq	-32(%rbp), %rdx
	xorl	%esi, %esi
	callq	biari_encode_symbol
	jmp	.LBB42_10
.LBB42_9:                               # %if.else5
	movq	-16(%rbp), %rdi
	movl	-4(%rbp), %esi
	subl	-8(%rbp), %esi
	xorl	%edx, %edx
	callq	exp_golomb_encode_eq_prob
.LBB42_10:                              # %if.end
	jmp	.LBB42_11
.LBB42_11:                              # %if.end6
	jmp	.LBB42_12
.LBB42_12:                              # %return
	cmpl	$204378762, -36(%rbp)   # imm = 0xC2E928A
	jne	.LBB42_14
.LBB42_13:
	addq	$48, %rsp
	popq	%rbp
	.cfi_def_cfa %rsp, 8
	retq
.LBB42_14:                              # %func_exit
	.cfi_def_cfa %rbp, 16
	callq	detect_breach
	jmp	.LBB42_13
.Lfunc_end42:
	.size	unary_exp_golomb_level_encode.15, .Lfunc_end42-unary_exp_golomb_level_encode.15
	.cfi_endproc
                                        # -- End function
	.globl	writeB8_typeInfo_CABAC.16 # -- Begin function writeB8_typeInfo_CABAC.16
	.p2align	4, 0x90
	.type	writeB8_typeInfo_CABAC.16,@function
writeB8_typeInfo_CABAC.16:              # @writeB8_typeInfo_CABAC.16
	.cfi_startproc
# %bb.0:                                # %entry
	pushq	%rbp
	.cfi_def_cfa_offset 16
	.cfi_offset %rbp, -16
	movq	%rsp, %rbp
	.cfi_def_cfa_register %rbp
	subq	$48, %rsp
	movl	$423928698, -32(%rbp)   # imm = 0x1944A37A
	movq	%rdi, -40(%rbp)
	movq	%rsi, -8(%rbp)
	movq	img, %rax
	cmpl	$1, 24(%rax)
	sete	%al
	andb	$1, %al
	movzbl	%al, %eax
	movl	%eax, -28(%rbp)
	movq	img, %rax
	movq	14160(%rax), %rax
	movq	32(%rax), %rax
	movq	%rax, -16(%rbp)
	movq	-40(%rbp), %rax
	movl	4(%rax), %eax
	movl	%eax, -20(%rbp)
	movl	$0, -44(%rbp)
	cmpl	$0, -28(%rbp)
	jne	.LBB43_8
# %bb.1:                                # %if.then
	movl	-20(%rbp), %eax
	movq	%rax, %rcx
	subq	$3, %rcx
	ja	.LBB43_7
# %bb.2:                                # %if.then
	movq	.LJTI43_0(,%rax,8), %rax
	jmpq	*%rax
.LBB43_3:                               # %sw.bb
	movq	-8(%rbp), %rdi
	movq	-16(%rbp), %rdx
	addq	$528, %rdx              # imm = 0x210
	addq	$16, %rdx
	movl	$1, %esi
	callq	biari_encode_symbol
	jmp	.LBB43_7
.LBB43_4:                               # %sw.bb2
	movq	-8(%rbp), %rdi
	movq	-16(%rbp), %rdx
	addq	$528, %rdx              # imm = 0x210
	addq	$16, %rdx
	xorl	%esi, %esi
	callq	biari_encode_symbol
	movq	-8(%rbp), %rdi
	movq	-16(%rbp), %rdx
	addq	$528, %rdx              # imm = 0x210
	addq	$48, %rdx
	xorl	%esi, %esi
	callq	biari_encode_symbol
	jmp	.LBB43_7
.LBB43_5:                               # %sw.bb9
	movq	-8(%rbp), %rdi
	movq	-16(%rbp), %rdx
	addq	$528, %rdx              # imm = 0x210
	addq	$16, %rdx
	xorl	%esi, %esi
	callq	biari_encode_symbol
	movq	-8(%rbp), %rdi
	movq	-16(%rbp), %rdx
	addq	$528, %rdx              # imm = 0x210
	addq	$48, %rdx
	movl	$1, %esi
	callq	biari_encode_symbol
	movq	-8(%rbp), %rdi
	movq	-16(%rbp), %rdx
	addq	$528, %rdx              # imm = 0x210
	addq	$64, %rdx
	movl	$1, %esi
	callq	biari_encode_symbol
	jmp	.LBB43_7
.LBB43_6:                               # %sw.bb19
	movq	-8(%rbp), %rdi
	movq	-16(%rbp), %rdx
	addq	$528, %rdx              # imm = 0x210
	addq	$16, %rdx
	xorl	%esi, %esi
	callq	biari_encode_symbol
	movq	-8(%rbp), %rdi
	movq	-16(%rbp), %rdx
	addq	$528, %rdx              # imm = 0x210
	addq	$48, %rdx
	movl	$1, %esi
	callq	biari_encode_symbol
	movq	-8(%rbp), %rdi
	movq	-16(%rbp), %rdx
	addq	$528, %rdx              # imm = 0x210
	addq	$64, %rdx
	xorl	%esi, %esi
	callq	biari_encode_symbol
.LBB43_7:                               # %sw.epilog
	jmp	.LBB43_39
.LBB43_8:                               # %if.else
	cmpl	$0, -20(%rbp)
	jne	.LBB43_10
# %bb.9:                                # %if.then31
	movq	-8(%rbp), %rdi
	movq	-16(%rbp), %rdx
	addq	$528, %rdx              # imm = 0x210
	addq	$144, %rdx
	xorl	%esi, %esi
	callq	biari_encode_symbol
	jmp	.LBB43_39
.LBB43_10:                              # %if.else35
	movq	-8(%rbp), %rdi
	movq	-16(%rbp), %rdx
	addq	$528, %rdx              # imm = 0x210
	addq	$144, %rdx
	movl	$1, %esi
	callq	biari_encode_symbol
	movl	-20(%rbp), %eax
	addl	$-1, %eax
	movl	%eax, -20(%rbp)
# %bb.11:                               # %if.end
	cmpl	$2, -20(%rbp)
	jge	.LBB43_16
# %bb.12:                               # %if.then41
	movq	-8(%rbp), %rdi
	movq	-16(%rbp), %rdx
	addq	$528, %rdx              # imm = 0x210
	addq	$144, %rdx
	addq	$16, %rdx
	xorl	%esi, %esi
	callq	biari_encode_symbol
	cmpl	$0, -20(%rbp)
	jne	.LBB43_14
# %bb.13:                               # %if.then47
	movq	-8(%rbp), %rdi
	movq	-16(%rbp), %rdx
	addq	$528, %rdx              # imm = 0x210
	addq	$144, %rdx
	addq	$48, %rdx
	xorl	%esi, %esi
	callq	biari_encode_symbol
	jmp	.LBB43_15
.LBB43_14:                              # %if.else51
	movq	-8(%rbp), %rdi
	movq	-16(%rbp), %rdx
	addq	$528, %rdx              # imm = 0x210
	addq	$144, %rdx
	addq	$48, %rdx
	movl	$1, %esi
	callq	biari_encode_symbol
.LBB43_15:                              # %if.end55
	jmp	.LBB43_38
.LBB43_16:                              # %if.else56
	cmpl	$6, -20(%rbp)
	jge	.LBB43_24
# %bb.17:                               # %if.then59
	movq	-8(%rbp), %rdi
	movq	-16(%rbp), %rdx
	addq	$528, %rdx              # imm = 0x210
	addq	$144, %rdx
	addq	$16, %rdx
	movl	$1, %esi
	callq	biari_encode_symbol
	movq	-8(%rbp), %rdi
	movq	-16(%rbp), %rdx
	addq	$528, %rdx              # imm = 0x210
	addq	$144, %rdx
	addq	$32, %rdx
	xorl	%esi, %esi
	callq	biari_encode_symbol
	movl	-20(%rbp), %eax
	subl	$2, %eax
	sarl	$1, %eax
	andl	$1, %eax
	movl	%eax, -24(%rbp)
	cmpl	$0, -24(%rbp)
	je	.LBB43_19
# %bb.18:                               # %if.then67
	movq	-8(%rbp), %rdi
	movq	-16(%rbp), %rdx
	addq	$528, %rdx              # imm = 0x210
	addq	$144, %rdx
	addq	$48, %rdx
	movl	$1, %esi
	callq	biari_encode_symbol
	jmp	.LBB43_20
.LBB43_19:                              # %if.else71
	movq	-8(%rbp), %rdi
	movq	-16(%rbp), %rdx
	addq	$528, %rdx              # imm = 0x210
	addq	$144, %rdx
	addq	$48, %rdx
	xorl	%esi, %esi
	callq	biari_encode_symbol
.LBB43_20:                              # %if.end75
	movl	-20(%rbp), %eax
	subl	$2, %eax
	andl	$1, %eax
	movl	%eax, -24(%rbp)
	cmpl	$0, -24(%rbp)
	je	.LBB43_22
# %bb.21:                               # %if.then79
	movq	-8(%rbp), %rdi
	movq	-16(%rbp), %rdx
	addq	$528, %rdx              # imm = 0x210
	addq	$144, %rdx
	addq	$48, %rdx
	movl	$1, %esi
	callq	biari_encode_symbol
	jmp	.LBB43_23
.LBB43_22:                              # %if.else83
	movq	-8(%rbp), %rdi
	movq	-16(%rbp), %rdx
	addq	$528, %rdx              # imm = 0x210
	addq	$144, %rdx
	addq	$48, %rdx
	xorl	%esi, %esi
	callq	biari_encode_symbol
.LBB43_23:                              # %if.end87
	jmp	.LBB43_37
.LBB43_24:                              # %if.else88
	movq	-8(%rbp), %rdi
	movq	-16(%rbp), %rdx
	addq	$528, %rdx              # imm = 0x210
	addq	$144, %rdx
	addq	$16, %rdx
	movl	$1, %esi
	callq	biari_encode_symbol
	movq	-8(%rbp), %rdi
	movq	-16(%rbp), %rdx
	addq	$528, %rdx              # imm = 0x210
	addq	$144, %rdx
	addq	$32, %rdx
	movl	$1, %esi
	callq	biari_encode_symbol
	movl	-20(%rbp), %eax
	subl	$6, %eax
	sarl	$2, %eax
	andl	$1, %eax
	movl	%eax, -24(%rbp)
	cmpl	$0, -24(%rbp)
	je	.LBB43_29
# %bb.25:                               # %if.then99
	movq	-8(%rbp), %rdi
	movq	-16(%rbp), %rdx
	addq	$528, %rdx              # imm = 0x210
	addq	$144, %rdx
	addq	$48, %rdx
	movl	$1, %esi
	callq	biari_encode_symbol
	movl	-20(%rbp), %eax
	subl	$6, %eax
	andl	$1, %eax
	movl	%eax, -24(%rbp)
	cmpl	$0, -24(%rbp)
	je	.LBB43_27
# %bb.26:                               # %if.then106
	movq	-8(%rbp), %rdi
	movq	-16(%rbp), %rdx
	addq	$528, %rdx              # imm = 0x210
	addq	$144, %rdx
	addq	$48, %rdx
	movl	$1, %esi
	callq	biari_encode_symbol
	jmp	.LBB43_28
.LBB43_27:                              # %if.else110
	movq	-8(%rbp), %rdi
	movq	-16(%rbp), %rdx
	addq	$528, %rdx              # imm = 0x210
	addq	$144, %rdx
	addq	$48, %rdx
	xorl	%esi, %esi
	callq	biari_encode_symbol
.LBB43_28:                              # %if.end114
	jmp	.LBB43_36
.LBB43_29:                              # %if.else115
	movq	-8(%rbp), %rdi
	movq	-16(%rbp), %rdx
	addq	$528, %rdx              # imm = 0x210
	addq	$144, %rdx
	addq	$48, %rdx
	xorl	%esi, %esi
	callq	biari_encode_symbol
	movl	-20(%rbp), %eax
	subl	$6, %eax
	sarl	$1, %eax
	andl	$1, %eax
	movl	%eax, -24(%rbp)
	cmpl	$0, -24(%rbp)
	je	.LBB43_31
# %bb.30:                               # %if.then123
	movq	-8(%rbp), %rdi
	movq	-16(%rbp), %rdx
	addq	$528, %rdx              # imm = 0x210
	addq	$144, %rdx
	addq	$48, %rdx
	movl	$1, %esi
	callq	biari_encode_symbol
	jmp	.LBB43_32
.LBB43_31:                              # %if.else127
	movq	-8(%rbp), %rdi
	movq	-16(%rbp), %rdx
	addq	$528, %rdx              # imm = 0x210
	addq	$144, %rdx
	addq	$48, %rdx
	xorl	%esi, %esi
	callq	biari_encode_symbol
.LBB43_32:                              # %if.end131
	movl	-20(%rbp), %eax
	subl	$6, %eax
	andl	$1, %eax
	movl	%eax, -24(%rbp)
	cmpl	$0, -24(%rbp)
	je	.LBB43_34
# %bb.33:                               # %if.then135
	movq	-8(%rbp), %rdi
	movq	-16(%rbp), %rdx
	addq	$528, %rdx              # imm = 0x210
	addq	$144, %rdx
	addq	$48, %rdx
	movl	$1, %esi
	callq	biari_encode_symbol
	jmp	.LBB43_35
.LBB43_34:                              # %if.else139
	movq	-8(%rbp), %rdi
	movq	-16(%rbp), %rdx
	addq	$528, %rdx              # imm = 0x210
	addq	$144, %rdx
	addq	$48, %rdx
	xorl	%esi, %esi
	callq	biari_encode_symbol
.LBB43_35:                              # %if.end143
	jmp	.LBB43_36
.LBB43_36:                              # %if.end144
	jmp	.LBB43_37
.LBB43_37:                              # %if.end145
	jmp	.LBB43_38
.LBB43_38:                              # %if.end146
	jmp	.LBB43_39
.LBB43_39:                              # %if.end147
	cmpl	$423928698, -32(%rbp)   # imm = 0x1944A37A
	jne	.LBB43_41
.LBB43_40:
	addq	$48, %rsp
	popq	%rbp
	.cfi_def_cfa %rsp, 8
	retq
.LBB43_41:                              # %func_exit
	.cfi_def_cfa %rbp, 16
	callq	detect_breach
	jmp	.LBB43_40
.Lfunc_end43:
	.size	writeB8_typeInfo_CABAC.16, .Lfunc_end43-writeB8_typeInfo_CABAC.16
	.cfi_endproc
	.section	.rodata,"a",@progbits
	.p2align	3
.LJTI43_0:
	.quad	.LBB43_3
	.quad	.LBB43_4
	.quad	.LBB43_5
	.quad	.LBB43_6
                                        # -- End function
	.text
	.globl	write_significance_map.17 # -- Begin function write_significance_map.17
	.p2align	4, 0x90
	.type	write_significance_map.17,@function
write_significance_map.17:              # @write_significance_map.17
	.cfi_startproc
# %bb.0:                                # %entry
	pushq	%rbp
	.cfi_def_cfa_offset 16
	.cfi_offset %rbp, -16
	movq	%rsp, %rbp
	.cfi_def_cfa_register %rbp
	subq	$80, %rsp
	movl	$218402877, -52(%rbp)   # imm = 0xD04903D
	movq	%rdi, -72(%rbp)
	movq	%rsi, -40(%rbp)
	movl	%edx, -8(%rbp)
	movq	%rcx, -48(%rbp)
	movl	%r8d, -24(%rbp)
	movl	$0, -16(%rbp)
	movslq	-8(%rbp), %rax
	movl	maxpos(,%rax,4), %eax
	subl	$1, %eax
	movl	%eax, -20(%rbp)
	movq	img, %rax
	cmpl	$0, 28(%rax)
	movb	$1, %al
	jne	.LBB44_2
# %bb.1:                                # %lor.rhs
	movq	-72(%rbp), %rax
	cmpl	$0, 532(%rax)
	setne	%al
.LBB44_2:                               # %lor.end
	andb	$1, %al
	movzbl	%al, %eax
	movl	%eax, -28(%rbp)
	cmpl	$0, -28(%rbp)
	je	.LBB44_4
# %bb.3:                                # %cond.true
	movq	img, %rax
	movq	14160(%rax), %rax
	movq	40(%rax), %rax
	addq	$7328, %rax             # imm = 0x1CA0
	movslq	-8(%rbp), %rcx
	movslq	type2ctx_map(,%rcx,4), %rcx
	imulq	$240, %rcx, %rcx
	addq	%rcx, %rax
	jmp	.LBB44_5
.LBB44_4:                               # %cond.false
	movq	img, %rax
	movq	14160(%rax), %rax
	movq	40(%rax), %rax
	addq	$928, %rax              # imm = 0x3A0
	movslq	-8(%rbp), %rcx
	movslq	type2ctx_map(,%rcx,4), %rcx
	imulq	$240, %rcx, %rcx
	addq	%rcx, %rax
.LBB44_5:                               # %cond.end
	movq	%rax, -64(%rbp)
	cmpl	$0, -28(%rbp)
	je	.LBB44_7
# %bb.6:                                # %cond.true14
	movq	img, %rax
	movq	14160(%rax), %rax
	movq	40(%rax), %rax
	addq	$9728, %rax             # imm = 0x2600
	movslq	-8(%rbp), %rcx
	movslq	type2ctx_last(,%rcx,4), %rcx
	imulq	$240, %rcx, %rcx
	addq	%rcx, %rax
	jmp	.LBB44_8
.LBB44_7:                               # %cond.false22
	movq	img, %rax
	movq	14160(%rax), %rax
	movq	40(%rax), %rax
	addq	$3328, %rax             # imm = 0xD00
	movslq	-8(%rbp), %rcx
	movslq	type2ctx_last(,%rcx,4), %rcx
	imulq	$240, %rcx, %rcx
	addq	%rcx, %rax
.LBB44_8:                               # %cond.end30
	movq	%rax, -80(%rbp)
	movslq	-8(%rbp), %rax
	cmpl	$0, c1isdc(,%rax,4)
	jne	.LBB44_10
# %bb.9:                                # %if.then
	movl	-16(%rbp), %eax
	addl	$1, %eax
	movl	%eax, -16(%rbp)
	movl	-20(%rbp), %eax
	addl	$1, %eax
	movl	%eax, -20(%rbp)
	movq	-48(%rbp), %rax
	addq	$-4, %rax
	movq	%rax, -48(%rbp)
.LBB44_10:                              # %if.end
	movl	-16(%rbp), %eax
	movw	%ax, -2(%rbp)
.LBB44_11:                              # %for.cond
                                        # =>This Inner Loop Header: Depth=1
	movswl	-2(%rbp), %eax
	cmpl	-20(%rbp), %eax
	jge	.LBB44_22
# %bb.12:                               # %for.body
                                        #   in Loop: Header=BB44_11 Depth=1
	xorl	%eax, %eax
	movq	-48(%rbp), %rcx
	movswq	-2(%rbp), %rdx
	movl	(%rcx,%rdx,4), %ecx
	cmpl	$0, %ecx
	movl	$1, %ecx
	cmovnel	%ecx, %eax
	movw	%ax, -10(%rbp)
	movq	img, %rax
	cmpl	$0, 28(%rax)
	jne	.LBB44_14
# %bb.13:                               # %lor.lhs.false
                                        #   in Loop: Header=BB44_11 Depth=1
	movq	-72(%rbp), %rax
	cmpl	$0, 532(%rax)
	je	.LBB44_15
.LBB44_14:                              # %if.then50
                                        #   in Loop: Header=BB44_11 Depth=1
	movq	-40(%rbp), %rdi
	movw	-10(%rbp), %ax
	movq	-64(%rbp), %rdx
	movslq	-8(%rbp), %rcx
	movq	pos2ctx_map_int(,%rcx,8), %rcx
	movswq	-2(%rbp), %rsi
	movslq	(%rcx,%rsi,4), %rcx
	shlq	$4, %rcx
	addq	%rcx, %rdx
	movswl	%ax, %esi
	callq	biari_encode_symbol
	jmp	.LBB44_16
.LBB44_15:                              # %if.else
                                        #   in Loop: Header=BB44_11 Depth=1
	movq	-40(%rbp), %rdi
	movw	-10(%rbp), %ax
	movq	-64(%rbp), %rdx
	movslq	-8(%rbp), %rcx
	movq	pos2ctx_map(,%rcx,8), %rcx
	movswq	-2(%rbp), %rsi
	movslq	(%rcx,%rsi,4), %rcx
	shlq	$4, %rcx
	addq	%rcx, %rdx
	movswl	%ax, %esi
	callq	biari_encode_symbol
.LBB44_16:                              # %if.end61
                                        #   in Loop: Header=BB44_11 Depth=1
	cmpw	$0, -10(%rbp)
	je	.LBB44_20
# %bb.17:                               # %if.then63
                                        #   in Loop: Header=BB44_11 Depth=1
	xorl	%eax, %eax
	movl	-24(%rbp), %ecx
	addl	$-1, %ecx
	movl	%ecx, -24(%rbp)
	cmpl	$0, %ecx
	movl	$1, %ecx
	cmovel	%ecx, %eax
	movw	%ax, -12(%rbp)
	movq	-40(%rbp), %rdi
	movw	-12(%rbp), %ax
	movq	-80(%rbp), %rdx
	movslq	-8(%rbp), %rcx
	movq	pos2ctx_last(,%rcx,8), %rcx
	movswq	-2(%rbp), %rsi
	movslq	(%rcx,%rsi,4), %rcx
	shlq	$4, %rcx
	addq	%rcx, %rdx
	movswl	%ax, %esi
	callq	biari_encode_symbol
	cmpw	$0, -12(%rbp)
	je	.LBB44_19
# %bb.18:                               # %if.then75
	jmp	.LBB44_23
.LBB44_19:                              # %if.end76
                                        #   in Loop: Header=BB44_11 Depth=1
	jmp	.LBB44_20
.LBB44_20:                              # %if.end77
                                        #   in Loop: Header=BB44_11 Depth=1
	jmp	.LBB44_21
.LBB44_21:                              # %for.inc
                                        #   in Loop: Header=BB44_11 Depth=1
	movw	-2(%rbp), %ax
	addw	$1, %ax
	movw	%ax, -2(%rbp)
	jmp	.LBB44_11
.LBB44_22:                              # %for.end.loopexit
	jmp	.LBB44_23
.LBB44_23:                              # %for.end
	cmpl	$218402877, -52(%rbp)   # imm = 0xD04903D
	jne	.LBB44_25
.LBB44_24:
	addq	$80, %rsp
	popq	%rbp
	.cfi_def_cfa %rsp, 8
	retq
.LBB44_25:                              # %func_exit
	.cfi_def_cfa %rbp, 16
	callq	detect_breach
	jmp	.LBB44_24
.Lfunc_end44:
	.size	write_significance_map.17, .Lfunc_end44-write_significance_map.17
	.cfi_endproc
                                        # -- End function
	.globl	writeMB_typeInfo_CABAC.18 # -- Begin function writeMB_typeInfo_CABAC.18
	.p2align	4, 0x90
	.type	writeMB_typeInfo_CABAC.18,@function
writeMB_typeInfo_CABAC.18:              # @writeMB_typeInfo_CABAC.18
	.cfi_startproc
# %bb.0:                                # %entry
	pushq	%rbp
	.cfi_def_cfa_offset 16
	.cfi_offset %rbp, -16
	movq	%rsp, %rbp
	.cfi_def_cfa_register %rbp
	subq	$96, %rsp
	movl	$481936122, -84(%rbp)   # imm = 0x1CB9C2FA
	movq	%rdi, -80(%rbp)
	movq	%rsi, -16(%rbp)
	movl	$0, -20(%rbp)
	movq	img, %rax
	cmpl	$1, 24(%rax)
	sete	%al
	andb	$1, %al
	movzbl	%al, %eax
	movl	%eax, -64(%rbp)
	movl	$0, -36(%rbp)
	movq	img, %rax
	movq	14160(%rax), %rax
	movq	32(%rax), %rax
	movq	%rax, -32(%rbp)
	movq	img, %rax
	movq	14168(%rax), %rax
	movq	img, %rcx
	movslq	12(%rcx), %rcx
	imulq	$632, %rcx, %rcx        # imm = 0x278
	addq	%rcx, %rax
	movq	%rax, -56(%rbp)
	movq	-80(%rbp), %rax
	movl	4(%rax), %eax
	movl	%eax, -68(%rbp)
	movq	img, %rax
	cmpl	$2, 24(%rax)
	jne	.LBB45_24
# %bb.1:                                # %if.then
	movq	-56(%rbp), %rax
	cmpq	$0, 56(%rax)
	jne	.LBB45_3
# %bb.2:                                # %if.then6
	movl	$0, -48(%rbp)
	jmp	.LBB45_6
.LBB45_3:                               # %if.else
	xorl	%eax, %eax
	movq	-56(%rbp), %rcx
	movq	56(%rcx), %rcx
	cmpl	$9, 72(%rcx)
	je	.LBB45_5
# %bb.4:                                # %land.rhs
	movq	-56(%rbp), %rax
	movq	56(%rax), %rax
	cmpl	$13, 72(%rax)
	setne	%al
.LBB45_5:                               # %land.end
	xorl	%ecx, %ecx
	testb	$1, %al
	movl	$1, %eax
	cmovnel	%eax, %ecx
	movl	%ecx, -48(%rbp)
.LBB45_6:                               # %if.end
	movq	-56(%rbp), %rax
	cmpq	$0, 64(%rax)
	jne	.LBB45_8
# %bb.7:                                # %if.then16
	movl	$0, -44(%rbp)
	jmp	.LBB45_11
.LBB45_8:                               # %if.else17
	xorl	%eax, %eax
	movq	-56(%rbp), %rcx
	movq	64(%rcx), %rcx
	cmpl	$9, 72(%rcx)
	je	.LBB45_10
# %bb.9:                                # %land.rhs22
	movq	-56(%rbp), %rax
	movq	64(%rax), %rax
	cmpl	$13, 72(%rax)
	setne	%al
.LBB45_10:                              # %land.end27
	xorl	%ecx, %ecx
	testb	$1, %al
	movl	$1, %eax
	cmovnel	%eax, %ecx
	movl	%ecx, -44(%rbp)
.LBB45_11:                              # %if.end29
	movl	-44(%rbp), %eax
	addl	-48(%rbp), %eax
	movl	%eax, -20(%rbp)
	movl	-68(%rbp), %eax
	movl	%eax, -4(%rbp)
	movl	-20(%rbp), %eax
	movq	-80(%rbp), %rcx
	movl	%eax, 24(%rcx)
	cmpl	$0, -4(%rbp)
	jne	.LBB45_13
# %bb.12:                               # %if.then32
	movq	-16(%rbp), %rdi
	movq	-32(%rbp), %rdx
	movslq	-20(%rbp), %rax
	shlq	$4, %rax
	addq	%rax, %rdx
	xorl	%esi, %esi
	callq	biari_encode_symbol
	jmp	.LBB45_23
.LBB45_13:                              # %if.else34
	cmpl	$25, -4(%rbp)
	jne	.LBB45_15
# %bb.14:                               # %if.then37
	movq	-16(%rbp), %rdi
	movq	-32(%rbp), %rdx
	movslq	-20(%rbp), %rax
	shlq	$4, %rax
	addq	%rax, %rdx
	movl	$1, %esi
	callq	biari_encode_symbol
	movq	-16(%rbp), %rdi
	movl	$1, %esi
	callq	biari_encode_symbol_final
	jmp	.LBB45_22
.LBB45_15:                              # %if.else43
	movq	-16(%rbp), %rdi
	movq	-32(%rbp), %rdx
	movslq	-20(%rbp), %rax
	shlq	$4, %rax
	addq	%rax, %rdx
	movl	$1, %esi
	callq	biari_encode_symbol
	movq	-16(%rbp), %rdi
	xorl	%esi, %esi
	callq	biari_encode_symbol_final
	movl	-4(%rbp), %eax
	subl	$1, %eax
	movl	%eax, -36(%rbp)
	movl	$4, -20(%rbp)
	movl	-36(%rbp), %eax
	cltd
	movl	$12, %ecx
	idivl	%ecx
	movl	%eax, -4(%rbp)
	movq	-16(%rbp), %rdi
	movl	-4(%rbp), %eax
	movzbl	%al, %eax
	movq	-32(%rbp), %rdx
	movslq	-20(%rbp), %rcx
	shlq	$4, %rcx
	addq	%rcx, %rdx
	movswl	%ax, %esi
	callq	biari_encode_symbol
	movl	-36(%rbp), %eax
	cltd
	movl	$12, %ecx
	idivl	%ecx
	movl	%edx, -36(%rbp)
	movl	-36(%rbp), %eax
	cltd
	movl	$4, %ecx
	idivl	%ecx
	movl	%eax, -4(%rbp)
	movl	$5, -20(%rbp)
	cmpl	$0, -4(%rbp)
	jne	.LBB45_17
# %bb.16:                               # %if.then59
	movq	-16(%rbp), %rdi
	movq	-32(%rbp), %rdx
	movslq	-20(%rbp), %rax
	shlq	$4, %rax
	addq	%rax, %rdx
	xorl	%esi, %esi
	callq	biari_encode_symbol
	jmp	.LBB45_21
.LBB45_17:                              # %if.else65
	movq	-16(%rbp), %rdi
	movq	-32(%rbp), %rdx
	movslq	-20(%rbp), %rax
	shlq	$4, %rax
	addq	%rax, %rdx
	movl	$1, %esi
	callq	biari_encode_symbol
	movl	$6, -20(%rbp)
	cmpl	$1, -4(%rbp)
	jne	.LBB45_19
# %bb.18:                               # %if.then73
	movq	-16(%rbp), %rdi
	movq	-32(%rbp), %rdx
	movslq	-20(%rbp), %rax
	shlq	$4, %rax
	addq	%rax, %rdx
	xorl	%esi, %esi
	callq	biari_encode_symbol
	jmp	.LBB45_20
.LBB45_19:                              # %if.else79
	movq	-16(%rbp), %rdi
	movq	-32(%rbp), %rdx
	movslq	-20(%rbp), %rax
	shlq	$4, %rax
	addq	%rax, %rdx
	movl	$1, %esi
	callq	biari_encode_symbol
.LBB45_20:                              # %if.end85
	jmp	.LBB45_21
.LBB45_21:                              # %if.end86
	movl	-36(%rbp), %eax
	cltd
	movl	$4, %ecx
	idivl	%ecx
	movl	%edx, -36(%rbp)
	movl	-36(%rbp), %eax
	cltd
	movl	$2, %ecx
	idivl	%ecx
	movl	%eax, -4(%rbp)
	movl	$7, -20(%rbp)
	movq	-16(%rbp), %rdi
	movl	-4(%rbp), %eax
	movzbl	%al, %eax
	movq	-32(%rbp), %rdx
	movslq	-20(%rbp), %rcx
	shlq	$4, %rcx
	addq	%rcx, %rdx
	movswl	%ax, %esi
	callq	biari_encode_symbol
	movl	$8, -20(%rbp)
	movl	-36(%rbp), %eax
	cltd
	movl	$2, %ecx
	idivl	%ecx
	movl	%edx, -4(%rbp)
	movq	-16(%rbp), %rdi
	movl	-4(%rbp), %eax
	movzbl	%al, %eax
	movq	-32(%rbp), %rdx
	movslq	-20(%rbp), %rcx
	shlq	$4, %rcx
	addq	%rcx, %rdx
	movswl	%ax, %esi
	callq	biari_encode_symbol
.LBB45_22:                              # %if.end104
	jmp	.LBB45_23
.LBB45_23:                              # %if.end105
	jmp	.LBB45_102
.LBB45_24:                              # %if.else106
	cmpl	$0, -64(%rbp)
	je	.LBB45_32
# %bb.25:                               # %if.then107
	movq	-56(%rbp), %rax
	cmpq	$0, 56(%rax)
	jne	.LBB45_27
# %bb.26:                               # %if.then111
	movl	$0, -48(%rbp)
	jmp	.LBB45_28
.LBB45_27:                              # %if.else112
	xorl	%eax, %eax
	movq	-56(%rbp), %rcx
	movq	56(%rcx), %rcx
	movl	72(%rcx), %ecx
	cmpl	$0, %ecx
	movl	$1, %ecx
	cmovnel	%ecx, %eax
	movl	%eax, -48(%rbp)
.LBB45_28:                              # %if.end118
	movq	-56(%rbp), %rax
	cmpq	$0, 64(%rax)
	jne	.LBB45_30
# %bb.29:                               # %if.then122
	movl	$0, -44(%rbp)
	jmp	.LBB45_31
.LBB45_30:                              # %if.else123
	xorl	%eax, %eax
	movq	-56(%rbp), %rcx
	movq	64(%rcx), %rcx
	movl	72(%rcx), %ecx
	cmpl	$0, %ecx
	movl	$1, %ecx
	cmovnel	%ecx, %eax
	movl	%eax, -44(%rbp)
.LBB45_31:                              # %if.end129
	movl	-44(%rbp), %eax
	addl	-48(%rbp), %eax
	movl	%eax, -20(%rbp)
	movl	-20(%rbp), %eax
	movq	-80(%rbp), %rcx
	movl	%eax, 24(%rcx)
.LBB45_32:                              # %if.end132
	movl	-68(%rbp), %eax
	movl	%eax, -4(%rbp)
	movl	-4(%rbp), %eax
	movl	-64(%rbp), %ecx
	cmpl	$0, %ecx
	movl	$24, %ecx
	movl	$7, %edx
	cmovnel	%ecx, %edx
	movl	%edx, -60(%rbp)
	cmpl	%edx, %eax
	jl	.LBB45_34
# %bb.33:                               # %if.then137
	movl	-4(%rbp), %eax
	subl	-60(%rbp), %eax
	movl	%eax, -36(%rbp)
	movl	-60(%rbp), %eax
	movl	%eax, -4(%rbp)
.LBB45_34:                              # %if.end139
	cmpl	$0, -64(%rbp)
	jne	.LBB45_46
# %bb.35:                               # %if.then141
	movl	-4(%rbp), %eax
	movq	%rax, %rcx
	subq	$7, %rcx
	ja	.LBB45_44
# %bb.36:                               # %if.then141
	movq	.LJTI45_0(,%rax,8), %rax
	jmpq	*%rax
.LBB45_37:                              # %sw.bb
	jmp	.LBB45_45
.LBB45_38:                              # %sw.bb142
	movq	-16(%rbp), %rdi
	movq	-32(%rbp), %rdx
	addq	$176, %rdx
	addq	$64, %rdx
	xorl	%esi, %esi
	callq	biari_encode_symbol
	movq	-16(%rbp), %rdi
	movq	-32(%rbp), %rdx
	addq	$176, %rdx
	addq	$80, %rdx
	xorl	%esi, %esi
	callq	biari_encode_symbol
	movq	-16(%rbp), %rdi
	movq	-32(%rbp), %rdx
	addq	$176, %rdx
	addq	$96, %rdx
	xorl	%esi, %esi
	callq	biari_encode_symbol
	jmp	.LBB45_45
.LBB45_39:                              # %sw.bb152
	movq	-16(%rbp), %rdi
	movq	-32(%rbp), %rdx
	addq	$176, %rdx
	addq	$64, %rdx
	xorl	%esi, %esi
	callq	biari_encode_symbol
	movq	-16(%rbp), %rdi
	movq	-32(%rbp), %rdx
	addq	$176, %rdx
	addq	$80, %rdx
	movl	$1, %esi
	callq	biari_encode_symbol
	movq	-16(%rbp), %rdi
	movq	-32(%rbp), %rdx
	addq	$176, %rdx
	addq	$112, %rdx
	movl	$1, %esi
	callq	biari_encode_symbol
	jmp	.LBB45_45
.LBB45_40:                              # %sw.bb162
	movq	-16(%rbp), %rdi
	movq	-32(%rbp), %rdx
	addq	$176, %rdx
	addq	$64, %rdx
	xorl	%esi, %esi
	callq	biari_encode_symbol
	movq	-16(%rbp), %rdi
	movq	-32(%rbp), %rdx
	addq	$176, %rdx
	addq	$80, %rdx
	movl	$1, %esi
	callq	biari_encode_symbol
	movq	-16(%rbp), %rdi
	movq	-32(%rbp), %rdx
	addq	$176, %rdx
	addq	$112, %rdx
	xorl	%esi, %esi
	callq	biari_encode_symbol
	jmp	.LBB45_45
.LBB45_41:                              # %sw.bb172
	movq	-16(%rbp), %rdi
	movq	-32(%rbp), %rdx
	addq	$176, %rdx
	addq	$64, %rdx
	xorl	%esi, %esi
	callq	biari_encode_symbol
	movq	-16(%rbp), %rdi
	movq	-32(%rbp), %rdx
	addq	$176, %rdx
	addq	$80, %rdx
	xorl	%esi, %esi
	callq	biari_encode_symbol
	movq	-16(%rbp), %rdi
	movq	-32(%rbp), %rdx
	addq	$176, %rdx
	addq	$96, %rdx
	movl	$1, %esi
	callq	biari_encode_symbol
	jmp	.LBB45_45
.LBB45_42:                              # %sw.bb182
	movq	-16(%rbp), %rdi
	movq	-32(%rbp), %rdx
	addq	$176, %rdx
	addq	$64, %rdx
	movl	$1, %esi
	callq	biari_encode_symbol
	movq	-16(%rbp), %rdi
	movq	-32(%rbp), %rdx
	addq	$176, %rdx
	addq	$112, %rdx
	xorl	%esi, %esi
	callq	biari_encode_symbol
	jmp	.LBB45_45
.LBB45_43:                              # %sw.bb189
	movq	-16(%rbp), %rdi
	movq	-32(%rbp), %rdx
	addq	$176, %rdx
	addq	$64, %rdx
	movl	$1, %esi
	callq	biari_encode_symbol
	movq	-16(%rbp), %rdi
	movq	-32(%rbp), %rdx
	addq	$176, %rdx
	addq	$112, %rdx
	movl	$1, %esi
	callq	biari_encode_symbol
	jmp	.LBB45_45
.LBB45_44:                              # %sw.default
	movabsq	$.L.str.2, %rdi
	movb	$0, %al
	callq	printf
	movl	$1, %edi
	callq	exit
.LBB45_45:                              # %sw.epilog
	jmp	.LBB45_91
.LBB45_46:                              # %if.else196
	cmpl	$0, -4(%rbp)
	jne	.LBB45_48
# %bb.47:                               # %if.then199
	movq	-16(%rbp), %rdi
	movq	-32(%rbp), %rdx
	addq	$352, %rdx              # imm = 0x160
	movslq	-20(%rbp), %rax
	shlq	$4, %rax
	addq	%rax, %rdx
	xorl	%esi, %esi
	callq	biari_encode_symbol
	jmp	.LBB45_90
.LBB45_48:                              # %if.else204
	cmpl	$2, -4(%rbp)
	jg	.LBB45_53
# %bb.49:                               # %if.then207
	movq	-16(%rbp), %rdi
	movq	-32(%rbp), %rdx
	addq	$352, %rdx              # imm = 0x160
	movslq	-20(%rbp), %rax
	shlq	$4, %rax
	addq	%rax, %rdx
	movl	$1, %esi
	callq	biari_encode_symbol
	movq	-16(%rbp), %rdi
	movq	-32(%rbp), %rdx
	addq	$352, %rdx              # imm = 0x160
	addq	$64, %rdx
	xorl	%esi, %esi
	callq	biari_encode_symbol
	movl	-4(%rbp), %eax
	subl	$1, %eax
	movl	%eax, -40(%rbp)
	cmpl	$0, -40(%rbp)
	je	.LBB45_51
# %bb.50:                               # %if.then217
	movq	-16(%rbp), %rdi
	movq	-32(%rbp), %rdx
	addq	$352, %rdx              # imm = 0x160
	addq	$96, %rdx
	movl	$1, %esi
	callq	biari_encode_symbol
	jmp	.LBB45_52
.LBB45_51:                              # %if.else221
	movq	-16(%rbp), %rdi
	movq	-32(%rbp), %rdx
	addq	$352, %rdx              # imm = 0x160
	addq	$96, %rdx
	xorl	%esi, %esi
	callq	biari_encode_symbol
.LBB45_52:                              # %if.end225
	jmp	.LBB45_89
.LBB45_53:                              # %if.else226
	cmpl	$10, -4(%rbp)
	jg	.LBB45_64
# %bb.54:                               # %if.then229
	movq	-16(%rbp), %rdi
	movq	-32(%rbp), %rdx
	addq	$352, %rdx              # imm = 0x160
	movslq	-20(%rbp), %rax
	shlq	$4, %rax
	addq	%rax, %rdx
	movl	$1, %esi
	callq	biari_encode_symbol
	movq	-16(%rbp), %rdi
	movq	-32(%rbp), %rdx
	addq	$352, %rdx              # imm = 0x160
	addq	$64, %rdx
	movl	$1, %esi
	callq	biari_encode_symbol
	movq	-16(%rbp), %rdi
	movq	-32(%rbp), %rdx
	addq	$352, %rdx              # imm = 0x160
	addq	$80, %rdx
	xorl	%esi, %esi
	callq	biari_encode_symbol
	movl	-4(%rbp), %eax
	subl	$3, %eax
	sarl	$2, %eax
	andl	$1, %eax
	movl	%eax, -40(%rbp)
	cmpl	$0, -40(%rbp)
	je	.LBB45_56
# %bb.55:                               # %if.then242
	movq	-16(%rbp), %rdi
	movq	-32(%rbp), %rdx
	addq	$352, %rdx              # imm = 0x160
	addq	$96, %rdx
	movl	$1, %esi
	callq	biari_encode_symbol
	jmp	.LBB45_57
.LBB45_56:                              # %if.else246
	movq	-16(%rbp), %rdi
	movq	-32(%rbp), %rdx
	addq	$352, %rdx              # imm = 0x160
	addq	$96, %rdx
	xorl	%esi, %esi
	callq	biari_encode_symbol
.LBB45_57:                              # %if.end250
	movl	-4(%rbp), %eax
	subl	$3, %eax
	sarl	$1, %eax
	andl	$1, %eax
	movl	%eax, -40(%rbp)
	cmpl	$0, -40(%rbp)
	je	.LBB45_59
# %bb.58:                               # %if.then255
	movq	-16(%rbp), %rdi
	movq	-32(%rbp), %rdx
	addq	$352, %rdx              # imm = 0x160
	addq	$96, %rdx
	movl	$1, %esi
	callq	biari_encode_symbol
	jmp	.LBB45_60
.LBB45_59:                              # %if.else259
	movq	-16(%rbp), %rdi
	movq	-32(%rbp), %rdx
	addq	$352, %rdx              # imm = 0x160
	addq	$96, %rdx
	xorl	%esi, %esi
	callq	biari_encode_symbol
.LBB45_60:                              # %if.end263
	movl	-4(%rbp), %eax
	subl	$3, %eax
	andl	$1, %eax
	movl	%eax, -40(%rbp)
	cmpl	$0, -40(%rbp)
	je	.LBB45_62
# %bb.61:                               # %if.then267
	movq	-16(%rbp), %rdi
	movq	-32(%rbp), %rdx
	addq	$352, %rdx              # imm = 0x160
	addq	$96, %rdx
	movl	$1, %esi
	callq	biari_encode_symbol
	jmp	.LBB45_63
.LBB45_62:                              # %if.else271
	movq	-16(%rbp), %rdi
	movq	-32(%rbp), %rdx
	addq	$352, %rdx              # imm = 0x160
	addq	$96, %rdx
	xorl	%esi, %esi
	callq	biari_encode_symbol
.LBB45_63:                              # %if.end275
	jmp	.LBB45_88
.LBB45_64:                              # %if.else276
	cmpl	$11, -4(%rbp)
	je	.LBB45_66
# %bb.65:                               # %lor.lhs.false
	cmpl	$22, -4(%rbp)
	jne	.LBB45_70
.LBB45_66:                              # %if.then281
	movq	-16(%rbp), %rdi
	movq	-32(%rbp), %rdx
	addq	$352, %rdx              # imm = 0x160
	movslq	-20(%rbp), %rax
	shlq	$4, %rax
	addq	%rax, %rdx
	movl	$1, %esi
	callq	biari_encode_symbol
	movq	-16(%rbp), %rdi
	movq	-32(%rbp), %rdx
	addq	$352, %rdx              # imm = 0x160
	addq	$64, %rdx
	movl	$1, %esi
	callq	biari_encode_symbol
	movq	-16(%rbp), %rdi
	movq	-32(%rbp), %rdx
	addq	$352, %rdx              # imm = 0x160
	addq	$80, %rdx
	movl	$1, %esi
	callq	biari_encode_symbol
	movq	-16(%rbp), %rdi
	movq	-32(%rbp), %rdx
	addq	$352, %rdx              # imm = 0x160
	addq	$96, %rdx
	movl	$1, %esi
	callq	biari_encode_symbol
	movq	-16(%rbp), %rdi
	movq	-32(%rbp), %rdx
	addq	$352, %rdx              # imm = 0x160
	addq	$96, %rdx
	movl	$1, %esi
	callq	biari_encode_symbol
	cmpl	$11, -4(%rbp)
	jne	.LBB45_68
# %bb.67:                               # %if.then300
	movq	-16(%rbp), %rdi
	movq	-32(%rbp), %rdx
	addq	$352, %rdx              # imm = 0x160
	addq	$96, %rdx
	xorl	%esi, %esi
	callq	biari_encode_symbol
	jmp	.LBB45_69
.LBB45_68:                              # %if.else304
	movq	-16(%rbp), %rdi
	movq	-32(%rbp), %rdx
	addq	$352, %rdx              # imm = 0x160
	addq	$96, %rdx
	movl	$1, %esi
	callq	biari_encode_symbol
.LBB45_69:                              # %if.end308
	jmp	.LBB45_87
.LBB45_70:                              # %if.else309
	cmpl	$22, -4(%rbp)
	jle	.LBB45_72
# %bb.71:                               # %if.then312
	movl	-4(%rbp), %eax
	addl	$-1, %eax
	movl	%eax, -4(%rbp)
.LBB45_72:                              # %if.end313
	movq	-16(%rbp), %rdi
	movq	-32(%rbp), %rdx
	addq	$352, %rdx              # imm = 0x160
	movslq	-20(%rbp), %rax
	shlq	$4, %rax
	addq	%rax, %rdx
	movl	$1, %esi
	callq	biari_encode_symbol
	movq	-16(%rbp), %rdi
	movq	-32(%rbp), %rdx
	addq	$352, %rdx              # imm = 0x160
	addq	$64, %rdx
	movl	$1, %esi
	callq	biari_encode_symbol
	movq	-16(%rbp), %rdi
	movq	-32(%rbp), %rdx
	addq	$352, %rdx              # imm = 0x160
	addq	$80, %rdx
	movl	$1, %esi
	callq	biari_encode_symbol
	movl	-4(%rbp), %eax
	subl	$12, %eax
	sarl	$3, %eax
	andl	$1, %eax
	movl	%eax, -40(%rbp)
	cmpl	$0, -40(%rbp)
	je	.LBB45_74
# %bb.73:                               # %if.then328
	movq	-16(%rbp), %rdi
	movq	-32(%rbp), %rdx
	addq	$352, %rdx              # imm = 0x160
	addq	$96, %rdx
	movl	$1, %esi
	callq	biari_encode_symbol
	jmp	.LBB45_75
.LBB45_74:                              # %if.else332
	movq	-16(%rbp), %rdi
	movq	-32(%rbp), %rdx
	addq	$352, %rdx              # imm = 0x160
	addq	$96, %rdx
	xorl	%esi, %esi
	callq	biari_encode_symbol
.LBB45_75:                              # %if.end336
	movl	-4(%rbp), %eax
	subl	$12, %eax
	sarl	$2, %eax
	andl	$1, %eax
	movl	%eax, -40(%rbp)
	cmpl	$0, -40(%rbp)
	je	.LBB45_77
# %bb.76:                               # %if.then341
	movq	-16(%rbp), %rdi
	movq	-32(%rbp), %rdx
	addq	$352, %rdx              # imm = 0x160
	addq	$96, %rdx
	movl	$1, %esi
	callq	biari_encode_symbol
	jmp	.LBB45_78
.LBB45_77:                              # %if.else345
	movq	-16(%rbp), %rdi
	movq	-32(%rbp), %rdx
	addq	$352, %rdx              # imm = 0x160
	addq	$96, %rdx
	xorl	%esi, %esi
	callq	biari_encode_symbol
.LBB45_78:                              # %if.end349
	movl	-4(%rbp), %eax
	subl	$12, %eax
	sarl	$1, %eax
	andl	$1, %eax
	movl	%eax, -40(%rbp)
	cmpl	$0, -40(%rbp)
	je	.LBB45_80
# %bb.79:                               # %if.then354
	movq	-16(%rbp), %rdi
	movq	-32(%rbp), %rdx
	addq	$352, %rdx              # imm = 0x160
	addq	$96, %rdx
	movl	$1, %esi
	callq	biari_encode_symbol
	jmp	.LBB45_81
.LBB45_80:                              # %if.else358
	movq	-16(%rbp), %rdi
	movq	-32(%rbp), %rdx
	addq	$352, %rdx              # imm = 0x160
	addq	$96, %rdx
	xorl	%esi, %esi
	callq	biari_encode_symbol
.LBB45_81:                              # %if.end362
	movl	-4(%rbp), %eax
	subl	$12, %eax
	andl	$1, %eax
	movl	%eax, -40(%rbp)
	cmpl	$0, -40(%rbp)
	je	.LBB45_83
# %bb.82:                               # %if.then366
	movq	-16(%rbp), %rdi
	movq	-32(%rbp), %rdx
	addq	$352, %rdx              # imm = 0x160
	addq	$96, %rdx
	movl	$1, %esi
	callq	biari_encode_symbol
	jmp	.LBB45_84
.LBB45_83:                              # %if.else370
	movq	-16(%rbp), %rdi
	movq	-32(%rbp), %rdx
	addq	$352, %rdx              # imm = 0x160
	addq	$96, %rdx
	xorl	%esi, %esi
	callq	biari_encode_symbol
.LBB45_84:                              # %if.end374
	cmpl	$22, -4(%rbp)
	jl	.LBB45_86
# %bb.85:                               # %if.then377
	movl	-4(%rbp), %eax
	addl	$1, %eax
	movl	%eax, -4(%rbp)
.LBB45_86:                              # %if.end378
	jmp	.LBB45_87
.LBB45_87:                              # %if.end379
	jmp	.LBB45_88
.LBB45_88:                              # %if.end380
	jmp	.LBB45_89
.LBB45_89:                              # %if.end381
	jmp	.LBB45_90
.LBB45_90:                              # %if.end382
	jmp	.LBB45_91
.LBB45_91:                              # %if.end383
	movl	-4(%rbp), %eax
	cmpl	-60(%rbp), %eax
	jne	.LBB45_101
# %bb.92:                               # %if.then386
	cmpl	$25, -36(%rbp)
	jne	.LBB45_94
# %bb.93:                               # %if.then389
	movq	-16(%rbp), %rdi
	movl	$1, %esi
	callq	biari_encode_symbol_final
	jmp	.LBB45_102
.LBB45_94:                              # %if.end390
	movq	-16(%rbp), %rdi
	xorl	%esi, %esi
	callq	biari_encode_symbol_final
	movl	$8, -20(%rbp)
	movl	-36(%rbp), %eax
	cltd
	movl	$12, %ecx
	idivl	%ecx
	movl	%eax, -4(%rbp)
	movq	-16(%rbp), %rdi
	movl	-4(%rbp), %eax
	movzbl	%al, %eax
	movq	-32(%rbp), %rdx
	addq	$176, %rdx
	movslq	-20(%rbp), %rcx
	shlq	$4, %rcx
	addq	%rcx, %rdx
	movswl	%ax, %esi
	callq	biari_encode_symbol
	movl	-36(%rbp), %eax
	cltd
	movl	$12, %ecx
	idivl	%ecx
	movl	%edx, -36(%rbp)
	movl	-36(%rbp), %eax
	cltd
	movl	$4, %ecx
	idivl	%ecx
	movl	%eax, -4(%rbp)
	movl	$9, -20(%rbp)
	cmpl	$0, -4(%rbp)
	jne	.LBB45_96
# %bb.95:                               # %if.then403
	movq	-16(%rbp), %rdi
	movq	-32(%rbp), %rdx
	addq	$176, %rdx
	movslq	-20(%rbp), %rax
	shlq	$4, %rax
	addq	%rax, %rdx
	xorl	%esi, %esi
	callq	biari_encode_symbol
	jmp	.LBB45_100
.LBB45_96:                              # %if.else409
	movq	-16(%rbp), %rdi
	movq	-32(%rbp), %rdx
	addq	$176, %rdx
	movslq	-20(%rbp), %rax
	shlq	$4, %rax
	addq	%rax, %rdx
	movl	$1, %esi
	callq	biari_encode_symbol
	cmpl	$1, -4(%rbp)
	jne	.LBB45_98
# %bb.97:                               # %if.then417
	movq	-16(%rbp), %rdi
	movq	-32(%rbp), %rdx
	addq	$176, %rdx
	movslq	-20(%rbp), %rax
	shlq	$4, %rax
	addq	%rax, %rdx
	xorl	%esi, %esi
	callq	biari_encode_symbol
	jmp	.LBB45_99
.LBB45_98:                              # %if.else423
	movq	-16(%rbp), %rdi
	movq	-32(%rbp), %rdx
	addq	$176, %rdx
	movslq	-20(%rbp), %rax
	shlq	$4, %rax
	addq	%rax, %rdx
	movl	$1, %esi
	callq	biari_encode_symbol
.LBB45_99:                              # %if.end429
	jmp	.LBB45_100
.LBB45_100:                             # %if.end430
	movl	-36(%rbp), %eax
	cltd
	movl	$4, %ecx
	idivl	%ecx
	movl	%edx, -36(%rbp)
	movl	$10, -20(%rbp)
	movl	-36(%rbp), %eax
	cltd
	movl	$2, %ecx
	idivl	%ecx
	movl	%eax, -4(%rbp)
	movq	-16(%rbp), %rdi
	movl	-4(%rbp), %eax
	movzbl	%al, %eax
	movq	-32(%rbp), %rdx
	addq	$176, %rdx
	movslq	-20(%rbp), %rcx
	shlq	$4, %rcx
	addq	%rcx, %rdx
	movswl	%ax, %esi
	callq	biari_encode_symbol
	movl	-36(%rbp), %eax
	cltd
	movl	$2, %ecx
	idivl	%ecx
	movl	%edx, -4(%rbp)
	movq	-16(%rbp), %rdi
	movl	-4(%rbp), %eax
	movzbl	%al, %eax
	movq	-32(%rbp), %rdx
	addq	$176, %rdx
	movslq	-20(%rbp), %rcx
	shlq	$4, %rcx
	addq	%rcx, %rdx
	movswl	%ax, %esi
	callq	biari_encode_symbol
.LBB45_101:                             # %if.end448
	jmp	.LBB45_102
.LBB45_102:                             # %if.end449
	cmpl	$481936122, -84(%rbp)   # imm = 0x1CB9C2FA
	jne	.LBB45_104
.LBB45_103:
	addq	$96, %rsp
	popq	%rbp
	.cfi_def_cfa %rsp, 8
	retq
.LBB45_104:                             # %func_exit
	.cfi_def_cfa %rbp, 16
	callq	detect_breach
	jmp	.LBB45_103
.Lfunc_end45:
	.size	writeMB_typeInfo_CABAC.18, .Lfunc_end45-writeMB_typeInfo_CABAC.18
	.cfi_endproc
	.section	.rodata,"a",@progbits
	.p2align	3
.LJTI45_0:
	.quad	.LBB45_37
	.quad	.LBB45_38
	.quad	.LBB45_39
	.quad	.LBB45_40
	.quad	.LBB45_41
	.quad	.LBB45_41
	.quad	.LBB45_42
	.quad	.LBB45_43
                                        # -- End function
	.text
	.globl	unary_exp_golomb_level_encode.19 # -- Begin function unary_exp_golomb_level_encode.19
	.p2align	4, 0x90
	.type	unary_exp_golomb_level_encode.19,@function
unary_exp_golomb_level_encode.19:       # @unary_exp_golomb_level_encode.19
	.cfi_startproc
# %bb.0:                                # %entry
	pushq	%rbp
	.cfi_def_cfa_offset 16
	.cfi_offset %rbp, -16
	movq	%rsp, %rbp
	.cfi_def_cfa_register %rbp
	subq	$48, %rsp
	movl	$1551750341, -36(%rbp)  # imm = 0x5C7DD4C5
	movq	%rdi, -16(%rbp)
	movl	%esi, -4(%rbp)
	movq	%rdx, -32(%rbp)
	movl	$13, -8(%rbp)
	cmpl	$0, -4(%rbp)
	jne	.LBB46_2
# %bb.1:                                # %if.then
	movq	-16(%rbp), %rdi
	movq	-32(%rbp), %rdx
	xorl	%esi, %esi
	callq	biari_encode_symbol
	jmp	.LBB46_12
.LBB46_2:                               # %if.else
	movq	-16(%rbp), %rdi
	movq	-32(%rbp), %rdx
	movl	$1, %esi
	callq	biari_encode_symbol
	movl	-4(%rbp), %eax
	movl	%eax, -24(%rbp)
	movl	$1, -20(%rbp)
.LBB46_3:                               # %while.cond
                                        # =>This Inner Loop Header: Depth=1
	xorl	%eax, %eax
	movl	-24(%rbp), %ecx
	addl	$-1, %ecx
	movl	%ecx, -24(%rbp)
	cmpl	$0, %ecx
	jbe	.LBB46_5
# %bb.4:                                # %land.rhs
                                        #   in Loop: Header=BB46_3 Depth=1
	movl	-20(%rbp), %eax
	addl	$1, %eax
	movl	%eax, -20(%rbp)
	cmpl	-8(%rbp), %eax
	setbe	%al
.LBB46_5:                               # %land.end
                                        #   in Loop: Header=BB46_3 Depth=1
	testb	$1, %al
	jne	.LBB46_6
	jmp	.LBB46_7
.LBB46_6:                               # %while.body
                                        #   in Loop: Header=BB46_3 Depth=1
	movq	-16(%rbp), %rdi
	movq	-32(%rbp), %rdx
	movl	$1, %esi
	callq	biari_encode_symbol
	jmp	.LBB46_3
.LBB46_7:                               # %while.end
	movl	-4(%rbp), %eax
	cmpl	-8(%rbp), %eax
	jae	.LBB46_9
# %bb.8:                                # %if.then4
	movq	-16(%rbp), %rdi
	movq	-32(%rbp), %rdx
	xorl	%esi, %esi
	callq	biari_encode_symbol
	jmp	.LBB46_10
.LBB46_9:                               # %if.else5
	movq	-16(%rbp), %rdi
	movl	-4(%rbp), %esi
	subl	-8(%rbp), %esi
	xorl	%edx, %edx
	callq	exp_golomb_encode_eq_prob
.LBB46_10:                              # %if.end
	jmp	.LBB46_11
.LBB46_11:                              # %if.end6
	jmp	.LBB46_12
.LBB46_12:                              # %return
	cmpl	$1551750341, -36(%rbp)  # imm = 0x5C7DD4C5
	jne	.LBB46_14
.LBB46_13:
	addq	$48, %rsp
	popq	%rbp
	.cfi_def_cfa %rsp, 8
	retq
.LBB46_14:                              # %func_exit
	.cfi_def_cfa %rbp, 16
	callq	detect_breach
	jmp	.LBB46_13
.Lfunc_end46:
	.size	unary_exp_golomb_level_encode.19, .Lfunc_end46-unary_exp_golomb_level_encode.19
	.cfi_endproc
                                        # -- End function
	.globl	exp_golomb_encode_eq_prob.20 # -- Begin function exp_golomb_encode_eq_prob.20
	.p2align	4, 0x90
	.type	exp_golomb_encode_eq_prob.20,@function
exp_golomb_encode_eq_prob.20:           # @exp_golomb_encode_eq_prob.20
	.cfi_startproc
# %bb.0:                                # %entry
	pushq	%rbp
	.cfi_def_cfa_offset 16
	.cfi_offset %rbp, -16
	movq	%rsp, %rbp
	.cfi_def_cfa_register %rbp
	subq	$32, %rsp
	movl	$1828512305, -20(%rbp)  # imm = 0x6CFCE231
	movq	%rdi, -16(%rbp)
	movl	%esi, -8(%rbp)
	movl	%edx, -4(%rbp)
.LBB47_1:                               # %while.body
                                        # =>This Inner Loop Header: Depth=1
	movl	-8(%rbp), %eax
	movl	-4(%rbp), %ecx
                                        # kill: def $cl killed $ecx
	movl	$1, %edx
	shll	%cl, %edx
	cmpl	%edx, %eax
	jb	.LBB47_3
# %bb.2:                                # %if.then
                                        #   in Loop: Header=BB47_1 Depth=1
	movq	-16(%rbp), %rdi
	movl	$1, %esi
	callq	biari_encode_symbol_eq_prob
	movl	-8(%rbp), %eax
	movl	-4(%rbp), %ecx
                                        # kill: def $cl killed $ecx
	movl	$1, %edx
	shll	%cl, %edx
	subl	%edx, %eax
	movl	%eax, -8(%rbp)
	movl	-4(%rbp), %eax
	addl	$1, %eax
	movl	%eax, -4(%rbp)
	jmp	.LBB47_7
.LBB47_3:                               # %if.else
	movq	-16(%rbp), %rdi
	xorl	%esi, %esi
	callq	biari_encode_symbol_eq_prob
.LBB47_4:                               # %while.cond2
                                        # =>This Inner Loop Header: Depth=1
	movl	-4(%rbp), %eax
	movl	%eax, %ecx
	addl	$-1, %ecx
	movl	%ecx, -4(%rbp)
	cmpl	$0, %eax
	je	.LBB47_6
# %bb.5:                                # %while.body3
                                        #   in Loop: Header=BB47_4 Depth=1
	movq	-16(%rbp), %rdi
	movl	-8(%rbp), %eax
	movl	-4(%rbp), %ecx
                                        # kill: def $cl killed $ecx
	shrl	%cl, %eax
	andl	$1, %eax
	movzbl	%al, %eax
	movswl	%ax, %esi
	callq	biari_encode_symbol_eq_prob
	jmp	.LBB47_4
.LBB47_6:                               # %while.end
	jmp	.LBB47_8
.LBB47_7:                               # %if.end
                                        #   in Loop: Header=BB47_1 Depth=1
	jmp	.LBB47_1
.LBB47_8:                               # %while.end5
	cmpl	$1828512305, -20(%rbp)  # imm = 0x6CFCE231
	jne	.LBB47_10
.LBB47_9:
	addq	$32, %rsp
	popq	%rbp
	.cfi_def_cfa %rsp, 8
	retq
.LBB47_10:                              # %func_exit
	.cfi_def_cfa %rbp, 16
	callq	detect_breach
	jmp	.LBB47_9
.Lfunc_end47:
	.size	exp_golomb_encode_eq_prob.20, .Lfunc_end47-exp_golomb_encode_eq_prob.20
	.cfi_endproc
                                        # -- End function
	.globl	write_significance_map.21 # -- Begin function write_significance_map.21
	.p2align	4, 0x90
	.type	write_significance_map.21,@function
write_significance_map.21:              # @write_significance_map.21
	.cfi_startproc
# %bb.0:                                # %entry
	pushq	%rbp
	.cfi_def_cfa_offset 16
	.cfi_offset %rbp, -16
	movq	%rsp, %rbp
	.cfi_def_cfa_register %rbp
	subq	$80, %rsp
	movl	$924769473, -52(%rbp)   # imm = 0x371EDCC1
	movq	%rdi, -72(%rbp)
	movq	%rsi, -48(%rbp)
	movl	%edx, -8(%rbp)
	movq	%rcx, -40(%rbp)
	movl	%r8d, -24(%rbp)
	movl	$0, -20(%rbp)
	movslq	-8(%rbp), %rax
	movl	maxpos(,%rax,4), %eax
	subl	$1, %eax
	movl	%eax, -16(%rbp)
	movq	img, %rax
	cmpl	$0, 28(%rax)
	movb	$1, %al
	jne	.LBB48_2
# %bb.1:                                # %lor.rhs
	movq	-72(%rbp), %rax
	cmpl	$0, 532(%rax)
	setne	%al
.LBB48_2:                               # %lor.end
	andb	$1, %al
	movzbl	%al, %eax
	movl	%eax, -28(%rbp)
	cmpl	$0, -28(%rbp)
	je	.LBB48_4
# %bb.3:                                # %cond.true
	movq	img, %rax
	movq	14160(%rax), %rax
	movq	40(%rax), %rax
	addq	$7328, %rax             # imm = 0x1CA0
	movslq	-8(%rbp), %rcx
	movslq	type2ctx_map(,%rcx,4), %rcx
	imulq	$240, %rcx, %rcx
	addq	%rcx, %rax
	jmp	.LBB48_5
.LBB48_4:                               # %cond.false
	movq	img, %rax
	movq	14160(%rax), %rax
	movq	40(%rax), %rax
	addq	$928, %rax              # imm = 0x3A0
	movslq	-8(%rbp), %rcx
	movslq	type2ctx_map(,%rcx,4), %rcx
	imulq	$240, %rcx, %rcx
	addq	%rcx, %rax
.LBB48_5:                               # %cond.end
	movq	%rax, -64(%rbp)
	cmpl	$0, -28(%rbp)
	je	.LBB48_7
# %bb.6:                                # %cond.true14
	movq	img, %rax
	movq	14160(%rax), %rax
	movq	40(%rax), %rax
	addq	$9728, %rax             # imm = 0x2600
	movslq	-8(%rbp), %rcx
	movslq	type2ctx_last(,%rcx,4), %rcx
	imulq	$240, %rcx, %rcx
	addq	%rcx, %rax
	jmp	.LBB48_8
.LBB48_7:                               # %cond.false22
	movq	img, %rax
	movq	14160(%rax), %rax
	movq	40(%rax), %rax
	addq	$3328, %rax             # imm = 0xD00
	movslq	-8(%rbp), %rcx
	movslq	type2ctx_last(,%rcx,4), %rcx
	imulq	$240, %rcx, %rcx
	addq	%rcx, %rax
.LBB48_8:                               # %cond.end30
	movq	%rax, -80(%rbp)
	movslq	-8(%rbp), %rax
	cmpl	$0, c1isdc(,%rax,4)
	jne	.LBB48_10
# %bb.9:                                # %if.then
	movl	-20(%rbp), %eax
	addl	$1, %eax
	movl	%eax, -20(%rbp)
	movl	-16(%rbp), %eax
	addl	$1, %eax
	movl	%eax, -16(%rbp)
	movq	-40(%rbp), %rax
	addq	$-4, %rax
	movq	%rax, -40(%rbp)
.LBB48_10:                              # %if.end
	movl	-20(%rbp), %eax
	movw	%ax, -2(%rbp)
.LBB48_11:                              # %for.cond
                                        # =>This Inner Loop Header: Depth=1
	movswl	-2(%rbp), %eax
	cmpl	-16(%rbp), %eax
	jge	.LBB48_22
# %bb.12:                               # %for.body
                                        #   in Loop: Header=BB48_11 Depth=1
	xorl	%eax, %eax
	movq	-40(%rbp), %rcx
	movswq	-2(%rbp), %rdx
	movl	(%rcx,%rdx,4), %ecx
	cmpl	$0, %ecx
	movl	$1, %ecx
	cmovnel	%ecx, %eax
	movw	%ax, -10(%rbp)
	movq	img, %rax
	cmpl	$0, 28(%rax)
	jne	.LBB48_14
# %bb.13:                               # %lor.lhs.false
                                        #   in Loop: Header=BB48_11 Depth=1
	movq	-72(%rbp), %rax
	cmpl	$0, 532(%rax)
	je	.LBB48_15
.LBB48_14:                              # %if.then50
                                        #   in Loop: Header=BB48_11 Depth=1
	movq	-48(%rbp), %rdi
	movw	-10(%rbp), %ax
	movq	-64(%rbp), %rdx
	movslq	-8(%rbp), %rcx
	movq	pos2ctx_map_int(,%rcx,8), %rcx
	movswq	-2(%rbp), %rsi
	movslq	(%rcx,%rsi,4), %rcx
	shlq	$4, %rcx
	addq	%rcx, %rdx
	movswl	%ax, %esi
	callq	biari_encode_symbol
	jmp	.LBB48_16
.LBB48_15:                              # %if.else
                                        #   in Loop: Header=BB48_11 Depth=1
	movq	-48(%rbp), %rdi
	movw	-10(%rbp), %ax
	movq	-64(%rbp), %rdx
	movslq	-8(%rbp), %rcx
	movq	pos2ctx_map(,%rcx,8), %rcx
	movswq	-2(%rbp), %rsi
	movslq	(%rcx,%rsi,4), %rcx
	shlq	$4, %rcx
	addq	%rcx, %rdx
	movswl	%ax, %esi
	callq	biari_encode_symbol
.LBB48_16:                              # %if.end61
                                        #   in Loop: Header=BB48_11 Depth=1
	cmpw	$0, -10(%rbp)
	je	.LBB48_20
# %bb.17:                               # %if.then63
                                        #   in Loop: Header=BB48_11 Depth=1
	xorl	%eax, %eax
	movl	-24(%rbp), %ecx
	addl	$-1, %ecx
	movl	%ecx, -24(%rbp)
	cmpl	$0, %ecx
	movl	$1, %ecx
	cmovel	%ecx, %eax
	movw	%ax, -12(%rbp)
	movq	-48(%rbp), %rdi
	movw	-12(%rbp), %ax
	movq	-80(%rbp), %rdx
	movslq	-8(%rbp), %rcx
	movq	pos2ctx_last(,%rcx,8), %rcx
	movswq	-2(%rbp), %rsi
	movslq	(%rcx,%rsi,4), %rcx
	shlq	$4, %rcx
	addq	%rcx, %rdx
	movswl	%ax, %esi
	callq	biari_encode_symbol
	cmpw	$0, -12(%rbp)
	je	.LBB48_19
# %bb.18:                               # %if.then75
	jmp	.LBB48_23
.LBB48_19:                              # %if.end76
                                        #   in Loop: Header=BB48_11 Depth=1
	jmp	.LBB48_20
.LBB48_20:                              # %if.end77
                                        #   in Loop: Header=BB48_11 Depth=1
	jmp	.LBB48_21
.LBB48_21:                              # %for.inc
                                        #   in Loop: Header=BB48_11 Depth=1
	movw	-2(%rbp), %ax
	addw	$1, %ax
	movw	%ax, -2(%rbp)
	jmp	.LBB48_11
.LBB48_22:                              # %for.end.loopexit
	jmp	.LBB48_23
.LBB48_23:                              # %for.end
	cmpl	$924769473, -52(%rbp)   # imm = 0x371EDCC1
	jne	.LBB48_25
.LBB48_24:
	addq	$80, %rsp
	popq	%rbp
	.cfi_def_cfa %rsp, 8
	retq
.LBB48_25:                              # %func_exit
	.cfi_def_cfa %rbp, 16
	callq	detect_breach
	jmp	.LBB48_24
.Lfunc_end48:
	.size	write_significance_map.21, .Lfunc_end48-write_significance_map.21
	.cfi_endproc
                                        # -- End function
	.globl	writeCBP_CABAC.22       # -- Begin function writeCBP_CABAC.22
	.p2align	4, 0x90
	.type	writeCBP_CABAC.22,@function
writeCBP_CABAC.22:                      # @writeCBP_CABAC.22
	.cfi_startproc
# %bb.0:                                # %entry
	pushq	%rbp
	.cfi_def_cfa_offset 16
	.cfi_offset %rbp, -16
	movq	%rsp, %rbp
	.cfi_def_cfa_register %rbp
	subq	$64, %rsp
	movl	$1787636566, -48(%rbp)  # imm = 0x6A8D2B56
	movq	%rdi, -64(%rbp)
	movq	%rsi, -40(%rbp)
	movq	img, %rax
	movq	14160(%rax), %rax
	movq	40(%rax), %rax
	movq	%rax, -56(%rbp)
	movq	img, %rax
	movq	14168(%rax), %rax
	movq	img, %rcx
	movslq	12(%rcx), %rcx
	imulq	$632, %rcx, %rcx        # imm = 0x278
	addq	%rcx, %rax
	movq	%rax, -8(%rbp)
	movq	-64(%rbp), %rax
	movl	4(%rax), %eax
	movl	%eax, -24(%rbp)
	movl	$0, -20(%rbp)
.LBB49_1:                               # %for.cond
                                        # =>This Inner Loop Header: Depth=1
	cmpl	$4, -20(%rbp)
	jge	.LBB49_4
# %bb.2:                                # %for.body
                                        #   in Loop: Header=BB49_1 Depth=1
	xorl	%eax, %eax
	movq	-8(%rbp), %rcx
	movslq	-20(%rbp), %rdx
	movl	472(%rcx,%rdx,4), %ecx
	cmpl	$11, %ecx
	movl	$1, %edx
	movl	$1, %ecx
	cmovel	%eax, %ecx
	movl	%ecx, -44(%rbp)
	movl	-20(%rbp), %edi
	movl	-24(%rbp), %esi
	movl	-20(%rbp), %ecx
                                        # kill: def $cl killed $ecx
	shll	%cl, %edx
	andl	%edx, %esi
	movl	-24(%rbp), %edx
	movq	-8(%rbp), %rcx
	movl	-44(%rbp), %r8d
	movq	-40(%rbp), %r9
	callq	writeCBP_BIT_CABAC
# %bb.3:                                # %for.inc
                                        #   in Loop: Header=BB49_1 Depth=1
	movl	-20(%rbp), %eax
	addl	$1, %eax
	movl	%eax, -20(%rbp)
	jmp	.LBB49_1
.LBB49_4:                               # %for.end
	movq	img, %rax
	cmpl	$0, 72700(%rax)
	je	.LBB49_32
# %bb.5:                                # %if.then
	movl	$0, -12(%rbp)
	movq	-8(%rbp), %rax
	cmpq	$0, 56(%rax)
	je	.LBB49_10
# %bb.6:                                # %if.then6
	movq	-8(%rbp), %rax
	movq	56(%rax), %rax
	cmpl	$14, 72(%rax)
	jne	.LBB49_8
# %bb.7:                                # %if.then9
	movl	$1, -12(%rbp)
	jmp	.LBB49_9
.LBB49_8:                               # %if.else
	xorl	%eax, %eax
	movq	-8(%rbp), %rcx
	movq	56(%rcx), %rcx
	movl	460(%rcx), %ecx
	cmpl	$15, %ecx
	movl	$1, %ecx
	cmovgl	%ecx, %eax
	movl	%eax, -12(%rbp)
.LBB49_9:                               # %if.end
	jmp	.LBB49_10
.LBB49_10:                              # %if.end14
	movl	$0, -16(%rbp)
	movq	-8(%rbp), %rax
	cmpq	$0, 64(%rax)
	je	.LBB49_15
# %bb.11:                               # %if.then16
	movq	-8(%rbp), %rax
	movq	64(%rax), %rax
	cmpl	$14, 72(%rax)
	jne	.LBB49_13
# %bb.12:                               # %if.then20
	movl	$1, -16(%rbp)
	jmp	.LBB49_14
.LBB49_13:                              # %if.else21
	xorl	%eax, %eax
	movq	-8(%rbp), %rcx
	movq	64(%rcx), %rcx
	movl	460(%rcx), %ecx
	cmpl	$15, %ecx
	movl	$1, %ecx
	cmovgl	%ecx, %eax
	movl	%eax, -16(%rbp)
.LBB49_14:                              # %if.end26
	jmp	.LBB49_15
.LBB49_15:                              # %if.end27
	xorl	%eax, %eax
	movl	-16(%rbp), %ecx
	movl	-12(%rbp), %edx
	shll	$1, %edx
	addl	%edx, %ecx
	movl	%ecx, -28(%rbp)
	movl	-24(%rbp), %ecx
	cmpl	$15, %ecx
	movl	$1, %ecx
	cmovgl	%ecx, %eax
	movl	%eax, -32(%rbp)
	movq	-40(%rbp), %rdi
	movl	-32(%rbp), %eax
	movzbl	%al, %eax
	movq	-56(%rbp), %rdx
	addq	$96, %rdx
	addq	$64, %rdx
	movslq	-28(%rbp), %rcx
	shlq	$4, %rcx
	addq	%rcx, %rdx
	movswl	%ax, %esi
	callq	biari_encode_symbol
	cmpl	$15, -24(%rbp)
	jle	.LBB49_31
# %bb.16:                               # %if.then34
	movl	$0, -12(%rbp)
	movq	-8(%rbp), %rax
	cmpq	$0, 56(%rax)
	je	.LBB49_23
# %bb.17:                               # %if.then38
	movq	-8(%rbp), %rax
	movq	56(%rax), %rax
	cmpl	$14, 72(%rax)
	jne	.LBB49_19
# %bb.18:                               # %if.then43
	movl	$1, -12(%rbp)
	jmp	.LBB49_22
.LBB49_19:                              # %if.else44
	movq	-8(%rbp), %rax
	movq	56(%rax), %rax
	cmpl	$15, 460(%rax)
	jle	.LBB49_21
# %bb.20:                               # %if.then49
	xorl	%eax, %eax
	movq	-8(%rbp), %rcx
	movq	56(%rcx), %rcx
	movl	460(%rcx), %ecx
	sarl	$4, %ecx
	cmpl	$2, %ecx
	movl	$1, %ecx
	cmovel	%ecx, %eax
	movl	%eax, -12(%rbp)
.LBB49_21:                              # %if.end55
	jmp	.LBB49_22
.LBB49_22:                              # %if.end56
	jmp	.LBB49_23
.LBB49_23:                              # %if.end57
	movl	$0, -16(%rbp)
	movq	-8(%rbp), %rax
	cmpq	$0, 64(%rax)
	je	.LBB49_30
# %bb.24:                               # %if.then61
	movq	-8(%rbp), %rax
	movq	64(%rax), %rax
	cmpl	$14, 72(%rax)
	jne	.LBB49_26
# %bb.25:                               # %if.then66
	movl	$1, -16(%rbp)
	jmp	.LBB49_29
.LBB49_26:                              # %if.else67
	movq	-8(%rbp), %rax
	movq	64(%rax), %rax
	cmpl	$15, 460(%rax)
	jle	.LBB49_28
# %bb.27:                               # %if.then72
	xorl	%eax, %eax
	movq	-8(%rbp), %rcx
	movq	64(%rcx), %rcx
	movl	460(%rcx), %ecx
	sarl	$4, %ecx
	cmpl	$2, %ecx
	movl	$1, %ecx
	cmovel	%ecx, %eax
	movl	%eax, -16(%rbp)
.LBB49_28:                              # %if.end79
	jmp	.LBB49_29
.LBB49_29:                              # %if.end80
	jmp	.LBB49_30
.LBB49_30:                              # %if.end81
	xorl	%eax, %eax
	movl	-16(%rbp), %ecx
	movl	-12(%rbp), %edx
	shll	$1, %edx
	addl	%edx, %ecx
	movl	%ecx, -28(%rbp)
	movl	-24(%rbp), %ecx
	sarl	$4, %ecx
	cmpl	$2, %ecx
	movl	$1, %ecx
	cmovel	%ecx, %eax
	movl	%eax, -32(%rbp)
	movq	-40(%rbp), %rdi
	movl	-32(%rbp), %eax
	movzbl	%al, %eax
	movq	-56(%rbp), %rdx
	addq	$96, %rdx
	addq	$128, %rdx
	movslq	-28(%rbp), %rcx
	shlq	$4, %rcx
	addq	%rcx, %rdx
	movswl	%ax, %esi
	callq	biari_encode_symbol
.LBB49_31:                              # %if.end95
	jmp	.LBB49_32
.LBB49_32:                              # %if.end96
	cmpl	$1787636566, -48(%rbp)  # imm = 0x6A8D2B56
	jne	.LBB49_34
.LBB49_33:
	addq	$64, %rsp
	popq	%rbp
	.cfi_def_cfa %rsp, 8
	retq
.LBB49_34:                              # %func_exit
	.cfi_def_cfa %rbp, 16
	callq	detect_breach
	jmp	.LBB49_33
.Lfunc_end49:
	.size	writeCBP_CABAC.22, .Lfunc_end49-writeCBP_CABAC.22
	.cfi_endproc
                                        # -- End function
	.globl	writeDquant_CABAC.23    # -- Begin function writeDquant_CABAC.23
	.p2align	4, 0x90
	.type	writeDquant_CABAC.23,@function
writeDquant_CABAC.23:                   # @writeDquant_CABAC.23
	.cfi_startproc
# %bb.0:                                # %entry
	pushq	%rbp
	.cfi_def_cfa_offset 16
	.cfi_offset %rbp, -16
	movq	%rsp, %rbp
	.cfi_def_cfa_register %rbp
	subq	$64, %rsp
	movl	$672656708, -36(%rbp)   # imm = 0x2817ED44
	movq	%rdi, -48(%rbp)
	movq	%rsi, -32(%rbp)
	movq	img, %rax
	movq	14160(%rax), %rax
	movq	32(%rax), %rax
	movq	%rax, -24(%rbp)
	movq	-48(%rbp), %rax
	movl	4(%rax), %eax
	movl	%eax, -12(%rbp)
	movl	$0, -16(%rbp)
	movq	img, %rax
	movq	14168(%rax), %rax
	movq	img, %rcx
	movslq	12(%rcx), %rcx
	imulq	$632, %rcx, %rcx        # imm = 0x278
	addq	%rcx, %rax
	movq	%rax, -56(%rbp)
	movq	-56(%rbp), %rax
	movl	596(%rax), %eax
	movl	%eax, last_dquant
	cmpl	$0, -12(%rbp)
	jg	.LBB50_2
# %bb.1:                                # %if.then
	movl	$1, -16(%rbp)
.LBB50_2:                               # %if.end
	movl	-12(%rbp), %edi
	callq	abs
	xorl	%ecx, %ecx
	shll	$1, %eax
	movl	%eax, -4(%rbp)
	movl	-16(%rbp), %eax
	addl	-4(%rbp), %eax
	movl	%eax, -4(%rbp)
	movl	-4(%rbp), %eax
	addl	$-1, %eax
	movl	%eax, -4(%rbp)
	movl	last_dquant, %eax
	cmpl	$0, %eax
	movl	$1, %eax
	cmovnel	%eax, %ecx
	movl	%ecx, -8(%rbp)
	cmpl	$0, -4(%rbp)
	jne	.LBB50_4
# %bb.3:                                # %if.then3
	movq	-32(%rbp), %rdi
	movq	-24(%rbp), %rdx
	addq	$1328, %rdx             # imm = 0x530
	movslq	-8(%rbp), %rax
	shlq	$4, %rax
	addq	%rax, %rdx
	xorl	%esi, %esi
	callq	biari_encode_symbol
	jmp	.LBB50_5
.LBB50_4:                               # %if.else
	movq	-32(%rbp), %rdi
	movq	-24(%rbp), %rdx
	addq	$1328, %rdx             # imm = 0x530
	movslq	-8(%rbp), %rax
	shlq	$4, %rax
	addq	%rax, %rdx
	movl	$1, %esi
	callq	biari_encode_symbol
	movl	$2, -8(%rbp)
	movl	-4(%rbp), %eax
	addl	$-1, %eax
	movl	%eax, -4(%rbp)
	movq	-32(%rbp), %rdi
	movl	-4(%rbp), %esi
	movq	-24(%rbp), %rdx
	addq	$1328, %rdx             # imm = 0x530
	movslq	-8(%rbp), %rax
	shlq	$4, %rax
	addq	%rax, %rdx
	movl	$1, %ecx
	callq	unary_bin_encode
.LBB50_5:                               # %if.end13
	cmpl	$672656708, -36(%rbp)   # imm = 0x2817ED44
	jne	.LBB50_7
.LBB50_6:
	addq	$64, %rsp
	popq	%rbp
	.cfi_def_cfa %rsp, 8
	retq
.LBB50_7:                               # %func_exit
	.cfi_def_cfa %rbp, 16
	callq	detect_breach
	jmp	.LBB50_6
.Lfunc_end50:
	.size	writeDquant_CABAC.23, .Lfunc_end50-writeDquant_CABAC.23
	.cfi_endproc
                                        # -- End function
	.globl	unary_exp_golomb_mv_encode.24 # -- Begin function unary_exp_golomb_mv_encode.24
	.p2align	4, 0x90
	.type	unary_exp_golomb_mv_encode.24,@function
unary_exp_golomb_mv_encode.24:          # @unary_exp_golomb_mv_encode.24
	.cfi_startproc
# %bb.0:                                # %entry
	pushq	%rbp
	.cfi_def_cfa_offset 16
	.cfi_offset %rbp, -16
	movq	%rsp, %rbp
	.cfi_def_cfa_register %rbp
	subq	$64, %rsp
	movl	$1321832528, -44(%rbp)  # imm = 0x4EC99050
	movq	%rdi, -32(%rbp)
	movl	%esi, -12(%rbp)
	movq	%rdx, -56(%rbp)
	movl	%ecx, -48(%rbp)
	movl	$1, -16(%rbp)
	movq	-56(%rbp), %rax
	movq	%rax, -8(%rbp)
	movl	$8, -20(%rbp)
	cmpl	$0, -12(%rbp)
	jne	.LBB51_2
# %bb.1:                                # %if.then
	movq	-32(%rbp), %rdi
	movq	-8(%rbp), %rdx
	xorl	%esi, %esi
	callq	biari_encode_symbol
	jmp	.LBB51_16
.LBB51_2:                               # %if.else
	movq	-32(%rbp), %rdi
	movq	-8(%rbp), %rdx
	movl	$1, %esi
	callq	biari_encode_symbol
	movl	-12(%rbp), %eax
	movl	%eax, -40(%rbp)
	movl	$1, -36(%rbp)
	movq	-8(%rbp), %rax
	addq	$16, %rax
	movq	%rax, -8(%rbp)
.LBB51_3:                               # %while.cond
                                        # =>This Inner Loop Header: Depth=1
	xorl	%eax, %eax
	movl	-40(%rbp), %ecx
	addl	$-1, %ecx
	movl	%ecx, -40(%rbp)
	cmpl	$0, %ecx
	jbe	.LBB51_5
# %bb.4:                                # %land.rhs
                                        #   in Loop: Header=BB51_3 Depth=1
	movl	-36(%rbp), %eax
	addl	$1, %eax
	movl	%eax, -36(%rbp)
	cmpl	-20(%rbp), %eax
	setbe	%al
.LBB51_5:                               # %land.end
                                        #   in Loop: Header=BB51_3 Depth=1
	testb	$1, %al
	jne	.LBB51_6
	jmp	.LBB51_11
.LBB51_6:                               # %while.body
                                        #   in Loop: Header=BB51_3 Depth=1
	movq	-32(%rbp), %rdi
	movq	-8(%rbp), %rdx
	movl	$1, %esi
	callq	biari_encode_symbol
	movl	-16(%rbp), %eax
	addl	$1, %eax
	movl	%eax, -16(%rbp)
	cmpl	$2, %eax
	jne	.LBB51_8
# %bb.7:                                # %if.then5
                                        #   in Loop: Header=BB51_3 Depth=1
	movq	-8(%rbp), %rax
	addq	$16, %rax
	movq	%rax, -8(%rbp)
.LBB51_8:                               # %if.end
                                        #   in Loop: Header=BB51_3 Depth=1
	movl	-16(%rbp), %eax
	cmpl	-48(%rbp), %eax
	jne	.LBB51_10
# %bb.9:                                # %if.then8
                                        #   in Loop: Header=BB51_3 Depth=1
	movq	-8(%rbp), %rax
	addq	$16, %rax
	movq	%rax, -8(%rbp)
.LBB51_10:                              # %if.end10
                                        #   in Loop: Header=BB51_3 Depth=1
	jmp	.LBB51_3
.LBB51_11:                              # %while.end
	movl	-12(%rbp), %eax
	cmpl	-20(%rbp), %eax
	jae	.LBB51_13
# %bb.12:                               # %if.then12
	movq	-32(%rbp), %rdi
	movq	-8(%rbp), %rdx
	xorl	%esi, %esi
	callq	biari_encode_symbol
	jmp	.LBB51_14
.LBB51_13:                              # %if.else13
	movq	-32(%rbp), %rdi
	movl	-12(%rbp), %esi
	subl	-20(%rbp), %esi
	movl	$3, %edx
	callq	exp_golomb_encode_eq_prob
.LBB51_14:                              # %if.end14
	jmp	.LBB51_15
.LBB51_15:                              # %if.end15
	jmp	.LBB51_16
.LBB51_16:                              # %return
	cmpl	$1321832528, -44(%rbp)  # imm = 0x4EC99050
	jne	.LBB51_18
.LBB51_17:
	addq	$64, %rsp
	popq	%rbp
	.cfi_def_cfa %rsp, 8
	retq
.LBB51_18:                              # %func_exit
	.cfi_def_cfa %rbp, 16
	callq	detect_breach
	jmp	.LBB51_17
.Lfunc_end51:
	.size	unary_exp_golomb_mv_encode.24, .Lfunc_end51-unary_exp_golomb_mv_encode.24
	.cfi_endproc
                                        # -- End function
	.globl	writeDquant_CABAC.25    # -- Begin function writeDquant_CABAC.25
	.p2align	4, 0x90
	.type	writeDquant_CABAC.25,@function
writeDquant_CABAC.25:                   # @writeDquant_CABAC.25
	.cfi_startproc
# %bb.0:                                # %entry
	pushq	%rbp
	.cfi_def_cfa_offset 16
	.cfi_offset %rbp, -16
	movq	%rsp, %rbp
	.cfi_def_cfa_register %rbp
	subq	$64, %rsp
	movl	$996779979, -36(%rbp)   # imm = 0x3B69A7CB
	movq	%rdi, -48(%rbp)
	movq	%rsi, -32(%rbp)
	movq	img, %rax
	movq	14160(%rax), %rax
	movq	32(%rax), %rax
	movq	%rax, -24(%rbp)
	movq	-48(%rbp), %rax
	movl	4(%rax), %eax
	movl	%eax, -12(%rbp)
	movl	$0, -16(%rbp)
	movq	img, %rax
	movq	14168(%rax), %rax
	movq	img, %rcx
	movslq	12(%rcx), %rcx
	imulq	$632, %rcx, %rcx        # imm = 0x278
	addq	%rcx, %rax
	movq	%rax, -56(%rbp)
	movq	-56(%rbp), %rax
	movl	596(%rax), %eax
	movl	%eax, last_dquant
	cmpl	$0, -12(%rbp)
	jg	.LBB52_2
# %bb.1:                                # %if.then
	movl	$1, -16(%rbp)
.LBB52_2:                               # %if.end
	movl	-12(%rbp), %edi
	callq	abs
	xorl	%ecx, %ecx
	shll	$1, %eax
	movl	%eax, -4(%rbp)
	movl	-16(%rbp), %eax
	addl	-4(%rbp), %eax
	movl	%eax, -4(%rbp)
	movl	-4(%rbp), %eax
	addl	$-1, %eax
	movl	%eax, -4(%rbp)
	movl	last_dquant, %eax
	cmpl	$0, %eax
	movl	$1, %eax
	cmovnel	%eax, %ecx
	movl	%ecx, -8(%rbp)
	cmpl	$0, -4(%rbp)
	jne	.LBB52_4
# %bb.3:                                # %if.then3
	movq	-32(%rbp), %rdi
	movq	-24(%rbp), %rdx
	addq	$1328, %rdx             # imm = 0x530
	movslq	-8(%rbp), %rax
	shlq	$4, %rax
	addq	%rax, %rdx
	xorl	%esi, %esi
	callq	biari_encode_symbol
	jmp	.LBB52_5
.LBB52_4:                               # %if.else
	movq	-32(%rbp), %rdi
	movq	-24(%rbp), %rdx
	addq	$1328, %rdx             # imm = 0x530
	movslq	-8(%rbp), %rax
	shlq	$4, %rax
	addq	%rax, %rdx
	movl	$1, %esi
	callq	biari_encode_symbol
	movl	$2, -8(%rbp)
	movl	-4(%rbp), %eax
	addl	$-1, %eax
	movl	%eax, -4(%rbp)
	movq	-32(%rbp), %rdi
	movl	-4(%rbp), %esi
	movq	-24(%rbp), %rdx
	addq	$1328, %rdx             # imm = 0x530
	movslq	-8(%rbp), %rax
	shlq	$4, %rax
	addq	%rax, %rdx
	movl	$1, %ecx
	callq	unary_bin_encode
.LBB52_5:                               # %if.end13
	cmpl	$996779979, -36(%rbp)   # imm = 0x3B69A7CB
	jne	.LBB52_7
.LBB52_6:
	addq	$64, %rsp
	popq	%rbp
	.cfi_def_cfa %rsp, 8
	retq
.LBB52_7:                               # %func_exit
	.cfi_def_cfa %rbp, 16
	callq	detect_breach
	jmp	.LBB52_6
.Lfunc_end52:
	.size	writeDquant_CABAC.25, .Lfunc_end52-writeDquant_CABAC.25
	.cfi_endproc
                                        # -- End function
	.globl	writeIntraPredMode_CABAC.26 # -- Begin function writeIntraPredMode_CABAC.26
	.p2align	4, 0x90
	.type	writeIntraPredMode_CABAC.26,@function
writeIntraPredMode_CABAC.26:            # @writeIntraPredMode_CABAC.26
	.cfi_startproc
# %bb.0:                                # %entry
	pushq	%rbp
	.cfi_def_cfa_offset 16
	.cfi_offset %rbp, -16
	movq	%rsp, %rbp
	.cfi_def_cfa_register %rbp
	subq	$32, %rsp
	movl	$1474725124, -28(%rbp)  # imm = 0x57E68504
	movq	%rdi, -24(%rbp)
	movq	%rsi, -16(%rbp)
	movq	img, %rax
	movq	14160(%rax), %rax
	movq	40(%rax), %rax
	movq	%rax, -8(%rbp)
	movq	-24(%rbp), %rax
	cmpl	$-1, 4(%rax)
	jne	.LBB53_2
# %bb.1:                                # %if.then
	movq	-16(%rbp), %rdi
	movq	-8(%rbp), %rdx
	movl	$1, %esi
	callq	biari_encode_symbol
	jmp	.LBB53_3
.LBB53_2:                               # %if.else
	movq	-16(%rbp), %rdi
	movq	-8(%rbp), %rdx
	xorl	%esi, %esi
	callq	biari_encode_symbol
	movq	-16(%rbp), %rdi
	movq	-24(%rbp), %rax
	movl	4(%rax), %eax
	andl	$1, %eax
	movq	-8(%rbp), %rdx
	addq	$16, %rdx
	movswl	%ax, %esi
	callq	biari_encode_symbol
	movq	-16(%rbp), %rdi
	movq	-24(%rbp), %rax
	movl	4(%rax), %eax
	andl	$2, %eax
	sarl	$1, %eax
	movq	-8(%rbp), %rdx
	addq	$16, %rdx
	movswl	%ax, %esi
	callq	biari_encode_symbol
	movq	-16(%rbp), %rdi
	movq	-24(%rbp), %rax
	movl	4(%rax), %eax
	andl	$4, %eax
	sarl	$2, %eax
	movq	-8(%rbp), %rdx
	addq	$16, %rdx
	movswl	%ax, %esi
	callq	biari_encode_symbol
.LBB53_3:                               # %if.end
	cmpl	$1474725124, -28(%rbp)  # imm = 0x57E68504
	jne	.LBB53_5
.LBB53_4:
	addq	$32, %rsp
	popq	%rbp
	.cfi_def_cfa %rsp, 8
	retq
.LBB53_5:                               # %func_exit
	.cfi_def_cfa %rbp, 16
	callq	detect_breach
	jmp	.LBB53_4
.Lfunc_end53:
	.size	writeIntraPredMode_CABAC.26, .Lfunc_end53-writeIntraPredMode_CABAC.26
	.cfi_endproc
                                        # -- End function
	.globl	writeCIPredMode_CABAC.27 # -- Begin function writeCIPredMode_CABAC.27
	.p2align	4, 0x90
	.type	writeCIPredMode_CABAC.27,@function
writeCIPredMode_CABAC.27:               # @writeCIPredMode_CABAC.27
	.cfi_startproc
# %bb.0:                                # %entry
	pushq	%rbp
	.cfi_def_cfa_offset 16
	.cfi_offset %rbp, -16
	movq	%rsp, %rbp
	.cfi_def_cfa_register %rbp
	subq	$64, %rsp
	movl	$944413491, -44(%rbp)   # imm = 0x384A9B33
	movq	%rdi, -56(%rbp)
	movq	%rsi, -40(%rbp)
	movq	img, %rax
	movq	14160(%rax), %rax
	movq	40(%rax), %rax
	movq	%rax, -32(%rbp)
	movq	img, %rax
	movq	14168(%rax), %rax
	movq	img, %rcx
	movslq	12(%rcx), %rcx
	imulq	$632, %rcx, %rcx        # imm = 0x278
	addq	%rcx, %rax
	movq	%rax, -24(%rbp)
	movq	-56(%rbp), %rax
	movl	4(%rax), %eax
	movl	%eax, -12(%rbp)
	movq	-24(%rbp), %rax
	cmpq	$0, 56(%rax)
	jne	.LBB54_2
# %bb.1:                                # %if.then
	movl	$0, -16(%rbp)
	jmp	.LBB54_3
.LBB54_2:                               # %if.else
	xorl	%eax, %eax
	movq	-24(%rbp), %rcx
	movq	56(%rcx), %rcx
	movl	524(%rcx), %ecx
	cmpl	$0, %ecx
	movl	$1, %ecx
	cmovnel	%ecx, %eax
	movl	%eax, -16(%rbp)
.LBB54_3:                               # %if.end
	movq	-24(%rbp), %rax
	cmpq	$0, 64(%rax)
	jne	.LBB54_5
# %bb.4:                                # %if.then4
	movl	$0, -8(%rbp)
	jmp	.LBB54_6
.LBB54_5:                               # %if.else5
	xorl	%eax, %eax
	movq	-24(%rbp), %rcx
	movq	64(%rcx), %rcx
	movl	524(%rcx), %ecx
	cmpl	$0, %ecx
	movl	$1, %ecx
	cmovnel	%ecx, %eax
	movl	%eax, -8(%rbp)
.LBB54_6:                               # %if.end10
	movl	-8(%rbp), %eax
	addl	-16(%rbp), %eax
	movl	%eax, -4(%rbp)
	cmpl	$0, -12(%rbp)
	jne	.LBB54_8
# %bb.7:                                # %if.then12
	movq	-40(%rbp), %rdi
	movq	-32(%rbp), %rdx
	addq	$32, %rdx
	movslq	-4(%rbp), %rax
	shlq	$4, %rax
	addq	%rax, %rdx
	xorl	%esi, %esi
	callq	biari_encode_symbol
	jmp	.LBB54_9
.LBB54_8:                               # %if.else13
	movq	-40(%rbp), %rdi
	movq	-32(%rbp), %rdx
	addq	$32, %rdx
	movslq	-4(%rbp), %rax
	shlq	$4, %rax
	addq	%rax, %rdx
	movl	$1, %esi
	callq	biari_encode_symbol
	movq	-40(%rbp), %rdi
	movl	-12(%rbp), %esi
	subl	$1, %esi
	movq	-32(%rbp), %rdx
	addq	$32, %rdx
	addq	$48, %rdx
	xorl	%ecx, %ecx
	movl	$2, %r8d
	callq	unary_bin_max_encode
.LBB54_9:                               # %if.end21
	cmpl	$944413491, -44(%rbp)   # imm = 0x384A9B33
	jne	.LBB54_11
.LBB54_10:
	addq	$64, %rsp
	popq	%rbp
	.cfi_def_cfa %rsp, 8
	retq
.LBB54_11:                              # %func_exit
	.cfi_def_cfa %rbp, 16
	callq	detect_breach
	jmp	.LBB54_10
.Lfunc_end54:
	.size	writeCIPredMode_CABAC.27, .Lfunc_end54-writeCIPredMode_CABAC.27
	.cfi_endproc
                                        # -- End function
	.globl	unary_bin_encode.28     # -- Begin function unary_bin_encode.28
	.p2align	4, 0x90
	.type	unary_bin_encode.28,@function
unary_bin_encode.28:                    # @unary_bin_encode.28
	.cfi_startproc
# %bb.0:                                # %entry
	pushq	%rbp
	.cfi_def_cfa_offset 16
	.cfi_offset %rbp, -16
	movq	%rsp, %rbp
	.cfi_def_cfa_register %rbp
	subq	$48, %rsp
	movl	$74345744, -32(%rbp)    # imm = 0x46E6D10
	movq	%rdi, -16(%rbp)
	movl	%esi, -8(%rbp)
	movq	%rdx, -24(%rbp)
	movl	%ecx, -28(%rbp)
	cmpl	$0, -8(%rbp)
	jne	.LBB55_2
# %bb.1:                                # %if.then
	movq	-16(%rbp), %rdi
	movq	-24(%rbp), %rdx
	xorl	%esi, %esi
	callq	biari_encode_symbol
	jmp	.LBB55_7
.LBB55_2:                               # %if.else
	movq	-16(%rbp), %rdi
	movq	-24(%rbp), %rdx
	movl	$1, %esi
	callq	biari_encode_symbol
	movl	-8(%rbp), %eax
	movl	%eax, -4(%rbp)
	movq	-24(%rbp), %rax
	movslq	-28(%rbp), %rcx
	shlq	$4, %rcx
	addq	%rcx, %rax
	movq	%rax, -40(%rbp)
.LBB55_3:                               # %while.cond
                                        # =>This Inner Loop Header: Depth=1
	movl	-4(%rbp), %eax
	addl	$-1, %eax
	movl	%eax, -4(%rbp)
	cmpl	$0, %eax
	jbe	.LBB55_5
# %bb.4:                                # %while.body
                                        #   in Loop: Header=BB55_3 Depth=1
	movq	-16(%rbp), %rdi
	movq	-40(%rbp), %rdx
	movl	$1, %esi
	callq	biari_encode_symbol
	jmp	.LBB55_3
.LBB55_5:                               # %while.end
	movq	-16(%rbp), %rdi
	movq	-40(%rbp), %rdx
	xorl	%esi, %esi
	callq	biari_encode_symbol
# %bb.6:                                # %if.end
	jmp	.LBB55_7
.LBB55_7:                               # %return
	cmpl	$74345744, -32(%rbp)    # imm = 0x46E6D10
	jne	.LBB55_9
.LBB55_8:
	addq	$48, %rsp
	popq	%rbp
	.cfi_def_cfa %rsp, 8
	retq
.LBB55_9:                               # %func_exit
	.cfi_def_cfa %rbp, 16
	callq	detect_breach
	jmp	.LBB55_8
.Lfunc_end55:
	.size	unary_bin_encode.28, .Lfunc_end55-unary_bin_encode.28
	.cfi_endproc
                                        # -- End function
	.globl	writeFieldModeInfo_CABAC.29 # -- Begin function writeFieldModeInfo_CABAC.29
	.p2align	4, 0x90
	.type	writeFieldModeInfo_CABAC.29,@function
writeFieldModeInfo_CABAC.29:            # @writeFieldModeInfo_CABAC.29
	.cfi_startproc
# %bb.0:                                # %entry
	pushq	%rbp
	.cfi_def_cfa_offset 16
	.cfi_offset %rbp, -16
	movq	%rsp, %rbp
	.cfi_def_cfa_register %rbp
	subq	$64, %rsp
	movl	$1370109696, -32(%rbp)  # imm = 0x51AA3700
	movq	%rdi, -48(%rbp)
	movq	%rsi, -56(%rbp)
	movq	img, %rax
	movq	14160(%rax), %rax
	movq	32(%rax), %rax
	movq	%rax, -40(%rbp)
	movq	img, %rax
	movq	14168(%rax), %rax
	movq	img, %rcx
	movslq	12(%rcx), %rcx
	imulq	$632, %rcx, %rcx        # imm = 0x278
	addq	%rcx, %rax
	movq	%rax, -24(%rbp)
	movq	-48(%rbp), %rax
	movl	4(%rax), %eax
	movl	%eax, -28(%rbp)
	movq	-24(%rbp), %rax
	cmpl	$0, 552(%rax)
	je	.LBB56_2
# %bb.1:                                # %if.then
	movq	img, %rax
	movq	14168(%rax), %rax
	movq	-24(%rbp), %rcx
	movslq	536(%rcx), %rcx
	imulq	$632, %rcx, %rcx        # imm = 0x278
	addq	%rcx, %rax
	movl	532(%rax), %eax
	movl	%eax, -8(%rbp)
	jmp	.LBB56_3
.LBB56_2:                               # %if.else
	movl	$0, -8(%rbp)
.LBB56_3:                               # %if.end
	movq	-24(%rbp), %rax
	cmpl	$0, 556(%rax)
	je	.LBB56_5
# %bb.4:                                # %if.then6
	movq	img, %rax
	movq	14168(%rax), %rax
	movq	-24(%rbp), %rcx
	movslq	540(%rcx), %rcx
	imulq	$632, %rcx, %rcx        # imm = 0x278
	addq	%rcx, %rax
	movl	532(%rax), %eax
	movl	%eax, -12(%rbp)
	jmp	.LBB56_6
.LBB56_5:                               # %if.else11
	movl	$0, -12(%rbp)
.LBB56_6:                               # %if.end12
	movl	-8(%rbp), %eax
	addl	-12(%rbp), %eax
	movl	%eax, -4(%rbp)
	cmpl	$0, -28(%rbp)
	jne	.LBB56_8
# %bb.7:                                # %if.then13
	movq	-56(%rbp), %rdi
	movq	-40(%rbp), %rdx
	addq	$1392, %rdx             # imm = 0x570
	movslq	-4(%rbp), %rax
	shlq	$4, %rax
	addq	%rax, %rdx
	xorl	%esi, %esi
	callq	biari_encode_symbol
	jmp	.LBB56_9
.LBB56_8:                               # %if.else16
	movq	-56(%rbp), %rdi
	movq	-40(%rbp), %rdx
	addq	$1392, %rdx             # imm = 0x570
	movslq	-4(%rbp), %rax
	shlq	$4, %rax
	addq	%rax, %rdx
	movl	$1, %esi
	callq	biari_encode_symbol
.LBB56_9:                               # %if.end20
	movl	-4(%rbp), %eax
	movq	-48(%rbp), %rcx
	movl	%eax, 24(%rcx)
	cmpl	$1370109696, -32(%rbp)  # imm = 0x51AA3700
	jne	.LBB56_11
.LBB56_10:
	addq	$64, %rsp
	popq	%rbp
	.cfi_def_cfa %rsp, 8
	retq
.LBB56_11:                              # %func_exit
	.cfi_def_cfa %rbp, 16
	callq	detect_breach
	jmp	.LBB56_10
.Lfunc_end56:
	.size	writeFieldModeInfo_CABAC.29, .Lfunc_end56-writeFieldModeInfo_CABAC.29
	.cfi_endproc
                                        # -- End function
	.globl	unary_exp_golomb_mv_encode.30 # -- Begin function unary_exp_golomb_mv_encode.30
	.p2align	4, 0x90
	.type	unary_exp_golomb_mv_encode.30,@function
unary_exp_golomb_mv_encode.30:          # @unary_exp_golomb_mv_encode.30
	.cfi_startproc
# %bb.0:                                # %entry
	pushq	%rbp
	.cfi_def_cfa_offset 16
	.cfi_offset %rbp, -16
	movq	%rsp, %rbp
	.cfi_def_cfa_register %rbp
	subq	$64, %rsp
	movl	$981772309, -48(%rbp)   # imm = 0x3A84A815
	movq	%rdi, -32(%rbp)
	movl	%esi, -12(%rbp)
	movq	%rdx, -56(%rbp)
	movl	%ecx, -44(%rbp)
	movl	$1, -20(%rbp)
	movq	-56(%rbp), %rax
	movq	%rax, -8(%rbp)
	movl	$8, -16(%rbp)
	cmpl	$0, -12(%rbp)
	jne	.LBB57_2
# %bb.1:                                # %if.then
	movq	-32(%rbp), %rdi
	movq	-8(%rbp), %rdx
	xorl	%esi, %esi
	callq	biari_encode_symbol
	jmp	.LBB57_16
.LBB57_2:                               # %if.else
	movq	-32(%rbp), %rdi
	movq	-8(%rbp), %rdx
	movl	$1, %esi
	callq	biari_encode_symbol
	movl	-12(%rbp), %eax
	movl	%eax, -40(%rbp)
	movl	$1, -36(%rbp)
	movq	-8(%rbp), %rax
	addq	$16, %rax
	movq	%rax, -8(%rbp)
.LBB57_3:                               # %while.cond
                                        # =>This Inner Loop Header: Depth=1
	xorl	%eax, %eax
	movl	-40(%rbp), %ecx
	addl	$-1, %ecx
	movl	%ecx, -40(%rbp)
	cmpl	$0, %ecx
	jbe	.LBB57_5
# %bb.4:                                # %land.rhs
                                        #   in Loop: Header=BB57_3 Depth=1
	movl	-36(%rbp), %eax
	addl	$1, %eax
	movl	%eax, -36(%rbp)
	cmpl	-16(%rbp), %eax
	setbe	%al
.LBB57_5:                               # %land.end
                                        #   in Loop: Header=BB57_3 Depth=1
	testb	$1, %al
	jne	.LBB57_6
	jmp	.LBB57_11
.LBB57_6:                               # %while.body
                                        #   in Loop: Header=BB57_3 Depth=1
	movq	-32(%rbp), %rdi
	movq	-8(%rbp), %rdx
	movl	$1, %esi
	callq	biari_encode_symbol
	movl	-20(%rbp), %eax
	addl	$1, %eax
	movl	%eax, -20(%rbp)
	cmpl	$2, %eax
	jne	.LBB57_8
# %bb.7:                                # %if.then5
                                        #   in Loop: Header=BB57_3 Depth=1
	movq	-8(%rbp), %rax
	addq	$16, %rax
	movq	%rax, -8(%rbp)
.LBB57_8:                               # %if.end
                                        #   in Loop: Header=BB57_3 Depth=1
	movl	-20(%rbp), %eax
	cmpl	-44(%rbp), %eax
	jne	.LBB57_10
# %bb.9:                                # %if.then8
                                        #   in Loop: Header=BB57_3 Depth=1
	movq	-8(%rbp), %rax
	addq	$16, %rax
	movq	%rax, -8(%rbp)
.LBB57_10:                              # %if.end10
                                        #   in Loop: Header=BB57_3 Depth=1
	jmp	.LBB57_3
.LBB57_11:                              # %while.end
	movl	-12(%rbp), %eax
	cmpl	-16(%rbp), %eax
	jae	.LBB57_13
# %bb.12:                               # %if.then12
	movq	-32(%rbp), %rdi
	movq	-8(%rbp), %rdx
	xorl	%esi, %esi
	callq	biari_encode_symbol
	jmp	.LBB57_14
.LBB57_13:                              # %if.else13
	movq	-32(%rbp), %rdi
	movl	-12(%rbp), %esi
	subl	-16(%rbp), %esi
	movl	$3, %edx
	callq	exp_golomb_encode_eq_prob
.LBB57_14:                              # %if.end14
	jmp	.LBB57_15
.LBB57_15:                              # %if.end15
	jmp	.LBB57_16
.LBB57_16:                              # %return
	cmpl	$981772309, -48(%rbp)   # imm = 0x3A84A815
	jne	.LBB57_18
.LBB57_17:
	addq	$64, %rsp
	popq	%rbp
	.cfi_def_cfa %rsp, 8
	retq
.LBB57_18:                              # %func_exit
	.cfi_def_cfa %rbp, 16
	callq	detect_breach
	jmp	.LBB57_17
.Lfunc_end57:
	.size	unary_exp_golomb_mv_encode.30, .Lfunc_end57-unary_exp_golomb_mv_encode.30
	.cfi_endproc
                                        # -- End function
	.globl	writeSyntaxElement_CABAC.31 # -- Begin function writeSyntaxElement_CABAC.31
	.p2align	4, 0x90
	.type	writeSyntaxElement_CABAC.31,@function
writeSyntaxElement_CABAC.31:            # @writeSyntaxElement_CABAC.31
	.cfi_startproc
# %bb.0:                                # %entry
	pushq	%rbp
	.cfi_def_cfa_offset 16
	.cfi_offset %rbp, -16
	movq	%rsp, %rbp
	.cfi_def_cfa_register %rbp
	pushq	%rbx
	subq	$40, %rsp
	.cfi_offset %rbx, -24
	movl	$1509799937, -32(%rbp)  # imm = 0x59FDB801
	movq	%rdi, -16(%rbp)
	movq	%rsi, -40(%rbp)
	movq	-40(%rbp), %rax
	addq	$8, %rax
	movq	%rax, -24(%rbp)
	movq	-24(%rbp), %rdi
	callq	arienco_bits_written
	movl	%eax, -28(%rbp)
	movq	-16(%rbp), %rax
	movq	40(%rax), %rax
	movq	-16(%rbp), %rdi
	movq	-24(%rbp), %rsi
	callq	*%rax
	movq	-16(%rbp), %rax
	cmpl	$0, (%rax)
	je	.LBB58_2
# %bb.1:                                # %if.then
	movq	-40(%rbp), %rax
	movq	(%rax), %rax
	movl	$1, 40(%rax)
.LBB58_2:                               # %if.end
	movq	-24(%rbp), %rdi
	callq	arienco_bits_written
	movl	%eax, %ebx
	subl	-28(%rbp), %ebx
	movq	-16(%rbp), %rax
	movl	%ebx, 12(%rax)
	cmpl	$1509799937, -32(%rbp)  # imm = 0x59FDB801
	jne	.LBB58_4
.LBB58_3:
	movl	%ebx, %eax
	addq	$40, %rsp
	popq	%rbx
	popq	%rbp
	.cfi_def_cfa %rsp, 8
	retq
.LBB58_4:                               # %func_exit
	.cfi_def_cfa %rbp, 16
	callq	detect_breach
	jmp	.LBB58_3
.Lfunc_end58:
	.size	writeSyntaxElement_CABAC.31, .Lfunc_end58-writeSyntaxElement_CABAC.31
	.cfi_endproc
                                        # -- End function
	.globl	writeFieldModeInfo_CABAC.32 # -- Begin function writeFieldModeInfo_CABAC.32
	.p2align	4, 0x90
	.type	writeFieldModeInfo_CABAC.32,@function
writeFieldModeInfo_CABAC.32:            # @writeFieldModeInfo_CABAC.32
	.cfi_startproc
# %bb.0:                                # %entry
	pushq	%rbp
	.cfi_def_cfa_offset 16
	.cfi_offset %rbp, -16
	movq	%rsp, %rbp
	.cfi_def_cfa_register %rbp
	subq	$64, %rsp
	movl	$1453810965, -28(%rbp)  # imm = 0x56A76515
	movq	%rdi, -56(%rbp)
	movq	%rsi, -40(%rbp)
	movq	img, %rax
	movq	14160(%rax), %rax
	movq	32(%rax), %rax
	movq	%rax, -48(%rbp)
	movq	img, %rax
	movq	14168(%rax), %rax
	movq	img, %rcx
	movslq	12(%rcx), %rcx
	imulq	$632, %rcx, %rcx        # imm = 0x278
	addq	%rcx, %rax
	movq	%rax, -24(%rbp)
	movq	-56(%rbp), %rax
	movl	4(%rax), %eax
	movl	%eax, -32(%rbp)
	movq	-24(%rbp), %rax
	cmpl	$0, 552(%rax)
	je	.LBB59_2
# %bb.1:                                # %if.then
	movq	img, %rax
	movq	14168(%rax), %rax
	movq	-24(%rbp), %rcx
	movslq	536(%rcx), %rcx
	imulq	$632, %rcx, %rcx        # imm = 0x278
	addq	%rcx, %rax
	movl	532(%rax), %eax
	movl	%eax, -12(%rbp)
	jmp	.LBB59_3
.LBB59_2:                               # %if.else
	movl	$0, -12(%rbp)
.LBB59_3:                               # %if.end
	movq	-24(%rbp), %rax
	cmpl	$0, 556(%rax)
	je	.LBB59_5
# %bb.4:                                # %if.then6
	movq	img, %rax
	movq	14168(%rax), %rax
	movq	-24(%rbp), %rcx
	movslq	540(%rcx), %rcx
	imulq	$632, %rcx, %rcx        # imm = 0x278
	addq	%rcx, %rax
	movl	532(%rax), %eax
	movl	%eax, -8(%rbp)
	jmp	.LBB59_6
.LBB59_5:                               # %if.else11
	movl	$0, -8(%rbp)
.LBB59_6:                               # %if.end12
	movl	-12(%rbp), %eax
	addl	-8(%rbp), %eax
	movl	%eax, -4(%rbp)
	cmpl	$0, -32(%rbp)
	jne	.LBB59_8
# %bb.7:                                # %if.then13
	movq	-40(%rbp), %rdi
	movq	-48(%rbp), %rdx
	addq	$1392, %rdx             # imm = 0x570
	movslq	-4(%rbp), %rax
	shlq	$4, %rax
	addq	%rax, %rdx
	xorl	%esi, %esi
	callq	biari_encode_symbol
	jmp	.LBB59_9
.LBB59_8:                               # %if.else16
	movq	-40(%rbp), %rdi
	movq	-48(%rbp), %rdx
	addq	$1392, %rdx             # imm = 0x570
	movslq	-4(%rbp), %rax
	shlq	$4, %rax
	addq	%rax, %rdx
	movl	$1, %esi
	callq	biari_encode_symbol
.LBB59_9:                               # %if.end20
	movl	-4(%rbp), %eax
	movq	-56(%rbp), %rcx
	movl	%eax, 24(%rcx)
	cmpl	$1453810965, -28(%rbp)  # imm = 0x56A76515
	jne	.LBB59_11
.LBB59_10:
	addq	$64, %rsp
	popq	%rbp
	.cfi_def_cfa %rsp, 8
	retq
.LBB59_11:                              # %func_exit
	.cfi_def_cfa %rbp, 16
	callq	detect_breach
	jmp	.LBB59_10
.Lfunc_end59:
	.size	writeFieldModeInfo_CABAC.32, .Lfunc_end59-writeFieldModeInfo_CABAC.32
	.cfi_endproc
                                        # -- End function
	.globl	writeMB_transform_size_CABAC.33 # -- Begin function writeMB_transform_size_CABAC.33
	.p2align	4, 0x90
	.type	writeMB_transform_size_CABAC.33,@function
writeMB_transform_size_CABAC.33:        # @writeMB_transform_size_CABAC.33
	.cfi_startproc
# %bb.0:                                # %entry
	pushq	%rbp
	.cfi_def_cfa_offset 16
	.cfi_offset %rbp, -16
	movq	%rsp, %rbp
	.cfi_def_cfa_register %rbp
	subq	$64, %rsp
	movl	$138123361, -28(%rbp)   # imm = 0x83B9861
	movq	%rdi, -56(%rbp)
	movq	%rsi, -40(%rbp)
	movl	$0, -4(%rbp)
	movq	img, %rax
	movq	14160(%rax), %rax
	movq	32(%rax), %rax
	movq	%rax, -48(%rbp)
	movq	img, %rax
	movq	14168(%rax), %rax
	movq	img, %rcx
	movslq	12(%rcx), %rcx
	imulq	$632, %rcx, %rcx        # imm = 0x278
	addq	%rcx, %rax
	movq	%rax, -16(%rbp)
	movq	-16(%rbp), %rax
	cmpq	$0, 56(%rax)
	jne	.LBB60_2
# %bb.1:                                # %if.then
	movl	$0, -24(%rbp)
	jmp	.LBB60_3
.LBB60_2:                               # %if.else
	movq	-16(%rbp), %rax
	movq	56(%rax), %rax
	movl	572(%rax), %eax
	movl	%eax, -24(%rbp)
.LBB60_3:                               # %if.end
	movq	-16(%rbp), %rax
	cmpq	$0, 64(%rax)
	jne	.LBB60_5
# %bb.4:                                # %if.then3
	movl	$0, -20(%rbp)
	jmp	.LBB60_6
.LBB60_5:                               # %if.else4
	movq	-16(%rbp), %rax
	movq	64(%rax), %rax
	movl	572(%rax), %eax
	movl	%eax, -20(%rbp)
.LBB60_6:                               # %if.end7
	movl	-20(%rbp), %eax
	addl	-24(%rbp), %eax
	movl	%eax, -4(%rbp)
	movq	-16(%rbp), %rax
	movl	572(%rax), %eax
	movl	%eax, -32(%rbp)
	movl	-4(%rbp), %eax
	movq	-56(%rbp), %rcx
	movl	%eax, 24(%rcx)
	cmpl	$0, -32(%rbp)
	jne	.LBB60_8
# %bb.7:                                # %if.then10
	movq	-40(%rbp), %rdi
	movq	-48(%rbp), %rdx
	addq	$1456, %rdx             # imm = 0x5B0
	movslq	-4(%rbp), %rax
	shlq	$4, %rax
	addq	%rax, %rdx
	xorl	%esi, %esi
	callq	biari_encode_symbol
	jmp	.LBB60_9
.LBB60_8:                               # %if.else11
	movq	-40(%rbp), %rdi
	movq	-48(%rbp), %rdx
	addq	$1456, %rdx             # imm = 0x5B0
	movslq	-4(%rbp), %rax
	shlq	$4, %rax
	addq	%rax, %rdx
	movl	$1, %esi
	callq	biari_encode_symbol
.LBB60_9:                               # %if.end16
	cmpl	$138123361, -28(%rbp)   # imm = 0x83B9861
	jne	.LBB60_11
.LBB60_10:
	addq	$64, %rsp
	popq	%rbp
	.cfi_def_cfa %rsp, 8
	retq
.LBB60_11:                              # %func_exit
	.cfi_def_cfa %rbp, 16
	callq	detect_breach
	jmp	.LBB60_10
.Lfunc_end60:
	.size	writeMB_transform_size_CABAC.33, .Lfunc_end60-writeMB_transform_size_CABAC.33
	.cfi_endproc
                                        # -- End function
	.globl	writeCBP_CABAC.34       # -- Begin function writeCBP_CABAC.34
	.p2align	4, 0x90
	.type	writeCBP_CABAC.34,@function
writeCBP_CABAC.34:                      # @writeCBP_CABAC.34
	.cfi_startproc
# %bb.0:                                # %entry
	pushq	%rbp
	.cfi_def_cfa_offset 16
	.cfi_offset %rbp, -16
	movq	%rsp, %rbp
	.cfi_def_cfa_register %rbp
	subq	$64, %rsp
	movl	$1427691698, -44(%rbp)  # imm = 0x5518D8B2
	movq	%rdi, -64(%rbp)
	movq	%rsi, -40(%rbp)
	movq	img, %rax
	movq	14160(%rax), %rax
	movq	40(%rax), %rax
	movq	%rax, -56(%rbp)
	movq	img, %rax
	movq	14168(%rax), %rax
	movq	img, %rcx
	movslq	12(%rcx), %rcx
	imulq	$632, %rcx, %rcx        # imm = 0x278
	addq	%rcx, %rax
	movq	%rax, -8(%rbp)
	movq	-64(%rbp), %rax
	movl	4(%rax), %eax
	movl	%eax, -24(%rbp)
	movl	$0, -20(%rbp)
.LBB61_1:                               # %for.cond
                                        # =>This Inner Loop Header: Depth=1
	cmpl	$4, -20(%rbp)
	jge	.LBB61_4
# %bb.2:                                # %for.body
                                        #   in Loop: Header=BB61_1 Depth=1
	xorl	%eax, %eax
	movq	-8(%rbp), %rcx
	movslq	-20(%rbp), %rdx
	movl	472(%rcx,%rdx,4), %ecx
	cmpl	$11, %ecx
	movl	$1, %edx
	movl	$1, %ecx
	cmovel	%eax, %ecx
	movl	%ecx, -48(%rbp)
	movl	-20(%rbp), %edi
	movl	-24(%rbp), %esi
	movl	-20(%rbp), %ecx
                                        # kill: def $cl killed $ecx
	shll	%cl, %edx
	andl	%edx, %esi
	movl	-24(%rbp), %edx
	movq	-8(%rbp), %rcx
	movl	-48(%rbp), %r8d
	movq	-40(%rbp), %r9
	callq	writeCBP_BIT_CABAC
# %bb.3:                                # %for.inc
                                        #   in Loop: Header=BB61_1 Depth=1
	movl	-20(%rbp), %eax
	addl	$1, %eax
	movl	%eax, -20(%rbp)
	jmp	.LBB61_1
.LBB61_4:                               # %for.end
	movq	img, %rax
	cmpl	$0, 72700(%rax)
	je	.LBB61_32
# %bb.5:                                # %if.then
	movl	$0, -12(%rbp)
	movq	-8(%rbp), %rax
	cmpq	$0, 56(%rax)
	je	.LBB61_10
# %bb.6:                                # %if.then6
	movq	-8(%rbp), %rax
	movq	56(%rax), %rax
	cmpl	$14, 72(%rax)
	jne	.LBB61_8
# %bb.7:                                # %if.then9
	movl	$1, -12(%rbp)
	jmp	.LBB61_9
.LBB61_8:                               # %if.else
	xorl	%eax, %eax
	movq	-8(%rbp), %rcx
	movq	56(%rcx), %rcx
	movl	460(%rcx), %ecx
	cmpl	$15, %ecx
	movl	$1, %ecx
	cmovgl	%ecx, %eax
	movl	%eax, -12(%rbp)
.LBB61_9:                               # %if.end
	jmp	.LBB61_10
.LBB61_10:                              # %if.end14
	movl	$0, -16(%rbp)
	movq	-8(%rbp), %rax
	cmpq	$0, 64(%rax)
	je	.LBB61_15
# %bb.11:                               # %if.then16
	movq	-8(%rbp), %rax
	movq	64(%rax), %rax
	cmpl	$14, 72(%rax)
	jne	.LBB61_13
# %bb.12:                               # %if.then20
	movl	$1, -16(%rbp)
	jmp	.LBB61_14
.LBB61_13:                              # %if.else21
	xorl	%eax, %eax
	movq	-8(%rbp), %rcx
	movq	64(%rcx), %rcx
	movl	460(%rcx), %ecx
	cmpl	$15, %ecx
	movl	$1, %ecx
	cmovgl	%ecx, %eax
	movl	%eax, -16(%rbp)
.LBB61_14:                              # %if.end26
	jmp	.LBB61_15
.LBB61_15:                              # %if.end27
	xorl	%eax, %eax
	movl	-16(%rbp), %ecx
	movl	-12(%rbp), %edx
	shll	$1, %edx
	addl	%edx, %ecx
	movl	%ecx, -28(%rbp)
	movl	-24(%rbp), %ecx
	cmpl	$15, %ecx
	movl	$1, %ecx
	cmovgl	%ecx, %eax
	movl	%eax, -32(%rbp)
	movq	-40(%rbp), %rdi
	movl	-32(%rbp), %eax
	movzbl	%al, %eax
	movq	-56(%rbp), %rdx
	addq	$96, %rdx
	addq	$64, %rdx
	movslq	-28(%rbp), %rcx
	shlq	$4, %rcx
	addq	%rcx, %rdx
	movswl	%ax, %esi
	callq	biari_encode_symbol
	cmpl	$15, -24(%rbp)
	jle	.LBB61_31
# %bb.16:                               # %if.then34
	movl	$0, -12(%rbp)
	movq	-8(%rbp), %rax
	cmpq	$0, 56(%rax)
	je	.LBB61_23
# %bb.17:                               # %if.then38
	movq	-8(%rbp), %rax
	movq	56(%rax), %rax
	cmpl	$14, 72(%rax)
	jne	.LBB61_19
# %bb.18:                               # %if.then43
	movl	$1, -12(%rbp)
	jmp	.LBB61_22
.LBB61_19:                              # %if.else44
	movq	-8(%rbp), %rax
	movq	56(%rax), %rax
	cmpl	$15, 460(%rax)
	jle	.LBB61_21
# %bb.20:                               # %if.then49
	xorl	%eax, %eax
	movq	-8(%rbp), %rcx
	movq	56(%rcx), %rcx
	movl	460(%rcx), %ecx
	sarl	$4, %ecx
	cmpl	$2, %ecx
	movl	$1, %ecx
	cmovel	%ecx, %eax
	movl	%eax, -12(%rbp)
.LBB61_21:                              # %if.end55
	jmp	.LBB61_22
.LBB61_22:                              # %if.end56
	jmp	.LBB61_23
.LBB61_23:                              # %if.end57
	movl	$0, -16(%rbp)
	movq	-8(%rbp), %rax
	cmpq	$0, 64(%rax)
	je	.LBB61_30
# %bb.24:                               # %if.then61
	movq	-8(%rbp), %rax
	movq	64(%rax), %rax
	cmpl	$14, 72(%rax)
	jne	.LBB61_26
# %bb.25:                               # %if.then66
	movl	$1, -16(%rbp)
	jmp	.LBB61_29
.LBB61_26:                              # %if.else67
	movq	-8(%rbp), %rax
	movq	64(%rax), %rax
	cmpl	$15, 460(%rax)
	jle	.LBB61_28
# %bb.27:                               # %if.then72
	xorl	%eax, %eax
	movq	-8(%rbp), %rcx
	movq	64(%rcx), %rcx
	movl	460(%rcx), %ecx
	sarl	$4, %ecx
	cmpl	$2, %ecx
	movl	$1, %ecx
	cmovel	%ecx, %eax
	movl	%eax, -16(%rbp)
.LBB61_28:                              # %if.end79
	jmp	.LBB61_29
.LBB61_29:                              # %if.end80
	jmp	.LBB61_30
.LBB61_30:                              # %if.end81
	xorl	%eax, %eax
	movl	-16(%rbp), %ecx
	movl	-12(%rbp), %edx
	shll	$1, %edx
	addl	%edx, %ecx
	movl	%ecx, -28(%rbp)
	movl	-24(%rbp), %ecx
	sarl	$4, %ecx
	cmpl	$2, %ecx
	movl	$1, %ecx
	cmovel	%ecx, %eax
	movl	%eax, -32(%rbp)
	movq	-40(%rbp), %rdi
	movl	-32(%rbp), %eax
	movzbl	%al, %eax
	movq	-56(%rbp), %rdx
	addq	$96, %rdx
	addq	$128, %rdx
	movslq	-28(%rbp), %rcx
	shlq	$4, %rcx
	addq	%rcx, %rdx
	movswl	%ax, %esi
	callq	biari_encode_symbol
.LBB61_31:                              # %if.end95
	jmp	.LBB61_32
.LBB61_32:                              # %if.end96
	cmpl	$1427691698, -44(%rbp)  # imm = 0x5518D8B2
	jne	.LBB61_34
.LBB61_33:
	addq	$64, %rsp
	popq	%rbp
	.cfi_def_cfa %rsp, 8
	retq
.LBB61_34:                              # %func_exit
	.cfi_def_cfa %rbp, 16
	callq	detect_breach
	jmp	.LBB61_33
.Lfunc_end61:
	.size	writeCBP_CABAC.34, .Lfunc_end61-writeCBP_CABAC.34
	.cfi_endproc
                                        # -- End function
	.globl	writeSyntaxElement_CABAC.35 # -- Begin function writeSyntaxElement_CABAC.35
	.p2align	4, 0x90
	.type	writeSyntaxElement_CABAC.35,@function
writeSyntaxElement_CABAC.35:            # @writeSyntaxElement_CABAC.35
	.cfi_startproc
# %bb.0:                                # %entry
	pushq	%rbp
	.cfi_def_cfa_offset 16
	.cfi_offset %rbp, -16
	movq	%rsp, %rbp
	.cfi_def_cfa_register %rbp
	pushq	%rbx
	subq	$40, %rsp
	.cfi_offset %rbx, -24
	movl	$1065896526, -32(%rbp)  # imm = 0x3F884A4E
	movq	%rdi, -16(%rbp)
	movq	%rsi, -40(%rbp)
	movq	-40(%rbp), %rax
	addq	$8, %rax
	movq	%rax, -24(%rbp)
	movq	-24(%rbp), %rdi
	callq	arienco_bits_written
	movl	%eax, -28(%rbp)
	movq	-16(%rbp), %rax
	movq	40(%rax), %rax
	movq	-16(%rbp), %rdi
	movq	-24(%rbp), %rsi
	callq	*%rax
	movq	-16(%rbp), %rax
	cmpl	$0, (%rax)
	je	.LBB62_2
# %bb.1:                                # %if.then
	movq	-40(%rbp), %rax
	movq	(%rax), %rax
	movl	$1, 40(%rax)
.LBB62_2:                               # %if.end
	movq	-24(%rbp), %rdi
	callq	arienco_bits_written
	movl	%eax, %ebx
	subl	-28(%rbp), %ebx
	movq	-16(%rbp), %rax
	movl	%ebx, 12(%rax)
	cmpl	$1065896526, -32(%rbp)  # imm = 0x3F884A4E
	jne	.LBB62_4
.LBB62_3:
	movl	%ebx, %eax
	addq	$40, %rsp
	popq	%rbx
	popq	%rbp
	.cfi_def_cfa %rsp, 8
	retq
.LBB62_4:                               # %func_exit
	.cfi_def_cfa %rbp, 16
	callq	detect_breach
	jmp	.LBB62_3
.Lfunc_end62:
	.size	writeSyntaxElement_CABAC.35, .Lfunc_end62-writeSyntaxElement_CABAC.35
	.cfi_endproc
                                        # -- End function
	.globl	writeRefFrame_CABAC.36  # -- Begin function writeRefFrame_CABAC.36
	.p2align	4, 0x90
	.type	writeRefFrame_CABAC.36,@function
writeRefFrame_CABAC.36:                 # @writeRefFrame_CABAC.36
	.cfi_startproc
# %bb.0:                                # %entry
	pushq	%rbp
	.cfi_def_cfa_offset 16
	.cfi_offset %rbp, -16
	movq	%rsp, %rbp
	.cfi_def_cfa_register %rbp
	subq	$128, %rsp
	movl	$1731448901, -60(%rbp)  # imm = 0x6733D045
	movq	%rdi, -56(%rbp)
	movq	%rsi, -48(%rbp)
	movq	img, %rax
	movq	14160(%rax), %rax
	movq	32(%rax), %rax
	movq	%rax, -40(%rbp)
	movq	img, %rax
	movq	14168(%rax), %rax
	movq	img, %rcx
	movslq	12(%rcx), %rcx
	imulq	$632, %rcx, %rcx        # imm = 0x278
	addq	%rcx, %rax
