	.text
	.file	"cabac.c"
	.globl	cabac_new_slice         # -- Begin function cabac_new_slice
	.p2align	4, 0x90
	.type	cabac_new_slice,@function
cabac_new_slice:                        # @cabac_new_slice
	.cfi_startproc
# %bb.0:                                # %entry
	pushq	%rbp
	.cfi_def_cfa_offset 16
	.cfi_offset %rbp, -16
	movq	%rsp, %rbp
	.cfi_def_cfa_register %rbp
	movl	$0, last_dquant
	popq	%rbp
	.cfi_def_cfa %rsp, 8
	retq
.Lfunc_end0:
	.size	cabac_new_slice, .Lfunc_end0-cabac_new_slice
	.cfi_endproc
                                        # -- End function
	.globl	CheckAvailabilityOfNeighborsCABAC # -- Begin function CheckAvailabilityOfNeighborsCABAC
	.p2align	4, 0x90
	.type	CheckAvailabilityOfNeighborsCABAC,@function
CheckAvailabilityOfNeighborsCABAC:      # @CheckAvailabilityOfNeighborsCABAC
	.cfi_startproc
# %bb.0:                                # %rand_bb
	pushq	%rbp
	.cfi_def_cfa_offset 16
	.cfi_offset %rbp, -16
	movq	%rsp, %rbp
	.cfi_def_cfa_register %rbp
	callq	get_rand
	cmpl	$0, %eax
	jne	.LBB1_7
# %bb.1:                                # %func_CheckAvailabilityOfNeighborsCABAC.4
	callq	CheckAvailabilityOfNeighborsCABAC.4
	popq	%rbp
	.cfi_def_cfa %rsp, 8
	retq
.LBB1_2:                                # %func_CheckAvailabilityOfNeighborsCABAC.101
	.cfi_def_cfa %rbp, 16
	callq	CheckAvailabilityOfNeighborsCABAC.101
	popq	%rbp
	.cfi_def_cfa %rsp, 8
	retq
.LBB1_3:                                # %func_CheckAvailabilityOfNeighborsCABAC.139
	.cfi_def_cfa %rbp, 16
	callq	CheckAvailabilityOfNeighborsCABAC.139
	popq	%rbp
	.cfi_def_cfa %rsp, 8
	retq
.LBB1_4:                                # %func_CheckAvailabilityOfNeighborsCABAC.157
	.cfi_def_cfa %rbp, 16
	callq	CheckAvailabilityOfNeighborsCABAC.157
	popq	%rbp
	.cfi_def_cfa %rsp, 8
	retq
.LBB1_5:                                # %func_CheckAvailabilityOfNeighborsCABAC.167
	.cfi_def_cfa %rbp, 16
	callq	CheckAvailabilityOfNeighborsCABAC.167
	popq	%rbp
	.cfi_def_cfa %rsp, 8
	retq
.LBB1_6:                                # %func_CheckAvailabilityOfNeighborsCABAC.175
	.cfi_def_cfa %rbp, 16
	callq	CheckAvailabilityOfNeighborsCABAC.175
	popq	%rbp
	.cfi_def_cfa %rsp, 8
	retq
.LBB1_7:                                # %ctrl0
	.cfi_def_cfa %rbp, 16
	cmpl	$1, %eax
	je	.LBB1_2
# %bb.8:                                # %ctrl1
	cmpl	$2, %eax
	je	.LBB1_3
# %bb.9:                                # %ctrl2
	cmpl	$3, %eax
	je	.LBB1_4
# %bb.10:                               # %ctrl3
	cmpl	$4, %eax
	je	.LBB1_5
	jmp	.LBB1_6
.Lfunc_end1:
	.size	CheckAvailabilityOfNeighborsCABAC, .Lfunc_end1-CheckAvailabilityOfNeighborsCABAC
	.cfi_endproc
                                        # -- End function
	.globl	create_contexts_MotionInfo # -- Begin function create_contexts_MotionInfo
	.p2align	4, 0x90
	.type	create_contexts_MotionInfo,@function
create_contexts_MotionInfo:             # @create_contexts_MotionInfo
	.cfi_startproc
# %bb.0:                                # %entry
	pushq	%rbp
	.cfi_def_cfa_offset 16
	.cfi_offset %rbp, -16
	movq	%rsp, %rbp
	.cfi_def_cfa_register %rbp
	subq	$16, %rsp
	movl	$1, %edi
	movl	$1504, %esi             # imm = 0x5E0
	callq	calloc
	movq	%rax, -8(%rbp)
	cmpq	$0, -8(%rbp)
	jne	.LBB2_2
# %bb.1:                                # %if.then
	movabsq	$.L.str, %rdi
	callq	no_mem_exit
.LBB2_2:                                # %if.end
	movq	-8(%rbp), %rax
	addq	$16, %rsp
	popq	%rbp
	.cfi_def_cfa %rsp, 8
	retq
.Lfunc_end2:
	.size	create_contexts_MotionInfo, .Lfunc_end2-create_contexts_MotionInfo
	.cfi_endproc
                                        # -- End function
	.globl	create_contexts_TextureInfo # -- Begin function create_contexts_TextureInfo
	.p2align	4, 0x90
	.type	create_contexts_TextureInfo,@function
create_contexts_TextureInfo:            # @create_contexts_TextureInfo
	.cfi_startproc
# %bb.0:                                # %entry
	pushq	%rbp
	.cfi_def_cfa_offset 16
	.cfi_offset %rbp, -16
	movq	%rsp, %rbp
	.cfi_def_cfa_register %rbp
	subq	$16, %rsp
	movl	$1, %edi
	movl	$12128, %esi            # imm = 0x2F60
	callq	calloc
	movq	%rax, -8(%rbp)
	cmpq	$0, -8(%rbp)
	jne	.LBB3_2
# %bb.1:                                # %if.then
	movabsq	$.L.str.1, %rdi
	callq	no_mem_exit
.LBB3_2:                                # %if.end
	movq	-8(%rbp), %rax
	addq	$16, %rsp
	popq	%rbp
	.cfi_def_cfa %rsp, 8
	retq
.Lfunc_end3:
	.size	create_contexts_TextureInfo, .Lfunc_end3-create_contexts_TextureInfo
	.cfi_endproc
                                        # -- End function
	.globl	delete_contexts_MotionInfo # -- Begin function delete_contexts_MotionInfo
	.p2align	4, 0x90
	.type	delete_contexts_MotionInfo,@function
delete_contexts_MotionInfo:             # @delete_contexts_MotionInfo
	.cfi_startproc
# %bb.0:                                # %entry
	pushq	%rbp
	.cfi_def_cfa_offset 16
	.cfi_offset %rbp, -16
	movq	%rsp, %rbp
	.cfi_def_cfa_register %rbp
	subq	$16, %rsp
	movq	%rdi, -8(%rbp)
	cmpq	$0, -8(%rbp)
	jne	.LBB4_2
# %bb.1:                                # %if.then
	jmp	.LBB4_3
.LBB4_2:                                # %if.end
	movq	-8(%rbp), %rdi
	callq	free
.LBB4_3:                                # %return
	addq	$16, %rsp
	popq	%rbp
	.cfi_def_cfa %rsp, 8
	retq
.Lfunc_end4:
	.size	delete_contexts_MotionInfo, .Lfunc_end4-delete_contexts_MotionInfo
	.cfi_endproc
                                        # -- End function
	.globl	delete_contexts_TextureInfo # -- Begin function delete_contexts_TextureInfo
	.p2align	4, 0x90
	.type	delete_contexts_TextureInfo,@function
delete_contexts_TextureInfo:            # @delete_contexts_TextureInfo
	.cfi_startproc
# %bb.0:                                # %entry
	pushq	%rbp
	.cfi_def_cfa_offset 16
	.cfi_offset %rbp, -16
	movq	%rsp, %rbp
	.cfi_def_cfa_register %rbp
	subq	$16, %rsp
	movq	%rdi, -8(%rbp)
	cmpq	$0, -8(%rbp)
	jne	.LBB5_2
# %bb.1:                                # %if.then
	jmp	.LBB5_3
.LBB5_2:                                # %if.end
	movq	-8(%rbp), %rdi
	callq	free
.LBB5_3:                                # %return
	addq	$16, %rsp
	popq	%rbp
	.cfi_def_cfa %rsp, 8
	retq
.Lfunc_end5:
	.size	delete_contexts_TextureInfo, .Lfunc_end5-delete_contexts_TextureInfo
	.cfi_endproc
                                        # -- End function
	.globl	writeSyntaxElement_CABAC # -- Begin function writeSyntaxElement_CABAC
	.p2align	4, 0x90
	.type	writeSyntaxElement_CABAC,@function
writeSyntaxElement_CABAC:               # @writeSyntaxElement_CABAC
	.cfi_startproc
# %bb.0:                                # %rand_bb
	pushq	%rbp
	.cfi_def_cfa_offset 16
	.cfi_offset %rbp, -16
	movq	%rsp, %rbp
	.cfi_def_cfa_register %rbp
	pushq	%r14
	pushq	%rbx
	.cfi_offset %rbx, -32
	.cfi_offset %r14, -24
	movq	%rsi, %r14
	movq	%rdi, %rbx
	callq	get_rand
	cmpl	$0, %eax
	jne	.LBB6_9
# %bb.1:                                # %func_writeSyntaxElement_CABAC.38
	movq	%rbx, %rdi
	movq	%r14, %rsi
	callq	writeSyntaxElement_CABAC.38
	popq	%rbx
	popq	%r14
	popq	%rbp
	.cfi_def_cfa %rsp, 8
	retq
.LBB6_2:                                # %func_writeSyntaxElement_CABAC.98
	.cfi_def_cfa %rbp, 16
	movq	%rbx, %rdi
	movq	%r14, %rsi
	callq	writeSyntaxElement_CABAC.98
	popq	%rbx
	popq	%r14
	popq	%rbp
	.cfi_def_cfa %rsp, 8
	retq
.LBB6_3:                                # %func_writeSyntaxElement_CABAC.142
	.cfi_def_cfa %rbp, 16
	movq	%rbx, %rdi
	movq	%r14, %rsi
	callq	writeSyntaxElement_CABAC.142
	popq	%rbx
	popq	%r14
	popq	%rbp
	.cfi_def_cfa %rsp, 8
	retq
.LBB6_4:                                # %func_writeSyntaxElement_CABAC.144
	.cfi_def_cfa %rbp, 16
	movq	%rbx, %rdi
	movq	%r14, %rsi
	callq	writeSyntaxElement_CABAC.144
	popq	%rbx
	popq	%r14
	popq	%rbp
	.cfi_def_cfa %rsp, 8
	retq
.LBB6_5:                                # %func_writeSyntaxElement_CABAC.146
	.cfi_def_cfa %rbp, 16
	movq	%rbx, %rdi
	movq	%r14, %rsi
	callq	writeSyntaxElement_CABAC.146
	popq	%rbx
	popq	%r14
	popq	%rbp
	.cfi_def_cfa %rsp, 8
	retq
.LBB6_6:                                # %func_writeSyntaxElement_CABAC.164
	.cfi_def_cfa %rbp, 16
	movq	%rbx, %rdi
	movq	%r14, %rsi
	callq	writeSyntaxElement_CABAC.164
	popq	%rbx
	popq	%r14
	popq	%rbp
	.cfi_def_cfa %rsp, 8
	retq
.LBB6_7:                                # %func_writeSyntaxElement_CABAC.170
	.cfi_def_cfa %rbp, 16
	movq	%rbx, %rdi
	movq	%r14, %rsi
	callq	writeSyntaxElement_CABAC.170
	popq	%rbx
	popq	%r14
	popq	%rbp
	.cfi_def_cfa %rsp, 8
	retq
.LBB6_8:                                # %func_writeSyntaxElement_CABAC.171
	.cfi_def_cfa %rbp, 16
	movq	%rbx, %rdi
	movq	%r14, %rsi
	callq	writeSyntaxElement_CABAC.171
	popq	%rbx
	popq	%r14
	popq	%rbp
	.cfi_def_cfa %rsp, 8
	retq
.LBB6_9:                                # %ctrl0
	.cfi_def_cfa %rbp, 16
	cmpl	$1, %eax
	je	.LBB6_2
# %bb.10:                               # %ctrl1
	cmpl	$2, %eax
	je	.LBB6_3
# %bb.11:                               # %ctrl2
	cmpl	$3, %eax
	je	.LBB6_4
# %bb.12:                               # %ctrl3
	cmpl	$4, %eax
	je	.LBB6_5
# %bb.13:                               # %ctrl4
	cmpl	$5, %eax
	je	.LBB6_6
# %bb.14:                               # %ctrl5
	cmpl	$6, %eax
	je	.LBB6_7
	jmp	.LBB6_8
.Lfunc_end6:
	.size	writeSyntaxElement_CABAC, .Lfunc_end6-writeSyntaxElement_CABAC
	.cfi_endproc
                                        # -- End function
	.globl	writeFieldModeInfo_CABAC # -- Begin function writeFieldModeInfo_CABAC
	.p2align	4, 0x90
	.type	writeFieldModeInfo_CABAC,@function
writeFieldModeInfo_CABAC:               # @writeFieldModeInfo_CABAC
	.cfi_startproc
# %bb.0:                                # %rand_bb
	pushq	%rbp
	.cfi_def_cfa_offset 16
	.cfi_offset %rbp, -16
	movq	%rsp, %rbp
	.cfi_def_cfa_register %rbp
	pushq	%r14
	pushq	%rbx
	.cfi_offset %rbx, -32
	.cfi_offset %r14, -24
	movq	%rsi, %r14
	movq	%rdi, %rbx
	callq	get_rand
	cmpl	$0, %eax
	jne	.LBB7_9
# %bb.1:                                # %func_writeFieldModeInfo_CABAC.33
	movq	%rbx, %rdi
	movq	%r14, %rsi
	callq	writeFieldModeInfo_CABAC.33
	popq	%rbx
	popq	%r14
	popq	%rbp
	.cfi_def_cfa %rsp, 8
	retq
.LBB7_2:                                # %func_writeFieldModeInfo_CABAC.34
	.cfi_def_cfa %rbp, 16
	movq	%rbx, %rdi
	movq	%r14, %rsi
	callq	writeFieldModeInfo_CABAC.34
	popq	%rbx
	popq	%r14
	popq	%rbp
	.cfi_def_cfa %rsp, 8
	retq
.LBB7_3:                                # %func_writeFieldModeInfo_CABAC.52
	.cfi_def_cfa %rbp, 16
	movq	%rbx, %rdi
	movq	%r14, %rsi
	callq	writeFieldModeInfo_CABAC.52
	popq	%rbx
	popq	%r14
	popq	%rbp
	.cfi_def_cfa %rsp, 8
	retq
.LBB7_4:                                # %func_writeFieldModeInfo_CABAC.58
	.cfi_def_cfa %rbp, 16
	movq	%rbx, %rdi
	movq	%r14, %rsi
	callq	writeFieldModeInfo_CABAC.58
	popq	%rbx
	popq	%r14
	popq	%rbp
	.cfi_def_cfa %rsp, 8
	retq
.LBB7_5:                                # %func_writeFieldModeInfo_CABAC.63
	.cfi_def_cfa %rbp, 16
	movq	%rbx, %rdi
	movq	%r14, %rsi
	callq	writeFieldModeInfo_CABAC.63
	popq	%rbx
	popq	%r14
	popq	%rbp
	.cfi_def_cfa %rsp, 8
	retq
.LBB7_6:                                # %func_writeFieldModeInfo_CABAC.91
	.cfi_def_cfa %rbp, 16
	movq	%rbx, %rdi
	movq	%r14, %rsi
	callq	writeFieldModeInfo_CABAC.91
	popq	%rbx
	popq	%r14
	popq	%rbp
	.cfi_def_cfa %rsp, 8
	retq
.LBB7_7:                                # %func_writeFieldModeInfo_CABAC.114
	.cfi_def_cfa %rbp, 16
	movq	%rbx, %rdi
	movq	%r14, %rsi
	callq	writeFieldModeInfo_CABAC.114
	popq	%rbx
	popq	%r14
	popq	%rbp
	.cfi_def_cfa %rsp, 8
	retq
.LBB7_8:                                # %func_writeFieldModeInfo_CABAC.117
	.cfi_def_cfa %rbp, 16
	movq	%rbx, %rdi
	movq	%r14, %rsi
	callq	writeFieldModeInfo_CABAC.117
	popq	%rbx
	popq	%r14
	popq	%rbp
	.cfi_def_cfa %rsp, 8
	retq
.LBB7_9:                                # %ctrl0
	.cfi_def_cfa %rbp, 16
	cmpl	$1, %eax
	je	.LBB7_2
# %bb.10:                               # %ctrl1
	cmpl	$2, %eax
	je	.LBB7_3
# %bb.11:                               # %ctrl2
	cmpl	$3, %eax
	je	.LBB7_4
# %bb.12:                               # %ctrl3
	cmpl	$4, %eax
	je	.LBB7_5
# %bb.13:                               # %ctrl4
	cmpl	$5, %eax
	je	.LBB7_6
# %bb.14:                               # %ctrl5
	cmpl	$6, %eax
	je	.LBB7_7
	jmp	.LBB7_8
.Lfunc_end7:
	.size	writeFieldModeInfo_CABAC, .Lfunc_end7-writeFieldModeInfo_CABAC
	.cfi_endproc
                                        # -- End function
	.globl	writeMB_skip_flagInfo_CABAC # -- Begin function writeMB_skip_flagInfo_CABAC
	.p2align	4, 0x90
	.type	writeMB_skip_flagInfo_CABAC,@function
writeMB_skip_flagInfo_CABAC:            # @writeMB_skip_flagInfo_CABAC
	.cfi_startproc
# %bb.0:                                # %rand_bb
	pushq	%rbp
	.cfi_def_cfa_offset 16
	.cfi_offset %rbp, -16
	movq	%rsp, %rbp
	.cfi_def_cfa_register %rbp
	pushq	%r14
	pushq	%rbx
	.cfi_offset %rbx, -32
	.cfi_offset %r14, -24
	movq	%rsi, %r14
	movq	%rdi, %rbx
	callq	get_rand
	cmpl	$0, %eax
	jne	.LBB8_9
# %bb.1:                                # %func_writeMB_skip_flagInfo_CABAC.13
	movq	%rbx, %rdi
	movq	%r14, %rsi
	callq	writeMB_skip_flagInfo_CABAC.13
	popq	%rbx
	popq	%r14
	popq	%rbp
	.cfi_def_cfa %rsp, 8
	retq
.LBB8_2:                                # %func_writeMB_skip_flagInfo_CABAC.26
	.cfi_def_cfa %rbp, 16
	movq	%rbx, %rdi
	movq	%r14, %rsi
	callq	writeMB_skip_flagInfo_CABAC.26
	popq	%rbx
	popq	%r14
	popq	%rbp
	.cfi_def_cfa %rsp, 8
	retq
.LBB8_3:                                # %func_writeMB_skip_flagInfo_CABAC.29
	.cfi_def_cfa %rbp, 16
	movq	%rbx, %rdi
	movq	%r14, %rsi
	callq	writeMB_skip_flagInfo_CABAC.29
	popq	%rbx
	popq	%r14
	popq	%rbp
	.cfi_def_cfa %rsp, 8
	retq
.LBB8_4:                                # %func_writeMB_skip_flagInfo_CABAC.70
	.cfi_def_cfa %rbp, 16
	movq	%rbx, %rdi
	movq	%r14, %rsi
	callq	writeMB_skip_flagInfo_CABAC.70
	popq	%rbx
	popq	%r14
	popq	%rbp
	.cfi_def_cfa %rsp, 8
	retq
.LBB8_5:                                # %func_writeMB_skip_flagInfo_CABAC.72
	.cfi_def_cfa %rbp, 16
	movq	%rbx, %rdi
	movq	%r14, %rsi
	callq	writeMB_skip_flagInfo_CABAC.72
	popq	%rbx
	popq	%r14
	popq	%rbp
	.cfi_def_cfa %rsp, 8
	retq
.LBB8_6:                                # %func_writeMB_skip_flagInfo_CABAC.74
	.cfi_def_cfa %rbp, 16
	movq	%rbx, %rdi
	movq	%r14, %rsi
	callq	writeMB_skip_flagInfo_CABAC.74
	popq	%rbx
	popq	%r14
	popq	%rbp
	.cfi_def_cfa %rsp, 8
	retq
.LBB8_7:                                # %func_writeMB_skip_flagInfo_CABAC.103
	.cfi_def_cfa %rbp, 16
	movq	%rbx, %rdi
	movq	%r14, %rsi
	callq	writeMB_skip_flagInfo_CABAC.103
	popq	%rbx
	popq	%r14
	popq	%rbp
	.cfi_def_cfa %rsp, 8
	retq
.LBB8_8:                                # %func_writeMB_skip_flagInfo_CABAC.106
	.cfi_def_cfa %rbp, 16
	movq	%rbx, %rdi
	movq	%r14, %rsi
	callq	writeMB_skip_flagInfo_CABAC.106
	popq	%rbx
	popq	%r14
	popq	%rbp
	.cfi_def_cfa %rsp, 8
	retq
.LBB8_9:                                # %ctrl0
	.cfi_def_cfa %rbp, 16
	cmpl	$1, %eax
	je	.LBB8_2
# %bb.10:                               # %ctrl1
	cmpl	$2, %eax
	je	.LBB8_3
# %bb.11:                               # %ctrl2
	cmpl	$3, %eax
	je	.LBB8_4
# %bb.12:                               # %ctrl3
	cmpl	$4, %eax
	je	.LBB8_5
# %bb.13:                               # %ctrl4
	cmpl	$5, %eax
	je	.LBB8_6
# %bb.14:                               # %ctrl5
	cmpl	$6, %eax
	je	.LBB8_7
	jmp	.LBB8_8
.Lfunc_end8:
	.size	writeMB_skip_flagInfo_CABAC, .Lfunc_end8-writeMB_skip_flagInfo_CABAC
	.cfi_endproc
                                        # -- End function
	.globl	writeMB_transform_size_CABAC # -- Begin function writeMB_transform_size_CABAC
	.p2align	4, 0x90
	.type	writeMB_transform_size_CABAC,@function
writeMB_transform_size_CABAC:           # @writeMB_transform_size_CABAC
	.cfi_startproc
# %bb.0:                                # %rand_bb
	pushq	%rbp
	.cfi_def_cfa_offset 16
	.cfi_offset %rbp, -16
	movq	%rsp, %rbp
	.cfi_def_cfa_register %rbp
	pushq	%r14
	pushq	%rbx
	.cfi_offset %rbx, -32
	.cfi_offset %r14, -24
	movq	%rsi, %r14
	movq	%rdi, %rbx
	callq	get_rand
	cmpl	$0, %eax
	jne	.LBB9_9
# %bb.1:                                # %func_writeMB_transform_size_CABAC.19
	movq	%rbx, %rdi
	movq	%r14, %rsi
	callq	writeMB_transform_size_CABAC.19
	popq	%rbx
	popq	%r14
	popq	%rbp
	.cfi_def_cfa %rsp, 8
	retq
.LBB9_2:                                # %func_writeMB_transform_size_CABAC.59
	.cfi_def_cfa %rbp, 16
	movq	%rbx, %rdi
	movq	%r14, %rsi
	callq	writeMB_transform_size_CABAC.59
	popq	%rbx
	popq	%r14
	popq	%rbp
	.cfi_def_cfa %rsp, 8
	retq
.LBB9_3:                                # %func_writeMB_transform_size_CABAC.71
	.cfi_def_cfa %rbp, 16
	movq	%rbx, %rdi
	movq	%r14, %rsi
	callq	writeMB_transform_size_CABAC.71
	popq	%rbx
	popq	%r14
	popq	%rbp
	.cfi_def_cfa %rsp, 8
	retq
.LBB9_4:                                # %func_writeMB_transform_size_CABAC.80
	.cfi_def_cfa %rbp, 16
	movq	%rbx, %rdi
	movq	%r14, %rsi
	callq	writeMB_transform_size_CABAC.80
	popq	%rbx
	popq	%r14
	popq	%rbp
	.cfi_def_cfa %rsp, 8
	retq
.LBB9_5:                                # %func_writeMB_transform_size_CABAC.135
	.cfi_def_cfa %rbp, 16
	movq	%rbx, %rdi
	movq	%r14, %rsi
	callq	writeMB_transform_size_CABAC.135
	popq	%rbx
	popq	%r14
	popq	%rbp
	.cfi_def_cfa %rsp, 8
	retq
.LBB9_6:                                # %func_writeMB_transform_size_CABAC.158
	.cfi_def_cfa %rbp, 16
	movq	%rbx, %rdi
	movq	%r14, %rsi
	callq	writeMB_transform_size_CABAC.158
	popq	%rbx
	popq	%r14
	popq	%rbp
	.cfi_def_cfa %rsp, 8
	retq
.LBB9_7:                                # %func_writeMB_transform_size_CABAC.162
	.cfi_def_cfa %rbp, 16
	movq	%rbx, %rdi
	movq	%r14, %rsi
	callq	writeMB_transform_size_CABAC.162
	popq	%rbx
	popq	%r14
	popq	%rbp
	.cfi_def_cfa %rsp, 8
	retq
.LBB9_8:                                # %func_writeMB_transform_size_CABAC.166
	.cfi_def_cfa %rbp, 16
	movq	%rbx, %rdi
	movq	%r14, %rsi
	callq	writeMB_transform_size_CABAC.166
	popq	%rbx
	popq	%r14
	popq	%rbp
	.cfi_def_cfa %rsp, 8
	retq
.LBB9_9:                                # %ctrl0
	.cfi_def_cfa %rbp, 16
	cmpl	$1, %eax
	je	.LBB9_2
# %bb.10:                               # %ctrl1
	cmpl	$2, %eax
	je	.LBB9_3
# %bb.11:                               # %ctrl2
	cmpl	$3, %eax
	je	.LBB9_4
# %bb.12:                               # %ctrl3
	cmpl	$4, %eax
	je	.LBB9_5
# %bb.13:                               # %ctrl4
	cmpl	$5, %eax
	je	.LBB9_6
# %bb.14:                               # %ctrl5
	cmpl	$6, %eax
	je	.LBB9_7
	jmp	.LBB9_8
.Lfunc_end9:
	.size	writeMB_transform_size_CABAC, .Lfunc_end9-writeMB_transform_size_CABAC
	.cfi_endproc
                                        # -- End function
	.globl	writeMB_typeInfo_CABAC  # -- Begin function writeMB_typeInfo_CABAC
	.p2align	4, 0x90
	.type	writeMB_typeInfo_CABAC,@function
writeMB_typeInfo_CABAC:                 # @writeMB_typeInfo_CABAC
	.cfi_startproc
# %bb.0:                                # %rand_bb
	pushq	%rbp
	.cfi_def_cfa_offset 16
	.cfi_offset %rbp, -16
	movq	%rsp, %rbp
	.cfi_def_cfa_register %rbp
	pushq	%r14
	pushq	%rbx
	.cfi_offset %rbx, -32
	.cfi_offset %r14, -24
	movq	%rsi, %r14
	movq	%rdi, %rbx
	callq	get_rand
	cmpl	$0, %eax
	jne	.LBB10_9
# %bb.1:                                # %func_writeMB_typeInfo_CABAC.9
	movq	%rbx, %rdi
	movq	%r14, %rsi
	callq	writeMB_typeInfo_CABAC.9
	popq	%rbx
	popq	%r14
	popq	%rbp
	.cfi_def_cfa %rsp, 8
	retq
.LBB10_2:                               # %func_writeMB_typeInfo_CABAC.23
	.cfi_def_cfa %rbp, 16
	movq	%rbx, %rdi
	movq	%r14, %rsi
	callq	writeMB_typeInfo_CABAC.23
	popq	%rbx
	popq	%r14
	popq	%rbp
	.cfi_def_cfa %rsp, 8
	retq
.LBB10_3:                               # %func_writeMB_typeInfo_CABAC.28
	.cfi_def_cfa %rbp, 16
	movq	%rbx, %rdi
	movq	%r14, %rsi
	callq	writeMB_typeInfo_CABAC.28
	popq	%rbx
	popq	%r14
	popq	%rbp
	.cfi_def_cfa %rsp, 8
	retq
.LBB10_4:                               # %func_writeMB_typeInfo_CABAC.56
	.cfi_def_cfa %rbp, 16
	movq	%rbx, %rdi
	movq	%r14, %rsi
	callq	writeMB_typeInfo_CABAC.56
	popq	%rbx
	popq	%r14
	popq	%rbp
	.cfi_def_cfa %rsp, 8
	retq
.LBB10_5:                               # %func_writeMB_typeInfo_CABAC.93
	.cfi_def_cfa %rbp, 16
	movq	%rbx, %rdi
	movq	%r14, %rsi
	callq	writeMB_typeInfo_CABAC.93
	popq	%rbx
	popq	%r14
	popq	%rbp
	.cfi_def_cfa %rsp, 8
	retq
.LBB10_6:                               # %func_writeMB_typeInfo_CABAC.95
	.cfi_def_cfa %rbp, 16
	movq	%rbx, %rdi
	movq	%r14, %rsi
	callq	writeMB_typeInfo_CABAC.95
	popq	%rbx
	popq	%r14
	popq	%rbp
	.cfi_def_cfa %rsp, 8
	retq
.LBB10_7:                               # %func_writeMB_typeInfo_CABAC.136
	.cfi_def_cfa %rbp, 16
	movq	%rbx, %rdi
	movq	%r14, %rsi
	callq	writeMB_typeInfo_CABAC.136
	popq	%rbx
	popq	%r14
	popq	%rbp
	.cfi_def_cfa %rsp, 8
	retq
.LBB10_8:                               # %func_writeMB_typeInfo_CABAC.151
	.cfi_def_cfa %rbp, 16
	movq	%rbx, %rdi
	movq	%r14, %rsi
	callq	writeMB_typeInfo_CABAC.151
	popq	%rbx
	popq	%r14
	popq	%rbp
	.cfi_def_cfa %rsp, 8
	retq
.LBB10_9:                               # %ctrl0
	.cfi_def_cfa %rbp, 16
	cmpl	$1, %eax
	je	.LBB10_2
# %bb.10:                               # %ctrl1
	cmpl	$2, %eax
	je	.LBB10_3
# %bb.11:                               # %ctrl2
	cmpl	$3, %eax
	je	.LBB10_4
# %bb.12:                               # %ctrl3
	cmpl	$4, %eax
	je	.LBB10_5
# %bb.13:                               # %ctrl4
	cmpl	$5, %eax
	je	.LBB10_6
# %bb.14:                               # %ctrl5
	cmpl	$6, %eax
	je	.LBB10_7
	jmp	.LBB10_8
.Lfunc_end10:
	.size	writeMB_typeInfo_CABAC, .Lfunc_end10-writeMB_typeInfo_CABAC
	.cfi_endproc
                                        # -- End function
	.globl	writeB8_typeInfo_CABAC  # -- Begin function writeB8_typeInfo_CABAC
	.p2align	4, 0x90
	.type	writeB8_typeInfo_CABAC,@function
writeB8_typeInfo_CABAC:                 # @writeB8_typeInfo_CABAC
	.cfi_startproc
# %bb.0:                                # %rand_bb
	pushq	%rbp
	.cfi_def_cfa_offset 16
	.cfi_offset %rbp, -16
	movq	%rsp, %rbp
	.cfi_def_cfa_register %rbp
	pushq	%r14
	pushq	%rbx
	.cfi_offset %rbx, -32
	.cfi_offset %r14, -24
	movq	%rsi, %r14
	movq	%rdi, %rbx
	callq	get_rand
	cmpl	$0, %eax
	jne	.LBB11_9
# %bb.1:                                # %func_writeB8_typeInfo_CABAC.86
	movq	%rbx, %rdi
	movq	%r14, %rsi
	callq	writeB8_typeInfo_CABAC.86
	popq	%rbx
	popq	%r14
	popq	%rbp
	.cfi_def_cfa %rsp, 8
	retq
.LBB11_2:                               # %func_writeB8_typeInfo_CABAC.99
	.cfi_def_cfa %rbp, 16
	movq	%rbx, %rdi
	movq	%r14, %rsi
	callq	writeB8_typeInfo_CABAC.99
	popq	%rbx
	popq	%r14
	popq	%rbp
	.cfi_def_cfa %rsp, 8
	retq
.LBB11_3:                               # %func_writeB8_typeInfo_CABAC.147
	.cfi_def_cfa %rbp, 16
	movq	%rbx, %rdi
	movq	%r14, %rsi
	callq	writeB8_typeInfo_CABAC.147
	popq	%rbx
	popq	%r14
	popq	%rbp
	.cfi_def_cfa %rsp, 8
	retq
.LBB11_4:                               # %func_writeB8_typeInfo_CABAC.150
	.cfi_def_cfa %rbp, 16
	movq	%rbx, %rdi
	movq	%r14, %rsi
	callq	writeB8_typeInfo_CABAC.150
	popq	%rbx
	popq	%r14
	popq	%rbp
	.cfi_def_cfa %rsp, 8
	retq
.LBB11_5:                               # %func_writeB8_typeInfo_CABAC.163
	.cfi_def_cfa %rbp, 16
	movq	%rbx, %rdi
	movq	%r14, %rsi
	callq	writeB8_typeInfo_CABAC.163
	popq	%rbx
	popq	%r14
	popq	%rbp
	.cfi_def_cfa %rsp, 8
	retq
.LBB11_6:                               # %func_writeB8_typeInfo_CABAC.168
	.cfi_def_cfa %rbp, 16
	movq	%rbx, %rdi
	movq	%r14, %rsi
	callq	writeB8_typeInfo_CABAC.168
	popq	%rbx
	popq	%r14
	popq	%rbp
	.cfi_def_cfa %rsp, 8
	retq
.LBB11_7:                               # %func_writeB8_typeInfo_CABAC.174
	.cfi_def_cfa %rbp, 16
	movq	%rbx, %rdi
	movq	%r14, %rsi
	callq	writeB8_typeInfo_CABAC.174
	popq	%rbx
	popq	%r14
	popq	%rbp
	.cfi_def_cfa %rsp, 8
	retq
.LBB11_8:                               # %func_writeB8_typeInfo_CABAC.176
	.cfi_def_cfa %rbp, 16
	movq	%rbx, %rdi
	movq	%r14, %rsi
	callq	writeB8_typeInfo_CABAC.176
	popq	%rbx
	popq	%r14
	popq	%rbp
	.cfi_def_cfa %rsp, 8
	retq
.LBB11_9:                               # %ctrl0
	.cfi_def_cfa %rbp, 16
	cmpl	$1, %eax
	je	.LBB11_2
# %bb.10:                               # %ctrl1
	cmpl	$2, %eax
	je	.LBB11_3
# %bb.11:                               # %ctrl2
	cmpl	$3, %eax
	je	.LBB11_4
# %bb.12:                               # %ctrl3
	cmpl	$4, %eax
	je	.LBB11_5
# %bb.13:                               # %ctrl4
	cmpl	$5, %eax
	je	.LBB11_6
# %bb.14:                               # %ctrl5
	cmpl	$6, %eax
	je	.LBB11_7
	jmp	.LBB11_8
.Lfunc_end11:
	.size	writeB8_typeInfo_CABAC, .Lfunc_end11-writeB8_typeInfo_CABAC
	.cfi_endproc
                                        # -- End function
	.globl	writeIntraPredMode_CABAC # -- Begin function writeIntraPredMode_CABAC
	.p2align	4, 0x90
	.type	writeIntraPredMode_CABAC,@function
writeIntraPredMode_CABAC:               # @writeIntraPredMode_CABAC
	.cfi_startproc
# %bb.0:                                # %rand_bb
	pushq	%rbp
	.cfi_def_cfa_offset 16
	.cfi_offset %rbp, -16
	movq	%rsp, %rbp
	.cfi_def_cfa_register %rbp
	pushq	%r14
	pushq	%rbx
	.cfi_offset %rbx, -32
	.cfi_offset %r14, -24
	movq	%rsi, %r14
	movq	%rdi, %rbx
	callq	get_rand
	cmpl	$0, %eax
	jne	.LBB12_7
# %bb.1:                                # %func_writeIntraPredMode_CABAC.5
	movq	%rbx, %rdi
	movq	%r14, %rsi
	callq	writeIntraPredMode_CABAC.5
	popq	%rbx
	popq	%r14
	popq	%rbp
	.cfi_def_cfa %rsp, 8
	retq
.LBB12_2:                               # %func_writeIntraPredMode_CABAC.8
	.cfi_def_cfa %rbp, 16
	movq	%rbx, %rdi
	movq	%r14, %rsi
	callq	writeIntraPredMode_CABAC.8
	popq	%rbx
	popq	%r14
	popq	%rbp
	.cfi_def_cfa %rsp, 8
	retq
.LBB12_3:                               # %func_writeIntraPredMode_CABAC.73
	.cfi_def_cfa %rbp, 16
	movq	%rbx, %rdi
	movq	%r14, %rsi
	callq	writeIntraPredMode_CABAC.73
	popq	%rbx
	popq	%r14
	popq	%rbp
	.cfi_def_cfa %rsp, 8
	retq
.LBB12_4:                               # %func_writeIntraPredMode_CABAC.83
	.cfi_def_cfa %rbp, 16
	movq	%rbx, %rdi
	movq	%r14, %rsi
	callq	writeIntraPredMode_CABAC.83
	popq	%rbx
	popq	%r14
	popq	%rbp
	.cfi_def_cfa %rsp, 8
	retq
.LBB12_5:                               # %func_writeIntraPredMode_CABAC.94
	.cfi_def_cfa %rbp, 16
	movq	%rbx, %rdi
	movq	%r14, %rsi
	callq	writeIntraPredMode_CABAC.94
	popq	%rbx
	popq	%r14
	popq	%rbp
	.cfi_def_cfa %rsp, 8
	retq
.LBB12_6:                               # %func_writeIntraPredMode_CABAC.148
	.cfi_def_cfa %rbp, 16
	movq	%rbx, %rdi
	movq	%r14, %rsi
	callq	writeIntraPredMode_CABAC.148
	popq	%rbx
	popq	%r14
	popq	%rbp
	.cfi_def_cfa %rsp, 8
	retq
.LBB12_7:                               # %ctrl0
	.cfi_def_cfa %rbp, 16
	cmpl	$1, %eax
	je	.LBB12_2
# %bb.8:                                # %ctrl1
	cmpl	$2, %eax
	je	.LBB12_3
# %bb.9:                                # %ctrl2
	cmpl	$3, %eax
	je	.LBB12_4
# %bb.10:                               # %ctrl3
	cmpl	$4, %eax
	je	.LBB12_5
	jmp	.LBB12_6
.Lfunc_end12:
	.size	writeIntraPredMode_CABAC, .Lfunc_end12-writeIntraPredMode_CABAC
	.cfi_endproc
                                        # -- End function
	.globl	writeRefFrame_CABAC     # -- Begin function writeRefFrame_CABAC
	.p2align	4, 0x90
	.type	writeRefFrame_CABAC,@function
writeRefFrame_CABAC:                    # @writeRefFrame_CABAC
	.cfi_startproc
# %bb.0:                                # %rand_bb
	pushq	%rbp
	.cfi_def_cfa_offset 16
	.cfi_offset %rbp, -16
	movq	%rsp, %rbp
	.cfi_def_cfa_register %rbp
	pushq	%r14
	pushq	%rbx
	.cfi_offset %rbx, -32
	.cfi_offset %r14, -24
	movq	%rsi, %r14
	movq	%rdi, %rbx
	callq	get_rand
	cmpl	$0, %eax
	jne	.LBB13_9
# %bb.1:                                # %func_writeRefFrame_CABAC.17
	movq	%rbx, %rdi
	movq	%r14, %rsi
	callq	writeRefFrame_CABAC.17
	popq	%rbx
	popq	%r14
	popq	%rbp
	.cfi_def_cfa %rsp, 8
	retq
.LBB13_2:                               # %func_writeRefFrame_CABAC.47
	.cfi_def_cfa %rbp, 16
	movq	%rbx, %rdi
	movq	%r14, %rsi
	callq	writeRefFrame_CABAC.47
	popq	%rbx
	popq	%r14
	popq	%rbp
	.cfi_def_cfa %rsp, 8
	retq
.LBB13_3:                               # %func_writeRefFrame_CABAC.53
	.cfi_def_cfa %rbp, 16
	movq	%rbx, %rdi
	movq	%r14, %rsi
	callq	writeRefFrame_CABAC.53
	popq	%rbx
	popq	%r14
	popq	%rbp
	.cfi_def_cfa %rsp, 8
	retq
.LBB13_4:                               # %func_writeRefFrame_CABAC.61
	.cfi_def_cfa %rbp, 16
	movq	%rbx, %rdi
	movq	%r14, %rsi
	callq	writeRefFrame_CABAC.61
	popq	%rbx
	popq	%r14
	popq	%rbp
	.cfi_def_cfa %rsp, 8
	retq
.LBB13_5:                               # %func_writeRefFrame_CABAC.107
	.cfi_def_cfa %rbp, 16
	movq	%rbx, %rdi
	movq	%r14, %rsi
	callq	writeRefFrame_CABAC.107
	popq	%rbx
	popq	%r14
	popq	%rbp
	.cfi_def_cfa %rsp, 8
	retq
.LBB13_6:                               # %func_writeRefFrame_CABAC.128
	.cfi_def_cfa %rbp, 16
	movq	%rbx, %rdi
	movq	%r14, %rsi
	callq	writeRefFrame_CABAC.128
	popq	%rbx
	popq	%r14
	popq	%rbp
	.cfi_def_cfa %rsp, 8
	retq
.LBB13_7:                               # %func_writeRefFrame_CABAC.140
	.cfi_def_cfa %rbp, 16
	movq	%rbx, %rdi
	movq	%r14, %rsi
	callq	writeRefFrame_CABAC.140
	popq	%rbx
	popq	%r14
	popq	%rbp
	.cfi_def_cfa %rsp, 8
	retq
.LBB13_8:                               # %func_writeRefFrame_CABAC.143
	.cfi_def_cfa %rbp, 16
	movq	%rbx, %rdi
	movq	%r14, %rsi
	callq	writeRefFrame_CABAC.143
	popq	%rbx
	popq	%r14
	popq	%rbp
	.cfi_def_cfa %rsp, 8
	retq
.LBB13_9:                               # %ctrl0
	.cfi_def_cfa %rbp, 16
	cmpl	$1, %eax
	je	.LBB13_2
# %bb.10:                               # %ctrl1
	cmpl	$2, %eax
	je	.LBB13_3
# %bb.11:                               # %ctrl2
	cmpl	$3, %eax
	je	.LBB13_4
# %bb.12:                               # %ctrl3
	cmpl	$4, %eax
	je	.LBB13_5
# %bb.13:                               # %ctrl4
	cmpl	$5, %eax
	je	.LBB13_6
# %bb.14:                               # %ctrl5
	cmpl	$6, %eax
	je	.LBB13_7
	jmp	.LBB13_8
.Lfunc_end13:
	.size	writeRefFrame_CABAC, .Lfunc_end13-writeRefFrame_CABAC
	.cfi_endproc
                                        # -- End function
	.globl	unary_bin_encode        # -- Begin function unary_bin_encode
	.p2align	4, 0x90
	.type	unary_bin_encode,@function
unary_bin_encode:                       # @unary_bin_encode
	.cfi_startproc
# %bb.0:                                # %rand_bb
	pushq	%rbp
	.cfi_def_cfa_offset 16
	.cfi_offset %rbp, -16
	movq	%rsp, %rbp
	.cfi_def_cfa_register %rbp
	pushq	%r15
	pushq	%r14
	pushq	%r12
	pushq	%rbx
	.cfi_offset %rbx, -48
	.cfi_offset %r12, -40
	.cfi_offset %r14, -32
	.cfi_offset %r15, -24
	movl	%ecx, %r14d
	movq	%rdx, %r15
	movl	%esi, %r12d
	movq	%rdi, %rbx
	callq	get_rand
	cmpl	$0, %eax
	jne	.LBB14_9
# %bb.1:                                # %func_unary_bin_encode.31
	movq	%rbx, %rdi
	movl	%r12d, %esi
	movq	%r15, %rdx
	movl	%r14d, %ecx
	callq	unary_bin_encode.31
	popq	%rbx
	popq	%r12
	popq	%r14
	popq	%r15
	popq	%rbp
	.cfi_def_cfa %rsp, 8
	retq
.LBB14_2:                               # %func_unary_bin_encode.37
	.cfi_def_cfa %rbp, 16
	movq	%rbx, %rdi
	movl	%r12d, %esi
	movq	%r15, %rdx
	movl	%r14d, %ecx
	callq	unary_bin_encode.37
	popq	%rbx
	popq	%r12
	popq	%r14
	popq	%r15
	popq	%rbp
	.cfi_def_cfa %rsp, 8
	retq
.LBB14_3:                               # %func_unary_bin_encode.42
	.cfi_def_cfa %rbp, 16
	movq	%rbx, %rdi
	movl	%r12d, %esi
	movq	%r15, %rdx
	movl	%r14d, %ecx
	callq	unary_bin_encode.42
	popq	%rbx
	popq	%r12
	popq	%r14
	popq	%r15
	popq	%rbp
	.cfi_def_cfa %rsp, 8
	retq
.LBB14_4:                               # %func_unary_bin_encode.55
	.cfi_def_cfa %rbp, 16
	movq	%rbx, %rdi
	movl	%r12d, %esi
	movq	%r15, %rdx
	movl	%r14d, %ecx
	callq	unary_bin_encode.55
	popq	%rbx
	popq	%r12
	popq	%r14
	popq	%r15
	popq	%rbp
	.cfi_def_cfa %rsp, 8
	retq
.LBB14_5:                               # %func_unary_bin_encode.84
	.cfi_def_cfa %rbp, 16
	movq	%rbx, %rdi
	movl	%r12d, %esi
	movq	%r15, %rdx
	movl	%r14d, %ecx
	callq	unary_bin_encode.84
	popq	%rbx
	popq	%r12
	popq	%r14
	popq	%r15
	popq	%rbp
	.cfi_def_cfa %rsp, 8
	retq
.LBB14_6:                               # %func_unary_bin_encode.90
	.cfi_def_cfa %rbp, 16
	movq	%rbx, %rdi
	movl	%r12d, %esi
	movq	%r15, %rdx
	movl	%r14d, %ecx
	callq	unary_bin_encode.90
	popq	%rbx
	popq	%r12
	popq	%r14
	popq	%r15
	popq	%rbp
	.cfi_def_cfa %rsp, 8
	retq
.LBB14_7:                               # %func_unary_bin_encode.102
	.cfi_def_cfa %rbp, 16
	movq	%rbx, %rdi
	movl	%r12d, %esi
	movq	%r15, %rdx
	movl	%r14d, %ecx
	callq	unary_bin_encode.102
	popq	%rbx
	popq	%r12
	popq	%r14
	popq	%r15
	popq	%rbp
	.cfi_def_cfa %rsp, 8
	retq
.LBB14_8:                               # %func_unary_bin_encode.108
	.cfi_def_cfa %rbp, 16
	movq	%rbx, %rdi
	movl	%r12d, %esi
	movq	%r15, %rdx
	movl	%r14d, %ecx
	callq	unary_bin_encode.108
	popq	%rbx
	popq	%r12
	popq	%r14
	popq	%r15
	popq	%rbp
	.cfi_def_cfa %rsp, 8
	retq
.LBB14_9:                               # %ctrl0
	.cfi_def_cfa %rbp, 16
	cmpl	$1, %eax
	je	.LBB14_2
# %bb.10:                               # %ctrl1
	cmpl	$2, %eax
	je	.LBB14_3
# %bb.11:                               # %ctrl2
	cmpl	$3, %eax
	je	.LBB14_4
# %bb.12:                               # %ctrl3
	cmpl	$4, %eax
	je	.LBB14_5
# %bb.13:                               # %ctrl4
	cmpl	$5, %eax
	je	.LBB14_6
# %bb.14:                               # %ctrl5
	cmpl	$6, %eax
	je	.LBB14_7
	jmp	.LBB14_8
.Lfunc_end14:
	.size	unary_bin_encode, .Lfunc_end14-unary_bin_encode
	.cfi_endproc
                                        # -- End function
	.globl	writeDquant_CABAC       # -- Begin function writeDquant_CABAC
	.p2align	4, 0x90
	.type	writeDquant_CABAC,@function
writeDquant_CABAC:                      # @writeDquant_CABAC
	.cfi_startproc
# %bb.0:                                # %rand_bb
	pushq	%rbp
	.cfi_def_cfa_offset 16
	.cfi_offset %rbp, -16
	movq	%rsp, %rbp
	.cfi_def_cfa_register %rbp
	pushq	%r14
	pushq	%rbx
	.cfi_offset %rbx, -32
	.cfi_offset %r14, -24
	movq	%rsi, %r14
	movq	%rdi, %rbx
	callq	get_rand
	cmpl	$0, %eax
	jne	.LBB15_9
# %bb.1:                                # %func_writeDquant_CABAC.36
	movq	%rbx, %rdi
	movq	%r14, %rsi
	callq	writeDquant_CABAC.36
	popq	%rbx
	popq	%r14
	popq	%rbp
	.cfi_def_cfa %rsp, 8
	retq
.LBB15_2:                               # %func_writeDquant_CABAC.44
	.cfi_def_cfa %rbp, 16
	movq	%rbx, %rdi
	movq	%r14, %rsi
	callq	writeDquant_CABAC.44
	popq	%rbx
	popq	%r14
	popq	%rbp
	.cfi_def_cfa %rsp, 8
	retq
.LBB15_3:                               # %func_writeDquant_CABAC.49
	.cfi_def_cfa %rbp, 16
	movq	%rbx, %rdi
	movq	%r14, %rsi
	callq	writeDquant_CABAC.49
	popq	%rbx
	popq	%r14
	popq	%rbp
	.cfi_def_cfa %rsp, 8
	retq
.LBB15_4:                               # %func_writeDquant_CABAC.54
	.cfi_def_cfa %rbp, 16
	movq	%rbx, %rdi
	movq	%r14, %rsi
	callq	writeDquant_CABAC.54
	popq	%rbx
	popq	%r14
	popq	%rbp
	.cfi_def_cfa %rsp, 8
	retq
.LBB15_5:                               # %func_writeDquant_CABAC.60
	.cfi_def_cfa %rbp, 16
	movq	%rbx, %rdi
	movq	%r14, %rsi
	callq	writeDquant_CABAC.60
	popq	%rbx
	popq	%r14
	popq	%rbp
	.cfi_def_cfa %rsp, 8
	retq
.LBB15_6:                               # %func_writeDquant_CABAC.65
	.cfi_def_cfa %rbp, 16
	movq	%rbx, %rdi
	movq	%r14, %rsi
	callq	writeDquant_CABAC.65
	popq	%rbx
	popq	%r14
	popq	%rbp
	.cfi_def_cfa %rsp, 8
	retq
.LBB15_7:                               # %func_writeDquant_CABAC.76
	.cfi_def_cfa %rbp, 16
	movq	%rbx, %rdi
	movq	%r14, %rsi
	callq	writeDquant_CABAC.76
	popq	%rbx
	popq	%r14
	popq	%rbp
	.cfi_def_cfa %rsp, 8
	retq
.LBB15_8:                               # %func_writeDquant_CABAC.89
	.cfi_def_cfa %rbp, 16
	movq	%rbx, %rdi
	movq	%r14, %rsi
	callq	writeDquant_CABAC.89
	popq	%rbx
	popq	%r14
	popq	%rbp
	.cfi_def_cfa %rsp, 8
	retq
.LBB15_9:                               # %ctrl0
	.cfi_def_cfa %rbp, 16
	cmpl	$1, %eax
	je	.LBB15_2
# %bb.10:                               # %ctrl1
	cmpl	$2, %eax
	je	.LBB15_3
# %bb.11:                               # %ctrl2
	cmpl	$3, %eax
	je	.LBB15_4
# %bb.12:                               # %ctrl3
	cmpl	$4, %eax
	je	.LBB15_5
# %bb.13:                               # %ctrl4
	cmpl	$5, %eax
	je	.LBB15_6
# %bb.14:                               # %ctrl5
	cmpl	$6, %eax
	je	.LBB15_7
	jmp	.LBB15_8
.Lfunc_end15:
	.size	writeDquant_CABAC, .Lfunc_end15-writeDquant_CABAC
	.cfi_endproc
                                        # -- End function
	.globl	writeMVD_CABAC          # -- Begin function writeMVD_CABAC
	.p2align	4, 0x90
	.type	writeMVD_CABAC,@function
writeMVD_CABAC:                         # @writeMVD_CABAC
	.cfi_startproc
# %bb.0:                                # %rand_bb
	pushq	%rbp
	.cfi_def_cfa_offset 16
	.cfi_offset %rbp, -16
	movq	%rsp, %rbp
	.cfi_def_cfa_register %rbp
	pushq	%r14
	pushq	%rbx
	.cfi_offset %rbx, -32
	.cfi_offset %r14, -24
	movq	%rsi, %r14
	movq	%rdi, %rbx
	callq	get_rand
	cmpl	$0, %eax
	jne	.LBB16_9
# %bb.1:                                # %func_writeMVD_CABAC.10
	movq	%rbx, %rdi
	movq	%r14, %rsi
	callq	writeMVD_CABAC.10
	popq	%rbx
	popq	%r14
	popq	%rbp
	.cfi_def_cfa %rsp, 8
	retq
.LBB16_2:                               # %func_writeMVD_CABAC.39
	.cfi_def_cfa %rbp, 16
	movq	%rbx, %rdi
	movq	%r14, %rsi
	callq	writeMVD_CABAC.39
	popq	%rbx
	popq	%r14
	popq	%rbp
	.cfi_def_cfa %rsp, 8
	retq
.LBB16_3:                               # %func_writeMVD_CABAC.51
	.cfi_def_cfa %rbp, 16
	movq	%rbx, %rdi
	movq	%r14, %rsi
	callq	writeMVD_CABAC.51
	popq	%rbx
	popq	%r14
	popq	%rbp
	.cfi_def_cfa %rsp, 8
	retq
.LBB16_4:                               # %func_writeMVD_CABAC.64
	.cfi_def_cfa %rbp, 16
	movq	%rbx, %rdi
	movq	%r14, %rsi
	callq	writeMVD_CABAC.64
	popq	%rbx
	popq	%r14
	popq	%rbp
	.cfi_def_cfa %rsp, 8
	retq
.LBB16_5:                               # %func_writeMVD_CABAC.125
	.cfi_def_cfa %rbp, 16
	movq	%rbx, %rdi
	movq	%r14, %rsi
	callq	writeMVD_CABAC.125
	popq	%rbx
	popq	%r14
	popq	%rbp
	.cfi_def_cfa %rsp, 8
	retq
.LBB16_6:                               # %func_writeMVD_CABAC.129
	.cfi_def_cfa %rbp, 16
	movq	%rbx, %rdi
	movq	%r14, %rsi
	callq	writeMVD_CABAC.129
	popq	%rbx
	popq	%r14
	popq	%rbp
	.cfi_def_cfa %rsp, 8
	retq
.LBB16_7:                               # %func_writeMVD_CABAC.141
	.cfi_def_cfa %rbp, 16
	movq	%rbx, %rdi
	movq	%r14, %rsi
	callq	writeMVD_CABAC.141
	popq	%rbx
	popq	%r14
	popq	%rbp
	.cfi_def_cfa %rsp, 8
	retq
.LBB16_8:                               # %func_writeMVD_CABAC.149
	.cfi_def_cfa %rbp, 16
	movq	%rbx, %rdi
	movq	%r14, %rsi
	callq	writeMVD_CABAC.149
	popq	%rbx
	popq	%r14
	popq	%rbp
	.cfi_def_cfa %rsp, 8
	retq
.LBB16_9:                               # %ctrl0
	.cfi_def_cfa %rbp, 16
	cmpl	$1, %eax
	je	.LBB16_2
# %bb.10:                               # %ctrl1
	cmpl	$2, %eax
	je	.LBB16_3
# %bb.11:                               # %ctrl2
	cmpl	$3, %eax
	je	.LBB16_4
# %bb.12:                               # %ctrl3
	cmpl	$4, %eax
	je	.LBB16_5
# %bb.13:                               # %ctrl4
	cmpl	$5, %eax
	je	.LBB16_6
# %bb.14:                               # %ctrl5
	cmpl	$6, %eax
	je	.LBB16_7
	jmp	.LBB16_8
.Lfunc_end16:
	.size	writeMVD_CABAC, .Lfunc_end16-writeMVD_CABAC
	.cfi_endproc
                                        # -- End function
	.globl	unary_exp_golomb_mv_encode # -- Begin function unary_exp_golomb_mv_encode
	.p2align	4, 0x90
	.type	unary_exp_golomb_mv_encode,@function
unary_exp_golomb_mv_encode:             # @unary_exp_golomb_mv_encode
	.cfi_startproc
# %bb.0:                                # %rand_bb
	pushq	%rbp
	.cfi_def_cfa_offset 16
	.cfi_offset %rbp, -16
	movq	%rsp, %rbp
	.cfi_def_cfa_register %rbp
	pushq	%r15
	pushq	%r14
	pushq	%r12
	pushq	%rbx
	.cfi_offset %rbx, -48
	.cfi_offset %r12, -40
	.cfi_offset %r14, -32
	.cfi_offset %r15, -24
	movl	%ecx, %r14d
	movq	%rdx, %r15
	movl	%esi, %r12d
	movq	%rdi, %rbx
	callq	get_rand
	cmpl	$0, %eax
	jne	.LBB17_9
# %bb.1:                                # %func_unary_exp_golomb_mv_encode.14
	movq	%rbx, %rdi
	movl	%r12d, %esi
	movq	%r15, %rdx
	movl	%r14d, %ecx
	callq	unary_exp_golomb_mv_encode.14
	popq	%rbx
	popq	%r12
	popq	%r14
	popq	%r15
	popq	%rbp
	.cfi_def_cfa %rsp, 8
	retq
.LBB17_2:                               # %func_unary_exp_golomb_mv_encode.30
	.cfi_def_cfa %rbp, 16
	movq	%rbx, %rdi
	movl	%r12d, %esi
	movq	%r15, %rdx
	movl	%r14d, %ecx
	callq	unary_exp_golomb_mv_encode.30
	popq	%rbx
	popq	%r12
	popq	%r14
	popq	%r15
	popq	%rbp
	.cfi_def_cfa %rsp, 8
	retq
.LBB17_3:                               # %func_unary_exp_golomb_mv_encode.50
	.cfi_def_cfa %rbp, 16
	movq	%rbx, %rdi
	movl	%r12d, %esi
	movq	%r15, %rdx
	movl	%r14d, %ecx
	callq	unary_exp_golomb_mv_encode.50
	popq	%rbx
	popq	%r12
	popq	%r14
	popq	%r15
	popq	%rbp
	.cfi_def_cfa %rsp, 8
	retq
.LBB17_4:                               # %func_unary_exp_golomb_mv_encode.138
	.cfi_def_cfa %rbp, 16
	movq	%rbx, %rdi
	movl	%r12d, %esi
	movq	%r15, %rdx
	movl	%r14d, %ecx
	callq	unary_exp_golomb_mv_encode.138
	popq	%rbx
	popq	%r12
	popq	%r14
	popq	%r15
	popq	%rbp
	.cfi_def_cfa %rsp, 8
	retq
.LBB17_5:                               # %func_unary_exp_golomb_mv_encode.154
	.cfi_def_cfa %rbp, 16
	movq	%rbx, %rdi
	movl	%r12d, %esi
	movq	%r15, %rdx
	movl	%r14d, %ecx
	callq	unary_exp_golomb_mv_encode.154
	popq	%rbx
	popq	%r12
	popq	%r14
	popq	%r15
	popq	%rbp
	.cfi_def_cfa %rsp, 8
	retq
.LBB17_6:                               # %func_unary_exp_golomb_mv_encode.156
	.cfi_def_cfa %rbp, 16
	movq	%rbx, %rdi
	movl	%r12d, %esi
	movq	%r15, %rdx
	movl	%r14d, %ecx
	callq	unary_exp_golomb_mv_encode.156
	popq	%rbx
	popq	%r12
	popq	%r14
	popq	%r15
	popq	%rbp
	.cfi_def_cfa %rsp, 8
	retq
.LBB17_7:                               # %func_unary_exp_golomb_mv_encode.169
	.cfi_def_cfa %rbp, 16
	movq	%rbx, %rdi
	movl	%r12d, %esi
	movq	%r15, %rdx
	movl	%r14d, %ecx
	callq	unary_exp_golomb_mv_encode.169
	popq	%rbx
	popq	%r12
	popq	%r14
	popq	%r15
	popq	%rbp
	.cfi_def_cfa %rsp, 8
	retq
.LBB17_8:                               # %func_unary_exp_golomb_mv_encode.177
	.cfi_def_cfa %rbp, 16
	movq	%rbx, %rdi
	movl	%r12d, %esi
	movq	%r15, %rdx
	movl	%r14d, %ecx
	callq	unary_exp_golomb_mv_encode.177
	popq	%rbx
	popq	%r12
	popq	%r14
	popq	%r15
	popq	%rbp
	.cfi_def_cfa %rsp, 8
	retq
.LBB17_9:                               # %ctrl0
	.cfi_def_cfa %rbp, 16
	cmpl	$1, %eax
	je	.LBB17_2
# %bb.10:                               # %ctrl1
	cmpl	$2, %eax
	je	.LBB17_3
# %bb.11:                               # %ctrl2
	cmpl	$3, %eax
	je	.LBB17_4
# %bb.12:                               # %ctrl3
	cmpl	$4, %eax
	je	.LBB17_5
# %bb.13:                               # %ctrl4
	cmpl	$5, %eax
	je	.LBB17_6
# %bb.14:                               # %ctrl5
	cmpl	$6, %eax
	je	.LBB17_7
	jmp	.LBB17_8
.Lfunc_end17:
	.size	unary_exp_golomb_mv_encode, .Lfunc_end17-unary_exp_golomb_mv_encode
	.cfi_endproc
                                        # -- End function
	.globl	writeCIPredMode_CABAC   # -- Begin function writeCIPredMode_CABAC
	.p2align	4, 0x90
	.type	writeCIPredMode_CABAC,@function
writeCIPredMode_CABAC:                  # @writeCIPredMode_CABAC
	.cfi_startproc
# %bb.0:                                # %rand_bb
	pushq	%rbp
	.cfi_def_cfa_offset 16
	.cfi_offset %rbp, -16
	movq	%rsp, %rbp
	.cfi_def_cfa_register %rbp
	pushq	%r14
	pushq	%rbx
	.cfi_offset %rbx, -32
	.cfi_offset %r14, -24
	movq	%rsi, %r14
	movq	%rdi, %rbx
	callq	get_rand
	cmpl	$0, %eax
	jne	.LBB18_9
# %bb.1:                                # %func_writeCIPredMode_CABAC.2
	movq	%rbx, %rdi
	movq	%r14, %rsi
	callq	writeCIPredMode_CABAC.2
	popq	%rbx
	popq	%r14
	popq	%rbp
	.cfi_def_cfa %rsp, 8
	retq
.LBB18_2:                               # %func_writeCIPredMode_CABAC.6
	.cfi_def_cfa %rbp, 16
	movq	%rbx, %rdi
	movq	%r14, %rsi
	callq	writeCIPredMode_CABAC.6
	popq	%rbx
	popq	%r14
	popq	%rbp
	.cfi_def_cfa %rsp, 8
	retq
.LBB18_3:                               # %func_writeCIPredMode_CABAC.12
	.cfi_def_cfa %rbp, 16
	movq	%rbx, %rdi
	movq	%r14, %rsi
	callq	writeCIPredMode_CABAC.12
	popq	%rbx
	popq	%r14
	popq	%rbp
	.cfi_def_cfa %rsp, 8
	retq
.LBB18_4:                               # %func_writeCIPredMode_CABAC.24
	.cfi_def_cfa %rbp, 16
	movq	%rbx, %rdi
	movq	%r14, %rsi
	callq	writeCIPredMode_CABAC.24
	popq	%rbx
	popq	%r14
	popq	%rbp
	.cfi_def_cfa %rsp, 8
	retq
.LBB18_5:                               # %func_writeCIPredMode_CABAC.41
	.cfi_def_cfa %rbp, 16
	movq	%rbx, %rdi
	movq	%r14, %rsi
	callq	writeCIPredMode_CABAC.41
	popq	%rbx
	popq	%r14
	popq	%rbp
	.cfi_def_cfa %rsp, 8
	retq
.LBB18_6:                               # %func_writeCIPredMode_CABAC.46
	.cfi_def_cfa %rbp, 16
	movq	%rbx, %rdi
	movq	%r14, %rsi
	callq	writeCIPredMode_CABAC.46
	popq	%rbx
	popq	%r14
	popq	%rbp
	.cfi_def_cfa %rsp, 8
	retq
.LBB18_7:                               # %func_writeCIPredMode_CABAC.57
	.cfi_def_cfa %rbp, 16
	movq	%rbx, %rdi
	movq	%r14, %rsi
	callq	writeCIPredMode_CABAC.57
	popq	%rbx
	popq	%r14
	popq	%rbp
	.cfi_def_cfa %rsp, 8
	retq
.LBB18_8:                               # %func_writeCIPredMode_CABAC.69
	.cfi_def_cfa %rbp, 16
	movq	%rbx, %rdi
	movq	%r14, %rsi
	callq	writeCIPredMode_CABAC.69
	popq	%rbx
	popq	%r14
	popq	%rbp
	.cfi_def_cfa %rsp, 8
	retq
.LBB18_9:                               # %ctrl0
	.cfi_def_cfa %rbp, 16
	cmpl	$1, %eax
	je	.LBB18_2
# %bb.10:                               # %ctrl1
	cmpl	$2, %eax
	je	.LBB18_3
# %bb.11:                               # %ctrl2
	cmpl	$3, %eax
	je	.LBB18_4
# %bb.12:                               # %ctrl3
	cmpl	$4, %eax
	je	.LBB18_5
# %bb.13:                               # %ctrl4
	cmpl	$5, %eax
	je	.LBB18_6
# %bb.14:                               # %ctrl5
	cmpl	$6, %eax
	je	.LBB18_7
	jmp	.LBB18_8
.Lfunc_end18:
	.size	writeCIPredMode_CABAC, .Lfunc_end18-writeCIPredMode_CABAC
	.cfi_endproc
                                        # -- End function
	.globl	unary_bin_max_encode    # -- Begin function unary_bin_max_encode
	.p2align	4, 0x90
	.type	unary_bin_max_encode,@function
unary_bin_max_encode:                   # @unary_bin_max_encode
	.cfi_startproc
# %bb.0:                                # %rand_bb
	pushq	%rbp
	.cfi_def_cfa_offset 16
	.cfi_offset %rbp, -16
	movq	%rsp, %rbp
	.cfi_def_cfa_register %rbp
	pushq	%r15
	pushq	%r14
	pushq	%r13
	pushq	%r12
	pushq	%rbx
	pushq	%rax
	.cfi_offset %rbx, -56
	.cfi_offset %r12, -48
	.cfi_offset %r13, -40
	.cfi_offset %r14, -32
	.cfi_offset %r15, -24
	movl	%r8d, %r14d
	movl	%ecx, %r15d
	movq	%rdx, %r12
	movl	%esi, %r13d
	movq	%rdi, %rbx
	callq	get_rand
	cmpl	$0, %eax
	jne	.LBB19_9
# %bb.1:                                # %func_unary_bin_max_encode.15
	movq	%rbx, %rdi
	movl	%r13d, %esi
	movq	%r12, %rdx
	movl	%r15d, %ecx
	movl	%r14d, %r8d
	callq	unary_bin_max_encode.15
	addq	$8, %rsp
	popq	%rbx
	popq	%r12
	popq	%r13
	popq	%r14
	popq	%r15
	popq	%rbp
	.cfi_def_cfa %rsp, 8
	retq
.LBB19_2:                               # %func_unary_bin_max_encode.40
	.cfi_def_cfa %rbp, 16
	movq	%rbx, %rdi
	movl	%r13d, %esi
	movq	%r12, %rdx
	movl	%r15d, %ecx
	movl	%r14d, %r8d
	callq	unary_bin_max_encode.40
	addq	$8, %rsp
	popq	%rbx
	popq	%r12
	popq	%r13
	popq	%r14
	popq	%r15
	popq	%rbp
	.cfi_def_cfa %rsp, 8
	retq
.LBB19_3:                               # %func_unary_bin_max_encode.62
	.cfi_def_cfa %rbp, 16
	movq	%rbx, %rdi
	movl	%r13d, %esi
	movq	%r12, %rdx
	movl	%r15d, %ecx
	movl	%r14d, %r8d
	callq	unary_bin_max_encode.62
	addq	$8, %rsp
	popq	%rbx
	popq	%r12
	popq	%r13
	popq	%r14
	popq	%r15
	popq	%rbp
	.cfi_def_cfa %rsp, 8
	retq
.LBB19_4:                               # %func_unary_bin_max_encode.79
	.cfi_def_cfa %rbp, 16
	movq	%rbx, %rdi
	movl	%r13d, %esi
	movq	%r12, %rdx
	movl	%r15d, %ecx
	movl	%r14d, %r8d
	callq	unary_bin_max_encode.79
	addq	$8, %rsp
	popq	%rbx
	popq	%r12
	popq	%r13
	popq	%r14
	popq	%r15
	popq	%rbp
	.cfi_def_cfa %rsp, 8
	retq
.LBB19_5:                               # %func_unary_bin_max_encode.109
	.cfi_def_cfa %rbp, 16
	movq	%rbx, %rdi
	movl	%r13d, %esi
	movq	%r12, %rdx
	movl	%r15d, %ecx
	movl	%r14d, %r8d
	callq	unary_bin_max_encode.109
	addq	$8, %rsp
	popq	%rbx
	popq	%r12
	popq	%r13
	popq	%r14
	popq	%r15
	popq	%rbp
	.cfi_def_cfa %rsp, 8
	retq
.LBB19_6:                               # %func_unary_bin_max_encode.111
	.cfi_def_cfa %rbp, 16
	movq	%rbx, %rdi
	movl	%r13d, %esi
	movq	%r12, %rdx
	movl	%r15d, %ecx
	movl	%r14d, %r8d
	callq	unary_bin_max_encode.111
	addq	$8, %rsp
	popq	%rbx
	popq	%r12
	popq	%r13
	popq	%r14
	popq	%r15
	popq	%rbp
	.cfi_def_cfa %rsp, 8
	retq
.LBB19_7:                               # %func_unary_bin_max_encode.119
	.cfi_def_cfa %rbp, 16
	movq	%rbx, %rdi
	movl	%r13d, %esi
	movq	%r12, %rdx
	movl	%r15d, %ecx
	movl	%r14d, %r8d
	callq	unary_bin_max_encode.119
	addq	$8, %rsp
	popq	%rbx
	popq	%r12
	popq	%r13
	popq	%r14
	popq	%r15
	popq	%rbp
	.cfi_def_cfa %rsp, 8
	retq
.LBB19_8:                               # %func_unary_bin_max_encode.123
	.cfi_def_cfa %rbp, 16
	movq	%rbx, %rdi
	movl	%r13d, %esi
	movq	%r12, %rdx
	movl	%r15d, %ecx
	movl	%r14d, %r8d
	callq	unary_bin_max_encode.123
	addq	$8, %rsp
	popq	%rbx
	popq	%r12
	popq	%r13
	popq	%r14
	popq	%r15
	popq	%rbp
	.cfi_def_cfa %rsp, 8
	retq
.LBB19_9:                               # %ctrl0
	.cfi_def_cfa %rbp, 16
	cmpl	$1, %eax
	je	.LBB19_2
# %bb.10:                               # %ctrl1
	cmpl	$2, %eax
	je	.LBB19_3
# %bb.11:                               # %ctrl2
	cmpl	$3, %eax
	je	.LBB19_4
# %bb.12:                               # %ctrl3
	cmpl	$4, %eax
	je	.LBB19_5
# %bb.13:                               # %ctrl4
	cmpl	$5, %eax
	je	.LBB19_6
# %bb.14:                               # %ctrl5
	cmpl	$6, %eax
	je	.LBB19_7
	jmp	.LBB19_8
.Lfunc_end19:
	.size	unary_bin_max_encode, .Lfunc_end19-unary_bin_max_encode
	.cfi_endproc
                                        # -- End function
	.globl	writeCBP_BIT_CABAC      # -- Begin function writeCBP_BIT_CABAC
	.p2align	4, 0x90
	.type	writeCBP_BIT_CABAC,@function
writeCBP_BIT_CABAC:                     # @writeCBP_BIT_CABAC
	.cfi_startproc
# %bb.0:                                # %rand_bb
	pushq	%rbp
	.cfi_def_cfa_offset 16
	.cfi_offset %rbp, -16
	movq	%rsp, %rbp
	.cfi_def_cfa_register %rbp
	pushq	%r15
	pushq	%r14
	pushq	%r13
	pushq	%r12
	pushq	%rbx
	pushq	%rax
	.cfi_offset %rbx, -56
	.cfi_offset %r12, -48
	.cfi_offset %r13, -40
	.cfi_offset %r14, -32
	.cfi_offset %r15, -24
	movq	%r9, -48(%rbp)          # 8-byte Spill
	movl	%r8d, %r12d
	movq	%rcx, %r13
	movl	%edx, %ebx
	movl	%esi, %r14d
	movl	%edi, %r15d
	callq	get_rand
	cmpl	$0, %eax
	jne	.LBB20_9
# %bb.1:                                # %func_writeCBP_BIT_CABAC.3
	movl	%r15d, %edi
	movl	%r14d, %esi
	movl	%ebx, %edx
	movq	%r13, %rcx
	movl	%r12d, %r8d
	movq	-48(%rbp), %r9          # 8-byte Reload
	callq	writeCBP_BIT_CABAC.3
	addq	$8, %rsp
	popq	%rbx
	popq	%r12
	popq	%r13
	popq	%r14
	popq	%r15
	popq	%rbp
	.cfi_def_cfa %rsp, 8
	retq
.LBB20_2:                               # %func_writeCBP_BIT_CABAC.7
	.cfi_def_cfa %rbp, 16
	movl	%r15d, %edi
	movl	%r14d, %esi
	movl	%ebx, %edx
	movq	%r13, %rcx
	movl	%r12d, %r8d
	callq	writeCBP_BIT_CABAC.7
	addq	$8, %rsp
	popq	%rbx
	popq	%r12
	popq	%r13
	popq	%r14
	popq	%r15
	popq	%rbp
	.cfi_def_cfa %rsp, 8
	retq
.LBB20_3:                               # %func_writeCBP_BIT_CABAC.27
	.cfi_def_cfa %rbp, 16
	movl	%r15d, %edi
	movl	%r14d, %esi
	movl	%ebx, %edx
	movq	%r13, %rcx
	movl	%r12d, %r8d
	callq	writeCBP_BIT_CABAC.27
	addq	$8, %rsp
	popq	%rbx
	popq	%r12
	popq	%r13
	popq	%r14
	popq	%r15
	popq	%rbp
	.cfi_def_cfa %rsp, 8
	retq
.LBB20_4:                               # %func_writeCBP_BIT_CABAC.32
	.cfi_def_cfa %rbp, 16
	movl	%r15d, %edi
	movl	%r14d, %esi
	movl	%ebx, %edx
	movq	%r13, %rcx
	movl	%r12d, %r8d
	callq	writeCBP_BIT_CABAC.32
	addq	$8, %rsp
	popq	%rbx
	popq	%r12
	popq	%r13
	popq	%r14
	popq	%r15
	popq	%rbp
	.cfi_def_cfa %rsp, 8
	retq
.LBB20_5:                               # %func_writeCBP_BIT_CABAC.35
	.cfi_def_cfa %rbp, 16
	movl	%r15d, %edi
	movl	%r14d, %esi
	movl	%ebx, %edx
	movq	%r13, %rcx
	movl	%r12d, %r8d
	callq	writeCBP_BIT_CABAC.35
	addq	$8, %rsp
	popq	%rbx
	popq	%r12
	popq	%r13
	popq	%r14
	popq	%r15
	popq	%rbp
	.cfi_def_cfa %rsp, 8
	retq
.LBB20_6:                               # %func_writeCBP_BIT_CABAC.45
	.cfi_def_cfa %rbp, 16
	movl	%r15d, %edi
	movl	%r14d, %esi
	movl	%ebx, %edx
	movq	%r13, %rcx
	movl	%r12d, %r8d
	callq	writeCBP_BIT_CABAC.45
	addq	$8, %rsp
	popq	%rbx
	popq	%r12
	popq	%r13
	popq	%r14
	popq	%r15
	popq	%rbp
	.cfi_def_cfa %rsp, 8
	retq
.LBB20_7:                               # %func_writeCBP_BIT_CABAC.67
	.cfi_def_cfa %rbp, 16
	callq	writeCBP_BIT_CABAC.67
	addq	$8, %rsp
	popq	%rbx
	popq	%r12
	popq	%r13
	popq	%r14
	popq	%r15
	popq	%rbp
	.cfi_def_cfa %rsp, 8
	retq
.LBB20_8:                               # %func_writeCBP_BIT_CABAC.112
	.cfi_def_cfa %rbp, 16
	callq	writeCBP_BIT_CABAC.112
	addq	$8, %rsp
	popq	%rbx
	popq	%r12
	popq	%r13
	popq	%r14
	popq	%r15
	popq	%rbp
	.cfi_def_cfa %rsp, 8
	retq
.LBB20_9:                               # %ctrl0
	.cfi_def_cfa %rbp, 16
	movq	-48(%rbp), %r9          # 8-byte Reload
	cmpl	$1, %eax
	je	.LBB20_2
# %bb.10:                               # %ctrl1
	cmpl	$2, %eax
	je	.LBB20_3
# %bb.11:                               # %ctrl2
	cmpl	$3, %eax
	je	.LBB20_4
# %bb.12:                               # %ctrl3
	cmpl	$4, %eax
	je	.LBB20_5
# %bb.13:                               # %ctrl4
	cmpl	$5, %eax
	je	.LBB20_6
# %bb.14:                               # %ctrl5
	cmpl	$6, %eax
	movl	%r12d, %r8d
	movq	%r13, %rcx
	movl	%ebx, %edx
	movl	%r14d, %esi
	movl	%r15d, %edi
	je	.LBB20_7
	jmp	.LBB20_8
.Lfunc_end20:
	.size	writeCBP_BIT_CABAC, .Lfunc_end20-writeCBP_BIT_CABAC
	.cfi_endproc
                                        # -- End function
	.globl	writeCBP_CABAC          # -- Begin function writeCBP_CABAC
	.p2align	4, 0x90
	.type	writeCBP_CABAC,@function
writeCBP_CABAC:                         # @writeCBP_CABAC
	.cfi_startproc
# %bb.0:                                # %rand_bb
	pushq	%rbp
	.cfi_def_cfa_offset 16
	.cfi_offset %rbp, -16
	movq	%rsp, %rbp
	.cfi_def_cfa_register %rbp
	pushq	%r14
	pushq	%rbx
	.cfi_offset %rbx, -32
	.cfi_offset %r14, -24
	movq	%rsi, %r14
	movq	%rdi, %rbx
	callq	get_rand
	cmpl	$0, %eax
	jne	.LBB21_9
# %bb.1:                                # %func_writeCBP_CABAC.20
	movq	%rbx, %rdi
	movq	%r14, %rsi
	callq	writeCBP_CABAC.20
	popq	%rbx
	popq	%r14
	popq	%rbp
	.cfi_def_cfa %rsp, 8
	retq
.LBB21_2:                               # %func_writeCBP_CABAC.88
	.cfi_def_cfa %rbp, 16
	movq	%rbx, %rdi
	movq	%r14, %rsi
	callq	writeCBP_CABAC.88
	popq	%rbx
	popq	%r14
	popq	%rbp
	.cfi_def_cfa %rsp, 8
	retq
.LBB21_3:                               # %func_writeCBP_CABAC.96
	.cfi_def_cfa %rbp, 16
	movq	%rbx, %rdi
	movq	%r14, %rsi
	callq	writeCBP_CABAC.96
	popq	%rbx
	popq	%r14
	popq	%rbp
	.cfi_def_cfa %rsp, 8
	retq
.LBB21_4:                               # %func_writeCBP_CABAC.113
	.cfi_def_cfa %rbp, 16
	movq	%rbx, %rdi
	movq	%r14, %rsi
	callq	writeCBP_CABAC.113
	popq	%rbx
	popq	%r14
	popq	%rbp
	.cfi_def_cfa %rsp, 8
	retq
.LBB21_5:                               # %func_writeCBP_CABAC.126
	.cfi_def_cfa %rbp, 16
	movq	%rbx, %rdi
	movq	%r14, %rsi
	callq	writeCBP_CABAC.126
	popq	%rbx
	popq	%r14
	popq	%rbp
	.cfi_def_cfa %rsp, 8
	retq
.LBB21_6:                               # %func_writeCBP_CABAC.153
	.cfi_def_cfa %rbp, 16
	movq	%rbx, %rdi
	movq	%r14, %rsi
	callq	writeCBP_CABAC.153
	popq	%rbx
	popq	%r14
	popq	%rbp
	.cfi_def_cfa %rsp, 8
	retq
.LBB21_7:                               # %func_writeCBP_CABAC.159
	.cfi_def_cfa %rbp, 16
	movq	%rbx, %rdi
	movq	%r14, %rsi
	callq	writeCBP_CABAC.159
	popq	%rbx
	popq	%r14
	popq	%rbp
	.cfi_def_cfa %rsp, 8
	retq
.LBB21_8:                               # %func_writeCBP_CABAC.173
	.cfi_def_cfa %rbp, 16
	movq	%rbx, %rdi
	movq	%r14, %rsi
	callq	writeCBP_CABAC.173
	popq	%rbx
	popq	%r14
	popq	%rbp
	.cfi_def_cfa %rsp, 8
	retq
.LBB21_9:                               # %ctrl0
	.cfi_def_cfa %rbp, 16
	cmpl	$1, %eax
	je	.LBB21_2
# %bb.10:                               # %ctrl1
	cmpl	$2, %eax
	je	.LBB21_3
# %bb.11:                               # %ctrl2
	cmpl	$3, %eax
	je	.LBB21_4
# %bb.12:                               # %ctrl3
	cmpl	$4, %eax
	je	.LBB21_5
# %bb.13:                               # %ctrl4
	cmpl	$5, %eax
	je	.LBB21_6
# %bb.14:                               # %ctrl5
	cmpl	$6, %eax
	je	.LBB21_7
	jmp	.LBB21_8
.Lfunc_end21:
	.size	writeCBP_CABAC, .Lfunc_end21-writeCBP_CABAC
	.cfi_endproc
                                        # -- End function
	.globl	write_and_store_CBP_block_bit # -- Begin function write_and_store_CBP_block_bit
	.p2align	4, 0x90
	.type	write_and_store_CBP_block_bit,@function
write_and_store_CBP_block_bit:          # @write_and_store_CBP_block_bit
	.cfi_startproc
# %bb.0:                                # %rand_bb
	pushq	%rbp
	.cfi_def_cfa_offset 16
	.cfi_offset %rbp, -16
	movq	%rsp, %rbp
	.cfi_def_cfa_register %rbp
	pushq	%r15
	pushq	%r14
	pushq	%r12
	pushq	%rbx
	.cfi_offset %rbx, -48
	.cfi_offset %r12, -40
	.cfi_offset %r14, -32
	.cfi_offset %r15, -24
	movl	%ecx, %r14d
	movl	%edx, %r15d
	movq	%rsi, %r12
	movq	%rdi, %rbx
	callq	get_rand
	cmpl	$0, %eax
	jne	.LBB22_9
# %bb.1:                                # %func_write_and_store_CBP_block_bit.48
	movq	%rbx, %rdi
	movq	%r12, %rsi
	movl	%r15d, %edx
	movl	%r14d, %ecx
	callq	write_and_store_CBP_block_bit.48
	popq	%rbx
	popq	%r12
	popq	%r14
	popq	%r15
	popq	%rbp
	.cfi_def_cfa %rsp, 8
	retq
.LBB22_2:                               # %func_write_and_store_CBP_block_bit.66
	.cfi_def_cfa %rbp, 16
	movq	%rbx, %rdi
	movq	%r12, %rsi
	movl	%r15d, %edx
	movl	%r14d, %ecx
	callq	write_and_store_CBP_block_bit.66
	popq	%rbx
	popq	%r12
	popq	%r14
	popq	%r15
	popq	%rbp
	.cfi_def_cfa %rsp, 8
	retq
.LBB22_3:                               # %func_write_and_store_CBP_block_bit.78
	.cfi_def_cfa %rbp, 16
	movq	%rbx, %rdi
	movq	%r12, %rsi
	movl	%r15d, %edx
	movl	%r14d, %ecx
	callq	write_and_store_CBP_block_bit.78
	popq	%rbx
	popq	%r12
	popq	%r14
	popq	%r15
	popq	%rbp
	.cfi_def_cfa %rsp, 8
	retq
.LBB22_4:                               # %func_write_and_store_CBP_block_bit.82
	.cfi_def_cfa %rbp, 16
	movq	%rbx, %rdi
	movq	%r12, %rsi
	movl	%r15d, %edx
	movl	%r14d, %ecx
	callq	write_and_store_CBP_block_bit.82
	popq	%rbx
	popq	%r12
	popq	%r14
	popq	%r15
	popq	%rbp
	.cfi_def_cfa %rsp, 8
	retq
.LBB22_5:                               # %func_write_and_store_CBP_block_bit.105
	.cfi_def_cfa %rbp, 16
	movq	%rbx, %rdi
	movq	%r12, %rsi
	movl	%r15d, %edx
	movl	%r14d, %ecx
	callq	write_and_store_CBP_block_bit.105
	popq	%rbx
	popq	%r12
	popq	%r14
	popq	%r15
	popq	%rbp
	.cfi_def_cfa %rsp, 8
	retq
.LBB22_6:                               # %func_write_and_store_CBP_block_bit.121
	.cfi_def_cfa %rbp, 16
	movq	%rbx, %rdi
	movq	%r12, %rsi
	movl	%r15d, %edx
	movl	%r14d, %ecx
	callq	write_and_store_CBP_block_bit.121
	popq	%rbx
	popq	%r12
	popq	%r14
	popq	%r15
	popq	%rbp
	.cfi_def_cfa %rsp, 8
	retq
.LBB22_7:                               # %func_write_and_store_CBP_block_bit.124
	.cfi_def_cfa %rbp, 16
	movq	%rbx, %rdi
	movq	%r12, %rsi
	movl	%r15d, %edx
	movl	%r14d, %ecx
	callq	write_and_store_CBP_block_bit.124
	popq	%rbx
	popq	%r12
	popq	%r14
	popq	%r15
	popq	%rbp
	.cfi_def_cfa %rsp, 8
	retq
.LBB22_8:                               # %func_write_and_store_CBP_block_bit.137
	.cfi_def_cfa %rbp, 16
	movq	%rbx, %rdi
	movq	%r12, %rsi
	movl	%r15d, %edx
	movl	%r14d, %ecx
	callq	write_and_store_CBP_block_bit.137
	popq	%rbx
	popq	%r12
	popq	%r14
	popq	%r15
	popq	%rbp
	.cfi_def_cfa %rsp, 8
	retq
.LBB22_9:                               # %ctrl0
	.cfi_def_cfa %rbp, 16
	cmpl	$1, %eax
	je	.LBB22_2
# %bb.10:                               # %ctrl1
	cmpl	$2, %eax
	je	.LBB22_3
# %bb.11:                               # %ctrl2
	cmpl	$3, %eax
	je	.LBB22_4
# %bb.12:                               # %ctrl3
	cmpl	$4, %eax
	je	.LBB22_5
# %bb.13:                               # %ctrl4
	cmpl	$5, %eax
	je	.LBB22_6
# %bb.14:                               # %ctrl5
	cmpl	$6, %eax
	je	.LBB22_7
	jmp	.LBB22_8
.Lfunc_end22:
	.size	write_and_store_CBP_block_bit, .Lfunc_end22-write_and_store_CBP_block_bit
	.cfi_endproc
                                        # -- End function
	.globl	write_significance_map  # -- Begin function write_significance_map
	.p2align	4, 0x90
	.type	write_significance_map,@function
write_significance_map:                 # @write_significance_map
	.cfi_startproc
# %bb.0:                                # %rand_bb
	pushq	%rbp
	.cfi_def_cfa_offset 16
	.cfi_offset %rbp, -16
	movq	%rsp, %rbp
	.cfi_def_cfa_register %rbp
	pushq	%r15
	pushq	%r14
	pushq	%r13
	pushq	%r12
	pushq	%rbx
	pushq	%rax
	.cfi_offset %rbx, -56
	.cfi_offset %r12, -48
	.cfi_offset %r13, -40
	.cfi_offset %r14, -32
	.cfi_offset %r15, -24
	movl	%r8d, %r14d
	movq	%rcx, %r15
	movl	%edx, %r12d
	movq	%rsi, %r13
	movq	%rdi, %rbx
	callq	get_rand
	cmpl	$0, %eax
	jne	.LBB23_9
# %bb.1:                                # %func_write_significance_map.1
	movq	%rbx, %rdi
	movq	%r13, %rsi
	movl	%r12d, %edx
	movq	%r15, %rcx
	movl	%r14d, %r8d
	callq	write_significance_map.1
	addq	$8, %rsp
	popq	%rbx
	popq	%r12
	popq	%r13
	popq	%r14
	popq	%r15
	popq	%rbp
	.cfi_def_cfa %rsp, 8
	retq
.LBB23_2:                               # %func_write_significance_map.92
	.cfi_def_cfa %rbp, 16
	movq	%rbx, %rdi
	movq	%r13, %rsi
	movl	%r12d, %edx
	movq	%r15, %rcx
	movl	%r14d, %r8d
	callq	write_significance_map.92
	addq	$8, %rsp
	popq	%rbx
	popq	%r12
	popq	%r13
	popq	%r14
	popq	%r15
	popq	%rbp
	.cfi_def_cfa %rsp, 8
	retq
.LBB23_3:                               # %func_write_significance_map.116
	.cfi_def_cfa %rbp, 16
	movq	%rbx, %rdi
	movq	%r13, %rsi
	movl	%r12d, %edx
	movq	%r15, %rcx
	movl	%r14d, %r8d
	callq	write_significance_map.116
	addq	$8, %rsp
	popq	%rbx
	popq	%r12
	popq	%r13
	popq	%r14
	popq	%r15
	popq	%rbp
	.cfi_def_cfa %rsp, 8
	retq
.LBB23_4:                               # %func_write_significance_map.118
	.cfi_def_cfa %rbp, 16
	movq	%rbx, %rdi
	movq	%r13, %rsi
	movl	%r12d, %edx
	movq	%r15, %rcx
	movl	%r14d, %r8d
	callq	write_significance_map.118
	addq	$8, %rsp
	popq	%rbx
	popq	%r12
	popq	%r13
	popq	%r14
	popq	%r15
	popq	%rbp
	.cfi_def_cfa %rsp, 8
	retq
.LBB23_5:                               # %func_write_significance_map.131
	.cfi_def_cfa %rbp, 16
	movq	%rbx, %rdi
	movq	%r13, %rsi
	movl	%r12d, %edx
	movq	%r15, %rcx
	movl	%r14d, %r8d
	callq	write_significance_map.131
	addq	$8, %rsp
	popq	%rbx
	popq	%r12
	popq	%r13
	popq	%r14
	popq	%r15
	popq	%rbp
	.cfi_def_cfa %rsp, 8
	retq
.LBB23_6:                               # %func_write_significance_map.133
	.cfi_def_cfa %rbp, 16
	movq	%rbx, %rdi
	movq	%r13, %rsi
	movl	%r12d, %edx
	movq	%r15, %rcx
	movl	%r14d, %r8d
	callq	write_significance_map.133
	addq	$8, %rsp
	popq	%rbx
	popq	%r12
	popq	%r13
	popq	%r14
	popq	%r15
	popq	%rbp
	.cfi_def_cfa %rsp, 8
	retq
.LBB23_7:                               # %func_write_significance_map.155
	.cfi_def_cfa %rbp, 16
	movq	%rbx, %rdi
	movq	%r13, %rsi
	movl	%r12d, %edx
	movq	%r15, %rcx
	movl	%r14d, %r8d
	callq	write_significance_map.155
	addq	$8, %rsp
	popq	%rbx
	popq	%r12
	popq	%r13
	popq	%r14
	popq	%r15
	popq	%rbp
	.cfi_def_cfa %rsp, 8
	retq
.LBB23_8:                               # %func_write_significance_map.161
	.cfi_def_cfa %rbp, 16
	movq	%rbx, %rdi
	movq	%r13, %rsi
	movl	%r12d, %edx
	movq	%r15, %rcx
	movl	%r14d, %r8d
	callq	write_significance_map.161
	addq	$8, %rsp
	popq	%rbx
	popq	%r12
	popq	%r13
	popq	%r14
	popq	%r15
	popq	%rbp
	.cfi_def_cfa %rsp, 8
	retq
.LBB23_9:                               # %ctrl0
	.cfi_def_cfa %rbp, 16
	cmpl	$1, %eax
	je	.LBB23_2
# %bb.10:                               # %ctrl1
	cmpl	$2, %eax
	je	.LBB23_3
# %bb.11:                               # %ctrl2
	cmpl	$3, %eax
	je	.LBB23_4
# %bb.12:                               # %ctrl3
	cmpl	$4, %eax
	je	.LBB23_5
# %bb.13:                               # %ctrl4
	cmpl	$5, %eax
	je	.LBB23_6
# %bb.14:                               # %ctrl5
	cmpl	$6, %eax
	je	.LBB23_7
	jmp	.LBB23_8
.Lfunc_end23:
	.size	write_significance_map, .Lfunc_end23-write_significance_map
	.cfi_endproc
                                        # -- End function
	.globl	write_significant_coefficients # -- Begin function write_significant_coefficients
	.p2align	4, 0x90
	.type	write_significant_coefficients,@function
write_significant_coefficients:         # @write_significant_coefficients
	.cfi_startproc
# %bb.0:                                # %rand_bb
	pushq	%rbp
	.cfi_def_cfa_offset 16
	.cfi_offset %rbp, -16
	movq	%rsp, %rbp
	.cfi_def_cfa_register %rbp
	pushq	%r15
	pushq	%r14
	pushq	%r12
	pushq	%rbx
	.cfi_offset %rbx, -48
	.cfi_offset %r12, -40
	.cfi_offset %r14, -32
	.cfi_offset %r15, -24
	movq	%rcx, %r14
	movl	%edx, %r15d
	movq	%rsi, %r12
	movq	%rdi, %rbx
	callq	get_rand
	cmpl	$0, %eax
	jne	.LBB24_9
# %bb.1:                                # %func_write_significant_coefficients.22
	movq	%rbx, %rdi
	movq	%r12, %rsi
	movl	%r15d, %edx
	movq	%r14, %rcx
	callq	write_significant_coefficients.22
	popq	%rbx
	popq	%r12
	popq	%r14
	popq	%r15
	popq	%rbp
	.cfi_def_cfa %rsp, 8
	retq
.LBB24_2:                               # %func_write_significant_coefficients.25
	.cfi_def_cfa %rbp, 16
	movq	%rbx, %rdi
	movq	%r12, %rsi
	movl	%r15d, %edx
	movq	%r14, %rcx
	callq	write_significant_coefficients.25
	popq	%rbx
	popq	%r12
	popq	%r14
	popq	%r15
	popq	%rbp
	.cfi_def_cfa %rsp, 8
	retq
.LBB24_3:                               # %func_write_significant_coefficients.68
	.cfi_def_cfa %rbp, 16
	movq	%rbx, %rdi
	movq	%r12, %rsi
	movl	%r15d, %edx
	movq	%r14, %rcx
	callq	write_significant_coefficients.68
	popq	%rbx
	popq	%r12
	popq	%r14
	popq	%r15
	popq	%rbp
	.cfi_def_cfa %rsp, 8
	retq
.LBB24_4:                               # %func_write_significant_coefficients.100
	.cfi_def_cfa %rbp, 16
	movq	%rbx, %rdi
	movq	%r12, %rsi
	movl	%r15d, %edx
	movq	%r14, %rcx
	callq	write_significant_coefficients.100
	popq	%rbx
	popq	%r12
	popq	%r14
	popq	%r15
	popq	%rbp
	.cfi_def_cfa %rsp, 8
	retq
.LBB24_5:                               # %func_write_significant_coefficients.132
	.cfi_def_cfa %rbp, 16
	movq	%rbx, %rdi
	movq	%r12, %rsi
	movl	%r15d, %edx
	movq	%r14, %rcx
	callq	write_significant_coefficients.132
	popq	%rbx
	popq	%r12
	popq	%r14
	popq	%r15
	popq	%rbp
	.cfi_def_cfa %rsp, 8
	retq
.LBB24_6:                               # %func_write_significant_coefficients.134
	.cfi_def_cfa %rbp, 16
	movq	%rbx, %rdi
	movq	%r12, %rsi
	movl	%r15d, %edx
	movq	%r14, %rcx
	callq	write_significant_coefficients.134
	popq	%rbx
	popq	%r12
	popq	%r14
	popq	%r15
	popq	%rbp
	.cfi_def_cfa %rsp, 8
	retq
.LBB24_7:                               # %func_write_significant_coefficients.165
	.cfi_def_cfa %rbp, 16
	movq	%rbx, %rdi
	movq	%r12, %rsi
	movl	%r15d, %edx
	movq	%r14, %rcx
	callq	write_significant_coefficients.165
	popq	%rbx
	popq	%r12
	popq	%r14
	popq	%r15
	popq	%rbp
	.cfi_def_cfa %rsp, 8
	retq
.LBB24_8:                               # %func_write_significant_coefficients.172
	.cfi_def_cfa %rbp, 16
	movq	%rbx, %rdi
	movq	%r12, %rsi
	movl	%r15d, %edx
	movq	%r14, %rcx
	callq	write_significant_coefficients.172
	popq	%rbx
	popq	%r12
	popq	%r14
	popq	%r15
	popq	%rbp
	.cfi_def_cfa %rsp, 8
	retq
.LBB24_9:                               # %ctrl0
	.cfi_def_cfa %rbp, 16
	cmpl	$1, %eax
	je	.LBB24_2
# %bb.10:                               # %ctrl1
	cmpl	$2, %eax
	je	.LBB24_3
# %bb.11:                               # %ctrl2
	cmpl	$3, %eax
	je	.LBB24_4
# %bb.12:                               # %ctrl3
	cmpl	$4, %eax
	je	.LBB24_5
# %bb.13:                               # %ctrl4
	cmpl	$5, %eax
	je	.LBB24_6
# %bb.14:                               # %ctrl5
	cmpl	$6, %eax
	je	.LBB24_7
	jmp	.LBB24_8
.Lfunc_end24:
	.size	write_significant_coefficients, .Lfunc_end24-write_significant_coefficients
	.cfi_endproc
                                        # -- End function
	.globl	unary_exp_golomb_level_encode # -- Begin function unary_exp_golomb_level_encode
	.p2align	4, 0x90
	.type	unary_exp_golomb_level_encode,@function
unary_exp_golomb_level_encode:          # @unary_exp_golomb_level_encode
	.cfi_startproc
# %bb.0:                                # %rand_bb
	pushq	%rbp
	.cfi_def_cfa_offset 16
	.cfi_offset %rbp, -16
	movq	%rsp, %rbp
	.cfi_def_cfa_register %rbp
	pushq	%r15
	pushq	%r14
	pushq	%rbx
	pushq	%rax
	.cfi_offset %rbx, -40
	.cfi_offset %r14, -32
	.cfi_offset %r15, -24
	movq	%rdx, %r14
	movl	%esi, %r15d
	movq	%rdi, %rbx
	callq	get_rand
	cmpl	$0, %eax
	jne	.LBB25_9
# %bb.1:                                # %func_unary_exp_golomb_level_encode.16
	movq	%rbx, %rdi
	movl	%r15d, %esi
	movq	%r14, %rdx
	callq	unary_exp_golomb_level_encode.16
	addq	$8, %rsp
	popq	%rbx
	popq	%r14
	popq	%r15
	popq	%rbp
	.cfi_def_cfa %rsp, 8
	retq
.LBB25_2:                               # %func_unary_exp_golomb_level_encode.18
	.cfi_def_cfa %rbp, 16
	movq	%rbx, %rdi
	movl	%r15d, %esi
	movq	%r14, %rdx
	callq	unary_exp_golomb_level_encode.18
	addq	$8, %rsp
	popq	%rbx
	popq	%r14
	popq	%r15
	popq	%rbp
	.cfi_def_cfa %rsp, 8
	retq
.LBB25_3:                               # %func_unary_exp_golomb_level_encode.85
	.cfi_def_cfa %rbp, 16
	movq	%rbx, %rdi
	movl	%r15d, %esi
	movq	%r14, %rdx
	callq	unary_exp_golomb_level_encode.85
	addq	$8, %rsp
	popq	%rbx
	popq	%r14
	popq	%r15
	popq	%rbp
	.cfi_def_cfa %rsp, 8
	retq
.LBB25_4:                               # %func_unary_exp_golomb_level_encode.104
	.cfi_def_cfa %rbp, 16
	movq	%rbx, %rdi
	movl	%r15d, %esi
	movq	%r14, %rdx
	callq	unary_exp_golomb_level_encode.104
	addq	$8, %rsp
	popq	%rbx
	popq	%r14
	popq	%r15
	popq	%rbp
	.cfi_def_cfa %rsp, 8
	retq
.LBB25_5:                               # %func_unary_exp_golomb_level_encode.127
	.cfi_def_cfa %rbp, 16
	movq	%rbx, %rdi
	movl	%r15d, %esi
	movq	%r14, %rdx
	callq	unary_exp_golomb_level_encode.127
	addq	$8, %rsp
	popq	%rbx
	popq	%r14
	popq	%r15
	popq	%rbp
	.cfi_def_cfa %rsp, 8
	retq
.LBB25_6:                               # %func_unary_exp_golomb_level_encode.145
	.cfi_def_cfa %rbp, 16
	movq	%rbx, %rdi
	movl	%r15d, %esi
	movq	%r14, %rdx
	callq	unary_exp_golomb_level_encode.145
	addq	$8, %rsp
	popq	%rbx
	popq	%r14
	popq	%r15
	popq	%rbp
	.cfi_def_cfa %rsp, 8
	retq
.LBB25_7:                               # %func_unary_exp_golomb_level_encode.152
	.cfi_def_cfa %rbp, 16
	movq	%rbx, %rdi
	movl	%r15d, %esi
	movq	%r14, %rdx
	callq	unary_exp_golomb_level_encode.152
	addq	$8, %rsp
	popq	%rbx
	popq	%r14
	popq	%r15
	popq	%rbp
	.cfi_def_cfa %rsp, 8
	retq
.LBB25_8:                               # %func_unary_exp_golomb_level_encode.160
	.cfi_def_cfa %rbp, 16
	movq	%rbx, %rdi
	movl	%r15d, %esi
	movq	%r14, %rdx
	callq	unary_exp_golomb_level_encode.160
	addq	$8, %rsp
	popq	%rbx
	popq	%r14
	popq	%r15
	popq	%rbp
	.cfi_def_cfa %rsp, 8
	retq
.LBB25_9:                               # %ctrl0
	.cfi_def_cfa %rbp, 16
	cmpl	$1, %eax
	je	.LBB25_2
# %bb.10:                               # %ctrl1
	cmpl	$2, %eax
	je	.LBB25_3
# %bb.11:                               # %ctrl2
	cmpl	$3, %eax
	je	.LBB25_4
# %bb.12:                               # %ctrl3
	cmpl	$4, %eax
	je	.LBB25_5
# %bb.13:                               # %ctrl4
	cmpl	$5, %eax
	je	.LBB25_6
# %bb.14:                               # %ctrl5
	cmpl	$6, %eax
	je	.LBB25_7
	jmp	.LBB25_8
.Lfunc_end25:
	.size	unary_exp_golomb_level_encode, .Lfunc_end25-unary_exp_golomb_level_encode
	.cfi_endproc
                                        # -- End function
	.globl	writeRunLevel_CABAC     # -- Begin function writeRunLevel_CABAC
	.p2align	4, 0x90
	.type	writeRunLevel_CABAC,@function
writeRunLevel_CABAC:                    # @writeRunLevel_CABAC
	.cfi_startproc
# %bb.0:                                # %rand_bb
	pushq	%rbp
	.cfi_def_cfa_offset 16
	.cfi_offset %rbp, -16
	movq	%rsp, %rbp
	.cfi_def_cfa_register %rbp
	pushq	%r14
	pushq	%rbx
	.cfi_offset %rbx, -32
	.cfi_offset %r14, -24
	movq	%rsi, %r14
	movq	%rdi, %rbx
	callq	get_rand
	cmpl	$0, %eax
	jne	.LBB26_9
# %bb.1:                                # %func_writeRunLevel_CABAC.11
	movq	%rbx, %rdi
	movq	%r14, %rsi
	callq	writeRunLevel_CABAC.11
	popq	%rbx
	popq	%r14
	popq	%rbp
	.cfi_def_cfa %rsp, 8
	retq
.LBB26_2:                               # %func_writeRunLevel_CABAC.21
	.cfi_def_cfa %rbp, 16
	movq	%rbx, %rdi
	movq	%r14, %rsi
	callq	writeRunLevel_CABAC.21
	popq	%rbx
	popq	%r14
	popq	%rbp
	.cfi_def_cfa %rsp, 8
	retq
.LBB26_3:                               # %func_writeRunLevel_CABAC.77
	.cfi_def_cfa %rbp, 16
	movq	%rbx, %rdi
	movq	%r14, %rsi
	callq	writeRunLevel_CABAC.77
	popq	%rbx
	popq	%r14
	popq	%rbp
	.cfi_def_cfa %rsp, 8
	retq
.LBB26_4:                               # %func_writeRunLevel_CABAC.115
	.cfi_def_cfa %rbp, 16
	movq	%rbx, %rdi
	movq	%r14, %rsi
	callq	writeRunLevel_CABAC.115
	popq	%rbx
	popq	%r14
	popq	%rbp
	.cfi_def_cfa %rsp, 8
	retq
.LBB26_5:                               # %func_writeRunLevel_CABAC.120
	.cfi_def_cfa %rbp, 16
	movq	%rbx, %rdi
	movq	%r14, %rsi
	callq	writeRunLevel_CABAC.120
	popq	%rbx
	popq	%r14
	popq	%rbp
	.cfi_def_cfa %rsp, 8
	retq
.LBB26_6:                               # %func_writeRunLevel_CABAC.122
	.cfi_def_cfa %rbp, 16
	movq	%rbx, %rdi
	movq	%r14, %rsi
	callq	writeRunLevel_CABAC.122
	popq	%rbx
	popq	%r14
	popq	%rbp
	.cfi_def_cfa %rsp, 8
	retq
.LBB26_7:                               # %func_writeRunLevel_CABAC.130
	.cfi_def_cfa %rbp, 16
	movq	%rbx, %rdi
	movq	%r14, %rsi
	callq	writeRunLevel_CABAC.130
	popq	%rbx
	popq	%r14
	popq	%rbp
	.cfi_def_cfa %rsp, 8
	retq
.LBB26_8:                               # %func_writeRunLevel_CABAC.178
	.cfi_def_cfa %rbp, 16
	movq	%rbx, %rdi
	movq	%r14, %rsi
	callq	writeRunLevel_CABAC.178
	popq	%rbx
	popq	%r14
	popq	%rbp
	.cfi_def_cfa %rsp, 8
	retq
.LBB26_9:                               # %ctrl0
	.cfi_def_cfa %rbp, 16
	cmpl	$1, %eax
	je	.LBB26_2
# %bb.10:                               # %ctrl1
	cmpl	$2, %eax
	je	.LBB26_3
# %bb.11:                               # %ctrl2
	cmpl	$3, %eax
	je	.LBB26_4
# %bb.12:                               # %ctrl3
	cmpl	$4, %eax
	je	.LBB26_5
# %bb.13:                               # %ctrl4
	cmpl	$5, %eax
	je	.LBB26_6
# %bb.14:                               # %ctrl5
	cmpl	$6, %eax
	je	.LBB26_7
	jmp	.LBB26_8
.Lfunc_end26:
	.size	writeRunLevel_CABAC, .Lfunc_end26-writeRunLevel_CABAC
	.cfi_endproc
                                        # -- End function
	.globl	exp_golomb_encode_eq_prob # -- Begin function exp_golomb_encode_eq_prob
	.p2align	4, 0x90
	.type	exp_golomb_encode_eq_prob,@function
exp_golomb_encode_eq_prob:              # @exp_golomb_encode_eq_prob
	.cfi_startproc
# %bb.0:                                # %rand_bb
	pushq	%rbp
	.cfi_def_cfa_offset 16
	.cfi_offset %rbp, -16
	movq	%rsp, %rbp
	.cfi_def_cfa_register %rbp
	pushq	%r15
	pushq	%r14
	pushq	%rbx
	pushq	%rax
	.cfi_offset %rbx, -40
	.cfi_offset %r14, -32
	.cfi_offset %r15, -24
	movl	%edx, %r14d
	movl	%esi, %r15d
	movq	%rdi, %rbx
	callq	get_rand
	cmpl	$0, %eax
	jne	.LBB27_7
# %bb.1:                                # %func_exp_golomb_encode_eq_prob.43
	movq	%rbx, %rdi
	movl	%r15d, %esi
	movl	%r14d, %edx
	callq	exp_golomb_encode_eq_prob.43
	addq	$8, %rsp
	popq	%rbx
	popq	%r14
	popq	%r15
	popq	%rbp
	.cfi_def_cfa %rsp, 8
	retq
.LBB27_2:                               # %func_exp_golomb_encode_eq_prob.75
	.cfi_def_cfa %rbp, 16
	movq	%rbx, %rdi
	movl	%r15d, %esi
	movl	%r14d, %edx
	callq	exp_golomb_encode_eq_prob.75
	addq	$8, %rsp
	popq	%rbx
	popq	%r14
	popq	%r15
	popq	%rbp
	.cfi_def_cfa %rsp, 8
	retq
.LBB27_3:                               # %func_exp_golomb_encode_eq_prob.81
	.cfi_def_cfa %rbp, 16
	movq	%rbx, %rdi
	movl	%r15d, %esi
	movl	%r14d, %edx
	callq	exp_golomb_encode_eq_prob.81
	addq	$8, %rsp
	popq	%rbx
	popq	%r14
	popq	%r15
	popq	%rbp
	.cfi_def_cfa %rsp, 8
	retq
.LBB27_4:                               # %func_exp_golomb_encode_eq_prob.87
	.cfi_def_cfa %rbp, 16
	movq	%rbx, %rdi
	movl	%r15d, %esi
	movl	%r14d, %edx
	callq	exp_golomb_encode_eq_prob.87
	addq	$8, %rsp
	popq	%rbx
	popq	%r14
	popq	%r15
	popq	%rbp
	.cfi_def_cfa %rsp, 8
	retq
.LBB27_5:                               # %func_exp_golomb_encode_eq_prob.97
	.cfi_def_cfa %rbp, 16
	movq	%rbx, %rdi
	movl	%r15d, %esi
	movl	%r14d, %edx
	callq	exp_golomb_encode_eq_prob.97
	addq	$8, %rsp
	popq	%rbx
	popq	%r14
	popq	%r15
	popq	%rbp
	.cfi_def_cfa %rsp, 8
	retq
.LBB27_6:                               # %func_exp_golomb_encode_eq_prob.110
	.cfi_def_cfa %rbp, 16
	movq	%rbx, %rdi
	movl	%r15d, %esi
	movl	%r14d, %edx
	callq	exp_golomb_encode_eq_prob.110
	addq	$8, %rsp
	popq	%rbx
	popq	%r14
	popq	%r15
	popq	%rbp
	.cfi_def_cfa %rsp, 8
	retq
.LBB27_7:                               # %ctrl0
	.cfi_def_cfa %rbp, 16
	cmpl	$1, %eax
	je	.LBB27_2
# %bb.8:                                # %ctrl1
	cmpl	$2, %eax
	je	.LBB27_3
# %bb.9:                                # %ctrl2
	cmpl	$3, %eax
	je	.LBB27_4
# %bb.10:                               # %ctrl3
	cmpl	$4, %eax
	je	.LBB27_5
	jmp	.LBB27_6
.Lfunc_end27:
	.size	exp_golomb_encode_eq_prob, .Lfunc_end27-exp_golomb_encode_eq_prob
	.cfi_endproc
                                        # -- End function
	.globl	write_significance_map.1 # -- Begin function write_significance_map.1
	.p2align	4, 0x90
	.type	write_significance_map.1,@function
write_significance_map.1:               # @write_significance_map.1
	.cfi_startproc
# %bb.0:                                # %entry
	pushq	%rbp
	.cfi_def_cfa_offset 16
	.cfi_offset %rbp, -16
	movq	%rsp, %rbp
	.cfi_def_cfa_register %rbp
	subq	$80, %rsp
	movl	$341284540, -52(%rbp)   # imm = 0x145796BC
	movq	%rdi, -72(%rbp)
	movq	%rsi, -40(%rbp)
	movl	%edx, -8(%rbp)
	movq	%rcx, -48(%rbp)
	movl	%r8d, -28(%rbp)
	movl	$0, -20(%rbp)
	movslq	-8(%rbp), %rax
	movl	maxpos(,%rax,4), %eax
	subl	$1, %eax
	movl	%eax, -16(%rbp)
	movq	img, %rax
	cmpl	$0, 28(%rax)
	movb	$1, %al
	jne	.LBB28_2
# %bb.1:                                # %lor.rhs
	movq	-72(%rbp), %rax
	cmpl	$0, 532(%rax)
	setne	%al
.LBB28_2:                               # %lor.end
	andb	$1, %al
	movzbl	%al, %eax
	movl	%eax, -24(%rbp)
	cmpl	$0, -24(%rbp)
	je	.LBB28_4
# %bb.3:                                # %cond.true
	movq	img, %rax
	movq	14160(%rax), %rax
	movq	40(%rax), %rax
	addq	$7328, %rax             # imm = 0x1CA0
	movslq	-8(%rbp), %rcx
	movslq	type2ctx_map(,%rcx,4), %rcx
	imulq	$240, %rcx, %rcx
	addq	%rcx, %rax
	jmp	.LBB28_5
.LBB28_4:                               # %cond.false
	movq	img, %rax
	movq	14160(%rax), %rax
	movq	40(%rax), %rax
	addq	$928, %rax              # imm = 0x3A0
	movslq	-8(%rbp), %rcx
	movslq	type2ctx_map(,%rcx,4), %rcx
	imulq	$240, %rcx, %rcx
	addq	%rcx, %rax
.LBB28_5:                               # %cond.end
	movq	%rax, -64(%rbp)
	cmpl	$0, -24(%rbp)
	je	.LBB28_7
# %bb.6:                                # %cond.true14
	movq	img, %rax
	movq	14160(%rax), %rax
	movq	40(%rax), %rax
	addq	$9728, %rax             # imm = 0x2600
	movslq	-8(%rbp), %rcx
	movslq	type2ctx_last(,%rcx,4), %rcx
	imulq	$240, %rcx, %rcx
	addq	%rcx, %rax
	jmp	.LBB28_8
.LBB28_7:                               # %cond.false22
	movq	img, %rax
	movq	14160(%rax), %rax
	movq	40(%rax), %rax
	addq	$3328, %rax             # imm = 0xD00
	movslq	-8(%rbp), %rcx
	movslq	type2ctx_last(,%rcx,4), %rcx
	imulq	$240, %rcx, %rcx
	addq	%rcx, %rax
.LBB28_8:                               # %cond.end30
	movq	%rax, -80(%rbp)
	movslq	-8(%rbp), %rax
	cmpl	$0, c1isdc(,%rax,4)
	jne	.LBB28_10
# %bb.9:                                # %if.then
	movl	-20(%rbp), %eax
	addl	$1, %eax
	movl	%eax, -20(%rbp)
	movl	-16(%rbp), %eax
	addl	$1, %eax
	movl	%eax, -16(%rbp)
	movq	-48(%rbp), %rax
	addq	$-4, %rax
	movq	%rax, -48(%rbp)
.LBB28_10:                              # %if.end
	movl	-20(%rbp), %eax
	movw	%ax, -2(%rbp)
.LBB28_11:                              # %for.cond
                                        # =>This Inner Loop Header: Depth=1
	movswl	-2(%rbp), %eax
	cmpl	-16(%rbp), %eax
	jge	.LBB28_22
# %bb.12:                               # %for.body
                                        #   in Loop: Header=BB28_11 Depth=1
	xorl	%eax, %eax
	movq	-48(%rbp), %rcx
	movswq	-2(%rbp), %rdx
	movl	(%rcx,%rdx,4), %ecx
	cmpl	$0, %ecx
	movl	$1, %ecx
	cmovnel	%ecx, %eax
	movw	%ax, -10(%rbp)
	movq	img, %rax
	cmpl	$0, 28(%rax)
	jne	.LBB28_14
# %bb.13:                               # %lor.lhs.false
                                        #   in Loop: Header=BB28_11 Depth=1
	movq	-72(%rbp), %rax
	cmpl	$0, 532(%rax)
	je	.LBB28_15
.LBB28_14:                              # %if.then50
                                        #   in Loop: Header=BB28_11 Depth=1
	movq	-40(%rbp), %rdi
	movw	-10(%rbp), %ax
	movq	-64(%rbp), %rdx
	movslq	-8(%rbp), %rcx
	movq	pos2ctx_map_int(,%rcx,8), %rcx
	movswq	-2(%rbp), %rsi
	movslq	(%rcx,%rsi,4), %rcx
	shlq	$4, %rcx
	addq	%rcx, %rdx
	movswl	%ax, %esi
	callq	biari_encode_symbol
	jmp	.LBB28_16
.LBB28_15:                              # %if.else
                                        #   in Loop: Header=BB28_11 Depth=1
	movq	-40(%rbp), %rdi
	movw	-10(%rbp), %ax
	movq	-64(%rbp), %rdx
	movslq	-8(%rbp), %rcx
	movq	pos2ctx_map(,%rcx,8), %rcx
	movswq	-2(%rbp), %rsi
	movslq	(%rcx,%rsi,4), %rcx
	shlq	$4, %rcx
	addq	%rcx, %rdx
	movswl	%ax, %esi
	callq	biari_encode_symbol
.LBB28_16:                              # %if.end61
                                        #   in Loop: Header=BB28_11 Depth=1
	cmpw	$0, -10(%rbp)
	je	.LBB28_20
# %bb.17:                               # %if.then63
                                        #   in Loop: Header=BB28_11 Depth=1
	xorl	%eax, %eax
	movl	-28(%rbp), %ecx
	addl	$-1, %ecx
	movl	%ecx, -28(%rbp)
	cmpl	$0, %ecx
	movl	$1, %ecx
	cmovel	%ecx, %eax
	movw	%ax, -12(%rbp)
	movq	-40(%rbp), %rdi
	movw	-12(%rbp), %ax
	movq	-80(%rbp), %rdx
	movslq	-8(%rbp), %rcx
	movq	pos2ctx_last(,%rcx,8), %rcx
	movswq	-2(%rbp), %rsi
	movslq	(%rcx,%rsi,4), %rcx
	shlq	$4, %rcx
	addq	%rcx, %rdx
	movswl	%ax, %esi
	callq	biari_encode_symbol
	cmpw	$0, -12(%rbp)
	je	.LBB28_19
# %bb.18:                               # %if.then75
	jmp	.LBB28_23
.LBB28_19:                              # %if.end76
                                        #   in Loop: Header=BB28_11 Depth=1
	jmp	.LBB28_20
.LBB28_20:                              # %if.end77
                                        #   in Loop: Header=BB28_11 Depth=1
	jmp	.LBB28_21
.LBB28_21:                              # %for.inc
                                        #   in Loop: Header=BB28_11 Depth=1
	movw	-2(%rbp), %ax
	addw	$1, %ax
	movw	%ax, -2(%rbp)
	jmp	.LBB28_11
.LBB28_22:                              # %for.end.loopexit
	jmp	.LBB28_23
.LBB28_23:                              # %for.end
	cmpl	$341284540, -52(%rbp)   # imm = 0x145796BC
	jne	.LBB28_25
.LBB28_24:
	addq	$80, %rsp
	popq	%rbp
	.cfi_def_cfa %rsp, 8
	retq
.LBB28_25:                              # %func_exit
	.cfi_def_cfa %rbp, 16
	callq	detect_breach
	jmp	.LBB28_24
.Lfunc_end28:
	.size	write_significance_map.1, .Lfunc_end28-write_significance_map.1
	.cfi_endproc
                                        # -- End function
	.globl	writeCIPredMode_CABAC.2 # -- Begin function writeCIPredMode_CABAC.2
	.p2align	4, 0x90
	.type	writeCIPredMode_CABAC.2,@function
writeCIPredMode_CABAC.2:                # @writeCIPredMode_CABAC.2
	.cfi_startproc
# %bb.0:                                # %entry
	pushq	%rbp
	.cfi_def_cfa_offset 16
	.cfi_offset %rbp, -16
	movq	%rsp, %rbp
	.cfi_def_cfa_register %rbp
	subq	$64, %rsp
	movl	$1239958704, -44(%rbp)  # imm = 0x49E844B0
	movq	%rdi, -56(%rbp)
	movq	%rsi, -32(%rbp)
	movq	img, %rax
	movq	14160(%rax), %rax
	movq	40(%rax), %rax
	movq	%rax, -40(%rbp)
	movq	img, %rax
	movq	14168(%rax), %rax
	movq	img, %rcx
	movslq	12(%rcx), %rcx
	imulq	$632, %rcx, %rcx        # imm = 0x278
	addq	%rcx, %rax
	movq	%rax, -24(%rbp)
	movq	-56(%rbp), %rax
	movl	4(%rax), %eax
	movl	%eax, -8(%rbp)
	movq	-24(%rbp), %rax
	cmpq	$0, 56(%rax)
	jne	.LBB29_2
# %bb.1:                                # %if.then
	movl	$0, -12(%rbp)
	jmp	.LBB29_3
.LBB29_2:                               # %if.else
	xorl	%eax, %eax
	movq	-24(%rbp), %rcx
	movq	56(%rcx), %rcx
	movl	524(%rcx), %ecx
	cmpl	$0, %ecx
	movl	$1, %ecx
	cmovnel	%ecx, %eax
	movl	%eax, -12(%rbp)
.LBB29_3:                               # %if.end
	movq	-24(%rbp), %rax
	cmpq	$0, 64(%rax)
	jne	.LBB29_5
# %bb.4:                                # %if.then4
	movl	$0, -4(%rbp)
	jmp	.LBB29_6
.LBB29_5:                               # %if.else5
	xorl	%eax, %eax
	movq	-24(%rbp), %rcx
	movq	64(%rcx), %rcx
	movl	524(%rcx), %ecx
	cmpl	$0, %ecx
	movl	$1, %ecx
	cmovnel	%ecx, %eax
	movl	%eax, -4(%rbp)
.LBB29_6:                               # %if.end10
	movl	-4(%rbp), %eax
	addl	-12(%rbp), %eax
	movl	%eax, -16(%rbp)
	cmpl	$0, -8(%rbp)
	jne	.LBB29_8
# %bb.7:                                # %if.then12
	movq	-32(%rbp), %rdi
	movq	-40(%rbp), %rdx
	addq	$32, %rdx
	movslq	-16(%rbp), %rax
	shlq	$4, %rax
	addq	%rax, %rdx
	xorl	%esi, %esi
	callq	biari_encode_symbol
	jmp	.LBB29_9
.LBB29_8:                               # %if.else13
	movq	-32(%rbp), %rdi
	movq	-40(%rbp), %rdx
	addq	$32, %rdx
	movslq	-16(%rbp), %rax
	shlq	$4, %rax
	addq	%rax, %rdx
	movl	$1, %esi
	callq	biari_encode_symbol
	movq	-32(%rbp), %rdi
	movl	-8(%rbp), %esi
	subl	$1, %esi
	movq	-40(%rbp), %rdx
	addq	$32, %rdx
	addq	$48, %rdx
	xorl	%ecx, %ecx
	movl	$2, %r8d
	callq	unary_bin_max_encode
.LBB29_9:                               # %if.end21
	cmpl	$1239958704, -44(%rbp)  # imm = 0x49E844B0
	jne	.LBB29_11
.LBB29_10:
	addq	$64, %rsp
	popq	%rbp
	.cfi_def_cfa %rsp, 8
	retq
.LBB29_11:                              # %func_exit
	.cfi_def_cfa %rbp, 16
	callq	detect_breach
	jmp	.LBB29_10
.Lfunc_end29:
	.size	writeCIPredMode_CABAC.2, .Lfunc_end29-writeCIPredMode_CABAC.2
	.cfi_endproc
                                        # -- End function
	.globl	writeCBP_BIT_CABAC.3    # -- Begin function writeCBP_BIT_CABAC.3
	.p2align	4, 0x90
	.type	writeCBP_BIT_CABAC.3,@function
writeCBP_BIT_CABAC.3:                   # @writeCBP_BIT_CABAC.3
	.cfi_startproc
# %bb.0:                                # %entry
	pushq	%rbp
	.cfi_def_cfa_offset 16
	.cfi_offset %rbp, -16
	movq	%rsp, %rbp
	.cfi_def_cfa_register %rbp
	subq	$80, %rsp
	movl	$2009095485, -36(%rbp)  # imm = 0x77C05D3D
	movl	%edi, -20(%rbp)
	movl	%esi, -40(%rbp)
	movl	%edx, -24(%rbp)
	movq	%rcx, -32(%rbp)
	movl	%r8d, -52(%rbp)
	movq	%r9, -48(%rbp)
	movl	-20(%rbp), %eax
	cltd
	movl	$2, %ecx
	idivl	%ecx
	shll	$1, %edx
	movl	%edx, -4(%rbp)
	movl	-20(%rbp), %eax
	cltd
	idivl	%ecx
	shll	$1, %eax
	movl	%eax, -16(%rbp)
	cmpl	$0, -16(%rbp)
	jne	.LBB30_8
# %bb.1:                                # %if.then
	movq	-32(%rbp), %rax
	cmpq	$0, 56(%rax)
	jne	.LBB30_3
# %bb.2:                                # %if.then3
	movl	$0, -12(%rbp)
	jmp	.LBB30_7
.LBB30_3:                               # %if.else
	movq	-32(%rbp), %rax
	movq	56(%rax), %rax
	cmpl	$14, 72(%rax)
	jne	.LBB30_5
# %bb.4:                                # %if.then6
	movl	$0, -12(%rbp)
	jmp	.LBB30_6
.LBB30_5:                               # %if.else7
	xorl	%esi, %esi
	movq	-32(%rbp), %rax
	movq	56(%rax), %rax
	movl	460(%rax), %edi
	movl	-4(%rbp), %eax
	cltd
	movl	$2, %ecx
	idivl	%ecx
	addl	$2, %eax
	movl	%eax, %ecx
                                        # kill: def $cl killed $ecx
	movl	$1, %eax
	movl	$1, %edx
	shll	%cl, %edx
	andl	%edx, %edi
	cmpl	$0, %edi
	cmovel	%eax, %esi
	movl	%esi, -12(%rbp)
.LBB30_6:                               # %if.end
	jmp	.LBB30_7
.LBB30_7:                               # %if.end13
	jmp	.LBB30_9
.LBB30_8:                               # %if.else14
	xorl	%esi, %esi
	movl	-24(%rbp), %edi
	movl	-4(%rbp), %eax
	cltd
	movl	$2, %ecx
	idivl	%ecx
	movl	%eax, %ecx
                                        # kill: def $cl killed $ecx
	movl	$1, %eax
	movl	$1, %edx
	shll	%cl, %edx
	andl	%edx, %edi
	cmpl	$0, %edi
	cmovel	%eax, %esi
	movl	%esi, -12(%rbp)
.LBB30_9:                               # %if.end20
	cmpl	$0, -4(%rbp)
	jne	.LBB30_17
# %bb.10:                               # %if.then22
	movq	img, %rax
	movl	12(%rax), %edi
	movl	-4(%rbp), %esi
	movl	-16(%rbp), %edx
	movl	$4294967295, %ecx       # imm = 0xFFFFFFFF
	xorl	%r8d, %r8d
	leaq	-80(%rbp), %r9
	callq	getLuma4x4Neighbour
	cmpl	$0, -80(%rbp)
	je	.LBB30_15
# %bb.11:                               # %if.then23
	movq	img, %rax
	movq	14168(%rax), %rax
	movslq	-76(%rbp), %rcx
	imulq	$632, %rcx, %rcx        # imm = 0x278
	addq	%rcx, %rax
	cmpl	$14, 72(%rax)
	jne	.LBB30_13
# %bb.12:                               # %if.then26
	movl	$0, -8(%rbp)
	jmp	.LBB30_14
.LBB30_13:                              # %if.else27
	xorl	%esi, %esi
	movq	img, %rax
	movq	14168(%rax), %rax
	movslq	-76(%rbp), %rcx
	imulq	$632, %rcx, %rcx        # imm = 0x278
	addq	%rcx, %rax
	movl	460(%rax), %edi
	movl	-68(%rbp), %eax
	cltd
	movl	$2, %ecx
	idivl	%ecx
	shll	$1, %eax
	addl	$1, %eax
	movl	%eax, %ecx
                                        # kill: def $cl killed $ecx
	movl	$1, %eax
	movl	$1, %edx
	shll	%cl, %edx
	andl	%edx, %edi
	cmpl	$0, %edi
	cmovel	%eax, %esi
	movl	%esi, -8(%rbp)
.LBB30_14:                              # %if.end39
	jmp	.LBB30_16
.LBB30_15:                              # %if.else40
	movl	$0, -8(%rbp)
.LBB30_16:                              # %if.end41
	jmp	.LBB30_18
.LBB30_17:                              # %if.else42
	xorl	%eax, %eax
	movl	-24(%rbp), %edx
	movl	-16(%rbp), %ecx
                                        # kill: def $cl killed $ecx
	movl	$1, %esi
	movl	$1, %edi
	shll	%cl, %edi
	andl	%edi, %edx
	cmpl	$0, %edx
	cmovel	%esi, %eax
	movl	%eax, -8(%rbp)
.LBB30_18:                              # %if.end47
	movq	-48(%rbp), %rdi
	movl	-40(%rbp), %eax
	movzbl	%al, %eax
	movq	img, %rcx
	movq	14160(%rcx), %rcx
	movq	40(%rcx), %rdx
	addq	$96, %rdx
	movslq	-8(%rbp), %rcx
	shlq	$4, %rcx
	addq	%rcx, %rdx
	movl	-12(%rbp), %ecx
	shll	$1, %ecx
	movslq	%ecx, %rcx
	shlq	$4, %rcx
	addq	%rcx, %rdx
	movswl	%ax, %esi
	callq	biari_encode_symbol
	cmpl	$2009095485, -36(%rbp)  # imm = 0x77C05D3D
	jne	.LBB30_20
.LBB30_19:
	addq	$80, %rsp
	popq	%rbp
	.cfi_def_cfa %rsp, 8
	retq
.LBB30_20:                              # %func_exit
	.cfi_def_cfa %rbp, 16
	callq	detect_breach
	jmp	.LBB30_19
.Lfunc_end30:
	.size	writeCBP_BIT_CABAC.3, .Lfunc_end30-writeCBP_BIT_CABAC.3
	.cfi_endproc
                                        # -- End function
	.globl	CheckAvailabilityOfNeighborsCABAC.4 # -- Begin function CheckAvailabilityOfNeighborsCABAC.4
	.p2align	4, 0x90
	.type	CheckAvailabilityOfNeighborsCABAC.4,@function
CheckAvailabilityOfNeighborsCABAC.4:    # @CheckAvailabilityOfNeighborsCABAC.4
	.cfi_startproc
# %bb.0:                                # %entry
	pushq	%rbp
	.cfi_def_cfa_offset 16
	.cfi_offset %rbp, -16
	movq	%rsp, %rbp
	.cfi_def_cfa_register %rbp
	subq	$64, %rsp
	movl	$1570224751, -12(%rbp)  # imm = 0x5D97BA6F
	movq	img, %rax
	movq	14168(%rax), %rax
	movq	img, %rcx
	movslq	12(%rcx), %rcx
	imulq	$632, %rcx, %rcx        # imm = 0x278
	addq	%rcx, %rax
	movq	%rax, -8(%rbp)
	movq	img, %rax
	movl	12(%rax), %edi
	movl	$4294967295, %esi       # imm = 0xFFFFFFFF
	xorl	%edx, %edx
	movl	$1, %ecx
	leaq	-40(%rbp), %r8
	callq	getNeighbour
	movq	img, %rax
	movl	12(%rax), %edi
	xorl	%esi, %esi
	movl	$4294967295, %edx       # imm = 0xFFFFFFFF
	movl	$1, %ecx
	leaq	-64(%rbp), %r8
	callq	getNeighbour
	cmpl	$0, -64(%rbp)
	je	.LBB31_2
# %bb.1:                                # %if.then
	movq	img, %rax
	movq	14168(%rax), %rax
	movslq	-60(%rbp), %rcx
	imulq	$632, %rcx, %rcx        # imm = 0x278
	addq	%rcx, %rax
	movq	-8(%rbp), %rcx
	movq	%rax, 56(%rcx)
	jmp	.LBB31_3
.LBB31_2:                               # %if.else
	movq	-8(%rbp), %rax
	movq	$0, 56(%rax)
.LBB31_3:                               # %if.end
	cmpl	$0, -40(%rbp)
	je	.LBB31_5
# %bb.4:                                # %if.then9
	movq	img, %rax
	movq	14168(%rax), %rax
	movslq	-36(%rbp), %rcx
	imulq	$632, %rcx, %rcx        # imm = 0x278
	addq	%rcx, %rax
	movq	-8(%rbp), %rcx
	movq	%rax, 64(%rcx)
	jmp	.LBB31_6
.LBB31_5:                               # %if.else14
	movq	-8(%rbp), %rax
	movq	$0, 64(%rax)
.LBB31_6:                               # %if.end16
	cmpl	$1570224751, -12(%rbp)  # imm = 0x5D97BA6F
	jne	.LBB31_8
.LBB31_7:
	addq	$64, %rsp
	popq	%rbp
	.cfi_def_cfa %rsp, 8
	retq
.LBB31_8:                               # %func_exit
	.cfi_def_cfa %rbp, 16
	callq	detect_breach
	jmp	.LBB31_7
.Lfunc_end31:
	.size	CheckAvailabilityOfNeighborsCABAC.4, .Lfunc_end31-CheckAvailabilityOfNeighborsCABAC.4
	.cfi_endproc
                                        # -- End function
	.globl	writeIntraPredMode_CABAC.5 # -- Begin function writeIntraPredMode_CABAC.5
	.p2align	4, 0x90
	.type	writeIntraPredMode_CABAC.5,@function
writeIntraPredMode_CABAC.5:             # @writeIntraPredMode_CABAC.5
	.cfi_startproc
# %bb.0:                                # %entry
	pushq	%rbp
	.cfi_def_cfa_offset 16
	.cfi_offset %rbp, -16
	movq	%rsp, %rbp
	.cfi_def_cfa_register %rbp
	subq	$32, %rsp
	movl	$2012828441, -28(%rbp)  # imm = 0x77F95319
	movq	%rdi, -24(%rbp)
	movq	%rsi, -16(%rbp)
	movq	img, %rax
	movq	14160(%rax), %rax
	movq	40(%rax), %rax
	movq	%rax, -8(%rbp)
	movq	-24(%rbp), %rax
	cmpl	$-1, 4(%rax)
	jne	.LBB32_2
# %bb.1:                                # %if.then
	movq	-16(%rbp), %rdi
	movq	-8(%rbp), %rdx
	movl	$1, %esi
	callq	biari_encode_symbol
	jmp	.LBB32_3
.LBB32_2:                               # %if.else
	movq	-16(%rbp), %rdi
	movq	-8(%rbp), %rdx
	xorl	%esi, %esi
	callq	biari_encode_symbol
	movq	-16(%rbp), %rdi
	movq	-24(%rbp), %rax
	movl	4(%rax), %eax
	andl	$1, %eax
	movq	-8(%rbp), %rdx
	addq	$16, %rdx
	movswl	%ax, %esi
	callq	biari_encode_symbol
	movq	-16(%rbp), %rdi
	movq	-24(%rbp), %rax
	movl	4(%rax), %eax
	andl	$2, %eax
	sarl	$1, %eax
	movq	-8(%rbp), %rdx
	addq	$16, %rdx
	movswl	%ax, %esi
	callq	biari_encode_symbol
	movq	-16(%rbp), %rdi
	movq	-24(%rbp), %rax
	movl	4(%rax), %eax
	andl	$4, %eax
	sarl	$2, %eax
	movq	-8(%rbp), %rdx
	addq	$16, %rdx
	movswl	%ax, %esi
	callq	biari_encode_symbol
.LBB32_3:                               # %if.end
	cmpl	$2012828441, -28(%rbp)  # imm = 0x77F95319
	jne	.LBB32_5
.LBB32_4:
	addq	$32, %rsp
	popq	%rbp
	.cfi_def_cfa %rsp, 8
	retq
.LBB32_5:                               # %func_exit
	.cfi_def_cfa %rbp, 16
	callq	detect_breach
	jmp	.LBB32_4
.Lfunc_end32:
	.size	writeIntraPredMode_CABAC.5, .Lfunc_end32-writeIntraPredMode_CABAC.5
	.cfi_endproc
                                        # -- End function
	.globl	writeCIPredMode_CABAC.6 # -- Begin function writeCIPredMode_CABAC.6
	.p2align	4, 0x90
	.type	writeCIPredMode_CABAC.6,@function
writeCIPredMode_CABAC.6:                # @writeCIPredMode_CABAC.6
	.cfi_startproc
# %bb.0:                                # %entry
	pushq	%rbp
	.cfi_def_cfa_offset 16
	.cfi_offset %rbp, -16
	movq	%rsp, %rbp
	.cfi_def_cfa_register %rbp
	subq	$64, %rsp
	movl	$958140548, -44(%rbp)   # imm = 0x391C1084
	movq	%rdi, -56(%rbp)
	movq	%rsi, -40(%rbp)
	movq	img, %rax
	movq	14160(%rax), %rax
	movq	40(%rax), %rax
	movq	%rax, -32(%rbp)
	movq	img, %rax
	movq	14168(%rax), %rax
	movq	img, %rcx
	movslq	12(%rcx), %rcx
	imulq	$632, %rcx, %rcx        # imm = 0x278
	addq	%rcx, %rax
	movq	%rax, -24(%rbp)
	movq	-56(%rbp), %rax
	movl	4(%rax), %eax
	movl	%eax, -16(%rbp)
	movq	-24(%rbp), %rax
	cmpq	$0, 56(%rax)
	jne	.LBB33_2
# %bb.1:                                # %if.then
	movl	$0, -8(%rbp)
	jmp	.LBB33_3
.LBB33_2:                               # %if.else
	xorl	%eax, %eax
	movq	-24(%rbp), %rcx
	movq	56(%rcx), %rcx
	movl	524(%rcx), %ecx
	cmpl	$0, %ecx
	movl	$1, %ecx
	cmovnel	%ecx, %eax
	movl	%eax, -8(%rbp)
.LBB33_3:                               # %if.end
	movq	-24(%rbp), %rax
	cmpq	$0, 64(%rax)
	jne	.LBB33_5
# %bb.4:                                # %if.then4
	movl	$0, -4(%rbp)
	jmp	.LBB33_6
.LBB33_5:                               # %if.else5
	xorl	%eax, %eax
	movq	-24(%rbp), %rcx
	movq	64(%rcx), %rcx
	movl	524(%rcx), %ecx
	cmpl	$0, %ecx
	movl	$1, %ecx
	cmovnel	%ecx, %eax
	movl	%eax, -4(%rbp)
.LBB33_6:                               # %if.end10
	movl	-4(%rbp), %eax
	addl	-8(%rbp), %eax
	movl	%eax, -12(%rbp)
	cmpl	$0, -16(%rbp)
	jne	.LBB33_8
# %bb.7:                                # %if.then12
	movq	-40(%rbp), %rdi
	movq	-32(%rbp), %rdx
	addq	$32, %rdx
	movslq	-12(%rbp), %rax
	shlq	$4, %rax
	addq	%rax, %rdx
	xorl	%esi, %esi
	callq	biari_encode_symbol
	jmp	.LBB33_9
.LBB33_8:                               # %if.else13
	movq	-40(%rbp), %rdi
	movq	-32(%rbp), %rdx
	addq	$32, %rdx
	movslq	-12(%rbp), %rax
	shlq	$4, %rax
	addq	%rax, %rdx
	movl	$1, %esi
	callq	biari_encode_symbol
	movq	-40(%rbp), %rdi
	movl	-16(%rbp), %esi
	subl	$1, %esi
	movq	-32(%rbp), %rdx
	addq	$32, %rdx
	addq	$48, %rdx
	xorl	%ecx, %ecx
	movl	$2, %r8d
	callq	unary_bin_max_encode
.LBB33_9:                               # %if.end21
	cmpl	$958140548, -44(%rbp)   # imm = 0x391C1084
	jne	.LBB33_11
.LBB33_10:
	addq	$64, %rsp
	popq	%rbp
	.cfi_def_cfa %rsp, 8
	retq
.LBB33_11:                              # %func_exit
	.cfi_def_cfa %rbp, 16
	callq	detect_breach
	jmp	.LBB33_10
.Lfunc_end33:
	.size	writeCIPredMode_CABAC.6, .Lfunc_end33-writeCIPredMode_CABAC.6
	.cfi_endproc
                                        # -- End function
	.globl	writeCBP_BIT_CABAC.7    # -- Begin function writeCBP_BIT_CABAC.7
	.p2align	4, 0x90
	.type	writeCBP_BIT_CABAC.7,@function
writeCBP_BIT_CABAC.7:                   # @writeCBP_BIT_CABAC.7
	.cfi_startproc
# %bb.0:                                # %entry
	pushq	%rbp
	.cfi_def_cfa_offset 16
	.cfi_offset %rbp, -16
	movq	%rsp, %rbp
	.cfi_def_cfa_register %rbp
	subq	$80, %rsp
	movl	$852513581, -40(%rbp)   # imm = 0x32D0532D
	movl	%edi, -24(%rbp)
	movl	%esi, -36(%rbp)
	movl	%edx, -20(%rbp)
	movq	%rcx, -32(%rbp)
	movl	%r8d, -52(%rbp)
	movq	%r9, -48(%rbp)
	movl	-24(%rbp), %eax
	cltd
	movl	$2, %ecx
	idivl	%ecx
	shll	$1, %edx
	movl	%edx, -8(%rbp)
	movl	-24(%rbp), %eax
	cltd
	idivl	%ecx
	shll	$1, %eax
	movl	%eax, -16(%rbp)
	cmpl	$0, -16(%rbp)
	jne	.LBB34_8
# %bb.1:                                # %if.then
	movq	-32(%rbp), %rax
	cmpq	$0, 56(%rax)
	jne	.LBB34_3
# %bb.2:                                # %if.then3
	movl	$0, -4(%rbp)
	jmp	.LBB34_7
.LBB34_3:                               # %if.else
	movq	-32(%rbp), %rax
	movq	56(%rax), %rax
	cmpl	$14, 72(%rax)
	jne	.LBB34_5
# %bb.4:                                # %if.then6
	movl	$0, -4(%rbp)
	jmp	.LBB34_6
.LBB34_5:                               # %if.else7
	xorl	%esi, %esi
	movq	-32(%rbp), %rax
	movq	56(%rax), %rax
	movl	460(%rax), %edi
	movl	-8(%rbp), %eax
	cltd
	movl	$2, %ecx
	idivl	%ecx
	addl	$2, %eax
	movl	%eax, %ecx
                                        # kill: def $cl killed $ecx
	movl	$1, %eax
	movl	$1, %edx
	shll	%cl, %edx
	andl	%edx, %edi
	cmpl	$0, %edi
	cmovel	%eax, %esi
	movl	%esi, -4(%rbp)
.LBB34_6:                               # %if.end
	jmp	.LBB34_7
.LBB34_7:                               # %if.end13
	jmp	.LBB34_9
.LBB34_8:                               # %if.else14
	xorl	%esi, %esi
	movl	-20(%rbp), %edi
	movl	-8(%rbp), %eax
	cltd
	movl	$2, %ecx
	idivl	%ecx
	movl	%eax, %ecx
                                        # kill: def $cl killed $ecx
	movl	$1, %eax
	movl	$1, %edx
	shll	%cl, %edx
	andl	%edx, %edi
	cmpl	$0, %edi
	cmovel	%eax, %esi
	movl	%esi, -4(%rbp)
.LBB34_9:                               # %if.end20
	cmpl	$0, -8(%rbp)
	jne	.LBB34_17
# %bb.10:                               # %if.then22
	movq	img, %rax
	movl	12(%rax), %edi
	movl	-8(%rbp), %esi
	movl	-16(%rbp), %edx
	movl	$4294967295, %ecx       # imm = 0xFFFFFFFF
	xorl	%r8d, %r8d
	leaq	-80(%rbp), %r9
	callq	getLuma4x4Neighbour
	cmpl	$0, -80(%rbp)
	je	.LBB34_15
# %bb.11:                               # %if.then23
	movq	img, %rax
	movq	14168(%rax), %rax
	movslq	-76(%rbp), %rcx
	imulq	$632, %rcx, %rcx        # imm = 0x278
	addq	%rcx, %rax
	cmpl	$14, 72(%rax)
	jne	.LBB34_13
# %bb.12:                               # %if.then26
	movl	$0, -12(%rbp)
	jmp	.LBB34_14
.LBB34_13:                              # %if.else27
	xorl	%esi, %esi
	movq	img, %rax
	movq	14168(%rax), %rax
	movslq	-76(%rbp), %rcx
	imulq	$632, %rcx, %rcx        # imm = 0x278
	addq	%rcx, %rax
	movl	460(%rax), %edi
	movl	-68(%rbp), %eax
	cltd
	movl	$2, %ecx
	idivl	%ecx
	shll	$1, %eax
	addl	$1, %eax
	movl	%eax, %ecx
                                        # kill: def $cl killed $ecx
	movl	$1, %eax
	movl	$1, %edx
	shll	%cl, %edx
	andl	%edx, %edi
	cmpl	$0, %edi
	cmovel	%eax, %esi
	movl	%esi, -12(%rbp)
.LBB34_14:                              # %if.end39
	jmp	.LBB34_16
.LBB34_15:                              # %if.else40
	movl	$0, -12(%rbp)
.LBB34_16:                              # %if.end41
	jmp	.LBB34_18
.LBB34_17:                              # %if.else42
	xorl	%eax, %eax
	movl	-20(%rbp), %edx
	movl	-16(%rbp), %ecx
                                        # kill: def $cl killed $ecx
	movl	$1, %esi
	movl	$1, %edi
	shll	%cl, %edi
	andl	%edi, %edx
	cmpl	$0, %edx
	cmovel	%esi, %eax
	movl	%eax, -12(%rbp)
.LBB34_18:                              # %if.end47
	movq	-48(%rbp), %rdi
	movl	-36(%rbp), %eax
	movzbl	%al, %eax
	movq	img, %rcx
	movq	14160(%rcx), %rcx
	movq	40(%rcx), %rdx
	addq	$96, %rdx
	movslq	-12(%rbp), %rcx
	shlq	$4, %rcx
	addq	%rcx, %rdx
	movl	-4(%rbp), %ecx
	shll	$1, %ecx
	movslq	%ecx, %rcx
	shlq	$4, %rcx
	addq	%rcx, %rdx
	movswl	%ax, %esi
	callq	biari_encode_symbol
	cmpl	$852513581, -40(%rbp)   # imm = 0x32D0532D
	jne	.LBB34_20
.LBB34_19:
	addq	$80, %rsp
	popq	%rbp
	.cfi_def_cfa %rsp, 8
	retq
.LBB34_20:                              # %func_exit
	.cfi_def_cfa %rbp, 16
	callq	detect_breach
	jmp	.LBB34_19
.Lfunc_end34:
	.size	writeCBP_BIT_CABAC.7, .Lfunc_end34-writeCBP_BIT_CABAC.7
	.cfi_endproc
                                        # -- End function
	.globl	writeIntraPredMode_CABAC.8 # -- Begin function writeIntraPredMode_CABAC.8
	.p2align	4, 0x90
	.type	writeIntraPredMode_CABAC.8,@function
writeIntraPredMode_CABAC.8:             # @writeIntraPredMode_CABAC.8
	.cfi_startproc
# %bb.0:                                # %entry
	pushq	%rbp
	.cfi_def_cfa_offset 16
	.cfi_offset %rbp, -16
	movq	%rsp, %rbp
	.cfi_def_cfa_register %rbp
	subq	$32, %rsp
	movl	$1026947331, -28(%rbp)  # imm = 0x3D35F903
	movq	%rdi, -24(%rbp)
	movq	%rsi, -16(%rbp)
	movq	img, %rax
	movq	14160(%rax), %rax
	movq	40(%rax), %rax
	movq	%rax, -8(%rbp)
	movq	-24(%rbp), %rax
	cmpl	$-1, 4(%rax)
	jne	.LBB35_2
# %bb.1:                                # %if.then
	movq	-16(%rbp), %rdi
	movq	-8(%rbp), %rdx
	movl	$1, %esi
	callq	biari_encode_symbol
	jmp	.LBB35_3
.LBB35_2:                               # %if.else
	movq	-16(%rbp), %rdi
	movq	-8(%rbp), %rdx
	xorl	%esi, %esi
	callq	biari_encode_symbol
	movq	-16(%rbp), %rdi
	movq	-24(%rbp), %rax
	movl	4(%rax), %eax
	andl	$1, %eax
	movq	-8(%rbp), %rdx
	addq	$16, %rdx
	movswl	%ax, %esi
	callq	biari_encode_symbol
	movq	-16(%rbp), %rdi
	movq	-24(%rbp), %rax
	movl	4(%rax), %eax
	andl	$2, %eax
	sarl	$1, %eax
	movq	-8(%rbp), %rdx
	addq	$16, %rdx
	movswl	%ax, %esi
	callq	biari_encode_symbol
	movq	-16(%rbp), %rdi
	movq	-24(%rbp), %rax
	movl	4(%rax), %eax
	andl	$4, %eax
	sarl	$2, %eax
	movq	-8(%rbp), %rdx
	addq	$16, %rdx
	movswl	%ax, %esi
	callq	biari_encode_symbol
.LBB35_3:                               # %if.end
	cmpl	$1026947331, -28(%rbp)  # imm = 0x3D35F903
	jne	.LBB35_5
.LBB35_4:
	addq	$32, %rsp
	popq	%rbp
	.cfi_def_cfa %rsp, 8
	retq
.LBB35_5:                               # %func_exit
	.cfi_def_cfa %rbp, 16
	callq	detect_breach
	jmp	.LBB35_4
.Lfunc_end35:
	.size	writeIntraPredMode_CABAC.8, .Lfunc_end35-writeIntraPredMode_CABAC.8
	.cfi_endproc
                                        # -- End function
	.globl	writeMB_typeInfo_CABAC.9 # -- Begin function writeMB_typeInfo_CABAC.9
	.p2align	4, 0x90
	.type	writeMB_typeInfo_CABAC.9,@function
writeMB_typeInfo_CABAC.9:               # @writeMB_typeInfo_CABAC.9
	.cfi_startproc
# %bb.0:                                # %entry
	pushq	%rbp
	.cfi_def_cfa_offset 16
	.cfi_offset %rbp, -16
	movq	%rsp, %rbp
	.cfi_def_cfa_register %rbp
	subq	$96, %rsp
	movl	$1031555949, -84(%rbp)  # imm = 0x3D7C4B6D
	movq	%rdi, -80(%rbp)
	movq	%rsi, -16(%rbp)
	movl	$0, -20(%rbp)
	movq	img, %rax
	cmpl	$1, 24(%rax)
	sete	%al
	andb	$1, %al
	movzbl	%al, %eax
	movl	%eax, -60(%rbp)
	movl	$0, -36(%rbp)
	movq	img, %rax
	movq	14160(%rax), %rax
	movq	32(%rax), %rax
	movq	%rax, -32(%rbp)
	movq	img, %rax
	movq	14168(%rax), %rax
	movq	img, %rcx
	movslq	12(%rcx), %rcx
	imulq	$632, %rcx, %rcx        # imm = 0x278
	addq	%rcx, %rax
	movq	%rax, -56(%rbp)
	movq	-80(%rbp), %rax
	movl	4(%rax), %eax
	movl	%eax, -68(%rbp)
	movq	img, %rax
	cmpl	$2, 24(%rax)
	jne	.LBB36_24
# %bb.1:                                # %if.then
	movq	-56(%rbp), %rax
	cmpq	$0, 56(%rax)
	jne	.LBB36_3
# %bb.2:                                # %if.then6
	movl	$0, -48(%rbp)
	jmp	.LBB36_6
.LBB36_3:                               # %if.else
	xorl	%eax, %eax
	movq	-56(%rbp), %rcx
	movq	56(%rcx), %rcx
	cmpl	$9, 72(%rcx)
	je	.LBB36_5
# %bb.4:                                # %land.rhs
	movq	-56(%rbp), %rax
	movq	56(%rax), %rax
	cmpl	$13, 72(%rax)
	setne	%al
.LBB36_5:                               # %land.end
	xorl	%ecx, %ecx
	testb	$1, %al
	movl	$1, %eax
	cmovnel	%eax, %ecx
	movl	%ecx, -48(%rbp)
.LBB36_6:                               # %if.end
	movq	-56(%rbp), %rax
	cmpq	$0, 64(%rax)
	jne	.LBB36_8
# %bb.7:                                # %if.then16
	movl	$0, -44(%rbp)
	jmp	.LBB36_11
.LBB36_8:                               # %if.else17
	xorl	%eax, %eax
	movq	-56(%rbp), %rcx
	movq	64(%rcx), %rcx
	cmpl	$9, 72(%rcx)
	je	.LBB36_10
# %bb.9:                                # %land.rhs22
	movq	-56(%rbp), %rax
	movq	64(%rax), %rax
	cmpl	$13, 72(%rax)
	setne	%al
.LBB36_10:                              # %land.end27
	xorl	%ecx, %ecx
	testb	$1, %al
	movl	$1, %eax
	cmovnel	%eax, %ecx
	movl	%ecx, -44(%rbp)
.LBB36_11:                              # %if.end29
	movl	-44(%rbp), %eax
	addl	-48(%rbp), %eax
	movl	%eax, -20(%rbp)
	movl	-68(%rbp), %eax
	movl	%eax, -4(%rbp)
	movl	-20(%rbp), %eax
	movq	-80(%rbp), %rcx
	movl	%eax, 24(%rcx)
	cmpl	$0, -4(%rbp)
	jne	.LBB36_13
# %bb.12:                               # %if.then32
	movq	-16(%rbp), %rdi
	movq	-32(%rbp), %rdx
	movslq	-20(%rbp), %rax
	shlq	$4, %rax
	addq	%rax, %rdx
	xorl	%esi, %esi
	callq	biari_encode_symbol
	jmp	.LBB36_23
.LBB36_13:                              # %if.else34
	cmpl	$25, -4(%rbp)
	jne	.LBB36_15
# %bb.14:                               # %if.then37
	movq	-16(%rbp), %rdi
	movq	-32(%rbp), %rdx
	movslq	-20(%rbp), %rax
	shlq	$4, %rax
	addq	%rax, %rdx
	movl	$1, %esi
	callq	biari_encode_symbol
	movq	-16(%rbp), %rdi
	movl	$1, %esi
	callq	biari_encode_symbol_final
	jmp	.LBB36_22
.LBB36_15:                              # %if.else43
	movq	-16(%rbp), %rdi
	movq	-32(%rbp), %rdx
	movslq	-20(%rbp), %rax
	shlq	$4, %rax
	addq	%rax, %rdx
	movl	$1, %esi
	callq	biari_encode_symbol
	movq	-16(%rbp), %rdi
	xorl	%esi, %esi
	callq	biari_encode_symbol_final
	movl	-4(%rbp), %eax
	subl	$1, %eax
	movl	%eax, -36(%rbp)
	movl	$4, -20(%rbp)
	movl	-36(%rbp), %eax
	cltd
	movl	$12, %ecx
	idivl	%ecx
	movl	%eax, -4(%rbp)
	movq	-16(%rbp), %rdi
	movl	-4(%rbp), %eax
	movzbl	%al, %eax
	movq	-32(%rbp), %rdx
	movslq	-20(%rbp), %rcx
	shlq	$4, %rcx
	addq	%rcx, %rdx
	movswl	%ax, %esi
	callq	biari_encode_symbol
	movl	-36(%rbp), %eax
	cltd
	movl	$12, %ecx
	idivl	%ecx
	movl	%edx, -36(%rbp)
	movl	-36(%rbp), %eax
	cltd
	movl	$4, %ecx
	idivl	%ecx
	movl	%eax, -4(%rbp)
	movl	$5, -20(%rbp)
	cmpl	$0, -4(%rbp)
	jne	.LBB36_17
# %bb.16:                               # %if.then59
	movq	-16(%rbp), %rdi
	movq	-32(%rbp), %rdx
	movslq	-20(%rbp), %rax
	shlq	$4, %rax
	addq	%rax, %rdx
	xorl	%esi, %esi
	callq	biari_encode_symbol
	jmp	.LBB36_21
.LBB36_17:                              # %if.else65
	movq	-16(%rbp), %rdi
	movq	-32(%rbp), %rdx
	movslq	-20(%rbp), %rax
	shlq	$4, %rax
	addq	%rax, %rdx
	movl	$1, %esi
	callq	biari_encode_symbol
	movl	$6, -20(%rbp)
	cmpl	$1, -4(%rbp)
	jne	.LBB36_19
# %bb.18:                               # %if.then73
	movq	-16(%rbp), %rdi
	movq	-32(%rbp), %rdx
	movslq	-20(%rbp), %rax
	shlq	$4, %rax
	addq	%rax, %rdx
	xorl	%esi, %esi
	callq	biari_encode_symbol
	jmp	.LBB36_20
.LBB36_19:                              # %if.else79
	movq	-16(%rbp), %rdi
	movq	-32(%rbp), %rdx
	movslq	-20(%rbp), %rax
	shlq	$4, %rax
	addq	%rax, %rdx
	movl	$1, %esi
	callq	biari_encode_symbol
.LBB36_20:                              # %if.end85
	jmp	.LBB36_21
.LBB36_21:                              # %if.end86
	movl	-36(%rbp), %eax
	cltd
	movl	$4, %ecx
	idivl	%ecx
	movl	%edx, -36(%rbp)
	movl	-36(%rbp), %eax
	cltd
	movl	$2, %ecx
	idivl	%ecx
	movl	%eax, -4(%rbp)
	movl	$7, -20(%rbp)
	movq	-16(%rbp), %rdi
	movl	-4(%rbp), %eax
	movzbl	%al, %eax
	movq	-32(%rbp), %rdx
	movslq	-20(%rbp), %rcx
	shlq	$4, %rcx
	addq	%rcx, %rdx
	movswl	%ax, %esi
	callq	biari_encode_symbol
	movl	$8, -20(%rbp)
	movl	-36(%rbp), %eax
	cltd
	movl	$2, %ecx
	idivl	%ecx
	movl	%edx, -4(%rbp)
	movq	-16(%rbp), %rdi
	movl	-4(%rbp), %eax
	movzbl	%al, %eax
	movq	-32(%rbp), %rdx
	movslq	-20(%rbp), %rcx
	shlq	$4, %rcx
	addq	%rcx, %rdx
	movswl	%ax, %esi
	callq	biari_encode_symbol
.LBB36_22:                              # %if.end104
	jmp	.LBB36_23
.LBB36_23:                              # %if.end105
	jmp	.LBB36_102
.LBB36_24:                              # %if.else106
	cmpl	$0, -60(%rbp)
	je	.LBB36_32
# %bb.25:                               # %if.then107
	movq	-56(%rbp), %rax
	cmpq	$0, 56(%rax)
	jne	.LBB36_27
# %bb.26:                               # %if.then111
	movl	$0, -48(%rbp)
	jmp	.LBB36_28
.LBB36_27:                              # %if.else112
	xorl	%eax, %eax
	movq	-56(%rbp), %rcx
	movq	56(%rcx), %rcx
	movl	72(%rcx), %ecx
	cmpl	$0, %ecx
	movl	$1, %ecx
	cmovnel	%ecx, %eax
	movl	%eax, -48(%rbp)
.LBB36_28:                              # %if.end118
	movq	-56(%rbp), %rax
	cmpq	$0, 64(%rax)
	jne	.LBB36_30
# %bb.29:                               # %if.then122
	movl	$0, -44(%rbp)
	jmp	.LBB36_31
.LBB36_30:                              # %if.else123
	xorl	%eax, %eax
	movq	-56(%rbp), %rcx
	movq	64(%rcx), %rcx
	movl	72(%rcx), %ecx
	cmpl	$0, %ecx
	movl	$1, %ecx
	cmovnel	%ecx, %eax
	movl	%eax, -44(%rbp)
.LBB36_31:                              # %if.end129
	movl	-44(%rbp), %eax
	addl	-48(%rbp), %eax
	movl	%eax, -20(%rbp)
	movl	-20(%rbp), %eax
	movq	-80(%rbp), %rcx
	movl	%eax, 24(%rcx)
.LBB36_32:                              # %if.end132
	movl	-68(%rbp), %eax
	movl	%eax, -4(%rbp)
	movl	-4(%rbp), %eax
	movl	-60(%rbp), %ecx
	cmpl	$0, %ecx
	movl	$24, %ecx
	movl	$7, %edx
	cmovnel	%ecx, %edx
	movl	%edx, -64(%rbp)
	cmpl	%edx, %eax
	jl	.LBB36_34
# %bb.33:                               # %if.then137
	movl	-4(%rbp), %eax
	subl	-64(%rbp), %eax
	movl	%eax, -36(%rbp)
	movl	-64(%rbp), %eax
	movl	%eax, -4(%rbp)
.LBB36_34:                              # %if.end139
	cmpl	$0, -60(%rbp)
	jne	.LBB36_46
# %bb.35:                               # %if.then141
	movl	-4(%rbp), %eax
	movq	%rax, %rcx
	subq	$7, %rcx
	ja	.LBB36_44
# %bb.36:                               # %if.then141
	movq	.LJTI36_0(,%rax,8), %rax
	jmpq	*%rax
.LBB36_37:                              # %sw.bb
	jmp	.LBB36_45
.LBB36_38:                              # %sw.bb142
	movq	-16(%rbp), %rdi
	movq	-32(%rbp), %rdx
	addq	$176, %rdx
	addq	$64, %rdx
	xorl	%esi, %esi
	callq	biari_encode_symbol
	movq	-16(%rbp), %rdi
	movq	-32(%rbp), %rdx
	addq	$176, %rdx
	addq	$80, %rdx
	xorl	%esi, %esi
	callq	biari_encode_symbol
	movq	-16(%rbp), %rdi
	movq	-32(%rbp), %rdx
	addq	$176, %rdx
	addq	$96, %rdx
	xorl	%esi, %esi
	callq	biari_encode_symbol
	jmp	.LBB36_45
.LBB36_39:                              # %sw.bb152
	movq	-16(%rbp), %rdi
	movq	-32(%rbp), %rdx
	addq	$176, %rdx
	addq	$64, %rdx
	xorl	%esi, %esi
	callq	biari_encode_symbol
	movq	-16(%rbp), %rdi
	movq	-32(%rbp), %rdx
	addq	$176, %rdx
	addq	$80, %rdx
	movl	$1, %esi
	callq	biari_encode_symbol
	movq	-16(%rbp), %rdi
	movq	-32(%rbp), %rdx
	addq	$176, %rdx
	addq	$112, %rdx
	movl	$1, %esi
	callq	biari_encode_symbol
	jmp	.LBB36_45
.LBB36_40:                              # %sw.bb162
	movq	-16(%rbp), %rdi
	movq	-32(%rbp), %rdx
	addq	$176, %rdx
	addq	$64, %rdx
	xorl	%esi, %esi
	callq	biari_encode_symbol
	movq	-16(%rbp), %rdi
	movq	-32(%rbp), %rdx
	addq	$176, %rdx
	addq	$80, %rdx
	movl	$1, %esi
	callq	biari_encode_symbol
	movq	-16(%rbp), %rdi
	movq	-32(%rbp), %rdx
	addq	$176, %rdx
	addq	$112, %rdx
	xorl	%esi, %esi
	callq	biari_encode_symbol
	jmp	.LBB36_45
.LBB36_41:                              # %sw.bb172
	movq	-16(%rbp), %rdi
	movq	-32(%rbp), %rdx
	addq	$176, %rdx
	addq	$64, %rdx
	xorl	%esi, %esi
	callq	biari_encode_symbol
	movq	-16(%rbp), %rdi
	movq	-32(%rbp), %rdx
	addq	$176, %rdx
	addq	$80, %rdx
	xorl	%esi, %esi
	callq	biari_encode_symbol
	movq	-16(%rbp), %rdi
	movq	-32(%rbp), %rdx
	addq	$176, %rdx
	addq	$96, %rdx
	movl	$1, %esi
	callq	biari_encode_symbol
	jmp	.LBB36_45
.LBB36_42:                              # %sw.bb182
	movq	-16(%rbp), %rdi
	movq	-32(%rbp), %rdx
	addq	$176, %rdx
	addq	$64, %rdx
	movl	$1, %esi
	callq	biari_encode_symbol
	movq	-16(%rbp), %rdi
	movq	-32(%rbp), %rdx
	addq	$176, %rdx
	addq	$112, %rdx
	xorl	%esi, %esi
	callq	biari_encode_symbol
	jmp	.LBB36_45
.LBB36_43:                              # %sw.bb189
	movq	-16(%rbp), %rdi
	movq	-32(%rbp), %rdx
	addq	$176, %rdx
	addq	$64, %rdx
	movl	$1, %esi
	callq	biari_encode_symbol
	movq	-16(%rbp), %rdi
	movq	-32(%rbp), %rdx
	addq	$176, %rdx
	addq	$112, %rdx
	movl	$1, %esi
	callq	biari_encode_symbol
	jmp	.LBB36_45
.LBB36_44:                              # %sw.default
	movabsq	$.L.str.2, %rdi
	movb	$0, %al
	callq	printf
	movl	$1, %edi
	callq	exit
.LBB36_45:                              # %sw.epilog
	jmp	.LBB36_91
.LBB36_46:                              # %if.else196
	cmpl	$0, -4(%rbp)
	jne	.LBB36_48
# %bb.47:                               # %if.then199
	movq	-16(%rbp), %rdi
	movq	-32(%rbp), %rdx
	addq	$352, %rdx              # imm = 0x160
	movslq	-20(%rbp), %rax
	shlq	$4, %rax
	addq	%rax, %rdx
	xorl	%esi, %esi
	callq	biari_encode_symbol
	jmp	.LBB36_90
.LBB36_48:                              # %if.else204
	cmpl	$2, -4(%rbp)
	jg	.LBB36_53
# %bb.49:                               # %if.then207
	movq	-16(%rbp), %rdi
	movq	-32(%rbp), %rdx
	addq	$352, %rdx              # imm = 0x160
	movslq	-20(%rbp), %rax
	shlq	$4, %rax
	addq	%rax, %rdx
	movl	$1, %esi
	callq	biari_encode_symbol
	movq	-16(%rbp), %rdi
	movq	-32(%rbp), %rdx
	addq	$352, %rdx              # imm = 0x160
	addq	$64, %rdx
	xorl	%esi, %esi
	callq	biari_encode_symbol
	movl	-4(%rbp), %eax
	subl	$1, %eax
	movl	%eax, -40(%rbp)
	cmpl	$0, -40(%rbp)
	je	.LBB36_51
# %bb.50:                               # %if.then217
	movq	-16(%rbp), %rdi
	movq	-32(%rbp), %rdx
	addq	$352, %rdx              # imm = 0x160
	addq	$96, %rdx
	movl	$1, %esi
	callq	biari_encode_symbol
	jmp	.LBB36_52
.LBB36_51:                              # %if.else221
	movq	-16(%rbp), %rdi
	movq	-32(%rbp), %rdx
	addq	$352, %rdx              # imm = 0x160
	addq	$96, %rdx
	xorl	%esi, %esi
	callq	biari_encode_symbol
.LBB36_52:                              # %if.end225
	jmp	.LBB36_89
.LBB36_53:                              # %if.else226
	cmpl	$10, -4(%rbp)
	jg	.LBB36_64
# %bb.54:                               # %if.then229
	movq	-16(%rbp), %rdi
	movq	-32(%rbp), %rdx
	addq	$352, %rdx              # imm = 0x160
	movslq	-20(%rbp), %rax
	shlq	$4, %rax
	addq	%rax, %rdx
	movl	$1, %esi
	callq	biari_encode_symbol
	movq	-16(%rbp), %rdi
	movq	-32(%rbp), %rdx
	addq	$352, %rdx              # imm = 0x160
	addq	$64, %rdx
	movl	$1, %esi
	callq	biari_encode_symbol
	movq	-16(%rbp), %rdi
	movq	-32(%rbp), %rdx
	addq	$352, %rdx              # imm = 0x160
	addq	$80, %rdx
	xorl	%esi, %esi
	callq	biari_encode_symbol
	movl	-4(%rbp), %eax
	subl	$3, %eax
	sarl	$2, %eax
	andl	$1, %eax
	movl	%eax, -40(%rbp)
	cmpl	$0, -40(%rbp)
	je	.LBB36_56
# %bb.55:                               # %if.then242
	movq	-16(%rbp), %rdi
	movq	-32(%rbp), %rdx
	addq	$352, %rdx              # imm = 0x160
	addq	$96, %rdx
	movl	$1, %esi
	callq	biari_encode_symbol
	jmp	.LBB36_57
.LBB36_56:                              # %if.else246
	movq	-16(%rbp), %rdi
	movq	-32(%rbp), %rdx
	addq	$352, %rdx              # imm = 0x160
	addq	$96, %rdx
	xorl	%esi, %esi
	callq	biari_encode_symbol
.LBB36_57:                              # %if.end250
	movl	-4(%rbp), %eax
	subl	$3, %eax
	sarl	$1, %eax
	andl	$1, %eax
	movl	%eax, -40(%rbp)
	cmpl	$0, -40(%rbp)
	je	.LBB36_59
# %bb.58:                               # %if.then255
	movq	-16(%rbp), %rdi
	movq	-32(%rbp), %rdx
	addq	$352, %rdx              # imm = 0x160
	addq	$96, %rdx
	movl	$1, %esi
	callq	biari_encode_symbol
	jmp	.LBB36_60
.LBB36_59:                              # %if.else259
	movq	-16(%rbp), %rdi
	movq	-32(%rbp), %rdx
	addq	$352, %rdx              # imm = 0x160
	addq	$96, %rdx
	xorl	%esi, %esi
	callq	biari_encode_symbol
.LBB36_60:                              # %if.end263
	movl	-4(%rbp), %eax
	subl	$3, %eax
	andl	$1, %eax
	movl	%eax, -40(%rbp)
	cmpl	$0, -40(%rbp)
	je	.LBB36_62
# %bb.61:                               # %if.then267
	movq	-16(%rbp), %rdi
	movq	-32(%rbp), %rdx
	addq	$352, %rdx              # imm = 0x160
	addq	$96, %rdx
	movl	$1, %esi
	callq	biari_encode_symbol
	jmp	.LBB36_63
.LBB36_62:                              # %if.else271
	movq	-16(%rbp), %rdi
	movq	-32(%rbp), %rdx
	addq	$352, %rdx              # imm = 0x160
	addq	$96, %rdx
	xorl	%esi, %esi
	callq	biari_encode_symbol
.LBB36_63:                              # %if.end275
	jmp	.LBB36_88
.LBB36_64:                              # %if.else276
	cmpl	$11, -4(%rbp)
	je	.LBB36_66
# %bb.65:                               # %lor.lhs.false
	cmpl	$22, -4(%rbp)
	jne	.LBB36_70
.LBB36_66:                              # %if.then281
	movq	-16(%rbp), %rdi
	movq	-32(%rbp), %rdx
	addq	$352, %rdx              # imm = 0x160
	movslq	-20(%rbp), %rax
	shlq	$4, %rax
	addq	%rax, %rdx
	movl	$1, %esi
	callq	biari_encode_symbol
	movq	-16(%rbp), %rdi
	movq	-32(%rbp), %rdx
	addq	$352, %rdx              # imm = 0x160
	addq	$64, %rdx
	movl	$1, %esi
	callq	biari_encode_symbol
	movq	-16(%rbp), %rdi
	movq	-32(%rbp), %rdx
	addq	$352, %rdx              # imm = 0x160
	addq	$80, %rdx
	movl	$1, %esi
	callq	biari_encode_symbol
	movq	-16(%rbp), %rdi
	movq	-32(%rbp), %rdx
	addq	$352, %rdx              # imm = 0x160
	addq	$96, %rdx
	movl	$1, %esi
	callq	biari_encode_symbol
	movq	-16(%rbp), %rdi
	movq	-32(%rbp), %rdx
	addq	$352, %rdx              # imm = 0x160
	addq	$96, %rdx
	movl	$1, %esi
	callq	biari_encode_symbol
	cmpl	$11, -4(%rbp)
	jne	.LBB36_68
# %bb.67:                               # %if.then300
	movq	-16(%rbp), %rdi
	movq	-32(%rbp), %rdx
	addq	$352, %rdx              # imm = 0x160
	addq	$96, %rdx
	xorl	%esi, %esi
	callq	biari_encode_symbol
	jmp	.LBB36_69
.LBB36_68:                              # %if.else304
	movq	-16(%rbp), %rdi
	movq	-32(%rbp), %rdx
	addq	$352, %rdx              # imm = 0x160
	addq	$96, %rdx
	movl	$1, %esi
	callq	biari_encode_symbol
.LBB36_69:                              # %if.end308
	jmp	.LBB36_87
.LBB36_70:                              # %if.else309
	cmpl	$22, -4(%rbp)
	jle	.LBB36_72
# %bb.71:                               # %if.then312
	movl	-4(%rbp), %eax
	addl	$-1, %eax
	movl	%eax, -4(%rbp)
.LBB36_72:                              # %if.end313
	movq	-16(%rbp), %rdi
	movq	-32(%rbp), %rdx
	addq	$352, %rdx              # imm = 0x160
	movslq	-20(%rbp), %rax
	shlq	$4, %rax
	addq	%rax, %rdx
	movl	$1, %esi
	callq	biari_encode_symbol
	movq	-16(%rbp), %rdi
	movq	-32(%rbp), %rdx
	addq	$352, %rdx              # imm = 0x160
	addq	$64, %rdx
	movl	$1, %esi
	callq	biari_encode_symbol
	movq	-16(%rbp), %rdi
	movq	-32(%rbp), %rdx
	addq	$352, %rdx              # imm = 0x160
	addq	$80, %rdx
	movl	$1, %esi
	callq	biari_encode_symbol
	movl	-4(%rbp), %eax
	subl	$12, %eax
	sarl	$3, %eax
	andl	$1, %eax
	movl	%eax, -40(%rbp)
	cmpl	$0, -40(%rbp)
	je	.LBB36_74
# %bb.73:                               # %if.then328
	movq	-16(%rbp), %rdi
	movq	-32(%rbp), %rdx
	addq	$352, %rdx              # imm = 0x160
	addq	$96, %rdx
	movl	$1, %esi
	callq	biari_encode_symbol
	jmp	.LBB36_75
.LBB36_74:                              # %if.else332
	movq	-16(%rbp), %rdi
	movq	-32(%rbp), %rdx
	addq	$352, %rdx              # imm = 0x160
	addq	$96, %rdx
	xorl	%esi, %esi
	callq	biari_encode_symbol
.LBB36_75:                              # %if.end336
	movl	-4(%rbp), %eax
	subl	$12, %eax
	sarl	$2, %eax
	andl	$1, %eax
	movl	%eax, -40(%rbp)
	cmpl	$0, -40(%rbp)
	je	.LBB36_77
# %bb.76:                               # %if.then341
	movq	-16(%rbp), %rdi
	movq	-32(%rbp), %rdx
	addq	$352, %rdx              # imm = 0x160
	addq	$96, %rdx
	movl	$1, %esi
	callq	biari_encode_symbol
	jmp	.LBB36_78
.LBB36_77:                              # %if.else345
	movq	-16(%rbp), %rdi
	movq	-32(%rbp), %rdx
	addq	$352, %rdx              # imm = 0x160
	addq	$96, %rdx
	xorl	%esi, %esi
	callq	biari_encode_symbol
.LBB36_78:                              # %if.end349
	movl	-4(%rbp), %eax
	subl	$12, %eax
	sarl	$1, %eax
	andl	$1, %eax
	movl	%eax, -40(%rbp)
	cmpl	$0, -40(%rbp)
	je	.LBB36_80
# %bb.79:                               # %if.then354
	movq	-16(%rbp), %rdi
	movq	-32(%rbp), %rdx
	addq	$352, %rdx              # imm = 0x160
	addq	$96, %rdx
	movl	$1, %esi
	callq	biari_encode_symbol
	jmp	.LBB36_81
.LBB36_80:                              # %if.else358
	movq	-16(%rbp), %rdi
	movq	-32(%rbp), %rdx
	addq	$352, %rdx              # imm = 0x160
	addq	$96, %rdx
	xorl	%esi, %esi
	callq	biari_encode_symbol
.LBB36_81:                              # %if.end362
	movl	-4(%rbp), %eax
	subl	$12, %eax
	andl	$1, %eax
	movl	%eax, -40(%rbp)
	cmpl	$0, -40(%rbp)
	je	.LBB36_83
# %bb.82:                               # %if.then366
	movq	-16(%rbp), %rdi
	movq	-32(%rbp), %rdx
	addq	$352, %rdx              # imm = 0x160
	addq	$96, %rdx
	movl	$1, %esi
	callq	biari_encode_symbol
	jmp	.LBB36_84
.LBB36_83:                              # %if.else370
	movq	-16(%rbp), %rdi
	movq	-32(%rbp), %rdx
	addq	$352, %rdx              # imm = 0x160
	addq	$96, %rdx
	xorl	%esi, %esi
	callq	biari_encode_symbol
.LBB36_84:                              # %if.end374
	cmpl	$22, -4(%rbp)
	jl	.LBB36_86
# %bb.85:                               # %if.then377
	movl	-4(%rbp), %eax
	addl	$1, %eax
	movl	%eax, -4(%rbp)
.LBB36_86:                              # %if.end378
	jmp	.LBB36_87
.LBB36_87:                              # %if.end379
	jmp	.LBB36_88
.LBB36_88:                              # %if.end380
	jmp	.LBB36_89
.LBB36_89:                              # %if.end381
	jmp	.LBB36_90
.LBB36_90:                              # %if.end382
	jmp	.LBB36_91
.LBB36_91:                              # %if.end383
	movl	-4(%rbp), %eax
	cmpl	-64(%rbp), %eax
	jne	.LBB36_101
# %bb.92:                               # %if.then386
	cmpl	$25, -36(%rbp)
	jne	.LBB36_94
# %bb.93:                               # %if.then389
	movq	-16(%rbp), %rdi
	movl	$1, %esi
	callq	biari_encode_symbol_final
	jmp	.LBB36_102
.LBB36_94:                              # %if.end390
	movq	-16(%rbp), %rdi
	xorl	%esi, %esi
	callq	biari_encode_symbol_final
	movl	$8, -20(%rbp)
	movl	-36(%rbp), %eax
	cltd
	movl	$12, %ecx
	idivl	%ecx
	movl	%eax, -4(%rbp)
	movq	-16(%rbp), %rdi
	movl	-4(%rbp), %eax
	movzbl	%al, %eax
	movq	-32(%rbp), %rdx
	addq	$176, %rdx
	movslq	-20(%rbp), %rcx
	shlq	$4, %rcx
	addq	%rcx, %rdx
	movswl	%ax, %esi
	callq	biari_encode_symbol
	movl	-36(%rbp), %eax
	cltd
	movl	$12, %ecx
	idivl	%ecx
	movl	%edx, -36(%rbp)
	movl	-36(%rbp), %eax
	cltd
	movl	$4, %ecx
	idivl	%ecx
	movl	%eax, -4(%rbp)
	movl	$9, -20(%rbp)
	cmpl	$0, -4(%rbp)
	jne	.LBB36_96
# %bb.95:                               # %if.then403
	movq	-16(%rbp), %rdi
	movq	-32(%rbp), %rdx
	addq	$176, %rdx
	movslq	-20(%rbp), %rax
	shlq	$4, %rax
	addq	%rax, %rdx
	xorl	%esi, %esi
	callq	biari_encode_symbol
	jmp	.LBB36_100
.LBB36_96:                              # %if.else409
	movq	-16(%rbp), %rdi
	movq	-32(%rbp), %rdx
	addq	$176, %rdx
	movslq	-20(%rbp), %rax
	shlq	$4, %rax
	addq	%rax, %rdx
	movl	$1, %esi
	callq	biari_encode_symbol
	cmpl	$1, -4(%rbp)
	jne	.LBB36_98
# %bb.97:                               # %if.then417
	movq	-16(%rbp), %rdi
	movq	-32(%rbp), %rdx
	addq	$176, %rdx
	movslq	-20(%rbp), %rax
	shlq	$4, %rax
	addq	%rax, %rdx
	xorl	%esi, %esi
	callq	biari_encode_symbol
	jmp	.LBB36_99
.LBB36_98:                              # %if.else423
	movq	-16(%rbp), %rdi
	movq	-32(%rbp), %rdx
	addq	$176, %rdx
	movslq	-20(%rbp), %rax
	shlq	$4, %rax
	addq	%rax, %rdx
	movl	$1, %esi
	callq	biari_encode_symbol
.LBB36_99:                              # %if.end429
	jmp	.LBB36_100
.LBB36_100:                             # %if.end430
	movl	-36(%rbp), %eax
	cltd
	movl	$4, %ecx
	idivl	%ecx
	movl	%edx, -36(%rbp)
	movl	$10, -20(%rbp)
	movl	-36(%rbp), %eax
	cltd
	movl	$2, %ecx
	idivl	%ecx
	movl	%eax, -4(%rbp)
	movq	-16(%rbp), %rdi
	movl	-4(%rbp), %eax
	movzbl	%al, %eax
	movq	-32(%rbp), %rdx
	addq	$176, %rdx
	movslq	-20(%rbp), %rcx
	shlq	$4, %rcx
	addq	%rcx, %rdx
	movswl	%ax, %esi
	callq	biari_encode_symbol
	movl	-36(%rbp), %eax
	cltd
	movl	$2, %ecx
	idivl	%ecx
	movl	%edx, -4(%rbp)
	movq	-16(%rbp), %rdi
	movl	-4(%rbp), %eax
	movzbl	%al, %eax
	movq	-32(%rbp), %rdx
	addq	$176, %rdx
	movslq	-20(%rbp), %rcx
	shlq	$4, %rcx
	addq	%rcx, %rdx
	movswl	%ax, %esi
	callq	biari_encode_symbol
.LBB36_101:                             # %if.end448
	jmp	.LBB36_102
.LBB36_102:                             # %if.end449
	cmpl	$1031555949, -84(%rbp)  # imm = 0x3D7C4B6D
	jne	.LBB36_104
.LBB36_103:
	addq	$96, %rsp
	popq	%rbp
	.cfi_def_cfa %rsp, 8
	retq
.LBB36_104:                             # %func_exit
	.cfi_def_cfa %rbp, 16
	callq	detect_breach
	jmp	.LBB36_103
.Lfunc_end36:
	.size	writeMB_typeInfo_CABAC.9, .Lfunc_end36-writeMB_typeInfo_CABAC.9
	.cfi_endproc
	.section	.rodata,"a",@progbits
	.p2align	3
.LJTI36_0:
	.quad	.LBB36_37
	.quad	.LBB36_38
	.quad	.LBB36_39
	.quad	.LBB36_40
	.quad	.LBB36_41
	.quad	.LBB36_41
	.quad	.LBB36_42
	.quad	.LBB36_43
                                        # -- End function
	.text
	.globl	writeMVD_CABAC.10       # -- Begin function writeMVD_CABAC.10
	.p2align	4, 0x90
	.type	writeMVD_CABAC.10,@function
writeMVD_CABAC.10:                      # @writeMVD_CABAC.10
	.cfi_startproc
# %bb.0:                                # %entry
	pushq	%rbp
	.cfi_def_cfa_offset 16
	.cfi_offset %rbp, -16
	movq	%rsp, %rbp
	.cfi_def_cfa_register %rbp
	subq	$144, %rsp
	movl	$1862331384, -128(%rbp) # imm = 0x6F00EBF8
	movq	%rdi, -64(%rbp)
	movq	%rsi, -48(%rbp)
	movq	img, %rax
	movl	72(%rax), %eax
	movl	%eax, -36(%rbp)
	movq	img, %rax
	movl	76(%rax), %eax
	movl	%eax, -32(%rbp)
	movq	-64(%rbp), %rax
	movl	8(%rax), %eax
	andl	$1, %eax
	movl	%eax, -16(%rbp)
	movq	-64(%rbp), %rax
	movl	8(%rax), %eax
	sarl	$1, %eax
	movl	%eax, -4(%rbp)
	movq	img, %rax
	movq	14160(%rax), %rax
	movq	32(%rax), %rax
	movq	%rax, -120(%rbp)
	movq	img, %rax
	movq	14168(%rax), %rax
	movq	img, %rcx
	movslq	12(%rcx), %rcx
	imulq	$632, %rcx, %rcx        # imm = 0x278
	addq	%rcx, %rax
	movq	%rax, -56(%rbp)
	movq	img, %rax
	movl	12(%rax), %edi
	movl	-36(%rbp), %esi
	movl	-32(%rbp), %edx
	movl	$4294967295, %ecx       # imm = 0xFFFFFFFF
	xorl	%r8d, %r8d
	leaq	-88(%rbp), %r9
	callq	getLuma4x4Neighbour
	movq	img, %rax
	movl	12(%rax), %edi
	movl	-36(%rbp), %esi
	movl	-32(%rbp), %edx
	movl	$0, %ecx
	movl	$4294967295, %r8d       # imm = 0xFFFFFFFF
	leaq	-112(%rbp), %r9
	callq	getLuma4x4Neighbour
	cmpl	$0, -112(%rbp)
	je	.LBB37_15
# %bb.1:                                # %if.then
	movq	img, %rax
	movq	14168(%rax), %rax
	movslq	-108(%rbp), %rcx
	imulq	$632, %rcx, %rcx        # imm = 0x278
	addq	%rcx, %rax
	addq	$76, %rax
	movslq	-16(%rbp), %rcx
	shlq	$7, %rcx
	addq	%rcx, %rax
	movslq	-100(%rbp), %rcx
	shlq	$5, %rcx
	addq	%rcx, %rax
	movslq	-104(%rbp), %rcx
	shlq	$3, %rcx
	addq	%rcx, %rax
	movslq	-4(%rbp), %rcx
	cmpl	$0, (%rax,%rcx,4)
	jge	.LBB37_3
# %bb.2:                                # %cond.true
	xorl	%eax, %eax
	movq	img, %rcx
	movq	14168(%rcx), %rcx
	movslq	-108(%rbp), %rdx
	imulq	$632, %rdx, %rdx        # imm = 0x278
	addq	%rdx, %rcx
	addq	$76, %rcx
	movslq	-16(%rbp), %rdx
	shlq	$7, %rdx
	addq	%rdx, %rcx
	movslq	-100(%rbp), %rdx
	shlq	$5, %rdx
	addq	%rdx, %rcx
	movslq	-104(%rbp), %rdx
	shlq	$3, %rdx
	addq	%rdx, %rcx
	movslq	-4(%rbp), %rdx
	subl	(%rcx,%rdx,4), %eax
	jmp	.LBB37_4
.LBB37_3:                               # %cond.false
	movq	img, %rax
	movq	14168(%rax), %rax
	movslq	-108(%rbp), %rcx
	imulq	$632, %rcx, %rcx        # imm = 0x278
	addq	%rcx, %rax
	addq	$76, %rax
	movslq	-16(%rbp), %rcx
	shlq	$7, %rcx
	addq	%rcx, %rax
	movslq	-100(%rbp), %rcx
	shlq	$5, %rcx
	addq	%rcx, %rax
	movslq	-104(%rbp), %rcx
	shlq	$3, %rcx
	addq	%rcx, %rax
	movslq	-4(%rbp), %rcx
	movl	(%rax,%rcx,4), %eax
.LBB37_4:                               # %cond.end
	movl	%eax, -20(%rbp)
	movq	img, %rax
	cmpl	$0, 72400(%rax)
	je	.LBB37_14
# %bb.5:                                # %land.lhs.true
	cmpl	$1, -4(%rbp)
	jne	.LBB37_14
# %bb.6:                                # %if.then47
	movq	-56(%rbp), %rax
	cmpl	$0, 532(%rax)
	jne	.LBB37_9
# %bb.7:                                # %land.lhs.true49
	movq	img, %rax
	movq	14168(%rax), %rax
	movslq	-108(%rbp), %rcx
	imulq	$632, %rcx, %rcx        # imm = 0x278
	addq	%rcx, %rax
	cmpl	$1, 532(%rax)
	jne	.LBB37_9
# %bb.8:                                # %if.then56
	movl	-20(%rbp), %eax
	shll	$1, %eax
	movl	%eax, -20(%rbp)
	jmp	.LBB37_13
.LBB37_9:                               # %if.else
	movq	-56(%rbp), %rax
	cmpl	$1, 532(%rax)
	jne	.LBB37_12
# %bb.10:                               # %land.lhs.true59
	movq	img, %rax
	movq	14168(%rax), %rax
	movslq	-108(%rbp), %rcx
	imulq	$632, %rcx, %rcx        # imm = 0x278
	addq	%rcx, %rax
	cmpl	$0, 532(%rax)
	jne	.LBB37_12
# %bb.11:                               # %if.then66
	movl	-20(%rbp), %eax
	cltd
	movl	$2, %ecx
	idivl	%ecx
	movl	%eax, -20(%rbp)
.LBB37_12:                              # %if.end
	jmp	.LBB37_13
.LBB37_13:                              # %if.end67
	jmp	.LBB37_14
.LBB37_14:                              # %if.end68
	jmp	.LBB37_16
.LBB37_15:                              # %if.else69
	movl	$0, -20(%rbp)
.LBB37_16:                              # %if.end70
	cmpl	$0, -88(%rbp)
	je	.LBB37_31
# %bb.17:                               # %if.then73
	movq	img, %rax
	movq	14168(%rax), %rax
	movslq	-84(%rbp), %rcx
	imulq	$632, %rcx, %rcx        # imm = 0x278
	addq	%rcx, %rax
	addq	$76, %rax
	movslq	-16(%rbp), %rcx
	shlq	$7, %rcx
	addq	%rcx, %rax
	movslq	-76(%rbp), %rcx
	shlq	$5, %rcx
	addq	%rcx, %rax
	movslq	-80(%rbp), %rcx
	shlq	$3, %rcx
	addq	%rcx, %rax
	movslq	-4(%rbp), %rcx
	cmpl	$0, (%rax,%rcx,4)
	jge	.LBB37_19
# %bb.18:                               # %cond.true90
	xorl	%eax, %eax
	movq	img, %rcx
	movq	14168(%rcx), %rcx
	movslq	-84(%rbp), %rdx
	imulq	$632, %rdx, %rdx        # imm = 0x278
	addq	%rdx, %rcx
	addq	$76, %rcx
	movslq	-16(%rbp), %rdx
	shlq	$7, %rdx
	addq	%rdx, %rcx
	movslq	-76(%rbp), %rdx
	shlq	$5, %rdx
	addq	%rdx, %rcx
	movslq	-80(%rbp), %rdx
	shlq	$3, %rdx
	addq	%rdx, %rcx
	movslq	-4(%rbp), %rdx
	subl	(%rcx,%rdx,4), %eax
	jmp	.LBB37_20
.LBB37_19:                              # %cond.false107
	movq	img, %rax
	movq	14168(%rax), %rax
	movslq	-84(%rbp), %rcx
	imulq	$632, %rcx, %rcx        # imm = 0x278
	addq	%rcx, %rax
	addq	$76, %rax
	movslq	-16(%rbp), %rcx
	shlq	$7, %rcx
	addq	%rcx, %rax
	movslq	-76(%rbp), %rcx
	shlq	$5, %rcx
	addq	%rcx, %rax
	movslq	-80(%rbp), %rcx
	shlq	$3, %rcx
	addq	%rcx, %rax
	movslq	-4(%rbp), %rcx
	movl	(%rax,%rcx,4), %eax
.LBB37_20:                              # %cond.end123
	movl	%eax, -12(%rbp)
	movq	img, %rax
	cmpl	$0, 72400(%rax)
	je	.LBB37_30
# %bb.21:                               # %land.lhs.true127
	cmpl	$1, -4(%rbp)
	jne	.LBB37_30
# %bb.22:                               # %if.then129
	movq	-56(%rbp), %rax
	cmpl	$0, 532(%rax)
	jne	.LBB37_25
# %bb.23:                               # %land.lhs.true132
	movq	img, %rax
	movq	14168(%rax), %rax
	movslq	-84(%rbp), %rcx
	imulq	$632, %rcx, %rcx        # imm = 0x278
	addq	%rcx, %rax
	cmpl	$1, 532(%rax)
	jne	.LBB37_25
# %bb.24:                               # %if.then139
	movl	-12(%rbp), %eax
	shll	$1, %eax
	movl	%eax, -12(%rbp)
	jmp	.LBB37_29
.LBB37_25:                              # %if.else141
	movq	-56(%rbp), %rax
	cmpl	$1, 532(%rax)
	jne	.LBB37_28
# %bb.26:                               # %land.lhs.true144
	movq	img, %rax
	movq	14168(%rax), %rax
	movslq	-84(%rbp), %rcx
	imulq	$632, %rcx, %rcx        # imm = 0x278
	addq	%rcx, %rax
	cmpl	$0, 532(%rax)
	jne	.LBB37_28
# %bb.27:                               # %if.then151
	movl	-12(%rbp), %eax
	cltd
	movl	$2, %ecx
	idivl	%ecx
	movl	%eax, -12(%rbp)
.LBB37_28:                              # %if.end153
	jmp	.LBB37_29
.LBB37_29:                              # %if.end154
	jmp	.LBB37_30
.LBB37_30:                              # %if.end155
	jmp	.LBB37_32
.LBB37_31:                              # %if.else156
	movl	$0, -12(%rbp)
.LBB37_32:                              # %if.end157
	movl	-12(%rbp), %eax
	addl	-20(%rbp), %eax
	movl	%eax, -132(%rbp)
	cmpl	$3, %eax
	jge	.LBB37_34
# %bb.33:                               # %if.then159
	imull	$5, -4(%rbp), %eax
	movl	%eax, -8(%rbp)
	jmp	.LBB37_38
.LBB37_34:                              # %if.else161
	cmpl	$32, -132(%rbp)
	jle	.LBB37_36
# %bb.35:                               # %if.then163
	imull	$5, -4(%rbp), %eax
	addl	$3, %eax
	movl	%eax, -8(%rbp)
	jmp	.LBB37_37
.LBB37_36:                              # %if.else166
	imull	$5, -4(%rbp), %eax
	addl	$2, %eax
	movl	%eax, -8(%rbp)
.LBB37_37:                              # %if.end169
	jmp	.LBB37_38
.LBB37_38:                              # %if.end170
	movq	-64(%rbp), %rax
	movl	4(%rax), %eax
	movl	%eax, -28(%rbp)
	movl	-8(%rbp), %eax
	movq	-64(%rbp), %rcx
	movl	%eax, 24(%rcx)
	cmpl	$0, -28(%rbp)
	jge	.LBB37_40
# %bb.39:                               # %cond.true172
	xorl	%eax, %eax
	subl	-28(%rbp), %eax
	jmp	.LBB37_41
.LBB37_40:                              # %cond.false174
	movl	-28(%rbp), %eax
.LBB37_41:                              # %cond.end175
	movl	%eax, -24(%rbp)
	cmpl	$0, -24(%rbp)
	jne	.LBB37_43
# %bb.42:                               # %if.then178
	movq	-48(%rbp), %rdi
	movq	-120(%rbp), %rdx
	addq	$816, %rdx              # imm = 0x330
	movslq	-8(%rbp), %rax
	shlq	$4, %rax
	addq	%rax, %rdx
	xorl	%esi, %esi
	callq	biari_encode_symbol
	jmp	.LBB37_44
.LBB37_43:                              # %if.else182
	movq	-48(%rbp), %rdi
	movq	-120(%rbp), %rdx
	addq	$816, %rdx              # imm = 0x330
	movslq	-8(%rbp), %rax
	shlq	$4, %rax
	addq	%rax, %rdx
	movl	$1, %esi
	callq	biari_encode_symbol
	movl	-24(%rbp), %eax
	addl	$-1, %eax
	movl	%eax, -24(%rbp)
	imull	$5, -4(%rbp), %eax
	movl	%eax, -8(%rbp)
	movq	-48(%rbp), %rdi
	movl	-24(%rbp), %esi
	movq	-120(%rbp), %rdx
	addq	$816, %rdx              # imm = 0x330
	addq	$160, %rdx
	movslq	-8(%rbp), %rax
	shlq	$4, %rax
	addq	%rax, %rdx
	movl	$3, %ecx
	callq	unary_exp_golomb_mv_encode
	xorl	%eax, %eax
	movl	-28(%rbp), %ecx
	cmpl	$0, %ecx
	movl	$1, %ecx
	cmovll	%ecx, %eax
	movl	%eax, -124(%rbp)
	movq	-48(%rbp), %rdi
	movl	-124(%rbp), %eax
	movzbl	%al, %eax
	movswl	%ax, %esi
	callq	biari_encode_symbol_eq_prob
.LBB37_44:                              # %if.end193
	cmpl	$1862331384, -128(%rbp) # imm = 0x6F00EBF8
	jne	.LBB37_46
.LBB37_45:
	addq	$144, %rsp
	popq	%rbp
	.cfi_def_cfa %rsp, 8
	retq
.LBB37_46:                              # %func_exit
	.cfi_def_cfa %rbp, 16
	callq	detect_breach
	jmp	.LBB37_45
.Lfunc_end37:
	.size	writeMVD_CABAC.10, .Lfunc_end37-writeMVD_CABAC.10
	.cfi_endproc
                                        # -- End function
	.globl	writeRunLevel_CABAC.11  # -- Begin function writeRunLevel_CABAC.11
	.p2align	4, 0x90
	.type	writeRunLevel_CABAC.11,@function
writeRunLevel_CABAC.11:                 # @writeRunLevel_CABAC.11
	.cfi_startproc
# %bb.0:                                # %entry
	pushq	%rbp
	.cfi_def_cfa_offset 16
	.cfi_offset %rbp, -16
	movq	%rsp, %rbp
	.cfi_def_cfa_register %rbp
	subq	$48, %rsp
	movl	$1775745675, -36(%rbp)  # imm = 0x69D7BA8B
	movq	%rdi, -16(%rbp)
	movq	%rsi, -32(%rbp)
	movq	img, %rax
	movq	14168(%rax), %rax
	movq	img, %rcx
	movslq	12(%rcx), %rcx
	imulq	$632, %rcx, %rcx        # imm = 0x278
	addq	%rcx, %rax
	movq	%rax, -24(%rbp)
	movq	-16(%rbp), %rax
	cmpl	$0, 4(%rax)
	je	.LBB38_6
# %bb.1:                                # %if.then
	movl	$0, -4(%rbp)
.LBB38_2:                               # %for.cond
                                        # =>This Inner Loop Header: Depth=1
	movl	-4(%rbp), %eax
	movq	-16(%rbp), %rcx
	cmpl	8(%rcx), %eax
	jge	.LBB38_5
# %bb.3:                                # %for.body
                                        #   in Loop: Header=BB38_2 Depth=1
	movl	writeRunLevel_CABAC.pos, %eax
	movl	%eax, %ecx
	addl	$1, %ecx
	movl	%ecx, writeRunLevel_CABAC.pos
	cltq
	movl	$0, writeRunLevel_CABAC.coeff(,%rax,4)
# %bb.4:                                # %for.inc
                                        #   in Loop: Header=BB38_2 Depth=1
	movl	-4(%rbp), %eax
	addl	$1, %eax
	movl	%eax, -4(%rbp)
	jmp	.LBB38_2
.LBB38_5:                               # %for.end
	movq	-16(%rbp), %rax
	movl	4(%rax), %eax
	movl	writeRunLevel_CABAC.pos, %ecx
	movl	%ecx, %edx
	addl	$1, %edx
	movl	%edx, writeRunLevel_CABAC.pos
	movslq	%ecx, %rcx
	movl	%eax, writeRunLevel_CABAC.coeff(,%rcx,4)
	movl	writeRunLevel_CABAC.coeff_ctr, %eax
	addl	$1, %eax
	movl	%eax, writeRunLevel_CABAC.coeff_ctr
	jmp	.LBB38_14
.LBB38_6:                               # %if.else
	jmp	.LBB38_7
.LBB38_7:                               # %for.cond10
                                        # =>This Inner Loop Header: Depth=1
	cmpl	$64, writeRunLevel_CABAC.pos
	jge	.LBB38_10
# %bb.8:                                # %for.body12
                                        #   in Loop: Header=BB38_7 Depth=1
	movslq	writeRunLevel_CABAC.pos, %rax
	movl	$0, writeRunLevel_CABAC.coeff(,%rax,4)
# %bb.9:                                # %for.inc15
                                        #   in Loop: Header=BB38_7 Depth=1
	movl	writeRunLevel_CABAC.pos, %eax
	addl	$1, %eax
	movl	%eax, writeRunLevel_CABAC.pos
	jmp	.LBB38_7
.LBB38_10:                              # %for.end17
	jmp	.LBB38_11
.LBB38_11:                              # %if.end
	xorl	%ecx, %ecx
	movq	-24(%rbp), %rdi
	movq	-32(%rbp), %rsi
	movq	-16(%rbp), %rax
	movl	24(%rax), %edx
	movl	writeRunLevel_CABAC.coeff_ctr, %eax
	cmpl	$0, %eax
	movl	$1, %eax
	cmovgl	%eax, %ecx
	callq	write_and_store_CBP_block_bit
	cmpl	$0, writeRunLevel_CABAC.coeff_ctr
	jle	.LBB38_13
# %bb.12:                               # %if.then20
	movq	-24(%rbp), %rdi
	movq	-32(%rbp), %rsi
	movq	-16(%rbp), %rax
	movl	24(%rax), %edx
	movl	writeRunLevel_CABAC.coeff_ctr, %r8d
	movabsq	$writeRunLevel_CABAC.coeff, %rcx
	callq	write_significance_map
	movq	-24(%rbp), %rdi
	movq	-32(%rbp), %rsi
	movq	-16(%rbp), %rax
	movl	24(%rax), %edx
	movabsq	$writeRunLevel_CABAC.coeff, %rcx
	callq	write_significant_coefficients
.LBB38_13:                              # %if.end23
	movl	$0, writeRunLevel_CABAC.coeff_ctr
	movl	$0, writeRunLevel_CABAC.pos
.LBB38_14:                              # %return
	cmpl	$1775745675, -36(%rbp)  # imm = 0x69D7BA8B
	jne	.LBB38_16
.LBB38_15:
	addq	$48, %rsp
	popq	%rbp
	.cfi_def_cfa %rsp, 8
	retq
.LBB38_16:                              # %func_exit
	.cfi_def_cfa %rbp, 16
	callq	detect_breach
	jmp	.LBB38_15
.Lfunc_end38:
	.size	writeRunLevel_CABAC.11, .Lfunc_end38-writeRunLevel_CABAC.11
	.cfi_endproc
                                        # -- End function
	.globl	writeCIPredMode_CABAC.12 # -- Begin function writeCIPredMode_CABAC.12
	.p2align	4, 0x90
	.type	writeCIPredMode_CABAC.12,@function
writeCIPredMode_CABAC.12:               # @writeCIPredMode_CABAC.12
	.cfi_startproc
# %bb.0:                                # %entry
	pushq	%rbp
	.cfi_def_cfa_offset 16
	.cfi_offset %rbp, -16
	movq	%rsp, %rbp
	.cfi_def_cfa_register %rbp
	subq	$64, %rsp
	movl	$810568931, -44(%rbp)   # imm = 0x30504CE3
	movq	%rdi, -56(%rbp)
	movq	%rsi, -32(%rbp)
	movq	img, %rax
	movq	14160(%rax), %rax
	movq	40(%rax), %rax
	movq	%rax, -40(%rbp)
	movq	img, %rax
	movq	14168(%rax), %rax
	movq	img, %rcx
	movslq	12(%rcx), %rcx
	imulq	$632, %rcx, %rcx        # imm = 0x278
	addq	%rcx, %rax
	movq	%rax, -24(%rbp)
	movq	-56(%rbp), %rax
	movl	4(%rax), %eax
	movl	%eax, -12(%rbp)
	movq	-24(%rbp), %rax
	cmpq	$0, 56(%rax)
	jne	.LBB39_2
# %bb.1:                                # %if.then
	movl	$0, -4(%rbp)
	jmp	.LBB39_3
.LBB39_2:                               # %if.else
	xorl	%eax, %eax
	movq	-24(%rbp), %rcx
	movq	56(%rcx), %rcx
	movl	524(%rcx), %ecx
	cmpl	$0, %ecx
	movl	$1, %ecx
	cmovnel	%ecx, %eax
	movl	%eax, -4(%rbp)
.LBB39_3:                               # %if.end
	movq	-24(%rbp), %rax
	cmpq	$0, 64(%rax)
	jne	.LBB39_5
# %bb.4:                                # %if.then4
	movl	$0, -16(%rbp)
	jmp	.LBB39_6
.LBB39_5:                               # %if.else5
	xorl	%eax, %eax
	movq	-24(%rbp), %rcx
	movq	64(%rcx), %rcx
	movl	524(%rcx), %ecx
	cmpl	$0, %ecx
	movl	$1, %ecx
	cmovnel	%ecx, %eax
	movl	%eax, -16(%rbp)
.LBB39_6:                               # %if.end10
	movl	-16(%rbp), %eax
	addl	-4(%rbp), %eax
	movl	%eax, -8(%rbp)
	cmpl	$0, -12(%rbp)
	jne	.LBB39_8
# %bb.7:                                # %if.then12
	movq	-32(%rbp), %rdi
	movq	-40(%rbp), %rdx
	addq	$32, %rdx
	movslq	-8(%rbp), %rax
	shlq	$4, %rax
	addq	%rax, %rdx
	xorl	%esi, %esi
	callq	biari_encode_symbol
	jmp	.LBB39_9
.LBB39_8:                               # %if.else13
	movq	-32(%rbp), %rdi
	movq	-40(%rbp), %rdx
	addq	$32, %rdx
	movslq	-8(%rbp), %rax
	shlq	$4, %rax
	addq	%rax, %rdx
	movl	$1, %esi
	callq	biari_encode_symbol
	movq	-32(%rbp), %rdi
	movl	-12(%rbp), %esi
	subl	$1, %esi
	movq	-40(%rbp), %rdx
	addq	$32, %rdx
	addq	$48, %rdx
	xorl	%ecx, %ecx
	movl	$2, %r8d
	callq	unary_bin_max_encode
.LBB39_9:                               # %if.end21
	cmpl	$810568931, -44(%rbp)   # imm = 0x30504CE3
	jne	.LBB39_11
.LBB39_10:
	addq	$64, %rsp
	popq	%rbp
	.cfi_def_cfa %rsp, 8
	retq
.LBB39_11:                              # %func_exit
	.cfi_def_cfa %rbp, 16
	callq	detect_breach
	jmp	.LBB39_10
.Lfunc_end39:
	.size	writeCIPredMode_CABAC.12, .Lfunc_end39-writeCIPredMode_CABAC.12
	.cfi_endproc
                                        # -- End function
	.globl	writeMB_skip_flagInfo_CABAC.13 # -- Begin function writeMB_skip_flagInfo_CABAC.13
	.p2align	4, 0x90
	.type	writeMB_skip_flagInfo_CABAC.13,@function
writeMB_skip_flagInfo_CABAC.13:         # @writeMB_skip_flagInfo_CABAC.13
	.cfi_startproc
# %bb.0:                                # %entry
	pushq	%rbp
	.cfi_def_cfa_offset 16
	.cfi_offset %rbp, -16
	movq	%rsp, %rbp
	.cfi_def_cfa_register %rbp
	subq	$64, %rsp
	movl	$2142314844, -60(%rbp)  # imm = 0x7FB1215C
	movq	%rdi, -32(%rbp)
	movq	%rsi, -48(%rbp)
	movq	img, %rax
	cmpl	$1, 24(%rax)
	sete	%al
	andb	$1, %al
	movzbl	%al, %eax
	movl	%eax, -64(%rbp)
	movq	img, %rax
	movq	14160(%rax), %rax
	movq	32(%rax), %rax
	movq	%rax, -56(%rbp)
	movq	img, %rax
	movq	14168(%rax), %rax
	movq	img, %rcx
	movslq	12(%rcx), %rcx
	imulq	$632, %rcx, %rcx        # imm = 0x278
	addq	%rcx, %rax
	movq	%rax, -24(%rbp)
	movq	-32(%rbp), %rax
	movl	4(%rax), %eax
	movl	%eax, -36(%rbp)
	cmpl	$0, -64(%rbp)
	je	.LBB40_14
# %bb.1:                                # %if.then
	movq	-24(%rbp), %rax
	cmpq	$0, 56(%rax)
	jne	.LBB40_3
# %bb.2:                                # %if.then3
	movl	$0, -12(%rbp)
	jmp	.LBB40_4
.LBB40_3:                               # %if.else
	xorl	%eax, %eax
	movq	-24(%rbp), %rcx
	movq	56(%rcx), %rcx
	movl	624(%rcx), %ecx
	cmpl	$0, %ecx
	movl	$1, %ecx
	cmovel	%eax, %ecx
	movl	%ecx, -12(%rbp)
.LBB40_4:                               # %if.end
	movq	-24(%rbp), %rax
	cmpq	$0, 64(%rax)
	jne	.LBB40_6
# %bb.5:                                # %if.then9
	movl	$0, -8(%rbp)
	jmp	.LBB40_7
.LBB40_6:                               # %if.else10
	xorl	%eax, %eax
	movq	-24(%rbp), %rcx
	movq	64(%rcx), %rcx
	movl	624(%rcx), %ecx
	cmpl	$0, %ecx
	movl	$1, %ecx
	cmovel	%eax, %ecx
	movl	%ecx, -8(%rbp)
.LBB40_7:                               # %if.end16
	movl	-8(%rbp), %eax
	addl	$7, %eax
	addl	-12(%rbp), %eax
	movl	%eax, -4(%rbp)
	movq	-32(%rbp), %rax
	cmpl	$0, 4(%rax)
	jne	.LBB40_10
# %bb.8:                                # %land.lhs.true
	movq	-32(%rbp), %rax
	cmpl	$0, 8(%rax)
	jne	.LBB40_10
# %bb.9:                                # %if.then23
	movq	-48(%rbp), %rdi
	movq	-56(%rbp), %rdx
	addq	$352, %rdx              # imm = 0x160
	movslq	-4(%rbp), %rax
	shlq	$4, %rax
	addq	%rax, %rdx
	movl	$1, %esi
	callq	biari_encode_symbol
	jmp	.LBB40_11
.LBB40_10:                              # %if.else27
	movq	-48(%rbp), %rdi
	movq	-56(%rbp), %rdx
	addq	$352, %rdx              # imm = 0x160
	movslq	-4(%rbp), %rax
	shlq	$4, %rax
	addq	%rax, %rdx
	xorl	%esi, %esi
	callq	biari_encode_symbol
.LBB40_11:                              # %if.end32
	xorl	%eax, %eax
	movq	-32(%rbp), %rcx
	cmpl	$0, 4(%rcx)
	jne	.LBB40_13
# %bb.12:                               # %land.rhs
	movq	-32(%rbp), %rax
	cmpl	$0, 8(%rax)
	sete	%al
.LBB40_13:                              # %land.end
	xorl	%ecx, %ecx
	testb	$1, %al
	movl	$1, %eax
	cmovnel	%ecx, %eax
	movq	-24(%rbp), %rcx
	movl	%eax, 624(%rcx)
	jmp	.LBB40_24
.LBB40_14:                              # %if.else41
	movq	-24(%rbp), %rax
	cmpq	$0, 56(%rax)
	jne	.LBB40_16
# %bb.15:                               # %if.then45
	movl	$0, -12(%rbp)
	jmp	.LBB40_17
.LBB40_16:                              # %if.else46
	xorl	%eax, %eax
	movq	-24(%rbp), %rcx
	movq	56(%rcx), %rcx
	movl	624(%rcx), %ecx
	cmpl	$0, %ecx
	movl	$1, %ecx
	cmovnel	%ecx, %eax
	movl	%eax, -12(%rbp)
.LBB40_17:                              # %if.end52
	movq	-24(%rbp), %rax
	cmpq	$0, 64(%rax)
	jne	.LBB40_19
# %bb.18:                               # %if.then56
	movl	$0, -8(%rbp)
	jmp	.LBB40_20
.LBB40_19:                              # %if.else57
	xorl	%eax, %eax
	movq	-24(%rbp), %rcx
	movq	64(%rcx), %rcx
	movl	624(%rcx), %ecx
	cmpl	$0, %ecx
	movl	$1, %ecx
	cmovnel	%ecx, %eax
	movl	%eax, -8(%rbp)
.LBB40_20:                              # %if.end63
	movl	-8(%rbp), %eax
	addl	-12(%rbp), %eax
	movl	%eax, -4(%rbp)
	cmpl	$0, -36(%rbp)
	jne	.LBB40_22
# %bb.21:                               # %if.then67
	movq	-48(%rbp), %rdi
	movq	-56(%rbp), %rdx
	addq	$176, %rdx
	movslq	-4(%rbp), %rax
	shlq	$4, %rax
	addq	%rax, %rdx
	movl	$1, %esi
	callq	biari_encode_symbol
	jmp	.LBB40_23
.LBB40_22:                              # %if.else72
	movq	-48(%rbp), %rdi
	movq	-56(%rbp), %rdx
	addq	$176, %rdx
	movslq	-4(%rbp), %rax
	shlq	$4, %rax
	addq	%rax, %rdx
	xorl	%esi, %esi
	callq	biari_encode_symbol
.LBB40_23:                              # %if.end77
	xorl	%eax, %eax
	movl	-36(%rbp), %ecx
	cmpl	$0, %ecx
	movl	$1, %ecx
	cmovel	%eax, %ecx
	movq	-24(%rbp), %rax
	movl	%ecx, 624(%rax)
.LBB40_24:                              # %if.end82
	movl	-4(%rbp), %eax
	movq	-32(%rbp), %rcx
	movl	%eax, 24(%rcx)
	cmpl	$2142314844, -60(%rbp)  # imm = 0x7FB1215C
	jne	.LBB40_26
.LBB40_25:
	addq	$64, %rsp
	popq	%rbp
	.cfi_def_cfa %rsp, 8
	retq
.LBB40_26:                              # %func_exit
	.cfi_def_cfa %rbp, 16
	callq	detect_breach
	jmp	.LBB40_25
.Lfunc_end40:
	.size	writeMB_skip_flagInfo_CABAC.13, .Lfunc_end40-writeMB_skip_flagInfo_CABAC.13
	.cfi_endproc
                                        # -- End function
	.globl	unary_exp_golomb_mv_encode.14 # -- Begin function unary_exp_golomb_mv_encode.14
	.p2align	4, 0x90
	.type	unary_exp_golomb_mv_encode.14,@function
unary_exp_golomb_mv_encode.14:          # @unary_exp_golomb_mv_encode.14
	.cfi_startproc
# %bb.0:                                # %entry
	pushq	%rbp
	.cfi_def_cfa_offset 16
	.cfi_offset %rbp, -16
	movq	%rsp, %rbp
	.cfi_def_cfa_register %rbp
	subq	$64, %rsp
	movl	$1020592713, -48(%rbp)  # imm = 0x3CD50249
	movq	%rdi, -32(%rbp)
	movl	%esi, -12(%rbp)
	movq	%rdx, -56(%rbp)
	movl	%ecx, -44(%rbp)
	movl	$1, -16(%rbp)
	movq	-56(%rbp), %rax
	movq	%rax, -8(%rbp)
	movl	$8, -20(%rbp)
	cmpl	$0, -12(%rbp)
	jne	.LBB41_2
# %bb.1:                                # %if.then
	movq	-32(%rbp), %rdi
	movq	-8(%rbp), %rdx
	xorl	%esi, %esi
	callq	biari_encode_symbol
	jmp	.LBB41_16
.LBB41_2:                               # %if.else
	movq	-32(%rbp), %rdi
	movq	-8(%rbp), %rdx
	movl	$1, %esi
	callq	biari_encode_symbol
	movl	-12(%rbp), %eax
	movl	%eax, -36(%rbp)
	movl	$1, -40(%rbp)
	movq	-8(%rbp), %rax
	addq	$16, %rax
	movq	%rax, -8(%rbp)
.LBB41_3:                               # %while.cond
                                        # =>This Inner Loop Header: Depth=1
	xorl	%eax, %eax
	movl	-36(%rbp), %ecx
	addl	$-1, %ecx
	movl	%ecx, -36(%rbp)
	cmpl	$0, %ecx
	jbe	.LBB41_5
# %bb.4:                                # %land.rhs
                                        #   in Loop: Header=BB41_3 Depth=1
	movl	-40(%rbp), %eax
	addl	$1, %eax
	movl	%eax, -40(%rbp)
	cmpl	-20(%rbp), %eax
	setbe	%al
.LBB41_5:                               # %land.end
                                        #   in Loop: Header=BB41_3 Depth=1
	testb	$1, %al
	jne	.LBB41_6
	jmp	.LBB41_11
.LBB41_6:                               # %while.body
                                        #   in Loop: Header=BB41_3 Depth=1
	movq	-32(%rbp), %rdi
	movq	-8(%rbp), %rdx
	movl	$1, %esi
	callq	biari_encode_symbol
	movl	-16(%rbp), %eax
	addl	$1, %eax
	movl	%eax, -16(%rbp)
	cmpl	$2, %eax
	jne	.LBB41_8
# %bb.7:                                # %if.then5
                                        #   in Loop: Header=BB41_3 Depth=1
	movq	-8(%rbp), %rax
	addq	$16, %rax
	movq	%rax, -8(%rbp)
.LBB41_8:                               # %if.end
                                        #   in Loop: Header=BB41_3 Depth=1
	movl	-16(%rbp), %eax
	cmpl	-44(%rbp), %eax
	jne	.LBB41_10
# %bb.9:                                # %if.then8
                                        #   in Loop: Header=BB41_3 Depth=1
	movq	-8(%rbp), %rax
	addq	$16, %rax
	movq	%rax, -8(%rbp)
.LBB41_10:                              # %if.end10
                                        #   in Loop: Header=BB41_3 Depth=1
	jmp	.LBB41_3
.LBB41_11:                              # %while.end
	movl	-12(%rbp), %eax
	cmpl	-20(%rbp), %eax
	jae	.LBB41_13
# %bb.12:                               # %if.then12
	movq	-32(%rbp), %rdi
	movq	-8(%rbp), %rdx
	xorl	%esi, %esi
	callq	biari_encode_symbol
	jmp	.LBB41_14
.LBB41_13:                              # %if.else13
	movq	-32(%rbp), %rdi
	movl	-12(%rbp), %esi
	subl	-20(%rbp), %esi
	movl	$3, %edx
	callq	exp_golomb_encode_eq_prob
.LBB41_14:                              # %if.end14
	jmp	.LBB41_15
.LBB41_15:                              # %if.end15
	jmp	.LBB41_16
.LBB41_16:                              # %return
	cmpl	$1020592713, -48(%rbp)  # imm = 0x3CD50249
	jne	.LBB41_18
.LBB41_17:
	addq	$64, %rsp
	popq	%rbp
	.cfi_def_cfa %rsp, 8
	retq
.LBB41_18:                              # %func_exit
	.cfi_def_cfa %rbp, 16
	callq	detect_breach
	jmp	.LBB41_17
.Lfunc_end41:
	.size	unary_exp_golomb_mv_encode.14, .Lfunc_end41-unary_exp_golomb_mv_encode.14
	.cfi_endproc
                                        # -- End function
	.globl	unary_bin_max_encode.15 # -- Begin function unary_bin_max_encode.15
	.p2align	4, 0x90
	.type	unary_bin_max_encode.15,@function
unary_bin_max_encode.15:                # @unary_bin_max_encode.15
	.cfi_startproc
# %bb.0:                                # %entry
	pushq	%rbp
	.cfi_def_cfa_offset 16
	.cfi_offset %rbp, -16
	movq	%rsp, %rbp
	.cfi_def_cfa_register %rbp
	subq	$48, %rsp
	movl	$118378144, -36(%rbp)   # imm = 0x70E4EA0
	movq	%rdi, -16(%rbp)
	movl	%esi, -4(%rbp)
	movq	%rdx, -24(%rbp)
	movl	%ecx, -28(%rbp)
	movl	%r8d, -32(%rbp)
	cmpl	$0, -4(%rbp)
	jne	.LBB42_2
# %bb.1:                                # %if.then
	movq	-16(%rbp), %rdi
	movq	-24(%rbp), %rdx
	xorl	%esi, %esi
	callq	biari_encode_symbol
	jmp	.LBB42_9
.LBB42_2:                               # %if.else
	movq	-16(%rbp), %rdi
	movq	-24(%rbp), %rdx
	movl	$1, %esi
	callq	biari_encode_symbol
	movl	-4(%rbp), %eax
	movl	%eax, -8(%rbp)
	movq	-24(%rbp), %rax
	movslq	-28(%rbp), %rcx
	shlq	$4, %rcx
	addq	%rcx, %rax
	movq	%rax, -48(%rbp)
.LBB42_3:                               # %while.cond
                                        # =>This Inner Loop Header: Depth=1
	movl	-8(%rbp), %eax
	addl	$-1, %eax
	movl	%eax, -8(%rbp)
	cmpl	$0, %eax
	jbe	.LBB42_5
# %bb.4:                                # %while.body
                                        #   in Loop: Header=BB42_3 Depth=1
	movq	-16(%rbp), %rdi
	movq	-48(%rbp), %rdx
	movl	$1, %esi
	callq	biari_encode_symbol
	jmp	.LBB42_3
.LBB42_5:                               # %while.end
	movl	-4(%rbp), %eax
	cmpl	-32(%rbp), %eax
	jae	.LBB42_7
# %bb.6:                                # %if.then3
	movq	-16(%rbp), %rdi
	movq	-48(%rbp), %rdx
	xorl	%esi, %esi
	callq	biari_encode_symbol
.LBB42_7:                               # %if.end
	jmp	.LBB42_8
.LBB42_8:                               # %if.end4
	jmp	.LBB42_9
.LBB42_9:                               # %return
	cmpl	$118378144, -36(%rbp)   # imm = 0x70E4EA0
	jne	.LBB42_11
.LBB42_10:
	addq	$48, %rsp
	popq	%rbp
	.cfi_def_cfa %rsp, 8
	retq
.LBB42_11:                              # %func_exit
	.cfi_def_cfa %rbp, 16
	callq	detect_breach
	jmp	.LBB42_10
.Lfunc_end42:
	.size	unary_bin_max_encode.15, .Lfunc_end42-unary_bin_max_encode.15
	.cfi_endproc
                                        # -- End function
	.globl	unary_exp_golomb_level_encode.16 # -- Begin function unary_exp_golomb_level_encode.16
	.p2align	4, 0x90
	.type	unary_exp_golomb_level_encode.16,@function
unary_exp_golomb_level_encode.16:       # @unary_exp_golomb_level_encode.16
	.cfi_startproc
# %bb.0:                                # %entry
	pushq	%rbp
	.cfi_def_cfa_offset 16
	.cfi_offset %rbp, -16
	movq	%rsp, %rbp
	.cfi_def_cfa_register %rbp
	subq	$48, %rsp
	movl	$686113477, -36(%rbp)   # imm = 0x28E542C5
	movq	%rdi, -16(%rbp)
	movl	%esi, -4(%rbp)
	movq	%rdx, -32(%rbp)
	movl	$13, -8(%rbp)
	cmpl	$0, -4(%rbp)
	jne	.LBB43_2
# %bb.1:                                # %if.then
	movq	-16(%rbp), %rdi
	movq	-32(%rbp), %rdx
	xorl	%esi, %esi
	callq	biari_encode_symbol
	jmp	.LBB43_12
.LBB43_2:                               # %if.else
	movq	-16(%rbp), %rdi
	movq	-32(%rbp), %rdx
	movl	$1, %esi
	callq	biari_encode_symbol
	movl	-4(%rbp), %eax
	movl	%eax, -24(%rbp)
	movl	$1, -20(%rbp)
.LBB43_3:                               # %while.cond
                                        # =>This Inner Loop Header: Depth=1
	xorl	%eax, %eax
	movl	-24(%rbp), %ecx
	addl	$-1, %ecx
	movl	%ecx, -24(%rbp)
	cmpl	$0, %ecx
	jbe	.LBB43_5
# %bb.4:                                # %land.rhs
                                        #   in Loop: Header=BB43_3 Depth=1
	movl	-20(%rbp), %eax
	addl	$1, %eax
	movl	%eax, -20(%rbp)
	cmpl	-8(%rbp), %eax
	setbe	%al
.LBB43_5:                               # %land.end
                                        #   in Loop: Header=BB43_3 Depth=1
	testb	$1, %al
	jne	.LBB43_6
	jmp	.LBB43_7
.LBB43_6:                               # %while.body
                                        #   in Loop: Header=BB43_3 Depth=1
	movq	-16(%rbp), %rdi
	movq	-32(%rbp), %rdx
	movl	$1, %esi
	callq	biari_encode_symbol
	jmp	.LBB43_3
.LBB43_7:                               # %while.end
	movl	-4(%rbp), %eax
	cmpl	-8(%rbp), %eax
	jae	.LBB43_9
# %bb.8:                                # %if.then4
	movq	-16(%rbp), %rdi
	movq	-32(%rbp), %rdx
	xorl	%esi, %esi
	callq	biari_encode_symbol
	jmp	.LBB43_10
.LBB43_9:                               # %if.else5
	movq	-16(%rbp), %rdi
	movl	-4(%rbp), %esi
	subl	-8(%rbp), %esi
	xorl	%edx, %edx
	callq	exp_golomb_encode_eq_prob
.LBB43_10:                              # %if.end
	jmp	.LBB43_11
.LBB43_11:                              # %if.end6
	jmp	.LBB43_12
.LBB43_12:                              # %return
	cmpl	$686113477, -36(%rbp)   # imm = 0x28E542C5
	jne	.LBB43_14
.LBB43_13:
	addq	$48, %rsp
	popq	%rbp
	.cfi_def_cfa %rsp, 8
	retq
.LBB43_14:                              # %func_exit
	.cfi_def_cfa %rbp, 16
	callq	detect_breach
	jmp	.LBB43_13
.Lfunc_end43:
	.size	unary_exp_golomb_level_encode.16, .Lfunc_end43-unary_exp_golomb_level_encode.16
	.cfi_endproc
                                        # -- End function
	.globl	writeRefFrame_CABAC.17  # -- Begin function writeRefFrame_CABAC.17
	.p2align	4, 0x90
	.type	writeRefFrame_CABAC.17,@function
writeRefFrame_CABAC.17:                 # @writeRefFrame_CABAC.17
	.cfi_startproc
# %bb.0:                                # %entry
	pushq	%rbp
	.cfi_def_cfa_offset 16
	.cfi_offset %rbp, -16
	movq	%rsp, %rbp
	.cfi_def_cfa_register %rbp
	subq	$128, %rsp
	movl	$503025428, -60(%rbp)   # imm = 0x1DFB8F14
	movq	%rdi, -40(%rbp)
	movq	%rsi, -48(%rbp)
	movq	img, %rax
	movq	14160(%rax), %rax
	movq	32(%rax), %rax
	movq	%rax, -56(%rbp)
	movq	img, %rax
	movq	14168(%rax), %rax
	movq	img, %rcx
	movslq	12(%rcx), %rcx
	imulq	$632, %rcx, %rcx        # imm = 0x278
	addq	%rcx, %rax
	movq	%rax, -128(%rbp)
	movl	$0, -20(%rbp)
	movq	enc_picture, %rax
	movq	6480(%rax), %rax
	movq	-40(%rbp), %rcx
	movslq	8(%rcx), %rcx
	movq	(%rax,%rcx,8), %rax
	movq	%rax, -32(%rbp)
	movq	img, %rax
	cmpl	$1, 24(%rax)
	sete	%al
	andb	$1, %al
	movzbl	%al, %eax
	movl	%eax, -24(%rbp)
	movq	img, %rax
	movl	12(%rax), %edi
	movq	img, %rax
	movl	72(%rax), %esi
	movq	img, %rax
	movl	76(%rax), %edx
	movl	$4294967295, %ecx       # imm = 0xFFFFFFFF
	xorl	%r8d, %r8d
	leaq	-96(%rbp), %r9
	callq	getLuma4x4Neighbour
	movq	img, %rax
	movl	12(%rax), %edi
	movq	img, %rax
	movl	72(%rax), %esi
	movq	img, %rax
	movl	76(%rax), %edx
	movl	$0, %ecx
	movl	$4294967295, %r8d       # imm = 0xFFFFFFFF
	leaq	-120(%rbp), %r9
	callq	getLuma4x4Neighbour
	movl	-88(%rbp), %eax
	cltd
	movl	$2, %esi
	idivl	%esi
	cltd
	idivl	%esi
	movl	%edx, %ecx
	movl	-84(%rbp), %eax
	cltd
	idivl	%esi
	cltd
	idivl	%esi
	shll	$1, %edx
	addl	%edx, %ecx
	movl	%ecx, -64(%rbp)
	movl	-112(%rbp), %eax
	cltd
	idivl	%esi
	cltd
	idivl	%esi
	movl	%edx, %ecx
	movl	-108(%rbp), %eax
	cltd
	idivl	%esi
	cltd
	idivl	%esi
	shll	$1, %edx
	addl	%edx, %ecx
	movl	%ecx, -68(%rbp)
	cmpl	$0, -120(%rbp)
	jne	.LBB44_2
# %bb.1:                                # %if.then
	movl	$0, -8(%rbp)
	jmp	.LBB44_14
.LBB44_2:                               # %if.else
	movq	img, %rax
	movq	14168(%rax), %rax
	movslq	-116(%rbp), %rcx
	imulq	$632, %rcx, %rcx        # imm = 0x278
	addq	%rcx, %rax
	cmpl	$0, 72(%rax)
	jne	.LBB44_4
# %bb.3:                                # %land.lhs.true
	movq	img, %rax
	cmpl	$1, 24(%rax)
	je	.LBB44_6
.LBB44_4:                               # %lor.lhs.false
	movq	img, %rax
	movq	14168(%rax), %rax
	movslq	-116(%rbp), %rcx
	imulq	$632, %rcx, %rcx        # imm = 0x278
	addq	%rcx, %rax
	movslq	-68(%rbp), %rcx
	cmpl	$0, 472(%rax,%rcx,4)
	jne	.LBB44_7
# %bb.5:                                # %land.lhs.true33
	cmpl	$0, -24(%rbp)
	je	.LBB44_7
.LBB44_6:                               # %if.then35
	movl	$0, -8(%rbp)
	jmp	.LBB44_13
.LBB44_7:                               # %if.else36
	movq	img, %rax
	cmpl	$0, 72400(%rax)
	je	.LBB44_11
# %bb.8:                                # %land.lhs.true38
	movq	-128(%rbp), %rax
	cmpl	$0, 532(%rax)
	jne	.LBB44_11
# %bb.9:                                # %land.lhs.true41
	movq	img, %rax
	movq	14168(%rax), %rax
	movslq	-116(%rbp), %rcx
	imulq	$632, %rcx, %rcx        # imm = 0x278
	addq	%rcx, %rax
	cmpl	$1, 532(%rax)
	jne	.LBB44_11
# %bb.10:                               # %if.then49
	xorl	%eax, %eax
	movq	-32(%rbp), %rcx
	movslq	-104(%rbp), %rdx
	movq	(%rcx,%rdx,8), %rcx
	movslq	-100(%rbp), %rdx
	movswl	(%rcx,%rdx,2), %ecx
	cmpl	$1, %ecx
	movl	$1, %ecx
	cmovgl	%ecx, %eax
	movl	%eax, -8(%rbp)
	jmp	.LBB44_12
.LBB44_11:                              # %if.else57
	xorl	%eax, %eax
	movq	-32(%rbp), %rcx
	movslq	-104(%rbp), %rdx
	movq	(%rcx,%rdx,8), %rcx
	movslq	-100(%rbp), %rdx
	movswl	(%rcx,%rdx,2), %ecx
	cmpl	$0, %ecx
	movl	$1, %ecx
	cmovgl	%ecx, %eax
	movl	%eax, -8(%rbp)
.LBB44_12:                              # %if.end
	jmp	.LBB44_13
.LBB44_13:                              # %if.end68
	jmp	.LBB44_14
.LBB44_14:                              # %if.end69
	cmpl	$0, -96(%rbp)
	jne	.LBB44_16
# %bb.15:                               # %if.then72
	movl	$0, -12(%rbp)
	jmp	.LBB44_28
.LBB44_16:                              # %if.else73
	movq	img, %rax
	movq	14168(%rax), %rax
	movslq	-92(%rbp), %rcx
	imulq	$632, %rcx, %rcx        # imm = 0x278
	addq	%rcx, %rax
	cmpl	$0, 72(%rax)
	jne	.LBB44_18
# %bb.17:                               # %land.lhs.true81
	movq	img, %rax
	cmpl	$1, 24(%rax)
	je	.LBB44_20
.LBB44_18:                              # %lor.lhs.false85
	movq	img, %rax
	movq	14168(%rax), %rax
	movslq	-92(%rbp), %rcx
	imulq	$632, %rcx, %rcx        # imm = 0x278
	addq	%rcx, %rax
	movslq	-64(%rbp), %rcx
	cmpl	$0, 472(%rax,%rcx,4)
	jne	.LBB44_21
# %bb.19:                               # %land.lhs.true95
	cmpl	$0, -24(%rbp)
	je	.LBB44_21
.LBB44_20:                              # %if.then97
	movl	$0, -12(%rbp)
	jmp	.LBB44_27
.LBB44_21:                              # %if.else98
	movq	img, %rax
	cmpl	$0, 72400(%rax)
	je	.LBB44_25
# %bb.22:                               # %land.lhs.true101
	movq	-128(%rbp), %rax
	cmpl	$0, 532(%rax)
	jne	.LBB44_25
# %bb.23:                               # %land.lhs.true105
	movq	img, %rax
	movq	14168(%rax), %rax
	movslq	-92(%rbp), %rcx
	imulq	$632, %rcx, %rcx        # imm = 0x278
	addq	%rcx, %rax
	cmpl	$1, 532(%rax)
	jne	.LBB44_25
# %bb.24:                               # %if.then113
	xorl	%eax, %eax
	movq	-32(%rbp), %rcx
	movslq	-80(%rbp), %rdx
	movq	(%rcx,%rdx,8), %rcx
	movslq	-76(%rbp), %rdx
	movswl	(%rcx,%rdx,2), %ecx
	cmpl	$1, %ecx
	movl	$1, %ecx
	cmovgl	%ecx, %eax
	movl	%eax, -12(%rbp)
	jmp	.LBB44_26
.LBB44_25:                              # %if.else124
	xorl	%eax, %eax
	movq	-32(%rbp), %rcx
	movslq	-80(%rbp), %rdx
	movq	(%rcx,%rdx,8), %rcx
	movslq	-76(%rbp), %rdx
	movswl	(%rcx,%rdx,2), %ecx
	cmpl	$0, %ecx
	movl	$1, %ecx
	cmovgl	%ecx, %eax
	movl	%eax, -12(%rbp)
.LBB44_26:                              # %if.end135
	jmp	.LBB44_27
.LBB44_27:                              # %if.end136
	jmp	.LBB44_28
.LBB44_28:                              # %if.end137
	movl	-12(%rbp), %eax
	movl	-8(%rbp), %ecx
	shll	$1, %ecx
	addl	%ecx, %eax
	movl	%eax, -4(%rbp)
	movl	-4(%rbp), %eax
	movq	-40(%rbp), %rcx
	movl	%eax, 24(%rcx)
	movq	-40(%rbp), %rax
	movl	4(%rax), %eax
	movl	%eax, -16(%rbp)
	cmpl	$0, -16(%rbp)
	jne	.LBB44_30
# %bb.29:                               # %if.then142
	movq	-48(%rbp), %rdi
	movq	-56(%rbp), %rdx
	addq	$1136, %rdx             # imm = 0x470
	movslq	-20(%rbp), %rax
	imulq	$96, %rax, %rax
	addq	%rax, %rdx
	movslq	-4(%rbp), %rax
	shlq	$4, %rax
	addq	%rax, %rdx
	xorl	%esi, %esi
	callq	biari_encode_symbol
	jmp	.LBB44_31
.LBB44_30:                              # %if.else145
	movq	-48(%rbp), %rdi
	movq	-56(%rbp), %rdx
	addq	$1136, %rdx             # imm = 0x470
	movslq	-20(%rbp), %rax
	imulq	$96, %rax, %rax
	addq	%rax, %rdx
	movslq	-4(%rbp), %rax
	shlq	$4, %rax
	addq	%rax, %rdx
	movl	$1, %esi
	callq	biari_encode_symbol
	movl	-16(%rbp), %eax
	addl	$-1, %eax
	movl	%eax, -16(%rbp)
	movl	$4, -4(%rbp)
	movq	-48(%rbp), %rdi
	movl	-16(%rbp), %esi
	movq	-56(%rbp), %rdx
	addq	$1136, %rdx             # imm = 0x470
	movslq	-20(%rbp), %rax
	imulq	$96, %rax, %rax
	addq	%rax, %rdx
	movslq	-4(%rbp), %rax
	shlq	$4, %rax
	addq	%rax, %rdx
	movl	$1, %ecx
	callq	unary_bin_encode
.LBB44_31:                              # %if.end158
	cmpl	$503025428, -60(%rbp)   # imm = 0x1DFB8F14
	jne	.LBB44_33
.LBB44_32:
	addq	$128, %rsp
	popq	%rbp
	.cfi_def_cfa %rsp, 8
	retq
.LBB44_33:                              # %func_exit
	.cfi_def_cfa %rbp, 16
	callq	detect_breach
	jmp	.LBB44_32
.Lfunc_end44:
	.size	writeRefFrame_CABAC.17, .Lfunc_end44-writeRefFrame_CABAC.17
	.cfi_endproc
                                        # -- End function
	.globl	unary_exp_golomb_level_encode.18 # -- Begin function unary_exp_golomb_level_encode.18
	.p2align	4, 0x90
	.type	unary_exp_golomb_level_encode.18,@function
unary_exp_golomb_level_encode.18:       # @unary_exp_golomb_level_encode.18
	.cfi_startproc
# %bb.0:                                # %entry
	pushq	%rbp
	.cfi_def_cfa_offset 16
	.cfi_offset %rbp, -16
	movq	%rsp, %rbp
	.cfi_def_cfa_register %rbp
	subq	$48, %rsp
	movl	$1371039025, -36(%rbp)  # imm = 0x51B86531
	movq	%rdi, -16(%rbp)
	movl	%esi, -4(%rbp)
	movq	%rdx, -32(%rbp)
	movl	$13, -8(%rbp)
	cmpl	$0, -4(%rbp)
	jne	.LBB45_2
# %bb.1:                                # %if.then
	movq	-16(%rbp), %rdi
	movq	-32(%rbp), %rdx
	xorl	%esi, %esi
	callq	biari_encode_symbol
	jmp	.LBB45_12
.LBB45_2:                               # %if.else
	movq	-16(%rbp), %rdi
	movq	-32(%rbp), %rdx
	movl	$1, %esi
	callq	biari_encode_symbol
	movl	-4(%rbp), %eax
	movl	%eax, -20(%rbp)
	movl	$1, -24(%rbp)
.LBB45_3:                               # %while.cond
                                        # =>This Inner Loop Header: Depth=1
	xorl	%eax, %eax
	movl	-20(%rbp), %ecx
	addl	$-1, %ecx
	movl	%ecx, -20(%rbp)
	cmpl	$0, %ecx
	jbe	.LBB45_5
# %bb.4:                                # %land.rhs
                                        #   in Loop: Header=BB45_3 Depth=1
	movl	-24(%rbp), %eax
	addl	$1, %eax
	movl	%eax, -24(%rbp)
	cmpl	-8(%rbp), %eax
	setbe	%al
.LBB45_5:                               # %land.end
                                        #   in Loop: Header=BB45_3 Depth=1
	testb	$1, %al
	jne	.LBB45_6
	jmp	.LBB45_7
.LBB45_6:                               # %while.body
                                        #   in Loop: Header=BB45_3 Depth=1
	movq	-16(%rbp), %rdi
	movq	-32(%rbp), %rdx
	movl	$1, %esi
	callq	biari_encode_symbol
	jmp	.LBB45_3
.LBB45_7:                               # %while.end
	movl	-4(%rbp), %eax
	cmpl	-8(%rbp), %eax
	jae	.LBB45_9
# %bb.8:                                # %if.then4
	movq	-16(%rbp), %rdi
	movq	-32(%rbp), %rdx
	xorl	%esi, %esi
	callq	biari_encode_symbol
	jmp	.LBB45_10
.LBB45_9:                               # %if.else5
	movq	-16(%rbp), %rdi
	movl	-4(%rbp), %esi
	subl	-8(%rbp), %esi
	xorl	%edx, %edx
	callq	exp_golomb_encode_eq_prob
.LBB45_10:                              # %if.end
	jmp	.LBB45_11
.LBB45_11:                              # %if.end6
	jmp	.LBB45_12
.LBB45_12:                              # %return
	cmpl	$1371039025, -36(%rbp)  # imm = 0x51B86531
	jne	.LBB45_14
.LBB45_13:
	addq	$48, %rsp
	popq	%rbp
	.cfi_def_cfa %rsp, 8
	retq
.LBB45_14:                              # %func_exit
	.cfi_def_cfa %rbp, 16
	callq	detect_breach
	jmp	.LBB45_13
.Lfunc_end45:
	.size	unary_exp_golomb_level_encode.18, .Lfunc_end45-unary_exp_golomb_level_encode.18
	.cfi_endproc
                                        # -- End function
	.globl	writeMB_transform_size_CABAC.19 # -- Begin function writeMB_transform_size_CABAC.19
	.p2align	4, 0x90
	.type	writeMB_transform_size_CABAC.19,@function
writeMB_transform_size_CABAC.19:        # @writeMB_transform_size_CABAC.19
	.cfi_startproc
# %bb.0:                                # %entry
	pushq	%rbp
	.cfi_def_cfa_offset 16
	.cfi_offset %rbp, -16
	movq	%rsp, %rbp
	.cfi_def_cfa_register %rbp
	subq	$64, %rsp
	movl	$1118575310, -32(%rbp)  # imm = 0x42AC1ACE
	movq	%rdi, -56(%rbp)
	movq	%rsi, -40(%rbp)
	movl	$0, -4(%rbp)
	movq	img, %rax
	movq	14160(%rax), %rax
	movq	32(%rax), %rax
	movq	%rax, -48(%rbp)
	movq	img, %rax
	movq	14168(%rax), %rax
	movq	img, %rcx
	movslq	12(%rcx), %rcx
	imulq	$632, %rcx, %rcx        # imm = 0x278
	addq	%rcx, %rax
	movq	%rax, -16(%rbp)
	movq	-16(%rbp), %rax
	cmpq	$0, 56(%rax)
	jne	.LBB46_2
# %bb.1:                                # %if.then
	movl	$0, -24(%rbp)
	jmp	.LBB46_3
.LBB46_2:                               # %if.else
	movq	-16(%rbp), %rax
	movq	56(%rax), %rax
	movl	572(%rax), %eax
	movl	%eax, -24(%rbp)
.LBB46_3:                               # %if.end
	movq	-16(%rbp), %rax
	cmpq	$0, 64(%rax)
	jne	.LBB46_5
# %bb.4:                                # %if.then3
	movl	$0, -20(%rbp)
	jmp	.LBB46_6
.LBB46_5:                               # %if.else4
	movq	-16(%rbp), %rax
	movq	64(%rax), %rax
	movl	572(%rax), %eax
	movl	%eax, -20(%rbp)
.LBB46_6:                               # %if.end7
	movl	-20(%rbp), %eax
	addl	-24(%rbp), %eax
	movl	%eax, -4(%rbp)
	movq	-16(%rbp), %rax
	movl	572(%rax), %eax
	movl	%eax, -28(%rbp)
	movl	-4(%rbp), %eax
	movq	-56(%rbp), %rcx
	movl	%eax, 24(%rcx)
	cmpl	$0, -28(%rbp)
	jne	.LBB46_8
# %bb.7:                                # %if.then10
	movq	-40(%rbp), %rdi
	movq	-48(%rbp), %rdx
	addq	$1456, %rdx             # imm = 0x5B0
	movslq	-4(%rbp), %rax
	shlq	$4, %rax
	addq	%rax, %rdx
	xorl	%esi, %esi
	callq	biari_encode_symbol
	jmp	.LBB46_9
.LBB46_8:                               # %if.else11
	movq	-40(%rbp), %rdi
	movq	-48(%rbp), %rdx
	addq	$1456, %rdx             # imm = 0x5B0
	movslq	-4(%rbp), %rax
	shlq	$4, %rax
	addq	%rax, %rdx
	movl	$1, %esi
	callq	biari_encode_symbol
.LBB46_9:                               # %if.end16
	cmpl	$1118575310, -32(%rbp)  # imm = 0x42AC1ACE
	jne	.LBB46_11
.LBB46_10:
	addq	$64, %rsp
	popq	%rbp
	.cfi_def_cfa %rsp, 8
	retq
.LBB46_11:                              # %func_exit
	.cfi_def_cfa %rbp, 16
	callq	detect_breach
	jmp	.LBB46_10
.Lfunc_end46:
	.size	writeMB_transform_size_CABAC.19, .Lfunc_end46-writeMB_transform_size_CABAC.19
	.cfi_endproc
                                        # -- End function
	.globl	writeCBP_CABAC.20       # -- Begin function writeCBP_CABAC.20
	.p2align	4, 0x90
	.type	writeCBP_CABAC.20,@function
writeCBP_CABAC.20:                      # @writeCBP_CABAC.20
	.cfi_startproc
# %bb.0:                                # %entry
	pushq	%rbp
	.cfi_def_cfa_offset 16
	.cfi_offset %rbp, -16
	movq	%rsp, %rbp
	.cfi_def_cfa_register %rbp
	subq	$64, %rsp
	movl	$1037870487, -44(%rbp)  # imm = 0x3DDCA597
	movq	%rdi, -64(%rbp)
	movq	%rsi, -40(%rbp)
	movq	img, %rax
	movq	14160(%rax), %rax
	movq	40(%rax), %rax
	movq	%rax, -56(%rbp)
	movq	img, %rax
	movq	14168(%rax), %rax
	movq	img, %rcx
	movslq	12(%rcx), %rcx
	imulq	$632, %rcx, %rcx        # imm = 0x278
	addq	%rcx, %rax
	movq	%rax, -8(%rbp)
	movq	-64(%rbp), %rax
	movl	4(%rax), %eax
	movl	%eax, -24(%rbp)
	movl	$0, -20(%rbp)
.LBB47_1:                               # %for.cond
                                        # =>This Inner Loop Header: Depth=1
	cmpl	$4, -20(%rbp)
	jge	.LBB47_4
# %bb.2:                                # %for.body
                                        #   in Loop: Header=BB47_1 Depth=1
	xorl	%eax, %eax
	movq	-8(%rbp), %rcx
	movslq	-20(%rbp), %rdx
	movl	472(%rcx,%rdx,4), %ecx
	cmpl	$11, %ecx
	movl	$1, %edx
	movl	$1, %ecx
	cmovel	%eax, %ecx
	movl	%ecx, -48(%rbp)
	movl	-20(%rbp), %edi
	movl	-24(%rbp), %esi
	movl	-20(%rbp), %ecx
                                        # kill: def $cl killed $ecx
	shll	%cl, %edx
	andl	%edx, %esi
	movl	-24(%rbp), %edx
	movq	-8(%rbp), %rcx
	movl	-48(%rbp), %r8d
	movq	-40(%rbp), %r9
	callq	writeCBP_BIT_CABAC
# %bb.3:                                # %for.inc
                                        #   in Loop: Header=BB47_1 Depth=1
	movl	-20(%rbp), %eax
	addl	$1, %eax
	movl	%eax, -20(%rbp)
	jmp	.LBB47_1
.LBB47_4:                               # %for.end
	movq	img, %rax
	cmpl	$0, 72700(%rax)
	je	.LBB47_32
# %bb.5:                                # %if.then
	movl	$0, -12(%rbp)
	movq	-8(%rbp), %rax
	cmpq	$0, 56(%rax)
	je	.LBB47_10
# %bb.6:                                # %if.then6
	movq	-8(%rbp), %rax
	movq	56(%rax), %rax
	cmpl	$14, 72(%rax)
	jne	.LBB47_8
# %bb.7:                                # %if.then9
	movl	$1, -12(%rbp)
	jmp	.LBB47_9
.LBB47_8:                               # %if.else
	xorl	%eax, %eax
	movq	-8(%rbp), %rcx
	movq	56(%rcx), %rcx
	movl	460(%rcx), %ecx
	cmpl	$15, %ecx
	movl	$1, %ecx
	cmovgl	%ecx, %eax
	movl	%eax, -12(%rbp)
.LBB47_9:                               # %if.end
	jmp	.LBB47_10
.LBB47_10:                              # %if.end14
	movl	$0, -16(%rbp)
	movq	-8(%rbp), %rax
	cmpq	$0, 64(%rax)
	je	.LBB47_15
# %bb.11:                               # %if.then16
	movq	-8(%rbp), %rax
	movq	64(%rax), %rax
	cmpl	$14, 72(%rax)
	jne	.LBB47_13
# %bb.12:                               # %if.then20
	movl	$1, -16(%rbp)
	jmp	.LBB47_14
.LBB47_13:                              # %if.else21
	xorl	%eax, %eax
	movq	-8(%rbp), %rcx
	movq	64(%rcx), %rcx
	movl	460(%rcx), %ecx
	cmpl	$15, %ecx
	movl	$1, %ecx
	cmovgl	%ecx, %eax
	movl	%eax, -16(%rbp)
.LBB47_14:                              # %if.end26
	jmp	.LBB47_15
.LBB47_15:                              # %if.end27
	xorl	%eax, %eax
	movl	-16(%rbp), %ecx
	movl	-12(%rbp), %edx
	shll	$1, %edx
	addl	%edx, %ecx
	movl	%ecx, -28(%rbp)
	movl	-24(%rbp), %ecx
	cmpl	$15, %ecx
	movl	$1, %ecx
	cmovgl	%ecx, %eax
	movl	%eax, -32(%rbp)
	movq	-40(%rbp), %rdi
	movl	-32(%rbp), %eax
	movzbl	%al, %eax
	movq	-56(%rbp), %rdx
	addq	$96, %rdx
	addq	$64, %rdx
	movslq	-28(%rbp), %rcx
	shlq	$4, %rcx
	addq	%rcx, %rdx
	movswl	%ax, %esi
	callq	biari_encode_symbol
	cmpl	$15, -24(%rbp)
	jle	.LBB47_31
# %bb.16:                               # %if.then34
	movl	$0, -12(%rbp)
	movq	-8(%rbp), %rax
	cmpq	$0, 56(%rax)
	je	.LBB47_23
# %bb.17:                               # %if.then38
	movq	-8(%rbp), %rax
	movq	56(%rax), %rax
	cmpl	$14, 72(%rax)
	jne	.LBB47_19
# %bb.18:                               # %if.then43
	movl	$1, -12(%rbp)
	jmp	.LBB47_22
.LBB47_19:                              # %if.else44
	movq	-8(%rbp), %rax
	movq	56(%rax), %rax
	cmpl	$15, 460(%rax)
	jle	.LBB47_21
# %bb.20:                               # %if.then49
	xorl	%eax, %eax
	movq	-8(%rbp), %rcx
	movq	56(%rcx), %rcx
	movl	460(%rcx), %ecx
	sarl	$4, %ecx
	cmpl	$2, %ecx
	movl	$1, %ecx
	cmovel	%ecx, %eax
	movl	%eax, -12(%rbp)
.LBB47_21:                              # %if.end55
	jmp	.LBB47_22
.LBB47_22:                              # %if.end56
	jmp	.LBB47_23
.LBB47_23:                              # %if.end57
	movl	$0, -16(%rbp)
	movq	-8(%rbp), %rax
	cmpq	$0, 64(%rax)
	je	.LBB47_30
# %bb.24:                               # %if.then61
	movq	-8(%rbp), %rax
	movq	64(%rax), %rax
	cmpl	$14, 72(%rax)
	jne	.LBB47_26
# %bb.25:                               # %if.then66
	movl	$1, -16(%rbp)
	jmp	.LBB47_29
.LBB47_26:                              # %if.else67
	movq	-8(%rbp), %rax
	movq	64(%rax), %rax
	cmpl	$15, 460(%rax)
	jle	.LBB47_28
# %bb.27:                               # %if.then72
	xorl	%eax, %eax
	movq	-8(%rbp), %rcx
	movq	64(%rcx), %rcx
	movl	460(%rcx), %ecx
	sarl	$4, %ecx
	cmpl	$2, %ecx
	movl	$1, %ecx
	cmovel	%ecx, %eax
	movl	%eax, -16(%rbp)
.LBB47_28:                              # %if.end79
	jmp	.LBB47_29
.LBB47_29:                              # %if.end80
	jmp	.LBB47_30
.LBB47_30:                              # %if.end81
	xorl	%eax, %eax
	movl	-16(%rbp), %ecx
	movl	-12(%rbp), %edx
	shll	$1, %edx
	addl	%edx, %ecx
	movl	%ecx, -28(%rbp)
	movl	-24(%rbp), %ecx
	sarl	$4, %ecx
	cmpl	$2, %ecx
	movl	$1, %ecx
	cmovel	%ecx, %eax
	movl	%eax, -32(%rbp)
	movq	-40(%rbp), %rdi
	movl	-32(%rbp), %eax
	movzbl	%al, %eax
	movq	-56(%rbp), %rdx
	addq	$96, %rdx
	addq	$128, %rdx
	movslq	-28(%rbp), %rcx
	shlq	$4, %rcx
	addq	%rcx, %rdx
	movswl	%ax, %esi
	callq	biari_encode_symbol
.LBB47_31:                              # %if.end95
	jmp	.LBB47_32
.LBB47_32:                              # %if.end96
	cmpl	$1037870487, -44(%rbp)  # imm = 0x3DDCA597
	jne	.LBB47_34
.LBB47_33:
	addq	$64, %rsp
	popq	%rbp
	.cfi_def_cfa %rsp, 8
	retq
.LBB47_34:                              # %func_exit
	.cfi_def_cfa %rbp, 16
	callq	detect_breach
	jmp	.LBB47_33
.Lfunc_end47:
	.size	writeCBP_CABAC.20, .Lfunc_end47-writeCBP_CABAC.20
	.cfi_endproc
                                        # -- End function
	.globl	writeRunLevel_CABAC.21  # -- Begin function writeRunLevel_CABAC.21
	.p2align	4, 0x90
	.type	writeRunLevel_CABAC.21,@function
writeRunLevel_CABAC.21:                 # @writeRunLevel_CABAC.21
	.cfi_startproc
# %bb.0:                                # %entry
	pushq	%rbp
	.cfi_def_cfa_offset 16
	.cfi_offset %rbp, -16
	movq	%rsp, %rbp
	.cfi_def_cfa_register %rbp
	subq	$48, %rsp
	movl	$2116799006, -36(%rbp)  # imm = 0x7E2BCA1E
	movq	%rdi, -16(%rbp)
	movq	%rsi, -24(%rbp)
	movq	img, %rax
	movq	14168(%rax), %rax
	movq	img, %rcx
	movslq	12(%rcx), %rcx
	imulq	$632, %rcx, %rcx        # imm = 0x278
	addq	%rcx, %rax
	movq	%rax, -32(%rbp)
	movq	-16(%rbp), %rax
	cmpl	$0, 4(%rax)
	je	.LBB48_6
# %bb.1:                                # %if.then
	movl	$0, -4(%rbp)
.LBB48_2:                               # %for.cond
                                        # =>This Inner Loop Header: Depth=1
	movl	-4(%rbp), %eax
	movq	-16(%rbp), %rcx
	cmpl	8(%rcx), %eax
	jge	.LBB48_5
# %bb.3:                                # %for.body
                                        #   in Loop: Header=BB48_2 Depth=1
	movl	writeRunLevel_CABAC.pos, %eax
	movl	%eax, %ecx
	addl	$1, %ecx
	movl	%ecx, writeRunLevel_CABAC.pos
	cltq
	movl	$0, writeRunLevel_CABAC.coeff(,%rax,4)
# %bb.4:                                # %for.inc
                                        #   in Loop: Header=BB48_2 Depth=1
	movl	-4(%rbp), %eax
	addl	$1, %eax
	movl	%eax, -4(%rbp)
	jmp	.LBB48_2
.LBB48_5:                               # %for.end
	movq	-16(%rbp), %rax
	movl	4(%rax), %eax
	movl	writeRunLevel_CABAC.pos, %ecx
	movl	%ecx, %edx
	addl	$1, %edx
	movl	%edx, writeRunLevel_CABAC.pos
	movslq	%ecx, %rcx
	movl	%eax, writeRunLevel_CABAC.coeff(,%rcx,4)
	movl	writeRunLevel_CABAC.coeff_ctr, %eax
	addl	$1, %eax
	movl	%eax, writeRunLevel_CABAC.coeff_ctr
	jmp	.LBB48_14
.LBB48_6:                               # %if.else
	jmp	.LBB48_7
.LBB48_7:                               # %for.cond10
                                        # =>This Inner Loop Header: Depth=1
	cmpl	$64, writeRunLevel_CABAC.pos
	jge	.LBB48_10
# %bb.8:                                # %for.body12
                                        #   in Loop: Header=BB48_7 Depth=1
	movslq	writeRunLevel_CABAC.pos, %rax
	movl	$0, writeRunLevel_CABAC.coeff(,%rax,4)
# %bb.9:                                # %for.inc15
                                        #   in Loop: Header=BB48_7 Depth=1
	movl	writeRunLevel_CABAC.pos, %eax
	addl	$1, %eax
	movl	%eax, writeRunLevel_CABAC.pos
	jmp	.LBB48_7
.LBB48_10:                              # %for.end17
	jmp	.LBB48_11
.LBB48_11:                              # %if.end
	xorl	%ecx, %ecx
	movq	-32(%rbp), %rdi
	movq	-24(%rbp), %rsi
	movq	-16(%rbp), %rax
	movl	24(%rax), %edx
	movl	writeRunLevel_CABAC.coeff_ctr, %eax
	cmpl	$0, %eax
	movl	$1, %eax
	cmovgl	%eax, %ecx
	callq	write_and_store_CBP_block_bit
	cmpl	$0, writeRunLevel_CABAC.coeff_ctr
	jle	.LBB48_13
# %bb.12:                               # %if.then20
	movq	-32(%rbp), %rdi
	movq	-24(%rbp), %rsi
	movq	-16(%rbp), %rax
	movl	24(%rax), %edx
	movl	writeRunLevel_CABAC.coeff_ctr, %r8d
	movabsq	$writeRunLevel_CABAC.coeff, %rcx
	callq	write_significance_map
	movq	-32(%rbp), %rdi
	movq	-24(%rbp), %rsi
	movq	-16(%rbp), %rax
	movl	24(%rax), %edx
	movabsq	$writeRunLevel_CABAC.coeff, %rcx
	callq	write_significant_coefficients
.LBB48_13:                              # %if.end23
	movl	$0, writeRunLevel_CABAC.coeff_ctr
	movl	$0, writeRunLevel_CABAC.pos
.LBB48_14:                              # %return
	cmpl	$2116799006, -36(%rbp)  # imm = 0x7E2BCA1E
	jne	.LBB48_16
.LBB48_15:
	addq	$48, %rsp
	popq	%rbp
	.cfi_def_cfa %rsp, 8
	retq
.LBB48_16:                              # %func_exit
	.cfi_def_cfa %rbp, 16
	callq	detect_breach
	jmp	.LBB48_15
.Lfunc_end48:
	.size	writeRunLevel_CABAC.21, .Lfunc_end48-writeRunLevel_CABAC.21
	.cfi_endproc
                                        # -- End function
	.globl	write_significant_coefficients.22 # -- Begin function write_significant_coefficients.22
	.p2align	4, 0x90
	.type	write_significant_coefficients.22,@function
write_significant_coefficients.22:      # @write_significant_coefficients.22
	.cfi_startproc
# %bb.0:                                # %entry
	pushq	%rbp
	.cfi_def_cfa_offset 16
	.cfi_offset %rbp, -16
	movq	%rsp, %rbp
	.cfi_def_cfa_register %rbp
	subq	$64, %rsp
	movl	$305126911, -52(%rbp)   # imm = 0x122FDDFF
	movq	%rdi, -64(%rbp)
	movq	%rsi, -48(%rbp)
	movl	%edx, -12(%rbp)
	movq	%rcx, -40(%rbp)
	movl	$1, -8(%rbp)
	movl	$0, -20(%rbp)
	movslq	-12(%rbp), %rax
	movl	maxpos(,%rax,4), %eax
	subl	$1, %eax
	movl	%eax, -4(%rbp)
.LBB49_1:                               # %for.cond
                                        # =>This Inner Loop Header: Depth=1
	cmpl	$0, -4(%rbp)
	jl	.LBB49_20
# %bb.2:                                # %for.body
                                        #   in Loop: Header=BB49_1 Depth=1
	movq	-40(%rbp), %rax
	movslq	-4(%rbp), %rcx
	cmpl	$0, (%rax,%rcx,4)
	je	.LBB49_18
# %bb.3:                                # %if.then
                                        #   in Loop: Header=BB49_1 Depth=1
	movq	-40(%rbp), %rax
	movslq	-4(%rbp), %rcx
	cmpl	$0, (%rax,%rcx,4)
	jle	.LBB49_5
# %bb.4:                                # %if.then7
                                        #   in Loop: Header=BB49_1 Depth=1
	movq	-40(%rbp), %rax
	movslq	-4(%rbp), %rcx
	movl	(%rax,%rcx,4), %eax
	movl	%eax, -24(%rbp)
	movw	$0, -16(%rbp)
	jmp	.LBB49_6
.LBB49_5:                               # %if.else
                                        #   in Loop: Header=BB49_1 Depth=1
	xorl	%eax, %eax
	movq	-40(%rbp), %rcx
	movslq	-4(%rbp), %rdx
	subl	(%rcx,%rdx,4), %eax
	movl	%eax, -24(%rbp)
	movw	$1, -16(%rbp)
.LBB49_6:                               # %if.end
                                        #   in Loop: Header=BB49_1 Depth=1
	xorl	%eax, %eax
	movl	-24(%rbp), %ecx
	cmpl	$1, %ecx
	movl	$1, %ecx
	cmovgl	%ecx, %eax
	movw	%ax, -14(%rbp)
	cmpl	$4, -8(%rbp)
	jge	.LBB49_8
# %bb.7:                                # %cond.true
                                        #   in Loop: Header=BB49_1 Depth=1
	movl	-8(%rbp), %eax
	jmp	.LBB49_9
.LBB49_8:                               # %cond.false
                                        #   in Loop: Header=BB49_1 Depth=1
	movl	$4, %eax
	jmp	.LBB49_9
.LBB49_9:                               # %cond.end
                                        #   in Loop: Header=BB49_1 Depth=1
	movl	%eax, -28(%rbp)
	movq	-48(%rbp), %rdi
	movw	-14(%rbp), %ax
	movq	img, %rcx
	movq	14160(%rcx), %rcx
	movq	40(%rcx), %rdx
	addq	$5728, %rdx             # imm = 0x1660
	movslq	-12(%rbp), %rcx
	movslq	type2ctx_one(,%rcx,4), %rcx
	imulq	$80, %rcx, %rcx
	addq	%rcx, %rdx
	movslq	-28(%rbp), %rcx
	shlq	$4, %rcx
	addq	%rcx, %rdx
	movswl	%ax, %esi
	callq	biari_encode_symbol
	cmpw	$0, -14(%rbp)
	je	.LBB49_14
# %bb.10:                               # %if.then21
                                        #   in Loop: Header=BB49_1 Depth=1
	movl	-20(%rbp), %eax
	movslq	-12(%rbp), %rcx
	cmpl	max_c2(,%rcx,4), %eax
	jge	.LBB49_12
# %bb.11:                               # %cond.true26
                                        #   in Loop: Header=BB49_1 Depth=1
	movl	-20(%rbp), %eax
	jmp	.LBB49_13
.LBB49_12:                              # %cond.false27
                                        #   in Loop: Header=BB49_1 Depth=1
	movslq	-12(%rbp), %rax
	movl	max_c2(,%rax,4), %eax
.LBB49_13:                              # %cond.end30
                                        #   in Loop: Header=BB49_1 Depth=1
	movl	%eax, -28(%rbp)
	movq	-48(%rbp), %rdi
	movl	-24(%rbp), %esi
	subl	$2, %esi
	movq	img, %rax
	movq	14160(%rax), %rax
	movq	40(%rax), %rdx
	addq	$6528, %rdx             # imm = 0x1980
	movslq	-12(%rbp), %rax
	movslq	type2ctx_abs(,%rax,4), %rax
	imulq	$80, %rax, %rax
	addq	%rax, %rdx
	movslq	-28(%rbp), %rax
	shlq	$4, %rax
	addq	%rax, %rdx
	callq	unary_exp_golomb_level_encode
	movl	$0, -8(%rbp)
	movl	-20(%rbp), %eax
	addl	$1, %eax
	movl	%eax, -20(%rbp)
	jmp	.LBB49_17
.LBB49_14:                              # %if.else42
                                        #   in Loop: Header=BB49_1 Depth=1
	cmpl	$0, -8(%rbp)
	je	.LBB49_16
# %bb.15:                               # %if.then44
                                        #   in Loop: Header=BB49_1 Depth=1
	movl	-8(%rbp), %eax
	addl	$1, %eax
	movl	%eax, -8(%rbp)
.LBB49_16:                              # %if.end46
                                        #   in Loop: Header=BB49_1 Depth=1
	jmp	.LBB49_17
.LBB49_17:                              # %if.end47
                                        #   in Loop: Header=BB49_1 Depth=1
	movq	-48(%rbp), %rdi
	movswl	-16(%rbp), %esi
	callq	biari_encode_symbol_eq_prob
.LBB49_18:                              # %if.end48
                                        #   in Loop: Header=BB49_1 Depth=1
	jmp	.LBB49_19
.LBB49_19:                              # %for.inc
                                        #   in Loop: Header=BB49_1 Depth=1
	movl	-4(%rbp), %eax
	addl	$-1, %eax
	movl	%eax, -4(%rbp)
	jmp	.LBB49_1
.LBB49_20:                              # %for.end
	cmpl	$305126911, -52(%rbp)   # imm = 0x122FDDFF
	jne	.LBB49_22
.LBB49_21:
	addq	$64, %rsp
	popq	%rbp
	.cfi_def_cfa %rsp, 8
	retq
.LBB49_22:                              # %func_exit
	.cfi_def_cfa %rbp, 16
	callq	detect_breach
	jmp	.LBB49_21
.Lfunc_end49:
	.size	write_significant_coefficients.22, .Lfunc_end49-write_significant_coefficients.22
	.cfi_endproc
                                        # -- End function
	.globl	writeMB_typeInfo_CABAC.23 # -- Begin function writeMB_typeInfo_CABAC.23
	.p2align	4, 0x90
	.type	writeMB_typeInfo_CABAC.23,@function
writeMB_typeInfo_CABAC.23:              # @writeMB_typeInfo_CABAC.23
	.cfi_startproc
# %bb.0:                                # %entry
	pushq	%rbp
	.cfi_def_cfa_offset 16
	.cfi_offset %rbp, -16
	movq	%rsp, %rbp
	.cfi_def_cfa_register %rbp
	subq	$96, %rsp
	movl	$823850986, -84(%rbp)   # imm = 0x311AF7EA
	movq	%rdi, -80(%rbp)
	movq	%rsi, -16(%rbp)
	movl	$0, -20(%rbp)
	movq	img, %rax
	cmpl	$1, 24(%rax)
	sete	%al
	andb	$1, %al
	movzbl	%al, %eax
	movl	%eax, -64(%rbp)
	movl	$0, -36(%rbp)
	movq	img, %rax
	movq	14160(%rax), %rax
	movq	32(%rax), %rax
	movq	%rax, -32(%rbp)
	movq	img, %rax
	movq	14168(%rax), %rax
	movq	img, %rcx
	movslq	12(%rcx), %rcx
	imulq	$632, %rcx, %rcx        # imm = 0x278
	addq	%rcx, %rax
	movq	%rax, -56(%rbp)
	movq	-80(%rbp), %rax
	movl	4(%rax), %eax
	movl	%eax, -68(%rbp)
	movq	img, %rax
	cmpl	$2, 24(%rax)
	jne	.LBB50_24
# %bb.1:                                # %if.then
	movq	-56(%rbp), %rax
	cmpq	$0, 56(%rax)
	jne	.LBB50_3
# %bb.2:                                # %if.then6
	movl	$0, -48(%rbp)
	jmp	.LBB50_6
.LBB50_3:                               # %if.else
	xorl	%eax, %eax
	movq	-56(%rbp), %rcx
	movq	56(%rcx), %rcx
	cmpl	$9, 72(%rcx)
	je	.LBB50_5
# %bb.4:                                # %land.rhs
	movq	-56(%rbp), %rax
	movq	56(%rax), %rax
	cmpl	$13, 72(%rax)
	setne	%al
.LBB50_5:                               # %land.end
	xorl	%ecx, %ecx
	testb	$1, %al
	movl	$1, %eax
	cmovnel	%eax, %ecx
	movl	%ecx, -48(%rbp)
.LBB50_6:                               # %if.end
	movq	-56(%rbp), %rax
	cmpq	$0, 64(%rax)
	jne	.LBB50_8
# %bb.7:                                # %if.then16
	movl	$0, -44(%rbp)
	jmp	.LBB50_11
.LBB50_8:                               # %if.else17
	xorl	%eax, %eax
	movq	-56(%rbp), %rcx
	movq	64(%rcx), %rcx
	cmpl	$9, 72(%rcx)
	je	.LBB50_10
# %bb.9:                                # %land.rhs22
	movq	-56(%rbp), %rax
	movq	64(%rax), %rax
	cmpl	$13, 72(%rax)
	setne	%al
.LBB50_10:                              # %land.end27
	xorl	%ecx, %ecx
	testb	$1, %al
	movl	$1, %eax
	cmovnel	%eax, %ecx
	movl	%ecx, -44(%rbp)
.LBB50_11:                              # %if.end29
	movl	-44(%rbp), %eax
	addl	-48(%rbp), %eax
	movl	%eax, -20(%rbp)
	movl	-68(%rbp), %eax
	movl	%eax, -4(%rbp)
	movl	-20(%rbp), %eax
	movq	-80(%rbp), %rcx
	movl	%eax, 24(%rcx)
	cmpl	$0, -4(%rbp)
	jne	.LBB50_13
# %bb.12:                               # %if.then32
	movq	-16(%rbp), %rdi
	movq	-32(%rbp), %rdx
	movslq	-20(%rbp), %rax
	shlq	$4, %rax
	addq	%rax, %rdx
	xorl	%esi, %esi
	callq	biari_encode_symbol
	jmp	.LBB50_23
.LBB50_13:                              # %if.else34
	cmpl	$25, -4(%rbp)
	jne	.LBB50_15
# %bb.14:                               # %if.then37
	movq	-16(%rbp), %rdi
	movq	-32(%rbp), %rdx
	movslq	-20(%rbp), %rax
	shlq	$4, %rax
	addq	%rax, %rdx
	movl	$1, %esi
	callq	biari_encode_symbol
	movq	-16(%rbp), %rdi
	movl	$1, %esi
	callq	biari_encode_symbol_final
	jmp	.LBB50_22
.LBB50_15:                              # %if.else43
	movq	-16(%rbp), %rdi
	movq	-32(%rbp), %rdx
	movslq	-20(%rbp), %rax
	shlq	$4, %rax
	addq	%rax, %rdx
	movl	$1, %esi
	callq	biari_encode_symbol
	movq	-16(%rbp), %rdi
	xorl	%esi, %esi
	callq	biari_encode_symbol_final
	movl	-4(%rbp), %eax
	subl	$1, %eax
	movl	%eax, -36(%rbp)
	movl	$4, -20(%rbp)
	movl	-36(%rbp), %eax
	cltd
	movl	$12, %ecx
	idivl	%ecx
	movl	%eax, -4(%rbp)
	movq	-16(%rbp), %rdi
	movl	-4(%rbp), %eax
	movzbl	%al, %eax
	movq	-32(%rbp), %rdx
	movslq	-20(%rbp), %rcx
	shlq	$4, %rcx
	addq	%rcx, %rdx
	movswl	%ax, %esi
	callq	biari_encode_symbol
	movl	-36(%rbp), %eax
	cltd
	movl	$12, %ecx
	idivl	%ecx
	movl	%edx, -36(%rbp)
	movl	-36(%rbp), %eax
	cltd
	movl	$4, %ecx
	idivl	%ecx
	movl	%eax, -4(%rbp)
	movl	$5, -20(%rbp)
	cmpl	$0, -4(%rbp)
	jne	.LBB50_17
# %bb.16:                               # %if.then59
	movq	-16(%rbp), %rdi
	movq	-32(%rbp), %rdx
	movslq	-20(%rbp), %rax
	shlq	$4, %rax
	addq	%rax, %rdx
	xorl	%esi, %esi
	callq	biari_encode_symbol
	jmp	.LBB50_21
.LBB50_17:                              # %if.else65
	movq	-16(%rbp), %rdi
	movq	-32(%rbp), %rdx
	movslq	-20(%rbp), %rax
	shlq	$4, %rax
	addq	%rax, %rdx
	movl	$1, %esi
	callq	biari_encode_symbol
	movl	$6, -20(%rbp)
	cmpl	$1, -4(%rbp)
	jne	.LBB50_19
# %bb.18:                               # %if.then73
	movq	-16(%rbp), %rdi
	movq	-32(%rbp), %rdx
	movslq	-20(%rbp), %rax
	shlq	$4, %rax
	addq	%rax, %rdx
	xorl	%esi, %esi
	callq	biari_encode_symbol
	jmp	.LBB50_20
.LBB50_19:                              # %if.else79
	movq	-16(%rbp), %rdi
	movq	-32(%rbp), %rdx
	movslq	-20(%rbp), %rax
	shlq	$4, %rax
	addq	%rax, %rdx
	movl	$1, %esi
	callq	biari_encode_symbol
.LBB50_20:                              # %if.end85
	jmp	.LBB50_21
.LBB50_21:                              # %if.end86
	movl	-36(%rbp), %eax
	cltd
	movl	$4, %ecx
	idivl	%ecx
	movl	%edx, -36(%rbp)
	movl	-36(%rbp), %eax
	cltd
	movl	$2, %ecx
	idivl	%ecx
	movl	%eax, -4(%rbp)
	movl	$7, -20(%rbp)
	movq	-16(%rbp), %rdi
	movl	-4(%rbp), %eax
	movzbl	%al, %eax
	movq	-32(%rbp), %rdx
	movslq	-20(%rbp), %rcx
	shlq	$4, %rcx
	addq	%rcx, %rdx
	movswl	%ax, %esi
	callq	biari_encode_symbol
	movl	$8, -20(%rbp)
	movl	-36(%rbp), %eax
	cltd
	movl	$2, %ecx
	idivl	%ecx
	movl	%edx, -4(%rbp)
	movq	-16(%rbp), %rdi
	movl	-4(%rbp), %eax
	movzbl	%al, %eax
	movq	-32(%rbp), %rdx
	movslq	-20(%rbp), %rcx
	shlq	$4, %rcx
	addq	%rcx, %rdx
	movswl	%ax, %esi
	callq	biari_encode_symbol
.LBB50_22:                              # %if.end104
	jmp	.LBB50_23
.LBB50_23:                              # %if.end105
	jmp	.LBB50_102
.LBB50_24:                              # %if.else106
	cmpl	$0, -64(%rbp)
	je	.LBB50_32
# %bb.25:                               # %if.then107
	movq	-56(%rbp), %rax
	cmpq	$0, 56(%rax)
	jne	.LBB50_27
# %bb.26:                               # %if.then111
	movl	$0, -48(%rbp)
	jmp	.LBB50_28
.LBB50_27:                              # %if.else112
	xorl	%eax, %eax
	movq	-56(%rbp), %rcx
	movq	56(%rcx), %rcx
	movl	72(%rcx), %ecx
	cmpl	$0, %ecx
	movl	$1, %ecx
	cmovnel	%ecx, %eax
	movl	%eax, -48(%rbp)
.LBB50_28:                              # %if.end118
	movq	-56(%rbp), %rax
	cmpq	$0, 64(%rax)
	jne	.LBB50_30
# %bb.29:                               # %if.then122
	movl	$0, -44(%rbp)
	jmp	.LBB50_31
.LBB50_30:                              # %if.else123
	xorl	%eax, %eax
	movq	-56(%rbp), %rcx
	movq	64(%rcx), %rcx
	movl	72(%rcx), %ecx
	cmpl	$0, %ecx
	movl	$1, %ecx
	cmovnel	%ecx, %eax
	movl	%eax, -44(%rbp)
.LBB50_31:                              # %if.end129
	movl	-44(%rbp), %eax
	addl	-48(%rbp), %eax
	movl	%eax, -20(%rbp)
	movl	-20(%rbp), %eax
	movq	-80(%rbp), %rcx
	movl	%eax, 24(%rcx)
.LBB50_32:                              # %if.end132
	movl	-68(%rbp), %eax
	movl	%eax, -4(%rbp)
	movl	-4(%rbp), %eax
	movl	-64(%rbp), %ecx
	cmpl	$0, %ecx
	movl	$24, %ecx
	movl	$7, %edx
	cmovnel	%ecx, %edx
	movl	%edx, -60(%rbp)
	cmpl	%edx, %eax
	jl	.LBB50_34
# %bb.33:                               # %if.then137
	movl	-4(%rbp), %eax
	subl	-60(%rbp), %eax
	movl	%eax, -36(%rbp)
	movl	-60(%rbp), %eax
	movl	%eax, -4(%rbp)
.LBB50_34:                              # %if.end139
	cmpl	$0, -64(%rbp)
	jne	.LBB50_46
# %bb.35:                               # %if.then141
	movl	-4(%rbp), %eax
	movq	%rax, %rcx
	subq	$7, %rcx
	ja	.LBB50_44
# %bb.36:                               # %if.then141
	movq	.LJTI50_0(,%rax,8), %rax
	jmpq	*%rax
.LBB50_37:                              # %sw.bb
	jmp	.LBB50_45
.LBB50_38:                              # %sw.bb142
	movq	-16(%rbp), %rdi
	movq	-32(%rbp), %rdx
	addq	$176, %rdx
	addq	$64, %rdx
	xorl	%esi, %esi
	callq	biari_encode_symbol
	movq	-16(%rbp), %rdi
	movq	-32(%rbp), %rdx
	addq	$176, %rdx
	addq	$80, %rdx
	xorl	%esi, %esi
	callq	biari_encode_symbol
	movq	-16(%rbp), %rdi
	movq	-32(%rbp), %rdx
	addq	$176, %rdx
	addq	$96, %rdx
	xorl	%esi, %esi
	callq	biari_encode_symbol
	jmp	.LBB50_45
.LBB50_39:                              # %sw.bb152
	movq	-16(%rbp), %rdi
	movq	-32(%rbp), %rdx
	addq	$176, %rdx
	addq	$64, %rdx
	xorl	%esi, %esi
	callq	biari_encode_symbol
	movq	-16(%rbp), %rdi
	movq	-32(%rbp), %rdx
	addq	$176, %rdx
	addq	$80, %rdx
	movl	$1, %esi
	callq	biari_encode_symbol
	movq	-16(%rbp), %rdi
	movq	-32(%rbp), %rdx
	addq	$176, %rdx
	addq	$112, %rdx
	movl	$1, %esi
	callq	biari_encode_symbol
	jmp	.LBB50_45
.LBB50_40:                              # %sw.bb162
	movq	-16(%rbp), %rdi
	movq	-32(%rbp), %rdx
	addq	$176, %rdx
	addq	$64, %rdx
	xorl	%esi, %esi
	callq	biari_encode_symbol
	movq	-16(%rbp), %rdi
	movq	-32(%rbp), %rdx
	addq	$176, %rdx
	addq	$80, %rdx
	movl	$1, %esi
	callq	biari_encode_symbol
	movq	-16(%rbp), %rdi
	movq	-32(%rbp), %rdx
	addq	$176, %rdx
	addq	$112, %rdx
	xorl	%esi, %esi
	callq	biari_encode_symbol
	jmp	.LBB50_45
.LBB50_41:                              # %sw.bb172
	movq	-16(%rbp), %rdi
	movq	-32(%rbp), %rdx
	addq	$176, %rdx
	addq	$64, %rdx
	xorl	%esi, %esi
	callq	biari_encode_symbol
	movq	-16(%rbp), %rdi
	movq	-32(%rbp), %rdx
	addq	$176, %rdx
	addq	$80, %rdx
	xorl	%esi, %esi
	callq	biari_encode_symbol
	movq	-16(%rbp), %rdi
	movq	-32(%rbp), %rdx
	addq	$176, %rdx
	addq	$96, %rdx
	movl	$1, %esi
	callq	biari_encode_symbol
	jmp	.LBB50_45
.LBB50_42:                              # %sw.bb182
	movq	-16(%rbp), %rdi
	movq	-32(%rbp), %rdx
	addq	$176, %rdx
	addq	$64, %rdx
	movl	$1, %esi
	callq	biari_encode_symbol
	movq	-16(%rbp), %rdi
	movq	-32(%rbp), %rdx
	addq	$176, %rdx
	addq	$112, %rdx
	xorl	%esi, %esi
	callq	biari_encode_symbol
	jmp	.LBB50_45
.LBB50_43:                              # %sw.bb189
	movq	-16(%rbp), %rdi
	movq	-32(%rbp), %rdx
	addq	$176, %rdx
	addq	$64, %rdx
	movl	$1, %esi
	callq	biari_encode_symbol
	movq	-16(%rbp), %rdi
	movq	-32(%rbp), %rdx
	addq	$176, %rdx
	addq	$112, %rdx
	movl	$1, %esi
	callq	biari_encode_symbol
	jmp	.LBB50_45
.LBB50_44:                              # %sw.default
	movabsq	$.L.str.2, %rdi
	movb	$0, %al
	callq	printf
	movl	$1, %edi
	callq	exit
.LBB50_45:                              # %sw.epilog
	jmp	.LBB50_91
.LBB50_46:                              # %if.else196
	cmpl	$0, -4(%rbp)
	jne	.LBB50_48
# %bb.47:                               # %if.then199
	movq	-16(%rbp), %rdi
	movq	-32(%rbp), %rdx
	addq	$352, %rdx              # imm = 0x160
	movslq	-20(%rbp), %rax
	shlq	$4, %rax
	addq	%rax, %rdx
	xorl	%esi, %esi
	callq	biari_encode_symbol
	jmp	.LBB50_90
.LBB50_48:                              # %if.else204
	cmpl	$2, -4(%rbp)
	jg	.LBB50_53
# %bb.49:                               # %if.then207
	movq	-16(%rbp), %rdi
	movq	-32(%rbp), %rdx
	addq	$352, %rdx              # imm = 0x160
	movslq	-20(%rbp), %rax
	shlq	$4, %rax
	addq	%rax, %rdx
	movl	$1, %esi
	callq	biari_encode_symbol
	movq	-16(%rbp), %rdi
	movq	-32(%rbp), %rdx
	addq	$352, %rdx              # imm = 0x160
	addq	$64, %rdx
	xorl	%esi, %esi
	callq	biari_encode_symbol
	movl	-4(%rbp), %eax
	subl	$1, %eax
	movl	%eax, -40(%rbp)
	cmpl	$0, -40(%rbp)
	je	.LBB50_51
# %bb.50:                               # %if.then217
	movq	-16(%rbp), %rdi
	movq	-32(%rbp), %rdx
	addq	$352, %rdx              # imm = 0x160
	addq	$96, %rdx
	movl	$1, %esi
	callq	biari_encode_symbol
	jmp	.LBB50_52
.LBB50_51:                              # %if.else221
	movq	-16(%rbp), %rdi
	movq	-32(%rbp), %rdx
	addq	$352, %rdx              # imm = 0x160
	addq	$96, %rdx
	xorl	%esi, %esi
	callq	biari_encode_symbol
.LBB50_52:                              # %if.end225
	jmp	.LBB50_89
.LBB50_53:                              # %if.else226
	cmpl	$10, -4(%rbp)
	jg	.LBB50_64
# %bb.54:                               # %if.then229
	movq	-16(%rbp), %rdi
	movq	-32(%rbp), %rdx
	addq	$352, %rdx              # imm = 0x160
	movslq	-20(%rbp), %rax
	shlq	$4, %rax
	addq	%rax, %rdx
	movl	$1, %esi
	callq	biari_encode_symbol
	movq	-16(%rbp), %rdi
	movq	-32(%rbp), %rdx
	addq	$352, %rdx              # imm = 0x160
	addq	$64, %rdx
	movl	$1, %esi
	callq	biari_encode_symbol
	movq	-16(%rbp), %rdi
	movq	-32(%rbp), %rdx
	addq	$352, %rdx              # imm = 0x160
	addq	$80, %rdx
	xorl	%esi, %esi
	callq	biari_encode_symbol
	movl	-4(%rbp), %eax
	subl	$3, %eax
	sarl	$2, %eax
	andl	$1, %eax
	movl	%eax, -40(%rbp)
	cmpl	$0, -40(%rbp)
	je	.LBB50_56
# %bb.55:                               # %if.then242
	movq	-16(%rbp), %rdi
	movq	-32(%rbp), %rdx
	addq	$352, %rdx              # imm = 0x160
	addq	$96, %rdx
	movl	$1, %esi
	callq	biari_encode_symbol
	jmp	.LBB50_57
.LBB50_56:                              # %if.else246
	movq	-16(%rbp), %rdi
	movq	-32(%rbp), %rdx
	addq	$352, %rdx              # imm = 0x160
	addq	$96, %rdx
	xorl	%esi, %esi
	callq	biari_encode_symbol
.LBB50_57:                              # %if.end250
	movl	-4(%rbp), %eax
	subl	$3, %eax
	sarl	$1, %eax
	andl	$1, %eax
	movl	%eax, -40(%rbp)
	cmpl	$0, -40(%rbp)
	je	.LBB50_59
# %bb.58:                               # %if.then255
	movq	-16(%rbp), %rdi
	movq	-32(%rbp), %rdx
	addq	$352, %rdx              # imm = 0x160
	addq	$96, %rdx
	movl	$1, %esi
	callq	biari_encode_symbol
	jmp	.LBB50_60
.LBB50_59:                              # %if.else259
	movq	-16(%rbp), %rdi
	movq	-32(%rbp), %rdx
	addq	$352, %rdx              # imm = 0x160
	addq	$96, %rdx
	xorl	%esi, %esi
	callq	biari_encode_symbol
.LBB50_60:                              # %if.end263
	movl	-4(%rbp), %eax
	subl	$3, %eax
	andl	$1, %eax
	movl	%eax, -40(%rbp)
	cmpl	$0, -40(%rbp)
	je	.LBB50_62
# %bb.61:                               # %if.then267
	movq	-16(%rbp), %rdi
	movq	-32(%rbp), %rdx
	addq	$352, %rdx              # imm = 0x160
	addq	$96, %rdx
	movl	$1, %esi
	callq	biari_encode_symbol
	jmp	.LBB50_63
.LBB50_62:                              # %if.else271
	movq	-16(%rbp), %rdi
	movq	-32(%rbp), %rdx
	addq	$352, %rdx              # imm = 0x160
	addq	$96, %rdx
	xorl	%esi, %esi
	callq	biari_encode_symbol
.LBB50_63:                              # %if.end275
	jmp	.LBB50_88
.LBB50_64:                              # %if.else276
	cmpl	$11, -4(%rbp)
	je	.LBB50_66
# %bb.65:                               # %lor.lhs.false
	cmpl	$22, -4(%rbp)
	jne	.LBB50_70
.LBB50_66:                              # %if.then281
	movq	-16(%rbp), %rdi
	movq	-32(%rbp), %rdx
	addq	$352, %rdx              # imm = 0x160
	movslq	-20(%rbp), %rax
	shlq	$4, %rax
	addq	%rax, %rdx
	movl	$1, %esi
	callq	biari_encode_symbol
	movq	-16(%rbp), %rdi
	movq	-32(%rbp), %rdx
	addq	$352, %rdx              # imm = 0x160
	addq	$64, %rdx
	movl	$1, %esi
	callq	biari_encode_symbol
	movq	-16(%rbp), %rdi
	movq	-32(%rbp), %rdx
	addq	$352, %rdx              # imm = 0x160
	addq	$80, %rdx
	movl	$1, %esi
	callq	biari_encode_symbol
	movq	-16(%rbp), %rdi
	movq	-32(%rbp), %rdx
	addq	$352, %rdx              # imm = 0x160
	addq	$96, %rdx
	movl	$1, %esi
	callq	biari_encode_symbol
	movq	-16(%rbp), %rdi
	movq	-32(%rbp), %rdx
	addq	$352, %rdx              # imm = 0x160
	addq	$96, %rdx
	movl	$1, %esi
	callq	biari_encode_symbol
	cmpl	$11, -4(%rbp)
	jne	.LBB50_68
# %bb.67:                               # %if.then300
	movq	-16(%rbp), %rdi
	movq	-32(%rbp), %rdx
	addq	$352, %rdx              # imm = 0x160
	addq	$96, %rdx
	xorl	%esi, %esi
	callq	biari_encode_symbol
	jmp	.LBB50_69
.LBB50_68:                              # %if.else304
	movq	-16(%rbp), %rdi
	movq	-32(%rbp), %rdx
	addq	$352, %rdx              # imm = 0x160
	addq	$96, %rdx
	movl	$1, %esi
	callq	biari_encode_symbol
.LBB50_69:                              # %if.end308
	jmp	.LBB50_87
.LBB50_70:                              # %if.else309
	cmpl	$22, -4(%rbp)
	jle	.LBB50_72
# %bb.71:                               # %if.then312
	movl	-4(%rbp), %eax
	addl	$-1, %eax
	movl	%eax, -4(%rbp)
.LBB50_72:                              # %if.end313
	movq	-16(%rbp), %rdi
	movq	-32(%rbp), %rdx
	addq	$352, %rdx              # imm = 0x160
	movslq	-20(%rbp), %rax
	shlq	$4, %rax
	addq	%rax, %rdx
	movl	$1, %esi
	callq	biari_encode_symbol
	movq	-16(%rbp), %rdi
	movq	-32(%rbp), %rdx
	addq	$352, %rdx              # imm = 0x160
	addq	$64, %rdx
	movl	$1, %esi
	callq	biari_encode_symbol
	movq	-16(%rbp), %rdi
	movq	-32(%rbp), %rdx
	addq	$352, %rdx              # imm = 0x160
	addq	$80, %rdx
	movl	$1, %esi
	callq	biari_encode_symbol
	movl	-4(%rbp), %eax
	subl	$12, %eax
	sarl	$3, %eax
	andl	$1, %eax
	movl	%eax, -40(%rbp)
	cmpl	$0, -40(%rbp)
	je	.LBB50_74
# %bb.73:                               # %if.then328
	movq	-16(%rbp), %rdi
	movq	-32(%rbp), %rdx
	addq	$352, %rdx              # imm = 0x160
	addq	$96, %rdx
	movl	$1, %esi
	callq	biari_encode_symbol
	jmp	.LBB50_75
.LBB50_74:                              # %if.else332
	movq	-16(%rbp), %rdi
	movq	-32(%rbp), %rdx
	addq	$352, %rdx              # imm = 0x160
	addq	$96, %rdx
	xorl	%esi, %esi
	callq	biari_encode_symbol
.LBB50_75:                              # %if.end336
	movl	-4(%rbp), %eax
	subl	$12, %eax
	sarl	$2, %eax
	andl	$1, %eax
	movl	%eax, -40(%rbp)
	cmpl	$0, -40(%rbp)
	je	.LBB50_77
# %bb.76:                               # %if.then341
	movq	-16(%rbp), %rdi
	movq	-32(%rbp), %rdx
	addq	$352, %rdx              # imm = 0x160
	addq	$96, %rdx
	movl	$1, %esi
	callq	biari_encode_symbol
	jmp	.LBB50_78
.LBB50_77:                              # %if.else345
	movq	-16(%rbp), %rdi
	movq	-32(%rbp), %rdx
	addq	$352, %rdx              # imm = 0x160
	addq	$96, %rdx
	xorl	%esi, %esi
	callq	biari_encode_symbol
.LBB50_78:                              # %if.end349
	movl	-4(%rbp), %eax
	subl	$12, %eax
	sarl	$1, %eax
	andl	$1, %eax
	movl	%eax, -40(%rbp)
	cmpl	$0, -40(%rbp)
	je	.LBB50_80
# %bb.79:                               # %if.then354
	movq	-16(%rbp), %rdi
	movq	-32(%rbp), %rdx
	addq	$352, %rdx              # imm = 0x160
	addq	$96, %rdx
	movl	$1, %esi
	callq	biari_encode_symbol
	jmp	.LBB50_81
.LBB50_80:                              # %if.else358
	movq	-16(%rbp), %rdi
	movq	-32(%rbp), %rdx
	addq	$352, %rdx              # imm = 0x160
	addq	$96, %rdx
	xorl	%esi, %esi
	callq	biari_encode_symbol
.LBB50_81:                              # %if.end362
	movl	-4(%rbp), %eax
	subl	$12, %eax
	andl	$1, %eax
	movl	%eax, -40(%rbp)
	cmpl	$0, -40(%rbp)
	je	.LBB50_83
# %bb.82:                               # %if.then366
	movq	-16(%rbp), %rdi
	movq	-32(%rbp), %rdx
	addq	$352, %rdx              # imm = 0x160
	addq	$96, %rdx
	movl	$1, %esi
	callq	biari_encode_symbol
	jmp	.LBB50_84
.LBB50_83:                              # %if.else370
	movq	-16(%rbp), %rdi
	movq	-32(%rbp), %rdx
	addq	$352, %rdx              # imm = 0x160
	addq	$96, %rdx
	xorl	%esi, %esi
	callq	biari_encode_symbol
.LBB50_84:                              # %if.end374
	cmpl	$22, -4(%rbp)
	jl	.LBB50_86
# %bb.85:                               # %if.then377
	movl	-4(%rbp), %eax
	addl	$1, %eax
	movl	%eax, -4(%rbp)
.LBB50_86:                              # %if.end378
	jmp	.LBB50_87
.LBB50_87:                              # %if.end379
	jmp	.LBB50_88
.LBB50_88:                              # %if.end380
	jmp	.LBB50_89
.LBB50_89:                              # %if.end381
	jmp	.LBB50_90
.LBB50_90:                              # %if.end382
	jmp	.LBB50_91
.LBB50_91:                              # %if.end383
	movl	-4(%rbp), %eax
	cmpl	-60(%rbp), %eax
	jne	.LBB50_101
# %bb.92:                               # %if.then386
	cmpl	$25, -36(%rbp)
	jne	.LBB50_94
# %bb.93:                               # %if.then389
	movq	-16(%rbp), %rdi
	movl	$1, %esi
	callq	biari_encode_symbol_final
	jmp	.LBB50_102
.LBB50_94:                              # %if.end390
	movq	-16(%rbp), %rdi
	xorl	%esi, %esi
	callq	biari_encode_symbol_final
	movl	$8, -20(%rbp)
	movl	-36(%rbp), %eax
	cltd
	movl	$12, %ecx
	idivl	%ecx
	movl	%eax, -4(%rbp)
	movq	-16(%rbp), %rdi
	movl	-4(%rbp), %eax
	movzbl	%al, %eax
	movq	-32(%rbp), %rdx
	addq	$176, %rdx
	movslq	-20(%rbp), %rcx
	shlq	$4, %rcx
	addq	%rcx, %rdx
	movswl	%ax, %esi
	callq	biari_encode_symbol
	movl	-36(%rbp), %eax
	cltd
	movl	$12, %ecx
	idivl	%ecx
	movl	%edx, -36(%rbp)
	movl	-36(%rbp), %eax
	cltd
	movl	$4, %ecx
	idivl	%ecx
	movl	%eax, -4(%rbp)
	movl	$9, -20(%rbp)
	cmpl	$0, -4(%rbp)
	jne	.LBB50_96
# %bb.95:                               # %if.then403
	movq	-16(%rbp), %rdi
	movq	-32(%rbp), %rdx
	addq	$176, %rdx
	movslq	-20(%rbp), %rax
	shlq	$4, %rax
	addq	%rax, %rdx
	xorl	%esi, %esi
	callq	biari_encode_symbol
	jmp	.LBB50_100
.LBB50_96:                              # %if.else409
	movq	-16(%rbp), %rdi
	movq	-32(%rbp), %rdx
	addq	$176, %rdx
	movslq	-20(%rbp), %rax
	shlq	$4, %rax
	addq	%rax, %rdx
	movl	$1, %esi
	callq	biari_encode_symbol
	cmpl	$1, -4(%rbp)
	jne	.LBB50_98
# %bb.97:                               # %if.then417
	movq	-16(%rbp), %rdi
	movq	-32(%rbp), %rdx
	addq	$176, %rdx
	movslq	-20(%rbp), %rax
	shlq	$4, %rax
	addq	%rax, %rdx
	xorl	%esi, %esi
	callq	biari_encode_symbol
	jmp	.LBB50_99
.LBB50_98:                              # %if.else423
	movq	-16(%rbp), %rdi
	movq	-32(%rbp), %rdx
	addq	$176, %rdx
	movslq	-20(%rbp), %rax
	shlq	$4, %rax
	addq	%rax, %rdx
	movl	$1, %esi
	callq	biari_encode_symbol
.LBB50_99:                              # %if.end429
	jmp	.LBB50_100
.LBB50_100:                             # %if.end430
	movl	-36(%rbp), %eax
	cltd
	movl	$4, %ecx
	idivl	%ecx
	movl	%edx, -36(%rbp)
	movl	$10, -20(%rbp)
	movl	-36(%rbp), %eax
	cltd
	movl	$2, %ecx
	idivl	%ecx
	movl	%eax, -4(%rbp)
	movq	-16(%rbp), %rdi
	movl	-4(%rbp), %eax
	movzbl	%al, %eax
	movq	-32(%rbp), %rdx
	addq	$176, %rdx
	movslq	-20(%rbp), %rcx
	shlq	$4, %rcx
	addq	%rcx, %rdx
	movswl	%ax, %esi
	callq	biari_encode_symbol
	movl	-36(%rbp), %eax
	cltd
	movl	$2, %ecx
	idivl	%ecx
	movl	%edx, -4(%rbp)
	movq	-16(%rbp), %rdi
	movl	-4(%rbp), %eax
	movzbl	%al, %eax
	movq	-32(%rbp), %rdx
	addq	$176, %rdx
	movslq	-20(%rbp), %rcx
	shlq	$4, %rcx
	addq	%rcx, %rdx
	movswl	%ax, %esi
	callq	biari_encode_symbol
.LBB50_101:                             # %if.end448
	jmp	.LBB50_102
.LBB50_102:                             # %if.end449
	cmpl	$823850986, -84(%rbp)   # imm = 0x311AF7EA
	jne	.LBB50_104
.LBB50_103:
	addq	$96, %rsp
	popq	%rbp
	.cfi_def_cfa %rsp, 8
	retq
.LBB50_104:                             # %func_exit
	.cfi_def_cfa %rbp, 16
	callq	detect_breach
	jmp	.LBB50_103
.Lfunc_end50:
	.size	writeMB_typeInfo_CABAC.23, .Lfunc_end50-writeMB_typeInfo_CABAC.23
	.cfi_endproc
	.section	.rodata,"a",@progbits
	.p2align	3
.LJTI50_0:
	.quad	.LBB50_37
	.quad	.LBB50_38
	.quad	.LBB50_39
	.quad	.LBB50_40
	.quad	.LBB50_41
	.quad	.LBB50_41
	.quad	.LBB50_42
	.quad	.LBB50_43
                                        # -- End function
	.text
	.globl	writeCIPredMode_CABAC.24 # -- Begin function writeCIPredMode_CABAC.24
	.p2align	4, 0x90
	.type	writeCIPredMode_CABAC.24,@function
writeCIPredMode_CABAC.24:               # @writeCIPredMode_CABAC.24
	.cfi_startproc
# %bb.0:                                # %entry
	pushq	%rbp
	.cfi_def_cfa_offset 16
	.cfi_offset %rbp, -16
	movq	%rsp, %rbp
	.cfi_def_cfa_register %rbp
	subq	$64, %rsp
	movl	$182322964, -44(%rbp)   # imm = 0xADE0714
	movq	%rdi, -56(%rbp)
	movq	%rsi, -40(%rbp)
	movq	img, %rax
	movq	14160(%rax), %rax
	movq	40(%rax), %rax
	movq	%rax, -32(%rbp)
	movq	img, %rax
	movq	14168(%rax), %rax
	movq	img, %rcx
	movslq	12(%rcx), %rcx
	imulq	$632, %rcx, %rcx        # imm = 0x278
	addq	%rcx, %rax
	movq	%rax, -24(%rbp)
	movq	-56(%rbp), %rax
	movl	4(%rax), %eax
	movl	%eax, -12(%rbp)
	movq	-24(%rbp), %rax
	cmpq	$0, 56(%rax)
	jne	.LBB51_2
# %bb.1:                                # %if.then
	movl	$0, -8(%rbp)
	jmp	.LBB51_3
.LBB51_2:                               # %if.else
	xorl	%eax, %eax
	movq	-24(%rbp), %rcx
	movq	56(%rcx), %rcx
	movl	524(%rcx), %ecx
	cmpl	$0, %ecx
	movl	$1, %ecx
	cmovnel	%ecx, %eax
	movl	%eax, -8(%rbp)
.LBB51_3:                               # %if.end
	movq	-24(%rbp), %rax
	cmpq	$0, 64(%rax)
	jne	.LBB51_5
# %bb.4:                                # %if.then4
	movl	$0, -4(%rbp)
	jmp	.LBB51_6
.LBB51_5:                               # %if.else5
	xorl	%eax, %eax
	movq	-24(%rbp), %rcx
	movq	64(%rcx), %rcx
	movl	524(%rcx), %ecx
	cmpl	$0, %ecx
	movl	$1, %ecx
	cmovnel	%ecx, %eax
	movl	%eax, -4(%rbp)
.LBB51_6:                               # %if.end10
	movl	-4(%rbp), %eax
	addl	-8(%rbp), %eax
	movl	%eax, -16(%rbp)
	cmpl	$0, -12(%rbp)
	jne	.LBB51_8
# %bb.7:                                # %if.then12
	movq	-40(%rbp), %rdi
	movq	-32(%rbp), %rdx
	addq	$32, %rdx
	movslq	-16(%rbp), %rax
	shlq	$4, %rax
	addq	%rax, %rdx
	xorl	%esi, %esi
	callq	biari_encode_symbol
	jmp	.LBB51_9
.LBB51_8:                               # %if.else13
	movq	-40(%rbp), %rdi
	movq	-32(%rbp), %rdx
	addq	$32, %rdx
	movslq	-16(%rbp), %rax
	shlq	$4, %rax
	addq	%rax, %rdx
	movl	$1, %esi
	callq	biari_encode_symbol
	movq	-40(%rbp), %rdi
	movl	-12(%rbp), %esi
	subl	$1, %esi
	movq	-32(%rbp), %rdx
	addq	$32, %rdx
	addq	$48, %rdx
	xorl	%ecx, %ecx
	movl	$2, %r8d
	callq	unary_bin_max_encode
.LBB51_9:                               # %if.end21
	cmpl	$182322964, -44(%rbp)   # imm = 0xADE0714
	jne	.LBB51_11
.LBB51_10:
	addq	$64, %rsp
	popq	%rbp
	.cfi_def_cfa %rsp, 8
	retq
.LBB51_11:                              # %func_exit
	.cfi_def_cfa %rbp, 16
	callq	detect_breach
	jmp	.LBB51_10
.Lfunc_end51:
	.size	writeCIPredMode_CABAC.24, .Lfunc_end51-writeCIPredMode_CABAC.24
	.cfi_endproc
                                        # -- End function
	.globl	write_significant_coefficients.25 # -- Begin function write_significant_coefficients.25
	.p2align	4, 0x90
	.type	write_significant_coefficients.25,@function
write_significant_coefficients.25:      # @write_significant_coefficients.25
	.cfi_startproc
# %bb.0:                                # %entry
	pushq	%rbp
	.cfi_def_cfa_offset 16
	.cfi_offset %rbp, -16
	movq	%rsp, %rbp
	.cfi_def_cfa_register %rbp
	subq	$64, %rsp
	movl	$1063730132, -52(%rbp)  # imm = 0x3F673BD4
	movq	%rdi, -64(%rbp)
	movq	%rsi, -48(%rbp)
	movl	%edx, -12(%rbp)
	movq	%rcx, -40(%rbp)
	movl	$1, -8(%rbp)
	movl	$0, -20(%rbp)
	movslq	-12(%rbp), %rax
	movl	maxpos(,%rax,4), %eax
	subl	$1, %eax
	movl	%eax, -4(%rbp)
.LBB52_1:                               # %for.cond
                                        # =>This Inner Loop Header: Depth=1
	cmpl	$0, -4(%rbp)
	jl	.LBB52_20
# %bb.2:                                # %for.body
                                        #   in Loop: Header=BB52_1 Depth=1
	movq	-40(%rbp), %rax
	movslq	-4(%rbp), %rcx
	cmpl	$0, (%rax,%rcx,4)
	je	.LBB52_18
# %bb.3:                                # %if.then
                                        #   in Loop: Header=BB52_1 Depth=1
	movq	-40(%rbp), %rax
	movslq	-4(%rbp), %rcx
	cmpl	$0, (%rax,%rcx,4)
	jle	.LBB52_5
# %bb.4:                                # %if.then7
                                        #   in Loop: Header=BB52_1 Depth=1
	movq	-40(%rbp), %rax
	movslq	-4(%rbp), %rcx
	movl	(%rax,%rcx,4), %eax
	movl	%eax, -24(%rbp)
	movw	$0, -14(%rbp)
	jmp	.LBB52_6
.LBB52_5:                               # %if.else
                                        #   in Loop: Header=BB52_1 Depth=1
	xorl	%eax, %eax
	movq	-40(%rbp), %rcx
	movslq	-4(%rbp), %rdx
	subl	(%rcx,%rdx,4), %eax
	movl	%eax, -24(%rbp)
	movw	$1, -14(%rbp)
.LBB52_6:                               # %if.end
                                        #   in Loop: Header=BB52_1 Depth=1
	xorl	%eax, %eax
	movl	-24(%rbp), %ecx
	cmpl	$1, %ecx
	movl	$1, %ecx
	cmovgl	%ecx, %eax
	movw	%ax, -16(%rbp)
	cmpl	$4, -8(%rbp)
	jge	.LBB52_8
# %bb.7:                                # %cond.true
                                        #   in Loop: Header=BB52_1 Depth=1
	movl	-8(%rbp), %eax
	jmp	.LBB52_9
.LBB52_8:                               # %cond.false
                                        #   in Loop: Header=BB52_1 Depth=1
	movl	$4, %eax
	jmp	.LBB52_9
.LBB52_9:                               # %cond.end
                                        #   in Loop: Header=BB52_1 Depth=1
	movl	%eax, -28(%rbp)
	movq	-48(%rbp), %rdi
	movw	-16(%rbp), %ax
	movq	img, %rcx
	movq	14160(%rcx), %rcx
	movq	40(%rcx), %rdx
	addq	$5728, %rdx             # imm = 0x1660
	movslq	-12(%rbp), %rcx
	movslq	type2ctx_one(,%rcx,4), %rcx
	imulq	$80, %rcx, %rcx
	addq	%rcx, %rdx
	movslq	-28(%rbp), %rcx
	shlq	$4, %rcx
	addq	%rcx, %rdx
	movswl	%ax, %esi
	callq	biari_encode_symbol
	cmpw	$0, -16(%rbp)
	je	.LBB52_14
# %bb.10:                               # %if.then21
                                        #   in Loop: Header=BB52_1 Depth=1
	movl	-20(%rbp), %eax
	movslq	-12(%rbp), %rcx
	cmpl	max_c2(,%rcx,4), %eax
	jge	.LBB52_12
# %bb.11:                               # %cond.true26
                                        #   in Loop: Header=BB52_1 Depth=1
	movl	-20(%rbp), %eax
	jmp	.LBB52_13
.LBB52_12:                              # %cond.false27
                                        #   in Loop: Header=BB52_1 Depth=1
	movslq	-12(%rbp), %rax
	movl	max_c2(,%rax,4), %eax
.LBB52_13:                              # %cond.end30
                                        #   in Loop: Header=BB52_1 Depth=1
	movl	%eax, -28(%rbp)
	movq	-48(%rbp), %rdi
	movl	-24(%rbp), %esi
	subl	$2, %esi
	movq	img, %rax
	movq	14160(%rax), %rax
	movq	40(%rax), %rdx
	addq	$6528, %rdx             # imm = 0x1980
	movslq	-12(%rbp), %rax
	movslq	type2ctx_abs(,%rax,4), %rax
	imulq	$80, %rax, %rax
	addq	%rax, %rdx
	movslq	-28(%rbp), %rax
	shlq	$4, %rax
	addq	%rax, %rdx
	callq	unary_exp_golomb_level_encode
	movl	$0, -8(%rbp)
	movl	-20(%rbp), %eax
	addl	$1, %eax
	movl	%eax, -20(%rbp)
	jmp	.LBB52_17
.LBB52_14:                              # %if.else42
                                        #   in Loop: Header=BB52_1 Depth=1
	cmpl	$0, -8(%rbp)
	je	.LBB52_16
# %bb.15:                               # %if.then44
                                        #   in Loop: Header=BB52_1 Depth=1
	movl	-8(%rbp), %eax
	addl	$1, %eax
	movl	%eax, -8(%rbp)
.LBB52_16:                              # %if.end46
                                        #   in Loop: Header=BB52_1 Depth=1
	jmp	.LBB52_17
.LBB52_17:                              # %if.end47
                                        #   in Loop: Header=BB52_1 Depth=1
	movq	-48(%rbp), %rdi
	movswl	-14(%rbp), %esi
	callq	biari_encode_symbol_eq_prob
.LBB52_18:                              # %if.end48
                                        #   in Loop: Header=BB52_1 Depth=1
	jmp	.LBB52_19
.LBB52_19:                              # %for.inc
                                        #   in Loop: Header=BB52_1 Depth=1
	movl	-4(%rbp), %eax
	addl	$-1, %eax
	movl	%eax, -4(%rbp)
	jmp	.LBB52_1
.LBB52_20:                              # %for.end
	cmpl	$1063730132, -52(%rbp)  # imm = 0x3F673BD4
	jne	.LBB52_22
.LBB52_21:
	addq	$64, %rsp
	popq	%rbp
	.cfi_def_cfa %rsp, 8
	retq
.LBB52_22:                              # %func_exit
	.cfi_def_cfa %rbp, 16
	callq	detect_breach
	jmp	.LBB52_21
.Lfunc_end52:
	.size	write_significant_coefficients.25, .Lfunc_end52-write_significant_coefficients.25
	.cfi_endproc
                                        # -- End function
	.globl	writeMB_skip_flagInfo_CABAC.26 # -- Begin function writeMB_skip_flagInfo_CABAC.26
	.p2align	4, 0x90
	.type	writeMB_skip_flagInfo_CABAC.26,@function
writeMB_skip_flagInfo_CABAC.26:         # @writeMB_skip_flagInfo_CABAC.26
	.cfi_startproc
# %bb.0:                                # %entry
	pushq	%rbp
	.cfi_def_cfa_offset 16
	.cfi_offset %rbp, -16
	movq	%rsp, %rbp
	.cfi_def_cfa_register %rbp
	subq	$64, %rsp
	movl	$187006925, -60(%rbp)   # imm = 0xB257FCD
	movq	%rdi, -32(%rbp)
	movq	%rsi, -48(%rbp)
	movq	img, %rax
	cmpl	$1, 24(%rax)
	sete	%al
	andb	$1, %al
	movzbl	%al, %eax
	movl	%eax, -64(%rbp)
	movq	img, %rax
	movq	14160(%rax), %rax
	movq	32(%rax), %rax
	movq	%rax, -56(%rbp)
	movq	img, %rax
	movq	14168(%rax), %rax
	movq	img, %rcx
	movslq	12(%rcx), %rcx
	imulq	$632, %rcx, %rcx        # imm = 0x278
	addq	%rcx, %rax
	movq	%rax, -24(%rbp)
	movq	-32(%rbp), %rax
	movl	4(%rax), %eax
	movl	%eax, -36(%rbp)
	cmpl	$0, -64(%rbp)
	je	.LBB53_14
# %bb.1:                                # %if.then
	movq	-24(%rbp), %rax
	cmpq	$0, 56(%rax)
	jne	.LBB53_3
# %bb.2:                                # %if.then3
	movl	$0, -8(%rbp)
	jmp	.LBB53_4
.LBB53_3:                               # %if.else
	xorl	%eax, %eax
	movq	-24(%rbp), %rcx
	movq	56(%rcx), %rcx
	movl	624(%rcx), %ecx
	cmpl	$0, %ecx
	movl	$1, %ecx
	cmovel	%eax, %ecx
	movl	%ecx, -8(%rbp)
.LBB53_4:                               # %if.end
	movq	-24(%rbp), %rax
	cmpq	$0, 64(%rax)
	jne	.LBB53_6
# %bb.5:                                # %if.then9
	movl	$0, -12(%rbp)
	jmp	.LBB53_7
.LBB53_6:                               # %if.else10
	xorl	%eax, %eax
	movq	-24(%rbp), %rcx
	movq	64(%rcx), %rcx
	movl	624(%rcx), %ecx
	cmpl	$0, %ecx
	movl	$1, %ecx
	cmovel	%eax, %ecx
	movl	%ecx, -12(%rbp)
.LBB53_7:                               # %if.end16
	movl	-12(%rbp), %eax
	addl	$7, %eax
	addl	-8(%rbp), %eax
	movl	%eax, -4(%rbp)
	movq	-32(%rbp), %rax
	cmpl	$0, 4(%rax)
	jne	.LBB53_10
# %bb.8:                                # %land.lhs.true
	movq	-32(%rbp), %rax
	cmpl	$0, 8(%rax)
	jne	.LBB53_10
# %bb.9:                                # %if.then23
	movq	-48(%rbp), %rdi
	movq	-56(%rbp), %rdx
	addq	$352, %rdx              # imm = 0x160
	movslq	-4(%rbp), %rax
	shlq	$4, %rax
	addq	%rax, %rdx
	movl	$1, %esi
	callq	biari_encode_symbol
	jmp	.LBB53_11
.LBB53_10:                              # %if.else27
	movq	-48(%rbp), %rdi
	movq	-56(%rbp), %rdx
	addq	$352, %rdx              # imm = 0x160
	movslq	-4(%rbp), %rax
	shlq	$4, %rax
	addq	%rax, %rdx
	xorl	%esi, %esi
	callq	biari_encode_symbol
.LBB53_11:                              # %if.end32
	xorl	%eax, %eax
	movq	-32(%rbp), %rcx
	cmpl	$0, 4(%rcx)
	jne	.LBB53_13
# %bb.12:                               # %land.rhs
	movq	-32(%rbp), %rax
	cmpl	$0, 8(%rax)
	sete	%al
.LBB53_13:                              # %land.end
	xorl	%ecx, %ecx
	testb	$1, %al
	movl	$1, %eax
	cmovnel	%ecx, %eax
	movq	-24(%rbp), %rcx
	movl	%eax, 624(%rcx)
	jmp	.LBB53_24
.LBB53_14:                              # %if.else41
	movq	-24(%rbp), %rax
	cmpq	$0, 56(%rax)
	jne	.LBB53_16
# %bb.15:                               # %if.then45
	movl	$0, -8(%rbp)
	jmp	.LBB53_17
.LBB53_16:                              # %if.else46
	xorl	%eax, %eax
	movq	-24(%rbp), %rcx
	movq	56(%rcx), %rcx
	movl	624(%rcx), %ecx
	cmpl	$0, %ecx
	movl	$1, %ecx
	cmovnel	%ecx, %eax
	movl	%eax, -8(%rbp)
.LBB53_17:                              # %if.end52
	movq	-24(%rbp), %rax
	cmpq	$0, 64(%rax)
	jne	.LBB53_19
# %bb.18:                               # %if.then56
	movl	$0, -12(%rbp)
	jmp	.LBB53_20
.LBB53_19:                              # %if.else57
	xorl	%eax, %eax
	movq	-24(%rbp), %rcx
	movq	64(%rcx), %rcx
	movl	624(%rcx), %ecx
	cmpl	$0, %ecx
	movl	$1, %ecx
	cmovnel	%ecx, %eax
	movl	%eax, -12(%rbp)
.LBB53_20:                              # %if.end63
	movl	-12(%rbp), %eax
	addl	-8(%rbp), %eax
	movl	%eax, -4(%rbp)
	cmpl	$0, -36(%rbp)
	jne	.LBB53_22
# %bb.21:                               # %if.then67
	movq	-48(%rbp), %rdi
	movq	-56(%rbp), %rdx
	addq	$176, %rdx
	movslq	-4(%rbp), %rax
	shlq	$4, %rax
	addq	%rax, %rdx
	movl	$1, %esi
	callq	biari_encode_symbol
	jmp	.LBB53_23
.LBB53_22:                              # %if.else72
	movq	-48(%rbp), %rdi
	movq	-56(%rbp), %rdx
	addq	$176, %rdx
	movslq	-4(%rbp), %rax
	shlq	$4, %rax
	addq	%rax, %rdx
	xorl	%esi, %esi
	callq	biari_encode_symbol
.LBB53_23:                              # %if.end77
	xorl	%eax, %eax
	movl	-36(%rbp), %ecx
	cmpl	$0, %ecx
	movl	$1, %ecx
	cmovel	%eax, %ecx
	movq	-24(%rbp), %rax
	movl	%ecx, 624(%rax)
.LBB53_24:                              # %if.end82
	movl	-4(%rbp), %eax
	movq	-32(%rbp), %rcx
	movl	%eax, 24(%rcx)
	cmpl	$187006925, -60(%rbp)   # imm = 0xB257FCD
	jne	.LBB53_26
.LBB53_25:
	addq	$64, %rsp
	popq	%rbp
	.cfi_def_cfa %rsp, 8
	retq
.LBB53_26:                              # %func_exit
	.cfi_def_cfa %rbp, 16
	callq	detect_breach
	jmp	.LBB53_25
.Lfunc_end53:
	.size	writeMB_skip_flagInfo_CABAC.26, .Lfunc_end53-writeMB_skip_flagInfo_CABAC.26
	.cfi_endproc
                                        # -- End function
	.globl	writeCBP_BIT_CABAC.27   # -- Begin function writeCBP_BIT_CABAC.27
	.p2align	4, 0x90
	.type	writeCBP_BIT_CABAC.27,@function
writeCBP_BIT_CABAC.27:                  # @writeCBP_BIT_CABAC.27
	.cfi_startproc
# %bb.0:                                # %entry
	pushq	%rbp
	.cfi_def_cfa_offset 16
	.cfi_offset %rbp, -16
	movq	%rsp, %rbp
	.cfi_def_cfa_register %rbp
	subq	$80, %rsp
	movl	$2140267455, -36(%rbp)  # imm = 0x7F91E3BF
	movl	%edi, -24(%rbp)
	movl	%esi, -40(%rbp)
	movl	%edx, -20(%rbp)
	movq	%rcx, -32(%rbp)
	movl	%r8d, -52(%rbp)
	movq	%r9, -48(%rbp)
	movl	-24(%rbp), %eax
	cltd
	movl	$2, %ecx
	idivl	%ecx
	shll	$1, %edx
	movl	%edx, -8(%rbp)
	movl	-24(%rbp), %eax
	cltd
	idivl	%ecx
	shll	$1, %eax
	movl	%eax, -16(%rbp)
	cmpl	$0, -16(%rbp)
	jne	.LBB54_8
# %bb.1:                                # %if.then
	movq	-32(%rbp), %rax
	cmpq	$0, 56(%rax)
	jne	.LBB54_3
# %bb.2:                                # %if.then3
	movl	$0, -4(%rbp)
	jmp	.LBB54_7
.LBB54_3:                               # %if.else
	movq	-32(%rbp), %rax
	movq	56(%rax), %rax
	cmpl	$14, 72(%rax)
	jne	.LBB54_5
# %bb.4:                                # %if.then6
	movl	$0, -4(%rbp)
	jmp	.LBB54_6
.LBB54_5:                               # %if.else7
	xorl	%esi, %esi
	movq	-32(%rbp), %rax
	movq	56(%rax), %rax
	movl	460(%rax), %edi
	movl	-8(%rbp), %eax
	cltd
	movl	$2, %ecx
	idivl	%ecx
	addl	$2, %eax
	movl	%eax, %ecx
                                        # kill: def $cl killed $ecx
	movl	$1, %eax
	movl	$1, %edx
	shll	%cl, %edx
	andl	%edx, %edi
	cmpl	$0, %edi
	cmovel	%eax, %esi
	movl	%esi, -4(%rbp)
.LBB54_6:                               # %if.end
	jmp	.LBB54_7
.LBB54_7:                               # %if.end13
	jmp	.LBB54_9
.LBB54_8:                               # %if.else14
	xorl	%esi, %esi
	movl	-20(%rbp), %edi
	movl	-8(%rbp), %eax
	cltd
	movl	$2, %ecx
	idivl	%ecx
	movl	%eax, %ecx
                                        # kill: def $cl killed $ecx
	movl	$1, %eax
	movl	$1, %edx
	shll	%cl, %edx
	andl	%edx, %edi
	cmpl	$0, %edi
	cmovel	%eax, %esi
	movl	%esi, -4(%rbp)
.LBB54_9:                               # %if.end20
	cmpl	$0, -8(%rbp)
	jne	.LBB54_17
# %bb.10:                               # %if.then22
	movq	img, %rax
	movl	12(%rax), %edi
	movl	-8(%rbp), %esi
	movl	-16(%rbp), %edx
	movl	$4294967295, %ecx       # imm = 0xFFFFFFFF
	xorl	%r8d, %r8d
	leaq	-80(%rbp), %r9
	callq	getLuma4x4Neighbour
	cmpl	$0, -80(%rbp)
	je	.LBB54_15
# %bb.11:                               # %if.then23
	movq	img, %rax
	movq	14168(%rax), %rax
	movslq	-76(%rbp), %rcx
	imulq	$632, %rcx, %rcx        # imm = 0x278
	addq	%rcx, %rax
	cmpl	$14, 72(%rax)
	jne	.LBB54_13
# %bb.12:                               # %if.then26
	movl	$0, -12(%rbp)
	jmp	.LBB54_14
.LBB54_13:                              # %if.else27
	xorl	%esi, %esi
	movq	img, %rax
	movq	14168(%rax), %rax
	movslq	-76(%rbp), %rcx
	imulq	$632, %rcx, %rcx        # imm = 0x278
	addq	%rcx, %rax
	movl	460(%rax), %edi
	movl	-68(%rbp), %eax
	cltd
	movl	$2, %ecx
	idivl	%ecx
	shll	$1, %eax
	addl	$1, %eax
	movl	%eax, %ecx
                                        # kill: def $cl killed $ecx
	movl	$1, %eax
	movl	$1, %edx
	shll	%cl, %edx
	andl	%edx, %edi
	cmpl	$0, %edi
	cmovel	%eax, %esi
	movl	%esi, -12(%rbp)
.LBB54_14:                              # %if.end39
	jmp	.LBB54_16
.LBB54_15:                              # %if.else40
	movl	$0, -12(%rbp)
.LBB54_16:                              # %if.end41
	jmp	.LBB54_18
.LBB54_17:                              # %if.else42
	xorl	%eax, %eax
	movl	-20(%rbp), %edx
	movl	-16(%rbp), %ecx
                                        # kill: def $cl killed $ecx
	movl	$1, %esi
	movl	$1, %edi
	shll	%cl, %edi
	andl	%edi, %edx
	cmpl	$0, %edx
	cmovel	%esi, %eax
	movl	%eax, -12(%rbp)
.LBB54_18:                              # %if.end47
	movq	-48(%rbp), %rdi
	movl	-40(%rbp), %eax
	movzbl	%al, %eax
	movq	img, %rcx
	movq	14160(%rcx), %rcx
	movq	40(%rcx), %rdx
	addq	$96, %rdx
	movslq	-12(%rbp), %rcx
	shlq	$4, %rcx
	addq	%rcx, %rdx
	movl	-4(%rbp), %ecx
	shll	$1, %ecx
	movslq	%ecx, %rcx
	shlq	$4, %rcx
	addq	%rcx, %rdx
	movswl	%ax, %esi
	callq	biari_encode_symbol
	cmpl	$2140267455, -36(%rbp)  # imm = 0x7F91E3BF
	jne	.LBB54_20
.LBB54_19:
	addq	$80, %rsp
	popq	%rbp
	.cfi_def_cfa %rsp, 8
	retq
.LBB54_20:                              # %func_exit
	.cfi_def_cfa %rbp, 16
	callq	detect_breach
	jmp	.LBB54_19
.Lfunc_end54:
	.size	writeCBP_BIT_CABAC.27, .Lfunc_end54-writeCBP_BIT_CABAC.27
	.cfi_endproc
                                        # -- End function
	.globl	writeMB_typeInfo_CABAC.28 # -- Begin function writeMB_typeInfo_CABAC.28
	.p2align	4, 0x90
	.type	writeMB_typeInfo_CABAC.28,@function
writeMB_typeInfo_CABAC.28:              # @writeMB_typeInfo_CABAC.28
	.cfi_startproc
# %bb.0:                                # %entry
	pushq	%rbp
	.cfi_def_cfa_offset 16
	.cfi_offset %rbp, -16
	movq	%rsp, %rbp
	.cfi_def_cfa_register %rbp
	subq	$96, %rsp
	movl	$1458074622, -84(%rbp)  # imm = 0x56E873FE
	movq	%rdi, -80(%rbp)
	movq	%rsi, -16(%rbp)
	movl	$0, -20(%rbp)
	movq	img, %rax
	cmpl	$1, 24(%rax)
	sete	%al
	andb	$1, %al
	movzbl	%al, %eax
	movl	%eax, -60(%rbp)
	movl	$0, -36(%rbp)
	movq	img, %rax
	movq	14160(%rax), %rax
	movq	32(%rax), %rax
	movq	%rax, -32(%rbp)
	movq	img, %rax
	movq	14168(%rax), %rax
	movq	img, %rcx
	movslq	12(%rcx), %rcx
	imulq	$632, %rcx, %rcx        # imm = 0x278
	addq	%rcx, %rax
	movq	%rax, -56(%rbp)
	movq	-80(%rbp), %rax
	movl	4(%rax), %eax
	movl	%eax, -68(%rbp)
	movq	img, %rax
	cmpl	$2, 24(%rax)
	jne	.LBB55_24
# %bb.1:                                # %if.then
	movq	-56(%rbp), %rax
	cmpq	$0, 56(%rax)
	jne	.LBB55_3
# %bb.2:                                # %if.then6
	movl	$0, -48(%rbp)
	jmp	.LBB55_6
.LBB55_3:                               # %if.else
	xorl	%eax, %eax
	movq	-56(%rbp), %rcx
	movq	56(%rcx), %rcx
	cmpl	$9, 72(%rcx)
	je	.LBB55_5
# %bb.4:                                # %land.rhs
	movq	-56(%rbp), %rax
	movq	56(%rax), %rax
	cmpl	$13, 72(%rax)
	setne	%al
.LBB55_5:                               # %land.end
	xorl	%ecx, %ecx
	testb	$1, %al
	movl	$1, %eax
	cmovnel	%eax, %ecx
	movl	%ecx, -48(%rbp)
.LBB55_6:                               # %if.end
	movq	-56(%rbp), %rax
	cmpq	$0, 64(%rax)
	jne	.LBB55_8
# %bb.7:                                # %if.then16
	movl	$0, -44(%rbp)
	jmp	.LBB55_11
.LBB55_8:                               # %if.else17
	xorl	%eax, %eax
	movq	-56(%rbp), %rcx
	movq	64(%rcx), %rcx
	cmpl	$9, 72(%rcx)
	je	.LBB55_10
# %bb.9:                                # %land.rhs22
	movq	-56(%rbp), %rax
	movq	64(%rax), %rax
	cmpl	$13, 72(%rax)
	setne	%al
.LBB55_10:                              # %land.end27
	xorl	%ecx, %ecx
	testb	$1, %al
	movl	$1, %eax
	cmovnel	%eax, %ecx
	movl	%ecx, -44(%rbp)
.LBB55_11:                              # %if.end29
	movl	-44(%rbp), %eax
	addl	-48(%rbp), %eax
	movl	%eax, -20(%rbp)
	movl	-68(%rbp), %eax
	movl	%eax, -4(%rbp)
	movl	-20(%rbp), %eax
	movq	-80(%rbp), %rcx
	movl	%eax, 24(%rcx)
	cmpl	$0, -4(%rbp)
	jne	.LBB55_13
# %bb.12:                               # %if.then32
	movq	-16(%rbp), %rdi
	movq	-32(%rbp), %rdx
	movslq	-20(%rbp), %rax
	shlq	$4, %rax
	addq	%rax, %rdx
	xorl	%esi, %esi
	callq	biari_encode_symbol
	jmp	.LBB55_23
.LBB55_13:                              # %if.else34
	cmpl	$25, -4(%rbp)
	jne	.LBB55_15
# %bb.14:                               # %if.then37
	movq	-16(%rbp), %rdi
	movq	-32(%rbp), %rdx
	movslq	-20(%rbp), %rax
	shlq	$4, %rax
	addq	%rax, %rdx
	movl	$1, %esi
	callq	biari_encode_symbol
	movq	-16(%rbp), %rdi
	movl	$1, %esi
	callq	biari_encode_symbol_final
	jmp	.LBB55_22
.LBB55_15:                              # %if.else43
	movq	-16(%rbp), %rdi
	movq	-32(%rbp), %rdx
	movslq	-20(%rbp), %rax
	shlq	$4, %rax
	addq	%rax, %rdx
	movl	$1, %esi
	callq	biari_encode_symbol
	movq	-16(%rbp), %rdi
	xorl	%esi, %esi
	callq	biari_encode_symbol_final
	movl	-4(%rbp), %eax
	subl	$1, %eax
	movl	%eax, -36(%rbp)
	movl	$4, -20(%rbp)
	movl	-36(%rbp), %eax
	cltd
	movl	$12, %ecx
	idivl	%ecx
	movl	%eax, -4(%rbp)
	movq	-16(%rbp), %rdi
	movl	-4(%rbp), %eax
	movzbl	%al, %eax
	movq	-32(%rbp), %rdx
	movslq	-20(%rbp), %rcx
	shlq	$4, %rcx
	addq	%rcx, %rdx
	movswl	%ax, %esi
	callq	biari_encode_symbol
	movl	-36(%rbp), %eax
	cltd
	movl	$12, %ecx
	idivl	%ecx
	movl	%edx, -36(%rbp)
	movl	-36(%rbp), %eax
	cltd
	movl	$4, %ecx
	idivl	%ecx
	movl	%eax, -4(%rbp)
	movl	$5, -20(%rbp)
	cmpl	$0, -4(%rbp)
	jne	.LBB55_17
# %bb.16:                               # %if.then59
	movq	-16(%rbp), %rdi
	movq	-32(%rbp), %rdx
	movslq	-20(%rbp), %rax
	shlq	$4, %rax
	addq	%rax, %rdx
	xorl	%esi, %esi
	callq	biari_encode_symbol
	jmp	.LBB55_21
.LBB55_17:                              # %if.else65
	movq	-16(%rbp), %rdi
	movq	-32(%rbp), %rdx
	movslq	-20(%rbp), %rax
	shlq	$4, %rax
	addq	%rax, %rdx
	movl	$1, %esi
	callq	biari_encode_symbol
	movl	$6, -20(%rbp)
	cmpl	$1, -4(%rbp)
	jne	.LBB55_19
# %bb.18:                               # %if.then73
	movq	-16(%rbp), %rdi
	movq	-32(%rbp), %rdx
	movslq	-20(%rbp), %rax
	shlq	$4, %rax
	addq	%rax, %rdx
	xorl	%esi, %esi
	callq	biari_encode_symbol
	jmp	.LBB55_20
.LBB55_19:                              # %if.else79
	movq	-16(%rbp), %rdi
	movq	-32(%rbp), %rdx
	movslq	-20(%rbp), %rax
	shlq	$4, %rax
	addq	%rax, %rdx
	movl	$1, %esi
	callq	biari_encode_symbol
.LBB55_20:                              # %if.end85
	jmp	.LBB55_21
.LBB55_21:                              # %if.end86
	movl	-36(%rbp), %eax
	cltd
	movl	$4, %ecx
	idivl	%ecx
	movl	%edx, -36(%rbp)
	movl	-36(%rbp), %eax
	cltd
	movl	$2, %ecx
	idivl	%ecx
	movl	%eax, -4(%rbp)
	movl	$7, -20(%rbp)
	movq	-16(%rbp), %rdi
	movl	-4(%rbp), %eax
	movzbl	%al, %eax
	movq	-32(%rbp), %rdx
	movslq	-20(%rbp), %rcx
	shlq	$4, %rcx
	addq	%rcx, %rdx
	movswl	%ax, %esi
	callq	biari_encode_symbol
	movl	$8, -20(%rbp)
	movl	-36(%rbp), %eax
	cltd
	movl	$2, %ecx
	idivl	%ecx
	movl	%edx, -4(%rbp)
	movq	-16(%rbp), %rdi
	movl	-4(%rbp), %eax
	movzbl	%al, %eax
	movq	-32(%rbp), %rdx
	movslq	-20(%rbp), %rcx
	shlq	$4, %rcx
	addq	%rcx, %rdx
	movswl	%ax, %esi
	callq	biari_encode_symbol
.LBB55_22:                              # %if.end104
	jmp	.LBB55_23
.LBB55_23:                              # %if.end105
	jmp	.LBB55_102
.LBB55_24:                              # %if.else106
	cmpl	$0, -60(%rbp)
	je	.LBB55_32
# %bb.25:                               # %if.then107
	movq	-56(%rbp), %rax
	cmpq	$0, 56(%rax)
	jne	.LBB55_27
# %bb.26:                               # %if.then111
	movl	$0, -48(%rbp)
	jmp	.LBB55_28
.LBB55_27:                              # %if.else112
	xorl	%eax, %eax
	movq	-56(%rbp), %rcx
	movq	56(%rcx), %rcx
	movl	72(%rcx), %ecx
	cmpl	$0, %ecx
	movl	$1, %ecx
	cmovnel	%ecx, %eax
	movl	%eax, -48(%rbp)
.LBB55_28:                              # %if.end118
	movq	-56(%rbp), %rax
	cmpq	$0, 64(%rax)
	jne	.LBB55_30
# %bb.29:                               # %if.then122
	movl	$0, -44(%rbp)
	jmp	.LBB55_31
.LBB55_30:                              # %if.else123
	xorl	%eax, %eax
	movq	-56(%rbp), %rcx
	movq	64(%rcx), %rcx
	movl	72(%rcx), %ecx
	cmpl	$0, %ecx
	movl	$1, %ecx
	cmovnel	%ecx, %eax
	movl	%eax, -44(%rbp)
.LBB55_31:                              # %if.end129
	movl	-44(%rbp), %eax
	addl	-48(%rbp), %eax
	movl	%eax, -20(%rbp)
	movl	-20(%rbp), %eax
	movq	-80(%rbp), %rcx
	movl	%eax, 24(%rcx)
.LBB55_32:                              # %if.end132
	movl	-68(%rbp), %eax
	movl	%eax, -4(%rbp)
	movl	-4(%rbp), %eax
	movl	-60(%rbp), %ecx
	cmpl	$0, %ecx
	movl	$24, %ecx
	movl	$7, %edx
	cmovnel	%ecx, %edx
	movl	%edx, -64(%rbp)
	cmpl	%edx, %eax
	jl	.LBB55_34
# %bb.33:                               # %if.then137
	movl	-4(%rbp), %eax
	subl	-64(%rbp), %eax
	movl	%eax, -36(%rbp)
	movl	-64(%rbp), %eax
	movl	%eax, -4(%rbp)
.LBB55_34:                              # %if.end139
	cmpl	$0, -60(%rbp)
	jne	.LBB55_46
# %bb.35:                               # %if.then141
	movl	-4(%rbp), %eax
	movq	%rax, %rcx
	subq	$7, %rcx
	ja	.LBB55_44
# %bb.36:                               # %if.then141
	movq	.LJTI55_0(,%rax,8), %rax
	jmpq	*%rax
.LBB55_37:                              # %sw.bb
	jmp	.LBB55_45
.LBB55_38:                              # %sw.bb142
	movq	-16(%rbp), %rdi
	movq	-32(%rbp), %rdx
	addq	$176, %rdx
	addq	$64, %rdx
	xorl	%esi, %esi
	callq	biari_encode_symbol
	movq	-16(%rbp), %rdi
	movq	-32(%rbp), %rdx
	addq	$176, %rdx
	addq	$80, %rdx
	xorl	%esi, %esi
	callq	biari_encode_symbol
	movq	-16(%rbp), %rdi
	movq	-32(%rbp), %rdx
	addq	$176, %rdx
	addq	$96, %rdx
	xorl	%esi, %esi
	callq	biari_encode_symbol
	jmp	.LBB55_45
.LBB55_39:                              # %sw.bb152
	movq	-16(%rbp), %rdi
	movq	-32(%rbp), %rdx
	addq	$176, %rdx
	addq	$64, %rdx
	xorl	%esi, %esi
	callq	biari_encode_symbol
	movq	-16(%rbp), %rdi
	movq	-32(%rbp), %rdx
	addq	$176, %rdx
	addq	$80, %rdx
	movl	$1, %esi
	callq	biari_encode_symbol
	movq	-16(%rbp), %rdi
	movq	-32(%rbp), %rdx
	addq	$176, %rdx
	addq	$112, %rdx
	movl	$1, %esi
	callq	biari_encode_symbol
	jmp	.LBB55_45
.LBB55_40:                              # %sw.bb162
	movq	-16(%rbp), %rdi
	movq	-32(%rbp), %rdx
	addq	$176, %rdx
	addq	$64, %rdx
	xorl	%esi, %esi
	callq	biari_encode_symbol
	movq	-16(%rbp), %rdi
	movq	-32(%rbp), %rdx
	addq	$176, %rdx
	addq	$80, %rdx
	movl	$1, %esi
	callq	biari_encode_symbol
	movq	-16(%rbp), %rdi
	movq	-32(%rbp), %rdx
	addq	$176, %rdx
	addq	$112, %rdx
	xorl	%esi, %esi
	callq	biari_encode_symbol
	jmp	.LBB55_45
.LBB55_41:                              # %sw.bb172
	movq	-16(%rbp), %rdi
	movq	-32(%rbp), %rdx
	addq	$176, %rdx
	addq	$64, %rdx
	xorl	%esi, %esi
	callq	biari_encode_symbol
	movq	-16(%rbp), %rdi
	movq	-32(%rbp), %rdx
	addq	$176, %rdx
	addq	$80, %rdx
	xorl	%esi, %esi
	callq	biari_encode_symbol
	movq	-16(%rbp), %rdi
	movq	-32(%rbp), %rdx
	addq	$176, %rdx
	addq	$96, %rdx
	movl	$1, %esi
	callq	biari_encode_symbol
	jmp	.LBB55_45
.LBB55_42:                              # %sw.bb182
	movq	-16(%rbp), %rdi
	movq	-32(%rbp), %rdx
	addq	$176, %rdx
	addq	$64, %rdx
	movl	$1, %esi
	callq	biari_encode_symbol
	movq	-16(%rbp), %rdi
	movq	-32(%rbp), %rdx
	addq	$176, %rdx
	addq	$112, %rdx
	xorl	%esi, %esi
	callq	biari_encode_symbol
	jmp	.LBB55_45
.LBB55_43:                              # %sw.bb189
	movq	-16(%rbp), %rdi
	movq	-32(%rbp), %rdx
	addq	$176, %rdx
	addq	$64, %rdx
	movl	$1, %esi
	callq	biari_encode_symbol
	movq	-16(%rbp), %rdi
	movq	-32(%rbp), %rdx
	addq	$176, %rdx
	addq	$112, %rdx
	movl	$1, %esi
	callq	biari_encode_symbol
	jmp	.LBB55_45
.LBB55_44:                              # %sw.default
	movabsq	$.L.str.2, %rdi
	movb	$0, %al
	callq	printf
	movl	$1, %edi
	callq	exit
.LBB55_45:                              # %sw.epilog
	jmp	.LBB55_91
.LBB55_46:                              # %if.else196
	cmpl	$0, -4(%rbp)
	jne	.LBB55_48
# %bb.47:                               # %if.then199
	movq	-16(%rbp), %rdi
	movq	-32(%rbp), %rdx
	addq	$352, %rdx              # imm = 0x160
	movslq	-20(%rbp), %rax
	shlq	$4, %rax
	addq	%rax, %rdx
	xorl	%esi, %esi
	callq	biari_encode_symbol
	jmp	.LBB55_90
.LBB55_48:                              # %if.else204
	cmpl	$2, -4(%rbp)
	jg	.LBB55_53
# %bb.49:                               # %if.then207
	movq	-16(%rbp), %rdi
	movq	-32(%rbp), %rdx
	addq	$352, %rdx              # imm = 0x160
	movslq	-20(%rbp), %rax
	shlq	$4, %rax
	addq	%rax, %rdx
	movl	$1, %esi
	callq	biari_encode_symbol
	movq	-16(%rbp), %rdi
	movq	-32(%rbp), %rdx
	addq	$352, %rdx              # imm = 0x160
	addq	$64, %rdx
	xorl	%esi, %esi
	callq	biari_encode_symbol
	movl	-4(%rbp), %eax
	subl	$1, %eax
	movl	%eax, -40(%rbp)
	cmpl	$0, -40(%rbp)
	je	.LBB55_51
# %bb.50:                               # %if.then217
	movq	-16(%rbp), %rdi
	movq	-32(%rbp), %rdx
	addq	$352, %rdx              # imm = 0x160
	addq	$96, %rdx
	movl	$1, %esi
	callq	biari_encode_symbol
	jmp	.LBB55_52
.LBB55_51:                              # %if.else221
	movq	-16(%rbp), %rdi
	movq	-32(%rbp), %rdx
	addq	$352, %rdx              # imm = 0x160
	addq	$96, %rdx
	xorl	%esi, %esi
	callq	biari_encode_symbol
.LBB55_52:                              # %if.end225
	jmp	.LBB55_89
.LBB55_53:                              # %if.else226
	cmpl	$10, -4(%rbp)
	jg	.LBB55_64
# %bb.54:                               # %if.then229
	movq	-16(%rbp), %rdi
	movq	-32(%rbp), %rdx
	addq	$352, %rdx              # imm = 0x160
	movslq	-20(%rbp), %rax
	shlq	$4, %rax
	addq	%rax, %rdx
	movl	$1, %esi
	callq	biari_encode_symbol
	movq	-16(%rbp), %rdi
	movq	-32(%rbp), %rdx
	addq	$352, %rdx              # imm = 0x160
	addq	$64, %rdx
	movl	$1, %esi
	callq	biari_encode_symbol
	movq	-16(%rbp), %rdi
	movq	-32(%rbp), %rdx
	addq	$352, %rdx              # imm = 0x160
	addq	$80, %rdx
	xorl	%esi, %esi
	callq	biari_encode_symbol
	movl	-4(%rbp), %eax
	subl	$3, %eax
	sarl	$2, %eax
	andl	$1, %eax
	movl	%eax, -40(%rbp)
	cmpl	$0, -40(%rbp)
	je	.LBB55_56
# %bb.55:                               # %if.then242
	movq	-16(%rbp), %rdi
	movq	-32(%rbp), %rdx
	addq	$352, %rdx              # imm = 0x160
	addq	$96, %rdx
	movl	$1, %esi
	callq	biari_encode_symbol
	jmp	.LBB55_57
.LBB55_56:                              # %if.else246
	movq	-16(%rbp), %rdi
	movq	-32(%rbp), %rdx
	addq	$352, %rdx              # imm = 0x160
	addq	$96, %rdx
	xorl	%esi, %esi
	callq	biari_encode_symbol
.LBB55_57:                              # %if.end250
	movl	-4(%rbp), %eax
	subl	$3, %eax
	sarl	$1, %eax
	andl	$1, %eax
	movl	%eax, -40(%rbp)
	cmpl	$0, -40(%rbp)
	je	.LBB55_59
# %bb.58:                               # %if.then255
	movq	-16(%rbp), %rdi
	movq	-32(%rbp), %rdx
	addq	$352, %rdx              # imm = 0x160
	addq	$96, %rdx
	movl	$1, %esi
	callq	biari_encode_symbol
	jmp	.LBB55_60
.LBB55_59:                              # %if.else259
	movq	-16(%rbp), %rdi
	movq	-32(%rbp), %rdx
	addq	$352, %rdx              # imm = 0x160
	addq	$96, %rdx
	xorl	%esi, %esi
	callq	biari_encode_symbol
.LBB55_60:                              # %if.end263
	movl	-4(%rbp), %eax
	subl	$3, %eax
	andl	$1, %eax
	movl	%eax, -40(%rbp)
	cmpl	$0, -40(%rbp)
	je	.LBB55_62
# %bb.61:                               # %if.then267
	movq	-16(%rbp), %rdi
	movq	-32(%rbp), %rdx
	addq	$352, %rdx              # imm = 0x160
	addq	$96, %rdx
	movl	$1, %esi
	callq	biari_encode_symbol
	jmp	.LBB55_63
.LBB55_62:                              # %if.else271
	movq	-16(%rbp), %rdi
	movq	-32(%rbp), %rdx
	addq	$352, %rdx              # imm = 0x160
	addq	$96, %rdx
	xorl	%esi, %esi
	callq	biari_encode_symbol
.LBB55_63:                              # %if.end275
	jmp	.LBB55_88
.LBB55_64:                              # %if.else276
	cmpl	$11, -4(%rbp)
	je	.LBB55_66
# %bb.65:                               # %lor.lhs.false
	cmpl	$22, -4(%rbp)
	jne	.LBB55_70
.LBB55_66:                              # %if.then281
	movq	-16(%rbp), %rdi
	movq	-32(%rbp), %rdx
	addq	$352, %rdx              # imm = 0x160
	movslq	-20(%rbp), %rax
	shlq	$4, %rax
	addq	%rax, %rdx
	movl	$1, %esi
	callq	biari_encode_symbol
	movq	-16(%rbp), %rdi
	movq	-32(%rbp), %rdx
	addq	$352, %rdx              # imm = 0x160
	addq	$64, %rdx
	movl	$1, %esi
	callq	biari_encode_symbol
	movq	-16(%rbp), %rdi
	movq	-32(%rbp), %rdx
	addq	$352, %rdx              # imm = 0x160
	addq	$80, %rdx
	movl	$1, %esi
	callq	biari_encode_symbol
	movq	-16(%rbp), %rdi
	movq	-32(%rbp), %rdx
	addq	$352, %rdx              # imm = 0x160
	addq	$96, %rdx
	movl	$1, %esi
	callq	biari_encode_symbol
	movq	-16(%rbp), %rdi
	movq	-32(%rbp), %rdx
	addq	$352, %rdx              # imm = 0x160
	addq	$96, %rdx
	movl	$1, %esi
	callq	biari_encode_symbol
	cmpl	$11, -4(%rbp)
	jne	.LBB55_68
# %bb.67:                               # %if.then300
	movq	-16(%rbp), %rdi
	movq	-32(%rbp), %rdx
	addq	$352, %rdx              # imm = 0x160
	addq	$96, %rdx
	xorl	%esi, %esi
	callq	biari_encode_symbol
	jmp	.LBB55_69
.LBB55_68:                              # %if.else304
	movq	-16(%rbp), %rdi
	movq	-32(%rbp), %rdx
	addq	$352, %rdx              # imm = 0x160
	addq	$96, %rdx
	movl	$1, %esi
	callq	biari_encode_symbol
.LBB55_69:                              # %if.end308
	jmp	.LBB55_87
.LBB55_70:                              # %if.else309
	cmpl	$22, -4(%rbp)
	jle	.LBB55_72
# %bb.71:                               # %if.then312
	movl	-4(%rbp), %eax
	addl	$-1, %eax
	movl	%eax, -4(%rbp)
.LBB55_72:                              # %if.end313
	movq	-16(%rbp), %rdi
	movq	-32(%rbp), %rdx
	addq	$352, %rdx              # imm = 0x160
	movslq	-20(%rbp), %rax
	shlq	$4, %rax
	addq	%rax, %rdx
	movl	$1, %esi
	callq	biari_encode_symbol
	movq	-16(%rbp), %rdi
	movq	-32(%rbp), %rdx
	addq	$352, %rdx              # imm = 0x160
	addq	$64, %rdx
	movl	$1, %esi
	callq	biari_encode_symbol
	movq	-16(%rbp), %rdi
	movq	-32(%rbp), %rdx
	addq	$352, %rdx              # imm = 0x160
	addq	$80, %rdx
	movl	$1, %esi
	callq	biari_encode_symbol
	movl	-4(%rbp), %eax
	subl	$12, %eax
	sarl	$3, %eax
	andl	$1, %eax
	movl	%eax, -40(%rbp)
	cmpl	$0, -40(%rbp)
	je	.LBB55_74
# %bb.73:                               # %if.then328
	movq	-16(%rbp), %rdi
	movq	-32(%rbp), %rdx
	addq	$352, %rdx              # imm = 0x160
	addq	$96, %rdx
	movl	$1, %esi
	callq	biari_encode_symbol
	jmp	.LBB55_75
.LBB55_74:                              # %if.else332
	movq	-16(%rbp), %rdi
	movq	-32(%rbp), %rdx
	addq	$352, %rdx              # imm = 0x160
	addq	$96, %rdx
	xorl	%esi, %esi
	callq	biari_encode_symbol
.LBB55_75:                              # %if.end336
	movl	-4(%rbp), %eax
	subl	$12, %eax
	sarl	$2, %eax
	andl	$1, %eax
	movl	%eax, -40(%rbp)
	cmpl	$0, -40(%rbp)
	je	.LBB55_77
# %bb.76:                               # %if.then341
	movq	-16(%rbp), %rdi
	movq	-32(%rbp), %rdx
	addq	$352, %rdx              # imm = 0x160
	addq	$96, %rdx
	movl	$1, %esi
	callq	biari_encode_symbol
	jmp	.LBB55_78
.LBB55_77:                              # %if.else345
	movq	-16(%rbp), %rdi
	movq	-32(%rbp), %rdx
	addq	$352, %rdx              # imm = 0x160
	addq	$96, %rdx
	xorl	%esi, %esi
	callq	biari_encode_symbol
.LBB55_78:                              # %if.end349
	movl	-4(%rbp), %eax
	subl	$12, %eax
	sarl	$1, %eax
	andl	$1, %eax
	movl	%eax, -40(%rbp)
	cmpl	$0, -40(%rbp)
	je	.LBB55_80
# %bb.79:                               # %if.then354
	movq	-16(%rbp), %rdi
	movq	-32(%rbp), %rdx
	addq	$352, %rdx              # imm = 0x160
	addq	$96, %rdx
	movl	$1, %esi
	callq	biari_encode_symbol
	jmp	.LBB55_81
.LBB55_80:                              # %if.else358
	movq	-16(%rbp), %rdi
	movq	-32(%rbp), %rdx
	addq	$352, %rdx              # imm = 0x160
	addq	$96, %rdx
	xorl	%esi, %esi
	callq	biari_encode_symbol
.LBB55_81:                              # %if.end362
	movl	-4(%rbp), %eax
	subl	$12, %eax
	andl	$1, %eax
	movl	%eax, -40(%rbp)
	cmpl	$0, -40(%rbp)
	je	.LBB55_83
# %bb.82:                               # %if.then366
	movq	-16(%rbp), %rdi
	movq	-32(%rbp), %rdx
	addq	$352, %rdx              # imm = 0x160
	addq	$96, %rdx
	movl	$1, %esi
	callq	biari_encode_symbol
	jmp	.LBB55_84
.LBB55_83:                              # %if.else370
	movq	-16(%rbp), %rdi
	movq	-32(%rbp), %rdx
	addq	$352, %rdx              # imm = 0x160
	addq	$96, %rdx
	xorl	%esi, %esi
	callq	biari_encode_symbol
.LBB55_84:                              # %if.end374
	cmpl	$22, -4(%rbp)
	jl	.LBB55_86
# %bb.85:                               # %if.then377
	movl	-4(%rbp), %eax
	addl	$1, %eax
	movl	%eax, -4(%rbp)
.LBB55_86:                              # %if.end378
	jmp	.LBB55_87
.LBB55_87:                              # %if.end379
	jmp	.LBB55_88
.LBB55_88:                              # %if.end380
	jmp	.LBB55_89
.LBB55_89:                              # %if.end381
	jmp	.LBB55_90
.LBB55_90:                              # %if.end382
	jmp	.LBB55_91
.LBB55_91:                              # %if.end383
	movl	-4(%rbp), %eax
	cmpl	-64(%rbp), %eax
	jne	.LBB55_101
# %bb.92:                               # %if.then386
	cmpl	$25, -36(%rbp)
	jne	.LBB55_94
# %bb.93:                               # %if.then389
	movq	-16(%rbp), %rdi
	movl	$1, %esi
	callq	biari_encode_symbol_final
	jmp	.LBB55_102
.LBB55_94:                              # %if.end390
	movq	-16(%rbp), %rdi
	xorl	%esi, %esi
	callq	biari_encode_symbol_final
	movl	$8, -20(%rbp)
	movl	-36(%rbp), %eax
	cltd
	movl	$12, %ecx
	idivl	%ecx
	movl	%eax, -4(%rbp)
	movq	-16(%rbp), %rdi
	movl	-4(%rbp), %eax
	movzbl	%al, %eax
	movq	-32(%rbp), %rdx
	addq	$176, %rdx
	movslq	-20(%rbp), %rcx
	shlq	$4, %rcx
	addq	%rcx, %rdx
	movswl	%ax, %esi
	callq	biari_encode_symbol
	movl	-36(%rbp), %eax
	cltd
	movl	$12, %ecx
	idivl	%ecx
	movl	%edx, -36(%rbp)
	movl	-36(%rbp), %eax
	cltd
	movl	$4, %ecx
	idivl	%ecx
	movl	%eax, -4(%rbp)
	movl	$9, -20(%rbp)
	cmpl	$0, -4(%rbp)
	jne	.LBB55_96
# %bb.95:                               # %if.then403
	movq	-16(%rbp), %rdi
	movq	-32(%rbp), %rdx
	addq	$176, %rdx
	movslq	-20(%rbp), %rax
	shlq	$4, %rax
	addq	%rax, %rdx
	xorl	%esi, %esi
	callq	biari_encode_symbol
	jmp	.LBB55_100
.LBB55_96:                              # %if.else409
	movq	-16(%rbp), %rdi
	movq	-32(%rbp), %rdx
	addq	$176, %rdx
	movslq	-20(%rbp), %rax
	shlq	$4, %rax
	addq	%rax, %rdx
	movl	$1, %esi
	callq	biari_encode_symbol
	cmpl	$1, -4(%rbp)
	jne	.LBB55_98
# %bb.97:                               # %if.then417
	movq	-16(%rbp), %rdi
	movq	-32(%rbp), %rdx
	addq	$176, %rdx
	movslq	-20(%rbp), %rax
	shlq	$4, %rax
	addq	%rax, %rdx
	xorl	%esi, %esi
	callq	biari_encode_symbol
	jmp	.LBB55_99
.LBB55_98:                              # %if.else423
	movq	-16(%rbp), %rdi
	movq	-32(%rbp), %rdx
	addq	$176, %rdx
	movslq	-20(%rbp), %rax
	shlq	$4, %rax
	addq	%rax, %rdx
	movl	$1, %esi
	callq	biari_encode_symbol
.LBB55_99:                              # %if.end429
	jmp	.LBB55_100
.LBB55_100:                             # %if.end430
	movl	-36(%rbp), %eax
	cltd
	movl	$4, %ecx
	idivl	%ecx
	movl	%edx, -36(%rbp)
	movl	$10, -20(%rbp)
	movl	-36(%rbp), %eax
	cltd
	movl	$2, %ecx
	idivl	%ecx
	movl	%eax, -4(%rbp)
	movq	-16(%rbp), %rdi
	movl	-4(%rbp), %eax
	movzbl	%al, %eax
	movq	-32(%rbp), %rdx
	addq	$176, %rdx
	movslq	-20(%rbp), %rcx
	shlq	$4, %rcx
	addq	%rcx, %rdx
	movswl	%ax, %esi
	callq	biari_encode_symbol
	movl	-36(%rbp), %eax
	cltd
	movl	$2, %ecx
	idivl	%ecx
	movl	%edx, -4(%rbp)
	movq	-16(%rbp), %rdi
	movl	-4(%rbp), %eax
	movzbl	%al, %eax
	movq	-32(%rbp), %rdx
	addq	$176, %rdx
	movslq	-20(%rbp), %rcx
	shlq	$4, %rcx
	addq	%rcx, %rdx
	movswl	%ax, %esi
	callq	biari_encode_symbol
.LBB55_101:                             # %if.end448
	jmp	.LBB55_102
.LBB55_102:                             # %if.end449
	cmpl	$1458074622, -84(%rbp)  # imm = 0x56E873FE
	jne	.LBB55_104
.LBB55_103:
	addq	$96, %rsp
	popq	%rbp
	.cfi_def_cfa %rsp, 8
	retq
.LBB55_104:                             # %func_exit
	.cfi_def_cfa %rbp, 16
	callq	detect_breach
	jmp	.LBB55_103
.Lfunc_end55:
	.size	writeMB_typeInfo_CABAC.28, .Lfunc_end55-writeMB_typeInfo_CABAC.28
	.cfi_endproc
	.section	.rodata,"a",@progbits
	.p2align	3
.LJTI55_0:
	.quad	.LBB55_37
	.quad	.LBB55_38
	.quad	.LBB55_39
	.quad	.LBB55_40
	.quad	.LBB55_41
	.quad	.LBB55_41
	.quad	.LBB55_42
	.quad	.LBB55_43
                                        # -- End function
	.text
	.globl	writeMB_skip_flagInfo_CABAC.29 # -- Begin function writeMB_skip_flagInfo_CABAC.29
	.p2align	4, 0x90
	.type	writeMB_skip_flagInfo_CABAC.29,@function
writeMB_skip_flagInfo_CABAC.29:         # @writeMB_skip_flagInfo_CABAC.29
	.cfi_startproc
# %bb.0:                                # %entry
	pushq	%rbp
	.cfi_def_cfa_offset 16
	.cfi_offset %rbp, -16
	movq	%rsp, %rbp
	.cfi_def_cfa_register %rbp
	subq	$64, %rsp
	movl	$602206454, -60(%rbp)   # imm = 0x23E4F0F6
	movq	%rdi, -32(%rbp)
	movq	%rsi, -48(%rbp)
	movq	img, %rax
	cmpl	$1, 24(%rax)
	sete	%al
	andb	$1, %al
	movzbl	%al, %eax
	movl	%eax, -64(%rbp)
	movq	img, %rax
	movq	14160(%rax), %rax
	movq	32(%rax), %rax
	movq	%rax, -56(%rbp)
	movq	img, %rax
	movq	14168(%rax), %rax
	movq	img, %rcx
	movslq	12(%rcx), %rcx
	imulq	$632, %rcx, %rcx        # imm = 0x278
	addq	%rcx, %rax
	movq	%rax, -24(%rbp)
	movq	-32(%rbp), %rax
	movl	4(%rax), %eax
	movl	%eax, -36(%rbp)
	cmpl	$0, -64(%rbp)
	je	.LBB56_14
# %bb.1:                                # %if.then
	movq	-24(%rbp), %rax
	cmpq	$0, 56(%rax)
	jne	.LBB56_3
# %bb.2:                                # %if.then3
	movl	$0, -12(%rbp)
	jmp	.LBB56_4
.LBB56_3:                               # %if.else
	xorl	%eax, %eax
	movq	-24(%rbp), %rcx
	movq	56(%rcx), %rcx
	movl	624(%rcx), %ecx
	cmpl	$0, %ecx
	movl	$1, %ecx
	cmovel	%eax, %ecx
	movl	%ecx, -12(%rbp)
.LBB56_4:                               # %if.end
	movq	-24(%rbp), %rax
	cmpq	$0, 64(%rax)
	jne	.LBB56_6
# %bb.5:                                # %if.then9
	movl	$0, -8(%rbp)
	jmp	.LBB56_7
.LBB56_6:                               # %if.else10
	xorl	%eax, %eax
	movq	-24(%rbp), %rcx
	movq	64(%rcx), %rcx
	movl	624(%rcx), %ecx
	cmpl	$0, %ecx
	movl	$1, %ecx
	cmovel	%eax, %ecx
	movl	%ecx, -8(%rbp)
.LBB56_7:                               # %if.end16
	movl	-8(%rbp), %eax
	addl	$7, %eax
	addl	-12(%rbp), %eax
	movl	%eax, -4(%rbp)
	movq	-32(%rbp), %rax
	cmpl	$0, 4(%rax)
	jne	.LBB56_10
# %bb.8:                                # %land.lhs.true
	movq	-32(%rbp), %rax
	cmpl	$0, 8(%rax)
	jne	.LBB56_10
# %bb.9:                                # %if.then23
	movq	-48(%rbp), %rdi
	movq	-56(%rbp), %rdx
	addq	$352, %rdx              # imm = 0x160
	movslq	-4(%rbp), %rax
	shlq	$4, %rax
	addq	%rax, %rdx
	movl	$1, %esi
	callq	biari_encode_symbol
	jmp	.LBB56_11
.LBB56_10:                              # %if.else27
	movq	-48(%rbp), %rdi
	movq	-56(%rbp), %rdx
	addq	$352, %rdx              # imm = 0x160
	movslq	-4(%rbp), %rax
	shlq	$4, %rax
	addq	%rax, %rdx
	xorl	%esi, %esi
	callq	biari_encode_symbol
.LBB56_11:                              # %if.end32
	xorl	%eax, %eax
	movq	-32(%rbp), %rcx
	cmpl	$0, 4(%rcx)
	jne	.LBB56_13
# %bb.12:                               # %land.rhs
	movq	-32(%rbp), %rax
	cmpl	$0, 8(%rax)
	sete	%al
.LBB56_13:                              # %land.end
	xorl	%ecx, %ecx
	testb	$1, %al
	movl	$1, %eax
	cmovnel	%ecx, %eax
	movq	-24(%rbp), %rcx
	movl	%eax, 624(%rcx)
	jmp	.LBB56_24
.LBB56_14:                              # %if.else41
	movq	-24(%rbp), %rax
	cmpq	$0, 56(%rax)
	jne	.LBB56_16
# %bb.15:                               # %if.then45
	movl	$0, -12(%rbp)
	jmp	.LBB56_17
.LBB56_16:                              # %if.else46
	xorl	%eax, %eax
	movq	-24(%rbp), %rcx
	movq	56(%rcx), %rcx
	movl	624(%rcx), %ecx
	cmpl	$0, %ecx
	movl	$1, %ecx
	cmovnel	%ecx, %eax
	movl	%eax, -12(%rbp)
.LBB56_17:                              # %if.end52
	movq	-24(%rbp), %rax
	cmpq	$0, 64(%rax)
	jne	.LBB56_19
# %bb.18:                               # %if.then56
	movl	$0, -8(%rbp)
	jmp	.LBB56_20
.LBB56_19:                              # %if.else57
	xorl	%eax, %eax
	movq	-24(%rbp), %rcx
	movq	64(%rcx), %rcx
	movl	624(%rcx), %ecx
	cmpl	$0, %ecx
	movl	$1, %ecx
	cmovnel	%ecx, %eax
	movl	%eax, -8(%rbp)
.LBB56_20:                              # %if.end63
	movl	-8(%rbp), %eax
	addl	-12(%rbp), %eax
	movl	%eax, -4(%rbp)
	cmpl	$0, -36(%rbp)
	jne	.LBB56_22
