	.text
	.file	"cabac.c"
	.globl	cabac_new_slice         # -- Begin function cabac_new_slice
	.p2align	4, 0x90
	.type	cabac_new_slice,@function
cabac_new_slice:                        # @cabac_new_slice
	.cfi_startproc
# %bb.0:                                # %entry
	pushq	%rbp
	.cfi_def_cfa_offset 16
	.cfi_offset %rbp, -16
	movq	%rsp, %rbp
	.cfi_def_cfa_register %rbp
	movl	$0, last_dquant
	popq	%rbp
	.cfi_def_cfa %rsp, 8
	retq
.Lfunc_end0:
	.size	cabac_new_slice, .Lfunc_end0-cabac_new_slice
	.cfi_endproc
                                        # -- End function
	.globl	CheckAvailabilityOfNeighborsCABAC # -- Begin function CheckAvailabilityOfNeighborsCABAC
	.p2align	4, 0x90
	.type	CheckAvailabilityOfNeighborsCABAC,@function
CheckAvailabilityOfNeighborsCABAC:      # @CheckAvailabilityOfNeighborsCABAC
	.cfi_startproc
# %bb.0:                                # %rand_bb
	pushq	%rbp
	.cfi_def_cfa_offset 16
	.cfi_offset %rbp, -16
	movq	%rsp, %rbp
	.cfi_def_cfa_register %rbp
	callq	get_urand
	cmpl	$0, %eax
	jne	.LBB1_5
# %bb.1:                                # %func_CheckAvailabilityOfNeighborsCABAC.1
	callq	CheckAvailabilityOfNeighborsCABAC.1
	popq	%rbp
	.cfi_def_cfa %rsp, 8
	retq
.LBB1_2:                                # %func_CheckAvailabilityOfNeighborsCABAC.34
	.cfi_def_cfa %rbp, 16
	callq	CheckAvailabilityOfNeighborsCABAC.34
	popq	%rbp
	.cfi_def_cfa %rsp, 8
	retq
.LBB1_3:                                # %func_CheckAvailabilityOfNeighborsCABAC.45
	.cfi_def_cfa %rbp, 16
	callq	CheckAvailabilityOfNeighborsCABAC.45
	popq	%rbp
	.cfi_def_cfa %rsp, 8
	retq
.LBB1_4:                                # %func_CheckAvailabilityOfNeighborsCABAC.50
	.cfi_def_cfa %rbp, 16
	callq	CheckAvailabilityOfNeighborsCABAC.50
	popq	%rbp
	.cfi_def_cfa %rsp, 8
	retq
.LBB1_5:                                # %ctrl0
	.cfi_def_cfa %rbp, 16
	cmpl	$1, %eax
	je	.LBB1_2
# %bb.6:                                # %ctrl1
	cmpl	$2, %eax
	je	.LBB1_3
	jmp	.LBB1_4
.Lfunc_end1:
	.size	CheckAvailabilityOfNeighborsCABAC, .Lfunc_end1-CheckAvailabilityOfNeighborsCABAC
	.cfi_endproc
                                        # -- End function
	.globl	create_contexts_MotionInfo # -- Begin function create_contexts_MotionInfo
	.p2align	4, 0x90
	.type	create_contexts_MotionInfo,@function
create_contexts_MotionInfo:             # @create_contexts_MotionInfo
	.cfi_startproc
# %bb.0:                                # %entry
	pushq	%rbp
	.cfi_def_cfa_offset 16
	.cfi_offset %rbp, -16
	movq	%rsp, %rbp
	.cfi_def_cfa_register %rbp
	subq	$16, %rsp
	movl	$1, %edi
	movl	$1504, %esi             # imm = 0x5E0
	callq	calloc
	movq	%rax, -8(%rbp)
	cmpq	$0, -8(%rbp)
	jne	.LBB2_2
# %bb.1:                                # %if.then
	movabsq	$.L.str, %rdi
	callq	no_mem_exit
.LBB2_2:                                # %if.end
	movq	-8(%rbp), %rax
	addq	$16, %rsp
	popq	%rbp
	.cfi_def_cfa %rsp, 8
	retq
.Lfunc_end2:
	.size	create_contexts_MotionInfo, .Lfunc_end2-create_contexts_MotionInfo
	.cfi_endproc
                                        # -- End function
	.globl	create_contexts_TextureInfo # -- Begin function create_contexts_TextureInfo
	.p2align	4, 0x90
	.type	create_contexts_TextureInfo,@function
create_contexts_TextureInfo:            # @create_contexts_TextureInfo
	.cfi_startproc
# %bb.0:                                # %entry
	pushq	%rbp
	.cfi_def_cfa_offset 16
	.cfi_offset %rbp, -16
	movq	%rsp, %rbp
	.cfi_def_cfa_register %rbp
	subq	$16, %rsp
	movl	$1, %edi
	movl	$12128, %esi            # imm = 0x2F60
	callq	calloc
	movq	%rax, -8(%rbp)
	cmpq	$0, -8(%rbp)
	jne	.LBB3_2
# %bb.1:                                # %if.then
	movabsq	$.L.str.1, %rdi
	callq	no_mem_exit
.LBB3_2:                                # %if.end
	movq	-8(%rbp), %rax
	addq	$16, %rsp
	popq	%rbp
	.cfi_def_cfa %rsp, 8
	retq
.Lfunc_end3:
	.size	create_contexts_TextureInfo, .Lfunc_end3-create_contexts_TextureInfo
	.cfi_endproc
                                        # -- End function
	.globl	delete_contexts_MotionInfo # -- Begin function delete_contexts_MotionInfo
	.p2align	4, 0x90
	.type	delete_contexts_MotionInfo,@function
delete_contexts_MotionInfo:             # @delete_contexts_MotionInfo
	.cfi_startproc
# %bb.0:                                # %entry
	pushq	%rbp
	.cfi_def_cfa_offset 16
	.cfi_offset %rbp, -16
	movq	%rsp, %rbp
	.cfi_def_cfa_register %rbp
	subq	$16, %rsp
	movq	%rdi, -8(%rbp)
	cmpq	$0, -8(%rbp)
	jne	.LBB4_2
# %bb.1:                                # %if.then
	jmp	.LBB4_3
.LBB4_2:                                # %if.end
	movq	-8(%rbp), %rdi
	callq	free
.LBB4_3:                                # %return
	addq	$16, %rsp
	popq	%rbp
	.cfi_def_cfa %rsp, 8
	retq
.Lfunc_end4:
	.size	delete_contexts_MotionInfo, .Lfunc_end4-delete_contexts_MotionInfo
	.cfi_endproc
                                        # -- End function
	.globl	delete_contexts_TextureInfo # -- Begin function delete_contexts_TextureInfo
	.p2align	4, 0x90
	.type	delete_contexts_TextureInfo,@function
delete_contexts_TextureInfo:            # @delete_contexts_TextureInfo
	.cfi_startproc
# %bb.0:                                # %entry
	pushq	%rbp
	.cfi_def_cfa_offset 16
	.cfi_offset %rbp, -16
	movq	%rsp, %rbp
	.cfi_def_cfa_register %rbp
	subq	$16, %rsp
	movq	%rdi, -8(%rbp)
	cmpq	$0, -8(%rbp)
	jne	.LBB5_2
# %bb.1:                                # %if.then
	jmp	.LBB5_3
.LBB5_2:                                # %if.end
	movq	-8(%rbp), %rdi
	callq	free
.LBB5_3:                                # %return
	addq	$16, %rsp
	popq	%rbp
	.cfi_def_cfa %rsp, 8
	retq
.Lfunc_end5:
	.size	delete_contexts_TextureInfo, .Lfunc_end5-delete_contexts_TextureInfo
	.cfi_endproc
                                        # -- End function
	.globl	writeSyntaxElement_CABAC # -- Begin function writeSyntaxElement_CABAC
	.p2align	4, 0x90
	.type	writeSyntaxElement_CABAC,@function
writeSyntaxElement_CABAC:               # @writeSyntaxElement_CABAC
	.cfi_startproc
# %bb.0:                                # %rand_bb
	pushq	%rbp
	.cfi_def_cfa_offset 16
	.cfi_offset %rbp, -16
	movq	%rsp, %rbp
	.cfi_def_cfa_register %rbp
	pushq	%r14
	pushq	%rbx
	.cfi_offset %rbx, -32
	.cfi_offset %r14, -24
	movq	%rsi, %r14
	movq	%rdi, %rbx
	callq	get_urand
	cmpl	$0, %eax
	jne	.LBB6_5
# %bb.1:                                # %func_writeSyntaxElement_CABAC.31
	movq	%rbx, %rdi
	movq	%r14, %rsi
	callq	writeSyntaxElement_CABAC.31
	popq	%rbx
	popq	%r14
	popq	%rbp
	.cfi_def_cfa %rsp, 8
	retq
.LBB6_2:                                # %func_writeSyntaxElement_CABAC.68
	.cfi_def_cfa %rbp, 16
	movq	%rbx, %rdi
	movq	%r14, %rsi
	callq	writeSyntaxElement_CABAC.68
	popq	%rbx
	popq	%r14
	popq	%rbp
	.cfi_def_cfa %rsp, 8
	retq
.LBB6_3:                                # %func_writeSyntaxElement_CABAC.79
	.cfi_def_cfa %rbp, 16
	movq	%rbx, %rdi
	movq	%r14, %rsi
	callq	writeSyntaxElement_CABAC.79
	popq	%rbx
	popq	%r14
	popq	%rbp
	.cfi_def_cfa %rsp, 8
	retq
.LBB6_4:                                # %func_writeSyntaxElement_CABAC.83
	.cfi_def_cfa %rbp, 16
	movq	%rbx, %rdi
	movq	%r14, %rsi
	callq	writeSyntaxElement_CABAC.83
	popq	%rbx
	popq	%r14
	popq	%rbp
	.cfi_def_cfa %rsp, 8
	retq
.LBB6_5:                                # %ctrl0
	.cfi_def_cfa %rbp, 16
	cmpl	$1, %eax
	je	.LBB6_2
# %bb.6:                                # %ctrl1
	cmpl	$2, %eax
	je	.LBB6_3
	jmp	.LBB6_4
.Lfunc_end6:
	.size	writeSyntaxElement_CABAC, .Lfunc_end6-writeSyntaxElement_CABAC
	.cfi_endproc
                                        # -- End function
	.globl	writeFieldModeInfo_CABAC # -- Begin function writeFieldModeInfo_CABAC
	.p2align	4, 0x90
	.type	writeFieldModeInfo_CABAC,@function
writeFieldModeInfo_CABAC:               # @writeFieldModeInfo_CABAC
	.cfi_startproc
# %bb.0:                                # %rand_bb
	pushq	%rbp
	.cfi_def_cfa_offset 16
	.cfi_offset %rbp, -16
	movq	%rsp, %rbp
	.cfi_def_cfa_register %rbp
	pushq	%r14
	pushq	%rbx
	.cfi_offset %rbx, -32
	.cfi_offset %r14, -24
	movq	%rsi, %r14
	movq	%rdi, %rbx
	callq	get_urand
	cmpl	$0, %eax
	jne	.LBB7_5
# %bb.1:                                # %func_writeFieldModeInfo_CABAC.17
	movq	%rbx, %rdi
	movq	%r14, %rsi
	callq	writeFieldModeInfo_CABAC.17
	popq	%rbx
	popq	%r14
	popq	%rbp
	.cfi_def_cfa %rsp, 8
	retq
.LBB7_2:                                # %func_writeFieldModeInfo_CABAC.19
	.cfi_def_cfa %rbp, 16
	movq	%rbx, %rdi
	movq	%r14, %rsi
	callq	writeFieldModeInfo_CABAC.19
	popq	%rbx
	popq	%r14
	popq	%rbp
	.cfi_def_cfa %rsp, 8
	retq
.LBB7_3:                                # %func_writeFieldModeInfo_CABAC.64
	.cfi_def_cfa %rbp, 16
	movq	%rbx, %rdi
	movq	%r14, %rsi
	callq	writeFieldModeInfo_CABAC.64
	popq	%rbx
	popq	%r14
	popq	%rbp
	.cfi_def_cfa %rsp, 8
	retq
.LBB7_4:                                # %func_writeFieldModeInfo_CABAC.85
	.cfi_def_cfa %rbp, 16
	movq	%rbx, %rdi
	movq	%r14, %rsi
	callq	writeFieldModeInfo_CABAC.85
	popq	%rbx
	popq	%r14
	popq	%rbp
	.cfi_def_cfa %rsp, 8
	retq
.LBB7_5:                                # %ctrl0
	.cfi_def_cfa %rbp, 16
	cmpl	$1, %eax
	je	.LBB7_2
# %bb.6:                                # %ctrl1
	cmpl	$2, %eax
	je	.LBB7_3
	jmp	.LBB7_4
.Lfunc_end7:
	.size	writeFieldModeInfo_CABAC, .Lfunc_end7-writeFieldModeInfo_CABAC
	.cfi_endproc
                                        # -- End function
	.globl	writeMB_skip_flagInfo_CABAC # -- Begin function writeMB_skip_flagInfo_CABAC
	.p2align	4, 0x90
	.type	writeMB_skip_flagInfo_CABAC,@function
writeMB_skip_flagInfo_CABAC:            # @writeMB_skip_flagInfo_CABAC
	.cfi_startproc
# %bb.0:                                # %rand_bb
	pushq	%rbp
	.cfi_def_cfa_offset 16
	.cfi_offset %rbp, -16
	movq	%rsp, %rbp
	.cfi_def_cfa_register %rbp
	pushq	%r14
	pushq	%rbx
	.cfi_offset %rbx, -32
	.cfi_offset %r14, -24
	movq	%rsi, %r14
	movq	%rdi, %rbx
	callq	get_urand
	cmpl	$0, %eax
	jne	.LBB8_5
# %bb.1:                                # %func_writeMB_skip_flagInfo_CABAC.7
	movq	%rbx, %rdi
	movq	%r14, %rsi
	callq	writeMB_skip_flagInfo_CABAC.7
	popq	%rbx
	popq	%r14
	popq	%rbp
	.cfi_def_cfa %rsp, 8
	retq
.LBB8_2:                                # %func_writeMB_skip_flagInfo_CABAC.8
	.cfi_def_cfa %rbp, 16
	movq	%rbx, %rdi
	movq	%r14, %rsi
	callq	writeMB_skip_flagInfo_CABAC.8
	popq	%rbx
	popq	%r14
	popq	%rbp
	.cfi_def_cfa %rsp, 8
	retq
.LBB8_3:                                # %func_writeMB_skip_flagInfo_CABAC.18
	.cfi_def_cfa %rbp, 16
	movq	%rbx, %rdi
	movq	%r14, %rsi
	callq	writeMB_skip_flagInfo_CABAC.18
	popq	%rbx
	popq	%r14
	popq	%rbp
	.cfi_def_cfa %rsp, 8
	retq
.LBB8_4:                                # %func_writeMB_skip_flagInfo_CABAC.27
	.cfi_def_cfa %rbp, 16
	movq	%rbx, %rdi
	movq	%r14, %rsi
	callq	writeMB_skip_flagInfo_CABAC.27
	popq	%rbx
	popq	%r14
	popq	%rbp
	.cfi_def_cfa %rsp, 8
	retq
.LBB8_5:                                # %ctrl0
	.cfi_def_cfa %rbp, 16
	cmpl	$1, %eax
	je	.LBB8_2
# %bb.6:                                # %ctrl1
	cmpl	$2, %eax
	je	.LBB8_3
	jmp	.LBB8_4
.Lfunc_end8:
	.size	writeMB_skip_flagInfo_CABAC, .Lfunc_end8-writeMB_skip_flagInfo_CABAC
	.cfi_endproc
                                        # -- End function
	.globl	writeMB_transform_size_CABAC # -- Begin function writeMB_transform_size_CABAC
	.p2align	4, 0x90
	.type	writeMB_transform_size_CABAC,@function
writeMB_transform_size_CABAC:           # @writeMB_transform_size_CABAC
	.cfi_startproc
# %bb.0:                                # %rand_bb
	pushq	%rbp
	.cfi_def_cfa_offset 16
	.cfi_offset %rbp, -16
	movq	%rsp, %rbp
	.cfi_def_cfa_register %rbp
	pushq	%r14
	pushq	%rbx
	.cfi_offset %rbx, -32
	.cfi_offset %r14, -24
	movq	%rsi, %r14
	movq	%rdi, %rbx
	callq	get_urand
	cmpl	$0, %eax
	jne	.LBB9_5
# %bb.1:                                # %func_writeMB_transform_size_CABAC.41
	movq	%rbx, %rdi
	movq	%r14, %rsi
	callq	writeMB_transform_size_CABAC.41
	popq	%rbx
	popq	%r14
	popq	%rbp
	.cfi_def_cfa %rsp, 8
	retq
.LBB9_2:                                # %func_writeMB_transform_size_CABAC.54
	.cfi_def_cfa %rbp, 16
	movq	%rbx, %rdi
	movq	%r14, %rsi
	callq	writeMB_transform_size_CABAC.54
	popq	%rbx
	popq	%r14
	popq	%rbp
	.cfi_def_cfa %rsp, 8
	retq
.LBB9_3:                                # %func_writeMB_transform_size_CABAC.63
	.cfi_def_cfa %rbp, 16
	movq	%rbx, %rdi
	movq	%r14, %rsi
	callq	writeMB_transform_size_CABAC.63
	popq	%rbx
	popq	%r14
	popq	%rbp
	.cfi_def_cfa %rsp, 8
	retq
.LBB9_4:                                # %func_writeMB_transform_size_CABAC.75
	.cfi_def_cfa %rbp, 16
	movq	%rbx, %rdi
	movq	%r14, %rsi
	callq	writeMB_transform_size_CABAC.75
	popq	%rbx
	popq	%r14
	popq	%rbp
	.cfi_def_cfa %rsp, 8
	retq
.LBB9_5:                                # %ctrl0
	.cfi_def_cfa %rbp, 16
	cmpl	$1, %eax
	je	.LBB9_2
# %bb.6:                                # %ctrl1
	cmpl	$2, %eax
	je	.LBB9_3
	jmp	.LBB9_4
.Lfunc_end9:
	.size	writeMB_transform_size_CABAC, .Lfunc_end9-writeMB_transform_size_CABAC
	.cfi_endproc
                                        # -- End function
	.globl	writeMB_typeInfo_CABAC  # -- Begin function writeMB_typeInfo_CABAC
	.p2align	4, 0x90
	.type	writeMB_typeInfo_CABAC,@function
writeMB_typeInfo_CABAC:                 # @writeMB_typeInfo_CABAC
	.cfi_startproc
# %bb.0:                                # %rand_bb
	pushq	%rbp
	.cfi_def_cfa_offset 16
	.cfi_offset %rbp, -16
	movq	%rsp, %rbp
	.cfi_def_cfa_register %rbp
	pushq	%r14
	pushq	%rbx
	.cfi_offset %rbx, -32
	.cfi_offset %r14, -24
	movq	%rsi, %r14
	movq	%rdi, %rbx
	callq	get_urand
	cmpl	$0, %eax
	jne	.LBB10_5
# %bb.1:                                # %func_writeMB_typeInfo_CABAC.2
	movq	%rbx, %rdi
	movq	%r14, %rsi
	callq	writeMB_typeInfo_CABAC.2
	popq	%rbx
	popq	%r14
	popq	%rbp
	.cfi_def_cfa %rsp, 8
	retq
.LBB10_2:                               # %func_writeMB_typeInfo_CABAC.25
	.cfi_def_cfa %rbp, 16
	movq	%rbx, %rdi
	movq	%r14, %rsi
	callq	writeMB_typeInfo_CABAC.25
	popq	%rbx
	popq	%r14
	popq	%rbp
	.cfi_def_cfa %rsp, 8
	retq
.LBB10_3:                               # %func_writeMB_typeInfo_CABAC.71
	.cfi_def_cfa %rbp, 16
	movq	%rbx, %rdi
	movq	%r14, %rsi
	callq	writeMB_typeInfo_CABAC.71
	popq	%rbx
	popq	%r14
	popq	%rbp
	.cfi_def_cfa %rsp, 8
	retq
.LBB10_4:                               # %func_writeMB_typeInfo_CABAC.80
	.cfi_def_cfa %rbp, 16
	movq	%rbx, %rdi
	movq	%r14, %rsi
	callq	writeMB_typeInfo_CABAC.80
	popq	%rbx
	popq	%r14
	popq	%rbp
	.cfi_def_cfa %rsp, 8
	retq
.LBB10_5:                               # %ctrl0
	.cfi_def_cfa %rbp, 16
	cmpl	$1, %eax
	je	.LBB10_2
# %bb.6:                                # %ctrl1
	cmpl	$2, %eax
	je	.LBB10_3
	jmp	.LBB10_4
.Lfunc_end10:
	.size	writeMB_typeInfo_CABAC, .Lfunc_end10-writeMB_typeInfo_CABAC
	.cfi_endproc
                                        # -- End function
	.globl	writeB8_typeInfo_CABAC  # -- Begin function writeB8_typeInfo_CABAC
	.p2align	4, 0x90
	.type	writeB8_typeInfo_CABAC,@function
writeB8_typeInfo_CABAC:                 # @writeB8_typeInfo_CABAC
	.cfi_startproc
# %bb.0:                                # %rand_bb
	pushq	%rbp
	.cfi_def_cfa_offset 16
	.cfi_offset %rbp, -16
	movq	%rsp, %rbp
	.cfi_def_cfa_register %rbp
	pushq	%r14
	pushq	%rbx
	.cfi_offset %rbx, -32
	.cfi_offset %r14, -24
	movq	%rsi, %r14
	movq	%rdi, %rbx
	callq	get_urand
	cmpl	$0, %eax
	jne	.LBB11_5
# %bb.1:                                # %func_writeB8_typeInfo_CABAC.5
	movq	%rbx, %rdi
	movq	%r14, %rsi
	callq	writeB8_typeInfo_CABAC.5
	popq	%rbx
	popq	%r14
	popq	%rbp
	.cfi_def_cfa %rsp, 8
	retq
.LBB11_2:                               # %func_writeB8_typeInfo_CABAC.32
	.cfi_def_cfa %rbp, 16
	movq	%rbx, %rdi
	movq	%r14, %rsi
	callq	writeB8_typeInfo_CABAC.32
	popq	%rbx
	popq	%r14
	popq	%rbp
	.cfi_def_cfa %rsp, 8
	retq
.LBB11_3:                               # %func_writeB8_typeInfo_CABAC.67
	.cfi_def_cfa %rbp, 16
	movq	%rbx, %rdi
	movq	%r14, %rsi
	callq	writeB8_typeInfo_CABAC.67
	popq	%rbx
	popq	%r14
	popq	%rbp
	.cfi_def_cfa %rsp, 8
	retq
.LBB11_4:                               # %func_writeB8_typeInfo_CABAC.82
	.cfi_def_cfa %rbp, 16
	movq	%rbx, %rdi
	movq	%r14, %rsi
	callq	writeB8_typeInfo_CABAC.82
	popq	%rbx
	popq	%r14
	popq	%rbp
	.cfi_def_cfa %rsp, 8
	retq
.LBB11_5:                               # %ctrl0
	.cfi_def_cfa %rbp, 16
	cmpl	$1, %eax
	je	.LBB11_2
# %bb.6:                                # %ctrl1
	cmpl	$2, %eax
	je	.LBB11_3
	jmp	.LBB11_4
.Lfunc_end11:
	.size	writeB8_typeInfo_CABAC, .Lfunc_end11-writeB8_typeInfo_CABAC
	.cfi_endproc
                                        # -- End function
	.globl	writeIntraPredMode_CABAC # -- Begin function writeIntraPredMode_CABAC
	.p2align	4, 0x90
	.type	writeIntraPredMode_CABAC,@function
writeIntraPredMode_CABAC:               # @writeIntraPredMode_CABAC
	.cfi_startproc
# %bb.0:                                # %rand_bb
	pushq	%rbp
	.cfi_def_cfa_offset 16
	.cfi_offset %rbp, -16
	movq	%rsp, %rbp
	.cfi_def_cfa_register %rbp
	pushq	%r14
	pushq	%rbx
	.cfi_offset %rbx, -32
	.cfi_offset %r14, -24
	movq	%rsi, %r14
	movq	%rdi, %rbx
	callq	get_urand
	cmpl	$0, %eax
	jne	.LBB12_5
# %bb.1:                                # %func_writeIntraPredMode_CABAC.43
	movq	%rbx, %rdi
	movq	%r14, %rsi
	callq	writeIntraPredMode_CABAC.43
	popq	%rbx
	popq	%r14
	popq	%rbp
	.cfi_def_cfa %rsp, 8
	retq
.LBB12_2:                               # %func_writeIntraPredMode_CABAC.48
	.cfi_def_cfa %rbp, 16
	movq	%rbx, %rdi
	movq	%r14, %rsi
	callq	writeIntraPredMode_CABAC.48
	popq	%rbx
	popq	%r14
	popq	%rbp
	.cfi_def_cfa %rsp, 8
	retq
.LBB12_3:                               # %func_writeIntraPredMode_CABAC.51
	.cfi_def_cfa %rbp, 16
	movq	%rbx, %rdi
	movq	%r14, %rsi
	callq	writeIntraPredMode_CABAC.51
	popq	%rbx
	popq	%r14
	popq	%rbp
	.cfi_def_cfa %rsp, 8
	retq
.LBB12_4:                               # %func_writeIntraPredMode_CABAC.72
	.cfi_def_cfa %rbp, 16
	movq	%rbx, %rdi
	movq	%r14, %rsi
	callq	writeIntraPredMode_CABAC.72
	popq	%rbx
	popq	%r14
	popq	%rbp
	.cfi_def_cfa %rsp, 8
	retq
.LBB12_5:                               # %ctrl0
	.cfi_def_cfa %rbp, 16
	cmpl	$1, %eax
	je	.LBB12_2
# %bb.6:                                # %ctrl1
	cmpl	$2, %eax
	je	.LBB12_3
	jmp	.LBB12_4
.Lfunc_end12:
	.size	writeIntraPredMode_CABAC, .Lfunc_end12-writeIntraPredMode_CABAC
	.cfi_endproc
                                        # -- End function
	.globl	writeRefFrame_CABAC     # -- Begin function writeRefFrame_CABAC
	.p2align	4, 0x90
	.type	writeRefFrame_CABAC,@function
writeRefFrame_CABAC:                    # @writeRefFrame_CABAC
	.cfi_startproc
# %bb.0:                                # %rand_bb
	pushq	%rbp
	.cfi_def_cfa_offset 16
	.cfi_offset %rbp, -16
	movq	%rsp, %rbp
	.cfi_def_cfa_register %rbp
	pushq	%r14
	pushq	%rbx
	.cfi_offset %rbx, -32
	.cfi_offset %r14, -24
	movq	%rsi, %r14
	movq	%rdi, %rbx
	callq	get_urand
	cmpl	$0, %eax
	jne	.LBB13_5
# %bb.1:                                # %func_writeRefFrame_CABAC.10
	movq	%rbx, %rdi
	movq	%r14, %rsi
	callq	writeRefFrame_CABAC.10
	popq	%rbx
	popq	%r14
	popq	%rbp
	.cfi_def_cfa %rsp, 8
	retq
.LBB13_2:                               # %func_writeRefFrame_CABAC.15
	.cfi_def_cfa %rbp, 16
	movq	%rbx, %rdi
	movq	%r14, %rsi
	callq	writeRefFrame_CABAC.15
	popq	%rbx
	popq	%r14
	popq	%rbp
	.cfi_def_cfa %rsp, 8
	retq
.LBB13_3:                               # %func_writeRefFrame_CABAC.26
	.cfi_def_cfa %rbp, 16
	movq	%rbx, %rdi
	movq	%r14, %rsi
	callq	writeRefFrame_CABAC.26
	popq	%rbx
	popq	%r14
	popq	%rbp
	.cfi_def_cfa %rsp, 8
	retq
.LBB13_4:                               # %func_writeRefFrame_CABAC.37
	.cfi_def_cfa %rbp, 16
	movq	%rbx, %rdi
	movq	%r14, %rsi
	callq	writeRefFrame_CABAC.37
	popq	%rbx
	popq	%r14
	popq	%rbp
	.cfi_def_cfa %rsp, 8
	retq
.LBB13_5:                               # %ctrl0
	.cfi_def_cfa %rbp, 16
	cmpl	$1, %eax
	je	.LBB13_2
# %bb.6:                                # %ctrl1
	cmpl	$2, %eax
	je	.LBB13_3
	jmp	.LBB13_4
.Lfunc_end13:
	.size	writeRefFrame_CABAC, .Lfunc_end13-writeRefFrame_CABAC
	.cfi_endproc
                                        # -- End function
	.globl	unary_bin_encode        # -- Begin function unary_bin_encode
	.p2align	4, 0x90
	.type	unary_bin_encode,@function
unary_bin_encode:                       # @unary_bin_encode
	.cfi_startproc
# %bb.0:                                # %rand_bb
	pushq	%rbp
	.cfi_def_cfa_offset 16
	.cfi_offset %rbp, -16
	movq	%rsp, %rbp
	.cfi_def_cfa_register %rbp
	pushq	%r15
	pushq	%r14
	pushq	%r12
	pushq	%rbx
	.cfi_offset %rbx, -48
	.cfi_offset %r12, -40
	.cfi_offset %r14, -32
	.cfi_offset %r15, -24
	movl	%ecx, %r14d
	movq	%rdx, %r15
	movl	%esi, %r12d
	movq	%rdi, %rbx
	callq	get_urand
	cmpl	$0, %eax
	jne	.LBB14_5
# %bb.1:                                # %func_unary_bin_encode.22
	movq	%rbx, %rdi
	movl	%r12d, %esi
	movq	%r15, %rdx
	movl	%r14d, %ecx
	callq	unary_bin_encode.22
	popq	%rbx
	popq	%r12
	popq	%r14
	popq	%r15
	popq	%rbp
	.cfi_def_cfa %rsp, 8
	retq
.LBB14_2:                               # %func_unary_bin_encode.46
	.cfi_def_cfa %rbp, 16
	movq	%rbx, %rdi
	movl	%r12d, %esi
	movq	%r15, %rdx
	movl	%r14d, %ecx
	callq	unary_bin_encode.46
	popq	%rbx
	popq	%r12
	popq	%r14
	popq	%r15
	popq	%rbp
	.cfi_def_cfa %rsp, 8
	retq
.LBB14_3:                               # %func_unary_bin_encode.57
	.cfi_def_cfa %rbp, 16
	movq	%rbx, %rdi
	movl	%r12d, %esi
	movq	%r15, %rdx
	movl	%r14d, %ecx
	callq	unary_bin_encode.57
	popq	%rbx
	popq	%r12
	popq	%r14
	popq	%r15
	popq	%rbp
	.cfi_def_cfa %rsp, 8
	retq
.LBB14_4:                               # %func_unary_bin_encode.58
	.cfi_def_cfa %rbp, 16
	movq	%rbx, %rdi
	movl	%r12d, %esi
	movq	%r15, %rdx
	movl	%r14d, %ecx
	callq	unary_bin_encode.58
	popq	%rbx
	popq	%r12
	popq	%r14
	popq	%r15
	popq	%rbp
	.cfi_def_cfa %rsp, 8
	retq
.LBB14_5:                               # %ctrl0
	.cfi_def_cfa %rbp, 16
	cmpl	$1, %eax
	je	.LBB14_2
# %bb.6:                                # %ctrl1
	cmpl	$2, %eax
	je	.LBB14_3
	jmp	.LBB14_4
.Lfunc_end14:
	.size	unary_bin_encode, .Lfunc_end14-unary_bin_encode
	.cfi_endproc
                                        # -- End function
	.globl	writeDquant_CABAC       # -- Begin function writeDquant_CABAC
	.p2align	4, 0x90
	.type	writeDquant_CABAC,@function
writeDquant_CABAC:                      # @writeDquant_CABAC
	.cfi_startproc
# %bb.0:                                # %rand_bb
	pushq	%rbp
	.cfi_def_cfa_offset 16
	.cfi_offset %rbp, -16
	movq	%rsp, %rbp
	.cfi_def_cfa_register %rbp
	pushq	%r14
	pushq	%rbx
	.cfi_offset %rbx, -32
	.cfi_offset %r14, -24
	movq	%rsi, %r14
	movq	%rdi, %rbx
	callq	get_urand
	cmpl	$0, %eax
	jne	.LBB15_5
# %bb.1:                                # %func_writeDquant_CABAC.20
	movq	%rbx, %rdi
	movq	%r14, %rsi
	callq	writeDquant_CABAC.20
	popq	%rbx
	popq	%r14
	popq	%rbp
	.cfi_def_cfa %rsp, 8
	retq
.LBB15_2:                               # %func_writeDquant_CABAC.28
	.cfi_def_cfa %rbp, 16
	movq	%rbx, %rdi
	movq	%r14, %rsi
	callq	writeDquant_CABAC.28
	popq	%rbx
	popq	%r14
	popq	%rbp
	.cfi_def_cfa %rsp, 8
	retq
.LBB15_3:                               # %func_writeDquant_CABAC.52
	.cfi_def_cfa %rbp, 16
	movq	%rbx, %rdi
	movq	%r14, %rsi
	callq	writeDquant_CABAC.52
	popq	%rbx
	popq	%r14
	popq	%rbp
	.cfi_def_cfa %rsp, 8
	retq
.LBB15_4:                               # %func_writeDquant_CABAC.61
	.cfi_def_cfa %rbp, 16
	movq	%rbx, %rdi
	movq	%r14, %rsi
	callq	writeDquant_CABAC.61
	popq	%rbx
	popq	%r14
	popq	%rbp
	.cfi_def_cfa %rsp, 8
	retq
.LBB15_5:                               # %ctrl0
	.cfi_def_cfa %rbp, 16
	cmpl	$1, %eax
	je	.LBB15_2
# %bb.6:                                # %ctrl1
	cmpl	$2, %eax
	je	.LBB15_3
	jmp	.LBB15_4
.Lfunc_end15:
	.size	writeDquant_CABAC, .Lfunc_end15-writeDquant_CABAC
	.cfi_endproc
                                        # -- End function
	.globl	writeMVD_CABAC          # -- Begin function writeMVD_CABAC
	.p2align	4, 0x90
	.type	writeMVD_CABAC,@function
writeMVD_CABAC:                         # @writeMVD_CABAC
	.cfi_startproc
# %bb.0:                                # %rand_bb
	pushq	%rbp
	.cfi_def_cfa_offset 16
	.cfi_offset %rbp, -16
	movq	%rsp, %rbp
	.cfi_def_cfa_register %rbp
	pushq	%r14
	pushq	%rbx
	.cfi_offset %rbx, -32
	.cfi_offset %r14, -24
	movq	%rsi, %r14
	movq	%rdi, %rbx
	callq	get_urand
	cmpl	$0, %eax
	jne	.LBB16_5
# %bb.1:                                # %func_writeMVD_CABAC.12
	movq	%rbx, %rdi
	movq	%r14, %rsi
	callq	writeMVD_CABAC.12
	popq	%rbx
	popq	%r14
	popq	%rbp
	.cfi_def_cfa %rsp, 8
	retq
.LBB16_2:                               # %func_writeMVD_CABAC.14
	.cfi_def_cfa %rbp, 16
	movq	%rbx, %rdi
	movq	%r14, %rsi
	callq	writeMVD_CABAC.14
	popq	%rbx
	popq	%r14
	popq	%rbp
	.cfi_def_cfa %rsp, 8
	retq
.LBB16_3:                               # %func_writeMVD_CABAC.29
	.cfi_def_cfa %rbp, 16
	movq	%rbx, %rdi
	movq	%r14, %rsi
	callq	writeMVD_CABAC.29
	popq	%rbx
	popq	%r14
	popq	%rbp
	.cfi_def_cfa %rsp, 8
	retq
.LBB16_4:                               # %func_writeMVD_CABAC.44
	.cfi_def_cfa %rbp, 16
	movq	%rbx, %rdi
	movq	%r14, %rsi
	callq	writeMVD_CABAC.44
	popq	%rbx
	popq	%r14
	popq	%rbp
	.cfi_def_cfa %rsp, 8
	retq
.LBB16_5:                               # %ctrl0
	.cfi_def_cfa %rbp, 16
	cmpl	$1, %eax
	je	.LBB16_2
# %bb.6:                                # %ctrl1
	cmpl	$2, %eax
	je	.LBB16_3
	jmp	.LBB16_4
.Lfunc_end16:
	.size	writeMVD_CABAC, .Lfunc_end16-writeMVD_CABAC
	.cfi_endproc
                                        # -- End function
	.globl	unary_exp_golomb_mv_encode # -- Begin function unary_exp_golomb_mv_encode
	.p2align	4, 0x90
	.type	unary_exp_golomb_mv_encode,@function
unary_exp_golomb_mv_encode:             # @unary_exp_golomb_mv_encode
	.cfi_startproc
# %bb.0:                                # %rand_bb
	pushq	%rbp
	.cfi_def_cfa_offset 16
	.cfi_offset %rbp, -16
	movq	%rsp, %rbp
	.cfi_def_cfa_register %rbp
	pushq	%r15
	pushq	%r14
	pushq	%r12
	pushq	%rbx
	.cfi_offset %rbx, -48
	.cfi_offset %r12, -40
	.cfi_offset %r14, -32
	.cfi_offset %r15, -24
	movl	%ecx, %r14d
	movq	%rdx, %r15
	movl	%esi, %r12d
	movq	%rdi, %rbx
	callq	get_urand
	cmpl	$0, %eax
	jne	.LBB17_5
# %bb.1:                                # %func_unary_exp_golomb_mv_encode.42
	movq	%rbx, %rdi
	movl	%r12d, %esi
	movq	%r15, %rdx
	movl	%r14d, %ecx
	callq	unary_exp_golomb_mv_encode.42
	popq	%rbx
	popq	%r12
	popq	%r14
	popq	%r15
	popq	%rbp
	.cfi_def_cfa %rsp, 8
	retq
.LBB17_2:                               # %func_unary_exp_golomb_mv_encode.60
	.cfi_def_cfa %rbp, 16
	movq	%rbx, %rdi
	movl	%r12d, %esi
	movq	%r15, %rdx
	movl	%r14d, %ecx
	callq	unary_exp_golomb_mv_encode.60
	popq	%rbx
	popq	%r12
	popq	%r14
	popq	%r15
	popq	%rbp
	.cfi_def_cfa %rsp, 8
	retq
.LBB17_3:                               # %func_unary_exp_golomb_mv_encode.73
	.cfi_def_cfa %rbp, 16
	movq	%rbx, %rdi
	movl	%r12d, %esi
	movq	%r15, %rdx
	movl	%r14d, %ecx
	callq	unary_exp_golomb_mv_encode.73
	popq	%rbx
	popq	%r12
	popq	%r14
	popq	%r15
	popq	%rbp
	.cfi_def_cfa %rsp, 8
	retq
.LBB17_4:                               # %func_unary_exp_golomb_mv_encode.90
	.cfi_def_cfa %rbp, 16
	movq	%rbx, %rdi
	movl	%r12d, %esi
	movq	%r15, %rdx
	movl	%r14d, %ecx
	callq	unary_exp_golomb_mv_encode.90
	popq	%rbx
	popq	%r12
	popq	%r14
	popq	%r15
	popq	%rbp
	.cfi_def_cfa %rsp, 8
	retq
.LBB17_5:                               # %ctrl0
	.cfi_def_cfa %rbp, 16
	cmpl	$1, %eax
	je	.LBB17_2
# %bb.6:                                # %ctrl1
	cmpl	$2, %eax
	je	.LBB17_3
	jmp	.LBB17_4
.Lfunc_end17:
	.size	unary_exp_golomb_mv_encode, .Lfunc_end17-unary_exp_golomb_mv_encode
	.cfi_endproc
                                        # -- End function
	.globl	writeCIPredMode_CABAC   # -- Begin function writeCIPredMode_CABAC
	.p2align	4, 0x90
	.type	writeCIPredMode_CABAC,@function
writeCIPredMode_CABAC:                  # @writeCIPredMode_CABAC
	.cfi_startproc
# %bb.0:                                # %rand_bb
	pushq	%rbp
	.cfi_def_cfa_offset 16
	.cfi_offset %rbp, -16
	movq	%rsp, %rbp
	.cfi_def_cfa_register %rbp
	pushq	%r14
	pushq	%rbx
	.cfi_offset %rbx, -32
	.cfi_offset %r14, -24
	movq	%rsi, %r14
	movq	%rdi, %rbx
	callq	get_urand
	cmpl	$0, %eax
	jne	.LBB18_5
# %bb.1:                                # %func_writeCIPredMode_CABAC.13
	movq	%rbx, %rdi
	movq	%r14, %rsi
	callq	writeCIPredMode_CABAC.13
	popq	%rbx
	popq	%r14
	popq	%rbp
	.cfi_def_cfa %rsp, 8
	retq
.LBB18_2:                               # %func_writeCIPredMode_CABAC.53
	.cfi_def_cfa %rbp, 16
	movq	%rbx, %rdi
	movq	%r14, %rsi
	callq	writeCIPredMode_CABAC.53
	popq	%rbx
	popq	%r14
	popq	%rbp
	.cfi_def_cfa %rsp, 8
	retq
.LBB18_3:                               # %func_writeCIPredMode_CABAC.55
	.cfi_def_cfa %rbp, 16
	movq	%rbx, %rdi
	movq	%r14, %rsi
	callq	writeCIPredMode_CABAC.55
	popq	%rbx
	popq	%r14
	popq	%rbp
	.cfi_def_cfa %rsp, 8
	retq
.LBB18_4:                               # %func_writeCIPredMode_CABAC.65
	.cfi_def_cfa %rbp, 16
	movq	%rbx, %rdi
	movq	%r14, %rsi
	callq	writeCIPredMode_CABAC.65
	popq	%rbx
	popq	%r14
	popq	%rbp
	.cfi_def_cfa %rsp, 8
	retq
.LBB18_5:                               # %ctrl0
	.cfi_def_cfa %rbp, 16
	cmpl	$1, %eax
	je	.LBB18_2
# %bb.6:                                # %ctrl1
	cmpl	$2, %eax
	je	.LBB18_3
	jmp	.LBB18_4
.Lfunc_end18:
	.size	writeCIPredMode_CABAC, .Lfunc_end18-writeCIPredMode_CABAC
	.cfi_endproc
                                        # -- End function
	.globl	unary_bin_max_encode    # -- Begin function unary_bin_max_encode
	.p2align	4, 0x90
	.type	unary_bin_max_encode,@function
unary_bin_max_encode:                   # @unary_bin_max_encode
	.cfi_startproc
# %bb.0:                                # %rand_bb
	pushq	%rbp
	.cfi_def_cfa_offset 16
	.cfi_offset %rbp, -16
	movq	%rsp, %rbp
	.cfi_def_cfa_register %rbp
	pushq	%r15
	pushq	%r14
	pushq	%r13
	pushq	%r12
	pushq	%rbx
	pushq	%rax
	.cfi_offset %rbx, -56
	.cfi_offset %r12, -48
	.cfi_offset %r13, -40
	.cfi_offset %r14, -32
	.cfi_offset %r15, -24
	movl	%r8d, %r14d
	movl	%ecx, %r15d
	movq	%rdx, %r12
	movl	%esi, %r13d
	movq	%rdi, %rbx
	callq	get_urand
	cmpl	$0, %eax
	jne	.LBB19_5
# %bb.1:                                # %func_unary_bin_max_encode.6
	movq	%rbx, %rdi
	movl	%r13d, %esi
	movq	%r12, %rdx
	movl	%r15d, %ecx
	movl	%r14d, %r8d
	callq	unary_bin_max_encode.6
	addq	$8, %rsp
	popq	%rbx
	popq	%r12
	popq	%r13
	popq	%r14
	popq	%r15
	popq	%rbp
	.cfi_def_cfa %rsp, 8
	retq
.LBB19_2:                               # %func_unary_bin_max_encode.16
	.cfi_def_cfa %rbp, 16
	movq	%rbx, %rdi
	movl	%r13d, %esi
	movq	%r12, %rdx
	movl	%r15d, %ecx
	movl	%r14d, %r8d
	callq	unary_bin_max_encode.16
	addq	$8, %rsp
	popq	%rbx
	popq	%r12
	popq	%r13
	popq	%r14
	popq	%r15
	popq	%rbp
	.cfi_def_cfa %rsp, 8
	retq
.LBB19_3:                               # %func_unary_bin_max_encode.87
	.cfi_def_cfa %rbp, 16
	movq	%rbx, %rdi
	movl	%r13d, %esi
	movq	%r12, %rdx
	movl	%r15d, %ecx
	movl	%r14d, %r8d
	callq	unary_bin_max_encode.87
	addq	$8, %rsp
	popq	%rbx
	popq	%r12
	popq	%r13
	popq	%r14
	popq	%r15
	popq	%rbp
	.cfi_def_cfa %rsp, 8
	retq
.LBB19_4:                               # %func_unary_bin_max_encode.88
	.cfi_def_cfa %rbp, 16
	movq	%rbx, %rdi
	movl	%r13d, %esi
	movq	%r12, %rdx
	movl	%r15d, %ecx
	movl	%r14d, %r8d
	callq	unary_bin_max_encode.88
	addq	$8, %rsp
	popq	%rbx
	popq	%r12
	popq	%r13
	popq	%r14
	popq	%r15
	popq	%rbp
	.cfi_def_cfa %rsp, 8
	retq
.LBB19_5:                               # %ctrl0
	.cfi_def_cfa %rbp, 16
	cmpl	$1, %eax
	je	.LBB19_2
# %bb.6:                                # %ctrl1
	cmpl	$2, %eax
	je	.LBB19_3
	jmp	.LBB19_4
.Lfunc_end19:
	.size	unary_bin_max_encode, .Lfunc_end19-unary_bin_max_encode
	.cfi_endproc
                                        # -- End function
	.globl	writeCBP_BIT_CABAC      # -- Begin function writeCBP_BIT_CABAC
	.p2align	4, 0x90
	.type	writeCBP_BIT_CABAC,@function
writeCBP_BIT_CABAC:                     # @writeCBP_BIT_CABAC
	.cfi_startproc
# %bb.0:                                # %rand_bb
	pushq	%rbp
	.cfi_def_cfa_offset 16
	.cfi_offset %rbp, -16
	movq	%rsp, %rbp
	.cfi_def_cfa_register %rbp
	pushq	%r15
	pushq	%r14
	pushq	%r13
	pushq	%r12
	pushq	%rbx
	pushq	%rax
	.cfi_offset %rbx, -56
	.cfi_offset %r12, -48
	.cfi_offset %r13, -40
	.cfi_offset %r14, -32
	.cfi_offset %r15, -24
	movq	%r9, -48(%rbp)          # 8-byte Spill
	movl	%r8d, %r12d
	movq	%rcx, %r13
	movl	%edx, %ebx
	movl	%esi, %r14d
	movl	%edi, %r15d
	callq	get_urand
	cmpl	$0, %eax
	jne	.LBB20_5
# %bb.1:                                # %func_writeCBP_BIT_CABAC.39
	movl	%r15d, %edi
	movl	%r14d, %esi
	movl	%ebx, %edx
	movq	%r13, %rcx
	movl	%r12d, %r8d
	movq	-48(%rbp), %r9          # 8-byte Reload
	callq	writeCBP_BIT_CABAC.39
	addq	$8, %rsp
	popq	%rbx
	popq	%r12
	popq	%r13
	popq	%r14
	popq	%r15
	popq	%rbp
	.cfi_def_cfa %rsp, 8
	retq
.LBB20_2:                               # %func_writeCBP_BIT_CABAC.59
	.cfi_def_cfa %rbp, 16
	movl	%r15d, %edi
	movl	%r14d, %esi
	movl	%ebx, %edx
	movq	%r13, %rcx
	movl	%r12d, %r8d
	callq	writeCBP_BIT_CABAC.59
	addq	$8, %rsp
	popq	%rbx
	popq	%r12
	popq	%r13
	popq	%r14
	popq	%r15
	popq	%rbp
	.cfi_def_cfa %rsp, 8
	retq
.LBB20_3:                               # %func_writeCBP_BIT_CABAC.77
	.cfi_def_cfa %rbp, 16
	callq	writeCBP_BIT_CABAC.77
	addq	$8, %rsp
	popq	%rbx
	popq	%r12
	popq	%r13
	popq	%r14
	popq	%r15
	popq	%rbp
	.cfi_def_cfa %rsp, 8
	retq
.LBB20_4:                               # %func_writeCBP_BIT_CABAC.78
	.cfi_def_cfa %rbp, 16
	callq	writeCBP_BIT_CABAC.78
	addq	$8, %rsp
	popq	%rbx
	popq	%r12
	popq	%r13
	popq	%r14
	popq	%r15
	popq	%rbp
	.cfi_def_cfa %rsp, 8
	retq
.LBB20_5:                               # %ctrl0
	.cfi_def_cfa %rbp, 16
	movq	-48(%rbp), %r9          # 8-byte Reload
	cmpl	$1, %eax
	je	.LBB20_2
# %bb.6:                                # %ctrl1
	cmpl	$2, %eax
	movl	%r12d, %r8d
	movq	%r13, %rcx
	movl	%ebx, %edx
	movl	%r14d, %esi
	movl	%r15d, %edi
	je	.LBB20_3
	jmp	.LBB20_4
.Lfunc_end20:
	.size	writeCBP_BIT_CABAC, .Lfunc_end20-writeCBP_BIT_CABAC
	.cfi_endproc
                                        # -- End function
	.globl	writeCBP_CABAC          # -- Begin function writeCBP_CABAC
	.p2align	4, 0x90
	.type	writeCBP_CABAC,@function
writeCBP_CABAC:                         # @writeCBP_CABAC
	.cfi_startproc
# %bb.0:                                # %rand_bb
	pushq	%rbp
	.cfi_def_cfa_offset 16
	.cfi_offset %rbp, -16
	movq	%rsp, %rbp
	.cfi_def_cfa_register %rbp
	pushq	%r14
	pushq	%rbx
	.cfi_offset %rbx, -32
	.cfi_offset %r14, -24
	movq	%rsi, %r14
	movq	%rdi, %rbx
	callq	get_urand
	cmpl	$0, %eax
	jne	.LBB21_5
# %bb.1:                                # %func_writeCBP_CABAC.21
	movq	%rbx, %rdi
	movq	%r14, %rsi
	callq	writeCBP_CABAC.21
	popq	%rbx
	popq	%r14
	popq	%rbp
	.cfi_def_cfa %rsp, 8
	retq
.LBB21_2:                               # %func_writeCBP_CABAC.24
	.cfi_def_cfa %rbp, 16
	movq	%rbx, %rdi
	movq	%r14, %rsi
	callq	writeCBP_CABAC.24
	popq	%rbx
	popq	%r14
	popq	%rbp
	.cfi_def_cfa %rsp, 8
	retq
.LBB21_3:                               # %func_writeCBP_CABAC.74
	.cfi_def_cfa %rbp, 16
	movq	%rbx, %rdi
	movq	%r14, %rsi
	callq	writeCBP_CABAC.74
	popq	%rbx
	popq	%r14
	popq	%rbp
	.cfi_def_cfa %rsp, 8
	retq
.LBB21_4:                               # %func_writeCBP_CABAC.89
	.cfi_def_cfa %rbp, 16
	movq	%rbx, %rdi
	movq	%r14, %rsi
	callq	writeCBP_CABAC.89
	popq	%rbx
	popq	%r14
	popq	%rbp
	.cfi_def_cfa %rsp, 8
	retq
.LBB21_5:                               # %ctrl0
	.cfi_def_cfa %rbp, 16
	cmpl	$1, %eax
	je	.LBB21_2
# %bb.6:                                # %ctrl1
	cmpl	$2, %eax
	je	.LBB21_3
	jmp	.LBB21_4
.Lfunc_end21:
	.size	writeCBP_CABAC, .Lfunc_end21-writeCBP_CABAC
	.cfi_endproc
                                        # -- End function
	.globl	write_and_store_CBP_block_bit # -- Begin function write_and_store_CBP_block_bit
	.p2align	4, 0x90
	.type	write_and_store_CBP_block_bit,@function
write_and_store_CBP_block_bit:          # @write_and_store_CBP_block_bit
	.cfi_startproc
# %bb.0:                                # %rand_bb
	pushq	%rbp
	.cfi_def_cfa_offset 16
	.cfi_offset %rbp, -16
	movq	%rsp, %rbp
	.cfi_def_cfa_register %rbp
	pushq	%r15
	pushq	%r14
	pushq	%r12
	pushq	%rbx
	.cfi_offset %rbx, -48
	.cfi_offset %r12, -40
	.cfi_offset %r14, -32
	.cfi_offset %r15, -24
	movl	%ecx, %r14d
	movl	%edx, %r15d
	movq	%rsi, %r12
	movq	%rdi, %rbx
	callq	get_urand
	cmpl	$0, %eax
	jne	.LBB22_5
# %bb.1:                                # %func_write_and_store_CBP_block_bit.9
	movq	%rbx, %rdi
	movq	%r12, %rsi
	movl	%r15d, %edx
	movl	%r14d, %ecx
	callq	write_and_store_CBP_block_bit.9
	popq	%rbx
	popq	%r12
	popq	%r14
	popq	%r15
	popq	%rbp
	.cfi_def_cfa %rsp, 8
	retq
.LBB22_2:                               # %func_write_and_store_CBP_block_bit.56
	.cfi_def_cfa %rbp, 16
	movq	%rbx, %rdi
	movq	%r12, %rsi
	movl	%r15d, %edx
	movl	%r14d, %ecx
	callq	write_and_store_CBP_block_bit.56
	popq	%rbx
	popq	%r12
	popq	%r14
	popq	%r15
	popq	%rbp
	.cfi_def_cfa %rsp, 8
	retq
.LBB22_3:                               # %func_write_and_store_CBP_block_bit.69
	.cfi_def_cfa %rbp, 16
	movq	%rbx, %rdi
	movq	%r12, %rsi
	movl	%r15d, %edx
	movl	%r14d, %ecx
	callq	write_and_store_CBP_block_bit.69
	popq	%rbx
	popq	%r12
	popq	%r14
	popq	%r15
	popq	%rbp
	.cfi_def_cfa %rsp, 8
	retq
.LBB22_4:                               # %func_write_and_store_CBP_block_bit.81
	.cfi_def_cfa %rbp, 16
	movq	%rbx, %rdi
	movq	%r12, %rsi
	movl	%r15d, %edx
	movl	%r14d, %ecx
	callq	write_and_store_CBP_block_bit.81
	popq	%rbx
	popq	%r12
	popq	%r14
	popq	%r15
	popq	%rbp
	.cfi_def_cfa %rsp, 8
	retq
.LBB22_5:                               # %ctrl0
	.cfi_def_cfa %rbp, 16
	cmpl	$1, %eax
	je	.LBB22_2
# %bb.6:                                # %ctrl1
	cmpl	$2, %eax
	je	.LBB22_3
	jmp	.LBB22_4
.Lfunc_end22:
	.size	write_and_store_CBP_block_bit, .Lfunc_end22-write_and_store_CBP_block_bit
	.cfi_endproc
                                        # -- End function
	.globl	write_significance_map  # -- Begin function write_significance_map
	.p2align	4, 0x90
	.type	write_significance_map,@function
write_significance_map:                 # @write_significance_map
	.cfi_startproc
# %bb.0:                                # %rand_bb
	pushq	%rbp
	.cfi_def_cfa_offset 16
	.cfi_offset %rbp, -16
	movq	%rsp, %rbp
	.cfi_def_cfa_register %rbp
	pushq	%r15
	pushq	%r14
	pushq	%r13
	pushq	%r12
	pushq	%rbx
	pushq	%rax
	.cfi_offset %rbx, -56
	.cfi_offset %r12, -48
	.cfi_offset %r13, -40
	.cfi_offset %r14, -32
	.cfi_offset %r15, -24
	movl	%r8d, %r14d
	movq	%rcx, %r15
	movl	%edx, %r12d
	movq	%rsi, %r13
	movq	%rdi, %rbx
	callq	get_urand
	cmpl	$0, %eax
	jne	.LBB23_5
# %bb.1:                                # %func_write_significance_map.23
	movq	%rbx, %rdi
	movq	%r13, %rsi
	movl	%r12d, %edx
	movq	%r15, %rcx
	movl	%r14d, %r8d
	callq	write_significance_map.23
	addq	$8, %rsp
	popq	%rbx
	popq	%r12
	popq	%r13
	popq	%r14
	popq	%r15
	popq	%rbp
	.cfi_def_cfa %rsp, 8
	retq
.LBB23_2:                               # %func_write_significance_map.30
	.cfi_def_cfa %rbp, 16
	movq	%rbx, %rdi
	movq	%r13, %rsi
	movl	%r12d, %edx
	movq	%r15, %rcx
	movl	%r14d, %r8d
	callq	write_significance_map.30
	addq	$8, %rsp
	popq	%rbx
	popq	%r12
	popq	%r13
	popq	%r14
	popq	%r15
	popq	%rbp
	.cfi_def_cfa %rsp, 8
	retq
.LBB23_3:                               # %func_write_significance_map.33
	.cfi_def_cfa %rbp, 16
	movq	%rbx, %rdi
	movq	%r13, %rsi
	movl	%r12d, %edx
	movq	%r15, %rcx
	movl	%r14d, %r8d
	callq	write_significance_map.33
	addq	$8, %rsp
	popq	%rbx
	popq	%r12
	popq	%r13
	popq	%r14
	popq	%r15
	popq	%rbp
	.cfi_def_cfa %rsp, 8
	retq
.LBB23_4:                               # %func_write_significance_map.36
	.cfi_def_cfa %rbp, 16
	movq	%rbx, %rdi
	movq	%r13, %rsi
	movl	%r12d, %edx
	movq	%r15, %rcx
	movl	%r14d, %r8d
	callq	write_significance_map.36
	addq	$8, %rsp
	popq	%rbx
	popq	%r12
	popq	%r13
	popq	%r14
	popq	%r15
	popq	%rbp
	.cfi_def_cfa %rsp, 8
	retq
.LBB23_5:                               # %ctrl0
	.cfi_def_cfa %rbp, 16
	cmpl	$1, %eax
	je	.LBB23_2
# %bb.6:                                # %ctrl1
	cmpl	$2, %eax
	je	.LBB23_3
	jmp	.LBB23_4
.Lfunc_end23:
	.size	write_significance_map, .Lfunc_end23-write_significance_map
	.cfi_endproc
                                        # -- End function
	.globl	write_significant_coefficients # -- Begin function write_significant_coefficients
	.p2align	4, 0x90
	.type	write_significant_coefficients,@function
write_significant_coefficients:         # @write_significant_coefficients
	.cfi_startproc
# %bb.0:                                # %rand_bb
	pushq	%rbp
	.cfi_def_cfa_offset 16
	.cfi_offset %rbp, -16
	movq	%rsp, %rbp
	.cfi_def_cfa_register %rbp
	pushq	%r15
	pushq	%r14
	pushq	%r12
	pushq	%rbx
	.cfi_offset %rbx, -48
	.cfi_offset %r12, -40
	.cfi_offset %r14, -32
	.cfi_offset %r15, -24
	movq	%rcx, %r14
	movl	%edx, %r15d
	movq	%rsi, %r12
	movq	%rdi, %rbx
	callq	get_urand
	cmpl	$0, %eax
	jne	.LBB24_5
# %bb.1:                                # %func_write_significant_coefficients.11
	movq	%rbx, %rdi
	movq	%r12, %rsi
	movl	%r15d, %edx
	movq	%r14, %rcx
	callq	write_significant_coefficients.11
	popq	%rbx
	popq	%r12
	popq	%r14
	popq	%r15
	popq	%rbp
	.cfi_def_cfa %rsp, 8
	retq
.LBB24_2:                               # %func_write_significant_coefficients.38
	.cfi_def_cfa %rbp, 16
	movq	%rbx, %rdi
	movq	%r12, %rsi
	movl	%r15d, %edx
	movq	%r14, %rcx
	callq	write_significant_coefficients.38
	popq	%rbx
	popq	%r12
	popq	%r14
	popq	%r15
	popq	%rbp
	.cfi_def_cfa %rsp, 8
	retq
.LBB24_3:                               # %func_write_significant_coefficients.40
	.cfi_def_cfa %rbp, 16
	movq	%rbx, %rdi
	movq	%r12, %rsi
	movl	%r15d, %edx
	movq	%r14, %rcx
	callq	write_significant_coefficients.40
	popq	%rbx
	popq	%r12
	popq	%r14
	popq	%r15
	popq	%rbp
	.cfi_def_cfa %rsp, 8
	retq
.LBB24_4:                               # %func_write_significant_coefficients.47
	.cfi_def_cfa %rbp, 16
	movq	%rbx, %rdi
	movq	%r12, %rsi
	movl	%r15d, %edx
	movq	%r14, %rcx
	callq	write_significant_coefficients.47
	popq	%rbx
	popq	%r12
	popq	%r14
	popq	%r15
	popq	%rbp
	.cfi_def_cfa %rsp, 8
	retq
.LBB24_5:                               # %ctrl0
	.cfi_def_cfa %rbp, 16
	cmpl	$1, %eax
	je	.LBB24_2
# %bb.6:                                # %ctrl1
	cmpl	$2, %eax
	je	.LBB24_3
	jmp	.LBB24_4
.Lfunc_end24:
	.size	write_significant_coefficients, .Lfunc_end24-write_significant_coefficients
	.cfi_endproc
                                        # -- End function
	.globl	unary_exp_golomb_level_encode # -- Begin function unary_exp_golomb_level_encode
	.p2align	4, 0x90
	.type	unary_exp_golomb_level_encode,@function
unary_exp_golomb_level_encode:          # @unary_exp_golomb_level_encode
	.cfi_startproc
# %bb.0:                                # %rand_bb
	pushq	%rbp
	.cfi_def_cfa_offset 16
	.cfi_offset %rbp, -16
	movq	%rsp, %rbp
	.cfi_def_cfa_register %rbp
	pushq	%r15
	pushq	%r14
	pushq	%rbx
	pushq	%rax
	.cfi_offset %rbx, -40
	.cfi_offset %r14, -32
	.cfi_offset %r15, -24
	movq	%rdx, %r14
	movl	%esi, %r15d
	movq	%rdi, %rbx
	callq	get_urand
	cmpl	$0, %eax
	jne	.LBB25_5
# %bb.1:                                # %func_unary_exp_golomb_level_encode.76
	movq	%rbx, %rdi
	movl	%r15d, %esi
	movq	%r14, %rdx
	callq	unary_exp_golomb_level_encode.76
	addq	$8, %rsp
	popq	%rbx
	popq	%r14
	popq	%r15
	popq	%rbp
	.cfi_def_cfa %rsp, 8
	retq
.LBB25_2:                               # %func_unary_exp_golomb_level_encode.86
	.cfi_def_cfa %rbp, 16
	movq	%rbx, %rdi
	movl	%r15d, %esi
	movq	%r14, %rdx
	callq	unary_exp_golomb_level_encode.86
	addq	$8, %rsp
	popq	%rbx
	popq	%r14
	popq	%r15
	popq	%rbp
	.cfi_def_cfa %rsp, 8
	retq
.LBB25_3:                               # %func_unary_exp_golomb_level_encode.91
	.cfi_def_cfa %rbp, 16
	movq	%rbx, %rdi
	movl	%r15d, %esi
	movq	%r14, %rdx
	callq	unary_exp_golomb_level_encode.91
	addq	$8, %rsp
	popq	%rbx
	popq	%r14
	popq	%r15
	popq	%rbp
	.cfi_def_cfa %rsp, 8
	retq
.LBB25_4:                               # %func_unary_exp_golomb_level_encode.92
	.cfi_def_cfa %rbp, 16
	movq	%rbx, %rdi
	movl	%r15d, %esi
	movq	%r14, %rdx
	callq	unary_exp_golomb_level_encode.92
	addq	$8, %rsp
	popq	%rbx
	popq	%r14
	popq	%r15
	popq	%rbp
	.cfi_def_cfa %rsp, 8
	retq
.LBB25_5:                               # %ctrl0
	.cfi_def_cfa %rbp, 16
	cmpl	$1, %eax
	je	.LBB25_2
# %bb.6:                                # %ctrl1
	cmpl	$2, %eax
	je	.LBB25_3
	jmp	.LBB25_4
.Lfunc_end25:
	.size	unary_exp_golomb_level_encode, .Lfunc_end25-unary_exp_golomb_level_encode
	.cfi_endproc
                                        # -- End function
	.globl	writeRunLevel_CABAC     # -- Begin function writeRunLevel_CABAC
	.p2align	4, 0x90
	.type	writeRunLevel_CABAC,@function
writeRunLevel_CABAC:                    # @writeRunLevel_CABAC
	.cfi_startproc
# %bb.0:                                # %rand_bb
	pushq	%rbp
	.cfi_def_cfa_offset 16
	.cfi_offset %rbp, -16
	movq	%rsp, %rbp
	.cfi_def_cfa_register %rbp
	pushq	%r14
	pushq	%rbx
	.cfi_offset %rbx, -32
	.cfi_offset %r14, -24
	movq	%rsi, %r14
	movq	%rdi, %rbx
	callq	get_urand
	cmpl	$0, %eax
	jne	.LBB26_5
# %bb.1:                                # %func_writeRunLevel_CABAC.49
	movq	%rbx, %rdi
	movq	%r14, %rsi
	callq	writeRunLevel_CABAC.49
	popq	%rbx
	popq	%r14
	popq	%rbp
	.cfi_def_cfa %rsp, 8
	retq
.LBB26_2:                               # %func_writeRunLevel_CABAC.62
	.cfi_def_cfa %rbp, 16
	movq	%rbx, %rdi
	movq	%r14, %rsi
	callq	writeRunLevel_CABAC.62
	popq	%rbx
	popq	%r14
	popq	%rbp
	.cfi_def_cfa %rsp, 8
	retq
.LBB26_3:                               # %func_writeRunLevel_CABAC.70
	.cfi_def_cfa %rbp, 16
	movq	%rbx, %rdi
	movq	%r14, %rsi
	callq	writeRunLevel_CABAC.70
	popq	%rbx
	popq	%r14
	popq	%rbp
	.cfi_def_cfa %rsp, 8
	retq
.LBB26_4:                               # %func_writeRunLevel_CABAC.84
	.cfi_def_cfa %rbp, 16
	movq	%rbx, %rdi
	movq	%r14, %rsi
	callq	writeRunLevel_CABAC.84
	popq	%rbx
	popq	%r14
	popq	%rbp
	.cfi_def_cfa %rsp, 8
	retq
.LBB26_5:                               # %ctrl0
	.cfi_def_cfa %rbp, 16
	cmpl	$1, %eax
	je	.LBB26_2
# %bb.6:                                # %ctrl1
	cmpl	$2, %eax
	je	.LBB26_3
	jmp	.LBB26_4
.Lfunc_end26:
	.size	writeRunLevel_CABAC, .Lfunc_end26-writeRunLevel_CABAC
	.cfi_endproc
                                        # -- End function
	.globl	exp_golomb_encode_eq_prob # -- Begin function exp_golomb_encode_eq_prob
	.p2align	4, 0x90
	.type	exp_golomb_encode_eq_prob,@function
exp_golomb_encode_eq_prob:              # @exp_golomb_encode_eq_prob
	.cfi_startproc
# %bb.0:                                # %rand_bb
	pushq	%rbp
	.cfi_def_cfa_offset 16
	.cfi_offset %rbp, -16
	movq	%rsp, %rbp
	.cfi_def_cfa_register %rbp
	pushq	%r15
	pushq	%r14
	pushq	%rbx
	pushq	%rax
	.cfi_offset %rbx, -40
	.cfi_offset %r14, -32
	.cfi_offset %r15, -24
	movl	%edx, %r14d
	movl	%esi, %r15d
	movq	%rdi, %rbx
	callq	get_urand
	cmpl	$0, %eax
	jne	.LBB27_5
# %bb.1:                                # %func_exp_golomb_encode_eq_prob.3
	movq	%rbx, %rdi
	movl	%r15d, %esi
	movl	%r14d, %edx
	callq	exp_golomb_encode_eq_prob.3
	addq	$8, %rsp
	popq	%rbx
	popq	%r14
	popq	%r15
	popq	%rbp
	.cfi_def_cfa %rsp, 8
	retq
.LBB27_2:                               # %func_exp_golomb_encode_eq_prob.4
	.cfi_def_cfa %rbp, 16
	movq	%rbx, %rdi
	movl	%r15d, %esi
	movl	%r14d, %edx
	callq	exp_golomb_encode_eq_prob.4
	addq	$8, %rsp
	popq	%rbx
	popq	%r14
	popq	%r15
	popq	%rbp
	.cfi_def_cfa %rsp, 8
	retq
.LBB27_3:                               # %func_exp_golomb_encode_eq_prob.35
	.cfi_def_cfa %rbp, 16
	movq	%rbx, %rdi
	movl	%r15d, %esi
	movl	%r14d, %edx
	callq	exp_golomb_encode_eq_prob.35
	addq	$8, %rsp
	popq	%rbx
	popq	%r14
	popq	%r15
	popq	%rbp
	.cfi_def_cfa %rsp, 8
	retq
.LBB27_4:                               # %func_exp_golomb_encode_eq_prob.66
	.cfi_def_cfa %rbp, 16
	movq	%rbx, %rdi
	movl	%r15d, %esi
	movl	%r14d, %edx
	callq	exp_golomb_encode_eq_prob.66
	addq	$8, %rsp
	popq	%rbx
	popq	%r14
	popq	%r15
	popq	%rbp
	.cfi_def_cfa %rsp, 8
	retq
.LBB27_5:                               # %ctrl0
	.cfi_def_cfa %rbp, 16
	cmpl	$1, %eax
	je	.LBB27_2
# %bb.6:                                # %ctrl1
	cmpl	$2, %eax
	je	.LBB27_3
	jmp	.LBB27_4
.Lfunc_end27:
	.size	exp_golomb_encode_eq_prob, .Lfunc_end27-exp_golomb_encode_eq_prob
	.cfi_endproc
                                        # -- End function
	.globl	CheckAvailabilityOfNeighborsCABAC.1 # -- Begin function CheckAvailabilityOfNeighborsCABAC.1
	.p2align	4, 0x90
	.type	CheckAvailabilityOfNeighborsCABAC.1,@function
CheckAvailabilityOfNeighborsCABAC.1:    # @CheckAvailabilityOfNeighborsCABAC.1
	.cfi_startproc
# %bb.0:                                # %entry
	pushq	%rbp
	.cfi_def_cfa_offset 16
	.cfi_offset %rbp, -16
	movq	%rsp, %rbp
	.cfi_def_cfa_register %rbp
	subq	$64, %rsp
	movl	$752896263, -12(%rbp)   # imm = 0x2CE04907
	movq	img, %rax
	movq	14168(%rax), %rax
	movq	img, %rcx
	movslq	12(%rcx), %rcx
	imulq	$632, %rcx, %rcx        # imm = 0x278
	addq	%rcx, %rax
	movq	%rax, -8(%rbp)
	movq	img, %rax
	movl	12(%rax), %edi
	movl	$4294967295, %esi       # imm = 0xFFFFFFFF
	xorl	%edx, %edx
	movl	$1, %ecx
	leaq	-40(%rbp), %r8
	callq	getNeighbour
	movq	img, %rax
	movl	12(%rax), %edi
	xorl	%esi, %esi
	movl	$4294967295, %edx       # imm = 0xFFFFFFFF
	movl	$1, %ecx
	leaq	-64(%rbp), %r8
	callq	getNeighbour
	cmpl	$0, -64(%rbp)
	je	.LBB28_2
# %bb.1:                                # %if.then
	movq	img, %rax
	movq	14168(%rax), %rax
	movslq	-60(%rbp), %rcx
	imulq	$632, %rcx, %rcx        # imm = 0x278
	addq	%rcx, %rax
	movq	-8(%rbp), %rcx
	movq	%rax, 56(%rcx)
	jmp	.LBB28_3
.LBB28_2:                               # %if.else
	movq	-8(%rbp), %rax
	movq	$0, 56(%rax)
.LBB28_3:                               # %if.end
	cmpl	$0, -40(%rbp)
	je	.LBB28_5
# %bb.4:                                # %if.then9
	movq	img, %rax
	movq	14168(%rax), %rax
	movslq	-36(%rbp), %rcx
	imulq	$632, %rcx, %rcx        # imm = 0x278
	addq	%rcx, %rax
	movq	-8(%rbp), %rcx
	movq	%rax, 64(%rcx)
	jmp	.LBB28_6
.LBB28_5:                               # %if.else14
	movq	-8(%rbp), %rax
	movq	$0, 64(%rax)
.LBB28_6:                               # %if.end16
	cmpl	$752896263, -12(%rbp)   # imm = 0x2CE04907
	jne	.LBB28_8
.LBB28_7:
	addq	$64, %rsp
	popq	%rbp
	.cfi_def_cfa %rsp, 8
	retq
.LBB28_8:                               # %func_exit
	.cfi_def_cfa %rbp, 16
	callq	detect_breach
	jmp	.LBB28_7
.Lfunc_end28:
	.size	CheckAvailabilityOfNeighborsCABAC.1, .Lfunc_end28-CheckAvailabilityOfNeighborsCABAC.1
	.cfi_endproc
                                        # -- End function
	.globl	writeMB_typeInfo_CABAC.2 # -- Begin function writeMB_typeInfo_CABAC.2
	.p2align	4, 0x90
	.type	writeMB_typeInfo_CABAC.2,@function
writeMB_typeInfo_CABAC.2:               # @writeMB_typeInfo_CABAC.2
	.cfi_startproc
# %bb.0:                                # %entry
	pushq	%rbp
	.cfi_def_cfa_offset 16
	.cfi_offset %rbp, -16
	movq	%rsp, %rbp
	.cfi_def_cfa_register %rbp
	subq	$96, %rsp
	movl	$1450218069, -84(%rbp)  # imm = 0x56709255
	movq	%rdi, -80(%rbp)
	movq	%rsi, -16(%rbp)
	movl	$0, -20(%rbp)
	movq	img, %rax
	cmpl	$1, 24(%rax)
	sete	%al
	andb	$1, %al
	movzbl	%al, %eax
	movl	%eax, -64(%rbp)
	movl	$0, -36(%rbp)
	movq	img, %rax
	movq	14160(%rax), %rax
	movq	32(%rax), %rax
	movq	%rax, -32(%rbp)
	movq	img, %rax
	movq	14168(%rax), %rax
	movq	img, %rcx
	movslq	12(%rcx), %rcx
	imulq	$632, %rcx, %rcx        # imm = 0x278
	addq	%rcx, %rax
	movq	%rax, -56(%rbp)
	movq	-80(%rbp), %rax
	movl	4(%rax), %eax
	movl	%eax, -68(%rbp)
	movq	img, %rax
	cmpl	$2, 24(%rax)
	jne	.LBB29_24
# %bb.1:                                # %if.then
	movq	-56(%rbp), %rax
	cmpq	$0, 56(%rax)
	jne	.LBB29_3
# %bb.2:                                # %if.then6
	movl	$0, -48(%rbp)
	jmp	.LBB29_6
.LBB29_3:                               # %if.else
	xorl	%eax, %eax
	movq	-56(%rbp), %rcx
	movq	56(%rcx), %rcx
	cmpl	$9, 72(%rcx)
	je	.LBB29_5
# %bb.4:                                # %land.rhs
	movq	-56(%rbp), %rax
	movq	56(%rax), %rax
	cmpl	$13, 72(%rax)
	setne	%al
.LBB29_5:                               # %land.end
	xorl	%ecx, %ecx
	testb	$1, %al
	movl	$1, %eax
	cmovnel	%eax, %ecx
	movl	%ecx, -48(%rbp)
.LBB29_6:                               # %if.end
	movq	-56(%rbp), %rax
	cmpq	$0, 64(%rax)
	jne	.LBB29_8
# %bb.7:                                # %if.then16
	movl	$0, -44(%rbp)
	jmp	.LBB29_11
.LBB29_8:                               # %if.else17
	xorl	%eax, %eax
	movq	-56(%rbp), %rcx
	movq	64(%rcx), %rcx
	cmpl	$9, 72(%rcx)
	je	.LBB29_10
# %bb.9:                                # %land.rhs22
	movq	-56(%rbp), %rax
	movq	64(%rax), %rax
	cmpl	$13, 72(%rax)
	setne	%al
.LBB29_10:                              # %land.end27
	xorl	%ecx, %ecx
	testb	$1, %al
	movl	$1, %eax
	cmovnel	%eax, %ecx
	movl	%ecx, -44(%rbp)
.LBB29_11:                              # %if.end29
	movl	-44(%rbp), %eax
	addl	-48(%rbp), %eax
	movl	%eax, -20(%rbp)
	movl	-68(%rbp), %eax
	movl	%eax, -4(%rbp)
	movl	-20(%rbp), %eax
	movq	-80(%rbp), %rcx
	movl	%eax, 24(%rcx)
	cmpl	$0, -4(%rbp)
	jne	.LBB29_13
# %bb.12:                               # %if.then32
	movq	-16(%rbp), %rdi
	movq	-32(%rbp), %rdx
	movslq	-20(%rbp), %rax
	shlq	$4, %rax
	addq	%rax, %rdx
	xorl	%esi, %esi
	callq	biari_encode_symbol
	jmp	.LBB29_23
.LBB29_13:                              # %if.else34
	cmpl	$25, -4(%rbp)
	jne	.LBB29_15
# %bb.14:                               # %if.then37
	movq	-16(%rbp), %rdi
	movq	-32(%rbp), %rdx
	movslq	-20(%rbp), %rax
	shlq	$4, %rax
	addq	%rax, %rdx
	movl	$1, %esi
	callq	biari_encode_symbol
	movq	-16(%rbp), %rdi
	movl	$1, %esi
	callq	biari_encode_symbol_final
	jmp	.LBB29_22
.LBB29_15:                              # %if.else43
	movq	-16(%rbp), %rdi
	movq	-32(%rbp), %rdx
	movslq	-20(%rbp), %rax
	shlq	$4, %rax
	addq	%rax, %rdx
	movl	$1, %esi
	callq	biari_encode_symbol
	movq	-16(%rbp), %rdi
	xorl	%esi, %esi
	callq	biari_encode_symbol_final
	movl	-4(%rbp), %eax
	subl	$1, %eax
	movl	%eax, -36(%rbp)
	movl	$4, -20(%rbp)
	movl	-36(%rbp), %eax
	cltd
	movl	$12, %ecx
	idivl	%ecx
	movl	%eax, -4(%rbp)
	movq	-16(%rbp), %rdi
	movl	-4(%rbp), %eax
	movzbl	%al, %eax
	movq	-32(%rbp), %rdx
	movslq	-20(%rbp), %rcx
	shlq	$4, %rcx
	addq	%rcx, %rdx
	movswl	%ax, %esi
	callq	biari_encode_symbol
	movl	-36(%rbp), %eax
	cltd
	movl	$12, %ecx
	idivl	%ecx
	movl	%edx, -36(%rbp)
	movl	-36(%rbp), %eax
	cltd
	movl	$4, %ecx
	idivl	%ecx
	movl	%eax, -4(%rbp)
	movl	$5, -20(%rbp)
	cmpl	$0, -4(%rbp)
	jne	.LBB29_17
# %bb.16:                               # %if.then59
	movq	-16(%rbp), %rdi
	movq	-32(%rbp), %rdx
	movslq	-20(%rbp), %rax
	shlq	$4, %rax
	addq	%rax, %rdx
	xorl	%esi, %esi
	callq	biari_encode_symbol
	jmp	.LBB29_21
.LBB29_17:                              # %if.else65
	movq	-16(%rbp), %rdi
	movq	-32(%rbp), %rdx
	movslq	-20(%rbp), %rax
	shlq	$4, %rax
	addq	%rax, %rdx
	movl	$1, %esi
	callq	biari_encode_symbol
	movl	$6, -20(%rbp)
	cmpl	$1, -4(%rbp)
	jne	.LBB29_19
# %bb.18:                               # %if.then73
	movq	-16(%rbp), %rdi
	movq	-32(%rbp), %rdx
	movslq	-20(%rbp), %rax
	shlq	$4, %rax
	addq	%rax, %rdx
	xorl	%esi, %esi
	callq	biari_encode_symbol
	jmp	.LBB29_20
.LBB29_19:                              # %if.else79
	movq	-16(%rbp), %rdi
	movq	-32(%rbp), %rdx
	movslq	-20(%rbp), %rax
	shlq	$4, %rax
	addq	%rax, %rdx
	movl	$1, %esi
	callq	biari_encode_symbol
.LBB29_20:                              # %if.end85
	jmp	.LBB29_21
.LBB29_21:                              # %if.end86
	movl	-36(%rbp), %eax
	cltd
	movl	$4, %ecx
	idivl	%ecx
	movl	%edx, -36(%rbp)
	movl	-36(%rbp), %eax
	cltd
	movl	$2, %ecx
	idivl	%ecx
	movl	%eax, -4(%rbp)
	movl	$7, -20(%rbp)
	movq	-16(%rbp), %rdi
	movl	-4(%rbp), %eax
	movzbl	%al, %eax
	movq	-32(%rbp), %rdx
	movslq	-20(%rbp), %rcx
	shlq	$4, %rcx
	addq	%rcx, %rdx
	movswl	%ax, %esi
	callq	biari_encode_symbol
	movl	$8, -20(%rbp)
	movl	-36(%rbp), %eax
	cltd
	movl	$2, %ecx
	idivl	%ecx
	movl	%edx, -4(%rbp)
	movq	-16(%rbp), %rdi
	movl	-4(%rbp), %eax
	movzbl	%al, %eax
	movq	-32(%rbp), %rdx
	movslq	-20(%rbp), %rcx
	shlq	$4, %rcx
	addq	%rcx, %rdx
	movswl	%ax, %esi
	callq	biari_encode_symbol
.LBB29_22:                              # %if.end104
	jmp	.LBB29_23
.LBB29_23:                              # %if.end105
	jmp	.LBB29_102
.LBB29_24:                              # %if.else106
	cmpl	$0, -64(%rbp)
	je	.LBB29_32
# %bb.25:                               # %if.then107
	movq	-56(%rbp), %rax
	cmpq	$0, 56(%rax)
	jne	.LBB29_27
# %bb.26:                               # %if.then111
	movl	$0, -48(%rbp)
	jmp	.LBB29_28
.LBB29_27:                              # %if.else112
	xorl	%eax, %eax
	movq	-56(%rbp), %rcx
	movq	56(%rcx), %rcx
	movl	72(%rcx), %ecx
	cmpl	$0, %ecx
	movl	$1, %ecx
	cmovnel	%ecx, %eax
	movl	%eax, -48(%rbp)
.LBB29_28:                              # %if.end118
	movq	-56(%rbp), %rax
	cmpq	$0, 64(%rax)
	jne	.LBB29_30
# %bb.29:                               # %if.then122
	movl	$0, -44(%rbp)
	jmp	.LBB29_31
.LBB29_30:                              # %if.else123
	xorl	%eax, %eax
	movq	-56(%rbp), %rcx
	movq	64(%rcx), %rcx
	movl	72(%rcx), %ecx
	cmpl	$0, %ecx
	movl	$1, %ecx
	cmovnel	%ecx, %eax
	movl	%eax, -44(%rbp)
.LBB29_31:                              # %if.end129
	movl	-44(%rbp), %eax
	addl	-48(%rbp), %eax
	movl	%eax, -20(%rbp)
	movl	-20(%rbp), %eax
	movq	-80(%rbp), %rcx
	movl	%eax, 24(%rcx)
.LBB29_32:                              # %if.end132
	movl	-68(%rbp), %eax
	movl	%eax, -4(%rbp)
	movl	-4(%rbp), %eax
	movl	-64(%rbp), %ecx
	cmpl	$0, %ecx
	movl	$24, %ecx
	movl	$7, %edx
	cmovnel	%ecx, %edx
	movl	%edx, -60(%rbp)
	cmpl	%edx, %eax
	jl	.LBB29_34
# %bb.33:                               # %if.then137
	movl	-4(%rbp), %eax
	subl	-60(%rbp), %eax
	movl	%eax, -36(%rbp)
	movl	-60(%rbp), %eax
	movl	%eax, -4(%rbp)
.LBB29_34:                              # %if.end139
	cmpl	$0, -64(%rbp)
	jne	.LBB29_46
# %bb.35:                               # %if.then141
	movl	-4(%rbp), %eax
	movq	%rax, %rcx
	subq	$7, %rcx
	ja	.LBB29_44
# %bb.36:                               # %if.then141
	movq	.LJTI29_0(,%rax,8), %rax
	jmpq	*%rax
.LBB29_37:                              # %sw.bb
	jmp	.LBB29_45
.LBB29_38:                              # %sw.bb142
	movq	-16(%rbp), %rdi
	movq	-32(%rbp), %rdx
	addq	$176, %rdx
	addq	$64, %rdx
	xorl	%esi, %esi
	callq	biari_encode_symbol
	movq	-16(%rbp), %rdi
	movq	-32(%rbp), %rdx
	addq	$176, %rdx
	addq	$80, %rdx
	xorl	%esi, %esi
	callq	biari_encode_symbol
	movq	-16(%rbp), %rdi
	movq	-32(%rbp), %rdx
	addq	$176, %rdx
	addq	$96, %rdx
	xorl	%esi, %esi
	callq	biari_encode_symbol
	jmp	.LBB29_45
.LBB29_39:                              # %sw.bb152
	movq	-16(%rbp), %rdi
	movq	-32(%rbp), %rdx
	addq	$176, %rdx
	addq	$64, %rdx
	xorl	%esi, %esi
	callq	biari_encode_symbol
	movq	-16(%rbp), %rdi
	movq	-32(%rbp), %rdx
	addq	$176, %rdx
	addq	$80, %rdx
	movl	$1, %esi
	callq	biari_encode_symbol
	movq	-16(%rbp), %rdi
	movq	-32(%rbp), %rdx
	addq	$176, %rdx
	addq	$112, %rdx
	movl	$1, %esi
	callq	biari_encode_symbol
	jmp	.LBB29_45
.LBB29_40:                              # %sw.bb162
	movq	-16(%rbp), %rdi
	movq	-32(%rbp), %rdx
	addq	$176, %rdx
	addq	$64, %rdx
	xorl	%esi, %esi
	callq	biari_encode_symbol
	movq	-16(%rbp), %rdi
	movq	-32(%rbp), %rdx
	addq	$176, %rdx
	addq	$80, %rdx
	movl	$1, %esi
	callq	biari_encode_symbol
	movq	-16(%rbp), %rdi
	movq	-32(%rbp), %rdx
	addq	$176, %rdx
	addq	$112, %rdx
	xorl	%esi, %esi
	callq	biari_encode_symbol
	jmp	.LBB29_45
.LBB29_41:                              # %sw.bb172
	movq	-16(%rbp), %rdi
	movq	-32(%rbp), %rdx
	addq	$176, %rdx
	addq	$64, %rdx
	xorl	%esi, %esi
	callq	biari_encode_symbol
	movq	-16(%rbp), %rdi
	movq	-32(%rbp), %rdx
	addq	$176, %rdx
	addq	$80, %rdx
	xorl	%esi, %esi
	callq	biari_encode_symbol
	movq	-16(%rbp), %rdi
	movq	-32(%rbp), %rdx
	addq	$176, %rdx
	addq	$96, %rdx
	movl	$1, %esi
	callq	biari_encode_symbol
	jmp	.LBB29_45
.LBB29_42:                              # %sw.bb182
	movq	-16(%rbp), %rdi
	movq	-32(%rbp), %rdx
	addq	$176, %rdx
	addq	$64, %rdx
	movl	$1, %esi
	callq	biari_encode_symbol
	movq	-16(%rbp), %rdi
	movq	-32(%rbp), %rdx
	addq	$176, %rdx
	addq	$112, %rdx
	xorl	%esi, %esi
	callq	biari_encode_symbol
	jmp	.LBB29_45
.LBB29_43:                              # %sw.bb189
	movq	-16(%rbp), %rdi
	movq	-32(%rbp), %rdx
	addq	$176, %rdx
	addq	$64, %rdx
	movl	$1, %esi
	callq	biari_encode_symbol
	movq	-16(%rbp), %rdi
	movq	-32(%rbp), %rdx
	addq	$176, %rdx
	addq	$112, %rdx
	movl	$1, %esi
	callq	biari_encode_symbol
	jmp	.LBB29_45
.LBB29_44:                              # %sw.default
	movabsq	$.L.str.2, %rdi
	movb	$0, %al
	callq	printf
	movl	$1, %edi
	callq	exit
.LBB29_45:                              # %sw.epilog
	jmp	.LBB29_91
.LBB29_46:                              # %if.else196
	cmpl	$0, -4(%rbp)
	jne	.LBB29_48
# %bb.47:                               # %if.then199
	movq	-16(%rbp), %rdi
	movq	-32(%rbp), %rdx
	addq	$352, %rdx              # imm = 0x160
	movslq	-20(%rbp), %rax
	shlq	$4, %rax
	addq	%rax, %rdx
	xorl	%esi, %esi
	callq	biari_encode_symbol
	jmp	.LBB29_90
.LBB29_48:                              # %if.else204
	cmpl	$2, -4(%rbp)
	jg	.LBB29_53
# %bb.49:                               # %if.then207
	movq	-16(%rbp), %rdi
	movq	-32(%rbp), %rdx
	addq	$352, %rdx              # imm = 0x160
	movslq	-20(%rbp), %rax
	shlq	$4, %rax
	addq	%rax, %rdx
	movl	$1, %esi
	callq	biari_encode_symbol
	movq	-16(%rbp), %rdi
	movq	-32(%rbp), %rdx
	addq	$352, %rdx              # imm = 0x160
	addq	$64, %rdx
	xorl	%esi, %esi
	callq	biari_encode_symbol
	movl	-4(%rbp), %eax
	subl	$1, %eax
	movl	%eax, -40(%rbp)
	cmpl	$0, -40(%rbp)
	je	.LBB29_51
# %bb.50:                               # %if.then217
	movq	-16(%rbp), %rdi
	movq	-32(%rbp), %rdx
	addq	$352, %rdx              # imm = 0x160
	addq	$96, %rdx
	movl	$1, %esi
	callq	biari_encode_symbol
	jmp	.LBB29_52
.LBB29_51:                              # %if.else221
	movq	-16(%rbp), %rdi
	movq	-32(%rbp), %rdx
	addq	$352, %rdx              # imm = 0x160
	addq	$96, %rdx
	xorl	%esi, %esi
	callq	biari_encode_symbol
.LBB29_52:                              # %if.end225
	jmp	.LBB29_89
.LBB29_53:                              # %if.else226
	cmpl	$10, -4(%rbp)
	jg	.LBB29_64
# %bb.54:                               # %if.then229
	movq	-16(%rbp), %rdi
	movq	-32(%rbp), %rdx
	addq	$352, %rdx              # imm = 0x160
	movslq	-20(%rbp), %rax
	shlq	$4, %rax
	addq	%rax, %rdx
	movl	$1, %esi
	callq	biari_encode_symbol
	movq	-16(%rbp), %rdi
	movq	-32(%rbp), %rdx
	addq	$352, %rdx              # imm = 0x160
	addq	$64, %rdx
	movl	$1, %esi
	callq	biari_encode_symbol
	movq	-16(%rbp), %rdi
	movq	-32(%rbp), %rdx
	addq	$352, %rdx              # imm = 0x160
	addq	$80, %rdx
	xorl	%esi, %esi
	callq	biari_encode_symbol
	movl	-4(%rbp), %eax
	subl	$3, %eax
	sarl	$2, %eax
	andl	$1, %eax
	movl	%eax, -40(%rbp)
	cmpl	$0, -40(%rbp)
	je	.LBB29_56
# %bb.55:                               # %if.then242
	movq	-16(%rbp), %rdi
	movq	-32(%rbp), %rdx
	addq	$352, %rdx              # imm = 0x160
	addq	$96, %rdx
	movl	$1, %esi
	callq	biari_encode_symbol
	jmp	.LBB29_57
.LBB29_56:                              # %if.else246
	movq	-16(%rbp), %rdi
	movq	-32(%rbp), %rdx
	addq	$352, %rdx              # imm = 0x160
	addq	$96, %rdx
	xorl	%esi, %esi
	callq	biari_encode_symbol
.LBB29_57:                              # %if.end250
	movl	-4(%rbp), %eax
	subl	$3, %eax
	sarl	$1, %eax
	andl	$1, %eax
	movl	%eax, -40(%rbp)
	cmpl	$0, -40(%rbp)
	je	.LBB29_59
# %bb.58:                               # %if.then255
	movq	-16(%rbp), %rdi
	movq	-32(%rbp), %rdx
	addq	$352, %rdx              # imm = 0x160
	addq	$96, %rdx
	movl	$1, %esi
	callq	biari_encode_symbol
	jmp	.LBB29_60
.LBB29_59:                              # %if.else259
	movq	-16(%rbp), %rdi
	movq	-32(%rbp), %rdx
	addq	$352, %rdx              # imm = 0x160
	addq	$96, %rdx
	xorl	%esi, %esi
	callq	biari_encode_symbol
.LBB29_60:                              # %if.end263
	movl	-4(%rbp), %eax
	subl	$3, %eax
	andl	$1, %eax
	movl	%eax, -40(%rbp)
	cmpl	$0, -40(%rbp)
	je	.LBB29_62
# %bb.61:                               # %if.then267
	movq	-16(%rbp), %rdi
	movq	-32(%rbp), %rdx
	addq	$352, %rdx              # imm = 0x160
	addq	$96, %rdx
	movl	$1, %esi
	callq	biari_encode_symbol
	jmp	.LBB29_63
.LBB29_62:                              # %if.else271
	movq	-16(%rbp), %rdi
	movq	-32(%rbp), %rdx
	addq	$352, %rdx              # imm = 0x160
	addq	$96, %rdx
	xorl	%esi, %esi
	callq	biari_encode_symbol
.LBB29_63:                              # %if.end275
	jmp	.LBB29_88
.LBB29_64:                              # %if.else276
	cmpl	$11, -4(%rbp)
	je	.LBB29_66
# %bb.65:                               # %lor.lhs.false
	cmpl	$22, -4(%rbp)
	jne	.LBB29_70
.LBB29_66:                              # %if.then281
	movq	-16(%rbp), %rdi
	movq	-32(%rbp), %rdx
	addq	$352, %rdx              # imm = 0x160
	movslq	-20(%rbp), %rax
	shlq	$4, %rax
	addq	%rax, %rdx
	movl	$1, %esi
	callq	biari_encode_symbol
	movq	-16(%rbp), %rdi
	movq	-32(%rbp), %rdx
	addq	$352, %rdx              # imm = 0x160
	addq	$64, %rdx
	movl	$1, %esi
	callq	biari_encode_symbol
	movq	-16(%rbp), %rdi
	movq	-32(%rbp), %rdx
	addq	$352, %rdx              # imm = 0x160
	addq	$80, %rdx
	movl	$1, %esi
	callq	biari_encode_symbol
	movq	-16(%rbp), %rdi
	movq	-32(%rbp), %rdx
	addq	$352, %rdx              # imm = 0x160
	addq	$96, %rdx
	movl	$1, %esi
	callq	biari_encode_symbol
	movq	-16(%rbp), %rdi
	movq	-32(%rbp), %rdx
	addq	$352, %rdx              # imm = 0x160
	addq	$96, %rdx
	movl	$1, %esi
	callq	biari_encode_symbol
	cmpl	$11, -4(%rbp)
	jne	.LBB29_68
# %bb.67:                               # %if.then300
	movq	-16(%rbp), %rdi
	movq	-32(%rbp), %rdx
	addq	$352, %rdx              # imm = 0x160
	addq	$96, %rdx
	xorl	%esi, %esi
	callq	biari_encode_symbol
	jmp	.LBB29_69
.LBB29_68:                              # %if.else304
	movq	-16(%rbp), %rdi
	movq	-32(%rbp), %rdx
	addq	$352, %rdx              # imm = 0x160
	addq	$96, %rdx
	movl	$1, %esi
	callq	biari_encode_symbol
.LBB29_69:                              # %if.end308
	jmp	.LBB29_87
.LBB29_70:                              # %if.else309
	cmpl	$22, -4(%rbp)
	jle	.LBB29_72
# %bb.71:                               # %if.then312
	movl	-4(%rbp), %eax
	addl	$-1, %eax
	movl	%eax, -4(%rbp)
.LBB29_72:                              # %if.end313
	movq	-16(%rbp), %rdi
	movq	-32(%rbp), %rdx
	addq	$352, %rdx              # imm = 0x160
	movslq	-20(%rbp), %rax
	shlq	$4, %rax
	addq	%rax, %rdx
	movl	$1, %esi
	callq	biari_encode_symbol
	movq	-16(%rbp), %rdi
	movq	-32(%rbp), %rdx
	addq	$352, %rdx              # imm = 0x160
	addq	$64, %rdx
	movl	$1, %esi
	callq	biari_encode_symbol
	movq	-16(%rbp), %rdi
	movq	-32(%rbp), %rdx
	addq	$352, %rdx              # imm = 0x160
	addq	$80, %rdx
	movl	$1, %esi
	callq	biari_encode_symbol
	movl	-4(%rbp), %eax
	subl	$12, %eax
	sarl	$3, %eax
	andl	$1, %eax
	movl	%eax, -40(%rbp)
	cmpl	$0, -40(%rbp)
	je	.LBB29_74
# %bb.73:                               # %if.then328
	movq	-16(%rbp), %rdi
	movq	-32(%rbp), %rdx
	addq	$352, %rdx              # imm = 0x160
	addq	$96, %rdx
	movl	$1, %esi
	callq	biari_encode_symbol
	jmp	.LBB29_75
.LBB29_74:                              # %if.else332
	movq	-16(%rbp), %rdi
	movq	-32(%rbp), %rdx
	addq	$352, %rdx              # imm = 0x160
	addq	$96, %rdx
	xorl	%esi, %esi
	callq	biari_encode_symbol
.LBB29_75:                              # %if.end336
	movl	-4(%rbp), %eax
	subl	$12, %eax
	sarl	$2, %eax
	andl	$1, %eax
	movl	%eax, -40(%rbp)
	cmpl	$0, -40(%rbp)
	je	.LBB29_77
# %bb.76:                               # %if.then341
	movq	-16(%rbp), %rdi
	movq	-32(%rbp), %rdx
	addq	$352, %rdx              # imm = 0x160
	addq	$96, %rdx
	movl	$1, %esi
	callq	biari_encode_symbol
	jmp	.LBB29_78
.LBB29_77:                              # %if.else345
	movq	-16(%rbp), %rdi
	movq	-32(%rbp), %rdx
	addq	$352, %rdx              # imm = 0x160
	addq	$96, %rdx
	xorl	%esi, %esi
	callq	biari_encode_symbol
.LBB29_78:                              # %if.end349
	movl	-4(%rbp), %eax
	subl	$12, %eax
	sarl	$1, %eax
	andl	$1, %eax
	movl	%eax, -40(%rbp)
	cmpl	$0, -40(%rbp)
	je	.LBB29_80
# %bb.79:                               # %if.then354
	movq	-16(%rbp), %rdi
	movq	-32(%rbp), %rdx
	addq	$352, %rdx              # imm = 0x160
	addq	$96, %rdx
	movl	$1, %esi
	callq	biari_encode_symbol
	jmp	.LBB29_81
.LBB29_80:                              # %if.else358
	movq	-16(%rbp), %rdi
	movq	-32(%rbp), %rdx
	addq	$352, %rdx              # imm = 0x160
	addq	$96, %rdx
	xorl	%esi, %esi
	callq	biari_encode_symbol
.LBB29_81:                              # %if.end362
	movl	-4(%rbp), %eax
	subl	$12, %eax
	andl	$1, %eax
	movl	%eax, -40(%rbp)
	cmpl	$0, -40(%rbp)
	je	.LBB29_83
# %bb.82:                               # %if.then366
	movq	-16(%rbp), %rdi
	movq	-32(%rbp), %rdx
	addq	$352, %rdx              # imm = 0x160
	addq	$96, %rdx
	movl	$1, %esi
	callq	biari_encode_symbol
	jmp	.LBB29_84
.LBB29_83:                              # %if.else370
	movq	-16(%rbp), %rdi
	movq	-32(%rbp), %rdx
	addq	$352, %rdx              # imm = 0x160
	addq	$96, %rdx
	xorl	%esi, %esi
	callq	biari_encode_symbol
.LBB29_84:                              # %if.end374
	cmpl	$22, -4(%rbp)
	jl	.LBB29_86
# %bb.85:                               # %if.then377
	movl	-4(%rbp), %eax
	addl	$1, %eax
	movl	%eax, -4(%rbp)
.LBB29_86:                              # %if.end378
	jmp	.LBB29_87
.LBB29_87:                              # %if.end379
	jmp	.LBB29_88
.LBB29_88:                              # %if.end380
	jmp	.LBB29_89
.LBB29_89:                              # %if.end381
	jmp	.LBB29_90
.LBB29_90:                              # %if.end382
	jmp	.LBB29_91
.LBB29_91:                              # %if.end383
	movl	-4(%rbp), %eax
	cmpl	-60(%rbp), %eax
	jne	.LBB29_101
# %bb.92:                               # %if.then386
	cmpl	$25, -36(%rbp)
	jne	.LBB29_94
# %bb.93:                               # %if.then389
	movq	-16(%rbp), %rdi
	movl	$1, %esi
	callq	biari_encode_symbol_final
	jmp	.LBB29_102
.LBB29_94:                              # %if.end390
	movq	-16(%rbp), %rdi
	xorl	%esi, %esi
	callq	biari_encode_symbol_final
	movl	$8, -20(%rbp)
	movl	-36(%rbp), %eax
	cltd
	movl	$12, %ecx
	idivl	%ecx
	movl	%eax, -4(%rbp)
	movq	-16(%rbp), %rdi
	movl	-4(%rbp), %eax
	movzbl	%al, %eax
	movq	-32(%rbp), %rdx
	addq	$176, %rdx
	movslq	-20(%rbp), %rcx
	shlq	$4, %rcx
	addq	%rcx, %rdx
	movswl	%ax, %esi
	callq	biari_encode_symbol
	movl	-36(%rbp), %eax
	cltd
	movl	$12, %ecx
	idivl	%ecx
	movl	%edx, -36(%rbp)
	movl	-36(%rbp), %eax
	cltd
	movl	$4, %ecx
	idivl	%ecx
	movl	%eax, -4(%rbp)
	movl	$9, -20(%rbp)
	cmpl	$0, -4(%rbp)
	jne	.LBB29_96
# %bb.95:                               # %if.then403
	movq	-16(%rbp), %rdi
	movq	-32(%rbp), %rdx
	addq	$176, %rdx
	movslq	-20(%rbp), %rax
	shlq	$4, %rax
	addq	%rax, %rdx
	xorl	%esi, %esi
	callq	biari_encode_symbol
	jmp	.LBB29_100
.LBB29_96:                              # %if.else409
	movq	-16(%rbp), %rdi
	movq	-32(%rbp), %rdx
	addq	$176, %rdx
	movslq	-20(%rbp), %rax
	shlq	$4, %rax
	addq	%rax, %rdx
	movl	$1, %esi
	callq	biari_encode_symbol
	cmpl	$1, -4(%rbp)
	jne	.LBB29_98
# %bb.97:                               # %if.then417
	movq	-16(%rbp), %rdi
	movq	-32(%rbp), %rdx
	addq	$176, %rdx
	movslq	-20(%rbp), %rax
	shlq	$4, %rax
	addq	%rax, %rdx
	xorl	%esi, %esi
	callq	biari_encode_symbol
	jmp	.LBB29_99
.LBB29_98:                              # %if.else423
	movq	-16(%rbp), %rdi
	movq	-32(%rbp), %rdx
	addq	$176, %rdx
	movslq	-20(%rbp), %rax
	shlq	$4, %rax
	addq	%rax, %rdx
	movl	$1, %esi
	callq	biari_encode_symbol
.LBB29_99:                              # %if.end429
	jmp	.LBB29_100
.LBB29_100:                             # %if.end430
	movl	-36(%rbp), %eax
	cltd
	movl	$4, %ecx
	idivl	%ecx
	movl	%edx, -36(%rbp)
	movl	$10, -20(%rbp)
	movl	-36(%rbp), %eax
	cltd
	movl	$2, %ecx
	idivl	%ecx
	movl	%eax, -4(%rbp)
	movq	-16(%rbp), %rdi
	movl	-4(%rbp), %eax
	movzbl	%al, %eax
	movq	-32(%rbp), %rdx
	addq	$176, %rdx
	movslq	-20(%rbp), %rcx
	shlq	$4, %rcx
	addq	%rcx, %rdx
	movswl	%ax, %esi
	callq	biari_encode_symbol
	movl	-36(%rbp), %eax
	cltd
	movl	$2, %ecx
	idivl	%ecx
	movl	%edx, -4(%rbp)
	movq	-16(%rbp), %rdi
	movl	-4(%rbp), %eax
	movzbl	%al, %eax
	movq	-32(%rbp), %rdx
	addq	$176, %rdx
	movslq	-20(%rbp), %rcx
	shlq	$4, %rcx
	addq	%rcx, %rdx
	movswl	%ax, %esi
	callq	biari_encode_symbol
.LBB29_101:                             # %if.end448
	jmp	.LBB29_102
.LBB29_102:                             # %if.end449
	cmpl	$1450218069, -84(%rbp)  # imm = 0x56709255
	jne	.LBB29_104
.LBB29_103:
	addq	$96, %rsp
	popq	%rbp
	.cfi_def_cfa %rsp, 8
	retq
.LBB29_104:                             # %func_exit
	.cfi_def_cfa %rbp, 16
	callq	detect_breach
	jmp	.LBB29_103
.Lfunc_end29:
	.size	writeMB_typeInfo_CABAC.2, .Lfunc_end29-writeMB_typeInfo_CABAC.2
	.cfi_endproc
	.section	.rodata,"a",@progbits
	.p2align	3
.LJTI29_0:
	.quad	.LBB29_37
	.quad	.LBB29_38
	.quad	.LBB29_39
	.quad	.LBB29_40
	.quad	.LBB29_41
	.quad	.LBB29_41
	.quad	.LBB29_42
	.quad	.LBB29_43
                                        # -- End function
	.text
	.globl	exp_golomb_encode_eq_prob.3 # -- Begin function exp_golomb_encode_eq_prob.3
	.p2align	4, 0x90
	.type	exp_golomb_encode_eq_prob.3,@function
exp_golomb_encode_eq_prob.3:            # @exp_golomb_encode_eq_prob.3
	.cfi_startproc
# %bb.0:                                # %entry
	pushq	%rbp
	.cfi_def_cfa_offset 16
	.cfi_offset %rbp, -16
	movq	%rsp, %rbp
	.cfi_def_cfa_register %rbp
	subq	$32, %rsp
	movl	$2083361850, -20(%rbp)  # imm = 0x7C2D943A
	movq	%rdi, -16(%rbp)
	movl	%esi, -8(%rbp)
	movl	%edx, -4(%rbp)
.LBB30_1:                               # %while.body
                                        # =>This Inner Loop Header: Depth=1
	movl	-8(%rbp), %eax
	movl	-4(%rbp), %ecx
                                        # kill: def $cl killed $ecx
	movl	$1, %edx
	shll	%cl, %edx
	cmpl	%edx, %eax
	jb	.LBB30_3
# %bb.2:                                # %if.then
                                        #   in Loop: Header=BB30_1 Depth=1
	movq	-16(%rbp), %rdi
	movl	$1, %esi
	callq	biari_encode_symbol_eq_prob
	movl	-8(%rbp), %eax
	movl	-4(%rbp), %ecx
                                        # kill: def $cl killed $ecx
	movl	$1, %edx
	shll	%cl, %edx
	subl	%edx, %eax
	movl	%eax, -8(%rbp)
	movl	-4(%rbp), %eax
	addl	$1, %eax
	movl	%eax, -4(%rbp)
	jmp	.LBB30_7
.LBB30_3:                               # %if.else
	movq	-16(%rbp), %rdi
	xorl	%esi, %esi
	callq	biari_encode_symbol_eq_prob
.LBB30_4:                               # %while.cond2
                                        # =>This Inner Loop Header: Depth=1
	movl	-4(%rbp), %eax
	movl	%eax, %ecx
	addl	$-1, %ecx
	movl	%ecx, -4(%rbp)
	cmpl	$0, %eax
	je	.LBB30_6
# %bb.5:                                # %while.body3
                                        #   in Loop: Header=BB30_4 Depth=1
	movq	-16(%rbp), %rdi
	movl	-8(%rbp), %eax
	movl	-4(%rbp), %ecx
                                        # kill: def $cl killed $ecx
	shrl	%cl, %eax
	andl	$1, %eax
	movzbl	%al, %eax
	movswl	%ax, %esi
	callq	biari_encode_symbol_eq_prob
	jmp	.LBB30_4
.LBB30_6:                               # %while.end
	jmp	.LBB30_8
.LBB30_7:                               # %if.end
                                        #   in Loop: Header=BB30_1 Depth=1
	jmp	.LBB30_1
.LBB30_8:                               # %while.end5
	cmpl	$2083361850, -20(%rbp)  # imm = 0x7C2D943A
	jne	.LBB30_10
.LBB30_9:
	addq	$32, %rsp
	popq	%rbp
	.cfi_def_cfa %rsp, 8
	retq
.LBB30_10:                              # %func_exit
	.cfi_def_cfa %rbp, 16
	callq	detect_breach
	jmp	.LBB30_9
.Lfunc_end30:
	.size	exp_golomb_encode_eq_prob.3, .Lfunc_end30-exp_golomb_encode_eq_prob.3
	.cfi_endproc
                                        # -- End function
	.globl	exp_golomb_encode_eq_prob.4 # -- Begin function exp_golomb_encode_eq_prob.4
	.p2align	4, 0x90
	.type	exp_golomb_encode_eq_prob.4,@function
exp_golomb_encode_eq_prob.4:            # @exp_golomb_encode_eq_prob.4
	.cfi_startproc
# %bb.0:                                # %entry
	pushq	%rbp
	.cfi_def_cfa_offset 16
	.cfi_offset %rbp, -16
	movq	%rsp, %rbp
	.cfi_def_cfa_register %rbp
	subq	$32, %rsp
	movl	$1897566028, -20(%rbp)  # imm = 0x711A8F4C
	movq	%rdi, -16(%rbp)
	movl	%esi, -8(%rbp)
	movl	%edx, -4(%rbp)
.LBB31_1:                               # %while.body
                                        # =>This Inner Loop Header: Depth=1
	movl	-8(%rbp), %eax
	movl	-4(%rbp), %ecx
                                        # kill: def $cl killed $ecx
	movl	$1, %edx
	shll	%cl, %edx
	cmpl	%edx, %eax
	jb	.LBB31_3
# %bb.2:                                # %if.then
                                        #   in Loop: Header=BB31_1 Depth=1
	movq	-16(%rbp), %rdi
	movl	$1, %esi
	callq	biari_encode_symbol_eq_prob
	movl	-8(%rbp), %eax
	movl	-4(%rbp), %ecx
                                        # kill: def $cl killed $ecx
	movl	$1, %edx
	shll	%cl, %edx
	subl	%edx, %eax
	movl	%eax, -8(%rbp)
	movl	-4(%rbp), %eax
	addl	$1, %eax
	movl	%eax, -4(%rbp)
	jmp	.LBB31_7
.LBB31_3:                               # %if.else
	movq	-16(%rbp), %rdi
	xorl	%esi, %esi
	callq	biari_encode_symbol_eq_prob
.LBB31_4:                               # %while.cond2
                                        # =>This Inner Loop Header: Depth=1
	movl	-4(%rbp), %eax
	movl	%eax, %ecx
	addl	$-1, %ecx
	movl	%ecx, -4(%rbp)
	cmpl	$0, %eax
	je	.LBB31_6
# %bb.5:                                # %while.body3
                                        #   in Loop: Header=BB31_4 Depth=1
	movq	-16(%rbp), %rdi
	movl	-8(%rbp), %eax
	movl	-4(%rbp), %ecx
                                        # kill: def $cl killed $ecx
	shrl	%cl, %eax
	andl	$1, %eax
	movzbl	%al, %eax
	movswl	%ax, %esi
	callq	biari_encode_symbol_eq_prob
	jmp	.LBB31_4
.LBB31_6:                               # %while.end
	jmp	.LBB31_8
.LBB31_7:                               # %if.end
                                        #   in Loop: Header=BB31_1 Depth=1
	jmp	.LBB31_1
.LBB31_8:                               # %while.end5
	cmpl	$1897566028, -20(%rbp)  # imm = 0x711A8F4C
	jne	.LBB31_10
.LBB31_9:
	addq	$32, %rsp
	popq	%rbp
	.cfi_def_cfa %rsp, 8
	retq
.LBB31_10:                              # %func_exit
	.cfi_def_cfa %rbp, 16
	callq	detect_breach
	jmp	.LBB31_9
.Lfunc_end31:
	.size	exp_golomb_encode_eq_prob.4, .Lfunc_end31-exp_golomb_encode_eq_prob.4
	.cfi_endproc
                                        # -- End function
	.globl	writeB8_typeInfo_CABAC.5 # -- Begin function writeB8_typeInfo_CABAC.5
	.p2align	4, 0x90
	.type	writeB8_typeInfo_CABAC.5,@function
writeB8_typeInfo_CABAC.5:               # @writeB8_typeInfo_CABAC.5
	.cfi_startproc
# %bb.0:                                # %entry
	pushq	%rbp
	.cfi_def_cfa_offset 16
	.cfi_offset %rbp, -16
	movq	%rsp, %rbp
	.cfi_def_cfa_register %rbp
	subq	$48, %rsp
	movl	$1050777808, -32(%rbp)  # imm = 0x3EA198D0
	movq	%rdi, -40(%rbp)
	movq	%rsi, -8(%rbp)
	movq	img, %rax
	cmpl	$1, 24(%rax)
	sete	%al
	andb	$1, %al
	movzbl	%al, %eax
	movl	%eax, -28(%rbp)
	movq	img, %rax
	movq	14160(%rax), %rax
	movq	32(%rax), %rax
	movq	%rax, -16(%rbp)
	movq	-40(%rbp), %rax
	movl	4(%rax), %eax
	movl	%eax, -20(%rbp)
	movl	$0, -44(%rbp)
	cmpl	$0, -28(%rbp)
	jne	.LBB32_8
# %bb.1:                                # %if.then
	movl	-20(%rbp), %eax
	movq	%rax, %rcx
	subq	$3, %rcx
	ja	.LBB32_7
# %bb.2:                                # %if.then
	movq	.LJTI32_0(,%rax,8), %rax
	jmpq	*%rax
.LBB32_3:                               # %sw.bb
	movq	-8(%rbp), %rdi
	movq	-16(%rbp), %rdx
	addq	$528, %rdx              # imm = 0x210
	addq	$16, %rdx
	movl	$1, %esi
	callq	biari_encode_symbol
	jmp	.LBB32_7
.LBB32_4:                               # %sw.bb2
	movq	-8(%rbp), %rdi
	movq	-16(%rbp), %rdx
	addq	$528, %rdx              # imm = 0x210
	addq	$16, %rdx
	xorl	%esi, %esi
	callq	biari_encode_symbol
	movq	-8(%rbp), %rdi
	movq	-16(%rbp), %rdx
	addq	$528, %rdx              # imm = 0x210
	addq	$48, %rdx
	xorl	%esi, %esi
	callq	biari_encode_symbol
	jmp	.LBB32_7
.LBB32_5:                               # %sw.bb9
	movq	-8(%rbp), %rdi
	movq	-16(%rbp), %rdx
	addq	$528, %rdx              # imm = 0x210
	addq	$16, %rdx
	xorl	%esi, %esi
	callq	biari_encode_symbol
	movq	-8(%rbp), %rdi
	movq	-16(%rbp), %rdx
	addq	$528, %rdx              # imm = 0x210
	addq	$48, %rdx
	movl	$1, %esi
	callq	biari_encode_symbol
	movq	-8(%rbp), %rdi
	movq	-16(%rbp), %rdx
	addq	$528, %rdx              # imm = 0x210
	addq	$64, %rdx
	movl	$1, %esi
	callq	biari_encode_symbol
	jmp	.LBB32_7
.LBB32_6:                               # %sw.bb19
	movq	-8(%rbp), %rdi
	movq	-16(%rbp), %rdx
	addq	$528, %rdx              # imm = 0x210
	addq	$16, %rdx
	xorl	%esi, %esi
	callq	biari_encode_symbol
	movq	-8(%rbp), %rdi
	movq	-16(%rbp), %rdx
	addq	$528, %rdx              # imm = 0x210
	addq	$48, %rdx
	movl	$1, %esi
	callq	biari_encode_symbol
	movq	-8(%rbp), %rdi
	movq	-16(%rbp), %rdx
	addq	$528, %rdx              # imm = 0x210
	addq	$64, %rdx
	xorl	%esi, %esi
	callq	biari_encode_symbol
.LBB32_7:                               # %sw.epilog
	jmp	.LBB32_39
.LBB32_8:                               # %if.else
	cmpl	$0, -20(%rbp)
	jne	.LBB32_10
# %bb.9:                                # %if.then31
	movq	-8(%rbp), %rdi
	movq	-16(%rbp), %rdx
	addq	$528, %rdx              # imm = 0x210
	addq	$144, %rdx
	xorl	%esi, %esi
	callq	biari_encode_symbol
	jmp	.LBB32_39
.LBB32_10:                              # %if.else35
	movq	-8(%rbp), %rdi
	movq	-16(%rbp), %rdx
	addq	$528, %rdx              # imm = 0x210
	addq	$144, %rdx
	movl	$1, %esi
	callq	biari_encode_symbol
	movl	-20(%rbp), %eax
	addl	$-1, %eax
	movl	%eax, -20(%rbp)
# %bb.11:                               # %if.end
	cmpl	$2, -20(%rbp)
	jge	.LBB32_16
# %bb.12:                               # %if.then41
	movq	-8(%rbp), %rdi
	movq	-16(%rbp), %rdx
	addq	$528, %rdx              # imm = 0x210
	addq	$144, %rdx
	addq	$16, %rdx
	xorl	%esi, %esi
	callq	biari_encode_symbol
	cmpl	$0, -20(%rbp)
	jne	.LBB32_14
# %bb.13:                               # %if.then47
	movq	-8(%rbp), %rdi
	movq	-16(%rbp), %rdx
	addq	$528, %rdx              # imm = 0x210
	addq	$144, %rdx
	addq	$48, %rdx
	xorl	%esi, %esi
	callq	biari_encode_symbol
	jmp	.LBB32_15
.LBB32_14:                              # %if.else51
	movq	-8(%rbp), %rdi
	movq	-16(%rbp), %rdx
	addq	$528, %rdx              # imm = 0x210
	addq	$144, %rdx
	addq	$48, %rdx
	movl	$1, %esi
	callq	biari_encode_symbol
.LBB32_15:                              # %if.end55
	jmp	.LBB32_38
.LBB32_16:                              # %if.else56
	cmpl	$6, -20(%rbp)
	jge	.LBB32_24
# %bb.17:                               # %if.then59
	movq	-8(%rbp), %rdi
	movq	-16(%rbp), %rdx
	addq	$528, %rdx              # imm = 0x210
	addq	$144, %rdx
	addq	$16, %rdx
	movl	$1, %esi
	callq	biari_encode_symbol
	movq	-8(%rbp), %rdi
	movq	-16(%rbp), %rdx
	addq	$528, %rdx              # imm = 0x210
	addq	$144, %rdx
	addq	$32, %rdx
	xorl	%esi, %esi
	callq	biari_encode_symbol
	movl	-20(%rbp), %eax
	subl	$2, %eax
	sarl	$1, %eax
	andl	$1, %eax
	movl	%eax, -24(%rbp)
	cmpl	$0, -24(%rbp)
	je	.LBB32_19
# %bb.18:                               # %if.then67
	movq	-8(%rbp), %rdi
	movq	-16(%rbp), %rdx
	addq	$528, %rdx              # imm = 0x210
	addq	$144, %rdx
	addq	$48, %rdx
	movl	$1, %esi
	callq	biari_encode_symbol
	jmp	.LBB32_20
.LBB32_19:                              # %if.else71
	movq	-8(%rbp), %rdi
	movq	-16(%rbp), %rdx
	addq	$528, %rdx              # imm = 0x210
	addq	$144, %rdx
	addq	$48, %rdx
	xorl	%esi, %esi
	callq	biari_encode_symbol
.LBB32_20:                              # %if.end75
	movl	-20(%rbp), %eax
	subl	$2, %eax
	andl	$1, %eax
	movl	%eax, -24(%rbp)
	cmpl	$0, -24(%rbp)
	je	.LBB32_22
# %bb.21:                               # %if.then79
	movq	-8(%rbp), %rdi
	movq	-16(%rbp), %rdx
	addq	$528, %rdx              # imm = 0x210
	addq	$144, %rdx
	addq	$48, %rdx
	movl	$1, %esi
	callq	biari_encode_symbol
	jmp	.LBB32_23
.LBB32_22:                              # %if.else83
	movq	-8(%rbp), %rdi
	movq	-16(%rbp), %rdx
	addq	$528, %rdx              # imm = 0x210
	addq	$144, %rdx
	addq	$48, %rdx
	xorl	%esi, %esi
	callq	biari_encode_symbol
.LBB32_23:                              # %if.end87
	jmp	.LBB32_37
.LBB32_24:                              # %if.else88
	movq	-8(%rbp), %rdi
	movq	-16(%rbp), %rdx
	addq	$528, %rdx              # imm = 0x210
	addq	$144, %rdx
	addq	$16, %rdx
	movl	$1, %esi
	callq	biari_encode_symbol
	movq	-8(%rbp), %rdi
	movq	-16(%rbp), %rdx
	addq	$528, %rdx              # imm = 0x210
	addq	$144, %rdx
	addq	$32, %rdx
	movl	$1, %esi
	callq	biari_encode_symbol
	movl	-20(%rbp), %eax
	subl	$6, %eax
	sarl	$2, %eax
	andl	$1, %eax
	movl	%eax, -24(%rbp)
	cmpl	$0, -24(%rbp)
	je	.LBB32_29
# %bb.25:                               # %if.then99
	movq	-8(%rbp), %rdi
	movq	-16(%rbp), %rdx
	addq	$528, %rdx              # imm = 0x210
	addq	$144, %rdx
	addq	$48, %rdx
	movl	$1, %esi
	callq	biari_encode_symbol
	movl	-20(%rbp), %eax
	subl	$6, %eax
	andl	$1, %eax
	movl	%eax, -24(%rbp)
	cmpl	$0, -24(%rbp)
	je	.LBB32_27
# %bb.26:                               # %if.then106
	movq	-8(%rbp), %rdi
	movq	-16(%rbp), %rdx
	addq	$528, %rdx              # imm = 0x210
	addq	$144, %rdx
	addq	$48, %rdx
	movl	$1, %esi
	callq	biari_encode_symbol
	jmp	.LBB32_28
.LBB32_27:                              # %if.else110
	movq	-8(%rbp), %rdi
	movq	-16(%rbp), %rdx
	addq	$528, %rdx              # imm = 0x210
	addq	$144, %rdx
	addq	$48, %rdx
	xorl	%esi, %esi
	callq	biari_encode_symbol
.LBB32_28:                              # %if.end114
	jmp	.LBB32_36
.LBB32_29:                              # %if.else115
	movq	-8(%rbp), %rdi
	movq	-16(%rbp), %rdx
	addq	$528, %rdx              # imm = 0x210
	addq	$144, %rdx
	addq	$48, %rdx
	xorl	%esi, %esi
	callq	biari_encode_symbol
	movl	-20(%rbp), %eax
	subl	$6, %eax
	sarl	$1, %eax
	andl	$1, %eax
	movl	%eax, -24(%rbp)
	cmpl	$0, -24(%rbp)
	je	.LBB32_31
# %bb.30:                               # %if.then123
	movq	-8(%rbp), %rdi
	movq	-16(%rbp), %rdx
	addq	$528, %rdx              # imm = 0x210
	addq	$144, %rdx
	addq	$48, %rdx
	movl	$1, %esi
	callq	biari_encode_symbol
	jmp	.LBB32_32
.LBB32_31:                              # %if.else127
	movq	-8(%rbp), %rdi
	movq	-16(%rbp), %rdx
	addq	$528, %rdx              # imm = 0x210
	addq	$144, %rdx
	addq	$48, %rdx
	xorl	%esi, %esi
	callq	biari_encode_symbol
.LBB32_32:                              # %if.end131
	movl	-20(%rbp), %eax
	subl	$6, %eax
	andl	$1, %eax
	movl	%eax, -24(%rbp)
	cmpl	$0, -24(%rbp)
	je	.LBB32_34
# %bb.33:                               # %if.then135
	movq	-8(%rbp), %rdi
	movq	-16(%rbp), %rdx
	addq	$528, %rdx              # imm = 0x210
	addq	$144, %rdx
	addq	$48, %rdx
	movl	$1, %esi
	callq	biari_encode_symbol
	jmp	.LBB32_35
.LBB32_34:                              # %if.else139
	movq	-8(%rbp), %rdi
	movq	-16(%rbp), %rdx
	addq	$528, %rdx              # imm = 0x210
	addq	$144, %rdx
	addq	$48, %rdx
	xorl	%esi, %esi
	callq	biari_encode_symbol
.LBB32_35:                              # %if.end143
	jmp	.LBB32_36
.LBB32_36:                              # %if.end144
	jmp	.LBB32_37
.LBB32_37:                              # %if.end145
	jmp	.LBB32_38
.LBB32_38:                              # %if.end146
	jmp	.LBB32_39
.LBB32_39:                              # %if.end147
	cmpl	$1050777808, -32(%rbp)  # imm = 0x3EA198D0
	jne	.LBB32_41
.LBB32_40:
	addq	$48, %rsp
	popq	%rbp
	.cfi_def_cfa %rsp, 8
	retq
.LBB32_41:                              # %func_exit
	.cfi_def_cfa %rbp, 16
	callq	detect_breach
	jmp	.LBB32_40
.Lfunc_end32:
	.size	writeB8_typeInfo_CABAC.5, .Lfunc_end32-writeB8_typeInfo_CABAC.5
	.cfi_endproc
	.section	.rodata,"a",@progbits
	.p2align	3
.LJTI32_0:
	.quad	.LBB32_3
	.quad	.LBB32_4
	.quad	.LBB32_5
	.quad	.LBB32_6
                                        # -- End function
	.text
	.globl	unary_bin_max_encode.6  # -- Begin function unary_bin_max_encode.6
	.p2align	4, 0x90
	.type	unary_bin_max_encode.6,@function
unary_bin_max_encode.6:                 # @unary_bin_max_encode.6
	.cfi_startproc
# %bb.0:                                # %entry
	pushq	%rbp
	.cfi_def_cfa_offset 16
	.cfi_offset %rbp, -16
	movq	%rsp, %rbp
	.cfi_def_cfa_register %rbp
	subq	$48, %rsp
	movl	$1528176514, -32(%rbp)  # imm = 0x5B161F82
	movq	%rdi, -16(%rbp)
	movl	%esi, -4(%rbp)
	movq	%rdx, -24(%rbp)
	movl	%ecx, -36(%rbp)
	movl	%r8d, -28(%rbp)
	cmpl	$0, -4(%rbp)
	jne	.LBB33_2
# %bb.1:                                # %if.then
	movq	-16(%rbp), %rdi
	movq	-24(%rbp), %rdx
	xorl	%esi, %esi
	callq	biari_encode_symbol
	jmp	.LBB33_9
.LBB33_2:                               # %if.else
	movq	-16(%rbp), %rdi
	movq	-24(%rbp), %rdx
	movl	$1, %esi
	callq	biari_encode_symbol
	movl	-4(%rbp), %eax
	movl	%eax, -8(%rbp)
	movq	-24(%rbp), %rax
	movslq	-36(%rbp), %rcx
	shlq	$4, %rcx
	addq	%rcx, %rax
	movq	%rax, -48(%rbp)
.LBB33_3:                               # %while.cond
                                        # =>This Inner Loop Header: Depth=1
	movl	-8(%rbp), %eax
	addl	$-1, %eax
	movl	%eax, -8(%rbp)
	cmpl	$0, %eax
	jbe	.LBB33_5
# %bb.4:                                # %while.body
                                        #   in Loop: Header=BB33_3 Depth=1
	movq	-16(%rbp), %rdi
	movq	-48(%rbp), %rdx
	movl	$1, %esi
	callq	biari_encode_symbol
	jmp	.LBB33_3
.LBB33_5:                               # %while.end
	movl	-4(%rbp), %eax
	cmpl	-28(%rbp), %eax
	jae	.LBB33_7
# %bb.6:                                # %if.then3
	movq	-16(%rbp), %rdi
	movq	-48(%rbp), %rdx
	xorl	%esi, %esi
	callq	biari_encode_symbol
.LBB33_7:                               # %if.end
	jmp	.LBB33_8
.LBB33_8:                               # %if.end4
	jmp	.LBB33_9
.LBB33_9:                               # %return
	cmpl	$1528176514, -32(%rbp)  # imm = 0x5B161F82
	jne	.LBB33_11
.LBB33_10:
	addq	$48, %rsp
	popq	%rbp
	.cfi_def_cfa %rsp, 8
	retq
.LBB33_11:                              # %func_exit
	.cfi_def_cfa %rbp, 16
	callq	detect_breach
	jmp	.LBB33_10
.Lfunc_end33:
	.size	unary_bin_max_encode.6, .Lfunc_end33-unary_bin_max_encode.6
	.cfi_endproc
                                        # -- End function
	.globl	writeMB_skip_flagInfo_CABAC.7 # -- Begin function writeMB_skip_flagInfo_CABAC.7
	.p2align	4, 0x90
	.type	writeMB_skip_flagInfo_CABAC.7,@function
writeMB_skip_flagInfo_CABAC.7:          # @writeMB_skip_flagInfo_CABAC.7
	.cfi_startproc
# %bb.0:                                # %entry
	pushq	%rbp
	.cfi_def_cfa_offset 16
	.cfi_offset %rbp, -16
	movq	%rsp, %rbp
	.cfi_def_cfa_register %rbp
	subq	$64, %rsp
	movl	$2095604703, -60(%rbp)  # imm = 0x7CE863DF
	movq	%rdi, -32(%rbp)
	movq	%rsi, -56(%rbp)
	movq	img, %rax
	cmpl	$1, 24(%rax)
	sete	%al
	andb	$1, %al
	movzbl	%al, %eax
	movl	%eax, -64(%rbp)
	movq	img, %rax
	movq	14160(%rax), %rax
	movq	32(%rax), %rax
	movq	%rax, -48(%rbp)
	movq	img, %rax
	movq	14168(%rax), %rax
	movq	img, %rcx
	movslq	12(%rcx), %rcx
	imulq	$632, %rcx, %rcx        # imm = 0x278
	addq	%rcx, %rax
	movq	%rax, -24(%rbp)
	movq	-32(%rbp), %rax
	movl	4(%rax), %eax
	movl	%eax, -36(%rbp)
	cmpl	$0, -64(%rbp)
	je	.LBB34_14
# %bb.1:                                # %if.then
	movq	-24(%rbp), %rax
	cmpq	$0, 56(%rax)
	jne	.LBB34_3
# %bb.2:                                # %if.then3
	movl	$0, -8(%rbp)
	jmp	.LBB34_4
.LBB34_3:                               # %if.else
	xorl	%eax, %eax
	movq	-24(%rbp), %rcx
	movq	56(%rcx), %rcx
	movl	624(%rcx), %ecx
	cmpl	$0, %ecx
	movl	$1, %ecx
	cmovel	%eax, %ecx
	movl	%ecx, -8(%rbp)
.LBB34_4:                               # %if.end
	movq	-24(%rbp), %rax
	cmpq	$0, 64(%rax)
	jne	.LBB34_6
# %bb.5:                                # %if.then9
	movl	$0, -12(%rbp)
	jmp	.LBB34_7
.LBB34_6:                               # %if.else10
	xorl	%eax, %eax
	movq	-24(%rbp), %rcx
	movq	64(%rcx), %rcx
	movl	624(%rcx), %ecx
	cmpl	$0, %ecx
	movl	$1, %ecx
	cmovel	%eax, %ecx
	movl	%ecx, -12(%rbp)
.LBB34_7:                               # %if.end16
	movl	-12(%rbp), %eax
	addl	$7, %eax
	addl	-8(%rbp), %eax
	movl	%eax, -4(%rbp)
	movq	-32(%rbp), %rax
	cmpl	$0, 4(%rax)
	jne	.LBB34_10
# %bb.8:                                # %land.lhs.true
	movq	-32(%rbp), %rax
	cmpl	$0, 8(%rax)
	jne	.LBB34_10
# %bb.9:                                # %if.then23
	movq	-56(%rbp), %rdi
	movq	-48(%rbp), %rdx
	addq	$352, %rdx              # imm = 0x160
	movslq	-4(%rbp), %rax
	shlq	$4, %rax
	addq	%rax, %rdx
	movl	$1, %esi
	callq	biari_encode_symbol
	jmp	.LBB34_11
.LBB34_10:                              # %if.else27
	movq	-56(%rbp), %rdi
	movq	-48(%rbp), %rdx
	addq	$352, %rdx              # imm = 0x160
	movslq	-4(%rbp), %rax
	shlq	$4, %rax
	addq	%rax, %rdx
	xorl	%esi, %esi
	callq	biari_encode_symbol
.LBB34_11:                              # %if.end32
	xorl	%eax, %eax
	movq	-32(%rbp), %rcx
	cmpl	$0, 4(%rcx)
	jne	.LBB34_13
# %bb.12:                               # %land.rhs
	movq	-32(%rbp), %rax
	cmpl	$0, 8(%rax)
	sete	%al
.LBB34_13:                              # %land.end
	xorl	%ecx, %ecx
	testb	$1, %al
	movl	$1, %eax
	cmovnel	%ecx, %eax
	movq	-24(%rbp), %rcx
	movl	%eax, 624(%rcx)
	jmp	.LBB34_24
.LBB34_14:                              # %if.else41
	movq	-24(%rbp), %rax
	cmpq	$0, 56(%rax)
	jne	.LBB34_16
# %bb.15:                               # %if.then45
	movl	$0, -8(%rbp)
	jmp	.LBB34_17
.LBB34_16:                              # %if.else46
	xorl	%eax, %eax
	movq	-24(%rbp), %rcx
	movq	56(%rcx), %rcx
	movl	624(%rcx), %ecx
	cmpl	$0, %ecx
	movl	$1, %ecx
	cmovnel	%ecx, %eax
	movl	%eax, -8(%rbp)
.LBB34_17:                              # %if.end52
	movq	-24(%rbp), %rax
	cmpq	$0, 64(%rax)
	jne	.LBB34_19
# %bb.18:                               # %if.then56
	movl	$0, -12(%rbp)
	jmp	.LBB34_20
.LBB34_19:                              # %if.else57
	xorl	%eax, %eax
	movq	-24(%rbp), %rcx
	movq	64(%rcx), %rcx
	movl	624(%rcx), %ecx
	cmpl	$0, %ecx
	movl	$1, %ecx
	cmovnel	%ecx, %eax
	movl	%eax, -12(%rbp)
.LBB34_20:                              # %if.end63
	movl	-12(%rbp), %eax
	addl	-8(%rbp), %eax
	movl	%eax, -4(%rbp)
	cmpl	$0, -36(%rbp)
	jne	.LBB34_22
# %bb.21:                               # %if.then67
	movq	-56(%rbp), %rdi
	movq	-48(%rbp), %rdx
	addq	$176, %rdx
	movslq	-4(%rbp), %rax
	shlq	$4, %rax
	addq	%rax, %rdx
	movl	$1, %esi
	callq	biari_encode_symbol
	jmp	.LBB34_23
.LBB34_22:                              # %if.else72
	movq	-56(%rbp), %rdi
	movq	-48(%rbp), %rdx
	addq	$176, %rdx
	movslq	-4(%rbp), %rax
	shlq	$4, %rax
	addq	%rax, %rdx
	xorl	%esi, %esi
	callq	biari_encode_symbol
.LBB34_23:                              # %if.end77
	xorl	%eax, %eax
	movl	-36(%rbp), %ecx
	cmpl	$0, %ecx
	movl	$1, %ecx
	cmovel	%eax, %ecx
	movq	-24(%rbp), %rax
	movl	%ecx, 624(%rax)
.LBB34_24:                              # %if.end82
	movl	-4(%rbp), %eax
	movq	-32(%rbp), %rcx
	movl	%eax, 24(%rcx)
	cmpl	$2095604703, -60(%rbp)  # imm = 0x7CE863DF
	jne	.LBB34_26
.LBB34_25:
	addq	$64, %rsp
	popq	%rbp
	.cfi_def_cfa %rsp, 8
	retq
.LBB34_26:                              # %func_exit
	.cfi_def_cfa %rbp, 16
	callq	detect_breach
	jmp	.LBB34_25
.Lfunc_end34:
	.size	writeMB_skip_flagInfo_CABAC.7, .Lfunc_end34-writeMB_skip_flagInfo_CABAC.7
	.cfi_endproc
                                        # -- End function
	.globl	writeMB_skip_flagInfo_CABAC.8 # -- Begin function writeMB_skip_flagInfo_CABAC.8
	.p2align	4, 0x90
	.type	writeMB_skip_flagInfo_CABAC.8,@function
writeMB_skip_flagInfo_CABAC.8:          # @writeMB_skip_flagInfo_CABAC.8
	.cfi_startproc
# %bb.0:                                # %entry
	pushq	%rbp
	.cfi_def_cfa_offset 16
	.cfi_offset %rbp, -16
	movq	%rsp, %rbp
	.cfi_def_cfa_register %rbp
	subq	$64, %rsp
	movl	$1759126265, -60(%rbp)  # imm = 0x68DA22F9
	movq	%rdi, -32(%rbp)
	movq	%rsi, -56(%rbp)
	movq	img, %rax
	cmpl	$1, 24(%rax)
	sete	%al
	andb	$1, %al
	movzbl	%al, %eax
	movl	%eax, -64(%rbp)
	movq	img, %rax
	movq	14160(%rax), %rax
	movq	32(%rax), %rax
	movq	%rax, -48(%rbp)
	movq	img, %rax
	movq	14168(%rax), %rax
	movq	img, %rcx
	movslq	12(%rcx), %rcx
	imulq	$632, %rcx, %rcx        # imm = 0x278
	addq	%rcx, %rax
	movq	%rax, -24(%rbp)
	movq	-32(%rbp), %rax
	movl	4(%rax), %eax
	movl	%eax, -36(%rbp)
	cmpl	$0, -64(%rbp)
	je	.LBB35_14
# %bb.1:                                # %if.then
	movq	-24(%rbp), %rax
	cmpq	$0, 56(%rax)
	jne	.LBB35_3
# %bb.2:                                # %if.then3
	movl	$0, -12(%rbp)
	jmp	.LBB35_4
.LBB35_3:                               # %if.else
	xorl	%eax, %eax
	movq	-24(%rbp), %rcx
	movq	56(%rcx), %rcx
	movl	624(%rcx), %ecx
	cmpl	$0, %ecx
	movl	$1, %ecx
	cmovel	%eax, %ecx
	movl	%ecx, -12(%rbp)
.LBB35_4:                               # %if.end
	movq	-24(%rbp), %rax
	cmpq	$0, 64(%rax)
	jne	.LBB35_6
# %bb.5:                                # %if.then9
	movl	$0, -8(%rbp)
	jmp	.LBB35_7
.LBB35_6:                               # %if.else10
	xorl	%eax, %eax
	movq	-24(%rbp), %rcx
	movq	64(%rcx), %rcx
	movl	624(%rcx), %ecx
	cmpl	$0, %ecx
	movl	$1, %ecx
	cmovel	%eax, %ecx
	movl	%ecx, -8(%rbp)
.LBB35_7:                               # %if.end16
	movl	-8(%rbp), %eax
	addl	$7, %eax
	addl	-12(%rbp), %eax
	movl	%eax, -4(%rbp)
	movq	-32(%rbp), %rax
	cmpl	$0, 4(%rax)
	jne	.LBB35_10
# %bb.8:                                # %land.lhs.true
	movq	-32(%rbp), %rax
	cmpl	$0, 8(%rax)
	jne	.LBB35_10
# %bb.9:                                # %if.then23
	movq	-56(%rbp), %rdi
	movq	-48(%rbp), %rdx
	addq	$352, %rdx              # imm = 0x160
	movslq	-4(%rbp), %rax
	shlq	$4, %rax
	addq	%rax, %rdx
	movl	$1, %esi
	callq	biari_encode_symbol
	jmp	.LBB35_11
.LBB35_10:                              # %if.else27
	movq	-56(%rbp), %rdi
	movq	-48(%rbp), %rdx
	addq	$352, %rdx              # imm = 0x160
	movslq	-4(%rbp), %rax
	shlq	$4, %rax
	addq	%rax, %rdx
	xorl	%esi, %esi
	callq	biari_encode_symbol
.LBB35_11:                              # %if.end32
	xorl	%eax, %eax
	movq	-32(%rbp), %rcx
	cmpl	$0, 4(%rcx)
	jne	.LBB35_13
# %bb.12:                               # %land.rhs
	movq	-32(%rbp), %rax
	cmpl	$0, 8(%rax)
	sete	%al
.LBB35_13:                              # %land.end
	xorl	%ecx, %ecx
	testb	$1, %al
	movl	$1, %eax
	cmovnel	%ecx, %eax
	movq	-24(%rbp), %rcx
	movl	%eax, 624(%rcx)
	jmp	.LBB35_24
.LBB35_14:                              # %if.else41
	movq	-24(%rbp), %rax
	cmpq	$0, 56(%rax)
	jne	.LBB35_16
# %bb.15:                               # %if.then45
	movl	$0, -12(%rbp)
	jmp	.LBB35_17
.LBB35_16:                              # %if.else46
	xorl	%eax, %eax
	movq	-24(%rbp), %rcx
	movq	56(%rcx), %rcx
	movl	624(%rcx), %ecx
	cmpl	$0, %ecx
	movl	$1, %ecx
	cmovnel	%ecx, %eax
	movl	%eax, -12(%rbp)
.LBB35_17:                              # %if.end52
	movq	-24(%rbp), %rax
	cmpq	$0, 64(%rax)
	jne	.LBB35_19
# %bb.18:                               # %if.then56
	movl	$0, -8(%rbp)
	jmp	.LBB35_20
.LBB35_19:                              # %if.else57
	xorl	%eax, %eax
	movq	-24(%rbp), %rcx
	movq	64(%rcx), %rcx
	movl	624(%rcx), %ecx
	cmpl	$0, %ecx
	movl	$1, %ecx
	cmovnel	%ecx, %eax
	movl	%eax, -8(%rbp)
.LBB35_20:                              # %if.end63
	movl	-8(%rbp), %eax
	addl	-12(%rbp), %eax
	movl	%eax, -4(%rbp)
	cmpl	$0, -36(%rbp)
	jne	.LBB35_22
# %bb.21:                               # %if.then67
	movq	-56(%rbp), %rdi
	movq	-48(%rbp), %rdx
	addq	$176, %rdx
	movslq	-4(%rbp), %rax
	shlq	$4, %rax
	addq	%rax, %rdx
	movl	$1, %esi
	callq	biari_encode_symbol
	jmp	.LBB35_23
.LBB35_22:                              # %if.else72
	movq	-56(%rbp), %rdi
	movq	-48(%rbp), %rdx
	addq	$176, %rdx
	movslq	-4(%rbp), %rax
	shlq	$4, %rax
	addq	%rax, %rdx
	xorl	%esi, %esi
	callq	biari_encode_symbol
.LBB35_23:                              # %if.end77
	xorl	%eax, %eax
	movl	-36(%rbp), %ecx
	cmpl	$0, %ecx
	movl	$1, %ecx
	cmovel	%eax, %ecx
	movq	-24(%rbp), %rax
	movl	%ecx, 624(%rax)
.LBB35_24:                              # %if.end82
	movl	-4(%rbp), %eax
	movq	-32(%rbp), %rcx
	movl	%eax, 24(%rcx)
	cmpl	$1759126265, -60(%rbp)  # imm = 0x68DA22F9
	jne	.LBB35_26
.LBB35_25:
	addq	$64, %rsp
	popq	%rbp
	.cfi_def_cfa %rsp, 8
	retq
.LBB35_26:                              # %func_exit
	.cfi_def_cfa %rbp, 16
	callq	detect_breach
	jmp	.LBB35_25
.Lfunc_end35:
	.size	writeMB_skip_flagInfo_CABAC.8, .Lfunc_end35-writeMB_skip_flagInfo_CABAC.8
	.cfi_endproc
                                        # -- End function
	.globl	write_and_store_CBP_block_bit.9 # -- Begin function write_and_store_CBP_block_bit.9
	.p2align	4, 0x90
	.type	write_and_store_CBP_block_bit.9,@function
write_and_store_CBP_block_bit.9:        # @write_and_store_CBP_block_bit.9
	.cfi_startproc
# %bb.0:                                # %entry
	pushq	%rbp
	.cfi_def_cfa_offset 16
	.cfi_offset %rbp, -16
	movq	%rsp, %rbp
	.cfi_def_cfa_register %rbp
	subq	$144, %rsp
	movl	$197728497, -84(%rbp)   # imm = 0xBC918F1
	movq	%rdi, -32(%rbp)
	movq	%rsi, -144(%rbp)
	movl	%edx, -4(%rbp)
	movl	%ecx, -68(%rbp)
	cmpl	$1, -4(%rbp)
	movb	$1, %cl
	je	.LBB36_5
# %bb.1:                                # %lor.lhs.false
	cmpl	$2, -4(%rbp)
	movb	$1, %cl
	je	.LBB36_5
# %bb.2:                                # %lor.lhs.false2
	cmpl	$3, -4(%rbp)
	movb	$1, %cl
	je	.LBB36_5
# %bb.3:                                # %lor.lhs.false4
	cmpl	$4, -4(%rbp)
	movb	$1, %cl
	je	.LBB36_5
# %bb.4:                                # %lor.rhs
	cmpl	$5, -4(%rbp)
	sete	%cl
.LBB36_5:                               # %lor.end
	xorl	%eax, %eax
	andb	$1, %cl
	movzbl	%cl, %ecx
	movl	%ecx, -20(%rbp)
	cmpl	$0, -4(%rbp)
	sete	%cl
	andb	$1, %cl
	movzbl	%cl, %ecx
	movl	%ecx, -40(%rbp)
	cmpl	$7, -4(%rbp)
	jne	.LBB36_7
# %bb.6:                                # %land.rhs
	movq	img, %rax
	cmpl	$0, 84(%rax)
	setne	%al
	xorb	$-1, %al
.LBB36_7:                               # %land.end
	xorl	%ecx, %ecx
	andb	$1, %al
	movzbl	%al, %eax
	movl	%eax, -24(%rbp)
	cmpl	$7, -4(%rbp)
	jne	.LBB36_9
# %bb.8:                                # %land.rhs12
	movq	img, %rax
	cmpl	$0, 84(%rax)
	setne	%cl
.LBB36_9:                               # %land.end15
	andb	$1, %cl
	movzbl	%cl, %eax
	movl	%eax, -48(%rbp)
	cmpl	$6, -4(%rbp)
	movb	$1, %cl
	je	.LBB36_12
# %bb.10:                               # %lor.lhs.false19
	cmpl	$8, -4(%rbp)
	movb	$1, %cl
	je	.LBB36_12
# %bb.11:                               # %lor.rhs22
	cmpl	$9, -4(%rbp)
	sete	%cl
.LBB36_12:                              # %lor.end25
	xorl	%eax, %eax
	andb	$1, %cl
	movzbl	%cl, %ecx
	movl	%ecx, -76(%rbp)
	cmpl	$0, -76(%rbp)
	je	.LBB36_14
# %bb.13:                               # %land.rhs28
	movq	img, %rax
	cmpl	$0, 84(%rax)
	setne	%al
	xorb	$-1, %al
.LBB36_14:                              # %land.end32
	xorl	%ecx, %ecx
	andb	$1, %al
	movzbl	%al, %eax
	movl	%eax, -52(%rbp)
	cmpl	$0, -76(%rbp)
	je	.LBB36_16
# %bb.15:                               # %land.rhs35
	movq	img, %rax
	cmpl	$0, 84(%rax)
	setne	%cl
.LBB36_16:                              # %land.end38
	andb	$1, %cl
	movzbl	%cl, %eax
	movl	%eax, -56(%rbp)
	cmpl	$0, -20(%rbp)
	jne	.LBB36_19
# %bb.17:                               # %lor.lhs.false41
	cmpl	$0, -24(%rbp)
	jne	.LBB36_19
# %bb.18:                               # %lor.lhs.false43
	cmpl	$0, -48(%rbp)
	je	.LBB36_20
.LBB36_19:                              # %cond.true
	movq	img, %rax
	movl	76(%rax), %eax
	jmp	.LBB36_21
.LBB36_20:                              # %cond.false
	xorl	%eax, %eax
	jmp	.LBB36_21
.LBB36_21:                              # %cond.end
	movl	%eax, -16(%rbp)
	cmpl	$0, -20(%rbp)
	jne	.LBB36_24
# %bb.22:                               # %lor.lhs.false46
	cmpl	$0, -24(%rbp)
	jne	.LBB36_24
# %bb.23:                               # %lor.lhs.false48
	cmpl	$0, -48(%rbp)
	je	.LBB36_25
.LBB36_24:                              # %cond.true50
	movq	img, %rax
	movl	72(%rax), %eax
	jmp	.LBB36_26
.LBB36_25:                              # %cond.false51
	xorl	%eax, %eax
	jmp	.LBB36_26
.LBB36_26:                              # %cond.end52
	movl	%eax, -12(%rbp)
	cmpl	$0, -40(%rbp)
	je	.LBB36_28
# %bb.27:                               # %cond.true55
	xorl	%eax, %eax
	jmp	.LBB36_38
.LBB36_28:                              # %cond.false56
	cmpl	$0, -20(%rbp)
	je	.LBB36_30
# %bb.29:                               # %cond.true58
	movl	$1, %eax
	jmp	.LBB36_37
.LBB36_30:                              # %cond.false59
	cmpl	$0, -52(%rbp)
	je	.LBB36_32
# %bb.31:                               # %cond.true61
	movl	$17, %eax
	jmp	.LBB36_36
.LBB36_32:                              # %cond.false62
	cmpl	$0, -56(%rbp)
	je	.LBB36_34
# %bb.33:                               # %cond.true64
	movl	$18, %eax
	jmp	.LBB36_35
.LBB36_34:                              # %cond.false65
	movl	-24(%rbp), %eax
	cmpl	$0, %eax
	movl	$19, %ecx
	movl	$23, %eax
	cmovnel	%ecx, %eax
.LBB36_35:                              # %cond.end68
.LBB36_36:                              # %cond.end70
.LBB36_37:                              # %cond.end72
.LBB36_38:                              # %cond.end74
	xorl	%ecx, %ecx
	movl	%eax, -8(%rbp)
	movq	img, %rax
	movl	80(%rax), %eax
	cmpl	$0, %eax
	movl	$1, %eax
	cmovnel	%eax, %ecx
	movl	%ecx, -72(%rbp)
	movl	-72(%rbp), %eax
	movl	%eax, -60(%rbp)
	movl	-72(%rbp), %eax
	movl	%eax, -64(%rbp)
	movl	$0, -44(%rbp)
	movl	$0, -36(%rbp)
	cmpl	$0, -20(%rbp)
	jne	.LBB36_40
# %bb.39:                               # %lor.lhs.false79
	cmpl	$0, -40(%rbp)
	je	.LBB36_47
.LBB36_40:                              # %if.then
	movq	img, %rax
	movl	12(%rax), %edi
	movl	-12(%rbp), %esi
	movl	-16(%rbp), %edx
	movl	$4294967295, %ecx       # imm = 0xFFFFFFFF
	xorl	%r8d, %r8d
	leaq	-136(%rbp), %r9
	callq	getLuma4x4Neighbour
	movq	img, %rax
	movl	12(%rax), %edi
	movl	-12(%rbp), %esi
	movl	-16(%rbp), %edx
	movl	$0, %ecx
	movl	$4294967295, %r8d       # imm = 0xFFFFFFFF
	leaq	-112(%rbp), %r9
	callq	getLuma4x4Neighbour
	cmpl	$0, -20(%rbp)
	je	.LBB36_46
# %bb.41:                               # %if.then83
	cmpl	$0, -136(%rbp)
	je	.LBB36_43
# %bb.42:                               # %if.then85
	movl	-124(%rbp), %eax
	shll	$2, %eax
	addl	-128(%rbp), %eax
	movl	%eax, -44(%rbp)
.LBB36_43:                              # %if.end
	cmpl	$0, -112(%rbp)
	je	.LBB36_45
# %bb.44:                               # %if.then88
	movl	-100(%rbp), %eax
	shll	$2, %eax
	addl	-104(%rbp), %eax
	movl	%eax, -36(%rbp)
.LBB36_45:                              # %if.end93
	jmp	.LBB36_46
.LBB36_46:                              # %if.end94
	jmp	.LBB36_55
.LBB36_47:                              # %if.else
	movq	img, %rax
	movl	12(%rax), %edi
	movl	-12(%rbp), %esi
	movl	-16(%rbp), %edx
	movl	$4294967295, %ecx       # imm = 0xFFFFFFFF
	xorl	%r8d, %r8d
	leaq	-136(%rbp), %r9
	callq	getChroma4x4Neighbour
	movq	img, %rax
	movl	12(%rax), %edi
	movl	-12(%rbp), %esi
	movl	-16(%rbp), %edx
	movl	$0, %ecx
	movl	$4294967295, %r8d       # imm = 0xFFFFFFFF
	leaq	-112(%rbp), %r9
	callq	getChroma4x4Neighbour
	cmpl	$0, -24(%rbp)
	jne	.LBB36_49
# %bb.48:                               # %lor.lhs.false98
	cmpl	$0, -48(%rbp)
	je	.LBB36_54
.LBB36_49:                              # %if.then100
	cmpl	$0, -136(%rbp)
	je	.LBB36_51
# %bb.50:                               # %if.then103
	movl	-124(%rbp), %eax
	shll	$1, %eax
	addl	-128(%rbp), %eax
	movl	%eax, -44(%rbp)
.LBB36_51:                              # %if.end108
	cmpl	$0, -112(%rbp)
	je	.LBB36_53
# %bb.52:                               # %if.then111
	movl	-100(%rbp), %eax
	shll	$1, %eax
	addl	-104(%rbp), %eax
	movl	%eax, -36(%rbp)
.LBB36_53:                              # %if.end116
	jmp	.LBB36_54
.LBB36_54:                              # %if.end117
	jmp	.LBB36_55
.LBB36_55:                              # %if.end118
	cmpl	$0, -40(%rbp)
	je	.LBB36_57
# %bb.56:                               # %cond.true120
	xorl	%eax, %eax
	jmp	.LBB36_70
.LBB36_57:                              # %cond.false121
	cmpl	$0, -20(%rbp)
	je	.LBB36_59
# %bb.58:                               # %cond.true123
	movl	-16(%rbp), %eax
	shll	$2, %eax
	addl	$1, %eax
	addl	-12(%rbp), %eax
	jmp	.LBB36_69
.LBB36_59:                              # %cond.false127
	cmpl	$0, -52(%rbp)
	je	.LBB36_61
# %bb.60:                               # %cond.true129
	movl	$17, %eax
	jmp	.LBB36_68
.LBB36_61:                              # %cond.false130
	cmpl	$0, -56(%rbp)
	je	.LBB36_63
# %bb.62:                               # %cond.true132
	movl	$18, %eax
	jmp	.LBB36_67
.LBB36_63:                              # %cond.false133
	cmpl	$0, -24(%rbp)
	je	.LBB36_65
# %bb.64:                               # %cond.true135
	movl	-16(%rbp), %eax
	shll	$1, %eax
	addl	$19, %eax
	addl	-12(%rbp), %eax
	jmp	.LBB36_66
.LBB36_65:                              # %cond.false139
	movl	-16(%rbp), %eax
	shll	$1, %eax
	addl	$23, %eax
	addl	-12(%rbp), %eax
.LBB36_66:                              # %cond.end143
.LBB36_67:                              # %cond.end145
.LBB36_68:                              # %cond.end147
.LBB36_69:                              # %cond.end149
.LBB36_70:                              # %cond.end151
	movl	%eax, -8(%rbp)
	cmpl	$0, -68(%rbp)
	je	.LBB36_81
# %bb.71:                               # %if.then154
	cmpl	$2, -4(%rbp)
	jne	.LBB36_73
# %bb.72:                               # %if.then157
	movl	-8(%rbp), %ecx
                                        # kill: def $cl killed $ecx
	movl	$1, %eax
	movl	$1, %edx
	shll	%cl, %edx
	movslq	%edx, %rcx
	movq	-32(%rbp), %rdx
	orq	504(%rdx), %rcx
	movq	%rcx, 504(%rdx)
	movl	-8(%rbp), %ecx
	addl	$1, %ecx
                                        # kill: def $cl killed $ecx
	movl	$1, %edx
	shll	%cl, %edx
	movslq	%edx, %rcx
	movq	-32(%rbp), %rdx
	orq	504(%rdx), %rcx
	movq	%rcx, 504(%rdx)
	movl	-8(%rbp), %ecx
	addl	$4, %ecx
                                        # kill: def $cl killed $ecx
	movl	$1, %edx
	shll	%cl, %edx
	movslq	%edx, %rcx
	movq	-32(%rbp), %rdx
	orq	504(%rdx), %rcx
	movq	%rcx, 504(%rdx)
	movl	-8(%rbp), %ecx
	addl	$5, %ecx
                                        # kill: def $cl killed $ecx
	shll	%cl, %eax
	cltq
	movq	-32(%rbp), %rcx
	orq	504(%rcx), %rax
	movq	%rax, 504(%rcx)
	jmp	.LBB36_80
.LBB36_73:                              # %if.else174
	cmpl	$3, -4(%rbp)
	jne	.LBB36_75
# %bb.74:                               # %if.then177
	movl	-8(%rbp), %ecx
                                        # kill: def $cl killed $ecx
	movl	$1, %eax
	movl	$1, %edx
	shll	%cl, %edx
	movslq	%edx, %rcx
	movq	-32(%rbp), %rdx
	orq	504(%rdx), %rcx
	movq	%rcx, 504(%rdx)
	movl	-8(%rbp), %ecx
	addl	$1, %ecx
                                        # kill: def $cl killed $ecx
	shll	%cl, %eax
	cltq
	movq	-32(%rbp), %rcx
	orq	504(%rcx), %rax
	movq	%rax, 504(%rcx)
	jmp	.LBB36_79
.LBB36_75:                              # %if.else187
	cmpl	$4, -4(%rbp)
	jne	.LBB36_77
# %bb.76:                               # %if.then190
	movl	-8(%rbp), %ecx
                                        # kill: def $cl killed $ecx
	movl	$1, %eax
	movl	$1, %edx
	shll	%cl, %edx
	movslq	%edx, %rcx
	movq	-32(%rbp), %rdx
	orq	504(%rdx), %rcx
	movq	%rcx, 504(%rdx)
	movl	-8(%rbp), %ecx
	addl	$4, %ecx
                                        # kill: def $cl killed $ecx
	shll	%cl, %eax
	cltq
	movq	-32(%rbp), %rcx
	orq	504(%rcx), %rax
	movq	%rax, 504(%rcx)
	jmp	.LBB36_78
.LBB36_77:                              # %if.else200
	movl	-8(%rbp), %ecx
                                        # kill: def $cl killed $ecx
	movl	$1, %eax
	shll	%cl, %eax
	cltq
	movq	-32(%rbp), %rcx
	orq	504(%rcx), %rax
	movq	%rax, 504(%rcx)
.LBB36_78:                              # %if.end205
	jmp	.LBB36_79
.LBB36_79:                              # %if.end206
	jmp	.LBB36_80
.LBB36_80:                              # %if.end207
	jmp	.LBB36_81
.LBB36_81:                              # %if.end208
	cmpl	$0, -40(%rbp)
	je	.LBB36_83
# %bb.82:                               # %cond.true210
	xorl	%eax, %eax
	jmp	.LBB36_93
.LBB36_83:                              # %cond.false211
	cmpl	$0, -20(%rbp)
	je	.LBB36_85
# %bb.84:                               # %cond.true213
	movl	$1, %eax
	jmp	.LBB36_92
.LBB36_85:                              # %cond.false214
	cmpl	$0, -52(%rbp)
	je	.LBB36_87
# %bb.86:                               # %cond.true216
	movl	$17, %eax
	jmp	.LBB36_91
.LBB36_87:                              # %cond.false217
	cmpl	$0, -56(%rbp)
	je	.LBB36_89
# %bb.88:                               # %cond.true219
	movl	$18, %eax
	jmp	.LBB36_90
.LBB36_89:                              # %cond.false220
	movl	-24(%rbp), %eax
	cmpl	$0, %eax
	movl	$19, %ecx
	movl	$23, %eax
	cmovnel	%ecx, %eax
.LBB36_90:                              # %cond.end223
.LBB36_91:                              # %cond.end225
.LBB36_92:                              # %cond.end227
.LBB36_93:                              # %cond.end229
	movl	%eax, -8(%rbp)
	cmpl	$2, -4(%rbp)
	je	.LBB36_105
# %bb.94:                               # %if.then233
	cmpl	$0, -112(%rbp)
	je	.LBB36_99
# %bb.95:                               # %if.then236
	movq	img, %rax
	movq	14168(%rax), %rax
	movslq	-108(%rbp), %rcx
	imulq	$632, %rcx, %rcx        # imm = 0x278
	addq	%rcx, %rax
	cmpl	$14, 72(%rax)
	jne	.LBB36_97
# %bb.96:                               # %if.then239
	movl	$1, -60(%rbp)
	jmp	.LBB36_98
.LBB36_97:                              # %if.else240
	movq	img, %rax
	movq	14168(%rax), %rax
	movslq	-108(%rbp), %rcx
	imulq	$632, %rcx, %rcx        # imm = 0x278
	addq	%rcx, %rax
	movq	504(%rax), %rax
	movl	-8(%rbp), %ecx
	addl	-36(%rbp), %ecx
                                        # kill: def $cl killed $ecx
	movl	$1, %edx
	shll	%cl, %edx
	movslq	%edx, %rcx
	andq	%rcx, %rax
	movl	-8(%rbp), %ecx
	addl	-36(%rbp), %ecx
	movl	%ecx, %ecx
                                        # kill: def $cl killed $rcx
	shrq	%cl, %rax
	movl	%eax, -60(%rbp)
.LBB36_98:                              # %if.end251
	jmp	.LBB36_99
.LBB36_99:                              # %if.end252
	cmpl	$0, -136(%rbp)
	je	.LBB36_104
# %bb.100:                              # %if.then255
	movq	img, %rax
	movq	14168(%rax), %rax
	movslq	-132(%rbp), %rcx
	imulq	$632, %rcx, %rcx        # imm = 0x278
	addq	%rcx, %rax
	cmpl	$14, 72(%rax)
	jne	.LBB36_102
# %bb.101:                              # %if.then263
	movl	$1, -64(%rbp)
	jmp	.LBB36_103
.LBB36_102:                             # %if.else264
	movq	img, %rax
	movq	14168(%rax), %rax
	movslq	-132(%rbp), %rcx
	imulq	$632, %rcx, %rcx        # imm = 0x278
	addq	%rcx, %rax
	movq	504(%rax), %rax
	movl	-8(%rbp), %ecx
	addl	-44(%rbp), %ecx
                                        # kill: def $cl killed $ecx
	movl	$1, %edx
	shll	%cl, %edx
	movslq	%edx, %rcx
	andq	%rcx, %rax
	movl	-8(%rbp), %ecx
	addl	-44(%rbp), %ecx
	movl	%ecx, %ecx
                                        # kill: def $cl killed $rcx
	shrq	%cl, %rax
	movl	%eax, -64(%rbp)
.LBB36_103:                             # %if.end278
	jmp	.LBB36_104
.LBB36_104:                             # %if.end279
	movl	-60(%rbp), %eax
	shll	$1, %eax
	addl	-64(%rbp), %eax
	movl	%eax, -80(%rbp)
	movq	-144(%rbp), %rdi
	movl	-68(%rbp), %eax
	movq	img, %rcx
	movq	14160(%rcx), %rcx
	movq	40(%rcx), %rdx
	addq	$288, %rdx              # imm = 0x120
	movslq	-4(%rbp), %rcx
	movslq	type2ctx_bcbp(,%rcx,4), %rcx
	shlq	$6, %rcx
	addq	%rcx, %rdx
	movslq	-80(%rbp), %rcx
	shlq	$4, %rcx
	addq	%rcx, %rdx
	movswl	%ax, %esi
	callq	biari_encode_symbol
.LBB36_105:                             # %if.end287
	cmpl	$197728497, -84(%rbp)   # imm = 0xBC918F1
	jne	.LBB36_107
.LBB36_106:
	addq	$144, %rsp
	popq	%rbp
	.cfi_def_cfa %rsp, 8
	retq
.LBB36_107:                             # %func_exit
	.cfi_def_cfa %rbp, 16
	callq	detect_breach
	jmp	.LBB36_106
.Lfunc_end36:
	.size	write_and_store_CBP_block_bit.9, .Lfunc_end36-write_and_store_CBP_block_bit.9
	.cfi_endproc
                                        # -- End function
	.globl	writeRefFrame_CABAC.10  # -- Begin function writeRefFrame_CABAC.10
	.p2align	4, 0x90
	.type	writeRefFrame_CABAC.10,@function
writeRefFrame_CABAC.10:                 # @writeRefFrame_CABAC.10
	.cfi_startproc
# %bb.0:                                # %entry
	pushq	%rbp
	.cfi_def_cfa_offset 16
	.cfi_offset %rbp, -16
	movq	%rsp, %rbp
	.cfi_def_cfa_register %rbp
	subq	$128, %rsp
	movl	$1372751709, -64(%rbp)  # imm = 0x51D2875D
	movq	%rdi, -40(%rbp)
	movq	%rsi, -56(%rbp)
	movq	img, %rax
	movq	14160(%rax), %rax
	movq	32(%rax), %rax
	movq	%rax, -48(%rbp)
	movq	img, %rax
	movq	14168(%rax), %rax
	movq	img, %rcx
	movslq	12(%rcx), %rcx
	imulq	$632, %rcx, %rcx        # imm = 0x278
	addq	%rcx, %rax
	movq	%rax, -128(%rbp)
	movl	$0, -20(%rbp)
	movq	enc_picture, %rax
	movq	6480(%rax), %rax
	movq	-40(%rbp), %rcx
	movslq	8(%rcx), %rcx
	movq	(%rax,%rcx,8), %rax
	movq	%rax, -32(%rbp)
	movq	img, %rax
	cmpl	$1, 24(%rax)
	sete	%al
	andb	$1, %al
	movzbl	%al, %eax
	movl	%eax, -24(%rbp)
	movq	img, %rax
	movl	12(%rax), %edi
	movq	img, %rax
	movl	72(%rax), %esi
	movq	img, %rax
	movl	76(%rax), %edx
	movl	$4294967295, %ecx       # imm = 0xFFFFFFFF
	xorl	%r8d, %r8d
	leaq	-120(%rbp), %r9
	callq	getLuma4x4Neighbour
	movq	img, %rax
	movl	12(%rax), %edi
	movq	img, %rax
	movl	72(%rax), %esi
	movq	img, %rax
	movl	76(%rax), %edx
	movl	$0, %ecx
	movl	$4294967295, %r8d       # imm = 0xFFFFFFFF
	leaq	-96(%rbp), %r9
	callq	getLuma4x4Neighbour
	movl	-112(%rbp), %eax
	cltd
	movl	$2, %esi
	idivl	%esi
	cltd
	idivl	%esi
	movl	%edx, %ecx
	movl	-108(%rbp), %eax
	cltd
	idivl	%esi
	cltd
	idivl	%esi
	shll	$1, %edx
	addl	%edx, %ecx
	movl	%ecx, -60(%rbp)
	movl	-88(%rbp), %eax
	cltd
	idivl	%esi
	cltd
	idivl	%esi
	movl	%edx, %ecx
	movl	-84(%rbp), %eax
	cltd
	idivl	%esi
	cltd
	idivl	%esi
	shll	$1, %edx
	addl	%edx, %ecx
	movl	%ecx, -68(%rbp)
	cmpl	$0, -96(%rbp)
	jne	.LBB37_2
# %bb.1:                                # %if.then
	movl	$0, -12(%rbp)
	jmp	.LBB37_14
.LBB37_2:                               # %if.else
	movq	img, %rax
	movq	14168(%rax), %rax
	movslq	-92(%rbp), %rcx
	imulq	$632, %rcx, %rcx        # imm = 0x278
	addq	%rcx, %rax
	cmpl	$0, 72(%rax)
	jne	.LBB37_4
# %bb.3:                                # %land.lhs.true
	movq	img, %rax
	cmpl	$1, 24(%rax)
	je	.LBB37_6
.LBB37_4:                               # %lor.lhs.false
	movq	img, %rax
	movq	14168(%rax), %rax
	movslq	-92(%rbp), %rcx
	imulq	$632, %rcx, %rcx        # imm = 0x278
	addq	%rcx, %rax
	movslq	-68(%rbp), %rcx
	cmpl	$0, 472(%rax,%rcx,4)
	jne	.LBB37_7
# %bb.5:                                # %land.lhs.true33
	cmpl	$0, -24(%rbp)
	je	.LBB37_7
.LBB37_6:                               # %if.then35
	movl	$0, -12(%rbp)
	jmp	.LBB37_13
.LBB37_7:                               # %if.else36
	movq	img, %rax
	cmpl	$0, 72400(%rax)
	je	.LBB37_11
# %bb.8:                                # %land.lhs.true38
	movq	-128(%rbp), %rax
	cmpl	$0, 532(%rax)
	jne	.LBB37_11
# %bb.9:                                # %land.lhs.true41
	movq	img, %rax
	movq	14168(%rax), %rax
	movslq	-92(%rbp), %rcx
	imulq	$632, %rcx, %rcx        # imm = 0x278
	addq	%rcx, %rax
	cmpl	$1, 532(%rax)
	jne	.LBB37_11
# %bb.10:                               # %if.then49
	xorl	%eax, %eax
	movq	-32(%rbp), %rcx
	movslq	-80(%rbp), %rdx
	movq	(%rcx,%rdx,8), %rcx
	movslq	-76(%rbp), %rdx
	movswl	(%rcx,%rdx,2), %ecx
	cmpl	$1, %ecx
	movl	$1, %ecx
	cmovgl	%ecx, %eax
	movl	%eax, -12(%rbp)
	jmp	.LBB37_12
.LBB37_11:                              # %if.else57
	xorl	%eax, %eax
	movq	-32(%rbp), %rcx
	movslq	-80(%rbp), %rdx
	movq	(%rcx,%rdx,8), %rcx
	movslq	-76(%rbp), %rdx
	movswl	(%rcx,%rdx,2), %ecx
	cmpl	$0, %ecx
	movl	$1, %ecx
	cmovgl	%ecx, %eax
	movl	%eax, -12(%rbp)
.LBB37_12:                              # %if.end
	jmp	.LBB37_13
.LBB37_13:                              # %if.end68
	jmp	.LBB37_14
.LBB37_14:                              # %if.end69
	cmpl	$0, -120(%rbp)
	jne	.LBB37_16
# %bb.15:                               # %if.then72
	movl	$0, -16(%rbp)
	jmp	.LBB37_28
.LBB37_16:                              # %if.else73
	movq	img, %rax
	movq	14168(%rax), %rax
	movslq	-116(%rbp), %rcx
	imulq	$632, %rcx, %rcx        # imm = 0x278
	addq	%rcx, %rax
	cmpl	$0, 72(%rax)
	jne	.LBB37_18
# %bb.17:                               # %land.lhs.true81
	movq	img, %rax
	cmpl	$1, 24(%rax)
	je	.LBB37_20
.LBB37_18:                              # %lor.lhs.false85
	movq	img, %rax
	movq	14168(%rax), %rax
	movslq	-116(%rbp), %rcx
	imulq	$632, %rcx, %rcx        # imm = 0x278
	addq	%rcx, %rax
	movslq	-60(%rbp), %rcx
	cmpl	$0, 472(%rax,%rcx,4)
	jne	.LBB37_21
# %bb.19:                               # %land.lhs.true95
	cmpl	$0, -24(%rbp)
	je	.LBB37_21
.LBB37_20:                              # %if.then97
	movl	$0, -16(%rbp)
	jmp	.LBB37_27
.LBB37_21:                              # %if.else98
	movq	img, %rax
	cmpl	$0, 72400(%rax)
	je	.LBB37_25
# %bb.22:                               # %land.lhs.true101
	movq	-128(%rbp), %rax
	cmpl	$0, 532(%rax)
	jne	.LBB37_25
# %bb.23:                               # %land.lhs.true105
	movq	img, %rax
	movq	14168(%rax), %rax
	movslq	-116(%rbp), %rcx
	imulq	$632, %rcx, %rcx        # imm = 0x278
	addq	%rcx, %rax
	cmpl	$1, 532(%rax)
	jne	.LBB37_25
# %bb.24:                               # %if.then113
	xorl	%eax, %eax
	movq	-32(%rbp), %rcx
	movslq	-104(%rbp), %rdx
	movq	(%rcx,%rdx,8), %rcx
	movslq	-100(%rbp), %rdx
	movswl	(%rcx,%rdx,2), %ecx
	cmpl	$1, %ecx
	movl	$1, %ecx
	cmovgl	%ecx, %eax
	movl	%eax, -16(%rbp)
	jmp	.LBB37_26
.LBB37_25:                              # %if.else124
	xorl	%eax, %eax
	movq	-32(%rbp), %rcx
	movslq	-104(%rbp), %rdx
	movq	(%rcx,%rdx,8), %rcx
	movslq	-100(%rbp), %rdx
	movswl	(%rcx,%rdx,2), %ecx
	cmpl	$0, %ecx
	movl	$1, %ecx
	cmovgl	%ecx, %eax
	movl	%eax, -16(%rbp)
.LBB37_26:                              # %if.end135
	jmp	.LBB37_27
.LBB37_27:                              # %if.end136
	jmp	.LBB37_28
.LBB37_28:                              # %if.end137
	movl	-16(%rbp), %eax
	movl	-12(%rbp), %ecx
	shll	$1, %ecx
	addl	%ecx, %eax
	movl	%eax, -4(%rbp)
	movl	-4(%rbp), %eax
	movq	-40(%rbp), %rcx
	movl	%eax, 24(%rcx)
	movq	-40(%rbp), %rax
	movl	4(%rax), %eax
	movl	%eax, -8(%rbp)
	cmpl	$0, -8(%rbp)
	jne	.LBB37_30
# %bb.29:                               # %if.then142
	movq	-56(%rbp), %rdi
	movq	-48(%rbp), %rdx
	addq	$1136, %rdx             # imm = 0x470
	movslq	-20(%rbp), %rax
	imulq	$96, %rax, %rax
	addq	%rax, %rdx
	movslq	-4(%rbp), %rax
	shlq	$4, %rax
	addq	%rax, %rdx
	xorl	%esi, %esi
	callq	biari_encode_symbol
	jmp	.LBB37_31
.LBB37_30:                              # %if.else145
	movq	-56(%rbp), %rdi
	movq	-48(%rbp), %rdx
	addq	$1136, %rdx             # imm = 0x470
	movslq	-20(%rbp), %rax
	imulq	$96, %rax, %rax
	addq	%rax, %rdx
	movslq	-4(%rbp), %rax
	shlq	$4, %rax
	addq	%rax, %rdx
	movl	$1, %esi
	callq	biari_encode_symbol
	movl	-8(%rbp), %eax
	addl	$-1, %eax
	movl	%eax, -8(%rbp)
	movl	$4, -4(%rbp)
	movq	-56(%rbp), %rdi
	movl	-8(%rbp), %esi
	movq	-48(%rbp), %rdx
	addq	$1136, %rdx             # imm = 0x470
	movslq	-20(%rbp), %rax
	imulq	$96, %rax, %rax
	addq	%rax, %rdx
	movslq	-4(%rbp), %rax
	shlq	$4, %rax
	addq	%rax, %rdx
	movl	$1, %ecx
	callq	unary_bin_encode
.LBB37_31:                              # %if.end158
	cmpl	$1372751709, -64(%rbp)  # imm = 0x51D2875D
	jne	.LBB37_33
.LBB37_32:
	addq	$128, %rsp
	popq	%rbp
	.cfi_def_cfa %rsp, 8
	retq
.LBB37_33:                              # %func_exit
	.cfi_def_cfa %rbp, 16
	callq	detect_breach
	jmp	.LBB37_32
.Lfunc_end37:
	.size	writeRefFrame_CABAC.10, .Lfunc_end37-writeRefFrame_CABAC.10
	.cfi_endproc
                                        # -- End function
	.globl	write_significant_coefficients.11 # -- Begin function write_significant_coefficients.11
	.p2align	4, 0x90
	.type	write_significant_coefficients.11,@function
write_significant_coefficients.11:      # @write_significant_coefficients.11
	.cfi_startproc
# %bb.0:                                # %entry
	pushq	%rbp
	.cfi_def_cfa_offset 16
	.cfi_offset %rbp, -16
	movq	%rsp, %rbp
	.cfi_def_cfa_register %rbp
	subq	$64, %rsp
	movl	$1254616997, -52(%rbp)  # imm = 0x4AC7EFA5
	movq	%rdi, -64(%rbp)
	movq	%rsi, -48(%rbp)
	movl	%edx, -12(%rbp)
	movq	%rcx, -40(%rbp)
	movl	$1, -8(%rbp)
	movl	$0, -20(%rbp)
	movslq	-12(%rbp), %rax
	movl	maxpos(,%rax,4), %eax
	subl	$1, %eax
	movl	%eax, -4(%rbp)
.LBB38_1:                               # %for.cond
                                        # =>This Inner Loop Header: Depth=1
	cmpl	$0, -4(%rbp)
	jl	.LBB38_20
# %bb.2:                                # %for.body
                                        #   in Loop: Header=BB38_1 Depth=1
	movq	-40(%rbp), %rax
	movslq	-4(%rbp), %rcx
	cmpl	$0, (%rax,%rcx,4)
	je	.LBB38_18
# %bb.3:                                # %if.then
                                        #   in Loop: Header=BB38_1 Depth=1
	movq	-40(%rbp), %rax
	movslq	-4(%rbp), %rcx
	cmpl	$0, (%rax,%rcx,4)
	jle	.LBB38_5
# %bb.4:                                # %if.then7
                                        #   in Loop: Header=BB38_1 Depth=1
	movq	-40(%rbp), %rax
	movslq	-4(%rbp), %rcx
	movl	(%rax,%rcx,4), %eax
	movl	%eax, -24(%rbp)
	movw	$0, -16(%rbp)
	jmp	.LBB38_6
.LBB38_5:                               # %if.else
                                        #   in Loop: Header=BB38_1 Depth=1
	xorl	%eax, %eax
	movq	-40(%rbp), %rcx
	movslq	-4(%rbp), %rdx
	subl	(%rcx,%rdx,4), %eax
	movl	%eax, -24(%rbp)
	movw	$1, -16(%rbp)
.LBB38_6:                               # %if.end
                                        #   in Loop: Header=BB38_1 Depth=1
	xorl	%eax, %eax
	movl	-24(%rbp), %ecx
	cmpl	$1, %ecx
	movl	$1, %ecx
	cmovgl	%ecx, %eax
	movw	%ax, -14(%rbp)
	cmpl	$4, -8(%rbp)
	jge	.LBB38_8
# %bb.7:                                # %cond.true
                                        #   in Loop: Header=BB38_1 Depth=1
	movl	-8(%rbp), %eax
	jmp	.LBB38_9
.LBB38_8:                               # %cond.false
                                        #   in Loop: Header=BB38_1 Depth=1
	movl	$4, %eax
	jmp	.LBB38_9
.LBB38_9:                               # %cond.end
                                        #   in Loop: Header=BB38_1 Depth=1
	movl	%eax, -28(%rbp)
	movq	-48(%rbp), %rdi
	movw	-14(%rbp), %ax
	movq	img, %rcx
	movq	14160(%rcx), %rcx
	movq	40(%rcx), %rdx
	addq	$5728, %rdx             # imm = 0x1660
	movslq	-12(%rbp), %rcx
	movslq	type2ctx_one(,%rcx,4), %rcx
	imulq	$80, %rcx, %rcx
	addq	%rcx, %rdx
	movslq	-28(%rbp), %rcx
	shlq	$4, %rcx
	addq	%rcx, %rdx
	movswl	%ax, %esi
	callq	biari_encode_symbol
	cmpw	$0, -14(%rbp)
	je	.LBB38_14
# %bb.10:                               # %if.then21
                                        #   in Loop: Header=BB38_1 Depth=1
	movl	-20(%rbp), %eax
	movslq	-12(%rbp), %rcx
	cmpl	max_c2(,%rcx,4), %eax
	jge	.LBB38_12
# %bb.11:                               # %cond.true26
                                        #   in Loop: Header=BB38_1 Depth=1
	movl	-20(%rbp), %eax
	jmp	.LBB38_13
.LBB38_12:                              # %cond.false27
                                        #   in Loop: Header=BB38_1 Depth=1
	movslq	-12(%rbp), %rax
	movl	max_c2(,%rax,4), %eax
.LBB38_13:                              # %cond.end30
                                        #   in Loop: Header=BB38_1 Depth=1
	movl	%eax, -28(%rbp)
	movq	-48(%rbp), %rdi
	movl	-24(%rbp), %esi
	subl	$2, %esi
	movq	img, %rax
	movq	14160(%rax), %rax
	movq	40(%rax), %rdx
	addq	$6528, %rdx             # imm = 0x1980
	movslq	-12(%rbp), %rax
	movslq	type2ctx_abs(,%rax,4), %rax
	imulq	$80, %rax, %rax
	addq	%rax, %rdx
	movslq	-28(%rbp), %rax
	shlq	$4, %rax
	addq	%rax, %rdx
	callq	unary_exp_golomb_level_encode
	movl	$0, -8(%rbp)
	movl	-20(%rbp), %eax
	addl	$1, %eax
	movl	%eax, -20(%rbp)
	jmp	.LBB38_17
.LBB38_14:                              # %if.else42
                                        #   in Loop: Header=BB38_1 Depth=1
	cmpl	$0, -8(%rbp)
	je	.LBB38_16
# %bb.15:                               # %if.then44
                                        #   in Loop: Header=BB38_1 Depth=1
	movl	-8(%rbp), %eax
	addl	$1, %eax
	movl	%eax, -8(%rbp)
.LBB38_16:                              # %if.end46
                                        #   in Loop: Header=BB38_1 Depth=1
	jmp	.LBB38_17
.LBB38_17:                              # %if.end47
                                        #   in Loop: Header=BB38_1 Depth=1
	movq	-48(%rbp), %rdi
	movswl	-16(%rbp), %esi
	callq	biari_encode_symbol_eq_prob
.LBB38_18:                              # %if.end48
                                        #   in Loop: Header=BB38_1 Depth=1
	jmp	.LBB38_19
.LBB38_19:                              # %for.inc
                                        #   in Loop: Header=BB38_1 Depth=1
	movl	-4(%rbp), %eax
	addl	$-1, %eax
	movl	%eax, -4(%rbp)
	jmp	.LBB38_1
.LBB38_20:                              # %for.end
	cmpl	$1254616997, -52(%rbp)  # imm = 0x4AC7EFA5
	jne	.LBB38_22
.LBB38_21:
	addq	$64, %rsp
	popq	%rbp
	.cfi_def_cfa %rsp, 8
	retq
.LBB38_22:                              # %func_exit
	.cfi_def_cfa %rbp, 16
	callq	detect_breach
	jmp	.LBB38_21
.Lfunc_end38:
	.size	write_significant_coefficients.11, .Lfunc_end38-write_significant_coefficients.11
	.cfi_endproc
                                        # -- End function
	.globl	writeMVD_CABAC.12       # -- Begin function writeMVD_CABAC.12
	.p2align	4, 0x90
	.type	writeMVD_CABAC.12,@function
writeMVD_CABAC.12:                      # @writeMVD_CABAC.12
	.cfi_startproc
# %bb.0:                                # %entry
	pushq	%rbp
	.cfi_def_cfa_offset 16
	.cfi_offset %rbp, -16
	movq	%rsp, %rbp
	.cfi_def_cfa_register %rbp
	subq	$144, %rsp
	movl	$1081550874, -132(%rbp) # imm = 0x4077281A
	movq	%rdi, -64(%rbp)
	movq	%rsi, -56(%rbp)
	movq	img, %rax
	movl	72(%rax), %eax
	movl	%eax, -32(%rbp)
	movq	img, %rax
	movl	76(%rax), %eax
	movl	%eax, -36(%rbp)
	movq	-64(%rbp), %rax
	movl	8(%rax), %eax
	andl	$1, %eax
	movl	%eax, -12(%rbp)
	movq	-64(%rbp), %rax
	movl	8(%rax), %eax
	sarl	$1, %eax
	movl	%eax, -4(%rbp)
	movq	img, %rax
	movq	14160(%rax), %rax
	movq	32(%rax), %rax
	movq	%rax, -120(%rbp)
	movq	img, %rax
	movq	14168(%rax), %rax
	movq	img, %rcx
	movslq	12(%rcx), %rcx
	imulq	$632, %rcx, %rcx        # imm = 0x278
	addq	%rcx, %rax
	movq	%rax, -48(%rbp)
	movq	img, %rax
	movl	12(%rax), %edi
	movl	-32(%rbp), %esi
	movl	-36(%rbp), %edx
	movl	$4294967295, %ecx       # imm = 0xFFFFFFFF
	xorl	%r8d, %r8d
	leaq	-112(%rbp), %r9
	callq	getLuma4x4Neighbour
	movq	img, %rax
	movl	12(%rax), %edi
	movl	-32(%rbp), %esi
	movl	-36(%rbp), %edx
	movl	$0, %ecx
	movl	$4294967295, %r8d       # imm = 0xFFFFFFFF
	leaq	-88(%rbp), %r9
	callq	getLuma4x4Neighbour
	cmpl	$0, -88(%rbp)
	je	.LBB39_15
# %bb.1:                                # %if.then
	movq	img, %rax
	movq	14168(%rax), %rax
	movslq	-84(%rbp), %rcx
	imulq	$632, %rcx, %rcx        # imm = 0x278
	addq	%rcx, %rax
	addq	$76, %rax
	movslq	-12(%rbp), %rcx
	shlq	$7, %rcx
	addq	%rcx, %rax
	movslq	-76(%rbp), %rcx
	shlq	$5, %rcx
	addq	%rcx, %rax
	movslq	-80(%rbp), %rcx
	shlq	$3, %rcx
	addq	%rcx, %rax
	movslq	-4(%rbp), %rcx
	cmpl	$0, (%rax,%rcx,4)
	jge	.LBB39_3
# %bb.2:                                # %cond.true
	xorl	%eax, %eax
	movq	img, %rcx
	movq	14168(%rcx), %rcx
	movslq	-84(%rbp), %rdx
	imulq	$632, %rdx, %rdx        # imm = 0x278
	addq	%rdx, %rcx
	addq	$76, %rcx
	movslq	-12(%rbp), %rdx
	shlq	$7, %rdx
	addq	%rdx, %rcx
	movslq	-76(%rbp), %rdx
	shlq	$5, %rdx
	addq	%rdx, %rcx
	movslq	-80(%rbp), %rdx
	shlq	$3, %rdx
	addq	%rdx, %rcx
	movslq	-4(%rbp), %rdx
	subl	(%rcx,%rdx,4), %eax
	jmp	.LBB39_4
.LBB39_3:                               # %cond.false
	movq	img, %rax
	movq	14168(%rax), %rax
	movslq	-84(%rbp), %rcx
	imulq	$632, %rcx, %rcx        # imm = 0x278
	addq	%rcx, %rax
	addq	$76, %rax
	movslq	-12(%rbp), %rcx
	shlq	$7, %rcx
	addq	%rcx, %rax
	movslq	-76(%rbp), %rcx
	shlq	$5, %rcx
	addq	%rcx, %rax
	movslq	-80(%rbp), %rcx
	shlq	$3, %rcx
	addq	%rcx, %rax
	movslq	-4(%rbp), %rcx
	movl	(%rax,%rcx,4), %eax
.LBB39_4:                               # %cond.end
	movl	%eax, -16(%rbp)
	movq	img, %rax
	cmpl	$0, 72400(%rax)
	je	.LBB39_14
# %bb.5:                                # %land.lhs.true
	cmpl	$1, -4(%rbp)
	jne	.LBB39_14
# %bb.6:                                # %if.then47
	movq	-48(%rbp), %rax
	cmpl	$0, 532(%rax)
	jne	.LBB39_9
# %bb.7:                                # %land.lhs.true49
	movq	img, %rax
	movq	14168(%rax), %rax
	movslq	-84(%rbp), %rcx
	imulq	$632, %rcx, %rcx        # imm = 0x278
	addq	%rcx, %rax
	cmpl	$1, 532(%rax)
	jne	.LBB39_9
# %bb.8:                                # %if.then56
	movl	-16(%rbp), %eax
	shll	$1, %eax
	movl	%eax, -16(%rbp)
	jmp	.LBB39_13
.LBB39_9:                               # %if.else
	movq	-48(%rbp), %rax
	cmpl	$1, 532(%rax)
	jne	.LBB39_12
# %bb.10:                               # %land.lhs.true59
	movq	img, %rax
	movq	14168(%rax), %rax
	movslq	-84(%rbp), %rcx
	imulq	$632, %rcx, %rcx        # imm = 0x278
	addq	%rcx, %rax
	cmpl	$0, 532(%rax)
	jne	.LBB39_12
# %bb.11:                               # %if.then66
	movl	-16(%rbp), %eax
	cltd
	movl	$2, %ecx
	idivl	%ecx
	movl	%eax, -16(%rbp)
.LBB39_12:                              # %if.end
	jmp	.LBB39_13
.LBB39_13:                              # %if.end67
	jmp	.LBB39_14
.LBB39_14:                              # %if.end68
	jmp	.LBB39_16
.LBB39_15:                              # %if.else69
	movl	$0, -16(%rbp)
.LBB39_16:                              # %if.end70
	cmpl	$0, -112(%rbp)
	je	.LBB39_31
# %bb.17:                               # %if.then73
	movq	img, %rax
	movq	14168(%rax), %rax
	movslq	-108(%rbp), %rcx
	imulq	$632, %rcx, %rcx        # imm = 0x278
	addq	%rcx, %rax
	addq	$76, %rax
	movslq	-12(%rbp), %rcx
	shlq	$7, %rcx
	addq	%rcx, %rax
	movslq	-100(%rbp), %rcx
	shlq	$5, %rcx
	addq	%rcx, %rax
	movslq	-104(%rbp), %rcx
	shlq	$3, %rcx
	addq	%rcx, %rax
	movslq	-4(%rbp), %rcx
	cmpl	$0, (%rax,%rcx,4)
	jge	.LBB39_19
# %bb.18:                               # %cond.true90
	xorl	%eax, %eax
	movq	img, %rcx
	movq	14168(%rcx), %rcx
	movslq	-108(%rbp), %rdx
	imulq	$632, %rdx, %rdx        # imm = 0x278
	addq	%rdx, %rcx
	addq	$76, %rcx
	movslq	-12(%rbp), %rdx
	shlq	$7, %rdx
	addq	%rdx, %rcx
	movslq	-100(%rbp), %rdx
	shlq	$5, %rdx
	addq	%rdx, %rcx
	movslq	-104(%rbp), %rdx
	shlq	$3, %rdx
	addq	%rdx, %rcx
	movslq	-4(%rbp), %rdx
	subl	(%rcx,%rdx,4), %eax
	jmp	.LBB39_20
.LBB39_19:                              # %cond.false107
	movq	img, %rax
	movq	14168(%rax), %rax
	movslq	-108(%rbp), %rcx
	imulq	$632, %rcx, %rcx        # imm = 0x278
	addq	%rcx, %rax
	addq	$76, %rax
	movslq	-12(%rbp), %rcx
	shlq	$7, %rcx
	addq	%rcx, %rax
	movslq	-100(%rbp), %rcx
	shlq	$5, %rcx
	addq	%rcx, %rax
	movslq	-104(%rbp), %rcx
	shlq	$3, %rcx
	addq	%rcx, %rax
	movslq	-4(%rbp), %rcx
	movl	(%rax,%rcx,4), %eax
.LBB39_20:                              # %cond.end123
	movl	%eax, -20(%rbp)
	movq	img, %rax
	cmpl	$0, 72400(%rax)
	je	.LBB39_30
# %bb.21:                               # %land.lhs.true127
	cmpl	$1, -4(%rbp)
	jne	.LBB39_30
# %bb.22:                               # %if.then129
	movq	-48(%rbp), %rax
	cmpl	$0, 532(%rax)
	jne	.LBB39_25
# %bb.23:                               # %land.lhs.true132
	movq	img, %rax
	movq	14168(%rax), %rax
	movslq	-108(%rbp), %rcx
	imulq	$632, %rcx, %rcx        # imm = 0x278
	addq	%rcx, %rax
	cmpl	$1, 532(%rax)
	jne	.LBB39_25
# %bb.24:                               # %if.then139
	movl	-20(%rbp), %eax
	shll	$1, %eax
	movl	%eax, -20(%rbp)
	jmp	.LBB39_29
.LBB39_25:                              # %if.else141
	movq	-48(%rbp), %rax
	cmpl	$1, 532(%rax)
	jne	.LBB39_28
# %bb.26:                               # %land.lhs.true144
	movq	img, %rax
	movq	14168(%rax), %rax
	movslq	-108(%rbp), %rcx
	imulq	$632, %rcx, %rcx        # imm = 0x278
	addq	%rcx, %rax
	cmpl	$0, 532(%rax)
	jne	.LBB39_28
# %bb.27:                               # %if.then151
	movl	-20(%rbp), %eax
	cltd
	movl	$2, %ecx
	idivl	%ecx
	movl	%eax, -20(%rbp)
.LBB39_28:                              # %if.end153
	jmp	.LBB39_29
.LBB39_29:                              # %if.end154
	jmp	.LBB39_30
.LBB39_30:                              # %if.end155
	jmp	.LBB39_32
.LBB39_31:                              # %if.else156
	movl	$0, -20(%rbp)
.LBB39_32:                              # %if.end157
	movl	-20(%rbp), %eax
	addl	-16(%rbp), %eax
	movl	%eax, -124(%rbp)
	cmpl	$3, %eax
	jge	.LBB39_34
# %bb.33:                               # %if.then159
	imull	$5, -4(%rbp), %eax
	movl	%eax, -8(%rbp)
	jmp	.LBB39_38
.LBB39_34:                              # %if.else161
	cmpl	$32, -124(%rbp)
	jle	.LBB39_36
# %bb.35:                               # %if.then163
	imull	$5, -4(%rbp), %eax
	addl	$3, %eax
	movl	%eax, -8(%rbp)
	jmp	.LBB39_37
.LBB39_36:                              # %if.else166
	imull	$5, -4(%rbp), %eax
	addl	$2, %eax
	movl	%eax, -8(%rbp)
.LBB39_37:                              # %if.end169
	jmp	.LBB39_38
.LBB39_38:                              # %if.end170
	movq	-64(%rbp), %rax
	movl	4(%rax), %eax
	movl	%eax, -24(%rbp)
	movl	-8(%rbp), %eax
	movq	-64(%rbp), %rcx
	movl	%eax, 24(%rcx)
	cmpl	$0, -24(%rbp)
	jge	.LBB39_40
# %bb.39:                               # %cond.true172
	xorl	%eax, %eax
	subl	-24(%rbp), %eax
	jmp	.LBB39_41
.LBB39_40:                              # %cond.false174
	movl	-24(%rbp), %eax
.LBB39_41:                              # %cond.end175
	movl	%eax, -28(%rbp)
	cmpl	$0, -28(%rbp)
	jne	.LBB39_43
# %bb.42:                               # %if.then178
	movq	-56(%rbp), %rdi
	movq	-120(%rbp), %rdx
	addq	$816, %rdx              # imm = 0x330
	movslq	-8(%rbp), %rax
	shlq	$4, %rax
	addq	%rax, %rdx
	xorl	%esi, %esi
	callq	biari_encode_symbol
	jmp	.LBB39_44
.LBB39_43:                              # %if.else182
	movq	-56(%rbp), %rdi
	movq	-120(%rbp), %rdx
	addq	$816, %rdx              # imm = 0x330
	movslq	-8(%rbp), %rax
	shlq	$4, %rax
	addq	%rax, %rdx
	movl	$1, %esi
	callq	biari_encode_symbol
	movl	-28(%rbp), %eax
	addl	$-1, %eax
	movl	%eax, -28(%rbp)
	imull	$5, -4(%rbp), %eax
	movl	%eax, -8(%rbp)
	movq	-56(%rbp), %rdi
	movl	-28(%rbp), %esi
	movq	-120(%rbp), %rdx
	addq	$816, %rdx              # imm = 0x330
	addq	$160, %rdx
	movslq	-8(%rbp), %rax
	shlq	$4, %rax
	addq	%rax, %rdx
	movl	$3, %ecx
	callq	unary_exp_golomb_mv_encode
	xorl	%eax, %eax
	movl	-24(%rbp), %ecx
	cmpl	$0, %ecx
	movl	$1, %ecx
	cmovll	%ecx, %eax
	movl	%eax, -128(%rbp)
	movq	-56(%rbp), %rdi
	movl	-128(%rbp), %eax
	movzbl	%al, %eax
	movswl	%ax, %esi
	callq	biari_encode_symbol_eq_prob
.LBB39_44:                              # %if.end193
	cmpl	$1081550874, -132(%rbp) # imm = 0x4077281A
	jne	.LBB39_46
.LBB39_45:
	addq	$144, %rsp
	popq	%rbp
	.cfi_def_cfa %rsp, 8
	retq
.LBB39_46:                              # %func_exit
	.cfi_def_cfa %rbp, 16
	callq	detect_breach
	jmp	.LBB39_45
.Lfunc_end39:
	.size	writeMVD_CABAC.12, .Lfunc_end39-writeMVD_CABAC.12
	.cfi_endproc
                                        # -- End function
	.globl	writeCIPredMode_CABAC.13 # -- Begin function writeCIPredMode_CABAC.13
	.p2align	4, 0x90
	.type	writeCIPredMode_CABAC.13,@function
writeCIPredMode_CABAC.13:               # @writeCIPredMode_CABAC.13
	.cfi_startproc
# %bb.0:                                # %entry
	pushq	%rbp
	.cfi_def_cfa_offset 16
	.cfi_offset %rbp, -16
	movq	%rsp, %rbp
	.cfi_def_cfa_register %rbp
	subq	$64, %rsp
	movl	$1281444678, -44(%rbp)  # imm = 0x4C614B46
	movq	%rdi, -56(%rbp)
	movq	%rsi, -32(%rbp)
	movq	img, %rax
	movq	14160(%rax), %rax
	movq	40(%rax), %rax
	movq	%rax, -40(%rbp)
	movq	img, %rax
	movq	14168(%rax), %rax
	movq	img, %rcx
	movslq	12(%rcx), %rcx
	imulq	$632, %rcx, %rcx        # imm = 0x278
	addq	%rcx, %rax
	movq	%rax, -24(%rbp)
	movq	-56(%rbp), %rax
	movl	4(%rax), %eax
	movl	%eax, -8(%rbp)
	movq	-24(%rbp), %rax
	cmpq	$0, 56(%rax)
	jne	.LBB40_2
# %bb.1:                                # %if.then
	movl	$0, -12(%rbp)
	jmp	.LBB40_3
.LBB40_2:                               # %if.else
	xorl	%eax, %eax
	movq	-24(%rbp), %rcx
	movq	56(%rcx), %rcx
	movl	524(%rcx), %ecx
	cmpl	$0, %ecx
	movl	$1, %ecx
	cmovnel	%ecx, %eax
	movl	%eax, -12(%rbp)
.LBB40_3:                               # %if.end
	movq	-24(%rbp), %rax
	cmpq	$0, 64(%rax)
	jne	.LBB40_5
# %bb.4:                                # %if.then4
	movl	$0, -4(%rbp)
	jmp	.LBB40_6
.LBB40_5:                               # %if.else5
	xorl	%eax, %eax
	movq	-24(%rbp), %rcx
	movq	64(%rcx), %rcx
	movl	524(%rcx), %ecx
	cmpl	$0, %ecx
	movl	$1, %ecx
	cmovnel	%ecx, %eax
	movl	%eax, -4(%rbp)
.LBB40_6:                               # %if.end10
	movl	-4(%rbp), %eax
	addl	-12(%rbp), %eax
	movl	%eax, -16(%rbp)
	cmpl	$0, -8(%rbp)
	jne	.LBB40_8
# %bb.7:                                # %if.then12
	movq	-32(%rbp), %rdi
	movq	-40(%rbp), %rdx
	addq	$32, %rdx
	movslq	-16(%rbp), %rax
	shlq	$4, %rax
	addq	%rax, %rdx
	xorl	%esi, %esi
	callq	biari_encode_symbol
	jmp	.LBB40_9
.LBB40_8:                               # %if.else13
	movq	-32(%rbp), %rdi
	movq	-40(%rbp), %rdx
	addq	$32, %rdx
	movslq	-16(%rbp), %rax
	shlq	$4, %rax
	addq	%rax, %rdx
	movl	$1, %esi
	callq	biari_encode_symbol
	movq	-32(%rbp), %rdi
	movl	-8(%rbp), %esi
	subl	$1, %esi
	movq	-40(%rbp), %rdx
	addq	$32, %rdx
	addq	$48, %rdx
	xorl	%ecx, %ecx
	movl	$2, %r8d
	callq	unary_bin_max_encode
.LBB40_9:                               # %if.end21
	cmpl	$1281444678, -44(%rbp)  # imm = 0x4C614B46
	jne	.LBB40_11
.LBB40_10:
	addq	$64, %rsp
	popq	%rbp
	.cfi_def_cfa %rsp, 8
	retq
.LBB40_11:                              # %func_exit
	.cfi_def_cfa %rbp, 16
	callq	detect_breach
	jmp	.LBB40_10
.Lfunc_end40:
	.size	writeCIPredMode_CABAC.13, .Lfunc_end40-writeCIPredMode_CABAC.13
	.cfi_endproc
                                        # -- End function
	.globl	writeMVD_CABAC.14       # -- Begin function writeMVD_CABAC.14
	.p2align	4, 0x90
	.type	writeMVD_CABAC.14,@function
writeMVD_CABAC.14:                      # @writeMVD_CABAC.14
	.cfi_startproc
# %bb.0:                                # %entry
	pushq	%rbp
	.cfi_def_cfa_offset 16
	.cfi_offset %rbp, -16
	movq	%rsp, %rbp
	.cfi_def_cfa_register %rbp
	subq	$144, %rsp
	movl	$1936318721, -128(%rbp) # imm = 0x7369E101
	movq	%rdi, -56(%rbp)
	movq	%rsi, -64(%rbp)
	movq	img, %rax
	movl	72(%rax), %eax
	movl	%eax, -36(%rbp)
	movq	img, %rax
	movl	76(%rax), %eax
	movl	%eax, -32(%rbp)
	movq	-56(%rbp), %rax
	movl	8(%rax), %eax
	andl	$1, %eax
	movl	%eax, -12(%rbp)
	movq	-56(%rbp), %rax
	movl	8(%rax), %eax
	sarl	$1, %eax
	movl	%eax, -4(%rbp)
	movq	img, %rax
	movq	14160(%rax), %rax
	movq	32(%rax), %rax
	movq	%rax, -120(%rbp)
	movq	img, %rax
	movq	14168(%rax), %rax
	movq	img, %rcx
	movslq	12(%rcx), %rcx
	imulq	$632, %rcx, %rcx        # imm = 0x278
	addq	%rcx, %rax
	movq	%rax, -48(%rbp)
	movq	img, %rax
	movl	12(%rax), %edi
	movl	-36(%rbp), %esi
	movl	-32(%rbp), %edx
	movl	$4294967295, %ecx       # imm = 0xFFFFFFFF
	xorl	%r8d, %r8d
	leaq	-88(%rbp), %r9
	callq	getLuma4x4Neighbour
	movq	img, %rax
	movl	12(%rax), %edi
	movl	-36(%rbp), %esi
	movl	-32(%rbp), %edx
	movl	$0, %ecx
	movl	$4294967295, %r8d       # imm = 0xFFFFFFFF
	leaq	-112(%rbp), %r9
	callq	getLuma4x4Neighbour
	cmpl	$0, -112(%rbp)
	je	.LBB41_15
# %bb.1:                                # %if.then
	movq	img, %rax
	movq	14168(%rax), %rax
	movslq	-108(%rbp), %rcx
	imulq	$632, %rcx, %rcx        # imm = 0x278
	addq	%rcx, %rax
	addq	$76, %rax
	movslq	-12(%rbp), %rcx
	shlq	$7, %rcx
	addq	%rcx, %rax
	movslq	-100(%rbp), %rcx
	shlq	$5, %rcx
	addq	%rcx, %rax
	movslq	-104(%rbp), %rcx
	shlq	$3, %rcx
	addq	%rcx, %rax
	movslq	-4(%rbp), %rcx
	cmpl	$0, (%rax,%rcx,4)
	jge	.LBB41_3
# %bb.2:                                # %cond.true
	xorl	%eax, %eax
	movq	img, %rcx
	movq	14168(%rcx), %rcx
	movslq	-108(%rbp), %rdx
	imulq	$632, %rdx, %rdx        # imm = 0x278
	addq	%rdx, %rcx
	addq	$76, %rcx
	movslq	-12(%rbp), %rdx
	shlq	$7, %rdx
	addq	%rdx, %rcx
	movslq	-100(%rbp), %rdx
	shlq	$5, %rdx
	addq	%rdx, %rcx
	movslq	-104(%rbp), %rdx
	shlq	$3, %rdx
	addq	%rdx, %rcx
	movslq	-4(%rbp), %rdx
	subl	(%rcx,%rdx,4), %eax
	jmp	.LBB41_4
.LBB41_3:                               # %cond.false
	movq	img, %rax
	movq	14168(%rax), %rax
	movslq	-108(%rbp), %rcx
	imulq	$632, %rcx, %rcx        # imm = 0x278
	addq	%rcx, %rax
	addq	$76, %rax
	movslq	-12(%rbp), %rcx
	shlq	$7, %rcx
	addq	%rcx, %rax
	movslq	-100(%rbp), %rcx
	shlq	$5, %rcx
	addq	%rcx, %rax
	movslq	-104(%rbp), %rcx
	shlq	$3, %rcx
	addq	%rcx, %rax
	movslq	-4(%rbp), %rcx
	movl	(%rax,%rcx,4), %eax
.LBB41_4:                               # %cond.end
	movl	%eax, -20(%rbp)
	movq	img, %rax
	cmpl	$0, 72400(%rax)
	je	.LBB41_14
# %bb.5:                                # %land.lhs.true
	cmpl	$1, -4(%rbp)
	jne	.LBB41_14
# %bb.6:                                # %if.then47
	movq	-48(%rbp), %rax
	cmpl	$0, 532(%rax)
	jne	.LBB41_9
# %bb.7:                                # %land.lhs.true49
	movq	img, %rax
	movq	14168(%rax), %rax
	movslq	-108(%rbp), %rcx
	imulq	$632, %rcx, %rcx        # imm = 0x278
	addq	%rcx, %rax
	cmpl	$1, 532(%rax)
	jne	.LBB41_9
# %bb.8:                                # %if.then56
	movl	-20(%rbp), %eax
	shll	$1, %eax
	movl	%eax, -20(%rbp)
	jmp	.LBB41_13
.LBB41_9:                               # %if.else
	movq	-48(%rbp), %rax
	cmpl	$1, 532(%rax)
	jne	.LBB41_12
# %bb.10:                               # %land.lhs.true59
	movq	img, %rax
	movq	14168(%rax), %rax
	movslq	-108(%rbp), %rcx
	imulq	$632, %rcx, %rcx        # imm = 0x278
	addq	%rcx, %rax
	cmpl	$0, 532(%rax)
	jne	.LBB41_12
# %bb.11:                               # %if.then66
	movl	-20(%rbp), %eax
	cltd
	movl	$2, %ecx
	idivl	%ecx
	movl	%eax, -20(%rbp)
.LBB41_12:                              # %if.end
	jmp	.LBB41_13
.LBB41_13:                              # %if.end67
	jmp	.LBB41_14
.LBB41_14:                              # %if.end68
	jmp	.LBB41_16
.LBB41_15:                              # %if.else69
	movl	$0, -20(%rbp)
.LBB41_16:                              # %if.end70
	cmpl	$0, -88(%rbp)
	je	.LBB41_31
# %bb.17:                               # %if.then73
	movq	img, %rax
	movq	14168(%rax), %rax
	movslq	-84(%rbp), %rcx
	imulq	$632, %rcx, %rcx        # imm = 0x278
	addq	%rcx, %rax
	addq	$76, %rax
	movslq	-12(%rbp), %rcx
	shlq	$7, %rcx
	addq	%rcx, %rax
	movslq	-76(%rbp), %rcx
	shlq	$5, %rcx
	addq	%rcx, %rax
	movslq	-80(%rbp), %rcx
	shlq	$3, %rcx
	addq	%rcx, %rax
	movslq	-4(%rbp), %rcx
	cmpl	$0, (%rax,%rcx,4)
	jge	.LBB41_19
# %bb.18:                               # %cond.true90
	xorl	%eax, %eax
	movq	img, %rcx
	movq	14168(%rcx), %rcx
	movslq	-84(%rbp), %rdx
	imulq	$632, %rdx, %rdx        # imm = 0x278
	addq	%rdx, %rcx
	addq	$76, %rcx
	movslq	-12(%rbp), %rdx
	shlq	$7, %rdx
	addq	%rdx, %rcx
	movslq	-76(%rbp), %rdx
	shlq	$5, %rdx
	addq	%rdx, %rcx
	movslq	-80(%rbp), %rdx
	shlq	$3, %rdx
	addq	%rdx, %rcx
	movslq	-4(%rbp), %rdx
	subl	(%rcx,%rdx,4), %eax
	jmp	.LBB41_20
.LBB41_19:                              # %cond.false107
	movq	img, %rax
	movq	14168(%rax), %rax
	movslq	-84(%rbp), %rcx
	imulq	$632, %rcx, %rcx        # imm = 0x278
	addq	%rcx, %rax
	addq	$76, %rax
	movslq	-12(%rbp), %rcx
	shlq	$7, %rcx
	addq	%rcx, %rax
	movslq	-76(%rbp), %rcx
	shlq	$5, %rcx
	addq	%rcx, %rax
	movslq	-80(%rbp), %rcx
	shlq	$3, %rcx
	addq	%rcx, %rax
	movslq	-4(%rbp), %rcx
	movl	(%rax,%rcx,4), %eax
.LBB41_20:                              # %cond.end123
	movl	%eax, -16(%rbp)
	movq	img, %rax
	cmpl	$0, 72400(%rax)
	je	.LBB41_30
# %bb.21:                               # %land.lhs.true127
	cmpl	$1, -4(%rbp)
	jne	.LBB41_30
# %bb.22:                               # %if.then129
	movq	-48(%rbp), %rax
	cmpl	$0, 532(%rax)
	jne	.LBB41_25
# %bb.23:                               # %land.lhs.true132
	movq	img, %rax
	movq	14168(%rax), %rax
	movslq	-84(%rbp), %rcx
	imulq	$632, %rcx, %rcx        # imm = 0x278
	addq	%rcx, %rax
	cmpl	$1, 532(%rax)
	jne	.LBB41_25
# %bb.24:                               # %if.then139
	movl	-16(%rbp), %eax
	shll	$1, %eax
	movl	%eax, -16(%rbp)
	jmp	.LBB41_29
.LBB41_25:                              # %if.else141
	movq	-48(%rbp), %rax
	cmpl	$1, 532(%rax)
	jne	.LBB41_28
# %bb.26:                               # %land.lhs.true144
	movq	img, %rax
	movq	14168(%rax), %rax
	movslq	-84(%rbp), %rcx
	imulq	$632, %rcx, %rcx        # imm = 0x278
	addq	%rcx, %rax
	cmpl	$0, 532(%rax)
	jne	.LBB41_28
# %bb.27:                               # %if.then151
	movl	-16(%rbp), %eax
	cltd
	movl	$2, %ecx
	idivl	%ecx
	movl	%eax, -16(%rbp)
.LBB41_28:                              # %if.end153
	jmp	.LBB41_29
.LBB41_29:                              # %if.end154
	jmp	.LBB41_30
.LBB41_30:                              # %if.end155
	jmp	.LBB41_32
.LBB41_31:                              # %if.else156
	movl	$0, -16(%rbp)
.LBB41_32:                              # %if.end157
	movl	-16(%rbp), %eax
	addl	-20(%rbp), %eax
	movl	%eax, -124(%rbp)
	cmpl	$3, %eax
	jge	.LBB41_34
# %bb.33:                               # %if.then159
	imull	$5, -4(%rbp), %eax
	movl	%eax, -8(%rbp)
	jmp	.LBB41_38
.LBB41_34:                              # %if.else161
	cmpl	$32, -124(%rbp)
	jle	.LBB41_36
# %bb.35:                               # %if.then163
	imull	$5, -4(%rbp), %eax
	addl	$3, %eax
	movl	%eax, -8(%rbp)
	jmp	.LBB41_37
.LBB41_36:                              # %if.else166
	imull	$5, -4(%rbp), %eax
	addl	$2, %eax
	movl	%eax, -8(%rbp)
.LBB41_37:                              # %if.end169
	jmp	.LBB41_38
.LBB41_38:                              # %if.end170
	movq	-56(%rbp), %rax
	movl	4(%rax), %eax
	movl	%eax, -24(%rbp)
	movl	-8(%rbp), %eax
	movq	-56(%rbp), %rcx
	movl	%eax, 24(%rcx)
	cmpl	$0, -24(%rbp)
	jge	.LBB41_40
# %bb.39:                               # %cond.true172
	xorl	%eax, %eax
	subl	-24(%rbp), %eax
	jmp	.LBB41_41
.LBB41_40:                              # %cond.false174
	movl	-24(%rbp), %eax
.LBB41_41:                              # %cond.end175
	movl	%eax, -28(%rbp)
	cmpl	$0, -28(%rbp)
	jne	.LBB41_43
# %bb.42:                               # %if.then178
	movq	-64(%rbp), %rdi
	movq	-120(%rbp), %rdx
	addq	$816, %rdx              # imm = 0x330
	movslq	-8(%rbp), %rax
	shlq	$4, %rax
	addq	%rax, %rdx
	xorl	%esi, %esi
	callq	biari_encode_symbol
	jmp	.LBB41_44
.LBB41_43:                              # %if.else182
	movq	-64(%rbp), %rdi
	movq	-120(%rbp), %rdx
	addq	$816, %rdx              # imm = 0x330
	movslq	-8(%rbp), %rax
	shlq	$4, %rax
	addq	%rax, %rdx
	movl	$1, %esi
	callq	biari_encode_symbol
	movl	-28(%rbp), %eax
	addl	$-1, %eax
	movl	%eax, -28(%rbp)
	imull	$5, -4(%rbp), %eax
	movl	%eax, -8(%rbp)
	movq	-64(%rbp), %rdi
	movl	-28(%rbp), %esi
	movq	-120(%rbp), %rdx
	addq	$816, %rdx              # imm = 0x330
	addq	$160, %rdx
	movslq	-8(%rbp), %rax
	shlq	$4, %rax
	addq	%rax, %rdx
	movl	$3, %ecx
	callq	unary_exp_golomb_mv_encode
	xorl	%eax, %eax
	movl	-24(%rbp), %ecx
	cmpl	$0, %ecx
	movl	$1, %ecx
	cmovll	%ecx, %eax
	movl	%eax, -132(%rbp)
	movq	-64(%rbp), %rdi
	movl	-132(%rbp), %eax
	movzbl	%al, %eax
	movswl	%ax, %esi
	callq	biari_encode_symbol_eq_prob
.LBB41_44:                              # %if.end193
	cmpl	$1936318721, -128(%rbp) # imm = 0x7369E101
	jne	.LBB41_46
.LBB41_45:
	addq	$144, %rsp
	popq	%rbp
	.cfi_def_cfa %rsp, 8
	retq
.LBB41_46:                              # %func_exit
	.cfi_def_cfa %rbp, 16
	callq	detect_breach
	jmp	.LBB41_45
.Lfunc_end41:
	.size	writeMVD_CABAC.14, .Lfunc_end41-writeMVD_CABAC.14
	.cfi_endproc
                                        # -- End function
	.globl	writeRefFrame_CABAC.15  # -- Begin function writeRefFrame_CABAC.15
	.p2align	4, 0x90
	.type	writeRefFrame_CABAC.15,@function
writeRefFrame_CABAC.15:                 # @writeRefFrame_CABAC.15
	.cfi_startproc
# %bb.0:                                # %entry
	pushq	%rbp
	.cfi_def_cfa_offset 16
	.cfi_offset %rbp, -16
	movq	%rsp, %rbp
	.cfi_def_cfa_register %rbp
	subq	$128, %rsp
	movl	$145932275, -64(%rbp)   # imm = 0x8B2BFF3
	movq	%rdi, -56(%rbp)
	movq	%rsi, -40(%rbp)
	movq	img, %rax
	movq	14160(%rax), %rax
	movq	32(%rax), %rax
	movq	%rax, -48(%rbp)
	movq	img, %rax
	movq	14168(%rax), %rax
	movq	img, %rcx
	movslq	12(%rcx), %rcx
	imulq	$632, %rcx, %rcx        # imm = 0x278
	addq	%rcx, %rax
	movq	%rax, -128(%rbp)
	movl	$0, -20(%rbp)
	movq	enc_picture, %rax
	movq	6480(%rax), %rax
	movq	-56(%rbp), %rcx
	movslq	8(%rcx), %rcx
	movq	(%rax,%rcx,8), %rax
	movq	%rax, -32(%rbp)
	movq	img, %rax
	cmpl	$1, 24(%rax)
	sete	%al
	andb	$1, %al
	movzbl	%al, %eax
	movl	%eax, -24(%rbp)
	movq	img, %rax
	movl	12(%rax), %edi
	movq	img, %rax
	movl	72(%rax), %esi
	movq	img, %rax
	movl	76(%rax), %edx
	movl	$4294967295, %ecx       # imm = 0xFFFFFFFF
	xorl	%r8d, %r8d
	leaq	-96(%rbp), %r9
	callq	getLuma4x4Neighbour
	movq	img, %rax
	movl	12(%rax), %edi
	movq	img, %rax
	movl	72(%rax), %esi
	movq	img, %rax
	movl	76(%rax), %edx
	movl	$0, %ecx
	movl	$4294967295, %r8d       # imm = 0xFFFFFFFF
	leaq	-120(%rbp), %r9
	callq	getLuma4x4Neighbour
	movl	-88(%rbp), %eax
	cltd
	movl	$2, %esi
	idivl	%esi
	cltd
	idivl	%esi
	movl	%edx, %ecx
	movl	-84(%rbp), %eax
	cltd
	idivl	%esi
	cltd
	idivl	%esi
	shll	$1, %edx
	addl	%edx, %ecx
	movl	%ecx, -60(%rbp)
	movl	-112(%rbp), %eax
	cltd
	idivl	%esi
	cltd
	idivl	%esi
	movl	%edx, %ecx
	movl	-108(%rbp), %eax
	cltd
	idivl	%esi
	cltd
	idivl	%esi
	shll	$1, %edx
	addl	%edx, %ecx
	movl	%ecx, -68(%rbp)
	cmpl	$0, -120(%rbp)
	jne	.LBB42_2
# %bb.1:                                # %if.then
	movl	$0, -8(%rbp)
	jmp	.LBB42_14
.LBB42_2:                               # %if.else
	movq	img, %rax
	movq	14168(%rax), %rax
	movslq	-116(%rbp), %rcx
	imulq	$632, %rcx, %rcx        # imm = 0x278
	addq	%rcx, %rax
	cmpl	$0, 72(%rax)
	jne	.LBB42_4
# %bb.3:                                # %land.lhs.true
	movq	img, %rax
	cmpl	$1, 24(%rax)
	je	.LBB42_6
.LBB42_4:                               # %lor.lhs.false
	movq	img, %rax
	movq	14168(%rax), %rax
	movslq	-116(%rbp), %rcx
	imulq	$632, %rcx, %rcx        # imm = 0x278
	addq	%rcx, %rax
	movslq	-68(%rbp), %rcx
	cmpl	$0, 472(%rax,%rcx,4)
	jne	.LBB42_7
# %bb.5:                                # %land.lhs.true33
	cmpl	$0, -24(%rbp)
	je	.LBB42_7
.LBB42_6:                               # %if.then35
	movl	$0, -8(%rbp)
	jmp	.LBB42_13
.LBB42_7:                               # %if.else36
	movq	img, %rax
	cmpl	$0, 72400(%rax)
	je	.LBB42_11
# %bb.8:                                # %land.lhs.true38
	movq	-128(%rbp), %rax
	cmpl	$0, 532(%rax)
	jne	.LBB42_11
# %bb.9:                                # %land.lhs.true41
	movq	img, %rax
	movq	14168(%rax), %rax
	movslq	-116(%rbp), %rcx
	imulq	$632, %rcx, %rcx        # imm = 0x278
	addq	%rcx, %rax
	cmpl	$1, 532(%rax)
	jne	.LBB42_11
# %bb.10:                               # %if.then49
	xorl	%eax, %eax
	movq	-32(%rbp), %rcx
	movslq	-104(%rbp), %rdx
	movq	(%rcx,%rdx,8), %rcx
	movslq	-100(%rbp), %rdx
	movswl	(%rcx,%rdx,2), %ecx
	cmpl	$1, %ecx
	movl	$1, %ecx
	cmovgl	%ecx, %eax
	movl	%eax, -8(%rbp)
	jmp	.LBB42_12
.LBB42_11:                              # %if.else57
	xorl	%eax, %eax
	movq	-32(%rbp), %rcx
	movslq	-104(%rbp), %rdx
	movq	(%rcx,%rdx,8), %rcx
	movslq	-100(%rbp), %rdx
	movswl	(%rcx,%rdx,2), %ecx
	cmpl	$0, %ecx
	movl	$1, %ecx
	cmovgl	%ecx, %eax
	movl	%eax, -8(%rbp)
.LBB42_12:                              # %if.end
	jmp	.LBB42_13
.LBB42_13:                              # %if.end68
	jmp	.LBB42_14
.LBB42_14:                              # %if.end69
	cmpl	$0, -96(%rbp)
	jne	.LBB42_16
# %bb.15:                               # %if.then72
	movl	$0, -12(%rbp)
	jmp	.LBB42_28
.LBB42_16:                              # %if.else73
	movq	img, %rax
	movq	14168(%rax), %rax
	movslq	-92(%rbp), %rcx
	imulq	$632, %rcx, %rcx        # imm = 0x278
	addq	%rcx, %rax
	cmpl	$0, 72(%rax)
	jne	.LBB42_18
# %bb.17:                               # %land.lhs.true81
	movq	img, %rax
	cmpl	$1, 24(%rax)
	je	.LBB42_20
.LBB42_18:                              # %lor.lhs.false85
	movq	img, %rax
	movq	14168(%rax), %rax
	movslq	-92(%rbp), %rcx
	imulq	$632, %rcx, %rcx        # imm = 0x278
	addq	%rcx, %rax
	movslq	-60(%rbp), %rcx
	cmpl	$0, 472(%rax,%rcx,4)
	jne	.LBB42_21
# %bb.19:                               # %land.lhs.true95
	cmpl	$0, -24(%rbp)
	je	.LBB42_21
.LBB42_20:                              # %if.then97
	movl	$0, -12(%rbp)
	jmp	.LBB42_27
.LBB42_21:                              # %if.else98
	movq	img, %rax
	cmpl	$0, 72400(%rax)
	je	.LBB42_25
# %bb.22:                               # %land.lhs.true101
	movq	-128(%rbp), %rax
	cmpl	$0, 532(%rax)
	jne	.LBB42_25
# %bb.23:                               # %land.lhs.true105
	movq	img, %rax
	movq	14168(%rax), %rax
	movslq	-92(%rbp), %rcx
	imulq	$632, %rcx, %rcx        # imm = 0x278
	addq	%rcx, %rax
	cmpl	$1, 532(%rax)
	jne	.LBB42_25
# %bb.24:                               # %if.then113
	xorl	%eax, %eax
	movq	-32(%rbp), %rcx
	movslq	-80(%rbp), %rdx
	movq	(%rcx,%rdx,8), %rcx
	movslq	-76(%rbp), %rdx
	movswl	(%rcx,%rdx,2), %ecx
	cmpl	$1, %ecx
	movl	$1, %ecx
	cmovgl	%ecx, %eax
	movl	%eax, -12(%rbp)
	jmp	.LBB42_26
.LBB42_25:                              # %if.else124
	xorl	%eax, %eax
	movq	-32(%rbp), %rcx
	movslq	-80(%rbp), %rdx
	movq	(%rcx,%rdx,8), %rcx
	movslq	-76(%rbp), %rdx
	movswl	(%rcx,%rdx,2), %ecx
	cmpl	$0, %ecx
	movl	$1, %ecx
	cmovgl	%ecx, %eax
	movl	%eax, -12(%rbp)
.LBB42_26:                              # %if.end135
	jmp	.LBB42_27
.LBB42_27:                              # %if.end136
	jmp	.LBB42_28
.LBB42_28:                              # %if.end137
	movl	-12(%rbp), %eax
	movl	-8(%rbp), %ecx
	shll	$1, %ecx
	addl	%ecx, %eax
	movl	%eax, -4(%rbp)
	movl	-4(%rbp), %eax
	movq	-56(%rbp), %rcx
	movl	%eax, 24(%rcx)
	movq	-56(%rbp), %rax
	movl	4(%rax), %eax
	movl	%eax, -16(%rbp)
	cmpl	$0, -16(%rbp)
	jne	.LBB42_30
# %bb.29:                               # %if.then142
	movq	-40(%rbp), %rdi
	movq	-48(%rbp), %rdx
	addq	$1136, %rdx             # imm = 0x470
	movslq	-20(%rbp), %rax
	imulq	$96, %rax, %rax
	addq	%rax, %rdx
	movslq	-4(%rbp), %rax
	shlq	$4, %rax
	addq	%rax, %rdx
	xorl	%esi, %esi
	callq	biari_encode_symbol
	jmp	.LBB42_31
.LBB42_30:                              # %if.else145
	movq	-40(%rbp), %rdi
	movq	-48(%rbp), %rdx
	addq	$1136, %rdx             # imm = 0x470
	movslq	-20(%rbp), %rax
	imulq	$96, %rax, %rax
	addq	%rax, %rdx
	movslq	-4(%rbp), %rax
	shlq	$4, %rax
	addq	%rax, %rdx
	movl	$1, %esi
	callq	biari_encode_symbol
	movl	-16(%rbp), %eax
	addl	$-1, %eax
	movl	%eax, -16(%rbp)
	movl	$4, -4(%rbp)
	movq	-40(%rbp), %rdi
	movl	-16(%rbp), %esi
	movq	-48(%rbp), %rdx
	addq	$1136, %rdx             # imm = 0x470
	movslq	-20(%rbp), %rax
	imulq	$96, %rax, %rax
	addq	%rax, %rdx
	movslq	-4(%rbp), %rax
	shlq	$4, %rax
	addq	%rax, %rdx
	movl	$1, %ecx
	callq	unary_bin_encode
.LBB42_31:                              # %if.end158
	cmpl	$145932275, -64(%rbp)   # imm = 0x8B2BFF3
	jne	.LBB42_33
.LBB42_32:
	addq	$128, %rsp
	popq	%rbp
	.cfi_def_cfa %rsp, 8
	retq
.LBB42_33:                              # %func_exit
	.cfi_def_cfa %rbp, 16
	callq	detect_breach
	jmp	.LBB42_32
.Lfunc_end42:
	.size	writeRefFrame_CABAC.15, .Lfunc_end42-writeRefFrame_CABAC.15
	.cfi_endproc
                                        # -- End function
	.globl	unary_bin_max_encode.16 # -- Begin function unary_bin_max_encode.16
	.p2align	4, 0x90
	.type	unary_bin_max_encode.16,@function
unary_bin_max_encode.16:                # @unary_bin_max_encode.16
	.cfi_startproc
# %bb.0:                                # %entry
	pushq	%rbp
	.cfi_def_cfa_offset 16
	.cfi_offset %rbp, -16
	movq	%rsp, %rbp
	.cfi_def_cfa_register %rbp
	subq	$48, %rsp
	movl	$1607366671, -32(%rbp)  # imm = 0x5FCE780F
	movq	%rdi, -16(%rbp)
	movl	%esi, -4(%rbp)
	movq	%rdx, -24(%rbp)
	movl	%ecx, -36(%rbp)
	movl	%r8d, -28(%rbp)
	cmpl	$0, -4(%rbp)
	jne	.LBB43_2
# %bb.1:                                # %if.then
	movq	-16(%rbp), %rdi
	movq	-24(%rbp), %rdx
	xorl	%esi, %esi
	callq	biari_encode_symbol
	jmp	.LBB43_9
.LBB43_2:                               # %if.else
	movq	-16(%rbp), %rdi
	movq	-24(%rbp), %rdx
	movl	$1, %esi
	callq	biari_encode_symbol
	movl	-4(%rbp), %eax
	movl	%eax, -8(%rbp)
	movq	-24(%rbp), %rax
	movslq	-36(%rbp), %rcx
	shlq	$4, %rcx
	addq	%rcx, %rax
	movq	%rax, -48(%rbp)
.LBB43_3:                               # %while.cond
                                        # =>This Inner Loop Header: Depth=1
	movl	-8(%rbp), %eax
	addl	$-1, %eax
	movl	%eax, -8(%rbp)
	cmpl	$0, %eax
	jbe	.LBB43_5
# %bb.4:                                # %while.body
                                        #   in Loop: Header=BB43_3 Depth=1
	movq	-16(%rbp), %rdi
	movq	-48(%rbp), %rdx
	movl	$1, %esi
	callq	biari_encode_symbol
	jmp	.LBB43_3
.LBB43_5:                               # %while.end
	movl	-4(%rbp), %eax
	cmpl	-28(%rbp), %eax
	jae	.LBB43_7
# %bb.6:                                # %if.then3
	movq	-16(%rbp), %rdi
	movq	-48(%rbp), %rdx
	xorl	%esi, %esi
	callq	biari_encode_symbol
.LBB43_7:                               # %if.end
	jmp	.LBB43_8
.LBB43_8:                               # %if.end4
	jmp	.LBB43_9
.LBB43_9:                               # %return
	cmpl	$1607366671, -32(%rbp)  # imm = 0x5FCE780F
	jne	.LBB43_11
.LBB43_10:
	addq	$48, %rsp
	popq	%rbp
	.cfi_def_cfa %rsp, 8
	retq
.LBB43_11:                              # %func_exit
	.cfi_def_cfa %rbp, 16
	callq	detect_breach
	jmp	.LBB43_10
.Lfunc_end43:
	.size	unary_bin_max_encode.16, .Lfunc_end43-unary_bin_max_encode.16
	.cfi_endproc
                                        # -- End function
	.globl	writeFieldModeInfo_CABAC.17 # -- Begin function writeFieldModeInfo_CABAC.17
	.p2align	4, 0x90
	.type	writeFieldModeInfo_CABAC.17,@function
writeFieldModeInfo_CABAC.17:            # @writeFieldModeInfo_CABAC.17
	.cfi_startproc
# %bb.0:                                # %entry
	pushq	%rbp
	.cfi_def_cfa_offset 16
	.cfi_offset %rbp, -16
	movq	%rsp, %rbp
	.cfi_def_cfa_register %rbp
	subq	$64, %rsp
	movl	$242705383, -32(%rbp)   # imm = 0xE7763E7
	movq	%rdi, -56(%rbp)
	movq	%rsi, -48(%rbp)
	movq	img, %rax
	movq	14160(%rax), %rax
	movq	32(%rax), %rax
	movq	%rax, -40(%rbp)
	movq	img, %rax
	movq	14168(%rax), %rax
	movq	img, %rcx
	movslq	12(%rcx), %rcx
	imulq	$632, %rcx, %rcx        # imm = 0x278
	addq	%rcx, %rax
	movq	%rax, -24(%rbp)
	movq	-56(%rbp), %rax
	movl	4(%rax), %eax
	movl	%eax, -28(%rbp)
	movq	-24(%rbp), %rax
	cmpl	$0, 552(%rax)
	je	.LBB44_2
# %bb.1:                                # %if.then
	movq	img, %rax
	movq	14168(%rax), %rax
	movq	-24(%rbp), %rcx
	movslq	536(%rcx), %rcx
	imulq	$632, %rcx, %rcx        # imm = 0x278
	addq	%rcx, %rax
	movl	532(%rax), %eax
	movl	%eax, -12(%rbp)
	jmp	.LBB44_3
.LBB44_2:                               # %if.else
	movl	$0, -12(%rbp)
.LBB44_3:                               # %if.end
	movq	-24(%rbp), %rax
	cmpl	$0, 556(%rax)
	je	.LBB44_5
# %bb.4:                                # %if.then6
	movq	img, %rax
	movq	14168(%rax), %rax
	movq	-24(%rbp), %rcx
	movslq	540(%rcx), %rcx
	imulq	$632, %rcx, %rcx        # imm = 0x278
	addq	%rcx, %rax
	movl	532(%rax), %eax
	movl	%eax, -8(%rbp)
	jmp	.LBB44_6
.LBB44_5:                               # %if.else11
	movl	$0, -8(%rbp)
.LBB44_6:                               # %if.end12
	movl	-12(%rbp), %eax
	addl	-8(%rbp), %eax
	movl	%eax, -4(%rbp)
	cmpl	$0, -28(%rbp)
	jne	.LBB44_8
# %bb.7:                                # %if.then13
	movq	-48(%rbp), %rdi
	movq	-40(%rbp), %rdx
	addq	$1392, %rdx             # imm = 0x570
	movslq	-4(%rbp), %rax
	shlq	$4, %rax
	addq	%rax, %rdx
	xorl	%esi, %esi
	callq	biari_encode_symbol
	jmp	.LBB44_9
.LBB44_8:                               # %if.else16
	movq	-48(%rbp), %rdi
	movq	-40(%rbp), %rdx
	addq	$1392, %rdx             # imm = 0x570
	movslq	-4(%rbp), %rax
	shlq	$4, %rax
	addq	%rax, %rdx
	movl	$1, %esi
	callq	biari_encode_symbol
.LBB44_9:                               # %if.end20
	movl	-4(%rbp), %eax
	movq	-56(%rbp), %rcx
	movl	%eax, 24(%rcx)
	cmpl	$242705383, -32(%rbp)   # imm = 0xE7763E7
	jne	.LBB44_11
.LBB44_10:
	addq	$64, %rsp
	popq	%rbp
	.cfi_def_cfa %rsp, 8
	retq
.LBB44_11:                              # %func_exit
	.cfi_def_cfa %rbp, 16
	callq	detect_breach
	jmp	.LBB44_10
.Lfunc_end44:
	.size	writeFieldModeInfo_CABAC.17, .Lfunc_end44-writeFieldModeInfo_CABAC.17
	.cfi_endproc
                                        # -- End function
	.globl	writeMB_skip_flagInfo_CABAC.18 # -- Begin function writeMB_skip_flagInfo_CABAC.18
	.p2align	4, 0x90
	.type	writeMB_skip_flagInfo_CABAC.18,@function
writeMB_skip_flagInfo_CABAC.18:         # @writeMB_skip_flagInfo_CABAC.18
	.cfi_startproc
# %bb.0:                                # %entry
	pushq	%rbp
	.cfi_def_cfa_offset 16
	.cfi_offset %rbp, -16
	movq	%rsp, %rbp
	.cfi_def_cfa_register %rbp
	subq	$64, %rsp
	movl	$978019242, -64(%rbp)   # imm = 0x3A4B63AA
	movq	%rdi, -32(%rbp)
	movq	%rsi, -48(%rbp)
	movq	img, %rax
	cmpl	$1, 24(%rax)
	sete	%al
	andb	$1, %al
	movzbl	%al, %eax
	movl	%eax, -60(%rbp)
	movq	img, %rax
	movq	14160(%rax), %rax
	movq	32(%rax), %rax
	movq	%rax, -56(%rbp)
	movq	img, %rax
	movq	14168(%rax), %rax
	movq	img, %rcx
	movslq	12(%rcx), %rcx
	imulq	$632, %rcx, %rcx        # imm = 0x278
	addq	%rcx, %rax
	movq	%rax, -24(%rbp)
	movq	-32(%rbp), %rax
	movl	4(%rax), %eax
	movl	%eax, -36(%rbp)
	cmpl	$0, -60(%rbp)
	je	.LBB45_14
# %bb.1:                                # %if.then
	movq	-24(%rbp), %rax
	cmpq	$0, 56(%rax)
	jne	.LBB45_3
# %bb.2:                                # %if.then3
	movl	$0, -12(%rbp)
	jmp	.LBB45_4
.LBB45_3:                               # %if.else
	xorl	%eax, %eax
	movq	-24(%rbp), %rcx
	movq	56(%rcx), %rcx
	movl	624(%rcx), %ecx
	cmpl	$0, %ecx
	movl	$1, %ecx
	cmovel	%eax, %ecx
	movl	%ecx, -12(%rbp)
.LBB45_4:                               # %if.end
	movq	-24(%rbp), %rax
	cmpq	$0, 64(%rax)
	jne	.LBB45_6
# %bb.5:                                # %if.then9
	movl	$0, -8(%rbp)
	jmp	.LBB45_7
.LBB45_6:                               # %if.else10
	xorl	%eax, %eax
	movq	-24(%rbp), %rcx
	movq	64(%rcx), %rcx
	movl	624(%rcx), %ecx
	cmpl	$0, %ecx
	movl	$1, %ecx
	cmovel	%eax, %ecx
	movl	%ecx, -8(%rbp)
.LBB45_7:                               # %if.end16
	movl	-8(%rbp), %eax
	addl	$7, %eax
	addl	-12(%rbp), %eax
	movl	%eax, -4(%rbp)
	movq	-32(%rbp), %rax
	cmpl	$0, 4(%rax)
	jne	.LBB45_10
# %bb.8:                                # %land.lhs.true
	movq	-32(%rbp), %rax
	cmpl	$0, 8(%rax)
	jne	.LBB45_10
# %bb.9:                                # %if.then23
	movq	-48(%rbp), %rdi
	movq	-56(%rbp), %rdx
	addq	$352, %rdx              # imm = 0x160
	movslq	-4(%rbp), %rax
	shlq	$4, %rax
	addq	%rax, %rdx
	movl	$1, %esi
	callq	biari_encode_symbol
	jmp	.LBB45_11
.LBB45_10:                              # %if.else27
	movq	-48(%rbp), %rdi
	movq	-56(%rbp), %rdx
	addq	$352, %rdx              # imm = 0x160
	movslq	-4(%rbp), %rax
	shlq	$4, %rax
	addq	%rax, %rdx
	xorl	%esi, %esi
	callq	biari_encode_symbol
.LBB45_11:                              # %if.end32
	xorl	%eax, %eax
	movq	-32(%rbp), %rcx
	cmpl	$0, 4(%rcx)
	jne	.LBB45_13
# %bb.12:                               # %land.rhs
	movq	-32(%rbp), %rax
	cmpl	$0, 8(%rax)
	sete	%al
.LBB45_13:                              # %land.end
	xorl	%ecx, %ecx
	testb	$1, %al
	movl	$1, %eax
	cmovnel	%ecx, %eax
	movq	-24(%rbp), %rcx
	movl	%eax, 624(%rcx)
	jmp	.LBB45_24
.LBB45_14:                              # %if.else41
	movq	-24(%rbp), %rax
	cmpq	$0, 56(%rax)
	jne	.LBB45_16
# %bb.15:                               # %if.then45
	movl	$0, -12(%rbp)
	jmp	.LBB45_17
.LBB45_16:                              # %if.else46
	xorl	%eax, %eax
	movq	-24(%rbp), %rcx
	movq	56(%rcx), %rcx
	movl	624(%rcx), %ecx
	cmpl	$0, %ecx
	movl	$1, %ecx
	cmovnel	%ecx, %eax
	movl	%eax, -12(%rbp)
.LBB45_17:                              # %if.end52
	movq	-24(%rbp), %rax
	cmpq	$0, 64(%rax)
	jne	.LBB45_19
# %bb.18:                               # %if.then56
	movl	$0, -8(%rbp)
	jmp	.LBB45_20
.LBB45_19:                              # %if.else57
	xorl	%eax, %eax
	movq	-24(%rbp), %rcx
	movq	64(%rcx), %rcx
	movl	624(%rcx), %ecx
	cmpl	$0, %ecx
	movl	$1, %ecx
	cmovnel	%ecx, %eax
	movl	%eax, -8(%rbp)
.LBB45_20:                              # %if.end63
	movl	-8(%rbp), %eax
	addl	-12(%rbp), %eax
	movl	%eax, -4(%rbp)
	cmpl	$0, -36(%rbp)
	jne	.LBB45_22
# %bb.21:                               # %if.then67
	movq	-48(%rbp), %rdi
	movq	-56(%rbp), %rdx
	addq	$176, %rdx
	movslq	-4(%rbp), %rax
	shlq	$4, %rax
	addq	%rax, %rdx
	movl	$1, %esi
	callq	biari_encode_symbol
	jmp	.LBB45_23
.LBB45_22:                              # %if.else72
	movq	-48(%rbp), %rdi
	movq	-56(%rbp), %rdx
	addq	$176, %rdx
	movslq	-4(%rbp), %rax
	shlq	$4, %rax
	addq	%rax, %rdx
	xorl	%esi, %esi
	callq	biari_encode_symbol
.LBB45_23:                              # %if.end77
	xorl	%eax, %eax
	movl	-36(%rbp), %ecx
	cmpl	$0, %ecx
	movl	$1, %ecx
	cmovel	%eax, %ecx
	movq	-24(%rbp), %rax
	movl	%ecx, 624(%rax)
.LBB45_24:                              # %if.end82
	movl	-4(%rbp), %eax
	movq	-32(%rbp), %rcx
	movl	%eax, 24(%rcx)
	cmpl	$978019242, -64(%rbp)   # imm = 0x3A4B63AA
	jne	.LBB45_26
.LBB45_25:
	addq	$64, %rsp
	popq	%rbp
	.cfi_def_cfa %rsp, 8
	retq
.LBB45_26:                              # %func_exit
	.cfi_def_cfa %rbp, 16
	callq	detect_breach
	jmp	.LBB45_25
.Lfunc_end45:
	.size	writeMB_skip_flagInfo_CABAC.18, .Lfunc_end45-writeMB_skip_flagInfo_CABAC.18
	.cfi_endproc
                                        # -- End function
	.globl	writeFieldModeInfo_CABAC.19 # -- Begin function writeFieldModeInfo_CABAC.19
	.p2align	4, 0x90
	.type	writeFieldModeInfo_CABAC.19,@function
writeFieldModeInfo_CABAC.19:            # @writeFieldModeInfo_CABAC.19
	.cfi_startproc
# %bb.0:                                # %entry
	pushq	%rbp
	.cfi_def_cfa_offset 16
	.cfi_offset %rbp, -16
	movq	%rsp, %rbp
	.cfi_def_cfa_register %rbp
	subq	$64, %rsp
	movl	$1142535728, -32(%rbp)  # imm = 0x4419B630
	movq	%rdi, -56(%rbp)
	movq	%rsi, -40(%rbp)
	movq	img, %rax
	movq	14160(%rax), %rax
	movq	32(%rax), %rax
	movq	%rax, -48(%rbp)
	movq	img, %rax
	movq	14168(%rax), %rax
	movq	img, %rcx
	movslq	12(%rcx), %rcx
	imulq	$632, %rcx, %rcx        # imm = 0x278
	addq	%rcx, %rax
	movq	%rax, -24(%rbp)
	movq	-56(%rbp), %rax
	movl	4(%rax), %eax
	movl	%eax, -28(%rbp)
	movq	-24(%rbp), %rax
	cmpl	$0, 552(%rax)
	je	.LBB46_2
# %bb.1:                                # %if.then
	movq	img, %rax
	movq	14168(%rax), %rax
	movq	-24(%rbp), %rcx
	movslq	536(%rcx), %rcx
	imulq	$632, %rcx, %rcx        # imm = 0x278
	addq	%rcx, %rax
	movl	532(%rax), %eax
	movl	%eax, -12(%rbp)
	jmp	.LBB46_3
.LBB46_2:                               # %if.else
	movl	$0, -12(%rbp)
.LBB46_3:                               # %if.end
	movq	-24(%rbp), %rax
	cmpl	$0, 556(%rax)
	je	.LBB46_5
# %bb.4:                                # %if.then6
	movq	img, %rax
	movq	14168(%rax), %rax
	movq	-24(%rbp), %rcx
	movslq	540(%rcx), %rcx
	imulq	$632, %rcx, %rcx        # imm = 0x278
	addq	%rcx, %rax
	movl	532(%rax), %eax
	movl	%eax, -8(%rbp)
	jmp	.LBB46_6
.LBB46_5:                               # %if.else11
	movl	$0, -8(%rbp)
.LBB46_6:                               # %if.end12
	movl	-12(%rbp), %eax
	addl	-8(%rbp), %eax
	movl	%eax, -4(%rbp)
	cmpl	$0, -28(%rbp)
	jne	.LBB46_8
# %bb.7:                                # %if.then13
	movq	-40(%rbp), %rdi
	movq	-48(%rbp), %rdx
	addq	$1392, %rdx             # imm = 0x570
	movslq	-4(%rbp), %rax
	shlq	$4, %rax
	addq	%rax, %rdx
	xorl	%esi, %esi
	callq	biari_encode_symbol
	jmp	.LBB46_9
.LBB46_8:                               # %if.else16
	movq	-40(%rbp), %rdi
	movq	-48(%rbp), %rdx
	addq	$1392, %rdx             # imm = 0x570
	movslq	-4(%rbp), %rax
	shlq	$4, %rax
	addq	%rax, %rdx
	movl	$1, %esi
	callq	biari_encode_symbol
.LBB46_9:                               # %if.end20
	movl	-4(%rbp), %eax
	movq	-56(%rbp), %rcx
	movl	%eax, 24(%rcx)
	cmpl	$1142535728, -32(%rbp)  # imm = 0x4419B630
	jne	.LBB46_11
.LBB46_10:
	addq	$64, %rsp
	popq	%rbp
	.cfi_def_cfa %rsp, 8
	retq
.LBB46_11:                              # %func_exit
	.cfi_def_cfa %rbp, 16
	callq	detect_breach
	jmp	.LBB46_10
.Lfunc_end46:
	.size	writeFieldModeInfo_CABAC.19, .Lfunc_end46-writeFieldModeInfo_CABAC.19
	.cfi_endproc
                                        # -- End function
	.globl	writeDquant_CABAC.20    # -- Begin function writeDquant_CABAC.20
	.p2align	4, 0x90
	.type	writeDquant_CABAC.20,@function
writeDquant_CABAC.20:                   # @writeDquant_CABAC.20
	.cfi_startproc
# %bb.0:                                # %entry
	pushq	%rbp
	.cfi_def_cfa_offset 16
	.cfi_offset %rbp, -16
	movq	%rsp, %rbp
	.cfi_def_cfa_register %rbp
	subq	$64, %rsp
	movl	$396019268, -36(%rbp)   # imm = 0x179AC644
	movq	%rdi, -56(%rbp)
	movq	%rsi, -24(%rbp)
	movq	img, %rax
	movq	14160(%rax), %rax
	movq	32(%rax), %rax
	movq	%rax, -32(%rbp)
	movq	-56(%rbp), %rax
	movl	4(%rax), %eax
	movl	%eax, -16(%rbp)
	movl	$0, -12(%rbp)
	movq	img, %rax
	movq	14168(%rax), %rax
	movq	img, %rcx
	movslq	12(%rcx), %rcx
	imulq	$632, %rcx, %rcx        # imm = 0x278
	addq	%rcx, %rax
	movq	%rax, -48(%rbp)
	movq	-48(%rbp), %rax
	movl	596(%rax), %eax
	movl	%eax, last_dquant
	cmpl	$0, -16(%rbp)
	jg	.LBB47_2
# %bb.1:                                # %if.then
	movl	$1, -12(%rbp)
.LBB47_2:                               # %if.end
	movl	-16(%rbp), %edi
	callq	abs
	xorl	%ecx, %ecx
	shll	$1, %eax
	movl	%eax, -4(%rbp)
	movl	-12(%rbp), %eax
	addl	-4(%rbp), %eax
	movl	%eax, -4(%rbp)
	movl	-4(%rbp), %eax
	addl	$-1, %eax
	movl	%eax, -4(%rbp)
	movl	last_dquant, %eax
	cmpl	$0, %eax
	movl	$1, %eax
	cmovnel	%eax, %ecx
	movl	%ecx, -8(%rbp)
	cmpl	$0, -4(%rbp)
	jne	.LBB47_4
# %bb.3:                                # %if.then3
	movq	-24(%rbp), %rdi
	movq	-32(%rbp), %rdx
	addq	$1328, %rdx             # imm = 0x530
	movslq	-8(%rbp), %rax
	shlq	$4, %rax
	addq	%rax, %rdx
	xorl	%esi, %esi
	callq	biari_encode_symbol
	jmp	.LBB47_5
.LBB47_4:                               # %if.else
	movq	-24(%rbp), %rdi
	movq	-32(%rbp), %rdx
	addq	$1328, %rdx             # imm = 0x530
	movslq	-8(%rbp), %rax
	shlq	$4, %rax
	addq	%rax, %rdx
	movl	$1, %esi
	callq	biari_encode_symbol
	movl	$2, -8(%rbp)
	movl	-4(%rbp), %eax
	addl	$-1, %eax
	movl	%eax, -4(%rbp)
	movq	-24(%rbp), %rdi
	movl	-4(%rbp), %esi
	movq	-32(%rbp), %rdx
	addq	$1328, %rdx             # imm = 0x530
	movslq	-8(%rbp), %rax
	shlq	$4, %rax
	addq	%rax, %rdx
	movl	$1, %ecx
	callq	unary_bin_encode
.LBB47_5:                               # %if.end13
	cmpl	$396019268, -36(%rbp)   # imm = 0x179AC644
	jne	.LBB47_7
.LBB47_6:
	addq	$64, %rsp
	popq	%rbp
	.cfi_def_cfa %rsp, 8
	retq
.LBB47_7:                               # %func_exit
	.cfi_def_cfa %rbp, 16
	callq	detect_breach
	jmp	.LBB47_6
.Lfunc_end47:
	.size	writeDquant_CABAC.20, .Lfunc_end47-writeDquant_CABAC.20
	.cfi_endproc
                                        # -- End function
	.globl	writeCBP_CABAC.21       # -- Begin function writeCBP_CABAC.21
	.p2align	4, 0x90
	.type	writeCBP_CABAC.21,@function
writeCBP_CABAC.21:                      # @writeCBP_CABAC.21
	.cfi_startproc
# %bb.0:                                # %entry
	pushq	%rbp
	.cfi_def_cfa_offset 16
	.cfi_offset %rbp, -16
	movq	%rsp, %rbp
	.cfi_def_cfa_register %rbp
	subq	$64, %rsp
	movl	$949999684, -48(%rbp)   # imm = 0x389FD844
	movq	%rdi, -64(%rbp)
	movq	%rsi, -40(%rbp)
	movq	img, %rax
	movq	14160(%rax), %rax
	movq	40(%rax), %rax
	movq	%rax, -56(%rbp)
	movq	img, %rax
	movq	14168(%rax), %rax
	movq	img, %rcx
	movslq	12(%rcx), %rcx
	imulq	$632, %rcx, %rcx        # imm = 0x278
	addq	%rcx, %rax
	movq	%rax, -8(%rbp)
	movq	-64(%rbp), %rax
	movl	4(%rax), %eax
	movl	%eax, -24(%rbp)
	movl	$0, -20(%rbp)
.LBB48_1:                               # %for.cond
                                        # =>This Inner Loop Header: Depth=1
	cmpl	$4, -20(%rbp)
	jge	.LBB48_4
# %bb.2:                                # %for.body
                                        #   in Loop: Header=BB48_1 Depth=1
	xorl	%eax, %eax
	movq	-8(%rbp), %rcx
	movslq	-20(%rbp), %rdx
	movl	472(%rcx,%rdx,4), %ecx
	cmpl	$11, %ecx
	movl	$1, %edx
	movl	$1, %ecx
	cmovel	%eax, %ecx
	movl	%ecx, -44(%rbp)
	movl	-20(%rbp), %edi
	movl	-24(%rbp), %esi
	movl	-20(%rbp), %ecx
                                        # kill: def $cl killed $ecx
	shll	%cl, %edx
	andl	%edx, %esi
	movl	-24(%rbp), %edx
	movq	-8(%rbp), %rcx
	movl	-44(%rbp), %r8d
	movq	-40(%rbp), %r9
	callq	writeCBP_BIT_CABAC
# %bb.3:                                # %for.inc
                                        #   in Loop: Header=BB48_1 Depth=1
	movl	-20(%rbp), %eax
	addl	$1, %eax
	movl	%eax, -20(%rbp)
	jmp	.LBB48_1
.LBB48_4:                               # %for.end
	movq	img, %rax
	cmpl	$0, 72700(%rax)
	je	.LBB48_32
# %bb.5:                                # %if.then
	movl	$0, -16(%rbp)
	movq	-8(%rbp), %rax
	cmpq	$0, 56(%rax)
	je	.LBB48_10
# %bb.6:                                # %if.then6
	movq	-8(%rbp), %rax
	movq	56(%rax), %rax
	cmpl	$14, 72(%rax)
	jne	.LBB48_8
# %bb.7:                                # %if.then9
	movl	$1, -16(%rbp)
	jmp	.LBB48_9
.LBB48_8:                               # %if.else
	xorl	%eax, %eax
	movq	-8(%rbp), %rcx
	movq	56(%rcx), %rcx
	movl	460(%rcx), %ecx
	cmpl	$15, %ecx
	movl	$1, %ecx
	cmovgl	%ecx, %eax
	movl	%eax, -16(%rbp)
.LBB48_9:                               # %if.end
	jmp	.LBB48_10
.LBB48_10:                              # %if.end14
	movl	$0, -12(%rbp)
	movq	-8(%rbp), %rax
	cmpq	$0, 64(%rax)
	je	.LBB48_15
# %bb.11:                               # %if.then16
	movq	-8(%rbp), %rax
	movq	64(%rax), %rax
	cmpl	$14, 72(%rax)
	jne	.LBB48_13
# %bb.12:                               # %if.then20
	movl	$1, -12(%rbp)
	jmp	.LBB48_14
.LBB48_13:                              # %if.else21
	xorl	%eax, %eax
	movq	-8(%rbp), %rcx
	movq	64(%rcx), %rcx
	movl	460(%rcx), %ecx
	cmpl	$15, %ecx
	movl	$1, %ecx
	cmovgl	%ecx, %eax
	movl	%eax, -12(%rbp)
.LBB48_14:                              # %if.end26
	jmp	.LBB48_15
.LBB48_15:                              # %if.end27
	xorl	%eax, %eax
	movl	-12(%rbp), %ecx
	movl	-16(%rbp), %edx
	shll	$1, %edx
	addl	%edx, %ecx
	movl	%ecx, -28(%rbp)
	movl	-24(%rbp), %ecx
	cmpl	$15, %ecx
	movl	$1, %ecx
	cmovgl	%ecx, %eax
	movl	%eax, -32(%rbp)
	movq	-40(%rbp), %rdi
	movl	-32(%rbp), %eax
	movzbl	%al, %eax
	movq	-56(%rbp), %rdx
	addq	$96, %rdx
	addq	$64, %rdx
	movslq	-28(%rbp), %rcx
	shlq	$4, %rcx
	addq	%rcx, %rdx
	movswl	%ax, %esi
	callq	biari_encode_symbol
	cmpl	$15, -24(%rbp)
	jle	.LBB48_31
# %bb.16:                               # %if.then34
	movl	$0, -16(%rbp)
	movq	-8(%rbp), %rax
	cmpq	$0, 56(%rax)
	je	.LBB48_23
# %bb.17:                               # %if.then38
	movq	-8(%rbp), %rax
	movq	56(%rax), %rax
	cmpl	$14, 72(%rax)
	jne	.LBB48_19
# %bb.18:                               # %if.then43
	movl	$1, -16(%rbp)
	jmp	.LBB48_22
.LBB48_19:                              # %if.else44
	movq	-8(%rbp), %rax
	movq	56(%rax), %rax
	cmpl	$15, 460(%rax)
	jle	.LBB48_21
# %bb.20:                               # %if.then49
	xorl	%eax, %eax
	movq	-8(%rbp), %rcx
	movq	56(%rcx), %rcx
	movl	460(%rcx), %ecx
	sarl	$4, %ecx
	cmpl	$2, %ecx
	movl	$1, %ecx
	cmovel	%ecx, %eax
	movl	%eax, -16(%rbp)
.LBB48_21:                              # %if.end55
	jmp	.LBB48_22
.LBB48_22:                              # %if.end56
	jmp	.LBB48_23
.LBB48_23:                              # %if.end57
	movl	$0, -12(%rbp)
	movq	-8(%rbp), %rax
	cmpq	$0, 64(%rax)
	je	.LBB48_30
# %bb.24:                               # %if.then61
	movq	-8(%rbp), %rax
	movq	64(%rax), %rax
	cmpl	$14, 72(%rax)
	jne	.LBB48_26
# %bb.25:                               # %if.then66
	movl	$1, -12(%rbp)
	jmp	.LBB48_29
.LBB48_26:                              # %if.else67
	movq	-8(%rbp), %rax
	movq	64(%rax), %rax
	cmpl	$15, 460(%rax)
	jle	.LBB48_28
# %bb.27:                               # %if.then72
	xorl	%eax, %eax
	movq	-8(%rbp), %rcx
	movq	64(%rcx), %rcx
	movl	460(%rcx), %ecx
	sarl	$4, %ecx
	cmpl	$2, %ecx
	movl	$1, %ecx
	cmovel	%ecx, %eax
	movl	%eax, -12(%rbp)
.LBB48_28:                              # %if.end79
	jmp	.LBB48_29
.LBB48_29:                              # %if.end80
	jmp	.LBB48_30
.LBB48_30:                              # %if.end81
	xorl	%eax, %eax
	movl	-12(%rbp), %ecx
	movl	-16(%rbp), %edx
	shll	$1, %edx
	addl	%edx, %ecx
	movl	%ecx, -28(%rbp)
	movl	-24(%rbp), %ecx
	sarl	$4, %ecx
	cmpl	$2, %ecx
	movl	$1, %ecx
	cmovel	%ecx, %eax
	movl	%eax, -32(%rbp)
	movq	-40(%rbp), %rdi
	movl	-32(%rbp), %eax
	movzbl	%al, %eax
	movq	-56(%rbp), %rdx
	addq	$96, %rdx
	addq	$128, %rdx
	movslq	-28(%rbp), %rcx
	shlq	$4, %rcx
	addq	%rcx, %rdx
	movswl	%ax, %esi
	callq	biari_encode_symbol
.LBB48_31:                              # %if.end95
	jmp	.LBB48_32
.LBB48_32:                              # %if.end96
	cmpl	$949999684, -48(%rbp)   # imm = 0x389FD844
	jne	.LBB48_34
.LBB48_33:
	addq	$64, %rsp
	popq	%rbp
	.cfi_def_cfa %rsp, 8
	retq
.LBB48_34:                              # %func_exit
	.cfi_def_cfa %rbp, 16
	callq	detect_breach
	jmp	.LBB48_33
.Lfunc_end48:
	.size	writeCBP_CABAC.21, .Lfunc_end48-writeCBP_CABAC.21
	.cfi_endproc
                                        # -- End function
	.globl	unary_bin_encode.22     # -- Begin function unary_bin_encode.22
	.p2align	4, 0x90
	.type	unary_bin_encode.22,@function
unary_bin_encode.22:                    # @unary_bin_encode.22
	.cfi_startproc
# %bb.0:                                # %entry
	pushq	%rbp
	.cfi_def_cfa_offset 16
	.cfi_offset %rbp, -16
	movq	%rsp, %rbp
	.cfi_def_cfa_register %rbp
	subq	$48, %rsp
	movl	$498415204, -32(%rbp)   # imm = 0x1DB53664
	movq	%rdi, -16(%rbp)
	movl	%esi, -8(%rbp)
	movq	%rdx, -24(%rbp)
	movl	%ecx, -28(%rbp)
	cmpl	$0, -8(%rbp)
	jne	.LBB49_2
# %bb.1:                                # %if.then
	movq	-16(%rbp), %rdi
	movq	-24(%rbp), %rdx
	xorl	%esi, %esi
	callq	biari_encode_symbol
	jmp	.LBB49_7
.LBB49_2:                               # %if.else
	movq	-16(%rbp), %rdi
	movq	-24(%rbp), %rdx
	movl	$1, %esi
	callq	biari_encode_symbol
	movl	-8(%rbp), %eax
	movl	%eax, -4(%rbp)
	movq	-24(%rbp), %rax
	movslq	-28(%rbp), %rcx
	shlq	$4, %rcx
	addq	%rcx, %rax
	movq	%rax, -40(%rbp)
.LBB49_3:                               # %while.cond
                                        # =>This Inner Loop Header: Depth=1
	movl	-4(%rbp), %eax
	addl	$-1, %eax
	movl	%eax, -4(%rbp)
	cmpl	$0, %eax
	jbe	.LBB49_5
# %bb.4:                                # %while.body
                                        #   in Loop: Header=BB49_3 Depth=1
	movq	-16(%rbp), %rdi
	movq	-40(%rbp), %rdx
	movl	$1, %esi
	callq	biari_encode_symbol
	jmp	.LBB49_3
.LBB49_5:                               # %while.end
	movq	-16(%rbp), %rdi
	movq	-40(%rbp), %rdx
	xorl	%esi, %esi
	callq	biari_encode_symbol
# %bb.6:                                # %if.end
	jmp	.LBB49_7
.LBB49_7:                               # %return
	cmpl	$498415204, -32(%rbp)   # imm = 0x1DB53664
	jne	.LBB49_9
.LBB49_8:
	addq	$48, %rsp
	popq	%rbp
	.cfi_def_cfa %rsp, 8
	retq
.LBB49_9:                               # %func_exit
	.cfi_def_cfa %rbp, 16
	callq	detect_breach
	jmp	.LBB49_8
.Lfunc_end49:
	.size	unary_bin_encode.22, .Lfunc_end49-unary_bin_encode.22
	.cfi_endproc
                                        # -- End function
	.globl	write_significance_map.23 # -- Begin function write_significance_map.23
	.p2align	4, 0x90
	.type	write_significance_map.23,@function
write_significance_map.23:              # @write_significance_map.23
	.cfi_startproc
# %bb.0:                                # %entry
	pushq	%rbp
	.cfi_def_cfa_offset 16
	.cfi_offset %rbp, -16
	movq	%rsp, %rbp
	.cfi_def_cfa_register %rbp
	subq	$80, %rsp
	movl	$1266241047, -52(%rbp)  # imm = 0x4B794E17
	movq	%rdi, -64(%rbp)
	movq	%rsi, -40(%rbp)
	movl	%edx, -8(%rbp)
	movq	%rcx, -48(%rbp)
	movl	%r8d, -28(%rbp)
	movl	$0, -20(%rbp)
	movslq	-8(%rbp), %rax
	movl	maxpos(,%rax,4), %eax
	subl	$1, %eax
	movl	%eax, -16(%rbp)
	movq	img, %rax
	cmpl	$0, 28(%rax)
	movb	$1, %al
	jne	.LBB50_2
# %bb.1:                                # %lor.rhs
	movq	-64(%rbp), %rax
	cmpl	$0, 532(%rax)
	setne	%al
.LBB50_2:                               # %lor.end
	andb	$1, %al
	movzbl	%al, %eax
	movl	%eax, -24(%rbp)
	cmpl	$0, -24(%rbp)
	je	.LBB50_4
# %bb.3:                                # %cond.true
	movq	img, %rax
	movq	14160(%rax), %rax
	movq	40(%rax), %rax
	addq	$7328, %rax             # imm = 0x1CA0
	movslq	-8(%rbp), %rcx
	movslq	type2ctx_map(,%rcx,4), %rcx
	imulq	$240, %rcx, %rcx
	addq	%rcx, %rax
	jmp	.LBB50_5
.LBB50_4:                               # %cond.false
	movq	img, %rax
	movq	14160(%rax), %rax
	movq	40(%rax), %rax
	addq	$928, %rax              # imm = 0x3A0
	movslq	-8(%rbp), %rcx
	movslq	type2ctx_map(,%rcx,4), %rcx
	imulq	$240, %rcx, %rcx
	addq	%rcx, %rax
.LBB50_5:                               # %cond.end
	movq	%rax, -72(%rbp)
	cmpl	$0, -24(%rbp)
	je	.LBB50_7
# %bb.6:                                # %cond.true14
	movq	img, %rax
	movq	14160(%rax), %rax
	movq	40(%rax), %rax
	addq	$9728, %rax             # imm = 0x2600
	movslq	-8(%rbp), %rcx
	movslq	type2ctx_last(,%rcx,4), %rcx
	imulq	$240, %rcx, %rcx
	addq	%rcx, %rax
	jmp	.LBB50_8
.LBB50_7:                               # %cond.false22
	movq	img, %rax
	movq	14160(%rax), %rax
	movq	40(%rax), %rax
	addq	$3328, %rax             # imm = 0xD00
	movslq	-8(%rbp), %rcx
	movslq	type2ctx_last(,%rcx,4), %rcx
	imulq	$240, %rcx, %rcx
	addq	%rcx, %rax
.LBB50_8:                               # %cond.end30
	movq	%rax, -80(%rbp)
	movslq	-8(%rbp), %rax
	cmpl	$0, c1isdc(,%rax,4)
	jne	.LBB50_10
# %bb.9:                                # %if.then
	movl	-20(%rbp), %eax
	addl	$1, %eax
	movl	%eax, -20(%rbp)
	movl	-16(%rbp), %eax
	addl	$1, %eax
	movl	%eax, -16(%rbp)
	movq	-48(%rbp), %rax
	addq	$-4, %rax
	movq	%rax, -48(%rbp)
.LBB50_10:                              # %if.end
	movl	-20(%rbp), %eax
	movw	%ax, -2(%rbp)
.LBB50_11:                              # %for.cond
                                        # =>This Inner Loop Header: Depth=1
	movswl	-2(%rbp), %eax
	cmpl	-16(%rbp), %eax
	jge	.LBB50_22
# %bb.12:                               # %for.body
                                        #   in Loop: Header=BB50_11 Depth=1
	xorl	%eax, %eax
	movq	-48(%rbp), %rcx
	movswq	-2(%rbp), %rdx
	movl	(%rcx,%rdx,4), %ecx
	cmpl	$0, %ecx
	movl	$1, %ecx
	cmovnel	%ecx, %eax
	movw	%ax, -10(%rbp)
	movq	img, %rax
	cmpl	$0, 28(%rax)
	jne	.LBB50_14
# %bb.13:                               # %lor.lhs.false
                                        #   in Loop: Header=BB50_11 Depth=1
	movq	-64(%rbp), %rax
	cmpl	$0, 532(%rax)
	je	.LBB50_15
.LBB50_14:                              # %if.then50
                                        #   in Loop: Header=BB50_11 Depth=1
	movq	-40(%rbp), %rdi
	movw	-10(%rbp), %ax
	movq	-72(%rbp), %rdx
	movslq	-8(%rbp), %rcx
	movq	pos2ctx_map_int(,%rcx,8), %rcx
	movswq	-2(%rbp), %rsi
	movslq	(%rcx,%rsi,4), %rcx
	shlq	$4, %rcx
	addq	%rcx, %rdx
	movswl	%ax, %esi
	callq	biari_encode_symbol
	jmp	.LBB50_16
.LBB50_15:                              # %if.else
                                        #   in Loop: Header=BB50_11 Depth=1
	movq	-40(%rbp), %rdi
	movw	-10(%rbp), %ax
	movq	-72(%rbp), %rdx
	movslq	-8(%rbp), %rcx
	movq	pos2ctx_map(,%rcx,8), %rcx
	movswq	-2(%rbp), %rsi
	movslq	(%rcx,%rsi,4), %rcx
	shlq	$4, %rcx
	addq	%rcx, %rdx
	movswl	%ax, %esi
	callq	biari_encode_symbol
.LBB50_16:                              # %if.end61
                                        #   in Loop: Header=BB50_11 Depth=1
	cmpw	$0, -10(%rbp)
	je	.LBB50_20
# %bb.17:                               # %if.then63
                                        #   in Loop: Header=BB50_11 Depth=1
	xorl	%eax, %eax
	movl	-28(%rbp), %ecx
	addl	$-1, %ecx
	movl	%ecx, -28(%rbp)
	cmpl	$0, %ecx
	movl	$1, %ecx
	cmovel	%ecx, %eax
	movw	%ax, -12(%rbp)
	movq	-40(%rbp), %rdi
	movw	-12(%rbp), %ax
	movq	-80(%rbp), %rdx
	movslq	-8(%rbp), %rcx
	movq	pos2ctx_last(,%rcx,8), %rcx
	movswq	-2(%rbp), %rsi
	movslq	(%rcx,%rsi,4), %rcx
	shlq	$4, %rcx
	addq	%rcx, %rdx
	movswl	%ax, %esi
	callq	biari_encode_symbol
	cmpw	$0, -12(%rbp)
	je	.LBB50_19
# %bb.18:                               # %if.then75
	jmp	.LBB50_23
.LBB50_19:                              # %if.end76
                                        #   in Loop: Header=BB50_11 Depth=1
	jmp	.LBB50_20
.LBB50_20:                              # %if.end77
                                        #   in Loop: Header=BB50_11 Depth=1
	jmp	.LBB50_21
.LBB50_21:                              # %for.inc
                                        #   in Loop: Header=BB50_11 Depth=1
	movw	-2(%rbp), %ax
	addw	$1, %ax
	movw	%ax, -2(%rbp)
	jmp	.LBB50_11
.LBB50_22:                              # %for.end.loopexit
	jmp	.LBB50_23
.LBB50_23:                              # %for.end
	cmpl	$1266241047, -52(%rbp)  # imm = 0x4B794E17
	jne	.LBB50_25
.LBB50_24:
	addq	$80, %rsp
	popq	%rbp
	.cfi_def_cfa %rsp, 8
	retq
.LBB50_25:                              # %func_exit
	.cfi_def_cfa %rbp, 16
	callq	detect_breach
	jmp	.LBB50_24
.Lfunc_end50:
	.size	write_significance_map.23, .Lfunc_end50-write_significance_map.23
	.cfi_endproc
                                        # -- End function
	.globl	writeCBP_CABAC.24       # -- Begin function writeCBP_CABAC.24
	.p2align	4, 0x90
	.type	writeCBP_CABAC.24,@function
writeCBP_CABAC.24:                      # @writeCBP_CABAC.24
	.cfi_startproc
# %bb.0:                                # %entry
	pushq	%rbp
	.cfi_def_cfa_offset 16
	.cfi_offset %rbp, -16
	movq	%rsp, %rbp
	.cfi_def_cfa_register %rbp
	subq	$64, %rsp
	movl	$1555201427, -44(%rbp)  # imm = 0x5CB27D93
	movq	%rdi, -64(%rbp)
	movq	%rsi, -40(%rbp)
	movq	img, %rax
	movq	14160(%rax), %rax
	movq	40(%rax), %rax
	movq	%rax, -56(%rbp)
	movq	img, %rax
	movq	14168(%rax), %rax
	movq	img, %rcx
	movslq	12(%rcx), %rcx
	imulq	$632, %rcx, %rcx        # imm = 0x278
	addq	%rcx, %rax
	movq	%rax, -8(%rbp)
	movq	-64(%rbp), %rax
	movl	4(%rax), %eax
	movl	%eax, -24(%rbp)
	movl	$0, -20(%rbp)
.LBB51_1:                               # %for.cond
                                        # =>This Inner Loop Header: Depth=1
	cmpl	$4, -20(%rbp)
	jge	.LBB51_4
# %bb.2:                                # %for.body
                                        #   in Loop: Header=BB51_1 Depth=1
	xorl	%eax, %eax
	movq	-8(%rbp), %rcx
	movslq	-20(%rbp), %rdx
	movl	472(%rcx,%rdx,4), %ecx
	cmpl	$11, %ecx
	movl	$1, %edx
	movl	$1, %ecx
	cmovel	%eax, %ecx
	movl	%ecx, -48(%rbp)
	movl	-20(%rbp), %edi
	movl	-24(%rbp), %esi
	movl	-20(%rbp), %ecx
                                        # kill: def $cl killed $ecx
	shll	%cl, %edx
	andl	%edx, %esi
	movl	-24(%rbp), %edx
	movq	-8(%rbp), %rcx
	movl	-48(%rbp), %r8d
	movq	-40(%rbp), %r9
	callq	writeCBP_BIT_CABAC
# %bb.3:                                # %for.inc
                                        #   in Loop: Header=BB51_1 Depth=1
	movl	-20(%rbp), %eax
	addl	$1, %eax
	movl	%eax, -20(%rbp)
	jmp	.LBB51_1
.LBB51_4:                               # %for.end
	movq	img, %rax
	cmpl	$0, 72700(%rax)
	je	.LBB51_32
# %bb.5:                                # %if.then
	movl	$0, -16(%rbp)
	movq	-8(%rbp), %rax
	cmpq	$0, 56(%rax)
	je	.LBB51_10
# %bb.6:                                # %if.then6
	movq	-8(%rbp), %rax
	movq	56(%rax), %rax
	cmpl	$14, 72(%rax)
	jne	.LBB51_8
# %bb.7:                                # %if.then9
	movl	$1, -16(%rbp)
	jmp	.LBB51_9
.LBB51_8:                               # %if.else
	xorl	%eax, %eax
	movq	-8(%rbp), %rcx
	movq	56(%rcx), %rcx
	movl	460(%rcx), %ecx
	cmpl	$15, %ecx
	movl	$1, %ecx
	cmovgl	%ecx, %eax
	movl	%eax, -16(%rbp)
.LBB51_9:                               # %if.end
	jmp	.LBB51_10
.LBB51_10:                              # %if.end14
	movl	$0, -12(%rbp)
	movq	-8(%rbp), %rax
	cmpq	$0, 64(%rax)
	je	.LBB51_15
# %bb.11:                               # %if.then16
	movq	-8(%rbp), %rax
	movq	64(%rax), %rax
	cmpl	$14, 72(%rax)
	jne	.LBB51_13
# %bb.12:                               # %if.then20
	movl	$1, -12(%rbp)
	jmp	.LBB51_14
.LBB51_13:                              # %if.else21
	xorl	%eax, %eax
	movq	-8(%rbp), %rcx
	movq	64(%rcx), %rcx
	movl	460(%rcx), %ecx
	cmpl	$15, %ecx
	movl	$1, %ecx
	cmovgl	%ecx, %eax
	movl	%eax, -12(%rbp)
.LBB51_14:                              # %if.end26
	jmp	.LBB51_15
.LBB51_15:                              # %if.end27
	xorl	%eax, %eax
	movl	-12(%rbp), %ecx
	movl	-16(%rbp), %edx
	shll	$1, %edx
	addl	%edx, %ecx
	movl	%ecx, -32(%rbp)
	movl	-24(%rbp), %ecx
	cmpl	$15, %ecx
	movl	$1, %ecx
	cmovgl	%ecx, %eax
	movl	%eax, -28(%rbp)
	movq	-40(%rbp), %rdi
	movl	-28(%rbp), %eax
	movzbl	%al, %eax
	movq	-56(%rbp), %rdx
	addq	$96, %rdx
	addq	$64, %rdx
	movslq	-32(%rbp), %rcx
	shlq	$4, %rcx
	addq	%rcx, %rdx
	movswl	%ax, %esi
	callq	biari_encode_symbol
	cmpl	$15, -24(%rbp)
	jle	.LBB51_31
# %bb.16:                               # %if.then34
	movl	$0, -16(%rbp)
	movq	-8(%rbp), %rax
	cmpq	$0, 56(%rax)
	je	.LBB51_23
# %bb.17:                               # %if.then38
	movq	-8(%rbp), %rax
	movq	56(%rax), %rax
	cmpl	$14, 72(%rax)
	jne	.LBB51_19
# %bb.18:                               # %if.then43
	movl	$1, -16(%rbp)
	jmp	.LBB51_22
.LBB51_19:                              # %if.else44
	movq	-8(%rbp), %rax
	movq	56(%rax), %rax
	cmpl	$15, 460(%rax)
	jle	.LBB51_21
# %bb.20:                               # %if.then49
	xorl	%eax, %eax
	movq	-8(%rbp), %rcx
	movq	56(%rcx), %rcx
	movl	460(%rcx), %ecx
	sarl	$4, %ecx
	cmpl	$2, %ecx
	movl	$1, %ecx
	cmovel	%ecx, %eax
	movl	%eax, -16(%rbp)
.LBB51_21:                              # %if.end55
	jmp	.LBB51_22
.LBB51_22:                              # %if.end56
	jmp	.LBB51_23
.LBB51_23:                              # %if.end57
	movl	$0, -12(%rbp)
	movq	-8(%rbp), %rax
	cmpq	$0, 64(%rax)
	je	.LBB51_30
# %bb.24:                               # %if.then61
	movq	-8(%rbp), %rax
	movq	64(%rax), %rax
	cmpl	$14, 72(%rax)
	jne	.LBB51_26
# %bb.25:                               # %if.then66
	movl	$1, -12(%rbp)
	jmp	.LBB51_29
.LBB51_26:                              # %if.else67
	movq	-8(%rbp), %rax
	movq	64(%rax), %rax
	cmpl	$15, 460(%rax)
	jle	.LBB51_28
# %bb.27:                               # %if.then72
	xorl	%eax, %eax
	movq	-8(%rbp), %rcx
	movq	64(%rcx), %rcx
	movl	460(%rcx), %ecx
	sarl	$4, %ecx
	cmpl	$2, %ecx
	movl	$1, %ecx
	cmovel	%ecx, %eax
	movl	%eax, -12(%rbp)
.LBB51_28:                              # %if.end79
	jmp	.LBB51_29
.LBB51_29:                              # %if.end80
	jmp	.LBB51_30
.LBB51_30:                              # %if.end81
	xorl	%eax, %eax
	movl	-12(%rbp), %ecx
	movl	-16(%rbp), %edx
	shll	$1, %edx
	addl	%edx, %ecx
	movl	%ecx, -32(%rbp)
	movl	-24(%rbp), %ecx
	sarl	$4, %ecx
	cmpl	$2, %ecx
	movl	$1, %ecx
	cmovel	%ecx, %eax
	movl	%eax, -28(%rbp)
	movq	-40(%rbp), %rdi
	movl	-28(%rbp), %eax
	movzbl	%al, %eax
	movq	-56(%rbp), %rdx
	addq	$96, %rdx
	addq	$128, %rdx
	movslq	-32(%rbp), %rcx
	shlq	$4, %rcx
	addq	%rcx, %rdx
	movswl	%ax, %esi
	callq	biari_encode_symbol
.LBB51_31:                              # %if.end95
	jmp	.LBB51_32
.LBB51_32:                              # %if.end96
	cmpl	$1555201427, -44(%rbp)  # imm = 0x5CB27D93
	jne	.LBB51_34
.LBB51_33:
	addq	$64, %rsp
	popq	%rbp
	.cfi_def_cfa %rsp, 8
	retq
.LBB51_34:                              # %func_exit
	.cfi_def_cfa %rbp, 16
	callq	detect_breach
	jmp	.LBB51_33
.Lfunc_end51:
	.size	writeCBP_CABAC.24, .Lfunc_end51-writeCBP_CABAC.24
	.cfi_endproc
                                        # -- End function
	.globl	writeMB_typeInfo_CABAC.25 # -- Begin function writeMB_typeInfo_CABAC.25
	.p2align	4, 0x90
	.type	writeMB_typeInfo_CABAC.25,@function
writeMB_typeInfo_CABAC.25:              # @writeMB_typeInfo_CABAC.25
	.cfi_startproc
# %bb.0:                                # %entry
	pushq	%rbp
	.cfi_def_cfa_offset 16
	.cfi_offset %rbp, -16
	movq	%rsp, %rbp
	.cfi_def_cfa_register %rbp
	subq	$96, %rsp
	movl	$277677648, -84(%rbp)   # imm = 0x108D0650
	movq	%rdi, -80(%rbp)
	movq	%rsi, -16(%rbp)
	movl	$0, -20(%rbp)
	movq	img, %rax
	cmpl	$1, 24(%rax)
	sete	%al
	andb	$1, %al
	movzbl	%al, %eax
	movl	%eax, -60(%rbp)
	movl	$0, -36(%rbp)
	movq	img, %rax
	movq	14160(%rax), %rax
	movq	32(%rax), %rax
	movq	%rax, -32(%rbp)
	movq	img, %rax
	movq	14168(%rax), %rax
	movq	img, %rcx
	movslq	12(%rcx), %rcx
	imulq	$632, %rcx, %rcx        # imm = 0x278
	addq	%rcx, %rax
	movq	%rax, -56(%rbp)
	movq	-80(%rbp), %rax
	movl	4(%rax), %eax
	movl	%eax, -68(%rbp)
	movq	img, %rax
	cmpl	$2, 24(%rax)
	jne	.LBB52_24
# %bb.1:                                # %if.then
	movq	-56(%rbp), %rax
	cmpq	$0, 56(%rax)
	jne	.LBB52_3
# %bb.2:                                # %if.then6
	movl	$0, -44(%rbp)
	jmp	.LBB52_6
.LBB52_3:                               # %if.else
	xorl	%eax, %eax
	movq	-56(%rbp), %rcx
	movq	56(%rcx), %rcx
	cmpl	$9, 72(%rcx)
	je	.LBB52_5
# %bb.4:                                # %land.rhs
	movq	-56(%rbp), %rax
	movq	56(%rax), %rax
	cmpl	$13, 72(%rax)
	setne	%al
.LBB52_5:                               # %land.end
	xorl	%ecx, %ecx
	testb	$1, %al
	movl	$1, %eax
	cmovnel	%eax, %ecx
	movl	%ecx, -44(%rbp)
.LBB52_6:                               # %if.end
	movq	-56(%rbp), %rax
	cmpq	$0, 64(%rax)
	jne	.LBB52_8
# %bb.7:                                # %if.then16
	movl	$0, -48(%rbp)
	jmp	.LBB52_11
.LBB52_8:                               # %if.else17
	xorl	%eax, %eax
	movq	-56(%rbp), %rcx
	movq	64(%rcx), %rcx
	cmpl	$9, 72(%rcx)
	je	.LBB52_10
# %bb.9:                                # %land.rhs22
	movq	-56(%rbp), %rax
	movq	64(%rax), %rax
	cmpl	$13, 72(%rax)
	setne	%al
.LBB52_10:                              # %land.end27
	xorl	%ecx, %ecx
	testb	$1, %al
	movl	$1, %eax
	cmovnel	%eax, %ecx
	movl	%ecx, -48(%rbp)
.LBB52_11:                              # %if.end29
	movl	-48(%rbp), %eax
	addl	-44(%rbp), %eax
	movl	%eax, -20(%rbp)
	movl	-68(%rbp), %eax
	movl	%eax, -4(%rbp)
	movl	-20(%rbp), %eax
	movq	-80(%rbp), %rcx
	movl	%eax, 24(%rcx)
	cmpl	$0, -4(%rbp)
	jne	.LBB52_13
# %bb.12:                               # %if.then32
	movq	-16(%rbp), %rdi
	movq	-32(%rbp), %rdx
	movslq	-20(%rbp), %rax
	shlq	$4, %rax
	addq	%rax, %rdx
	xorl	%esi, %esi
	callq	biari_encode_symbol
	jmp	.LBB52_23
.LBB52_13:                              # %if.else34
	cmpl	$25, -4(%rbp)
	jne	.LBB52_15
# %bb.14:                               # %if.then37
	movq	-16(%rbp), %rdi
	movq	-32(%rbp), %rdx
	movslq	-20(%rbp), %rax
	shlq	$4, %rax
	addq	%rax, %rdx
	movl	$1, %esi
	callq	biari_encode_symbol
	movq	-16(%rbp), %rdi
	movl	$1, %esi
	callq	biari_encode_symbol_final
	jmp	.LBB52_22
.LBB52_15:                              # %if.else43
	movq	-16(%rbp), %rdi
	movq	-32(%rbp), %rdx
	movslq	-20(%rbp), %rax
	shlq	$4, %rax
	addq	%rax, %rdx
	movl	$1, %esi
	callq	biari_encode_symbol
	movq	-16(%rbp), %rdi
	xorl	%esi, %esi
	callq	biari_encode_symbol_final
	movl	-4(%rbp), %eax
	subl	$1, %eax
	movl	%eax, -36(%rbp)
	movl	$4, -20(%rbp)
	movl	-36(%rbp), %eax
	cltd
	movl	$12, %ecx
	idivl	%ecx
	movl	%eax, -4(%rbp)
	movq	-16(%rbp), %rdi
	movl	-4(%rbp), %eax
	movzbl	%al, %eax
	movq	-32(%rbp), %rdx
	movslq	-20(%rbp), %rcx
	shlq	$4, %rcx
	addq	%rcx, %rdx
	movswl	%ax, %esi
	callq	biari_encode_symbol
	movl	-36(%rbp), %eax
	cltd
	movl	$12, %ecx
	idivl	%ecx
	movl	%edx, -36(%rbp)
	movl	-36(%rbp), %eax
	cltd
	movl	$4, %ecx
	idivl	%ecx
	movl	%eax, -4(%rbp)
	movl	$5, -20(%rbp)
	cmpl	$0, -4(%rbp)
	jne	.LBB52_17
# %bb.16:                               # %if.then59
	movq	-16(%rbp), %rdi
	movq	-32(%rbp), %rdx
	movslq	-20(%rbp), %rax
	shlq	$4, %rax
	addq	%rax, %rdx
	xorl	%esi, %esi
	callq	biari_encode_symbol
	jmp	.LBB52_21
.LBB52_17:                              # %if.else65
	movq	-16(%rbp), %rdi
	movq	-32(%rbp), %rdx
	movslq	-20(%rbp), %rax
	shlq	$4, %rax
	addq	%rax, %rdx
	movl	$1, %esi
	callq	biari_encode_symbol
	movl	$6, -20(%rbp)
	cmpl	$1, -4(%rbp)
	jne	.LBB52_19
# %bb.18:                               # %if.then73
	movq	-16(%rbp), %rdi
	movq	-32(%rbp), %rdx
	movslq	-20(%rbp), %rax
	shlq	$4, %rax
	addq	%rax, %rdx
	xorl	%esi, %esi
	callq	biari_encode_symbol
	jmp	.LBB52_20
.LBB52_19:                              # %if.else79
	movq	-16(%rbp), %rdi
	movq	-32(%rbp), %rdx
	movslq	-20(%rbp), %rax
	shlq	$4, %rax
	addq	%rax, %rdx
	movl	$1, %esi
	callq	biari_encode_symbol
.LBB52_20:                              # %if.end85
	jmp	.LBB52_21
.LBB52_21:                              # %if.end86
	movl	-36(%rbp), %eax
	cltd
	movl	$4, %ecx
	idivl	%ecx
	movl	%edx, -36(%rbp)
	movl	-36(%rbp), %eax
	cltd
	movl	$2, %ecx
	idivl	%ecx
	movl	%eax, -4(%rbp)
	movl	$7, -20(%rbp)
	movq	-16(%rbp), %rdi
	movl	-4(%rbp), %eax
	movzbl	%al, %eax
	movq	-32(%rbp), %rdx
	movslq	-20(%rbp), %rcx
	shlq	$4, %rcx
	addq	%rcx, %rdx
	movswl	%ax, %esi
	callq	biari_encode_symbol
	movl	$8, -20(%rbp)
	movl	-36(%rbp), %eax
	cltd
	movl	$2, %ecx
	idivl	%ecx
	movl	%edx, -4(%rbp)
	movq	-16(%rbp), %rdi
	movl	-4(%rbp), %eax
	movzbl	%al, %eax
	movq	-32(%rbp), %rdx
	movslq	-20(%rbp), %rcx
	shlq	$4, %rcx
	addq	%rcx, %rdx
	movswl	%ax, %esi
	callq	biari_encode_symbol
.LBB52_22:                              # %if.end104
	jmp	.LBB52_23
.LBB52_23:                              # %if.end105
	jmp	.LBB52_102
.LBB52_24:                              # %if.else106
	cmpl	$0, -60(%rbp)
	je	.LBB52_32
# %bb.25:                               # %if.then107
	movq	-56(%rbp), %rax
	cmpq	$0, 56(%rax)
	jne	.LBB52_27
# %bb.26:                               # %if.then111
	movl	$0, -44(%rbp)
	jmp	.LBB52_28
.LBB52_27:                              # %if.else112
	xorl	%eax, %eax
	movq	-56(%rbp), %rcx
	movq	56(%rcx), %rcx
	movl	72(%rcx), %ecx
	cmpl	$0, %ecx
	movl	$1, %ecx
	cmovnel	%ecx, %eax
	movl	%eax, -44(%rbp)
.LBB52_28:                              # %if.end118
	movq	-56(%rbp), %rax
	cmpq	$0, 64(%rax)
	jne	.LBB52_30
# %bb.29:                               # %if.then122
	movl	$0, -48(%rbp)
	jmp	.LBB52_31
.LBB52_30:                              # %if.else123
	xorl	%eax, %eax
	movq	-56(%rbp), %rcx
	movq	64(%rcx), %rcx
	movl	72(%rcx), %ecx
	cmpl	$0, %ecx
	movl	$1, %ecx
	cmovnel	%ecx, %eax
	movl	%eax, -48(%rbp)
.LBB52_31:                              # %if.end129
	movl	-48(%rbp), %eax
	addl	-44(%rbp), %eax
	movl	%eax, -20(%rbp)
	movl	-20(%rbp), %eax
	movq	-80(%rbp), %rcx
	movl	%eax, 24(%rcx)
.LBB52_32:                              # %if.end132
	movl	-68(%rbp), %eax
	movl	%eax, -4(%rbp)
	movl	-4(%rbp), %eax
	movl	-60(%rbp), %ecx
	cmpl	$0, %ecx
	movl	$24, %ecx
	movl	$7, %edx
	cmovnel	%ecx, %edx
	movl	%edx, -64(%rbp)
	cmpl	%edx, %eax
	jl	.LBB52_34
# %bb.33:                               # %if.then137
	movl	-4(%rbp), %eax
	subl	-64(%rbp), %eax
	movl	%eax, -36(%rbp)
	movl	-64(%rbp), %eax
	movl	%eax, -4(%rbp)
.LBB52_34:                              # %if.end139
	cmpl	$0, -60(%rbp)
	jne	.LBB52_46
# %bb.35:                               # %if.then141
	movl	-4(%rbp), %eax
	movq	%rax, %rcx
	subq	$7, %rcx
	ja	.LBB52_44
# %bb.36:                               # %if.then141
	movq	.LJTI52_0(,%rax,8), %rax
	jmpq	*%rax
.LBB52_37:                              # %sw.bb
	jmp	.LBB52_45
.LBB52_38:                              # %sw.bb142
	movq	-16(%rbp), %rdi
	movq	-32(%rbp), %rdx
	addq	$176, %rdx
	addq	$64, %rdx
	xorl	%esi, %esi
	callq	biari_encode_symbol
	movq	-16(%rbp), %rdi
	movq	-32(%rbp), %rdx
	addq	$176, %rdx
	addq	$80, %rdx
	xorl	%esi, %esi
	callq	biari_encode_symbol
	movq	-16(%rbp), %rdi
	movq	-32(%rbp), %rdx
	addq	$176, %rdx
	addq	$96, %rdx
	xorl	%esi, %esi
	callq	biari_encode_symbol
	jmp	.LBB52_45
.LBB52_39:                              # %sw.bb152
	movq	-16(%rbp), %rdi
	movq	-32(%rbp), %rdx
	addq	$176, %rdx
	addq	$64, %rdx
	xorl	%esi, %esi
	callq	biari_encode_symbol
	movq	-16(%rbp), %rdi
	movq	-32(%rbp), %rdx
	addq	$176, %rdx
	addq	$80, %rdx
	movl	$1, %esi
	callq	biari_encode_symbol
	movq	-16(%rbp), %rdi
	movq	-32(%rbp), %rdx
	addq	$176, %rdx
	addq	$112, %rdx
	movl	$1, %esi
	callq	biari_encode_symbol
	jmp	.LBB52_45
.LBB52_40:                              # %sw.bb162
	movq	-16(%rbp), %rdi
	movq	-32(%rbp), %rdx
	addq	$176, %rdx
	addq	$64, %rdx
	xorl	%esi, %esi
	callq	biari_encode_symbol
	movq	-16(%rbp), %rdi
	movq	-32(%rbp), %rdx
	addq	$176, %rdx
	addq	$80, %rdx
	movl	$1, %esi
	callq	biari_encode_symbol
	movq	-16(%rbp), %rdi
	movq	-32(%rbp), %rdx
	addq	$176, %rdx
	addq	$112, %rdx
	xorl	%esi, %esi
	callq	biari_encode_symbol
	jmp	.LBB52_45
.LBB52_41:                              # %sw.bb172
	movq	-16(%rbp), %rdi
	movq	-32(%rbp), %rdx
	addq	$176, %rdx
	addq	$64, %rdx
	xorl	%esi, %esi
	callq	biari_encode_symbol
	movq	-16(%rbp), %rdi
	movq	-32(%rbp), %rdx
	addq	$176, %rdx
	addq	$80, %rdx
	xorl	%esi, %esi
	callq	biari_encode_symbol
	movq	-16(%rbp), %rdi
	movq	-32(%rbp), %rdx
	addq	$176, %rdx
	addq	$96, %rdx
	movl	$1, %esi
	callq	biari_encode_symbol
	jmp	.LBB52_45
.LBB52_42:                              # %sw.bb182
	movq	-16(%rbp), %rdi
	movq	-32(%rbp), %rdx
	addq	$176, %rdx
	addq	$64, %rdx
	movl	$1, %esi
	callq	biari_encode_symbol
	movq	-16(%rbp), %rdi
	movq	-32(%rbp), %rdx
	addq	$176, %rdx
	addq	$112, %rdx
	xorl	%esi, %esi
	callq	biari_encode_symbol
	jmp	.LBB52_45
.LBB52_43:                              # %sw.bb189
	movq	-16(%rbp), %rdi
	movq	-32(%rbp), %rdx
	addq	$176, %rdx
	addq	$64, %rdx
	movl	$1, %esi
	callq	biari_encode_symbol
	movq	-16(%rbp), %rdi
	movq	-32(%rbp), %rdx
	addq	$176, %rdx
	addq	$112, %rdx
	movl	$1, %esi
	callq	biari_encode_symbol
	jmp	.LBB52_45
.LBB52_44:                              # %sw.default
	movabsq	$.L.str.2, %rdi
	movb	$0, %al
	callq	printf
	movl	$1, %edi
	callq	exit
.LBB52_45:                              # %sw.epilog
	jmp	.LBB52_91
.LBB52_46:                              # %if.else196
	cmpl	$0, -4(%rbp)
	jne	.LBB52_48
# %bb.47:                               # %if.then199
	movq	-16(%rbp), %rdi
	movq	-32(%rbp), %rdx
	addq	$352, %rdx              # imm = 0x160
	movslq	-20(%rbp), %rax
	shlq	$4, %rax
	addq	%rax, %rdx
	xorl	%esi, %esi
	callq	biari_encode_symbol
	jmp	.LBB52_90
.LBB52_48:                              # %if.else204
	cmpl	$2, -4(%rbp)
	jg	.LBB52_53
# %bb.49:                               # %if.then207
	movq	-16(%rbp), %rdi
	movq	-32(%rbp), %rdx
	addq	$352, %rdx              # imm = 0x160
	movslq	-20(%rbp), %rax
	shlq	$4, %rax
	addq	%rax, %rdx
	movl	$1, %esi
	callq	biari_encode_symbol
	movq	-16(%rbp), %rdi
	movq	-32(%rbp), %rdx
	addq	$352, %rdx              # imm = 0x160
	addq	$64, %rdx
	xorl	%esi, %esi
	callq	biari_encode_symbol
	movl	-4(%rbp), %eax
	subl	$1, %eax
	movl	%eax, -40(%rbp)
	cmpl	$0, -40(%rbp)
	je	.LBB52_51
# %bb.50:                               # %if.then217
	movq	-16(%rbp), %rdi
	movq	-32(%rbp), %rdx
	addq	$352, %rdx              # imm = 0x160
	addq	$96, %rdx
	movl	$1, %esi
	callq	biari_encode_symbol
	jmp	.LBB52_52
.LBB52_51:                              # %if.else221
	movq	-16(%rbp), %rdi
	movq	-32(%rbp), %rdx
	addq	$352, %rdx              # imm = 0x160
	addq	$96, %rdx
	xorl	%esi, %esi
	callq	biari_encode_symbol
.LBB52_52:                              # %if.end225
	jmp	.LBB52_89
.LBB52_53:                              # %if.else226
	cmpl	$10, -4(%rbp)
	jg	.LBB52_64
# %bb.54:                               # %if.then229
	movq	-16(%rbp), %rdi
	movq	-32(%rbp), %rdx
	addq	$352, %rdx              # imm = 0x160
	movslq	-20(%rbp), %rax
	shlq	$4, %rax
	addq	%rax, %rdx
	movl	$1, %esi
	callq	biari_encode_symbol
	movq	-16(%rbp), %rdi
	movq	-32(%rbp), %rdx
	addq	$352, %rdx              # imm = 0x160
	addq	$64, %rdx
	movl	$1, %esi
	callq	biari_encode_symbol
	movq	-16(%rbp), %rdi
	movq	-32(%rbp), %rdx
	addq	$352, %rdx              # imm = 0x160
	addq	$80, %rdx
	xorl	%esi, %esi
	callq	biari_encode_symbol
	movl	-4(%rbp), %eax
	subl	$3, %eax
	sarl	$2, %eax
	andl	$1, %eax
	movl	%eax, -40(%rbp)
	cmpl	$0, -40(%rbp)
	je	.LBB52_56
# %bb.55:                               # %if.then242
	movq	-16(%rbp), %rdi
	movq	-32(%rbp), %rdx
	addq	$352, %rdx              # imm = 0x160
	addq	$96, %rdx
	movl	$1, %esi
	callq	biari_encode_symbol
	jmp	.LBB52_57
.LBB52_56:                              # %if.else246
	movq	-16(%rbp), %rdi
	movq	-32(%rbp), %rdx
	addq	$352, %rdx              # imm = 0x160
	addq	$96, %rdx
	xorl	%esi, %esi
	callq	biari_encode_symbol
.LBB52_57:                              # %if.end250
	movl	-4(%rbp), %eax
	subl	$3, %eax
	sarl	$1, %eax
	andl	$1, %eax
	movl	%eax, -40(%rbp)
	cmpl	$0, -40(%rbp)
	je	.LBB52_59
# %bb.58:                               # %if.then255
	movq	-16(%rbp), %rdi
	movq	-32(%rbp), %rdx
	addq	$352, %rdx              # imm = 0x160
	addq	$96, %rdx
	movl	$1, %esi
	callq	biari_encode_symbol
	jmp	.LBB52_60
.LBB52_59:                              # %if.else259
	movq	-16(%rbp), %rdi
	movq	-32(%rbp), %rdx
	addq	$352, %rdx              # imm = 0x160
	addq	$96, %rdx
	xorl	%esi, %esi
	callq	biari_encode_symbol
.LBB52_60:                              # %if.end263
	movl	-4(%rbp), %eax
	subl	$3, %eax
	andl	$1, %eax
	movl	%eax, -40(%rbp)
	cmpl	$0, -40(%rbp)
	je	.LBB52_62
# %bb.61:                               # %if.then267
	movq	-16(%rbp), %rdi
	movq	-32(%rbp), %rdx
	addq	$352, %rdx              # imm = 0x160
	addq	$96, %rdx
	movl	$1, %esi
	callq	biari_encode_symbol
	jmp	.LBB52_63
.LBB52_62:                              # %if.else271
	movq	-16(%rbp), %rdi
	movq	-32(%rbp), %rdx
	addq	$352, %rdx              # imm = 0x160
	addq	$96, %rdx
	xorl	%esi, %esi
	callq	biari_encode_symbol
.LBB52_63:                              # %if.end275
	jmp	.LBB52_88
.LBB52_64:                              # %if.else276
	cmpl	$11, -4(%rbp)
	je	.LBB52_66
# %bb.65:                               # %lor.lhs.false
	cmpl	$22, -4(%rbp)
	jne	.LBB52_70
.LBB52_66:                              # %if.then281
	movq	-16(%rbp), %rdi
	movq	-32(%rbp), %rdx
	addq	$352, %rdx              # imm = 0x160
	movslq	-20(%rbp), %rax
	shlq	$4, %rax
	addq	%rax, %rdx
	movl	$1, %esi
	callq	biari_encode_symbol
	movq	-16(%rbp), %rdi
	movq	-32(%rbp), %rdx
	addq	$352, %rdx              # imm = 0x160
	addq	$64, %rdx
	movl	$1, %esi
	callq	biari_encode_symbol
	movq	-16(%rbp), %rdi
	movq	-32(%rbp), %rdx
	addq	$352, %rdx              # imm = 0x160
	addq	$80, %rdx
	movl	$1, %esi
	callq	biari_encode_symbol
	movq	-16(%rbp), %rdi
	movq	-32(%rbp), %rdx
	addq	$352, %rdx              # imm = 0x160
	addq	$96, %rdx
	movl	$1, %esi
	callq	biari_encode_symbol
	movq	-16(%rbp), %rdi
	movq	-32(%rbp), %rdx
	addq	$352, %rdx              # imm = 0x160
	addq	$96, %rdx
	movl	$1, %esi
	callq	biari_encode_symbol
	cmpl	$11, -4(%rbp)
	jne	.LBB52_68
# %bb.67:                               # %if.then300
	movq	-16(%rbp), %rdi
	movq	-32(%rbp), %rdx
	addq	$352, %rdx              # imm = 0x160
	addq	$96, %rdx
	xorl	%esi, %esi
	callq	biari_encode_symbol
	jmp	.LBB52_69
.LBB52_68:                              # %if.else304
	movq	-16(%rbp), %rdi
	movq	-32(%rbp), %rdx
	addq	$352, %rdx              # imm = 0x160
	addq	$96, %rdx
	movl	$1, %esi
	callq	biari_encode_symbol
.LBB52_69:                              # %if.end308
	jmp	.LBB52_87
.LBB52_70:                              # %if.else309
	cmpl	$22, -4(%rbp)
	jle	.LBB52_72
# %bb.71:                               # %if.then312
	movl	-4(%rbp), %eax
	addl	$-1, %eax
	movl	%eax, -4(%rbp)
.LBB52_72:                              # %if.end313
	movq	-16(%rbp), %rdi
	movq	-32(%rbp), %rdx
	addq	$352, %rdx              # imm = 0x160
	movslq	-20(%rbp), %rax
	shlq	$4, %rax
	addq	%rax, %rdx
	movl	$1, %esi
	callq	biari_encode_symbol
	movq	-16(%rbp), %rdi
	movq	-32(%rbp), %rdx
	addq	$352, %rdx              # imm = 0x160
	addq	$64, %rdx
	movl	$1, %esi
	callq	biari_encode_symbol
	movq	-16(%rbp), %rdi
	movq	-32(%rbp), %rdx
	addq	$352, %rdx              # imm = 0x160
	addq	$80, %rdx
	movl	$1, %esi
	callq	biari_encode_symbol
	movl	-4(%rbp), %eax
	subl	$12, %eax
	sarl	$3, %eax
	andl	$1, %eax
	movl	%eax, -40(%rbp)
	cmpl	$0, -40(%rbp)
	je	.LBB52_74
# %bb.73:                               # %if.then328
	movq	-16(%rbp), %rdi
	movq	-32(%rbp), %rdx
	addq	$352, %rdx              # imm = 0x160
	addq	$96, %rdx
	movl	$1, %esi
	callq	biari_encode_symbol
	jmp	.LBB52_75
.LBB52_74:                              # %if.else332
	movq	-16(%rbp), %rdi
	movq	-32(%rbp), %rdx
	addq	$352, %rdx              # imm = 0x160
	addq	$96, %rdx
	xorl	%esi, %esi
	callq	biari_encode_symbol
.LBB52_75:                              # %if.end336
	movl	-4(%rbp), %eax
	subl	$12, %eax
	sarl	$2, %eax
	andl	$1, %eax
	movl	%eax, -40(%rbp)
	cmpl	$0, -40(%rbp)
	je	.LBB52_77
# %bb.76:                               # %if.then341
	movq	-16(%rbp), %rdi
	movq	-32(%rbp), %rdx
	addq	$352, %rdx              # imm = 0x160
	addq	$96, %rdx
	movl	$1, %esi
	callq	biari_encode_symbol
	jmp	.LBB52_78
.LBB52_77:                              # %if.else345
	movq	-16(%rbp), %rdi
	movq	-32(%rbp), %rdx
	addq	$352, %rdx              # imm = 0x160
	addq	$96, %rdx
	xorl	%esi, %esi
	callq	biari_encode_symbol
.LBB52_78:                              # %if.end349
	movl	-4(%rbp), %eax
	subl	$12, %eax
	sarl	$1, %eax
	andl	$1, %eax
	movl	%eax, -40(%rbp)
	cmpl	$0, -40(%rbp)
	je	.LBB52_80
# %bb.79:                               # %if.then354
	movq	-16(%rbp), %rdi
	movq	-32(%rbp), %rdx
	addq	$352, %rdx              # imm = 0x160
	addq	$96, %rdx
	movl	$1, %esi
	callq	biari_encode_symbol
	jmp	.LBB52_81
.LBB52_80:                              # %if.else358
	movq	-16(%rbp), %rdi
	movq	-32(%rbp), %rdx
	addq	$352, %rdx              # imm = 0x160
	addq	$96, %rdx
	xorl	%esi, %esi
	callq	biari_encode_symbol
.LBB52_81:                              # %if.end362
	movl	-4(%rbp), %eax
	subl	$12, %eax
	andl	$1, %eax
	movl	%eax, -40(%rbp)
	cmpl	$0, -40(%rbp)
	je	.LBB52_83
# %bb.82:                               # %if.then366
	movq	-16(%rbp), %rdi
	movq	-32(%rbp), %rdx
	addq	$352, %rdx              # imm = 0x160
	addq	$96, %rdx
	movl	$1, %esi
	callq	biari_encode_symbol
	jmp	.LBB52_84
.LBB52_83:                              # %if.else370
	movq	-16(%rbp), %rdi
	movq	-32(%rbp), %rdx
	addq	$352, %rdx              # imm = 0x160
	addq	$96, %rdx
	xorl	%esi, %esi
	callq	biari_encode_symbol
.LBB52_84:                              # %if.end374
	cmpl	$22, -4(%rbp)
	jl	.LBB52_86
# %bb.85:                               # %if.then377
	movl	-4(%rbp), %eax
	addl	$1, %eax
	movl	%eax, -4(%rbp)
.LBB52_86:                              # %if.end378
	jmp	.LBB52_87
.LBB52_87:                              # %if.end379
	jmp	.LBB52_88
.LBB52_88:                              # %if.end380
	jmp	.LBB52_89
.LBB52_89:                              # %if.end381
	jmp	.LBB52_90
.LBB52_90:                              # %if.end382
	jmp	.LBB52_91
.LBB52_91:                              # %if.end383
	movl	-4(%rbp), %eax
	cmpl	-64(%rbp), %eax
	jne	.LBB52_101
# %bb.92:                               # %if.then386
	cmpl	$25, -36(%rbp)
	jne	.LBB52_94
# %bb.93:                               # %if.then389
	movq	-16(%rbp), %rdi
	movl	$1, %esi
	callq	biari_encode_symbol_final
	jmp	.LBB52_102
.LBB52_94:                              # %if.end390
	movq	-16(%rbp), %rdi
	xorl	%esi, %esi
	callq	biari_encode_symbol_final
	movl	$8, -20(%rbp)
	movl	-36(%rbp), %eax
	cltd
	movl	$12, %ecx
	idivl	%ecx
	movl	%eax, -4(%rbp)
	movq	-16(%rbp), %rdi
	movl	-4(%rbp), %eax
	movzbl	%al, %eax
	movq	-32(%rbp), %rdx
	addq	$176, %rdx
	movslq	-20(%rbp), %rcx
	shlq	$4, %rcx
	addq	%rcx, %rdx
	movswl	%ax, %esi
	callq	biari_encode_symbol
	movl	-36(%rbp), %eax
	cltd
	movl	$12, %ecx
	idivl	%ecx
	movl	%edx, -36(%rbp)
	movl	-36(%rbp), %eax
	cltd
	movl	$4, %ecx
	idivl	%ecx
	movl	%eax, -4(%rbp)
	movl	$9, -20(%rbp)
	cmpl	$0, -4(%rbp)
	jne	.LBB52_96
# %bb.95:                               # %if.then403
	movq	-16(%rbp), %rdi
	movq	-32(%rbp), %rdx
	addq	$176, %rdx
	movslq	-20(%rbp), %rax
	shlq	$4, %rax
	addq	%rax, %rdx
	xorl	%esi, %esi
	callq	biari_encode_symbol
	jmp	.LBB52_100
.LBB52_96:                              # %if.else409
	movq	-16(%rbp), %rdi
	movq	-32(%rbp), %rdx
	addq	$176, %rdx
	movslq	-20(%rbp), %rax
	shlq	$4, %rax
	addq	%rax, %rdx
	movl	$1, %esi
	callq	biari_encode_symbol
	cmpl	$1, -4(%rbp)
	jne	.LBB52_98
# %bb.97:                               # %if.then417
	movq	-16(%rbp), %rdi
	movq	-32(%rbp), %rdx
	addq	$176, %rdx
	movslq	-20(%rbp), %rax
	shlq	$4, %rax
	addq	%rax, %rdx
	xorl	%esi, %esi
	callq	biari_encode_symbol
	jmp	.LBB52_99
.LBB52_98:                              # %if.else423
	movq	-16(%rbp), %rdi
	movq	-32(%rbp), %rdx
	addq	$176, %rdx
	movslq	-20(%rbp), %rax
	shlq	$4, %rax
	addq	%rax, %rdx
	movl	$1, %esi
	callq	biari_encode_symbol
.LBB52_99:                              # %if.end429
	jmp	.LBB52_100
.LBB52_100:                             # %if.end430
	movl	-36(%rbp), %eax
	cltd
	movl	$4, %ecx
	idivl	%ecx
	movl	%edx, -36(%rbp)
	movl	$10, -20(%rbp)
	movl	-36(%rbp), %eax
	cltd
	movl	$2, %ecx
	idivl	%ecx
	movl	%eax, -4(%rbp)
	movq	-16(%rbp), %rdi
	movl	-4(%rbp), %eax
	movzbl	%al, %eax
	movq	-32(%rbp), %rdx
	addq	$176, %rdx
	movslq	-20(%rbp), %rcx
	shlq	$4, %rcx
	addq	%rcx, %rdx
	movswl	%ax, %esi
	callq	biari_encode_symbol
	movl	-36(%rbp), %eax
	cltd
	movl	$2, %ecx
	idivl	%ecx
	movl	%edx, -4(%rbp)
	movq	-16(%rbp), %rdi
	movl	-4(%rbp), %eax
	movzbl	%al, %eax
	movq	-32(%rbp), %rdx
	addq	$176, %rdx
	movslq	-20(%rbp), %rcx
	shlq	$4, %rcx
	addq	%rcx, %rdx
	movswl	%ax, %esi
	callq	biari_encode_symbol
.LBB52_101:                             # %if.end448
	jmp	.LBB52_102
.LBB52_102:                             # %if.end449
	cmpl	$277677648, -84(%rbp)   # imm = 0x108D0650
	jne	.LBB52_104
.LBB52_103:
	addq	$96, %rsp
	popq	%rbp
	.cfi_def_cfa %rsp, 8
	retq
.LBB52_104:                             # %func_exit
	.cfi_def_cfa %rbp, 16
	callq	detect_breach
	jmp	.LBB52_103
.Lfunc_end52:
	.size	writeMB_typeInfo_CABAC.25, .Lfunc_end52-writeMB_typeInfo_CABAC.25
	.cfi_endproc
	.section	.rodata,"a",@progbits
	.p2align	3
.LJTI52_0:
	.quad	.LBB52_37
	.quad	.LBB52_38
	.quad	.LBB52_39
	.quad	.LBB52_40
	.quad	.LBB52_41
	.quad	.LBB52_41
	.quad	.LBB52_42
	.quad	.LBB52_43
                                        # -- End function
	.text
	.globl	writeRefFrame_CABAC.26  # -- Begin function writeRefFrame_CABAC.26
	.p2align	4, 0x90
	.type	writeRefFrame_CABAC.26,@function
writeRefFrame_CABAC.26:                 # @writeRefFrame_CABAC.26
	.cfi_startproc
# %bb.0:                                # %entry
	pushq	%rbp
	.cfi_def_cfa_offset 16
	.cfi_offset %rbp, -16
	movq	%rsp, %rbp
	.cfi_def_cfa_register %rbp
	subq	$128, %rsp
	movl	$1676851430, -64(%rbp)  # imm = 0x63F2B8E6
	movq	%rdi, -48(%rbp)
	movq	%rsi, -56(%rbp)
	movq	img, %rax
	movq	14160(%rax), %rax
	movq	32(%rax), %rax
	movq	%rax, -40(%rbp)
	movq	img, %rax
	movq	14168(%rax), %rax
	movq	img, %rcx
	movslq	12(%rcx), %rcx
	imulq	$632, %rcx, %rcx        # imm = 0x278
	addq	%rcx, %rax
	movq	%rax, -128(%rbp)
	movl	$0, -20(%rbp)
	movq	enc_picture, %rax
	movq	6480(%rax), %rax
	movq	-48(%rbp), %rcx
	movslq	8(%rcx), %rcx
	movq	(%rax,%rcx,8), %rax
	movq	%rax, -32(%rbp)
	movq	img, %rax
	cmpl	$1, 24(%rax)
	sete	%al
	andb	$1, %al
	movzbl	%al, %eax
	movl	%eax, -24(%rbp)
	movq	img, %rax
	movl	12(%rax), %edi
	movq	img, %rax
	movl	72(%rax), %esi
	movq	img, %rax
	movl	76(%rax), %edx
	movl	$4294967295, %ecx       # imm = 0xFFFFFFFF
	xorl	%r8d, %r8d
	leaq	-120(%rbp), %r9
	callq	getLuma4x4Neighbour
	movq	img, %rax
	movl	12(%rax), %edi
	movq	img, %rax
	movl	72(%rax), %esi
	movq	img, %rax
	movl	76(%rax), %edx
	movl	$0, %ecx
	movl	$4294967295, %r8d       # imm = 0xFFFFFFFF
	leaq	-96(%rbp), %r9
	callq	getLuma4x4Neighbour
	movl	-112(%rbp), %eax
	cltd
	movl	$2, %esi
	idivl	%esi
	cltd
	idivl	%esi
	movl	%edx, %ecx
	movl	-108(%rbp), %eax
	cltd
	idivl	%esi
	cltd
	idivl	%esi
	shll	$1, %edx
	addl	%edx, %ecx
	movl	%ecx, -68(%rbp)
	movl	-88(%rbp), %eax
	cltd
	idivl	%esi
	cltd
	idivl	%esi
	movl	%edx, %ecx
	movl	-84(%rbp), %eax
	cltd
	idivl	%esi
	cltd
	idivl	%esi
	shll	$1, %edx
	addl	%edx, %ecx
	movl	%ecx, -60(%rbp)
	cmpl	$0, -96(%rbp)
	jne	.LBB53_2
# %bb.1:                                # %if.then
	movl	$0, -8(%rbp)
	jmp	.LBB53_14
.LBB53_2:                               # %if.else
	movq	img, %rax
	movq	14168(%rax), %rax
	movslq	-92(%rbp), %rcx
	imulq	$632, %rcx, %rcx        # imm = 0x278
	addq	%rcx, %rax
	cmpl	$0, 72(%rax)
	jne	.LBB53_4
# %bb.3:                                # %land.lhs.true
	movq	img, %rax
	cmpl	$1, 24(%rax)
	je	.LBB53_6
.LBB53_4:                               # %lor.lhs.false
	movq	img, %rax
	movq	14168(%rax), %rax
	movslq	-92(%rbp), %rcx
	imulq	$632, %rcx, %rcx        # imm = 0x278
	addq	%rcx, %rax
	movslq	-60(%rbp), %rcx
	cmpl	$0, 472(%rax,%rcx,4)
	jne	.LBB53_7
# %bb.5:                                # %land.lhs.true33
	cmpl	$0, -24(%rbp)
	je	.LBB53_7
.LBB53_6:                               # %if.then35
	movl	$0, -8(%rbp)
	jmp	.LBB53_13
.LBB53_7:                               # %if.else36
	movq	img, %rax
	cmpl	$0, 72400(%rax)
	je	.LBB53_11
# %bb.8:                                # %land.lhs.true38
	movq	-128(%rbp), %rax
	cmpl	$0, 532(%rax)
	jne	.LBB53_11
# %bb.9:                                # %land.lhs.true41
	movq	img, %rax
	movq	14168(%rax), %rax
	movslq	-92(%rbp), %rcx
	imulq	$632, %rcx, %rcx        # imm = 0x278
	addq	%rcx, %rax
	cmpl	$1, 532(%rax)
	jne	.LBB53_11
# %bb.10:                               # %if.then49
	xorl	%eax, %eax
	movq	-32(%rbp), %rcx
	movslq	-80(%rbp), %rdx
	movq	(%rcx,%rdx,8), %rcx
	movslq	-76(%rbp), %rdx
	movswl	(%rcx,%rdx,2), %ecx
	cmpl	$1, %ecx
	movl	$1, %ecx
	cmovgl	%ecx, %eax
	movl	%eax, -8(%rbp)
	jmp	.LBB53_12
.LBB53_11:                              # %if.else57
	xorl	%eax, %eax
	movq	-32(%rbp), %rcx
	movslq	-80(%rbp), %rdx
	movq	(%rcx,%rdx,8), %rcx
	movslq	-76(%rbp), %rdx
	movswl	(%rcx,%rdx,2), %ecx
	cmpl	$0, %ecx
	movl	$1, %ecx
	cmovgl	%ecx, %eax
	movl	%eax, -8(%rbp)
.LBB53_12:                              # %if.end
	jmp	.LBB53_13
.LBB53_13:                              # %if.end68
	jmp	.LBB53_14
.LBB53_14:                              # %if.end69
	cmpl	$0, -120(%rbp)
	jne	.LBB53_16
# %bb.15:                               # %if.then72
	movl	$0, -12(%rbp)
	jmp	.LBB53_28
.LBB53_16:                              # %if.else73
	movq	img, %rax
	movq	14168(%rax), %rax
	movslq	-116(%rbp), %rcx
	imulq	$632, %rcx, %rcx        # imm = 0x278
	addq	%rcx, %rax
	cmpl	$0, 72(%rax)
	jne	.LBB53_18
# %bb.17:                               # %land.lhs.true81
	movq	img, %rax
	cmpl	$1, 24(%rax)
	je	.LBB53_20
.LBB53_18:                              # %lor.lhs.false85
	movq	img, %rax
	movq	14168(%rax), %rax
	movslq	-116(%rbp), %rcx
	imulq	$632, %rcx, %rcx        # imm = 0x278
	addq	%rcx, %rax
	movslq	-68(%rbp), %rcx
	cmpl	$0, 472(%rax,%rcx,4)
	jne	.LBB53_21
# %bb.19:                               # %land.lhs.true95
	cmpl	$0, -24(%rbp)
	je	.LBB53_21
.LBB53_20:                              # %if.then97
	movl	$0, -12(%rbp)
	jmp	.LBB53_27
.LBB53_21:                              # %if.else98
	movq	img, %rax
	cmpl	$0, 72400(%rax)
	je	.LBB53_25
# %bb.22:                               # %land.lhs.true101
	movq	-128(%rbp), %rax
	cmpl	$0, 532(%rax)
	jne	.LBB53_25
# %bb.23:                               # %land.lhs.true105
	movq	img, %rax
	movq	14168(%rax), %rax
	movslq	-116(%rbp), %rcx
	imulq	$632, %rcx, %rcx        # imm = 0x278
	addq	%rcx, %rax
	cmpl	$1, 532(%rax)
	jne	.LBB53_25
# %bb.24:                               # %if.then113
	xorl	%eax, %eax
	movq	-32(%rbp), %rcx
	movslq	-104(%rbp), %rdx
	movq	(%rcx,%rdx,8), %rcx
	movslq	-100(%rbp), %rdx
	movswl	(%rcx,%rdx,2), %ecx
	cmpl	$1, %ecx
	movl	$1, %ecx
	cmovgl	%ecx, %eax
	movl	%eax, -12(%rbp)
	jmp	.LBB53_26
.LBB53_25:                              # %if.else124
	xorl	%eax, %eax
	movq	-32(%rbp), %rcx
	movslq	-104(%rbp), %rdx
	movq	(%rcx,%rdx,8), %rcx
	movslq	-100(%rbp), %rdx
	movswl	(%rcx,%rdx,2), %ecx
	cmpl	$0, %ecx
	movl	$1, %ecx
	cmovgl	%ecx, %eax
	movl	%eax, -12(%rbp)
.LBB53_26:                              # %if.end135
	jmp	.LBB53_27
.LBB53_27:                              # %if.end136
	jmp	.LBB53_28
.LBB53_28:                              # %if.end137
	movl	-12(%rbp), %eax
	movl	-8(%rbp), %ecx
	shll	$1, %ecx
	addl	%ecx, %eax
	movl	%eax, -4(%rbp)
	movl	-4(%rbp), %eax
	movq	-48(%rbp), %rcx
	movl	%eax, 24(%rcx)
	movq	-48(%rbp), %rax
	movl	4(%rax), %eax
	movl	%eax, -16(%rbp)
	cmpl	$0, -16(%rbp)
	jne	.LBB53_30
# %bb.29:                               # %if.then142
	movq	-56(%rbp), %rdi
	movq	-40(%rbp), %rdx
	addq	$1136, %rdx             # imm = 0x470
	movslq	-20(%rbp), %rax
	imulq	$96, %rax, %rax
	addq	%rax, %rdx
	movslq	-4(%rbp), %rax
	shlq	$4, %rax
	addq	%rax, %rdx
	xorl	%esi, %esi
	callq	biari_encode_symbol
	jmp	.LBB53_31
.LBB53_30:                              # %if.else145
	movq	-56(%rbp), %rdi
	movq	-40(%rbp), %rdx
	addq	$1136, %rdx             # imm = 0x470
	movslq	-20(%rbp), %rax
	imulq	$96, %rax, %rax
	addq	%rax, %rdx
	movslq	-4(%rbp), %rax
	shlq	$4, %rax
	addq	%rax, %rdx
	movl	$1, %esi
	callq	biari_encode_symbol
	movl	-16(%rbp), %eax
	addl	$-1, %eax
	movl	%eax, -16(%rbp)
	movl	$4, -4(%rbp)
	movq	-56(%rbp), %rdi
	movl	-16(%rbp), %esi
	movq	-40(%rbp), %rdx
	addq	$1136, %rdx             # imm = 0x470
	movslq	-20(%rbp), %rax
	imulq	$96, %rax, %rax
	addq	%rax, %rdx
	movslq	-4(%rbp), %rax
	shlq	$4, %rax
	addq	%rax, %rdx
	movl	$1, %ecx
	callq	unary_bin_encode
.LBB53_31:                              # %if.end158
	cmpl	$1676851430, -64(%rbp)  # imm = 0x63F2B8E6
	jne	.LBB53_33
.LBB53_32:
	addq	$128, %rsp
	popq	%rbp
	.cfi_def_cfa %rsp, 8
	retq
.LBB53_33:                              # %func_exit
	.cfi_def_cfa %rbp, 16
	callq	detect_breach
	jmp	.LBB53_32
.Lfunc_end53:
	.size	writeRefFrame_CABAC.26, .Lfunc_end53-writeRefFrame_CABAC.26
	.cfi_endproc
                                        # -- End function
	.globl	writeMB_skip_flagInfo_CABAC.27 # -- Begin function writeMB_skip_flagInfo_CABAC.27
	.p2align	4, 0x90
	.type	writeMB_skip_flagInfo_CABAC.27,@function
writeMB_skip_flagInfo_CABAC.27:         # @writeMB_skip_flagInfo_CABAC.27
	.cfi_startproc
# %bb.0:                                # %entry
	pushq	%rbp
	.cfi_def_cfa_offset 16
	.cfi_offset %rbp, -16
	movq	%rsp, %rbp
	.cfi_def_cfa_register %rbp
	subq	$64, %rsp
	movl	$1836817076, -60(%rbp)  # imm = 0x6D7B9AB4
	movq	%rdi, -32(%rbp)
	movq	%rsi, -48(%rbp)
	movq	img, %rax
	cmpl	$1, 24(%rax)
	sete	%al
	andb	$1, %al
	movzbl	%al, %eax
	movl	%eax, -64(%rbp)
	movq	img, %rax
	movq	14160(%rax), %rax
	movq	32(%rax), %rax
	movq	%rax, -56(%rbp)
	movq	img, %rax
	movq	14168(%rax), %rax
	movq	img, %rcx
	movslq	12(%rcx), %rcx
	imulq	$632, %rcx, %rcx        # imm = 0x278
	addq	%rcx, %rax
	movq	%rax, -24(%rbp)
	movq	-32(%rbp), %rax
	movl	4(%rax), %eax
	movl	%eax, -36(%rbp)
	cmpl	$0, -64(%rbp)
	je	.LBB54_14
# %bb.1:                                # %if.then
	movq	-24(%rbp), %rax
	cmpq	$0, 56(%rax)
	jne	.LBB54_3
# %bb.2:                                # %if.then3
	movl	$0, -12(%rbp)
	jmp	.LBB54_4
.LBB54_3:                               # %if.else
	xorl	%eax, %eax
	movq	-24(%rbp), %rcx
	movq	56(%rcx), %rcx
	movl	624(%rcx), %ecx
	cmpl	$0, %ecx
	movl	$1, %ecx
	cmovel	%eax, %ecx
	movl	%ecx, -12(%rbp)
.LBB54_4:                               # %if.end
	movq	-24(%rbp), %rax
	cmpq	$0, 64(%rax)
	jne	.LBB54_6
# %bb.5:                                # %if.then9
	movl	$0, -8(%rbp)
	jmp	.LBB54_7
.LBB54_6:                               # %if.else10
	xorl	%eax, %eax
	movq	-24(%rbp), %rcx
	movq	64(%rcx), %rcx
	movl	624(%rcx), %ecx
	cmpl	$0, %ecx
	movl	$1, %ecx
	cmovel	%eax, %ecx
	movl	%ecx, -8(%rbp)
.LBB54_7:                               # %if.end16
	movl	-8(%rbp), %eax
	addl	$7, %eax
	addl	-12(%rbp), %eax
	movl	%eax, -4(%rbp)
	movq	-32(%rbp), %rax
	cmpl	$0, 4(%rax)
	jne	.LBB54_10
# %bb.8:                                # %land.lhs.true
	movq	-32(%rbp), %rax
	cmpl	$0, 8(%rax)
	jne	.LBB54_10
# %bb.9:                                # %if.then23
	movq	-48(%rbp), %rdi
	movq	-56(%rbp), %rdx
	addq	$352, %rdx              # imm = 0x160
	movslq	-4(%rbp), %rax
	shlq	$4, %rax
	addq	%rax, %rdx
	movl	$1, %esi
	callq	biari_encode_symbol
	jmp	.LBB54_11
.LBB54_10:                              # %if.else27
	movq	-48(%rbp), %rdi
	movq	-56(%rbp), %rdx
	addq	$352, %rdx              # imm = 0x160
	movslq	-4(%rbp), %rax
	shlq	$4, %rax
	addq	%rax, %rdx
	xorl	%esi, %esi
	callq	biari_encode_symbol
.LBB54_11:                              # %if.end32
	xorl	%eax, %eax
	movq	-32(%rbp), %rcx
	cmpl	$0, 4(%rcx)
	jne	.LBB54_13
# %bb.12:                               # %land.rhs
	movq	-32(%rbp), %rax
	cmpl	$0, 8(%rax)
	sete	%al
.LBB54_13:                              # %land.end
	xorl	%ecx, %ecx
	testb	$1, %al
	movl	$1, %eax
	cmovnel	%ecx, %eax
	movq	-24(%rbp), %rcx
	movl	%eax, 624(%rcx)
	jmp	.LBB54_24
.LBB54_14:                              # %if.else41
	movq	-24(%rbp), %rax
	cmpq	$0, 56(%rax)
	jne	.LBB54_16
# %bb.15:                               # %if.then45
	movl	$0, -12(%rbp)
	jmp	.LBB54_17
.LBB54_16:                              # %if.else46
	xorl	%eax, %eax
	movq	-24(%rbp), %rcx
	movq	56(%rcx), %rcx
	movl	624(%rcx), %ecx
	cmpl	$0, %ecx
	movl	$1, %ecx
	cmovnel	%ecx, %eax
	movl	%eax, -12(%rbp)
.LBB54_17:                              # %if.end52
	movq	-24(%rbp), %rax
	cmpq	$0, 64(%rax)
	jne	.LBB54_19
# %bb.18:                               # %if.then56
	movl	$0, -8(%rbp)
	jmp	.LBB54_20
.LBB54_19:                              # %if.else57
	xorl	%eax, %eax
	movq	-24(%rbp), %rcx
	movq	64(%rcx), %rcx
	movl	624(%rcx), %ecx
	cmpl	$0, %ecx
	movl	$1, %ecx
	cmovnel	%ecx, %eax
	movl	%eax, -8(%rbp)
.LBB54_20:                              # %if.end63
	movl	-8(%rbp), %eax
	addl	-12(%rbp), %eax
	movl	%eax, -4(%rbp)
	cmpl	$0, -36(%rbp)
	jne	.LBB54_22
# %bb.21:                               # %if.then67
	movq	-48(%rbp), %rdi
	movq	-56(%rbp), %rdx
	addq	$176, %rdx
	movslq	-4(%rbp), %rax
	shlq	$4, %rax
	addq	%rax, %rdx
	movl	$1, %esi
	callq	biari_encode_symbol
	jmp	.LBB54_23
.LBB54_22:                              # %if.else72
	movq	-48(%rbp), %rdi
	movq	-56(%rbp), %rdx
	addq	$176, %rdx
	movslq	-4(%rbp), %rax
	shlq	$4, %rax
	addq	%rax, %rdx
	xorl	%esi, %esi
	callq	biari_encode_symbol
.LBB54_23:                              # %if.end77
	xorl	%eax, %eax
	movl	-36(%rbp), %ecx
	cmpl	$0, %ecx
	movl	$1, %ecx
	cmovel	%eax, %ecx
	movq	-24(%rbp), %rax
	movl	%ecx, 624(%rax)
.LBB54_24:                              # %if.end82
	movl	-4(%rbp), %eax
	movq	-32(%rbp), %rcx
	movl	%eax, 24(%rcx)
	cmpl	$1836817076, -60(%rbp)  # imm = 0x6D7B9AB4
	jne	.LBB54_26
.LBB54_25:
	addq	$64, %rsp
	popq	%rbp
	.cfi_def_cfa %rsp, 8
	retq
.LBB54_26:                              # %func_exit
	.cfi_def_cfa %rbp, 16
	callq	detect_breach
	jmp	.LBB54_25
.Lfunc_end54:
	.size	writeMB_skip_flagInfo_CABAC.27, .Lfunc_end54-writeMB_skip_flagInfo_CABAC.27
	.cfi_endproc
                                        # -- End function
	.globl	writeDquant_CABAC.28    # -- Begin function writeDquant_CABAC.28
	.p2align	4, 0x90
	.type	writeDquant_CABAC.28,@function
writeDquant_CABAC.28:                   # @writeDquant_CABAC.28
	.cfi_startproc
# %bb.0:                                # %entry
	pushq	%rbp
	.cfi_def_cfa_offset 16
	.cfi_offset %rbp, -16
	movq	%rsp, %rbp
	.cfi_def_cfa_register %rbp
	subq	$64, %rsp
	movl	$1403496159, -36(%rbp)  # imm = 0x53A7A6DF
	movq	%rdi, -48(%rbp)
	movq	%rsi, -24(%rbp)
	movq	img, %rax
	movq	14160(%rax), %rax
	movq	32(%rax), %rax
	movq	%rax, -32(%rbp)
	movq	-48(%rbp), %rax
	movl	4(%rax), %eax
	movl	%eax, -16(%rbp)
	movl	$0, -12(%rbp)
	movq	img, %rax
	movq	14168(%rax), %rax
	movq	img, %rcx
	movslq	12(%rcx), %rcx
	imulq	$632, %rcx, %rcx        # imm = 0x278
	addq	%rcx, %rax
	movq	%rax, -56(%rbp)
	movq	-56(%rbp), %rax
	movl	596(%rax), %eax
	movl	%eax, last_dquant
	cmpl	$0, -16(%rbp)
	jg	.LBB55_2
# %bb.1:                                # %if.then
	movl	$1, -12(%rbp)
.LBB55_2:                               # %if.end
	movl	-16(%rbp), %edi
	callq	abs
	xorl	%ecx, %ecx
	shll	$1, %eax
	movl	%eax, -4(%rbp)
	movl	-12(%rbp), %eax
	addl	-4(%rbp), %eax
	movl	%eax, -4(%rbp)
	movl	-4(%rbp), %eax
	addl	$-1, %eax
	movl	%eax, -4(%rbp)
	movl	last_dquant, %eax
	cmpl	$0, %eax
	movl	$1, %eax
	cmovnel	%eax, %ecx
	movl	%ecx, -8(%rbp)
	cmpl	$0, -4(%rbp)
	jne	.LBB55_4
# %bb.3:                                # %if.then3
	movq	-24(%rbp), %rdi
	movq	-32(%rbp), %rdx
	addq	$1328, %rdx             # imm = 0x530
	movslq	-8(%rbp), %rax
	shlq	$4, %rax
	addq	%rax, %rdx
	xorl	%esi, %esi
	callq	biari_encode_symbol
	jmp	.LBB55_5
.LBB55_4:                               # %if.else
	movq	-24(%rbp), %rdi
	movq	-32(%rbp), %rdx
	addq	$1328, %rdx             # imm = 0x530
	movslq	-8(%rbp), %rax
	shlq	$4, %rax
	addq	%rax, %rdx
	movl	$1, %esi
	callq	biari_encode_symbol
	movl	$2, -8(%rbp)
	movl	-4(%rbp), %eax
	addl	$-1, %eax
	movl	%eax, -4(%rbp)
	movq	-24(%rbp), %rdi
	movl	-4(%rbp), %esi
	movq	-32(%rbp), %rdx
	addq	$1328, %rdx             # imm = 0x530
	movslq	-8(%rbp), %rax
	shlq	$4, %rax
	addq	%rax, %rdx
	movl	$1, %ecx
	callq	unary_bin_encode
.LBB55_5:                               # %if.end13
	cmpl	$1403496159, -36(%rbp)  # imm = 0x53A7A6DF
	jne	.LBB55_7
.LBB55_6:
	addq	$64, %rsp
	popq	%rbp
	.cfi_def_cfa %rsp, 8
	retq
.LBB55_7:                               # %func_exit
	.cfi_def_cfa %rbp, 16
	callq	detect_breach
	jmp	.LBB55_6
.Lfunc_end55:
	.size	writeDquant_CABAC.28, .Lfunc_end55-writeDquant_CABAC.28
	.cfi_endproc
                                        # -- End function
	.globl	writeMVD_CABAC.29       # -- Begin function writeMVD_CABAC.29
	.p2align	4, 0x90
	.type	writeMVD_CABAC.29,@function
writeMVD_CABAC.29:                      # @writeMVD_CABAC.29
	.cfi_startproc
# %bb.0:                                # %entry
	pushq	%rbp
	.cfi_def_cfa_offset 16
	.cfi_offset %rbp, -16
	movq	%rsp, %rbp
	.cfi_def_cfa_register %rbp
	subq	$144, %rsp
	movl	$1584081576, -124(%rbp) # imm = 0x5E6B2AA8
	movq	%rdi, -56(%rbp)
	movq	%rsi, -64(%rbp)
	movq	img, %rax
	movl	72(%rax), %eax
	movl	%eax, -32(%rbp)
	movq	img, %rax
	movl	76(%rax), %eax
	movl	%eax, -36(%rbp)
	movq	-56(%rbp), %rax
	movl	8(%rax), %eax
	andl	$1, %eax
	movl	%eax, -20(%rbp)
	movq	-56(%rbp), %rax
	movl	8(%rax), %eax
	sarl	$1, %eax
	movl	%eax, -4(%rbp)
	movq	img, %rax
	movq	14160(%rax), %rax
	movq	32(%rax), %rax
	movq	%rax, -120(%rbp)
	movq	img, %rax
	movq	14168(%rax), %rax
	movq	img, %rcx
	movslq	12(%rcx), %rcx
	imulq	$632, %rcx, %rcx        # imm = 0x278
	addq	%rcx, %rax
	movq	%rax, -48(%rbp)
	movq	img, %rax
	movl	12(%rax), %edi
	movl	-32(%rbp), %esi
	movl	-36(%rbp), %edx
	movl	$4294967295, %ecx       # imm = 0xFFFFFFFF
	xorl	%r8d, %r8d
	leaq	-88(%rbp), %r9
	callq	getLuma4x4Neighbour
	movq	img, %rax
	movl	12(%rax), %edi
	movl	-32(%rbp), %esi
	movl	-36(%rbp), %edx
	movl	$0, %ecx
	movl	$4294967295, %r8d       # imm = 0xFFFFFFFF
	leaq	-112(%rbp), %r9
	callq	getLuma4x4Neighbour
	cmpl	$0, -112(%rbp)
	je	.LBB56_15
# %bb.1:                                # %if.then
	movq	img, %rax
	movq	14168(%rax), %rax
	movslq	-108(%rbp), %rcx
	imulq	$632, %rcx, %rcx        # imm = 0x278
	addq	%rcx, %rax
	addq	$76, %rax
	movslq	-20(%rbp), %rcx
	shlq	$7, %rcx
	addq	%rcx, %rax
	movslq	-100(%rbp), %rcx
	shlq	$5, %rcx
	addq	%rcx, %rax
	movslq	-104(%rbp), %rcx
	shlq	$3, %rcx
	addq	%rcx, %rax
	movslq	-4(%rbp), %rcx
	cmpl	$0, (%rax,%rcx,4)
	jge	.LBB56_3
# %bb.2:                                # %cond.true
	xorl	%eax, %eax
	movq	img, %rcx
	movq	14168(%rcx), %rcx
	movslq	-108(%rbp), %rdx
	imulq	$632, %rdx, %rdx        # imm = 0x278
	addq	%rdx, %rcx
	addq	$76, %rcx
	movslq	-20(%rbp), %rdx
	shlq	$7, %rdx
	addq	%rdx, %rcx
	movslq	-100(%rbp), %rdx
	shlq	$5, %rdx
	addq	%rdx, %rcx
	movslq	-104(%rbp), %rdx
	shlq	$3, %rdx
	addq	%rdx, %rcx
	movslq	-4(%rbp), %rdx
	subl	(%rcx,%rdx,4), %eax
	jmp	.LBB56_4
.LBB56_3:                               # %cond.false
	movq	img, %rax
	movq	14168(%rax), %rax
	movslq	-108(%rbp), %rcx
	imulq	$632, %rcx, %rcx        # imm = 0x278
	addq	%rcx, %rax
	addq	$76, %rax
	movslq	-20(%rbp), %rcx
	shlq	$7, %rcx
	addq	%rcx, %rax
	movslq	-100(%rbp), %rcx
	shlq	$5, %rcx
	addq	%rcx, %rax
	movslq	-104(%rbp), %rcx
	shlq	$3, %rcx
	addq	%rcx, %rax
	movslq	-4(%rbp), %rcx
	movl	(%rax,%rcx,4), %eax
.LBB56_4:                               # %cond.end
	movl	%eax, -16(%rbp)
	movq	img, %rax
	cmpl	$0, 72400(%rax)
	je	.LBB56_14
# %bb.5:                                # %land.lhs.true
	cmpl	$1, -4(%rbp)
	jne	.LBB56_14
# %bb.6:                                # %if.then47
	movq	-48(%rbp), %rax
	cmpl	$0, 532(%rax)
	jne	.LBB56_9
# %bb.7:                                # %land.lhs.true49
	movq	img, %rax
	movq	14168(%rax), %rax
	movslq	-108(%rbp), %rcx
	imulq	$632, %rcx, %rcx        # imm = 0x278
	addq	%rcx, %rax
	cmpl	$1, 532(%rax)
	jne	.LBB56_9
# %bb.8:                                # %if.then56
	movl	-16(%rbp), %eax
	shll	$1, %eax
	movl	%eax, -16(%rbp)
	jmp	.LBB56_13
.LBB56_9:                               # %if.else
	movq	-48(%rbp), %rax
	cmpl	$1, 532(%rax)
	jne	.LBB56_12
# %bb.10:                               # %land.lhs.true59
	movq	img, %rax
	movq	14168(%rax), %rax
	movslq	-108(%rbp), %rcx
	imulq	$632, %rcx, %rcx        # imm = 0x278
	addq	%rcx, %rax
	cmpl	$0, 532(%rax)
	jne	.LBB56_12
# %bb.11:                               # %if.then66
	movl	-16(%rbp), %eax
	cltd
	movl	$2, %ecx
	idivl	%ecx
	movl	%eax, -16(%rbp)
.LBB56_12:                              # %if.end
	jmp	.LBB56_13
.LBB56_13:                              # %if.end67
	jmp	.LBB56_14
.LBB56_14:                              # %if.end68
	jmp	.LBB56_16
.LBB56_15:                              # %if.else69
	movl	$0, -16(%rbp)
.LBB56_16:                              # %if.end70
	cmpl	$0, -88(%rbp)
	je	.LBB56_31
# %bb.17:                               # %if.then73
	movq	img, %rax
	movq	14168(%rax), %rax
	movslq	-84(%rbp), %rcx
	imulq	$632, %rcx, %rcx        # imm = 0x278
	addq	%rcx, %rax
	addq	$76, %rax
	movslq	-20(%rbp), %rcx
	shlq	$7, %rcx
	addq	%rcx, %rax
	movslq	-76(%rbp), %rcx
	shlq	$5, %rcx
	addq	%rcx, %rax
	movslq	-80(%rbp), %rcx
	shlq	$3, %rcx
	addq	%rcx, %rax
	movslq	-4(%rbp), %rcx
	cmpl	$0, (%rax,%rcx,4)
	jge	.LBB56_19
# %bb.18:                               # %cond.true90
	xorl	%eax, %eax
	movq	img, %rcx
	movq	14168(%rcx), %rcx
	movslq	-84(%rbp), %rdx
	imulq	$632, %rdx, %rdx        # imm = 0x278
	addq	%rdx, %rcx
	addq	$76, %rcx
	movslq	-20(%rbp), %rdx
	shlq	$7, %rdx
	addq	%rdx, %rcx
	movslq	-76(%rbp), %rdx
	shlq	$5, %rdx
	addq	%rdx, %rcx
	movslq	-80(%rbp), %rdx
	shlq	$3, %rdx
	addq	%rdx, %rcx
	movslq	-4(%rbp), %rdx
	subl	(%rcx,%rdx,4), %eax
	jmp	.LBB56_20
.LBB56_19:                              # %cond.false107
	movq	img, %rax
	movq	14168(%rax), %rax
	movslq	-84(%rbp), %rcx
	imulq	$632, %rcx, %rcx        # imm = 0x278
	addq	%rcx, %rax
	addq	$76, %rax
	movslq	-20(%rbp), %rcx
	shlq	$7, %rcx
	addq	%rcx, %rax
	movslq	-76(%rbp), %rcx
	shlq	$5, %rcx
	addq	%rcx, %rax
	movslq	-80(%rbp), %rcx
	shlq	$3, %rcx
	addq	%rcx, %rax
	movslq	-4(%rbp), %rcx
	movl	(%rax,%rcx,4), %eax
.LBB56_20:                              # %cond.end123
	movl	%eax, -12(%rbp)
	movq	img, %rax
	cmpl	$0, 72400(%rax)
	je	.LBB56_30
# %bb.21:                               # %land.lhs.true127
	cmpl	$1, -4(%rbp)
	jne	.LBB56_30
# %bb.22:                               # %if.then129
	movq	-48(%rbp), %rax
	cmpl	$0, 532(%rax)
	jne	.LBB56_25
# %bb.23:                               # %land.lhs.true132
	movq	img, %rax
	movq	14168(%rax), %rax
	movslq	-84(%rbp), %rcx
	imulq	$632, %rcx, %rcx        # imm = 0x278
	addq	%rcx, %rax
	cmpl	$1, 532(%rax)
	jne	.LBB56_25
# %bb.24:                               # %if.then139
	movl	-12(%rbp), %eax
	shll	$1, %eax
	movl	%eax, -12(%rbp)
	jmp	.LBB56_29
.LBB56_25:                              # %if.else141
	movq	-48(%rbp), %rax
	cmpl	$1, 532(%rax)
	jne	.LBB56_28
# %bb.26:                               # %land.lhs.true144
	movq	img, %rax
	movq	14168(%rax), %rax
	movslq	-84(%rbp), %rcx
	imulq	$632, %rcx, %rcx        # imm = 0x278
	addq	%rcx, %rax
	cmpl	$0, 532(%rax)
	jne	.LBB56_28
# %bb.27:                               # %if.then151
	movl	-12(%rbp), %eax
	cltd
	movl	$2, %ecx
	idivl	%ecx
	movl	%eax, -12(%rbp)
.LBB56_28:                              # %if.end153
	jmp	.LBB56_29
.LBB56_29:                              # %if.end154
	jmp	.LBB56_30
.LBB56_30:                              # %if.end155
	jmp	.LBB56_32
.LBB56_31:                              # %if.else156
	movl	$0, -12(%rbp)
.LBB56_32:                              # %if.end157
	movl	-12(%rbp), %eax
	addl	-16(%rbp), %eax
	movl	%eax, -132(%rbp)
	cmpl	$3, %eax
	jge	.LBB56_34
# %bb.33:                               # %if.then159
	imull	$5, -4(%rbp), %eax
	movl	%eax, -8(%rbp)
	jmp	.LBB56_38
.LBB56_34:                              # %if.else161
	cmpl	$32, -132(%rbp)
	jle	.LBB56_36
# %bb.35:                               # %if.then163
	imull	$5, -4(%rbp), %eax
	addl	$3, %eax
	movl	%eax, -8(%rbp)
	jmp	.LBB56_37
.LBB56_36:                              # %if.else166
	imull	$5, -4(%rbp), %eax
	addl	$2, %eax
	movl	%eax, -8(%rbp)
.LBB56_37:                              # %if.end169
	jmp	.LBB56_38
.LBB56_38:                              # %if.end170
	movq	-56(%rbp), %rax
	movl	4(%rax), %eax
	movl	%eax, -24(%rbp)
	movl	-8(%rbp), %eax
	movq	-56(%rbp), %rcx
	movl	%eax, 24(%rcx)
	cmpl	$0, -24(%rbp)
	jge	.LBB56_40
# %bb.39:                               # %cond.true172
	xorl	%eax, %eax
	subl	-24(%rbp), %eax
	jmp	.LBB56_41
.LBB56_40:                              # %cond.false174
	movl	-24(%rbp), %eax
.LBB56_41:                              # %cond.end175
	movl	%eax, -28(%rbp)
	cmpl	$0, -28(%rbp)
	jne	.LBB56_43
# %bb.42:                               # %if.then178
	movq	-64(%rbp), %rdi
	movq	-120(%rbp), %rdx
	addq	$816, %rdx              # imm = 0x330
	movslq	-8(%rbp), %rax
	shlq	$4, %rax
	addq	%rax, %rdx
	xorl	%esi, %esi
	callq	biari_encode_symbol
	jmp	.LBB56_44
.LBB56_43:                              # %if.else182
	movq	-64(%rbp), %rdi
	movq	-120(%rbp), %rdx
	addq	$816, %rdx              # imm = 0x330
	movslq	-8(%rbp), %rax
	shlq	$4, %rax
	addq	%rax, %rdx
	movl	$1, %esi
	callq	biari_encode_symbol
	movl	-28(%rbp), %eax
	addl	$-1, %eax
	movl	%eax, -28(%rbp)
	imull	$5, -4(%rbp), %eax
	movl	%eax, -8(%rbp)
	movq	-64(%rbp), %rdi
	movl	-28(%rbp), %esi
	movq	-120(%rbp), %rdx
	addq	$816, %rdx              # imm = 0x330
	addq	$160, %rdx
	movslq	-8(%rbp), %rax
	shlq	$4, %rax
	addq	%rax, %rdx
	movl	$3, %ecx
	callq	unary_exp_golomb_mv_encode
	xorl	%eax, %eax
	movl	-24(%rbp), %ecx
	cmpl	$0, %ecx
	movl	$1, %ecx
	cmovll	%ecx, %eax
	movl	%eax, -128(%rbp)
	movq	-64(%rbp), %rdi
	movl	-128(%rbp), %eax
	movzbl	%al, %eax
	movswl	%ax, %esi
	callq	biari_encode_symbol_eq_prob
.LBB56_44:                              # %if.end193
	cmpl	$1584081576, -124(%rbp) # imm = 0x5E6B2AA8
	jne	.LBB56_46
.LBB56_45:
	addq	$144, %rsp
	popq	%rbp
	.cfi_def_cfa %rsp, 8
	retq
.LBB56_46:                              # %func_exit
	.cfi_def_cfa %rbp, 16
	callq	detect_breach
	jmp	.LBB56_45
.Lfunc_end56:
	.size	writeMVD_CABAC.29, .Lfunc_end56-writeMVD_CABAC.29
	.cfi_endproc
                                        # -- End function
	.globl	write_significance_map.30 # -- Begin function write_significance_map.30
	.p2align	4, 0x90
	.type	write_significance_map.30,@function
write_significance_map.30:              # @write_significance_map.30
	.cfi_startproc
# %bb.0:                                # %entry
	pushq	%rbp
	.cfi_def_cfa_offset 16
	.cfi_offset %rbp, -16
	movq	%rsp, %rbp
	.cfi_def_cfa_register %rbp
	subq	$80, %rsp
	movl	$102435529, -52(%rbp)   # imm = 0x61B0AC9
	movq	%rdi, -64(%rbp)
	movq	%rsi, -40(%rbp)
	movl	%edx, -8(%rbp)
	movq	%rcx, -48(%rbp)
	movl	%r8d, -28(%rbp)
	movl	$0, -20(%rbp)
	movslq	-8(%rbp), %rax
	movl	maxpos(,%rax,4), %eax
	subl	$1, %eax
	movl	%eax, -16(%rbp)
	movq	img, %rax
	cmpl	$0, 28(%rax)
	movb	$1, %al
	jne	.LBB57_2
# %bb.1:                                # %lor.rhs
	movq	-64(%rbp), %rax
	cmpl	$0, 532(%rax)
	setne	%al
.LBB57_2:                               # %lor.end
	andb	$1, %al
	movzbl	%al, %eax
	movl	%eax, -24(%rbp)
	cmpl	$0, -24(%rbp)
	je	.LBB57_4
# %bb.3:                                # %cond.true
	movq	img, %rax
	movq	14160(%rax), %rax
	movq	40(%rax), %rax
	addq	$7328, %rax             # imm = 0x1CA0
	movslq	-8(%rbp), %rcx
	movslq	type2ctx_map(,%rcx,4), %rcx
	imulq	$240, %rcx, %rcx
	addq	%rcx, %rax
	jmp	.LBB57_5
.LBB57_4:                               # %cond.false
	movq	img, %rax
	movq	14160(%rax), %rax
	movq	40(%rax), %rax
	addq	$928, %rax              # imm = 0x3A0
	movslq	-8(%rbp), %rcx
	movslq	type2ctx_map(,%rcx,4), %rcx
	imulq	$240, %rcx, %rcx
	addq	%rcx, %rax
.LBB57_5:                               # %cond.end
	movq	%rax, -72(%rbp)
	cmpl	$0, -24(%rbp)
	je	.LBB57_7
# %bb.6:                                # %cond.true14
	movq	img, %rax
	movq	14160(%rax), %rax
	movq	40(%rax), %rax
	addq	$9728, %rax             # imm = 0x2600
	movslq	-8(%rbp), %rcx
	movslq	type2ctx_last(,%rcx,4), %rcx
	imulq	$240, %rcx, %rcx
	addq	%rcx, %rax
	jmp	.LBB57_8
.LBB57_7:                               # %cond.false22
	movq	img, %rax
	movq	14160(%rax), %rax
	movq	40(%rax), %rax
	addq	$3328, %rax             # imm = 0xD00
	movslq	-8(%rbp), %rcx
	movslq	type2ctx_last(,%rcx,4), %rcx
	imulq	$240, %rcx, %rcx
	addq	%rcx, %rax
.LBB57_8:                               # %cond.end30
	movq	%rax, -80(%rbp)
	movslq	-8(%rbp), %rax
	cmpl	$0, c1isdc(,%rax,4)
	jne	.LBB57_10
# %bb.9:                                # %if.then
	movl	-20(%rbp), %eax
	addl	$1, %eax
	movl	%eax, -20(%rbp)
	movl	-16(%rbp), %eax
	addl	$1, %eax
	movl	%eax, -16(%rbp)
	movq	-48(%rbp), %rax
	addq	$-4, %rax
	movq	%rax, -48(%rbp)
.LBB57_10:                              # %if.end
	movl	-20(%rbp), %eax
	movw	%ax, -2(%rbp)
.LBB57_11:                              # %for.cond
                                        # =>This Inner Loop Header: Depth=1
	movswl	-2(%rbp), %eax
	cmpl	-16(%rbp), %eax
	jge	.LBB57_22
# %bb.12:                               # %for.body
                                        #   in Loop: Header=BB57_11 Depth=1
	xorl	%eax, %eax
	movq	-48(%rbp), %rcx
	movswq	-2(%rbp), %rdx
	movl	(%rcx,%rdx,4), %ecx
	cmpl	$0, %ecx
	movl	$1, %ecx
	cmovnel	%ecx, %eax
	movw	%ax, -10(%rbp)
	movq	img, %rax
	cmpl	$0, 28(%rax)
	jne	.LBB57_14
# %bb.13:                               # %lor.lhs.false
                                        #   in Loop: Header=BB57_11 Depth=1
	movq	-64(%rbp), %rax
	cmpl	$0, 532(%rax)
	je	.LBB57_15
.LBB57_14:                              # %if.then50
                                        #   in Loop: Header=BB57_11 Depth=1
	movq	-40(%rbp), %rdi
	movw	-10(%rbp), %ax
	movq	-72(%rbp), %rdx
	movslq	-8(%rbp), %rcx
	movq	pos2ctx_map_int(,%rcx,8), %rcx
	movswq	-2(%rbp), %rsi
	movslq	(%rcx,%rsi,4), %rcx
	shlq	$4, %rcx
	addq	%rcx, %rdx
	movswl	%ax, %esi
	callq	biari_encode_symbol
	jmp	.LBB57_16
.LBB57_15:                              # %if.else
                                        #   in Loop: Header=BB57_11 Depth=1
	movq	-40(%rbp), %rdi
	movw	-10(%rbp), %ax
	movq	-72(%rbp), %rdx
	movslq	-8(%rbp), %rcx
	movq	pos2ctx_map(,%rcx,8), %rcx
	movswq	-2(%rbp), %rsi
	movslq	(%rcx,%rsi,4), %rcx
	shlq	$4, %rcx
	addq	%rcx, %rdx
	movswl	%ax, %esi
	callq	biari_encode_symbol
.LBB57_16:                              # %if.end61
                                        #   in Loop: Header=BB57_11 Depth=1
	cmpw	$0, -10(%rbp)
	je	.LBB57_20
# %bb.17:                               # %if.then63
                                        #   in Loop: Header=BB57_11 Depth=1
	xorl	%eax, %eax
	movl	-28(%rbp), %ecx
	addl	$-1, %ecx
	movl	%ecx, -28(%rbp)
	cmpl	$0, %ecx
	movl	$1, %ecx
	cmovel	%ecx, %eax
	movw	%ax, -12(%rbp)
	movq	-40(%rbp), %rdi
	movw	-12(%rbp), %ax
	movq	-80(%rbp), %rdx
	movslq	-8(%rbp), %rcx
	movq	pos2ctx_last(,%rcx,8), %rcx
	movswq	-2(%rbp), %rsi
	movslq	(%rcx,%rsi,4), %rcx
	shlq	$4, %rcx
	addq	%rcx, %rdx
	movswl	%ax, %esi
	callq	biari_encode_symbol
	cmpw	$0, -12(%rbp)
	je	.LBB57_19
# %bb.18:                               # %if.then75
	jmp	.LBB57_23
.LBB57_19:                              # %if.end76
                                        #   in Loop: Header=BB57_11 Depth=1
	jmp	.LBB57_20
.LBB57_20:                              # %if.end77
                                        #   in Loop: Header=BB57_11 Depth=1
	jmp	.LBB57_21
.LBB57_21:                              # %for.inc
                                        #   in Loop: Header=BB57_11 Depth=1
	movw	-2(%rbp), %ax
	addw	$1, %ax
	movw	%ax, -2(%rbp)
	jmp	.LBB57_11
.LBB57_22:                              # %for.end.loopexit
	jmp	.LBB57_23
.LBB57_23:                              # %for.end
	cmpl	$102435529, -52(%rbp)   # imm = 0x61B0AC9
	jne	.LBB57_25
.LBB57_24:
	addq	$80, %rsp
	popq	%rbp
	.cfi_def_cfa %rsp, 8
	retq
.LBB57_25:                              # %func_exit
	.cfi_def_cfa %rbp, 16
	callq	detect_breach
	jmp	.LBB57_24
.Lfunc_end57:
	.size	write_significance_map.30, .Lfunc_end57-write_significance_map.30
	.cfi_endproc
                                        # -- End function
	.globl	writeSyntaxElement_CABAC.31 # -- Begin function writeSyntaxElement_CABAC.31
	.p2align	4, 0x90
	.type	writeSyntaxElement_CABAC.31,@function
writeSyntaxElement_CABAC.31:            # @writeSyntaxElement_CABAC.31
	.cfi_startproc
# %bb.0:                                # %entry
	pushq	%rbp
	.cfi_def_cfa_offset 16
	.cfi_offset %rbp, -16
	movq	%rsp, %rbp
	.cfi_def_cfa_register %rbp
	pushq	%rbx
	subq	$40, %rsp
	.cfi_offset %rbx, -24
	movl	$462400723, -32(%rbp)   # imm = 0x1B8FACD3
	movq	%rdi, -16(%rbp)
	movq	%rsi, -40(%rbp)
	movq	-40(%rbp), %rax
	addq	$8, %rax
	movq	%rax, -24(%rbp)
	movq	-24(%rbp), %rdi
	callq	arienco_bits_written
	movl	%eax, -28(%rbp)
	movq	-16(%rbp), %rax
	movq	40(%rax), %rax
	movq	-16(%rbp), %rdi
	movq	-24(%rbp), %rsi
	callq	*%rax
	movq	-16(%rbp), %rax
	cmpl	$0, (%rax)
	je	.LBB58_2
# %bb.1:                                # %if.then
	movq	-40(%rbp), %rax
	movq	(%rax), %rax
	movl	$1, 40(%rax)
.LBB58_2:                               # %if.end
	movq	-24(%rbp), %rdi
	callq	arienco_bits_written
	movl	%eax, %ebx
	subl	-28(%rbp), %ebx
	movq	-16(%rbp), %rax
	movl	%ebx, 12(%rax)
	cmpl	$462400723, -32(%rbp)   # imm = 0x1B8FACD3
	jne	.LBB58_4
.LBB58_3:
	movl	%ebx, %eax
	addq	$40, %rsp
	popq	%rbx
	popq	%rbp
	.cfi_def_cfa %rsp, 8
	retq
.LBB58_4:                               # %func_exit
	.cfi_def_cfa %rbp, 16
	callq	detect_breach
	jmp	.LBB58_3
.Lfunc_end58:
	.size	writeSyntaxElement_CABAC.31, .Lfunc_end58-writeSyntaxElement_CABAC.31
	.cfi_endproc
                                        # -- End function
	.globl	writeB8_typeInfo_CABAC.32 # -- Begin function writeB8_typeInfo_CABAC.32
	.p2align	4, 0x90
	.type	writeB8_typeInfo_CABAC.32,@function
writeB8_typeInfo_CABAC.32:              # @writeB8_typeInfo_CABAC.32
	.cfi_startproc
# %bb.0:                                # %entry
	pushq	%rbp
	.cfi_def_cfa_offset 16
	.cfi_offset %rbp, -16
	movq	%rsp, %rbp
	.cfi_def_cfa_register %rbp
	subq	$48, %rsp
	movl	$572178308, -32(%rbp)   # imm = 0x221ABF84
	movq	%rdi, -40(%rbp)
	movq	%rsi, -8(%rbp)
	movq	img, %rax
	cmpl	$1, 24(%rax)
	sete	%al
	andb	$1, %al
	movzbl	%al, %eax
	movl	%eax, -28(%rbp)
	movq	img, %rax
	movq	14160(%rax), %rax
	movq	32(%rax), %rax
	movq	%rax, -16(%rbp)
	movq	-40(%rbp), %rax
	movl	4(%rax), %eax
	movl	%eax, -20(%rbp)
	movl	$0, -44(%rbp)
	cmpl	$0, -28(%rbp)
	jne	.LBB59_8
# %bb.1:                                # %if.then
	movl	-20(%rbp), %eax
	movq	%rax, %rcx
	subq	$3, %rcx
	ja	.LBB59_7
# %bb.2:                                # %if.then
	movq	.LJTI59_0(,%rax,8), %rax
	jmpq	*%rax
.LBB59_3:                               # %sw.bb
	movq	-8(%rbp), %rdi
	movq	-16(%rbp), %rdx
	addq	$528, %rdx              # imm = 0x210
	addq	$16, %rdx
	movl	$1, %esi
	callq	biari_encode_symbol
	jmp	.LBB59_7
.LBB59_4:                               # %sw.bb2
	movq	-8(%rbp), %rdi
	movq	-16(%rbp), %rdx
	addq	$528, %rdx              # imm = 0x210
	addq	$16, %rdx
	xorl	%esi, %esi
	callq	biari_encode_symbol
	movq	-8(%rbp), %rdi
	movq	-16(%rbp), %rdx
	addq	$528, %rdx              # imm = 0x210
	addq	$48, %rdx
	xorl	%esi, %esi
	callq	biari_encode_symbol
	jmp	.LBB59_7
.LBB59_5:                               # %sw.bb9
	movq	-8(%rbp), %rdi
	movq	-16(%rbp), %rdx
	addq	$528, %rdx              # imm = 0x210
	addq	$16, %rdx
	xorl	%esi, %esi
	callq	biari_encode_symbol
	movq	-8(%rbp), %rdi
	movq	-16(%rbp), %rdx
	addq	$528, %rdx              # imm = 0x210
	addq	$48, %rdx
	movl	$1, %esi
	callq	biari_encode_symbol
	movq	-8(%rbp), %rdi
	movq	-16(%rbp), %rdx
	addq	$528, %rdx              # imm = 0x210
	addq	$64, %rdx
	movl	$1, %esi
	callq	biari_encode_symbol
	jmp	.LBB59_7
.LBB59_6:                               # %sw.bb19
	movq	-8(%rbp), %rdi
	movq	-16(%rbp), %rdx
	addq	$528, %rdx              # imm = 0x210
	addq	$16, %rdx
	xorl	%esi, %esi
	callq	biari_encode_symbol
	movq	-8(%rbp), %rdi
	movq	-16(%rbp), %rdx
	addq	$528, %rdx              # imm = 0x210
	addq	$48, %rdx
	movl	$1, %esi
