	.text
	.file	"cabac.c"
	.globl	cabac_new_slice         # -- Begin function cabac_new_slice
	.p2align	4, 0x90
	.type	cabac_new_slice,@function
cabac_new_slice:                        # @cabac_new_slice
	.cfi_startproc
# %bb.0:                                # %entry
	pushq	%rbp
	.cfi_def_cfa_offset 16
	.cfi_offset %rbp, -16
	movq	%rsp, %rbp
	.cfi_def_cfa_register %rbp
	movl	$0, last_dquant
	popq	%rbp
	.cfi_def_cfa %rsp, 8
	retq
.Lfunc_end0:
	.size	cabac_new_slice, .Lfunc_end0-cabac_new_slice
	.cfi_endproc
                                        # -- End function
	.globl	CheckAvailabilityOfNeighborsCABAC # -- Begin function CheckAvailabilityOfNeighborsCABAC
	.p2align	4, 0x90
	.type	CheckAvailabilityOfNeighborsCABAC,@function
CheckAvailabilityOfNeighborsCABAC:      # @CheckAvailabilityOfNeighborsCABAC
	.cfi_startproc
# %bb.0:                                # %rand_bb
	pushq	%rbp
	.cfi_def_cfa_offset 16
	.cfi_offset %rbp, -16
	movq	%rsp, %rbp
	.cfi_def_cfa_register %rbp
	callq	get_urand
	cmpl	$0, %eax
	jne	.LBB1_7
# %bb.1:                                # %func_CheckAvailabilityOfNeighborsCABAC.45
	callq	CheckAvailabilityOfNeighborsCABAC.45
	popq	%rbp
	.cfi_def_cfa %rsp, 8
	retq
.LBB1_2:                                # %func_CheckAvailabilityOfNeighborsCABAC.65
	.cfi_def_cfa %rbp, 16
	callq	CheckAvailabilityOfNeighborsCABAC.65
	popq	%rbp
	.cfi_def_cfa %rsp, 8
	retq
.LBB1_3:                                # %func_CheckAvailabilityOfNeighborsCABAC.160
	.cfi_def_cfa %rbp, 16
	callq	CheckAvailabilityOfNeighborsCABAC.160
	popq	%rbp
	.cfi_def_cfa %rsp, 8
	retq
.LBB1_4:                                # %func_CheckAvailabilityOfNeighborsCABAC.162
	.cfi_def_cfa %rbp, 16
	callq	CheckAvailabilityOfNeighborsCABAC.162
	popq	%rbp
	.cfi_def_cfa %rsp, 8
	retq
.LBB1_5:                                # %func_CheckAvailabilityOfNeighborsCABAC.176
	.cfi_def_cfa %rbp, 16
	callq	CheckAvailabilityOfNeighborsCABAC.176
	popq	%rbp
	.cfi_def_cfa %rsp, 8
	retq
.LBB1_6:                                # %func_CheckAvailabilityOfNeighborsCABAC.178
	.cfi_def_cfa %rbp, 16
	callq	CheckAvailabilityOfNeighborsCABAC.178
	popq	%rbp
	.cfi_def_cfa %rsp, 8
	retq
.LBB1_7:                                # %ctrl0
	.cfi_def_cfa %rbp, 16
	cmpl	$1, %eax
	je	.LBB1_2
# %bb.8:                                # %ctrl1
	cmpl	$2, %eax
	je	.LBB1_3
# %bb.9:                                # %ctrl2
	cmpl	$3, %eax
	je	.LBB1_4
# %bb.10:                               # %ctrl3
	cmpl	$4, %eax
	je	.LBB1_5
	jmp	.LBB1_6
.Lfunc_end1:
	.size	CheckAvailabilityOfNeighborsCABAC, .Lfunc_end1-CheckAvailabilityOfNeighborsCABAC
	.cfi_endproc
                                        # -- End function
	.globl	create_contexts_MotionInfo # -- Begin function create_contexts_MotionInfo
	.p2align	4, 0x90
	.type	create_contexts_MotionInfo,@function
create_contexts_MotionInfo:             # @create_contexts_MotionInfo
	.cfi_startproc
# %bb.0:                                # %entry
	pushq	%rbp
	.cfi_def_cfa_offset 16
	.cfi_offset %rbp, -16
	movq	%rsp, %rbp
	.cfi_def_cfa_register %rbp
	subq	$16, %rsp
	movl	$1, %edi
	movl	$1504, %esi             # imm = 0x5E0
	callq	calloc
	movq	%rax, -8(%rbp)
	cmpq	$0, -8(%rbp)
	jne	.LBB2_2
# %bb.1:                                # %if.then
	movabsq	$.L.str, %rdi
	callq	no_mem_exit
.LBB2_2:                                # %if.end
	movq	-8(%rbp), %rax
	addq	$16, %rsp
	popq	%rbp
	.cfi_def_cfa %rsp, 8
	retq
.Lfunc_end2:
	.size	create_contexts_MotionInfo, .Lfunc_end2-create_contexts_MotionInfo
	.cfi_endproc
                                        # -- End function
	.globl	create_contexts_TextureInfo # -- Begin function create_contexts_TextureInfo
	.p2align	4, 0x90
	.type	create_contexts_TextureInfo,@function
create_contexts_TextureInfo:            # @create_contexts_TextureInfo
	.cfi_startproc
# %bb.0:                                # %entry
	pushq	%rbp
	.cfi_def_cfa_offset 16
	.cfi_offset %rbp, -16
	movq	%rsp, %rbp
	.cfi_def_cfa_register %rbp
	subq	$16, %rsp
	movl	$1, %edi
	movl	$12128, %esi            # imm = 0x2F60
	callq	calloc
	movq	%rax, -8(%rbp)
	cmpq	$0, -8(%rbp)
	jne	.LBB3_2
# %bb.1:                                # %if.then
	movabsq	$.L.str.1, %rdi
	callq	no_mem_exit
.LBB3_2:                                # %if.end
	movq	-8(%rbp), %rax
	addq	$16, %rsp
	popq	%rbp
	.cfi_def_cfa %rsp, 8
	retq
.Lfunc_end3:
	.size	create_contexts_TextureInfo, .Lfunc_end3-create_contexts_TextureInfo
	.cfi_endproc
                                        # -- End function
	.globl	delete_contexts_MotionInfo # -- Begin function delete_contexts_MotionInfo
	.p2align	4, 0x90
	.type	delete_contexts_MotionInfo,@function
delete_contexts_MotionInfo:             # @delete_contexts_MotionInfo
	.cfi_startproc
# %bb.0:                                # %entry
	pushq	%rbp
	.cfi_def_cfa_offset 16
	.cfi_offset %rbp, -16
	movq	%rsp, %rbp
	.cfi_def_cfa_register %rbp
	subq	$16, %rsp
	movq	%rdi, -8(%rbp)
	cmpq	$0, -8(%rbp)
	jne	.LBB4_2
# %bb.1:                                # %if.then
	jmp	.LBB4_3
.LBB4_2:                                # %if.end
	movq	-8(%rbp), %rdi
	callq	free
.LBB4_3:                                # %return
	addq	$16, %rsp
	popq	%rbp
	.cfi_def_cfa %rsp, 8
	retq
.Lfunc_end4:
	.size	delete_contexts_MotionInfo, .Lfunc_end4-delete_contexts_MotionInfo
	.cfi_endproc
                                        # -- End function
	.globl	delete_contexts_TextureInfo # -- Begin function delete_contexts_TextureInfo
	.p2align	4, 0x90
	.type	delete_contexts_TextureInfo,@function
delete_contexts_TextureInfo:            # @delete_contexts_TextureInfo
	.cfi_startproc
# %bb.0:                                # %entry
	pushq	%rbp
	.cfi_def_cfa_offset 16
	.cfi_offset %rbp, -16
	movq	%rsp, %rbp
	.cfi_def_cfa_register %rbp
	subq	$16, %rsp
	movq	%rdi, -8(%rbp)
	cmpq	$0, -8(%rbp)
	jne	.LBB5_2
# %bb.1:                                # %if.then
	jmp	.LBB5_3
.LBB5_2:                                # %if.end
	movq	-8(%rbp), %rdi
	callq	free
.LBB5_3:                                # %return
	addq	$16, %rsp
	popq	%rbp
	.cfi_def_cfa %rsp, 8
	retq
.Lfunc_end5:
	.size	delete_contexts_TextureInfo, .Lfunc_end5-delete_contexts_TextureInfo
	.cfi_endproc
                                        # -- End function
	.globl	writeSyntaxElement_CABAC # -- Begin function writeSyntaxElement_CABAC
	.p2align	4, 0x90
	.type	writeSyntaxElement_CABAC,@function
writeSyntaxElement_CABAC:               # @writeSyntaxElement_CABAC
	.cfi_startproc
# %bb.0:                                # %rand_bb
	pushq	%rbp
	.cfi_def_cfa_offset 16
	.cfi_offset %rbp, -16
	movq	%rsp, %rbp
	.cfi_def_cfa_register %rbp
	pushq	%r14
	pushq	%rbx
	.cfi_offset %rbx, -32
	.cfi_offset %r14, -24
	movq	%rsi, %r14
	movq	%rdi, %rbx
	callq	get_urand
	cmpl	$0, %eax
	jne	.LBB6_9
# %bb.1:                                # %func_writeSyntaxElement_CABAC.14
	movq	%rbx, %rdi
	movq	%r14, %rsi
	callq	writeSyntaxElement_CABAC.14
	popq	%rbx
	popq	%r14
	popq	%rbp
	.cfi_def_cfa %rsp, 8
	retq
.LBB6_2:                                # %func_writeSyntaxElement_CABAC.26
	.cfi_def_cfa %rbp, 16
	movq	%rbx, %rdi
	movq	%r14, %rsi
	callq	writeSyntaxElement_CABAC.26
	popq	%rbx
	popq	%r14
	popq	%rbp
	.cfi_def_cfa %rsp, 8
	retq
.LBB6_3:                                # %func_writeSyntaxElement_CABAC.37
	.cfi_def_cfa %rbp, 16
	movq	%rbx, %rdi
	movq	%r14, %rsi
	callq	writeSyntaxElement_CABAC.37
	popq	%rbx
	popq	%r14
	popq	%rbp
	.cfi_def_cfa %rsp, 8
	retq
.LBB6_4:                                # %func_writeSyntaxElement_CABAC.41
	.cfi_def_cfa %rbp, 16
	movq	%rbx, %rdi
	movq	%r14, %rsi
	callq	writeSyntaxElement_CABAC.41
	popq	%rbx
	popq	%r14
	popq	%rbp
	.cfi_def_cfa %rsp, 8
	retq
.LBB6_5:                                # %func_writeSyntaxElement_CABAC.49
	.cfi_def_cfa %rbp, 16
	movq	%rbx, %rdi
	movq	%r14, %rsi
	callq	writeSyntaxElement_CABAC.49
	popq	%rbx
	popq	%r14
	popq	%rbp
	.cfi_def_cfa %rsp, 8
	retq
.LBB6_6:                                # %func_writeSyntaxElement_CABAC.63
	.cfi_def_cfa %rbp, 16
	movq	%rbx, %rdi
	movq	%r14, %rsi
	callq	writeSyntaxElement_CABAC.63
	popq	%rbx
	popq	%r14
	popq	%rbp
	.cfi_def_cfa %rsp, 8
	retq
.LBB6_7:                                # %func_writeSyntaxElement_CABAC.81
	.cfi_def_cfa %rbp, 16
	movq	%rbx, %rdi
	movq	%r14, %rsi
	callq	writeSyntaxElement_CABAC.81
	popq	%rbx
	popq	%r14
	popq	%rbp
	.cfi_def_cfa %rsp, 8
	retq
.LBB6_8:                                # %func_writeSyntaxElement_CABAC.85
	.cfi_def_cfa %rbp, 16
	movq	%rbx, %rdi
	movq	%r14, %rsi
	callq	writeSyntaxElement_CABAC.85
	popq	%rbx
	popq	%r14
	popq	%rbp
	.cfi_def_cfa %rsp, 8
	retq
.LBB6_9:                                # %ctrl0
	.cfi_def_cfa %rbp, 16
	cmpl	$1, %eax
	je	.LBB6_2
# %bb.10:                               # %ctrl1
	cmpl	$2, %eax
	je	.LBB6_3
# %bb.11:                               # %ctrl2
	cmpl	$3, %eax
	je	.LBB6_4
# %bb.12:                               # %ctrl3
	cmpl	$4, %eax
	je	.LBB6_5
# %bb.13:                               # %ctrl4
	cmpl	$5, %eax
	je	.LBB6_6
# %bb.14:                               # %ctrl5
	cmpl	$6, %eax
	je	.LBB6_7
	jmp	.LBB6_8
.Lfunc_end6:
	.size	writeSyntaxElement_CABAC, .Lfunc_end6-writeSyntaxElement_CABAC
	.cfi_endproc
                                        # -- End function
	.globl	writeFieldModeInfo_CABAC # -- Begin function writeFieldModeInfo_CABAC
	.p2align	4, 0x90
	.type	writeFieldModeInfo_CABAC,@function
writeFieldModeInfo_CABAC:               # @writeFieldModeInfo_CABAC
	.cfi_startproc
# %bb.0:                                # %rand_bb
	pushq	%rbp
	.cfi_def_cfa_offset 16
	.cfi_offset %rbp, -16
	movq	%rsp, %rbp
	.cfi_def_cfa_register %rbp
	pushq	%r14
	pushq	%rbx
	.cfi_offset %rbx, -32
	.cfi_offset %r14, -24
	movq	%rsi, %r14
	movq	%rdi, %rbx
	callq	get_urand
	cmpl	$0, %eax
	jne	.LBB7_9
# %bb.1:                                # %func_writeFieldModeInfo_CABAC.18
	movq	%rbx, %rdi
	movq	%r14, %rsi
	callq	writeFieldModeInfo_CABAC.18
	popq	%rbx
	popq	%r14
	popq	%rbp
	.cfi_def_cfa %rsp, 8
	retq
.LBB7_2:                                # %func_writeFieldModeInfo_CABAC.60
	.cfi_def_cfa %rbp, 16
	movq	%rbx, %rdi
	movq	%r14, %rsi
	callq	writeFieldModeInfo_CABAC.60
	popq	%rbx
	popq	%r14
	popq	%rbp
	.cfi_def_cfa %rsp, 8
	retq
.LBB7_3:                                # %func_writeFieldModeInfo_CABAC.68
	.cfi_def_cfa %rbp, 16
	movq	%rbx, %rdi
	movq	%r14, %rsi
	callq	writeFieldModeInfo_CABAC.68
	popq	%rbx
	popq	%r14
	popq	%rbp
	.cfi_def_cfa %rsp, 8
	retq
.LBB7_4:                                # %func_writeFieldModeInfo_CABAC.93
	.cfi_def_cfa %rbp, 16
	movq	%rbx, %rdi
	movq	%r14, %rsi
	callq	writeFieldModeInfo_CABAC.93
	popq	%rbx
	popq	%r14
	popq	%rbp
	.cfi_def_cfa %rsp, 8
	retq
.LBB7_5:                                # %func_writeFieldModeInfo_CABAC.140
	.cfi_def_cfa %rbp, 16
	movq	%rbx, %rdi
	movq	%r14, %rsi
	callq	writeFieldModeInfo_CABAC.140
	popq	%rbx
	popq	%r14
	popq	%rbp
	.cfi_def_cfa %rsp, 8
	retq
.LBB7_6:                                # %func_writeFieldModeInfo_CABAC.152
	.cfi_def_cfa %rbp, 16
	movq	%rbx, %rdi
	movq	%r14, %rsi
	callq	writeFieldModeInfo_CABAC.152
	popq	%rbx
	popq	%r14
	popq	%rbp
	.cfi_def_cfa %rsp, 8
	retq
.LBB7_7:                                # %func_writeFieldModeInfo_CABAC.156
	.cfi_def_cfa %rbp, 16
	movq	%rbx, %rdi
	movq	%r14, %rsi
	callq	writeFieldModeInfo_CABAC.156
	popq	%rbx
	popq	%r14
	popq	%rbp
	.cfi_def_cfa %rsp, 8
	retq
.LBB7_8:                                # %func_writeFieldModeInfo_CABAC.164
	.cfi_def_cfa %rbp, 16
	movq	%rbx, %rdi
	movq	%r14, %rsi
	callq	writeFieldModeInfo_CABAC.164
	popq	%rbx
	popq	%r14
	popq	%rbp
	.cfi_def_cfa %rsp, 8
	retq
.LBB7_9:                                # %ctrl0
	.cfi_def_cfa %rbp, 16
	cmpl	$1, %eax
	je	.LBB7_2
# %bb.10:                               # %ctrl1
	cmpl	$2, %eax
	je	.LBB7_3
# %bb.11:                               # %ctrl2
	cmpl	$3, %eax
	je	.LBB7_4
# %bb.12:                               # %ctrl3
	cmpl	$4, %eax
	je	.LBB7_5
# %bb.13:                               # %ctrl4
	cmpl	$5, %eax
	je	.LBB7_6
# %bb.14:                               # %ctrl5
	cmpl	$6, %eax
	je	.LBB7_7
	jmp	.LBB7_8
.Lfunc_end7:
	.size	writeFieldModeInfo_CABAC, .Lfunc_end7-writeFieldModeInfo_CABAC
	.cfi_endproc
                                        # -- End function
	.globl	writeMB_skip_flagInfo_CABAC # -- Begin function writeMB_skip_flagInfo_CABAC
	.p2align	4, 0x90
	.type	writeMB_skip_flagInfo_CABAC,@function
writeMB_skip_flagInfo_CABAC:            # @writeMB_skip_flagInfo_CABAC
	.cfi_startproc
# %bb.0:                                # %rand_bb
	pushq	%rbp
	.cfi_def_cfa_offset 16
	.cfi_offset %rbp, -16
	movq	%rsp, %rbp
	.cfi_def_cfa_register %rbp
	pushq	%r14
	pushq	%rbx
	.cfi_offset %rbx, -32
	.cfi_offset %r14, -24
	movq	%rsi, %r14
	movq	%rdi, %rbx
	callq	get_urand
	cmpl	$0, %eax
	jne	.LBB8_9
# %bb.1:                                # %func_writeMB_skip_flagInfo_CABAC.55
	movq	%rbx, %rdi
	movq	%r14, %rsi
	callq	writeMB_skip_flagInfo_CABAC.55
	popq	%rbx
	popq	%r14
	popq	%rbp
	.cfi_def_cfa %rsp, 8
	retq
.LBB8_2:                                # %func_writeMB_skip_flagInfo_CABAC.71
	.cfi_def_cfa %rbp, 16
	movq	%rbx, %rdi
	movq	%r14, %rsi
	callq	writeMB_skip_flagInfo_CABAC.71
	popq	%rbx
	popq	%r14
	popq	%rbp
	.cfi_def_cfa %rsp, 8
	retq
.LBB8_3:                                # %func_writeMB_skip_flagInfo_CABAC.109
	.cfi_def_cfa %rbp, 16
	movq	%rbx, %rdi
	movq	%r14, %rsi
	callq	writeMB_skip_flagInfo_CABAC.109
	popq	%rbx
	popq	%r14
	popq	%rbp
	.cfi_def_cfa %rsp, 8
	retq
.LBB8_4:                                # %func_writeMB_skip_flagInfo_CABAC.117
	.cfi_def_cfa %rbp, 16
	movq	%rbx, %rdi
	movq	%r14, %rsi
	callq	writeMB_skip_flagInfo_CABAC.117
	popq	%rbx
	popq	%r14
	popq	%rbp
	.cfi_def_cfa %rsp, 8
	retq
.LBB8_5:                                # %func_writeMB_skip_flagInfo_CABAC.127
	.cfi_def_cfa %rbp, 16
	movq	%rbx, %rdi
	movq	%r14, %rsi
	callq	writeMB_skip_flagInfo_CABAC.127
	popq	%rbx
	popq	%r14
	popq	%rbp
	.cfi_def_cfa %rsp, 8
	retq
.LBB8_6:                                # %func_writeMB_skip_flagInfo_CABAC.151
	.cfi_def_cfa %rbp, 16
	movq	%rbx, %rdi
	movq	%r14, %rsi
	callq	writeMB_skip_flagInfo_CABAC.151
	popq	%rbx
	popq	%r14
	popq	%rbp
	.cfi_def_cfa %rsp, 8
	retq
.LBB8_7:                                # %func_writeMB_skip_flagInfo_CABAC.155
	.cfi_def_cfa %rbp, 16
	movq	%rbx, %rdi
	movq	%r14, %rsi
	callq	writeMB_skip_flagInfo_CABAC.155
	popq	%rbx
	popq	%r14
	popq	%rbp
	.cfi_def_cfa %rsp, 8
	retq
.LBB8_8:                                # %func_writeMB_skip_flagInfo_CABAC.165
	.cfi_def_cfa %rbp, 16
	movq	%rbx, %rdi
	movq	%r14, %rsi
	callq	writeMB_skip_flagInfo_CABAC.165
	popq	%rbx
	popq	%r14
	popq	%rbp
	.cfi_def_cfa %rsp, 8
	retq
.LBB8_9:                                # %ctrl0
	.cfi_def_cfa %rbp, 16
	cmpl	$1, %eax
	je	.LBB8_2
# %bb.10:                               # %ctrl1
	cmpl	$2, %eax
	je	.LBB8_3
# %bb.11:                               # %ctrl2
	cmpl	$3, %eax
	je	.LBB8_4
# %bb.12:                               # %ctrl3
	cmpl	$4, %eax
	je	.LBB8_5
# %bb.13:                               # %ctrl4
	cmpl	$5, %eax
	je	.LBB8_6
# %bb.14:                               # %ctrl5
	cmpl	$6, %eax
	je	.LBB8_7
	jmp	.LBB8_8
.Lfunc_end8:
	.size	writeMB_skip_flagInfo_CABAC, .Lfunc_end8-writeMB_skip_flagInfo_CABAC
	.cfi_endproc
                                        # -- End function
	.globl	writeMB_transform_size_CABAC # -- Begin function writeMB_transform_size_CABAC
	.p2align	4, 0x90
	.type	writeMB_transform_size_CABAC,@function
writeMB_transform_size_CABAC:           # @writeMB_transform_size_CABAC
	.cfi_startproc
# %bb.0:                                # %rand_bb
	pushq	%rbp
	.cfi_def_cfa_offset 16
	.cfi_offset %rbp, -16
	movq	%rsp, %rbp
	.cfi_def_cfa_register %rbp
	pushq	%r14
	pushq	%rbx
	.cfi_offset %rbx, -32
	.cfi_offset %r14, -24
	movq	%rsi, %r14
	movq	%rdi, %rbx
	callq	get_urand
	cmpl	$0, %eax
	jne	.LBB9_9
# %bb.1:                                # %func_writeMB_transform_size_CABAC.5
	movq	%rbx, %rdi
	movq	%r14, %rsi
	callq	writeMB_transform_size_CABAC.5
	popq	%rbx
	popq	%r14
	popq	%rbp
	.cfi_def_cfa %rsp, 8
	retq
.LBB9_2:                                # %func_writeMB_transform_size_CABAC.23
	.cfi_def_cfa %rbp, 16
	movq	%rbx, %rdi
	movq	%r14, %rsi
	callq	writeMB_transform_size_CABAC.23
	popq	%rbx
	popq	%r14
	popq	%rbp
	.cfi_def_cfa %rsp, 8
	retq
.LBB9_3:                                # %func_writeMB_transform_size_CABAC.36
	.cfi_def_cfa %rbp, 16
	movq	%rbx, %rdi
	movq	%r14, %rsi
	callq	writeMB_transform_size_CABAC.36
	popq	%rbx
	popq	%r14
	popq	%rbp
	.cfi_def_cfa %rsp, 8
	retq
.LBB9_4:                                # %func_writeMB_transform_size_CABAC.44
	.cfi_def_cfa %rbp, 16
	movq	%rbx, %rdi
	movq	%r14, %rsi
	callq	writeMB_transform_size_CABAC.44
	popq	%rbx
	popq	%r14
	popq	%rbp
	.cfi_def_cfa %rsp, 8
	retq
.LBB9_5:                                # %func_writeMB_transform_size_CABAC.88
	.cfi_def_cfa %rbp, 16
	movq	%rbx, %rdi
	movq	%r14, %rsi
	callq	writeMB_transform_size_CABAC.88
	popq	%rbx
	popq	%r14
	popq	%rbp
	.cfi_def_cfa %rsp, 8
	retq
.LBB9_6:                                # %func_writeMB_transform_size_CABAC.90
	.cfi_def_cfa %rbp, 16
	movq	%rbx, %rdi
	movq	%r14, %rsi
	callq	writeMB_transform_size_CABAC.90
	popq	%rbx
	popq	%r14
	popq	%rbp
	.cfi_def_cfa %rsp, 8
	retq
.LBB9_7:                                # %func_writeMB_transform_size_CABAC.95
	.cfi_def_cfa %rbp, 16
	movq	%rbx, %rdi
	movq	%r14, %rsi
	callq	writeMB_transform_size_CABAC.95
	popq	%rbx
	popq	%r14
	popq	%rbp
	.cfi_def_cfa %rsp, 8
	retq
.LBB9_8:                                # %func_writeMB_transform_size_CABAC.123
	.cfi_def_cfa %rbp, 16
	movq	%rbx, %rdi
	movq	%r14, %rsi
	callq	writeMB_transform_size_CABAC.123
	popq	%rbx
	popq	%r14
	popq	%rbp
	.cfi_def_cfa %rsp, 8
	retq
.LBB9_9:                                # %ctrl0
	.cfi_def_cfa %rbp, 16
	cmpl	$1, %eax
	je	.LBB9_2
# %bb.10:                               # %ctrl1
	cmpl	$2, %eax
	je	.LBB9_3
# %bb.11:                               # %ctrl2
	cmpl	$3, %eax
	je	.LBB9_4
# %bb.12:                               # %ctrl3
	cmpl	$4, %eax
	je	.LBB9_5
# %bb.13:                               # %ctrl4
	cmpl	$5, %eax
	je	.LBB9_6
# %bb.14:                               # %ctrl5
	cmpl	$6, %eax
	je	.LBB9_7
	jmp	.LBB9_8
.Lfunc_end9:
	.size	writeMB_transform_size_CABAC, .Lfunc_end9-writeMB_transform_size_CABAC
	.cfi_endproc
                                        # -- End function
	.globl	writeMB_typeInfo_CABAC  # -- Begin function writeMB_typeInfo_CABAC
	.p2align	4, 0x90
	.type	writeMB_typeInfo_CABAC,@function
writeMB_typeInfo_CABAC:                 # @writeMB_typeInfo_CABAC
	.cfi_startproc
# %bb.0:                                # %rand_bb
	pushq	%rbp
	.cfi_def_cfa_offset 16
	.cfi_offset %rbp, -16
	movq	%rsp, %rbp
	.cfi_def_cfa_register %rbp
	pushq	%r14
	pushq	%rbx
	.cfi_offset %rbx, -32
	.cfi_offset %r14, -24
	movq	%rsi, %r14
	movq	%rdi, %rbx
	callq	get_urand
	cmpl	$0, %eax
	jne	.LBB10_9
# %bb.1:                                # %func_writeMB_typeInfo_CABAC.1
	movq	%rbx, %rdi
	movq	%r14, %rsi
	callq	writeMB_typeInfo_CABAC.1
	popq	%rbx
	popq	%r14
	popq	%rbp
	.cfi_def_cfa %rsp, 8
	retq
.LBB10_2:                               # %func_writeMB_typeInfo_CABAC.39
	.cfi_def_cfa %rbp, 16
	movq	%rbx, %rdi
	movq	%r14, %rsi
	callq	writeMB_typeInfo_CABAC.39
	popq	%rbx
	popq	%r14
	popq	%rbp
	.cfi_def_cfa %rsp, 8
	retq
.LBB10_3:                               # %func_writeMB_typeInfo_CABAC.121
	.cfi_def_cfa %rbp, 16
	movq	%rbx, %rdi
	movq	%r14, %rsi
	callq	writeMB_typeInfo_CABAC.121
	popq	%rbx
	popq	%r14
	popq	%rbp
	.cfi_def_cfa %rsp, 8
	retq
.LBB10_4:                               # %func_writeMB_typeInfo_CABAC.128
	.cfi_def_cfa %rbp, 16
	movq	%rbx, %rdi
	movq	%r14, %rsi
	callq	writeMB_typeInfo_CABAC.128
	popq	%rbx
	popq	%r14
	popq	%rbp
	.cfi_def_cfa %rsp, 8
	retq
.LBB10_5:                               # %func_writeMB_typeInfo_CABAC.133
	.cfi_def_cfa %rbp, 16
	movq	%rbx, %rdi
	movq	%r14, %rsi
	callq	writeMB_typeInfo_CABAC.133
	popq	%rbx
	popq	%r14
	popq	%rbp
	.cfi_def_cfa %rsp, 8
	retq
.LBB10_6:                               # %func_writeMB_typeInfo_CABAC.135
	.cfi_def_cfa %rbp, 16
	movq	%rbx, %rdi
	movq	%r14, %rsi
	callq	writeMB_typeInfo_CABAC.135
	popq	%rbx
	popq	%r14
	popq	%rbp
	.cfi_def_cfa %rsp, 8
	retq
.LBB10_7:                               # %func_writeMB_typeInfo_CABAC.138
	.cfi_def_cfa %rbp, 16
	movq	%rbx, %rdi
	movq	%r14, %rsi
	callq	writeMB_typeInfo_CABAC.138
	popq	%rbx
	popq	%r14
	popq	%rbp
	.cfi_def_cfa %rsp, 8
	retq
.LBB10_8:                               # %func_writeMB_typeInfo_CABAC.139
	.cfi_def_cfa %rbp, 16
	movq	%rbx, %rdi
	movq	%r14, %rsi
	callq	writeMB_typeInfo_CABAC.139
	popq	%rbx
	popq	%r14
	popq	%rbp
	.cfi_def_cfa %rsp, 8
	retq
.LBB10_9:                               # %ctrl0
	.cfi_def_cfa %rbp, 16
	cmpl	$1, %eax
	je	.LBB10_2
# %bb.10:                               # %ctrl1
	cmpl	$2, %eax
	je	.LBB10_3
# %bb.11:                               # %ctrl2
	cmpl	$3, %eax
	je	.LBB10_4
# %bb.12:                               # %ctrl3
	cmpl	$4, %eax
	je	.LBB10_5
# %bb.13:                               # %ctrl4
	cmpl	$5, %eax
	je	.LBB10_6
# %bb.14:                               # %ctrl5
	cmpl	$6, %eax
	je	.LBB10_7
	jmp	.LBB10_8
.Lfunc_end10:
	.size	writeMB_typeInfo_CABAC, .Lfunc_end10-writeMB_typeInfo_CABAC
	.cfi_endproc
                                        # -- End function
	.globl	writeB8_typeInfo_CABAC  # -- Begin function writeB8_typeInfo_CABAC
	.p2align	4, 0x90
	.type	writeB8_typeInfo_CABAC,@function
writeB8_typeInfo_CABAC:                 # @writeB8_typeInfo_CABAC
	.cfi_startproc
# %bb.0:                                # %rand_bb
	pushq	%rbp
	.cfi_def_cfa_offset 16
	.cfi_offset %rbp, -16
	movq	%rsp, %rbp
	.cfi_def_cfa_register %rbp
	pushq	%r14
	pushq	%rbx
	.cfi_offset %rbx, -32
	.cfi_offset %r14, -24
	movq	%rsi, %r14
	movq	%rdi, %rbx
	callq	get_urand
	cmpl	$0, %eax
	jne	.LBB11_9
# %bb.1:                                # %func_writeB8_typeInfo_CABAC.9
	movq	%rbx, %rdi
	movq	%r14, %rsi
	callq	writeB8_typeInfo_CABAC.9
	popq	%rbx
	popq	%r14
	popq	%rbp
	.cfi_def_cfa %rsp, 8
	retq
.LBB11_2:                               # %func_writeB8_typeInfo_CABAC.27
	.cfi_def_cfa %rbp, 16
	movq	%rbx, %rdi
	movq	%r14, %rsi
	callq	writeB8_typeInfo_CABAC.27
	popq	%rbx
	popq	%r14
	popq	%rbp
	.cfi_def_cfa %rsp, 8
	retq
.LBB11_3:                               # %func_writeB8_typeInfo_CABAC.99
	.cfi_def_cfa %rbp, 16
	movq	%rbx, %rdi
	movq	%r14, %rsi
	callq	writeB8_typeInfo_CABAC.99
	popq	%rbx
	popq	%r14
	popq	%rbp
	.cfi_def_cfa %rsp, 8
	retq
.LBB11_4:                               # %func_writeB8_typeInfo_CABAC.114
	.cfi_def_cfa %rbp, 16
	movq	%rbx, %rdi
	movq	%r14, %rsi
	callq	writeB8_typeInfo_CABAC.114
	popq	%rbx
	popq	%r14
	popq	%rbp
	.cfi_def_cfa %rsp, 8
	retq
.LBB11_5:                               # %func_writeB8_typeInfo_CABAC.116
	.cfi_def_cfa %rbp, 16
	movq	%rbx, %rdi
	movq	%r14, %rsi
	callq	writeB8_typeInfo_CABAC.116
	popq	%rbx
	popq	%r14
	popq	%rbp
	.cfi_def_cfa %rsp, 8
	retq
.LBB11_6:                               # %func_writeB8_typeInfo_CABAC.122
	.cfi_def_cfa %rbp, 16
	movq	%rbx, %rdi
	movq	%r14, %rsi
	callq	writeB8_typeInfo_CABAC.122
	popq	%rbx
	popq	%r14
	popq	%rbp
	.cfi_def_cfa %rsp, 8
	retq
.LBB11_7:                               # %func_writeB8_typeInfo_CABAC.129
	.cfi_def_cfa %rbp, 16
	movq	%rbx, %rdi
	movq	%r14, %rsi
	callq	writeB8_typeInfo_CABAC.129
	popq	%rbx
	popq	%r14
	popq	%rbp
	.cfi_def_cfa %rsp, 8
	retq
.LBB11_8:                               # %func_writeB8_typeInfo_CABAC.166
	.cfi_def_cfa %rbp, 16
	movq	%rbx, %rdi
	movq	%r14, %rsi
	callq	writeB8_typeInfo_CABAC.166
	popq	%rbx
	popq	%r14
	popq	%rbp
	.cfi_def_cfa %rsp, 8
	retq
.LBB11_9:                               # %ctrl0
	.cfi_def_cfa %rbp, 16
	cmpl	$1, %eax
	je	.LBB11_2
# %bb.10:                               # %ctrl1
	cmpl	$2, %eax
	je	.LBB11_3
# %bb.11:                               # %ctrl2
	cmpl	$3, %eax
	je	.LBB11_4
# %bb.12:                               # %ctrl3
	cmpl	$4, %eax
	je	.LBB11_5
# %bb.13:                               # %ctrl4
	cmpl	$5, %eax
	je	.LBB11_6
# %bb.14:                               # %ctrl5
	cmpl	$6, %eax
	je	.LBB11_7
	jmp	.LBB11_8
.Lfunc_end11:
	.size	writeB8_typeInfo_CABAC, .Lfunc_end11-writeB8_typeInfo_CABAC
	.cfi_endproc
                                        # -- End function
	.globl	writeIntraPredMode_CABAC # -- Begin function writeIntraPredMode_CABAC
	.p2align	4, 0x90
	.type	writeIntraPredMode_CABAC,@function
writeIntraPredMode_CABAC:               # @writeIntraPredMode_CABAC
	.cfi_startproc
# %bb.0:                                # %rand_bb
	pushq	%rbp
	.cfi_def_cfa_offset 16
	.cfi_offset %rbp, -16
	movq	%rsp, %rbp
	.cfi_def_cfa_register %rbp
	pushq	%r14
	pushq	%rbx
	.cfi_offset %rbx, -32
	.cfi_offset %r14, -24
	movq	%rsi, %r14
	movq	%rdi, %rbx
	callq	get_urand
	cmpl	$0, %eax
	jne	.LBB12_7
# %bb.1:                                # %func_writeIntraPredMode_CABAC.8
	movq	%rbx, %rdi
	movq	%r14, %rsi
	callq	writeIntraPredMode_CABAC.8
	popq	%rbx
	popq	%r14
	popq	%rbp
	.cfi_def_cfa %rsp, 8
	retq
.LBB12_2:                               # %func_writeIntraPredMode_CABAC.40
	.cfi_def_cfa %rbp, 16
	movq	%rbx, %rdi
	movq	%r14, %rsi
	callq	writeIntraPredMode_CABAC.40
	popq	%rbx
	popq	%r14
	popq	%rbp
	.cfi_def_cfa %rsp, 8
	retq
.LBB12_3:                               # %func_writeIntraPredMode_CABAC.54
	.cfi_def_cfa %rbp, 16
	movq	%rbx, %rdi
	movq	%r14, %rsi
	callq	writeIntraPredMode_CABAC.54
	popq	%rbx
	popq	%r14
	popq	%rbp
	.cfi_def_cfa %rsp, 8
	retq
.LBB12_4:                               # %func_writeIntraPredMode_CABAC.76
	.cfi_def_cfa %rbp, 16
	movq	%rbx, %rdi
	movq	%r14, %rsi
	callq	writeIntraPredMode_CABAC.76
	popq	%rbx
	popq	%r14
	popq	%rbp
	.cfi_def_cfa %rsp, 8
	retq
.LBB12_5:                               # %func_writeIntraPredMode_CABAC.87
	.cfi_def_cfa %rbp, 16
	movq	%rbx, %rdi
	movq	%r14, %rsi
	callq	writeIntraPredMode_CABAC.87
	popq	%rbx
	popq	%r14
	popq	%rbp
	.cfi_def_cfa %rsp, 8
	retq
.LBB12_6:                               # %func_writeIntraPredMode_CABAC.101
	.cfi_def_cfa %rbp, 16
	movq	%rbx, %rdi
	movq	%r14, %rsi
	callq	writeIntraPredMode_CABAC.101
	popq	%rbx
	popq	%r14
	popq	%rbp
	.cfi_def_cfa %rsp, 8
	retq
.LBB12_7:                               # %ctrl0
	.cfi_def_cfa %rbp, 16
	cmpl	$1, %eax
	je	.LBB12_2
# %bb.8:                                # %ctrl1
	cmpl	$2, %eax
	je	.LBB12_3
# %bb.9:                                # %ctrl2
	cmpl	$3, %eax
	je	.LBB12_4
# %bb.10:                               # %ctrl3
	cmpl	$4, %eax
	je	.LBB12_5
	jmp	.LBB12_6
.Lfunc_end12:
	.size	writeIntraPredMode_CABAC, .Lfunc_end12-writeIntraPredMode_CABAC
	.cfi_endproc
                                        # -- End function
	.globl	writeRefFrame_CABAC     # -- Begin function writeRefFrame_CABAC
	.p2align	4, 0x90
	.type	writeRefFrame_CABAC,@function
writeRefFrame_CABAC:                    # @writeRefFrame_CABAC
	.cfi_startproc
# %bb.0:                                # %rand_bb
	pushq	%rbp
	.cfi_def_cfa_offset 16
	.cfi_offset %rbp, -16
	movq	%rsp, %rbp
	.cfi_def_cfa_register %rbp
	pushq	%r14
	pushq	%rbx
	.cfi_offset %rbx, -32
	.cfi_offset %r14, -24
	movq	%rsi, %r14
	movq	%rdi, %rbx
	callq	get_urand
	cmpl	$0, %eax
	jne	.LBB13_9
# %bb.1:                                # %func_writeRefFrame_CABAC.7
	movq	%rbx, %rdi
	movq	%r14, %rsi
	callq	writeRefFrame_CABAC.7
	popq	%rbx
	popq	%r14
	popq	%rbp
	.cfi_def_cfa %rsp, 8
	retq
.LBB13_2:                               # %func_writeRefFrame_CABAC.13
	.cfi_def_cfa %rbp, 16
	movq	%rbx, %rdi
	movq	%r14, %rsi
	callq	writeRefFrame_CABAC.13
	popq	%rbx
	popq	%r14
	popq	%rbp
	.cfi_def_cfa %rsp, 8
	retq
.LBB13_3:                               # %func_writeRefFrame_CABAC.15
	.cfi_def_cfa %rbp, 16
	movq	%rbx, %rdi
	movq	%r14, %rsi
	callq	writeRefFrame_CABAC.15
	popq	%rbx
	popq	%r14
	popq	%rbp
	.cfi_def_cfa %rsp, 8
	retq
.LBB13_4:                               # %func_writeRefFrame_CABAC.25
	.cfi_def_cfa %rbp, 16
	movq	%rbx, %rdi
	movq	%r14, %rsi
	callq	writeRefFrame_CABAC.25
	popq	%rbx
	popq	%r14
	popq	%rbp
	.cfi_def_cfa %rsp, 8
	retq
.LBB13_5:                               # %func_writeRefFrame_CABAC.34
	.cfi_def_cfa %rbp, 16
	movq	%rbx, %rdi
	movq	%r14, %rsi
	callq	writeRefFrame_CABAC.34
	popq	%rbx
	popq	%r14
	popq	%rbp
	.cfi_def_cfa %rsp, 8
	retq
.LBB13_6:                               # %func_writeRefFrame_CABAC.57
	.cfi_def_cfa %rbp, 16
	movq	%rbx, %rdi
	movq	%r14, %rsi
	callq	writeRefFrame_CABAC.57
	popq	%rbx
	popq	%r14
	popq	%rbp
	.cfi_def_cfa %rsp, 8
	retq
.LBB13_7:                               # %func_writeRefFrame_CABAC.78
	.cfi_def_cfa %rbp, 16
	movq	%rbx, %rdi
	movq	%r14, %rsi
	callq	writeRefFrame_CABAC.78
	popq	%rbx
	popq	%r14
	popq	%rbp
	.cfi_def_cfa %rsp, 8
	retq
.LBB13_8:                               # %func_writeRefFrame_CABAC.143
	.cfi_def_cfa %rbp, 16
	movq	%rbx, %rdi
	movq	%r14, %rsi
	callq	writeRefFrame_CABAC.143
	popq	%rbx
	popq	%r14
	popq	%rbp
	.cfi_def_cfa %rsp, 8
	retq
.LBB13_9:                               # %ctrl0
	.cfi_def_cfa %rbp, 16
	cmpl	$1, %eax
	je	.LBB13_2
# %bb.10:                               # %ctrl1
	cmpl	$2, %eax
	je	.LBB13_3
# %bb.11:                               # %ctrl2
	cmpl	$3, %eax
	je	.LBB13_4
# %bb.12:                               # %ctrl3
	cmpl	$4, %eax
	je	.LBB13_5
# %bb.13:                               # %ctrl4
	cmpl	$5, %eax
	je	.LBB13_6
# %bb.14:                               # %ctrl5
	cmpl	$6, %eax
	je	.LBB13_7
	jmp	.LBB13_8
.Lfunc_end13:
	.size	writeRefFrame_CABAC, .Lfunc_end13-writeRefFrame_CABAC
	.cfi_endproc
                                        # -- End function
	.globl	unary_bin_encode        # -- Begin function unary_bin_encode
	.p2align	4, 0x90
	.type	unary_bin_encode,@function
unary_bin_encode:                       # @unary_bin_encode
	.cfi_startproc
# %bb.0:                                # %rand_bb
	pushq	%rbp
	.cfi_def_cfa_offset 16
	.cfi_offset %rbp, -16
	movq	%rsp, %rbp
	.cfi_def_cfa_register %rbp
	pushq	%r15
	pushq	%r14
	pushq	%r12
	pushq	%rbx
	.cfi_offset %rbx, -48
	.cfi_offset %r12, -40
	.cfi_offset %r14, -32
	.cfi_offset %r15, -24
	movl	%ecx, %r14d
	movq	%rdx, %r15
	movl	%esi, %r12d
	movq	%rdi, %rbx
	callq	get_urand
	cmpl	$0, %eax
	jne	.LBB14_9
# %bb.1:                                # %func_unary_bin_encode.35
	movq	%rbx, %rdi
	movl	%r12d, %esi
	movq	%r15, %rdx
	movl	%r14d, %ecx
	callq	unary_bin_encode.35
	popq	%rbx
	popq	%r12
	popq	%r14
	popq	%r15
	popq	%rbp
	.cfi_def_cfa %rsp, 8
	retq
.LBB14_2:                               # %func_unary_bin_encode.51
	.cfi_def_cfa %rbp, 16
	movq	%rbx, %rdi
	movl	%r12d, %esi
	movq	%r15, %rdx
	movl	%r14d, %ecx
	callq	unary_bin_encode.51
	popq	%rbx
	popq	%r12
	popq	%r14
	popq	%r15
	popq	%rbp
	.cfi_def_cfa %rsp, 8
	retq
.LBB14_3:                               # %func_unary_bin_encode.58
	.cfi_def_cfa %rbp, 16
	movq	%rbx, %rdi
	movl	%r12d, %esi
	movq	%r15, %rdx
	movl	%r14d, %ecx
	callq	unary_bin_encode.58
	popq	%rbx
	popq	%r12
	popq	%r14
	popq	%r15
	popq	%rbp
	.cfi_def_cfa %rsp, 8
	retq
.LBB14_4:                               # %func_unary_bin_encode.59
	.cfi_def_cfa %rbp, 16
	movq	%rbx, %rdi
	movl	%r12d, %esi
	movq	%r15, %rdx
	movl	%r14d, %ecx
	callq	unary_bin_encode.59
	popq	%rbx
	popq	%r12
	popq	%r14
	popq	%r15
	popq	%rbp
	.cfi_def_cfa %rsp, 8
	retq
.LBB14_5:                               # %func_unary_bin_encode.102
	.cfi_def_cfa %rbp, 16
	movq	%rbx, %rdi
	movl	%r12d, %esi
	movq	%r15, %rdx
	movl	%r14d, %ecx
	callq	unary_bin_encode.102
	popq	%rbx
	popq	%r12
	popq	%r14
	popq	%r15
	popq	%rbp
	.cfi_def_cfa %rsp, 8
	retq
.LBB14_6:                               # %func_unary_bin_encode.134
	.cfi_def_cfa %rbp, 16
	movq	%rbx, %rdi
	movl	%r12d, %esi
	movq	%r15, %rdx
	movl	%r14d, %ecx
	callq	unary_bin_encode.134
	popq	%rbx
	popq	%r12
	popq	%r14
	popq	%r15
	popq	%rbp
	.cfi_def_cfa %rsp, 8
	retq
.LBB14_7:                               # %func_unary_bin_encode.144
	.cfi_def_cfa %rbp, 16
	movq	%rbx, %rdi
	movl	%r12d, %esi
	movq	%r15, %rdx
	movl	%r14d, %ecx
	callq	unary_bin_encode.144
	popq	%rbx
	popq	%r12
	popq	%r14
	popq	%r15
	popq	%rbp
	.cfi_def_cfa %rsp, 8
	retq
.LBB14_8:                               # %func_unary_bin_encode.154
	.cfi_def_cfa %rbp, 16
	movq	%rbx, %rdi
	movl	%r12d, %esi
	movq	%r15, %rdx
	movl	%r14d, %ecx
	callq	unary_bin_encode.154
	popq	%rbx
	popq	%r12
	popq	%r14
	popq	%r15
	popq	%rbp
	.cfi_def_cfa %rsp, 8
	retq
.LBB14_9:                               # %ctrl0
	.cfi_def_cfa %rbp, 16
	cmpl	$1, %eax
	je	.LBB14_2
# %bb.10:                               # %ctrl1
	cmpl	$2, %eax
	je	.LBB14_3
# %bb.11:                               # %ctrl2
	cmpl	$3, %eax
	je	.LBB14_4
# %bb.12:                               # %ctrl3
	cmpl	$4, %eax
	je	.LBB14_5
# %bb.13:                               # %ctrl4
	cmpl	$5, %eax
	je	.LBB14_6
# %bb.14:                               # %ctrl5
	cmpl	$6, %eax
	je	.LBB14_7
	jmp	.LBB14_8
.Lfunc_end14:
	.size	unary_bin_encode, .Lfunc_end14-unary_bin_encode
	.cfi_endproc
                                        # -- End function
	.globl	writeDquant_CABAC       # -- Begin function writeDquant_CABAC
	.p2align	4, 0x90
	.type	writeDquant_CABAC,@function
writeDquant_CABAC:                      # @writeDquant_CABAC
	.cfi_startproc
# %bb.0:                                # %rand_bb
	pushq	%rbp
	.cfi_def_cfa_offset 16
	.cfi_offset %rbp, -16
	movq	%rsp, %rbp
	.cfi_def_cfa_register %rbp
	pushq	%r14
	pushq	%rbx
	.cfi_offset %rbx, -32
	.cfi_offset %r14, -24
	movq	%rsi, %r14
	movq	%rdi, %rbx
	callq	get_urand
	cmpl	$0, %eax
	jne	.LBB15_9
# %bb.1:                                # %func_writeDquant_CABAC.64
	movq	%rbx, %rdi
	movq	%r14, %rsi
	callq	writeDquant_CABAC.64
	popq	%rbx
	popq	%r14
	popq	%rbp
	.cfi_def_cfa %rsp, 8
	retq
.LBB15_2:                               # %func_writeDquant_CABAC.80
	.cfi_def_cfa %rbp, 16
	movq	%rbx, %rdi
	movq	%r14, %rsi
	callq	writeDquant_CABAC.80
	popq	%rbx
	popq	%r14
	popq	%rbp
	.cfi_def_cfa %rsp, 8
	retq
.LBB15_3:                               # %func_writeDquant_CABAC.115
	.cfi_def_cfa %rbp, 16
	movq	%rbx, %rdi
	movq	%r14, %rsi
	callq	writeDquant_CABAC.115
	popq	%rbx
	popq	%r14
	popq	%rbp
	.cfi_def_cfa %rsp, 8
	retq
.LBB15_4:                               # %func_writeDquant_CABAC.130
	.cfi_def_cfa %rbp, 16
	movq	%rbx, %rdi
	movq	%r14, %rsi
	callq	writeDquant_CABAC.130
	popq	%rbx
	popq	%r14
	popq	%rbp
	.cfi_def_cfa %rsp, 8
	retq
.LBB15_5:                               # %func_writeDquant_CABAC.150
	.cfi_def_cfa %rbp, 16
	movq	%rbx, %rdi
	movq	%r14, %rsi
	callq	writeDquant_CABAC.150
	popq	%rbx
	popq	%r14
	popq	%rbp
	.cfi_def_cfa %rsp, 8
	retq
.LBB15_6:                               # %func_writeDquant_CABAC.159
	.cfi_def_cfa %rbp, 16
	movq	%rbx, %rdi
	movq	%r14, %rsi
	callq	writeDquant_CABAC.159
	popq	%rbx
	popq	%r14
	popq	%rbp
	.cfi_def_cfa %rsp, 8
	retq
.LBB15_7:                               # %func_writeDquant_CABAC.169
	.cfi_def_cfa %rbp, 16
	movq	%rbx, %rdi
	movq	%r14, %rsi
	callq	writeDquant_CABAC.169
	popq	%rbx
	popq	%r14
	popq	%rbp
	.cfi_def_cfa %rsp, 8
	retq
.LBB15_8:                               # %func_writeDquant_CABAC.175
	.cfi_def_cfa %rbp, 16
	movq	%rbx, %rdi
	movq	%r14, %rsi
	callq	writeDquant_CABAC.175
	popq	%rbx
	popq	%r14
	popq	%rbp
	.cfi_def_cfa %rsp, 8
	retq
.LBB15_9:                               # %ctrl0
	.cfi_def_cfa %rbp, 16
	cmpl	$1, %eax
	je	.LBB15_2
# %bb.10:                               # %ctrl1
	cmpl	$2, %eax
	je	.LBB15_3
# %bb.11:                               # %ctrl2
	cmpl	$3, %eax
	je	.LBB15_4
# %bb.12:                               # %ctrl3
	cmpl	$4, %eax
	je	.LBB15_5
# %bb.13:                               # %ctrl4
	cmpl	$5, %eax
	je	.LBB15_6
# %bb.14:                               # %ctrl5
	cmpl	$6, %eax
	je	.LBB15_7
	jmp	.LBB15_8
.Lfunc_end15:
	.size	writeDquant_CABAC, .Lfunc_end15-writeDquant_CABAC
	.cfi_endproc
                                        # -- End function
	.globl	writeMVD_CABAC          # -- Begin function writeMVD_CABAC
	.p2align	4, 0x90
	.type	writeMVD_CABAC,@function
writeMVD_CABAC:                         # @writeMVD_CABAC
	.cfi_startproc
# %bb.0:                                # %rand_bb
	pushq	%rbp
	.cfi_def_cfa_offset 16
	.cfi_offset %rbp, -16
	movq	%rsp, %rbp
	.cfi_def_cfa_register %rbp
	pushq	%r14
	pushq	%rbx
	.cfi_offset %rbx, -32
	.cfi_offset %r14, -24
	movq	%rsi, %r14
	movq	%rdi, %rbx
	callq	get_urand
	cmpl	$0, %eax
	jne	.LBB16_9
# %bb.1:                                # %func_writeMVD_CABAC.16
	movq	%rbx, %rdi
	movq	%r14, %rsi
	callq	writeMVD_CABAC.16
	popq	%rbx
	popq	%r14
	popq	%rbp
	.cfi_def_cfa %rsp, 8
	retq
.LBB16_2:                               # %func_writeMVD_CABAC.38
	.cfi_def_cfa %rbp, 16
	movq	%rbx, %rdi
	movq	%r14, %rsi
	callq	writeMVD_CABAC.38
	popq	%rbx
	popq	%r14
	popq	%rbp
	.cfi_def_cfa %rsp, 8
	retq
.LBB16_3:                               # %func_writeMVD_CABAC.48
	.cfi_def_cfa %rbp, 16
	movq	%rbx, %rdi
	movq	%r14, %rsi
	callq	writeMVD_CABAC.48
	popq	%rbx
	popq	%r14
	popq	%rbp
	.cfi_def_cfa %rsp, 8
	retq
.LBB16_4:                               # %func_writeMVD_CABAC.66
	.cfi_def_cfa %rbp, 16
	movq	%rbx, %rdi
	movq	%r14, %rsi
	callq	writeMVD_CABAC.66
	popq	%rbx
	popq	%r14
	popq	%rbp
	.cfi_def_cfa %rsp, 8
	retq
.LBB16_5:                               # %func_writeMVD_CABAC.86
	.cfi_def_cfa %rbp, 16
	movq	%rbx, %rdi
	movq	%r14, %rsi
	callq	writeMVD_CABAC.86
	popq	%rbx
	popq	%r14
	popq	%rbp
	.cfi_def_cfa %rsp, 8
	retq
.LBB16_6:                               # %func_writeMVD_CABAC.104
	.cfi_def_cfa %rbp, 16
	movq	%rbx, %rdi
	movq	%r14, %rsi
	callq	writeMVD_CABAC.104
	popq	%rbx
	popq	%r14
	popq	%rbp
	.cfi_def_cfa %rsp, 8
	retq
.LBB16_7:                               # %func_writeMVD_CABAC.110
	.cfi_def_cfa %rbp, 16
	movq	%rbx, %rdi
	movq	%r14, %rsi
	callq	writeMVD_CABAC.110
	popq	%rbx
	popq	%r14
	popq	%rbp
	.cfi_def_cfa %rsp, 8
	retq
.LBB16_8:                               # %func_writeMVD_CABAC.161
	.cfi_def_cfa %rbp, 16
	movq	%rbx, %rdi
	movq	%r14, %rsi
	callq	writeMVD_CABAC.161
	popq	%rbx
	popq	%r14
	popq	%rbp
	.cfi_def_cfa %rsp, 8
	retq
.LBB16_9:                               # %ctrl0
	.cfi_def_cfa %rbp, 16
	cmpl	$1, %eax
	je	.LBB16_2
# %bb.10:                               # %ctrl1
	cmpl	$2, %eax
	je	.LBB16_3
# %bb.11:                               # %ctrl2
	cmpl	$3, %eax
	je	.LBB16_4
# %bb.12:                               # %ctrl3
	cmpl	$4, %eax
	je	.LBB16_5
# %bb.13:                               # %ctrl4
	cmpl	$5, %eax
	je	.LBB16_6
# %bb.14:                               # %ctrl5
	cmpl	$6, %eax
	je	.LBB16_7
	jmp	.LBB16_8
.Lfunc_end16:
	.size	writeMVD_CABAC, .Lfunc_end16-writeMVD_CABAC
	.cfi_endproc
                                        # -- End function
	.globl	unary_exp_golomb_mv_encode # -- Begin function unary_exp_golomb_mv_encode
	.p2align	4, 0x90
	.type	unary_exp_golomb_mv_encode,@function
unary_exp_golomb_mv_encode:             # @unary_exp_golomb_mv_encode
	.cfi_startproc
# %bb.0:                                # %rand_bb
	pushq	%rbp
	.cfi_def_cfa_offset 16
	.cfi_offset %rbp, -16
	movq	%rsp, %rbp
	.cfi_def_cfa_register %rbp
	pushq	%r15
	pushq	%r14
	pushq	%r12
	pushq	%rbx
	.cfi_offset %rbx, -48
	.cfi_offset %r12, -40
	.cfi_offset %r14, -32
	.cfi_offset %r15, -24
	movl	%ecx, %r14d
	movq	%rdx, %r15
	movl	%esi, %r12d
	movq	%rdi, %rbx
	callq	get_urand
	cmpl	$0, %eax
	jne	.LBB17_9
# %bb.1:                                # %func_unary_exp_golomb_mv_encode.12
	movq	%rbx, %rdi
	movl	%r12d, %esi
	movq	%r15, %rdx
	movl	%r14d, %ecx
	callq	unary_exp_golomb_mv_encode.12
	popq	%rbx
	popq	%r12
	popq	%r14
	popq	%r15
	popq	%rbp
	.cfi_def_cfa %rsp, 8
	retq
.LBB17_2:                               # %func_unary_exp_golomb_mv_encode.19
	.cfi_def_cfa %rbp, 16
	movq	%rbx, %rdi
	movl	%r12d, %esi
	movq	%r15, %rdx
	movl	%r14d, %ecx
	callq	unary_exp_golomb_mv_encode.19
	popq	%rbx
	popq	%r12
	popq	%r14
	popq	%r15
	popq	%rbp
	.cfi_def_cfa %rsp, 8
	retq
.LBB17_3:                               # %func_unary_exp_golomb_mv_encode.28
	.cfi_def_cfa %rbp, 16
	movq	%rbx, %rdi
	movl	%r12d, %esi
	movq	%r15, %rdx
	movl	%r14d, %ecx
	callq	unary_exp_golomb_mv_encode.28
	popq	%rbx
	popq	%r12
	popq	%r14
	popq	%r15
	popq	%rbp
	.cfi_def_cfa %rsp, 8
	retq
.LBB17_4:                               # %func_unary_exp_golomb_mv_encode.73
	.cfi_def_cfa %rbp, 16
	movq	%rbx, %rdi
	movl	%r12d, %esi
	movq	%r15, %rdx
	movl	%r14d, %ecx
	callq	unary_exp_golomb_mv_encode.73
	popq	%rbx
	popq	%r12
	popq	%r14
	popq	%r15
	popq	%rbp
	.cfi_def_cfa %rsp, 8
	retq
.LBB17_5:                               # %func_unary_exp_golomb_mv_encode.79
	.cfi_def_cfa %rbp, 16
	movq	%rbx, %rdi
	movl	%r12d, %esi
	movq	%r15, %rdx
	movl	%r14d, %ecx
	callq	unary_exp_golomb_mv_encode.79
	popq	%rbx
	popq	%r12
	popq	%r14
	popq	%r15
	popq	%rbp
	.cfi_def_cfa %rsp, 8
	retq
.LBB17_6:                               # %func_unary_exp_golomb_mv_encode.107
	.cfi_def_cfa %rbp, 16
	movq	%rbx, %rdi
	movl	%r12d, %esi
	movq	%r15, %rdx
	movl	%r14d, %ecx
	callq	unary_exp_golomb_mv_encode.107
	popq	%rbx
	popq	%r12
	popq	%r14
	popq	%r15
	popq	%rbp
	.cfi_def_cfa %rsp, 8
	retq
.LBB17_7:                               # %func_unary_exp_golomb_mv_encode.112
	.cfi_def_cfa %rbp, 16
	movq	%rbx, %rdi
	movl	%r12d, %esi
	movq	%r15, %rdx
	movl	%r14d, %ecx
	callq	unary_exp_golomb_mv_encode.112
	popq	%rbx
	popq	%r12
	popq	%r14
	popq	%r15
	popq	%rbp
	.cfi_def_cfa %rsp, 8
	retq
.LBB17_8:                               # %func_unary_exp_golomb_mv_encode.141
	.cfi_def_cfa %rbp, 16
	movq	%rbx, %rdi
	movl	%r12d, %esi
	movq	%r15, %rdx
	movl	%r14d, %ecx
	callq	unary_exp_golomb_mv_encode.141
	popq	%rbx
	popq	%r12
	popq	%r14
	popq	%r15
	popq	%rbp
	.cfi_def_cfa %rsp, 8
	retq
.LBB17_9:                               # %ctrl0
	.cfi_def_cfa %rbp, 16
	cmpl	$1, %eax
	je	.LBB17_2
# %bb.10:                               # %ctrl1
	cmpl	$2, %eax
	je	.LBB17_3
# %bb.11:                               # %ctrl2
	cmpl	$3, %eax
	je	.LBB17_4
# %bb.12:                               # %ctrl3
	cmpl	$4, %eax
	je	.LBB17_5
# %bb.13:                               # %ctrl4
	cmpl	$5, %eax
	je	.LBB17_6
# %bb.14:                               # %ctrl5
	cmpl	$6, %eax
	je	.LBB17_7
	jmp	.LBB17_8
.Lfunc_end17:
	.size	unary_exp_golomb_mv_encode, .Lfunc_end17-unary_exp_golomb_mv_encode
	.cfi_endproc
                                        # -- End function
	.globl	writeCIPredMode_CABAC   # -- Begin function writeCIPredMode_CABAC
	.p2align	4, 0x90
	.type	writeCIPredMode_CABAC,@function
writeCIPredMode_CABAC:                  # @writeCIPredMode_CABAC
	.cfi_startproc
# %bb.0:                                # %rand_bb
	pushq	%rbp
	.cfi_def_cfa_offset 16
	.cfi_offset %rbp, -16
	movq	%rsp, %rbp
	.cfi_def_cfa_register %rbp
	pushq	%r14
	pushq	%rbx
	.cfi_offset %rbx, -32
	.cfi_offset %r14, -24
	movq	%rsi, %r14
	movq	%rdi, %rbx
	callq	get_urand
	cmpl	$0, %eax
	jne	.LBB18_9
# %bb.1:                                # %func_writeCIPredMode_CABAC.3
	movq	%rbx, %rdi
	movq	%r14, %rsi
	callq	writeCIPredMode_CABAC.3
	popq	%rbx
	popq	%r14
	popq	%rbp
	.cfi_def_cfa %rsp, 8
	retq
.LBB18_2:                               # %func_writeCIPredMode_CABAC.10
	.cfi_def_cfa %rbp, 16
	movq	%rbx, %rdi
	movq	%r14, %rsi
	callq	writeCIPredMode_CABAC.10
	popq	%rbx
	popq	%r14
	popq	%rbp
	.cfi_def_cfa %rsp, 8
	retq
.LBB18_3:                               # %func_writeCIPredMode_CABAC.30
	.cfi_def_cfa %rbp, 16
	movq	%rbx, %rdi
	movq	%r14, %rsi
	callq	writeCIPredMode_CABAC.30
	popq	%rbx
	popq	%r14
	popq	%rbp
	.cfi_def_cfa %rsp, 8
	retq
.LBB18_4:                               # %func_writeCIPredMode_CABAC.43
	.cfi_def_cfa %rbp, 16
	movq	%rbx, %rdi
	movq	%r14, %rsi
	callq	writeCIPredMode_CABAC.43
	popq	%rbx
	popq	%r14
	popq	%rbp
	.cfi_def_cfa %rsp, 8
	retq
.LBB18_5:                               # %func_writeCIPredMode_CABAC.70
	.cfi_def_cfa %rbp, 16
	movq	%rbx, %rdi
	movq	%r14, %rsi
	callq	writeCIPredMode_CABAC.70
	popq	%rbx
	popq	%r14
	popq	%rbp
	.cfi_def_cfa %rsp, 8
	retq
.LBB18_6:                               # %func_writeCIPredMode_CABAC.92
	.cfi_def_cfa %rbp, 16
	movq	%rbx, %rdi
	movq	%r14, %rsi
	callq	writeCIPredMode_CABAC.92
	popq	%rbx
	popq	%r14
	popq	%rbp
	.cfi_def_cfa %rsp, 8
	retq
.LBB18_7:                               # %func_writeCIPredMode_CABAC.94
	.cfi_def_cfa %rbp, 16
	movq	%rbx, %rdi
	movq	%r14, %rsi
	callq	writeCIPredMode_CABAC.94
	popq	%rbx
	popq	%r14
	popq	%rbp
	.cfi_def_cfa %rsp, 8
	retq
.LBB18_8:                               # %func_writeCIPredMode_CABAC.100
	.cfi_def_cfa %rbp, 16
	movq	%rbx, %rdi
	movq	%r14, %rsi
	callq	writeCIPredMode_CABAC.100
	popq	%rbx
	popq	%r14
	popq	%rbp
	.cfi_def_cfa %rsp, 8
	retq
.LBB18_9:                               # %ctrl0
	.cfi_def_cfa %rbp, 16
	cmpl	$1, %eax
	je	.LBB18_2
# %bb.10:                               # %ctrl1
	cmpl	$2, %eax
	je	.LBB18_3
# %bb.11:                               # %ctrl2
	cmpl	$3, %eax
	je	.LBB18_4
# %bb.12:                               # %ctrl3
	cmpl	$4, %eax
	je	.LBB18_5
# %bb.13:                               # %ctrl4
	cmpl	$5, %eax
	je	.LBB18_6
# %bb.14:                               # %ctrl5
	cmpl	$6, %eax
	je	.LBB18_7
	jmp	.LBB18_8
.Lfunc_end18:
	.size	writeCIPredMode_CABAC, .Lfunc_end18-writeCIPredMode_CABAC
	.cfi_endproc
                                        # -- End function
	.globl	unary_bin_max_encode    # -- Begin function unary_bin_max_encode
	.p2align	4, 0x90
	.type	unary_bin_max_encode,@function
unary_bin_max_encode:                   # @unary_bin_max_encode
	.cfi_startproc
# %bb.0:                                # %rand_bb
	pushq	%rbp
	.cfi_def_cfa_offset 16
	.cfi_offset %rbp, -16
	movq	%rsp, %rbp
	.cfi_def_cfa_register %rbp
	pushq	%r15
	pushq	%r14
	pushq	%r13
	pushq	%r12
	pushq	%rbx
	pushq	%rax
	.cfi_offset %rbx, -56
	.cfi_offset %r12, -48
	.cfi_offset %r13, -40
	.cfi_offset %r14, -32
	.cfi_offset %r15, -24
	movl	%r8d, %r14d
	movl	%ecx, %r15d
	movq	%rdx, %r12
	movl	%esi, %r13d
	movq	%rdi, %rbx
	callq	get_urand
	cmpl	$0, %eax
	jne	.LBB19_9
# %bb.1:                                # %func_unary_bin_max_encode.67
	movq	%rbx, %rdi
	movl	%r13d, %esi
	movq	%r12, %rdx
	movl	%r15d, %ecx
	movl	%r14d, %r8d
	callq	unary_bin_max_encode.67
	addq	$8, %rsp
	popq	%rbx
	popq	%r12
	popq	%r13
	popq	%r14
	popq	%r15
	popq	%rbp
	.cfi_def_cfa %rsp, 8
	retq
.LBB19_2:                               # %func_unary_bin_max_encode.89
	.cfi_def_cfa %rbp, 16
	movq	%rbx, %rdi
	movl	%r13d, %esi
	movq	%r12, %rdx
	movl	%r15d, %ecx
	movl	%r14d, %r8d
	callq	unary_bin_max_encode.89
	addq	$8, %rsp
	popq	%rbx
	popq	%r12
	popq	%r13
	popq	%r14
	popq	%r15
	popq	%rbp
	.cfi_def_cfa %rsp, 8
	retq
.LBB19_3:                               # %func_unary_bin_max_encode.103
	.cfi_def_cfa %rbp, 16
	movq	%rbx, %rdi
	movl	%r13d, %esi
	movq	%r12, %rdx
	movl	%r15d, %ecx
	movl	%r14d, %r8d
	callq	unary_bin_max_encode.103
	addq	$8, %rsp
	popq	%rbx
	popq	%r12
	popq	%r13
	popq	%r14
	popq	%r15
	popq	%rbp
	.cfi_def_cfa %rsp, 8
	retq
.LBB19_4:                               # %func_unary_bin_max_encode.111
	.cfi_def_cfa %rbp, 16
	movq	%rbx, %rdi
	movl	%r13d, %esi
	movq	%r12, %rdx
	movl	%r15d, %ecx
	movl	%r14d, %r8d
	callq	unary_bin_max_encode.111
	addq	$8, %rsp
	popq	%rbx
	popq	%r12
	popq	%r13
	popq	%r14
	popq	%r15
	popq	%rbp
	.cfi_def_cfa %rsp, 8
	retq
.LBB19_5:                               # %func_unary_bin_max_encode.124
	.cfi_def_cfa %rbp, 16
	movq	%rbx, %rdi
	movl	%r13d, %esi
	movq	%r12, %rdx
	movl	%r15d, %ecx
	movl	%r14d, %r8d
	callq	unary_bin_max_encode.124
	addq	$8, %rsp
	popq	%rbx
	popq	%r12
	popq	%r13
	popq	%r14
	popq	%r15
	popq	%rbp
	.cfi_def_cfa %rsp, 8
	retq
.LBB19_6:                               # %func_unary_bin_max_encode.125
	.cfi_def_cfa %rbp, 16
	movq	%rbx, %rdi
	movl	%r13d, %esi
	movq	%r12, %rdx
	movl	%r15d, %ecx
	movl	%r14d, %r8d
	callq	unary_bin_max_encode.125
	addq	$8, %rsp
	popq	%rbx
	popq	%r12
	popq	%r13
	popq	%r14
	popq	%r15
	popq	%rbp
	.cfi_def_cfa %rsp, 8
	retq
.LBB19_7:                               # %func_unary_bin_max_encode.126
	.cfi_def_cfa %rbp, 16
	movq	%rbx, %rdi
	movl	%r13d, %esi
	movq	%r12, %rdx
	movl	%r15d, %ecx
	movl	%r14d, %r8d
	callq	unary_bin_max_encode.126
	addq	$8, %rsp
	popq	%rbx
	popq	%r12
	popq	%r13
	popq	%r14
	popq	%r15
	popq	%rbp
	.cfi_def_cfa %rsp, 8
	retq
.LBB19_8:                               # %func_unary_bin_max_encode.148
	.cfi_def_cfa %rbp, 16
	movq	%rbx, %rdi
	movl	%r13d, %esi
	movq	%r12, %rdx
	movl	%r15d, %ecx
	movl	%r14d, %r8d
	callq	unary_bin_max_encode.148
	addq	$8, %rsp
	popq	%rbx
	popq	%r12
	popq	%r13
	popq	%r14
	popq	%r15
	popq	%rbp
	.cfi_def_cfa %rsp, 8
	retq
.LBB19_9:                               # %ctrl0
	.cfi_def_cfa %rbp, 16
	cmpl	$1, %eax
	je	.LBB19_2
# %bb.10:                               # %ctrl1
	cmpl	$2, %eax
	je	.LBB19_3
# %bb.11:                               # %ctrl2
	cmpl	$3, %eax
	je	.LBB19_4
# %bb.12:                               # %ctrl3
	cmpl	$4, %eax
	je	.LBB19_5
# %bb.13:                               # %ctrl4
	cmpl	$5, %eax
	je	.LBB19_6
# %bb.14:                               # %ctrl5
	cmpl	$6, %eax
	je	.LBB19_7
	jmp	.LBB19_8
.Lfunc_end19:
	.size	unary_bin_max_encode, .Lfunc_end19-unary_bin_max_encode
	.cfi_endproc
                                        # -- End function
	.globl	writeCBP_BIT_CABAC      # -- Begin function writeCBP_BIT_CABAC
	.p2align	4, 0x90
	.type	writeCBP_BIT_CABAC,@function
writeCBP_BIT_CABAC:                     # @writeCBP_BIT_CABAC
	.cfi_startproc
# %bb.0:                                # %rand_bb
	pushq	%rbp
	.cfi_def_cfa_offset 16
	.cfi_offset %rbp, -16
	movq	%rsp, %rbp
	.cfi_def_cfa_register %rbp
	pushq	%r15
	pushq	%r14
	pushq	%r13
	pushq	%r12
	pushq	%rbx
	pushq	%rax
	.cfi_offset %rbx, -56
	.cfi_offset %r12, -48
	.cfi_offset %r13, -40
	.cfi_offset %r14, -32
	.cfi_offset %r15, -24
	movq	%r9, -48(%rbp)          # 8-byte Spill
	movl	%r8d, %r12d
	movq	%rcx, %r13
	movl	%edx, %ebx
	movl	%esi, %r14d
	movl	%edi, %r15d
	callq	get_urand
	cmpl	$0, %eax
	jne	.LBB20_9
# %bb.1:                                # %func_writeCBP_BIT_CABAC.2
	movl	%r15d, %edi
	movl	%r14d, %esi
	movl	%ebx, %edx
	movq	%r13, %rcx
	movl	%r12d, %r8d
	movq	-48(%rbp), %r9          # 8-byte Reload
	callq	writeCBP_BIT_CABAC.2
	addq	$8, %rsp
	popq	%rbx
	popq	%r12
	popq	%r13
	popq	%r14
	popq	%r15
	popq	%rbp
	.cfi_def_cfa %rsp, 8
	retq
.LBB20_2:                               # %func_writeCBP_BIT_CABAC.47
	.cfi_def_cfa %rbp, 16
	movl	%r15d, %edi
	movl	%r14d, %esi
	movl	%ebx, %edx
	movq	%r13, %rcx
	movl	%r12d, %r8d
	callq	writeCBP_BIT_CABAC.47
	addq	$8, %rsp
	popq	%rbx
	popq	%r12
	popq	%r13
	popq	%r14
	popq	%r15
	popq	%rbp
	.cfi_def_cfa %rsp, 8
	retq
.LBB20_3:                               # %func_writeCBP_BIT_CABAC.77
	.cfi_def_cfa %rbp, 16
	movl	%r15d, %edi
	movl	%r14d, %esi
	movl	%ebx, %edx
	movq	%r13, %rcx
	movl	%r12d, %r8d
	callq	writeCBP_BIT_CABAC.77
	addq	$8, %rsp
	popq	%rbx
	popq	%r12
	popq	%r13
	popq	%r14
	popq	%r15
	popq	%rbp
	.cfi_def_cfa %rsp, 8
	retq
.LBB20_4:                               # %func_writeCBP_BIT_CABAC.82
	.cfi_def_cfa %rbp, 16
	movl	%r15d, %edi
	movl	%r14d, %esi
	movl	%ebx, %edx
	movq	%r13, %rcx
	movl	%r12d, %r8d
	callq	writeCBP_BIT_CABAC.82
	addq	$8, %rsp
	popq	%rbx
	popq	%r12
	popq	%r13
	popq	%r14
	popq	%r15
	popq	%rbp
	.cfi_def_cfa %rsp, 8
	retq
.LBB20_5:                               # %func_writeCBP_BIT_CABAC.91
	.cfi_def_cfa %rbp, 16
	movl	%r15d, %edi
	movl	%r14d, %esi
	movl	%ebx, %edx
	movq	%r13, %rcx
	movl	%r12d, %r8d
	callq	writeCBP_BIT_CABAC.91
	addq	$8, %rsp
	popq	%rbx
	popq	%r12
	popq	%r13
	popq	%r14
	popq	%r15
	popq	%rbp
	.cfi_def_cfa %rsp, 8
	retq
.LBB20_6:                               # %func_writeCBP_BIT_CABAC.97
	.cfi_def_cfa %rbp, 16
	movl	%r15d, %edi
	movl	%r14d, %esi
	movl	%ebx, %edx
	movq	%r13, %rcx
	movl	%r12d, %r8d
	callq	writeCBP_BIT_CABAC.97
	addq	$8, %rsp
	popq	%rbx
	popq	%r12
	popq	%r13
	popq	%r14
	popq	%r15
	popq	%rbp
	.cfi_def_cfa %rsp, 8
	retq
.LBB20_7:                               # %func_writeCBP_BIT_CABAC.153
	.cfi_def_cfa %rbp, 16
	callq	writeCBP_BIT_CABAC.153
	addq	$8, %rsp
	popq	%rbx
	popq	%r12
	popq	%r13
	popq	%r14
	popq	%r15
	popq	%rbp
	.cfi_def_cfa %rsp, 8
	retq
.LBB20_8:                               # %func_writeCBP_BIT_CABAC.158
	.cfi_def_cfa %rbp, 16
	callq	writeCBP_BIT_CABAC.158
	addq	$8, %rsp
	popq	%rbx
	popq	%r12
	popq	%r13
	popq	%r14
	popq	%r15
	popq	%rbp
	.cfi_def_cfa %rsp, 8
	retq
.LBB20_9:                               # %ctrl0
	.cfi_def_cfa %rbp, 16
	movq	-48(%rbp), %r9          # 8-byte Reload
	cmpl	$1, %eax
	je	.LBB20_2
# %bb.10:                               # %ctrl1
	cmpl	$2, %eax
	je	.LBB20_3
# %bb.11:                               # %ctrl2
	cmpl	$3, %eax
	je	.LBB20_4
# %bb.12:                               # %ctrl3
	cmpl	$4, %eax
	je	.LBB20_5
# %bb.13:                               # %ctrl4
	cmpl	$5, %eax
	je	.LBB20_6
# %bb.14:                               # %ctrl5
	cmpl	$6, %eax
	movl	%r12d, %r8d
	movq	%r13, %rcx
	movl	%ebx, %edx
	movl	%r14d, %esi
	movl	%r15d, %edi
	je	.LBB20_7
	jmp	.LBB20_8
.Lfunc_end20:
	.size	writeCBP_BIT_CABAC, .Lfunc_end20-writeCBP_BIT_CABAC
	.cfi_endproc
                                        # -- End function
	.globl	writeCBP_CABAC          # -- Begin function writeCBP_CABAC
	.p2align	4, 0x90
	.type	writeCBP_CABAC,@function
writeCBP_CABAC:                         # @writeCBP_CABAC
	.cfi_startproc
# %bb.0:                                # %rand_bb
	pushq	%rbp
	.cfi_def_cfa_offset 16
	.cfi_offset %rbp, -16
	movq	%rsp, %rbp
	.cfi_def_cfa_register %rbp
	pushq	%r14
	pushq	%rbx
	.cfi_offset %rbx, -32
	.cfi_offset %r14, -24
	movq	%rsi, %r14
	movq	%rdi, %rbx
	callq	get_urand
	cmpl	$0, %eax
	jne	.LBB21_9
# %bb.1:                                # %func_writeCBP_CABAC.4
	movq	%rbx, %rdi
	movq	%r14, %rsi
	callq	writeCBP_CABAC.4
	popq	%rbx
	popq	%r14
	popq	%rbp
	.cfi_def_cfa %rsp, 8
	retq
.LBB21_2:                               # %func_writeCBP_CABAC.11
	.cfi_def_cfa %rbp, 16
	movq	%rbx, %rdi
	movq	%r14, %rsi
	callq	writeCBP_CABAC.11
	popq	%rbx
	popq	%r14
	popq	%rbp
	.cfi_def_cfa %rsp, 8
	retq
.LBB21_3:                               # %func_writeCBP_CABAC.17
	.cfi_def_cfa %rbp, 16
	movq	%rbx, %rdi
	movq	%r14, %rsi
	callq	writeCBP_CABAC.17
	popq	%rbx
	popq	%r14
	popq	%rbp
	.cfi_def_cfa %rsp, 8
	retq
.LBB21_4:                               # %func_writeCBP_CABAC.24
	.cfi_def_cfa %rbp, 16
	movq	%rbx, %rdi
	movq	%r14, %rsi
	callq	writeCBP_CABAC.24
	popq	%rbx
	popq	%r14
	popq	%rbp
	.cfi_def_cfa %rsp, 8
	retq
.LBB21_5:                               # %func_writeCBP_CABAC.52
	.cfi_def_cfa %rbp, 16
	movq	%rbx, %rdi
	movq	%r14, %rsi
	callq	writeCBP_CABAC.52
	popq	%rbx
	popq	%r14
	popq	%rbp
	.cfi_def_cfa %rsp, 8
	retq
.LBB21_6:                               # %func_writeCBP_CABAC.61
	.cfi_def_cfa %rbp, 16
	movq	%rbx, %rdi
	movq	%r14, %rsi
	callq	writeCBP_CABAC.61
	popq	%rbx
	popq	%r14
	popq	%rbp
	.cfi_def_cfa %rsp, 8
	retq
.LBB21_7:                               # %func_writeCBP_CABAC.69
	.cfi_def_cfa %rbp, 16
	movq	%rbx, %rdi
	movq	%r14, %rsi
	callq	writeCBP_CABAC.69
	popq	%rbx
	popq	%r14
	popq	%rbp
	.cfi_def_cfa %rsp, 8
	retq
.LBB21_8:                               # %func_writeCBP_CABAC.96
	.cfi_def_cfa %rbp, 16
	movq	%rbx, %rdi
	movq	%r14, %rsi
	callq	writeCBP_CABAC.96
	popq	%rbx
	popq	%r14
	popq	%rbp
	.cfi_def_cfa %rsp, 8
	retq
.LBB21_9:                               # %ctrl0
	.cfi_def_cfa %rbp, 16
	cmpl	$1, %eax
	je	.LBB21_2
# %bb.10:                               # %ctrl1
	cmpl	$2, %eax
	je	.LBB21_3
# %bb.11:                               # %ctrl2
	cmpl	$3, %eax
	je	.LBB21_4
# %bb.12:                               # %ctrl3
	cmpl	$4, %eax
	je	.LBB21_5
# %bb.13:                               # %ctrl4
	cmpl	$5, %eax
	je	.LBB21_6
# %bb.14:                               # %ctrl5
	cmpl	$6, %eax
	je	.LBB21_7
	jmp	.LBB21_8
.Lfunc_end21:
	.size	writeCBP_CABAC, .Lfunc_end21-writeCBP_CABAC
	.cfi_endproc
                                        # -- End function
	.globl	write_and_store_CBP_block_bit # -- Begin function write_and_store_CBP_block_bit
	.p2align	4, 0x90
	.type	write_and_store_CBP_block_bit,@function
write_and_store_CBP_block_bit:          # @write_and_store_CBP_block_bit
	.cfi_startproc
# %bb.0:                                # %rand_bb
	pushq	%rbp
	.cfi_def_cfa_offset 16
	.cfi_offset %rbp, -16
	movq	%rsp, %rbp
	.cfi_def_cfa_register %rbp
	pushq	%r15
	pushq	%r14
	pushq	%r12
	pushq	%rbx
	.cfi_offset %rbx, -48
	.cfi_offset %r12, -40
	.cfi_offset %r14, -32
	.cfi_offset %r15, -24
	movl	%ecx, %r14d
	movl	%edx, %r15d
	movq	%rsi, %r12
	movq	%rdi, %rbx
	callq	get_urand
	cmpl	$0, %eax
	jne	.LBB22_9
# %bb.1:                                # %func_write_and_store_CBP_block_bit.29
	movq	%rbx, %rdi
	movq	%r12, %rsi
	movl	%r15d, %edx
	movl	%r14d, %ecx
	callq	write_and_store_CBP_block_bit.29
	popq	%rbx
	popq	%r12
	popq	%r14
	popq	%r15
	popq	%rbp
	.cfi_def_cfa %rsp, 8
	retq
.LBB22_2:                               # %func_write_and_store_CBP_block_bit.74
	.cfi_def_cfa %rbp, 16
	movq	%rbx, %rdi
	movq	%r12, %rsi
	movl	%r15d, %edx
	movl	%r14d, %ecx
	callq	write_and_store_CBP_block_bit.74
	popq	%rbx
	popq	%r12
	popq	%r14
	popq	%r15
	popq	%rbp
	.cfi_def_cfa %rsp, 8
	retq
.LBB22_3:                               # %func_write_and_store_CBP_block_bit.131
	.cfi_def_cfa %rbp, 16
	movq	%rbx, %rdi
	movq	%r12, %rsi
	movl	%r15d, %edx
	movl	%r14d, %ecx
	callq	write_and_store_CBP_block_bit.131
	popq	%rbx
	popq	%r12
	popq	%r14
	popq	%r15
	popq	%rbp
	.cfi_def_cfa %rsp, 8
	retq
.LBB22_4:                               # %func_write_and_store_CBP_block_bit.149
	.cfi_def_cfa %rbp, 16
	movq	%rbx, %rdi
	movq	%r12, %rsi
	movl	%r15d, %edx
	movl	%r14d, %ecx
	callq	write_and_store_CBP_block_bit.149
	popq	%rbx
	popq	%r12
	popq	%r14
	popq	%r15
	popq	%rbp
	.cfi_def_cfa %rsp, 8
	retq
.LBB22_5:                               # %func_write_and_store_CBP_block_bit.168
	.cfi_def_cfa %rbp, 16
	movq	%rbx, %rdi
	movq	%r12, %rsi
	movl	%r15d, %edx
	movl	%r14d, %ecx
	callq	write_and_store_CBP_block_bit.168
	popq	%rbx
	popq	%r12
	popq	%r14
	popq	%r15
	popq	%rbp
	.cfi_def_cfa %rsp, 8
	retq
.LBB22_6:                               # %func_write_and_store_CBP_block_bit.173
	.cfi_def_cfa %rbp, 16
	movq	%rbx, %rdi
	movq	%r12, %rsi
	movl	%r15d, %edx
	movl	%r14d, %ecx
	callq	write_and_store_CBP_block_bit.173
	popq	%rbx
	popq	%r12
	popq	%r14
	popq	%r15
	popq	%rbp
	.cfi_def_cfa %rsp, 8
	retq
.LBB22_7:                               # %func_write_and_store_CBP_block_bit.174
	.cfi_def_cfa %rbp, 16
	movq	%rbx, %rdi
	movq	%r12, %rsi
	movl	%r15d, %edx
	movl	%r14d, %ecx
	callq	write_and_store_CBP_block_bit.174
	popq	%rbx
	popq	%r12
	popq	%r14
	popq	%r15
	popq	%rbp
	.cfi_def_cfa %rsp, 8
	retq
.LBB22_8:                               # %func_write_and_store_CBP_block_bit.177
	.cfi_def_cfa %rbp, 16
	movq	%rbx, %rdi
	movq	%r12, %rsi
	movl	%r15d, %edx
	movl	%r14d, %ecx
	callq	write_and_store_CBP_block_bit.177
	popq	%rbx
	popq	%r12
	popq	%r14
	popq	%r15
	popq	%rbp
	.cfi_def_cfa %rsp, 8
	retq
.LBB22_9:                               # %ctrl0
	.cfi_def_cfa %rbp, 16
	cmpl	$1, %eax
	je	.LBB22_2
# %bb.10:                               # %ctrl1
	cmpl	$2, %eax
	je	.LBB22_3
# %bb.11:                               # %ctrl2
	cmpl	$3, %eax
	je	.LBB22_4
# %bb.12:                               # %ctrl3
	cmpl	$4, %eax
	je	.LBB22_5
# %bb.13:                               # %ctrl4
	cmpl	$5, %eax
	je	.LBB22_6
# %bb.14:                               # %ctrl5
	cmpl	$6, %eax
	je	.LBB22_7
	jmp	.LBB22_8
.Lfunc_end22:
	.size	write_and_store_CBP_block_bit, .Lfunc_end22-write_and_store_CBP_block_bit
	.cfi_endproc
                                        # -- End function
	.globl	write_significance_map  # -- Begin function write_significance_map
	.p2align	4, 0x90
	.type	write_significance_map,@function
write_significance_map:                 # @write_significance_map
	.cfi_startproc
# %bb.0:                                # %rand_bb
	pushq	%rbp
	.cfi_def_cfa_offset 16
	.cfi_offset %rbp, -16
	movq	%rsp, %rbp
	.cfi_def_cfa_register %rbp
	pushq	%r15
	pushq	%r14
	pushq	%r13
	pushq	%r12
	pushq	%rbx
	pushq	%rax
	.cfi_offset %rbx, -56
	.cfi_offset %r12, -48
	.cfi_offset %r13, -40
	.cfi_offset %r14, -32
	.cfi_offset %r15, -24
	movl	%r8d, %r14d
	movq	%rcx, %r15
	movl	%edx, %r12d
	movq	%rsi, %r13
	movq	%rdi, %rbx
	callq	get_urand
	cmpl	$0, %eax
	jne	.LBB23_9
# %bb.1:                                # %func_write_significance_map.31
	movq	%rbx, %rdi
	movq	%r13, %rsi
	movl	%r12d, %edx
	movq	%r15, %rcx
	movl	%r14d, %r8d
	callq	write_significance_map.31
	addq	$8, %rsp
	popq	%rbx
	popq	%r12
	popq	%r13
	popq	%r14
	popq	%r15
	popq	%rbp
	.cfi_def_cfa %rsp, 8
	retq
.LBB23_2:                               # %func_write_significance_map.53
	.cfi_def_cfa %rbp, 16
	movq	%rbx, %rdi
	movq	%r13, %rsi
	movl	%r12d, %edx
	movq	%r15, %rcx
	movl	%r14d, %r8d
	callq	write_significance_map.53
	addq	$8, %rsp
	popq	%rbx
	popq	%r12
	popq	%r13
	popq	%r14
	popq	%r15
	popq	%rbp
	.cfi_def_cfa %rsp, 8
	retq
.LBB23_3:                               # %func_write_significance_map.72
	.cfi_def_cfa %rbp, 16
	movq	%rbx, %rdi
	movq	%r13, %rsi
	movl	%r12d, %edx
	movq	%r15, %rcx
	movl	%r14d, %r8d
	callq	write_significance_map.72
	addq	$8, %rsp
	popq	%rbx
	popq	%r12
	popq	%r13
	popq	%r14
	popq	%r15
	popq	%rbp
	.cfi_def_cfa %rsp, 8
	retq
.LBB23_4:                               # %func_write_significance_map.108
	.cfi_def_cfa %rbp, 16
	movq	%rbx, %rdi
	movq	%r13, %rsi
	movl	%r12d, %edx
	movq	%r15, %rcx
	movl	%r14d, %r8d
	callq	write_significance_map.108
	addq	$8, %rsp
	popq	%rbx
	popq	%r12
	popq	%r13
	popq	%r14
	popq	%r15
	popq	%rbp
	.cfi_def_cfa %rsp, 8
	retq
.LBB23_5:                               # %func_write_significance_map.113
	.cfi_def_cfa %rbp, 16
	movq	%rbx, %rdi
	movq	%r13, %rsi
	movl	%r12d, %edx
	movq	%r15, %rcx
	movl	%r14d, %r8d
	callq	write_significance_map.113
	addq	$8, %rsp
	popq	%rbx
	popq	%r12
	popq	%r13
	popq	%r14
	popq	%r15
	popq	%rbp
	.cfi_def_cfa %rsp, 8
	retq
.LBB23_6:                               # %func_write_significance_map.119
	.cfi_def_cfa %rbp, 16
	movq	%rbx, %rdi
	movq	%r13, %rsi
	movl	%r12d, %edx
	movq	%r15, %rcx
	movl	%r14d, %r8d
	callq	write_significance_map.119
	addq	$8, %rsp
	popq	%rbx
	popq	%r12
	popq	%r13
	popq	%r14
	popq	%r15
	popq	%rbp
	.cfi_def_cfa %rsp, 8
	retq
.LBB23_7:                               # %func_write_significance_map.136
	.cfi_def_cfa %rbp, 16
	movq	%rbx, %rdi
	movq	%r13, %rsi
	movl	%r12d, %edx
	movq	%r15, %rcx
	movl	%r14d, %r8d
	callq	write_significance_map.136
	addq	$8, %rsp
	popq	%rbx
	popq	%r12
	popq	%r13
	popq	%r14
	popq	%r15
	popq	%rbp
	.cfi_def_cfa %rsp, 8
	retq
.LBB23_8:                               # %func_write_significance_map.146
	.cfi_def_cfa %rbp, 16
	movq	%rbx, %rdi
	movq	%r13, %rsi
	movl	%r12d, %edx
	movq	%r15, %rcx
	movl	%r14d, %r8d
	callq	write_significance_map.146
	addq	$8, %rsp
	popq	%rbx
	popq	%r12
	popq	%r13
	popq	%r14
	popq	%r15
	popq	%rbp
	.cfi_def_cfa %rsp, 8
	retq
.LBB23_9:                               # %ctrl0
	.cfi_def_cfa %rbp, 16
	cmpl	$1, %eax
	je	.LBB23_2
# %bb.10:                               # %ctrl1
	cmpl	$2, %eax
	je	.LBB23_3
# %bb.11:                               # %ctrl2
	cmpl	$3, %eax
	je	.LBB23_4
# %bb.12:                               # %ctrl3
	cmpl	$4, %eax
	je	.LBB23_5
# %bb.13:                               # %ctrl4
	cmpl	$5, %eax
	je	.LBB23_6
# %bb.14:                               # %ctrl5
	cmpl	$6, %eax
	je	.LBB23_7
	jmp	.LBB23_8
.Lfunc_end23:
	.size	write_significance_map, .Lfunc_end23-write_significance_map
	.cfi_endproc
                                        # -- End function
	.globl	write_significant_coefficients # -- Begin function write_significant_coefficients
	.p2align	4, 0x90
	.type	write_significant_coefficients,@function
write_significant_coefficients:         # @write_significant_coefficients
	.cfi_startproc
# %bb.0:                                # %rand_bb
	pushq	%rbp
	.cfi_def_cfa_offset 16
	.cfi_offset %rbp, -16
	movq	%rsp, %rbp
	.cfi_def_cfa_register %rbp
	pushq	%r15
	pushq	%r14
	pushq	%r12
	pushq	%rbx
	.cfi_offset %rbx, -48
	.cfi_offset %r12, -40
	.cfi_offset %r14, -32
	.cfi_offset %r15, -24
	movq	%rcx, %r14
	movl	%edx, %r15d
	movq	%rsi, %r12
	movq	%rdi, %rbx
	callq	get_urand
	cmpl	$0, %eax
	jne	.LBB24_9
# %bb.1:                                # %func_write_significant_coefficients.22
	movq	%rbx, %rdi
	movq	%r12, %rsi
	movl	%r15d, %edx
	movq	%r14, %rcx
	callq	write_significant_coefficients.22
	popq	%rbx
	popq	%r12
	popq	%r14
	popq	%r15
	popq	%rbp
	.cfi_def_cfa %rsp, 8
	retq
.LBB24_2:                               # %func_write_significant_coefficients.84
	.cfi_def_cfa %rbp, 16
	movq	%rbx, %rdi
	movq	%r12, %rsi
	movl	%r15d, %edx
	movq	%r14, %rcx
	callq	write_significant_coefficients.84
	popq	%rbx
	popq	%r12
	popq	%r14
	popq	%r15
	popq	%rbp
	.cfi_def_cfa %rsp, 8
	retq
.LBB24_3:                               # %func_write_significant_coefficients.132
	.cfi_def_cfa %rbp, 16
	movq	%rbx, %rdi
	movq	%r12, %rsi
	movl	%r15d, %edx
	movq	%r14, %rcx
	callq	write_significant_coefficients.132
	popq	%rbx
	popq	%r12
	popq	%r14
	popq	%r15
	popq	%rbp
	.cfi_def_cfa %rsp, 8
	retq
.LBB24_4:                               # %func_write_significant_coefficients.145
	.cfi_def_cfa %rbp, 16
	movq	%rbx, %rdi
	movq	%r12, %rsi
	movl	%r15d, %edx
	movq	%r14, %rcx
	callq	write_significant_coefficients.145
	popq	%rbx
	popq	%r12
	popq	%r14
	popq	%r15
	popq	%rbp
	.cfi_def_cfa %rsp, 8
	retq
.LBB24_5:                               # %func_write_significant_coefficients.147
	.cfi_def_cfa %rbp, 16
	movq	%rbx, %rdi
	movq	%r12, %rsi
	movl	%r15d, %edx
	movq	%r14, %rcx
	callq	write_significant_coefficients.147
	popq	%rbx
	popq	%r12
	popq	%r14
	popq	%r15
	popq	%rbp
	.cfi_def_cfa %rsp, 8
	retq
.LBB24_6:                               # %func_write_significant_coefficients.157
	.cfi_def_cfa %rbp, 16
	movq	%rbx, %rdi
	movq	%r12, %rsi
	movl	%r15d, %edx
	movq	%r14, %rcx
	callq	write_significant_coefficients.157
	popq	%rbx
	popq	%r12
	popq	%r14
	popq	%r15
	popq	%rbp
	.cfi_def_cfa %rsp, 8
	retq
.LBB24_7:                               # %func_write_significant_coefficients.170
	.cfi_def_cfa %rbp, 16
	movq	%rbx, %rdi
	movq	%r12, %rsi
	movl	%r15d, %edx
	movq	%r14, %rcx
	callq	write_significant_coefficients.170
	popq	%rbx
	popq	%r12
	popq	%r14
	popq	%r15
	popq	%rbp
	.cfi_def_cfa %rsp, 8
	retq
.LBB24_8:                               # %func_write_significant_coefficients.172
	.cfi_def_cfa %rbp, 16
	movq	%rbx, %rdi
	movq	%r12, %rsi
	movl	%r15d, %edx
	movq	%r14, %rcx
	callq	write_significant_coefficients.172
	popq	%rbx
	popq	%r12
	popq	%r14
	popq	%r15
	popq	%rbp
	.cfi_def_cfa %rsp, 8
	retq
.LBB24_9:                               # %ctrl0
	.cfi_def_cfa %rbp, 16
	cmpl	$1, %eax
	je	.LBB24_2
# %bb.10:                               # %ctrl1
	cmpl	$2, %eax
	je	.LBB24_3
# %bb.11:                               # %ctrl2
	cmpl	$3, %eax
	je	.LBB24_4
# %bb.12:                               # %ctrl3
	cmpl	$4, %eax
	je	.LBB24_5
# %bb.13:                               # %ctrl4
	cmpl	$5, %eax
	je	.LBB24_6
# %bb.14:                               # %ctrl5
	cmpl	$6, %eax
	je	.LBB24_7
	jmp	.LBB24_8
.Lfunc_end24:
	.size	write_significant_coefficients, .Lfunc_end24-write_significant_coefficients
	.cfi_endproc
                                        # -- End function
	.globl	unary_exp_golomb_level_encode # -- Begin function unary_exp_golomb_level_encode
	.p2align	4, 0x90
	.type	unary_exp_golomb_level_encode,@function
unary_exp_golomb_level_encode:          # @unary_exp_golomb_level_encode
	.cfi_startproc
# %bb.0:                                # %rand_bb
	pushq	%rbp
	.cfi_def_cfa_offset 16
	.cfi_offset %rbp, -16
	movq	%rsp, %rbp
	.cfi_def_cfa_register %rbp
	pushq	%r15
	pushq	%r14
	pushq	%rbx
	pushq	%rax
	.cfi_offset %rbx, -40
	.cfi_offset %r14, -32
	.cfi_offset %r15, -24
	movq	%rdx, %r14
	movl	%esi, %r15d
	movq	%rdi, %rbx
	callq	get_urand
	cmpl	$0, %eax
	jne	.LBB25_9
# %bb.1:                                # %func_unary_exp_golomb_level_encode.56
	movq	%rbx, %rdi
	movl	%r15d, %esi
	movq	%r14, %rdx
	callq	unary_exp_golomb_level_encode.56
	addq	$8, %rsp
	popq	%rbx
	popq	%r14
	popq	%r15
	popq	%rbp
	.cfi_def_cfa %rsp, 8
	retq
.LBB25_2:                               # %func_unary_exp_golomb_level_encode.83
	.cfi_def_cfa %rbp, 16
	movq	%rbx, %rdi
	movl	%r15d, %esi
	movq	%r14, %rdx
	callq	unary_exp_golomb_level_encode.83
	addq	$8, %rsp
	popq	%rbx
	popq	%r14
	popq	%r15
	popq	%rbp
	.cfi_def_cfa %rsp, 8
	retq
.LBB25_3:                               # %func_unary_exp_golomb_level_encode.105
	.cfi_def_cfa %rbp, 16
	movq	%rbx, %rdi
	movl	%r15d, %esi
	movq	%r14, %rdx
	callq	unary_exp_golomb_level_encode.105
	addq	$8, %rsp
	popq	%rbx
	popq	%r14
	popq	%r15
	popq	%rbp
	.cfi_def_cfa %rsp, 8
	retq
.LBB25_4:                               # %func_unary_exp_golomb_level_encode.118
	.cfi_def_cfa %rbp, 16
	movq	%rbx, %rdi
	movl	%r15d, %esi
	movq	%r14, %rdx
	callq	unary_exp_golomb_level_encode.118
	addq	$8, %rsp
	popq	%rbx
	popq	%r14
	popq	%r15
	popq	%rbp
	.cfi_def_cfa %rsp, 8
	retq
.LBB25_5:                               # %func_unary_exp_golomb_level_encode.120
	.cfi_def_cfa %rbp, 16
	movq	%rbx, %rdi
	movl	%r15d, %esi
	movq	%r14, %rdx
	callq	unary_exp_golomb_level_encode.120
	addq	$8, %rsp
	popq	%rbx
	popq	%r14
	popq	%r15
	popq	%rbp
	.cfi_def_cfa %rsp, 8
	retq
.LBB25_6:                               # %func_unary_exp_golomb_level_encode.163
	.cfi_def_cfa %rbp, 16
	movq	%rbx, %rdi
	movl	%r15d, %esi
	movq	%r14, %rdx
	callq	unary_exp_golomb_level_encode.163
	addq	$8, %rsp
	popq	%rbx
	popq	%r14
	popq	%r15
	popq	%rbp
	.cfi_def_cfa %rsp, 8
	retq
.LBB25_7:                               # %func_unary_exp_golomb_level_encode.167
	.cfi_def_cfa %rbp, 16
	movq	%rbx, %rdi
	movl	%r15d, %esi
	movq	%r14, %rdx
	callq	unary_exp_golomb_level_encode.167
	addq	$8, %rsp
	popq	%rbx
	popq	%r14
	popq	%r15
	popq	%rbp
	.cfi_def_cfa %rsp, 8
	retq
.LBB25_8:                               # %func_unary_exp_golomb_level_encode.171
	.cfi_def_cfa %rbp, 16
	movq	%rbx, %rdi
	movl	%r15d, %esi
	movq	%r14, %rdx
	callq	unary_exp_golomb_level_encode.171
	addq	$8, %rsp
	popq	%rbx
	popq	%r14
	popq	%r15
	popq	%rbp
	.cfi_def_cfa %rsp, 8
	retq
.LBB25_9:                               # %ctrl0
	.cfi_def_cfa %rbp, 16
	cmpl	$1, %eax
	je	.LBB25_2
# %bb.10:                               # %ctrl1
	cmpl	$2, %eax
	je	.LBB25_3
# %bb.11:                               # %ctrl2
	cmpl	$3, %eax
	je	.LBB25_4
# %bb.12:                               # %ctrl3
	cmpl	$4, %eax
	je	.LBB25_5
# %bb.13:                               # %ctrl4
	cmpl	$5, %eax
	je	.LBB25_6
# %bb.14:                               # %ctrl5
	cmpl	$6, %eax
	je	.LBB25_7
	jmp	.LBB25_8
.Lfunc_end25:
	.size	unary_exp_golomb_level_encode, .Lfunc_end25-unary_exp_golomb_level_encode
	.cfi_endproc
                                        # -- End function
	.globl	writeRunLevel_CABAC     # -- Begin function writeRunLevel_CABAC
	.p2align	4, 0x90
	.type	writeRunLevel_CABAC,@function
writeRunLevel_CABAC:                    # @writeRunLevel_CABAC
	.cfi_startproc
# %bb.0:                                # %rand_bb
	pushq	%rbp
	.cfi_def_cfa_offset 16
	.cfi_offset %rbp, -16
	movq	%rsp, %rbp
	.cfi_def_cfa_register %rbp
	pushq	%r14
	pushq	%rbx
	.cfi_offset %rbx, -32
	.cfi_offset %r14, -24
	movq	%rsi, %r14
	movq	%rdi, %rbx
	callq	get_urand
	cmpl	$0, %eax
	jne	.LBB26_9
# %bb.1:                                # %func_writeRunLevel_CABAC.20
	movq	%rbx, %rdi
	movq	%r14, %rsi
	callq	writeRunLevel_CABAC.20
	popq	%rbx
	popq	%r14
	popq	%rbp
	.cfi_def_cfa %rsp, 8
	retq
.LBB26_2:                               # %func_writeRunLevel_CABAC.21
	.cfi_def_cfa %rbp, 16
	movq	%rbx, %rdi
	movq	%r14, %rsi
	callq	writeRunLevel_CABAC.21
	popq	%rbx
	popq	%r14
	popq	%rbp
	.cfi_def_cfa %rsp, 8
	retq
.LBB26_3:                               # %func_writeRunLevel_CABAC.46
	.cfi_def_cfa %rbp, 16
	movq	%rbx, %rdi
	movq	%r14, %rsi
	callq	writeRunLevel_CABAC.46
	popq	%rbx
	popq	%r14
	popq	%rbp
	.cfi_def_cfa %rsp, 8
	retq
.LBB26_4:                               # %func_writeRunLevel_CABAC.62
	.cfi_def_cfa %rbp, 16
	movq	%rbx, %rdi
	movq	%r14, %rsi
	callq	writeRunLevel_CABAC.62
	popq	%rbx
	popq	%r14
	popq	%rbp
	.cfi_def_cfa %rsp, 8
	retq
.LBB26_5:                               # %func_writeRunLevel_CABAC.98
	.cfi_def_cfa %rbp, 16
	movq	%rbx, %rdi
	movq	%r14, %rsi
	callq	writeRunLevel_CABAC.98
	popq	%rbx
	popq	%r14
	popq	%rbp
	.cfi_def_cfa %rsp, 8
	retq
.LBB26_6:                               # %func_writeRunLevel_CABAC.106
	.cfi_def_cfa %rbp, 16
	movq	%rbx, %rdi
	movq	%r14, %rsi
	callq	writeRunLevel_CABAC.106
	popq	%rbx
	popq	%r14
	popq	%rbp
	.cfi_def_cfa %rsp, 8
	retq
.LBB26_7:                               # %func_writeRunLevel_CABAC.137
	.cfi_def_cfa %rbp, 16
	movq	%rbx, %rdi
	movq	%r14, %rsi
	callq	writeRunLevel_CABAC.137
	popq	%rbx
	popq	%r14
	popq	%rbp
	.cfi_def_cfa %rsp, 8
	retq
.LBB26_8:                               # %func_writeRunLevel_CABAC.142
	.cfi_def_cfa %rbp, 16
	movq	%rbx, %rdi
	movq	%r14, %rsi
	callq	writeRunLevel_CABAC.142
	popq	%rbx
	popq	%r14
	popq	%rbp
	.cfi_def_cfa %rsp, 8
	retq
.LBB26_9:                               # %ctrl0
	.cfi_def_cfa %rbp, 16
	cmpl	$1, %eax
	je	.LBB26_2
# %bb.10:                               # %ctrl1
	cmpl	$2, %eax
	je	.LBB26_3
# %bb.11:                               # %ctrl2
	cmpl	$3, %eax
	je	.LBB26_4
# %bb.12:                               # %ctrl3
	cmpl	$4, %eax
	je	.LBB26_5
# %bb.13:                               # %ctrl4
	cmpl	$5, %eax
	je	.LBB26_6
# %bb.14:                               # %ctrl5
	cmpl	$6, %eax
	je	.LBB26_7
	jmp	.LBB26_8
.Lfunc_end26:
	.size	writeRunLevel_CABAC, .Lfunc_end26-writeRunLevel_CABAC
	.cfi_endproc
                                        # -- End function
	.globl	exp_golomb_encode_eq_prob # -- Begin function exp_golomb_encode_eq_prob
	.p2align	4, 0x90
	.type	exp_golomb_encode_eq_prob,@function
exp_golomb_encode_eq_prob:              # @exp_golomb_encode_eq_prob
	.cfi_startproc
# %bb.0:                                # %rand_bb
	pushq	%rbp
	.cfi_def_cfa_offset 16
	.cfi_offset %rbp, -16
	movq	%rsp, %rbp
	.cfi_def_cfa_register %rbp
	pushq	%r15
	pushq	%r14
	pushq	%rbx
	pushq	%rax
	.cfi_offset %rbx, -40
	.cfi_offset %r14, -32
	.cfi_offset %r15, -24
	movl	%edx, %r14d
	movl	%esi, %r15d
	movq	%rdi, %rbx
	callq	get_urand
	cmpl	$0, %eax
	jne	.LBB27_7
# %bb.1:                                # %func_exp_golomb_encode_eq_prob.6
	movq	%rbx, %rdi
	movl	%r15d, %esi
	movl	%r14d, %edx
	callq	exp_golomb_encode_eq_prob.6
	addq	$8, %rsp
	popq	%rbx
	popq	%r14
	popq	%r15
	popq	%rbp
	.cfi_def_cfa %rsp, 8
	retq
.LBB27_2:                               # %func_exp_golomb_encode_eq_prob.32
	.cfi_def_cfa %rbp, 16
	movq	%rbx, %rdi
	movl	%r15d, %esi
	movl	%r14d, %edx
	callq	exp_golomb_encode_eq_prob.32
	addq	$8, %rsp
	popq	%rbx
	popq	%r14
	popq	%r15
	popq	%rbp
	.cfi_def_cfa %rsp, 8
	retq
.LBB27_3:                               # %func_exp_golomb_encode_eq_prob.33
	.cfi_def_cfa %rbp, 16
	movq	%rbx, %rdi
	movl	%r15d, %esi
	movl	%r14d, %edx
	callq	exp_golomb_encode_eq_prob.33
	addq	$8, %rsp
	popq	%rbx
	popq	%r14
	popq	%r15
	popq	%rbp
	.cfi_def_cfa %rsp, 8
	retq
.LBB27_4:                               # %func_exp_golomb_encode_eq_prob.42
	.cfi_def_cfa %rbp, 16
	movq	%rbx, %rdi
	movl	%r15d, %esi
	movl	%r14d, %edx
	callq	exp_golomb_encode_eq_prob.42
	addq	$8, %rsp
	popq	%rbx
	popq	%r14
	popq	%r15
	popq	%rbp
	.cfi_def_cfa %rsp, 8
	retq
.LBB27_5:                               # %func_exp_golomb_encode_eq_prob.50
	.cfi_def_cfa %rbp, 16
	movq	%rbx, %rdi
	movl	%r15d, %esi
	movl	%r14d, %edx
	callq	exp_golomb_encode_eq_prob.50
	addq	$8, %rsp
	popq	%rbx
	popq	%r14
	popq	%r15
	popq	%rbp
	.cfi_def_cfa %rsp, 8
	retq
.LBB27_6:                               # %func_exp_golomb_encode_eq_prob.75
	.cfi_def_cfa %rbp, 16
	movq	%rbx, %rdi
	movl	%r15d, %esi
	movl	%r14d, %edx
	callq	exp_golomb_encode_eq_prob.75
	addq	$8, %rsp
	popq	%rbx
	popq	%r14
	popq	%r15
	popq	%rbp
	.cfi_def_cfa %rsp, 8
	retq
.LBB27_7:                               # %ctrl0
	.cfi_def_cfa %rbp, 16
	cmpl	$1, %eax
	je	.LBB27_2
# %bb.8:                                # %ctrl1
	cmpl	$2, %eax
	je	.LBB27_3
# %bb.9:                                # %ctrl2
	cmpl	$3, %eax
	je	.LBB27_4
# %bb.10:                               # %ctrl3
	cmpl	$4, %eax
	je	.LBB27_5
	jmp	.LBB27_6
.Lfunc_end27:
	.size	exp_golomb_encode_eq_prob, .Lfunc_end27-exp_golomb_encode_eq_prob
	.cfi_endproc
                                        # -- End function
	.globl	writeMB_typeInfo_CABAC.1 # -- Begin function writeMB_typeInfo_CABAC.1
	.p2align	4, 0x90
	.type	writeMB_typeInfo_CABAC.1,@function
writeMB_typeInfo_CABAC.1:               # @writeMB_typeInfo_CABAC.1
	.cfi_startproc
# %bb.0:                                # %entry
	pushq	%rbp
	.cfi_def_cfa_offset 16
	.cfi_offset %rbp, -16
	movq	%rsp, %rbp
	.cfi_def_cfa_register %rbp
	subq	$96, %rsp
	movl	$1541151207, -84(%rbp)  # imm = 0x5BDC19E7
	movq	%rdi, -80(%rbp)
	movq	%rsi, -16(%rbp)
	movl	$0, -20(%rbp)
	movq	img, %rax
	cmpl	$1, 24(%rax)
	sete	%al
	andb	$1, %al
	movzbl	%al, %eax
	movl	%eax, -60(%rbp)
	movl	$0, -36(%rbp)
	movq	img, %rax
	movq	14160(%rax), %rax
	movq	32(%rax), %rax
	movq	%rax, -32(%rbp)
	movq	img, %rax
	movq	14168(%rax), %rax
	movq	img, %rcx
	movslq	12(%rcx), %rcx
	imulq	$632, %rcx, %rcx        # imm = 0x278
	addq	%rcx, %rax
	movq	%rax, -56(%rbp)
	movq	-80(%rbp), %rax
	movl	4(%rax), %eax
	movl	%eax, -68(%rbp)
	movq	img, %rax
	cmpl	$2, 24(%rax)
	jne	.LBB28_24
# %bb.1:                                # %if.then
	movq	-56(%rbp), %rax
	cmpq	$0, 56(%rax)
	jne	.LBB28_3
# %bb.2:                                # %if.then6
	movl	$0, -48(%rbp)
	jmp	.LBB28_6
.LBB28_3:                               # %if.else
	xorl	%eax, %eax
	movq	-56(%rbp), %rcx
	movq	56(%rcx), %rcx
	cmpl	$9, 72(%rcx)
	je	.LBB28_5
# %bb.4:                                # %land.rhs
	movq	-56(%rbp), %rax
	movq	56(%rax), %rax
	cmpl	$13, 72(%rax)
	setne	%al
.LBB28_5:                               # %land.end
	xorl	%ecx, %ecx
	testb	$1, %al
	movl	$1, %eax
	cmovnel	%eax, %ecx
	movl	%ecx, -48(%rbp)
.LBB28_6:                               # %if.end
	movq	-56(%rbp), %rax
	cmpq	$0, 64(%rax)
	jne	.LBB28_8
# %bb.7:                                # %if.then16
	movl	$0, -44(%rbp)
	jmp	.LBB28_11
.LBB28_8:                               # %if.else17
	xorl	%eax, %eax
	movq	-56(%rbp), %rcx
	movq	64(%rcx), %rcx
	cmpl	$9, 72(%rcx)
	je	.LBB28_10
# %bb.9:                                # %land.rhs22
	movq	-56(%rbp), %rax
	movq	64(%rax), %rax
	cmpl	$13, 72(%rax)
	setne	%al
.LBB28_10:                              # %land.end27
	xorl	%ecx, %ecx
	testb	$1, %al
	movl	$1, %eax
	cmovnel	%eax, %ecx
	movl	%ecx, -44(%rbp)
.LBB28_11:                              # %if.end29
	movl	-44(%rbp), %eax
	addl	-48(%rbp), %eax
	movl	%eax, -20(%rbp)
	movl	-68(%rbp), %eax
	movl	%eax, -4(%rbp)
	movl	-20(%rbp), %eax
	movq	-80(%rbp), %rcx
	movl	%eax, 24(%rcx)
	cmpl	$0, -4(%rbp)
	jne	.LBB28_13
# %bb.12:                               # %if.then32
	movq	-16(%rbp), %rdi
	movq	-32(%rbp), %rdx
	movslq	-20(%rbp), %rax
	shlq	$4, %rax
	addq	%rax, %rdx
	xorl	%esi, %esi
	callq	biari_encode_symbol
	jmp	.LBB28_23
.LBB28_13:                              # %if.else34
	cmpl	$25, -4(%rbp)
	jne	.LBB28_15
# %bb.14:                               # %if.then37
	movq	-16(%rbp), %rdi
	movq	-32(%rbp), %rdx
	movslq	-20(%rbp), %rax
	shlq	$4, %rax
	addq	%rax, %rdx
	movl	$1, %esi
	callq	biari_encode_symbol
	movq	-16(%rbp), %rdi
	movl	$1, %esi
	callq	biari_encode_symbol_final
	jmp	.LBB28_22
.LBB28_15:                              # %if.else43
	movq	-16(%rbp), %rdi
	movq	-32(%rbp), %rdx
	movslq	-20(%rbp), %rax
	shlq	$4, %rax
	addq	%rax, %rdx
	movl	$1, %esi
	callq	biari_encode_symbol
	movq	-16(%rbp), %rdi
	xorl	%esi, %esi
	callq	biari_encode_symbol_final
	movl	-4(%rbp), %eax
	subl	$1, %eax
	movl	%eax, -36(%rbp)
	movl	$4, -20(%rbp)
	movl	-36(%rbp), %eax
	cltd
	movl	$12, %ecx
	idivl	%ecx
	movl	%eax, -4(%rbp)
	movq	-16(%rbp), %rdi
	movl	-4(%rbp), %eax
	movzbl	%al, %eax
	movq	-32(%rbp), %rdx
	movslq	-20(%rbp), %rcx
	shlq	$4, %rcx
	addq	%rcx, %rdx
	movswl	%ax, %esi
	callq	biari_encode_symbol
	movl	-36(%rbp), %eax
	cltd
	movl	$12, %ecx
	idivl	%ecx
	movl	%edx, -36(%rbp)
	movl	-36(%rbp), %eax
	cltd
	movl	$4, %ecx
	idivl	%ecx
	movl	%eax, -4(%rbp)
	movl	$5, -20(%rbp)
	cmpl	$0, -4(%rbp)
	jne	.LBB28_17
# %bb.16:                               # %if.then59
	movq	-16(%rbp), %rdi
	movq	-32(%rbp), %rdx
	movslq	-20(%rbp), %rax
	shlq	$4, %rax
	addq	%rax, %rdx
	xorl	%esi, %esi
	callq	biari_encode_symbol
	jmp	.LBB28_21
.LBB28_17:                              # %if.else65
	movq	-16(%rbp), %rdi
	movq	-32(%rbp), %rdx
	movslq	-20(%rbp), %rax
	shlq	$4, %rax
	addq	%rax, %rdx
	movl	$1, %esi
	callq	biari_encode_symbol
	movl	$6, -20(%rbp)
	cmpl	$1, -4(%rbp)
	jne	.LBB28_19
# %bb.18:                               # %if.then73
	movq	-16(%rbp), %rdi
	movq	-32(%rbp), %rdx
	movslq	-20(%rbp), %rax
	shlq	$4, %rax
	addq	%rax, %rdx
	xorl	%esi, %esi
	callq	biari_encode_symbol
	jmp	.LBB28_20
.LBB28_19:                              # %if.else79
	movq	-16(%rbp), %rdi
	movq	-32(%rbp), %rdx
	movslq	-20(%rbp), %rax
	shlq	$4, %rax
	addq	%rax, %rdx
	movl	$1, %esi
	callq	biari_encode_symbol
.LBB28_20:                              # %if.end85
	jmp	.LBB28_21
.LBB28_21:                              # %if.end86
	movl	-36(%rbp), %eax
	cltd
	movl	$4, %ecx
	idivl	%ecx
	movl	%edx, -36(%rbp)
	movl	-36(%rbp), %eax
	cltd
	movl	$2, %ecx
	idivl	%ecx
	movl	%eax, -4(%rbp)
	movl	$7, -20(%rbp)
	movq	-16(%rbp), %rdi
	movl	-4(%rbp), %eax
	movzbl	%al, %eax
	movq	-32(%rbp), %rdx
	movslq	-20(%rbp), %rcx
	shlq	$4, %rcx
	addq	%rcx, %rdx
	movswl	%ax, %esi
	callq	biari_encode_symbol
	movl	$8, -20(%rbp)
	movl	-36(%rbp), %eax
	cltd
	movl	$2, %ecx
	idivl	%ecx
	movl	%edx, -4(%rbp)
	movq	-16(%rbp), %rdi
	movl	-4(%rbp), %eax
	movzbl	%al, %eax
	movq	-32(%rbp), %rdx
	movslq	-20(%rbp), %rcx
	shlq	$4, %rcx
	addq	%rcx, %rdx
	movswl	%ax, %esi
	callq	biari_encode_symbol
.LBB28_22:                              # %if.end104
	jmp	.LBB28_23
.LBB28_23:                              # %if.end105
	jmp	.LBB28_102
.LBB28_24:                              # %if.else106
	cmpl	$0, -60(%rbp)
	je	.LBB28_32
# %bb.25:                               # %if.then107
	movq	-56(%rbp), %rax
	cmpq	$0, 56(%rax)
	jne	.LBB28_27
# %bb.26:                               # %if.then111
	movl	$0, -48(%rbp)
	jmp	.LBB28_28
.LBB28_27:                              # %if.else112
	xorl	%eax, %eax
	movq	-56(%rbp), %rcx
	movq	56(%rcx), %rcx
	movl	72(%rcx), %ecx
	cmpl	$0, %ecx
	movl	$1, %ecx
	cmovnel	%ecx, %eax
	movl	%eax, -48(%rbp)
.LBB28_28:                              # %if.end118
	movq	-56(%rbp), %rax
	cmpq	$0, 64(%rax)
	jne	.LBB28_30
# %bb.29:                               # %if.then122
	movl	$0, -44(%rbp)
	jmp	.LBB28_31
.LBB28_30:                              # %if.else123
	xorl	%eax, %eax
	movq	-56(%rbp), %rcx
	movq	64(%rcx), %rcx
	movl	72(%rcx), %ecx
	cmpl	$0, %ecx
	movl	$1, %ecx
	cmovnel	%ecx, %eax
	movl	%eax, -44(%rbp)
.LBB28_31:                              # %if.end129
	movl	-44(%rbp), %eax
	addl	-48(%rbp), %eax
	movl	%eax, -20(%rbp)
	movl	-20(%rbp), %eax
	movq	-80(%rbp), %rcx
	movl	%eax, 24(%rcx)
.LBB28_32:                              # %if.end132
	movl	-68(%rbp), %eax
	movl	%eax, -4(%rbp)
	movl	-4(%rbp), %eax
	movl	-60(%rbp), %ecx
	cmpl	$0, %ecx
	movl	$24, %ecx
	movl	$7, %edx
	cmovnel	%ecx, %edx
	movl	%edx, -64(%rbp)
	cmpl	%edx, %eax
	jl	.LBB28_34
# %bb.33:                               # %if.then137
	movl	-4(%rbp), %eax
	subl	-64(%rbp), %eax
	movl	%eax, -36(%rbp)
	movl	-64(%rbp), %eax
	movl	%eax, -4(%rbp)
.LBB28_34:                              # %if.end139
	cmpl	$0, -60(%rbp)
	jne	.LBB28_46
# %bb.35:                               # %if.then141
	movl	-4(%rbp), %eax
	movq	%rax, %rcx
	subq	$7, %rcx
	ja	.LBB28_44
# %bb.36:                               # %if.then141
	movq	.LJTI28_0(,%rax,8), %rax
	jmpq	*%rax
.LBB28_37:                              # %sw.bb
	jmp	.LBB28_45
.LBB28_38:                              # %sw.bb142
	movq	-16(%rbp), %rdi
	movq	-32(%rbp), %rdx
	addq	$176, %rdx
	addq	$64, %rdx
	xorl	%esi, %esi
	callq	biari_encode_symbol
	movq	-16(%rbp), %rdi
	movq	-32(%rbp), %rdx
	addq	$176, %rdx
	addq	$80, %rdx
	xorl	%esi, %esi
	callq	biari_encode_symbol
	movq	-16(%rbp), %rdi
	movq	-32(%rbp), %rdx
	addq	$176, %rdx
	addq	$96, %rdx
	xorl	%esi, %esi
	callq	biari_encode_symbol
	jmp	.LBB28_45
.LBB28_39:                              # %sw.bb152
	movq	-16(%rbp), %rdi
	movq	-32(%rbp), %rdx
	addq	$176, %rdx
	addq	$64, %rdx
	xorl	%esi, %esi
	callq	biari_encode_symbol
	movq	-16(%rbp), %rdi
	movq	-32(%rbp), %rdx
	addq	$176, %rdx
	addq	$80, %rdx
	movl	$1, %esi
	callq	biari_encode_symbol
	movq	-16(%rbp), %rdi
	movq	-32(%rbp), %rdx
	addq	$176, %rdx
	addq	$112, %rdx
	movl	$1, %esi
	callq	biari_encode_symbol
	jmp	.LBB28_45
.LBB28_40:                              # %sw.bb162
	movq	-16(%rbp), %rdi
	movq	-32(%rbp), %rdx
	addq	$176, %rdx
	addq	$64, %rdx
	xorl	%esi, %esi
	callq	biari_encode_symbol
	movq	-16(%rbp), %rdi
	movq	-32(%rbp), %rdx
	addq	$176, %rdx
	addq	$80, %rdx
	movl	$1, %esi
	callq	biari_encode_symbol
	movq	-16(%rbp), %rdi
	movq	-32(%rbp), %rdx
	addq	$176, %rdx
	addq	$112, %rdx
	xorl	%esi, %esi
	callq	biari_encode_symbol
	jmp	.LBB28_45
.LBB28_41:                              # %sw.bb172
	movq	-16(%rbp), %rdi
	movq	-32(%rbp), %rdx
	addq	$176, %rdx
	addq	$64, %rdx
	xorl	%esi, %esi
	callq	biari_encode_symbol
	movq	-16(%rbp), %rdi
	movq	-32(%rbp), %rdx
	addq	$176, %rdx
	addq	$80, %rdx
	xorl	%esi, %esi
	callq	biari_encode_symbol
	movq	-16(%rbp), %rdi
	movq	-32(%rbp), %rdx
	addq	$176, %rdx
	addq	$96, %rdx
	movl	$1, %esi
	callq	biari_encode_symbol
	jmp	.LBB28_45
.LBB28_42:                              # %sw.bb182
	movq	-16(%rbp), %rdi
	movq	-32(%rbp), %rdx
	addq	$176, %rdx
	addq	$64, %rdx
	movl	$1, %esi
	callq	biari_encode_symbol
	movq	-16(%rbp), %rdi
	movq	-32(%rbp), %rdx
	addq	$176, %rdx
	addq	$112, %rdx
	xorl	%esi, %esi
	callq	biari_encode_symbol
	jmp	.LBB28_45
.LBB28_43:                              # %sw.bb189
	movq	-16(%rbp), %rdi
	movq	-32(%rbp), %rdx
	addq	$176, %rdx
	addq	$64, %rdx
	movl	$1, %esi
	callq	biari_encode_symbol
	movq	-16(%rbp), %rdi
	movq	-32(%rbp), %rdx
	addq	$176, %rdx
	addq	$112, %rdx
	movl	$1, %esi
	callq	biari_encode_symbol
	jmp	.LBB28_45
.LBB28_44:                              # %sw.default
	movabsq	$.L.str.2, %rdi
	movb	$0, %al
	callq	printf
	movl	$1, %edi
	callq	exit
.LBB28_45:                              # %sw.epilog
	jmp	.LBB28_91
.LBB28_46:                              # %if.else196
	cmpl	$0, -4(%rbp)
	jne	.LBB28_48
# %bb.47:                               # %if.then199
	movq	-16(%rbp), %rdi
	movq	-32(%rbp), %rdx
	addq	$352, %rdx              # imm = 0x160
	movslq	-20(%rbp), %rax
	shlq	$4, %rax
	addq	%rax, %rdx
	xorl	%esi, %esi
	callq	biari_encode_symbol
	jmp	.LBB28_90
.LBB28_48:                              # %if.else204
	cmpl	$2, -4(%rbp)
	jg	.LBB28_53
# %bb.49:                               # %if.then207
	movq	-16(%rbp), %rdi
	movq	-32(%rbp), %rdx
	addq	$352, %rdx              # imm = 0x160
	movslq	-20(%rbp), %rax
	shlq	$4, %rax
	addq	%rax, %rdx
	movl	$1, %esi
	callq	biari_encode_symbol
	movq	-16(%rbp), %rdi
	movq	-32(%rbp), %rdx
	addq	$352, %rdx              # imm = 0x160
	addq	$64, %rdx
	xorl	%esi, %esi
	callq	biari_encode_symbol
	movl	-4(%rbp), %eax
	subl	$1, %eax
	movl	%eax, -40(%rbp)
	cmpl	$0, -40(%rbp)
	je	.LBB28_51
# %bb.50:                               # %if.then217
	movq	-16(%rbp), %rdi
	movq	-32(%rbp), %rdx
	addq	$352, %rdx              # imm = 0x160
	addq	$96, %rdx
	movl	$1, %esi
	callq	biari_encode_symbol
	jmp	.LBB28_52
.LBB28_51:                              # %if.else221
	movq	-16(%rbp), %rdi
	movq	-32(%rbp), %rdx
	addq	$352, %rdx              # imm = 0x160
	addq	$96, %rdx
	xorl	%esi, %esi
	callq	biari_encode_symbol
.LBB28_52:                              # %if.end225
	jmp	.LBB28_89
.LBB28_53:                              # %if.else226
	cmpl	$10, -4(%rbp)
	jg	.LBB28_64
# %bb.54:                               # %if.then229
	movq	-16(%rbp), %rdi
	movq	-32(%rbp), %rdx
	addq	$352, %rdx              # imm = 0x160
	movslq	-20(%rbp), %rax
	shlq	$4, %rax
	addq	%rax, %rdx
	movl	$1, %esi
	callq	biari_encode_symbol
	movq	-16(%rbp), %rdi
	movq	-32(%rbp), %rdx
	addq	$352, %rdx              # imm = 0x160
	addq	$64, %rdx
	movl	$1, %esi
	callq	biari_encode_symbol
	movq	-16(%rbp), %rdi
	movq	-32(%rbp), %rdx
	addq	$352, %rdx              # imm = 0x160
	addq	$80, %rdx
	xorl	%esi, %esi
	callq	biari_encode_symbol
	movl	-4(%rbp), %eax
	subl	$3, %eax
	sarl	$2, %eax
	andl	$1, %eax
	movl	%eax, -40(%rbp)
	cmpl	$0, -40(%rbp)
	je	.LBB28_56
# %bb.55:                               # %if.then242
	movq	-16(%rbp), %rdi
	movq	-32(%rbp), %rdx
	addq	$352, %rdx              # imm = 0x160
	addq	$96, %rdx
	movl	$1, %esi
	callq	biari_encode_symbol
	jmp	.LBB28_57
.LBB28_56:                              # %if.else246
	movq	-16(%rbp), %rdi
	movq	-32(%rbp), %rdx
	addq	$352, %rdx              # imm = 0x160
	addq	$96, %rdx
	xorl	%esi, %esi
	callq	biari_encode_symbol
.LBB28_57:                              # %if.end250
	movl	-4(%rbp), %eax
	subl	$3, %eax
	sarl	$1, %eax
	andl	$1, %eax
	movl	%eax, -40(%rbp)
	cmpl	$0, -40(%rbp)
	je	.LBB28_59
# %bb.58:                               # %if.then255
	movq	-16(%rbp), %rdi
	movq	-32(%rbp), %rdx
	addq	$352, %rdx              # imm = 0x160
	addq	$96, %rdx
	movl	$1, %esi
	callq	biari_encode_symbol
	jmp	.LBB28_60
.LBB28_59:                              # %if.else259
	movq	-16(%rbp), %rdi
	movq	-32(%rbp), %rdx
	addq	$352, %rdx              # imm = 0x160
	addq	$96, %rdx
	xorl	%esi, %esi
	callq	biari_encode_symbol
.LBB28_60:                              # %if.end263
	movl	-4(%rbp), %eax
	subl	$3, %eax
	andl	$1, %eax
	movl	%eax, -40(%rbp)
	cmpl	$0, -40(%rbp)
	je	.LBB28_62
# %bb.61:                               # %if.then267
	movq	-16(%rbp), %rdi
	movq	-32(%rbp), %rdx
	addq	$352, %rdx              # imm = 0x160
	addq	$96, %rdx
	movl	$1, %esi
	callq	biari_encode_symbol
	jmp	.LBB28_63
.LBB28_62:                              # %if.else271
	movq	-16(%rbp), %rdi
	movq	-32(%rbp), %rdx
	addq	$352, %rdx              # imm = 0x160
	addq	$96, %rdx
	xorl	%esi, %esi
	callq	biari_encode_symbol
.LBB28_63:                              # %if.end275
	jmp	.LBB28_88
.LBB28_64:                              # %if.else276
	cmpl	$11, -4(%rbp)
	je	.LBB28_66
# %bb.65:                               # %lor.lhs.false
	cmpl	$22, -4(%rbp)
	jne	.LBB28_70
.LBB28_66:                              # %if.then281
	movq	-16(%rbp), %rdi
	movq	-32(%rbp), %rdx
	addq	$352, %rdx              # imm = 0x160
	movslq	-20(%rbp), %rax
	shlq	$4, %rax
	addq	%rax, %rdx
	movl	$1, %esi
	callq	biari_encode_symbol
	movq	-16(%rbp), %rdi
	movq	-32(%rbp), %rdx
	addq	$352, %rdx              # imm = 0x160
	addq	$64, %rdx
	movl	$1, %esi
	callq	biari_encode_symbol
	movq	-16(%rbp), %rdi
	movq	-32(%rbp), %rdx
	addq	$352, %rdx              # imm = 0x160
	addq	$80, %rdx
	movl	$1, %esi
	callq	biari_encode_symbol
	movq	-16(%rbp), %rdi
	movq	-32(%rbp), %rdx
	addq	$352, %rdx              # imm = 0x160
	addq	$96, %rdx
	movl	$1, %esi
	callq	biari_encode_symbol
	movq	-16(%rbp), %rdi
	movq	-32(%rbp), %rdx
	addq	$352, %rdx              # imm = 0x160
	addq	$96, %rdx
	movl	$1, %esi
	callq	biari_encode_symbol
	cmpl	$11, -4(%rbp)
	jne	.LBB28_68
# %bb.67:                               # %if.then300
	movq	-16(%rbp), %rdi
	movq	-32(%rbp), %rdx
	addq	$352, %rdx              # imm = 0x160
	addq	$96, %rdx
	xorl	%esi, %esi
	callq	biari_encode_symbol
	jmp	.LBB28_69
.LBB28_68:                              # %if.else304
	movq	-16(%rbp), %rdi
	movq	-32(%rbp), %rdx
	addq	$352, %rdx              # imm = 0x160
	addq	$96, %rdx
	movl	$1, %esi
	callq	biari_encode_symbol
.LBB28_69:                              # %if.end308
	jmp	.LBB28_87
.LBB28_70:                              # %if.else309
	cmpl	$22, -4(%rbp)
	jle	.LBB28_72
# %bb.71:                               # %if.then312
	movl	-4(%rbp), %eax
	addl	$-1, %eax
	movl	%eax, -4(%rbp)
.LBB28_72:                              # %if.end313
	movq	-16(%rbp), %rdi
	movq	-32(%rbp), %rdx
	addq	$352, %rdx              # imm = 0x160
	movslq	-20(%rbp), %rax
	shlq	$4, %rax
	addq	%rax, %rdx
	movl	$1, %esi
	callq	biari_encode_symbol
	movq	-16(%rbp), %rdi
	movq	-32(%rbp), %rdx
	addq	$352, %rdx              # imm = 0x160
	addq	$64, %rdx
	movl	$1, %esi
	callq	biari_encode_symbol
	movq	-16(%rbp), %rdi
	movq	-32(%rbp), %rdx
	addq	$352, %rdx              # imm = 0x160
	addq	$80, %rdx
	movl	$1, %esi
	callq	biari_encode_symbol
	movl	-4(%rbp), %eax
	subl	$12, %eax
	sarl	$3, %eax
	andl	$1, %eax
	movl	%eax, -40(%rbp)
	cmpl	$0, -40(%rbp)
	je	.LBB28_74
# %bb.73:                               # %if.then328
	movq	-16(%rbp), %rdi
	movq	-32(%rbp), %rdx
	addq	$352, %rdx              # imm = 0x160
	addq	$96, %rdx
	movl	$1, %esi
	callq	biari_encode_symbol
	jmp	.LBB28_75
.LBB28_74:                              # %if.else332
	movq	-16(%rbp), %rdi
	movq	-32(%rbp), %rdx
	addq	$352, %rdx              # imm = 0x160
	addq	$96, %rdx
	xorl	%esi, %esi
	callq	biari_encode_symbol
.LBB28_75:                              # %if.end336
	movl	-4(%rbp), %eax
	subl	$12, %eax
	sarl	$2, %eax
	andl	$1, %eax
	movl	%eax, -40(%rbp)
	cmpl	$0, -40(%rbp)
	je	.LBB28_77
# %bb.76:                               # %if.then341
	movq	-16(%rbp), %rdi
	movq	-32(%rbp), %rdx
	addq	$352, %rdx              # imm = 0x160
	addq	$96, %rdx
	movl	$1, %esi
	callq	biari_encode_symbol
	jmp	.LBB28_78
.LBB28_77:                              # %if.else345
	movq	-16(%rbp), %rdi
	movq	-32(%rbp), %rdx
	addq	$352, %rdx              # imm = 0x160
	addq	$96, %rdx
	xorl	%esi, %esi
	callq	biari_encode_symbol
.LBB28_78:                              # %if.end349
	movl	-4(%rbp), %eax
	subl	$12, %eax
	sarl	$1, %eax
	andl	$1, %eax
	movl	%eax, -40(%rbp)
	cmpl	$0, -40(%rbp)
	je	.LBB28_80
# %bb.79:                               # %if.then354
	movq	-16(%rbp), %rdi
	movq	-32(%rbp), %rdx
	addq	$352, %rdx              # imm = 0x160
	addq	$96, %rdx
	movl	$1, %esi
	callq	biari_encode_symbol
	jmp	.LBB28_81
.LBB28_80:                              # %if.else358
	movq	-16(%rbp), %rdi
	movq	-32(%rbp), %rdx
	addq	$352, %rdx              # imm = 0x160
	addq	$96, %rdx
	xorl	%esi, %esi
	callq	biari_encode_symbol
.LBB28_81:                              # %if.end362
	movl	-4(%rbp), %eax
	subl	$12, %eax
	andl	$1, %eax
	movl	%eax, -40(%rbp)
	cmpl	$0, -40(%rbp)
	je	.LBB28_83
# %bb.82:                               # %if.then366
	movq	-16(%rbp), %rdi
	movq	-32(%rbp), %rdx
	addq	$352, %rdx              # imm = 0x160
	addq	$96, %rdx
	movl	$1, %esi
	callq	biari_encode_symbol
	jmp	.LBB28_84
.LBB28_83:                              # %if.else370
	movq	-16(%rbp), %rdi
	movq	-32(%rbp), %rdx
	addq	$352, %rdx              # imm = 0x160
	addq	$96, %rdx
	xorl	%esi, %esi
	callq	biari_encode_symbol
.LBB28_84:                              # %if.end374
	cmpl	$22, -4(%rbp)
	jl	.LBB28_86
# %bb.85:                               # %if.then377
	movl	-4(%rbp), %eax
	addl	$1, %eax
	movl	%eax, -4(%rbp)
.LBB28_86:                              # %if.end378
	jmp	.LBB28_87
.LBB28_87:                              # %if.end379
	jmp	.LBB28_88
.LBB28_88:                              # %if.end380
	jmp	.LBB28_89
.LBB28_89:                              # %if.end381
	jmp	.LBB28_90
.LBB28_90:                              # %if.end382
	jmp	.LBB28_91
.LBB28_91:                              # %if.end383
	movl	-4(%rbp), %eax
	cmpl	-64(%rbp), %eax
	jne	.LBB28_101
# %bb.92:                               # %if.then386
	cmpl	$25, -36(%rbp)
	jne	.LBB28_94
# %bb.93:                               # %if.then389
	movq	-16(%rbp), %rdi
	movl	$1, %esi
	callq	biari_encode_symbol_final
	jmp	.LBB28_102
.LBB28_94:                              # %if.end390
	movq	-16(%rbp), %rdi
	xorl	%esi, %esi
	callq	biari_encode_symbol_final
	movl	$8, -20(%rbp)
	movl	-36(%rbp), %eax
	cltd
	movl	$12, %ecx
	idivl	%ecx
	movl	%eax, -4(%rbp)
	movq	-16(%rbp), %rdi
	movl	-4(%rbp), %eax
	movzbl	%al, %eax
	movq	-32(%rbp), %rdx
	addq	$176, %rdx
	movslq	-20(%rbp), %rcx
	shlq	$4, %rcx
	addq	%rcx, %rdx
	movswl	%ax, %esi
	callq	biari_encode_symbol
	movl	-36(%rbp), %eax
	cltd
	movl	$12, %ecx
	idivl	%ecx
	movl	%edx, -36(%rbp)
	movl	-36(%rbp), %eax
	cltd
	movl	$4, %ecx
	idivl	%ecx
	movl	%eax, -4(%rbp)
	movl	$9, -20(%rbp)
	cmpl	$0, -4(%rbp)
	jne	.LBB28_96
# %bb.95:                               # %if.then403
	movq	-16(%rbp), %rdi
	movq	-32(%rbp), %rdx
	addq	$176, %rdx
	movslq	-20(%rbp), %rax
	shlq	$4, %rax
	addq	%rax, %rdx
	xorl	%esi, %esi
	callq	biari_encode_symbol
	jmp	.LBB28_100
.LBB28_96:                              # %if.else409
	movq	-16(%rbp), %rdi
	movq	-32(%rbp), %rdx
	addq	$176, %rdx
	movslq	-20(%rbp), %rax
	shlq	$4, %rax
	addq	%rax, %rdx
	movl	$1, %esi
	callq	biari_encode_symbol
	cmpl	$1, -4(%rbp)
	jne	.LBB28_98
# %bb.97:                               # %if.then417
	movq	-16(%rbp), %rdi
	movq	-32(%rbp), %rdx
	addq	$176, %rdx
	movslq	-20(%rbp), %rax
	shlq	$4, %rax
	addq	%rax, %rdx
	xorl	%esi, %esi
	callq	biari_encode_symbol
	jmp	.LBB28_99
.LBB28_98:                              # %if.else423
	movq	-16(%rbp), %rdi
	movq	-32(%rbp), %rdx
	addq	$176, %rdx
	movslq	-20(%rbp), %rax
	shlq	$4, %rax
	addq	%rax, %rdx
	movl	$1, %esi
	callq	biari_encode_symbol
.LBB28_99:                              # %if.end429
	jmp	.LBB28_100
.LBB28_100:                             # %if.end430
	movl	-36(%rbp), %eax
	cltd
	movl	$4, %ecx
	idivl	%ecx
	movl	%edx, -36(%rbp)
	movl	$10, -20(%rbp)
	movl	-36(%rbp), %eax
	cltd
	movl	$2, %ecx
	idivl	%ecx
	movl	%eax, -4(%rbp)
	movq	-16(%rbp), %rdi
	movl	-4(%rbp), %eax
	movzbl	%al, %eax
	movq	-32(%rbp), %rdx
	addq	$176, %rdx
	movslq	-20(%rbp), %rcx
	shlq	$4, %rcx
	addq	%rcx, %rdx
	movswl	%ax, %esi
	callq	biari_encode_symbol
	movl	-36(%rbp), %eax
	cltd
	movl	$2, %ecx
	idivl	%ecx
	movl	%edx, -4(%rbp)
	movq	-16(%rbp), %rdi
	movl	-4(%rbp), %eax
	movzbl	%al, %eax
	movq	-32(%rbp), %rdx
	addq	$176, %rdx
	movslq	-20(%rbp), %rcx
	shlq	$4, %rcx
	addq	%rcx, %rdx
	movswl	%ax, %esi
	callq	biari_encode_symbol
.LBB28_101:                             # %if.end448
	jmp	.LBB28_102
.LBB28_102:                             # %if.end449
	cmpl	$1541151207, -84(%rbp)  # imm = 0x5BDC19E7
	jne	.LBB28_104
.LBB28_103:
	addq	$96, %rsp
	popq	%rbp
	.cfi_def_cfa %rsp, 8
	retq
.LBB28_104:                             # %func_exit
	.cfi_def_cfa %rbp, 16
	callq	detect_breach
	jmp	.LBB28_103
.Lfunc_end28:
	.size	writeMB_typeInfo_CABAC.1, .Lfunc_end28-writeMB_typeInfo_CABAC.1
	.cfi_endproc
	.section	.rodata,"a",@progbits
	.p2align	3
.LJTI28_0:
	.quad	.LBB28_37
	.quad	.LBB28_38
	.quad	.LBB28_39
	.quad	.LBB28_40
	.quad	.LBB28_41
	.quad	.LBB28_41
	.quad	.LBB28_42
	.quad	.LBB28_43
                                        # -- End function
	.text
	.globl	writeCBP_BIT_CABAC.2    # -- Begin function writeCBP_BIT_CABAC.2
	.p2align	4, 0x90
	.type	writeCBP_BIT_CABAC.2,@function
writeCBP_BIT_CABAC.2:                   # @writeCBP_BIT_CABAC.2
	.cfi_startproc
# %bb.0:                                # %entry
	pushq	%rbp
	.cfi_def_cfa_offset 16
	.cfi_offset %rbp, -16
	movq	%rsp, %rbp
	.cfi_def_cfa_register %rbp
	subq	$80, %rsp
	movl	$1259301667, -36(%rbp)  # imm = 0x4B0F6B23
	movl	%edi, -20(%rbp)
	movl	%esi, -40(%rbp)
	movl	%edx, -24(%rbp)
	movq	%rcx, -32(%rbp)
	movl	%r8d, -52(%rbp)
	movq	%r9, -48(%rbp)
	movl	-20(%rbp), %eax
	cltd
	movl	$2, %ecx
	idivl	%ecx
	shll	$1, %edx
	movl	%edx, -4(%rbp)
	movl	-20(%rbp), %eax
	cltd
	idivl	%ecx
	shll	$1, %eax
	movl	%eax, -16(%rbp)
	cmpl	$0, -16(%rbp)
	jne	.LBB29_8
# %bb.1:                                # %if.then
	movq	-32(%rbp), %rax
	cmpq	$0, 56(%rax)
	jne	.LBB29_3
# %bb.2:                                # %if.then3
	movl	$0, -12(%rbp)
	jmp	.LBB29_7
.LBB29_3:                               # %if.else
	movq	-32(%rbp), %rax
	movq	56(%rax), %rax
	cmpl	$14, 72(%rax)
	jne	.LBB29_5
# %bb.4:                                # %if.then6
	movl	$0, -12(%rbp)
	jmp	.LBB29_6
.LBB29_5:                               # %if.else7
	xorl	%esi, %esi
	movq	-32(%rbp), %rax
	movq	56(%rax), %rax
	movl	460(%rax), %edi
	movl	-4(%rbp), %eax
	cltd
	movl	$2, %ecx
	idivl	%ecx
	addl	$2, %eax
	movl	%eax, %ecx
                                        # kill: def $cl killed $ecx
	movl	$1, %eax
	movl	$1, %edx
	shll	%cl, %edx
	andl	%edx, %edi
	cmpl	$0, %edi
	cmovel	%eax, %esi
	movl	%esi, -12(%rbp)
.LBB29_6:                               # %if.end
	jmp	.LBB29_7
.LBB29_7:                               # %if.end13
	jmp	.LBB29_9
.LBB29_8:                               # %if.else14
	xorl	%esi, %esi
	movl	-24(%rbp), %edi
	movl	-4(%rbp), %eax
	cltd
	movl	$2, %ecx
	idivl	%ecx
	movl	%eax, %ecx
                                        # kill: def $cl killed $ecx
	movl	$1, %eax
	movl	$1, %edx
	shll	%cl, %edx
	andl	%edx, %edi
	cmpl	$0, %edi
	cmovel	%eax, %esi
	movl	%esi, -12(%rbp)
.LBB29_9:                               # %if.end20
	cmpl	$0, -4(%rbp)
	jne	.LBB29_17
# %bb.10:                               # %if.then22
	movq	img, %rax
	movl	12(%rax), %edi
	movl	-4(%rbp), %esi
	movl	-16(%rbp), %edx
	movl	$4294967295, %ecx       # imm = 0xFFFFFFFF
	xorl	%r8d, %r8d
	leaq	-80(%rbp), %r9
	callq	getLuma4x4Neighbour
	cmpl	$0, -80(%rbp)
	je	.LBB29_15
# %bb.11:                               # %if.then23
	movq	img, %rax
	movq	14168(%rax), %rax
	movslq	-76(%rbp), %rcx
	imulq	$632, %rcx, %rcx        # imm = 0x278
	addq	%rcx, %rax
	cmpl	$14, 72(%rax)
	jne	.LBB29_13
# %bb.12:                               # %if.then26
	movl	$0, -8(%rbp)
	jmp	.LBB29_14
.LBB29_13:                              # %if.else27
	xorl	%esi, %esi
	movq	img, %rax
	movq	14168(%rax), %rax
	movslq	-76(%rbp), %rcx
	imulq	$632, %rcx, %rcx        # imm = 0x278
	addq	%rcx, %rax
	movl	460(%rax), %edi
	movl	-68(%rbp), %eax
	cltd
	movl	$2, %ecx
	idivl	%ecx
	shll	$1, %eax
	addl	$1, %eax
	movl	%eax, %ecx
                                        # kill: def $cl killed $ecx
	movl	$1, %eax
	movl	$1, %edx
	shll	%cl, %edx
	andl	%edx, %edi
	cmpl	$0, %edi
	cmovel	%eax, %esi
	movl	%esi, -8(%rbp)
.LBB29_14:                              # %if.end39
	jmp	.LBB29_16
.LBB29_15:                              # %if.else40
	movl	$0, -8(%rbp)
.LBB29_16:                              # %if.end41
	jmp	.LBB29_18
.LBB29_17:                              # %if.else42
	xorl	%eax, %eax
	movl	-24(%rbp), %edx
	movl	-16(%rbp), %ecx
                                        # kill: def $cl killed $ecx
	movl	$1, %esi
	movl	$1, %edi
	shll	%cl, %edi
	andl	%edi, %edx
	cmpl	$0, %edx
	cmovel	%esi, %eax
	movl	%eax, -8(%rbp)
.LBB29_18:                              # %if.end47
	movq	-48(%rbp), %rdi
	movl	-40(%rbp), %eax
	movzbl	%al, %eax
	movq	img, %rcx
	movq	14160(%rcx), %rcx
	movq	40(%rcx), %rdx
	addq	$96, %rdx
	movslq	-8(%rbp), %rcx
	shlq	$4, %rcx
	addq	%rcx, %rdx
	movl	-12(%rbp), %ecx
	shll	$1, %ecx
	movslq	%ecx, %rcx
	shlq	$4, %rcx
	addq	%rcx, %rdx
	movswl	%ax, %esi
	callq	biari_encode_symbol
	cmpl	$1259301667, -36(%rbp)  # imm = 0x4B0F6B23
	jne	.LBB29_20
.LBB29_19:
	addq	$80, %rsp
	popq	%rbp
	.cfi_def_cfa %rsp, 8
	retq
.LBB29_20:                              # %func_exit
	.cfi_def_cfa %rbp, 16
	callq	detect_breach
	jmp	.LBB29_19
.Lfunc_end29:
	.size	writeCBP_BIT_CABAC.2, .Lfunc_end29-writeCBP_BIT_CABAC.2
	.cfi_endproc
                                        # -- End function
	.globl	writeCIPredMode_CABAC.3 # -- Begin function writeCIPredMode_CABAC.3
	.p2align	4, 0x90
	.type	writeCIPredMode_CABAC.3,@function
writeCIPredMode_CABAC.3:                # @writeCIPredMode_CABAC.3
	.cfi_startproc
# %bb.0:                                # %entry
	pushq	%rbp
	.cfi_def_cfa_offset 16
	.cfi_offset %rbp, -16
	movq	%rsp, %rbp
	.cfi_def_cfa_register %rbp
	subq	$64, %rsp
	movl	$1928177965, -44(%rbp)  # imm = 0x72EDA92D
	movq	%rdi, -56(%rbp)
	movq	%rsi, -40(%rbp)
	movq	img, %rax
	movq	14160(%rax), %rax
	movq	40(%rax), %rax
	movq	%rax, -32(%rbp)
	movq	img, %rax
	movq	14168(%rax), %rax
	movq	img, %rcx
	movslq	12(%rcx), %rcx
	imulq	$632, %rcx, %rcx        # imm = 0x278
	addq	%rcx, %rax
	movq	%rax, -24(%rbp)
	movq	-56(%rbp), %rax
	movl	4(%rax), %eax
	movl	%eax, -8(%rbp)
	movq	-24(%rbp), %rax
	cmpq	$0, 56(%rax)
	jne	.LBB30_2
# %bb.1:                                # %if.then
	movl	$0, -16(%rbp)
	jmp	.LBB30_3
.LBB30_2:                               # %if.else
	xorl	%eax, %eax
	movq	-24(%rbp), %rcx
	movq	56(%rcx), %rcx
	movl	524(%rcx), %ecx
	cmpl	$0, %ecx
	movl	$1, %ecx
	cmovnel	%ecx, %eax
	movl	%eax, -16(%rbp)
.LBB30_3:                               # %if.end
	movq	-24(%rbp), %rax
	cmpq	$0, 64(%rax)
	jne	.LBB30_5
# %bb.4:                                # %if.then4
	movl	$0, -12(%rbp)
	jmp	.LBB30_6
.LBB30_5:                               # %if.else5
	xorl	%eax, %eax
	movq	-24(%rbp), %rcx
	movq	64(%rcx), %rcx
	movl	524(%rcx), %ecx
	cmpl	$0, %ecx
	movl	$1, %ecx
	cmovnel	%ecx, %eax
	movl	%eax, -12(%rbp)
.LBB30_6:                               # %if.end10
	movl	-12(%rbp), %eax
	addl	-16(%rbp), %eax
	movl	%eax, -4(%rbp)
	cmpl	$0, -8(%rbp)
	jne	.LBB30_8
# %bb.7:                                # %if.then12
	movq	-40(%rbp), %rdi
	movq	-32(%rbp), %rdx
	addq	$32, %rdx
	movslq	-4(%rbp), %rax
	shlq	$4, %rax
	addq	%rax, %rdx
	xorl	%esi, %esi
	callq	biari_encode_symbol
	jmp	.LBB30_9
.LBB30_8:                               # %if.else13
	movq	-40(%rbp), %rdi
	movq	-32(%rbp), %rdx
	addq	$32, %rdx
	movslq	-4(%rbp), %rax
	shlq	$4, %rax
	addq	%rax, %rdx
	movl	$1, %esi
	callq	biari_encode_symbol
	movq	-40(%rbp), %rdi
	movl	-8(%rbp), %esi
	subl	$1, %esi
	movq	-32(%rbp), %rdx
	addq	$32, %rdx
	addq	$48, %rdx
	xorl	%ecx, %ecx
	movl	$2, %r8d
	callq	unary_bin_max_encode
.LBB30_9:                               # %if.end21
	cmpl	$1928177965, -44(%rbp)  # imm = 0x72EDA92D
	jne	.LBB30_11
.LBB30_10:
	addq	$64, %rsp
	popq	%rbp
	.cfi_def_cfa %rsp, 8
	retq
.LBB30_11:                              # %func_exit
	.cfi_def_cfa %rbp, 16
	callq	detect_breach
	jmp	.LBB30_10
.Lfunc_end30:
	.size	writeCIPredMode_CABAC.3, .Lfunc_end30-writeCIPredMode_CABAC.3
	.cfi_endproc
                                        # -- End function
	.globl	writeCBP_CABAC.4        # -- Begin function writeCBP_CABAC.4
	.p2align	4, 0x90
	.type	writeCBP_CABAC.4,@function
writeCBP_CABAC.4:                       # @writeCBP_CABAC.4
	.cfi_startproc
# %bb.0:                                # %entry
	pushq	%rbp
	.cfi_def_cfa_offset 16
	.cfi_offset %rbp, -16
	movq	%rsp, %rbp
	.cfi_def_cfa_register %rbp
	subq	$64, %rsp
	movl	$1277823961, -44(%rbp)  # imm = 0x4C2A0BD9
	movq	%rdi, -64(%rbp)
	movq	%rsi, -40(%rbp)
	movq	img, %rax
	movq	14160(%rax), %rax
	movq	40(%rax), %rax
	movq	%rax, -56(%rbp)
	movq	img, %rax
	movq	14168(%rax), %rax
	movq	img, %rcx
	movslq	12(%rcx), %rcx
	imulq	$632, %rcx, %rcx        # imm = 0x278
	addq	%rcx, %rax
	movq	%rax, -8(%rbp)
	movq	-64(%rbp), %rax
	movl	4(%rax), %eax
	movl	%eax, -24(%rbp)
	movl	$0, -20(%rbp)
.LBB31_1:                               # %for.cond
                                        # =>This Inner Loop Header: Depth=1
	cmpl	$4, -20(%rbp)
	jge	.LBB31_4
# %bb.2:                                # %for.body
                                        #   in Loop: Header=BB31_1 Depth=1
	xorl	%eax, %eax
	movq	-8(%rbp), %rcx
	movslq	-20(%rbp), %rdx
	movl	472(%rcx,%rdx,4), %ecx
	cmpl	$11, %ecx
	movl	$1, %edx
	movl	$1, %ecx
	cmovel	%eax, %ecx
	movl	%ecx, -48(%rbp)
	movl	-20(%rbp), %edi
	movl	-24(%rbp), %esi
	movl	-20(%rbp), %ecx
                                        # kill: def $cl killed $ecx
	shll	%cl, %edx
	andl	%edx, %esi
	movl	-24(%rbp), %edx
	movq	-8(%rbp), %rcx
	movl	-48(%rbp), %r8d
	movq	-40(%rbp), %r9
	callq	writeCBP_BIT_CABAC
# %bb.3:                                # %for.inc
                                        #   in Loop: Header=BB31_1 Depth=1
	movl	-20(%rbp), %eax
	addl	$1, %eax
	movl	%eax, -20(%rbp)
	jmp	.LBB31_1
.LBB31_4:                               # %for.end
	movq	img, %rax
	cmpl	$0, 72700(%rax)
	je	.LBB31_32
# %bb.5:                                # %if.then
	movl	$0, -12(%rbp)
	movq	-8(%rbp), %rax
	cmpq	$0, 56(%rax)
	je	.LBB31_10
# %bb.6:                                # %if.then6
	movq	-8(%rbp), %rax
	movq	56(%rax), %rax
	cmpl	$14, 72(%rax)
	jne	.LBB31_8
# %bb.7:                                # %if.then9
	movl	$1, -12(%rbp)
	jmp	.LBB31_9
.LBB31_8:                               # %if.else
	xorl	%eax, %eax
	movq	-8(%rbp), %rcx
	movq	56(%rcx), %rcx
	movl	460(%rcx), %ecx
	cmpl	$15, %ecx
	movl	$1, %ecx
	cmovgl	%ecx, %eax
	movl	%eax, -12(%rbp)
.LBB31_9:                               # %if.end
	jmp	.LBB31_10
.LBB31_10:                              # %if.end14
	movl	$0, -16(%rbp)
	movq	-8(%rbp), %rax
	cmpq	$0, 64(%rax)
	je	.LBB31_15
# %bb.11:                               # %if.then16
	movq	-8(%rbp), %rax
	movq	64(%rax), %rax
	cmpl	$14, 72(%rax)
	jne	.LBB31_13
# %bb.12:                               # %if.then20
	movl	$1, -16(%rbp)
	jmp	.LBB31_14
.LBB31_13:                              # %if.else21
	xorl	%eax, %eax
	movq	-8(%rbp), %rcx
	movq	64(%rcx), %rcx
	movl	460(%rcx), %ecx
	cmpl	$15, %ecx
	movl	$1, %ecx
	cmovgl	%ecx, %eax
	movl	%eax, -16(%rbp)
.LBB31_14:                              # %if.end26
	jmp	.LBB31_15
.LBB31_15:                              # %if.end27
	xorl	%eax, %eax
	movl	-16(%rbp), %ecx
	movl	-12(%rbp), %edx
	shll	$1, %edx
	addl	%edx, %ecx
	movl	%ecx, -28(%rbp)
	movl	-24(%rbp), %ecx
	cmpl	$15, %ecx
	movl	$1, %ecx
	cmovgl	%ecx, %eax
	movl	%eax, -32(%rbp)
	movq	-40(%rbp), %rdi
	movl	-32(%rbp), %eax
	movzbl	%al, %eax
	movq	-56(%rbp), %rdx
	addq	$96, %rdx
	addq	$64, %rdx
	movslq	-28(%rbp), %rcx
	shlq	$4, %rcx
	addq	%rcx, %rdx
	movswl	%ax, %esi
	callq	biari_encode_symbol
	cmpl	$15, -24(%rbp)
	jle	.LBB31_31
# %bb.16:                               # %if.then34
	movl	$0, -12(%rbp)
	movq	-8(%rbp), %rax
	cmpq	$0, 56(%rax)
	je	.LBB31_23
# %bb.17:                               # %if.then38
	movq	-8(%rbp), %rax
	movq	56(%rax), %rax
	cmpl	$14, 72(%rax)
	jne	.LBB31_19
# %bb.18:                               # %if.then43
	movl	$1, -12(%rbp)
	jmp	.LBB31_22
.LBB31_19:                              # %if.else44
	movq	-8(%rbp), %rax
	movq	56(%rax), %rax
	cmpl	$15, 460(%rax)
	jle	.LBB31_21
# %bb.20:                               # %if.then49
	xorl	%eax, %eax
	movq	-8(%rbp), %rcx
	movq	56(%rcx), %rcx
	movl	460(%rcx), %ecx
	sarl	$4, %ecx
	cmpl	$2, %ecx
	movl	$1, %ecx
	cmovel	%ecx, %eax
	movl	%eax, -12(%rbp)
.LBB31_21:                              # %if.end55
	jmp	.LBB31_22
.LBB31_22:                              # %if.end56
	jmp	.LBB31_23
.LBB31_23:                              # %if.end57
	movl	$0, -16(%rbp)
	movq	-8(%rbp), %rax
	cmpq	$0, 64(%rax)
	je	.LBB31_30
# %bb.24:                               # %if.then61
	movq	-8(%rbp), %rax
	movq	64(%rax), %rax
	cmpl	$14, 72(%rax)
	jne	.LBB31_26
# %bb.25:                               # %if.then66
	movl	$1, -16(%rbp)
	jmp	.LBB31_29
.LBB31_26:                              # %if.else67
	movq	-8(%rbp), %rax
	movq	64(%rax), %rax
	cmpl	$15, 460(%rax)
	jle	.LBB31_28
# %bb.27:                               # %if.then72
	xorl	%eax, %eax
	movq	-8(%rbp), %rcx
	movq	64(%rcx), %rcx
	movl	460(%rcx), %ecx
	sarl	$4, %ecx
	cmpl	$2, %ecx
	movl	$1, %ecx
	cmovel	%ecx, %eax
	movl	%eax, -16(%rbp)
.LBB31_28:                              # %if.end79
	jmp	.LBB31_29
.LBB31_29:                              # %if.end80
	jmp	.LBB31_30
.LBB31_30:                              # %if.end81
	xorl	%eax, %eax
	movl	-16(%rbp), %ecx
	movl	-12(%rbp), %edx
	shll	$1, %edx
	addl	%edx, %ecx
	movl	%ecx, -28(%rbp)
	movl	-24(%rbp), %ecx
	sarl	$4, %ecx
	cmpl	$2, %ecx
	movl	$1, %ecx
	cmovel	%ecx, %eax
	movl	%eax, -32(%rbp)
	movq	-40(%rbp), %rdi
	movl	-32(%rbp), %eax
	movzbl	%al, %eax
	movq	-56(%rbp), %rdx
	addq	$96, %rdx
	addq	$128, %rdx
	movslq	-28(%rbp), %rcx
	shlq	$4, %rcx
	addq	%rcx, %rdx
	movswl	%ax, %esi
	callq	biari_encode_symbol
.LBB31_31:                              # %if.end95
	jmp	.LBB31_32
.LBB31_32:                              # %if.end96
	cmpl	$1277823961, -44(%rbp)  # imm = 0x4C2A0BD9
	jne	.LBB31_34
.LBB31_33:
	addq	$64, %rsp
	popq	%rbp
	.cfi_def_cfa %rsp, 8
	retq
.LBB31_34:                              # %func_exit
	.cfi_def_cfa %rbp, 16
	callq	detect_breach
	jmp	.LBB31_33
.Lfunc_end31:
	.size	writeCBP_CABAC.4, .Lfunc_end31-writeCBP_CABAC.4
	.cfi_endproc
                                        # -- End function
	.globl	writeMB_transform_size_CABAC.5 # -- Begin function writeMB_transform_size_CABAC.5
	.p2align	4, 0x90
	.type	writeMB_transform_size_CABAC.5,@function
writeMB_transform_size_CABAC.5:         # @writeMB_transform_size_CABAC.5
	.cfi_startproc
# %bb.0:                                # %entry
	pushq	%rbp
	.cfi_def_cfa_offset 16
	.cfi_offset %rbp, -16
	movq	%rsp, %rbp
	.cfi_def_cfa_register %rbp
	subq	$64, %rsp
	movl	$2062003446, -28(%rbp)  # imm = 0x7AE7ACF6
	movq	%rdi, -56(%rbp)
	movq	%rsi, -48(%rbp)
	movl	$0, -4(%rbp)
	movq	img, %rax
	movq	14160(%rax), %rax
	movq	32(%rax), %rax
	movq	%rax, -40(%rbp)
	movq	img, %rax
	movq	14168(%rax), %rax
	movq	img, %rcx
	movslq	12(%rcx), %rcx
	imulq	$632, %rcx, %rcx        # imm = 0x278
	addq	%rcx, %rax
	movq	%rax, -16(%rbp)
	movq	-16(%rbp), %rax
	cmpq	$0, 56(%rax)
	jne	.LBB32_2
# %bb.1:                                # %if.then
	movl	$0, -20(%rbp)
	jmp	.LBB32_3
.LBB32_2:                               # %if.else
	movq	-16(%rbp), %rax
	movq	56(%rax), %rax
	movl	572(%rax), %eax
	movl	%eax, -20(%rbp)
.LBB32_3:                               # %if.end
	movq	-16(%rbp), %rax
	cmpq	$0, 64(%rax)
	jne	.LBB32_5
# %bb.4:                                # %if.then3
	movl	$0, -24(%rbp)
	jmp	.LBB32_6
.LBB32_5:                               # %if.else4
	movq	-16(%rbp), %rax
	movq	64(%rax), %rax
	movl	572(%rax), %eax
	movl	%eax, -24(%rbp)
.LBB32_6:                               # %if.end7
	movl	-24(%rbp), %eax
	addl	-20(%rbp), %eax
	movl	%eax, -4(%rbp)
	movq	-16(%rbp), %rax
	movl	572(%rax), %eax
	movl	%eax, -32(%rbp)
	movl	-4(%rbp), %eax
	movq	-56(%rbp), %rcx
	movl	%eax, 24(%rcx)
	cmpl	$0, -32(%rbp)
	jne	.LBB32_8
# %bb.7:                                # %if.then10
	movq	-48(%rbp), %rdi
	movq	-40(%rbp), %rdx
	addq	$1456, %rdx             # imm = 0x5B0
	movslq	-4(%rbp), %rax
	shlq	$4, %rax
	addq	%rax, %rdx
	xorl	%esi, %esi
	callq	biari_encode_symbol
	jmp	.LBB32_9
.LBB32_8:                               # %if.else11
	movq	-48(%rbp), %rdi
	movq	-40(%rbp), %rdx
	addq	$1456, %rdx             # imm = 0x5B0
	movslq	-4(%rbp), %rax
	shlq	$4, %rax
	addq	%rax, %rdx
	movl	$1, %esi
	callq	biari_encode_symbol
.LBB32_9:                               # %if.end16
	cmpl	$2062003446, -28(%rbp)  # imm = 0x7AE7ACF6
	jne	.LBB32_11
.LBB32_10:
	addq	$64, %rsp
	popq	%rbp
	.cfi_def_cfa %rsp, 8
	retq
.LBB32_11:                              # %func_exit
	.cfi_def_cfa %rbp, 16
	callq	detect_breach
	jmp	.LBB32_10
.Lfunc_end32:
	.size	writeMB_transform_size_CABAC.5, .Lfunc_end32-writeMB_transform_size_CABAC.5
	.cfi_endproc
                                        # -- End function
	.globl	exp_golomb_encode_eq_prob.6 # -- Begin function exp_golomb_encode_eq_prob.6
	.p2align	4, 0x90
	.type	exp_golomb_encode_eq_prob.6,@function
exp_golomb_encode_eq_prob.6:            # @exp_golomb_encode_eq_prob.6
	.cfi_startproc
# %bb.0:                                # %entry
	pushq	%rbp
	.cfi_def_cfa_offset 16
	.cfi_offset %rbp, -16
	movq	%rsp, %rbp
	.cfi_def_cfa_register %rbp
	subq	$32, %rsp
	movl	$2095428884, -20(%rbp)  # imm = 0x7CE5B514
	movq	%rdi, -16(%rbp)
	movl	%esi, -8(%rbp)
	movl	%edx, -4(%rbp)
.LBB33_1:                               # %while.body
                                        # =>This Inner Loop Header: Depth=1
	movl	-8(%rbp), %eax
	movl	-4(%rbp), %ecx
                                        # kill: def $cl killed $ecx
	movl	$1, %edx
	shll	%cl, %edx
	cmpl	%edx, %eax
	jb	.LBB33_3
# %bb.2:                                # %if.then
                                        #   in Loop: Header=BB33_1 Depth=1
	movq	-16(%rbp), %rdi
	movl	$1, %esi
	callq	biari_encode_symbol_eq_prob
	movl	-8(%rbp), %eax
	movl	-4(%rbp), %ecx
                                        # kill: def $cl killed $ecx
	movl	$1, %edx
	shll	%cl, %edx
	subl	%edx, %eax
	movl	%eax, -8(%rbp)
	movl	-4(%rbp), %eax
	addl	$1, %eax
	movl	%eax, -4(%rbp)
	jmp	.LBB33_7
.LBB33_3:                               # %if.else
	movq	-16(%rbp), %rdi
	xorl	%esi, %esi
	callq	biari_encode_symbol_eq_prob
.LBB33_4:                               # %while.cond2
                                        # =>This Inner Loop Header: Depth=1
	movl	-4(%rbp), %eax
	movl	%eax, %ecx
	addl	$-1, %ecx
	movl	%ecx, -4(%rbp)
	cmpl	$0, %eax
	je	.LBB33_6
# %bb.5:                                # %while.body3
                                        #   in Loop: Header=BB33_4 Depth=1
	movq	-16(%rbp), %rdi
	movl	-8(%rbp), %eax
	movl	-4(%rbp), %ecx
                                        # kill: def $cl killed $ecx
	shrl	%cl, %eax
	andl	$1, %eax
	movzbl	%al, %eax
	movswl	%ax, %esi
	callq	biari_encode_symbol_eq_prob
	jmp	.LBB33_4
.LBB33_6:                               # %while.end
	jmp	.LBB33_8
.LBB33_7:                               # %if.end
                                        #   in Loop: Header=BB33_1 Depth=1
	jmp	.LBB33_1
.LBB33_8:                               # %while.end5
	cmpl	$2095428884, -20(%rbp)  # imm = 0x7CE5B514
	jne	.LBB33_10
.LBB33_9:
	addq	$32, %rsp
	popq	%rbp
	.cfi_def_cfa %rsp, 8
	retq
.LBB33_10:                              # %func_exit
	.cfi_def_cfa %rbp, 16
	callq	detect_breach
	jmp	.LBB33_9
.Lfunc_end33:
	.size	exp_golomb_encode_eq_prob.6, .Lfunc_end33-exp_golomb_encode_eq_prob.6
	.cfi_endproc
                                        # -- End function
	.globl	writeRefFrame_CABAC.7   # -- Begin function writeRefFrame_CABAC.7
	.p2align	4, 0x90
	.type	writeRefFrame_CABAC.7,@function
writeRefFrame_CABAC.7:                  # @writeRefFrame_CABAC.7
	.cfi_startproc
# %bb.0:                                # %entry
	pushq	%rbp
	.cfi_def_cfa_offset 16
	.cfi_offset %rbp, -16
	movq	%rsp, %rbp
	.cfi_def_cfa_register %rbp
	subq	$128, %rsp
	movl	$463103440, -64(%rbp)   # imm = 0x1B9A65D0
	movq	%rdi, -48(%rbp)
	movq	%rsi, -40(%rbp)
	movq	img, %rax
	movq	14160(%rax), %rax
	movq	32(%rax), %rax
	movq	%rax, -56(%rbp)
	movq	img, %rax
	movq	14168(%rax), %rax
	movq	img, %rcx
	movslq	12(%rcx), %rcx
	imulq	$632, %rcx, %rcx        # imm = 0x278
	addq	%rcx, %rax
	movq	%rax, -128(%rbp)
	movl	$0, -20(%rbp)
	movq	enc_picture, %rax
	movq	6480(%rax), %rax
	movq	-48(%rbp), %rcx
	movslq	8(%rcx), %rcx
	movq	(%rax,%rcx,8), %rax
	movq	%rax, -32(%rbp)
	movq	img, %rax
	cmpl	$1, 24(%rax)
	sete	%al
	andb	$1, %al
	movzbl	%al, %eax
	movl	%eax, -24(%rbp)
	movq	img, %rax
	movl	12(%rax), %edi
	movq	img, %rax
	movl	72(%rax), %esi
	movq	img, %rax
	movl	76(%rax), %edx
	movl	$4294967295, %ecx       # imm = 0xFFFFFFFF
	xorl	%r8d, %r8d
	leaq	-96(%rbp), %r9
	callq	getLuma4x4Neighbour
	movq	img, %rax
	movl	12(%rax), %edi
	movq	img, %rax
	movl	72(%rax), %esi
	movq	img, %rax
	movl	76(%rax), %edx
	movl	$0, %ecx
	movl	$4294967295, %r8d       # imm = 0xFFFFFFFF
	leaq	-120(%rbp), %r9
	callq	getLuma4x4Neighbour
	movl	-88(%rbp), %eax
	cltd
	movl	$2, %esi
	idivl	%esi
	cltd
	idivl	%esi
	movl	%edx, %ecx
	movl	-84(%rbp), %eax
	cltd
	idivl	%esi
	cltd
	idivl	%esi
	shll	$1, %edx
	addl	%edx, %ecx
	movl	%ecx, -60(%rbp)
	movl	-112(%rbp), %eax
	cltd
	idivl	%esi
	cltd
	idivl	%esi
	movl	%edx, %ecx
	movl	-108(%rbp), %eax
	cltd
	idivl	%esi
	cltd
	idivl	%esi
	shll	$1, %edx
	addl	%edx, %ecx
	movl	%ecx, -68(%rbp)
	cmpl	$0, -120(%rbp)
	jne	.LBB34_2
# %bb.1:                                # %if.then
	movl	$0, -16(%rbp)
	jmp	.LBB34_14
.LBB34_2:                               # %if.else
	movq	img, %rax
	movq	14168(%rax), %rax
	movslq	-116(%rbp), %rcx
	imulq	$632, %rcx, %rcx        # imm = 0x278
	addq	%rcx, %rax
	cmpl	$0, 72(%rax)
	jne	.LBB34_4
# %bb.3:                                # %land.lhs.true
	movq	img, %rax
	cmpl	$1, 24(%rax)
	je	.LBB34_6
.LBB34_4:                               # %lor.lhs.false
	movq	img, %rax
	movq	14168(%rax), %rax
	movslq	-116(%rbp), %rcx
	imulq	$632, %rcx, %rcx        # imm = 0x278
	addq	%rcx, %rax
	movslq	-68(%rbp), %rcx
	cmpl	$0, 472(%rax,%rcx,4)
	jne	.LBB34_7
# %bb.5:                                # %land.lhs.true33
	cmpl	$0, -24(%rbp)
	je	.LBB34_7
.LBB34_6:                               # %if.then35
	movl	$0, -16(%rbp)
	jmp	.LBB34_13
.LBB34_7:                               # %if.else36
	movq	img, %rax
	cmpl	$0, 72400(%rax)
	je	.LBB34_11
# %bb.8:                                # %land.lhs.true38
	movq	-128(%rbp), %rax
	cmpl	$0, 532(%rax)
	jne	.LBB34_11
# %bb.9:                                # %land.lhs.true41
	movq	img, %rax
	movq	14168(%rax), %rax
	movslq	-116(%rbp), %rcx
	imulq	$632, %rcx, %rcx        # imm = 0x278
	addq	%rcx, %rax
	cmpl	$1, 532(%rax)
	jne	.LBB34_11
# %bb.10:                               # %if.then49
	xorl	%eax, %eax
	movq	-32(%rbp), %rcx
	movslq	-104(%rbp), %rdx
	movq	(%rcx,%rdx,8), %rcx
	movslq	-100(%rbp), %rdx
	movswl	(%rcx,%rdx,2), %ecx
	cmpl	$1, %ecx
	movl	$1, %ecx
	cmovgl	%ecx, %eax
	movl	%eax, -16(%rbp)
	jmp	.LBB34_12
.LBB34_11:                              # %if.else57
	xorl	%eax, %eax
	movq	-32(%rbp), %rcx
	movslq	-104(%rbp), %rdx
	movq	(%rcx,%rdx,8), %rcx
	movslq	-100(%rbp), %rdx
	movswl	(%rcx,%rdx,2), %ecx
	cmpl	$0, %ecx
	movl	$1, %ecx
	cmovgl	%ecx, %eax
	movl	%eax, -16(%rbp)
.LBB34_12:                              # %if.end
	jmp	.LBB34_13
.LBB34_13:                              # %if.end68
	jmp	.LBB34_14
.LBB34_14:                              # %if.end69
	cmpl	$0, -96(%rbp)
	jne	.LBB34_16
# %bb.15:                               # %if.then72
	movl	$0, -8(%rbp)
	jmp	.LBB34_28
.LBB34_16:                              # %if.else73
	movq	img, %rax
	movq	14168(%rax), %rax
	movslq	-92(%rbp), %rcx
	imulq	$632, %rcx, %rcx        # imm = 0x278
	addq	%rcx, %rax
	cmpl	$0, 72(%rax)
	jne	.LBB34_18
# %bb.17:                               # %land.lhs.true81
	movq	img, %rax
	cmpl	$1, 24(%rax)
	je	.LBB34_20
.LBB34_18:                              # %lor.lhs.false85
	movq	img, %rax
	movq	14168(%rax), %rax
	movslq	-92(%rbp), %rcx
	imulq	$632, %rcx, %rcx        # imm = 0x278
	addq	%rcx, %rax
	movslq	-60(%rbp), %rcx
	cmpl	$0, 472(%rax,%rcx,4)
	jne	.LBB34_21
# %bb.19:                               # %land.lhs.true95
	cmpl	$0, -24(%rbp)
	je	.LBB34_21
.LBB34_20:                              # %if.then97
	movl	$0, -8(%rbp)
	jmp	.LBB34_27
.LBB34_21:                              # %if.else98
	movq	img, %rax
	cmpl	$0, 72400(%rax)
	je	.LBB34_25
# %bb.22:                               # %land.lhs.true101
	movq	-128(%rbp), %rax
	cmpl	$0, 532(%rax)
	jne	.LBB34_25
# %bb.23:                               # %land.lhs.true105
	movq	img, %rax
	movq	14168(%rax), %rax
	movslq	-92(%rbp), %rcx
	imulq	$632, %rcx, %rcx        # imm = 0x278
	addq	%rcx, %rax
	cmpl	$1, 532(%rax)
	jne	.LBB34_25
# %bb.24:                               # %if.then113
	xorl	%eax, %eax
	movq	-32(%rbp), %rcx
	movslq	-80(%rbp), %rdx
	movq	(%rcx,%rdx,8), %rcx
	movslq	-76(%rbp), %rdx
	movswl	(%rcx,%rdx,2), %ecx
	cmpl	$1, %ecx
	movl	$1, %ecx
	cmovgl	%ecx, %eax
	movl	%eax, -8(%rbp)
	jmp	.LBB34_26
.LBB34_25:                              # %if.else124
	xorl	%eax, %eax
	movq	-32(%rbp), %rcx
	movslq	-80(%rbp), %rdx
	movq	(%rcx,%rdx,8), %rcx
	movslq	-76(%rbp), %rdx
	movswl	(%rcx,%rdx,2), %ecx
	cmpl	$0, %ecx
	movl	$1, %ecx
	cmovgl	%ecx, %eax
	movl	%eax, -8(%rbp)
.LBB34_26:                              # %if.end135
	jmp	.LBB34_27
.LBB34_27:                              # %if.end136
	jmp	.LBB34_28
.LBB34_28:                              # %if.end137
	movl	-8(%rbp), %eax
	movl	-16(%rbp), %ecx
	shll	$1, %ecx
	addl	%ecx, %eax
	movl	%eax, -4(%rbp)
	movl	-4(%rbp), %eax
	movq	-48(%rbp), %rcx
	movl	%eax, 24(%rcx)
	movq	-48(%rbp), %rax
	movl	4(%rax), %eax
	movl	%eax, -12(%rbp)
	cmpl	$0, -12(%rbp)
	jne	.LBB34_30
# %bb.29:                               # %if.then142
	movq	-40(%rbp), %rdi
	movq	-56(%rbp), %rdx
	addq	$1136, %rdx             # imm = 0x470
	movslq	-20(%rbp), %rax
	imulq	$96, %rax, %rax
	addq	%rax, %rdx
	movslq	-4(%rbp), %rax
	shlq	$4, %rax
	addq	%rax, %rdx
	xorl	%esi, %esi
	callq	biari_encode_symbol
	jmp	.LBB34_31
.LBB34_30:                              # %if.else145
	movq	-40(%rbp), %rdi
	movq	-56(%rbp), %rdx
	addq	$1136, %rdx             # imm = 0x470
	movslq	-20(%rbp), %rax
	imulq	$96, %rax, %rax
	addq	%rax, %rdx
	movslq	-4(%rbp), %rax
	shlq	$4, %rax
	addq	%rax, %rdx
	movl	$1, %esi
	callq	biari_encode_symbol
	movl	-12(%rbp), %eax
	addl	$-1, %eax
	movl	%eax, -12(%rbp)
	movl	$4, -4(%rbp)
	movq	-40(%rbp), %rdi
	movl	-12(%rbp), %esi
	movq	-56(%rbp), %rdx
	addq	$1136, %rdx             # imm = 0x470
	movslq	-20(%rbp), %rax
	imulq	$96, %rax, %rax
	addq	%rax, %rdx
	movslq	-4(%rbp), %rax
	shlq	$4, %rax
	addq	%rax, %rdx
	movl	$1, %ecx
	callq	unary_bin_encode
.LBB34_31:                              # %if.end158
	cmpl	$463103440, -64(%rbp)   # imm = 0x1B9A65D0
	jne	.LBB34_33
.LBB34_32:
	addq	$128, %rsp
	popq	%rbp
	.cfi_def_cfa %rsp, 8
	retq
.LBB34_33:                              # %func_exit
	.cfi_def_cfa %rbp, 16
	callq	detect_breach
	jmp	.LBB34_32
.Lfunc_end34:
	.size	writeRefFrame_CABAC.7, .Lfunc_end34-writeRefFrame_CABAC.7
	.cfi_endproc
                                        # -- End function
	.globl	writeIntraPredMode_CABAC.8 # -- Begin function writeIntraPredMode_CABAC.8
	.p2align	4, 0x90
	.type	writeIntraPredMode_CABAC.8,@function
writeIntraPredMode_CABAC.8:             # @writeIntraPredMode_CABAC.8
	.cfi_startproc
# %bb.0:                                # %entry
	pushq	%rbp
	.cfi_def_cfa_offset 16
	.cfi_offset %rbp, -16
	movq	%rsp, %rbp
	.cfi_def_cfa_register %rbp
	subq	$32, %rsp
	movl	$1545563347, -28(%rbp)  # imm = 0x5C1F6CD3
	movq	%rdi, -24(%rbp)
	movq	%rsi, -8(%rbp)
	movq	img, %rax
	movq	14160(%rax), %rax
	movq	40(%rax), %rax
	movq	%rax, -16(%rbp)
	movq	-24(%rbp), %rax
	cmpl	$-1, 4(%rax)
	jne	.LBB35_2
# %bb.1:                                # %if.then
	movq	-8(%rbp), %rdi
	movq	-16(%rbp), %rdx
	movl	$1, %esi
	callq	biari_encode_symbol
	jmp	.LBB35_3
.LBB35_2:                               # %if.else
	movq	-8(%rbp), %rdi
	movq	-16(%rbp), %rdx
	xorl	%esi, %esi
	callq	biari_encode_symbol
	movq	-8(%rbp), %rdi
	movq	-24(%rbp), %rax
	movl	4(%rax), %eax
	andl	$1, %eax
	movq	-16(%rbp), %rdx
	addq	$16, %rdx
	movswl	%ax, %esi
	callq	biari_encode_symbol
	movq	-8(%rbp), %rdi
	movq	-24(%rbp), %rax
	movl	4(%rax), %eax
	andl	$2, %eax
	sarl	$1, %eax
	movq	-16(%rbp), %rdx
	addq	$16, %rdx
	movswl	%ax, %esi
	callq	biari_encode_symbol
	movq	-8(%rbp), %rdi
	movq	-24(%rbp), %rax
	movl	4(%rax), %eax
	andl	$4, %eax
	sarl	$2, %eax
	movq	-16(%rbp), %rdx
	addq	$16, %rdx
	movswl	%ax, %esi
	callq	biari_encode_symbol
.LBB35_3:                               # %if.end
	cmpl	$1545563347, -28(%rbp)  # imm = 0x5C1F6CD3
	jne	.LBB35_5
.LBB35_4:
	addq	$32, %rsp
	popq	%rbp
	.cfi_def_cfa %rsp, 8
	retq
.LBB35_5:                               # %func_exit
	.cfi_def_cfa %rbp, 16
	callq	detect_breach
	jmp	.LBB35_4
.Lfunc_end35:
	.size	writeIntraPredMode_CABAC.8, .Lfunc_end35-writeIntraPredMode_CABAC.8
	.cfi_endproc
                                        # -- End function
	.globl	writeB8_typeInfo_CABAC.9 # -- Begin function writeB8_typeInfo_CABAC.9
	.p2align	4, 0x90
	.type	writeB8_typeInfo_CABAC.9,@function
writeB8_typeInfo_CABAC.9:               # @writeB8_typeInfo_CABAC.9
	.cfi_startproc
# %bb.0:                                # %entry
	pushq	%rbp
	.cfi_def_cfa_offset 16
	.cfi_offset %rbp, -16
	movq	%rsp, %rbp
	.cfi_def_cfa_register %rbp
	subq	$48, %rsp
	movl	$2141959757, -28(%rbp)  # imm = 0x7FABB64D
	movq	%rdi, -40(%rbp)
	movq	%rsi, -16(%rbp)
	movq	img, %rax
	cmpl	$1, 24(%rax)
	sete	%al
	andb	$1, %al
	movzbl	%al, %eax
	movl	%eax, -32(%rbp)
	movq	img, %rax
	movq	14160(%rax), %rax
	movq	32(%rax), %rax
	movq	%rax, -8(%rbp)
	movq	-40(%rbp), %rax
	movl	4(%rax), %eax
	movl	%eax, -20(%rbp)
	movl	$0, -44(%rbp)
	cmpl	$0, -32(%rbp)
	jne	.LBB36_8
# %bb.1:                                # %if.then
	movl	-20(%rbp), %eax
	movq	%rax, %rcx
	subq	$3, %rcx
	ja	.LBB36_7
# %bb.2:                                # %if.then
	movq	.LJTI36_0(,%rax,8), %rax
	jmpq	*%rax
.LBB36_3:                               # %sw.bb
	movq	-16(%rbp), %rdi
	movq	-8(%rbp), %rdx
	addq	$528, %rdx              # imm = 0x210
	addq	$16, %rdx
	movl	$1, %esi
	callq	biari_encode_symbol
	jmp	.LBB36_7
.LBB36_4:                               # %sw.bb2
	movq	-16(%rbp), %rdi
	movq	-8(%rbp), %rdx
	addq	$528, %rdx              # imm = 0x210
	addq	$16, %rdx
	xorl	%esi, %esi
	callq	biari_encode_symbol
	movq	-16(%rbp), %rdi
	movq	-8(%rbp), %rdx
	addq	$528, %rdx              # imm = 0x210
	addq	$48, %rdx
	xorl	%esi, %esi
	callq	biari_encode_symbol
	jmp	.LBB36_7
.LBB36_5:                               # %sw.bb9
	movq	-16(%rbp), %rdi
	movq	-8(%rbp), %rdx
	addq	$528, %rdx              # imm = 0x210
	addq	$16, %rdx
	xorl	%esi, %esi
	callq	biari_encode_symbol
	movq	-16(%rbp), %rdi
	movq	-8(%rbp), %rdx
	addq	$528, %rdx              # imm = 0x210
	addq	$48, %rdx
	movl	$1, %esi
	callq	biari_encode_symbol
	movq	-16(%rbp), %rdi
	movq	-8(%rbp), %rdx
	addq	$528, %rdx              # imm = 0x210
	addq	$64, %rdx
	movl	$1, %esi
	callq	biari_encode_symbol
	jmp	.LBB36_7
.LBB36_6:                               # %sw.bb19
	movq	-16(%rbp), %rdi
	movq	-8(%rbp), %rdx
	addq	$528, %rdx              # imm = 0x210
	addq	$16, %rdx
	xorl	%esi, %esi
	callq	biari_encode_symbol
	movq	-16(%rbp), %rdi
	movq	-8(%rbp), %rdx
	addq	$528, %rdx              # imm = 0x210
	addq	$48, %rdx
	movl	$1, %esi
	callq	biari_encode_symbol
	movq	-16(%rbp), %rdi
	movq	-8(%rbp), %rdx
	addq	$528, %rdx              # imm = 0x210
	addq	$64, %rdx
	xorl	%esi, %esi
	callq	biari_encode_symbol
.LBB36_7:                               # %sw.epilog
	jmp	.LBB36_39
.LBB36_8:                               # %if.else
	cmpl	$0, -20(%rbp)
	jne	.LBB36_10
# %bb.9:                                # %if.then31
	movq	-16(%rbp), %rdi
	movq	-8(%rbp), %rdx
	addq	$528, %rdx              # imm = 0x210
	addq	$144, %rdx
	xorl	%esi, %esi
	callq	biari_encode_symbol
	jmp	.LBB36_39
.LBB36_10:                              # %if.else35
	movq	-16(%rbp), %rdi
	movq	-8(%rbp), %rdx
	addq	$528, %rdx              # imm = 0x210
	addq	$144, %rdx
	movl	$1, %esi
	callq	biari_encode_symbol
	movl	-20(%rbp), %eax
	addl	$-1, %eax
	movl	%eax, -20(%rbp)
# %bb.11:                               # %if.end
	cmpl	$2, -20(%rbp)
	jge	.LBB36_16
# %bb.12:                               # %if.then41
	movq	-16(%rbp), %rdi
	movq	-8(%rbp), %rdx
	addq	$528, %rdx              # imm = 0x210
	addq	$144, %rdx
	addq	$16, %rdx
	xorl	%esi, %esi
	callq	biari_encode_symbol
	cmpl	$0, -20(%rbp)
	jne	.LBB36_14
# %bb.13:                               # %if.then47
	movq	-16(%rbp), %rdi
	movq	-8(%rbp), %rdx
	addq	$528, %rdx              # imm = 0x210
	addq	$144, %rdx
	addq	$48, %rdx
	xorl	%esi, %esi
	callq	biari_encode_symbol
	jmp	.LBB36_15
.LBB36_14:                              # %if.else51
	movq	-16(%rbp), %rdi
	movq	-8(%rbp), %rdx
	addq	$528, %rdx              # imm = 0x210
	addq	$144, %rdx
	addq	$48, %rdx
	movl	$1, %esi
	callq	biari_encode_symbol
.LBB36_15:                              # %if.end55
	jmp	.LBB36_38
.LBB36_16:                              # %if.else56
	cmpl	$6, -20(%rbp)
	jge	.LBB36_24
# %bb.17:                               # %if.then59
	movq	-16(%rbp), %rdi
	movq	-8(%rbp), %rdx
	addq	$528, %rdx              # imm = 0x210
	addq	$144, %rdx
	addq	$16, %rdx
	movl	$1, %esi
	callq	biari_encode_symbol
	movq	-16(%rbp), %rdi
	movq	-8(%rbp), %rdx
	addq	$528, %rdx              # imm = 0x210
	addq	$144, %rdx
	addq	$32, %rdx
	xorl	%esi, %esi
	callq	biari_encode_symbol
	movl	-20(%rbp), %eax
	subl	$2, %eax
	sarl	$1, %eax
	andl	$1, %eax
	movl	%eax, -24(%rbp)
	cmpl	$0, -24(%rbp)
	je	.LBB36_19
# %bb.18:                               # %if.then67
	movq	-16(%rbp), %rdi
	movq	-8(%rbp), %rdx
	addq	$528, %rdx              # imm = 0x210
	addq	$144, %rdx
	addq	$48, %rdx
	movl	$1, %esi
	callq	biari_encode_symbol
	jmp	.LBB36_20
.LBB36_19:                              # %if.else71
	movq	-16(%rbp), %rdi
	movq	-8(%rbp), %rdx
	addq	$528, %rdx              # imm = 0x210
	addq	$144, %rdx
	addq	$48, %rdx
	xorl	%esi, %esi
	callq	biari_encode_symbol
.LBB36_20:                              # %if.end75
	movl	-20(%rbp), %eax
	subl	$2, %eax
	andl	$1, %eax
	movl	%eax, -24(%rbp)
	cmpl	$0, -24(%rbp)
	je	.LBB36_22
# %bb.21:                               # %if.then79
	movq	-16(%rbp), %rdi
	movq	-8(%rbp), %rdx
	addq	$528, %rdx              # imm = 0x210
	addq	$144, %rdx
	addq	$48, %rdx
	movl	$1, %esi
	callq	biari_encode_symbol
	jmp	.LBB36_23
.LBB36_22:                              # %if.else83
	movq	-16(%rbp), %rdi
	movq	-8(%rbp), %rdx
	addq	$528, %rdx              # imm = 0x210
	addq	$144, %rdx
	addq	$48, %rdx
	xorl	%esi, %esi
	callq	biari_encode_symbol
.LBB36_23:                              # %if.end87
	jmp	.LBB36_37
.LBB36_24:                              # %if.else88
	movq	-16(%rbp), %rdi
	movq	-8(%rbp), %rdx
	addq	$528, %rdx              # imm = 0x210
	addq	$144, %rdx
	addq	$16, %rdx
	movl	$1, %esi
	callq	biari_encode_symbol
	movq	-16(%rbp), %rdi
	movq	-8(%rbp), %rdx
	addq	$528, %rdx              # imm = 0x210
	addq	$144, %rdx
	addq	$32, %rdx
	movl	$1, %esi
	callq	biari_encode_symbol
	movl	-20(%rbp), %eax
	subl	$6, %eax
	sarl	$2, %eax
	andl	$1, %eax
	movl	%eax, -24(%rbp)
	cmpl	$0, -24(%rbp)
	je	.LBB36_29
# %bb.25:                               # %if.then99
	movq	-16(%rbp), %rdi
	movq	-8(%rbp), %rdx
	addq	$528, %rdx              # imm = 0x210
	addq	$144, %rdx
	addq	$48, %rdx
	movl	$1, %esi
	callq	biari_encode_symbol
	movl	-20(%rbp), %eax
	subl	$6, %eax
	andl	$1, %eax
	movl	%eax, -24(%rbp)
	cmpl	$0, -24(%rbp)
	je	.LBB36_27
# %bb.26:                               # %if.then106
	movq	-16(%rbp), %rdi
	movq	-8(%rbp), %rdx
	addq	$528, %rdx              # imm = 0x210
	addq	$144, %rdx
	addq	$48, %rdx
	movl	$1, %esi
	callq	biari_encode_symbol
	jmp	.LBB36_28
.LBB36_27:                              # %if.else110
	movq	-16(%rbp), %rdi
	movq	-8(%rbp), %rdx
	addq	$528, %rdx              # imm = 0x210
	addq	$144, %rdx
	addq	$48, %rdx
	xorl	%esi, %esi
	callq	biari_encode_symbol
.LBB36_28:                              # %if.end114
	jmp	.LBB36_36
.LBB36_29:                              # %if.else115
	movq	-16(%rbp), %rdi
	movq	-8(%rbp), %rdx
	addq	$528, %rdx              # imm = 0x210
	addq	$144, %rdx
	addq	$48, %rdx
	xorl	%esi, %esi
	callq	biari_encode_symbol
	movl	-20(%rbp), %eax
	subl	$6, %eax
	sarl	$1, %eax
	andl	$1, %eax
	movl	%eax, -24(%rbp)
	cmpl	$0, -24(%rbp)
	je	.LBB36_31
# %bb.30:                               # %if.then123
	movq	-16(%rbp), %rdi
	movq	-8(%rbp), %rdx
	addq	$528, %rdx              # imm = 0x210
	addq	$144, %rdx
	addq	$48, %rdx
	movl	$1, %esi
	callq	biari_encode_symbol
	jmp	.LBB36_32
.LBB36_31:                              # %if.else127
	movq	-16(%rbp), %rdi
	movq	-8(%rbp), %rdx
	addq	$528, %rdx              # imm = 0x210
	addq	$144, %rdx
	addq	$48, %rdx
	xorl	%esi, %esi
	callq	biari_encode_symbol
.LBB36_32:                              # %if.end131
	movl	-20(%rbp), %eax
	subl	$6, %eax
	andl	$1, %eax
	movl	%eax, -24(%rbp)
	cmpl	$0, -24(%rbp)
	je	.LBB36_34
# %bb.33:                               # %if.then135
	movq	-16(%rbp), %rdi
	movq	-8(%rbp), %rdx
	addq	$528, %rdx              # imm = 0x210
	addq	$144, %rdx
	addq	$48, %rdx
	movl	$1, %esi
	callq	biari_encode_symbol
	jmp	.LBB36_35
.LBB36_34:                              # %if.else139
	movq	-16(%rbp), %rdi
	movq	-8(%rbp), %rdx
	addq	$528, %rdx              # imm = 0x210
	addq	$144, %rdx
	addq	$48, %rdx
	xorl	%esi, %esi
	callq	biari_encode_symbol
.LBB36_35:                              # %if.end143
	jmp	.LBB36_36
.LBB36_36:                              # %if.end144
	jmp	.LBB36_37
.LBB36_37:                              # %if.end145
	jmp	.LBB36_38
.LBB36_38:                              # %if.end146
	jmp	.LBB36_39
.LBB36_39:                              # %if.end147
	cmpl	$2141959757, -28(%rbp)  # imm = 0x7FABB64D
	jne	.LBB36_41
.LBB36_40:
	addq	$48, %rsp
	popq	%rbp
	.cfi_def_cfa %rsp, 8
	retq
.LBB36_41:                              # %func_exit
	.cfi_def_cfa %rbp, 16
	callq	detect_breach
	jmp	.LBB36_40
.Lfunc_end36:
	.size	writeB8_typeInfo_CABAC.9, .Lfunc_end36-writeB8_typeInfo_CABAC.9
	.cfi_endproc
	.section	.rodata,"a",@progbits
	.p2align	3
.LJTI36_0:
	.quad	.LBB36_3
	.quad	.LBB36_4
	.quad	.LBB36_5
	.quad	.LBB36_6
                                        # -- End function
	.text
	.globl	writeCIPredMode_CABAC.10 # -- Begin function writeCIPredMode_CABAC.10
	.p2align	4, 0x90
	.type	writeCIPredMode_CABAC.10,@function
writeCIPredMode_CABAC.10:               # @writeCIPredMode_CABAC.10
	.cfi_startproc
# %bb.0:                                # %entry
	pushq	%rbp
	.cfi_def_cfa_offset 16
	.cfi_offset %rbp, -16
	movq	%rsp, %rbp
	.cfi_def_cfa_register %rbp
	subq	$64, %rsp
	movl	$1828412202, -44(%rbp)  # imm = 0x6CFB5B2A
	movq	%rdi, -56(%rbp)
	movq	%rsi, -32(%rbp)
	movq	img, %rax
	movq	14160(%rax), %rax
	movq	40(%rax), %rax
	movq	%rax, -40(%rbp)
	movq	img, %rax
	movq	14168(%rax), %rax
	movq	img, %rcx
	movslq	12(%rcx), %rcx
	imulq	$632, %rcx, %rcx        # imm = 0x278
	addq	%rcx, %rax
	movq	%rax, -24(%rbp)
	movq	-56(%rbp), %rax
	movl	4(%rax), %eax
	movl	%eax, -12(%rbp)
	movq	-24(%rbp), %rax
	cmpq	$0, 56(%rax)
	jne	.LBB37_2
# %bb.1:                                # %if.then
	movl	$0, -16(%rbp)
	jmp	.LBB37_3
.LBB37_2:                               # %if.else
	xorl	%eax, %eax
	movq	-24(%rbp), %rcx
	movq	56(%rcx), %rcx
	movl	524(%rcx), %ecx
	cmpl	$0, %ecx
	movl	$1, %ecx
	cmovnel	%ecx, %eax
	movl	%eax, -16(%rbp)
.LBB37_3:                               # %if.end
	movq	-24(%rbp), %rax
	cmpq	$0, 64(%rax)
	jne	.LBB37_5
# %bb.4:                                # %if.then4
	movl	$0, -8(%rbp)
	jmp	.LBB37_6
.LBB37_5:                               # %if.else5
	xorl	%eax, %eax
	movq	-24(%rbp), %rcx
	movq	64(%rcx), %rcx
	movl	524(%rcx), %ecx
	cmpl	$0, %ecx
	movl	$1, %ecx
	cmovnel	%ecx, %eax
	movl	%eax, -8(%rbp)
.LBB37_6:                               # %if.end10
	movl	-8(%rbp), %eax
	addl	-16(%rbp), %eax
	movl	%eax, -4(%rbp)
	cmpl	$0, -12(%rbp)
	jne	.LBB37_8
# %bb.7:                                # %if.then12
	movq	-32(%rbp), %rdi
	movq	-40(%rbp), %rdx
	addq	$32, %rdx
	movslq	-4(%rbp), %rax
	shlq	$4, %rax
	addq	%rax, %rdx
	xorl	%esi, %esi
	callq	biari_encode_symbol
	jmp	.LBB37_9
.LBB37_8:                               # %if.else13
	movq	-32(%rbp), %rdi
	movq	-40(%rbp), %rdx
	addq	$32, %rdx
	movslq	-4(%rbp), %rax
	shlq	$4, %rax
	addq	%rax, %rdx
	movl	$1, %esi
	callq	biari_encode_symbol
	movq	-32(%rbp), %rdi
	movl	-12(%rbp), %esi
	subl	$1, %esi
	movq	-40(%rbp), %rdx
	addq	$32, %rdx
	addq	$48, %rdx
	xorl	%ecx, %ecx
	movl	$2, %r8d
	callq	unary_bin_max_encode
.LBB37_9:                               # %if.end21
	cmpl	$1828412202, -44(%rbp)  # imm = 0x6CFB5B2A
	jne	.LBB37_11
.LBB37_10:
	addq	$64, %rsp
	popq	%rbp
	.cfi_def_cfa %rsp, 8
	retq
.LBB37_11:                              # %func_exit
	.cfi_def_cfa %rbp, 16
	callq	detect_breach
	jmp	.LBB37_10
.Lfunc_end37:
	.size	writeCIPredMode_CABAC.10, .Lfunc_end37-writeCIPredMode_CABAC.10
	.cfi_endproc
                                        # -- End function
	.globl	writeCBP_CABAC.11       # -- Begin function writeCBP_CABAC.11
	.p2align	4, 0x90
	.type	writeCBP_CABAC.11,@function
writeCBP_CABAC.11:                      # @writeCBP_CABAC.11
	.cfi_startproc
# %bb.0:                                # %entry
	pushq	%rbp
	.cfi_def_cfa_offset 16
	.cfi_offset %rbp, -16
	movq	%rsp, %rbp
	.cfi_def_cfa_register %rbp
	subq	$64, %rsp
	movl	$1890423440, -48(%rbp)  # imm = 0x70AD9290
	movq	%rdi, -64(%rbp)
	movq	%rsi, -40(%rbp)
	movq	img, %rax
	movq	14160(%rax), %rax
	movq	40(%rax), %rax
	movq	%rax, -56(%rbp)
	movq	img, %rax
	movq	14168(%rax), %rax
	movq	img, %rcx
	movslq	12(%rcx), %rcx
	imulq	$632, %rcx, %rcx        # imm = 0x278
	addq	%rcx, %rax
	movq	%rax, -8(%rbp)
	movq	-64(%rbp), %rax
	movl	4(%rax), %eax
	movl	%eax, -24(%rbp)
	movl	$0, -20(%rbp)
.LBB38_1:                               # %for.cond
                                        # =>This Inner Loop Header: Depth=1
	cmpl	$4, -20(%rbp)
	jge	.LBB38_4
# %bb.2:                                # %for.body
                                        #   in Loop: Header=BB38_1 Depth=1
	xorl	%eax, %eax
	movq	-8(%rbp), %rcx
	movslq	-20(%rbp), %rdx
	movl	472(%rcx,%rdx,4), %ecx
	cmpl	$11, %ecx
	movl	$1, %edx
	movl	$1, %ecx
	cmovel	%eax, %ecx
	movl	%ecx, -44(%rbp)
	movl	-20(%rbp), %edi
	movl	-24(%rbp), %esi
	movl	-20(%rbp), %ecx
                                        # kill: def $cl killed $ecx
	shll	%cl, %edx
	andl	%edx, %esi
	movl	-24(%rbp), %edx
	movq	-8(%rbp), %rcx
	movl	-44(%rbp), %r8d
	movq	-40(%rbp), %r9
	callq	writeCBP_BIT_CABAC
# %bb.3:                                # %for.inc
                                        #   in Loop: Header=BB38_1 Depth=1
	movl	-20(%rbp), %eax
	addl	$1, %eax
	movl	%eax, -20(%rbp)
	jmp	.LBB38_1
.LBB38_4:                               # %for.end
	movq	img, %rax
	cmpl	$0, 72700(%rax)
	je	.LBB38_32
# %bb.5:                                # %if.then
	movl	$0, -12(%rbp)
	movq	-8(%rbp), %rax
	cmpq	$0, 56(%rax)
	je	.LBB38_10
# %bb.6:                                # %if.then6
	movq	-8(%rbp), %rax
	movq	56(%rax), %rax
	cmpl	$14, 72(%rax)
	jne	.LBB38_8
# %bb.7:                                # %if.then9
	movl	$1, -12(%rbp)
	jmp	.LBB38_9
.LBB38_8:                               # %if.else
	xorl	%eax, %eax
	movq	-8(%rbp), %rcx
	movq	56(%rcx), %rcx
	movl	460(%rcx), %ecx
	cmpl	$15, %ecx
	movl	$1, %ecx
	cmovgl	%ecx, %eax
	movl	%eax, -12(%rbp)
.LBB38_9:                               # %if.end
	jmp	.LBB38_10
.LBB38_10:                              # %if.end14
	movl	$0, -16(%rbp)
	movq	-8(%rbp), %rax
	cmpq	$0, 64(%rax)
	je	.LBB38_15
# %bb.11:                               # %if.then16
	movq	-8(%rbp), %rax
	movq	64(%rax), %rax
	cmpl	$14, 72(%rax)
	jne	.LBB38_13
# %bb.12:                               # %if.then20
	movl	$1, -16(%rbp)
	jmp	.LBB38_14
.LBB38_13:                              # %if.else21
	xorl	%eax, %eax
	movq	-8(%rbp), %rcx
	movq	64(%rcx), %rcx
	movl	460(%rcx), %ecx
	cmpl	$15, %ecx
	movl	$1, %ecx
	cmovgl	%ecx, %eax
	movl	%eax, -16(%rbp)
.LBB38_14:                              # %if.end26
	jmp	.LBB38_15
.LBB38_15:                              # %if.end27
	xorl	%eax, %eax
	movl	-16(%rbp), %ecx
	movl	-12(%rbp), %edx
	shll	$1, %edx
	addl	%edx, %ecx
	movl	%ecx, -32(%rbp)
	movl	-24(%rbp), %ecx
	cmpl	$15, %ecx
	movl	$1, %ecx
	cmovgl	%ecx, %eax
	movl	%eax, -28(%rbp)
	movq	-40(%rbp), %rdi
	movl	-28(%rbp), %eax
	movzbl	%al, %eax
	movq	-56(%rbp), %rdx
	addq	$96, %rdx
	addq	$64, %rdx
	movslq	-32(%rbp), %rcx
	shlq	$4, %rcx
	addq	%rcx, %rdx
	movswl	%ax, %esi
	callq	biari_encode_symbol
	cmpl	$15, -24(%rbp)
	jle	.LBB38_31
# %bb.16:                               # %if.then34
	movl	$0, -12(%rbp)
	movq	-8(%rbp), %rax
	cmpq	$0, 56(%rax)
	je	.LBB38_23
# %bb.17:                               # %if.then38
	movq	-8(%rbp), %rax
	movq	56(%rax), %rax
	cmpl	$14, 72(%rax)
	jne	.LBB38_19
# %bb.18:                               # %if.then43
	movl	$1, -12(%rbp)
	jmp	.LBB38_22
.LBB38_19:                              # %if.else44
	movq	-8(%rbp), %rax
	movq	56(%rax), %rax
	cmpl	$15, 460(%rax)
	jle	.LBB38_21
# %bb.20:                               # %if.then49
	xorl	%eax, %eax
	movq	-8(%rbp), %rcx
	movq	56(%rcx), %rcx
	movl	460(%rcx), %ecx
	sarl	$4, %ecx
	cmpl	$2, %ecx
	movl	$1, %ecx
	cmovel	%ecx, %eax
	movl	%eax, -12(%rbp)
.LBB38_21:                              # %if.end55
	jmp	.LBB38_22
.LBB38_22:                              # %if.end56
	jmp	.LBB38_23
.LBB38_23:                              # %if.end57
	movl	$0, -16(%rbp)
	movq	-8(%rbp), %rax
	cmpq	$0, 64(%rax)
	je	.LBB38_30
# %bb.24:                               # %if.then61
	movq	-8(%rbp), %rax
	movq	64(%rax), %rax
	cmpl	$14, 72(%rax)
	jne	.LBB38_26
# %bb.25:                               # %if.then66
	movl	$1, -16(%rbp)
	jmp	.LBB38_29
.LBB38_26:                              # %if.else67
	movq	-8(%rbp), %rax
	movq	64(%rax), %rax
	cmpl	$15, 460(%rax)
	jle	.LBB38_28
# %bb.27:                               # %if.then72
	xorl	%eax, %eax
	movq	-8(%rbp), %rcx
	movq	64(%rcx), %rcx
	movl	460(%rcx), %ecx
	sarl	$4, %ecx
	cmpl	$2, %ecx
	movl	$1, %ecx
	cmovel	%ecx, %eax
	movl	%eax, -16(%rbp)
.LBB38_28:                              # %if.end79
	jmp	.LBB38_29
.LBB38_29:                              # %if.end80
	jmp	.LBB38_30
.LBB38_30:                              # %if.end81
	xorl	%eax, %eax
	movl	-16(%rbp), %ecx
	movl	-12(%rbp), %edx
	shll	$1, %edx
	addl	%edx, %ecx
	movl	%ecx, -32(%rbp)
	movl	-24(%rbp), %ecx
	sarl	$4, %ecx
	cmpl	$2, %ecx
	movl	$1, %ecx
	cmovel	%ecx, %eax
	movl	%eax, -28(%rbp)
	movq	-40(%rbp), %rdi
	movl	-28(%rbp), %eax
	movzbl	%al, %eax
	movq	-56(%rbp), %rdx
	addq	$96, %rdx
	addq	$128, %rdx
	movslq	-32(%rbp), %rcx
	shlq	$4, %rcx
	addq	%rcx, %rdx
	movswl	%ax, %esi
	callq	biari_encode_symbol
.LBB38_31:                              # %if.end95
	jmp	.LBB38_32
.LBB38_32:                              # %if.end96
	cmpl	$1890423440, -48(%rbp)  # imm = 0x70AD9290
	jne	.LBB38_34
.LBB38_33:
	addq	$64, %rsp
	popq	%rbp
	.cfi_def_cfa %rsp, 8
	retq
.LBB38_34:                              # %func_exit
	.cfi_def_cfa %rbp, 16
	callq	detect_breach
	jmp	.LBB38_33
.Lfunc_end38:
	.size	writeCBP_CABAC.11, .Lfunc_end38-writeCBP_CABAC.11
	.cfi_endproc
                                        # -- End function
	.globl	unary_exp_golomb_mv_encode.12 # -- Begin function unary_exp_golomb_mv_encode.12
	.p2align	4, 0x90
	.type	unary_exp_golomb_mv_encode.12,@function
unary_exp_golomb_mv_encode.12:          # @unary_exp_golomb_mv_encode.12
	.cfi_startproc
# %bb.0:                                # %entry
	pushq	%rbp
	.cfi_def_cfa_offset 16
	.cfi_offset %rbp, -16
	movq	%rsp, %rbp
	.cfi_def_cfa_register %rbp
	subq	$64, %rsp
	movl	$382144809, -48(%rbp)   # imm = 0x16C71129
	movq	%rdi, -32(%rbp)
	movl	%esi, -12(%rbp)
	movq	%rdx, -56(%rbp)
	movl	%ecx, -44(%rbp)
	movl	$1, -16(%rbp)
	movq	-56(%rbp), %rax
	movq	%rax, -8(%rbp)
	movl	$8, -20(%rbp)
	cmpl	$0, -12(%rbp)
	jne	.LBB39_2
# %bb.1:                                # %if.then
	movq	-32(%rbp), %rdi
	movq	-8(%rbp), %rdx
	xorl	%esi, %esi
	callq	biari_encode_symbol
	jmp	.LBB39_16
.LBB39_2:                               # %if.else
	movq	-32(%rbp), %rdi
	movq	-8(%rbp), %rdx
	movl	$1, %esi
	callq	biari_encode_symbol
	movl	-12(%rbp), %eax
	movl	%eax, -40(%rbp)
	movl	$1, -36(%rbp)
	movq	-8(%rbp), %rax
	addq	$16, %rax
	movq	%rax, -8(%rbp)
.LBB39_3:                               # %while.cond
                                        # =>This Inner Loop Header: Depth=1
	xorl	%eax, %eax
	movl	-40(%rbp), %ecx
	addl	$-1, %ecx
	movl	%ecx, -40(%rbp)
	cmpl	$0, %ecx
	jbe	.LBB39_5
# %bb.4:                                # %land.rhs
                                        #   in Loop: Header=BB39_3 Depth=1
	movl	-36(%rbp), %eax
	addl	$1, %eax
	movl	%eax, -36(%rbp)
	cmpl	-20(%rbp), %eax
	setbe	%al
.LBB39_5:                               # %land.end
                                        #   in Loop: Header=BB39_3 Depth=1
	testb	$1, %al
	jne	.LBB39_6
	jmp	.LBB39_11
.LBB39_6:                               # %while.body
                                        #   in Loop: Header=BB39_3 Depth=1
	movq	-32(%rbp), %rdi
	movq	-8(%rbp), %rdx
	movl	$1, %esi
	callq	biari_encode_symbol
	movl	-16(%rbp), %eax
	addl	$1, %eax
	movl	%eax, -16(%rbp)
	cmpl	$2, %eax
	jne	.LBB39_8
# %bb.7:                                # %if.then5
                                        #   in Loop: Header=BB39_3 Depth=1
	movq	-8(%rbp), %rax
	addq	$16, %rax
	movq	%rax, -8(%rbp)
.LBB39_8:                               # %if.end
                                        #   in Loop: Header=BB39_3 Depth=1
	movl	-16(%rbp), %eax
	cmpl	-44(%rbp), %eax
	jne	.LBB39_10
# %bb.9:                                # %if.then8
                                        #   in Loop: Header=BB39_3 Depth=1
	movq	-8(%rbp), %rax
	addq	$16, %rax
	movq	%rax, -8(%rbp)
.LBB39_10:                              # %if.end10
                                        #   in Loop: Header=BB39_3 Depth=1
	jmp	.LBB39_3
.LBB39_11:                              # %while.end
	movl	-12(%rbp), %eax
	cmpl	-20(%rbp), %eax
	jae	.LBB39_13
# %bb.12:                               # %if.then12
	movq	-32(%rbp), %rdi
	movq	-8(%rbp), %rdx
	xorl	%esi, %esi
	callq	biari_encode_symbol
	jmp	.LBB39_14
.LBB39_13:                              # %if.else13
	movq	-32(%rbp), %rdi
	movl	-12(%rbp), %esi
	subl	-20(%rbp), %esi
	movl	$3, %edx
	callq	exp_golomb_encode_eq_prob
.LBB39_14:                              # %if.end14
	jmp	.LBB39_15
.LBB39_15:                              # %if.end15
	jmp	.LBB39_16
.LBB39_16:                              # %return
	cmpl	$382144809, -48(%rbp)   # imm = 0x16C71129
	jne	.LBB39_18
.LBB39_17:
	addq	$64, %rsp
	popq	%rbp
	.cfi_def_cfa %rsp, 8
	retq
.LBB39_18:                              # %func_exit
	.cfi_def_cfa %rbp, 16
	callq	detect_breach
	jmp	.LBB39_17
.Lfunc_end39:
	.size	unary_exp_golomb_mv_encode.12, .Lfunc_end39-unary_exp_golomb_mv_encode.12
	.cfi_endproc
                                        # -- End function
	.globl	writeRefFrame_CABAC.13  # -- Begin function writeRefFrame_CABAC.13
	.p2align	4, 0x90
	.type	writeRefFrame_CABAC.13,@function
writeRefFrame_CABAC.13:                 # @writeRefFrame_CABAC.13
	.cfi_startproc
# %bb.0:                                # %entry
	pushq	%rbp
	.cfi_def_cfa_offset 16
	.cfi_offset %rbp, -16
	movq	%rsp, %rbp
	.cfi_def_cfa_register %rbp
	subq	$128, %rsp
	movl	$531802377, -64(%rbp)   # imm = 0x1FB2A909
	movq	%rdi, -48(%rbp)
	movq	%rsi, -40(%rbp)
	movq	img, %rax
	movq	14160(%rax), %rax
	movq	32(%rax), %rax
	movq	%rax, -56(%rbp)
	movq	img, %rax
	movq	14168(%rax), %rax
	movq	img, %rcx
	movslq	12(%rcx), %rcx
	imulq	$632, %rcx, %rcx        # imm = 0x278
	addq	%rcx, %rax
	movq	%rax, -128(%rbp)
	movl	$0, -20(%rbp)
	movq	enc_picture, %rax
	movq	6480(%rax), %rax
	movq	-48(%rbp), %rcx
	movslq	8(%rcx), %rcx
	movq	(%rax,%rcx,8), %rax
	movq	%rax, -32(%rbp)
	movq	img, %rax
	cmpl	$1, 24(%rax)
	sete	%al
	andb	$1, %al
	movzbl	%al, %eax
	movl	%eax, -24(%rbp)
	movq	img, %rax
	movl	12(%rax), %edi
	movq	img, %rax
	movl	72(%rax), %esi
	movq	img, %rax
	movl	76(%rax), %edx
	movl	$4294967295, %ecx       # imm = 0xFFFFFFFF
	xorl	%r8d, %r8d
	leaq	-120(%rbp), %r9
	callq	getLuma4x4Neighbour
	movq	img, %rax
	movl	12(%rax), %edi
	movq	img, %rax
	movl	72(%rax), %esi
	movq	img, %rax
	movl	76(%rax), %edx
	movl	$0, %ecx
	movl	$4294967295, %r8d       # imm = 0xFFFFFFFF
	leaq	-96(%rbp), %r9
	callq	getLuma4x4Neighbour
	movl	-112(%rbp), %eax
	cltd
	movl	$2, %esi
	idivl	%esi
	cltd
	idivl	%esi
	movl	%edx, %ecx
	movl	-108(%rbp), %eax
	cltd
	idivl	%esi
	cltd
	idivl	%esi
	shll	$1, %edx
	addl	%edx, %ecx
	movl	%ecx, -60(%rbp)
	movl	-88(%rbp), %eax
	cltd
	idivl	%esi
	cltd
	idivl	%esi
	movl	%edx, %ecx
	movl	-84(%rbp), %eax
	cltd
	idivl	%esi
	cltd
	idivl	%esi
	shll	$1, %edx
	addl	%edx, %ecx
	movl	%ecx, -68(%rbp)
	cmpl	$0, -96(%rbp)
	jne	.LBB40_2
# %bb.1:                                # %if.then
	movl	$0, -12(%rbp)
	jmp	.LBB40_14
.LBB40_2:                               # %if.else
	movq	img, %rax
	movq	14168(%rax), %rax
	movslq	-92(%rbp), %rcx
	imulq	$632, %rcx, %rcx        # imm = 0x278
	addq	%rcx, %rax
	cmpl	$0, 72(%rax)
	jne	.LBB40_4
# %bb.3:                                # %land.lhs.true
	movq	img, %rax
	cmpl	$1, 24(%rax)
	je	.LBB40_6
.LBB40_4:                               # %lor.lhs.false
	movq	img, %rax
	movq	14168(%rax), %rax
	movslq	-92(%rbp), %rcx
	imulq	$632, %rcx, %rcx        # imm = 0x278
	addq	%rcx, %rax
	movslq	-68(%rbp), %rcx
	cmpl	$0, 472(%rax,%rcx,4)
	jne	.LBB40_7
# %bb.5:                                # %land.lhs.true33
	cmpl	$0, -24(%rbp)
	je	.LBB40_7
.LBB40_6:                               # %if.then35
	movl	$0, -12(%rbp)
	jmp	.LBB40_13
.LBB40_7:                               # %if.else36
	movq	img, %rax
	cmpl	$0, 72400(%rax)
	je	.LBB40_11
# %bb.8:                                # %land.lhs.true38
	movq	-128(%rbp), %rax
	cmpl	$0, 532(%rax)
	jne	.LBB40_11
# %bb.9:                                # %land.lhs.true41
	movq	img, %rax
	movq	14168(%rax), %rax
	movslq	-92(%rbp), %rcx
	imulq	$632, %rcx, %rcx        # imm = 0x278
	addq	%rcx, %rax
	cmpl	$1, 532(%rax)
	jne	.LBB40_11
# %bb.10:                               # %if.then49
	xorl	%eax, %eax
	movq	-32(%rbp), %rcx
	movslq	-80(%rbp), %rdx
	movq	(%rcx,%rdx,8), %rcx
	movslq	-76(%rbp), %rdx
	movswl	(%rcx,%rdx,2), %ecx
	cmpl	$1, %ecx
	movl	$1, %ecx
	cmovgl	%ecx, %eax
	movl	%eax, -12(%rbp)
	jmp	.LBB40_12
.LBB40_11:                              # %if.else57
	xorl	%eax, %eax
	movq	-32(%rbp), %rcx
	movslq	-80(%rbp), %rdx
	movq	(%rcx,%rdx,8), %rcx
	movslq	-76(%rbp), %rdx
	movswl	(%rcx,%rdx,2), %ecx
	cmpl	$0, %ecx
	movl	$1, %ecx
	cmovgl	%ecx, %eax
	movl	%eax, -12(%rbp)
.LBB40_12:                              # %if.end
	jmp	.LBB40_13
.LBB40_13:                              # %if.end68
	jmp	.LBB40_14
.LBB40_14:                              # %if.end69
	cmpl	$0, -120(%rbp)
	jne	.LBB40_16
# %bb.15:                               # %if.then72
	movl	$0, -16(%rbp)
	jmp	.LBB40_28
.LBB40_16:                              # %if.else73
	movq	img, %rax
	movq	14168(%rax), %rax
	movslq	-116(%rbp), %rcx
	imulq	$632, %rcx, %rcx        # imm = 0x278
	addq	%rcx, %rax
	cmpl	$0, 72(%rax)
	jne	.LBB40_18
# %bb.17:                               # %land.lhs.true81
	movq	img, %rax
	cmpl	$1, 24(%rax)
	je	.LBB40_20
.LBB40_18:                              # %lor.lhs.false85
	movq	img, %rax
	movq	14168(%rax), %rax
	movslq	-116(%rbp), %rcx
	imulq	$632, %rcx, %rcx        # imm = 0x278
	addq	%rcx, %rax
	movslq	-60(%rbp), %rcx
	cmpl	$0, 472(%rax,%rcx,4)
	jne	.LBB40_21
# %bb.19:                               # %land.lhs.true95
	cmpl	$0, -24(%rbp)
	je	.LBB40_21
.LBB40_20:                              # %if.then97
	movl	$0, -16(%rbp)
	jmp	.LBB40_27
.LBB40_21:                              # %if.else98
	movq	img, %rax
	cmpl	$0, 72400(%rax)
	je	.LBB40_25
# %bb.22:                               # %land.lhs.true101
	movq	-128(%rbp), %rax
	cmpl	$0, 532(%rax)
	jne	.LBB40_25
# %bb.23:                               # %land.lhs.true105
	movq	img, %rax
	movq	14168(%rax), %rax
	movslq	-116(%rbp), %rcx
	imulq	$632, %rcx, %rcx        # imm = 0x278
	addq	%rcx, %rax
	cmpl	$1, 532(%rax)
	jne	.LBB40_25
# %bb.24:                               # %if.then113
	xorl	%eax, %eax
	movq	-32(%rbp), %rcx
	movslq	-104(%rbp), %rdx
	movq	(%rcx,%rdx,8), %rcx
	movslq	-100(%rbp), %rdx
	movswl	(%rcx,%rdx,2), %ecx
	cmpl	$1, %ecx
	movl	$1, %ecx
	cmovgl	%ecx, %eax
	movl	%eax, -16(%rbp)
	jmp	.LBB40_26
.LBB40_25:                              # %if.else124
	xorl	%eax, %eax
	movq	-32(%rbp), %rcx
	movslq	-104(%rbp), %rdx
	movq	(%rcx,%rdx,8), %rcx
	movslq	-100(%rbp), %rdx
	movswl	(%rcx,%rdx,2), %ecx
	cmpl	$0, %ecx
	movl	$1, %ecx
	cmovgl	%ecx, %eax
	movl	%eax, -16(%rbp)
.LBB40_26:                              # %if.end135
	jmp	.LBB40_27
.LBB40_27:                              # %if.end136
	jmp	.LBB40_28
.LBB40_28:                              # %if.end137
	movl	-16(%rbp), %eax
	movl	-12(%rbp), %ecx
	shll	$1, %ecx
	addl	%ecx, %eax
	movl	%eax, -4(%rbp)
	movl	-4(%rbp), %eax
	movq	-48(%rbp), %rcx
	movl	%eax, 24(%rcx)
	movq	-48(%rbp), %rax
	movl	4(%rax), %eax
	movl	%eax, -8(%rbp)
	cmpl	$0, -8(%rbp)
	jne	.LBB40_30
# %bb.29:                               # %if.then142
	movq	-40(%rbp), %rdi
	movq	-56(%rbp), %rdx
	addq	$1136, %rdx             # imm = 0x470
	movslq	-20(%rbp), %rax
	imulq	$96, %rax, %rax
	addq	%rax, %rdx
	movslq	-4(%rbp), %rax
	shlq	$4, %rax
	addq	%rax, %rdx
	xorl	%esi, %esi
	callq	biari_encode_symbol
	jmp	.LBB40_31
.LBB40_30:                              # %if.else145
	movq	-40(%rbp), %rdi
	movq	-56(%rbp), %rdx
	addq	$1136, %rdx             # imm = 0x470
	movslq	-20(%rbp), %rax
	imulq	$96, %rax, %rax
	addq	%rax, %rdx
	movslq	-4(%rbp), %rax
	shlq	$4, %rax
	addq	%rax, %rdx
	movl	$1, %esi
	callq	biari_encode_symbol
	movl	-8(%rbp), %eax
	addl	$-1, %eax
	movl	%eax, -8(%rbp)
	movl	$4, -4(%rbp)
	movq	-40(%rbp), %rdi
	movl	-8(%rbp), %esi
	movq	-56(%rbp), %rdx
	addq	$1136, %rdx             # imm = 0x470
	movslq	-20(%rbp), %rax
	imulq	$96, %rax, %rax
	addq	%rax, %rdx
	movslq	-4(%rbp), %rax
	shlq	$4, %rax
	addq	%rax, %rdx
	movl	$1, %ecx
	callq	unary_bin_encode
.LBB40_31:                              # %if.end158
	cmpl	$531802377, -64(%rbp)   # imm = 0x1FB2A909
	jne	.LBB40_33
.LBB40_32:
	addq	$128, %rsp
	popq	%rbp
	.cfi_def_cfa %rsp, 8
	retq
.LBB40_33:                              # %func_exit
	.cfi_def_cfa %rbp, 16
	callq	detect_breach
	jmp	.LBB40_32
.Lfunc_end40:
	.size	writeRefFrame_CABAC.13, .Lfunc_end40-writeRefFrame_CABAC.13
	.cfi_endproc
                                        # -- End function
	.globl	writeSyntaxElement_CABAC.14 # -- Begin function writeSyntaxElement_CABAC.14
	.p2align	4, 0x90
	.type	writeSyntaxElement_CABAC.14,@function
writeSyntaxElement_CABAC.14:            # @writeSyntaxElement_CABAC.14
	.cfi_startproc
# %bb.0:                                # %entry
	pushq	%rbp
	.cfi_def_cfa_offset 16
	.cfi_offset %rbp, -16
	movq	%rsp, %rbp
	.cfi_def_cfa_register %rbp
	pushq	%rbx
	subq	$40, %rsp
	.cfi_offset %rbx, -24
	movl	$181383803, -32(%rbp)   # imm = 0xACFB27B
	movq	%rdi, -16(%rbp)
	movq	%rsi, -40(%rbp)
	movq	-40(%rbp), %rax
	addq	$8, %rax
	movq	%rax, -24(%rbp)
	movq	-24(%rbp), %rdi
	callq	arienco_bits_written
	movl	%eax, -28(%rbp)
	movq	-16(%rbp), %rax
	movq	40(%rax), %rax
	movq	-16(%rbp), %rdi
	movq	-24(%rbp), %rsi
	callq	*%rax
	movq	-16(%rbp), %rax
	cmpl	$0, (%rax)
	je	.LBB41_2
# %bb.1:                                # %if.then
	movq	-40(%rbp), %rax
	movq	(%rax), %rax
	movl	$1, 40(%rax)
.LBB41_2:                               # %if.end
	movq	-24(%rbp), %rdi
	callq	arienco_bits_written
	movl	%eax, %ebx
	subl	-28(%rbp), %ebx
	movq	-16(%rbp), %rax
	movl	%ebx, 12(%rax)
	cmpl	$181383803, -32(%rbp)   # imm = 0xACFB27B
	jne	.LBB41_4
.LBB41_3:
	movl	%ebx, %eax
	addq	$40, %rsp
	popq	%rbx
	popq	%rbp
	.cfi_def_cfa %rsp, 8
	retq
.LBB41_4:                               # %func_exit
	.cfi_def_cfa %rbp, 16
	callq	detect_breach
	jmp	.LBB41_3
.Lfunc_end41:
	.size	writeSyntaxElement_CABAC.14, .Lfunc_end41-writeSyntaxElement_CABAC.14
	.cfi_endproc
                                        # -- End function
	.globl	writeRefFrame_CABAC.15  # -- Begin function writeRefFrame_CABAC.15
	.p2align	4, 0x90
	.type	writeRefFrame_CABAC.15,@function
writeRefFrame_CABAC.15:                 # @writeRefFrame_CABAC.15
	.cfi_startproc
# %bb.0:                                # %entry
	pushq	%rbp
	.cfi_def_cfa_offset 16
	.cfi_offset %rbp, -16
	movq	%rsp, %rbp
	.cfi_def_cfa_register %rbp
	subq	$128, %rsp
	movl	$1228159534, -64(%rbp)  # imm = 0x49343A2E
	movq	%rdi, -48(%rbp)
	movq	%rsi, -40(%rbp)
	movq	img, %rax
	movq	14160(%rax), %rax
	movq	32(%rax), %rax
	movq	%rax, -56(%rbp)
	movq	img, %rax
	movq	14168(%rax), %rax
	movq	img, %rcx
	movslq	12(%rcx), %rcx
	imulq	$632, %rcx, %rcx        # imm = 0x278
	addq	%rcx, %rax
	movq	%rax, -128(%rbp)
	movl	$0, -20(%rbp)
	movq	enc_picture, %rax
	movq	6480(%rax), %rax
	movq	-48(%rbp), %rcx
	movslq	8(%rcx), %rcx
	movq	(%rax,%rcx,8), %rax
	movq	%rax, -32(%rbp)
	movq	img, %rax
	cmpl	$1, 24(%rax)
	sete	%al
	andb	$1, %al
	movzbl	%al, %eax
	movl	%eax, -24(%rbp)
	movq	img, %rax
	movl	12(%rax), %edi
	movq	img, %rax
	movl	72(%rax), %esi
	movq	img, %rax
	movl	76(%rax), %edx
	movl	$4294967295, %ecx       # imm = 0xFFFFFFFF
	xorl	%r8d, %r8d
	leaq	-120(%rbp), %r9
	callq	getLuma4x4Neighbour
	movq	img, %rax
	movl	12(%rax), %edi
	movq	img, %rax
	movl	72(%rax), %esi
	movq	img, %rax
	movl	76(%rax), %edx
	movl	$0, %ecx
	movl	$4294967295, %r8d       # imm = 0xFFFFFFFF
	leaq	-96(%rbp), %r9
	callq	getLuma4x4Neighbour
	movl	-112(%rbp), %eax
	cltd
	movl	$2, %esi
	idivl	%esi
	cltd
	idivl	%esi
	movl	%edx, %ecx
	movl	-108(%rbp), %eax
	cltd
	idivl	%esi
	cltd
	idivl	%esi
	shll	$1, %edx
	addl	%edx, %ecx
	movl	%ecx, -60(%rbp)
	movl	-88(%rbp), %eax
	cltd
	idivl	%esi
	cltd
	idivl	%esi
	movl	%edx, %ecx
	movl	-84(%rbp), %eax
	cltd
	idivl	%esi
	cltd
	idivl	%esi
	shll	$1, %edx
	addl	%edx, %ecx
	movl	%ecx, -68(%rbp)
	cmpl	$0, -96(%rbp)
	jne	.LBB42_2
# %bb.1:                                # %if.then
	movl	$0, -8(%rbp)
	jmp	.LBB42_14
.LBB42_2:                               # %if.else
	movq	img, %rax
	movq	14168(%rax), %rax
	movslq	-92(%rbp), %rcx
	imulq	$632, %rcx, %rcx        # imm = 0x278
	addq	%rcx, %rax
	cmpl	$0, 72(%rax)
	jne	.LBB42_4
# %bb.3:                                # %land.lhs.true
	movq	img, %rax
	cmpl	$1, 24(%rax)
	je	.LBB42_6
.LBB42_4:                               # %lor.lhs.false
	movq	img, %rax
	movq	14168(%rax), %rax
	movslq	-92(%rbp), %rcx
	imulq	$632, %rcx, %rcx        # imm = 0x278
	addq	%rcx, %rax
	movslq	-68(%rbp), %rcx
	cmpl	$0, 472(%rax,%rcx,4)
	jne	.LBB42_7
# %bb.5:                                # %land.lhs.true33
	cmpl	$0, -24(%rbp)
	je	.LBB42_7
.LBB42_6:                               # %if.then35
	movl	$0, -8(%rbp)
	jmp	.LBB42_13
.LBB42_7:                               # %if.else36
	movq	img, %rax
	cmpl	$0, 72400(%rax)
	je	.LBB42_11
# %bb.8:                                # %land.lhs.true38
	movq	-128(%rbp), %rax
	cmpl	$0, 532(%rax)
	jne	.LBB42_11
# %bb.9:                                # %land.lhs.true41
	movq	img, %rax
	movq	14168(%rax), %rax
	movslq	-92(%rbp), %rcx
	imulq	$632, %rcx, %rcx        # imm = 0x278
	addq	%rcx, %rax
	cmpl	$1, 532(%rax)
	jne	.LBB42_11
# %bb.10:                               # %if.then49
	xorl	%eax, %eax
	movq	-32(%rbp), %rcx
	movslq	-80(%rbp), %rdx
	movq	(%rcx,%rdx,8), %rcx
	movslq	-76(%rbp), %rdx
	movswl	(%rcx,%rdx,2), %ecx
	cmpl	$1, %ecx
	movl	$1, %ecx
	cmovgl	%ecx, %eax
	movl	%eax, -8(%rbp)
	jmp	.LBB42_12
.LBB42_11:                              # %if.else57
	xorl	%eax, %eax
	movq	-32(%rbp), %rcx
	movslq	-80(%rbp), %rdx
	movq	(%rcx,%rdx,8), %rcx
	movslq	-76(%rbp), %rdx
	movswl	(%rcx,%rdx,2), %ecx
	cmpl	$0, %ecx
	movl	$1, %ecx
	cmovgl	%ecx, %eax
	movl	%eax, -8(%rbp)
.LBB42_12:                              # %if.end
	jmp	.LBB42_13
.LBB42_13:                              # %if.end68
	jmp	.LBB42_14
.LBB42_14:                              # %if.end69
	cmpl	$0, -120(%rbp)
	jne	.LBB42_16
# %bb.15:                               # %if.then72
	movl	$0, -16(%rbp)
	jmp	.LBB42_28
.LBB42_16:                              # %if.else73
	movq	img, %rax
	movq	14168(%rax), %rax
	movslq	-116(%rbp), %rcx
	imulq	$632, %rcx, %rcx        # imm = 0x278
	addq	%rcx, %rax
	cmpl	$0, 72(%rax)
	jne	.LBB42_18
# %bb.17:                               # %land.lhs.true81
	movq	img, %rax
	cmpl	$1, 24(%rax)
	je	.LBB42_20
.LBB42_18:                              # %lor.lhs.false85
	movq	img, %rax
	movq	14168(%rax), %rax
	movslq	-116(%rbp), %rcx
	imulq	$632, %rcx, %rcx        # imm = 0x278
	addq	%rcx, %rax
	movslq	-60(%rbp), %rcx
	cmpl	$0, 472(%rax,%rcx,4)
	jne	.LBB42_21
# %bb.19:                               # %land.lhs.true95
	cmpl	$0, -24(%rbp)
	je	.LBB42_21
.LBB42_20:                              # %if.then97
	movl	$0, -16(%rbp)
	jmp	.LBB42_27
.LBB42_21:                              # %if.else98
	movq	img, %rax
	cmpl	$0, 72400(%rax)
	je	.LBB42_25
# %bb.22:                               # %land.lhs.true101
	movq	-128(%rbp), %rax
	cmpl	$0, 532(%rax)
	jne	.LBB42_25
# %bb.23:                               # %land.lhs.true105
	movq	img, %rax
	movq	14168(%rax), %rax
	movslq	-116(%rbp), %rcx
	imulq	$632, %rcx, %rcx        # imm = 0x278
	addq	%rcx, %rax
	cmpl	$1, 532(%rax)
	jne	.LBB42_25
# %bb.24:                               # %if.then113
	xorl	%eax, %eax
	movq	-32(%rbp), %rcx
	movslq	-104(%rbp), %rdx
	movq	(%rcx,%rdx,8), %rcx
	movslq	-100(%rbp), %rdx
	movswl	(%rcx,%rdx,2), %ecx
	cmpl	$1, %ecx
	movl	$1, %ecx
	cmovgl	%ecx, %eax
	movl	%eax, -16(%rbp)
	jmp	.LBB42_26
.LBB42_25:                              # %if.else124
	xorl	%eax, %eax
	movq	-32(%rbp), %rcx
	movslq	-104(%rbp), %rdx
	movq	(%rcx,%rdx,8), %rcx
	movslq	-100(%rbp), %rdx
	movswl	(%rcx,%rdx,2), %ecx
	cmpl	$0, %ecx
	movl	$1, %ecx
	cmovgl	%ecx, %eax
	movl	%eax, -16(%rbp)
.LBB42_26:                              # %if.end135
	jmp	.LBB42_27
.LBB42_27:                              # %if.end136
	jmp	.LBB42_28
.LBB42_28:                              # %if.end137
	movl	-16(%rbp), %eax
	movl	-8(%rbp), %ecx
	shll	$1, %ecx
	addl	%ecx, %eax
	movl	%eax, -4(%rbp)
	movl	-4(%rbp), %eax
	movq	-48(%rbp), %rcx
	movl	%eax, 24(%rcx)
	movq	-48(%rbp), %rax
	movl	4(%rax), %eax
	movl	%eax, -12(%rbp)
	cmpl	$0, -12(%rbp)
	jne	.LBB42_30
# %bb.29:                               # %if.then142
	movq	-40(%rbp), %rdi
	movq	-56(%rbp), %rdx
	addq	$1136, %rdx             # imm = 0x470
	movslq	-20(%rbp), %rax
	imulq	$96, %rax, %rax
	addq	%rax, %rdx
	movslq	-4(%rbp), %rax
	shlq	$4, %rax
	addq	%rax, %rdx
	xorl	%esi, %esi
	callq	biari_encode_symbol
	jmp	.LBB42_31
.LBB42_30:                              # %if.else145
	movq	-40(%rbp), %rdi
	movq	-56(%rbp), %rdx
	addq	$1136, %rdx             # imm = 0x470
	movslq	-20(%rbp), %rax
	imulq	$96, %rax, %rax
	addq	%rax, %rdx
	movslq	-4(%rbp), %rax
	shlq	$4, %rax
	addq	%rax, %rdx
	movl	$1, %esi
	callq	biari_encode_symbol
	movl	-12(%rbp), %eax
	addl	$-1, %eax
	movl	%eax, -12(%rbp)
	movl	$4, -4(%rbp)
	movq	-40(%rbp), %rdi
	movl	-12(%rbp), %esi
	movq	-56(%rbp), %rdx
	addq	$1136, %rdx             # imm = 0x470
	movslq	-20(%rbp), %rax
	imulq	$96, %rax, %rax
	addq	%rax, %rdx
	movslq	-4(%rbp), %rax
	shlq	$4, %rax
	addq	%rax, %rdx
	movl	$1, %ecx
	callq	unary_bin_encode
.LBB42_31:                              # %if.end158
	cmpl	$1228159534, -64(%rbp)  # imm = 0x49343A2E
	jne	.LBB42_33
.LBB42_32:
	addq	$128, %rsp
	popq	%rbp
	.cfi_def_cfa %rsp, 8
	retq
.LBB42_33:                              # %func_exit
	.cfi_def_cfa %rbp, 16
	callq	detect_breach
	jmp	.LBB42_32
.Lfunc_end42:
	.size	writeRefFrame_CABAC.15, .Lfunc_end42-writeRefFrame_CABAC.15
	.cfi_endproc
                                        # -- End function
	.globl	writeMVD_CABAC.16       # -- Begin function writeMVD_CABAC.16
	.p2align	4, 0x90
	.type	writeMVD_CABAC.16,@function
writeMVD_CABAC.16:                      # @writeMVD_CABAC.16
	.cfi_startproc
# %bb.0:                                # %entry
	pushq	%rbp
	.cfi_def_cfa_offset 16
	.cfi_offset %rbp, -16
	movq	%rsp, %rbp
	.cfi_def_cfa_register %rbp
	subq	$144, %rsp
	movl	$98865267, -124(%rbp)   # imm = 0x5E49073
	movq	%rdi, -56(%rbp)
	movq	%rsi, -64(%rbp)
	movq	img, %rax
	movl	72(%rax), %eax
	movl	%eax, -36(%rbp)
	movq	img, %rax
	movl	76(%rax), %eax
	movl	%eax, -32(%rbp)
	movq	-56(%rbp), %rax
	movl	8(%rax), %eax
	andl	$1, %eax
	movl	%eax, -16(%rbp)
	movq	-56(%rbp), %rax
	movl	8(%rax), %eax
	sarl	$1, %eax
	movl	%eax, -4(%rbp)
	movq	img, %rax
	movq	14160(%rax), %rax
	movq	32(%rax), %rax
	movq	%rax, -120(%rbp)
	movq	img, %rax
	movq	14168(%rax), %rax
	movq	img, %rcx
	movslq	12(%rcx), %rcx
	imulq	$632, %rcx, %rcx        # imm = 0x278
	addq	%rcx, %rax
	movq	%rax, -48(%rbp)
	movq	img, %rax
	movl	12(%rax), %edi
	movl	-36(%rbp), %esi
	movl	-32(%rbp), %edx
	movl	$4294967295, %ecx       # imm = 0xFFFFFFFF
	xorl	%r8d, %r8d
	leaq	-112(%rbp), %r9
	callq	getLuma4x4Neighbour
	movq	img, %rax
	movl	12(%rax), %edi
	movl	-36(%rbp), %esi
	movl	-32(%rbp), %edx
	movl	$0, %ecx
	movl	$4294967295, %r8d       # imm = 0xFFFFFFFF
	leaq	-88(%rbp), %r9
	callq	getLuma4x4Neighbour
	cmpl	$0, -88(%rbp)
	je	.LBB43_15
# %bb.1:                                # %if.then
	movq	img, %rax
	movq	14168(%rax), %rax
	movslq	-84(%rbp), %rcx
	imulq	$632, %rcx, %rcx        # imm = 0x278
	addq	%rcx, %rax
	addq	$76, %rax
	movslq	-16(%rbp), %rcx
	shlq	$7, %rcx
	addq	%rcx, %rax
	movslq	-76(%rbp), %rcx
	shlq	$5, %rcx
	addq	%rcx, %rax
	movslq	-80(%rbp), %rcx
	shlq	$3, %rcx
	addq	%rcx, %rax
	movslq	-4(%rbp), %rcx
	cmpl	$0, (%rax,%rcx,4)
	jge	.LBB43_3
# %bb.2:                                # %cond.true
	xorl	%eax, %eax
	movq	img, %rcx
	movq	14168(%rcx), %rcx
	movslq	-84(%rbp), %rdx
	imulq	$632, %rdx, %rdx        # imm = 0x278
	addq	%rdx, %rcx
	addq	$76, %rcx
	movslq	-16(%rbp), %rdx
	shlq	$7, %rdx
	addq	%rdx, %rcx
	movslq	-76(%rbp), %rdx
	shlq	$5, %rdx
	addq	%rdx, %rcx
	movslq	-80(%rbp), %rdx
	shlq	$3, %rdx
	addq	%rdx, %rcx
	movslq	-4(%rbp), %rdx
	subl	(%rcx,%rdx,4), %eax
	jmp	.LBB43_4
.LBB43_3:                               # %cond.false
	movq	img, %rax
	movq	14168(%rax), %rax
	movslq	-84(%rbp), %rcx
	imulq	$632, %rcx, %rcx        # imm = 0x278
	addq	%rcx, %rax
	addq	$76, %rax
	movslq	-16(%rbp), %rcx
	shlq	$7, %rcx
	addq	%rcx, %rax
	movslq	-76(%rbp), %rcx
	shlq	$5, %rcx
	addq	%rcx, %rax
	movslq	-80(%rbp), %rcx
	shlq	$3, %rcx
	addq	%rcx, %rax
	movslq	-4(%rbp), %rcx
	movl	(%rax,%rcx,4), %eax
.LBB43_4:                               # %cond.end
	movl	%eax, -12(%rbp)
	movq	img, %rax
	cmpl	$0, 72400(%rax)
	je	.LBB43_14
# %bb.5:                                # %land.lhs.true
	cmpl	$1, -4(%rbp)
	jne	.LBB43_14
# %bb.6:                                # %if.then47
	movq	-48(%rbp), %rax
	cmpl	$0, 532(%rax)
	jne	.LBB43_9
# %bb.7:                                # %land.lhs.true49
	movq	img, %rax
	movq	14168(%rax), %rax
	movslq	-84(%rbp), %rcx
	imulq	$632, %rcx, %rcx        # imm = 0x278
	addq	%rcx, %rax
	cmpl	$1, 532(%rax)
	jne	.LBB43_9
# %bb.8:                                # %if.then56
	movl	-12(%rbp), %eax
	shll	$1, %eax
	movl	%eax, -12(%rbp)
	jmp	.LBB43_13
.LBB43_9:                               # %if.else
	movq	-48(%rbp), %rax
	cmpl	$1, 532(%rax)
	jne	.LBB43_12
# %bb.10:                               # %land.lhs.true59
	movq	img, %rax
	movq	14168(%rax), %rax
	movslq	-84(%rbp), %rcx
	imulq	$632, %rcx, %rcx        # imm = 0x278
	addq	%rcx, %rax
	cmpl	$0, 532(%rax)
	jne	.LBB43_12
# %bb.11:                               # %if.then66
	movl	-12(%rbp), %eax
	cltd
	movl	$2, %ecx
	idivl	%ecx
	movl	%eax, -12(%rbp)
.LBB43_12:                              # %if.end
	jmp	.LBB43_13
.LBB43_13:                              # %if.end67
	jmp	.LBB43_14
.LBB43_14:                              # %if.end68
	jmp	.LBB43_16
.LBB43_15:                              # %if.else69
	movl	$0, -12(%rbp)
.LBB43_16:                              # %if.end70
	cmpl	$0, -112(%rbp)
	je	.LBB43_31
# %bb.17:                               # %if.then73
	movq	img, %rax
	movq	14168(%rax), %rax
	movslq	-108(%rbp), %rcx
	imulq	$632, %rcx, %rcx        # imm = 0x278
	addq	%rcx, %rax
	addq	$76, %rax
	movslq	-16(%rbp), %rcx
	shlq	$7, %rcx
	addq	%rcx, %rax
	movslq	-100(%rbp), %rcx
	shlq	$5, %rcx
	addq	%rcx, %rax
	movslq	-104(%rbp), %rcx
	shlq	$3, %rcx
	addq	%rcx, %rax
	movslq	-4(%rbp), %rcx
	cmpl	$0, (%rax,%rcx,4)
	jge	.LBB43_19
# %bb.18:                               # %cond.true90
	xorl	%eax, %eax
	movq	img, %rcx
	movq	14168(%rcx), %rcx
	movslq	-108(%rbp), %rdx
	imulq	$632, %rdx, %rdx        # imm = 0x278
	addq	%rdx, %rcx
	addq	$76, %rcx
	movslq	-16(%rbp), %rdx
	shlq	$7, %rdx
	addq	%rdx, %rcx
	movslq	-100(%rbp), %rdx
	shlq	$5, %rdx
	addq	%rdx, %rcx
	movslq	-104(%rbp), %rdx
	shlq	$3, %rdx
	addq	%rdx, %rcx
	movslq	-4(%rbp), %rdx
	subl	(%rcx,%rdx,4), %eax
	jmp	.LBB43_20
.LBB43_19:                              # %cond.false107
	movq	img, %rax
	movq	14168(%rax), %rax
	movslq	-108(%rbp), %rcx
	imulq	$632, %rcx, %rcx        # imm = 0x278
	addq	%rcx, %rax
	addq	$76, %rax
	movslq	-16(%rbp), %rcx
	shlq	$7, %rcx
	addq	%rcx, %rax
	movslq	-100(%rbp), %rcx
	shlq	$5, %rcx
	addq	%rcx, %rax
	movslq	-104(%rbp), %rcx
	shlq	$3, %rcx
	addq	%rcx, %rax
	movslq	-4(%rbp), %rcx
	movl	(%rax,%rcx,4), %eax
.LBB43_20:                              # %cond.end123
	movl	%eax, -20(%rbp)
	movq	img, %rax
	cmpl	$0, 72400(%rax)
	je	.LBB43_30
# %bb.21:                               # %land.lhs.true127
	cmpl	$1, -4(%rbp)
	jne	.LBB43_30
# %bb.22:                               # %if.then129
	movq	-48(%rbp), %rax
	cmpl	$0, 532(%rax)
	jne	.LBB43_25
# %bb.23:                               # %land.lhs.true132
	movq	img, %rax
	movq	14168(%rax), %rax
	movslq	-108(%rbp), %rcx
	imulq	$632, %rcx, %rcx        # imm = 0x278
	addq	%rcx, %rax
	cmpl	$1, 532(%rax)
	jne	.LBB43_25
# %bb.24:                               # %if.then139
	movl	-20(%rbp), %eax
	shll	$1, %eax
	movl	%eax, -20(%rbp)
	jmp	.LBB43_29
.LBB43_25:                              # %if.else141
	movq	-48(%rbp), %rax
	cmpl	$1, 532(%rax)
	jne	.LBB43_28
# %bb.26:                               # %land.lhs.true144
	movq	img, %rax
	movq	14168(%rax), %rax
	movslq	-108(%rbp), %rcx
	imulq	$632, %rcx, %rcx        # imm = 0x278
	addq	%rcx, %rax
	cmpl	$0, 532(%rax)
	jne	.LBB43_28
# %bb.27:                               # %if.then151
	movl	-20(%rbp), %eax
	cltd
	movl	$2, %ecx
	idivl	%ecx
	movl	%eax, -20(%rbp)
.LBB43_28:                              # %if.end153
	jmp	.LBB43_29
.LBB43_29:                              # %if.end154
	jmp	.LBB43_30
.LBB43_30:                              # %if.end155
	jmp	.LBB43_32
.LBB43_31:                              # %if.else156
	movl	$0, -20(%rbp)
.LBB43_32:                              # %if.end157
	movl	-20(%rbp), %eax
	addl	-12(%rbp), %eax
	movl	%eax, -132(%rbp)
	cmpl	$3, %eax
	jge	.LBB43_34
# %bb.33:                               # %if.then159
	imull	$5, -4(%rbp), %eax
	movl	%eax, -8(%rbp)
	jmp	.LBB43_38
.LBB43_34:                              # %if.else161
	cmpl	$32, -132(%rbp)
	jle	.LBB43_36
# %bb.35:                               # %if.then163
	imull	$5, -4(%rbp), %eax
	addl	$3, %eax
	movl	%eax, -8(%rbp)
	jmp	.LBB43_37
.LBB43_36:                              # %if.else166
	imull	$5, -4(%rbp), %eax
	addl	$2, %eax
	movl	%eax, -8(%rbp)
.LBB43_37:                              # %if.end169
	jmp	.LBB43_38
.LBB43_38:                              # %if.end170
	movq	-56(%rbp), %rax
	movl	4(%rax), %eax
	movl	%eax, -24(%rbp)
	movl	-8(%rbp), %eax
	movq	-56(%rbp), %rcx
	movl	%eax, 24(%rcx)
	cmpl	$0, -24(%rbp)
	jge	.LBB43_40
# %bb.39:                               # %cond.true172
	xorl	%eax, %eax
	subl	-24(%rbp), %eax
	jmp	.LBB43_41
.LBB43_40:                              # %cond.false174
	movl	-24(%rbp), %eax
.LBB43_41:                              # %cond.end175
	movl	%eax, -28(%rbp)
	cmpl	$0, -28(%rbp)
	jne	.LBB43_43
# %bb.42:                               # %if.then178
	movq	-64(%rbp), %rdi
	movq	-120(%rbp), %rdx
	addq	$816, %rdx              # imm = 0x330
	movslq	-8(%rbp), %rax
	shlq	$4, %rax
	addq	%rax, %rdx
	xorl	%esi, %esi
	callq	biari_encode_symbol
	jmp	.LBB43_44
.LBB43_43:                              # %if.else182
	movq	-64(%rbp), %rdi
	movq	-120(%rbp), %rdx
	addq	$816, %rdx              # imm = 0x330
	movslq	-8(%rbp), %rax
	shlq	$4, %rax
	addq	%rax, %rdx
	movl	$1, %esi
	callq	biari_encode_symbol
	movl	-28(%rbp), %eax
	addl	$-1, %eax
	movl	%eax, -28(%rbp)
	imull	$5, -4(%rbp), %eax
	movl	%eax, -8(%rbp)
	movq	-64(%rbp), %rdi
	movl	-28(%rbp), %esi
	movq	-120(%rbp), %rdx
	addq	$816, %rdx              # imm = 0x330
	addq	$160, %rdx
	movslq	-8(%rbp), %rax
	shlq	$4, %rax
	addq	%rax, %rdx
	movl	$3, %ecx
	callq	unary_exp_golomb_mv_encode
	xorl	%eax, %eax
	movl	-24(%rbp), %ecx
	cmpl	$0, %ecx
	movl	$1, %ecx
	cmovll	%ecx, %eax
	movl	%eax, -128(%rbp)
	movq	-64(%rbp), %rdi
	movl	-128(%rbp), %eax
	movzbl	%al, %eax
	movswl	%ax, %esi
	callq	biari_encode_symbol_eq_prob
.LBB43_44:                              # %if.end193
	cmpl	$98865267, -124(%rbp)   # imm = 0x5E49073
	jne	.LBB43_46
.LBB43_45:
	addq	$144, %rsp
	popq	%rbp
	.cfi_def_cfa %rsp, 8
	retq
.LBB43_46:                              # %func_exit
	.cfi_def_cfa %rbp, 16
	callq	detect_breach
	jmp	.LBB43_45
.Lfunc_end43:
	.size	writeMVD_CABAC.16, .Lfunc_end43-writeMVD_CABAC.16
	.cfi_endproc
                                        # -- End function
	.globl	writeCBP_CABAC.17       # -- Begin function writeCBP_CABAC.17
	.p2align	4, 0x90
	.type	writeCBP_CABAC.17,@function
writeCBP_CABAC.17:                      # @writeCBP_CABAC.17
	.cfi_startproc
# %bb.0:                                # %entry
	pushq	%rbp
	.cfi_def_cfa_offset 16
	.cfi_offset %rbp, -16
	movq	%rsp, %rbp
	.cfi_def_cfa_register %rbp
	subq	$64, %rsp
	movl	$95439908, -48(%rbp)    # imm = 0x5B04C24
	movq	%rdi, -64(%rbp)
	movq	%rsi, -40(%rbp)
	movq	img, %rax
	movq	14160(%rax), %rax
	movq	40(%rax), %rax
	movq	%rax, -56(%rbp)
	movq	img, %rax
	movq	14168(%rax), %rax
	movq	img, %rcx
	movslq	12(%rcx), %rcx
	imulq	$632, %rcx, %rcx        # imm = 0x278
	addq	%rcx, %rax
	movq	%rax, -8(%rbp)
	movq	-64(%rbp), %rax
	movl	4(%rax), %eax
	movl	%eax, -24(%rbp)
	movl	$0, -20(%rbp)
.LBB44_1:                               # %for.cond
                                        # =>This Inner Loop Header: Depth=1
	cmpl	$4, -20(%rbp)
	jge	.LBB44_4
# %bb.2:                                # %for.body
                                        #   in Loop: Header=BB44_1 Depth=1
	xorl	%eax, %eax
	movq	-8(%rbp), %rcx
	movslq	-20(%rbp), %rdx
	movl	472(%rcx,%rdx,4), %ecx
	cmpl	$11, %ecx
	movl	$1, %edx
	movl	$1, %ecx
	cmovel	%eax, %ecx
	movl	%ecx, -44(%rbp)
	movl	-20(%rbp), %edi
	movl	-24(%rbp), %esi
	movl	-20(%rbp), %ecx
                                        # kill: def $cl killed $ecx
	shll	%cl, %edx
	andl	%edx, %esi
	movl	-24(%rbp), %edx
	movq	-8(%rbp), %rcx
	movl	-44(%rbp), %r8d
	movq	-40(%rbp), %r9
	callq	writeCBP_BIT_CABAC
# %bb.3:                                # %for.inc
                                        #   in Loop: Header=BB44_1 Depth=1
	movl	-20(%rbp), %eax
	addl	$1, %eax
	movl	%eax, -20(%rbp)
	jmp	.LBB44_1
.LBB44_4:                               # %for.end
	movq	img, %rax
	cmpl	$0, 72700(%rax)
	je	.LBB44_32
# %bb.5:                                # %if.then
	movl	$0, -16(%rbp)
	movq	-8(%rbp), %rax
	cmpq	$0, 56(%rax)
	je	.LBB44_10
# %bb.6:                                # %if.then6
	movq	-8(%rbp), %rax
	movq	56(%rax), %rax
	cmpl	$14, 72(%rax)
	jne	.LBB44_8
# %bb.7:                                # %if.then9
	movl	$1, -16(%rbp)
	jmp	.LBB44_9
.LBB44_8:                               # %if.else
	xorl	%eax, %eax
	movq	-8(%rbp), %rcx
	movq	56(%rcx), %rcx
	movl	460(%rcx), %ecx
	cmpl	$15, %ecx
	movl	$1, %ecx
	cmovgl	%ecx, %eax
	movl	%eax, -16(%rbp)
.LBB44_9:                               # %if.end
	jmp	.LBB44_10
.LBB44_10:                              # %if.end14
	movl	$0, -12(%rbp)
	movq	-8(%rbp), %rax
	cmpq	$0, 64(%rax)
	je	.LBB44_15
# %bb.11:                               # %if.then16
	movq	-8(%rbp), %rax
	movq	64(%rax), %rax
	cmpl	$14, 72(%rax)
	jne	.LBB44_13
# %bb.12:                               # %if.then20
	movl	$1, -12(%rbp)
	jmp	.LBB44_14
.LBB44_13:                              # %if.else21
	xorl	%eax, %eax
	movq	-8(%rbp), %rcx
	movq	64(%rcx), %rcx
	movl	460(%rcx), %ecx
	cmpl	$15, %ecx
	movl	$1, %ecx
	cmovgl	%ecx, %eax
	movl	%eax, -12(%rbp)
.LBB44_14:                              # %if.end26
	jmp	.LBB44_15
.LBB44_15:                              # %if.end27
	xorl	%eax, %eax
	movl	-12(%rbp), %ecx
	movl	-16(%rbp), %edx
	shll	$1, %edx
	addl	%edx, %ecx
	movl	%ecx, -28(%rbp)
	movl	-24(%rbp), %ecx
	cmpl	$15, %ecx
	movl	$1, %ecx
	cmovgl	%ecx, %eax
	movl	%eax, -32(%rbp)
	movq	-40(%rbp), %rdi
	movl	-32(%rbp), %eax
	movzbl	%al, %eax
	movq	-56(%rbp), %rdx
	addq	$96, %rdx
	addq	$64, %rdx
	movslq	-28(%rbp), %rcx
	shlq	$4, %rcx
	addq	%rcx, %rdx
	movswl	%ax, %esi
	callq	biari_encode_symbol
	cmpl	$15, -24(%rbp)
	jle	.LBB44_31
# %bb.16:                               # %if.then34
	movl	$0, -16(%rbp)
	movq	-8(%rbp), %rax
	cmpq	$0, 56(%rax)
	je	.LBB44_23
# %bb.17:                               # %if.then38
	movq	-8(%rbp), %rax
	movq	56(%rax), %rax
	cmpl	$14, 72(%rax)
	jne	.LBB44_19
# %bb.18:                               # %if.then43
	movl	$1, -16(%rbp)
	jmp	.LBB44_22
.LBB44_19:                              # %if.else44
	movq	-8(%rbp), %rax
	movq	56(%rax), %rax
	cmpl	$15, 460(%rax)
	jle	.LBB44_21
# %bb.20:                               # %if.then49
	xorl	%eax, %eax
	movq	-8(%rbp), %rcx
	movq	56(%rcx), %rcx
	movl	460(%rcx), %ecx
	sarl	$4, %ecx
	cmpl	$2, %ecx
	movl	$1, %ecx
	cmovel	%ecx, %eax
	movl	%eax, -16(%rbp)
.LBB44_21:                              # %if.end55
	jmp	.LBB44_22
.LBB44_22:                              # %if.end56
	jmp	.LBB44_23
.LBB44_23:                              # %if.end57
	movl	$0, -12(%rbp)
	movq	-8(%rbp), %rax
	cmpq	$0, 64(%rax)
	je	.LBB44_30
# %bb.24:                               # %if.then61
	movq	-8(%rbp), %rax
	movq	64(%rax), %rax
	cmpl	$14, 72(%rax)
	jne	.LBB44_26
# %bb.25:                               # %if.then66
	movl	$1, -12(%rbp)
	jmp	.LBB44_29
.LBB44_26:                              # %if.else67
	movq	-8(%rbp), %rax
	movq	64(%rax), %rax
	cmpl	$15, 460(%rax)
	jle	.LBB44_28
# %bb.27:                               # %if.then72
	xorl	%eax, %eax
	movq	-8(%rbp), %rcx
	movq	64(%rcx), %rcx
	movl	460(%rcx), %ecx
	sarl	$4, %ecx
	cmpl	$2, %ecx
	movl	$1, %ecx
	cmovel	%ecx, %eax
	movl	%eax, -12(%rbp)
.LBB44_28:                              # %if.end79
	jmp	.LBB44_29
.LBB44_29:                              # %if.end80
	jmp	.LBB44_30
.LBB44_30:                              # %if.end81
	xorl	%eax, %eax
	movl	-12(%rbp), %ecx
	movl	-16(%rbp), %edx
	shll	$1, %edx
	addl	%edx, %ecx
	movl	%ecx, -28(%rbp)
	movl	-24(%rbp), %ecx
	sarl	$4, %ecx
	cmpl	$2, %ecx
	movl	$1, %ecx
	cmovel	%ecx, %eax
	movl	%eax, -32(%rbp)
	movq	-40(%rbp), %rdi
	movl	-32(%rbp), %eax
	movzbl	%al, %eax
	movq	-56(%rbp), %rdx
	addq	$96, %rdx
	addq	$128, %rdx
	movslq	-28(%rbp), %rcx
	shlq	$4, %rcx
	addq	%rcx, %rdx
	movswl	%ax, %esi
	callq	biari_encode_symbol
.LBB44_31:                              # %if.end95
	jmp	.LBB44_32
.LBB44_32:                              # %if.end96
	cmpl	$95439908, -48(%rbp)    # imm = 0x5B04C24
	jne	.LBB44_34
.LBB44_33:
	addq	$64, %rsp
	popq	%rbp
	.cfi_def_cfa %rsp, 8
	retq
.LBB44_34:                              # %func_exit
	.cfi_def_cfa %rbp, 16
	callq	detect_breach
	jmp	.LBB44_33
.Lfunc_end44:
	.size	writeCBP_CABAC.17, .Lfunc_end44-writeCBP_CABAC.17
	.cfi_endproc
                                        # -- End function
	.globl	writeFieldModeInfo_CABAC.18 # -- Begin function writeFieldModeInfo_CABAC.18
	.p2align	4, 0x90
	.type	writeFieldModeInfo_CABAC.18,@function
writeFieldModeInfo_CABAC.18:            # @writeFieldModeInfo_CABAC.18
	.cfi_startproc
# %bb.0:                                # %entry
	pushq	%rbp
	.cfi_def_cfa_offset 16
	.cfi_offset %rbp, -16
	movq	%rsp, %rbp
	.cfi_def_cfa_register %rbp
	subq	$64, %rsp
	movl	$524592277, -32(%rbp)   # imm = 0x1F44A495
	movq	%rdi, -40(%rbp)
	movq	%rsi, -48(%rbp)
	movq	img, %rax
	movq	14160(%rax), %rax
	movq	32(%rax), %rax
	movq	%rax, -56(%rbp)
	movq	img, %rax
	movq	14168(%rax), %rax
	movq	img, %rcx
	movslq	12(%rcx), %rcx
	imulq	$632, %rcx, %rcx        # imm = 0x278
	addq	%rcx, %rax
	movq	%rax, -24(%rbp)
	movq	-40(%rbp), %rax
	movl	4(%rax), %eax
	movl	%eax, -28(%rbp)
	movq	-24(%rbp), %rax
	cmpl	$0, 552(%rax)
	je	.LBB45_2
# %bb.1:                                # %if.then
	movq	img, %rax
	movq	14168(%rax), %rax
	movq	-24(%rbp), %rcx
	movslq	536(%rcx), %rcx
	imulq	$632, %rcx, %rcx        # imm = 0x278
	addq	%rcx, %rax
	movl	532(%rax), %eax
	movl	%eax, -12(%rbp)
	jmp	.LBB45_3
.LBB45_2:                               # %if.else
	movl	$0, -12(%rbp)
.LBB45_3:                               # %if.end
	movq	-24(%rbp), %rax
	cmpl	$0, 556(%rax)
	je	.LBB45_5
# %bb.4:                                # %if.then6
	movq	img, %rax
	movq	14168(%rax), %rax
	movq	-24(%rbp), %rcx
	movslq	540(%rcx), %rcx
	imulq	$632, %rcx, %rcx        # imm = 0x278
	addq	%rcx, %rax
	movl	532(%rax), %eax
	movl	%eax, -8(%rbp)
	jmp	.LBB45_6
.LBB45_5:                               # %if.else11
	movl	$0, -8(%rbp)
.LBB45_6:                               # %if.end12
	movl	-12(%rbp), %eax
	addl	-8(%rbp), %eax
	movl	%eax, -4(%rbp)
	cmpl	$0, -28(%rbp)
	jne	.LBB45_8
# %bb.7:                                # %if.then13
	movq	-48(%rbp), %rdi
	movq	-56(%rbp), %rdx
	addq	$1392, %rdx             # imm = 0x570
	movslq	-4(%rbp), %rax
	shlq	$4, %rax
	addq	%rax, %rdx
	xorl	%esi, %esi
	callq	biari_encode_symbol
	jmp	.LBB45_9
.LBB45_8:                               # %if.else16
	movq	-48(%rbp), %rdi
	movq	-56(%rbp), %rdx
	addq	$1392, %rdx             # imm = 0x570
	movslq	-4(%rbp), %rax
	shlq	$4, %rax
	addq	%rax, %rdx
	movl	$1, %esi
	callq	biari_encode_symbol
.LBB45_9:                               # %if.end20
	movl	-4(%rbp), %eax
	movq	-40(%rbp), %rcx
	movl	%eax, 24(%rcx)
	cmpl	$524592277, -32(%rbp)   # imm = 0x1F44A495
	jne	.LBB45_11
.LBB45_10:
	addq	$64, %rsp
	popq	%rbp
	.cfi_def_cfa %rsp, 8
	retq
.LBB45_11:                              # %func_exit
	.cfi_def_cfa %rbp, 16
	callq	detect_breach
	jmp	.LBB45_10
.Lfunc_end45:
	.size	writeFieldModeInfo_CABAC.18, .Lfunc_end45-writeFieldModeInfo_CABAC.18
	.cfi_endproc
                                        # -- End function
	.globl	unary_exp_golomb_mv_encode.19 # -- Begin function unary_exp_golomb_mv_encode.19
	.p2align	4, 0x90
	.type	unary_exp_golomb_mv_encode.19,@function
unary_exp_golomb_mv_encode.19:          # @unary_exp_golomb_mv_encode.19
	.cfi_startproc
# %bb.0:                                # %entry
	pushq	%rbp
	.cfi_def_cfa_offset 16
	.cfi_offset %rbp, -16
	movq	%rsp, %rbp
	.cfi_def_cfa_register %rbp
	subq	$64, %rsp
	movl	$1785545116, -44(%rbp)  # imm = 0x6A6D419C
	movq	%rdi, -32(%rbp)
	movl	%esi, -12(%rbp)
	movq	%rdx, -56(%rbp)
	movl	%ecx, -48(%rbp)
	movl	$1, -16(%rbp)
	movq	-56(%rbp), %rax
	movq	%rax, -8(%rbp)
	movl	$8, -20(%rbp)
	cmpl	$0, -12(%rbp)
	jne	.LBB46_2
# %bb.1:                                # %if.then
	movq	-32(%rbp), %rdi
	movq	-8(%rbp), %rdx
	xorl	%esi, %esi
	callq	biari_encode_symbol
	jmp	.LBB46_16
.LBB46_2:                               # %if.else
	movq	-32(%rbp), %rdi
	movq	-8(%rbp), %rdx
	movl	$1, %esi
	callq	biari_encode_symbol
	movl	-12(%rbp), %eax
	movl	%eax, -36(%rbp)
	movl	$1, -40(%rbp)
	movq	-8(%rbp), %rax
	addq	$16, %rax
	movq	%rax, -8(%rbp)
.LBB46_3:                               # %while.cond
                                        # =>This Inner Loop Header: Depth=1
	xorl	%eax, %eax
	movl	-36(%rbp), %ecx
	addl	$-1, %ecx
	movl	%ecx, -36(%rbp)
	cmpl	$0, %ecx
	jbe	.LBB46_5
# %bb.4:                                # %land.rhs
                                        #   in Loop: Header=BB46_3 Depth=1
	movl	-40(%rbp), %eax
	addl	$1, %eax
	movl	%eax, -40(%rbp)
	cmpl	-20(%rbp), %eax
	setbe	%al
.LBB46_5:                               # %land.end
                                        #   in Loop: Header=BB46_3 Depth=1
	testb	$1, %al
	jne	.LBB46_6
	jmp	.LBB46_11
.LBB46_6:                               # %while.body
                                        #   in Loop: Header=BB46_3 Depth=1
	movq	-32(%rbp), %rdi
	movq	-8(%rbp), %rdx
	movl	$1, %esi
	callq	biari_encode_symbol
	movl	-16(%rbp), %eax
	addl	$1, %eax
	movl	%eax, -16(%rbp)
	cmpl	$2, %eax
	jne	.LBB46_8
# %bb.7:                                # %if.then5
                                        #   in Loop: Header=BB46_3 Depth=1
	movq	-8(%rbp), %rax
	addq	$16, %rax
	movq	%rax, -8(%rbp)
.LBB46_8:                               # %if.end
                                        #   in Loop: Header=BB46_3 Depth=1
	movl	-16(%rbp), %eax
	cmpl	-48(%rbp), %eax
	jne	.LBB46_10
# %bb.9:                                # %if.then8
                                        #   in Loop: Header=BB46_3 Depth=1
	movq	-8(%rbp), %rax
	addq	$16, %rax
	movq	%rax, -8(%rbp)
.LBB46_10:                              # %if.end10
                                        #   in Loop: Header=BB46_3 Depth=1
	jmp	.LBB46_3
.LBB46_11:                              # %while.end
	movl	-12(%rbp), %eax
	cmpl	-20(%rbp), %eax
	jae	.LBB46_13
# %bb.12:                               # %if.then12
	movq	-32(%rbp), %rdi
	movq	-8(%rbp), %rdx
	xorl	%esi, %esi
	callq	biari_encode_symbol
	jmp	.LBB46_14
.LBB46_13:                              # %if.else13
	movq	-32(%rbp), %rdi
	movl	-12(%rbp), %esi
	subl	-20(%rbp), %esi
	movl	$3, %edx
	callq	exp_golomb_encode_eq_prob
.LBB46_14:                              # %if.end14
	jmp	.LBB46_15
.LBB46_15:                              # %if.end15
	jmp	.LBB46_16
.LBB46_16:                              # %return
	cmpl	$1785545116, -44(%rbp)  # imm = 0x6A6D419C
	jne	.LBB46_18
.LBB46_17:
	addq	$64, %rsp
	popq	%rbp
	.cfi_def_cfa %rsp, 8
	retq
.LBB46_18:                              # %func_exit
	.cfi_def_cfa %rbp, 16
	callq	detect_breach
	jmp	.LBB46_17
.Lfunc_end46:
	.size	unary_exp_golomb_mv_encode.19, .Lfunc_end46-unary_exp_golomb_mv_encode.19
	.cfi_endproc
                                        # -- End function
	.globl	writeRunLevel_CABAC.20  # -- Begin function writeRunLevel_CABAC.20
	.p2align	4, 0x90
	.type	writeRunLevel_CABAC.20,@function
writeRunLevel_CABAC.20:                 # @writeRunLevel_CABAC.20
	.cfi_startproc
# %bb.0:                                # %entry
	pushq	%rbp
	.cfi_def_cfa_offset 16
	.cfi_offset %rbp, -16
	movq	%rsp, %rbp
	.cfi_def_cfa_register %rbp
	subq	$48, %rsp
	movl	$1286554151, -36(%rbp)  # imm = 0x4CAF4227
	movq	%rdi, -16(%rbp)
	movq	%rsi, -24(%rbp)
	movq	img, %rax
	movq	14168(%rax), %rax
	movq	img, %rcx
	movslq	12(%rcx), %rcx
	imulq	$632, %rcx, %rcx        # imm = 0x278
	addq	%rcx, %rax
	movq	%rax, -32(%rbp)
	movq	-16(%rbp), %rax
	cmpl	$0, 4(%rax)
	je	.LBB47_6
# %bb.1:                                # %if.then
	movl	$0, -4(%rbp)
.LBB47_2:                               # %for.cond
                                        # =>This Inner Loop Header: Depth=1
	movl	-4(%rbp), %eax
	movq	-16(%rbp), %rcx
	cmpl	8(%rcx), %eax
	jge	.LBB47_5
# %bb.3:                                # %for.body
                                        #   in Loop: Header=BB47_2 Depth=1
	movl	writeRunLevel_CABAC.pos, %eax
	movl	%eax, %ecx
	addl	$1, %ecx
	movl	%ecx, writeRunLevel_CABAC.pos
	cltq
	movl	$0, writeRunLevel_CABAC.coeff(,%rax,4)
# %bb.4:                                # %for.inc
                                        #   in Loop: Header=BB47_2 Depth=1
	movl	-4(%rbp), %eax
	addl	$1, %eax
	movl	%eax, -4(%rbp)
	jmp	.LBB47_2
.LBB47_5:                               # %for.end
	movq	-16(%rbp), %rax
	movl	4(%rax), %eax
	movl	writeRunLevel_CABAC.pos, %ecx
	movl	%ecx, %edx
	addl	$1, %edx
	movl	%edx, writeRunLevel_CABAC.pos
	movslq	%ecx, %rcx
	movl	%eax, writeRunLevel_CABAC.coeff(,%rcx,4)
	movl	writeRunLevel_CABAC.coeff_ctr, %eax
	addl	$1, %eax
	movl	%eax, writeRunLevel_CABAC.coeff_ctr
	jmp	.LBB47_14
.LBB47_6:                               # %if.else
	jmp	.LBB47_7
.LBB47_7:                               # %for.cond10
                                        # =>This Inner Loop Header: Depth=1
	cmpl	$64, writeRunLevel_CABAC.pos
	jge	.LBB47_10
# %bb.8:                                # %for.body12
                                        #   in Loop: Header=BB47_7 Depth=1
	movslq	writeRunLevel_CABAC.pos, %rax
	movl	$0, writeRunLevel_CABAC.coeff(,%rax,4)
# %bb.9:                                # %for.inc15
                                        #   in Loop: Header=BB47_7 Depth=1
	movl	writeRunLevel_CABAC.pos, %eax
	addl	$1, %eax
	movl	%eax, writeRunLevel_CABAC.pos
	jmp	.LBB47_7
.LBB47_10:                              # %for.end17
	jmp	.LBB47_11
.LBB47_11:                              # %if.end
	xorl	%ecx, %ecx
	movq	-32(%rbp), %rdi
	movq	-24(%rbp), %rsi
	movq	-16(%rbp), %rax
	movl	24(%rax), %edx
	movl	writeRunLevel_CABAC.coeff_ctr, %eax
	cmpl	$0, %eax
	movl	$1, %eax
	cmovgl	%eax, %ecx
	callq	write_and_store_CBP_block_bit
	cmpl	$0, writeRunLevel_CABAC.coeff_ctr
	jle	.LBB47_13
# %bb.12:                               # %if.then20
	movq	-32(%rbp), %rdi
	movq	-24(%rbp), %rsi
	movq	-16(%rbp), %rax
	movl	24(%rax), %edx
	movl	writeRunLevel_CABAC.coeff_ctr, %r8d
	movabsq	$writeRunLevel_CABAC.coeff, %rcx
	callq	write_significance_map
	movq	-32(%rbp), %rdi
	movq	-24(%rbp), %rsi
	movq	-16(%rbp), %rax
	movl	24(%rax), %edx
	movabsq	$writeRunLevel_CABAC.coeff, %rcx
	callq	write_significant_coefficients
.LBB47_13:                              # %if.end23
	movl	$0, writeRunLevel_CABAC.coeff_ctr
	movl	$0, writeRunLevel_CABAC.pos
.LBB47_14:                              # %return
	cmpl	$1286554151, -36(%rbp)  # imm = 0x4CAF4227
	jne	.LBB47_16
.LBB47_15:
	addq	$48, %rsp
	popq	%rbp
	.cfi_def_cfa %rsp, 8
	retq
.LBB47_16:                              # %func_exit
	.cfi_def_cfa %rbp, 16
	callq	detect_breach
	jmp	.LBB47_15
.Lfunc_end47:
	.size	writeRunLevel_CABAC.20, .Lfunc_end47-writeRunLevel_CABAC.20
	.cfi_endproc
                                        # -- End function
	.globl	writeRunLevel_CABAC.21  # -- Begin function writeRunLevel_CABAC.21
	.p2align	4, 0x90
	.type	writeRunLevel_CABAC.21,@function
writeRunLevel_CABAC.21:                 # @writeRunLevel_CABAC.21
	.cfi_startproc
# %bb.0:                                # %entry
	pushq	%rbp
	.cfi_def_cfa_offset 16
	.cfi_offset %rbp, -16
	movq	%rsp, %rbp
	.cfi_def_cfa_register %rbp
	subq	$48, %rsp
	movl	$603940815, -36(%rbp)   # imm = 0x23FF67CF
	movq	%rdi, -16(%rbp)
	movq	%rsi, -24(%rbp)
	movq	img, %rax
	movq	14168(%rax), %rax
	movq	img, %rcx
	movslq	12(%rcx), %rcx
	imulq	$632, %rcx, %rcx        # imm = 0x278
	addq	%rcx, %rax
	movq	%rax, -32(%rbp)
	movq	-16(%rbp), %rax
	cmpl	$0, 4(%rax)
	je	.LBB48_6
# %bb.1:                                # %if.then
	movl	$0, -4(%rbp)
.LBB48_2:                               # %for.cond
                                        # =>This Inner Loop Header: Depth=1
	movl	-4(%rbp), %eax
	movq	-16(%rbp), %rcx
	cmpl	8(%rcx), %eax
	jge	.LBB48_5
# %bb.3:                                # %for.body
                                        #   in Loop: Header=BB48_2 Depth=1
	movl	writeRunLevel_CABAC.pos, %eax
	movl	%eax, %ecx
	addl	$1, %ecx
	movl	%ecx, writeRunLevel_CABAC.pos
	cltq
	movl	$0, writeRunLevel_CABAC.coeff(,%rax,4)
# %bb.4:                                # %for.inc
                                        #   in Loop: Header=BB48_2 Depth=1
	movl	-4(%rbp), %eax
	addl	$1, %eax
	movl	%eax, -4(%rbp)
	jmp	.LBB48_2
.LBB48_5:                               # %for.end
	movq	-16(%rbp), %rax
	movl	4(%rax), %eax
	movl	writeRunLevel_CABAC.pos, %ecx
	movl	%ecx, %edx
	addl	$1, %edx
	movl	%edx, writeRunLevel_CABAC.pos
	movslq	%ecx, %rcx
	movl	%eax, writeRunLevel_CABAC.coeff(,%rcx,4)
	movl	writeRunLevel_CABAC.coeff_ctr, %eax
	addl	$1, %eax
	movl	%eax, writeRunLevel_CABAC.coeff_ctr
	jmp	.LBB48_14
.LBB48_6:                               # %if.else
	jmp	.LBB48_7
.LBB48_7:                               # %for.cond10
                                        # =>This Inner Loop Header: Depth=1
	cmpl	$64, writeRunLevel_CABAC.pos
	jge	.LBB48_10
# %bb.8:                                # %for.body12
                                        #   in Loop: Header=BB48_7 Depth=1
	movslq	writeRunLevel_CABAC.pos, %rax
	movl	$0, writeRunLevel_CABAC.coeff(,%rax,4)
# %bb.9:                                # %for.inc15
                                        #   in Loop: Header=BB48_7 Depth=1
	movl	writeRunLevel_CABAC.pos, %eax
	addl	$1, %eax
	movl	%eax, writeRunLevel_CABAC.pos
	jmp	.LBB48_7
.LBB48_10:                              # %for.end17
	jmp	.LBB48_11
.LBB48_11:                              # %if.end
	xorl	%ecx, %ecx
	movq	-32(%rbp), %rdi
	movq	-24(%rbp), %rsi
	movq	-16(%rbp), %rax
	movl	24(%rax), %edx
	movl	writeRunLevel_CABAC.coeff_ctr, %eax
	cmpl	$0, %eax
	movl	$1, %eax
	cmovgl	%eax, %ecx
	callq	write_and_store_CBP_block_bit
	cmpl	$0, writeRunLevel_CABAC.coeff_ctr
	jle	.LBB48_13
# %bb.12:                               # %if.then20
	movq	-32(%rbp), %rdi
	movq	-24(%rbp), %rsi
	movq	-16(%rbp), %rax
	movl	24(%rax), %edx
	movl	writeRunLevel_CABAC.coeff_ctr, %r8d
	movabsq	$writeRunLevel_CABAC.coeff, %rcx
	callq	write_significance_map
	movq	-32(%rbp), %rdi
	movq	-24(%rbp), %rsi
	movq	-16(%rbp), %rax
	movl	24(%rax), %edx
	movabsq	$writeRunLevel_CABAC.coeff, %rcx
	callq	write_significant_coefficients
.LBB48_13:                              # %if.end23
	movl	$0, writeRunLevel_CABAC.coeff_ctr
	movl	$0, writeRunLevel_CABAC.pos
.LBB48_14:                              # %return
	cmpl	$603940815, -36(%rbp)   # imm = 0x23FF67CF
	jne	.LBB48_16
.LBB48_15:
	addq	$48, %rsp
	popq	%rbp
	.cfi_def_cfa %rsp, 8
	retq
.LBB48_16:                              # %func_exit
	.cfi_def_cfa %rbp, 16
	callq	detect_breach
	jmp	.LBB48_15
.Lfunc_end48:
	.size	writeRunLevel_CABAC.21, .Lfunc_end48-writeRunLevel_CABAC.21
	.cfi_endproc
                                        # -- End function
	.globl	write_significant_coefficients.22 # -- Begin function write_significant_coefficients.22
	.p2align	4, 0x90
	.type	write_significant_coefficients.22,@function
write_significant_coefficients.22:      # @write_significant_coefficients.22
	.cfi_startproc
# %bb.0:                                # %entry
	pushq	%rbp
	.cfi_def_cfa_offset 16
	.cfi_offset %rbp, -16
	movq	%rsp, %rbp
	.cfi_def_cfa_register %rbp
	subq	$64, %rsp
	movl	$1104210679, -52(%rbp)  # imm = 0x41D0EAF7
	movq	%rdi, -64(%rbp)
	movq	%rsi, -48(%rbp)
	movl	%edx, -12(%rbp)
	movq	%rcx, -40(%rbp)
	movl	$1, -8(%rbp)
	movl	$0, -20(%rbp)
	movslq	-12(%rbp), %rax
	movl	maxpos(,%rax,4), %eax
	subl	$1, %eax
	movl	%eax, -4(%rbp)
.LBB49_1:                               # %for.cond
                                        # =>This Inner Loop Header: Depth=1
	cmpl	$0, -4(%rbp)
	jl	.LBB49_20
# %bb.2:                                # %for.body
                                        #   in Loop: Header=BB49_1 Depth=1
	movq	-40(%rbp), %rax
	movslq	-4(%rbp), %rcx
	cmpl	$0, (%rax,%rcx,4)
	je	.LBB49_18
# %bb.3:                                # %if.then
                                        #   in Loop: Header=BB49_1 Depth=1
	movq	-40(%rbp), %rax
	movslq	-4(%rbp), %rcx
	cmpl	$0, (%rax,%rcx,4)
	jle	.LBB49_5
# %bb.4:                                # %if.then7
                                        #   in Loop: Header=BB49_1 Depth=1
	movq	-40(%rbp), %rax
	movslq	-4(%rbp), %rcx
	movl	(%rax,%rcx,4), %eax
	movl	%eax, -24(%rbp)
	movw	$0, -14(%rbp)
	jmp	.LBB49_6
.LBB49_5:                               # %if.else
                                        #   in Loop: Header=BB49_1 Depth=1
	xorl	%eax, %eax
	movq	-40(%rbp), %rcx
	movslq	-4(%rbp), %rdx
	subl	(%rcx,%rdx,4), %eax
	movl	%eax, -24(%rbp)
	movw	$1, -14(%rbp)
.LBB49_6:                               # %if.end
                                        #   in Loop: Header=BB49_1 Depth=1
	xorl	%eax, %eax
	movl	-24(%rbp), %ecx
	cmpl	$1, %ecx
	movl	$1, %ecx
	cmovgl	%ecx, %eax
	movw	%ax, -16(%rbp)
	cmpl	$4, -8(%rbp)
	jge	.LBB49_8
# %bb.7:                                # %cond.true
                                        #   in Loop: Header=BB49_1 Depth=1
	movl	-8(%rbp), %eax
	jmp	.LBB49_9
.LBB49_8:                               # %cond.false
                                        #   in Loop: Header=BB49_1 Depth=1
	movl	$4, %eax
	jmp	.LBB49_9
.LBB49_9:                               # %cond.end
                                        #   in Loop: Header=BB49_1 Depth=1
	movl	%eax, -28(%rbp)
	movq	-48(%rbp), %rdi
	movw	-16(%rbp), %ax
	movq	img, %rcx
	movq	14160(%rcx), %rcx
	movq	40(%rcx), %rdx
	addq	$5728, %rdx             # imm = 0x1660
	movslq	-12(%rbp), %rcx
	movslq	type2ctx_one(,%rcx,4), %rcx
	imulq	$80, %rcx, %rcx
	addq	%rcx, %rdx
	movslq	-28(%rbp), %rcx
	shlq	$4, %rcx
	addq	%rcx, %rdx
	movswl	%ax, %esi
	callq	biari_encode_symbol
	cmpw	$0, -16(%rbp)
	je	.LBB49_14
# %bb.10:                               # %if.then21
                                        #   in Loop: Header=BB49_1 Depth=1
	movl	-20(%rbp), %eax
	movslq	-12(%rbp), %rcx
	cmpl	max_c2(,%rcx,4), %eax
	jge	.LBB49_12
# %bb.11:                               # %cond.true26
                                        #   in Loop: Header=BB49_1 Depth=1
	movl	-20(%rbp), %eax
	jmp	.LBB49_13
.LBB49_12:                              # %cond.false27
                                        #   in Loop: Header=BB49_1 Depth=1
	movslq	-12(%rbp), %rax
	movl	max_c2(,%rax,4), %eax
.LBB49_13:                              # %cond.end30
                                        #   in Loop: Header=BB49_1 Depth=1
	movl	%eax, -28(%rbp)
	movq	-48(%rbp), %rdi
	movl	-24(%rbp), %esi
	subl	$2, %esi
	movq	img, %rax
	movq	14160(%rax), %rax
	movq	40(%rax), %rdx
	addq	$6528, %rdx             # imm = 0x1980
	movslq	-12(%rbp), %rax
	movslq	type2ctx_abs(,%rax,4), %rax
	imulq	$80, %rax, %rax
	addq	%rax, %rdx
	movslq	-28(%rbp), %rax
	shlq	$4, %rax
	addq	%rax, %rdx
	callq	unary_exp_golomb_level_encode
	movl	$0, -8(%rbp)
	movl	-20(%rbp), %eax
	addl	$1, %eax
	movl	%eax, -20(%rbp)
	jmp	.LBB49_17
.LBB49_14:                              # %if.else42
                                        #   in Loop: Header=BB49_1 Depth=1
	cmpl	$0, -8(%rbp)
	je	.LBB49_16
# %bb.15:                               # %if.then44
                                        #   in Loop: Header=BB49_1 Depth=1
	movl	-8(%rbp), %eax
	addl	$1, %eax
	movl	%eax, -8(%rbp)
.LBB49_16:                              # %if.end46
                                        #   in Loop: Header=BB49_1 Depth=1
	jmp	.LBB49_17
.LBB49_17:                              # %if.end47
                                        #   in Loop: Header=BB49_1 Depth=1
	movq	-48(%rbp), %rdi
	movswl	-14(%rbp), %esi
	callq	biari_encode_symbol_eq_prob
.LBB49_18:                              # %if.end48
                                        #   in Loop: Header=BB49_1 Depth=1
	jmp	.LBB49_19
.LBB49_19:                              # %for.inc
                                        #   in Loop: Header=BB49_1 Depth=1
	movl	-4(%rbp), %eax
	addl	$-1, %eax
	movl	%eax, -4(%rbp)
	jmp	.LBB49_1
.LBB49_20:                              # %for.end
	cmpl	$1104210679, -52(%rbp)  # imm = 0x41D0EAF7
	jne	.LBB49_22
.LBB49_21:
	addq	$64, %rsp
	popq	%rbp
	.cfi_def_cfa %rsp, 8
	retq
.LBB49_22:                              # %func_exit
	.cfi_def_cfa %rbp, 16
	callq	detect_breach
	jmp	.LBB49_21
.Lfunc_end49:
	.size	write_significant_coefficients.22, .Lfunc_end49-write_significant_coefficients.22
	.cfi_endproc
                                        # -- End function
	.globl	writeMB_transform_size_CABAC.23 # -- Begin function writeMB_transform_size_CABAC.23
	.p2align	4, 0x90
	.type	writeMB_transform_size_CABAC.23,@function
writeMB_transform_size_CABAC.23:        # @writeMB_transform_size_CABAC.23
	.cfi_startproc
# %bb.0:                                # %entry
	pushq	%rbp
	.cfi_def_cfa_offset 16
	.cfi_offset %rbp, -16
	movq	%rsp, %rbp
	.cfi_def_cfa_register %rbp
	subq	$64, %rsp
	movl	$2085242718, -32(%rbp)  # imm = 0x7C4A475E
	movq	%rdi, -56(%rbp)
	movq	%rsi, -48(%rbp)
	movl	$0, -4(%rbp)
	movq	img, %rax
	movq	14160(%rax), %rax
	movq	32(%rax), %rax
	movq	%rax, -40(%rbp)
	movq	img, %rax
	movq	14168(%rax), %rax
	movq	img, %rcx
	movslq	12(%rcx), %rcx
	imulq	$632, %rcx, %rcx        # imm = 0x278
	addq	%rcx, %rax
	movq	%rax, -16(%rbp)
	movq	-16(%rbp), %rax
	cmpq	$0, 56(%rax)
	jne	.LBB50_2
# %bb.1:                                # %if.then
	movl	$0, -24(%rbp)
	jmp	.LBB50_3
.LBB50_2:                               # %if.else
	movq	-16(%rbp), %rax
	movq	56(%rax), %rax
	movl	572(%rax), %eax
	movl	%eax, -24(%rbp)
.LBB50_3:                               # %if.end
	movq	-16(%rbp), %rax
	cmpq	$0, 64(%rax)
	jne	.LBB50_5
# %bb.4:                                # %if.then3
	movl	$0, -20(%rbp)
	jmp	.LBB50_6
.LBB50_5:                               # %if.else4
	movq	-16(%rbp), %rax
	movq	64(%rax), %rax
	movl	572(%rax), %eax
	movl	%eax, -20(%rbp)
.LBB50_6:                               # %if.end7
	movl	-20(%rbp), %eax
	addl	-24(%rbp), %eax
	movl	%eax, -4(%rbp)
	movq	-16(%rbp), %rax
	movl	572(%rax), %eax
	movl	%eax, -28(%rbp)
	movl	-4(%rbp), %eax
	movq	-56(%rbp), %rcx
	movl	%eax, 24(%rcx)
	cmpl	$0, -28(%rbp)
	jne	.LBB50_8
# %bb.7:                                # %if.then10
	movq	-48(%rbp), %rdi
	movq	-40(%rbp), %rdx
	addq	$1456, %rdx             # imm = 0x5B0
	movslq	-4(%rbp), %rax
	shlq	$4, %rax
	addq	%rax, %rdx
	xorl	%esi, %esi
	callq	biari_encode_symbol
	jmp	.LBB50_9
.LBB50_8:                               # %if.else11
	movq	-48(%rbp), %rdi
	movq	-40(%rbp), %rdx
	addq	$1456, %rdx             # imm = 0x5B0
	movslq	-4(%rbp), %rax
	shlq	$4, %rax
	addq	%rax, %rdx
	movl	$1, %esi
	callq	biari_encode_symbol
.LBB50_9:                               # %if.end16
	cmpl	$2085242718, -32(%rbp)  # imm = 0x7C4A475E
	jne	.LBB50_11
.LBB50_10:
	addq	$64, %rsp
	popq	%rbp
	.cfi_def_cfa %rsp, 8
	retq
.LBB50_11:                              # %func_exit
	.cfi_def_cfa %rbp, 16
	callq	detect_breach
	jmp	.LBB50_10
.Lfunc_end50:
	.size	writeMB_transform_size_CABAC.23, .Lfunc_end50-writeMB_transform_size_CABAC.23
	.cfi_endproc
                                        # -- End function
	.globl	writeCBP_CABAC.24       # -- Begin function writeCBP_CABAC.24
	.p2align	4, 0x90
	.type	writeCBP_CABAC.24,@function
writeCBP_CABAC.24:                      # @writeCBP_CABAC.24
	.cfi_startproc
# %bb.0:                                # %entry
	pushq	%rbp
	.cfi_def_cfa_offset 16
	.cfi_offset %rbp, -16
	movq	%rsp, %rbp
	.cfi_def_cfa_register %rbp
	subq	$64, %rsp
	movl	$1059489845, -48(%rbp)  # imm = 0x3F268835
	movq	%rdi, -64(%rbp)
	movq	%rsi, -40(%rbp)
	movq	img, %rax
	movq	14160(%rax), %rax
	movq	40(%rax), %rax
	movq	%rax, -56(%rbp)
	movq	img, %rax
	movq	14168(%rax), %rax
	movq	img, %rcx
	movslq	12(%rcx), %rcx
	imulq	$632, %rcx, %rcx        # imm = 0x278
	addq	%rcx, %rax
	movq	%rax, -8(%rbp)
	movq	-64(%rbp), %rax
	movl	4(%rax), %eax
	movl	%eax, -24(%rbp)
	movl	$0, -20(%rbp)
.LBB51_1:                               # %for.cond
                                        # =>This Inner Loop Header: Depth=1
	cmpl	$4, -20(%rbp)
	jge	.LBB51_4
# %bb.2:                                # %for.body
                                        #   in Loop: Header=BB51_1 Depth=1
	xorl	%eax, %eax
	movq	-8(%rbp), %rcx
	movslq	-20(%rbp), %rdx
	movl	472(%rcx,%rdx,4), %ecx
	cmpl	$11, %ecx
	movl	$1, %edx
	movl	$1, %ecx
	cmovel	%eax, %ecx
	movl	%ecx, -44(%rbp)
	movl	-20(%rbp), %edi
	movl	-24(%rbp), %esi
	movl	-20(%rbp), %ecx
                                        # kill: def $cl killed $ecx
	shll	%cl, %edx
	andl	%edx, %esi
	movl	-24(%rbp), %edx
	movq	-8(%rbp), %rcx
	movl	-44(%rbp), %r8d
	movq	-40(%rbp), %r9
	callq	writeCBP_BIT_CABAC
# %bb.3:                                # %for.inc
                                        #   in Loop: Header=BB51_1 Depth=1
	movl	-20(%rbp), %eax
	addl	$1, %eax
	movl	%eax, -20(%rbp)
	jmp	.LBB51_1
.LBB51_4:                               # %for.end
	movq	img, %rax
	cmpl	$0, 72700(%rax)
	je	.LBB51_32
# %bb.5:                                # %if.then
	movl	$0, -12(%rbp)
	movq	-8(%rbp), %rax
	cmpq	$0, 56(%rax)
	je	.LBB51_10
# %bb.6:                                # %if.then6
	movq	-8(%rbp), %rax
	movq	56(%rax), %rax
	cmpl	$14, 72(%rax)
	jne	.LBB51_8
# %bb.7:                                # %if.then9
	movl	$1, -12(%rbp)
	jmp	.LBB51_9
.LBB51_8:                               # %if.else
	xorl	%eax, %eax
	movq	-8(%rbp), %rcx
	movq	56(%rcx), %rcx
	movl	460(%rcx), %ecx
	cmpl	$15, %ecx
	movl	$1, %ecx
	cmovgl	%ecx, %eax
	movl	%eax, -12(%rbp)
.LBB51_9:                               # %if.end
	jmp	.LBB51_10
.LBB51_10:                              # %if.end14
	movl	$0, -16(%rbp)
	movq	-8(%rbp), %rax
	cmpq	$0, 64(%rax)
	je	.LBB51_15
# %bb.11:                               # %if.then16
	movq	-8(%rbp), %rax
	movq	64(%rax), %rax
	cmpl	$14, 72(%rax)
	jne	.LBB51_13
# %bb.12:                               # %if.then20
	movl	$1, -16(%rbp)
	jmp	.LBB51_14
.LBB51_13:                              # %if.else21
	xorl	%eax, %eax
	movq	-8(%rbp), %rcx
	movq	64(%rcx), %rcx
	movl	460(%rcx), %ecx
	cmpl	$15, %ecx
	movl	$1, %ecx
	cmovgl	%ecx, %eax
	movl	%eax, -16(%rbp)
.LBB51_14:                              # %if.end26
	jmp	.LBB51_15
.LBB51_15:                              # %if.end27
	xorl	%eax, %eax
	movl	-16(%rbp), %ecx
	movl	-12(%rbp), %edx
	shll	$1, %edx
	addl	%edx, %ecx
	movl	%ecx, -32(%rbp)
	movl	-24(%rbp), %ecx
	cmpl	$15, %ecx
	movl	$1, %ecx
	cmovgl	%ecx, %eax
	movl	%eax, -28(%rbp)
	movq	-40(%rbp), %rdi
	movl	-28(%rbp), %eax
	movzbl	%al, %eax
	movq	-56(%rbp), %rdx
	addq	$96, %rdx
	addq	$64, %rdx
	movslq	-32(%rbp), %rcx
	shlq	$4, %rcx
	addq	%rcx, %rdx
	movswl	%ax, %esi
	callq	biari_encode_symbol
	cmpl	$15, -24(%rbp)
	jle	.LBB51_31
# %bb.16:                               # %if.then34
	movl	$0, -12(%rbp)
	movq	-8(%rbp), %rax
	cmpq	$0, 56(%rax)
	je	.LBB51_23
# %bb.17:                               # %if.then38
	movq	-8(%rbp), %rax
	movq	56(%rax), %rax
	cmpl	$14, 72(%rax)
	jne	.LBB51_19
# %bb.18:                               # %if.then43
	movl	$1, -12(%rbp)
	jmp	.LBB51_22
.LBB51_19:                              # %if.else44
	movq	-8(%rbp), %rax
	movq	56(%rax), %rax
	cmpl	$15, 460(%rax)
	jle	.LBB51_21
# %bb.20:                               # %if.then49
	xorl	%eax, %eax
	movq	-8(%rbp), %rcx
	movq	56(%rcx), %rcx
	movl	460(%rcx), %ecx
	sarl	$4, %ecx
	cmpl	$2, %ecx
	movl	$1, %ecx
	cmovel	%ecx, %eax
	movl	%eax, -12(%rbp)
.LBB51_21:                              # %if.end55
	jmp	.LBB51_22
.LBB51_22:                              # %if.end56
	jmp	.LBB51_23
.LBB51_23:                              # %if.end57
	movl	$0, -16(%rbp)
	movq	-8(%rbp), %rax
	cmpq	$0, 64(%rax)
	je	.LBB51_30
# %bb.24:                               # %if.then61
	movq	-8(%rbp), %rax
	movq	64(%rax), %rax
	cmpl	$14, 72(%rax)
	jne	.LBB51_26
# %bb.25:                               # %if.then66
	movl	$1, -16(%rbp)
	jmp	.LBB51_29
.LBB51_26:                              # %if.else67
	movq	-8(%rbp), %rax
	movq	64(%rax), %rax
	cmpl	$15, 460(%rax)
	jle	.LBB51_28
# %bb.27:                               # %if.then72
	xorl	%eax, %eax
	movq	-8(%rbp), %rcx
	movq	64(%rcx), %rcx
	movl	460(%rcx), %ecx
	sarl	$4, %ecx
	cmpl	$2, %ecx
	movl	$1, %ecx
	cmovel	%ecx, %eax
	movl	%eax, -16(%rbp)
.LBB51_28:                              # %if.end79
	jmp	.LBB51_29
.LBB51_29:                              # %if.end80
	jmp	.LBB51_30
.LBB51_30:                              # %if.end81
	xorl	%eax, %eax
	movl	-16(%rbp), %ecx
	movl	-12(%rbp), %edx
	shll	$1, %edx
	addl	%edx, %ecx
	movl	%ecx, -32(%rbp)
	movl	-24(%rbp), %ecx
	sarl	$4, %ecx
	cmpl	$2, %ecx
	movl	$1, %ecx
	cmovel	%ecx, %eax
	movl	%eax, -28(%rbp)
	movq	-40(%rbp), %rdi
	movl	-28(%rbp), %eax
	movzbl	%al, %eax
	movq	-56(%rbp), %rdx
	addq	$96, %rdx
	addq	$128, %rdx
	movslq	-32(%rbp), %rcx
	shlq	$4, %rcx
	addq	%rcx, %rdx
	movswl	%ax, %esi
	callq	biari_encode_symbol
.LBB51_31:                              # %if.end95
	jmp	.LBB51_32
.LBB51_32:                              # %if.end96
	cmpl	$1059489845, -48(%rbp)  # imm = 0x3F268835
	jne	.LBB51_34
.LBB51_33:
	addq	$64, %rsp
	popq	%rbp
	.cfi_def_cfa %rsp, 8
	retq
.LBB51_34:                              # %func_exit
	.cfi_def_cfa %rbp, 16
	callq	detect_breach
	jmp	.LBB51_33
.Lfunc_end51:
	.size	writeCBP_CABAC.24, .Lfunc_end51-writeCBP_CABAC.24
	.cfi_endproc
                                        # -- End function
	.globl	writeRefFrame_CABAC.25  # -- Begin function writeRefFrame_CABAC.25
	.p2align	4, 0x90
	.type	writeRefFrame_CABAC.25,@function
writeRefFrame_CABAC.25:                 # @writeRefFrame_CABAC.25
	.cfi_startproc
# %bb.0:                                # %entry
	pushq	%rbp
	.cfi_def_cfa_offset 16
	.cfi_offset %rbp, -16
	movq	%rsp, %rbp
	.cfi_def_cfa_register %rbp
	subq	$128, %rsp
	movl	$1222794725, -64(%rbp)  # imm = 0x48E25DE5
	movq	%rdi, -40(%rbp)
	movq	%rsi, -48(%rbp)
	movq	img, %rax
	movq	14160(%rax), %rax
	movq	32(%rax), %rax
	movq	%rax, -56(%rbp)
	movq	img, %rax
	movq	14168(%rax), %rax
	movq	img, %rcx
	movslq	12(%rcx), %rcx
	imulq	$632, %rcx, %rcx        # imm = 0x278
	addq	%rcx, %rax
	movq	%rax, -128(%rbp)
	movl	$0, -20(%rbp)
	movq	enc_picture, %rax
	movq	6480(%rax), %rax
	movq	-40(%rbp), %rcx
	movslq	8(%rcx), %rcx
	movq	(%rax,%rcx,8), %rax
	movq	%rax, -32(%rbp)
	movq	img, %rax
	cmpl	$1, 24(%rax)
	sete	%al
	andb	$1, %al
	movzbl	%al, %eax
	movl	%eax, -24(%rbp)
	movq	img, %rax
	movl	12(%rax), %edi
	movq	img, %rax
	movl	72(%rax), %esi
	movq	img, %rax
	movl	76(%rax), %edx
	movl	$4294967295, %ecx       # imm = 0xFFFFFFFF
	xorl	%r8d, %r8d
	leaq	-96(%rbp), %r9
	callq	getLuma4x4Neighbour
	movq	img, %rax
	movl	12(%rax), %edi
	movq	img, %rax
	movl	72(%rax), %esi
	movq	img, %rax
	movl	76(%rax), %edx
	movl	$0, %ecx
	movl	$4294967295, %r8d       # imm = 0xFFFFFFFF
	leaq	-120(%rbp), %r9
	callq	getLuma4x4Neighbour
	movl	-88(%rbp), %eax
	cltd
	movl	$2, %esi
	idivl	%esi
	cltd
	idivl	%esi
	movl	%edx, %ecx
	movl	-84(%rbp), %eax
	cltd
	idivl	%esi
	cltd
	idivl	%esi
	shll	$1, %edx
	addl	%edx, %ecx
	movl	%ecx, -68(%rbp)
	movl	-112(%rbp), %eax
	cltd
	idivl	%esi
	cltd
	idivl	%esi
	movl	%edx, %ecx
	movl	-108(%rbp), %eax
	cltd
	idivl	%esi
	cltd
	idivl	%esi
	shll	$1, %edx
	addl	%edx, %ecx
	movl	%ecx, -60(%rbp)
	cmpl	$0, -120(%rbp)
	jne	.LBB52_2
# %bb.1:                                # %if.then
	movl	$0, -12(%rbp)
	jmp	.LBB52_14
.LBB52_2:                               # %if.else
	movq	img, %rax
	movq	14168(%rax), %rax
	movslq	-116(%rbp), %rcx
	imulq	$632, %rcx, %rcx        # imm = 0x278
	addq	%rcx, %rax
	cmpl	$0, 72(%rax)
	jne	.LBB52_4
# %bb.3:                                # %land.lhs.true
	movq	img, %rax
	cmpl	$1, 24(%rax)
	je	.LBB52_6
.LBB52_4:                               # %lor.lhs.false
	movq	img, %rax
	movq	14168(%rax), %rax
	movslq	-116(%rbp), %rcx
	imulq	$632, %rcx, %rcx        # imm = 0x278
	addq	%rcx, %rax
	movslq	-60(%rbp), %rcx
	cmpl	$0, 472(%rax,%rcx,4)
	jne	.LBB52_7
# %bb.5:                                # %land.lhs.true33
	cmpl	$0, -24(%rbp)
	je	.LBB52_7
.LBB52_6:                               # %if.then35
	movl	$0, -12(%rbp)
	jmp	.LBB52_13
.LBB52_7:                               # %if.else36
	movq	img, %rax
	cmpl	$0, 72400(%rax)
	je	.LBB52_11
# %bb.8:                                # %land.lhs.true38
	movq	-128(%rbp), %rax
	cmpl	$0, 532(%rax)
	jne	.LBB52_11
# %bb.9:                                # %land.lhs.true41
	movq	img, %rax
	movq	14168(%rax), %rax
	movslq	-116(%rbp), %rcx
	imulq	$632, %rcx, %rcx        # imm = 0x278
	addq	%rcx, %rax
	cmpl	$1, 532(%rax)
	jne	.LBB52_11
# %bb.10:                               # %if.then49
	xorl	%eax, %eax
	movq	-32(%rbp), %rcx
	movslq	-104(%rbp), %rdx
	movq	(%rcx,%rdx,8), %rcx
	movslq	-100(%rbp), %rdx
	movswl	(%rcx,%rdx,2), %ecx
	cmpl	$1, %ecx
	movl	$1, %ecx
	cmovgl	%ecx, %eax
	movl	%eax, -12(%rbp)
	jmp	.LBB52_12
.LBB52_11:                              # %if.else57
	xorl	%eax, %eax
	movq	-32(%rbp), %rcx
	movslq	-104(%rbp), %rdx
	movq	(%rcx,%rdx,8), %rcx
	movslq	-100(%rbp), %rdx
	movswl	(%rcx,%rdx,2), %ecx
	cmpl	$0, %ecx
	movl	$1, %ecx
	cmovgl	%ecx, %eax
	movl	%eax, -12(%rbp)
.LBB52_12:                              # %if.end
	jmp	.LBB52_13
.LBB52_13:                              # %if.end68
	jmp	.LBB52_14
.LBB52_14:                              # %if.end69
	cmpl	$0, -96(%rbp)
	jne	.LBB52_16
# %bb.15:                               # %if.then72
	movl	$0, -8(%rbp)
	jmp	.LBB52_28
.LBB52_16:                              # %if.else73
	movq	img, %rax
	movq	14168(%rax), %rax
	movslq	-92(%rbp), %rcx
	imulq	$632, %rcx, %rcx        # imm = 0x278
	addq	%rcx, %rax
	cmpl	$0, 72(%rax)
	jne	.LBB52_18
# %bb.17:                               # %land.lhs.true81
	movq	img, %rax
	cmpl	$1, 24(%rax)
	je	.LBB52_20
.LBB52_18:                              # %lor.lhs.false85
	movq	img, %rax
	movq	14168(%rax), %rax
	movslq	-92(%rbp), %rcx
	imulq	$632, %rcx, %rcx        # imm = 0x278
	addq	%rcx, %rax
	movslq	-68(%rbp), %rcx
	cmpl	$0, 472(%rax,%rcx,4)
	jne	.LBB52_21
# %bb.19:                               # %land.lhs.true95
	cmpl	$0, -24(%rbp)
	je	.LBB52_21
.LBB52_20:                              # %if.then97
	movl	$0, -8(%rbp)
	jmp	.LBB52_27
.LBB52_21:                              # %if.else98
	movq	img, %rax
	cmpl	$0, 72400(%rax)
	je	.LBB52_25
# %bb.22:                               # %land.lhs.true101
	movq	-128(%rbp), %rax
	cmpl	$0, 532(%rax)
	jne	.LBB52_25
# %bb.23:                               # %land.lhs.true105
	movq	img, %rax
	movq	14168(%rax), %rax
	movslq	-92(%rbp), %rcx
	imulq	$632, %rcx, %rcx        # imm = 0x278
	addq	%rcx, %rax
	cmpl	$1, 532(%rax)
	jne	.LBB52_25
# %bb.24:                               # %if.then113
	xorl	%eax, %eax
	movq	-32(%rbp), %rcx
	movslq	-80(%rbp), %rdx
	movq	(%rcx,%rdx,8), %rcx
	movslq	-76(%rbp), %rdx
	movswl	(%rcx,%rdx,2), %ecx
	cmpl	$1, %ecx
	movl	$1, %ecx
	cmovgl	%ecx, %eax
	movl	%eax, -8(%rbp)
	jmp	.LBB52_26
.LBB52_25:                              # %if.else124
	xorl	%eax, %eax
	movq	-32(%rbp), %rcx
	movslq	-80(%rbp), %rdx
	movq	(%rcx,%rdx,8), %rcx
	movslq	-76(%rbp), %rdx
	movswl	(%rcx,%rdx,2), %ecx
	cmpl	$0, %ecx
	movl	$1, %ecx
	cmovgl	%ecx, %eax
	movl	%eax, -8(%rbp)
.LBB52_26:                              # %if.end135
	jmp	.LBB52_27
.LBB52_27:                              # %if.end136
	jmp	.LBB52_28
.LBB52_28:                              # %if.end137
	movl	-8(%rbp), %eax
	movl	-12(%rbp), %ecx
	shll	$1, %ecx
	addl	%ecx, %eax
	movl	%eax, -4(%rbp)
	movl	-4(%rbp), %eax
	movq	-40(%rbp), %rcx
	movl	%eax, 24(%rcx)
	movq	-40(%rbp), %rax
	movl	4(%rax), %eax
	movl	%eax, -16(%rbp)
	cmpl	$0, -16(%rbp)
	jne	.LBB52_30
# %bb.29:                               # %if.then142
	movq	-48(%rbp), %rdi
	movq	-56(%rbp), %rdx
	addq	$1136, %rdx             # imm = 0x470
	movslq	-20(%rbp), %rax
	imulq	$96, %rax, %rax
	addq	%rax, %rdx
	movslq	-4(%rbp), %rax
	shlq	$4, %rax
	addq	%rax, %rdx
	xorl	%esi, %esi
	callq	biari_encode_symbol
	jmp	.LBB52_31
.LBB52_30:                              # %if.else145
	movq	-48(%rbp), %rdi
	movq	-56(%rbp), %rdx
	addq	$1136, %rdx             # imm = 0x470
	movslq	-20(%rbp), %rax
	imulq	$96, %rax, %rax
	addq	%rax, %rdx
	movslq	-4(%rbp), %rax
	shlq	$4, %rax
	addq	%rax, %rdx
	movl	$1, %esi
	callq	biari_encode_symbol
	movl	-16(%rbp), %eax
	addl	$-1, %eax
	movl	%eax, -16(%rbp)
	movl	$4, -4(%rbp)
	movq	-48(%rbp), %rdi
	movl	-16(%rbp), %esi
	movq	-56(%rbp), %rdx
	addq	$1136, %rdx             # imm = 0x470
	movslq	-20(%rbp), %rax
	imulq	$96, %rax, %rax
	addq	%rax, %rdx
	movslq	-4(%rbp), %rax
	shlq	$4, %rax
	addq	%rax, %rdx
	movl	$1, %ecx
	callq	unary_bin_encode
.LBB52_31:                              # %if.end158
	cmpl	$1222794725, -64(%rbp)  # imm = 0x48E25DE5
	jne	.LBB52_33
.LBB52_32:
	addq	$128, %rsp
	popq	%rbp
	.cfi_def_cfa %rsp, 8
	retq
.LBB52_33:                              # %func_exit
	.cfi_def_cfa %rbp, 16
	callq	detect_breach
	jmp	.LBB52_32
.Lfunc_end52:
	.size	writeRefFrame_CABAC.25, .Lfunc_end52-writeRefFrame_CABAC.25
	.cfi_endproc
                                        # -- End function
	.globl	writeSyntaxElement_CABAC.26 # -- Begin function writeSyntaxElement_CABAC.26
	.p2align	4, 0x90
	.type	writeSyntaxElement_CABAC.26,@function
writeSyntaxElement_CABAC.26:            # @writeSyntaxElement_CABAC.26
	.cfi_startproc
# %bb.0:                                # %entry
	pushq	%rbp
	.cfi_def_cfa_offset 16
	.cfi_offset %rbp, -16
	movq	%rsp, %rbp
	.cfi_def_cfa_register %rbp
	pushq	%rbx
	subq	$40, %rsp
	.cfi_offset %rbx, -24
	movl	$1523911832, -28(%rbp)  # imm = 0x5AD50C98
	movq	%rdi, -16(%rbp)
	movq	%rsi, -40(%rbp)
	movq	-40(%rbp), %rax
	addq	$8, %rax
	movq	%rax, -24(%rbp)
	movq	-24(%rbp), %rdi
	callq	arienco_bits_written
	movl	%eax, -32(%rbp)
	movq	-16(%rbp), %rax
	movq	40(%rax), %rax
	movq	-16(%rbp), %rdi
	movq	-24(%rbp), %rsi
	callq	*%rax
	movq	-16(%rbp), %rax
	cmpl	$0, (%rax)
	je	.LBB53_2
# %bb.1:                                # %if.then
	movq	-40(%rbp), %rax
	movq	(%rax), %rax
	movl	$1, 40(%rax)
.LBB53_2:                               # %if.end
	movq	-24(%rbp), %rdi
	callq	arienco_bits_written
	movl	%eax, %ebx
	subl	-32(%rbp), %ebx
	movq	-16(%rbp), %rax
	movl	%ebx, 12(%rax)
	cmpl	$1523911832, -28(%rbp)  # imm = 0x5AD50C98
	jne	.LBB53_4
.LBB53_3:
	movl	%ebx, %eax
	addq	$40, %rsp
	popq	%rbx
	popq	%rbp
	.cfi_def_cfa %rsp, 8
	retq
.LBB53_4:                               # %func_exit
	.cfi_def_cfa %rbp, 16
	callq	detect_breach
	jmp	.LBB53_3
.Lfunc_end53:
	.size	writeSyntaxElement_CABAC.26, .Lfunc_end53-writeSyntaxElement_CABAC.26
	.cfi_endproc
                                        # -- End function
	.globl	writeB8_typeInfo_CABAC.27 # -- Begin function writeB8_typeInfo_CABAC.27
	.p2align	4, 0x90
	.type	writeB8_typeInfo_CABAC.27,@function
writeB8_typeInfo_CABAC.27:              # @writeB8_typeInfo_CABAC.27
	.cfi_startproc
# %bb.0:                                # %entry
	pushq	%rbp
	.cfi_def_cfa_offset 16
	.cfi_offset %rbp, -16
	movq	%rsp, %rbp
	.cfi_def_cfa_register %rbp
	subq	$48, %rsp
	movl	$613239201, -32(%rbp)   # imm = 0x248D49A1
	movq	%rdi, -40(%rbp)
	movq	%rsi, -8(%rbp)
	movq	img, %rax
	cmpl	$1, 24(%rax)
	sete	%al
	andb	$1, %al
	movzbl	%al, %eax
	movl	%eax, -28(%rbp)
	movq	img, %rax
	movq	14160(%rax), %rax
	movq	32(%rax), %rax
	movq	%rax, -16(%rbp)
	movq	-40(%rbp), %rax
	movl	4(%rax), %eax
	movl	%eax, -20(%rbp)
	movl	$0, -44(%rbp)
	cmpl	$0, -28(%rbp)
	jne	.LBB54_8
# %bb.1:                                # %if.then
	movl	-20(%rbp), %eax
	movq	%rax, %rcx
	subq	$3, %rcx
	ja	.LBB54_7
# %bb.2:                                # %if.then
	movq	.LJTI54_0(,%rax,8), %rax
	jmpq	*%rax
.LBB54_3:                               # %sw.bb
	movq	-8(%rbp), %rdi
	movq	-16(%rbp), %rdx
	addq	$528, %rdx              # imm = 0x210
	addq	$16, %rdx
	movl	$1, %esi
	callq	biari_encode_symbol
	jmp	.LBB54_7
.LBB54_4:                               # %sw.bb2
	movq	-8(%rbp), %rdi
	movq	-16(%rbp), %rdx
	addq	$528, %rdx              # imm = 0x210
	addq	$16, %rdx
	xorl	%esi, %esi
	callq	biari_encode_symbol
	movq	-8(%rbp), %rdi
	movq	-16(%rbp), %rdx
	addq	$528, %rdx              # imm = 0x210
	addq	$48, %rdx
	xorl	%esi, %esi
	callq	biari_encode_symbol
	jmp	.LBB54_7
.LBB54_5:                               # %sw.bb9
	movq	-8(%rbp), %rdi
	movq	-16(%rbp), %rdx
	addq	$528, %rdx              # imm = 0x210
	addq	$16, %rdx
	xorl	%esi, %esi
	callq	biari_encode_symbol
	movq	-8(%rbp), %rdi
	movq	-16(%rbp), %rdx
	addq	$528, %rdx              # imm = 0x210
	addq	$48, %rdx
	movl	$1, %esi
	callq	biari_encode_symbol
	movq	-8(%rbp), %rdi
	movq	-16(%rbp), %rdx
	addq	$528, %rdx              # imm = 0x210
	addq	$64, %rdx
	movl	$1, %esi
	callq	biari_encode_symbol
	jmp	.LBB54_7
.LBB54_6:                               # %sw.bb19
	movq	-8(%rbp), %rdi
	movq	-16(%rbp), %rdx
	addq	$528, %rdx              # imm = 0x210
	addq	$16, %rdx
	xorl	%esi, %esi
	callq	biari_encode_symbol
	movq	-8(%rbp), %rdi
	movq	-16(%rbp), %rdx
	addq	$528, %rdx              # imm = 0x210
	addq	$48, %rdx
	movl	$1, %esi
	callq	biari_encode_symbol
	movq	-8(%rbp), %rdi
	movq	-16(%rbp), %rdx
	addq	$528, %rdx              # imm = 0x210
	addq	$64, %rdx
	xorl	%esi, %esi
	callq	biari_encode_symbol
.LBB54_7:                               # %sw.epilog
	jmp	.LBB54_39
.LBB54_8:                               # %if.else
	cmpl	$0, -20(%rbp)
	jne	.LBB54_10
# %bb.9:                                # %if.then31
	movq	-8(%rbp), %rdi
	movq	-16(%rbp), %rdx
	addq	$528, %rdx              # imm = 0x210
	addq	$144, %rdx
	xorl	%esi, %esi
	callq	biari_encode_symbol
	jmp	.LBB54_39
.LBB54_10:                              # %if.else35
	movq	-8(%rbp), %rdi
	movq	-16(%rbp), %rdx
	addq	$528, %rdx              # imm = 0x210
	addq	$144, %rdx
	movl	$1, %esi
	callq	biari_encode_symbol
	movl	-20(%rbp), %eax
	addl	$-1, %eax
	movl	%eax, -20(%rbp)
# %bb.11:                               # %if.end
	cmpl	$2, -20(%rbp)
	jge	.LBB54_16
# %bb.12:                               # %if.then41
	movq	-8(%rbp), %rdi
	movq	-16(%rbp), %rdx
	addq	$528, %rdx              # imm = 0x210
	addq	$144, %rdx
	addq	$16, %rdx
	xorl	%esi, %esi
	callq	biari_encode_symbol
	cmpl	$0, -20(%rbp)
	jne	.LBB54_14
# %bb.13:                               # %if.then47
	movq	-8(%rbp), %rdi
	movq	-16(%rbp), %rdx
	addq	$528, %rdx              # imm = 0x210
	addq	$144, %rdx
	addq	$48, %rdx
	xorl	%esi, %esi
	callq	biari_encode_symbol
	jmp	.LBB54_15
.LBB54_14:                              # %if.else51
	movq	-8(%rbp), %rdi
	movq	-16(%rbp), %rdx
	addq	$528, %rdx              # imm = 0x210
	addq	$144, %rdx
	addq	$48, %rdx
	movl	$1, %esi
	callq	biari_encode_symbol
.LBB54_15:                              # %if.end55
	jmp	.LBB54_38
.LBB54_16:                              # %if.else56
	cmpl	$6, -20(%rbp)
	jge	.LBB54_24
# %bb.17:                               # %if.then59
	movq	-8(%rbp), %rdi
	movq	-16(%rbp), %rdx
	addq	$528, %rdx              # imm = 0x210
	addq	$144, %rdx
	addq	$16, %rdx
	movl	$1, %esi
	callq	biari_encode_symbol
	movq	-8(%rbp), %rdi
	movq	-16(%rbp), %rdx
	addq	$528, %rdx              # imm = 0x210
	addq	$144, %rdx
	addq	$32, %rdx
	xorl	%esi, %esi
	callq	biari_encode_symbol
	movl	-20(%rbp), %eax
	subl	$2, %eax
	sarl	$1, %eax
	andl	$1, %eax
	movl	%eax, -24(%rbp)
	cmpl	$0, -24(%rbp)
	je	.LBB54_19
# %bb.18:                               # %if.then67
	movq	-8(%rbp), %rdi
	movq	-16(%rbp), %rdx
	addq	$528, %rdx              # imm = 0x210
	addq	$144, %rdx
	addq	$48, %rdx
	movl	$1, %esi
	callq	biari_encode_symbol
	jmp	.LBB54_20
.LBB54_19:                              # %if.else71
	movq	-8(%rbp), %rdi
	movq	-16(%rbp), %rdx
	addq	$528, %rdx              # imm = 0x210
	addq	$144, %rdx
	addq	$48, %rdx
	xorl	%esi, %esi
	callq	biari_encode_symbol
.LBB54_20:                              # %if.end75
	movl	-20(%rbp), %eax
	subl	$2, %eax
	andl	$1, %eax
	movl	%eax, -24(%rbp)
	cmpl	$0, -24(%rbp)
	je	.LBB54_22
# %bb.21:                               # %if.then79
	movq	-8(%rbp), %rdi
	movq	-16(%rbp), %rdx
	addq	$528, %rdx              # imm = 0x210
	addq	$144, %rdx
	addq	$48, %rdx
	movl	$1, %esi
	callq	biari_encode_symbol
	jmp	.LBB54_23
.LBB54_22:                              # %if.else83
	movq	-8(%rbp), %rdi
	movq	-16(%rbp), %rdx
	addq	$528, %rdx              # imm = 0x210
	addq	$144, %rdx
	addq	$48, %rdx
	xorl	%esi, %esi
	callq	biari_encode_symbol
.LBB54_23:                              # %if.end87
	jmp	.LBB54_37
.LBB54_24:                              # %if.else88
	movq	-8(%rbp), %rdi
	movq	-16(%rbp), %rdx
	addq	$528, %rdx              # imm = 0x210
	addq	$144, %rdx
	addq	$16, %rdx
	movl	$1, %esi
	callq	biari_encode_symbol
	movq	-8(%rbp), %rdi
	movq	-16(%rbp), %rdx
	addq	$528, %rdx              # imm = 0x210
	addq	$144, %rdx
	addq	$32, %rdx
	movl	$1, %esi
	callq	biari_encode_symbol
	movl	-20(%rbp), %eax
	subl	$6, %eax
	sarl	$2, %eax
	andl	$1, %eax
	movl	%eax, -24(%rbp)
	cmpl	$0, -24(%rbp)
	je	.LBB54_29
# %bb.25:                               # %if.then99
	movq	-8(%rbp), %rdi
	movq	-16(%rbp), %rdx
	addq	$528, %rdx              # imm = 0x210
	addq	$144, %rdx
	addq	$48, %rdx
	movl	$1, %esi
	callq	biari_encode_symbol
	movl	-20(%rbp), %eax
	subl	$6, %eax
	andl	$1, %eax
	movl	%eax, -24(%rbp)
	cmpl	$0, -24(%rbp)
	je	.LBB54_27
# %bb.26:                               # %if.then106
	movq	-8(%rbp), %rdi
	movq	-16(%rbp), %rdx
	addq	$528, %rdx              # imm = 0x210
	addq	$144, %rdx
	addq	$48, %rdx
	movl	$1, %esi
	callq	biari_encode_symbol
	jmp	.LBB54_28
.LBB54_27:                              # %if.else110
	movq	-8(%rbp), %rdi
	movq	-16(%rbp), %rdx
	addq	$528, %rdx              # imm = 0x210
	addq	$144, %rdx
	addq	$48, %rdx
	xorl	%esi, %esi
	callq	biari_encode_symbol
.LBB54_28:                              # %if.end114
	jmp	.LBB54_36
.LBB54_29:                              # %if.else115
	movq	-8(%rbp), %rdi
	movq	-16(%rbp), %rdx
	addq	$528, %rdx              # imm = 0x210
	addq	$144, %rdx
	addq	$48, %rdx
	xorl	%esi, %esi
	callq	biari_encode_symbol
	movl	-20(%rbp), %eax
	subl	$6, %eax
	sarl	$1, %eax
	andl	$1, %eax
	movl	%eax, -24(%rbp)
	cmpl	$0, -24(%rbp)
	je	.LBB54_31
# %bb.30:                               # %if.then123
	movq	-8(%rbp), %rdi
	movq	-16(%rbp), %rdx
	addq	$528, %rdx              # imm = 0x210
	addq	$144, %rdx
	addq	$48, %rdx
	movl	$1, %esi
	callq	biari_encode_symbol
	jmp	.LBB54_32
.LBB54_31:                              # %if.else127
	movq	-8(%rbp), %rdi
	movq	-16(%rbp), %rdx
	addq	$528, %rdx              # imm = 0x210
	addq	$144, %rdx
	addq	$48, %rdx
	xorl	%esi, %esi
	callq	biari_encode_symbol
.LBB54_32:                              # %if.end131
	movl	-20(%rbp), %eax
	subl	$6, %eax
	andl	$1, %eax
	movl	%eax, -24(%rbp)
	cmpl	$0, -24(%rbp)
	je	.LBB54_34
# %bb.33:                               # %if.then135
	movq	-8(%rbp), %rdi
	movq	-16(%rbp), %rdx
	addq	$528, %rdx              # imm = 0x210
	addq	$144, %rdx
	addq	$48, %rdx
	movl	$1, %esi
	callq	biari_encode_symbol
	jmp	.LBB54_35
.LBB54_34:                              # %if.else139
	movq	-8(%rbp), %rdi
	movq	-16(%rbp), %rdx
	addq	$528, %rdx              # imm = 0x210
	addq	$144, %rdx
	addq	$48, %rdx
	xorl	%esi, %esi
	callq	biari_encode_symbol
.LBB54_35:                              # %if.end143
	jmp	.LBB54_36
.LBB54_36:                              # %if.end144
	jmp	.LBB54_37
.LBB54_37:                              # %if.end145
	jmp	.LBB54_38
.LBB54_38:                              # %if.end146
	jmp	.LBB54_39
.LBB54_39:                              # %if.end147
	cmpl	$613239201, -32(%rbp)   # imm = 0x248D49A1
	jne	.LBB54_41
.LBB54_40:
	addq	$48, %rsp
	popq	%rbp
	.cfi_def_cfa %rsp, 8
	retq
.LBB54_41:                              # %func_exit
	.cfi_def_cfa %rbp, 16
	callq	detect_breach
	jmp	.LBB54_40
.Lfunc_end54:
	.size	writeB8_typeInfo_CABAC.27, .Lfunc_end54-writeB8_typeInfo_CABAC.27
	.cfi_endproc
	.section	.rodata,"a",@progbits
	.p2align	3
.LJTI54_0:
	.quad	.LBB54_3
	.quad	.LBB54_4
	.quad	.LBB54_5
	.quad	.LBB54_6
                                        # -- End function
	.text
	.globl	unary_exp_golomb_mv_encode.28 # -- Begin function unary_exp_golomb_mv_encode.28
	.p2align	4, 0x90
	.type	unary_exp_golomb_mv_encode.28,@function
unary_exp_golomb_mv_encode.28:          # @unary_exp_golomb_mv_encode.28
	.cfi_startproc
# %bb.0:                                # %entry
	pushq	%rbp
	.cfi_def_cfa_offset 16
	.cfi_offset %rbp, -16
	movq	%rsp, %rbp
	.cfi_def_cfa_register %rbp
	subq	$64, %rsp
	movl	$1667718612, -48(%rbp)  # imm = 0x63675DD4
	movq	%rdi, -32(%rbp)
	movl	%esi, -12(%rbp)
	movq	%rdx, -56(%rbp)
	movl	%ecx, -44(%rbp)
	movl	$1, -20(%rbp)
	movq	-56(%rbp), %rax
	movq	%rax, -8(%rbp)
	movl	$8, -16(%rbp)
	cmpl	$0, -12(%rbp)
	jne	.LBB55_2
# %bb.1:                                # %if.then
	movq	-32(%rbp), %rdi
	movq	-8(%rbp), %rdx
	xorl	%esi, %esi
	callq	biari_encode_symbol
	jmp	.LBB55_16
.LBB55_2:                               # %if.else
	movq	-32(%rbp), %rdi
	movq	-8(%rbp), %rdx
	movl	$1, %esi
	callq	biari_encode_symbol
	movl	-12(%rbp), %eax
	movl	%eax, -36(%rbp)
	movl	$1, -40(%rbp)
	movq	-8(%rbp), %rax
	addq	$16, %rax
	movq	%rax, -8(%rbp)
.LBB55_3:                               # %while.cond
                                        # =>This Inner Loop Header: Depth=1
	xorl	%eax, %eax
	movl	-36(%rbp), %ecx
	addl	$-1, %ecx
	movl	%ecx, -36(%rbp)
	cmpl	$0, %ecx
	jbe	.LBB55_5
# %bb.4:                                # %land.rhs
                                        #   in Loop: Header=BB55_3 Depth=1
	movl	-40(%rbp), %eax
	addl	$1, %eax
	movl	%eax, -40(%rbp)
	cmpl	-16(%rbp), %eax
	setbe	%al
.LBB55_5:                               # %land.end
                                        #   in Loop: Header=BB55_3 Depth=1
	testb	$1, %al
	jne	.LBB55_6
	jmp	.LBB55_11
.LBB55_6:                               # %while.body
                                        #   in Loop: Header=BB55_3 Depth=1
	movq	-32(%rbp), %rdi
	movq	-8(%rbp), %rdx
	movl	$1, %esi
	callq	biari_encode_symbol
	movl	-20(%rbp), %eax
	addl	$1, %eax
	movl	%eax, -20(%rbp)
	cmpl	$2, %eax
	jne	.LBB55_8
# %bb.7:                                # %if.then5
                                        #   in Loop: Header=BB55_3 Depth=1
	movq	-8(%rbp), %rax
	addq	$16, %rax
	movq	%rax, -8(%rbp)
.LBB55_8:                               # %if.end
                                        #   in Loop: Header=BB55_3 Depth=1
	movl	-20(%rbp), %eax
	cmpl	-44(%rbp), %eax
	jne	.LBB55_10
# %bb.9:                                # %if.then8
                                        #   in Loop: Header=BB55_3 Depth=1
	movq	-8(%rbp), %rax
	addq	$16, %rax
	movq	%rax, -8(%rbp)
.LBB55_10:                              # %if.end10
                                        #   in Loop: Header=BB55_3 Depth=1
	jmp	.LBB55_3
.LBB55_11:                              # %while.end
	movl	-12(%rbp), %eax
	cmpl	-16(%rbp), %eax
	jae	.LBB55_13
# %bb.12:                               # %if.then12
	movq	-32(%rbp), %rdi
	movq	-8(%rbp), %rdx
	xorl	%esi, %esi
	callq	biari_encode_symbol
	jmp	.LBB55_14
.LBB55_13:                              # %if.else13
	movq	-32(%rbp), %rdi
	movl	-12(%rbp), %esi
	subl	-16(%rbp), %esi
	movl	$3, %edx
	callq	exp_golomb_encode_eq_prob
.LBB55_14:                              # %if.end14
	jmp	.LBB55_15
.LBB55_15:                              # %if.end15
	jmp	.LBB55_16
.LBB55_16:                              # %return
	cmpl	$1667718612, -48(%rbp)  # imm = 0x63675DD4
	jne	.LBB55_18
.LBB55_17:
	addq	$64, %rsp
	popq	%rbp
	.cfi_def_cfa %rsp, 8
	retq
.LBB55_18:                              # %func_exit
	.cfi_def_cfa %rbp, 16
	callq	detect_breach
	jmp	.LBB55_17
.Lfunc_end55:
	.size	unary_exp_golomb_mv_encode.28, .Lfunc_end55-unary_exp_golomb_mv_encode.28
	.cfi_endproc
                                        # -- End function
	.globl	write_and_store_CBP_block_bit.29 # -- Begin function write_and_store_CBP_block_bit.29
	.p2align	4, 0x90
	.type	write_and_store_CBP_block_bit.29,@function
write_and_store_CBP_block_bit.29:       # @write_and_store_CBP_block_bit.29
	.cfi_startproc
# %bb.0:                                # %entry
	pushq	%rbp
	.cfi_def_cfa_offset 16
	.cfi_offset %rbp, -16
	movq	%rsp, %rbp
	.cfi_def_cfa_register %rbp
	subq	$144, %rsp
	movl	$1046651142, -80(%rbp)  # imm = 0x3E62A106
	movq	%rdi, -32(%rbp)
	movq	%rsi, -144(%rbp)
	movl	%edx, -4(%rbp)
	movl	%ecx, -72(%rbp)
	cmpl	$1, -4(%rbp)
	movb	$1, %cl
	je	.LBB56_5
# %bb.1:                                # %lor.lhs.false
	cmpl	$2, -4(%rbp)
	movb	$1, %cl
	je	.LBB56_5
# %bb.2:                                # %lor.lhs.false2
	cmpl	$3, -4(%rbp)
	movb	$1, %cl
	je	.LBB56_5
# %bb.3:                                # %lor.lhs.false4
	cmpl	$4, -4(%rbp)
	movb	$1, %cl
	je	.LBB56_5
# %bb.4:                                # %lor.rhs
	cmpl	$5, -4(%rbp)
	sete	%cl
.LBB56_5:                               # %lor.end
	xorl	%eax, %eax
	andb	$1, %cl
	movzbl	%cl, %ecx
	movl	%ecx, -20(%rbp)
	cmpl	$0, -4(%rbp)
	sete	%cl
	andb	$1, %cl
	movzbl	%cl, %ecx
	movl	%ecx, -44(%rbp)
	cmpl	$7, -4(%rbp)
	jne	.LBB56_7
# %bb.6:                                # %land.rhs
	movq	img, %rax
	cmpl	$0, 84(%rax)
	setne	%al
	xorb	$-1, %al
.LBB56_7:                               # %land.end
	xorl	%ecx, %ecx
	andb	$1, %al
	movzbl	%al, %eax
	movl	%eax, -24(%rbp)
	cmpl	$7, -4(%rbp)
	jne	.LBB56_9
# %bb.8:                                # %land.rhs12
	movq	img, %rax
	cmpl	$0, 84(%rax)
	setne	%cl
.LBB56_9:                               # %land.end15
	andb	$1, %cl
	movzbl	%cl, %eax
	movl	%eax, -56(%rbp)
	cmpl	$6, -4(%rbp)
	movb	$1, %cl
	je	.LBB56_12
# %bb.10:                               # %lor.lhs.false19
	cmpl	$8, -4(%rbp)
	movb	$1, %cl
	je	.LBB56_12
# %bb.11:                               # %lor.rhs22
	cmpl	$9, -4(%rbp)
	sete	%cl
.LBB56_12:                              # %lor.end25
	xorl	%eax, %eax
	andb	$1, %cl
	movzbl	%cl, %ecx
	movl	%ecx, -68(%rbp)
	cmpl	$0, -68(%rbp)
	je	.LBB56_14
# %bb.13:                               # %land.rhs28
	movq	img, %rax
	cmpl	$0, 84(%rax)
	setne	%al
	xorb	$-1, %al
.LBB56_14:                              # %land.end32
	xorl	%ecx, %ecx
	andb	$1, %al
	movzbl	%al, %eax
	movl	%eax, -60(%rbp)
	cmpl	$0, -68(%rbp)
	je	.LBB56_16
# %bb.15:                               # %land.rhs35
	movq	img, %rax
	cmpl	$0, 84(%rax)
	setne	%cl
.LBB56_16:                              # %land.end38
	andb	$1, %cl
	movzbl	%cl, %eax
	movl	%eax, -52(%rbp)
	cmpl	$0, -20(%rbp)
	jne	.LBB56_19
# %bb.17:                               # %lor.lhs.false41
	cmpl	$0, -24(%rbp)
	jne	.LBB56_19
# %bb.18:                               # %lor.lhs.false43
	cmpl	$0, -56(%rbp)
	je	.LBB56_20
.LBB56_19:                              # %cond.true
	movq	img, %rax
	movl	76(%rax), %eax
	jmp	.LBB56_21
.LBB56_20:                              # %cond.false
	xorl	%eax, %eax
	jmp	.LBB56_21
.LBB56_21:                              # %cond.end
	movl	%eax, -12(%rbp)
	cmpl	$0, -20(%rbp)
	jne	.LBB56_24
# %bb.22:                               # %lor.lhs.false46
	cmpl	$0, -24(%rbp)
	jne	.LBB56_24
# %bb.23:                               # %lor.lhs.false48
	cmpl	$0, -56(%rbp)
	je	.LBB56_25
.LBB56_24:                              # %cond.true50
	movq	img, %rax
	movl	72(%rax), %eax
	jmp	.LBB56_26
.LBB56_25:                              # %cond.false51
	xorl	%eax, %eax
	jmp	.LBB56_26
.LBB56_26:                              # %cond.end52
	movl	%eax, -16(%rbp)
	cmpl	$0, -44(%rbp)
	je	.LBB56_28
# %bb.27:                               # %cond.true55
	xorl	%eax, %eax
	jmp	.LBB56_38
.LBB56_28:                              # %cond.false56
	cmpl	$0, -20(%rbp)
	je	.LBB56_30
# %bb.29:                               # %cond.true58
	movl	$1, %eax
	jmp	.LBB56_37
.LBB56_30:                              # %cond.false59
	cmpl	$0, -60(%rbp)
	je	.LBB56_32
# %bb.31:                               # %cond.true61
	movl	$17, %eax
	jmp	.LBB56_36
.LBB56_32:                              # %cond.false62
	cmpl	$0, -52(%rbp)
	je	.LBB56_34
# %bb.33:                               # %cond.true64
	movl	$18, %eax
	jmp	.LBB56_35
.LBB56_34:                              # %cond.false65
	movl	-24(%rbp), %eax
	cmpl	$0, %eax
	movl	$19, %ecx
	movl	$23, %eax
	cmovnel	%ecx, %eax
.LBB56_35:                              # %cond.end68
.LBB56_36:                              # %cond.end70
.LBB56_37:                              # %cond.end72
.LBB56_38:                              # %cond.end74
	xorl	%ecx, %ecx
	movl	%eax, -8(%rbp)
	movq	img, %rax
	movl	80(%rax), %eax
	cmpl	$0, %eax
	movl	$1, %eax
	cmovnel	%eax, %ecx
	movl	%ecx, -76(%rbp)
	movl	-76(%rbp), %eax
	movl	%eax, -64(%rbp)
	movl	-76(%rbp), %eax
	movl	%eax, -48(%rbp)
	movl	$0, -36(%rbp)
	movl	$0, -40(%rbp)
	cmpl	$0, -20(%rbp)
	jne	.LBB56_40
# %bb.39:                               # %lor.lhs.false79
	cmpl	$0, -44(%rbp)
	je	.LBB56_47
.LBB56_40:                              # %if.then
	movq	img, %rax
	movl	12(%rax), %edi
	movl	-16(%rbp), %esi
	movl	-12(%rbp), %edx
	movl	$4294967295, %ecx       # imm = 0xFFFFFFFF
	xorl	%r8d, %r8d
	leaq	-112(%rbp), %r9
	callq	getLuma4x4Neighbour
	movq	img, %rax
	movl	12(%rax), %edi
	movl	-16(%rbp), %esi
	movl	-12(%rbp), %edx
	movl	$0, %ecx
	movl	$4294967295, %r8d       # imm = 0xFFFFFFFF
	leaq	-136(%rbp), %r9
	callq	getLuma4x4Neighbour
	cmpl	$0, -20(%rbp)
	je	.LBB56_46
# %bb.41:                               # %if.then83
	cmpl	$0, -112(%rbp)
	je	.LBB56_43
# %bb.42:                               # %if.then85
	movl	-100(%rbp), %eax
	shll	$2, %eax
	addl	-104(%rbp), %eax
	movl	%eax, -36(%rbp)
.LBB56_43:                              # %if.end
	cmpl	$0, -136(%rbp)
	je	.LBB56_45
# %bb.44:                               # %if.then88
	movl	-124(%rbp), %eax
	shll	$2, %eax
	addl	-128(%rbp), %eax
	movl	%eax, -40(%rbp)
.LBB56_45:                              # %if.end93
	jmp	.LBB56_46
.LBB56_46:                              # %if.end94
	jmp	.LBB56_55
.LBB56_47:                              # %if.else
	movq	img, %rax
	movl	12(%rax), %edi
	movl	-16(%rbp), %esi
	movl	-12(%rbp), %edx
	movl	$4294967295, %ecx       # imm = 0xFFFFFFFF
	xorl	%r8d, %r8d
	leaq	-112(%rbp), %r9
	callq	getChroma4x4Neighbour
	movq	img, %rax
	movl	12(%rax), %edi
	movl	-16(%rbp), %esi
	movl	-12(%rbp), %edx
	movl	$0, %ecx
	movl	$4294967295, %r8d       # imm = 0xFFFFFFFF
	leaq	-136(%rbp), %r9
	callq	getChroma4x4Neighbour
	cmpl	$0, -24(%rbp)
	jne	.LBB56_49
# %bb.48:                               # %lor.lhs.false98
	cmpl	$0, -56(%rbp)
	je	.LBB56_54
.LBB56_49:                              # %if.then100
	cmpl	$0, -112(%rbp)
	je	.LBB56_51
# %bb.50:                               # %if.then103
	movl	-100(%rbp), %eax
	shll	$1, %eax
	addl	-104(%rbp), %eax
	movl	%eax, -36(%rbp)
.LBB56_51:                              # %if.end108
	cmpl	$0, -136(%rbp)
	je	.LBB56_53
# %bb.52:                               # %if.then111
	movl	-124(%rbp), %eax
	shll	$1, %eax
	addl	-128(%rbp), %eax
	movl	%eax, -40(%rbp)
.LBB56_53:                              # %if.end116
	jmp	.LBB56_54
.LBB56_54:                              # %if.end117
	jmp	.LBB56_55
.LBB56_55:                              # %if.end118
	cmpl	$0, -44(%rbp)
	je	.LBB56_57
# %bb.56:                               # %cond.true120
	xorl	%eax, %eax
	jmp	.LBB56_70
.LBB56_57:                              # %cond.false121
	cmpl	$0, -20(%rbp)
	je	.LBB56_59
# %bb.58:                               # %cond.true123
	movl	-12(%rbp), %eax
	shll	$2, %eax
	addl	$1, %eax
	addl	-16(%rbp), %eax
	jmp	.LBB56_69
.LBB56_59:                              # %cond.false127
	cmpl	$0, -60(%rbp)
	je	.LBB56_61
# %bb.60:                               # %cond.true129
	movl	$17, %eax
	jmp	.LBB56_68
.LBB56_61:                              # %cond.false130
	cmpl	$0, -52(%rbp)
	je	.LBB56_63
# %bb.62:                               # %cond.true132
	movl	$18, %eax
	jmp	.LBB56_67
.LBB56_63:                              # %cond.false133
	cmpl	$0, -24(%rbp)
	je	.LBB56_65
# %bb.64:                               # %cond.true135
	movl	-12(%rbp), %eax
	shll	$1, %eax
	addl	$19, %eax
	addl	-16(%rbp), %eax
	jmp	.LBB56_66
.LBB56_65:                              # %cond.false139
	movl	-12(%rbp), %eax
	shll	$1, %eax
	addl	$23, %eax
	addl	-16(%rbp), %eax
.LBB56_66:                              # %cond.end143
.LBB56_67:                              # %cond.end145
.LBB56_68:                              # %cond.end147
.LBB56_69:                              # %cond.end149
.LBB56_70:                              # %cond.end151
	movl	%eax, -8(%rbp)
	cmpl	$0, -72(%rbp)
	je	.LBB56_81
# %bb.71:                               # %if.then154
	cmpl	$2, -4(%rbp)
	jne	.LBB56_73
# %bb.72:                               # %if.then157
	movl	-8(%rbp), %ecx
                                        # kill: def $cl killed $ecx
	movl	$1, %eax
	movl	$1, %edx
	shll	%cl, %edx
	movslq	%edx, %rcx
	movq	-32(%rbp), %rdx
	orq	504(%rdx), %rcx
	movq	%rcx, 504(%rdx)
	movl	-8(%rbp), %ecx
	addl	$1, %ecx
                                        # kill: def $cl killed $ecx
	movl	$1, %edx
	shll	%cl, %edx
	movslq	%edx, %rcx
	movq	-32(%rbp), %rdx
	orq	504(%rdx), %rcx
	movq	%rcx, 504(%rdx)
	movl	-8(%rbp), %ecx
	addl	$4, %ecx
                                        # kill: def $cl killed $ecx
	movl	$1, %edx
	shll	%cl, %edx
	movslq	%edx, %rcx
	movq	-32(%rbp), %rdx
	orq	504(%rdx), %rcx
	movq	%rcx, 504(%rdx)
	movl	-8(%rbp), %ecx
	addl	$5, %ecx
                                        # kill: def $cl killed $ecx
	shll	%cl, %eax
	cltq
	movq	-32(%rbp), %rcx
	orq	504(%rcx), %rax
	movq	%rax, 504(%rcx)
	jmp	.LBB56_80
.LBB56_73:                              # %if.else174
	cmpl	$3, -4(%rbp)
	jne	.LBB56_75
# %bb.74:                               # %if.then177
	movl	-8(%rbp), %ecx
                                        # kill: def $cl killed $ecx
	movl	$1, %eax
	movl	$1, %edx
	shll	%cl, %edx
	movslq	%edx, %rcx
	movq	-32(%rbp), %rdx
	orq	504(%rdx), %rcx
	movq	%rcx, 504(%rdx)
	movl	-8(%rbp), %ecx
	addl	$1, %ecx
                                        # kill: def $cl killed $ecx
	shll	%cl, %eax
	cltq
	movq	-32(%rbp), %rcx
	orq	504(%rcx), %rax
	movq	%rax, 504(%rcx)
	jmp	.LBB56_79
.LBB56_75:                              # %if.else187
	cmpl	$4, -4(%rbp)
	jne	.LBB56_77
# %bb.76:                               # %if.then190
	movl	-8(%rbp), %ecx
                                        # kill: def $cl killed $ecx
	movl	$1, %eax
	movl	$1, %edx
	shll	%cl, %edx
	movslq	%edx, %rcx
	movq	-32(%rbp), %rdx
	orq	504(%rdx), %rcx
	movq	%rcx, 504(%rdx)
	movl	-8(%rbp), %ecx
	addl	$4, %ecx
                                        # kill: def $cl killed $ecx
	shll	%cl, %eax
	cltq
	movq	-32(%rbp), %rcx
	orq	504(%rcx), %rax
	movq	%rax, 504(%rcx)
	jmp	.LBB56_78
.LBB56_77:                              # %if.else200
	movl	-8(%rbp), %ecx
                                        # kill: def $cl killed $ecx
	movl	$1, %eax
	shll	%cl, %eax
	cltq
	movq	-32(%rbp), %rcx
	orq	504(%rcx), %rax
	movq	%rax, 504(%rcx)
.LBB56_78:                              # %if.end205
	jmp	.LBB56_79
.LBB56_79:                              # %if.end206
	jmp	.LBB56_80
.LBB56_80:                              # %if.end207
	jmp	.LBB56_81
.LBB56_81:                              # %if.end208
	cmpl	$0, -44(%rbp)
	je	.LBB56_83
# %bb.82:                               # %cond.true210
	xorl	%eax, %eax
	jmp	.LBB56_93
.LBB56_83:                              # %cond.false211
	cmpl	$0, -20(%rbp)
	je	.LBB56_85
# %bb.84:                               # %cond.true213
	movl	$1, %eax
	jmp	.LBB56_92
.LBB56_85:                              # %cond.false214
	cmpl	$0, -60(%rbp)
	je	.LBB56_87
# %bb.86:                               # %cond.true216
	movl	$17, %eax
	jmp	.LBB56_91
.LBB56_87:                              # %cond.false217
	cmpl	$0, -52(%rbp)
	je	.LBB56_89
# %bb.88:                               # %cond.true219
	movl	$18, %eax
	jmp	.LBB56_90
.LBB56_89:                              # %cond.false220
	movl	-24(%rbp), %eax
	cmpl	$0, %eax
	movl	$19, %ecx
	movl	$23, %eax
	cmovnel	%ecx, %eax
.LBB56_90:                              # %cond.end223
.LBB56_91:                              # %cond.end225
.LBB56_92:                              # %cond.end227
.LBB56_93:                              # %cond.end229
	movl	%eax, -8(%rbp)
	cmpl	$2, -4(%rbp)
	je	.LBB56_105
# %bb.94:                               # %if.then233
	cmpl	$0, -136(%rbp)
	je	.LBB56_99
# %bb.95:                               # %if.then236
	movq	img, %rax
	movq	14168(%rax), %rax
	movslq	-132(%rbp), %rcx
	imulq	$632, %rcx, %rcx        # imm = 0x278
	addq	%rcx, %rax
	cmpl	$14, 72(%rax)
	jne	.LBB56_97
# %bb.96:                               # %if.then239
	movl	$1, -64(%rbp)
	jmp	.LBB56_98
.LBB56_97:                              # %if.else240
	movq	img, %rax
	movq	14168(%rax), %rax
	movslq	-132(%rbp), %rcx
	imulq	$632, %rcx, %rcx        # imm = 0x278
	addq	%rcx, %rax
	movq	504(%rax), %rax
	movl	-8(%rbp), %ecx
	addl	-40(%rbp), %ecx
                                        # kill: def $cl killed $ecx
	movl	$1, %edx
	shll	%cl, %edx
	movslq	%edx, %rcx
	andq	%rcx, %rax
	movl	-8(%rbp), %ecx
	addl	-40(%rbp), %ecx
	movl	%ecx, %ecx
                                        # kill: def $cl killed $rcx
	shrq	%cl, %rax
	movl	%eax, -64(%rbp)
.LBB56_98:                              # %if.end251
	jmp	.LBB56_99
.LBB56_99:                              # %if.end252
	cmpl	$0, -112(%rbp)
	je	.LBB56_104
# %bb.100:                              # %if.then255
	movq	img, %rax
	movq	14168(%rax), %rax
	movslq	-108(%rbp), %rcx
	imulq	$632, %rcx, %rcx        # imm = 0x278
	addq	%rcx, %rax
	cmpl	$14, 72(%rax)
	jne	.LBB56_102
# %bb.101:                              # %if.then263
	movl	$1, -48(%rbp)
	jmp	.LBB56_103
.LBB56_102:                             # %if.else264
	movq	img, %rax
	movq	14168(%rax), %rax
	movslq	-108(%rbp), %rcx
	imulq	$632, %rcx, %rcx        # imm = 0x278
	addq	%rcx, %rax
	movq	504(%rax), %rax
	movl	-8(%rbp), %ecx
	addl	-36(%rbp), %ecx
                                        # kill: def $cl killed $ecx
	movl	$1, %edx
	shll	%cl, %edx
	movslq	%edx, %rcx
	andq	%rcx, %rax
	movl	-8(%rbp), %ecx
	addl	-36(%rbp), %ecx
	movl	%ecx, %ecx
                                        # kill: def $cl killed $rcx
	shrq	%cl, %rax
	movl	%eax, -48(%rbp)
.LBB56_103:                             # %if.end278
	jmp	.LBB56_104
.LBB56_104:                             # %if.end279
	movl	-64(%rbp), %eax
	shll	$1, %eax
	addl	-48(%rbp), %eax
	movl	%eax, -84(%rbp)
	movq	-144(%rbp), %rdi
	movl	-72(%rbp), %eax
	movq	img, %rcx
	movq	14160(%rcx), %rcx
	movq	40(%rcx), %rdx
	addq	$288, %rdx              # imm = 0x120
	movslq	-4(%rbp), %rcx
	movslq	type2ctx_bcbp(,%rcx,4), %rcx
	shlq	$6, %rcx
	addq	%rcx, %rdx
	movslq	-84(%rbp), %rcx
	shlq	$4, %rcx
	addq	%rcx, %rdx
	movswl	%ax, %esi
	callq	biari_encode_symbol
.LBB56_105:                             # %if.end287
	cmpl	$1046651142, -80(%rbp)  # imm = 0x3E62A106
	jne	.LBB56_107
.LBB56_106:
	addq	$144, %rsp
	popq	%rbp
	.cfi_def_cfa %rsp, 8
	retq
.LBB56_107:                             # %func_exit
	.cfi_def_cfa %rbp, 16
	callq	detect_breach
	jmp	.LBB56_106
.Lfunc_end56:
	.size	write_and_store_CBP_block_bit.29, .Lfunc_end56-write_and_store_CBP_block_bit.29
	.cfi_endproc
                                        # -- End function
	.globl	writeCIPredMode_CABAC.30 # -- Begin function writeCIPredMode_CABAC.30
	.p2align	4, 0x90
	.type	writeCIPredMode_CABAC.30,@function
writeCIPredMode_CABAC.30:               # @writeCIPredMode_CABAC.30
	.cfi_startproc
# %bb.0:                                # %entry
	pushq	%rbp
	.cfi_def_cfa_offset 16
	.cfi_offset %rbp, -16
	movq	%rsp, %rbp
	.cfi_def_cfa_register %rbp
	subq	$64, %rsp
	movl	$645756191, -44(%rbp)   # imm = 0x267D751F
	movq	%rdi, -56(%rbp)
	movq	%rsi, -32(%rbp)
	movq	img, %rax
	movq	14160(%rax), %rax
	movq	40(%rax), %rax
	movq	%rax, -40(%rbp)
	movq	img, %rax
	movq	14168(%rax), %rax
	movq	img, %rcx
	movslq	12(%rcx), %rcx
	imulq	$632, %rcx, %rcx        # imm = 0x278
	addq	%rcx, %rax
	movq	%rax, -24(%rbp)
	movq	-56(%rbp), %rax
	movl	4(%rax), %eax
	movl	%eax, -12(%rbp)
	movq	-24(%rbp), %rax
	cmpq	$0, 56(%rax)
	jne	.LBB57_2
# %bb.1:                                # %if.then
	movl	$0, -8(%rbp)
	jmp	.LBB57_3
.LBB57_2:                               # %if.else
	xorl	%eax, %eax
	movq	-24(%rbp), %rcx
	movq	56(%rcx), %rcx
	movl	524(%rcx), %ecx
	cmpl	$0, %ecx
	movl	$1, %ecx
	cmovnel	%ecx, %eax
	movl	%eax, -8(%rbp)
.LBB57_3:                               # %if.end
	movq	-24(%rbp), %rax
	cmpq	$0, 64(%rax)
	jne	.LBB57_5
# %bb.4:                                # %if.then4
	movl	$0, -16(%rbp)
	jmp	.LBB57_6
.LBB57_5:                               # %if.else5
	xorl	%eax, %eax
	movq	-24(%rbp), %rcx
	movq	64(%rcx), %rcx
	movl	524(%rcx), %ecx
	cmpl	$0, %ecx
	movl	$1, %ecx
	cmovnel	%ecx, %eax
	movl	%eax, -16(%rbp)
.LBB57_6:                               # %if.end10
	movl	-16(%rbp), %eax
	addl	-8(%rbp), %eax
	movl	%eax, -4(%rbp)
	cmpl	$0, -12(%rbp)
	jne	.LBB57_8
# %bb.7:                                # %if.then12
	movq	-32(%rbp), %rdi
	movq	-40(%rbp), %rdx
	addq	$32, %rdx
	movslq	-4(%rbp), %rax
	shlq	$4, %rax
	addq	%rax, %rdx
	xorl	%esi, %esi
	callq	biari_encode_symbol
	jmp	.LBB57_9
.LBB57_8:                               # %if.else13
	movq	-32(%rbp), %rdi
	movq	-40(%rbp), %rdx
	addq	$32, %rdx
	movslq	-4(%rbp), %rax
	shlq	$4, %rax
	addq	%rax, %rdx
	movl	$1, %esi
	callq	biari_encode_symbol
	movq	-32(%rbp), %rdi
	movl	-12(%rbp), %esi
	subl	$1, %esi
	movq	-40(%rbp), %rdx
	addq	$32, %rdx
	addq	$48, %rdx
	xorl	%ecx, %ecx
	movl	$2, %r8d
	callq	unary_bin_max_encode
.LBB57_9:                               # %if.end21
	cmpl	$645756191, -44(%rbp)   # imm = 0x267D751F
	jne	.LBB57_11
.LBB57_10:
	addq	$64, %rsp
	popq	%rbp
