	.text
	.file	"configfile.c"
	.globl	JMHelpExit              # -- Begin function JMHelpExit
	.p2align	4, 0x90
	.type	JMHelpExit,@function
JMHelpExit:                             # @JMHelpExit
	.cfi_startproc
# %bb.0:                                # %entry
	pushq	%rbp
	.cfi_def_cfa_offset 16
	.cfi_offset %rbp, -16
	movq	%rsp, %rbp
	.cfi_def_cfa_register %rbp
	movq	stderr, %rdi
	movabsq	$.L.str, %rsi
	movb	$0, %al
	callq	fprintf
	movl	$4294967295, %edi       # imm = 0xFFFFFFFF
	callq	exit
.Lfunc_end0:
	.size	JMHelpExit, .Lfunc_end0-JMHelpExit
	.cfi_endproc
                                        # -- End function
	.globl	Configure               # -- Begin function Configure
	.p2align	4, 0x90
	.type	Configure,@function
Configure:                              # @Configure
	.cfi_startproc
# %bb.0:                                # %rand_bb
	pushq	%rbp
	.cfi_def_cfa_offset 16
	.cfi_offset %rbp, -16
	movq	%rsp, %rbp
	.cfi_def_cfa_register %rbp
	pushq	%r14
	pushq	%rbx
	.cfi_offset %rbx, -32
	.cfi_offset %r14, -24
	movq	%rsi, %r14
	movl	%edi, %ebx
	callq	get_rand
	cmpl	$0, %eax
	jne	.LBB1_17
# %bb.1:                                # %func_Configure.4
	movl	%ebx, %edi
	movq	%r14, %rsi
	callq	Configure.4
	popq	%rbx
	popq	%r14
	popq	%rbp
	.cfi_def_cfa %rsp, 8
	retq
.LBB1_2:                                # %func_Configure.7
	.cfi_def_cfa %rbp, 16
	movl	%ebx, %edi
	movq	%r14, %rsi
	callq	Configure.7
	popq	%rbx
	popq	%r14
	popq	%rbp
	.cfi_def_cfa %rsp, 8
	retq
.LBB1_3:                                # %func_Configure.25
	.cfi_def_cfa %rbp, 16
	movl	%ebx, %edi
	movq	%r14, %rsi
	callq	Configure.25
	popq	%rbx
	popq	%r14
	popq	%rbp
	.cfi_def_cfa %rsp, 8
	retq
.LBB1_4:                                # %func_Configure.37
	.cfi_def_cfa %rbp, 16
	movl	%ebx, %edi
	movq	%r14, %rsi
	callq	Configure.37
	popq	%rbx
	popq	%r14
	popq	%rbp
	.cfi_def_cfa %rsp, 8
	retq
.LBB1_5:                                # %func_Configure.38
	.cfi_def_cfa %rbp, 16
	movl	%ebx, %edi
	movq	%r14, %rsi
	callq	Configure.38
	popq	%rbx
	popq	%r14
	popq	%rbp
	.cfi_def_cfa %rsp, 8
	retq
.LBB1_6:                                # %func_Configure.47
	.cfi_def_cfa %rbp, 16
	movl	%ebx, %edi
	movq	%r14, %rsi
	callq	Configure.47
	popq	%rbx
	popq	%r14
	popq	%rbp
	.cfi_def_cfa %rsp, 8
	retq
.LBB1_7:                                # %func_Configure.52
	.cfi_def_cfa %rbp, 16
	movl	%ebx, %edi
	movq	%r14, %rsi
	callq	Configure.52
	popq	%rbx
	popq	%r14
	popq	%rbp
	.cfi_def_cfa %rsp, 8
	retq
.LBB1_8:                                # %func_Configure.54
	.cfi_def_cfa %rbp, 16
	movl	%ebx, %edi
	movq	%r14, %rsi
	callq	Configure.54
	popq	%rbx
	popq	%r14
	popq	%rbp
	.cfi_def_cfa %rsp, 8
	retq
.LBB1_9:                                # %func_Configure.65
	.cfi_def_cfa %rbp, 16
	movl	%ebx, %edi
	movq	%r14, %rsi
	callq	Configure.65
	popq	%rbx
	popq	%r14
	popq	%rbp
	.cfi_def_cfa %rsp, 8
	retq
.LBB1_10:                               # %func_Configure.69
	.cfi_def_cfa %rbp, 16
	movl	%ebx, %edi
	movq	%r14, %rsi
	callq	Configure.69
	popq	%rbx
	popq	%r14
	popq	%rbp
	.cfi_def_cfa %rsp, 8
	retq
.LBB1_11:                               # %func_Configure.70
	.cfi_def_cfa %rbp, 16
	movl	%ebx, %edi
	movq	%r14, %rsi
	callq	Configure.70
	popq	%rbx
	popq	%r14
	popq	%rbp
	.cfi_def_cfa %rsp, 8
	retq
.LBB1_12:                               # %func_Configure.74
	.cfi_def_cfa %rbp, 16
	movl	%ebx, %edi
	movq	%r14, %rsi
	callq	Configure.74
	popq	%rbx
	popq	%r14
	popq	%rbp
	.cfi_def_cfa %rsp, 8
	retq
.LBB1_13:                               # %func_Configure.75
	.cfi_def_cfa %rbp, 16
	movl	%ebx, %edi
	movq	%r14, %rsi
	callq	Configure.75
	popq	%rbx
	popq	%r14
	popq	%rbp
	.cfi_def_cfa %rsp, 8
	retq
.LBB1_14:                               # %func_Configure.76
	.cfi_def_cfa %rbp, 16
	movl	%ebx, %edi
	movq	%r14, %rsi
	callq	Configure.76
	popq	%rbx
	popq	%r14
	popq	%rbp
	.cfi_def_cfa %rsp, 8
	retq
.LBB1_15:                               # %func_Configure.77
	.cfi_def_cfa %rbp, 16
	movl	%ebx, %edi
	movq	%r14, %rsi
	callq	Configure.77
	popq	%rbx
	popq	%r14
	popq	%rbp
	.cfi_def_cfa %rsp, 8
	retq
.LBB1_16:                               # %func_Configure.78
	.cfi_def_cfa %rbp, 16
	movl	%ebx, %edi
	movq	%r14, %rsi
	callq	Configure.78
	popq	%rbx
	popq	%r14
	popq	%rbp
	.cfi_def_cfa %rsp, 8
	retq
.LBB1_17:                               # %ctrl0
	.cfi_def_cfa %rbp, 16
	cmpl	$1, %eax
	je	.LBB1_2
# %bb.18:                               # %ctrl1
	cmpl	$2, %eax
	je	.LBB1_3
# %bb.19:                               # %ctrl2
	cmpl	$3, %eax
	je	.LBB1_4
# %bb.20:                               # %ctrl3
	cmpl	$4, %eax
	je	.LBB1_5
# %bb.21:                               # %ctrl4
	cmpl	$5, %eax
	je	.LBB1_6
# %bb.22:                               # %ctrl5
	cmpl	$6, %eax
	je	.LBB1_7
# %bb.23:                               # %ctrl6
	cmpl	$7, %eax
	je	.LBB1_8
# %bb.24:                               # %ctrl7
	cmpl	$8, %eax
	je	.LBB1_9
# %bb.25:                               # %ctrl8
	cmpl	$9, %eax
	je	.LBB1_10
# %bb.26:                               # %ctrl9
	cmpl	$10, %eax
	je	.LBB1_11
# %bb.27:                               # %ctrl10
	cmpl	$11, %eax
	je	.LBB1_12
# %bb.28:                               # %ctrl11
	cmpl	$12, %eax
	je	.LBB1_13
# %bb.29:                               # %ctrl12
	cmpl	$13, %eax
	je	.LBB1_14
# %bb.30:                               # %ctrl13
	cmpl	$14, %eax
	je	.LBB1_15
	jmp	.LBB1_16
.Lfunc_end1:
	.size	Configure, .Lfunc_end1-Configure
	.cfi_endproc
                                        # -- End function
	.globl	GetConfigFileContent    # -- Begin function GetConfigFileContent
	.p2align	4, 0x90
	.type	GetConfigFileContent,@function
GetConfigFileContent:                   # @GetConfigFileContent
	.cfi_startproc
# %bb.0:                                # %rand_bb
	pushq	%rbp
	.cfi_def_cfa_offset 16
	.cfi_offset %rbp, -16
	movq	%rsp, %rbp
	.cfi_def_cfa_register %rbp
	pushq	%rbx
	pushq	%rax
	.cfi_offset %rbx, -24
	movq	%rdi, %rbx
	callq	get_rand
	cmpl	$0, %eax
	jne	.LBB2_17
# %bb.1:                                # %func_GetConfigFileContent.5
	movq	%rbx, %rdi
	callq	GetConfigFileContent.5
	addq	$8, %rsp
	popq	%rbx
	popq	%rbp
	.cfi_def_cfa %rsp, 8
	retq
.LBB2_2:                                # %func_GetConfigFileContent.12
	.cfi_def_cfa %rbp, 16
	movq	%rbx, %rdi
	callq	GetConfigFileContent.12
	addq	$8, %rsp
	popq	%rbx
	popq	%rbp
	.cfi_def_cfa %rsp, 8
	retq
.LBB2_3:                                # %func_GetConfigFileContent.27
	.cfi_def_cfa %rbp, 16
	movq	%rbx, %rdi
	callq	GetConfigFileContent.27
	addq	$8, %rsp
	popq	%rbx
	popq	%rbp
	.cfi_def_cfa %rsp, 8
	retq
.LBB2_4:                                # %func_GetConfigFileContent.28
	.cfi_def_cfa %rbp, 16
	movq	%rbx, %rdi
	callq	GetConfigFileContent.28
	addq	$8, %rsp
	popq	%rbx
	popq	%rbp
	.cfi_def_cfa %rsp, 8
	retq
.LBB2_5:                                # %func_GetConfigFileContent.34
	.cfi_def_cfa %rbp, 16
	movq	%rbx, %rdi
	callq	GetConfigFileContent.34
	addq	$8, %rsp
	popq	%rbx
	popq	%rbp
	.cfi_def_cfa %rsp, 8
	retq
.LBB2_6:                                # %func_GetConfigFileContent.35
	.cfi_def_cfa %rbp, 16
	movq	%rbx, %rdi
	callq	GetConfigFileContent.35
	addq	$8, %rsp
	popq	%rbx
	popq	%rbp
	.cfi_def_cfa %rsp, 8
	retq
.LBB2_7:                                # %func_GetConfigFileContent.44
	.cfi_def_cfa %rbp, 16
	movq	%rbx, %rdi
	callq	GetConfigFileContent.44
	addq	$8, %rsp
	popq	%rbx
	popq	%rbp
	.cfi_def_cfa %rsp, 8
	retq
.LBB2_8:                                # %func_GetConfigFileContent.45
	.cfi_def_cfa %rbp, 16
	movq	%rbx, %rdi
	callq	GetConfigFileContent.45
	addq	$8, %rsp
	popq	%rbx
	popq	%rbp
	.cfi_def_cfa %rsp, 8
	retq
.LBB2_9:                                # %func_GetConfigFileContent.46
	.cfi_def_cfa %rbp, 16
	movq	%rbx, %rdi
	callq	GetConfigFileContent.46
	addq	$8, %rsp
	popq	%rbx
	popq	%rbp
	.cfi_def_cfa %rsp, 8
	retq
.LBB2_10:                               # %func_GetConfigFileContent.51
	.cfi_def_cfa %rbp, 16
	movq	%rbx, %rdi
	callq	GetConfigFileContent.51
	addq	$8, %rsp
	popq	%rbx
	popq	%rbp
	.cfi_def_cfa %rsp, 8
	retq
.LBB2_11:                               # %func_GetConfigFileContent.53
	.cfi_def_cfa %rbp, 16
	movq	%rbx, %rdi
	callq	GetConfigFileContent.53
	addq	$8, %rsp
	popq	%rbx
	popq	%rbp
	.cfi_def_cfa %rsp, 8
	retq
.LBB2_12:                               # %func_GetConfigFileContent.60
	.cfi_def_cfa %rbp, 16
	movq	%rbx, %rdi
	callq	GetConfigFileContent.60
	addq	$8, %rsp
	popq	%rbx
	popq	%rbp
	.cfi_def_cfa %rsp, 8
	retq
.LBB2_13:                               # %func_GetConfigFileContent.67
	.cfi_def_cfa %rbp, 16
	movq	%rbx, %rdi
	callq	GetConfigFileContent.67
	addq	$8, %rsp
	popq	%rbx
	popq	%rbp
	.cfi_def_cfa %rsp, 8
	retq
.LBB2_14:                               # %func_GetConfigFileContent.68
	.cfi_def_cfa %rbp, 16
	movq	%rbx, %rdi
	callq	GetConfigFileContent.68
	addq	$8, %rsp
	popq	%rbx
	popq	%rbp
	.cfi_def_cfa %rsp, 8
	retq
.LBB2_15:                               # %func_GetConfigFileContent.71
	.cfi_def_cfa %rbp, 16
	movq	%rbx, %rdi
	callq	GetConfigFileContent.71
	addq	$8, %rsp
	popq	%rbx
	popq	%rbp
	.cfi_def_cfa %rsp, 8
	retq
.LBB2_16:                               # %func_GetConfigFileContent.72
	.cfi_def_cfa %rbp, 16
	movq	%rbx, %rdi
	callq	GetConfigFileContent.72
	addq	$8, %rsp
	popq	%rbx
	popq	%rbp
	.cfi_def_cfa %rsp, 8
	retq
.LBB2_17:                               # %ctrl0
	.cfi_def_cfa %rbp, 16
	cmpl	$1, %eax
	je	.LBB2_2
# %bb.18:                               # %ctrl1
	cmpl	$2, %eax
	je	.LBB2_3
# %bb.19:                               # %ctrl2
	cmpl	$3, %eax
	je	.LBB2_4
# %bb.20:                               # %ctrl3
	cmpl	$4, %eax
	je	.LBB2_5
# %bb.21:                               # %ctrl4
	cmpl	$5, %eax
	je	.LBB2_6
# %bb.22:                               # %ctrl5
	cmpl	$6, %eax
	je	.LBB2_7
# %bb.23:                               # %ctrl6
	cmpl	$7, %eax
	je	.LBB2_8
# %bb.24:                               # %ctrl7
	cmpl	$8, %eax
	je	.LBB2_9
# %bb.25:                               # %ctrl8
	cmpl	$9, %eax
	je	.LBB2_10
# %bb.26:                               # %ctrl9
	cmpl	$10, %eax
	je	.LBB2_11
# %bb.27:                               # %ctrl10
	cmpl	$11, %eax
	je	.LBB2_12
# %bb.28:                               # %ctrl11
	cmpl	$12, %eax
	je	.LBB2_13
# %bb.29:                               # %ctrl12
	cmpl	$13, %eax
	je	.LBB2_14
# %bb.30:                               # %ctrl13
	cmpl	$14, %eax
	je	.LBB2_15
	jmp	.LBB2_16
.Lfunc_end2:
	.size	GetConfigFileContent, .Lfunc_end2-GetConfigFileContent
	.cfi_endproc
                                        # -- End function
	.p2align	4, 0x90         # -- Begin function ParseContent
	.type	ParseContent,@function
ParseContent:                           # @ParseContent
	.cfi_startproc
# %bb.0:                                # %rand_bb
	pushq	%rbp
	.cfi_def_cfa_offset 16
	.cfi_offset %rbp, -16
	movq	%rsp, %rbp
	.cfi_def_cfa_register %rbp
	pushq	%r14
	pushq	%rbx
	.cfi_offset %rbx, -32
	.cfi_offset %r14, -24
	movl	%esi, %r14d
	movq	%rdi, %rbx
	callq	get_rand
	cmpl	$0, %eax
	jne	.LBB3_17
# %bb.1:                                # %func_ParseContent.3
	movq	%rbx, %rdi
	movl	%r14d, %esi
	callq	ParseContent.3
	popq	%rbx
	popq	%r14
	popq	%rbp
	.cfi_def_cfa %rsp, 8
	retq
.LBB3_2:                                # %func_ParseContent.16
	.cfi_def_cfa %rbp, 16
	movq	%rbx, %rdi
	movl	%r14d, %esi
	callq	ParseContent.16
	popq	%rbx
	popq	%r14
	popq	%rbp
	.cfi_def_cfa %rsp, 8
	retq
.LBB3_3:                                # %func_ParseContent.17
	.cfi_def_cfa %rbp, 16
	movq	%rbx, %rdi
	movl	%r14d, %esi
	callq	ParseContent.17
	popq	%rbx
	popq	%r14
	popq	%rbp
	.cfi_def_cfa %rsp, 8
	retq
.LBB3_4:                                # %func_ParseContent.19
	.cfi_def_cfa %rbp, 16
	movq	%rbx, %rdi
	movl	%r14d, %esi
	callq	ParseContent.19
	popq	%rbx
	popq	%r14
	popq	%rbp
	.cfi_def_cfa %rsp, 8
	retq
.LBB3_5:                                # %func_ParseContent.21
	.cfi_def_cfa %rbp, 16
	movq	%rbx, %rdi
	movl	%r14d, %esi
	callq	ParseContent.21
	popq	%rbx
	popq	%r14
	popq	%rbp
	.cfi_def_cfa %rsp, 8
	retq
.LBB3_6:                                # %func_ParseContent.23
	.cfi_def_cfa %rbp, 16
	movq	%rbx, %rdi
	movl	%r14d, %esi
	callq	ParseContent.23
	popq	%rbx
	popq	%r14
	popq	%rbp
	.cfi_def_cfa %rsp, 8
	retq
.LBB3_7:                                # %func_ParseContent.26
	.cfi_def_cfa %rbp, 16
	movq	%rbx, %rdi
	movl	%r14d, %esi
	callq	ParseContent.26
	popq	%rbx
	popq	%r14
	popq	%rbp
	.cfi_def_cfa %rsp, 8
	retq
.LBB3_8:                                # %func_ParseContent.29
	.cfi_def_cfa %rbp, 16
	movq	%rbx, %rdi
	movl	%r14d, %esi
	callq	ParseContent.29
	popq	%rbx
	popq	%r14
	popq	%rbp
	.cfi_def_cfa %rsp, 8
	retq
.LBB3_9:                                # %func_ParseContent.36
	.cfi_def_cfa %rbp, 16
	movq	%rbx, %rdi
	movl	%r14d, %esi
	callq	ParseContent.36
	popq	%rbx
	popq	%r14
	popq	%rbp
	.cfi_def_cfa %rsp, 8
	retq
.LBB3_10:                               # %func_ParseContent.40
	.cfi_def_cfa %rbp, 16
	movq	%rbx, %rdi
	movl	%r14d, %esi
	callq	ParseContent.40
	popq	%rbx
	popq	%r14
	popq	%rbp
	.cfi_def_cfa %rsp, 8
	retq
.LBB3_11:                               # %func_ParseContent.43
	.cfi_def_cfa %rbp, 16
	movq	%rbx, %rdi
	movl	%r14d, %esi
	callq	ParseContent.43
	popq	%rbx
	popq	%r14
	popq	%rbp
	.cfi_def_cfa %rsp, 8
	retq
.LBB3_12:                               # %func_ParseContent.48
	.cfi_def_cfa %rbp, 16
	movq	%rbx, %rdi
	movl	%r14d, %esi
	callq	ParseContent.48
	popq	%rbx
	popq	%r14
	popq	%rbp
	.cfi_def_cfa %rsp, 8
	retq
.LBB3_13:                               # %func_ParseContent.50
	.cfi_def_cfa %rbp, 16
	movq	%rbx, %rdi
	movl	%r14d, %esi
	callq	ParseContent.50
	popq	%rbx
	popq	%r14
	popq	%rbp
	.cfi_def_cfa %rsp, 8
	retq
.LBB3_14:                               # %func_ParseContent.55
	.cfi_def_cfa %rbp, 16
	movq	%rbx, %rdi
	movl	%r14d, %esi
	callq	ParseContent.55
	popq	%rbx
	popq	%r14
	popq	%rbp
	.cfi_def_cfa %rsp, 8
	retq
.LBB3_15:                               # %func_ParseContent.58
	.cfi_def_cfa %rbp, 16
	movq	%rbx, %rdi
	movl	%r14d, %esi
	callq	ParseContent.58
	popq	%rbx
	popq	%r14
	popq	%rbp
	.cfi_def_cfa %rsp, 8
	retq
.LBB3_16:                               # %func_ParseContent.63
	.cfi_def_cfa %rbp, 16
	movq	%rbx, %rdi
	movl	%r14d, %esi
	callq	ParseContent.63
	popq	%rbx
	popq	%r14
	popq	%rbp
	.cfi_def_cfa %rsp, 8
	retq
.LBB3_17:                               # %ctrl0
	.cfi_def_cfa %rbp, 16
	cmpl	$1, %eax
	je	.LBB3_2
# %bb.18:                               # %ctrl1
	cmpl	$2, %eax
	je	.LBB3_3
# %bb.19:                               # %ctrl2
	cmpl	$3, %eax
	je	.LBB3_4
# %bb.20:                               # %ctrl3
	cmpl	$4, %eax
	je	.LBB3_5
# %bb.21:                               # %ctrl4
	cmpl	$5, %eax
	je	.LBB3_6
# %bb.22:                               # %ctrl5
	cmpl	$6, %eax
	je	.LBB3_7
# %bb.23:                               # %ctrl6
	cmpl	$7, %eax
	je	.LBB3_8
# %bb.24:                               # %ctrl7
	cmpl	$8, %eax
	je	.LBB3_9
# %bb.25:                               # %ctrl8
	cmpl	$9, %eax
	je	.LBB3_10
# %bb.26:                               # %ctrl9
	cmpl	$10, %eax
	je	.LBB3_11
# %bb.27:                               # %ctrl10
	cmpl	$11, %eax
	je	.LBB3_12
# %bb.28:                               # %ctrl11
	cmpl	$12, %eax
	je	.LBB3_13
# %bb.29:                               # %ctrl12
	cmpl	$13, %eax
	je	.LBB3_14
# %bb.30:                               # %ctrl13
	cmpl	$14, %eax
	je	.LBB3_15
	jmp	.LBB3_16
.Lfunc_end3:
	.size	ParseContent, .Lfunc_end3-ParseContent
	.cfi_endproc
                                        # -- End function
	.globl	CeilLog2                # -- Begin function CeilLog2
	.p2align	4, 0x90
	.type	CeilLog2,@function
CeilLog2:                               # @CeilLog2
	.cfi_startproc
# %bb.0:                                # %rand_bb
	pushq	%rbp
	.cfi_def_cfa_offset 16
	.cfi_offset %rbp, -16
	movq	%rsp, %rbp
	.cfi_def_cfa_register %rbp
	pushq	%rbx
	pushq	%rax
	.cfi_offset %rbx, -24
	movl	%edi, %ebx
	callq	get_rand
	cmpl	$0, %eax
	jne	.LBB4_7
# %bb.1:                                # %func_CeilLog2.1
	movl	%ebx, %edi
	callq	CeilLog2.1
	addq	$8, %rsp
	popq	%rbx
	popq	%rbp
	.cfi_def_cfa %rsp, 8
	retq
.LBB4_2:                                # %func_CeilLog2.6
	.cfi_def_cfa %rbp, 16
	movl	%ebx, %edi
	callq	CeilLog2.6
	addq	$8, %rsp
	popq	%rbx
	popq	%rbp
	.cfi_def_cfa %rsp, 8
	retq
.LBB4_3:                                # %func_CeilLog2.9
	.cfi_def_cfa %rbp, 16
	movl	%ebx, %edi
	callq	CeilLog2.9
	addq	$8, %rsp
	popq	%rbx
	popq	%rbp
	.cfi_def_cfa %rsp, 8
	retq
.LBB4_4:                                # %func_CeilLog2.13
	.cfi_def_cfa %rbp, 16
	movl	%ebx, %edi
	callq	CeilLog2.13
	addq	$8, %rsp
	popq	%rbx
	popq	%rbp
	.cfi_def_cfa %rsp, 8
	retq
.LBB4_5:                                # %func_CeilLog2.14
	.cfi_def_cfa %rbp, 16
	movl	%ebx, %edi
	callq	CeilLog2.14
	addq	$8, %rsp
	popq	%rbx
	popq	%rbp
	.cfi_def_cfa %rsp, 8
	retq
.LBB4_6:                                # %func_CeilLog2.33
	.cfi_def_cfa %rbp, 16
	movl	%ebx, %edi
	callq	CeilLog2.33
	addq	$8, %rsp
	popq	%rbx
	popq	%rbp
	.cfi_def_cfa %rsp, 8
	retq
.LBB4_7:                                # %ctrl0
	.cfi_def_cfa %rbp, 16
	cmpl	$1, %eax
	je	.LBB4_2
# %bb.8:                                # %ctrl1
	cmpl	$2, %eax
	je	.LBB4_3
# %bb.9:                                # %ctrl2
	cmpl	$3, %eax
	je	.LBB4_4
# %bb.10:                               # %ctrl3
	cmpl	$4, %eax
	je	.LBB4_5
	jmp	.LBB4_6
.Lfunc_end4:
	.size	CeilLog2, .Lfunc_end4-CeilLog2
	.cfi_endproc
                                        # -- End function
	.globl	PatchInputNoFrames      # -- Begin function PatchInputNoFrames
	.p2align	4, 0x90
	.type	PatchInputNoFrames,@function
PatchInputNoFrames:                     # @PatchInputNoFrames
	.cfi_startproc
# %bb.0:                                # %entry
	pushq	%rbp
	.cfi_def_cfa_offset 16
	.cfi_offset %rbp, -16
	movq	%rsp, %rbp
	.cfi_def_cfa_register %rbp
	movq	input, %rax
	movl	8(%rax), %eax
	subl	$1, %eax
	movq	input, %rcx
	movl	2912(%rcx), %ecx
	addl	$1, %ecx
	imull	%ecx, %eax
	addl	$1, %eax
	movq	input, %rcx
	movl	%eax, 8(%rcx)
	movq	input, %rax
	cmpl	$0, 2916(%rax)
	je	.LBB5_2
# %bb.1:                                # %if.then
	movq	input, %rax
	movl	2916(%rax), %eax
	subl	$1, %eax
	movq	input, %rcx
	movl	2912(%rcx), %ecx
	addl	$1, %ecx
	imull	%ecx, %eax
	addl	$1, %eax
	movq	input, %rcx
	movl	%eax, 2916(%rcx)
.LBB5_2:                                # %if.end
	movq	input, %rax
	movl	8(%rax), %eax
	movl	%eax, FirstFrameIn2ndIGOP
	popq	%rbp
	.cfi_def_cfa %rsp, 8
	retq
.Lfunc_end5:
	.size	PatchInputNoFrames, .Lfunc_end5-PatchInputNoFrames
	.cfi_endproc
                                        # -- End function
	.p2align	4, 0x90         # -- Begin function ParameterNameToMapIndex
	.type	ParameterNameToMapIndex,@function
ParameterNameToMapIndex:                # @ParameterNameToMapIndex
	.cfi_startproc
# %bb.0:                                # %rand_bb
	pushq	%rbp
	.cfi_def_cfa_offset 16
	.cfi_offset %rbp, -16
	movq	%rsp, %rbp
	.cfi_def_cfa_register %rbp
	pushq	%rbx
	pushq	%rax
	.cfi_offset %rbx, -24
	movq	%rdi, %rbx
	callq	get_rand
	cmpl	$0, %eax
	jne	.LBB6_7
# %bb.1:                                # %func_ParameterNameToMapIndex.15
	movq	%rbx, %rdi
	callq	ParameterNameToMapIndex.15
	addq	$8, %rsp
	popq	%rbx
	popq	%rbp
	.cfi_def_cfa %rsp, 8
	retq
.LBB6_2:                                # %func_ParameterNameToMapIndex.20
	.cfi_def_cfa %rbp, 16
	movq	%rbx, %rdi
	callq	ParameterNameToMapIndex.20
	addq	$8, %rsp
	popq	%rbx
	popq	%rbp
	.cfi_def_cfa %rsp, 8
	retq
.LBB6_3:                                # %func_ParameterNameToMapIndex.22
	.cfi_def_cfa %rbp, 16
	movq	%rbx, %rdi
	callq	ParameterNameToMapIndex.22
	addq	$8, %rsp
	popq	%rbx
	popq	%rbp
	.cfi_def_cfa %rsp, 8
	retq
.LBB6_4:                                # %func_ParameterNameToMapIndex.31
	.cfi_def_cfa %rbp, 16
	movq	%rbx, %rdi
	callq	ParameterNameToMapIndex.31
	addq	$8, %rsp
	popq	%rbx
	popq	%rbp
	.cfi_def_cfa %rsp, 8
	retq
.LBB6_5:                                # %func_ParameterNameToMapIndex.32
	.cfi_def_cfa %rbp, 16
	movq	%rbx, %rdi
	callq	ParameterNameToMapIndex.32
	addq	$8, %rsp
	popq	%rbx
	popq	%rbp
	.cfi_def_cfa %rsp, 8
	retq
.LBB6_6:                                # %func_ParameterNameToMapIndex.39
	.cfi_def_cfa %rbp, 16
	movq	%rbx, %rdi
	callq	ParameterNameToMapIndex.39
	addq	$8, %rsp
	popq	%rbx
	popq	%rbp
	.cfi_def_cfa %rsp, 8
	retq
.LBB6_7:                                # %ctrl0
	.cfi_def_cfa %rbp, 16
	cmpl	$1, %eax
	je	.LBB6_2
# %bb.8:                                # %ctrl1
	cmpl	$2, %eax
	je	.LBB6_3
# %bb.9:                                # %ctrl2
	cmpl	$3, %eax
	je	.LBB6_4
# %bb.10:                               # %ctrl3
	cmpl	$4, %eax
	je	.LBB6_5
	jmp	.LBB6_6
.Lfunc_end6:
	.size	ParameterNameToMapIndex, .Lfunc_end6-ParameterNameToMapIndex
	.cfi_endproc
                                        # -- End function
	.p2align	4, 0x90         # -- Begin function InitEncoderParams
	.type	InitEncoderParams,@function
InitEncoderParams:                      # @InitEncoderParams
	.cfi_startproc
# %bb.0:                                # %entry
	pushq	%rbp
	.cfi_def_cfa_offset 16
	.cfi_offset %rbp, -16
	movq	%rsp, %rbp
	.cfi_def_cfa_register %rbp
	movl	$0, -4(%rbp)
.LBB7_1:                                # %while.cond
                                        # =>This Inner Loop Header: Depth=1
	movslq	-4(%rbp), %rax
	imulq	$56, %rax, %rax
	movabsq	$Map, %rcx
	addq	%rax, %rcx
	cmpq	$0, (%rcx)
	je	.LBB7_8
# %bb.2:                                # %while.body
                                        #   in Loop: Header=BB7_1 Depth=1
	movslq	-4(%rbp), %rax
	imulq	$56, %rax, %rax
	movabsq	$Map, %rcx
	addq	%rax, %rcx
	cmpl	$0, 16(%rcx)
	jne	.LBB7_4
# %bb.3:                                # %if.then
                                        #   in Loop: Header=BB7_1 Depth=1
	movslq	-4(%rbp), %rax
	imulq	$56, %rax, %rax
	movabsq	$Map, %rcx
	movq	%rcx, %rdx
	addq	%rax, %rdx
	vcvttsd2si	24(%rdx), %eax
	movslq	-4(%rbp), %rdx
	imulq	$56, %rdx, %rdx
	addq	%rdx, %rcx
	movq	8(%rcx), %rcx
	movl	%eax, (%rcx)
	jmp	.LBB7_7
.LBB7_4:                                # %if.else
                                        #   in Loop: Header=BB7_1 Depth=1
	movslq	-4(%rbp), %rax
	imulq	$56, %rax, %rax
	movabsq	$Map, %rcx
	addq	%rax, %rcx
	cmpl	$2, 16(%rcx)
	jne	.LBB7_6
# %bb.5:                                # %if.then13
                                        #   in Loop: Header=BB7_1 Depth=1
	movslq	-4(%rbp), %rax
	imulq	$56, %rax, %rax
	movabsq	$Map, %rcx
	movq	%rcx, %rdx
	addq	%rax, %rdx
	vmovsd	24(%rdx), %xmm0         # xmm0 = mem[0],zero
	movslq	-4(%rbp), %rax
	imulq	$56, %rax, %rax
	addq	%rax, %rcx
	movq	8(%rcx), %rax
	vmovsd	%xmm0, (%rax)
.LBB7_6:                                # %if.end
                                        #   in Loop: Header=BB7_1 Depth=1
	jmp	.LBB7_7
.LBB7_7:                                # %if.end20
                                        #   in Loop: Header=BB7_1 Depth=1
	movl	-4(%rbp), %eax
	addl	$1, %eax
	movl	%eax, -4(%rbp)
	jmp	.LBB7_1
.LBB7_8:                                # %while.end
	movl	$4294967295, %eax       # imm = 0xFFFFFFFF
	popq	%rbp
	.cfi_def_cfa %rsp, 8
	retq
.Lfunc_end7:
	.size	InitEncoderParams, .Lfunc_end7-InitEncoderParams
	.cfi_endproc
                                        # -- End function
	.p2align	4, 0x90         # -- Begin function DisplayEncoderParams
	.type	DisplayEncoderParams,@function
DisplayEncoderParams:                   # @DisplayEncoderParams
	.cfi_startproc
# %bb.0:                                # %entry
	pushq	%rbp
	.cfi_def_cfa_offset 16
	.cfi_offset %rbp, -16
	movq	%rsp, %rbp
	.cfi_def_cfa_register %rbp
	subq	$16, %rsp
	movl	$0, -4(%rbp)
	movabsq	$.L.str.174, %rdi
	movb	$0, %al
	callq	printf
	movabsq	$.L.str.175, %rdi
	movb	$0, %al
	callq	printf
	movabsq	$.L.str.174, %rdi
	movb	$0, %al
	callq	printf
.LBB8_1:                                # %while.cond
                                        # =>This Inner Loop Header: Depth=1
	movslq	-4(%rbp), %rax
	imulq	$56, %rax, %rax
	movabsq	$Map, %rcx
	addq	%rax, %rcx
	cmpq	$0, (%rcx)
	je	.LBB8_11
# %bb.2:                                # %while.body
                                        #   in Loop: Header=BB8_1 Depth=1
	movslq	-4(%rbp), %rax
	imulq	$56, %rax, %rax
	movabsq	$Map, %rcx
	addq	%rax, %rcx
	cmpl	$0, 16(%rcx)
	jne	.LBB8_4
# %bb.3:                                # %if.then
                                        #   in Loop: Header=BB8_1 Depth=1
	movslq	-4(%rbp), %rax
	imulq	$56, %rax, %rax
	movabsq	$Map, %rcx
	movq	%rcx, %rdx
	addq	%rax, %rdx
	movq	(%rdx), %rsi
	movslq	-4(%rbp), %rax
	imulq	$56, %rax, %rax
	addq	%rax, %rcx
	movq	8(%rcx), %rax
	movl	(%rax), %edx
	movabsq	$.L.str.176, %rdi
	movb	$0, %al
	callq	printf
	jmp	.LBB8_10
.LBB8_4:                                # %if.else
                                        #   in Loop: Header=BB8_1 Depth=1
	movslq	-4(%rbp), %rax
	imulq	$56, %rax, %rax
	movabsq	$Map, %rcx
	addq	%rax, %rcx
	cmpl	$1, 16(%rcx)
	jne	.LBB8_6
# %bb.5:                                # %if.then16
                                        #   in Loop: Header=BB8_1 Depth=1
	movslq	-4(%rbp), %rax
	imulq	$56, %rax, %rax
	movabsq	$Map, %rcx
	movq	%rcx, %rdx
	addq	%rax, %rdx
	movq	(%rdx), %rsi
	movslq	-4(%rbp), %rax
	imulq	$56, %rax, %rax
	addq	%rax, %rcx
	movq	8(%rcx), %rdx
	movabsq	$.L.str.177, %rdi
	movb	$0, %al
	callq	printf
	jmp	.LBB8_9
.LBB8_6:                                # %if.else24
                                        #   in Loop: Header=BB8_1 Depth=1
	movslq	-4(%rbp), %rax
	imulq	$56, %rax, %rax
	movabsq	$Map, %rcx
	addq	%rax, %rcx
	cmpl	$2, 16(%rcx)
	jne	.LBB8_8
# %bb.7:                                # %if.then29
                                        #   in Loop: Header=BB8_1 Depth=1
	movslq	-4(%rbp), %rax
	imulq	$56, %rax, %rax
	movabsq	$Map, %rcx
	movq	%rcx, %rdx
	addq	%rax, %rdx
	movq	(%rdx), %rsi
	movslq	-4(%rbp), %rax
	imulq	$56, %rax, %rax
	addq	%rax, %rcx
	movq	8(%rcx), %rax
	vmovsd	(%rax), %xmm0           # xmm0 = mem[0],zero
	movabsq	$.L.str.178, %rdi
	movb	$1, %al
	callq	printf
.LBB8_8:                                # %if.end
                                        #   in Loop: Header=BB8_1 Depth=1
	jmp	.LBB8_9
.LBB8_9:                                # %if.end37
                                        #   in Loop: Header=BB8_1 Depth=1
	jmp	.LBB8_10
.LBB8_10:                               # %if.end38
                                        #   in Loop: Header=BB8_1 Depth=1
	movl	-4(%rbp), %eax
	addl	$1, %eax
	movl	%eax, -4(%rbp)
	jmp	.LBB8_1
.LBB8_11:                               # %while.end
	movabsq	$.L.str.174, %rdi
	movb	$0, %al
	callq	printf
	movl	$4294967295, %eax       # imm = 0xFFFFFFFF
	addq	$16, %rsp
	popq	%rbp
	.cfi_def_cfa %rsp, 8
	retq
.Lfunc_end8:
	.size	DisplayEncoderParams, .Lfunc_end8-DisplayEncoderParams
	.cfi_endproc
                                        # -- End function
	.p2align	4, 0x90         # -- Begin function PatchInp
	.type	PatchInp,@function
PatchInp:                               # @PatchInp
	.cfi_startproc
# %bb.0:                                # %rand_bb
	pushq	%rbp
	.cfi_def_cfa_offset 16
	.cfi_offset %rbp, -16
	movq	%rsp, %rbp
	.cfi_def_cfa_register %rbp
	callq	get_rand
	cmpl	$0, %eax
	jne	.LBB9_17
# %bb.1:                                # %func_PatchInp.2
	callq	PatchInp.2
	popq	%rbp
	.cfi_def_cfa %rsp, 8
	retq
.LBB9_2:                                # %func_PatchInp.10
	.cfi_def_cfa %rbp, 16
	callq	PatchInp.10
	popq	%rbp
	.cfi_def_cfa %rsp, 8
	retq
.LBB9_3:                                # %func_PatchInp.18
	.cfi_def_cfa %rbp, 16
	callq	PatchInp.18
	popq	%rbp
	.cfi_def_cfa %rsp, 8
	retq
.LBB9_4:                                # %func_PatchInp.24
	.cfi_def_cfa %rbp, 16
	callq	PatchInp.24
	popq	%rbp
	.cfi_def_cfa %rsp, 8
	retq
.LBB9_5:                                # %func_PatchInp.30
	.cfi_def_cfa %rbp, 16
	callq	PatchInp.30
	popq	%rbp
	.cfi_def_cfa %rsp, 8
	retq
.LBB9_6:                                # %func_PatchInp.41
	.cfi_def_cfa %rbp, 16
	callq	PatchInp.41
	popq	%rbp
	.cfi_def_cfa %rsp, 8
	retq
.LBB9_7:                                # %func_PatchInp.42
	.cfi_def_cfa %rbp, 16
	callq	PatchInp.42
	popq	%rbp
	.cfi_def_cfa %rsp, 8
	retq
.LBB9_8:                                # %func_PatchInp.49
	.cfi_def_cfa %rbp, 16
	callq	PatchInp.49
	popq	%rbp
	.cfi_def_cfa %rsp, 8
	retq
.LBB9_9:                                # %func_PatchInp.56
	.cfi_def_cfa %rbp, 16
	callq	PatchInp.56
	popq	%rbp
	.cfi_def_cfa %rsp, 8
	retq
.LBB9_10:                               # %func_PatchInp.57
	.cfi_def_cfa %rbp, 16
	callq	PatchInp.57
	popq	%rbp
	.cfi_def_cfa %rsp, 8
	retq
.LBB9_11:                               # %func_PatchInp.59
	.cfi_def_cfa %rbp, 16
	callq	PatchInp.59
	popq	%rbp
	.cfi_def_cfa %rsp, 8
	retq
.LBB9_12:                               # %func_PatchInp.61
	.cfi_def_cfa %rbp, 16
	callq	PatchInp.61
	popq	%rbp
	.cfi_def_cfa %rsp, 8
	retq
.LBB9_13:                               # %func_PatchInp.62
	.cfi_def_cfa %rbp, 16
	callq	PatchInp.62
	popq	%rbp
	.cfi_def_cfa %rsp, 8
	retq
.LBB9_14:                               # %func_PatchInp.64
	.cfi_def_cfa %rbp, 16
	callq	PatchInp.64
	popq	%rbp
	.cfi_def_cfa %rsp, 8
	retq
.LBB9_15:                               # %func_PatchInp.66
	.cfi_def_cfa %rbp, 16
	callq	PatchInp.66
	popq	%rbp
	.cfi_def_cfa %rsp, 8
	retq
.LBB9_16:                               # %func_PatchInp.73
	.cfi_def_cfa %rbp, 16
	callq	PatchInp.73
	popq	%rbp
	.cfi_def_cfa %rsp, 8
	retq
.LBB9_17:                               # %ctrl0
	.cfi_def_cfa %rbp, 16
	cmpl	$1, %eax
	je	.LBB9_2
# %bb.18:                               # %ctrl1
	cmpl	$2, %eax
	je	.LBB9_3
# %bb.19:                               # %ctrl2
	cmpl	$3, %eax
	je	.LBB9_4
# %bb.20:                               # %ctrl3
	cmpl	$4, %eax
	je	.LBB9_5
# %bb.21:                               # %ctrl4
	cmpl	$5, %eax
	je	.LBB9_6
# %bb.22:                               # %ctrl5
	cmpl	$6, %eax
	je	.LBB9_7
# %bb.23:                               # %ctrl6
	cmpl	$7, %eax
	je	.LBB9_8
# %bb.24:                               # %ctrl7
	cmpl	$8, %eax
	je	.LBB9_9
# %bb.25:                               # %ctrl8
	cmpl	$9, %eax
	je	.LBB9_10
# %bb.26:                               # %ctrl9
	cmpl	$10, %eax
	je	.LBB9_11
# %bb.27:                               # %ctrl10
	cmpl	$11, %eax
	je	.LBB9_12
# %bb.28:                               # %ctrl11
	cmpl	$12, %eax
	je	.LBB9_13
# %bb.29:                               # %ctrl12
	cmpl	$13, %eax
	je	.LBB9_14
# %bb.30:                               # %ctrl13
	cmpl	$14, %eax
	je	.LBB9_15
	jmp	.LBB9_16
.Lfunc_end9:
	.size	PatchInp, .Lfunc_end9-PatchInp
	.cfi_endproc
                                        # -- End function
	.p2align	4, 0x90         # -- Begin function TestEncoderParams
	.type	TestEncoderParams,@function
TestEncoderParams:                      # @TestEncoderParams
	.cfi_startproc
# %bb.0:                                # %rand_bb
	pushq	%rbp
	.cfi_def_cfa_offset 16
	.cfi_offset %rbp, -16
	movq	%rsp, %rbp
	.cfi_def_cfa_register %rbp
	pushq	%rbx
	pushq	%rax
	.cfi_offset %rbx, -24
	movl	%edi, %ebx
	callq	get_rand
	cmpl	$0, %eax
	jne	.LBB10_2
# %bb.1:                                # %func_TestEncoderParams.8
	movl	%ebx, %edi
	callq	TestEncoderParams.8
	addq	$8, %rsp
	popq	%rbx
	popq	%rbp
	.cfi_def_cfa %rsp, 8
	retq
.LBB10_2:                               # %func_TestEncoderParams.11
	.cfi_def_cfa %rbp, 16
	movl	%ebx, %edi
	callq	TestEncoderParams.11
	addq	$8, %rsp
	popq	%rbx
	popq	%rbp
	.cfi_def_cfa %rsp, 8
	retq
.Lfunc_end10:
	.size	TestEncoderParams, .Lfunc_end10-TestEncoderParams
	.cfi_endproc
                                        # -- End function
	.p2align	4, 0x90         # -- Begin function ProfileCheck
	.type	ProfileCheck,@function
ProfileCheck:                           # @ProfileCheck
	.cfi_startproc
# %bb.0:                                # %entry
	pushq	%rbp
	.cfi_def_cfa_offset 16
	.cfi_offset %rbp, -16
	movq	%rsp, %rbp
	.cfi_def_cfa_register %rbp
	movq	input, %rax
	cmpl	$66, (%rax)
	je	.LBB11_8
# %bb.1:                                # %land.lhs.true
	movq	input, %rax
	cmpl	$77, (%rax)
	je	.LBB11_8
# %bb.2:                                # %land.lhs.true3
	movq	input, %rax
	cmpl	$88, (%rax)
	je	.LBB11_8
# %bb.3:                                # %land.lhs.true6
	movq	input, %rax
	cmpl	$100, (%rax)
	je	.LBB11_8
# %bb.4:                                # %land.lhs.true9
	movq	input, %rax
	cmpl	$110, (%rax)
	je	.LBB11_8
# %bb.5:                                # %land.lhs.true12
	movq	input, %rax
	cmpl	$122, (%rax)
	je	.LBB11_8
# %bb.6:                                # %land.lhs.true15
	movq	input, %rax
	cmpl	$144, (%rax)
	je	.LBB11_8
# %bb.7:                                # %if.then
	movabsq	$errortext, %rdi
	movl	$300, %esi              # imm = 0x12C
	movabsq	$.L.str.220, %rdx
	movl	$100, %ecx
	movl	$144, %r8d
	movb	$0, %al
	callq	snprintf
	movabsq	$errortext, %rdi
	movl	$500, %esi              # imm = 0x1F4
	callq	error
.LBB11_8:                               # %if.end
	movq	input, %rax
	cmpl	$66, (%rax)
	jne	.LBB11_22
# %bb.9:                                # %if.then20
	movq	input, %rax
	cmpl	$0, 1236(%rax)
	je	.LBB11_11
# %bb.10:                               # %if.then21
	movabsq	$errortext, %rdi
	movl	$300, %esi              # imm = 0x12C
	movabsq	$.L.str.221, %rdx
	movb	$0, %al
	callq	snprintf
	movabsq	$errortext, %rdi
	movl	$500, %esi              # imm = 0x1F4
	callq	error
.LBB11_11:                              # %if.end23
	movq	input, %rax
	cmpl	$0, 1272(%rax)
	je	.LBB11_13
# %bb.12:                               # %if.then25
	movabsq	$errortext, %rdi
	movl	$300, %esi              # imm = 0x12C
	movabsq	$.L.str.222, %rdx
	movb	$0, %al
	callq	snprintf
	movabsq	$errortext, %rdi
	movl	$500, %esi              # imm = 0x1F4
	callq	error
.LBB11_13:                              # %if.end27
	movq	input, %rax
	cmpl	$0, 2364(%rax)
	je	.LBB11_15
# %bb.14:                               # %if.then29
	movabsq	$errortext, %rdi
	movl	$300, %esi              # imm = 0x12C
	movabsq	$.L.str.223, %rdx
	movb	$0, %al
	callq	snprintf
	movabsq	$errortext, %rdi
	movl	$500, %esi              # imm = 0x1F4
	callq	error
.LBB11_15:                              # %if.end31
	movq	input, %rax
	cmpl	$0, 1284(%rax)
	je	.LBB11_17
# %bb.16:                               # %if.then33
	movabsq	$errortext, %rdi
	movl	$300, %esi              # imm = 0x12C
	movabsq	$.L.str.224, %rdx
	movb	$0, %al
	callq	snprintf
	movabsq	$errortext, %rdi
	movl	$500, %esi              # imm = 0x1F4
	callq	error
.LBB11_17:                              # %if.end35
	movq	input, %rax
	cmpl	$0, 1288(%rax)
	je	.LBB11_19
# %bb.18:                               # %if.then37
	movabsq	$errortext, %rdi
	movl	$300, %esi              # imm = 0x12C
	movabsq	$.L.str.224, %rdx
	movb	$0, %al
	callq	snprintf
	movabsq	$errortext, %rdi
	movl	$500, %esi              # imm = 0x1F4
	callq	error
.LBB11_19:                              # %if.end39
	movq	input, %rax
	cmpl	$1, 2356(%rax)
	jne	.LBB11_21
# %bb.20:                               # %if.then41
	movabsq	$errortext, %rdi
	movl	$300, %esi              # imm = 0x12C
	movabsq	$.L.str.225, %rdx
	movb	$0, %al
	callq	snprintf
	movabsq	$errortext, %rdi
	movl	$500, %esi              # imm = 0x1F4
	callq	error
.LBB11_21:                              # %if.end43
	jmp	.LBB11_22
.LBB11_22:                              # %if.end44
	movq	input, %rax
	cmpl	$77, (%rax)
	jne	.LBB11_32
# %bb.23:                               # %if.then47
	movq	input, %rax
	cmpl	$0, 1272(%rax)
	je	.LBB11_25
# %bb.24:                               # %if.then50
	movabsq	$errortext, %rdi
	movl	$300, %esi              # imm = 0x12C
	movabsq	$.L.str.226, %rdx
	movb	$0, %al
	callq	snprintf
	movabsq	$errortext, %rdi
	movl	$500, %esi              # imm = 0x1F4
	callq	error
.LBB11_25:                              # %if.end52
	movq	input, %rax
	cmpl	$0, 2364(%rax)
	je	.LBB11_27
# %bb.26:                               # %if.then55
	movabsq	$errortext, %rdi
	movl	$300, %esi              # imm = 0x12C
	movabsq	$.L.str.227, %rdx
	movb	$0, %al
	callq	snprintf
	movabsq	$errortext, %rdi
	movl	$500, %esi              # imm = 0x1F4
	callq	error
.LBB11_27:                              # %if.end57
	movq	input, %rax
	cmpl	$0, 3152(%rax)
	je	.LBB11_29
# %bb.28:                               # %if.then59
	movabsq	$errortext, %rdi
	movl	$300, %esi              # imm = 0x12C
	movabsq	$.L.str.228, %rdx
	movb	$0, %al
	callq	snprintf
	movabsq	$errortext, %rdi
	movl	$500, %esi              # imm = 0x1F4
	callq	error
.LBB11_29:                              # %if.end61
	movq	input, %rax
	cmpl	$0, 3204(%rax)
	je	.LBB11_31
# %bb.30:                               # %if.then63
	movabsq	$errortext, %rdi
	movl	$300, %esi              # imm = 0x12C
	movabsq	$.L.str.229, %rdx
	movb	$0, %al
	callq	snprintf
	movabsq	$errortext, %rdi
	movl	$500, %esi              # imm = 0x1F4
	callq	error
.LBB11_31:                              # %if.end65
	jmp	.LBB11_32
.LBB11_32:                              # %if.end66
	movq	input, %rax
	cmpl	$88, (%rax)
	jne	.LBB11_38
# %bb.33:                               # %if.then69
	movq	input, %rax
	cmpl	$0, 1252(%rax)
	jne	.LBB11_35
# %bb.34:                               # %if.then71
	movabsq	$errortext, %rdi
	movl	$300, %esi              # imm = 0x12C
	movabsq	$.L.str.230, %rdx
	movb	$0, %al
	callq	snprintf
	movabsq	$errortext, %rdi
	movl	$500, %esi              # imm = 0x1F4
	callq	error
.LBB11_35:                              # %if.end73
	movq	input, %rax
	cmpl	$1, 2356(%rax)
	jne	.LBB11_37
# %bb.36:                               # %if.then76
	movabsq	$errortext, %rdi
	movl	$300, %esi              # imm = 0x12C
	movabsq	$.L.str.231, %rdx
	movb	$0, %al
	callq	snprintf
	movabsq	$errortext, %rdi
	movl	$500, %esi              # imm = 0x1F4
	callq	error
.LBB11_37:                              # %if.end78
	jmp	.LBB11_38
.LBB11_38:                              # %if.end79
	popq	%rbp
	.cfi_def_cfa %rsp, 8
	retq
.Lfunc_end11:
	.size	ProfileCheck, .Lfunc_end11-ProfileCheck
	.cfi_endproc
                                        # -- End function
	.p2align	4, 0x90         # -- Begin function LevelCheck
	.type	LevelCheck,@function
LevelCheck:                             # @LevelCheck
	.cfi_startproc
# %bb.0:                                # %entry
	pushq	%rbp
	.cfi_def_cfa_offset 16
	.cfi_offset %rbp, -16
	movq	%rsp, %rbp
	.cfi_def_cfa_register %rbp
	popq	%rbp
	.cfi_def_cfa %rsp, 8
	retq
.Lfunc_end12:
	.size	LevelCheck, .Lfunc_end12-LevelCheck
	.cfi_endproc
                                        # -- End function
	.globl	CeilLog2.1              # -- Begin function CeilLog2.1
	.p2align	4, 0x90
	.type	CeilLog2.1,@function
CeilLog2.1:                             # @CeilLog2.1
	.cfi_startproc
# %bb.0:                                # %entry
	pushq	%rbp
	.cfi_def_cfa_offset 16
	.cfi_offset %rbp, -16
	movq	%rsp, %rbp
	.cfi_def_cfa_register %rbp
	pushq	%rbx
	subq	$24, %rsp
	.cfi_offset %rbx, -24
	movl	$1005221632, -24(%rbp)  # imm = 0x3BEA7700
	movl	%edi, -20(%rbp)
	movl	-20(%rbp), %eax
	subl	$1, %eax
	movl	%eax, -12(%rbp)
	movl	$0, -16(%rbp)
.LBB13_1:                               # %while.cond
                                        # =>This Inner Loop Header: Depth=1
	cmpl	$0, -12(%rbp)
	je	.LBB13_3
# %bb.2:                                # %while.body
                                        #   in Loop: Header=BB13_1 Depth=1
	movl	-12(%rbp), %eax
	shrl	$1, %eax
	movl	%eax, -12(%rbp)
	movl	-16(%rbp), %eax
	addl	$1, %eax
	movl	%eax, -16(%rbp)
	jmp	.LBB13_1
.LBB13_3:                               # %while.end
	movl	-16(%rbp), %ebx
	cmpl	$1005221632, -24(%rbp)  # imm = 0x3BEA7700
	jne	.LBB13_5
.LBB13_4:
	movl	%ebx, %eax
	addq	$24, %rsp
	popq	%rbx
	popq	%rbp
	.cfi_def_cfa %rsp, 8
	retq
.LBB13_5:                               # %func_exit
	.cfi_def_cfa %rbp, 16
	callq	detect_breach
	jmp	.LBB13_4
.Lfunc_end13:
	.size	CeilLog2.1, .Lfunc_end13-CeilLog2.1
	.cfi_endproc
                                        # -- End function
	.section	.rodata.cst8,"aM",@progbits,8
	.p2align	3               # -- Begin function PatchInp.2
.LCPI14_0:
	.quad	4629137466983448576     # double 30
	.text
	.p2align	4, 0x90
	.type	PatchInp.2,@function
PatchInp.2:                             # @PatchInp.2
	.cfi_startproc
# %bb.0:                                # %entry
	pushq	%rbp
	.cfi_def_cfa_offset 16
	.cfi_offset %rbp, -16
	movq	%rsp, %rbp
	.cfi_def_cfa_register %rbp
	subq	$48, %rsp
	movl	$767835603, -48(%rbp)   # imm = 0x2DC43DD3
	movq	input, %rax
	movl	3296(%rax), %eax
	subl	$8, %eax
	imull	$6, %eax, %eax
	movl	%eax, -32(%rbp)
	movq	$0, -16(%rbp)
	movq	input, %rax
	movl	$1, 3224(%rax)
	movl	-32(%rbp), %edi
	callq	TestEncoderParams
	movq	input, %rax
	vmovsd	2424(%rax), %xmm0       # xmm0 = mem[0],zero
	vxorps	%xmm1, %xmm1, %xmm1
	vucomisd	%xmm1, %xmm0
	jne	.LBB14_2
	jp	.LBB14_2
# %bb.1:                                # %if.then
	vmovsd	.LCPI14_0(%rip), %xmm0  # xmm0 = mem[0],zero
	movq	input, %rax
	vmovsd	%xmm0, 2424(%rax)
.LBB14_2:                               # %if.end
	movq	input, %rax
	movl	$16, 80(%rax)
	movq	input, %rax
	movl	$16, 84(%rax)
	movq	input, %rax
	movl	$16, 88(%rax)
	movq	input, %rax
	movl	$16, 92(%rax)
	movq	input, %rax
	movl	$16, 96(%rax)
	movq	input, %rax
	movl	$8, 100(%rax)
	movq	input, %rax
	movl	$8, 104(%rax)
	movq	input, %rax
	movl	$16, 108(%rax)
	movq	input, %rax
	movl	$8, 112(%rax)
	movq	input, %rax
	movl	$8, 116(%rax)
	movq	input, %rax
	movl	$8, 120(%rax)
	movq	input, %rax
	movl	$4, 124(%rax)
	movq	input, %rax
	movl	$4, 128(%rax)
	movq	input, %rax
	movl	$8, 132(%rax)
	movq	input, %rax
	movl	$4, 136(%rax)
	movq	input, %rax
	movl	$4, 140(%rax)
	movq	input, %rax
	movl	$4, 144(%rax)
	movq	input, %rax
	movl	$4, 148(%rax)
	movq	input, %rax
	movl	$4, 152(%rax)
	movq	input, %rax
	movl	$4, 156(%rax)
	movq	input, %rax
	movl	$4, 160(%rax)
	movq	input, %rax
	movl	$2, 164(%rax)
	movq	input, %rax
	movl	$2, 168(%rax)
	movq	input, %rax
	movl	$4, 172(%rax)
	movq	input, %rax
	movl	$2, 176(%rax)
	movq	input, %rax
	movl	$2, 180(%rax)
	movq	input, %rax
	movl	$2, 184(%rax)
	movq	input, %rax
	movl	$1, 188(%rax)
	movq	input, %rax
	movl	$1, 192(%rax)
	movq	input, %rax
	movl	$2, 196(%rax)
	movq	input, %rax
	movl	$1, 200(%rax)
	movq	input, %rax
	movl	$1, 204(%rax)
	movq	input, %rax
	cmpl	$0, 1316(%rax)
	je	.LBB14_4
# %bb.3:                                # %cond.true
	movq	input, %rax
	movl	1236(%rax), %eax
	addl	$1, %eax
	jmp	.LBB14_5
.LBB14_4:                               # %cond.false
	movl	$1, %eax
	jmp	.LBB14_5
.LBB14_5:                               # %cond.end
	movl	%eax, -20(%rbp)
	movq	input, %rax
	cmpl	$4, 52(%rax)
	jge	.LBB14_10
# %bb.6:                                # %if.then96
	movq	input, %rax
	movl	8(%rax), %edi
	imull	-20(%rbp), %edi
	callq	CeilLog2
	subl	$4, %eax
	cmpl	$0, %eax
	jle	.LBB14_8
# %bb.7:                                # %cond.true101
	movq	input, %rax
	movl	8(%rax), %edi
	imull	-20(%rbp), %edi
	callq	CeilLog2
	subl	$4, %eax
	jmp	.LBB14_9
.LBB14_8:                               # %cond.false106
	xorl	%eax, %eax
	jmp	.LBB14_9
.LBB14_9:                               # %cond.end107
	movl	%eax, log2_max_frame_num_minus4
	jmp	.LBB14_11
.LBB14_10:                              # %if.else
	movq	input, %rax
	movl	52(%rax), %eax
	subl	$4, %eax
	movl	%eax, log2_max_frame_num_minus4
.LBB14_11:                              # %if.end111
	movq	input, %rax
	movl	8(%rax), %edi
	shll	$1, %edi
	movq	input, %rax
	movl	20(%rax), %eax
	addl	$1, %eax
	imull	%eax, %edi
	callq	CeilLog2
	subl	$4, %eax
	cmpl	$0, %eax
	jle	.LBB14_13
# %bb.12:                               # %cond.true119
	movq	input, %rax
	movl	8(%rax), %edi
	shll	$1, %edi
	movq	input, %rax
	movl	20(%rax), %eax
	addl	$1, %eax
	imull	%eax, %edi
	callq	CeilLog2
	subl	$4, %eax
	jmp	.LBB14_14
.LBB14_13:                              # %cond.false127
	xorl	%eax, %eax
	jmp	.LBB14_14
.LBB14_14:                              # %cond.end128
	movl	%eax, log2_max_pic_order_cnt_lsb_minus4
	movq	input, %rax
	movl	1236(%rax), %eax
	movq	input, %rcx
	cmpl	20(%rcx), %eax
	jle	.LBB14_16
# %bb.15:                               # %if.then133
	movq	input, %rax
	movl	1236(%rax), %ecx
	movabsq	$errortext, %rdi
	movl	$300, %esi              # imm = 0x12C
	movabsq	$.L.str.179, %rdx
	movb	$0, %al
	callq	snprintf
	movabsq	$errortext, %rdi
	movl	$400, %esi              # imm = 0x190
	callq	error
.LBB14_16:                              # %if.end136
	movq	input, %rax
	cmpl	$0, 1236(%rax)
	je	.LBB14_20
# %bb.17:                               # %land.lhs.true
	movq	input, %rax
	cmpl	$1, 1248(%rax)
	je	.LBB14_20
# %bb.18:                               # %land.lhs.true140
	movq	input, %rax
	cmpl	$0, 1248(%rax)
	je	.LBB14_20
# %bb.19:                               # %if.then143
	movq	input, %rax
	movl	1248(%rax), %ecx
	movabsq	$errortext, %rdi
	movl	$300, %esi              # imm = 0x12C
	movabsq	$.L.str.180, %rdx
	movb	$0, %al
	callq	snprintf
	movabsq	$errortext, %rdi
	movl	$400, %esi              # imm = 0x190
	callq	error
.LBB14_20:                              # %if.end146
	movq	input, %rax
	cmpl	$0, 2880(%rax)
	jg	.LBB14_22
# %bb.21:                               # %lor.lhs.false
	movq	input, %rax
	cmpl	$0, 2884(%rax)
	jle	.LBB14_25
.LBB14_22:                              # %if.then149
	movq	input, %rax
	cmpl	$0, 1252(%rax)
	jne	.LBB14_24
# %bb.23:                               # %if.then151
	movabsq	$.L.str.181, %rdi
	movb	$0, %al
	callq	printf
.LBB14_24:                              # %if.end153
	movq	input, %rax
	movl	$1, 1252(%rax)
.LBB14_25:                              # %if.end155
	movq	input, %rax
	cmpl	$0, 2880(%rax)
	jle	.LBB14_30
# %bb.26:                               # %if.then158
	movq	input, %rax
	cmpl	$0, 2888(%rax)
	je	.LBB14_29
# %bb.27:                               # %land.lhs.true160
	movq	input, %rax
	cmpl	$1, 2888(%rax)
	je	.LBB14_29
# %bb.28:                               # %if.then163
	movq	input, %rax
	movl	2888(%rax), %ecx
	movabsq	$errortext, %rdi
	movl	$300, %esi              # imm = 0x12C
	movabsq	$.L.str.182, %rdx
	movb	$0, %al
	callq	snprintf
	movabsq	$errortext, %rdi
	movl	$400, %esi              # imm = 0x190
	callq	error
.LBB14_29:                              # %if.end166
	jmp	.LBB14_30
.LBB14_30:                              # %if.end167
	movq	input, %rax
	cmpl	$0, 2356(%rax)
	je	.LBB14_33
# %bb.31:                               # %land.lhs.true169
	movq	input, %rax
	cmpl	$1, 2356(%rax)
	je	.LBB14_33
# %bb.32:                               # %if.then172
	movq	input, %rax
	movl	2356(%rax), %ecx
	movabsq	$errortext, %rdi
	movl	$300, %esi              # imm = 0x12C
	movabsq	$.L.str.183, %rdx
	movb	$0, %al
	callq	snprintf
	movabsq	$errortext, %rdi
	movl	$400, %esi              # imm = 0x190
	callq	error
.LBB14_33:                              # %if.end175
	movq	input, %rdi
	addq	$224, %rdi
	xorl	%esi, %esi
	movb	$0, %al
	callq	open
	movl	%eax, p_in
	cmpl	$-1, %eax
	jne	.LBB14_35
# %bb.34:                               # %if.then178
	movq	input, %rcx
	addq	$224, %rcx
	movabsq	$errortext, %rdi
	movl	$300, %esi              # imm = 0x12C
	movabsq	$.L.str.184, %rdx
	movb	$0, %al
	callq	snprintf
	movabsq	$errortext, %rdi
	movl	$500, %esi              # imm = 0x1F4
	callq	error
.LBB14_35:                              # %if.end182
	movq	input, %rdi
	addq	$624, %rdi              # imm = 0x270
	callq	strlen
	cmpq	$0, %rax
	jbe	.LBB14_38
# %bb.36:                               # %land.lhs.true186
	movq	input, %rdi
	addq	$624, %rdi              # imm = 0x270
	movl	$577, %esi              # imm = 0x241
	movl	$384, %edx              # imm = 0x180
	movb	$0, %al
	callq	open
	movl	%eax, p_dec
	cmpl	$-1, %eax
	jne	.LBB14_38
# %bb.37:                               # %if.then191
	movq	input, %rcx
	addq	$624, %rcx              # imm = 0x270
	movabsq	$errortext, %rdi
	movl	$300, %esi              # imm = 0x12C
	movabsq	$.L.str.185, %rdx
	movb	$0, %al
	callq	snprintf
	movabsq	$errortext, %rdi
	movl	$500, %esi              # imm = 0x1F4
	callq	error
.LBB14_38:                              # %if.end195
	movq	input, %rdi
	addq	$824, %rdi              # imm = 0x338
	callq	strlen
	cmpq	$0, %rax
	jbe	.LBB14_41
# %bb.39:                               # %land.lhs.true199
	movq	input, %rdi
	addq	$824, %rdi              # imm = 0x338
	movabsq	$.L.str.186, %rsi
	callq	fopen
	movq	%rax, p_trace
	cmpq	$0, %rax
	jne	.LBB14_41
# %bb.40:                               # %if.then204
	movq	input, %rcx
	addq	$824, %rcx              # imm = 0x338
	movabsq	$errortext, %rdi
	movl	$300, %esi              # imm = 0x12C
	movabsq	$.L.str.185, %rdx
	movb	$0, %al
	callq	snprintf
	movabsq	$errortext, %rdi
	movl	$500, %esi              # imm = 0x1F4
	callq	error
.LBB14_41:                              # %if.end208
	movq	input, %rax
	movl	64(%rax), %eax
	cltd
	movl	$16, %ecx
	idivl	%ecx
	cmpl	$0, %edx
	je	.LBB14_43
# %bb.42:                               # %if.then210
	movq	input, %rax
	movl	64(%rax), %eax
	cltd
	movl	$16, %ecx
	idivl	%ecx
	subl	%edx, %ecx
	movq	img, %rax
	movl	%ecx, 72728(%rax)
	jmp	.LBB14_44
.LBB14_43:                              # %if.else214
	movq	img, %rax
	movl	$0, 72728(%rax)
.LBB14_44:                              # %if.end216
	movq	input, %rax
	cmpl	$0, 2880(%rax)
	jne	.LBB14_46
# %bb.45:                               # %lor.lhs.false219
	movq	input, %rax
	cmpl	$0, 2884(%rax)
	je	.LBB14_52
.LBB14_46:                              # %if.then222
	movq	input, %rax
	movl	68(%rax), %eax
	cltd
	movl	$2, %ecx
	idivl	%ecx
	cmpl	$0, %edx
	je	.LBB14_48
# %bb.47:                               # %if.then225
	movabsq	$.L.str.187, %rdi
	movl	$500, %esi              # imm = 0x1F4
	callq	error
.LBB14_48:                              # %if.end226
	movq	input, %rax
	movl	68(%rax), %eax
	cltd
	movl	$32, %ecx
	idivl	%ecx
	cmpl	$0, %edx
	je	.LBB14_50
# %bb.49:                               # %if.then230
	movq	input, %rax
	movl	68(%rax), %eax
	cltd
	movl	$32, %ecx
	idivl	%ecx
	subl	%edx, %ecx
	movq	img, %rax
	movl	%ecx, 72732(%rax)
	jmp	.LBB14_51
.LBB14_50:                              # %if.else234
	movq	img, %rax
	movl	$0, 72732(%rax)
.LBB14_51:                              # %if.end236
	jmp	.LBB14_56
.LBB14_52:                              # %if.else237
	movq	input, %rax
	movl	68(%rax), %eax
	cltd
	movl	$16, %ecx
	idivl	%ecx
	cmpl	$0, %edx
	je	.LBB14_54
# %bb.53:                               # %if.then241
	movq	input, %rax
	movl	68(%rax), %eax
	cltd
	movl	$16, %ecx
	idivl	%ecx
	subl	%edx, %ecx
	movq	img, %rax
	movl	%ecx, 72732(%rax)
	jmp	.LBB14_55
.LBB14_54:                              # %if.else246
	movq	img, %rax
	movl	$0, 72732(%rax)
.LBB14_55:                              # %if.end248
	jmp	.LBB14_56
.LBB14_56:                              # %if.end249
	movq	img, %rax
	cmpl	$0, 72732(%rax)
	jne	.LBB14_58
# %bb.57:                               # %lor.lhs.false252
	movq	img, %rax
	cmpl	$0, 72728(%rax)
	je	.LBB14_59
.LBB14_58:                              # %if.then255
	movq	input, %rax
	movl	64(%rax), %esi
	movq	img, %rax
	addl	72728(%rax), %esi
	movq	input, %rax
	movl	68(%rax), %edx
	movq	img, %rax
	addl	72732(%rax), %edx
	movabsq	$.L.str.188, %rdi
	movb	$0, %al
	callq	printf
.LBB14_59:                              # %if.end263
	movq	input, %rax
	cmpl	$0, 3152(%rax)
	je	.LBB14_100
# %bb.60:                               # %land.lhs.true265
	movq	input, %rax
	cmpl	$0, 3156(%rax)
	je	.LBB14_63
# %bb.61:                               # %lor.lhs.false267
	movq	input, %rax
	cmpl	$2, 3156(%rax)
	je	.LBB14_63
# %bb.62:                               # %lor.lhs.false270
	movq	input, %rax
	cmpl	$6, 3156(%rax)
	jne	.LBB14_100
.LBB14_63:                              # %if.then273
	movq	input, %rdi
	addq	$2952, %rdi             # imm = 0xB88
	callq	strlen
	cmpq	$0, %rax
	jbe	.LBB14_66
# %bb.64:                               # %land.lhs.true277
	movq	input, %rdi
	addq	$2952, %rdi             # imm = 0xB88
	movabsq	$.L.str.12, %rsi
	callq	fopen
	movq	%rax, -16(%rbp)
	cmpq	$0, %rax
	jne	.LBB14_66
# %bb.65:                               # %if.then282
	movq	input, %rcx
	addq	$2952, %rcx             # imm = 0xB88
	movabsq	$errortext, %rdi
	movl	$300, %esi              # imm = 0x12C
	movabsq	$.L.str.185, %rdx
	movb	$0, %al
	callq	snprintf
	movabsq	$errortext, %rdi
	movl	$500, %esi              # imm = 0x1F4
	callq	error
	jmp	.LBB14_99
.LBB14_66:                              # %if.else286
	movq	input, %rax
	cmpl	$0, 3156(%rax)
	jne	.LBB14_74
# %bb.67:                               # %if.then289
	movq	input, %rax
	movl	3152(%rax), %eax
	addl	$1, %eax
	movslq	%eax, %rdi
	shlq	$2, %rdi
	callq	malloc
	xorl	%ecx, %ecx
	movq	input, %rdx
	movq	%rax, 3184(%rdx)
	movq	input, %rax
	cmpq	3184(%rax), %rcx
	jne	.LBB14_69
# %bb.68:                               # %if.then297
	movabsq	$.L.str.189, %rdi
	callq	no_mem_exit
.LBB14_69:                              # %if.end298
	movl	$0, -4(%rbp)
.LBB14_70:                              # %for.cond
                                        # =>This Inner Loop Header: Depth=1
	movl	-4(%rbp), %eax
	movq	input, %rcx
	cmpl	3152(%rcx), %eax
	jg	.LBB14_73
# %bb.71:                               # %for.body
                                        #   in Loop: Header=BB14_70 Depth=1
	movq	-16(%rbp), %rdi
	movq	input, %rax
	movq	3184(%rax), %rdx
	movslq	-4(%rbp), %rax
	shlq	$2, %rax
	addq	%rax, %rdx
	movabsq	$.L.str.170, %rsi
	movb	$0, %al
	callq	__isoc99_fscanf
	movq	-16(%rbp), %rdi
	movabsq	$.L.str.190, %rsi
	movb	$0, %al
	callq	__isoc99_fscanf
# %bb.72:                               # %for.inc
                                        #   in Loop: Header=BB14_70 Depth=1
	movl	-4(%rbp), %eax
	addl	$1, %eax
	movl	%eax, -4(%rbp)
	jmp	.LBB14_70
.LBB14_73:                              # %for.end
	jmp	.LBB14_98
.LBB14_74:                              # %if.else305
	movq	input, %rax
	cmpl	$2, 3156(%rax)
	jne	.LBB14_84
# %bb.75:                               # %if.then309
	movq	input, %rax
	movslq	3152(%rax), %rdi
	shlq	$2, %rdi
	callq	malloc
	movq	input, %rcx
	movq	%rax, 3160(%rcx)
	movq	input, %rax
	movslq	3152(%rax), %rdi
	shlq	$2, %rdi
	callq	malloc
	xorl	%ecx, %ecx
	movq	input, %rdx
	movq	%rax, 3168(%rdx)
	movq	input, %rax
	cmpq	3160(%rax), %rcx
	jne	.LBB14_77
# %bb.76:                               # %if.then321
	movabsq	$.L.str.191, %rdi
	callq	no_mem_exit
.LBB14_77:                              # %if.end322
	xorl	%eax, %eax
	movq	input, %rcx
	cmpq	3168(%rcx), %rax
	jne	.LBB14_79
# %bb.78:                               # %if.then326
	movabsq	$.L.str.192, %rdi
	callq	no_mem_exit
.LBB14_79:                              # %if.end327
	movl	$0, -4(%rbp)
.LBB14_80:                              # %for.cond328
                                        # =>This Inner Loop Header: Depth=1
	movl	-4(%rbp), %eax
	movq	input, %rcx
	cmpl	3152(%rcx), %eax
	jge	.LBB14_83
# %bb.81:                               # %for.body332
                                        #   in Loop: Header=BB14_80 Depth=1
	movq	-16(%rbp), %rdi
	movq	input, %rax
	movq	3160(%rax), %rdx
	movslq	-4(%rbp), %rax
	shlq	$2, %rax
	addq	%rax, %rdx
	movabsq	$.L.str.170, %rsi
	movb	$0, %al
	callq	__isoc99_fscanf
	movq	-16(%rbp), %rdi
	movabsq	$.L.str.190, %rsi
	movb	$0, %al
	callq	__isoc99_fscanf
	movq	-16(%rbp), %rdi
	movq	input, %rax
	movq	3168(%rax), %rdx
	movslq	-4(%rbp), %rax
	shlq	$2, %rax
	addq	%rax, %rdx
	movabsq	$.L.str.170, %rsi
	movb	$0, %al
	callq	__isoc99_fscanf
	movq	-16(%rbp), %rdi
	movabsq	$.L.str.190, %rsi
	movb	$0, %al
	callq	__isoc99_fscanf
# %bb.82:                               # %for.inc343
                                        #   in Loop: Header=BB14_80 Depth=1
	movl	-4(%rbp), %eax
	addl	$1, %eax
	movl	%eax, -4(%rbp)
	jmp	.LBB14_80
.LBB14_83:                              # %for.end345
	jmp	.LBB14_97
.LBB14_84:                              # %if.else346
	movq	input, %rax
	cmpl	$6, 3156(%rax)
	jne	.LBB14_96
# %bb.85:                               # %if.then350
	movq	input, %rax
	cmpl	$0, 2880(%rax)
	movb	$1, %al
	jne	.LBB14_87
# %bb.86:                               # %lor.rhs
	movq	input, %rax
	cmpl	$0, 2884(%rax)
	setne	%al
.LBB14_87:                              # %lor.end
	xorb	$-1, %al
	andb	$1, %al
	movzbl	%al, %eax
	movl	%eax, -40(%rbp)
	movq	input, %rax
	movl	64(%rax), %eax
	movq	img, %rcx
	addl	72728(%rcx), %eax
	cltd
	movl	$16, %ecx
	idivl	%ecx
	movl	%eax, -28(%rbp)
	movq	input, %rax
	movl	68(%rax), %eax
	movq	img, %rdx
	addl	72732(%rdx), %eax
	cltd
	idivl	%ecx
	movl	%eax, -36(%rbp)
	movl	-36(%rbp), %eax
	movl	$2, %ecx
	subl	-40(%rbp), %ecx
	cltd
	idivl	%ecx
	movl	%eax, -24(%rbp)
	movslq	-24(%rbp), %rdi
	shlq	$0, %rdi
	movslq	-28(%rbp), %rax
	imulq	%rax, %rdi
	callq	malloc
	xorl	%ecx, %ecx
	movq	input, %rdx
	movq	%rax, 3176(%rdx)
	movq	input, %rax
	cmpq	3176(%rax), %rcx
	jne	.LBB14_89
# %bb.88:                               # %if.then372
	movabsq	$.L.str.193, %rdi
	callq	no_mem_exit
.LBB14_89:                              # %if.end373
	movl	$0, -4(%rbp)
.LBB14_90:                              # %for.cond374
                                        # =>This Inner Loop Header: Depth=1
	movl	-4(%rbp), %eax
	movl	-24(%rbp), %ecx
	imull	-28(%rbp), %ecx
	cmpl	%ecx, %eax
	jge	.LBB14_95
# %bb.91:                               # %for.body378
                                        #   in Loop: Header=BB14_90 Depth=1
	movq	-16(%rbp), %rdi
	movabsq	$.L.str.170, %rsi
	leaq	-44(%rbp), %rdx
	movb	$0, %al
	callq	__isoc99_fscanf
	movl	-44(%rbp), %eax
	movq	input, %rcx
	movq	3176(%rcx), %rcx
	movslq	-4(%rbp), %rdx
	movb	%al, (%rcx,%rdx)
	movq	input, %rax
	movq	3176(%rax), %rax
	movslq	-4(%rbp), %rcx
	movzbl	(%rax,%rcx), %eax
	movq	input, %rcx
	cmpl	3152(%rcx), %eax
	jle	.LBB14_93
# %bb.92:                               # %if.then390
                                        #   in Loop: Header=BB14_90 Depth=1
	movq	input, %rcx
	addq	$2952, %rcx             # imm = 0xB88
	movabsq	$errortext, %rdi
	movl	$300, %esi              # imm = 0x12C
	movabsq	$.L.str.194, %rdx
	movb	$0, %al
	callq	snprintf
	movabsq	$errortext, %rdi
	movl	$500, %esi              # imm = 0x1F4
	callq	error
.LBB14_93:                              # %if.end394
                                        #   in Loop: Header=BB14_90 Depth=1
	movq	-16(%rbp), %rdi
	movabsq	$.L.str.190, %rsi
	movb	$0, %al
	callq	__isoc99_fscanf
# %bb.94:                               # %for.inc396
                                        #   in Loop: Header=BB14_90 Depth=1
	movl	-4(%rbp), %eax
	addl	$1, %eax
	movl	%eax, -4(%rbp)
	jmp	.LBB14_90
.LBB14_95:                              # %for.end398
	jmp	.LBB14_96
.LBB14_96:                              # %if.end399
	jmp	.LBB14_97
.LBB14_97:                              # %if.end400
	jmp	.LBB14_98
.LBB14_98:                              # %if.end401
	movq	-16(%rbp), %rdi
	callq	fclose
.LBB14_99:                              # %if.end403
	jmp	.LBB14_100
.LBB14_100:                             # %if.end404
	movq	input, %rax
	cmpl	$0, 2348(%rax)
	je	.LBB14_105
# %bb.101:                              # %land.lhs.true406
	movq	input, %rax
	cmpl	$0, 1320(%rax)
	je	.LBB14_105
# %bb.102:                              # %land.lhs.true408
	movq	input, %rax
	cmpl	$0, 2880(%rax)
	jne	.LBB14_104
# %bb.103:                              # %lor.lhs.false411
	movq	input, %rax
	cmpl	$0, 2884(%rax)
	je	.LBB14_105
.LBB14_104:                             # %if.then414
	movabsq	$errortext, %rdi
	movl	$300, %esi              # imm = 0x12C
	movabsq	$.L.str.195, %rdx
	movb	$0, %al
	callq	snprintf
	movabsq	$errortext, %rdi
	movl	$400, %esi              # imm = 0x190
	callq	error
.LBB14_105:                             # %if.end416
	movq	input, %rax
	cmpl	$0, 2352(%rax)
	je	.LBB14_110
# %bb.106:                              # %land.lhs.true418
	movq	input, %rax
	cmpl	$0, 1320(%rax)
	je	.LBB14_110
# %bb.107:                              # %land.lhs.true421
	movq	input, %rax
	cmpl	$0, 2880(%rax)
	jne	.LBB14_109
# %bb.108:                              # %lor.lhs.false424
	movq	input, %rax
	cmpl	$0, 2884(%rax)
	je	.LBB14_110
.LBB14_109:                             # %if.then427
	movabsq	$errortext, %rdi
	movl	$300, %esi              # imm = 0x12C
	movabsq	$.L.str.196, %rdx
	movb	$0, %al
	callq	snprintf
	movabsq	$errortext, %rdi
	movl	$400, %esi              # imm = 0x190
	callq	error
.LBB14_110:                             # %if.end429
	movq	input, %rax
	cmpl	$0, 2880(%rax)
	je	.LBB14_114
# %bb.111:                              # %land.lhs.true433
	movq	input, %rax
	cmpl	$2, 2880(%rax)
	je	.LBB14_114
# %bb.112:                              # %land.lhs.true437
	movq	input, %rax
	cmpl	$1, 2880(%rax)
	je	.LBB14_114
# %bb.113:                              # %if.then441
	movq	input, %rax
	movl	2880(%rax), %ecx
	movabsq	$errortext, %rdi
	movl	$300, %esi              # imm = 0x12C
	movabsq	$.L.str.197, %rdx
	movb	$0, %al
	callq	snprintf
	movabsq	$errortext, %rdi
	movl	$400, %esi              # imm = 0x190
	callq	error
.LBB14_114:                             # %if.end444
	movq	input, %rax
	cmpl	$0, 2884(%rax)
	je	.LBB14_118
# %bb.115:                              # %land.lhs.true448
	movq	input, %rax
	cmpl	$2, 2884(%rax)
	je	.LBB14_118
# %bb.116:                              # %land.lhs.true452
	movq	input, %rax
	cmpl	$1, 2884(%rax)
	je	.LBB14_118
# %bb.117:                              # %if.then456
	movq	input, %rax
	movl	2884(%rax), %ecx
	movabsq	$errortext, %rdi
	movl	$300, %esi              # imm = 0x12C
	movabsq	$.L.str.198, %rdx
	movb	$0, %al
	callq	snprintf
	movabsq	$errortext, %rdi
	movl	$400, %esi              # imm = 0x190
	callq	error
.LBB14_118:                             # %if.end459
	movq	input, %rax
	cmpl	$0, 2464(%rax)
	jne	.LBB14_121
# %bb.119:                              # %land.lhs.true461
	movq	input, %rax
	cmpl	$0, 2884(%rax)
	je	.LBB14_121
# %bb.120:                              # %if.then464
	movabsq	$errortext, %rdi
	movl	$300, %esi              # imm = 0x12C
	movabsq	$.L.str.199, %rdx
	movb	$0, %al
	callq	snprintf
	movabsq	$errortext, %rdi
	movl	$500, %esi              # imm = 0x1F4
	callq	error
.LBB14_121:                             # %if.end466
	movq	input, %rax
	cmpl	$1, 2464(%rax)
	jle	.LBB14_123
# %bb.122:                              # %if.then470
	movabsq	$errortext, %rdi
	movl	$300, %esi              # imm = 0x12C
	movabsq	$.L.str.200, %rdx
	movb	$0, %al
	callq	snprintf
	movabsq	$errortext, %rdi
	movl	$500, %esi              # imm = 0x1F4
	callq	error
.LBB14_123:                             # %if.end472
	movq	input, %rax
	movl	2912(%rax), %eax
	movq	input, %rcx
	cmpl	36(%rcx), %eax
	jge	.LBB14_125
# %bb.124:                              # %lor.lhs.false475
	movq	input, %rax
	cmpl	$0, 2912(%rax)
	jge	.LBB14_126
.LBB14_125:                             # %if.then479
	movq	input, %rax
	movl	2912(%rax), %ecx
	movq	input, %rax
	movl	36(%rax), %r8d
	movabsq	$errortext, %rdi
	movl	$300, %esi              # imm = 0x12C
	movabsq	$.L.str.201, %rdx
	movb	$0, %al
	callq	snprintf
	movabsq	$errortext, %rdi
	movl	$500, %esi              # imm = 0x1F4
	callq	error
.LBB14_126:                             # %if.end483
	movq	input, %rax
	cmpl	$0, 2912(%rax)
	jle	.LBB14_129
# %bb.127:                              # %land.lhs.true487
	movq	input, %rax
	cmpl	$0, 2360(%rax)
	jne	.LBB14_129
# %bb.128:                              # %if.then490
	movabsq	$errortext, %rdi
	movl	$300, %esi              # imm = 0x12C
	movabsq	$.L.str.202, %rdx
	movb	$0, %al
	callq	snprintf
	movabsq	$errortext, %rdi
	movl	$500, %esi              # imm = 0x1F4
	callq	error
.LBB14_129:                             # %if.end492
	movq	input, %rax
	cmpl	$0, 2880(%rax)
	jne	.LBB14_131
# %bb.130:                              # %lor.lhs.false495
	movq	input, %rax
	cmpl	$0, 2884(%rax)
	je	.LBB14_133
.LBB14_131:                             # %land.lhs.true498
	movq	input, %rax
	cmpl	$1, 2940(%rax)
	jne	.LBB14_133
# %bb.132:                              # %if.then501
	movabsq	$errortext, %rdi
	movl	$300, %esi              # imm = 0x12C
	movabsq	$.L.str.203, %rdx
	movb	$0, %al
	callq	snprintf
	movabsq	$errortext, %rdi
	movl	$500, %esi              # imm = 0x1F4
	callq	error
.LBB14_133:                             # %if.end503
	movq	input, %rax
	cmpl	$1, 2360(%rax)
	je	.LBB14_136
# %bb.134:                              # %land.lhs.true507
	movq	input, %rax
	cmpl	$1, 2940(%rax)
	jne	.LBB14_136
# %bb.135:                              # %if.then511
	movabsq	$errortext, %rdi
	movl	$300, %esi              # imm = 0x12C
	movabsq	$.L.str.204, %rdx
	movb	$0, %al
	callq	snprintf
	movabsq	$errortext, %rdi
	movl	$500, %esi              # imm = 0x1F4
	callq	error
.LBB14_136:                             # %if.end513
	movq	input, %rax
	cmpl	$0, 1284(%rax)
	jg	.LBB14_138
# %bb.137:                              # %lor.lhs.false516
	movq	input, %rax
	cmpl	$0, 1288(%rax)
	jle	.LBB14_140
.LBB14_138:                             # %land.lhs.true519
	movq	input, %rax
	cmpl	$0, 2884(%rax)
	je	.LBB14_140
# %bb.139:                              # %if.then522
	movabsq	$.L.str.205, %rdi
	movb	$0, %al
	callq	printf
	movabsq	$errortext, %rdi
	movl	$500, %esi              # imm = 0x1F4
	callq	error
.LBB14_140:                             # %if.end524
	movq	input, %rax
	cmpl	$0, 2912(%rax)
	jle	.LBB14_143
# %bb.141:                              # %land.lhs.true528
	movq	input, %rax
	cmpl	$0, 1284(%rax)
	jle	.LBB14_143
# %bb.142:                              # %if.then532
	movabsq	$errortext, %rdi
	movl	$300, %esi              # imm = 0x12C
	movabsq	$.L.str.206, %rdx
	movb	$0, %al
	callq	snprintf
	movabsq	$errortext, %rdi
	movl	$500, %esi              # imm = 0x1F4
	callq	error
.LBB14_143:                             # %if.end534
	movq	input, %rax
	cmpl	$0, 3152(%rax)
	jle	.LBB14_148
# %bb.144:                              # %if.then538
	movq	input, %rax
	cmpl	$3, 3156(%rax)
	jl	.LBB14_147
# %bb.145:                              # %land.lhs.true542
	movq	input, %rax
	cmpl	$5, 3156(%rax)
	jg	.LBB14_147
# %bb.146:                              # %if.then546
	movq	input, %rax
	movl	$1, 3152(%rax)
.LBB14_147:                             # %if.end548
	jmp	.LBB14_148
.LBB14_148:                             # %if.end549
	movq	input, %rax
	cmpl	$0, 3236(%rax)
	je	.LBB14_152
# %bb.149:                              # %if.then551
	movq	input, %rax
	movl	68(%rax), %eax
	movq	img, %rcx
	addl	72732(%rcx), %eax
	movq	input, %rcx
	movl	64(%rcx), %ecx
	movq	img, %rdx
	addl	72728(%rdx), %ecx
	imull	%ecx, %eax
	cltd
	movl	$256, %ecx              # imm = 0x100
	idivl	%ecx
	movq	input, %rcx
	cltd
	idivl	3248(%rcx)
	cmpl	$0, %edx
	je	.LBB14_151
# %bb.150:                              # %if.then563
	movabsq	$errortext, %rdi
	movl	$300, %esi              # imm = 0x12C
	movabsq	$.L.str.207, %rdx
	movb	$0, %al
	callq	snprintf
	movabsq	$errortext, %rdi
	movl	$500, %esi              # imm = 0x1F4
	callq	error
.LBB14_151:                             # %if.end565
	jmp	.LBB14_152
.LBB14_152:                             # %if.end566
	movq	input, %rax
	cmpl	$0, 1236(%rax)
	je	.LBB14_158
# %bb.153:                              # %land.lhs.true569
	movq	input, %rax
	cmpl	$0, 1316(%rax)
	je	.LBB14_158
# %bb.154:                              # %land.lhs.true572
	movq	input, %rax
	cmpl	$0, 1228(%rax)
	je	.LBB14_158
# %bb.155:                              # %land.lhs.true574
	movq	input, %rax
	cmpl	$0, 1224(%rax)
	je	.LBB14_158
# %bb.156:                              # %land.lhs.true576
	movq	input, %rax
	cmpl	$0, 3208(%rax)
	je	.LBB14_158
# %bb.157:                              # %if.then579
	movabsq	$.L.str.208, %rdi
	movl	$4294966296, %esi       # imm = 0xFFFFFC18
	callq	error
.LBB14_158:                             # %if.end580
	movq	input, %rax
	cmpl	$0, 1248(%rax)
	jne	.LBB14_162
# %bb.159:                              # %land.lhs.true583
	movq	input, %rax
	cmpl	$2, 36(%rax)
	jge	.LBB14_162
# %bb.160:                              # %land.lhs.true587
	movq	input, %rax
	cmpl	$0, 1236(%rax)
	jle	.LBB14_162
# %bb.161:                              # %if.then591
	movabsq	$.L.str.209, %rdi
	movl	$4294966296, %esi       # imm = 0xFFFFFC18
	callq	error
.LBB14_162:                             # %if.end592
	movq	input, %rax
	cmpl	$0, 3220(%rax)
	je	.LBB14_165
# %bb.163:                              # %land.lhs.true594
	movq	input, %rax
	cmpl	$0, 1272(%rax)
	je	.LBB14_165
# %bb.164:                              # %if.then596
	movabsq	$errortext, %rdi
	movl	$300, %esi              # imm = 0x12C
	movabsq	$.L.str.210, %rdx
	movb	$0, %al
	callq	snprintf
	movabsq	$errortext, %rdi
	movl	$500, %esi              # imm = 0x1F4
	callq	error
.LBB14_165:                             # %if.end598
	movq	input, %rax
	cmpl	$0, 3220(%rax)
	je	.LBB14_169
# %bb.166:                              # %land.lhs.true601
	movq	input, %rax
	cmpl	$100, (%rax)
	jl	.LBB14_168
# %bb.167:                              # %lor.lhs.false604
	movq	input, %rax
	cmpl	$144, (%rax)
	jle	.LBB14_169
.LBB14_168:                             # %if.then608
	movabsq	$errortext, %rdi
	movl	$300, %esi              # imm = 0x12C
	movabsq	$.L.str.211, %rdx
	movl	$100, %ecx
	movl	$144, %r8d
	movb	$0, %al
	callq	snprintf
	movabsq	$errortext, %rdi
	movl	$500, %esi              # imm = 0x1F4
	callq	error
.LBB14_169:                             # %if.end610
	movq	input, %rax
	cmpl	$0, 3256(%rax)
	je	.LBB14_173
# %bb.170:                              # %land.lhs.true612
	movq	input, %rax
	cmpl	$100, (%rax)
	jl	.LBB14_172
# %bb.171:                              # %lor.lhs.false616
	movq	input, %rax
	cmpl	$144, (%rax)
	jle	.LBB14_173
.LBB14_172:                             # %if.then620
	movabsq	$errortext, %rdi
	movl	$300, %esi              # imm = 0x12C
	movabsq	$.L.str.212, %rdx
	movl	$100, %ecx
	movl	$144, %r8d
	movb	$0, %al
	callq	snprintf
	movabsq	$errortext, %rdi
	movl	$500, %esi              # imm = 0x1F4
	callq	error
.LBB14_173:                             # %if.end622
	movq	input, %rax
	cmpl	$2, 72(%rax)
	jne	.LBB14_176
# %bb.174:                              # %land.lhs.true625
	movq	input, %rax
	cmpl	$122, (%rax)
	jge	.LBB14_176
# %bb.175:                              # %if.then629
	movabsq	$errortext, %rdi
	movl	$300, %esi              # imm = 0x12C
	movabsq	$.L.str.213, %rdx
	movl	$122, %ecx
	movl	$144, %r8d
	movb	$0, %al
	callq	snprintf
	movabsq	$errortext, %rdi
	movl	$500, %esi              # imm = 0x1F4
	callq	error
.LBB14_176:                             # %if.end631
	movq	input, %rax
	cmpl	$3, 72(%rax)
	jne	.LBB14_179
# %bb.177:                              # %land.lhs.true635
	movq	input, %rax
	cmpl	$144, (%rax)
	jge	.LBB14_179
# %bb.178:                              # %if.then639
	movabsq	$errortext, %rdi
	movl	$300, %esi              # imm = 0x12C
	movabsq	$.L.str.214, %rdx
	movl	$144, %ecx
	movb	$0, %al
	callq	snprintf
	movabsq	$errortext, %rdi
	movl	$500, %esi              # imm = 0x1F4
	callq	error
.LBB14_179:                             # %if.end641
	movq	input, %rax
	cmpl	$3, 72(%rax)
	je	.LBB14_182
# %bb.180:                              # %land.lhs.true645
	movq	input, %rax
	cmpl	$0, 3328(%rax)
	je	.LBB14_182
# %bb.181:                              # %if.then647
	movabsq	$errortext, %rdi
	movl	$300, %esi              # imm = 0x12C
	movabsq	$.L.str.215, %rdx
	movb	$0, %al
	callq	snprintf
	movabsq	$errortext, %rdi
	movl	$500, %esi              # imm = 0x1F4
	callq	error
.LBB14_182:                             # %if.end649
	callq	ProfileCheck
	callq	LevelCheck
	cmpl	$767835603, -48(%rbp)   # imm = 0x2DC43DD3
	jne	.LBB14_184
.LBB14_183:
	addq	$48, %rsp
	popq	%rbp
	.cfi_def_cfa %rsp, 8
	retq
.LBB14_184:                             # %func_exit
	.cfi_def_cfa %rbp, 16
	callq	detect_breach
	jmp	.LBB14_183
.Lfunc_end14:
	.size	PatchInp.2, .Lfunc_end14-PatchInp.2
	.cfi_endproc
                                        # -- End function
	.p2align	4, 0x90         # -- Begin function ParseContent.3
	.type	ParseContent.3,@function
ParseContent.3:                         # @ParseContent.3
	.cfi_startproc
# %bb.0:                                # %entry
	pushq	%rbp
	.cfi_def_cfa_offset 16
	.cfi_offset %rbp, -16
	movq	%rsp, %rbp
	.cfi_def_cfa_register %rbp
	subq	$80080, %rsp            # imm = 0x138D0
	movl	$675206006, -44(%rbp)   # imm = 0x283ED376
	movq	%rdi, -56(%rbp)
	movl	%esi, -40(%rbp)
	movl	$0, -24(%rbp)
	movl	$0, -28(%rbp)
	movl	$0, -20(%rbp)
	movq	-56(%rbp), %rax
	movq	%rax, -16(%rbp)
	movq	-56(%rbp), %rax
	movslq	-40(%rbp), %rcx
	addq	%rcx, %rax
	movq	%rax, -64(%rbp)
.LBB15_1:                               # %while.cond
                                        # =>This Loop Header: Depth=1
                                        #     Child Loop BB15_6 Depth 2
	movq	-16(%rbp), %rax
	cmpq	-64(%rbp), %rax
	jae	.LBB15_24
# %bb.2:                                # %while.body
                                        #   in Loop: Header=BB15_1 Depth=1
	movq	-16(%rbp), %rax
	movsbl	(%rax), %eax
	addl	$-9, %eax
	movl	%eax, %ecx
	subl	$26, %ecx
	ja	.LBB15_20
# %bb.3:                                # %while.body
                                        #   in Loop: Header=BB15_1 Depth=1
	movq	.LJTI15_0(,%rax,8), %rax
	jmpq	*%rax
.LBB15_4:                               # %sw.bb
                                        #   in Loop: Header=BB15_1 Depth=1
	movq	-16(%rbp), %rax
	addq	$1, %rax
	movq	%rax, -16(%rbp)
	jmp	.LBB15_23
.LBB15_5:                               # %sw.bb1
                                        #   in Loop: Header=BB15_1 Depth=1
	movq	-16(%rbp), %rax
	movb	$0, (%rax)
.LBB15_6:                               # %while.cond2
                                        #   Parent Loop BB15_1 Depth=1
                                        # =>  This Inner Loop Header: Depth=2
	xorl	%eax, %eax
	movq	-16(%rbp), %rcx
	movsbl	(%rcx), %ecx
	cmpl	$10, %ecx
	je	.LBB15_8
# %bb.7:                                # %land.rhs
                                        #   in Loop: Header=BB15_6 Depth=2
	movq	-16(%rbp), %rax
	cmpq	-64(%rbp), %rax
	setb	%al
.LBB15_8:                               # %land.end
                                        #   in Loop: Header=BB15_6 Depth=2
	testb	$1, %al
	jne	.LBB15_9
	jmp	.LBB15_10
.LBB15_9:                               # %while.body8
                                        #   in Loop: Header=BB15_6 Depth=2
	movq	-16(%rbp), %rax
	addq	$1, %rax
	movq	%rax, -16(%rbp)
	jmp	.LBB15_6
.LBB15_10:                              # %while.end
                                        #   in Loop: Header=BB15_1 Depth=1
	movl	$0, -28(%rbp)
	movl	$0, -20(%rbp)
	jmp	.LBB15_23
.LBB15_11:                              # %sw.bb10
                                        #   in Loop: Header=BB15_1 Depth=1
	movl	$0, -20(%rbp)
	movl	$0, -28(%rbp)
	movq	-16(%rbp), %rax
	movq	%rax, %rcx
	addq	$1, %rcx
	movq	%rcx, -16(%rbp)
	movb	$0, (%rax)
	jmp	.LBB15_23
.LBB15_12:                              # %sw.bb12
                                        #   in Loop: Header=BB15_1 Depth=1
	cmpl	$0, -28(%rbp)
	je	.LBB15_14
# %bb.13:                               # %if.then
                                        #   in Loop: Header=BB15_1 Depth=1
	movq	-16(%rbp), %rax
	addq	$1, %rax
	movq	%rax, -16(%rbp)
	jmp	.LBB15_15
.LBB15_14:                              # %if.else
                                        #   in Loop: Header=BB15_1 Depth=1
	movq	-16(%rbp), %rax
	movq	%rax, %rcx
	addq	$1, %rcx
	movq	%rcx, -16(%rbp)
	movb	$0, (%rax)
	movl	$0, -20(%rbp)
.LBB15_15:                              # %if.end
                                        #   in Loop: Header=BB15_1 Depth=1
	jmp	.LBB15_23
.LBB15_16:                              # %sw.bb15
                                        #   in Loop: Header=BB15_1 Depth=1
	movq	-16(%rbp), %rax
	movq	%rax, %rcx
	addq	$1, %rcx
	movq	%rcx, -16(%rbp)
	movb	$0, (%rax)
	cmpl	$0, -28(%rbp)
	jne	.LBB15_18
# %bb.17:                               # %if.then18
                                        #   in Loop: Header=BB15_1 Depth=1
	movq	-16(%rbp), %rax
	movl	-24(%rbp), %ecx
	movl	%ecx, %edx
	addl	$1, %edx
	movl	%edx, -24(%rbp)
	movslq	%ecx, %rcx
	movq	%rax, -80080(%rbp,%rcx,8)
	movl	-20(%rbp), %eax
	xorl	$-1, %eax
	movl	%eax, -20(%rbp)
	jmp	.LBB15_19
.LBB15_18:                              # %if.else21
                                        #   in Loop: Header=BB15_1 Depth=1
	movl	$0, -20(%rbp)
.LBB15_19:                              # %if.end22
                                        #   in Loop: Header=BB15_1 Depth=1
	movl	-28(%rbp), %eax
	xorl	$-1, %eax
	movl	%eax, -28(%rbp)
	jmp	.LBB15_23
.LBB15_20:                              # %sw.default
                                        #   in Loop: Header=BB15_1 Depth=1
	cmpl	$0, -20(%rbp)
	jne	.LBB15_22
# %bb.21:                               # %if.then25
                                        #   in Loop: Header=BB15_1 Depth=1
	movq	-16(%rbp), %rax
	movl	-24(%rbp), %ecx
	movl	%ecx, %edx
	addl	$1, %edx
	movl	%edx, -24(%rbp)
	movslq	%ecx, %rcx
	movq	%rax, -80080(%rbp,%rcx,8)
	movl	-20(%rbp), %eax
	xorl	$-1, %eax
	movl	%eax, -20(%rbp)
.LBB15_22:                              # %if.end30
                                        #   in Loop: Header=BB15_1 Depth=1
	movq	-16(%rbp), %rax
	addq	$1, %rax
	movq	%rax, -16(%rbp)
.LBB15_23:                              # %sw.epilog
                                        #   in Loop: Header=BB15_1 Depth=1
	jmp	.LBB15_1
.LBB15_24:                              # %while.end32
	movl	-24(%rbp), %eax
	addl	$-1, %eax
	movl	%eax, -24(%rbp)
	movl	$0, -4(%rbp)
.LBB15_25:                              # %for.cond
                                        # =>This Inner Loop Header: Depth=1
	movl	-4(%rbp), %eax
	cmpl	-24(%rbp), %eax
	jge	.LBB15_43
# %bb.26:                               # %for.body
                                        #   in Loop: Header=BB15_25 Depth=1
	movslq	-4(%rbp), %rax
	movq	-80080(%rbp,%rax,8), %rdi
	callq	ParameterNameToMapIndex
	xorl	%ecx, %ecx
	movl	%eax, -32(%rbp)
	cmpl	%eax, %ecx
	jle	.LBB15_28
# %bb.27:                               # %if.then39
                                        #   in Loop: Header=BB15_25 Depth=1
	movslq	-4(%rbp), %rax
	movq	-80080(%rbp,%rax,8), %rcx
	movabsq	$errortext, %rdi
	movl	$300, %esi              # imm = 0x12C
	movabsq	$.L.str.167, %rdx
	movb	$0, %al
	callq	snprintf
	movabsq	$errortext, %rdi
	movl	$300, %esi              # imm = 0x12C
	callq	error
.LBB15_28:                              # %if.end43
                                        #   in Loop: Header=BB15_25 Depth=1
	movl	-4(%rbp), %eax
	addl	$1, %eax
	cltq
	movq	-80080(%rbp,%rax,8), %rsi
	movl	$.L.str.168, %edi
	callq	strcmp
	cmpl	$0, %eax
	je	.LBB15_30
# %bb.29:                               # %if.then48
                                        #   in Loop: Header=BB15_25 Depth=1
	movabsq	$errortext, %rdi
	movl	$300, %esi              # imm = 0x12C
	movabsq	$.L.str.169, %rdx
	movb	$0, %al
	callq	snprintf
	movabsq	$errortext, %rdi
	movl	$300, %esi              # imm = 0x12C
	callq	error
.LBB15_30:                              # %if.end50
                                        #   in Loop: Header=BB15_25 Depth=1
	movslq	-32(%rbp), %rax
	imulq	$56, %rax, %rax
	movl	Map+16(%rax), %eax
	testl	%eax, %eax
	je	.LBB15_33
	jmp	.LBB15_31
.LBB15_31:                              # %if.end50
                                        #   in Loop: Header=BB15_25 Depth=1
	movl	%eax, %ecx
	subl	$1, %ecx
	je	.LBB15_36
	jmp	.LBB15_32
.LBB15_32:                              # %if.end50
                                        #   in Loop: Header=BB15_25 Depth=1
	subl	$2, %eax
	je	.LBB15_37
	jmp	.LBB15_40
.LBB15_33:                              # %sw.bb53
                                        #   in Loop: Header=BB15_25 Depth=1
	movl	-4(%rbp), %eax
	addl	$2, %eax
	cltq
	movq	-80080(%rbp,%rax,8), %rdi
	movabsq	$.L.str.170, %rsi
	leaq	-36(%rbp), %rdx
	movb	$0, %al
	callq	__isoc99_sscanf
	movl	$1, %ecx
	cmpl	%eax, %ecx
	je	.LBB15_35
# %bb.34:                               # %if.then60
                                        #   in Loop: Header=BB15_25 Depth=1
	movslq	-4(%rbp), %rax
	movq	-80080(%rbp,%rax,8), %rcx
	movl	-4(%rbp), %eax
	addl	$2, %eax
	cltq
	movq	-80080(%rbp,%rax,8), %r8
	movabsq	$errortext, %rdi
	movl	$300, %esi              # imm = 0x12C
	movabsq	$.L.str.171, %rdx
	movb	$0, %al
	callq	snprintf
	movabsq	$errortext, %rdi
	movl	$300, %esi              # imm = 0x12C
	callq	error
.LBB15_35:                              # %if.end67
                                        #   in Loop: Header=BB15_25 Depth=1
	movl	-36(%rbp), %eax
	movslq	-32(%rbp), %rcx
	imulq	$56, %rcx, %rcx
	movabsq	$Map, %rdx
	addq	%rcx, %rdx
	movq	8(%rdx), %rcx
	movl	%eax, (%rcx)
	movabsq	$.L.str.172, %rdi
	movb	$0, %al
	callq	printf
	jmp	.LBB15_41
.LBB15_36:                              # %sw.bb71
                                        #   in Loop: Header=BB15_25 Depth=1
	movslq	-32(%rbp), %rax
	imulq	$56, %rax, %rax
	movabsq	$Map, %rcx
	addq	%rax, %rcx
	movq	8(%rcx), %rdi
	movl	-4(%rbp), %eax
	addl	$2, %eax
	cltq
	movq	-80080(%rbp,%rax,8), %rsi
	movl	$200, %edx
	callq	strncpy
	movabsq	$.L.str.172, %rdi
	movb	$0, %al
	callq	printf
	jmp	.LBB15_41
.LBB15_37:                              # %sw.bb80
                                        #   in Loop: Header=BB15_25 Depth=1
	movl	-4(%rbp), %eax
	addl	$2, %eax
	cltq
	movq	-80080(%rbp,%rax,8), %rdi
	movabsq	$.L.str.173, %rsi
	leaq	-72(%rbp), %rdx
	movb	$0, %al
	callq	__isoc99_sscanf
	movl	$1, %ecx
	cmpl	%eax, %ecx
	je	.LBB15_39
# %bb.38:                               # %if.then87
                                        #   in Loop: Header=BB15_25 Depth=1
	movslq	-4(%rbp), %rax
	movq	-80080(%rbp,%rax,8), %rcx
	movl	-4(%rbp), %eax
	addl	$2, %eax
	cltq
	movq	-80080(%rbp,%rax,8), %r8
	movabsq	$errortext, %rdi
	movl	$300, %esi              # imm = 0x12C
	movabsq	$.L.str.171, %rdx
	movb	$0, %al
	callq	snprintf
	movabsq	$errortext, %rdi
	movl	$300, %esi              # imm = 0x12C
	callq	error
.LBB15_39:                              # %if.end94
                                        #   in Loop: Header=BB15_25 Depth=1
	vmovsd	-72(%rbp), %xmm0        # xmm0 = mem[0],zero
	movslq	-32(%rbp), %rax
	imulq	$56, %rax, %rax
	movabsq	$Map, %rcx
	addq	%rax, %rcx
	movq	8(%rcx), %rax
	vmovsd	%xmm0, (%rax)
	movabsq	$.L.str.172, %rdi
	movb	$0, %al
	callq	printf
	jmp	.LBB15_41
.LBB15_40:                              # %sw.default99
                                        #   in Loop: Header=BB15_25 Depth=1
	jmp	.LBB15_41
.LBB15_41:                              # %sw.epilog100
                                        #   in Loop: Header=BB15_25 Depth=1
	jmp	.LBB15_42
.LBB15_42:                              # %for.inc
                                        #   in Loop: Header=BB15_25 Depth=1
	movl	-4(%rbp), %eax
	addl	$3, %eax
	movl	%eax, -4(%rbp)
	jmp	.LBB15_25
.LBB15_43:                              # %for.end
	movabsq	$configinput, %rsi
	movq	input, %rdi
	movl	$3592, %edx             # imm = 0xE08
	callq	memcpy
	cmpl	$675206006, -44(%rbp)   # imm = 0x283ED376
	jne	.LBB15_45
.LBB15_44:
	addq	$80080, %rsp            # imm = 0x138D0
	popq	%rbp
	.cfi_def_cfa %rsp, 8
	retq
.LBB15_45:                              # %func_exit
	.cfi_def_cfa %rbp, 16
	callq	detect_breach
	jmp	.LBB15_44
.Lfunc_end15:
	.size	ParseContent.3, .Lfunc_end15-ParseContent.3
	.cfi_endproc
	.section	.rodata,"a",@progbits
	.p2align	3
.LJTI15_0:
	.quad	.LBB15_12
	.quad	.LBB15_11
	.quad	.LBB15_20
	.quad	.LBB15_20
	.quad	.LBB15_4
	.quad	.LBB15_20
	.quad	.LBB15_20
	.quad	.LBB15_20
	.quad	.LBB15_20
	.quad	.LBB15_20
	.quad	.LBB15_20
	.quad	.LBB15_20
	.quad	.LBB15_20
	.quad	.LBB15_20
	.quad	.LBB15_20
	.quad	.LBB15_20
	.quad	.LBB15_20
	.quad	.LBB15_20
	.quad	.LBB15_20
	.quad	.LBB15_20
	.quad	.LBB15_20
	.quad	.LBB15_20
	.quad	.LBB15_20
	.quad	.LBB15_12
	.quad	.LBB15_20
	.quad	.LBB15_16
	.quad	.LBB15_5
                                        # -- End function
	.text
	.globl	Configure.4             # -- Begin function Configure.4
	.p2align	4, 0x90
	.type	Configure.4,@function
Configure.4:                            # @Configure.4
	.cfi_startproc
# %bb.0:                                # %entry
	pushq	%rbp
	.cfi_def_cfa_offset 16
	.cfi_offset %rbp, -16
	movq	%rsp, %rbp
	.cfi_def_cfa_register %rbp
	pushq	%rbx
	subq	$72, %rsp
	.cfi_offset %rbx, -24
	movabsq	$configinput, %rax
	movl	$1184318683, -76(%rbp)  # imm = 0x469744DB
	movl	%edi, -52(%rbp)
	movq	%rsi, -32(%rbp)
	movabsq	$.L.str.1, %rcx
	movq	%rcx, -72(%rbp)
	movq	%rax, %rdi
	xorl	%esi, %esi
	movl	$3592, %edx             # imm = 0xE08
	callq	memset
	movabsq	$.L.str.2, %rdi
	movb	$0, %al
	callq	printf
	callq	InitEncoderParams
	movl	$1, -12(%rbp)
	cmpl	$2, -52(%rbp)
	jne	.LBB16_4
# %bb.1:                                # %if.then
	movq	-32(%rbp), %rax
	movq	8(%rax), %rdi
	movabsq	$.L.str.3, %rsi
	movl	$2, %edx
	callq	strncmp
	xorl	%ecx, %ecx
	cmpl	%eax, %ecx
	jne	.LBB16_3
# %bb.2:                                # %if.then4
	callq	JMHelpExit
.LBB16_3:                               # %if.end
	jmp	.LBB16_4
.LBB16_4:                               # %if.end5
	cmpl	$3, -52(%rbp)
	jl	.LBB16_10
# %bb.5:                                # %if.then7
	movq	-32(%rbp), %rax
	movq	8(%rax), %rdi
	movabsq	$.L.str.4, %rsi
	movl	$2, %edx
	callq	strncmp
	xorl	%ecx, %ecx
	cmpl	%eax, %ecx
	jne	.LBB16_7
# %bb.6:                                # %if.then11
	movq	-32(%rbp), %rax
	movq	16(%rax), %rax
	movq	%rax, -72(%rbp)
	movl	$3, -12(%rbp)
.LBB16_7:                               # %if.end13
	movq	-32(%rbp), %rax
	movq	8(%rax), %rdi
	movabsq	$.L.str.3, %rsi
	movl	$2, %edx
	callq	strncmp
	xorl	%ecx, %ecx
	cmpl	%eax, %ecx
	jne	.LBB16_9
# %bb.8:                                # %if.then17
	callq	JMHelpExit
.LBB16_9:                               # %if.end18
	jmp	.LBB16_10
.LBB16_10:                              # %if.end19
	movq	-72(%rbp), %rsi
	movabsq	$.L.str.5, %rdi
	movb	$0, %al
	callq	printf
	movq	-72(%rbp), %rdi
	callq	GetConfigFileContent
	xorl	%ecx, %ecx
	movq	%rax, -24(%rbp)
	cmpq	-24(%rbp), %rcx
	jne	.LBB16_12
# %bb.11:                               # %if.then23
	movabsq	$errortext, %rdi
	movl	$300, %esi              # imm = 0x12C
	callq	error
.LBB16_12:                              # %if.end24
	movq	-24(%rbp), %rbx
	movq	-24(%rbp), %rdi
	callq	strlen
	movq	%rbx, %rdi
	movl	%eax, %esi
	callq	ParseContent
	movabsq	$.L.str.6, %rdi
	movb	$0, %al
	callq	printf
	movq	-24(%rbp), %rdi
	callq	free
.LBB16_13:                              # %while.cond
                                        # =>This Loop Header: Depth=1
                                        #     Child Loop BB16_22 Depth 2
                                        #     Child Loop BB16_29 Depth 2
                                        #       Child Loop BB16_31 Depth 3
	movl	-12(%rbp), %eax
	cmpl	-52(%rbp), %eax
	jge	.LBB16_41
# %bb.14:                               # %while.body
                                        #   in Loop: Header=BB16_13 Depth=1
	movq	-32(%rbp), %rax
	movslq	-12(%rbp), %rcx
	movq	(%rax,%rcx,8), %rdi
	movabsq	$.L.str.3, %rsi
	movl	$2, %edx
	callq	strncmp
	xorl	%ecx, %ecx
	cmpl	%eax, %ecx
	jne	.LBB16_16
# %bb.15:                               # %if.then33
                                        #   in Loop: Header=BB16_13 Depth=1
	callq	JMHelpExit
.LBB16_16:                              # %if.end34
                                        #   in Loop: Header=BB16_13 Depth=1
	movq	-32(%rbp), %rax
	movslq	-12(%rbp), %rcx
	movq	(%rax,%rcx,8), %rdi
	movabsq	$.L.str.7, %rsi
	movl	$2, %edx
	callq	strncmp
	xorl	%ecx, %ecx
	cmpl	%eax, %ecx
	jne	.LBB16_20
# %bb.17:                               # %if.then40
                                        #   in Loop: Header=BB16_13 Depth=1
	movq	-32(%rbp), %rax
	movl	-12(%rbp), %ecx
	addl	$1, %ecx
	movslq	%ecx, %rcx
	movq	(%rax,%rcx,8), %rdi
	callq	GetConfigFileContent
	xorl	%ecx, %ecx
	movq	%rax, -24(%rbp)
	cmpq	-24(%rbp), %rcx
	jne	.LBB16_19
# %bb.18:                               # %if.then46
                                        #   in Loop: Header=BB16_13 Depth=1
	movabsq	$errortext, %rdi
	movl	$300, %esi              # imm = 0x12C
	callq	error
.LBB16_19:                              # %if.end47
                                        #   in Loop: Header=BB16_13 Depth=1
	movq	-32(%rbp), %rax
	movl	-12(%rbp), %ecx
	addl	$1, %ecx
	movslq	%ecx, %rcx
	movq	(%rax,%rcx,8), %rsi
	movabsq	$.L.str.5, %rdi
	movb	$0, %al
	callq	printf
	movq	-24(%rbp), %rbx
	movq	-24(%rbp), %rdi
	callq	strlen
	movq	%rbx, %rdi
	movl	%eax, %esi
	callq	ParseContent
	movabsq	$.L.str.6, %rdi
	movb	$0, %al
	callq	printf
	movq	-24(%rbp), %rdi
	callq	free
	movl	-12(%rbp), %eax
	addl	$2, %eax
	movl	%eax, -12(%rbp)
	jmp	.LBB16_40
.LBB16_20:                              # %if.else
                                        #   in Loop: Header=BB16_13 Depth=1
	movq	-32(%rbp), %rax
	movslq	-12(%rbp), %rcx
	movq	(%rax,%rcx,8), %rdi
	movabsq	$.L.str.8, %rsi
	movl	$2, %edx
	callq	strncmp
	xorl	%ecx, %ecx
	cmpl	%eax, %ecx
	jne	.LBB16_38
# %bb.21:                               # %if.then61
                                        #   in Loop: Header=BB16_13 Depth=1
	movl	-12(%rbp), %eax
	addl	$1, %eax
	movl	%eax, -12(%rbp)
	movl	$0, -36(%rbp)
	movl	-12(%rbp), %eax
	movl	%eax, -40(%rbp)
.LBB16_22:                              # %while.cond62
                                        #   Parent Loop BB16_13 Depth=1
                                        # =>  This Inner Loop Header: Depth=2
	xorl	%eax, %eax
	movl	-40(%rbp), %ecx
	cmpl	-52(%rbp), %ecx
	jge	.LBB16_24
# %bb.23:                               # %land.rhs
                                        #   in Loop: Header=BB16_22 Depth=2
	movq	-32(%rbp), %rax
	movslq	-40(%rbp), %rcx
	movq	(%rax,%rcx,8), %rax
	movsbl	(%rax), %eax
	cmpl	$45, %eax
	setne	%al
.LBB16_24:                              # %land.end
                                        #   in Loop: Header=BB16_22 Depth=2
	testb	$1, %al
	jne	.LBB16_25
	jmp	.LBB16_26
.LBB16_25:                              # %while.body71
                                        #   in Loop: Header=BB16_22 Depth=2
	movq	-32(%rbp), %rax
	movl	-40(%rbp), %ecx
	movl	%ecx, %edx
	addl	$1, %edx
	movl	%edx, -40(%rbp)
	movslq	%ecx, %rcx
	movq	(%rax,%rcx,8), %rdi
	callq	strlen
	movslq	-36(%rbp), %rcx
	addq	%rax, %rcx
	movl	%ecx, -36(%rbp)
	jmp	.LBB16_22
.LBB16_26:                              # %while.end
                                        #   in Loop: Header=BB16_13 Depth=1
	movl	-36(%rbp), %eax
	addl	$1000, %eax             # imm = 0x3E8
	movl	%eax, -36(%rbp)
	movslq	-36(%rbp), %rdi
	callq	malloc
	movq	%rax, -24(%rbp)
	cmpq	$0, %rax
	jne	.LBB16_28
# %bb.27:                               # %if.then84
                                        #   in Loop: Header=BB16_13 Depth=1
	movabsq	$.L.str.9, %rdi
	callq	no_mem_exit
.LBB16_28:                              # %if.end85
                                        #   in Loop: Header=BB16_13 Depth=1
	movq	-24(%rbp), %rax
	movb	$0, (%rax)
.LBB16_29:                              # %while.cond87
                                        #   Parent Loop BB16_13 Depth=1
                                        # =>  This Loop Header: Depth=2
                                        #       Child Loop BB16_31 Depth 3
	movl	-12(%rbp), %eax
	cmpl	-40(%rbp), %eax
	jge	.LBB16_37
# %bb.30:                               # %while.body90
                                        #   in Loop: Header=BB16_29 Depth=2
	movq	-32(%rbp), %rax
	movslq	-12(%rbp), %rcx
	movq	(%rax,%rcx,8), %rax
	movq	%rax, -64(%rbp)
	movq	-24(%rbp), %rbx
	movq	-24(%rbp), %rdi
	callq	strlen
	addq	%rax, %rbx
	movq	%rbx, -48(%rbp)
.LBB16_31:                              # %while.cond96
                                        #   Parent Loop BB16_13 Depth=1
                                        #     Parent Loop BB16_29 Depth=2
                                        # =>    This Inner Loop Header: Depth=3
	movq	-64(%rbp), %rax
	movsbl	(%rax), %eax
	cmpl	$0, %eax
	je	.LBB16_36
# %bb.32:                               # %while.body100
                                        #   in Loop: Header=BB16_31 Depth=3
	movq	-64(%rbp), %rax
	movsbl	(%rax), %eax
	cmpl	$61, %eax
	jne	.LBB16_34
# %bb.33:                               # %if.then104
                                        #   in Loop: Header=BB16_31 Depth=3
	movq	-48(%rbp), %rax
	movq	%rax, %rcx
	addq	$1, %rcx
	movq	%rcx, -48(%rbp)
	movb	$32, (%rax)
	movq	-48(%rbp), %rax
	movq	%rax, %rcx
	addq	$1, %rcx
	movq	%rcx, -48(%rbp)
	movb	$61, (%rax)
	movq	-48(%rbp), %rax
	movq	%rax, %rcx
	addq	$1, %rcx
	movq	%rcx, -48(%rbp)
	movb	$32, (%rax)
	jmp	.LBB16_35
.LBB16_34:                              # %if.else107
                                        #   in Loop: Header=BB16_31 Depth=3
	movq	-64(%rbp), %rax
	movb	(%rax), %al
	movq	-48(%rbp), %rcx
	movq	%rcx, %rdx
	addq	$1, %rdx
	movq	%rdx, -48(%rbp)
	movb	%al, (%rcx)
.LBB16_35:                              # %if.end109
                                        #   in Loop: Header=BB16_31 Depth=3
	movq	-64(%rbp), %rax
	addq	$1, %rax
	movq	%rax, -64(%rbp)
	jmp	.LBB16_31
.LBB16_36:                              # %while.end111
                                        #   in Loop: Header=BB16_29 Depth=2
	movq	-48(%rbp), %rax
	movb	$0, (%rax)
	movl	-12(%rbp), %eax
	addl	$1, %eax
	movl	%eax, -12(%rbp)
	jmp	.LBB16_29
.LBB16_37:                              # %while.end113
                                        #   in Loop: Header=BB16_13 Depth=1
	movq	-24(%rbp), %rsi
	movabsq	$.L.str.10, %rdi
	movb	$0, %al
	callq	printf
	movq	-24(%rbp), %rbx
	movq	-24(%rbp), %rdi
	callq	strlen
	movq	%rbx, %rdi
	movl	%eax, %esi
	callq	ParseContent
	movq	-24(%rbp), %rdi
	callq	free
	movabsq	$.L.str.6, %rdi
	movb	$0, %al
	callq	printf
	jmp	.LBB16_39
.LBB16_38:                              # %if.else118
                                        #   in Loop: Header=BB16_13 Depth=1
	movl	-12(%rbp), %ecx
	movq	-32(%rbp), %rax
	movslq	-12(%rbp), %rdx
	movq	(%rax,%rdx,8), %r8
	movabsq	$errortext, %rdi
	movl	$300, %esi              # imm = 0x12C
	movabsq	$.L.str.11, %rdx
	movb	$0, %al
	callq	snprintf
	movabsq	$errortext, %rdi
	movl	$300, %esi              # imm = 0x12C
	callq	error
.LBB16_39:                              # %if.end122
                                        #   in Loop: Header=BB16_13 Depth=1
	jmp	.LBB16_40
.LBB16_40:                              # %if.end123
                                        #   in Loop: Header=BB16_13 Depth=1
	jmp	.LBB16_13
.LBB16_41:                              # %while.end124
	movabsq	$.L.str.6, %rdi
	movb	$0, %al
	callq	printf
	callq	PatchInp
	movq	input, %rax
	cmpl	$0, 3232(%rax)
	je	.LBB16_43
# %bb.42:                               # %if.then126
	callq	DisplayEncoderParams
.LBB16_43:                              # %if.end128
	cmpl	$1184318683, -76(%rbp)  # imm = 0x469744DB
	jne	.LBB16_45
.LBB16_44:
	addq	$72, %rsp
	popq	%rbx
	popq	%rbp
	.cfi_def_cfa %rsp, 8
	retq
.LBB16_45:                              # %func_exit
	.cfi_def_cfa %rbp, 16
	callq	detect_breach
	jmp	.LBB16_44
.Lfunc_end16:
	.size	Configure.4, .Lfunc_end16-Configure.4
	.cfi_endproc
                                        # -- End function
	.globl	GetConfigFileContent.5  # -- Begin function GetConfigFileContent.5
	.p2align	4, 0x90
	.type	GetConfigFileContent.5,@function
GetConfigFileContent.5:                 # @GetConfigFileContent.5
	.cfi_startproc
# %bb.0:                                # %entry
	pushq	%rbp
	.cfi_def_cfa_offset 16
	.cfi_offset %rbp, -16
	movq	%rsp, %rbp
	.cfi_def_cfa_register %rbp
	pushq	%rbx
	subq	$56, %rsp
	.cfi_offset %rbx, -24
	movl	$272814793, -52(%rbp)   # imm = 0x1042D2C9
	movq	%rdi, -40(%rbp)
	movq	-40(%rbp), %rdi
	movabsq	$.L.str.12, %rsi
	callq	fopen
	xorl	%ecx, %ecx
	movq	%rax, -32(%rbp)
	cmpq	%rax, %rcx
	jne	.LBB17_2
# %bb.1:                                # %if.then
	movq	-40(%rbp), %rcx
	movabsq	$errortext, %rdi
	movl	$300, %esi              # imm = 0x12C
	movabsq	$.L.str.13, %rdx
	movb	$0, %al
	callq	snprintf
	movq	$0, -24(%rbp)
	jmp	.LBB17_12
.LBB17_2:                               # %if.end
	movq	-32(%rbp), %rdi
	xorl	%esi, %esi
	movl	$2, %edx
	callq	fseek
	xorl	%ecx, %ecx
	cmpl	%eax, %ecx
	je	.LBB17_4
# %bb.3:                                # %if.then4
	movq	-40(%rbp), %rcx
	movabsq	$errortext, %rdi
	movl	$300, %esi              # imm = 0x12C
	movabsq	$.L.str.14, %rdx
	movb	$0, %al
	callq	snprintf
	movq	$0, -24(%rbp)
	jmp	.LBB17_12
.LBB17_4:                               # %if.end6
	movq	-32(%rbp), %rdi
	callq	ftell
	movq	%rax, -16(%rbp)
	cmpq	$0, -16(%rbp)
	jl	.LBB17_6
# %bb.5:                                # %lor.lhs.false
	cmpq	$60000, -16(%rbp)       # imm = 0xEA60
	jle	.LBB17_7
.LBB17_6:                               # %if.then10
	movq	-16(%rbp), %rcx
	movq	-40(%rbp), %r8
	movabsq	$errortext, %rdi
	movl	$300, %esi              # imm = 0x12C
	movabsq	$.L.str.15, %rdx
	movb	$0, %al
	callq	snprintf
	movq	$0, -24(%rbp)
	jmp	.LBB17_12
.LBB17_7:                               # %if.end12
	movq	-32(%rbp), %rdi
	xorl	%esi, %esi
	xorl	%edx, %edx
	callq	fseek
	xorl	%ecx, %ecx
	cmpl	%eax, %ecx
	je	.LBB17_9
# %bb.8:                                # %if.then15
	movq	-40(%rbp), %rcx
	movabsq	$errortext, %rdi
	movl	$300, %esi              # imm = 0x12C
	movabsq	$.L.str.14, %rdx
	movb	$0, %al
	callq	snprintf
	movq	$0, -24(%rbp)
	jmp	.LBB17_12
.LBB17_9:                               # %if.end17
	movq	-16(%rbp), %rdi
	addq	$1, %rdi
	callq	malloc
	movq	%rax, -48(%rbp)
	cmpq	$0, %rax
	jne	.LBB17_11
# %bb.10:                               # %if.then20
	movabsq	$.L.str.16, %rdi
	callq	no_mem_exit
.LBB17_11:                              # %if.end21
	movq	-48(%rbp), %rdi
	movq	-16(%rbp), %rdx
	movq	-32(%rbp), %rcx
	movl	$1, %esi
	callq	fread
	movq	%rax, -16(%rbp)
	movq	-48(%rbp), %rax
	movq	-16(%rbp), %rcx
	movb	$0, (%rax,%rcx)
	movq	-32(%rbp), %rdi
	callq	fclose
	movq	-48(%rbp), %rax
	movq	%rax, -24(%rbp)
.LBB17_12:                              # %return
	movq	-24(%rbp), %rbx
	cmpl	$272814793, -52(%rbp)   # imm = 0x1042D2C9
	jne	.LBB17_14
.LBB17_13:
	movq	%rbx, %rax
	addq	$56, %rsp
	popq	%rbx
	popq	%rbp
	.cfi_def_cfa %rsp, 8
	retq
.LBB17_14:                              # %func_exit
	.cfi_def_cfa %rbp, 16
	callq	detect_breach
	jmp	.LBB17_13
.Lfunc_end17:
	.size	GetConfigFileContent.5, .Lfunc_end17-GetConfigFileContent.5
	.cfi_endproc
                                        # -- End function
	.globl	CeilLog2.6              # -- Begin function CeilLog2.6
	.p2align	4, 0x90
	.type	CeilLog2.6,@function
CeilLog2.6:                             # @CeilLog2.6
	.cfi_startproc
# %bb.0:                                # %entry
	pushq	%rbp
	.cfi_def_cfa_offset 16
	.cfi_offset %rbp, -16
	movq	%rsp, %rbp
	.cfi_def_cfa_register %rbp
	pushq	%rbx
	subq	$24, %rsp
	.cfi_offset %rbx, -24
	movl	$189140277, -20(%rbp)   # imm = 0xB460D35
	movl	%edi, -24(%rbp)
	movl	-24(%rbp), %eax
	subl	$1, %eax
	movl	%eax, -12(%rbp)
	movl	$0, -16(%rbp)
.LBB18_1:                               # %while.cond
                                        # =>This Inner Loop Header: Depth=1
	cmpl	$0, -12(%rbp)
	je	.LBB18_3
# %bb.2:                                # %while.body
                                        #   in Loop: Header=BB18_1 Depth=1
	movl	-12(%rbp), %eax
	shrl	$1, %eax
	movl	%eax, -12(%rbp)
	movl	-16(%rbp), %eax
	addl	$1, %eax
	movl	%eax, -16(%rbp)
	jmp	.LBB18_1
.LBB18_3:                               # %while.end
	movl	-16(%rbp), %ebx
	cmpl	$189140277, -20(%rbp)   # imm = 0xB460D35
	jne	.LBB18_5
.LBB18_4:
	movl	%ebx, %eax
	addq	$24, %rsp
	popq	%rbx
	popq	%rbp
	.cfi_def_cfa %rsp, 8
	retq
.LBB18_5:                               # %func_exit
	.cfi_def_cfa %rbp, 16
	callq	detect_breach
	jmp	.LBB18_4
.Lfunc_end18:
	.size	CeilLog2.6, .Lfunc_end18-CeilLog2.6
	.cfi_endproc
                                        # -- End function
	.globl	Configure.7             # -- Begin function Configure.7
	.p2align	4, 0x90
	.type	Configure.7,@function
Configure.7:                            # @Configure.7
	.cfi_startproc
# %bb.0:                                # %entry
	pushq	%rbp
	.cfi_def_cfa_offset 16
	.cfi_offset %rbp, -16
	movq	%rsp, %rbp
	.cfi_def_cfa_register %rbp
	pushq	%rbx
	subq	$72, %rsp
	.cfi_offset %rbx, -24
	movabsq	$configinput, %rax
	movl	$319316622, -76(%rbp)   # imm = 0x1308628E
	movl	%edi, -52(%rbp)
	movq	%rsi, -32(%rbp)
	movabsq	$.L.str.1, %rcx
	movq	%rcx, -72(%rbp)
	movq	%rax, %rdi
	xorl	%esi, %esi
	movl	$3592, %edx             # imm = 0xE08
	callq	memset
	movabsq	$.L.str.2, %rdi
	movb	$0, %al
	callq	printf
	callq	InitEncoderParams
	movl	$1, -12(%rbp)
	cmpl	$2, -52(%rbp)
	jne	.LBB19_4
# %bb.1:                                # %if.then
	movq	-32(%rbp), %rax
	movq	8(%rax), %rdi
	movabsq	$.L.str.3, %rsi
	movl	$2, %edx
	callq	strncmp
	xorl	%ecx, %ecx
	cmpl	%eax, %ecx
	jne	.LBB19_3
# %bb.2:                                # %if.then4
	callq	JMHelpExit
.LBB19_3:                               # %if.end
	jmp	.LBB19_4
.LBB19_4:                               # %if.end5
	cmpl	$3, -52(%rbp)
	jl	.LBB19_10
# %bb.5:                                # %if.then7
	movq	-32(%rbp), %rax
	movq	8(%rax), %rdi
	movabsq	$.L.str.4, %rsi
	movl	$2, %edx
	callq	strncmp
	xorl	%ecx, %ecx
	cmpl	%eax, %ecx
	jne	.LBB19_7
# %bb.6:                                # %if.then11
	movq	-32(%rbp), %rax
	movq	16(%rax), %rax
	movq	%rax, -72(%rbp)
	movl	$3, -12(%rbp)
.LBB19_7:                               # %if.end13
	movq	-32(%rbp), %rax
	movq	8(%rax), %rdi
	movabsq	$.L.str.3, %rsi
	movl	$2, %edx
	callq	strncmp
	xorl	%ecx, %ecx
	cmpl	%eax, %ecx
	jne	.LBB19_9
# %bb.8:                                # %if.then17
	callq	JMHelpExit
.LBB19_9:                               # %if.end18
	jmp	.LBB19_10
.LBB19_10:                              # %if.end19
	movq	-72(%rbp), %rsi
	movabsq	$.L.str.5, %rdi
	movb	$0, %al
	callq	printf
	movq	-72(%rbp), %rdi
	callq	GetConfigFileContent
	xorl	%ecx, %ecx
	movq	%rax, -24(%rbp)
	cmpq	-24(%rbp), %rcx
	jne	.LBB19_12
# %bb.11:                               # %if.then23
	movabsq	$errortext, %rdi
	movl	$300, %esi              # imm = 0x12C
	callq	error
.LBB19_12:                              # %if.end24
	movq	-24(%rbp), %rbx
	movq	-24(%rbp), %rdi
	callq	strlen
	movq	%rbx, %rdi
	movl	%eax, %esi
	callq	ParseContent
	movabsq	$.L.str.6, %rdi
	movb	$0, %al
	callq	printf
	movq	-24(%rbp), %rdi
	callq	free
.LBB19_13:                              # %while.cond
                                        # =>This Loop Header: Depth=1
                                        #     Child Loop BB19_22 Depth 2
                                        #     Child Loop BB19_29 Depth 2
                                        #       Child Loop BB19_31 Depth 3
	movl	-12(%rbp), %eax
	cmpl	-52(%rbp), %eax
	jge	.LBB19_41
# %bb.14:                               # %while.body
                                        #   in Loop: Header=BB19_13 Depth=1
	movq	-32(%rbp), %rax
	movslq	-12(%rbp), %rcx
	movq	(%rax,%rcx,8), %rdi
	movabsq	$.L.str.3, %rsi
	movl	$2, %edx
	callq	strncmp
	xorl	%ecx, %ecx
	cmpl	%eax, %ecx
	jne	.LBB19_16
# %bb.15:                               # %if.then33
                                        #   in Loop: Header=BB19_13 Depth=1
	callq	JMHelpExit
.LBB19_16:                              # %if.end34
                                        #   in Loop: Header=BB19_13 Depth=1
	movq	-32(%rbp), %rax
	movslq	-12(%rbp), %rcx
	movq	(%rax,%rcx,8), %rdi
	movabsq	$.L.str.7, %rsi
	movl	$2, %edx
	callq	strncmp
	xorl	%ecx, %ecx
	cmpl	%eax, %ecx
	jne	.LBB19_20
# %bb.17:                               # %if.then40
                                        #   in Loop: Header=BB19_13 Depth=1
	movq	-32(%rbp), %rax
	movl	-12(%rbp), %ecx
	addl	$1, %ecx
	movslq	%ecx, %rcx
	movq	(%rax,%rcx,8), %rdi
	callq	GetConfigFileContent
	xorl	%ecx, %ecx
	movq	%rax, -24(%rbp)
	cmpq	-24(%rbp), %rcx
	jne	.LBB19_19
# %bb.18:                               # %if.then46
                                        #   in Loop: Header=BB19_13 Depth=1
	movabsq	$errortext, %rdi
	movl	$300, %esi              # imm = 0x12C
	callq	error
.LBB19_19:                              # %if.end47
                                        #   in Loop: Header=BB19_13 Depth=1
	movq	-32(%rbp), %rax
	movl	-12(%rbp), %ecx
	addl	$1, %ecx
	movslq	%ecx, %rcx
	movq	(%rax,%rcx,8), %rsi
	movabsq	$.L.str.5, %rdi
	movb	$0, %al
	callq	printf
	movq	-24(%rbp), %rbx
	movq	-24(%rbp), %rdi
	callq	strlen
	movq	%rbx, %rdi
	movl	%eax, %esi
	callq	ParseContent
	movabsq	$.L.str.6, %rdi
	movb	$0, %al
	callq	printf
	movq	-24(%rbp), %rdi
	callq	free
	movl	-12(%rbp), %eax
	addl	$2, %eax
	movl	%eax, -12(%rbp)
	jmp	.LBB19_40
.LBB19_20:                              # %if.else
                                        #   in Loop: Header=BB19_13 Depth=1
	movq	-32(%rbp), %rax
	movslq	-12(%rbp), %rcx
	movq	(%rax,%rcx,8), %rdi
	movabsq	$.L.str.8, %rsi
	movl	$2, %edx
	callq	strncmp
	xorl	%ecx, %ecx
	cmpl	%eax, %ecx
	jne	.LBB19_38
# %bb.21:                               # %if.then61
                                        #   in Loop: Header=BB19_13 Depth=1
	movl	-12(%rbp), %eax
	addl	$1, %eax
	movl	%eax, -12(%rbp)
	movl	$0, -40(%rbp)
	movl	-12(%rbp), %eax
	movl	%eax, -36(%rbp)
.LBB19_22:                              # %while.cond62
                                        #   Parent Loop BB19_13 Depth=1
                                        # =>  This Inner Loop Header: Depth=2
	xorl	%eax, %eax
	movl	-36(%rbp), %ecx
	cmpl	-52(%rbp), %ecx
	jge	.LBB19_24
# %bb.23:                               # %land.rhs
                                        #   in Loop: Header=BB19_22 Depth=2
	movq	-32(%rbp), %rax
	movslq	-36(%rbp), %rcx
	movq	(%rax,%rcx,8), %rax
	movsbl	(%rax), %eax
	cmpl	$45, %eax
	setne	%al
.LBB19_24:                              # %land.end
                                        #   in Loop: Header=BB19_22 Depth=2
	testb	$1, %al
	jne	.LBB19_25
	jmp	.LBB19_26
.LBB19_25:                              # %while.body71
                                        #   in Loop: Header=BB19_22 Depth=2
	movq	-32(%rbp), %rax
	movl	-36(%rbp), %ecx
	movl	%ecx, %edx
	addl	$1, %edx
	movl	%edx, -36(%rbp)
	movslq	%ecx, %rcx
	movq	(%rax,%rcx,8), %rdi
	callq	strlen
	movslq	-40(%rbp), %rcx
	addq	%rax, %rcx
	movl	%ecx, -40(%rbp)
	jmp	.LBB19_22
.LBB19_26:                              # %while.end
                                        #   in Loop: Header=BB19_13 Depth=1
	movl	-40(%rbp), %eax
	addl	$1000, %eax             # imm = 0x3E8
	movl	%eax, -40(%rbp)
	movslq	-40(%rbp), %rdi
	callq	malloc
	movq	%rax, -24(%rbp)
	cmpq	$0, %rax
	jne	.LBB19_28
# %bb.27:                               # %if.then84
                                        #   in Loop: Header=BB19_13 Depth=1
	movabsq	$.L.str.9, %rdi
	callq	no_mem_exit
.LBB19_28:                              # %if.end85
                                        #   in Loop: Header=BB19_13 Depth=1
	movq	-24(%rbp), %rax
	movb	$0, (%rax)
.LBB19_29:                              # %while.cond87
                                        #   Parent Loop BB19_13 Depth=1
                                        # =>  This Loop Header: Depth=2
                                        #       Child Loop BB19_31 Depth 3
	movl	-12(%rbp), %eax
	cmpl	-36(%rbp), %eax
	jge	.LBB19_37
# %bb.30:                               # %while.body90
                                        #   in Loop: Header=BB19_29 Depth=2
	movq	-32(%rbp), %rax
	movslq	-12(%rbp), %rcx
	movq	(%rax,%rcx,8), %rax
	movq	%rax, -64(%rbp)
	movq	-24(%rbp), %rbx
	movq	-24(%rbp), %rdi
	callq	strlen
	addq	%rax, %rbx
	movq	%rbx, -48(%rbp)
.LBB19_31:                              # %while.cond96
                                        #   Parent Loop BB19_13 Depth=1
                                        #     Parent Loop BB19_29 Depth=2
                                        # =>    This Inner Loop Header: Depth=3
	movq	-64(%rbp), %rax
	movsbl	(%rax), %eax
	cmpl	$0, %eax
	je	.LBB19_36
# %bb.32:                               # %while.body100
                                        #   in Loop: Header=BB19_31 Depth=3
	movq	-64(%rbp), %rax
	movsbl	(%rax), %eax
	cmpl	$61, %eax
	jne	.LBB19_34
# %bb.33:                               # %if.then104
                                        #   in Loop: Header=BB19_31 Depth=3
	movq	-48(%rbp), %rax
	movq	%rax, %rcx
	addq	$1, %rcx
	movq	%rcx, -48(%rbp)
	movb	$32, (%rax)
	movq	-48(%rbp), %rax
	movq	%rax, %rcx
	addq	$1, %rcx
	movq	%rcx, -48(%rbp)
	movb	$61, (%rax)
	movq	-48(%rbp), %rax
	movq	%rax, %rcx
	addq	$1, %rcx
	movq	%rcx, -48(%rbp)
	movb	$32, (%rax)
	jmp	.LBB19_35
.LBB19_34:                              # %if.else107
                                        #   in Loop: Header=BB19_31 Depth=3
	movq	-64(%rbp), %rax
	movb	(%rax), %al
	movq	-48(%rbp), %rcx
	movq	%rcx, %rdx
	addq	$1, %rdx
	movq	%rdx, -48(%rbp)
	movb	%al, (%rcx)
.LBB19_35:                              # %if.end109
                                        #   in Loop: Header=BB19_31 Depth=3
	movq	-64(%rbp), %rax
	addq	$1, %rax
	movq	%rax, -64(%rbp)
	jmp	.LBB19_31
.LBB19_36:                              # %while.end111
                                        #   in Loop: Header=BB19_29 Depth=2
	movq	-48(%rbp), %rax
	movb	$0, (%rax)
	movl	-12(%rbp), %eax
	addl	$1, %eax
	movl	%eax, -12(%rbp)
	jmp	.LBB19_29
.LBB19_37:                              # %while.end113
                                        #   in Loop: Header=BB19_13 Depth=1
	movq	-24(%rbp), %rsi
	movabsq	$.L.str.10, %rdi
	movb	$0, %al
	callq	printf
	movq	-24(%rbp), %rbx
	movq	-24(%rbp), %rdi
	callq	strlen
	movq	%rbx, %rdi
	movl	%eax, %esi
	callq	ParseContent
	movq	-24(%rbp), %rdi
	callq	free
	movabsq	$.L.str.6, %rdi
	movb	$0, %al
	callq	printf
	jmp	.LBB19_39
.LBB19_38:                              # %if.else118
                                        #   in Loop: Header=BB19_13 Depth=1
	movl	-12(%rbp), %ecx
	movq	-32(%rbp), %rax
	movslq	-12(%rbp), %rdx
	movq	(%rax,%rdx,8), %r8
	movabsq	$errortext, %rdi
	movl	$300, %esi              # imm = 0x12C
	movabsq	$.L.str.11, %rdx
	movb	$0, %al
	callq	snprintf
	movabsq	$errortext, %rdi
	movl	$300, %esi              # imm = 0x12C
	callq	error
.LBB19_39:                              # %if.end122
                                        #   in Loop: Header=BB19_13 Depth=1
	jmp	.LBB19_40
.LBB19_40:                              # %if.end123
                                        #   in Loop: Header=BB19_13 Depth=1
	jmp	.LBB19_13
.LBB19_41:                              # %while.end124
	movabsq	$.L.str.6, %rdi
	movb	$0, %al
	callq	printf
	callq	PatchInp
	movq	input, %rax
	cmpl	$0, 3232(%rax)
	je	.LBB19_43
# %bb.42:                               # %if.then126
	callq	DisplayEncoderParams
.LBB19_43:                              # %if.end128
	cmpl	$319316622, -76(%rbp)   # imm = 0x1308628E
	jne	.LBB19_45
.LBB19_44:
	addq	$72, %rsp
	popq	%rbx
	popq	%rbp
	.cfi_def_cfa %rsp, 8
	retq
.LBB19_45:                              # %func_exit
	.cfi_def_cfa %rbp, 16
	callq	detect_breach
	jmp	.LBB19_44
.Lfunc_end19:
	.size	Configure.7, .Lfunc_end19-Configure.7
	.cfi_endproc
                                        # -- End function
	.p2align	4, 0x90         # -- Begin function TestEncoderParams.8
	.type	TestEncoderParams.8,@function
TestEncoderParams.8:                    # @TestEncoderParams.8
	.cfi_startproc
# %bb.0:                                # %entry
	pushq	%rbp
	.cfi_def_cfa_offset 16
	.cfi_offset %rbp, -16
	movq	%rsp, %rbp
	.cfi_def_cfa_register %rbp
	subq	$16, %rsp
	movl	$21271275, -12(%rbp)    # imm = 0x14492EB
	movl	%edi, -8(%rbp)
	movl	$0, -4(%rbp)
.LBB20_1:                               # %while.cond
                                        # =>This Inner Loop Header: Depth=1
	movslq	-4(%rbp), %rax
	imulq	$56, %rax, %rax
	movabsq	$Map, %rcx
	addq	%rax, %rcx
	cmpq	$0, (%rcx)
	je	.LBB20_36
# %bb.2:                                # %while.body
                                        #   in Loop: Header=BB20_1 Depth=1
	movslq	-4(%rbp), %rax
	imulq	$56, %rax, %rax
	movabsq	$Map, %rcx
	addq	%rax, %rcx
	cmpl	$1, 32(%rcx)
	jne	.LBB20_15
# %bb.3:                                # %if.then
                                        #   in Loop: Header=BB20_1 Depth=1
	movslq	-4(%rbp), %rax
	imulq	$56, %rax, %rax
	movabsq	$Map, %rcx
	addq	%rax, %rcx
	cmpl	$0, 16(%rcx)
	jne	.LBB20_8
# %bb.4:                                # %if.then7
                                        #   in Loop: Header=BB20_1 Depth=1
	movslq	-4(%rbp), %rax
	imulq	$56, %rax, %rax
	movabsq	$Map, %rcx
	movq	%rcx, %rdx
	addq	%rax, %rdx
	movq	8(%rdx), %rax
	movl	(%rax), %eax
	movslq	-4(%rbp), %rdx
	imulq	$56, %rdx, %rdx
	addq	%rdx, %rcx
	vcvttsd2si	40(%rcx), %ecx
	cmpl	%ecx, %eax
	jl	.LBB20_6
# %bb.5:                                # %lor.lhs.false
                                        #   in Loop: Header=BB20_1 Depth=1
	movslq	-4(%rbp), %rax
	imulq	$56, %rax, %rax
	movabsq	$Map, %rcx
	movq	%rcx, %rdx
	addq	%rax, %rdx
	movq	8(%rdx), %rax
	movl	(%rax), %eax
	movslq	-4(%rbp), %rdx
	imulq	$56, %rdx, %rdx
	addq	%rdx, %rcx
	vcvttsd2si	48(%rcx), %ecx
	cmpl	%ecx, %eax
	jle	.LBB20_7
.LBB20_6:                               # %if.then22
                                        #   in Loop: Header=BB20_1 Depth=1
	movslq	-4(%rbp), %rax
	imulq	$56, %rax, %rax
	movabsq	$Map, %rdx
	movq	%rdx, %rcx
	addq	%rax, %rcx
	movq	(%rcx), %rcx
	movslq	-4(%rbp), %rax
	imulq	$56, %rax, %rax
	movq	%rdx, %rsi
	addq	%rax, %rsi
	vcvttsd2si	40(%rsi), %r8d
	movslq	-4(%rbp), %rax
	imulq	$56, %rax, %rax
	addq	%rax, %rdx
	vcvttsd2si	48(%rdx), %r9d
	movabsq	$errortext, %rdi
	movl	$300, %esi              # imm = 0x12C
	movabsq	$.L.str.216, %rdx
	movb	$0, %al
	callq	snprintf
	movabsq	$errortext, %rdi
	movl	$400, %esi              # imm = 0x190
	callq	error
.LBB20_7:                               # %if.end
                                        #   in Loop: Header=BB20_1 Depth=1
	jmp	.LBB20_14
.LBB20_8:                               # %if.else
                                        #   in Loop: Header=BB20_1 Depth=1
	movslq	-4(%rbp), %rax
	imulq	$56, %rax, %rax
	movabsq	$Map, %rcx
	addq	%rax, %rcx
	cmpl	$2, 16(%rcx)
	jne	.LBB20_13
# %bb.9:                                # %if.then39
                                        #   in Loop: Header=BB20_1 Depth=1
	movslq	-4(%rbp), %rax
	imulq	$56, %rax, %rax
	movabsq	$Map, %rcx
	movq	%rcx, %rdx
	addq	%rax, %rdx
	movq	8(%rdx), %rax
	vmovsd	(%rax), %xmm0           # xmm0 = mem[0],zero
	movslq	-4(%rbp), %rax
	imulq	$56, %rax, %rax
	addq	%rax, %rcx
	vmovsd	40(%rcx), %xmm1         # xmm1 = mem[0],zero
	vucomisd	%xmm0, %xmm1
	ja	.LBB20_11
# %bb.10:                               # %lor.lhs.false48
                                        #   in Loop: Header=BB20_1 Depth=1
	movslq	-4(%rbp), %rax
	imulq	$56, %rax, %rax
	movabsq	$Map, %rcx
	movq	%rcx, %rdx
	addq	%rax, %rdx
	movq	8(%rdx), %rax
	vmovsd	(%rax), %xmm0           # xmm0 = mem[0],zero
	movslq	-4(%rbp), %rax
	imulq	$56, %rax, %rax
	addq	%rax, %rcx
	vucomisd	48(%rcx), %xmm0
	jbe	.LBB20_12
.LBB20_11:                              # %if.then57
                                        #   in Loop: Header=BB20_1 Depth=1
	movslq	-4(%rbp), %rax
	imulq	$56, %rax, %rax
	movabsq	$Map, %rdx
	movq	%rdx, %rcx
	addq	%rax, %rcx
	movq	(%rcx), %rcx
	movslq	-4(%rbp), %rax
	imulq	$56, %rax, %rax
	movq	%rdx, %rsi
	addq	%rax, %rsi
	vmovsd	40(%rsi), %xmm0         # xmm0 = mem[0],zero
	movslq	-4(%rbp), %rax
	imulq	$56, %rax, %rax
	addq	%rax, %rdx
	vmovsd	48(%rdx), %xmm1         # xmm1 = mem[0],zero
	movabsq	$errortext, %rdi
	movl	$300, %esi              # imm = 0x12C
	movabsq	$.L.str.217, %rdx
	movb	$2, %al
	callq	snprintf
	movabsq	$errortext, %rdi
	movl	$400, %esi              # imm = 0x190
	callq	error
.LBB20_12:                              # %if.end68
                                        #   in Loop: Header=BB20_1 Depth=1
	jmp	.LBB20_13
.LBB20_13:                              # %if.end69
                                        #   in Loop: Header=BB20_1 Depth=1
	jmp	.LBB20_14
.LBB20_14:                              # %if.end70
                                        #   in Loop: Header=BB20_1 Depth=1
	jmp	.LBB20_35
.LBB20_15:                              # %if.else71
                                        #   in Loop: Header=BB20_1 Depth=1
	movslq	-4(%rbp), %rax
	imulq	$56, %rax, %rax
	movabsq	$Map, %rcx
	addq	%rax, %rcx
	cmpl	$2, 32(%rcx)
	jne	.LBB20_26
# %bb.16:                               # %if.then77
                                        #   in Loop: Header=BB20_1 Depth=1
	movslq	-4(%rbp), %rax
	imulq	$56, %rax, %rax
	movabsq	$Map, %rcx
	addq	%rax, %rcx
	cmpl	$0, 16(%rcx)
	jne	.LBB20_20
# %bb.17:                               # %if.then83
                                        #   in Loop: Header=BB20_1 Depth=1
	movslq	-4(%rbp), %rax
	imulq	$56, %rax, %rax
	movabsq	$Map, %rcx
	movq	%rcx, %rdx
	addq	%rax, %rdx
	movq	8(%rdx), %rax
	movl	(%rax), %eax
	movslq	-4(%rbp), %rdx
	imulq	$56, %rdx, %rdx
	addq	%rdx, %rcx
	vcvttsd2si	40(%rcx), %ecx
	cmpl	%ecx, %eax
	jge	.LBB20_19
# %bb.18:                               # %if.then93
                                        #   in Loop: Header=BB20_1 Depth=1
	movslq	-4(%rbp), %rax
	imulq	$56, %rax, %rax
	movabsq	$Map, %rdx
	movq	%rdx, %rcx
	addq	%rax, %rcx
	movq	(%rcx), %rcx
	movslq	-4(%rbp), %rax
	imulq	$56, %rax, %rax
	addq	%rax, %rdx
	vcvttsd2si	40(%rdx), %r8d
	movabsq	$errortext, %rdi
	movl	$300, %esi              # imm = 0x12C
	movabsq	$.L.str.218, %rdx
	movb	$0, %al
	callq	snprintf
	movabsq	$errortext, %rdi
	movl	$400, %esi              # imm = 0x190
	callq	error
.LBB20_19:                              # %if.end102
                                        #   in Loop: Header=BB20_1 Depth=1
	jmp	.LBB20_25
.LBB20_20:                              # %if.else103
                                        #   in Loop: Header=BB20_1 Depth=1
	movslq	-4(%rbp), %rax
	imulq	$56, %rax, %rax
	movabsq	$Map, %rcx
	addq	%rax, %rcx
	cmpl	$2, 16(%rcx)
	jne	.LBB20_24
# %bb.21:                               # %if.then109
                                        #   in Loop: Header=BB20_1 Depth=1
	movslq	-4(%rbp), %rax
	imulq	$56, %rax, %rax
	movabsq	$Map, %rcx
	movq	%rcx, %rdx
	addq	%rax, %rdx
	movq	8(%rdx), %rax
	vmovsd	(%rax), %xmm0           # xmm0 = mem[0],zero
	movslq	-4(%rbp), %rax
	imulq	$56, %rax, %rax
	addq	%rax, %rcx
	vmovsd	40(%rcx), %xmm1         # xmm1 = mem[0],zero
	vucomisd	%xmm0, %xmm1
	jbe	.LBB20_23
# %bb.22:                               # %if.then118
                                        #   in Loop: Header=BB20_1 Depth=1
	movslq	-4(%rbp), %rax
	imulq	$56, %rax, %rax
	movabsq	$Map, %rdx
	movq	%rdx, %rcx
	addq	%rax, %rcx
	movq	(%rcx), %rcx
	movslq	-4(%rbp), %rax
	imulq	$56, %rax, %rax
	addq	%rax, %rdx
	vmovsd	40(%rdx), %xmm0         # xmm0 = mem[0],zero
	movabsq	$errortext, %rdi
	movl	$300, %esi              # imm = 0x12C
	movabsq	$.L.str.219, %rdx
	movb	$1, %al
	callq	snprintf
	movabsq	$errortext, %rdi
	movl	$400, %esi              # imm = 0x190
	callq	error
.LBB20_23:                              # %if.end126
                                        #   in Loop: Header=BB20_1 Depth=1
	jmp	.LBB20_24
.LBB20_24:                              # %if.end127
                                        #   in Loop: Header=BB20_1 Depth=1
	jmp	.LBB20_25
.LBB20_25:                              # %if.end128
                                        #   in Loop: Header=BB20_1 Depth=1
	jmp	.LBB20_34
.LBB20_26:                              # %if.else129
                                        #   in Loop: Header=BB20_1 Depth=1
	movslq	-4(%rbp), %rax
	imulq	$56, %rax, %rax
	movabsq	$Map, %rcx
	addq	%rax, %rcx
	cmpl	$3, 32(%rcx)
	jne	.LBB20_33
# %bb.27:                               # %if.then135
                                        #   in Loop: Header=BB20_1 Depth=1
	movslq	-4(%rbp), %rax
	imulq	$56, %rax, %rax
	movabsq	$Map, %rcx
	addq	%rax, %rcx
	cmpl	$0, 16(%rcx)
	jne	.LBB20_32
# %bb.28:                               # %if.then141
                                        #   in Loop: Header=BB20_1 Depth=1
	movslq	-4(%rbp), %rax
	imulq	$56, %rax, %rax
	movabsq	$Map, %rcx
	movq	%rcx, %rdx
	addq	%rax, %rdx
	movq	8(%rdx), %rax
	movl	(%rax), %eax
	movslq	-4(%rbp), %rdx
	imulq	$56, %rdx, %rdx
	addq	%rdx, %rcx
	vmovsd	40(%rcx), %xmm0         # xmm0 = mem[0],zero
	vcvtsi2sdl	-8(%rbp), %xmm0, %xmm1
	vsubsd	%xmm1, %xmm0, %xmm0
	vcvttsd2si	%xmm0, %ecx
	cmpl	%ecx, %eax
	jl	.LBB20_30
# %bb.29:                               # %lor.lhs.false152
                                        #   in Loop: Header=BB20_1 Depth=1
	movslq	-4(%rbp), %rax
	imulq	$56, %rax, %rax
	movabsq	$Map, %rcx
	movq	%rcx, %rdx
	addq	%rax, %rdx
	movq	8(%rdx), %rax
	movl	(%rax), %eax
	movslq	-4(%rbp), %rdx
	imulq	$56, %rdx, %rdx
	addq	%rdx, %rcx
	vcvttsd2si	48(%rcx), %ecx
	cmpl	%ecx, %eax
	jle	.LBB20_31
.LBB20_30:                              # %if.then162
                                        #   in Loop: Header=BB20_1 Depth=1
	movslq	-4(%rbp), %rax
	imulq	$56, %rax, %rax
	movabsq	$Map, %rdx
	movq	%rdx, %rcx
	addq	%rax, %rcx
	movq	(%rcx), %rcx
	movslq	-4(%rbp), %rax
	imulq	$56, %rax, %rax
	movq	%rdx, %rsi
	addq	%rax, %rsi
	vmovsd	40(%rsi), %xmm0         # xmm0 = mem[0],zero
	vcvtsi2sdl	-8(%rbp), %xmm0, %xmm1
	vsubsd	%xmm1, %xmm0, %xmm0
	vcvttsd2si	%xmm0, %r8d
	movslq	-4(%rbp), %rax
	imulq	$56, %rax, %rax
	addq	%rax, %rdx
	vcvttsd2si	48(%rdx), %r9d
	movabsq	$errortext, %rdi
	movl	$300, %esi              # imm = 0x12C
	movabsq	$.L.str.216, %rdx
	movb	$0, %al
	callq	snprintf
	movabsq	$errortext, %rdi
	movl	$400, %esi              # imm = 0x190
	callq	error
.LBB20_31:                              # %if.end177
                                        #   in Loop: Header=BB20_1 Depth=1
	jmp	.LBB20_32
.LBB20_32:                              # %if.end178
                                        #   in Loop: Header=BB20_1 Depth=1
	jmp	.LBB20_33
.LBB20_33:                              # %if.end179
                                        #   in Loop: Header=BB20_1 Depth=1
	jmp	.LBB20_34
.LBB20_34:                              # %if.end180
                                        #   in Loop: Header=BB20_1 Depth=1
	jmp	.LBB20_35
.LBB20_35:                              # %if.end181
                                        #   in Loop: Header=BB20_1 Depth=1
	movl	-4(%rbp), %eax
	addl	$1, %eax
	movl	%eax, -4(%rbp)
	jmp	.LBB20_1
.LBB20_36:                              # %while.end
	cmpl	$21271275, -12(%rbp)    # imm = 0x14492EB
	jne	.LBB20_38
.LBB20_37:
	movl	$4294967295, %eax       # imm = 0xFFFFFFFF
	addq	$16, %rsp
	popq	%rbp
	.cfi_def_cfa %rsp, 8
	retq
.LBB20_38:                              # %func_exit
	.cfi_def_cfa %rbp, 16
	callq	detect_breach
	jmp	.LBB20_37
.Lfunc_end20:
	.size	TestEncoderParams.8, .Lfunc_end20-TestEncoderParams.8
	.cfi_endproc
                                        # -- End function
	.globl	CeilLog2.9              # -- Begin function CeilLog2.9
	.p2align	4, 0x90
	.type	CeilLog2.9,@function
CeilLog2.9:                             # @CeilLog2.9
	.cfi_startproc
# %bb.0:                                # %entry
	pushq	%rbp
	.cfi_def_cfa_offset 16
	.cfi_offset %rbp, -16
	movq	%rsp, %rbp
	.cfi_def_cfa_register %rbp
	pushq	%rbx
	subq	$24, %rsp
	.cfi_offset %rbx, -24
	movl	$3256099, -24(%rbp)     # imm = 0x31AF23
	movl	%edi, -20(%rbp)
	movl	-20(%rbp), %eax
	subl	$1, %eax
	movl	%eax, -16(%rbp)
	movl	$0, -12(%rbp)
.LBB21_1:                               # %while.cond
                                        # =>This Inner Loop Header: Depth=1
	cmpl	$0, -16(%rbp)
	je	.LBB21_3
# %bb.2:                                # %while.body
                                        #   in Loop: Header=BB21_1 Depth=1
	movl	-16(%rbp), %eax
	shrl	$1, %eax
	movl	%eax, -16(%rbp)
	movl	-12(%rbp), %eax
	addl	$1, %eax
	movl	%eax, -12(%rbp)
	jmp	.LBB21_1
.LBB21_3:                               # %while.end
	movl	-12(%rbp), %ebx
	cmpl	$3256099, -24(%rbp)     # imm = 0x31AF23
	jne	.LBB21_5
.LBB21_4:
	movl	%ebx, %eax
	addq	$24, %rsp
	popq	%rbx
	popq	%rbp
	.cfi_def_cfa %rsp, 8
	retq
.LBB21_5:                               # %func_exit
	.cfi_def_cfa %rbp, 16
	callq	detect_breach
	jmp	.LBB21_4
.Lfunc_end21:
	.size	CeilLog2.9, .Lfunc_end21-CeilLog2.9
	.cfi_endproc
                                        # -- End function
	.section	.rodata.cst8,"aM",@progbits,8
	.p2align	3               # -- Begin function PatchInp.10
.LCPI22_0:
	.quad	4629137466983448576     # double 30
	.text
	.p2align	4, 0x90
	.type	PatchInp.10,@function
PatchInp.10:                            # @PatchInp.10
	.cfi_startproc
# %bb.0:                                # %entry
	pushq	%rbp
	.cfi_def_cfa_offset 16
	.cfi_offset %rbp, -16
	movq	%rsp, %rbp
	.cfi_def_cfa_register %rbp
	subq	$48, %rsp
	movl	$1253769803, -44(%rbp)  # imm = 0x4ABB024B
	movq	input, %rax
	movl	3296(%rax), %eax
	subl	$8, %eax
	imull	$6, %eax, %eax
	movl	%eax, -32(%rbp)
	movq	$0, -16(%rbp)
	movq	input, %rax
	movl	$1, 3224(%rax)
	movl	-32(%rbp), %edi
	callq	TestEncoderParams
	movq	input, %rax
	vmovsd	2424(%rax), %xmm0       # xmm0 = mem[0],zero
	vxorps	%xmm1, %xmm1, %xmm1
	vucomisd	%xmm1, %xmm0
	jne	.LBB22_2
	jp	.LBB22_2
# %bb.1:                                # %if.then
	vmovsd	.LCPI22_0(%rip), %xmm0  # xmm0 = mem[0],zero
	movq	input, %rax
	vmovsd	%xmm0, 2424(%rax)
.LBB22_2:                               # %if.end
	movq	input, %rax
	movl	$16, 80(%rax)
	movq	input, %rax
	movl	$16, 84(%rax)
	movq	input, %rax
	movl	$16, 88(%rax)
	movq	input, %rax
	movl	$16, 92(%rax)
	movq	input, %rax
	movl	$16, 96(%rax)
	movq	input, %rax
	movl	$8, 100(%rax)
	movq	input, %rax
	movl	$8, 104(%rax)
	movq	input, %rax
	movl	$16, 108(%rax)
	movq	input, %rax
	movl	$8, 112(%rax)
	movq	input, %rax
	movl	$8, 116(%rax)
	movq	input, %rax
	movl	$8, 120(%rax)
	movq	input, %rax
	movl	$4, 124(%rax)
	movq	input, %rax
	movl	$4, 128(%rax)
	movq	input, %rax
	movl	$8, 132(%rax)
	movq	input, %rax
	movl	$4, 136(%rax)
	movq	input, %rax
	movl	$4, 140(%rax)
	movq	input, %rax
	movl	$4, 144(%rax)
	movq	input, %rax
	movl	$4, 148(%rax)
	movq	input, %rax
	movl	$4, 152(%rax)
	movq	input, %rax
	movl	$4, 156(%rax)
	movq	input, %rax
	movl	$4, 160(%rax)
	movq	input, %rax
	movl	$2, 164(%rax)
	movq	input, %rax
	movl	$2, 168(%rax)
	movq	input, %rax
	movl	$4, 172(%rax)
	movq	input, %rax
	movl	$2, 176(%rax)
	movq	input, %rax
	movl	$2, 180(%rax)
	movq	input, %rax
	movl	$2, 184(%rax)
	movq	input, %rax
	movl	$1, 188(%rax)
	movq	input, %rax
	movl	$1, 192(%rax)
	movq	input, %rax
	movl	$2, 196(%rax)
	movq	input, %rax
	movl	$1, 200(%rax)
	movq	input, %rax
	movl	$1, 204(%rax)
	movq	input, %rax
	cmpl	$0, 1316(%rax)
	je	.LBB22_4
# %bb.3:                                # %cond.true
	movq	input, %rax
	movl	1236(%rax), %eax
	addl	$1, %eax
	jmp	.LBB22_5
.LBB22_4:                               # %cond.false
	movl	$1, %eax
	jmp	.LBB22_5
.LBB22_5:                               # %cond.end
	movl	%eax, -28(%rbp)
	movq	input, %rax
	cmpl	$4, 52(%rax)
	jge	.LBB22_10
# %bb.6:                                # %if.then96
	movq	input, %rax
	movl	8(%rax), %edi
	imull	-28(%rbp), %edi
	callq	CeilLog2
	subl	$4, %eax
	cmpl	$0, %eax
	jle	.LBB22_8
# %bb.7:                                # %cond.true101
	movq	input, %rax
	movl	8(%rax), %edi
	imull	-28(%rbp), %edi
	callq	CeilLog2
	subl	$4, %eax
	jmp	.LBB22_9
.LBB22_8:                               # %cond.false106
	xorl	%eax, %eax
	jmp	.LBB22_9
.LBB22_9:                               # %cond.end107
	movl	%eax, log2_max_frame_num_minus4
	jmp	.LBB22_11
.LBB22_10:                              # %if.else
	movq	input, %rax
	movl	52(%rax), %eax
	subl	$4, %eax
	movl	%eax, log2_max_frame_num_minus4
.LBB22_11:                              # %if.end111
	movq	input, %rax
	movl	8(%rax), %edi
	shll	$1, %edi
	movq	input, %rax
	movl	20(%rax), %eax
	addl	$1, %eax
	imull	%eax, %edi
	callq	CeilLog2
	subl	$4, %eax
	cmpl	$0, %eax
	jle	.LBB22_13
# %bb.12:                               # %cond.true119
	movq	input, %rax
	movl	8(%rax), %edi
	shll	$1, %edi
	movq	input, %rax
	movl	20(%rax), %eax
	addl	$1, %eax
	imull	%eax, %edi
	callq	CeilLog2
	subl	$4, %eax
	jmp	.LBB22_14
.LBB22_13:                              # %cond.false127
	xorl	%eax, %eax
	jmp	.LBB22_14
.LBB22_14:                              # %cond.end128
	movl	%eax, log2_max_pic_order_cnt_lsb_minus4
	movq	input, %rax
	movl	1236(%rax), %eax
	movq	input, %rcx
	cmpl	20(%rcx), %eax
	jle	.LBB22_16
# %bb.15:                               # %if.then133
	movq	input, %rax
	movl	1236(%rax), %ecx
	movabsq	$errortext, %rdi
	movl	$300, %esi              # imm = 0x12C
	movabsq	$.L.str.179, %rdx
	movb	$0, %al
	callq	snprintf
	movabsq	$errortext, %rdi
	movl	$400, %esi              # imm = 0x190
	callq	error
.LBB22_16:                              # %if.end136
	movq	input, %rax
	cmpl	$0, 1236(%rax)
	je	.LBB22_20
# %bb.17:                               # %land.lhs.true
	movq	input, %rax
	cmpl	$1, 1248(%rax)
	je	.LBB22_20
# %bb.18:                               # %land.lhs.true140
	movq	input, %rax
	cmpl	$0, 1248(%rax)
	je	.LBB22_20
# %bb.19:                               # %if.then143
	movq	input, %rax
	movl	1248(%rax), %ecx
	movabsq	$errortext, %rdi
	movl	$300, %esi              # imm = 0x12C
	movabsq	$.L.str.180, %rdx
	movb	$0, %al
	callq	snprintf
	movabsq	$errortext, %rdi
	movl	$400, %esi              # imm = 0x190
	callq	error
.LBB22_20:                              # %if.end146
	movq	input, %rax
	cmpl	$0, 2880(%rax)
	jg	.LBB22_22
# %bb.21:                               # %lor.lhs.false
	movq	input, %rax
	cmpl	$0, 2884(%rax)
	jle	.LBB22_25
.LBB22_22:                              # %if.then149
	movq	input, %rax
	cmpl	$0, 1252(%rax)
	jne	.LBB22_24
# %bb.23:                               # %if.then151
	movabsq	$.L.str.181, %rdi
	movb	$0, %al
	callq	printf
.LBB22_24:                              # %if.end153
	movq	input, %rax
	movl	$1, 1252(%rax)
.LBB22_25:                              # %if.end155
	movq	input, %rax
	cmpl	$0, 2880(%rax)
	jle	.LBB22_30
# %bb.26:                               # %if.then158
	movq	input, %rax
	cmpl	$0, 2888(%rax)
	je	.LBB22_29
# %bb.27:                               # %land.lhs.true160
	movq	input, %rax
	cmpl	$1, 2888(%rax)
	je	.LBB22_29
# %bb.28:                               # %if.then163
	movq	input, %rax
	movl	2888(%rax), %ecx
	movabsq	$errortext, %rdi
	movl	$300, %esi              # imm = 0x12C
	movabsq	$.L.str.182, %rdx
	movb	$0, %al
	callq	snprintf
	movabsq	$errortext, %rdi
	movl	$400, %esi              # imm = 0x190
	callq	error
.LBB22_29:                              # %if.end166
	jmp	.LBB22_30
.LBB22_30:                              # %if.end167
	movq	input, %rax
	cmpl	$0, 2356(%rax)
	je	.LBB22_33
# %bb.31:                               # %land.lhs.true169
	movq	input, %rax
	cmpl	$1, 2356(%rax)
	je	.LBB22_33
# %bb.32:                               # %if.then172
	movq	input, %rax
	movl	2356(%rax), %ecx
	movabsq	$errortext, %rdi
	movl	$300, %esi              # imm = 0x12C
	movabsq	$.L.str.183, %rdx
	movb	$0, %al
	callq	snprintf
	movabsq	$errortext, %rdi
	movl	$400, %esi              # imm = 0x190
	callq	error
.LBB22_33:                              # %if.end175
	movq	input, %rdi
	addq	$224, %rdi
	xorl	%esi, %esi
	movb	$0, %al
	callq	open
	movl	%eax, p_in
	cmpl	$-1, %eax
	jne	.LBB22_35
# %bb.34:                               # %if.then178
	movq	input, %rcx
	addq	$224, %rcx
	movabsq	$errortext, %rdi
	movl	$300, %esi              # imm = 0x12C
	movabsq	$.L.str.184, %rdx
	movb	$0, %al
	callq	snprintf
	movabsq	$errortext, %rdi
	movl	$500, %esi              # imm = 0x1F4
	callq	error
.LBB22_35:                              # %if.end182
	movq	input, %rdi
	addq	$624, %rdi              # imm = 0x270
	callq	strlen
	cmpq	$0, %rax
	jbe	.LBB22_38
# %bb.36:                               # %land.lhs.true186
	movq	input, %rdi
	addq	$624, %rdi              # imm = 0x270
	movl	$577, %esi              # imm = 0x241
	movl	$384, %edx              # imm = 0x180
	movb	$0, %al
	callq	open
	movl	%eax, p_dec
	cmpl	$-1, %eax
	jne	.LBB22_38
# %bb.37:                               # %if.then191
	movq	input, %rcx
	addq	$624, %rcx              # imm = 0x270
	movabsq	$errortext, %rdi
	movl	$300, %esi              # imm = 0x12C
	movabsq	$.L.str.185, %rdx
	movb	$0, %al
	callq	snprintf
	movabsq	$errortext, %rdi
	movl	$500, %esi              # imm = 0x1F4
	callq	error
.LBB22_38:                              # %if.end195
	movq	input, %rdi
	addq	$824, %rdi              # imm = 0x338
	callq	strlen
	cmpq	$0, %rax
	jbe	.LBB22_41
# %bb.39:                               # %land.lhs.true199
	movq	input, %rdi
	addq	$824, %rdi              # imm = 0x338
	movabsq	$.L.str.186, %rsi
	callq	fopen
	movq	%rax, p_trace
	cmpq	$0, %rax
	jne	.LBB22_41
# %bb.40:                               # %if.then204
	movq	input, %rcx
	addq	$824, %rcx              # imm = 0x338
	movabsq	$errortext, %rdi
	movl	$300, %esi              # imm = 0x12C
	movabsq	$.L.str.185, %rdx
	movb	$0, %al
	callq	snprintf
	movabsq	$errortext, %rdi
	movl	$500, %esi              # imm = 0x1F4
	callq	error
.LBB22_41:                              # %if.end208
	movq	input, %rax
	movl	64(%rax), %eax
	cltd
	movl	$16, %ecx
	idivl	%ecx
	cmpl	$0, %edx
	je	.LBB22_43
# %bb.42:                               # %if.then210
	movq	input, %rax
	movl	64(%rax), %eax
	cltd
	movl	$16, %ecx
	idivl	%ecx
	subl	%edx, %ecx
	movq	img, %rax
	movl	%ecx, 72728(%rax)
	jmp	.LBB22_44
.LBB22_43:                              # %if.else214
	movq	img, %rax
	movl	$0, 72728(%rax)
.LBB22_44:                              # %if.end216
	movq	input, %rax
	cmpl	$0, 2880(%rax)
	jne	.LBB22_46
# %bb.45:                               # %lor.lhs.false219
	movq	input, %rax
	cmpl	$0, 2884(%rax)
	je	.LBB22_52
.LBB22_46:                              # %if.then222
	movq	input, %rax
	movl	68(%rax), %eax
	cltd
	movl	$2, %ecx
	idivl	%ecx
	cmpl	$0, %edx
	je	.LBB22_48
# %bb.47:                               # %if.then225
	movabsq	$.L.str.187, %rdi
	movl	$500, %esi              # imm = 0x1F4
	callq	error
.LBB22_48:                              # %if.end226
	movq	input, %rax
	movl	68(%rax), %eax
	cltd
	movl	$32, %ecx
	idivl	%ecx
	cmpl	$0, %edx
	je	.LBB22_50
# %bb.49:                               # %if.then230
	movq	input, %rax
	movl	68(%rax), %eax
	cltd
	movl	$32, %ecx
	idivl	%ecx
	subl	%edx, %ecx
	movq	img, %rax
	movl	%ecx, 72732(%rax)
	jmp	.LBB22_51
.LBB22_50:                              # %if.else234
	movq	img, %rax
	movl	$0, 72732(%rax)
.LBB22_51:                              # %if.end236
	jmp	.LBB22_56
.LBB22_52:                              # %if.else237
	movq	input, %rax
	movl	68(%rax), %eax
	cltd
	movl	$16, %ecx
	idivl	%ecx
	cmpl	$0, %edx
	je	.LBB22_54
# %bb.53:                               # %if.then241
	movq	input, %rax
	movl	68(%rax), %eax
	cltd
	movl	$16, %ecx
	idivl	%ecx
	subl	%edx, %ecx
	movq	img, %rax
	movl	%ecx, 72732(%rax)
	jmp	.LBB22_55
.LBB22_54:                              # %if.else246
	movq	img, %rax
	movl	$0, 72732(%rax)
.LBB22_55:                              # %if.end248
	jmp	.LBB22_56
.LBB22_56:                              # %if.end249
	movq	img, %rax
	cmpl	$0, 72732(%rax)
	jne	.LBB22_58
# %bb.57:                               # %lor.lhs.false252
	movq	img, %rax
	cmpl	$0, 72728(%rax)
	je	.LBB22_59
.LBB22_58:                              # %if.then255
	movq	input, %rax
	movl	64(%rax), %esi
	movq	img, %rax
	addl	72728(%rax), %esi
	movq	input, %rax
	movl	68(%rax), %edx
	movq	img, %rax
	addl	72732(%rax), %edx
	movabsq	$.L.str.188, %rdi
	movb	$0, %al
	callq	printf
.LBB22_59:                              # %if.end263
	movq	input, %rax
	cmpl	$0, 3152(%rax)
	je	.LBB22_100
# %bb.60:                               # %land.lhs.true265
	movq	input, %rax
	cmpl	$0, 3156(%rax)
	je	.LBB22_63
# %bb.61:                               # %lor.lhs.false267
	movq	input, %rax
	cmpl	$2, 3156(%rax)
	je	.LBB22_63
# %bb.62:                               # %lor.lhs.false270
	movq	input, %rax
	cmpl	$6, 3156(%rax)
	jne	.LBB22_100
.LBB22_63:                              # %if.then273
	movq	input, %rdi
	addq	$2952, %rdi             # imm = 0xB88
	callq	strlen
	cmpq	$0, %rax
	jbe	.LBB22_66
# %bb.64:                               # %land.lhs.true277
	movq	input, %rdi
	addq	$2952, %rdi             # imm = 0xB88
	movabsq	$.L.str.12, %rsi
	callq	fopen
	movq	%rax, -16(%rbp)
	cmpq	$0, %rax
	jne	.LBB22_66
# %bb.65:                               # %if.then282
	movq	input, %rcx
	addq	$2952, %rcx             # imm = 0xB88
	movabsq	$errortext, %rdi
	movl	$300, %esi              # imm = 0x12C
	movabsq	$.L.str.185, %rdx
	movb	$0, %al
	callq	snprintf
	movabsq	$errortext, %rdi
	movl	$500, %esi              # imm = 0x1F4
	callq	error
	jmp	.LBB22_99
.LBB22_66:                              # %if.else286
	movq	input, %rax
	cmpl	$0, 3156(%rax)
	jne	.LBB22_74
# %bb.67:                               # %if.then289
	movq	input, %rax
	movl	3152(%rax), %eax
	addl	$1, %eax
	movslq	%eax, %rdi
	shlq	$2, %rdi
	callq	malloc
	xorl	%ecx, %ecx
	movq	input, %rdx
	movq	%rax, 3184(%rdx)
	movq	input, %rax
	cmpq	3184(%rax), %rcx
	jne	.LBB22_69
# %bb.68:                               # %if.then297
	movabsq	$.L.str.189, %rdi
	callq	no_mem_exit
.LBB22_69:                              # %if.end298
	movl	$0, -4(%rbp)
.LBB22_70:                              # %for.cond
                                        # =>This Inner Loop Header: Depth=1
	movl	-4(%rbp), %eax
	movq	input, %rcx
	cmpl	3152(%rcx), %eax
	jg	.LBB22_73
# %bb.71:                               # %for.body
                                        #   in Loop: Header=BB22_70 Depth=1
	movq	-16(%rbp), %rdi
	movq	input, %rax
	movq	3184(%rax), %rdx
	movslq	-4(%rbp), %rax
	shlq	$2, %rax
	addq	%rax, %rdx
	movabsq	$.L.str.170, %rsi
	movb	$0, %al
	callq	__isoc99_fscanf
	movq	-16(%rbp), %rdi
	movabsq	$.L.str.190, %rsi
	movb	$0, %al
	callq	__isoc99_fscanf
# %bb.72:                               # %for.inc
                                        #   in Loop: Header=BB22_70 Depth=1
	movl	-4(%rbp), %eax
	addl	$1, %eax
	movl	%eax, -4(%rbp)
	jmp	.LBB22_70
.LBB22_73:                              # %for.end
	jmp	.LBB22_98
.LBB22_74:                              # %if.else305
	movq	input, %rax
	cmpl	$2, 3156(%rax)
	jne	.LBB22_84
# %bb.75:                               # %if.then309
	movq	input, %rax
	movslq	3152(%rax), %rdi
	shlq	$2, %rdi
	callq	malloc
	movq	input, %rcx
	movq	%rax, 3160(%rcx)
	movq	input, %rax
	movslq	3152(%rax), %rdi
	shlq	$2, %rdi
	callq	malloc
	xorl	%ecx, %ecx
	movq	input, %rdx
	movq	%rax, 3168(%rdx)
	movq	input, %rax
	cmpq	3160(%rax), %rcx
	jne	.LBB22_77
# %bb.76:                               # %if.then321
	movabsq	$.L.str.191, %rdi
	callq	no_mem_exit
.LBB22_77:                              # %if.end322
	xorl	%eax, %eax
	movq	input, %rcx
	cmpq	3168(%rcx), %rax
	jne	.LBB22_79
# %bb.78:                               # %if.then326
	movabsq	$.L.str.192, %rdi
	callq	no_mem_exit
.LBB22_79:                              # %if.end327
	movl	$0, -4(%rbp)
.LBB22_80:                              # %for.cond328
                                        # =>This Inner Loop Header: Depth=1
	movl	-4(%rbp), %eax
	movq	input, %rcx
	cmpl	3152(%rcx), %eax
	jge	.LBB22_83
# %bb.81:                               # %for.body332
                                        #   in Loop: Header=BB22_80 Depth=1
	movq	-16(%rbp), %rdi
	movq	input, %rax
	movq	3160(%rax), %rdx
	movslq	-4(%rbp), %rax
	shlq	$2, %rax
	addq	%rax, %rdx
	movabsq	$.L.str.170, %rsi
	movb	$0, %al
	callq	__isoc99_fscanf
	movq	-16(%rbp), %rdi
	movabsq	$.L.str.190, %rsi
	movb	$0, %al
	callq	__isoc99_fscanf
	movq	-16(%rbp), %rdi
	movq	input, %rax
	movq	3168(%rax), %rdx
	movslq	-4(%rbp), %rax
	shlq	$2, %rax
	addq	%rax, %rdx
	movabsq	$.L.str.170, %rsi
	movb	$0, %al
	callq	__isoc99_fscanf
	movq	-16(%rbp), %rdi
	movabsq	$.L.str.190, %rsi
	movb	$0, %al
	callq	__isoc99_fscanf
# %bb.82:                               # %for.inc343
                                        #   in Loop: Header=BB22_80 Depth=1
	movl	-4(%rbp), %eax
	addl	$1, %eax
	movl	%eax, -4(%rbp)
	jmp	.LBB22_80
.LBB22_83:                              # %for.end345
	jmp	.LBB22_97
.LBB22_84:                              # %if.else346
	movq	input, %rax
	cmpl	$6, 3156(%rax)
	jne	.LBB22_96
# %bb.85:                               # %if.then350
	movq	input, %rax
	cmpl	$0, 2880(%rax)
	movb	$1, %al
	jne	.LBB22_87
# %bb.86:                               # %lor.rhs
	movq	input, %rax
	cmpl	$0, 2884(%rax)
	setne	%al
.LBB22_87:                              # %lor.end
	xorb	$-1, %al
	andb	$1, %al
	movzbl	%al, %eax
	movl	%eax, -40(%rbp)
	movq	input, %rax
	movl	64(%rax), %eax
	movq	img, %rcx
	addl	72728(%rcx), %eax
	cltd
	movl	$16, %ecx
	idivl	%ecx
	movl	%eax, -24(%rbp)
	movq	input, %rax
	movl	68(%rax), %eax
	movq	img, %rdx
	addl	72732(%rdx), %eax
	cltd
	idivl	%ecx
	movl	%eax, -36(%rbp)
	movl	-36(%rbp), %eax
	movl	$2, %ecx
	subl	-40(%rbp), %ecx
	cltd
	idivl	%ecx
	movl	%eax, -20(%rbp)
	movslq	-20(%rbp), %rdi
	shlq	$0, %rdi
	movslq	-24(%rbp), %rax
	imulq	%rax, %rdi
	callq	malloc
	xorl	%ecx, %ecx
	movq	input, %rdx
	movq	%rax, 3176(%rdx)
	movq	input, %rax
	cmpq	3176(%rax), %rcx
	jne	.LBB22_89
# %bb.88:                               # %if.then372
	movabsq	$.L.str.193, %rdi
	callq	no_mem_exit
.LBB22_89:                              # %if.end373
	movl	$0, -4(%rbp)
.LBB22_90:                              # %for.cond374
                                        # =>This Inner Loop Header: Depth=1
	movl	-4(%rbp), %eax
	movl	-20(%rbp), %ecx
	imull	-24(%rbp), %ecx
	cmpl	%ecx, %eax
	jge	.LBB22_95
# %bb.91:                               # %for.body378
                                        #   in Loop: Header=BB22_90 Depth=1
	movq	-16(%rbp), %rdi
	movabsq	$.L.str.170, %rsi
	leaq	-48(%rbp), %rdx
	movb	$0, %al
	callq	__isoc99_fscanf
	movl	-48(%rbp), %eax
	movq	input, %rcx
	movq	3176(%rcx), %rcx
	movslq	-4(%rbp), %rdx
	movb	%al, (%rcx,%rdx)
	movq	input, %rax
	movq	3176(%rax), %rax
	movslq	-4(%rbp), %rcx
	movzbl	(%rax,%rcx), %eax
	movq	input, %rcx
	cmpl	3152(%rcx), %eax
	jle	.LBB22_93
# %bb.92:                               # %if.then390
                                        #   in Loop: Header=BB22_90 Depth=1
	movq	input, %rcx
	addq	$2952, %rcx             # imm = 0xB88
	movabsq	$errortext, %rdi
	movl	$300, %esi              # imm = 0x12C
	movabsq	$.L.str.194, %rdx
	movb	$0, %al
	callq	snprintf
	movabsq	$errortext, %rdi
	movl	$500, %esi              # imm = 0x1F4
	callq	error
.LBB22_93:                              # %if.end394
                                        #   in Loop: Header=BB22_90 Depth=1
	movq	-16(%rbp), %rdi
	movabsq	$.L.str.190, %rsi
	movb	$0, %al
	callq	__isoc99_fscanf
# %bb.94:                               # %for.inc396
                                        #   in Loop: Header=BB22_90 Depth=1
	movl	-4(%rbp), %eax
	addl	$1, %eax
	movl	%eax, -4(%rbp)
	jmp	.LBB22_90
.LBB22_95:                              # %for.end398
	jmp	.LBB22_96
.LBB22_96:                              # %if.end399
	jmp	.LBB22_97
.LBB22_97:                              # %if.end400
	jmp	.LBB22_98
.LBB22_98:                              # %if.end401
	movq	-16(%rbp), %rdi
	callq	fclose
.LBB22_99:                              # %if.end403
	jmp	.LBB22_100
.LBB22_100:                             # %if.end404
	movq	input, %rax
	cmpl	$0, 2348(%rax)
	je	.LBB22_105
# %bb.101:                              # %land.lhs.true406
	movq	input, %rax
	cmpl	$0, 1320(%rax)
	je	.LBB22_105
# %bb.102:                              # %land.lhs.true408
	movq	input, %rax
	cmpl	$0, 2880(%rax)
	jne	.LBB22_104
# %bb.103:                              # %lor.lhs.false411
	movq	input, %rax
	cmpl	$0, 2884(%rax)
	je	.LBB22_105
.LBB22_104:                             # %if.then414
	movabsq	$errortext, %rdi
	movl	$300, %esi              # imm = 0x12C
	movabsq	$.L.str.195, %rdx
	movb	$0, %al
	callq	snprintf
	movabsq	$errortext, %rdi
	movl	$400, %esi              # imm = 0x190
	callq	error
.LBB22_105:                             # %if.end416
	movq	input, %rax
	cmpl	$0, 2352(%rax)
	je	.LBB22_110
# %bb.106:                              # %land.lhs.true418
	movq	input, %rax
	cmpl	$0, 1320(%rax)
	je	.LBB22_110
# %bb.107:                              # %land.lhs.true421
	movq	input, %rax
	cmpl	$0, 2880(%rax)
	jne	.LBB22_109
# %bb.108:                              # %lor.lhs.false424
	movq	input, %rax
	cmpl	$0, 2884(%rax)
	je	.LBB22_110
.LBB22_109:                             # %if.then427
	movabsq	$errortext, %rdi
	movl	$300, %esi              # imm = 0x12C
	movabsq	$.L.str.196, %rdx
	movb	$0, %al
	callq	snprintf
	movabsq	$errortext, %rdi
	movl	$400, %esi              # imm = 0x190
	callq	error
.LBB22_110:                             # %if.end429
	movq	input, %rax
	cmpl	$0, 2880(%rax)
	je	.LBB22_114
# %bb.111:                              # %land.lhs.true433
	movq	input, %rax
	cmpl	$2, 2880(%rax)
	je	.LBB22_114
# %bb.112:                              # %land.lhs.true437
	movq	input, %rax
	cmpl	$1, 2880(%rax)
	je	.LBB22_114
# %bb.113:                              # %if.then441
	movq	input, %rax
	movl	2880(%rax), %ecx
	movabsq	$errortext, %rdi
	movl	$300, %esi              # imm = 0x12C
	movabsq	$.L.str.197, %rdx
	movb	$0, %al
	callq	snprintf
	movabsq	$errortext, %rdi
	movl	$400, %esi              # imm = 0x190
	callq	error
.LBB22_114:                             # %if.end444
	movq	input, %rax
	cmpl	$0, 2884(%rax)
	je	.LBB22_118
# %bb.115:                              # %land.lhs.true448
	movq	input, %rax
	cmpl	$2, 2884(%rax)
	je	.LBB22_118
# %bb.116:                              # %land.lhs.true452
	movq	input, %rax
	cmpl	$1, 2884(%rax)
	je	.LBB22_118
# %bb.117:                              # %if.then456
	movq	input, %rax
	movl	2884(%rax), %ecx
	movabsq	$errortext, %rdi
	movl	$300, %esi              # imm = 0x12C
	movabsq	$.L.str.198, %rdx
	movb	$0, %al
	callq	snprintf
	movabsq	$errortext, %rdi
	movl	$400, %esi              # imm = 0x190
	callq	error
.LBB22_118:                             # %if.end459
	movq	input, %rax
	cmpl	$0, 2464(%rax)
	jne	.LBB22_121
# %bb.119:                              # %land.lhs.true461
	movq	input, %rax
	cmpl	$0, 2884(%rax)
	je	.LBB22_121
# %bb.120:                              # %if.then464
	movabsq	$errortext, %rdi
	movl	$300, %esi              # imm = 0x12C
	movabsq	$.L.str.199, %rdx
	movb	$0, %al
	callq	snprintf
	movabsq	$errortext, %rdi
	movl	$500, %esi              # imm = 0x1F4
	callq	error
.LBB22_121:                             # %if.end466
	movq	input, %rax
	cmpl	$1, 2464(%rax)
	jle	.LBB22_123
# %bb.122:                              # %if.then470
	movabsq	$errortext, %rdi
	movl	$300, %esi              # imm = 0x12C
	movabsq	$.L.str.200, %rdx
	movb	$0, %al
	callq	snprintf
	movabsq	$errortext, %rdi
	movl	$500, %esi              # imm = 0x1F4
	callq	error
.LBB22_123:                             # %if.end472
	movq	input, %rax
	movl	2912(%rax), %eax
	movq	input, %rcx
	cmpl	36(%rcx), %eax
	jge	.LBB22_125
# %bb.124:                              # %lor.lhs.false475
	movq	input, %rax
	cmpl	$0, 2912(%rax)
	jge	.LBB22_126
.LBB22_125:                             # %if.then479
	movq	input, %rax
	movl	2912(%rax), %ecx
	movq	input, %rax
	movl	36(%rax), %r8d
	movabsq	$errortext, %rdi
	movl	$300, %esi              # imm = 0x12C
	movabsq	$.L.str.201, %rdx
	movb	$0, %al
	callq	snprintf
	movabsq	$errortext, %rdi
	movl	$500, %esi              # imm = 0x1F4
	callq	error
.LBB22_126:                             # %if.end483
	movq	input, %rax
	cmpl	$0, 2912(%rax)
	jle	.LBB22_129
# %bb.127:                              # %land.lhs.true487
	movq	input, %rax
	cmpl	$0, 2360(%rax)
	jne	.LBB22_129
# %bb.128:                              # %if.then490
	movabsq	$errortext, %rdi
	movl	$300, %esi              # imm = 0x12C
	movabsq	$.L.str.202, %rdx
	movb	$0, %al
	callq	snprintf
	movabsq	$errortext, %rdi
	movl	$500, %esi              # imm = 0x1F4
	callq	error
.LBB22_129:                             # %if.end492
	movq	input, %rax
	cmpl	$0, 2880(%rax)
	jne	.LBB22_131
# %bb.130:                              # %lor.lhs.false495
	movq	input, %rax
	cmpl	$0, 2884(%rax)
	je	.LBB22_133
.LBB22_131:                             # %land.lhs.true498
	movq	input, %rax
	cmpl	$1, 2940(%rax)
	jne	.LBB22_133
# %bb.132:                              # %if.then501
	movabsq	$errortext, %rdi
	movl	$300, %esi              # imm = 0x12C
	movabsq	$.L.str.203, %rdx
	movb	$0, %al
	callq	snprintf
	movabsq	$errortext, %rdi
	movl	$500, %esi              # imm = 0x1F4
	callq	error
.LBB22_133:                             # %if.end503
	movq	input, %rax
	cmpl	$1, 2360(%rax)
	je	.LBB22_136
# %bb.134:                              # %land.lhs.true507
	movq	input, %rax
	cmpl	$1, 2940(%rax)
	jne	.LBB22_136
# %bb.135:                              # %if.then511
	movabsq	$errortext, %rdi
	movl	$300, %esi              # imm = 0x12C
	movabsq	$.L.str.204, %rdx
	movb	$0, %al
	callq	snprintf
	movabsq	$errortext, %rdi
	movl	$500, %esi              # imm = 0x1F4
	callq	error
.LBB22_136:                             # %if.end513
	movq	input, %rax
	cmpl	$0, 1284(%rax)
	jg	.LBB22_138
# %bb.137:                              # %lor.lhs.false516
	movq	input, %rax
	cmpl	$0, 1288(%rax)
	jle	.LBB22_140
.LBB22_138:                             # %land.lhs.true519
	movq	input, %rax
	cmpl	$0, 2884(%rax)
	je	.LBB22_140
# %bb.139:                              # %if.then522
	movabsq	$.L.str.205, %rdi
	movb	$0, %al
	callq	printf
	movabsq	$errortext, %rdi
	movl	$500, %esi              # imm = 0x1F4
	callq	error
.LBB22_140:                             # %if.end524
	movq	input, %rax
	cmpl	$0, 2912(%rax)
	jle	.LBB22_143
# %bb.141:                              # %land.lhs.true528
	movq	input, %rax
	cmpl	$0, 1284(%rax)
	jle	.LBB22_143
# %bb.142:                              # %if.then532
	movabsq	$errortext, %rdi
	movl	$300, %esi              # imm = 0x12C
	movabsq	$.L.str.206, %rdx
	movb	$0, %al
	callq	snprintf
	movabsq	$errortext, %rdi
	movl	$500, %esi              # imm = 0x1F4
	callq	error
.LBB22_143:                             # %if.end534
	movq	input, %rax
	cmpl	$0, 3152(%rax)
	jle	.LBB22_148
# %bb.144:                              # %if.then538
	movq	input, %rax
	cmpl	$3, 3156(%rax)
	jl	.LBB22_147
# %bb.145:                              # %land.lhs.true542
	movq	input, %rax
	cmpl	$5, 3156(%rax)
	jg	.LBB22_147
# %bb.146:                              # %if.then546
	movq	input, %rax
	movl	$1, 3152(%rax)
.LBB22_147:                             # %if.end548
	jmp	.LBB22_148
.LBB22_148:                             # %if.end549
	movq	input, %rax
	cmpl	$0, 3236(%rax)
	je	.LBB22_152
# %bb.149:                              # %if.then551
	movq	input, %rax
	movl	68(%rax), %eax
	movq	img, %rcx
	addl	72732(%rcx), %eax
	movq	input, %rcx
	movl	64(%rcx), %ecx
	movq	img, %rdx
	addl	72728(%rdx), %ecx
	imull	%ecx, %eax
	cltd
	movl	$256, %ecx              # imm = 0x100
	idivl	%ecx
	movq	input, %rcx
	cltd
	idivl	3248(%rcx)
	cmpl	$0, %edx
	je	.LBB22_151
# %bb.150:                              # %if.then563
	movabsq	$errortext, %rdi
	movl	$300, %esi              # imm = 0x12C
	movabsq	$.L.str.207, %rdx
	movb	$0, %al
	callq	snprintf
	movabsq	$errortext, %rdi
	movl	$500, %esi              # imm = 0x1F4
	callq	error
.LBB22_151:                             # %if.end565
	jmp	.LBB22_152
.LBB22_152:                             # %if.end566
	movq	input, %rax
	cmpl	$0, 1236(%rax)
	je	.LBB22_158
# %bb.153:                              # %land.lhs.true569
	movq	input, %rax
	cmpl	$0, 1316(%rax)
	je	.LBB22_158
# %bb.154:                              # %land.lhs.true572
	movq	input, %rax
	cmpl	$0, 1228(%rax)
	je	.LBB22_158
# %bb.155:                              # %land.lhs.true574
	movq	input, %rax
	cmpl	$0, 1224(%rax)
	je	.LBB22_158
# %bb.156:                              # %land.lhs.true576
	movq	input, %rax
	cmpl	$0, 3208(%rax)
	je	.LBB22_158
# %bb.157:                              # %if.then579
	movabsq	$.L.str.208, %rdi
	movl	$4294966296, %esi       # imm = 0xFFFFFC18
	callq	error
.LBB22_158:                             # %if.end580
	movq	input, %rax
	cmpl	$0, 1248(%rax)
	jne	.LBB22_162
# %bb.159:                              # %land.lhs.true583
	movq	input, %rax
	cmpl	$2, 36(%rax)
	jge	.LBB22_162
# %bb.160:                              # %land.lhs.true587
	movq	input, %rax
	cmpl	$0, 1236(%rax)
	jle	.LBB22_162
# %bb.161:                              # %if.then591
	movabsq	$.L.str.209, %rdi
	movl	$4294966296, %esi       # imm = 0xFFFFFC18
	callq	error
.LBB22_162:                             # %if.end592
	movq	input, %rax
	cmpl	$0, 3220(%rax)
	je	.LBB22_165
# %bb.163:                              # %land.lhs.true594
	movq	input, %rax
	cmpl	$0, 1272(%rax)
	je	.LBB22_165
# %bb.164:                              # %if.then596
	movabsq	$errortext, %rdi
	movl	$300, %esi              # imm = 0x12C
	movabsq	$.L.str.210, %rdx
	movb	$0, %al
	callq	snprintf
	movabsq	$errortext, %rdi
	movl	$500, %esi              # imm = 0x1F4
	callq	error
.LBB22_165:                             # %if.end598
	movq	input, %rax
	cmpl	$0, 3220(%rax)
	je	.LBB22_169
# %bb.166:                              # %land.lhs.true601
	movq	input, %rax
	cmpl	$100, (%rax)
	jl	.LBB22_168
# %bb.167:                              # %lor.lhs.false604
	movq	input, %rax
	cmpl	$144, (%rax)
	jle	.LBB22_169
.LBB22_168:                             # %if.then608
	movabsq	$errortext, %rdi
	movl	$300, %esi              # imm = 0x12C
	movabsq	$.L.str.211, %rdx
	movl	$100, %ecx
	movl	$144, %r8d
	movb	$0, %al
	callq	snprintf
	movabsq	$errortext, %rdi
	movl	$500, %esi              # imm = 0x1F4
	callq	error
.LBB22_169:                             # %if.end610
	movq	input, %rax
	cmpl	$0, 3256(%rax)
	je	.LBB22_173
# %bb.170:                              # %land.lhs.true612
	movq	input, %rax
	cmpl	$100, (%rax)
	jl	.LBB22_172
# %bb.171:                              # %lor.lhs.false616
	movq	input, %rax
	cmpl	$144, (%rax)
	jle	.LBB22_173
.LBB22_172:                             # %if.then620
	movabsq	$errortext, %rdi
	movl	$300, %esi              # imm = 0x12C
	movabsq	$.L.str.212, %rdx
	movl	$100, %ecx
	movl	$144, %r8d
	movb	$0, %al
	callq	snprintf
	movabsq	$errortext, %rdi
	movl	$500, %esi              # imm = 0x1F4
	callq	error
.LBB22_173:                             # %if.end622
	movq	input, %rax
	cmpl	$2, 72(%rax)
	jne	.LBB22_176
# %bb.174:                              # %land.lhs.true625
	movq	input, %rax
	cmpl	$122, (%rax)
	jge	.LBB22_176
# %bb.175:                              # %if.then629
	movabsq	$errortext, %rdi
	movl	$300, %esi              # imm = 0x12C
	movabsq	$.L.str.213, %rdx
	movl	$122, %ecx
	movl	$144, %r8d
	movb	$0, %al
	callq	snprintf
	movabsq	$errortext, %rdi
	movl	$500, %esi              # imm = 0x1F4
	callq	error
.LBB22_176:                             # %if.end631
	movq	input, %rax
	cmpl	$3, 72(%rax)
	jne	.LBB22_179
# %bb.177:                              # %land.lhs.true635
	movq	input, %rax
	cmpl	$144, (%rax)
	jge	.LBB22_179
# %bb.178:                              # %if.then639
	movabsq	$errortext, %rdi
	movl	$300, %esi              # imm = 0x12C
	movabsq	$.L.str.214, %rdx
	movl	$144, %ecx
	movb	$0, %al
	callq	snprintf
	movabsq	$errortext, %rdi
	movl	$500, %esi              # imm = 0x1F4
	callq	error
.LBB22_179:                             # %if.end641
	movq	input, %rax
	cmpl	$3, 72(%rax)
	je	.LBB22_182
# %bb.180:                              # %land.lhs.true645
	movq	input, %rax
	cmpl	$0, 3328(%rax)
	je	.LBB22_182
# %bb.181:                              # %if.then647
	movabsq	$errortext, %rdi
	movl	$300, %esi              # imm = 0x12C
	movabsq	$.L.str.215, %rdx
	movb	$0, %al
	callq	snprintf
	movabsq	$errortext, %rdi
	movl	$500, %esi              # imm = 0x1F4
	callq	error
.LBB22_182:                             # %if.end649
	callq	ProfileCheck
	callq	LevelCheck
	cmpl	$1253769803, -44(%rbp)  # imm = 0x4ABB024B
	jne	.LBB22_184
.LBB22_183:
	addq	$48, %rsp
	popq	%rbp
	.cfi_def_cfa %rsp, 8
	retq
.LBB22_184:                             # %func_exit
	.cfi_def_cfa %rbp, 16
	callq	detect_breach
	jmp	.LBB22_183
.Lfunc_end22:
	.size	PatchInp.10, .Lfunc_end22-PatchInp.10
	.cfi_endproc
                                        # -- End function
	.p2align	4, 0x90         # -- Begin function TestEncoderParams.11
	.type	TestEncoderParams.11,@function
TestEncoderParams.11:                   # @TestEncoderParams.11
	.cfi_startproc
# %bb.0:                                # %entry
	pushq	%rbp
	.cfi_def_cfa_offset 16
	.cfi_offset %rbp, -16
	movq	%rsp, %rbp
	.cfi_def_cfa_register %rbp
	subq	$16, %rsp
	movl	$414016609, -12(%rbp)   # imm = 0x18AD6461
	movl	%edi, -8(%rbp)
	movl	$0, -4(%rbp)
.LBB23_1:                               # %while.cond
                                        # =>This Inner Loop Header: Depth=1
	movslq	-4(%rbp), %rax
	imulq	$56, %rax, %rax
	movabsq	$Map, %rcx
	addq	%rax, %rcx
	cmpq	$0, (%rcx)
	je	.LBB23_36
# %bb.2:                                # %while.body
                                        #   in Loop: Header=BB23_1 Depth=1
	movslq	-4(%rbp), %rax
	imulq	$56, %rax, %rax
	movabsq	$Map, %rcx
	addq	%rax, %rcx
	cmpl	$1, 32(%rcx)
	jne	.LBB23_15
# %bb.3:                                # %if.then
                                        #   in Loop: Header=BB23_1 Depth=1
	movslq	-4(%rbp), %rax
	imulq	$56, %rax, %rax
	movabsq	$Map, %rcx
	addq	%rax, %rcx
	cmpl	$0, 16(%rcx)
	jne	.LBB23_8
# %bb.4:                                # %if.then7
                                        #   in Loop: Header=BB23_1 Depth=1
	movslq	-4(%rbp), %rax
	imulq	$56, %rax, %rax
	movabsq	$Map, %rcx
	movq	%rcx, %rdx
	addq	%rax, %rdx
	movq	8(%rdx), %rax
	movl	(%rax), %eax
	movslq	-4(%rbp), %rdx
	imulq	$56, %rdx, %rdx
	addq	%rdx, %rcx
	vcvttsd2si	40(%rcx), %ecx
	cmpl	%ecx, %eax
	jl	.LBB23_6
# %bb.5:                                # %lor.lhs.false
                                        #   in Loop: Header=BB23_1 Depth=1
	movslq	-4(%rbp), %rax
	imulq	$56, %rax, %rax
	movabsq	$Map, %rcx
	movq	%rcx, %rdx
	addq	%rax, %rdx
	movq	8(%rdx), %rax
	movl	(%rax), %eax
	movslq	-4(%rbp), %rdx
	imulq	$56, %rdx, %rdx
	addq	%rdx, %rcx
	vcvttsd2si	48(%rcx), %ecx
	cmpl	%ecx, %eax
	jle	.LBB23_7
.LBB23_6:                               # %if.then22
                                        #   in Loop: Header=BB23_1 Depth=1
	movslq	-4(%rbp), %rax
	imulq	$56, %rax, %rax
	movabsq	$Map, %rdx
	movq	%rdx, %rcx
	addq	%rax, %rcx
	movq	(%rcx), %rcx
	movslq	-4(%rbp), %rax
	imulq	$56, %rax, %rax
	movq	%rdx, %rsi
	addq	%rax, %rsi
	vcvttsd2si	40(%rsi), %r8d
	movslq	-4(%rbp), %rax
	imulq	$56, %rax, %rax
	addq	%rax, %rdx
	vcvttsd2si	48(%rdx), %r9d
	movabsq	$errortext, %rdi
	movl	$300, %esi              # imm = 0x12C
	movabsq	$.L.str.216, %rdx
	movb	$0, %al
	callq	snprintf
	movabsq	$errortext, %rdi
	movl	$400, %esi              # imm = 0x190
	callq	error
.LBB23_7:                               # %if.end
                                        #   in Loop: Header=BB23_1 Depth=1
	jmp	.LBB23_14
.LBB23_8:                               # %if.else
                                        #   in Loop: Header=BB23_1 Depth=1
	movslq	-4(%rbp), %rax
	imulq	$56, %rax, %rax
	movabsq	$Map, %rcx
	addq	%rax, %rcx
	cmpl	$2, 16(%rcx)
	jne	.LBB23_13
# %bb.9:                                # %if.then39
                                        #   in Loop: Header=BB23_1 Depth=1
	movslq	-4(%rbp), %rax
	imulq	$56, %rax, %rax
	movabsq	$Map, %rcx
	movq	%rcx, %rdx
	addq	%rax, %rdx
	movq	8(%rdx), %rax
	vmovsd	(%rax), %xmm0           # xmm0 = mem[0],zero
	movslq	-4(%rbp), %rax
	imulq	$56, %rax, %rax
	addq	%rax, %rcx
	vmovsd	40(%rcx), %xmm1         # xmm1 = mem[0],zero
	vucomisd	%xmm0, %xmm1
	ja	.LBB23_11
# %bb.10:                               # %lor.lhs.false48
                                        #   in Loop: Header=BB23_1 Depth=1
	movslq	-4(%rbp), %rax
	imulq	$56, %rax, %rax
	movabsq	$Map, %rcx
	movq	%rcx, %rdx
	addq	%rax, %rdx
	movq	8(%rdx), %rax
	vmovsd	(%rax), %xmm0           # xmm0 = mem[0],zero
	movslq	-4(%rbp), %rax
	imulq	$56, %rax, %rax
	addq	%rax, %rcx
	vucomisd	48(%rcx), %xmm0
	jbe	.LBB23_12
.LBB23_11:                              # %if.then57
                                        #   in Loop: Header=BB23_1 Depth=1
	movslq	-4(%rbp), %rax
	imulq	$56, %rax, %rax
	movabsq	$Map, %rdx
	movq	%rdx, %rcx
	addq	%rax, %rcx
	movq	(%rcx), %rcx
	movslq	-4(%rbp), %rax
	imulq	$56, %rax, %rax
	movq	%rdx, %rsi
	addq	%rax, %rsi
	vmovsd	40(%rsi), %xmm0         # xmm0 = mem[0],zero
	movslq	-4(%rbp), %rax
	imulq	$56, %rax, %rax
	addq	%rax, %rdx
	vmovsd	48(%rdx), %xmm1         # xmm1 = mem[0],zero
	movabsq	$errortext, %rdi
	movl	$300, %esi              # imm = 0x12C
	movabsq	$.L.str.217, %rdx
	movb	$2, %al
	callq	snprintf
	movabsq	$errortext, %rdi
	movl	$400, %esi              # imm = 0x190
	callq	error
.LBB23_12:                              # %if.end68
                                        #   in Loop: Header=BB23_1 Depth=1
	jmp	.LBB23_13
.LBB23_13:                              # %if.end69
                                        #   in Loop: Header=BB23_1 Depth=1
	jmp	.LBB23_14
.LBB23_14:                              # %if.end70
                                        #   in Loop: Header=BB23_1 Depth=1
	jmp	.LBB23_35
.LBB23_15:                              # %if.else71
                                        #   in Loop: Header=BB23_1 Depth=1
	movslq	-4(%rbp), %rax
	imulq	$56, %rax, %rax
	movabsq	$Map, %rcx
	addq	%rax, %rcx
	cmpl	$2, 32(%rcx)
	jne	.LBB23_26
# %bb.16:                               # %if.then77
                                        #   in Loop: Header=BB23_1 Depth=1
	movslq	-4(%rbp), %rax
	imulq	$56, %rax, %rax
	movabsq	$Map, %rcx
	addq	%rax, %rcx
	cmpl	$0, 16(%rcx)
	jne	.LBB23_20
# %bb.17:                               # %if.then83
                                        #   in Loop: Header=BB23_1 Depth=1
	movslq	-4(%rbp), %rax
	imulq	$56, %rax, %rax
	movabsq	$Map, %rcx
	movq	%rcx, %rdx
	addq	%rax, %rdx
	movq	8(%rdx), %rax
	movl	(%rax), %eax
	movslq	-4(%rbp), %rdx
	imulq	$56, %rdx, %rdx
	addq	%rdx, %rcx
	vcvttsd2si	40(%rcx), %ecx
	cmpl	%ecx, %eax
	jge	.LBB23_19
# %bb.18:                               # %if.then93
                                        #   in Loop: Header=BB23_1 Depth=1
	movslq	-4(%rbp), %rax
	imulq	$56, %rax, %rax
	movabsq	$Map, %rdx
	movq	%rdx, %rcx
	addq	%rax, %rcx
	movq	(%rcx), %rcx
	movslq	-4(%rbp), %rax
	imulq	$56, %rax, %rax
	addq	%rax, %rdx
	vcvttsd2si	40(%rdx), %r8d
	movabsq	$errortext, %rdi
	movl	$300, %esi              # imm = 0x12C
	movabsq	$.L.str.218, %rdx
	movb	$0, %al
	callq	snprintf
	movabsq	$errortext, %rdi
	movl	$400, %esi              # imm = 0x190
	callq	error
.LBB23_19:                              # %if.end102
                                        #   in Loop: Header=BB23_1 Depth=1
	jmp	.LBB23_25
.LBB23_20:                              # %if.else103
                                        #   in Loop: Header=BB23_1 Depth=1
	movslq	-4(%rbp), %rax
	imulq	$56, %rax, %rax
	movabsq	$Map, %rcx
	addq	%rax, %rcx
	cmpl	$2, 16(%rcx)
	jne	.LBB23_24
# %bb.21:                               # %if.then109
                                        #   in Loop: Header=BB23_1 Depth=1
	movslq	-4(%rbp), %rax
	imulq	$56, %rax, %rax
	movabsq	$Map, %rcx
	movq	%rcx, %rdx
	addq	%rax, %rdx
	movq	8(%rdx), %rax
	vmovsd	(%rax), %xmm0           # xmm0 = mem[0],zero
	movslq	-4(%rbp), %rax
	imulq	$56, %rax, %rax
	addq	%rax, %rcx
	vmovsd	40(%rcx), %xmm1         # xmm1 = mem[0],zero
	vucomisd	%xmm0, %xmm1
	jbe	.LBB23_23
# %bb.22:                               # %if.then118
                                        #   in Loop: Header=BB23_1 Depth=1
	movslq	-4(%rbp), %rax
	imulq	$56, %rax, %rax
	movabsq	$Map, %rdx
	movq	%rdx, %rcx
	addq	%rax, %rcx
	movq	(%rcx), %rcx
	movslq	-4(%rbp), %rax
	imulq	$56, %rax, %rax
	addq	%rax, %rdx
	vmovsd	40(%rdx), %xmm0         # xmm0 = mem[0],zero
	movabsq	$errortext, %rdi
	movl	$300, %esi              # imm = 0x12C
	movabsq	$.L.str.219, %rdx
	movb	$1, %al
	callq	snprintf
	movabsq	$errortext, %rdi
	movl	$400, %esi              # imm = 0x190
	callq	error
.LBB23_23:                              # %if.end126
                                        #   in Loop: Header=BB23_1 Depth=1
	jmp	.LBB23_24
.LBB23_24:                              # %if.end127
                                        #   in Loop: Header=BB23_1 Depth=1
	jmp	.LBB23_25
.LBB23_25:                              # %if.end128
                                        #   in Loop: Header=BB23_1 Depth=1
	jmp	.LBB23_34
.LBB23_26:                              # %if.else129
                                        #   in Loop: Header=BB23_1 Depth=1
	movslq	-4(%rbp), %rax
	imulq	$56, %rax, %rax
	movabsq	$Map, %rcx
	addq	%rax, %rcx
	cmpl	$3, 32(%rcx)
	jne	.LBB23_33
# %bb.27:                               # %if.then135
                                        #   in Loop: Header=BB23_1 Depth=1
	movslq	-4(%rbp), %rax
	imulq	$56, %rax, %rax
	movabsq	$Map, %rcx
	addq	%rax, %rcx
	cmpl	$0, 16(%rcx)
	jne	.LBB23_32
# %bb.28:                               # %if.then141
                                        #   in Loop: Header=BB23_1 Depth=1
	movslq	-4(%rbp), %rax
	imulq	$56, %rax, %rax
	movabsq	$Map, %rcx
	movq	%rcx, %rdx
	addq	%rax, %rdx
	movq	8(%rdx), %rax
	movl	(%rax), %eax
	movslq	-4(%rbp), %rdx
	imulq	$56, %rdx, %rdx
	addq	%rdx, %rcx
	vmovsd	40(%rcx), %xmm0         # xmm0 = mem[0],zero
	vcvtsi2sdl	-8(%rbp), %xmm0, %xmm1
	vsubsd	%xmm1, %xmm0, %xmm0
	vcvttsd2si	%xmm0, %ecx
	cmpl	%ecx, %eax
	jl	.LBB23_30
# %bb.29:                               # %lor.lhs.false152
                                        #   in Loop: Header=BB23_1 Depth=1
	movslq	-4(%rbp), %rax
	imulq	$56, %rax, %rax
	movabsq	$Map, %rcx
	movq	%rcx, %rdx
	addq	%rax, %rdx
	movq	8(%rdx), %rax
	movl	(%rax), %eax
	movslq	-4(%rbp), %rdx
	imulq	$56, %rdx, %rdx
	addq	%rdx, %rcx
	vcvttsd2si	48(%rcx), %ecx
	cmpl	%ecx, %eax
	jle	.LBB23_31
.LBB23_30:                              # %if.then162
                                        #   in Loop: Header=BB23_1 Depth=1
	movslq	-4(%rbp), %rax
	imulq	$56, %rax, %rax
	movabsq	$Map, %rdx
	movq	%rdx, %rcx
	addq	%rax, %rcx
	movq	(%rcx), %rcx
	movslq	-4(%rbp), %rax
	imulq	$56, %rax, %rax
	movq	%rdx, %rsi
	addq	%rax, %rsi
	vmovsd	40(%rsi), %xmm0         # xmm0 = mem[0],zero
	vcvtsi2sdl	-8(%rbp), %xmm0, %xmm1
	vsubsd	%xmm1, %xmm0, %xmm0
	vcvttsd2si	%xmm0, %r8d
	movslq	-4(%rbp), %rax
	imulq	$56, %rax, %rax
	addq	%rax, %rdx
	vcvttsd2si	48(%rdx), %r9d
	movabsq	$errortext, %rdi
	movl	$300, %esi              # imm = 0x12C
	movabsq	$.L.str.216, %rdx
	movb	$0, %al
	callq	snprintf
	movabsq	$errortext, %rdi
	movl	$400, %esi              # imm = 0x190
	callq	error
.LBB23_31:                              # %if.end177
                                        #   in Loop: Header=BB23_1 Depth=1
	jmp	.LBB23_32
.LBB23_32:                              # %if.end178
                                        #   in Loop: Header=BB23_1 Depth=1
	jmp	.LBB23_33
.LBB23_33:                              # %if.end179
                                        #   in Loop: Header=BB23_1 Depth=1
	jmp	.LBB23_34
.LBB23_34:                              # %if.end180
                                        #   in Loop: Header=BB23_1 Depth=1
	jmp	.LBB23_35
.LBB23_35:                              # %if.end181
                                        #   in Loop: Header=BB23_1 Depth=1
	movl	-4(%rbp), %eax
	addl	$1, %eax
	movl	%eax, -4(%rbp)
	jmp	.LBB23_1
.LBB23_36:                              # %while.end
	cmpl	$414016609, -12(%rbp)   # imm = 0x18AD6461
	jne	.LBB23_38
.LBB23_37:
	movl	$4294967295, %eax       # imm = 0xFFFFFFFF
	addq	$16, %rsp
	popq	%rbp
	.cfi_def_cfa %rsp, 8
	retq
.LBB23_38:                              # %func_exit
	.cfi_def_cfa %rbp, 16
	callq	detect_breach
	jmp	.LBB23_37
.Lfunc_end23:
	.size	TestEncoderParams.11, .Lfunc_end23-TestEncoderParams.11
	.cfi_endproc
                                        # -- End function
	.globl	GetConfigFileContent.12 # -- Begin function GetConfigFileContent.12
	.p2align	4, 0x90
	.type	GetConfigFileContent.12,@function
GetConfigFileContent.12:                # @GetConfigFileContent.12
	.cfi_startproc
# %bb.0:                                # %entry
	pushq	%rbp
	.cfi_def_cfa_offset 16
	.cfi_offset %rbp, -16
	movq	%rsp, %rbp
	.cfi_def_cfa_register %rbp
	pushq	%rbx
	subq	$56, %rsp
	.cfi_offset %rbx, -24
	movl	$177558964, -52(%rbp)   # imm = 0xA9555B4
	movq	%rdi, -32(%rbp)
	movq	-32(%rbp), %rdi
	movabsq	$.L.str.12, %rsi
	callq	fopen
	xorl	%ecx, %ecx
	movq	%rax, -24(%rbp)
	cmpq	%rax, %rcx
	jne	.LBB24_2
# %bb.1:                                # %if.then
	movq	-32(%rbp), %rcx
	movabsq	$errortext, %rdi
	movl	$300, %esi              # imm = 0x12C
	movabsq	$.L.str.13, %rdx
	movb	$0, %al
	callq	snprintf
	movq	$0, -40(%rbp)
	jmp	.LBB24_12
.LBB24_2:                               # %if.end
	movq	-24(%rbp), %rdi
	xorl	%esi, %esi
	movl	$2, %edx
	callq	fseek
	xorl	%ecx, %ecx
	cmpl	%eax, %ecx
	je	.LBB24_4
# %bb.3:                                # %if.then4
	movq	-32(%rbp), %rcx
	movabsq	$errortext, %rdi
	movl	$300, %esi              # imm = 0x12C
	movabsq	$.L.str.14, %rdx
	movb	$0, %al
	callq	snprintf
	movq	$0, -40(%rbp)
	jmp	.LBB24_12
.LBB24_4:                               # %if.end6
	movq	-24(%rbp), %rdi
	callq	ftell
	movq	%rax, -16(%rbp)
	cmpq	$0, -16(%rbp)
	jl	.LBB24_6
# %bb.5:                                # %lor.lhs.false
	cmpq	$60000, -16(%rbp)       # imm = 0xEA60
	jle	.LBB24_7
.LBB24_6:                               # %if.then10
	movq	-16(%rbp), %rcx
	movq	-32(%rbp), %r8
	movabsq	$errortext, %rdi
	movl	$300, %esi              # imm = 0x12C
	movabsq	$.L.str.15, %rdx
	movb	$0, %al
	callq	snprintf
	movq	$0, -40(%rbp)
	jmp	.LBB24_12
.LBB24_7:                               # %if.end12
	movq	-24(%rbp), %rdi
	xorl	%esi, %esi
	xorl	%edx, %edx
	callq	fseek
	xorl	%ecx, %ecx
	cmpl	%eax, %ecx
	je	.LBB24_9
# %bb.8:                                # %if.then15
	movq	-32(%rbp), %rcx
	movabsq	$errortext, %rdi
	movl	$300, %esi              # imm = 0x12C
	movabsq	$.L.str.14, %rdx
	movb	$0, %al
	callq	snprintf
	movq	$0, -40(%rbp)
	jmp	.LBB24_12
.LBB24_9:                               # %if.end17
	movq	-16(%rbp), %rdi
	addq	$1, %rdi
	callq	malloc
	movq	%rax, -48(%rbp)
	cmpq	$0, %rax
	jne	.LBB24_11
# %bb.10:                               # %if.then20
	movabsq	$.L.str.16, %rdi
	callq	no_mem_exit
.LBB24_11:                              # %if.end21
	movq	-48(%rbp), %rdi
	movq	-16(%rbp), %rdx
	movq	-24(%rbp), %rcx
	movl	$1, %esi
	callq	fread
	movq	%rax, -16(%rbp)
	movq	-48(%rbp), %rax
	movq	-16(%rbp), %rcx
	movb	$0, (%rax,%rcx)
	movq	-24(%rbp), %rdi
	callq	fclose
	movq	-48(%rbp), %rax
	movq	%rax, -40(%rbp)
.LBB24_12:                              # %return
	movq	-40(%rbp), %rbx
	cmpl	$177558964, -52(%rbp)   # imm = 0xA9555B4
	jne	.LBB24_14
.LBB24_13:
	movq	%rbx, %rax
	addq	$56, %rsp
	popq	%rbx
	popq	%rbp
	.cfi_def_cfa %rsp, 8
	retq
.LBB24_14:                              # %func_exit
	.cfi_def_cfa %rbp, 16
	callq	detect_breach
	jmp	.LBB24_13
.Lfunc_end24:
	.size	GetConfigFileContent.12, .Lfunc_end24-GetConfigFileContent.12
	.cfi_endproc
                                        # -- End function
	.globl	CeilLog2.13             # -- Begin function CeilLog2.13
	.p2align	4, 0x90
	.type	CeilLog2.13,@function
CeilLog2.13:                            # @CeilLog2.13
	.cfi_startproc
# %bb.0:                                # %entry
	pushq	%rbp
	.cfi_def_cfa_offset 16
	.cfi_offset %rbp, -16
	movq	%rsp, %rbp
	.cfi_def_cfa_register %rbp
	pushq	%rbx
	subq	$24, %rsp
	.cfi_offset %rbx, -24
	movl	$2140629892, -20(%rbp)  # imm = 0x7F976B84
	movl	%edi, -24(%rbp)
	movl	-24(%rbp), %eax
	subl	$1, %eax
	movl	%eax, -12(%rbp)
	movl	$0, -16(%rbp)
.LBB25_1:                               # %while.cond
                                        # =>This Inner Loop Header: Depth=1
	cmpl	$0, -12(%rbp)
	je	.LBB25_3
# %bb.2:                                # %while.body
                                        #   in Loop: Header=BB25_1 Depth=1
	movl	-12(%rbp), %eax
	shrl	$1, %eax
	movl	%eax, -12(%rbp)
	movl	-16(%rbp), %eax
	addl	$1, %eax
	movl	%eax, -16(%rbp)
	jmp	.LBB25_1
.LBB25_3:                               # %while.end
	movl	-16(%rbp), %ebx
	cmpl	$2140629892, -20(%rbp)  # imm = 0x7F976B84
	jne	.LBB25_5
.LBB25_4:
	movl	%ebx, %eax
	addq	$24, %rsp
	popq	%rbx
	popq	%rbp
	.cfi_def_cfa %rsp, 8
	retq
.LBB25_5:                               # %func_exit
	.cfi_def_cfa %rbp, 16
	callq	detect_breach
	jmp	.LBB25_4
.Lfunc_end25:
	.size	CeilLog2.13, .Lfunc_end25-CeilLog2.13
	.cfi_endproc
                                        # -- End function
	.globl	CeilLog2.14             # -- Begin function CeilLog2.14
	.p2align	4, 0x90
	.type	CeilLog2.14,@function
CeilLog2.14:                            # @CeilLog2.14
	.cfi_startproc
# %bb.0:                                # %entry
	pushq	%rbp
	.cfi_def_cfa_offset 16
	.cfi_offset %rbp, -16
	movq	%rsp, %rbp
	.cfi_def_cfa_register %rbp
	pushq	%rbx
	subq	$24, %rsp
	.cfi_offset %rbx, -24
	movl	$1192952938, -20(%rbp)  # imm = 0x471B046A
	movl	%edi, -24(%rbp)
	movl	-24(%rbp), %eax
	subl	$1, %eax
	movl	%eax, -16(%rbp)
	movl	$0, -12(%rbp)
.LBB26_1:                               # %while.cond
                                        # =>This Inner Loop Header: Depth=1
	cmpl	$0, -16(%rbp)
	je	.LBB26_3
# %bb.2:                                # %while.body
                                        #   in Loop: Header=BB26_1 Depth=1
	movl	-16(%rbp), %eax
	shrl	$1, %eax
	movl	%eax, -16(%rbp)
	movl	-12(%rbp), %eax
	addl	$1, %eax
	movl	%eax, -12(%rbp)
	jmp	.LBB26_1
.LBB26_3:                               # %while.end
	movl	-12(%rbp), %ebx
	cmpl	$1192952938, -20(%rbp)  # imm = 0x471B046A
	jne	.LBB26_5
.LBB26_4:
	movl	%ebx, %eax
	addq	$24, %rsp
	popq	%rbx
	popq	%rbp
	.cfi_def_cfa %rsp, 8
	retq
.LBB26_5:                               # %func_exit
	.cfi_def_cfa %rbp, 16
	callq	detect_breach
	jmp	.LBB26_4
.Lfunc_end26:
	.size	CeilLog2.14, .Lfunc_end26-CeilLog2.14
	.cfi_endproc
                                        # -- End function
	.p2align	4, 0x90         # -- Begin function ParameterNameToMapIndex.15
	.type	ParameterNameToMapIndex.15,@function
ParameterNameToMapIndex.15:             # @ParameterNameToMapIndex.15
	.cfi_startproc
# %bb.0:                                # %entry
	pushq	%rbp
	.cfi_def_cfa_offset 16
	.cfi_offset %rbp, -16
	movq	%rsp, %rbp
	.cfi_def_cfa_register %rbp
	pushq	%rbx
	subq	$24, %rsp
	.cfi_offset %rbx, -24
	movl	$1833666575, -20(%rbp)  # imm = 0x6D4B880F
	movq	%rdi, -32(%rbp)
	movl	$0, -12(%rbp)
.LBB27_1:                               # %while.cond
                                        # =>This Inner Loop Header: Depth=1
	movslq	-12(%rbp), %rax
	imulq	$56, %rax, %rax
	movabsq	$Map, %rcx
	addq	%rax, %rcx
	cmpq	$0, (%rcx)
	je	.LBB27_6
# %bb.2:                                # %while.body
                                        #   in Loop: Header=BB27_1 Depth=1
	xorl	%ebx, %ebx
	movslq	-12(%rbp), %rax
	imulq	$56, %rax, %rax
	movabsq	$Map, %rcx
	addq	%rax, %rcx
	movq	(%rcx), %rdi
	movq	-32(%rbp), %rsi
	callq	strcmp
	cmpl	%eax, %ebx
	jne	.LBB27_4
# %bb.3:                                # %if.then
	movl	-12(%rbp), %eax
	movl	%eax, -16(%rbp)
	jmp	.LBB27_7
.LBB27_4:                               # %if.else
                                        #   in Loop: Header=BB27_1 Depth=1
	movl	-12(%rbp), %eax
	addl	$1, %eax
	movl	%eax, -12(%rbp)
# %bb.5:                                # %if.end
                                        #   in Loop: Header=BB27_1 Depth=1
	jmp	.LBB27_1
.LBB27_6:                               # %while.end
	movl	$-1, -16(%rbp)
.LBB27_7:                               # %return
	movl	-16(%rbp), %ebx
	cmpl	$1833666575, -20(%rbp)  # imm = 0x6D4B880F
	jne	.LBB27_9
.LBB27_8:
	movl	%ebx, %eax
	addq	$24, %rsp
	popq	%rbx
	popq	%rbp
	.cfi_def_cfa %rsp, 8
	retq
.LBB27_9:                               # %func_exit
	.cfi_def_cfa %rbp, 16
	callq	detect_breach
	jmp	.LBB27_8
.Lfunc_end27:
	.size	ParameterNameToMapIndex.15, .Lfunc_end27-ParameterNameToMapIndex.15
	.cfi_endproc
                                        # -- End function
	.p2align	4, 0x90         # -- Begin function ParseContent.16
	.type	ParseContent.16,@function
ParseContent.16:                        # @ParseContent.16
	.cfi_startproc
# %bb.0:                                # %entry
	pushq	%rbp
	.cfi_def_cfa_offset 16
	.cfi_offset %rbp, -16
	movq	%rsp, %rbp
	.cfi_def_cfa_register %rbp
	subq	$80080, %rsp            # imm = 0x138D0
	movl	$667476438, -44(%rbp)   # imm = 0x27C8E1D6
	movq	%rdi, -64(%rbp)
	movl	%esi, -36(%rbp)
	movl	$0, -24(%rbp)
	movl	$0, -28(%rbp)
	movl	$0, -20(%rbp)
	movq	-64(%rbp), %rax
	movq	%rax, -16(%rbp)
	movq	-64(%rbp), %rax
	movslq	-36(%rbp), %rcx
	addq	%rcx, %rax
	movq	%rax, -56(%rbp)
.LBB28_1:                               # %while.cond
                                        # =>This Loop Header: Depth=1
                                        #     Child Loop BB28_6 Depth 2
	movq	-16(%rbp), %rax
	cmpq	-56(%rbp), %rax
	jae	.LBB28_24
# %bb.2:                                # %while.body
                                        #   in Loop: Header=BB28_1 Depth=1
	movq	-16(%rbp), %rax
	movsbl	(%rax), %eax
	addl	$-9, %eax
	movl	%eax, %ecx
	subl	$26, %ecx
	ja	.LBB28_20
# %bb.3:                                # %while.body
                                        #   in Loop: Header=BB28_1 Depth=1
	movq	.LJTI28_0(,%rax,8), %rax
	jmpq	*%rax
.LBB28_4:                               # %sw.bb
                                        #   in Loop: Header=BB28_1 Depth=1
	movq	-16(%rbp), %rax
	addq	$1, %rax
	movq	%rax, -16(%rbp)
	jmp	.LBB28_23
.LBB28_5:                               # %sw.bb1
                                        #   in Loop: Header=BB28_1 Depth=1
	movq	-16(%rbp), %rax
	movb	$0, (%rax)
.LBB28_6:                               # %while.cond2
                                        #   Parent Loop BB28_1 Depth=1
                                        # =>  This Inner Loop Header: Depth=2
	xorl	%eax, %eax
	movq	-16(%rbp), %rcx
	movsbl	(%rcx), %ecx
	cmpl	$10, %ecx
	je	.LBB28_8
# %bb.7:                                # %land.rhs
                                        #   in Loop: Header=BB28_6 Depth=2
	movq	-16(%rbp), %rax
	cmpq	-56(%rbp), %rax
	setb	%al
.LBB28_8:                               # %land.end
                                        #   in Loop: Header=BB28_6 Depth=2
	testb	$1, %al
	jne	.LBB28_9
	jmp	.LBB28_10
.LBB28_9:                               # %while.body8
                                        #   in Loop: Header=BB28_6 Depth=2
	movq	-16(%rbp), %rax
	addq	$1, %rax
	movq	%rax, -16(%rbp)
	jmp	.LBB28_6
.LBB28_10:                              # %while.end
                                        #   in Loop: Header=BB28_1 Depth=1
	movl	$0, -28(%rbp)
	movl	$0, -20(%rbp)
	jmp	.LBB28_23
.LBB28_11:                              # %sw.bb10
                                        #   in Loop: Header=BB28_1 Depth=1
	movl	$0, -20(%rbp)
	movl	$0, -28(%rbp)
	movq	-16(%rbp), %rax
	movq	%rax, %rcx
	addq	$1, %rcx
	movq	%rcx, -16(%rbp)
	movb	$0, (%rax)
	jmp	.LBB28_23
.LBB28_12:                              # %sw.bb12
                                        #   in Loop: Header=BB28_1 Depth=1
	cmpl	$0, -28(%rbp)
	je	.LBB28_14
# %bb.13:                               # %if.then
                                        #   in Loop: Header=BB28_1 Depth=1
	movq	-16(%rbp), %rax
	addq	$1, %rax
	movq	%rax, -16(%rbp)
	jmp	.LBB28_15
.LBB28_14:                              # %if.else
                                        #   in Loop: Header=BB28_1 Depth=1
	movq	-16(%rbp), %rax
	movq	%rax, %rcx
	addq	$1, %rcx
	movq	%rcx, -16(%rbp)
	movb	$0, (%rax)
	movl	$0, -20(%rbp)
.LBB28_15:                              # %if.end
                                        #   in Loop: Header=BB28_1 Depth=1
	jmp	.LBB28_23
.LBB28_16:                              # %sw.bb15
                                        #   in Loop: Header=BB28_1 Depth=1
	movq	-16(%rbp), %rax
	movq	%rax, %rcx
	addq	$1, %rcx
	movq	%rcx, -16(%rbp)
	movb	$0, (%rax)
	cmpl	$0, -28(%rbp)
	jne	.LBB28_18
# %bb.17:                               # %if.then18
                                        #   in Loop: Header=BB28_1 Depth=1
	movq	-16(%rbp), %rax
	movl	-24(%rbp), %ecx
	movl	%ecx, %edx
	addl	$1, %edx
	movl	%edx, -24(%rbp)
	movslq	%ecx, %rcx
	movq	%rax, -80080(%rbp,%rcx,8)
	movl	-20(%rbp), %eax
	xorl	$-1, %eax
	movl	%eax, -20(%rbp)
	jmp	.LBB28_19
.LBB28_18:                              # %if.else21
                                        #   in Loop: Header=BB28_1 Depth=1
	movl	$0, -20(%rbp)
.LBB28_19:                              # %if.end22
                                        #   in Loop: Header=BB28_1 Depth=1
	movl	-28(%rbp), %eax
	xorl	$-1, %eax
	movl	%eax, -28(%rbp)
	jmp	.LBB28_23
.LBB28_20:                              # %sw.default
                                        #   in Loop: Header=BB28_1 Depth=1
	cmpl	$0, -20(%rbp)
	jne	.LBB28_22
# %bb.21:                               # %if.then25
                                        #   in Loop: Header=BB28_1 Depth=1
	movq	-16(%rbp), %rax
	movl	-24(%rbp), %ecx
	movl	%ecx, %edx
	addl	$1, %edx
	movl	%edx, -24(%rbp)
	movslq	%ecx, %rcx
	movq	%rax, -80080(%rbp,%rcx,8)
	movl	-20(%rbp), %eax
	xorl	$-1, %eax
	movl	%eax, -20(%rbp)
.LBB28_22:                              # %if.end30
                                        #   in Loop: Header=BB28_1 Depth=1
	movq	-16(%rbp), %rax
	addq	$1, %rax
	movq	%rax, -16(%rbp)
.LBB28_23:                              # %sw.epilog
                                        #   in Loop: Header=BB28_1 Depth=1
	jmp	.LBB28_1
.LBB28_24:                              # %while.end32
	movl	-24(%rbp), %eax
	addl	$-1, %eax
	movl	%eax, -24(%rbp)
	movl	$0, -4(%rbp)
.LBB28_25:                              # %for.cond
                                        # =>This Inner Loop Header: Depth=1
	movl	-4(%rbp), %eax
	cmpl	-24(%rbp), %eax
	jge	.LBB28_43
# %bb.26:                               # %for.body
                                        #   in Loop: Header=BB28_25 Depth=1
	movslq	-4(%rbp), %rax
	movq	-80080(%rbp,%rax,8), %rdi
	callq	ParameterNameToMapIndex
	xorl	%ecx, %ecx
	movl	%eax, -32(%rbp)
	cmpl	%eax, %ecx
	jle	.LBB28_28
# %bb.27:                               # %if.then39
                                        #   in Loop: Header=BB28_25 Depth=1
	movslq	-4(%rbp), %rax
	movq	-80080(%rbp,%rax,8), %rcx
	movabsq	$errortext, %rdi
	movl	$300, %esi              # imm = 0x12C
	movabsq	$.L.str.167, %rdx
	movb	$0, %al
	callq	snprintf
	movabsq	$errortext, %rdi
	movl	$300, %esi              # imm = 0x12C
	callq	error
.LBB28_28:                              # %if.end43
                                        #   in Loop: Header=BB28_25 Depth=1
	movl	-4(%rbp), %eax
	addl	$1, %eax
	cltq
	movq	-80080(%rbp,%rax,8), %rsi
	movl	$.L.str.168, %edi
	callq	strcmp
	cmpl	$0, %eax
	je	.LBB28_30
# %bb.29:                               # %if.then48
                                        #   in Loop: Header=BB28_25 Depth=1
	movabsq	$errortext, %rdi
	movl	$300, %esi              # imm = 0x12C
	movabsq	$.L.str.169, %rdx
	movb	$0, %al
	callq	snprintf
	movabsq	$errortext, %rdi
	movl	$300, %esi              # imm = 0x12C
	callq	error
.LBB28_30:                              # %if.end50
                                        #   in Loop: Header=BB28_25 Depth=1
	movslq	-32(%rbp), %rax
	imulq	$56, %rax, %rax
	movl	Map+16(%rax), %eax
	testl	%eax, %eax
	je	.LBB28_33
	jmp	.LBB28_31
.LBB28_31:                              # %if.end50
                                        #   in Loop: Header=BB28_25 Depth=1
	movl	%eax, %ecx
	subl	$1, %ecx
	je	.LBB28_36
	jmp	.LBB28_32
.LBB28_32:                              # %if.end50
                                        #   in Loop: Header=BB28_25 Depth=1
	subl	$2, %eax
	je	.LBB28_37
	jmp	.LBB28_40
.LBB28_33:                              # %sw.bb53
                                        #   in Loop: Header=BB28_25 Depth=1
	movl	-4(%rbp), %eax
	addl	$2, %eax
	cltq
	movq	-80080(%rbp,%rax,8), %rdi
	movabsq	$.L.str.170, %rsi
	leaq	-40(%rbp), %rdx
	movb	$0, %al
	callq	__isoc99_sscanf
	movl	$1, %ecx
	cmpl	%eax, %ecx
	je	.LBB28_35
# %bb.34:                               # %if.then60
                                        #   in Loop: Header=BB28_25 Depth=1
	movslq	-4(%rbp), %rax
	movq	-80080(%rbp,%rax,8), %rcx
	movl	-4(%rbp), %eax
	addl	$2, %eax
	cltq
	movq	-80080(%rbp,%rax,8), %r8
	movabsq	$errortext, %rdi
	movl	$300, %esi              # imm = 0x12C
	movabsq	$.L.str.171, %rdx
	movb	$0, %al
	callq	snprintf
	movabsq	$errortext, %rdi
	movl	$300, %esi              # imm = 0x12C
	callq	error
.LBB28_35:                              # %if.end67
                                        #   in Loop: Header=BB28_25 Depth=1
	movl	-40(%rbp), %eax
	movslq	-32(%rbp), %rcx
	imulq	$56, %rcx, %rcx
	movabsq	$Map, %rdx
	addq	%rcx, %rdx
	movq	8(%rdx), %rcx
	movl	%eax, (%rcx)
	movabsq	$.L.str.172, %rdi
	movb	$0, %al
	callq	printf
	jmp	.LBB28_41
.LBB28_36:                              # %sw.bb71
                                        #   in Loop: Header=BB28_25 Depth=1
	movslq	-32(%rbp), %rax
	imulq	$56, %rax, %rax
	movabsq	$Map, %rcx
	addq	%rax, %rcx
	movq	8(%rcx), %rdi
	movl	-4(%rbp), %eax
	addl	$2, %eax
	cltq
	movq	-80080(%rbp,%rax,8), %rsi
	movl	$200, %edx
	callq	strncpy
	movabsq	$.L.str.172, %rdi
	movb	$0, %al
	callq	printf
	jmp	.LBB28_41
.LBB28_37:                              # %sw.bb80
                                        #   in Loop: Header=BB28_25 Depth=1
	movl	-4(%rbp), %eax
	addl	$2, %eax
	cltq
	movq	-80080(%rbp,%rax,8), %rdi
	movabsq	$.L.str.173, %rsi
	leaq	-72(%rbp), %rdx
	movb	$0, %al
	callq	__isoc99_sscanf
	movl	$1, %ecx
	cmpl	%eax, %ecx
	je	.LBB28_39
# %bb.38:                               # %if.then87
                                        #   in Loop: Header=BB28_25 Depth=1
	movslq	-4(%rbp), %rax
	movq	-80080(%rbp,%rax,8), %rcx
	movl	-4(%rbp), %eax
	addl	$2, %eax
	cltq
	movq	-80080(%rbp,%rax,8), %r8
	movabsq	$errortext, %rdi
	movl	$300, %esi              # imm = 0x12C
	movabsq	$.L.str.171, %rdx
	movb	$0, %al
	callq	snprintf
	movabsq	$errortext, %rdi
	movl	$300, %esi              # imm = 0x12C
	callq	error
.LBB28_39:                              # %if.end94
                                        #   in Loop: Header=BB28_25 Depth=1
	vmovsd	-72(%rbp), %xmm0        # xmm0 = mem[0],zero
	movslq	-32(%rbp), %rax
	imulq	$56, %rax, %rax
	movabsq	$Map, %rcx
	addq	%rax, %rcx
	movq	8(%rcx), %rax
	vmovsd	%xmm0, (%rax)
	movabsq	$.L.str.172, %rdi
	movb	$0, %al
	callq	printf
	jmp	.LBB28_41
.LBB28_40:                              # %sw.default99
                                        #   in Loop: Header=BB28_25 Depth=1
	jmp	.LBB28_41
.LBB28_41:                              # %sw.epilog100
                                        #   in Loop: Header=BB28_25 Depth=1
	jmp	.LBB28_42
.LBB28_42:                              # %for.inc
                                        #   in Loop: Header=BB28_25 Depth=1
	movl	-4(%rbp), %eax
	addl	$3, %eax
	movl	%eax, -4(%rbp)
	jmp	.LBB28_25
.LBB28_43:                              # %for.end
	movabsq	$configinput, %rsi
	movq	input, %rdi
	movl	$3592, %edx             # imm = 0xE08
	callq	memcpy
	cmpl	$667476438, -44(%rbp)   # imm = 0x27C8E1D6
	jne	.LBB28_45
.LBB28_44:
	addq	$80080, %rsp            # imm = 0x138D0
	popq	%rbp
	.cfi_def_cfa %rsp, 8
	retq
.LBB28_45:                              # %func_exit
	.cfi_def_cfa %rbp, 16
	callq	detect_breach
	jmp	.LBB28_44
.Lfunc_end28:
	.size	ParseContent.16, .Lfunc_end28-ParseContent.16
	.cfi_endproc
	.section	.rodata,"a",@progbits
	.p2align	3
.LJTI28_0:
	.quad	.LBB28_12
	.quad	.LBB28_11
	.quad	.LBB28_20
	.quad	.LBB28_20
	.quad	.LBB28_4
	.quad	.LBB28_20
	.quad	.LBB28_20
	.quad	.LBB28_20
	.quad	.LBB28_20
	.quad	.LBB28_20
	.quad	.LBB28_20
	.quad	.LBB28_20
	.quad	.LBB28_20
	.quad	.LBB28_20
	.quad	.LBB28_20
	.quad	.LBB28_20
	.quad	.LBB28_20
	.quad	.LBB28_20
	.quad	.LBB28_20
	.quad	.LBB28_20
	.quad	.LBB28_20
	.quad	.LBB28_20
	.quad	.LBB28_20
	.quad	.LBB28_12
	.quad	.LBB28_20
	.quad	.LBB28_16
	.quad	.LBB28_5
                                        # -- End function
	.text
	.p2align	4, 0x90         # -- Begin function ParseContent.17
	.type	ParseContent.17,@function
ParseContent.17:                        # @ParseContent.17
	.cfi_startproc
# %bb.0:                                # %entry
	pushq	%rbp
	.cfi_def_cfa_offset 16
	.cfi_offset %rbp, -16
	movq	%rsp, %rbp
	.cfi_def_cfa_register %rbp
	subq	$80080, %rsp            # imm = 0x138D0
	movl	$1410340392, -36(%rbp)  # imm = 0x54101628
	movq	%rdi, -64(%rbp)
	movl	%esi, -44(%rbp)
	movl	$0, -24(%rbp)
	movl	$0, -28(%rbp)
	movl	$0, -20(%rbp)
	movq	-64(%rbp), %rax
	movq	%rax, -16(%rbp)
	movq	-64(%rbp), %rax
	movslq	-44(%rbp), %rcx
	addq	%rcx, %rax
	movq	%rax, -56(%rbp)
.LBB29_1:                               # %while.cond
                                        # =>This Loop Header: Depth=1
                                        #     Child Loop BB29_6 Depth 2
	movq	-16(%rbp), %rax
	cmpq	-56(%rbp), %rax
	jae	.LBB29_24
# %bb.2:                                # %while.body
                                        #   in Loop: Header=BB29_1 Depth=1
	movq	-16(%rbp), %rax
	movsbl	(%rax), %eax
	addl	$-9, %eax
	movl	%eax, %ecx
	subl	$26, %ecx
	ja	.LBB29_20
# %bb.3:                                # %while.body
                                        #   in Loop: Header=BB29_1 Depth=1
	movq	.LJTI29_0(,%rax,8), %rax
	jmpq	*%rax
.LBB29_4:                               # %sw.bb
                                        #   in Loop: Header=BB29_1 Depth=1
	movq	-16(%rbp), %rax
	addq	$1, %rax
	movq	%rax, -16(%rbp)
	jmp	.LBB29_23
.LBB29_5:                               # %sw.bb1
                                        #   in Loop: Header=BB29_1 Depth=1
	movq	-16(%rbp), %rax
	movb	$0, (%rax)
.LBB29_6:                               # %while.cond2
                                        #   Parent Loop BB29_1 Depth=1
                                        # =>  This Inner Loop Header: Depth=2
	xorl	%eax, %eax
	movq	-16(%rbp), %rcx
	movsbl	(%rcx), %ecx
	cmpl	$10, %ecx
	je	.LBB29_8
# %bb.7:                                # %land.rhs
                                        #   in Loop: Header=BB29_6 Depth=2
	movq	-16(%rbp), %rax
	cmpq	-56(%rbp), %rax
	setb	%al
.LBB29_8:                               # %land.end
                                        #   in Loop: Header=BB29_6 Depth=2
	testb	$1, %al
	jne	.LBB29_9
	jmp	.LBB29_10
.LBB29_9:                               # %while.body8
                                        #   in Loop: Header=BB29_6 Depth=2
	movq	-16(%rbp), %rax
	addq	$1, %rax
	movq	%rax, -16(%rbp)
	jmp	.LBB29_6
.LBB29_10:                              # %while.end
                                        #   in Loop: Header=BB29_1 Depth=1
	movl	$0, -28(%rbp)
	movl	$0, -20(%rbp)
	jmp	.LBB29_23
.LBB29_11:                              # %sw.bb10
                                        #   in Loop: Header=BB29_1 Depth=1
	movl	$0, -20(%rbp)
	movl	$0, -28(%rbp)
	movq	-16(%rbp), %rax
	movq	%rax, %rcx
	addq	$1, %rcx
	movq	%rcx, -16(%rbp)
	movb	$0, (%rax)
	jmp	.LBB29_23
.LBB29_12:                              # %sw.bb12
                                        #   in Loop: Header=BB29_1 Depth=1
	cmpl	$0, -28(%rbp)
	je	.LBB29_14
# %bb.13:                               # %if.then
                                        #   in Loop: Header=BB29_1 Depth=1
	movq	-16(%rbp), %rax
	addq	$1, %rax
	movq	%rax, -16(%rbp)
	jmp	.LBB29_15
.LBB29_14:                              # %if.else
                                        #   in Loop: Header=BB29_1 Depth=1
	movq	-16(%rbp), %rax
	movq	%rax, %rcx
	addq	$1, %rcx
	movq	%rcx, -16(%rbp)
	movb	$0, (%rax)
	movl	$0, -20(%rbp)
.LBB29_15:                              # %if.end
                                        #   in Loop: Header=BB29_1 Depth=1
	jmp	.LBB29_23
.LBB29_16:                              # %sw.bb15
                                        #   in Loop: Header=BB29_1 Depth=1
	movq	-16(%rbp), %rax
	movq	%rax, %rcx
	addq	$1, %rcx
	movq	%rcx, -16(%rbp)
	movb	$0, (%rax)
	cmpl	$0, -28(%rbp)
	jne	.LBB29_18
# %bb.17:                               # %if.then18
                                        #   in Loop: Header=BB29_1 Depth=1
	movq	-16(%rbp), %rax
	movl	-24(%rbp), %ecx
	movl	%ecx, %edx
	addl	$1, %edx
	movl	%edx, -24(%rbp)
	movslq	%ecx, %rcx
	movq	%rax, -80080(%rbp,%rcx,8)
	movl	-20(%rbp), %eax
	xorl	$-1, %eax
	movl	%eax, -20(%rbp)
	jmp	.LBB29_19
.LBB29_18:                              # %if.else21
                                        #   in Loop: Header=BB29_1 Depth=1
	movl	$0, -20(%rbp)
.LBB29_19:                              # %if.end22
                                        #   in Loop: Header=BB29_1 Depth=1
	movl	-28(%rbp), %eax
	xorl	$-1, %eax
	movl	%eax, -28(%rbp)
	jmp	.LBB29_23
.LBB29_20:                              # %sw.default
                                        #   in Loop: Header=BB29_1 Depth=1
	cmpl	$0, -20(%rbp)
	jne	.LBB29_22
# %bb.21:                               # %if.then25
                                        #   in Loop: Header=BB29_1 Depth=1
	movq	-16(%rbp), %rax
	movl	-24(%rbp), %ecx
	movl	%ecx, %edx
	addl	$1, %edx
	movl	%edx, -24(%rbp)
	movslq	%ecx, %rcx
	movq	%rax, -80080(%rbp,%rcx,8)
	movl	-20(%rbp), %eax
	xorl	$-1, %eax
	movl	%eax, -20(%rbp)
.LBB29_22:                              # %if.end30
                                        #   in Loop: Header=BB29_1 Depth=1
	movq	-16(%rbp), %rax
	addq	$1, %rax
	movq	%rax, -16(%rbp)
.LBB29_23:                              # %sw.epilog
                                        #   in Loop: Header=BB29_1 Depth=1
	jmp	.LBB29_1
.LBB29_24:                              # %while.end32
	movl	-24(%rbp), %eax
	addl	$-1, %eax
	movl	%eax, -24(%rbp)
	movl	$0, -4(%rbp)
.LBB29_25:                              # %for.cond
                                        # =>This Inner Loop Header: Depth=1
	movl	-4(%rbp), %eax
	cmpl	-24(%rbp), %eax
	jge	.LBB29_43
# %bb.26:                               # %for.body
                                        #   in Loop: Header=BB29_25 Depth=1
	movslq	-4(%rbp), %rax
	movq	-80080(%rbp,%rax,8), %rdi
	callq	ParameterNameToMapIndex
	xorl	%ecx, %ecx
	movl	%eax, -32(%rbp)
	cmpl	%eax, %ecx
	jle	.LBB29_28
# %bb.27:                               # %if.then39
                                        #   in Loop: Header=BB29_25 Depth=1
	movslq	-4(%rbp), %rax
	movq	-80080(%rbp,%rax,8), %rcx
	movabsq	$errortext, %rdi
	movl	$300, %esi              # imm = 0x12C
	movabsq	$.L.str.167, %rdx
	movb	$0, %al
	callq	snprintf
	movabsq	$errortext, %rdi
	movl	$300, %esi              # imm = 0x12C
	callq	error
.LBB29_28:                              # %if.end43
                                        #   in Loop: Header=BB29_25 Depth=1
	movl	-4(%rbp), %eax
	addl	$1, %eax
	cltq
	movq	-80080(%rbp,%rax,8), %rsi
	movl	$.L.str.168, %edi
	callq	strcmp
	cmpl	$0, %eax
	je	.LBB29_30
# %bb.29:                               # %if.then48
                                        #   in Loop: Header=BB29_25 Depth=1
	movabsq	$errortext, %rdi
	movl	$300, %esi              # imm = 0x12C
	movabsq	$.L.str.169, %rdx
	movb	$0, %al
	callq	snprintf
	movabsq	$errortext, %rdi
	movl	$300, %esi              # imm = 0x12C
	callq	error
.LBB29_30:                              # %if.end50
                                        #   in Loop: Header=BB29_25 Depth=1
	movslq	-32(%rbp), %rax
	imulq	$56, %rax, %rax
	movl	Map+16(%rax), %eax
	testl	%eax, %eax
	je	.LBB29_33
	jmp	.LBB29_31
.LBB29_31:                              # %if.end50
                                        #   in Loop: Header=BB29_25 Depth=1
	movl	%eax, %ecx
	subl	$1, %ecx
	je	.LBB29_36
	jmp	.LBB29_32
.LBB29_32:                              # %if.end50
                                        #   in Loop: Header=BB29_25 Depth=1
	subl	$2, %eax
	je	.LBB29_37
	jmp	.LBB29_40
.LBB29_33:                              # %sw.bb53
                                        #   in Loop: Header=BB29_25 Depth=1
	movl	-4(%rbp), %eax
	addl	$2, %eax
	cltq
	movq	-80080(%rbp,%rax,8), %rdi
	movabsq	$.L.str.170, %rsi
	leaq	-40(%rbp), %rdx
	movb	$0, %al
	callq	__isoc99_sscanf
	movl	$1, %ecx
	cmpl	%eax, %ecx
	je	.LBB29_35
# %bb.34:                               # %if.then60
                                        #   in Loop: Header=BB29_25 Depth=1
	movslq	-4(%rbp), %rax
	movq	-80080(%rbp,%rax,8), %rcx
	movl	-4(%rbp), %eax
	addl	$2, %eax
	cltq
	movq	-80080(%rbp,%rax,8), %r8
	movabsq	$errortext, %rdi
	movl	$300, %esi              # imm = 0x12C
	movabsq	$.L.str.171, %rdx
	movb	$0, %al
	callq	snprintf
	movabsq	$errortext, %rdi
	movl	$300, %esi              # imm = 0x12C
	callq	error
.LBB29_35:                              # %if.end67
                                        #   in Loop: Header=BB29_25 Depth=1
	movl	-40(%rbp), %eax
	movslq	-32(%rbp), %rcx
	imulq	$56, %rcx, %rcx
	movabsq	$Map, %rdx
	addq	%rcx, %rdx
	movq	8(%rdx), %rcx
	movl	%eax, (%rcx)
	movabsq	$.L.str.172, %rdi
	movb	$0, %al
	callq	printf
	jmp	.LBB29_41
.LBB29_36:                              # %sw.bb71
                                        #   in Loop: Header=BB29_25 Depth=1
	movslq	-32(%rbp), %rax
	imulq	$56, %rax, %rax
	movabsq	$Map, %rcx
	addq	%rax, %rcx
	movq	8(%rcx), %rdi
	movl	-4(%rbp), %eax
	addl	$2, %eax
	cltq
	movq	-80080(%rbp,%rax,8), %rsi
	movl	$200, %edx
	callq	strncpy
	movabsq	$.L.str.172, %rdi
	movb	$0, %al
	callq	printf
	jmp	.LBB29_41
.LBB29_37:                              # %sw.bb80
                                        #   in Loop: Header=BB29_25 Depth=1
	movl	-4(%rbp), %eax
	addl	$2, %eax
	cltq
	movq	-80080(%rbp,%rax,8), %rdi
	movabsq	$.L.str.173, %rsi
	leaq	-72(%rbp), %rdx
	movb	$0, %al
	callq	__isoc99_sscanf
	movl	$1, %ecx
	cmpl	%eax, %ecx
	je	.LBB29_39
# %bb.38:                               # %if.then87
                                        #   in Loop: Header=BB29_25 Depth=1
	movslq	-4(%rbp), %rax
	movq	-80080(%rbp,%rax,8), %rcx
	movl	-4(%rbp), %eax
	addl	$2, %eax
	cltq
	movq	-80080(%rbp,%rax,8), %r8
	movabsq	$errortext, %rdi
	movl	$300, %esi              # imm = 0x12C
	movabsq	$.L.str.171, %rdx
	movb	$0, %al
	callq	snprintf
	movabsq	$errortext, %rdi
	movl	$300, %esi              # imm = 0x12C
	callq	error
.LBB29_39:                              # %if.end94
                                        #   in Loop: Header=BB29_25 Depth=1
	vmovsd	-72(%rbp), %xmm0        # xmm0 = mem[0],zero
	movslq	-32(%rbp), %rax
	imulq	$56, %rax, %rax
	movabsq	$Map, %rcx
	addq	%rax, %rcx
	movq	8(%rcx), %rax
	vmovsd	%xmm0, (%rax)
	movabsq	$.L.str.172, %rdi
	movb	$0, %al
	callq	printf
	jmp	.LBB29_41
.LBB29_40:                              # %sw.default99
                                        #   in Loop: Header=BB29_25 Depth=1
	jmp	.LBB29_41
.LBB29_41:                              # %sw.epilog100
                                        #   in Loop: Header=BB29_25 Depth=1
	jmp	.LBB29_42
.LBB29_42:                              # %for.inc
                                        #   in Loop: Header=BB29_25 Depth=1
	movl	-4(%rbp), %eax
	addl	$3, %eax
	movl	%eax, -4(%rbp)
	jmp	.LBB29_25
.LBB29_43:                              # %for.end
	movabsq	$configinput, %rsi
	movq	input, %rdi
	movl	$3592, %edx             # imm = 0xE08
	callq	memcpy
	cmpl	$1410340392, -36(%rbp)  # imm = 0x54101628
	jne	.LBB29_45
.LBB29_44:
	addq	$80080, %rsp            # imm = 0x138D0
	popq	%rbp
	.cfi_def_cfa %rsp, 8
	retq
.LBB29_45:                              # %func_exit
	.cfi_def_cfa %rbp, 16
	callq	detect_breach
	jmp	.LBB29_44
.Lfunc_end29:
	.size	ParseContent.17, .Lfunc_end29-ParseContent.17
	.cfi_endproc
	.section	.rodata,"a",@progbits
	.p2align	3
.LJTI29_0:
	.quad	.LBB29_12
	.quad	.LBB29_11
	.quad	.LBB29_20
	.quad	.LBB29_20
	.quad	.LBB29_4
	.quad	.LBB29_20
	.quad	.LBB29_20
	.quad	.LBB29_20
	.quad	.LBB29_20
	.quad	.LBB29_20
	.quad	.LBB29_20
	.quad	.LBB29_20
	.quad	.LBB29_20
	.quad	.LBB29_20
	.quad	.LBB29_20
	.quad	.LBB29_20
	.quad	.LBB29_20
	.quad	.LBB29_20
	.quad	.LBB29_20
	.quad	.LBB29_20
	.quad	.LBB29_20
	.quad	.LBB29_20
	.quad	.LBB29_20
	.quad	.LBB29_12
	.quad	.LBB29_20
	.quad	.LBB29_16
	.quad	.LBB29_5
                                        # -- End function
	.section	.rodata.cst8,"aM",@progbits,8
	.p2align	3               # -- Begin function PatchInp.18
.LCPI30_0:
	.quad	4629137466983448576     # double 30
	.text
	.p2align	4, 0x90
	.type	PatchInp.18,@function
PatchInp.18:                            # @PatchInp.18
	.cfi_startproc
# %bb.0:                                # %entry
	pushq	%rbp
	.cfi_def_cfa_offset 16
	.cfi_offset %rbp, -16
	movq	%rsp, %rbp
	.cfi_def_cfa_register %rbp
	subq	$48, %rsp
	movl	$1247021903, -44(%rbp)  # imm = 0x4A540B4F
	movq	input, %rax
	movl	3296(%rax), %eax
	subl	$8, %eax
	imull	$6, %eax, %eax
	movl	%eax, -36(%rbp)
	movq	$0, -16(%rbp)
	movq	input, %rax
	movl	$1, 3224(%rax)
	movl	-36(%rbp), %edi
	callq	TestEncoderParams
	movq	input, %rax
	vmovsd	2424(%rax), %xmm0       # xmm0 = mem[0],zero
	vxorps	%xmm1, %xmm1, %xmm1
	vucomisd	%xmm1, %xmm0
	jne	.LBB30_2
	jp	.LBB30_2
# %bb.1:                                # %if.then
	vmovsd	.LCPI30_0(%rip), %xmm0  # xmm0 = mem[0],zero
	movq	input, %rax
	vmovsd	%xmm0, 2424(%rax)
.LBB30_2:                               # %if.end
	movq	input, %rax
	movl	$16, 80(%rax)
	movq	input, %rax
	movl	$16, 84(%rax)
	movq	input, %rax
	movl	$16, 88(%rax)
	movq	input, %rax
	movl	$16, 92(%rax)
	movq	input, %rax
	movl	$16, 96(%rax)
	movq	input, %rax
	movl	$8, 100(%rax)
	movq	input, %rax
	movl	$8, 104(%rax)
	movq	input, %rax
	movl	$16, 108(%rax)
	movq	input, %rax
	movl	$8, 112(%rax)
	movq	input, %rax
	movl	$8, 116(%rax)
	movq	input, %rax
	movl	$8, 120(%rax)
	movq	input, %rax
	movl	$4, 124(%rax)
	movq	input, %rax
	movl	$4, 128(%rax)
	movq	input, %rax
	movl	$8, 132(%rax)
	movq	input, %rax
	movl	$4, 136(%rax)
	movq	input, %rax
	movl	$4, 140(%rax)
	movq	input, %rax
	movl	$4, 144(%rax)
	movq	input, %rax
	movl	$4, 148(%rax)
	movq	input, %rax
	movl	$4, 152(%rax)
	movq	input, %rax
	movl	$4, 156(%rax)
	movq	input, %rax
	movl	$4, 160(%rax)
	movq	input, %rax
	movl	$2, 164(%rax)
	movq	input, %rax
	movl	$2, 168(%rax)
	movq	input, %rax
	movl	$4, 172(%rax)
	movq	input, %rax
	movl	$2, 176(%rax)
	movq	input, %rax
	movl	$2, 180(%rax)
	movq	input, %rax
	movl	$2, 184(%rax)
	movq	input, %rax
	movl	$1, 188(%rax)
	movq	input, %rax
	movl	$1, 192(%rax)
	movq	input, %rax
	movl	$2, 196(%rax)
	movq	input, %rax
	movl	$1, 200(%rax)
	movq	input, %rax
	movl	$1, 204(%rax)
	movq	input, %rax
	cmpl	$0, 1316(%rax)
	je	.LBB30_4
# %bb.3:                                # %cond.true
	movq	input, %rax
	movl	1236(%rax), %eax
	addl	$1, %eax
	jmp	.LBB30_5
.LBB30_4:                               # %cond.false
	movl	$1, %eax
	jmp	.LBB30_5
.LBB30_5:                               # %cond.end
	movl	%eax, -24(%rbp)
	movq	input, %rax
	cmpl	$4, 52(%rax)
	jge	.LBB30_10
# %bb.6:                                # %if.then96
	movq	input, %rax
	movl	8(%rax), %edi
	imull	-24(%rbp), %edi
	callq	CeilLog2
	subl	$4, %eax
	cmpl	$0, %eax
	jle	.LBB30_8
# %bb.7:                                # %cond.true101
	movq	input, %rax
	movl	8(%rax), %edi
	imull	-24(%rbp), %edi
	callq	CeilLog2
	subl	$4, %eax
	jmp	.LBB30_9
.LBB30_8:                               # %cond.false106
	xorl	%eax, %eax
	jmp	.LBB30_9
.LBB30_9:                               # %cond.end107
	movl	%eax, log2_max_frame_num_minus4
	jmp	.LBB30_11
.LBB30_10:                              # %if.else
	movq	input, %rax
	movl	52(%rax), %eax
	subl	$4, %eax
	movl	%eax, log2_max_frame_num_minus4
.LBB30_11:                              # %if.end111
	movq	input, %rax
	movl	8(%rax), %edi
	shll	$1, %edi
	movq	input, %rax
	movl	20(%rax), %eax
	addl	$1, %eax
	imull	%eax, %edi
	callq	CeilLog2
	subl	$4, %eax
	cmpl	$0, %eax
	jle	.LBB30_13
# %bb.12:                               # %cond.true119
	movq	input, %rax
	movl	8(%rax), %edi
	shll	$1, %edi
	movq	input, %rax
	movl	20(%rax), %eax
	addl	$1, %eax
	imull	%eax, %edi
	callq	CeilLog2
	subl	$4, %eax
	jmp	.LBB30_14
.LBB30_13:                              # %cond.false127
	xorl	%eax, %eax
	jmp	.LBB30_14
.LBB30_14:                              # %cond.end128
	movl	%eax, log2_max_pic_order_cnt_lsb_minus4
	movq	input, %rax
	movl	1236(%rax), %eax
	movq	input, %rcx
	cmpl	20(%rcx), %eax
	jle	.LBB30_16
# %bb.15:                               # %if.then133
	movq	input, %rax
	movl	1236(%rax), %ecx
	movabsq	$errortext, %rdi
	movl	$300, %esi              # imm = 0x12C
	movabsq	$.L.str.179, %rdx
	movb	$0, %al
	callq	snprintf
	movabsq	$errortext, %rdi
	movl	$400, %esi              # imm = 0x190
	callq	error
.LBB30_16:                              # %if.end136
	movq	input, %rax
	cmpl	$0, 1236(%rax)
	je	.LBB30_20
# %bb.17:                               # %land.lhs.true
	movq	input, %rax
	cmpl	$1, 1248(%rax)
	je	.LBB30_20
# %bb.18:                               # %land.lhs.true140
	movq	input, %rax
	cmpl	$0, 1248(%rax)
	je	.LBB30_20
# %bb.19:                               # %if.then143
	movq	input, %rax
	movl	1248(%rax), %ecx
	movabsq	$errortext, %rdi
	movl	$300, %esi              # imm = 0x12C
	movabsq	$.L.str.180, %rdx
	movb	$0, %al
	callq	snprintf
	movabsq	$errortext, %rdi
	movl	$400, %esi              # imm = 0x190
	callq	error
.LBB30_20:                              # %if.end146
	movq	input, %rax
	cmpl	$0, 2880(%rax)
	jg	.LBB30_22
# %bb.21:                               # %lor.lhs.false
	movq	input, %rax
	cmpl	$0, 2884(%rax)
	jle	.LBB30_25
.LBB30_22:                              # %if.then149
	movq	input, %rax
	cmpl	$0, 1252(%rax)
	jne	.LBB30_24
# %bb.23:                               # %if.then151
	movabsq	$.L.str.181, %rdi
	movb	$0, %al
	callq	printf
.LBB30_24:                              # %if.end153
	movq	input, %rax
	movl	$1, 1252(%rax)
.LBB30_25:                              # %if.end155
	movq	input, %rax
	cmpl	$0, 2880(%rax)
	jle	.LBB30_30
# %bb.26:                               # %if.then158
	movq	input, %rax
	cmpl	$0, 2888(%rax)
	je	.LBB30_29
# %bb.27:                               # %land.lhs.true160
	movq	input, %rax
	cmpl	$1, 2888(%rax)
	je	.LBB30_29
# %bb.28:                               # %if.then163
	movq	input, %rax
	movl	2888(%rax), %ecx
	movabsq	$errortext, %rdi
	movl	$300, %esi              # imm = 0x12C
	movabsq	$.L.str.182, %rdx
	movb	$0, %al
	callq	snprintf
	movabsq	$errortext, %rdi
	movl	$400, %esi              # imm = 0x190
	callq	error
.LBB30_29:                              # %if.end166
	jmp	.LBB30_30
.LBB30_30:                              # %if.end167
	movq	input, %rax
	cmpl	$0, 2356(%rax)
	je	.LBB30_33
# %bb.31:                               # %land.lhs.true169
	movq	input, %rax
	cmpl	$1, 2356(%rax)
	je	.LBB30_33
# %bb.32:                               # %if.then172
	movq	input, %rax
	movl	2356(%rax), %ecx
	movabsq	$errortext, %rdi
	movl	$300, %esi              # imm = 0x12C
	movabsq	$.L.str.183, %rdx
	movb	$0, %al
	callq	snprintf
	movabsq	$errortext, %rdi
	movl	$400, %esi              # imm = 0x190
	callq	error
.LBB30_33:                              # %if.end175
	movq	input, %rdi
	addq	$224, %rdi
	xorl	%esi, %esi
	movb	$0, %al
	callq	open
	movl	%eax, p_in
	cmpl	$-1, %eax
	jne	.LBB30_35
# %bb.34:                               # %if.then178
	movq	input, %rcx
	addq	$224, %rcx
	movabsq	$errortext, %rdi
	movl	$300, %esi              # imm = 0x12C
	movabsq	$.L.str.184, %rdx
	movb	$0, %al
	callq	snprintf
	movabsq	$errortext, %rdi
	movl	$500, %esi              # imm = 0x1F4
	callq	error
.LBB30_35:                              # %if.end182
	movq	input, %rdi
	addq	$624, %rdi              # imm = 0x270
	callq	strlen
	cmpq	$0, %rax
	jbe	.LBB30_38
# %bb.36:                               # %land.lhs.true186
	movq	input, %rdi
	addq	$624, %rdi              # imm = 0x270
	movl	$577, %esi              # imm = 0x241
	movl	$384, %edx              # imm = 0x180
	movb	$0, %al
	callq	open
	movl	%eax, p_dec
	cmpl	$-1, %eax
	jne	.LBB30_38
# %bb.37:                               # %if.then191
	movq	input, %rcx
	addq	$624, %rcx              # imm = 0x270
	movabsq	$errortext, %rdi
	movl	$300, %esi              # imm = 0x12C
	movabsq	$.L.str.185, %rdx
	movb	$0, %al
	callq	snprintf
	movabsq	$errortext, %rdi
	movl	$500, %esi              # imm = 0x1F4
	callq	error
.LBB30_38:                              # %if.end195
	movq	input, %rdi
	addq	$824, %rdi              # imm = 0x338
	callq	strlen
	cmpq	$0, %rax
	jbe	.LBB30_41
# %bb.39:                               # %land.lhs.true199
	movq	input, %rdi
	addq	$824, %rdi              # imm = 0x338
	movabsq	$.L.str.186, %rsi
	callq	fopen
	movq	%rax, p_trace
	cmpq	$0, %rax
	jne	.LBB30_41
# %bb.40:                               # %if.then204
	movq	input, %rcx
	addq	$824, %rcx              # imm = 0x338
	movabsq	$errortext, %rdi
	movl	$300, %esi              # imm = 0x12C
	movabsq	$.L.str.185, %rdx
	movb	$0, %al
	callq	snprintf
	movabsq	$errortext, %rdi
	movl	$500, %esi              # imm = 0x1F4
	callq	error
.LBB30_41:                              # %if.end208
	movq	input, %rax
	movl	64(%rax), %eax
	cltd
	movl	$16, %ecx
	idivl	%ecx
	cmpl	$0, %edx
	je	.LBB30_43
# %bb.42:                               # %if.then210
	movq	input, %rax
	movl	64(%rax), %eax
	cltd
	movl	$16, %ecx
	idivl	%ecx
	subl	%edx, %ecx
	movq	img, %rax
	movl	%ecx, 72728(%rax)
	jmp	.LBB30_44
.LBB30_43:                              # %if.else214
	movq	img, %rax
	movl	$0, 72728(%rax)
.LBB30_44:                              # %if.end216
	movq	input, %rax
	cmpl	$0, 2880(%rax)
	jne	.LBB30_46
# %bb.45:                               # %lor.lhs.false219
	movq	input, %rax
	cmpl	$0, 2884(%rax)
	je	.LBB30_52
.LBB30_46:                              # %if.then222
	movq	input, %rax
	movl	68(%rax), %eax
	cltd
	movl	$2, %ecx
	idivl	%ecx
	cmpl	$0, %edx
	je	.LBB30_48
# %bb.47:                               # %if.then225
	movabsq	$.L.str.187, %rdi
	movl	$500, %esi              # imm = 0x1F4
	callq	error
.LBB30_48:                              # %if.end226
	movq	input, %rax
	movl	68(%rax), %eax
	cltd
	movl	$32, %ecx
	idivl	%ecx
	cmpl	$0, %edx
	je	.LBB30_50
# %bb.49:                               # %if.then230
	movq	input, %rax
	movl	68(%rax), %eax
	cltd
	movl	$32, %ecx
	idivl	%ecx
	subl	%edx, %ecx
	movq	img, %rax
	movl	%ecx, 72732(%rax)
	jmp	.LBB30_51
.LBB30_50:                              # %if.else234
	movq	img, %rax
	movl	$0, 72732(%rax)
.LBB30_51:                              # %if.end236
	jmp	.LBB30_56
.LBB30_52:                              # %if.else237
	movq	input, %rax
	movl	68(%rax), %eax
	cltd
	movl	$16, %ecx
	idivl	%ecx
	cmpl	$0, %edx
	je	.LBB30_54
# %bb.53:                               # %if.then241
	movq	input, %rax
	movl	68(%rax), %eax
	cltd
	movl	$16, %ecx
	idivl	%ecx
	subl	%edx, %ecx
	movq	img, %rax
	movl	%ecx, 72732(%rax)
	jmp	.LBB30_55
.LBB30_54:                              # %if.else246
	movq	img, %rax
	movl	$0, 72732(%rax)
.LBB30_55:                              # %if.end248
	jmp	.LBB30_56
.LBB30_56:                              # %if.end249
	movq	img, %rax
	cmpl	$0, 72732(%rax)
	jne	.LBB30_58
# %bb.57:                               # %lor.lhs.false252
	movq	img, %rax
	cmpl	$0, 72728(%rax)
	je	.LBB30_59
.LBB30_58:                              # %if.then255
	movq	input, %rax
	movl	64(%rax), %esi
	movq	img, %rax
	addl	72728(%rax), %esi
	movq	input, %rax
	movl	68(%rax), %edx
	movq	img, %rax
	addl	72732(%rax), %edx
	movabsq	$.L.str.188, %rdi
	movb	$0, %al
	callq	printf
.LBB30_59:                              # %if.end263
	movq	input, %rax
	cmpl	$0, 3152(%rax)
	je	.LBB30_100
# %bb.60:                               # %land.lhs.true265
	movq	input, %rax
	cmpl	$0, 3156(%rax)
	je	.LBB30_63
# %bb.61:                               # %lor.lhs.false267
	movq	input, %rax
	cmpl	$2, 3156(%rax)
	je	.LBB30_63
# %bb.62:                               # %lor.lhs.false270
	movq	input, %rax
	cmpl	$6, 3156(%rax)
	jne	.LBB30_100
.LBB30_63:                              # %if.then273
	movq	input, %rdi
	addq	$2952, %rdi             # imm = 0xB88
	callq	strlen
	cmpq	$0, %rax
	jbe	.LBB30_66
# %bb.64:                               # %land.lhs.true277
	movq	input, %rdi
	addq	$2952, %rdi             # imm = 0xB88
	movabsq	$.L.str.12, %rsi
	callq	fopen
	movq	%rax, -16(%rbp)
	cmpq	$0, %rax
	jne	.LBB30_66
# %bb.65:                               # %if.then282
	movq	input, %rcx
	addq	$2952, %rcx             # imm = 0xB88
	movabsq	$errortext, %rdi
	movl	$300, %esi              # imm = 0x12C
	movabsq	$.L.str.185, %rdx
	movb	$0, %al
	callq	snprintf
	movabsq	$errortext, %rdi
	movl	$500, %esi              # imm = 0x1F4
	callq	error
	jmp	.LBB30_99
.LBB30_66:                              # %if.else286
	movq	input, %rax
	cmpl	$0, 3156(%rax)
	jne	.LBB30_74
# %bb.67:                               # %if.then289
	movq	input, %rax
	movl	3152(%rax), %eax
	addl	$1, %eax
	movslq	%eax, %rdi
	shlq	$2, %rdi
	callq	malloc
	xorl	%ecx, %ecx
	movq	input, %rdx
	movq	%rax, 3184(%rdx)
	movq	input, %rax
	cmpq	3184(%rax), %rcx
	jne	.LBB30_69
# %bb.68:                               # %if.then297
	movabsq	$.L.str.189, %rdi
	callq	no_mem_exit
.LBB30_69:                              # %if.end298
	movl	$0, -4(%rbp)
.LBB30_70:                              # %for.cond
                                        # =>This Inner Loop Header: Depth=1
	movl	-4(%rbp), %eax
	movq	input, %rcx
	cmpl	3152(%rcx), %eax
	jg	.LBB30_73
# %bb.71:                               # %for.body
                                        #   in Loop: Header=BB30_70 Depth=1
	movq	-16(%rbp), %rdi
	movq	input, %rax
	movq	3184(%rax), %rdx
	movslq	-4(%rbp), %rax
	shlq	$2, %rax
	addq	%rax, %rdx
	movabsq	$.L.str.170, %rsi
	movb	$0, %al
	callq	__isoc99_fscanf
	movq	-16(%rbp), %rdi
	movabsq	$.L.str.190, %rsi
	movb	$0, %al
	callq	__isoc99_fscanf
# %bb.72:                               # %for.inc
                                        #   in Loop: Header=BB30_70 Depth=1
	movl	-4(%rbp), %eax
	addl	$1, %eax
	movl	%eax, -4(%rbp)
	jmp	.LBB30_70
.LBB30_73:                              # %for.end
	jmp	.LBB30_98
.LBB30_74:                              # %if.else305
	movq	input, %rax
	cmpl	$2, 3156(%rax)
	jne	.LBB30_84
# %bb.75:                               # %if.then309
	movq	input, %rax
	movslq	3152(%rax), %rdi
	shlq	$2, %rdi
	callq	malloc
	movq	input, %rcx
	movq	%rax, 3160(%rcx)
	movq	input, %rax
	movslq	3152(%rax), %rdi
	shlq	$2, %rdi
	callq	malloc
	xorl	%ecx, %ecx
	movq	input, %rdx
	movq	%rax, 3168(%rdx)
	movq	input, %rax
	cmpq	3160(%rax), %rcx
	jne	.LBB30_77
# %bb.76:                               # %if.then321
	movabsq	$.L.str.191, %rdi
	callq	no_mem_exit
.LBB30_77:                              # %if.end322
	xorl	%eax, %eax
	movq	input, %rcx
	cmpq	3168(%rcx), %rax
	jne	.LBB30_79
# %bb.78:                               # %if.then326
	movabsq	$.L.str.192, %rdi
	callq	no_mem_exit
.LBB30_79:                              # %if.end327
	movl	$0, -4(%rbp)
.LBB30_80:                              # %for.cond328
                                        # =>This Inner Loop Header: Depth=1
	movl	-4(%rbp), %eax
	movq	input, %rcx
	cmpl	3152(%rcx), %eax
	jge	.LBB30_83
# %bb.81:                               # %for.body332
                                        #   in Loop: Header=BB30_80 Depth=1
	movq	-16(%rbp), %rdi
	movq	input, %rax
	movq	3160(%rax), %rdx
	movslq	-4(%rbp), %rax
	shlq	$2, %rax
	addq	%rax, %rdx
	movabsq	$.L.str.170, %rsi
	movb	$0, %al
	callq	__isoc99_fscanf
	movq	-16(%rbp), %rdi
	movabsq	$.L.str.190, %rsi
	movb	$0, %al
	callq	__isoc99_fscanf
	movq	-16(%rbp), %rdi
	movq	input, %rax
	movq	3168(%rax), %rdx
	movslq	-4(%rbp), %rax
	shlq	$2, %rax
	addq	%rax, %rdx
	movabsq	$.L.str.170, %rsi
	movb	$0, %al
	callq	__isoc99_fscanf
	movq	-16(%rbp), %rdi
	movabsq	$.L.str.190, %rsi
	movb	$0, %al
	callq	__isoc99_fscanf
# %bb.82:                               # %for.inc343
                                        #   in Loop: Header=BB30_80 Depth=1
	movl	-4(%rbp), %eax
	addl	$1, %eax
	movl	%eax, -4(%rbp)
	jmp	.LBB30_80
.LBB30_83:                              # %for.end345
	jmp	.LBB30_97
.LBB30_84:                              # %if.else346
	movq	input, %rax
	cmpl	$6, 3156(%rax)
	jne	.LBB30_96
# %bb.85:                               # %if.then350
	movq	input, %rax
	cmpl	$0, 2880(%rax)
	movb	$1, %al
	jne	.LBB30_87
# %bb.86:                               # %lor.rhs
	movq	input, %rax
	cmpl	$0, 2884(%rax)
	setne	%al
.LBB30_87:                              # %lor.end
	xorb	$-1, %al
	andb	$1, %al
	movzbl	%al, %eax
	movl	%eax, -48(%rbp)
	movq	input, %rax
	movl	64(%rax), %eax
	movq	img, %rcx
	addl	72728(%rcx), %eax
	cltd
	movl	$16, %ecx
	idivl	%ecx
	movl	%eax, -20(%rbp)
	movq	input, %rax
	movl	68(%rax), %eax
	movq	img, %rdx
	addl	72732(%rdx), %eax
	cltd
	idivl	%ecx
	movl	%eax, -32(%rbp)
	movl	-32(%rbp), %eax
	movl	$2, %ecx
	subl	-48(%rbp), %ecx
	cltd
	idivl	%ecx
	movl	%eax, -28(%rbp)
	movslq	-28(%rbp), %rdi
	shlq	$0, %rdi
	movslq	-20(%rbp), %rax
	imulq	%rax, %rdi
	callq	malloc
	xorl	%ecx, %ecx
	movq	input, %rdx
	movq	%rax, 3176(%rdx)
	movq	input, %rax
	cmpq	3176(%rax), %rcx
	jne	.LBB30_89
# %bb.88:                               # %if.then372
	movabsq	$.L.str.193, %rdi
	callq	no_mem_exit
.LBB30_89:                              # %if.end373
	movl	$0, -4(%rbp)
.LBB30_90:                              # %for.cond374
                                        # =>This Inner Loop Header: Depth=1
	movl	-4(%rbp), %eax
	movl	-28(%rbp), %ecx
	imull	-20(%rbp), %ecx
	cmpl	%ecx, %eax
	jge	.LBB30_95
# %bb.91:                               # %for.body378
                                        #   in Loop: Header=BB30_90 Depth=1
	movq	-16(%rbp), %rdi
	movabsq	$.L.str.170, %rsi
	leaq	-40(%rbp), %rdx
	movb	$0, %al
	callq	__isoc99_fscanf
	movl	-40(%rbp), %eax
	movq	input, %rcx
	movq	3176(%rcx), %rcx
	movslq	-4(%rbp), %rdx
	movb	%al, (%rcx,%rdx)
	movq	input, %rax
	movq	3176(%rax), %rax
	movslq	-4(%rbp), %rcx
	movzbl	(%rax,%rcx), %eax
	movq	input, %rcx
	cmpl	3152(%rcx), %eax
	jle	.LBB30_93
# %bb.92:                               # %if.then390
                                        #   in Loop: Header=BB30_90 Depth=1
	movq	input, %rcx
	addq	$2952, %rcx             # imm = 0xB88
	movabsq	$errortext, %rdi
	movl	$300, %esi              # imm = 0x12C
	movabsq	$.L.str.194, %rdx
	movb	$0, %al
	callq	snprintf
	movabsq	$errortext, %rdi
	movl	$500, %esi              # imm = 0x1F4
	callq	error
.LBB30_93:                              # %if.end394
                                        #   in Loop: Header=BB30_90 Depth=1
	movq	-16(%rbp), %rdi
	movabsq	$.L.str.190, %rsi
	movb	$0, %al
	callq	__isoc99_fscanf
# %bb.94:                               # %for.inc396
                                        #   in Loop: Header=BB30_90 Depth=1
	movl	-4(%rbp), %eax
	addl	$1, %eax
	movl	%eax, -4(%rbp)
	jmp	.LBB30_90
.LBB30_95:                              # %for.end398
	jmp	.LBB30_96
.LBB30_96:                              # %if.end399
	jmp	.LBB30_97
.LBB30_97:                              # %if.end400
	jmp	.LBB30_98
.LBB30_98:                              # %if.end401
	movq	-16(%rbp), %rdi
	callq	fclose
.LBB30_99:                              # %if.end403
	jmp	.LBB30_100
.LBB30_100:                             # %if.end404
	movq	input, %rax
	cmpl	$0, 2348(%rax)
	je	.LBB30_105
# %bb.101:                              # %land.lhs.true406
	movq	input, %rax
	cmpl	$0, 1320(%rax)
	je	.LBB30_105
# %bb.102:                              # %land.lhs.true408
	movq	input, %rax
	cmpl	$0, 2880(%rax)
	jne	.LBB30_104
# %bb.103:                              # %lor.lhs.false411
	movq	input, %rax
	cmpl	$0, 2884(%rax)
	je	.LBB30_105
.LBB30_104:                             # %if.then414
	movabsq	$errortext, %rdi
	movl	$300, %esi              # imm = 0x12C
	movabsq	$.L.str.195, %rdx
	movb	$0, %al
	callq	snprintf
	movabsq	$errortext, %rdi
	movl	$400, %esi              # imm = 0x190
	callq	error
.LBB30_105:                             # %if.end416
	movq	input, %rax
	cmpl	$0, 2352(%rax)
	je	.LBB30_110
# %bb.106:                              # %land.lhs.true418
	movq	input, %rax
	cmpl	$0, 1320(%rax)
	je	.LBB30_110
# %bb.107:                              # %land.lhs.true421
	movq	input, %rax
	cmpl	$0, 2880(%rax)
	jne	.LBB30_109
# %bb.108:                              # %lor.lhs.false424
	movq	input, %rax
	cmpl	$0, 2884(%rax)
	je	.LBB30_110
.LBB30_109:                             # %if.then427
	movabsq	$errortext, %rdi
	movl	$300, %esi              # imm = 0x12C
	movabsq	$.L.str.196, %rdx
	movb	$0, %al
	callq	snprintf
	movabsq	$errortext, %rdi
	movl	$400, %esi              # imm = 0x190
	callq	error
.LBB30_110:                             # %if.end429
	movq	input, %rax
	cmpl	$0, 2880(%rax)
	je	.LBB30_114
# %bb.111:                              # %land.lhs.true433
	movq	input, %rax
	cmpl	$2, 2880(%rax)
	je	.LBB30_114
# %bb.112:                              # %land.lhs.true437
	movq	input, %rax
	cmpl	$1, 2880(%rax)
	je	.LBB30_114
# %bb.113:                              # %if.then441
	movq	input, %rax
	movl	2880(%rax), %ecx
	movabsq	$errortext, %rdi
	movl	$300, %esi              # imm = 0x12C
	movabsq	$.L.str.197, %rdx
	movb	$0, %al
	callq	snprintf
	movabsq	$errortext, %rdi
	movl	$400, %esi              # imm = 0x190
	callq	error
.LBB30_114:                             # %if.end444
	movq	input, %rax
	cmpl	$0, 2884(%rax)
	je	.LBB30_118
# %bb.115:                              # %land.lhs.true448
	movq	input, %rax
	cmpl	$2, 2884(%rax)
	je	.LBB30_118
# %bb.116:                              # %land.lhs.true452
	movq	input, %rax
	cmpl	$1, 2884(%rax)
	je	.LBB30_118
# %bb.117:                              # %if.then456
	movq	input, %rax
	movl	2884(%rax), %ecx
	movabsq	$errortext, %rdi
	movl	$300, %esi              # imm = 0x12C
	movabsq	$.L.str.198, %rdx
	movb	$0, %al
	callq	snprintf
	movabsq	$errortext, %rdi
	movl	$400, %esi              # imm = 0x190
	callq	error
.LBB30_118:                             # %if.end459
	movq	input, %rax
	cmpl	$0, 2464(%rax)
	jne	.LBB30_121
# %bb.119:                              # %land.lhs.true461
	movq	input, %rax
	cmpl	$0, 2884(%rax)
	je	.LBB30_121
# %bb.120:                              # %if.then464
	movabsq	$errortext, %rdi
	movl	$300, %esi              # imm = 0x12C
	movabsq	$.L.str.199, %rdx
	movb	$0, %al
	callq	snprintf
	movabsq	$errortext, %rdi
	movl	$500, %esi              # imm = 0x1F4
	callq	error
.LBB30_121:                             # %if.end466
	movq	input, %rax
	cmpl	$1, 2464(%rax)
	jle	.LBB30_123
# %bb.122:                              # %if.then470
	movabsq	$errortext, %rdi
	movl	$300, %esi              # imm = 0x12C
	movabsq	$.L.str.200, %rdx
	movb	$0, %al
	callq	snprintf
	movabsq	$errortext, %rdi
	movl	$500, %esi              # imm = 0x1F4
	callq	error
.LBB30_123:                             # %if.end472
	movq	input, %rax
	movl	2912(%rax), %eax
	movq	input, %rcx
	cmpl	36(%rcx), %eax
	jge	.LBB30_125
# %bb.124:                              # %lor.lhs.false475
	movq	input, %rax
	cmpl	$0, 2912(%rax)
	jge	.LBB30_126
.LBB30_125:                             # %if.then479
	movq	input, %rax
	movl	2912(%rax), %ecx
	movq	input, %rax
	movl	36(%rax), %r8d
	movabsq	$errortext, %rdi
	movl	$300, %esi              # imm = 0x12C
	movabsq	$.L.str.201, %rdx
	movb	$0, %al
	callq	snprintf
	movabsq	$errortext, %rdi
	movl	$500, %esi              # imm = 0x1F4
	callq	error
.LBB30_126:                             # %if.end483
	movq	input, %rax
	cmpl	$0, 2912(%rax)
	jle	.LBB30_129
# %bb.127:                              # %land.lhs.true487
	movq	input, %rax
	cmpl	$0, 2360(%rax)
	jne	.LBB30_129
# %bb.128:                              # %if.then490
	movabsq	$errortext, %rdi
	movl	$300, %esi              # imm = 0x12C
	movabsq	$.L.str.202, %rdx
	movb	$0, %al
	callq	snprintf
	movabsq	$errortext, %rdi
	movl	$500, %esi              # imm = 0x1F4
	callq	error
.LBB30_129:                             # %if.end492
	movq	input, %rax
	cmpl	$0, 2880(%rax)
	jne	.LBB30_131
# %bb.130:                              # %lor.lhs.false495
	movq	input, %rax
	cmpl	$0, 2884(%rax)
	je	.LBB30_133
.LBB30_131:                             # %land.lhs.true498
	movq	input, %rax
	cmpl	$1, 2940(%rax)
	jne	.LBB30_133
# %bb.132:                              # %if.then501
	movabsq	$errortext, %rdi
	movl	$300, %esi              # imm = 0x12C
	movabsq	$.L.str.203, %rdx
	movb	$0, %al
	callq	snprintf
	movabsq	$errortext, %rdi
	movl	$500, %esi              # imm = 0x1F4
	callq	error
.LBB30_133:                             # %if.end503
	movq	input, %rax
	cmpl	$1, 2360(%rax)
	je	.LBB30_136
# %bb.134:                              # %land.lhs.true507
	movq	input, %rax
	cmpl	$1, 2940(%rax)
	jne	.LBB30_136
# %bb.135:                              # %if.then511
	movabsq	$errortext, %rdi
	movl	$300, %esi              # imm = 0x12C
	movabsq	$.L.str.204, %rdx
	movb	$0, %al
	callq	snprintf
	movabsq	$errortext, %rdi
	movl	$500, %esi              # imm = 0x1F4
	callq	error
.LBB30_136:                             # %if.end513
	movq	input, %rax
	cmpl	$0, 1284(%rax)
	jg	.LBB30_138
# %bb.137:                              # %lor.lhs.false516
	movq	input, %rax
	cmpl	$0, 1288(%rax)
	jle	.LBB30_140
.LBB30_138:                             # %land.lhs.true519
	movq	input, %rax
	cmpl	$0, 2884(%rax)
	je	.LBB30_140
# %bb.139:                              # %if.then522
	movabsq	$.L.str.205, %rdi
	movb	$0, %al
	callq	printf
	movabsq	$errortext, %rdi
	movl	$500, %esi              # imm = 0x1F4
	callq	error
.LBB30_140:                             # %if.end524
	movq	input, %rax
	cmpl	$0, 2912(%rax)
	jle	.LBB30_143
# %bb.141:                              # %land.lhs.true528
	movq	input, %rax
	cmpl	$0, 1284(%rax)
	jle	.LBB30_143
# %bb.142:                              # %if.then532
	movabsq	$errortext, %rdi
	movl	$300, %esi              # imm = 0x12C
	movabsq	$.L.str.206, %rdx
	movb	$0, %al
	callq	snprintf
	movabsq	$errortext, %rdi
	movl	$500, %esi              # imm = 0x1F4
	callq	error
.LBB30_143:                             # %if.end534
	movq	input, %rax
	cmpl	$0, 3152(%rax)
	jle	.LBB30_148
# %bb.144:                              # %if.then538
	movq	input, %rax
	cmpl	$3, 3156(%rax)
	jl	.LBB30_147
# %bb.145:                              # %land.lhs.true542
	movq	input, %rax
	cmpl	$5, 3156(%rax)
	jg	.LBB30_147
# %bb.146:                              # %if.then546
	movq	input, %rax
	movl	$1, 3152(%rax)
.LBB30_147:                             # %if.end548
	jmp	.LBB30_148
.LBB30_148:                             # %if.end549
	movq	input, %rax
	cmpl	$0, 3236(%rax)
	je	.LBB30_152
# %bb.149:                              # %if.then551
	movq	input, %rax
	movl	68(%rax), %eax
	movq	img, %rcx
	addl	72732(%rcx), %eax
	movq	input, %rcx
	movl	64(%rcx), %ecx
	movq	img, %rdx
	addl	72728(%rdx), %ecx
	imull	%ecx, %eax
	cltd
	movl	$256, %ecx              # imm = 0x100
	idivl	%ecx
	movq	input, %rcx
	cltd
	idivl	3248(%rcx)
	cmpl	$0, %edx
	je	.LBB30_151
# %bb.150:                              # %if.then563
	movabsq	$errortext, %rdi
	movl	$300, %esi              # imm = 0x12C
	movabsq	$.L.str.207, %rdx
	movb	$0, %al
	callq	snprintf
	movabsq	$errortext, %rdi
	movl	$500, %esi              # imm = 0x1F4
	callq	error
.LBB30_151:                             # %if.end565
	jmp	.LBB30_152
.LBB30_152:                             # %if.end566
	movq	input, %rax
	cmpl	$0, 1236(%rax)
	je	.LBB30_158
# %bb.153:                              # %land.lhs.true569
	movq	input, %rax
	cmpl	$0, 1316(%rax)
	je	.LBB30_158
# %bb.154:                              # %land.lhs.true572
	movq	input, %rax
	cmpl	$0, 1228(%rax)
	je	.LBB30_158
# %bb.155:                              # %land.lhs.true574
	movq	input, %rax
	cmpl	$0, 1224(%rax)
	je	.LBB30_158
# %bb.156:                              # %land.lhs.true576
	movq	input, %rax
	cmpl	$0, 3208(%rax)
	je	.LBB30_158
# %bb.157:                              # %if.then579
	movabsq	$.L.str.208, %rdi
	movl	$4294966296, %esi       # imm = 0xFFFFFC18
	callq	error
.LBB30_158:                             # %if.end580
	movq	input, %rax
	cmpl	$0, 1248(%rax)
	jne	.LBB30_162
# %bb.159:                              # %land.lhs.true583
	movq	input, %rax
	cmpl	$2, 36(%rax)
	jge	.LBB30_162
# %bb.160:                              # %land.lhs.true587
	movq	input, %rax
	cmpl	$0, 1236(%rax)
	jle	.LBB30_162
# %bb.161:                              # %if.then591
	movabsq	$.L.str.209, %rdi
	movl	$4294966296, %esi       # imm = 0xFFFFFC18
	callq	error
.LBB30_162:                             # %if.end592
	movq	input, %rax
	cmpl	$0, 3220(%rax)
	je	.LBB30_165
# %bb.163:                              # %land.lhs.true594
	movq	input, %rax
	cmpl	$0, 1272(%rax)
	je	.LBB30_165
# %bb.164:                              # %if.then596
	movabsq	$errortext, %rdi
	movl	$300, %esi              # imm = 0x12C
	movabsq	$.L.str.210, %rdx
	movb	$0, %al
	callq	snprintf
	movabsq	$errortext, %rdi
	movl	$500, %esi              # imm = 0x1F4
	callq	error
.LBB30_165:                             # %if.end598
	movq	input, %rax
	cmpl	$0, 3220(%rax)
	je	.LBB30_169
# %bb.166:                              # %land.lhs.true601
	movq	input, %rax
	cmpl	$100, (%rax)
	jl	.LBB30_168
# %bb.167:                              # %lor.lhs.false604
	movq	input, %rax
	cmpl	$144, (%rax)
	jle	.LBB30_169
.LBB30_168:                             # %if.then608
	movabsq	$errortext, %rdi
	movl	$300, %esi              # imm = 0x12C
	movabsq	$.L.str.211, %rdx
	movl	$100, %ecx
	movl	$144, %r8d
	movb	$0, %al
	callq	snprintf
	movabsq	$errortext, %rdi
	movl	$500, %esi              # imm = 0x1F4
	callq	error
.LBB30_169:                             # %if.end610
	movq	input, %rax
	cmpl	$0, 3256(%rax)
	je	.LBB30_173
# %bb.170:                              # %land.lhs.true612
	movq	input, %rax
	cmpl	$100, (%rax)
	jl	.LBB30_172
# %bb.171:                              # %lor.lhs.false616
	movq	input, %rax
	cmpl	$144, (%rax)
	jle	.LBB30_173
.LBB30_172:                             # %if.then620
	movabsq	$errortext, %rdi
	movl	$300, %esi              # imm = 0x12C
	movabsq	$.L.str.212, %rdx
	movl	$100, %ecx
	movl	$144, %r8d
	movb	$0, %al
	callq	snprintf
	movabsq	$errortext, %rdi
	movl	$500, %esi              # imm = 0x1F4
	callq	error
.LBB30_173:                             # %if.end622
	movq	input, %rax
	cmpl	$2, 72(%rax)
	jne	.LBB30_176
# %bb.174:                              # %land.lhs.true625
	movq	input, %rax
	cmpl	$122, (%rax)
	jge	.LBB30_176
# %bb.175:                              # %if.then629
	movabsq	$errortext, %rdi
	movl	$300, %esi              # imm = 0x12C
	movabsq	$.L.str.213, %rdx
	movl	$122, %ecx
	movl	$144, %r8d
	movb	$0, %al
	callq	snprintf
	movabsq	$errortext, %rdi
	movl	$500, %esi              # imm = 0x1F4
	callq	error
.LBB30_176:                             # %if.end631
	movq	input, %rax
	cmpl	$3, 72(%rax)
	jne	.LBB30_179
# %bb.177:                              # %land.lhs.true635
	movq	input, %rax
	cmpl	$144, (%rax)
	jge	.LBB30_179
# %bb.178:                              # %if.then639
	movabsq	$errortext, %rdi
	movl	$300, %esi              # imm = 0x12C
	movabsq	$.L.str.214, %rdx
	movl	$144, %ecx
	movb	$0, %al
	callq	snprintf
	movabsq	$errortext, %rdi
	movl	$500, %esi              # imm = 0x1F4
	callq	error
.LBB30_179:                             # %if.end641
	movq	input, %rax
	cmpl	$3, 72(%rax)
	je	.LBB30_182
# %bb.180:                              # %land.lhs.true645
	movq	input, %rax
	cmpl	$0, 3328(%rax)
	je	.LBB30_182
# %bb.181:                              # %if.then647
	movabsq	$errortext, %rdi
	movl	$300, %esi              # imm = 0x12C
	movabsq	$.L.str.215, %rdx
	movb	$0, %al
	callq	snprintf
	movabsq	$errortext, %rdi
	movl	$500, %esi              # imm = 0x1F4
	callq	error
.LBB30_182:                             # %if.end649
	callq	ProfileCheck
	callq	LevelCheck
	cmpl	$1247021903, -44(%rbp)  # imm = 0x4A540B4F
	jne	.LBB30_184
.LBB30_183:
	addq	$48, %rsp
	popq	%rbp
	.cfi_def_cfa %rsp, 8
	retq
.LBB30_184:                             # %func_exit
	.cfi_def_cfa %rbp, 16
	callq	detect_breach
	jmp	.LBB30_183
.Lfunc_end30:
	.size	PatchInp.18, .Lfunc_end30-PatchInp.18
	.cfi_endproc
                                        # -- End function
	.p2align	4, 0x90         # -- Begin function ParseContent.19
	.type	ParseContent.19,@function
ParseContent.19:                        # @ParseContent.19
	.cfi_startproc
# %bb.0:                                # %entry
	pushq	%rbp
	.cfi_def_cfa_offset 16
	.cfi_offset %rbp, -16
	movq	%rsp, %rbp
	.cfi_def_cfa_register %rbp
	subq	$80080, %rsp            # imm = 0x138D0
	movl	$688052105, -44(%rbp)   # imm = 0x2902D789
	movq	%rdi, -64(%rbp)
	movl	%esi, -40(%rbp)
	movl	$0, -24(%rbp)
	movl	$0, -28(%rbp)
	movl	$0, -20(%rbp)
	movq	-64(%rbp), %rax
	movq	%rax, -16(%rbp)
	movq	-64(%rbp), %rax
	movslq	-40(%rbp), %rcx
	addq	%rcx, %rax
	movq	%rax, -56(%rbp)
.LBB31_1:                               # %while.cond
                                        # =>This Loop Header: Depth=1
                                        #     Child Loop BB31_6 Depth 2
	movq	-16(%rbp), %rax
	cmpq	-56(%rbp), %rax
	jae	.LBB31_24
# %bb.2:                                # %while.body
                                        #   in Loop: Header=BB31_1 Depth=1
	movq	-16(%rbp), %rax
	movsbl	(%rax), %eax
	addl	$-9, %eax
	movl	%eax, %ecx
	subl	$26, %ecx
	ja	.LBB31_20
# %bb.3:                                # %while.body
                                        #   in Loop: Header=BB31_1 Depth=1
	movq	.LJTI31_0(,%rax,8), %rax
	jmpq	*%rax
.LBB31_4:                               # %sw.bb
                                        #   in Loop: Header=BB31_1 Depth=1
	movq	-16(%rbp), %rax
	addq	$1, %rax
	movq	%rax, -16(%rbp)
	jmp	.LBB31_23
.LBB31_5:                               # %sw.bb1
                                        #   in Loop: Header=BB31_1 Depth=1
	movq	-16(%rbp), %rax
	movb	$0, (%rax)
.LBB31_6:                               # %while.cond2
                                        #   Parent Loop BB31_1 Depth=1
                                        # =>  This Inner Loop Header: Depth=2
	xorl	%eax, %eax
	movq	-16(%rbp), %rcx
	movsbl	(%rcx), %ecx
	cmpl	$10, %ecx
	je	.LBB31_8
# %bb.7:                                # %land.rhs
                                        #   in Loop: Header=BB31_6 Depth=2
	movq	-16(%rbp), %rax
	cmpq	-56(%rbp), %rax
	setb	%al
.LBB31_8:                               # %land.end
                                        #   in Loop: Header=BB31_6 Depth=2
	testb	$1, %al
	jne	.LBB31_9
	jmp	.LBB31_10
.LBB31_9:                               # %while.body8
                                        #   in Loop: Header=BB31_6 Depth=2
	movq	-16(%rbp), %rax
	addq	$1, %rax
	movq	%rax, -16(%rbp)
	jmp	.LBB31_6
.LBB31_10:                              # %while.end
                                        #   in Loop: Header=BB31_1 Depth=1
	movl	$0, -28(%rbp)
	movl	$0, -20(%rbp)
	jmp	.LBB31_23
.LBB31_11:                              # %sw.bb10
                                        #   in Loop: Header=BB31_1 Depth=1
	movl	$0, -20(%rbp)
	movl	$0, -28(%rbp)
	movq	-16(%rbp), %rax
	movq	%rax, %rcx
	addq	$1, %rcx
	movq	%rcx, -16(%rbp)
	movb	$0, (%rax)
	jmp	.LBB31_23
.LBB31_12:                              # %sw.bb12
                                        #   in Loop: Header=BB31_1 Depth=1
	cmpl	$0, -28(%rbp)
	je	.LBB31_14
# %bb.13:                               # %if.then
                                        #   in Loop: Header=BB31_1 Depth=1
	movq	-16(%rbp), %rax
	addq	$1, %rax
	movq	%rax, -16(%rbp)
	jmp	.LBB31_15
.LBB31_14:                              # %if.else
                                        #   in Loop: Header=BB31_1 Depth=1
	movq	-16(%rbp), %rax
	movq	%rax, %rcx
	addq	$1, %rcx
	movq	%rcx, -16(%rbp)
	movb	$0, (%rax)
	movl	$0, -20(%rbp)
.LBB31_15:                              # %if.end
                                        #   in Loop: Header=BB31_1 Depth=1
	jmp	.LBB31_23
.LBB31_16:                              # %sw.bb15
                                        #   in Loop: Header=BB31_1 Depth=1
	movq	-16(%rbp), %rax
	movq	%rax, %rcx
	addq	$1, %rcx
	movq	%rcx, -16(%rbp)
	movb	$0, (%rax)
	cmpl	$0, -28(%rbp)
	jne	.LBB31_18
# %bb.17:                               # %if.then18
                                        #   in Loop: Header=BB31_1 Depth=1
	movq	-16(%rbp), %rax
	movl	-24(%rbp), %ecx
	movl	%ecx, %edx
	addl	$1, %edx
	movl	%edx, -24(%rbp)
	movslq	%ecx, %rcx
	movq	%rax, -80080(%rbp,%rcx,8)
	movl	-20(%rbp), %eax
	xorl	$-1, %eax
	movl	%eax, -20(%rbp)
	jmp	.LBB31_19
.LBB31_18:                              # %if.else21
                                        #   in Loop: Header=BB31_1 Depth=1
	movl	$0, -20(%rbp)
.LBB31_19:                              # %if.end22
                                        #   in Loop: Header=BB31_1 Depth=1
	movl	-28(%rbp), %eax
	xorl	$-1, %eax
	movl	%eax, -28(%rbp)
	jmp	.LBB31_23
.LBB31_20:                              # %sw.default
                                        #   in Loop: Header=BB31_1 Depth=1
	cmpl	$0, -20(%rbp)
	jne	.LBB31_22
# %bb.21:                               # %if.then25
                                        #   in Loop: Header=BB31_1 Depth=1
	movq	-16(%rbp), %rax
	movl	-24(%rbp), %ecx
	movl	%ecx, %edx
	addl	$1, %edx
	movl	%edx, -24(%rbp)
	movslq	%ecx, %rcx
	movq	%rax, -80080(%rbp,%rcx,8)
	movl	-20(%rbp), %eax
	xorl	$-1, %eax
	movl	%eax, -20(%rbp)
.LBB31_22:                              # %if.end30
                                        #   in Loop: Header=BB31_1 Depth=1
	movq	-16(%rbp), %rax
	addq	$1, %rax
	movq	%rax, -16(%rbp)
.LBB31_23:                              # %sw.epilog
                                        #   in Loop: Header=BB31_1 Depth=1
	jmp	.LBB31_1
.LBB31_24:                              # %while.end32
	movl	-24(%rbp), %eax
	addl	$-1, %eax
	movl	%eax, -24(%rbp)
	movl	$0, -4(%rbp)
.LBB31_25:                              # %for.cond
                                        # =>This Inner Loop Header: Depth=1
	movl	-4(%rbp), %eax
	cmpl	-24(%rbp), %eax
	jge	.LBB31_43
# %bb.26:                               # %for.body
                                        #   in Loop: Header=BB31_25 Depth=1
	movslq	-4(%rbp), %rax
	movq	-80080(%rbp,%rax,8), %rdi
	callq	ParameterNameToMapIndex
	xorl	%ecx, %ecx
	movl	%eax, -32(%rbp)
	cmpl	%eax, %ecx
	jle	.LBB31_28
# %bb.27:                               # %if.then39
                                        #   in Loop: Header=BB31_25 Depth=1
	movslq	-4(%rbp), %rax
	movq	-80080(%rbp,%rax,8), %rcx
	movabsq	$errortext, %rdi
	movl	$300, %esi              # imm = 0x12C
	movabsq	$.L.str.167, %rdx
	movb	$0, %al
	callq	snprintf
	movabsq	$errortext, %rdi
	movl	$300, %esi              # imm = 0x12C
	callq	error
.LBB31_28:                              # %if.end43
                                        #   in Loop: Header=BB31_25 Depth=1
	movl	-4(%rbp), %eax
	addl	$1, %eax
	cltq
	movq	-80080(%rbp,%rax,8), %rsi
	movl	$.L.str.168, %edi
	callq	strcmp
	cmpl	$0, %eax
	je	.LBB31_30
# %bb.29:                               # %if.then48
                                        #   in Loop: Header=BB31_25 Depth=1
	movabsq	$errortext, %rdi
	movl	$300, %esi              # imm = 0x12C
	movabsq	$.L.str.169, %rdx
	movb	$0, %al
	callq	snprintf
	movabsq	$errortext, %rdi
	movl	$300, %esi              # imm = 0x12C
	callq	error
.LBB31_30:                              # %if.end50
                                        #   in Loop: Header=BB31_25 Depth=1
	movslq	-32(%rbp), %rax
	imulq	$56, %rax, %rax
	movl	Map+16(%rax), %eax
	testl	%eax, %eax
	je	.LBB31_33
	jmp	.LBB31_31
.LBB31_31:                              # %if.end50
                                        #   in Loop: Header=BB31_25 Depth=1
	movl	%eax, %ecx
	subl	$1, %ecx
	je	.LBB31_36
	jmp	.LBB31_32
.LBB31_32:                              # %if.end50
                                        #   in Loop: Header=BB31_25 Depth=1
	subl	$2, %eax
	je	.LBB31_37
	jmp	.LBB31_40
.LBB31_33:                              # %sw.bb53
                                        #   in Loop: Header=BB31_25 Depth=1
	movl	-4(%rbp), %eax
	addl	$2, %eax
	cltq
	movq	-80080(%rbp,%rax,8), %rdi
	movabsq	$.L.str.170, %rsi
	leaq	-36(%rbp), %rdx
	movb	$0, %al
	callq	__isoc99_sscanf
	movl	$1, %ecx
	cmpl	%eax, %ecx
	je	.LBB31_35
# %bb.34:                               # %if.then60
                                        #   in Loop: Header=BB31_25 Depth=1
	movslq	-4(%rbp), %rax
	movq	-80080(%rbp,%rax,8), %rcx
	movl	-4(%rbp), %eax
	addl	$2, %eax
	cltq
	movq	-80080(%rbp,%rax,8), %r8
	movabsq	$errortext, %rdi
	movl	$300, %esi              # imm = 0x12C
	movabsq	$.L.str.171, %rdx
	movb	$0, %al
	callq	snprintf
	movabsq	$errortext, %rdi
	movl	$300, %esi              # imm = 0x12C
	callq	error
.LBB31_35:                              # %if.end67
                                        #   in Loop: Header=BB31_25 Depth=1
	movl	-36(%rbp), %eax
	movslq	-32(%rbp), %rcx
	imulq	$56, %rcx, %rcx
	movabsq	$Map, %rdx
	addq	%rcx, %rdx
	movq	8(%rdx), %rcx
	movl	%eax, (%rcx)
	movabsq	$.L.str.172, %rdi
	movb	$0, %al
	callq	printf
	jmp	.LBB31_41
.LBB31_36:                              # %sw.bb71
                                        #   in Loop: Header=BB31_25 Depth=1
	movslq	-32(%rbp), %rax
	imulq	$56, %rax, %rax
	movabsq	$Map, %rcx
	addq	%rax, %rcx
	movq	8(%rcx), %rdi
	movl	-4(%rbp), %eax
	addl	$2, %eax
	cltq
	movq	-80080(%rbp,%rax,8), %rsi
	movl	$200, %edx
	callq	strncpy
	movabsq	$.L.str.172, %rdi
	movb	$0, %al
	callq	printf
	jmp	.LBB31_41
.LBB31_37:                              # %sw.bb80
                                        #   in Loop: Header=BB31_25 Depth=1
	movl	-4(%rbp), %eax
	addl	$2, %eax
	cltq
	movq	-80080(%rbp,%rax,8), %rdi
	movabsq	$.L.str.173, %rsi
	leaq	-72(%rbp), %rdx
	movb	$0, %al
	callq	__isoc99_sscanf
	movl	$1, %ecx
	cmpl	%eax, %ecx
	je	.LBB31_39
# %bb.38:                               # %if.then87
                                        #   in Loop: Header=BB31_25 Depth=1
	movslq	-4(%rbp), %rax
	movq	-80080(%rbp,%rax,8), %rcx
	movl	-4(%rbp), %eax
	addl	$2, %eax
	cltq
	movq	-80080(%rbp,%rax,8), %r8
	movabsq	$errortext, %rdi
	movl	$300, %esi              # imm = 0x12C
	movabsq	$.L.str.171, %rdx
	movb	$0, %al
	callq	snprintf
	movabsq	$errortext, %rdi
	movl	$300, %esi              # imm = 0x12C
	callq	error
.LBB31_39:                              # %if.end94
                                        #   in Loop: Header=BB31_25 Depth=1
	vmovsd	-72(%rbp), %xmm0        # xmm0 = mem[0],zero
	movslq	-32(%rbp), %rax
	imulq	$56, %rax, %rax
	movabsq	$Map, %rcx
	addq	%rax, %rcx
	movq	8(%rcx), %rax
	vmovsd	%xmm0, (%rax)
	movabsq	$.L.str.172, %rdi
	movb	$0, %al
	callq	printf
	jmp	.LBB31_41
.LBB31_40:                              # %sw.default99
                                        #   in Loop: Header=BB31_25 Depth=1
	jmp	.LBB31_41
.LBB31_41:                              # %sw.epilog100
                                        #   in Loop: Header=BB31_25 Depth=1
	jmp	.LBB31_42
.LBB31_42:                              # %for.inc
                                        #   in Loop: Header=BB31_25 Depth=1
	movl	-4(%rbp), %eax
	addl	$3, %eax
	movl	%eax, -4(%rbp)
	jmp	.LBB31_25
.LBB31_43:                              # %for.end
	movabsq	$configinput, %rsi
	movq	input, %rdi
	movl	$3592, %edx             # imm = 0xE08
	callq	memcpy
	cmpl	$688052105, -44(%rbp)   # imm = 0x2902D789
	jne	.LBB31_45
.LBB31_44:
	addq	$80080, %rsp            # imm = 0x138D0
	popq	%rbp
	.cfi_def_cfa %rsp, 8
	retq
.LBB31_45:                              # %func_exit
	.cfi_def_cfa %rbp, 16
	callq	detect_breach
	jmp	.LBB31_44
.Lfunc_end31:
	.size	ParseContent.19, .Lfunc_end31-ParseContent.19
	.cfi_endproc
	.section	.rodata,"a",@progbits
	.p2align	3
.LJTI31_0:
	.quad	.LBB31_12
	.quad	.LBB31_11
	.quad	.LBB31_20
	.quad	.LBB31_20
	.quad	.LBB31_4
	.quad	.LBB31_20
	.quad	.LBB31_20
	.quad	.LBB31_20
	.quad	.LBB31_20
	.quad	.LBB31_20
	.quad	.LBB31_20
	.quad	.LBB31_20
	.quad	.LBB31_20
	.quad	.LBB31_20
	.quad	.LBB31_20
	.quad	.LBB31_20
	.quad	.LBB31_20
	.quad	.LBB31_20
	.quad	.LBB31_20
	.quad	.LBB31_20
	.quad	.LBB31_20
	.quad	.LBB31_20
	.quad	.LBB31_20
	.quad	.LBB31_12
	.quad	.LBB31_20
	.quad	.LBB31_16
	.quad	.LBB31_5
                                        # -- End function
	.text
	.p2align	4, 0x90         # -- Begin function ParameterNameToMapIndex.20
	.type	ParameterNameToMapIndex.20,@function
ParameterNameToMapIndex.20:             # @ParameterNameToMapIndex.20
	.cfi_startproc
# %bb.0:                                # %entry
	pushq	%rbp
	.cfi_def_cfa_offset 16
	.cfi_offset %rbp, -16
	movq	%rsp, %rbp
	.cfi_def_cfa_register %rbp
	pushq	%rbx
	subq	$24, %rsp
	.cfi_offset %rbx, -24
	movl	$2129193330, -20(%rbp)  # imm = 0x7EE8E972
	movq	%rdi, -32(%rbp)
	movl	$0, -12(%rbp)
.LBB32_1:                               # %while.cond
                                        # =>This Inner Loop Header: Depth=1
	movslq	-12(%rbp), %rax
	imulq	$56, %rax, %rax
	movabsq	$Map, %rcx
	addq	%rax, %rcx
	cmpq	$0, (%rcx)
	je	.LBB32_6
# %bb.2:                                # %while.body
                                        #   in Loop: Header=BB32_1 Depth=1
	xorl	%ebx, %ebx
	movslq	-12(%rbp), %rax
	imulq	$56, %rax, %rax
	movabsq	$Map, %rcx
	addq	%rax, %rcx
	movq	(%rcx), %rdi
	movq	-32(%rbp), %rsi
	callq	strcmp
	cmpl	%eax, %ebx
	jne	.LBB32_4
# %bb.3:                                # %if.then
	movl	-12(%rbp), %eax
	movl	%eax, -16(%rbp)
	jmp	.LBB32_7
.LBB32_4:                               # %if.else
                                        #   in Loop: Header=BB32_1 Depth=1
	movl	-12(%rbp), %eax
	addl	$1, %eax
	movl	%eax, -12(%rbp)
# %bb.5:                                # %if.end
                                        #   in Loop: Header=BB32_1 Depth=1
	jmp	.LBB32_1
.LBB32_6:                               # %while.end
	movl	$-1, -16(%rbp)
.LBB32_7:                               # %return
	movl	-16(%rbp), %ebx
	cmpl	$2129193330, -20(%rbp)  # imm = 0x7EE8E972
	jne	.LBB32_9
.LBB32_8:
	movl	%ebx, %eax
	addq	$24, %rsp
	popq	%rbx
	popq	%rbp
	.cfi_def_cfa %rsp, 8
	retq
.LBB32_9:                               # %func_exit
	.cfi_def_cfa %rbp, 16
	callq	detect_breach
	jmp	.LBB32_8
.Lfunc_end32:
	.size	ParameterNameToMapIndex.20, .Lfunc_end32-ParameterNameToMapIndex.20
	.cfi_endproc
                                        # -- End function
	.p2align	4, 0x90         # -- Begin function ParseContent.21
	.type	ParseContent.21,@function
ParseContent.21:                        # @ParseContent.21
	.cfi_startproc
# %bb.0:                                # %entry
	pushq	%rbp
	.cfi_def_cfa_offset 16
	.cfi_offset %rbp, -16
	movq	%rsp, %rbp
	.cfi_def_cfa_register %rbp
	subq	$80080, %rsp            # imm = 0x138D0
	movl	$1909116126, -40(%rbp)  # imm = 0x71CACCDE
	movq	%rdi, -64(%rbp)
	movl	%esi, -44(%rbp)
	movl	$0, -24(%rbp)
	movl	$0, -28(%rbp)
	movl	$0, -20(%rbp)
	movq	-64(%rbp), %rax
	movq	%rax, -16(%rbp)
	movq	-64(%rbp), %rax
	movslq	-44(%rbp), %rcx
	addq	%rcx, %rax
	movq	%rax, -56(%rbp)
.LBB33_1:                               # %while.cond
                                        # =>This Loop Header: Depth=1
                                        #     Child Loop BB33_6 Depth 2
	movq	-16(%rbp), %rax
	cmpq	-56(%rbp), %rax
	jae	.LBB33_24
# %bb.2:                                # %while.body
                                        #   in Loop: Header=BB33_1 Depth=1
	movq	-16(%rbp), %rax
	movsbl	(%rax), %eax
	addl	$-9, %eax
	movl	%eax, %ecx
	subl	$26, %ecx
	ja	.LBB33_20
# %bb.3:                                # %while.body
                                        #   in Loop: Header=BB33_1 Depth=1
	movq	.LJTI33_0(,%rax,8), %rax
	jmpq	*%rax
.LBB33_4:                               # %sw.bb
                                        #   in Loop: Header=BB33_1 Depth=1
	movq	-16(%rbp), %rax
	addq	$1, %rax
	movq	%rax, -16(%rbp)
	jmp	.LBB33_23
.LBB33_5:                               # %sw.bb1
                                        #   in Loop: Header=BB33_1 Depth=1
	movq	-16(%rbp), %rax
	movb	$0, (%rax)
.LBB33_6:                               # %while.cond2
                                        #   Parent Loop BB33_1 Depth=1
                                        # =>  This Inner Loop Header: Depth=2
	xorl	%eax, %eax
	movq	-16(%rbp), %rcx
	movsbl	(%rcx), %ecx
	cmpl	$10, %ecx
	je	.LBB33_8
# %bb.7:                                # %land.rhs
                                        #   in Loop: Header=BB33_6 Depth=2
	movq	-16(%rbp), %rax
	cmpq	-56(%rbp), %rax
	setb	%al
.LBB33_8:                               # %land.end
                                        #   in Loop: Header=BB33_6 Depth=2
	testb	$1, %al
	jne	.LBB33_9
	jmp	.LBB33_10
.LBB33_9:                               # %while.body8
                                        #   in Loop: Header=BB33_6 Depth=2
	movq	-16(%rbp), %rax
	addq	$1, %rax
	movq	%rax, -16(%rbp)
	jmp	.LBB33_6
.LBB33_10:                              # %while.end
                                        #   in Loop: Header=BB33_1 Depth=1
	movl	$0, -28(%rbp)
	movl	$0, -20(%rbp)
	jmp	.LBB33_23
.LBB33_11:                              # %sw.bb10
                                        #   in Loop: Header=BB33_1 Depth=1
	movl	$0, -20(%rbp)
	movl	$0, -28(%rbp)
	movq	-16(%rbp), %rax
	movq	%rax, %rcx
	addq	$1, %rcx
	movq	%rcx, -16(%rbp)
	movb	$0, (%rax)
	jmp	.LBB33_23
.LBB33_12:                              # %sw.bb12
                                        #   in Loop: Header=BB33_1 Depth=1
	cmpl	$0, -28(%rbp)
	je	.LBB33_14
# %bb.13:                               # %if.then
                                        #   in Loop: Header=BB33_1 Depth=1
	movq	-16(%rbp), %rax
	addq	$1, %rax
	movq	%rax, -16(%rbp)
	jmp	.LBB33_15
.LBB33_14:                              # %if.else
                                        #   in Loop: Header=BB33_1 Depth=1
	movq	-16(%rbp), %rax
	movq	%rax, %rcx
	addq	$1, %rcx
	movq	%rcx, -16(%rbp)
	movb	$0, (%rax)
	movl	$0, -20(%rbp)
.LBB33_15:                              # %if.end
                                        #   in Loop: Header=BB33_1 Depth=1
	jmp	.LBB33_23
.LBB33_16:                              # %sw.bb15
                                        #   in Loop: Header=BB33_1 Depth=1
	movq	-16(%rbp), %rax
	movq	%rax, %rcx
	addq	$1, %rcx
	movq	%rcx, -16(%rbp)
	movb	$0, (%rax)
	cmpl	$0, -28(%rbp)
	jne	.LBB33_18
# %bb.17:                               # %if.then18
                                        #   in Loop: Header=BB33_1 Depth=1
	movq	-16(%rbp), %rax
	movl	-24(%rbp), %ecx
	movl	%ecx, %edx
	addl	$1, %edx
	movl	%edx, -24(%rbp)
	movslq	%ecx, %rcx
	movq	%rax, -80080(%rbp,%rcx,8)
	movl	-20(%rbp), %eax
	xorl	$-1, %eax
	movl	%eax, -20(%rbp)
	jmp	.LBB33_19
