	.text
	.file	"configfile.c"
	.globl	JMHelpExit              # -- Begin function JMHelpExit
	.p2align	4, 0x90
	.type	JMHelpExit,@function
JMHelpExit:                             # @JMHelpExit
	.cfi_startproc
# %bb.0:                                # %entry
	pushq	%rbp
	.cfi_def_cfa_offset 16
	.cfi_offset %rbp, -16
	movq	%rsp, %rbp
	.cfi_def_cfa_register %rbp
	movq	stderr, %rdi
	movabsq	$.L.str, %rsi
	movb	$0, %al
	callq	fprintf
	movl	$4294967295, %edi       # imm = 0xFFFFFFFF
	callq	exit
.Lfunc_end0:
	.size	JMHelpExit, .Lfunc_end0-JMHelpExit
	.cfi_endproc
                                        # -- End function
	.globl	Configure               # -- Begin function Configure
	.p2align	4, 0x90
	.type	Configure,@function
Configure:                              # @Configure
	.cfi_startproc
# %bb.0:                                # %rand_bb
	pushq	%rbp
	.cfi_def_cfa_offset 16
	.cfi_offset %rbp, -16
	movq	%rsp, %rbp
	.cfi_def_cfa_register %rbp
	pushq	%r14
	pushq	%rbx
	.cfi_offset %rbx, -32
	.cfi_offset %r14, -24
	movq	%rsi, %r14
	movl	%edi, %ebx
	callq	get_rand
	cmpl	$0, %eax
	jne	.LBB1_9
# %bb.1:                                # %func_Configure.11
	movl	%ebx, %edi
	movq	%r14, %rsi
	callq	Configure.11
	popq	%rbx
	popq	%r14
	popq	%rbp
	.cfi_def_cfa %rsp, 8
	retq
.LBB1_2:                                # %func_Configure.13
	.cfi_def_cfa %rbp, 16
	movl	%ebx, %edi
	movq	%r14, %rsi
	callq	Configure.13
	popq	%rbx
	popq	%r14
	popq	%rbp
	.cfi_def_cfa %rsp, 8
	retq
.LBB1_3:                                # %func_Configure.14
	.cfi_def_cfa %rbp, 16
	movl	%ebx, %edi
	movq	%r14, %rsi
	callq	Configure.14
	popq	%rbx
	popq	%r14
	popq	%rbp
	.cfi_def_cfa %rsp, 8
	retq
.LBB1_4:                                # %func_Configure.22
	.cfi_def_cfa %rbp, 16
	movl	%ebx, %edi
	movq	%r14, %rsi
	callq	Configure.22
	popq	%rbx
	popq	%r14
	popq	%rbp
	.cfi_def_cfa %rsp, 8
	retq
.LBB1_5:                                # %func_Configure.30
	.cfi_def_cfa %rbp, 16
	movl	%ebx, %edi
	movq	%r14, %rsi
	callq	Configure.30
	popq	%rbx
	popq	%r14
	popq	%rbp
	.cfi_def_cfa %rsp, 8
	retq
.LBB1_6:                                # %func_Configure.36
	.cfi_def_cfa %rbp, 16
	movl	%ebx, %edi
	movq	%r14, %rsi
	callq	Configure.36
	popq	%rbx
	popq	%r14
	popq	%rbp
	.cfi_def_cfa %rsp, 8
	retq
.LBB1_7:                                # %func_Configure.37
	.cfi_def_cfa %rbp, 16
	movl	%ebx, %edi
	movq	%r14, %rsi
	callq	Configure.37
	popq	%rbx
	popq	%r14
	popq	%rbp
	.cfi_def_cfa %rsp, 8
	retq
.LBB1_8:                                # %func_Configure.39
	.cfi_def_cfa %rbp, 16
	movl	%ebx, %edi
	movq	%r14, %rsi
	callq	Configure.39
	popq	%rbx
	popq	%r14
	popq	%rbp
	.cfi_def_cfa %rsp, 8
	retq
.LBB1_9:                                # %ctrl0
	.cfi_def_cfa %rbp, 16
	cmpl	$1, %eax
	je	.LBB1_2
# %bb.10:                               # %ctrl1
	cmpl	$2, %eax
	je	.LBB1_3
# %bb.11:                               # %ctrl2
	cmpl	$3, %eax
	je	.LBB1_4
# %bb.12:                               # %ctrl3
	cmpl	$4, %eax
	je	.LBB1_5
# %bb.13:                               # %ctrl4
	cmpl	$5, %eax
	je	.LBB1_6
# %bb.14:                               # %ctrl5
	cmpl	$6, %eax
	je	.LBB1_7
	jmp	.LBB1_8
.Lfunc_end1:
	.size	Configure, .Lfunc_end1-Configure
	.cfi_endproc
                                        # -- End function
	.globl	GetConfigFileContent    # -- Begin function GetConfigFileContent
	.p2align	4, 0x90
	.type	GetConfigFileContent,@function
GetConfigFileContent:                   # @GetConfigFileContent
	.cfi_startproc
# %bb.0:                                # %rand_bb
	pushq	%rbp
	.cfi_def_cfa_offset 16
	.cfi_offset %rbp, -16
	movq	%rsp, %rbp
	.cfi_def_cfa_register %rbp
	pushq	%rbx
	pushq	%rax
	.cfi_offset %rbx, -24
	movq	%rdi, %rbx
	callq	get_rand
	cmpl	$0, %eax
	jne	.LBB2_9
# %bb.1:                                # %func_GetConfigFileContent.7
	movq	%rbx, %rdi
	callq	GetConfigFileContent.7
	addq	$8, %rsp
	popq	%rbx
	popq	%rbp
	.cfi_def_cfa %rsp, 8
	retq
.LBB2_2:                                # %func_GetConfigFileContent.15
	.cfi_def_cfa %rbp, 16
	movq	%rbx, %rdi
	callq	GetConfigFileContent.15
	addq	$8, %rsp
	popq	%rbx
	popq	%rbp
	.cfi_def_cfa %rsp, 8
	retq
.LBB2_3:                                # %func_GetConfigFileContent.23
	.cfi_def_cfa %rbp, 16
	movq	%rbx, %rdi
	callq	GetConfigFileContent.23
	addq	$8, %rsp
	popq	%rbx
	popq	%rbp
	.cfi_def_cfa %rsp, 8
	retq
.LBB2_4:                                # %func_GetConfigFileContent.25
	.cfi_def_cfa %rbp, 16
	movq	%rbx, %rdi
	callq	GetConfigFileContent.25
	addq	$8, %rsp
	popq	%rbx
	popq	%rbp
	.cfi_def_cfa %rsp, 8
	retq
.LBB2_5:                                # %func_GetConfigFileContent.27
	.cfi_def_cfa %rbp, 16
	movq	%rbx, %rdi
	callq	GetConfigFileContent.27
	addq	$8, %rsp
	popq	%rbx
	popq	%rbp
	.cfi_def_cfa %rsp, 8
	retq
.LBB2_6:                                # %func_GetConfigFileContent.34
	.cfi_def_cfa %rbp, 16
	movq	%rbx, %rdi
	callq	GetConfigFileContent.34
	addq	$8, %rsp
	popq	%rbx
	popq	%rbp
	.cfi_def_cfa %rsp, 8
	retq
.LBB2_7:                                # %func_GetConfigFileContent.35
	.cfi_def_cfa %rbp, 16
	movq	%rbx, %rdi
	callq	GetConfigFileContent.35
	addq	$8, %rsp
	popq	%rbx
	popq	%rbp
	.cfi_def_cfa %rsp, 8
	retq
.LBB2_8:                                # %func_GetConfigFileContent.38
	.cfi_def_cfa %rbp, 16
	movq	%rbx, %rdi
	callq	GetConfigFileContent.38
	addq	$8, %rsp
	popq	%rbx
	popq	%rbp
	.cfi_def_cfa %rsp, 8
	retq
.LBB2_9:                                # %ctrl0
	.cfi_def_cfa %rbp, 16
	cmpl	$1, %eax
	je	.LBB2_2
# %bb.10:                               # %ctrl1
	cmpl	$2, %eax
	je	.LBB2_3
# %bb.11:                               # %ctrl2
	cmpl	$3, %eax
	je	.LBB2_4
# %bb.12:                               # %ctrl3
	cmpl	$4, %eax
	je	.LBB2_5
# %bb.13:                               # %ctrl4
	cmpl	$5, %eax
	je	.LBB2_6
# %bb.14:                               # %ctrl5
	cmpl	$6, %eax
	je	.LBB2_7
	jmp	.LBB2_8
.Lfunc_end2:
	.size	GetConfigFileContent, .Lfunc_end2-GetConfigFileContent
	.cfi_endproc
                                        # -- End function
	.p2align	4, 0x90         # -- Begin function ParseContent
	.type	ParseContent,@function
ParseContent:                           # @ParseContent
	.cfi_startproc
# %bb.0:                                # %rand_bb
	pushq	%rbp
	.cfi_def_cfa_offset 16
	.cfi_offset %rbp, -16
	movq	%rsp, %rbp
	.cfi_def_cfa_register %rbp
	pushq	%r14
	pushq	%rbx
	.cfi_offset %rbx, -32
	.cfi_offset %r14, -24
	movl	%esi, %r14d
	movq	%rdi, %rbx
	callq	get_rand
	cmpl	$0, %eax
	jne	.LBB3_9
# %bb.1:                                # %func_ParseContent.2
	movq	%rbx, %rdi
	movl	%r14d, %esi
	callq	ParseContent.2
	popq	%rbx
	popq	%r14
	popq	%rbp
	.cfi_def_cfa %rsp, 8
	retq
.LBB3_2:                                # %func_ParseContent.8
	.cfi_def_cfa %rbp, 16
	movq	%rbx, %rdi
	movl	%r14d, %esi
	callq	ParseContent.8
	popq	%rbx
	popq	%r14
	popq	%rbp
	.cfi_def_cfa %rsp, 8
	retq
.LBB3_3:                                # %func_ParseContent.17
	.cfi_def_cfa %rbp, 16
	movq	%rbx, %rdi
	movl	%r14d, %esi
	callq	ParseContent.17
	popq	%rbx
	popq	%r14
	popq	%rbp
	.cfi_def_cfa %rsp, 8
	retq
.LBB3_4:                                # %func_ParseContent.28
	.cfi_def_cfa %rbp, 16
	movq	%rbx, %rdi
	movl	%r14d, %esi
	callq	ParseContent.28
	popq	%rbx
	popq	%r14
	popq	%rbp
	.cfi_def_cfa %rsp, 8
	retq
.LBB3_5:                                # %func_ParseContent.33
	.cfi_def_cfa %rbp, 16
	movq	%rbx, %rdi
	movl	%r14d, %esi
	callq	ParseContent.33
	popq	%rbx
	popq	%r14
	popq	%rbp
	.cfi_def_cfa %rsp, 8
	retq
.LBB3_6:                                # %func_ParseContent.41
	.cfi_def_cfa %rbp, 16
	movq	%rbx, %rdi
	movl	%r14d, %esi
	callq	ParseContent.41
	popq	%rbx
	popq	%r14
	popq	%rbp
	.cfi_def_cfa %rsp, 8
	retq
.LBB3_7:                                # %func_ParseContent.42
	.cfi_def_cfa %rbp, 16
	movq	%rbx, %rdi
	movl	%r14d, %esi
	callq	ParseContent.42
	popq	%rbx
	popq	%r14
	popq	%rbp
	.cfi_def_cfa %rsp, 8
	retq
.LBB3_8:                                # %func_ParseContent.46
	.cfi_def_cfa %rbp, 16
	movq	%rbx, %rdi
	movl	%r14d, %esi
	callq	ParseContent.46
	popq	%rbx
	popq	%r14
	popq	%rbp
	.cfi_def_cfa %rsp, 8
	retq
.LBB3_9:                                # %ctrl0
	.cfi_def_cfa %rbp, 16
	cmpl	$1, %eax
	je	.LBB3_2
# %bb.10:                               # %ctrl1
	cmpl	$2, %eax
	je	.LBB3_3
# %bb.11:                               # %ctrl2
	cmpl	$3, %eax
	je	.LBB3_4
# %bb.12:                               # %ctrl3
	cmpl	$4, %eax
	je	.LBB3_5
# %bb.13:                               # %ctrl4
	cmpl	$5, %eax
	je	.LBB3_6
# %bb.14:                               # %ctrl5
	cmpl	$6, %eax
	je	.LBB3_7
	jmp	.LBB3_8
.Lfunc_end3:
	.size	ParseContent, .Lfunc_end3-ParseContent
	.cfi_endproc
                                        # -- End function
	.globl	CeilLog2                # -- Begin function CeilLog2
	.p2align	4, 0x90
	.type	CeilLog2,@function
CeilLog2:                               # @CeilLog2
	.cfi_startproc
# %bb.0:                                # %rand_bb
	pushq	%rbp
	.cfi_def_cfa_offset 16
	.cfi_offset %rbp, -16
	movq	%rsp, %rbp
	.cfi_def_cfa_register %rbp
	pushq	%rbx
	pushq	%rax
	.cfi_offset %rbx, -24
	movl	%edi, %ebx
	callq	get_rand
	cmpl	$0, %eax
	jne	.LBB4_7
# %bb.1:                                # %func_CeilLog2.3
	movl	%ebx, %edi
	callq	CeilLog2.3
	addq	$8, %rsp
	popq	%rbx
	popq	%rbp
	.cfi_def_cfa %rsp, 8
	retq
.LBB4_2:                                # %func_CeilLog2.5
	.cfi_def_cfa %rbp, 16
	movl	%ebx, %edi
	callq	CeilLog2.5
	addq	$8, %rsp
	popq	%rbx
	popq	%rbp
	.cfi_def_cfa %rsp, 8
	retq
.LBB4_3:                                # %func_CeilLog2.6
	.cfi_def_cfa %rbp, 16
	movl	%ebx, %edi
	callq	CeilLog2.6
	addq	$8, %rsp
	popq	%rbx
	popq	%rbp
	.cfi_def_cfa %rsp, 8
	retq
.LBB4_4:                                # %func_CeilLog2.10
	.cfi_def_cfa %rbp, 16
	movl	%ebx, %edi
	callq	CeilLog2.10
	addq	$8, %rsp
	popq	%rbx
	popq	%rbp
	.cfi_def_cfa %rsp, 8
	retq
.LBB4_5:                                # %func_CeilLog2.26
	.cfi_def_cfa %rbp, 16
	movl	%ebx, %edi
	callq	CeilLog2.26
	addq	$8, %rsp
	popq	%rbx
	popq	%rbp
	.cfi_def_cfa %rsp, 8
	retq
.LBB4_6:                                # %func_CeilLog2.31
	.cfi_def_cfa %rbp, 16
	movl	%ebx, %edi
	callq	CeilLog2.31
	addq	$8, %rsp
	popq	%rbx
	popq	%rbp
	.cfi_def_cfa %rsp, 8
	retq
.LBB4_7:                                # %ctrl0
	.cfi_def_cfa %rbp, 16
	cmpl	$1, %eax
	je	.LBB4_2
# %bb.8:                                # %ctrl1
	cmpl	$2, %eax
	je	.LBB4_3
# %bb.9:                                # %ctrl2
	cmpl	$3, %eax
	je	.LBB4_4
# %bb.10:                               # %ctrl3
	cmpl	$4, %eax
	je	.LBB4_5
	jmp	.LBB4_6
.Lfunc_end4:
	.size	CeilLog2, .Lfunc_end4-CeilLog2
	.cfi_endproc
                                        # -- End function
	.globl	PatchInputNoFrames      # -- Begin function PatchInputNoFrames
	.p2align	4, 0x90
	.type	PatchInputNoFrames,@function
PatchInputNoFrames:                     # @PatchInputNoFrames
	.cfi_startproc
# %bb.0:                                # %entry
	pushq	%rbp
	.cfi_def_cfa_offset 16
	.cfi_offset %rbp, -16
	movq	%rsp, %rbp
	.cfi_def_cfa_register %rbp
	movq	input, %rax
	movl	8(%rax), %eax
	subl	$1, %eax
	movq	input, %rcx
	movl	2912(%rcx), %ecx
	addl	$1, %ecx
	imull	%ecx, %eax
	addl	$1, %eax
	movq	input, %rcx
	movl	%eax, 8(%rcx)
	movq	input, %rax
	cmpl	$0, 2916(%rax)
	je	.LBB5_2
# %bb.1:                                # %if.then
	movq	input, %rax
	movl	2916(%rax), %eax
	subl	$1, %eax
	movq	input, %rcx
	movl	2912(%rcx), %ecx
	addl	$1, %ecx
	imull	%ecx, %eax
	addl	$1, %eax
	movq	input, %rcx
	movl	%eax, 2916(%rcx)
.LBB5_2:                                # %if.end
	movq	input, %rax
	movl	8(%rax), %eax
	movl	%eax, FirstFrameIn2ndIGOP
	popq	%rbp
	.cfi_def_cfa %rsp, 8
	retq
.Lfunc_end5:
	.size	PatchInputNoFrames, .Lfunc_end5-PatchInputNoFrames
	.cfi_endproc
                                        # -- End function
	.p2align	4, 0x90         # -- Begin function ParameterNameToMapIndex
	.type	ParameterNameToMapIndex,@function
ParameterNameToMapIndex:                # @ParameterNameToMapIndex
	.cfi_startproc
# %bb.0:                                # %rand_bb
	pushq	%rbp
	.cfi_def_cfa_offset 16
	.cfi_offset %rbp, -16
	movq	%rsp, %rbp
	.cfi_def_cfa_register %rbp
	pushq	%rbx
	pushq	%rax
	.cfi_offset %rbx, -24
	movq	%rdi, %rbx
	callq	get_rand
	cmpl	$0, %eax
	jne	.LBB6_7
# %bb.1:                                # %func_ParameterNameToMapIndex.4
	movq	%rbx, %rdi
	callq	ParameterNameToMapIndex.4
	addq	$8, %rsp
	popq	%rbx
	popq	%rbp
	.cfi_def_cfa %rsp, 8
	retq
.LBB6_2:                                # %func_ParameterNameToMapIndex.9
	.cfi_def_cfa %rbp, 16
	movq	%rbx, %rdi
	callq	ParameterNameToMapIndex.9
	addq	$8, %rsp
	popq	%rbx
	popq	%rbp
	.cfi_def_cfa %rsp, 8
	retq
.LBB6_3:                                # %func_ParameterNameToMapIndex.16
	.cfi_def_cfa %rbp, 16
	movq	%rbx, %rdi
	callq	ParameterNameToMapIndex.16
	addq	$8, %rsp
	popq	%rbx
	popq	%rbp
	.cfi_def_cfa %rsp, 8
	retq
.LBB6_4:                                # %func_ParameterNameToMapIndex.18
	.cfi_def_cfa %rbp, 16
	movq	%rbx, %rdi
	callq	ParameterNameToMapIndex.18
	addq	$8, %rsp
	popq	%rbx
	popq	%rbp
	.cfi_def_cfa %rsp, 8
	retq
.LBB6_5:                                # %func_ParameterNameToMapIndex.20
	.cfi_def_cfa %rbp, 16
	movq	%rbx, %rdi
	callq	ParameterNameToMapIndex.20
	addq	$8, %rsp
	popq	%rbx
	popq	%rbp
	.cfi_def_cfa %rsp, 8
	retq
.LBB6_6:                                # %func_ParameterNameToMapIndex.21
	.cfi_def_cfa %rbp, 16
	movq	%rbx, %rdi
	callq	ParameterNameToMapIndex.21
	addq	$8, %rsp
	popq	%rbx
	popq	%rbp
	.cfi_def_cfa %rsp, 8
	retq
.LBB6_7:                                # %ctrl0
	.cfi_def_cfa %rbp, 16
	cmpl	$1, %eax
	je	.LBB6_2
# %bb.8:                                # %ctrl1
	cmpl	$2, %eax
	je	.LBB6_3
# %bb.9:                                # %ctrl2
	cmpl	$3, %eax
	je	.LBB6_4
# %bb.10:                               # %ctrl3
	cmpl	$4, %eax
	je	.LBB6_5
	jmp	.LBB6_6
.Lfunc_end6:
	.size	ParameterNameToMapIndex, .Lfunc_end6-ParameterNameToMapIndex
	.cfi_endproc
                                        # -- End function
	.p2align	4, 0x90         # -- Begin function InitEncoderParams
	.type	InitEncoderParams,@function
InitEncoderParams:                      # @InitEncoderParams
	.cfi_startproc
# %bb.0:                                # %entry
	pushq	%rbp
	.cfi_def_cfa_offset 16
	.cfi_offset %rbp, -16
	movq	%rsp, %rbp
	.cfi_def_cfa_register %rbp
	movl	$0, -4(%rbp)
.LBB7_1:                                # %while.cond
                                        # =>This Inner Loop Header: Depth=1
	movslq	-4(%rbp), %rax
	imulq	$56, %rax, %rax
	movabsq	$Map, %rcx
	addq	%rax, %rcx
	cmpq	$0, (%rcx)
	je	.LBB7_8
# %bb.2:                                # %while.body
                                        #   in Loop: Header=BB7_1 Depth=1
	movslq	-4(%rbp), %rax
	imulq	$56, %rax, %rax
	movabsq	$Map, %rcx
	addq	%rax, %rcx
	cmpl	$0, 16(%rcx)
	jne	.LBB7_4
# %bb.3:                                # %if.then
                                        #   in Loop: Header=BB7_1 Depth=1
	movslq	-4(%rbp), %rax
	imulq	$56, %rax, %rax
	movabsq	$Map, %rcx
	movq	%rcx, %rdx
	addq	%rax, %rdx
	vcvttsd2si	24(%rdx), %eax
	movslq	-4(%rbp), %rdx
	imulq	$56, %rdx, %rdx
	addq	%rdx, %rcx
	movq	8(%rcx), %rcx
	movl	%eax, (%rcx)
	jmp	.LBB7_7
.LBB7_4:                                # %if.else
                                        #   in Loop: Header=BB7_1 Depth=1
	movslq	-4(%rbp), %rax
	imulq	$56, %rax, %rax
	movabsq	$Map, %rcx
	addq	%rax, %rcx
	cmpl	$2, 16(%rcx)
	jne	.LBB7_6
# %bb.5:                                # %if.then13
                                        #   in Loop: Header=BB7_1 Depth=1
	movslq	-4(%rbp), %rax
	imulq	$56, %rax, %rax
	movabsq	$Map, %rcx
	movq	%rcx, %rdx
	addq	%rax, %rdx
	vmovsd	24(%rdx), %xmm0         # xmm0 = mem[0],zero
	movslq	-4(%rbp), %rax
	imulq	$56, %rax, %rax
	addq	%rax, %rcx
	movq	8(%rcx), %rax
	vmovsd	%xmm0, (%rax)
.LBB7_6:                                # %if.end
                                        #   in Loop: Header=BB7_1 Depth=1
	jmp	.LBB7_7
.LBB7_7:                                # %if.end20
                                        #   in Loop: Header=BB7_1 Depth=1
	movl	-4(%rbp), %eax
	addl	$1, %eax
	movl	%eax, -4(%rbp)
	jmp	.LBB7_1
.LBB7_8:                                # %while.end
	movl	$4294967295, %eax       # imm = 0xFFFFFFFF
	popq	%rbp
	.cfi_def_cfa %rsp, 8
	retq
.Lfunc_end7:
	.size	InitEncoderParams, .Lfunc_end7-InitEncoderParams
	.cfi_endproc
                                        # -- End function
	.p2align	4, 0x90         # -- Begin function DisplayEncoderParams
	.type	DisplayEncoderParams,@function
DisplayEncoderParams:                   # @DisplayEncoderParams
	.cfi_startproc
# %bb.0:                                # %entry
	pushq	%rbp
	.cfi_def_cfa_offset 16
	.cfi_offset %rbp, -16
	movq	%rsp, %rbp
	.cfi_def_cfa_register %rbp
	subq	$16, %rsp
	movl	$0, -4(%rbp)
	movabsq	$.L.str.174, %rdi
	movb	$0, %al
	callq	printf
	movabsq	$.L.str.175, %rdi
	movb	$0, %al
	callq	printf
	movabsq	$.L.str.174, %rdi
	movb	$0, %al
	callq	printf
.LBB8_1:                                # %while.cond
                                        # =>This Inner Loop Header: Depth=1
	movslq	-4(%rbp), %rax
	imulq	$56, %rax, %rax
	movabsq	$Map, %rcx
	addq	%rax, %rcx
	cmpq	$0, (%rcx)
	je	.LBB8_11
# %bb.2:                                # %while.body
                                        #   in Loop: Header=BB8_1 Depth=1
	movslq	-4(%rbp), %rax
	imulq	$56, %rax, %rax
	movabsq	$Map, %rcx
	addq	%rax, %rcx
	cmpl	$0, 16(%rcx)
	jne	.LBB8_4
# %bb.3:                                # %if.then
                                        #   in Loop: Header=BB8_1 Depth=1
	movslq	-4(%rbp), %rax
	imulq	$56, %rax, %rax
	movabsq	$Map, %rcx
	movq	%rcx, %rdx
	addq	%rax, %rdx
	movq	(%rdx), %rsi
	movslq	-4(%rbp), %rax
	imulq	$56, %rax, %rax
	addq	%rax, %rcx
	movq	8(%rcx), %rax
	movl	(%rax), %edx
	movabsq	$.L.str.176, %rdi
	movb	$0, %al
	callq	printf
	jmp	.LBB8_10
.LBB8_4:                                # %if.else
                                        #   in Loop: Header=BB8_1 Depth=1
	movslq	-4(%rbp), %rax
	imulq	$56, %rax, %rax
	movabsq	$Map, %rcx
	addq	%rax, %rcx
	cmpl	$1, 16(%rcx)
	jne	.LBB8_6
# %bb.5:                                # %if.then16
                                        #   in Loop: Header=BB8_1 Depth=1
	movslq	-4(%rbp), %rax
	imulq	$56, %rax, %rax
	movabsq	$Map, %rcx
	movq	%rcx, %rdx
	addq	%rax, %rdx
	movq	(%rdx), %rsi
	movslq	-4(%rbp), %rax
	imulq	$56, %rax, %rax
	addq	%rax, %rcx
	movq	8(%rcx), %rdx
	movabsq	$.L.str.177, %rdi
	movb	$0, %al
	callq	printf
	jmp	.LBB8_9
.LBB8_6:                                # %if.else24
                                        #   in Loop: Header=BB8_1 Depth=1
	movslq	-4(%rbp), %rax
	imulq	$56, %rax, %rax
	movabsq	$Map, %rcx
	addq	%rax, %rcx
	cmpl	$2, 16(%rcx)
	jne	.LBB8_8
# %bb.7:                                # %if.then29
                                        #   in Loop: Header=BB8_1 Depth=1
	movslq	-4(%rbp), %rax
	imulq	$56, %rax, %rax
	movabsq	$Map, %rcx
	movq	%rcx, %rdx
	addq	%rax, %rdx
	movq	(%rdx), %rsi
	movslq	-4(%rbp), %rax
	imulq	$56, %rax, %rax
	addq	%rax, %rcx
	movq	8(%rcx), %rax
	vmovsd	(%rax), %xmm0           # xmm0 = mem[0],zero
	movabsq	$.L.str.178, %rdi
	movb	$1, %al
	callq	printf
.LBB8_8:                                # %if.end
                                        #   in Loop: Header=BB8_1 Depth=1
	jmp	.LBB8_9
.LBB8_9:                                # %if.end37
                                        #   in Loop: Header=BB8_1 Depth=1
	jmp	.LBB8_10
.LBB8_10:                               # %if.end38
                                        #   in Loop: Header=BB8_1 Depth=1
	movl	-4(%rbp), %eax
	addl	$1, %eax
	movl	%eax, -4(%rbp)
	jmp	.LBB8_1
.LBB8_11:                               # %while.end
	movabsq	$.L.str.174, %rdi
	movb	$0, %al
	callq	printf
	movl	$4294967295, %eax       # imm = 0xFFFFFFFF
	addq	$16, %rsp
	popq	%rbp
	.cfi_def_cfa %rsp, 8
	retq
.Lfunc_end8:
	.size	DisplayEncoderParams, .Lfunc_end8-DisplayEncoderParams
	.cfi_endproc
                                        # -- End function
	.p2align	4, 0x90         # -- Begin function PatchInp
	.type	PatchInp,@function
PatchInp:                               # @PatchInp
	.cfi_startproc
# %bb.0:                                # %rand_bb
	pushq	%rbp
	.cfi_def_cfa_offset 16
	.cfi_offset %rbp, -16
	movq	%rsp, %rbp
	.cfi_def_cfa_register %rbp
	callq	get_rand
	cmpl	$0, %eax
	jne	.LBB9_9
# %bb.1:                                # %func_PatchInp.19
	callq	PatchInp.19
	popq	%rbp
	.cfi_def_cfa %rsp, 8
	retq
.LBB9_2:                                # %func_PatchInp.24
	.cfi_def_cfa %rbp, 16
	callq	PatchInp.24
	popq	%rbp
	.cfi_def_cfa %rsp, 8
	retq
.LBB9_3:                                # %func_PatchInp.29
	.cfi_def_cfa %rbp, 16
	callq	PatchInp.29
	popq	%rbp
	.cfi_def_cfa %rsp, 8
	retq
.LBB9_4:                                # %func_PatchInp.32
	.cfi_def_cfa %rbp, 16
	callq	PatchInp.32
	popq	%rbp
	.cfi_def_cfa %rsp, 8
	retq
.LBB9_5:                                # %func_PatchInp.40
	.cfi_def_cfa %rbp, 16
	callq	PatchInp.40
	popq	%rbp
	.cfi_def_cfa %rsp, 8
	retq
.LBB9_6:                                # %func_PatchInp.43
	.cfi_def_cfa %rbp, 16
	callq	PatchInp.43
	popq	%rbp
	.cfi_def_cfa %rsp, 8
	retq
.LBB9_7:                                # %func_PatchInp.44
	.cfi_def_cfa %rbp, 16
	callq	PatchInp.44
	popq	%rbp
	.cfi_def_cfa %rsp, 8
	retq
.LBB9_8:                                # %func_PatchInp.45
	.cfi_def_cfa %rbp, 16
	callq	PatchInp.45
	popq	%rbp
	.cfi_def_cfa %rsp, 8
	retq
.LBB9_9:                                # %ctrl0
	.cfi_def_cfa %rbp, 16
	cmpl	$1, %eax
	je	.LBB9_2
# %bb.10:                               # %ctrl1
	cmpl	$2, %eax
	je	.LBB9_3
# %bb.11:                               # %ctrl2
	cmpl	$3, %eax
	je	.LBB9_4
# %bb.12:                               # %ctrl3
	cmpl	$4, %eax
	je	.LBB9_5
# %bb.13:                               # %ctrl4
	cmpl	$5, %eax
	je	.LBB9_6
# %bb.14:                               # %ctrl5
	cmpl	$6, %eax
	je	.LBB9_7
	jmp	.LBB9_8
.Lfunc_end9:
	.size	PatchInp, .Lfunc_end9-PatchInp
	.cfi_endproc
                                        # -- End function
	.p2align	4, 0x90         # -- Begin function TestEncoderParams
	.type	TestEncoderParams,@function
TestEncoderParams:                      # @TestEncoderParams
	.cfi_startproc
# %bb.0:                                # %rand_bb
	pushq	%rbp
	.cfi_def_cfa_offset 16
	.cfi_offset %rbp, -16
	movq	%rsp, %rbp
	.cfi_def_cfa_register %rbp
	pushq	%rbx
	pushq	%rax
	.cfi_offset %rbx, -24
	movl	%edi, %ebx
	callq	get_rand
	cmpl	$0, %eax
	jne	.LBB10_2
# %bb.1:                                # %func_TestEncoderParams.1
	movl	%ebx, %edi
	callq	TestEncoderParams.1
	addq	$8, %rsp
	popq	%rbx
	popq	%rbp
	.cfi_def_cfa %rsp, 8
	retq
.LBB10_2:                               # %func_TestEncoderParams.12
	.cfi_def_cfa %rbp, 16
	movl	%ebx, %edi
	callq	TestEncoderParams.12
	addq	$8, %rsp
	popq	%rbx
	popq	%rbp
	.cfi_def_cfa %rsp, 8
	retq
.Lfunc_end10:
	.size	TestEncoderParams, .Lfunc_end10-TestEncoderParams
	.cfi_endproc
                                        # -- End function
	.p2align	4, 0x90         # -- Begin function ProfileCheck
	.type	ProfileCheck,@function
ProfileCheck:                           # @ProfileCheck
	.cfi_startproc
# %bb.0:                                # %entry
	pushq	%rbp
	.cfi_def_cfa_offset 16
	.cfi_offset %rbp, -16
	movq	%rsp, %rbp
	.cfi_def_cfa_register %rbp
	movq	input, %rax
	cmpl	$66, (%rax)
	je	.LBB11_8
# %bb.1:                                # %land.lhs.true
	movq	input, %rax
	cmpl	$77, (%rax)
	je	.LBB11_8
# %bb.2:                                # %land.lhs.true3
	movq	input, %rax
	cmpl	$88, (%rax)
	je	.LBB11_8
# %bb.3:                                # %land.lhs.true6
	movq	input, %rax
	cmpl	$100, (%rax)
	je	.LBB11_8
# %bb.4:                                # %land.lhs.true9
	movq	input, %rax
	cmpl	$110, (%rax)
	je	.LBB11_8
# %bb.5:                                # %land.lhs.true12
	movq	input, %rax
	cmpl	$122, (%rax)
	je	.LBB11_8
# %bb.6:                                # %land.lhs.true15
	movq	input, %rax
	cmpl	$144, (%rax)
	je	.LBB11_8
# %bb.7:                                # %if.then
	movabsq	$errortext, %rdi
	movl	$300, %esi              # imm = 0x12C
	movabsq	$.L.str.220, %rdx
	movl	$100, %ecx
	movl	$144, %r8d
	movb	$0, %al
	callq	snprintf
	movabsq	$errortext, %rdi
	movl	$500, %esi              # imm = 0x1F4
	callq	error
.LBB11_8:                               # %if.end
	movq	input, %rax
	cmpl	$66, (%rax)
	jne	.LBB11_22
# %bb.9:                                # %if.then20
	movq	input, %rax
	cmpl	$0, 1236(%rax)
	je	.LBB11_11
# %bb.10:                               # %if.then21
	movabsq	$errortext, %rdi
	movl	$300, %esi              # imm = 0x12C
	movabsq	$.L.str.221, %rdx
	movb	$0, %al
	callq	snprintf
	movabsq	$errortext, %rdi
	movl	$500, %esi              # imm = 0x1F4
	callq	error
.LBB11_11:                              # %if.end23
	movq	input, %rax
	cmpl	$0, 1272(%rax)
	je	.LBB11_13
# %bb.12:                               # %if.then25
	movabsq	$errortext, %rdi
	movl	$300, %esi              # imm = 0x12C
	movabsq	$.L.str.222, %rdx
	movb	$0, %al
	callq	snprintf
	movabsq	$errortext, %rdi
	movl	$500, %esi              # imm = 0x1F4
	callq	error
.LBB11_13:                              # %if.end27
	movq	input, %rax
	cmpl	$0, 2364(%rax)
	je	.LBB11_15
# %bb.14:                               # %if.then29
	movabsq	$errortext, %rdi
	movl	$300, %esi              # imm = 0x12C
	movabsq	$.L.str.223, %rdx
	movb	$0, %al
	callq	snprintf
	movabsq	$errortext, %rdi
	movl	$500, %esi              # imm = 0x1F4
	callq	error
.LBB11_15:                              # %if.end31
	movq	input, %rax
	cmpl	$0, 1284(%rax)
	je	.LBB11_17
# %bb.16:                               # %if.then33
	movabsq	$errortext, %rdi
	movl	$300, %esi              # imm = 0x12C
	movabsq	$.L.str.224, %rdx
	movb	$0, %al
	callq	snprintf
	movabsq	$errortext, %rdi
	movl	$500, %esi              # imm = 0x1F4
	callq	error
.LBB11_17:                              # %if.end35
	movq	input, %rax
	cmpl	$0, 1288(%rax)
	je	.LBB11_19
# %bb.18:                               # %if.then37
	movabsq	$errortext, %rdi
	movl	$300, %esi              # imm = 0x12C
	movabsq	$.L.str.224, %rdx
	movb	$0, %al
	callq	snprintf
	movabsq	$errortext, %rdi
	movl	$500, %esi              # imm = 0x1F4
	callq	error
.LBB11_19:                              # %if.end39
	movq	input, %rax
	cmpl	$1, 2356(%rax)
	jne	.LBB11_21
# %bb.20:                               # %if.then41
	movabsq	$errortext, %rdi
	movl	$300, %esi              # imm = 0x12C
	movabsq	$.L.str.225, %rdx
	movb	$0, %al
	callq	snprintf
	movabsq	$errortext, %rdi
	movl	$500, %esi              # imm = 0x1F4
	callq	error
.LBB11_21:                              # %if.end43
	jmp	.LBB11_22
.LBB11_22:                              # %if.end44
	movq	input, %rax
	cmpl	$77, (%rax)
	jne	.LBB11_32
# %bb.23:                               # %if.then47
	movq	input, %rax
	cmpl	$0, 1272(%rax)
	je	.LBB11_25
# %bb.24:                               # %if.then50
	movabsq	$errortext, %rdi
	movl	$300, %esi              # imm = 0x12C
	movabsq	$.L.str.226, %rdx
	movb	$0, %al
	callq	snprintf
	movabsq	$errortext, %rdi
	movl	$500, %esi              # imm = 0x1F4
	callq	error
.LBB11_25:                              # %if.end52
	movq	input, %rax
	cmpl	$0, 2364(%rax)
	je	.LBB11_27
# %bb.26:                               # %if.then55
	movabsq	$errortext, %rdi
	movl	$300, %esi              # imm = 0x12C
	movabsq	$.L.str.227, %rdx
	movb	$0, %al
	callq	snprintf
	movabsq	$errortext, %rdi
	movl	$500, %esi              # imm = 0x1F4
	callq	error
.LBB11_27:                              # %if.end57
	movq	input, %rax
	cmpl	$0, 3152(%rax)
	je	.LBB11_29
# %bb.28:                               # %if.then59
	movabsq	$errortext, %rdi
	movl	$300, %esi              # imm = 0x12C
	movabsq	$.L.str.228, %rdx
	movb	$0, %al
	callq	snprintf
	movabsq	$errortext, %rdi
	movl	$500, %esi              # imm = 0x1F4
	callq	error
.LBB11_29:                              # %if.end61
	movq	input, %rax
	cmpl	$0, 3204(%rax)
	je	.LBB11_31
# %bb.30:                               # %if.then63
	movabsq	$errortext, %rdi
	movl	$300, %esi              # imm = 0x12C
	movabsq	$.L.str.229, %rdx
	movb	$0, %al
	callq	snprintf
	movabsq	$errortext, %rdi
	movl	$500, %esi              # imm = 0x1F4
	callq	error
.LBB11_31:                              # %if.end65
	jmp	.LBB11_32
.LBB11_32:                              # %if.end66
	movq	input, %rax
	cmpl	$88, (%rax)
	jne	.LBB11_38
# %bb.33:                               # %if.then69
	movq	input, %rax
	cmpl	$0, 1252(%rax)
	jne	.LBB11_35
# %bb.34:                               # %if.then71
	movabsq	$errortext, %rdi
	movl	$300, %esi              # imm = 0x12C
	movabsq	$.L.str.230, %rdx
	movb	$0, %al
	callq	snprintf
	movabsq	$errortext, %rdi
	movl	$500, %esi              # imm = 0x1F4
	callq	error
.LBB11_35:                              # %if.end73
	movq	input, %rax
	cmpl	$1, 2356(%rax)
	jne	.LBB11_37
# %bb.36:                               # %if.then76
	movabsq	$errortext, %rdi
	movl	$300, %esi              # imm = 0x12C
	movabsq	$.L.str.231, %rdx
	movb	$0, %al
	callq	snprintf
	movabsq	$errortext, %rdi
	movl	$500, %esi              # imm = 0x1F4
	callq	error
.LBB11_37:                              # %if.end78
	jmp	.LBB11_38
.LBB11_38:                              # %if.end79
	popq	%rbp
	.cfi_def_cfa %rsp, 8
	retq
.Lfunc_end11:
	.size	ProfileCheck, .Lfunc_end11-ProfileCheck
	.cfi_endproc
                                        # -- End function
	.p2align	4, 0x90         # -- Begin function LevelCheck
	.type	LevelCheck,@function
LevelCheck:                             # @LevelCheck
	.cfi_startproc
# %bb.0:                                # %entry
	pushq	%rbp
	.cfi_def_cfa_offset 16
	.cfi_offset %rbp, -16
	movq	%rsp, %rbp
	.cfi_def_cfa_register %rbp
	popq	%rbp
	.cfi_def_cfa %rsp, 8
	retq
.Lfunc_end12:
	.size	LevelCheck, .Lfunc_end12-LevelCheck
	.cfi_endproc
                                        # -- End function
	.p2align	4, 0x90         # -- Begin function TestEncoderParams.1
	.type	TestEncoderParams.1,@function
TestEncoderParams.1:                    # @TestEncoderParams.1
	.cfi_startproc
# %bb.0:                                # %entry
	pushq	%rbp
	.cfi_def_cfa_offset 16
	.cfi_offset %rbp, -16
	movq	%rsp, %rbp
	.cfi_def_cfa_register %rbp
	subq	$16, %rsp
	movl	$1688446611, -12(%rbp)  # imm = 0x64A3A693
	movl	%edi, -8(%rbp)
	movl	$0, -4(%rbp)
.LBB13_1:                               # %while.cond
                                        # =>This Inner Loop Header: Depth=1
	movslq	-4(%rbp), %rax
	imulq	$56, %rax, %rax
	movabsq	$Map, %rcx
	addq	%rax, %rcx
	cmpq	$0, (%rcx)
	je	.LBB13_36
# %bb.2:                                # %while.body
                                        #   in Loop: Header=BB13_1 Depth=1
	movslq	-4(%rbp), %rax
	imulq	$56, %rax, %rax
	movabsq	$Map, %rcx
	addq	%rax, %rcx
	cmpl	$1, 32(%rcx)
	jne	.LBB13_15
# %bb.3:                                # %if.then
                                        #   in Loop: Header=BB13_1 Depth=1
	movslq	-4(%rbp), %rax
	imulq	$56, %rax, %rax
	movabsq	$Map, %rcx
	addq	%rax, %rcx
	cmpl	$0, 16(%rcx)
	jne	.LBB13_8
# %bb.4:                                # %if.then7
                                        #   in Loop: Header=BB13_1 Depth=1
	movslq	-4(%rbp), %rax
	imulq	$56, %rax, %rax
	movabsq	$Map, %rcx
	movq	%rcx, %rdx
	addq	%rax, %rdx
	movq	8(%rdx), %rax
	movl	(%rax), %eax
	movslq	-4(%rbp), %rdx
	imulq	$56, %rdx, %rdx
	addq	%rdx, %rcx
	vcvttsd2si	40(%rcx), %ecx
	cmpl	%ecx, %eax
	jl	.LBB13_6
# %bb.5:                                # %lor.lhs.false
                                        #   in Loop: Header=BB13_1 Depth=1
	movslq	-4(%rbp), %rax
	imulq	$56, %rax, %rax
	movabsq	$Map, %rcx
	movq	%rcx, %rdx
	addq	%rax, %rdx
	movq	8(%rdx), %rax
	movl	(%rax), %eax
	movslq	-4(%rbp), %rdx
	imulq	$56, %rdx, %rdx
	addq	%rdx, %rcx
	vcvttsd2si	48(%rcx), %ecx
	cmpl	%ecx, %eax
	jle	.LBB13_7
.LBB13_6:                               # %if.then22
                                        #   in Loop: Header=BB13_1 Depth=1
	movslq	-4(%rbp), %rax
	imulq	$56, %rax, %rax
	movabsq	$Map, %rdx
	movq	%rdx, %rcx
	addq	%rax, %rcx
	movq	(%rcx), %rcx
	movslq	-4(%rbp), %rax
	imulq	$56, %rax, %rax
	movq	%rdx, %rsi
	addq	%rax, %rsi
	vcvttsd2si	40(%rsi), %r8d
	movslq	-4(%rbp), %rax
	imulq	$56, %rax, %rax
	addq	%rax, %rdx
	vcvttsd2si	48(%rdx), %r9d
	movabsq	$errortext, %rdi
	movl	$300, %esi              # imm = 0x12C
	movabsq	$.L.str.216, %rdx
	movb	$0, %al
	callq	snprintf
	movabsq	$errortext, %rdi
	movl	$400, %esi              # imm = 0x190
	callq	error
.LBB13_7:                               # %if.end
                                        #   in Loop: Header=BB13_1 Depth=1
	jmp	.LBB13_14
.LBB13_8:                               # %if.else
                                        #   in Loop: Header=BB13_1 Depth=1
	movslq	-4(%rbp), %rax
	imulq	$56, %rax, %rax
	movabsq	$Map, %rcx
	addq	%rax, %rcx
	cmpl	$2, 16(%rcx)
	jne	.LBB13_13
# %bb.9:                                # %if.then39
                                        #   in Loop: Header=BB13_1 Depth=1
	movslq	-4(%rbp), %rax
	imulq	$56, %rax, %rax
	movabsq	$Map, %rcx
	movq	%rcx, %rdx
	addq	%rax, %rdx
	movq	8(%rdx), %rax
	vmovsd	(%rax), %xmm0           # xmm0 = mem[0],zero
	movslq	-4(%rbp), %rax
	imulq	$56, %rax, %rax
	addq	%rax, %rcx
	vmovsd	40(%rcx), %xmm1         # xmm1 = mem[0],zero
	vucomisd	%xmm0, %xmm1
	ja	.LBB13_11
# %bb.10:                               # %lor.lhs.false48
                                        #   in Loop: Header=BB13_1 Depth=1
	movslq	-4(%rbp), %rax
	imulq	$56, %rax, %rax
	movabsq	$Map, %rcx
	movq	%rcx, %rdx
	addq	%rax, %rdx
	movq	8(%rdx), %rax
	vmovsd	(%rax), %xmm0           # xmm0 = mem[0],zero
	movslq	-4(%rbp), %rax
	imulq	$56, %rax, %rax
	addq	%rax, %rcx
	vucomisd	48(%rcx), %xmm0
	jbe	.LBB13_12
.LBB13_11:                              # %if.then57
                                        #   in Loop: Header=BB13_1 Depth=1
	movslq	-4(%rbp), %rax
	imulq	$56, %rax, %rax
	movabsq	$Map, %rdx
	movq	%rdx, %rcx
	addq	%rax, %rcx
	movq	(%rcx), %rcx
	movslq	-4(%rbp), %rax
	imulq	$56, %rax, %rax
	movq	%rdx, %rsi
	addq	%rax, %rsi
	vmovsd	40(%rsi), %xmm0         # xmm0 = mem[0],zero
	movslq	-4(%rbp), %rax
	imulq	$56, %rax, %rax
	addq	%rax, %rdx
	vmovsd	48(%rdx), %xmm1         # xmm1 = mem[0],zero
	movabsq	$errortext, %rdi
	movl	$300, %esi              # imm = 0x12C
	movabsq	$.L.str.217, %rdx
	movb	$2, %al
	callq	snprintf
	movabsq	$errortext, %rdi
	movl	$400, %esi              # imm = 0x190
	callq	error
.LBB13_12:                              # %if.end68
                                        #   in Loop: Header=BB13_1 Depth=1
	jmp	.LBB13_13
.LBB13_13:                              # %if.end69
                                        #   in Loop: Header=BB13_1 Depth=1
	jmp	.LBB13_14
.LBB13_14:                              # %if.end70
                                        #   in Loop: Header=BB13_1 Depth=1
	jmp	.LBB13_35
.LBB13_15:                              # %if.else71
                                        #   in Loop: Header=BB13_1 Depth=1
	movslq	-4(%rbp), %rax
	imulq	$56, %rax, %rax
	movabsq	$Map, %rcx
	addq	%rax, %rcx
	cmpl	$2, 32(%rcx)
	jne	.LBB13_26
# %bb.16:                               # %if.then77
                                        #   in Loop: Header=BB13_1 Depth=1
	movslq	-4(%rbp), %rax
	imulq	$56, %rax, %rax
	movabsq	$Map, %rcx
	addq	%rax, %rcx
	cmpl	$0, 16(%rcx)
	jne	.LBB13_20
# %bb.17:                               # %if.then83
                                        #   in Loop: Header=BB13_1 Depth=1
	movslq	-4(%rbp), %rax
	imulq	$56, %rax, %rax
	movabsq	$Map, %rcx
	movq	%rcx, %rdx
	addq	%rax, %rdx
	movq	8(%rdx), %rax
	movl	(%rax), %eax
	movslq	-4(%rbp), %rdx
	imulq	$56, %rdx, %rdx
	addq	%rdx, %rcx
	vcvttsd2si	40(%rcx), %ecx
	cmpl	%ecx, %eax
	jge	.LBB13_19
# %bb.18:                               # %if.then93
                                        #   in Loop: Header=BB13_1 Depth=1
	movslq	-4(%rbp), %rax
	imulq	$56, %rax, %rax
	movabsq	$Map, %rdx
	movq	%rdx, %rcx
	addq	%rax, %rcx
	movq	(%rcx), %rcx
	movslq	-4(%rbp), %rax
	imulq	$56, %rax, %rax
	addq	%rax, %rdx
	vcvttsd2si	40(%rdx), %r8d
	movabsq	$errortext, %rdi
	movl	$300, %esi              # imm = 0x12C
	movabsq	$.L.str.218, %rdx
	movb	$0, %al
	callq	snprintf
	movabsq	$errortext, %rdi
	movl	$400, %esi              # imm = 0x190
	callq	error
.LBB13_19:                              # %if.end102
                                        #   in Loop: Header=BB13_1 Depth=1
	jmp	.LBB13_25
.LBB13_20:                              # %if.else103
                                        #   in Loop: Header=BB13_1 Depth=1
	movslq	-4(%rbp), %rax
	imulq	$56, %rax, %rax
	movabsq	$Map, %rcx
	addq	%rax, %rcx
	cmpl	$2, 16(%rcx)
	jne	.LBB13_24
# %bb.21:                               # %if.then109
                                        #   in Loop: Header=BB13_1 Depth=1
	movslq	-4(%rbp), %rax
	imulq	$56, %rax, %rax
	movabsq	$Map, %rcx
	movq	%rcx, %rdx
	addq	%rax, %rdx
	movq	8(%rdx), %rax
	vmovsd	(%rax), %xmm0           # xmm0 = mem[0],zero
	movslq	-4(%rbp), %rax
	imulq	$56, %rax, %rax
	addq	%rax, %rcx
	vmovsd	40(%rcx), %xmm1         # xmm1 = mem[0],zero
	vucomisd	%xmm0, %xmm1
	jbe	.LBB13_23
# %bb.22:                               # %if.then118
                                        #   in Loop: Header=BB13_1 Depth=1
	movslq	-4(%rbp), %rax
	imulq	$56, %rax, %rax
	movabsq	$Map, %rdx
	movq	%rdx, %rcx
	addq	%rax, %rcx
	movq	(%rcx), %rcx
	movslq	-4(%rbp), %rax
	imulq	$56, %rax, %rax
	addq	%rax, %rdx
	vmovsd	40(%rdx), %xmm0         # xmm0 = mem[0],zero
	movabsq	$errortext, %rdi
	movl	$300, %esi              # imm = 0x12C
	movabsq	$.L.str.219, %rdx
	movb	$1, %al
	callq	snprintf
	movabsq	$errortext, %rdi
	movl	$400, %esi              # imm = 0x190
	callq	error
.LBB13_23:                              # %if.end126
                                        #   in Loop: Header=BB13_1 Depth=1
	jmp	.LBB13_24
.LBB13_24:                              # %if.end127
                                        #   in Loop: Header=BB13_1 Depth=1
	jmp	.LBB13_25
.LBB13_25:                              # %if.end128
                                        #   in Loop: Header=BB13_1 Depth=1
	jmp	.LBB13_34
.LBB13_26:                              # %if.else129
                                        #   in Loop: Header=BB13_1 Depth=1
	movslq	-4(%rbp), %rax
	imulq	$56, %rax, %rax
	movabsq	$Map, %rcx
	addq	%rax, %rcx
	cmpl	$3, 32(%rcx)
	jne	.LBB13_33
# %bb.27:                               # %if.then135
                                        #   in Loop: Header=BB13_1 Depth=1
	movslq	-4(%rbp), %rax
	imulq	$56, %rax, %rax
	movabsq	$Map, %rcx
	addq	%rax, %rcx
	cmpl	$0, 16(%rcx)
	jne	.LBB13_32
# %bb.28:                               # %if.then141
                                        #   in Loop: Header=BB13_1 Depth=1
	movslq	-4(%rbp), %rax
	imulq	$56, %rax, %rax
	movabsq	$Map, %rcx
	movq	%rcx, %rdx
	addq	%rax, %rdx
	movq	8(%rdx), %rax
	movl	(%rax), %eax
	movslq	-4(%rbp), %rdx
	imulq	$56, %rdx, %rdx
	addq	%rdx, %rcx
	vmovsd	40(%rcx), %xmm0         # xmm0 = mem[0],zero
	vcvtsi2sdl	-8(%rbp), %xmm0, %xmm1
	vsubsd	%xmm1, %xmm0, %xmm0
	vcvttsd2si	%xmm0, %ecx
	cmpl	%ecx, %eax
	jl	.LBB13_30
# %bb.29:                               # %lor.lhs.false152
                                        #   in Loop: Header=BB13_1 Depth=1
	movslq	-4(%rbp), %rax
	imulq	$56, %rax, %rax
	movabsq	$Map, %rcx
	movq	%rcx, %rdx
	addq	%rax, %rdx
	movq	8(%rdx), %rax
	movl	(%rax), %eax
	movslq	-4(%rbp), %rdx
	imulq	$56, %rdx, %rdx
	addq	%rdx, %rcx
	vcvttsd2si	48(%rcx), %ecx
	cmpl	%ecx, %eax
	jle	.LBB13_31
.LBB13_30:                              # %if.then162
                                        #   in Loop: Header=BB13_1 Depth=1
	movslq	-4(%rbp), %rax
	imulq	$56, %rax, %rax
	movabsq	$Map, %rdx
	movq	%rdx, %rcx
	addq	%rax, %rcx
	movq	(%rcx), %rcx
	movslq	-4(%rbp), %rax
	imulq	$56, %rax, %rax
	movq	%rdx, %rsi
	addq	%rax, %rsi
	vmovsd	40(%rsi), %xmm0         # xmm0 = mem[0],zero
	vcvtsi2sdl	-8(%rbp), %xmm0, %xmm1
	vsubsd	%xmm1, %xmm0, %xmm0
	vcvttsd2si	%xmm0, %r8d
	movslq	-4(%rbp), %rax
	imulq	$56, %rax, %rax
	addq	%rax, %rdx
	vcvttsd2si	48(%rdx), %r9d
	movabsq	$errortext, %rdi
	movl	$300, %esi              # imm = 0x12C
	movabsq	$.L.str.216, %rdx
	movb	$0, %al
	callq	snprintf
	movabsq	$errortext, %rdi
	movl	$400, %esi              # imm = 0x190
	callq	error
.LBB13_31:                              # %if.end177
                                        #   in Loop: Header=BB13_1 Depth=1
	jmp	.LBB13_32
.LBB13_32:                              # %if.end178
                                        #   in Loop: Header=BB13_1 Depth=1
	jmp	.LBB13_33
.LBB13_33:                              # %if.end179
                                        #   in Loop: Header=BB13_1 Depth=1
	jmp	.LBB13_34
.LBB13_34:                              # %if.end180
                                        #   in Loop: Header=BB13_1 Depth=1
	jmp	.LBB13_35
.LBB13_35:                              # %if.end181
                                        #   in Loop: Header=BB13_1 Depth=1
	movl	-4(%rbp), %eax
	addl	$1, %eax
	movl	%eax, -4(%rbp)
	jmp	.LBB13_1
.LBB13_36:                              # %while.end
	cmpl	$1688446611, -12(%rbp)  # imm = 0x64A3A693
	jne	.LBB13_38
.LBB13_37:
	movl	$4294967295, %eax       # imm = 0xFFFFFFFF
	addq	$16, %rsp
	popq	%rbp
	.cfi_def_cfa %rsp, 8
	retq
.LBB13_38:                              # %func_exit
	.cfi_def_cfa %rbp, 16
	callq	detect_breach
	jmp	.LBB13_37
.Lfunc_end13:
	.size	TestEncoderParams.1, .Lfunc_end13-TestEncoderParams.1
	.cfi_endproc
                                        # -- End function
	.p2align	4, 0x90         # -- Begin function ParseContent.2
	.type	ParseContent.2,@function
ParseContent.2:                         # @ParseContent.2
	.cfi_startproc
# %bb.0:                                # %entry
	pushq	%rbp
	.cfi_def_cfa_offset 16
	.cfi_offset %rbp, -16
	movq	%rsp, %rbp
	.cfi_def_cfa_register %rbp
	subq	$80080, %rsp            # imm = 0x138D0
	movl	$965460478, -40(%rbp)   # imm = 0x398BC1FE
	movq	%rdi, -56(%rbp)
	movl	%esi, -44(%rbp)
	movl	$0, -24(%rbp)
	movl	$0, -28(%rbp)
	movl	$0, -20(%rbp)
	movq	-56(%rbp), %rax
	movq	%rax, -16(%rbp)
	movq	-56(%rbp), %rax
	movslq	-44(%rbp), %rcx
	addq	%rcx, %rax
	movq	%rax, -64(%rbp)
.LBB14_1:                               # %while.cond
                                        # =>This Loop Header: Depth=1
                                        #     Child Loop BB14_6 Depth 2
	movq	-16(%rbp), %rax
	cmpq	-64(%rbp), %rax
	jae	.LBB14_24
# %bb.2:                                # %while.body
                                        #   in Loop: Header=BB14_1 Depth=1
	movq	-16(%rbp), %rax
	movsbl	(%rax), %eax
	addl	$-9, %eax
	movl	%eax, %ecx
	subl	$26, %ecx
	ja	.LBB14_20
# %bb.3:                                # %while.body
                                        #   in Loop: Header=BB14_1 Depth=1
	movq	.LJTI14_0(,%rax,8), %rax
	jmpq	*%rax
.LBB14_4:                               # %sw.bb
                                        #   in Loop: Header=BB14_1 Depth=1
	movq	-16(%rbp), %rax
	addq	$1, %rax
	movq	%rax, -16(%rbp)
	jmp	.LBB14_23
.LBB14_5:                               # %sw.bb1
                                        #   in Loop: Header=BB14_1 Depth=1
	movq	-16(%rbp), %rax
	movb	$0, (%rax)
.LBB14_6:                               # %while.cond2
                                        #   Parent Loop BB14_1 Depth=1
                                        # =>  This Inner Loop Header: Depth=2
	xorl	%eax, %eax
	movq	-16(%rbp), %rcx
	movsbl	(%rcx), %ecx
	cmpl	$10, %ecx
	je	.LBB14_8
# %bb.7:                                # %land.rhs
                                        #   in Loop: Header=BB14_6 Depth=2
	movq	-16(%rbp), %rax
	cmpq	-64(%rbp), %rax
	setb	%al
.LBB14_8:                               # %land.end
                                        #   in Loop: Header=BB14_6 Depth=2
	testb	$1, %al
	jne	.LBB14_9
	jmp	.LBB14_10
.LBB14_9:                               # %while.body8
                                        #   in Loop: Header=BB14_6 Depth=2
	movq	-16(%rbp), %rax
	addq	$1, %rax
	movq	%rax, -16(%rbp)
	jmp	.LBB14_6
.LBB14_10:                              # %while.end
                                        #   in Loop: Header=BB14_1 Depth=1
	movl	$0, -28(%rbp)
	movl	$0, -20(%rbp)
	jmp	.LBB14_23
.LBB14_11:                              # %sw.bb10
                                        #   in Loop: Header=BB14_1 Depth=1
	movl	$0, -20(%rbp)
	movl	$0, -28(%rbp)
	movq	-16(%rbp), %rax
	movq	%rax, %rcx
	addq	$1, %rcx
	movq	%rcx, -16(%rbp)
	movb	$0, (%rax)
	jmp	.LBB14_23
.LBB14_12:                              # %sw.bb12
                                        #   in Loop: Header=BB14_1 Depth=1
	cmpl	$0, -28(%rbp)
	je	.LBB14_14
# %bb.13:                               # %if.then
                                        #   in Loop: Header=BB14_1 Depth=1
	movq	-16(%rbp), %rax
	addq	$1, %rax
	movq	%rax, -16(%rbp)
	jmp	.LBB14_15
.LBB14_14:                              # %if.else
                                        #   in Loop: Header=BB14_1 Depth=1
	movq	-16(%rbp), %rax
	movq	%rax, %rcx
	addq	$1, %rcx
	movq	%rcx, -16(%rbp)
	movb	$0, (%rax)
	movl	$0, -20(%rbp)
.LBB14_15:                              # %if.end
                                        #   in Loop: Header=BB14_1 Depth=1
	jmp	.LBB14_23
.LBB14_16:                              # %sw.bb15
                                        #   in Loop: Header=BB14_1 Depth=1
	movq	-16(%rbp), %rax
	movq	%rax, %rcx
	addq	$1, %rcx
	movq	%rcx, -16(%rbp)
	movb	$0, (%rax)
	cmpl	$0, -28(%rbp)
	jne	.LBB14_18
# %bb.17:                               # %if.then18
                                        #   in Loop: Header=BB14_1 Depth=1
	movq	-16(%rbp), %rax
	movl	-24(%rbp), %ecx
	movl	%ecx, %edx
	addl	$1, %edx
	movl	%edx, -24(%rbp)
	movslq	%ecx, %rcx
	movq	%rax, -80080(%rbp,%rcx,8)
	movl	-20(%rbp), %eax
	xorl	$-1, %eax
	movl	%eax, -20(%rbp)
	jmp	.LBB14_19
.LBB14_18:                              # %if.else21
                                        #   in Loop: Header=BB14_1 Depth=1
	movl	$0, -20(%rbp)
.LBB14_19:                              # %if.end22
                                        #   in Loop: Header=BB14_1 Depth=1
	movl	-28(%rbp), %eax
	xorl	$-1, %eax
	movl	%eax, -28(%rbp)
	jmp	.LBB14_23
.LBB14_20:                              # %sw.default
                                        #   in Loop: Header=BB14_1 Depth=1
	cmpl	$0, -20(%rbp)
	jne	.LBB14_22
# %bb.21:                               # %if.then25
                                        #   in Loop: Header=BB14_1 Depth=1
	movq	-16(%rbp), %rax
	movl	-24(%rbp), %ecx
	movl	%ecx, %edx
	addl	$1, %edx
	movl	%edx, -24(%rbp)
	movslq	%ecx, %rcx
	movq	%rax, -80080(%rbp,%rcx,8)
	movl	-20(%rbp), %eax
	xorl	$-1, %eax
	movl	%eax, -20(%rbp)
.LBB14_22:                              # %if.end30
                                        #   in Loop: Header=BB14_1 Depth=1
	movq	-16(%rbp), %rax
	addq	$1, %rax
	movq	%rax, -16(%rbp)
.LBB14_23:                              # %sw.epilog
                                        #   in Loop: Header=BB14_1 Depth=1
	jmp	.LBB14_1
.LBB14_24:                              # %while.end32
	movl	-24(%rbp), %eax
	addl	$-1, %eax
	movl	%eax, -24(%rbp)
	movl	$0, -4(%rbp)
.LBB14_25:                              # %for.cond
                                        # =>This Inner Loop Header: Depth=1
	movl	-4(%rbp), %eax
	cmpl	-24(%rbp), %eax
	jge	.LBB14_43
# %bb.26:                               # %for.body
                                        #   in Loop: Header=BB14_25 Depth=1
	movslq	-4(%rbp), %rax
	movq	-80080(%rbp,%rax,8), %rdi
	callq	ParameterNameToMapIndex
	xorl	%ecx, %ecx
	movl	%eax, -32(%rbp)
	cmpl	%eax, %ecx
	jle	.LBB14_28
# %bb.27:                               # %if.then39
                                        #   in Loop: Header=BB14_25 Depth=1
	movslq	-4(%rbp), %rax
	movq	-80080(%rbp,%rax,8), %rcx
	movabsq	$errortext, %rdi
	movl	$300, %esi              # imm = 0x12C
	movabsq	$.L.str.167, %rdx
	movb	$0, %al
	callq	snprintf
	movabsq	$errortext, %rdi
	movl	$300, %esi              # imm = 0x12C
	callq	error
.LBB14_28:                              # %if.end43
                                        #   in Loop: Header=BB14_25 Depth=1
	movl	-4(%rbp), %eax
	addl	$1, %eax
	cltq
	movq	-80080(%rbp,%rax,8), %rsi
	movl	$.L.str.168, %edi
	callq	strcmp
	cmpl	$0, %eax
	je	.LBB14_30
# %bb.29:                               # %if.then48
                                        #   in Loop: Header=BB14_25 Depth=1
	movabsq	$errortext, %rdi
	movl	$300, %esi              # imm = 0x12C
	movabsq	$.L.str.169, %rdx
	movb	$0, %al
	callq	snprintf
	movabsq	$errortext, %rdi
	movl	$300, %esi              # imm = 0x12C
	callq	error
.LBB14_30:                              # %if.end50
                                        #   in Loop: Header=BB14_25 Depth=1
	movslq	-32(%rbp), %rax
	imulq	$56, %rax, %rax
	movl	Map+16(%rax), %eax
	testl	%eax, %eax
	je	.LBB14_33
	jmp	.LBB14_31
.LBB14_31:                              # %if.end50
                                        #   in Loop: Header=BB14_25 Depth=1
	movl	%eax, %ecx
	subl	$1, %ecx
	je	.LBB14_36
	jmp	.LBB14_32
.LBB14_32:                              # %if.end50
                                        #   in Loop: Header=BB14_25 Depth=1
	subl	$2, %eax
	je	.LBB14_37
	jmp	.LBB14_40
.LBB14_33:                              # %sw.bb53
                                        #   in Loop: Header=BB14_25 Depth=1
	movl	-4(%rbp), %eax
	addl	$2, %eax
	cltq
	movq	-80080(%rbp,%rax,8), %rdi
	movabsq	$.L.str.170, %rsi
	leaq	-36(%rbp), %rdx
	movb	$0, %al
	callq	__isoc99_sscanf
	movl	$1, %ecx
	cmpl	%eax, %ecx
	je	.LBB14_35
# %bb.34:                               # %if.then60
                                        #   in Loop: Header=BB14_25 Depth=1
	movslq	-4(%rbp), %rax
	movq	-80080(%rbp,%rax,8), %rcx
	movl	-4(%rbp), %eax
	addl	$2, %eax
	cltq
	movq	-80080(%rbp,%rax,8), %r8
	movabsq	$errortext, %rdi
	movl	$300, %esi              # imm = 0x12C
	movabsq	$.L.str.171, %rdx
	movb	$0, %al
	callq	snprintf
	movabsq	$errortext, %rdi
	movl	$300, %esi              # imm = 0x12C
	callq	error
.LBB14_35:                              # %if.end67
                                        #   in Loop: Header=BB14_25 Depth=1
	movl	-36(%rbp), %eax
	movslq	-32(%rbp), %rcx
	imulq	$56, %rcx, %rcx
	movabsq	$Map, %rdx
	addq	%rcx, %rdx
	movq	8(%rdx), %rcx
	movl	%eax, (%rcx)
	movabsq	$.L.str.172, %rdi
	movb	$0, %al
	callq	printf
	jmp	.LBB14_41
.LBB14_36:                              # %sw.bb71
                                        #   in Loop: Header=BB14_25 Depth=1
	movslq	-32(%rbp), %rax
	imulq	$56, %rax, %rax
	movabsq	$Map, %rcx
	addq	%rax, %rcx
	movq	8(%rcx), %rdi
	movl	-4(%rbp), %eax
	addl	$2, %eax
	cltq
	movq	-80080(%rbp,%rax,8), %rsi
	movl	$200, %edx
	callq	strncpy
	movabsq	$.L.str.172, %rdi
	movb	$0, %al
	callq	printf
	jmp	.LBB14_41
.LBB14_37:                              # %sw.bb80
                                        #   in Loop: Header=BB14_25 Depth=1
	movl	-4(%rbp), %eax
	addl	$2, %eax
	cltq
	movq	-80080(%rbp,%rax,8), %rdi
	movabsq	$.L.str.173, %rsi
	leaq	-72(%rbp), %rdx
	movb	$0, %al
	callq	__isoc99_sscanf
	movl	$1, %ecx
	cmpl	%eax, %ecx
	je	.LBB14_39
# %bb.38:                               # %if.then87
                                        #   in Loop: Header=BB14_25 Depth=1
	movslq	-4(%rbp), %rax
	movq	-80080(%rbp,%rax,8), %rcx
	movl	-4(%rbp), %eax
	addl	$2, %eax
	cltq
	movq	-80080(%rbp,%rax,8), %r8
	movabsq	$errortext, %rdi
	movl	$300, %esi              # imm = 0x12C
	movabsq	$.L.str.171, %rdx
	movb	$0, %al
	callq	snprintf
	movabsq	$errortext, %rdi
	movl	$300, %esi              # imm = 0x12C
	callq	error
.LBB14_39:                              # %if.end94
                                        #   in Loop: Header=BB14_25 Depth=1
	vmovsd	-72(%rbp), %xmm0        # xmm0 = mem[0],zero
	movslq	-32(%rbp), %rax
	imulq	$56, %rax, %rax
	movabsq	$Map, %rcx
	addq	%rax, %rcx
	movq	8(%rcx), %rax
	vmovsd	%xmm0, (%rax)
	movabsq	$.L.str.172, %rdi
	movb	$0, %al
	callq	printf
	jmp	.LBB14_41
.LBB14_40:                              # %sw.default99
                                        #   in Loop: Header=BB14_25 Depth=1
	jmp	.LBB14_41
.LBB14_41:                              # %sw.epilog100
                                        #   in Loop: Header=BB14_25 Depth=1
	jmp	.LBB14_42
.LBB14_42:                              # %for.inc
                                        #   in Loop: Header=BB14_25 Depth=1
	movl	-4(%rbp), %eax
	addl	$3, %eax
	movl	%eax, -4(%rbp)
	jmp	.LBB14_25
.LBB14_43:                              # %for.end
	movabsq	$configinput, %rsi
	movq	input, %rdi
	movl	$3592, %edx             # imm = 0xE08
	callq	memcpy
	cmpl	$965460478, -40(%rbp)   # imm = 0x398BC1FE
	jne	.LBB14_45
.LBB14_44:
	addq	$80080, %rsp            # imm = 0x138D0
	popq	%rbp
	.cfi_def_cfa %rsp, 8
	retq
.LBB14_45:                              # %func_exit
	.cfi_def_cfa %rbp, 16
	callq	detect_breach
	jmp	.LBB14_44
.Lfunc_end14:
	.size	ParseContent.2, .Lfunc_end14-ParseContent.2
	.cfi_endproc
	.section	.rodata,"a",@progbits
	.p2align	3
.LJTI14_0:
	.quad	.LBB14_12
	.quad	.LBB14_11
	.quad	.LBB14_20
	.quad	.LBB14_20
	.quad	.LBB14_4
	.quad	.LBB14_20
	.quad	.LBB14_20
	.quad	.LBB14_20
	.quad	.LBB14_20
	.quad	.LBB14_20
	.quad	.LBB14_20
	.quad	.LBB14_20
	.quad	.LBB14_20
	.quad	.LBB14_20
	.quad	.LBB14_20
	.quad	.LBB14_20
	.quad	.LBB14_20
	.quad	.LBB14_20
	.quad	.LBB14_20
	.quad	.LBB14_20
	.quad	.LBB14_20
	.quad	.LBB14_20
	.quad	.LBB14_20
	.quad	.LBB14_12
	.quad	.LBB14_20
	.quad	.LBB14_16
	.quad	.LBB14_5
                                        # -- End function
	.text
	.globl	CeilLog2.3              # -- Begin function CeilLog2.3
	.p2align	4, 0x90
	.type	CeilLog2.3,@function
CeilLog2.3:                             # @CeilLog2.3
	.cfi_startproc
# %bb.0:                                # %entry
	pushq	%rbp
	.cfi_def_cfa_offset 16
	.cfi_offset %rbp, -16
	movq	%rsp, %rbp
	.cfi_def_cfa_register %rbp
	pushq	%rbx
	subq	$24, %rsp
	.cfi_offset %rbx, -24
	movl	$393985691, -24(%rbp)   # imm = 0x177BBE9B
	movl	%edi, -20(%rbp)
	movl	-20(%rbp), %eax
	subl	$1, %eax
	movl	%eax, -16(%rbp)
	movl	$0, -12(%rbp)
.LBB15_1:                               # %while.cond
                                        # =>This Inner Loop Header: Depth=1
	cmpl	$0, -16(%rbp)
	je	.LBB15_3
# %bb.2:                                # %while.body
                                        #   in Loop: Header=BB15_1 Depth=1
	movl	-16(%rbp), %eax
	shrl	$1, %eax
	movl	%eax, -16(%rbp)
	movl	-12(%rbp), %eax
	addl	$1, %eax
	movl	%eax, -12(%rbp)
	jmp	.LBB15_1
.LBB15_3:                               # %while.end
	movl	-12(%rbp), %ebx
	cmpl	$393985691, -24(%rbp)   # imm = 0x177BBE9B
	jne	.LBB15_5
.LBB15_4:
	movl	%ebx, %eax
	addq	$24, %rsp
	popq	%rbx
	popq	%rbp
	.cfi_def_cfa %rsp, 8
	retq
.LBB15_5:                               # %func_exit
	.cfi_def_cfa %rbp, 16
	callq	detect_breach
	jmp	.LBB15_4
.Lfunc_end15:
	.size	CeilLog2.3, .Lfunc_end15-CeilLog2.3
	.cfi_endproc
                                        # -- End function
	.p2align	4, 0x90         # -- Begin function ParameterNameToMapIndex.4
	.type	ParameterNameToMapIndex.4,@function
ParameterNameToMapIndex.4:              # @ParameterNameToMapIndex.4
	.cfi_startproc
# %bb.0:                                # %entry
	pushq	%rbp
	.cfi_def_cfa_offset 16
	.cfi_offset %rbp, -16
	movq	%rsp, %rbp
	.cfi_def_cfa_register %rbp
	pushq	%rbx
	subq	$24, %rsp
	.cfi_offset %rbx, -24
	movl	$748757820, -20(%rbp)   # imm = 0x2CA1233C
	movq	%rdi, -32(%rbp)
	movl	$0, -12(%rbp)
.LBB16_1:                               # %while.cond
                                        # =>This Inner Loop Header: Depth=1
	movslq	-12(%rbp), %rax
	imulq	$56, %rax, %rax
	movabsq	$Map, %rcx
	addq	%rax, %rcx
	cmpq	$0, (%rcx)
	je	.LBB16_6
# %bb.2:                                # %while.body
                                        #   in Loop: Header=BB16_1 Depth=1
	xorl	%ebx, %ebx
	movslq	-12(%rbp), %rax
	imulq	$56, %rax, %rax
	movabsq	$Map, %rcx
	addq	%rax, %rcx
	movq	(%rcx), %rdi
	movq	-32(%rbp), %rsi
	callq	strcmp
	cmpl	%eax, %ebx
	jne	.LBB16_4
# %bb.3:                                # %if.then
	movl	-12(%rbp), %eax
	movl	%eax, -16(%rbp)
	jmp	.LBB16_7
.LBB16_4:                               # %if.else
                                        #   in Loop: Header=BB16_1 Depth=1
	movl	-12(%rbp), %eax
	addl	$1, %eax
	movl	%eax, -12(%rbp)
# %bb.5:                                # %if.end
                                        #   in Loop: Header=BB16_1 Depth=1
	jmp	.LBB16_1
.LBB16_6:                               # %while.end
	movl	$-1, -16(%rbp)
.LBB16_7:                               # %return
	movl	-16(%rbp), %ebx
	cmpl	$748757820, -20(%rbp)   # imm = 0x2CA1233C
	jne	.LBB16_9
.LBB16_8:
	movl	%ebx, %eax
	addq	$24, %rsp
	popq	%rbx
	popq	%rbp
	.cfi_def_cfa %rsp, 8
	retq
.LBB16_9:                               # %func_exit
	.cfi_def_cfa %rbp, 16
	callq	detect_breach
	jmp	.LBB16_8
.Lfunc_end16:
	.size	ParameterNameToMapIndex.4, .Lfunc_end16-ParameterNameToMapIndex.4
	.cfi_endproc
                                        # -- End function
	.globl	CeilLog2.5              # -- Begin function CeilLog2.5
	.p2align	4, 0x90
	.type	CeilLog2.5,@function
CeilLog2.5:                             # @CeilLog2.5
	.cfi_startproc
# %bb.0:                                # %entry
	pushq	%rbp
	.cfi_def_cfa_offset 16
	.cfi_offset %rbp, -16
	movq	%rsp, %rbp
	.cfi_def_cfa_register %rbp
	pushq	%rbx
	subq	$24, %rsp
	.cfi_offset %rbx, -24
	movl	$231350118, -24(%rbp)   # imm = 0xDCA1F66
	movl	%edi, -20(%rbp)
	movl	-20(%rbp), %eax
	subl	$1, %eax
	movl	%eax, -16(%rbp)
	movl	$0, -12(%rbp)
.LBB17_1:                               # %while.cond
                                        # =>This Inner Loop Header: Depth=1
	cmpl	$0, -16(%rbp)
	je	.LBB17_3
# %bb.2:                                # %while.body
                                        #   in Loop: Header=BB17_1 Depth=1
	movl	-16(%rbp), %eax
	shrl	$1, %eax
	movl	%eax, -16(%rbp)
	movl	-12(%rbp), %eax
	addl	$1, %eax
	movl	%eax, -12(%rbp)
	jmp	.LBB17_1
.LBB17_3:                               # %while.end
	movl	-12(%rbp), %ebx
	cmpl	$231350118, -24(%rbp)   # imm = 0xDCA1F66
	jne	.LBB17_5
.LBB17_4:
	movl	%ebx, %eax
	addq	$24, %rsp
	popq	%rbx
	popq	%rbp
	.cfi_def_cfa %rsp, 8
	retq
.LBB17_5:                               # %func_exit
	.cfi_def_cfa %rbp, 16
	callq	detect_breach
	jmp	.LBB17_4
.Lfunc_end17:
	.size	CeilLog2.5, .Lfunc_end17-CeilLog2.5
	.cfi_endproc
                                        # -- End function
	.globl	CeilLog2.6              # -- Begin function CeilLog2.6
	.p2align	4, 0x90
	.type	CeilLog2.6,@function
CeilLog2.6:                             # @CeilLog2.6
	.cfi_startproc
# %bb.0:                                # %entry
	pushq	%rbp
	.cfi_def_cfa_offset 16
	.cfi_offset %rbp, -16
	movq	%rsp, %rbp
	.cfi_def_cfa_register %rbp
	pushq	%rbx
	subq	$24, %rsp
	.cfi_offset %rbx, -24
	movl	$681908524, -24(%rbp)   # imm = 0x28A5192C
	movl	%edi, -20(%rbp)
	movl	-20(%rbp), %eax
	subl	$1, %eax
	movl	%eax, -12(%rbp)
	movl	$0, -16(%rbp)
.LBB18_1:                               # %while.cond
                                        # =>This Inner Loop Header: Depth=1
	cmpl	$0, -12(%rbp)
	je	.LBB18_3
# %bb.2:                                # %while.body
                                        #   in Loop: Header=BB18_1 Depth=1
	movl	-12(%rbp), %eax
	shrl	$1, %eax
	movl	%eax, -12(%rbp)
	movl	-16(%rbp), %eax
	addl	$1, %eax
	movl	%eax, -16(%rbp)
	jmp	.LBB18_1
.LBB18_3:                               # %while.end
	movl	-16(%rbp), %ebx
	cmpl	$681908524, -24(%rbp)   # imm = 0x28A5192C
	jne	.LBB18_5
.LBB18_4:
	movl	%ebx, %eax
	addq	$24, %rsp
	popq	%rbx
	popq	%rbp
	.cfi_def_cfa %rsp, 8
	retq
.LBB18_5:                               # %func_exit
	.cfi_def_cfa %rbp, 16
	callq	detect_breach
	jmp	.LBB18_4
.Lfunc_end18:
	.size	CeilLog2.6, .Lfunc_end18-CeilLog2.6
	.cfi_endproc
                                        # -- End function
	.globl	GetConfigFileContent.7  # -- Begin function GetConfigFileContent.7
	.p2align	4, 0x90
	.type	GetConfigFileContent.7,@function
GetConfigFileContent.7:                 # @GetConfigFileContent.7
	.cfi_startproc
# %bb.0:                                # %entry
	pushq	%rbp
	.cfi_def_cfa_offset 16
	.cfi_offset %rbp, -16
	movq	%rsp, %rbp
	.cfi_def_cfa_register %rbp
	pushq	%rbx
	subq	$56, %rsp
	.cfi_offset %rbx, -24
	movl	$749638966, -52(%rbp)   # imm = 0x2CAE9536
	movq	%rdi, -24(%rbp)
	movq	-24(%rbp), %rdi
	movabsq	$.L.str.12, %rsi
	callq	fopen
	xorl	%ecx, %ecx
	movq	%rax, -40(%rbp)
	cmpq	%rax, %rcx
	jne	.LBB19_2
# %bb.1:                                # %if.then
	movq	-24(%rbp), %rcx
	movabsq	$errortext, %rdi
	movl	$300, %esi              # imm = 0x12C
	movabsq	$.L.str.13, %rdx
	movb	$0, %al
	callq	snprintf
	movq	$0, -32(%rbp)
	jmp	.LBB19_12
.LBB19_2:                               # %if.end
	movq	-40(%rbp), %rdi
	xorl	%esi, %esi
	movl	$2, %edx
	callq	fseek
	xorl	%ecx, %ecx
	cmpl	%eax, %ecx
	je	.LBB19_4
# %bb.3:                                # %if.then4
	movq	-24(%rbp), %rcx
	movabsq	$errortext, %rdi
	movl	$300, %esi              # imm = 0x12C
	movabsq	$.L.str.14, %rdx
	movb	$0, %al
	callq	snprintf
	movq	$0, -32(%rbp)
	jmp	.LBB19_12
.LBB19_4:                               # %if.end6
	movq	-40(%rbp), %rdi
	callq	ftell
	movq	%rax, -16(%rbp)
	cmpq	$0, -16(%rbp)
	jl	.LBB19_6
# %bb.5:                                # %lor.lhs.false
	cmpq	$60000, -16(%rbp)       # imm = 0xEA60
	jle	.LBB19_7
.LBB19_6:                               # %if.then10
	movq	-16(%rbp), %rcx
	movq	-24(%rbp), %r8
	movabsq	$errortext, %rdi
	movl	$300, %esi              # imm = 0x12C
	movabsq	$.L.str.15, %rdx
	movb	$0, %al
	callq	snprintf
	movq	$0, -32(%rbp)
	jmp	.LBB19_12
.LBB19_7:                               # %if.end12
	movq	-40(%rbp), %rdi
	xorl	%esi, %esi
	xorl	%edx, %edx
	callq	fseek
	xorl	%ecx, %ecx
	cmpl	%eax, %ecx
	je	.LBB19_9
# %bb.8:                                # %if.then15
	movq	-24(%rbp), %rcx
	movabsq	$errortext, %rdi
	movl	$300, %esi              # imm = 0x12C
	movabsq	$.L.str.14, %rdx
	movb	$0, %al
	callq	snprintf
	movq	$0, -32(%rbp)
	jmp	.LBB19_12
.LBB19_9:                               # %if.end17
	movq	-16(%rbp), %rdi
	addq	$1, %rdi
	callq	malloc
	movq	%rax, -48(%rbp)
	cmpq	$0, %rax
	jne	.LBB19_11
# %bb.10:                               # %if.then20
	movabsq	$.L.str.16, %rdi
	callq	no_mem_exit
.LBB19_11:                              # %if.end21
	movq	-48(%rbp), %rdi
	movq	-16(%rbp), %rdx
	movq	-40(%rbp), %rcx
	movl	$1, %esi
	callq	fread
	movq	%rax, -16(%rbp)
	movq	-48(%rbp), %rax
	movq	-16(%rbp), %rcx
	movb	$0, (%rax,%rcx)
	movq	-40(%rbp), %rdi
	callq	fclose
	movq	-48(%rbp), %rax
	movq	%rax, -32(%rbp)
.LBB19_12:                              # %return
	movq	-32(%rbp), %rbx
	cmpl	$749638966, -52(%rbp)   # imm = 0x2CAE9536
	jne	.LBB19_14
.LBB19_13:
	movq	%rbx, %rax
	addq	$56, %rsp
	popq	%rbx
	popq	%rbp
	.cfi_def_cfa %rsp, 8
	retq
.LBB19_14:                              # %func_exit
	.cfi_def_cfa %rbp, 16
	callq	detect_breach
	jmp	.LBB19_13
.Lfunc_end19:
	.size	GetConfigFileContent.7, .Lfunc_end19-GetConfigFileContent.7
	.cfi_endproc
                                        # -- End function
	.p2align	4, 0x90         # -- Begin function ParseContent.8
	.type	ParseContent.8,@function
ParseContent.8:                         # @ParseContent.8
	.cfi_startproc
# %bb.0:                                # %entry
	pushq	%rbp
	.cfi_def_cfa_offset 16
	.cfi_offset %rbp, -16
	movq	%rsp, %rbp
	.cfi_def_cfa_register %rbp
	subq	$80080, %rsp            # imm = 0x138D0
	movl	$1278318056, -36(%rbp)  # imm = 0x4C3195E8
	movq	%rdi, -64(%rbp)
	movl	%esi, -40(%rbp)
	movl	$0, -24(%rbp)
	movl	$0, -28(%rbp)
	movl	$0, -20(%rbp)
	movq	-64(%rbp), %rax
	movq	%rax, -16(%rbp)
	movq	-64(%rbp), %rax
	movslq	-40(%rbp), %rcx
	addq	%rcx, %rax
	movq	%rax, -56(%rbp)
.LBB20_1:                               # %while.cond
                                        # =>This Loop Header: Depth=1
                                        #     Child Loop BB20_6 Depth 2
	movq	-16(%rbp), %rax
	cmpq	-56(%rbp), %rax
	jae	.LBB20_24
# %bb.2:                                # %while.body
                                        #   in Loop: Header=BB20_1 Depth=1
	movq	-16(%rbp), %rax
	movsbl	(%rax), %eax
	addl	$-9, %eax
	movl	%eax, %ecx
	subl	$26, %ecx
	ja	.LBB20_20
# %bb.3:                                # %while.body
                                        #   in Loop: Header=BB20_1 Depth=1
	movq	.LJTI20_0(,%rax,8), %rax
	jmpq	*%rax
.LBB20_4:                               # %sw.bb
                                        #   in Loop: Header=BB20_1 Depth=1
	movq	-16(%rbp), %rax
	addq	$1, %rax
	movq	%rax, -16(%rbp)
	jmp	.LBB20_23
.LBB20_5:                               # %sw.bb1
                                        #   in Loop: Header=BB20_1 Depth=1
	movq	-16(%rbp), %rax
	movb	$0, (%rax)
.LBB20_6:                               # %while.cond2
                                        #   Parent Loop BB20_1 Depth=1
                                        # =>  This Inner Loop Header: Depth=2
	xorl	%eax, %eax
	movq	-16(%rbp), %rcx
	movsbl	(%rcx), %ecx
	cmpl	$10, %ecx
	je	.LBB20_8
# %bb.7:                                # %land.rhs
                                        #   in Loop: Header=BB20_6 Depth=2
	movq	-16(%rbp), %rax
	cmpq	-56(%rbp), %rax
	setb	%al
.LBB20_8:                               # %land.end
                                        #   in Loop: Header=BB20_6 Depth=2
	testb	$1, %al
	jne	.LBB20_9
	jmp	.LBB20_10
.LBB20_9:                               # %while.body8
                                        #   in Loop: Header=BB20_6 Depth=2
	movq	-16(%rbp), %rax
	addq	$1, %rax
	movq	%rax, -16(%rbp)
	jmp	.LBB20_6
.LBB20_10:                              # %while.end
                                        #   in Loop: Header=BB20_1 Depth=1
	movl	$0, -28(%rbp)
	movl	$0, -20(%rbp)
	jmp	.LBB20_23
.LBB20_11:                              # %sw.bb10
                                        #   in Loop: Header=BB20_1 Depth=1
	movl	$0, -20(%rbp)
	movl	$0, -28(%rbp)
	movq	-16(%rbp), %rax
	movq	%rax, %rcx
	addq	$1, %rcx
	movq	%rcx, -16(%rbp)
	movb	$0, (%rax)
	jmp	.LBB20_23
.LBB20_12:                              # %sw.bb12
                                        #   in Loop: Header=BB20_1 Depth=1
	cmpl	$0, -28(%rbp)
	je	.LBB20_14
# %bb.13:                               # %if.then
                                        #   in Loop: Header=BB20_1 Depth=1
	movq	-16(%rbp), %rax
	addq	$1, %rax
	movq	%rax, -16(%rbp)
	jmp	.LBB20_15
.LBB20_14:                              # %if.else
                                        #   in Loop: Header=BB20_1 Depth=1
	movq	-16(%rbp), %rax
	movq	%rax, %rcx
	addq	$1, %rcx
	movq	%rcx, -16(%rbp)
	movb	$0, (%rax)
	movl	$0, -20(%rbp)
.LBB20_15:                              # %if.end
                                        #   in Loop: Header=BB20_1 Depth=1
	jmp	.LBB20_23
.LBB20_16:                              # %sw.bb15
                                        #   in Loop: Header=BB20_1 Depth=1
	movq	-16(%rbp), %rax
	movq	%rax, %rcx
	addq	$1, %rcx
	movq	%rcx, -16(%rbp)
	movb	$0, (%rax)
	cmpl	$0, -28(%rbp)
	jne	.LBB20_18
# %bb.17:                               # %if.then18
                                        #   in Loop: Header=BB20_1 Depth=1
	movq	-16(%rbp), %rax
	movl	-24(%rbp), %ecx
	movl	%ecx, %edx
	addl	$1, %edx
	movl	%edx, -24(%rbp)
	movslq	%ecx, %rcx
	movq	%rax, -80080(%rbp,%rcx,8)
	movl	-20(%rbp), %eax
	xorl	$-1, %eax
	movl	%eax, -20(%rbp)
	jmp	.LBB20_19
.LBB20_18:                              # %if.else21
                                        #   in Loop: Header=BB20_1 Depth=1
	movl	$0, -20(%rbp)
.LBB20_19:                              # %if.end22
                                        #   in Loop: Header=BB20_1 Depth=1
	movl	-28(%rbp), %eax
	xorl	$-1, %eax
	movl	%eax, -28(%rbp)
	jmp	.LBB20_23
.LBB20_20:                              # %sw.default
                                        #   in Loop: Header=BB20_1 Depth=1
	cmpl	$0, -20(%rbp)
	jne	.LBB20_22
# %bb.21:                               # %if.then25
                                        #   in Loop: Header=BB20_1 Depth=1
	movq	-16(%rbp), %rax
	movl	-24(%rbp), %ecx
	movl	%ecx, %edx
	addl	$1, %edx
	movl	%edx, -24(%rbp)
	movslq	%ecx, %rcx
	movq	%rax, -80080(%rbp,%rcx,8)
	movl	-20(%rbp), %eax
	xorl	$-1, %eax
	movl	%eax, -20(%rbp)
.LBB20_22:                              # %if.end30
                                        #   in Loop: Header=BB20_1 Depth=1
	movq	-16(%rbp), %rax
	addq	$1, %rax
	movq	%rax, -16(%rbp)
.LBB20_23:                              # %sw.epilog
                                        #   in Loop: Header=BB20_1 Depth=1
	jmp	.LBB20_1
.LBB20_24:                              # %while.end32
	movl	-24(%rbp), %eax
	addl	$-1, %eax
	movl	%eax, -24(%rbp)
	movl	$0, -4(%rbp)
.LBB20_25:                              # %for.cond
                                        # =>This Inner Loop Header: Depth=1
	movl	-4(%rbp), %eax
	cmpl	-24(%rbp), %eax
	jge	.LBB20_43
# %bb.26:                               # %for.body
                                        #   in Loop: Header=BB20_25 Depth=1
	movslq	-4(%rbp), %rax
	movq	-80080(%rbp,%rax,8), %rdi
	callq	ParameterNameToMapIndex
	xorl	%ecx, %ecx
	movl	%eax, -32(%rbp)
	cmpl	%eax, %ecx
	jle	.LBB20_28
# %bb.27:                               # %if.then39
                                        #   in Loop: Header=BB20_25 Depth=1
	movslq	-4(%rbp), %rax
	movq	-80080(%rbp,%rax,8), %rcx
	movabsq	$errortext, %rdi
	movl	$300, %esi              # imm = 0x12C
	movabsq	$.L.str.167, %rdx
	movb	$0, %al
	callq	snprintf
	movabsq	$errortext, %rdi
	movl	$300, %esi              # imm = 0x12C
	callq	error
.LBB20_28:                              # %if.end43
                                        #   in Loop: Header=BB20_25 Depth=1
	movl	-4(%rbp), %eax
	addl	$1, %eax
	cltq
	movq	-80080(%rbp,%rax,8), %rsi
	movl	$.L.str.168, %edi
	callq	strcmp
	cmpl	$0, %eax
	je	.LBB20_30
# %bb.29:                               # %if.then48
                                        #   in Loop: Header=BB20_25 Depth=1
	movabsq	$errortext, %rdi
	movl	$300, %esi              # imm = 0x12C
	movabsq	$.L.str.169, %rdx
	movb	$0, %al
	callq	snprintf
	movabsq	$errortext, %rdi
	movl	$300, %esi              # imm = 0x12C
	callq	error
.LBB20_30:                              # %if.end50
                                        #   in Loop: Header=BB20_25 Depth=1
	movslq	-32(%rbp), %rax
	imulq	$56, %rax, %rax
	movl	Map+16(%rax), %eax
	testl	%eax, %eax
	je	.LBB20_33
	jmp	.LBB20_31
.LBB20_31:                              # %if.end50
                                        #   in Loop: Header=BB20_25 Depth=1
	movl	%eax, %ecx
	subl	$1, %ecx
	je	.LBB20_36
	jmp	.LBB20_32
.LBB20_32:                              # %if.end50
                                        #   in Loop: Header=BB20_25 Depth=1
	subl	$2, %eax
	je	.LBB20_37
	jmp	.LBB20_40
.LBB20_33:                              # %sw.bb53
                                        #   in Loop: Header=BB20_25 Depth=1
	movl	-4(%rbp), %eax
	addl	$2, %eax
	cltq
	movq	-80080(%rbp,%rax,8), %rdi
	movabsq	$.L.str.170, %rsi
	leaq	-44(%rbp), %rdx
	movb	$0, %al
	callq	__isoc99_sscanf
	movl	$1, %ecx
	cmpl	%eax, %ecx
	je	.LBB20_35
# %bb.34:                               # %if.then60
                                        #   in Loop: Header=BB20_25 Depth=1
	movslq	-4(%rbp), %rax
	movq	-80080(%rbp,%rax,8), %rcx
	movl	-4(%rbp), %eax
	addl	$2, %eax
	cltq
	movq	-80080(%rbp,%rax,8), %r8
	movabsq	$errortext, %rdi
	movl	$300, %esi              # imm = 0x12C
	movabsq	$.L.str.171, %rdx
	movb	$0, %al
	callq	snprintf
	movabsq	$errortext, %rdi
	movl	$300, %esi              # imm = 0x12C
	callq	error
.LBB20_35:                              # %if.end67
                                        #   in Loop: Header=BB20_25 Depth=1
	movl	-44(%rbp), %eax
	movslq	-32(%rbp), %rcx
	imulq	$56, %rcx, %rcx
	movabsq	$Map, %rdx
	addq	%rcx, %rdx
	movq	8(%rdx), %rcx
	movl	%eax, (%rcx)
	movabsq	$.L.str.172, %rdi
	movb	$0, %al
	callq	printf
	jmp	.LBB20_41
.LBB20_36:                              # %sw.bb71
                                        #   in Loop: Header=BB20_25 Depth=1
	movslq	-32(%rbp), %rax
	imulq	$56, %rax, %rax
	movabsq	$Map, %rcx
	addq	%rax, %rcx
	movq	8(%rcx), %rdi
	movl	-4(%rbp), %eax
	addl	$2, %eax
	cltq
	movq	-80080(%rbp,%rax,8), %rsi
	movl	$200, %edx
	callq	strncpy
	movabsq	$.L.str.172, %rdi
	movb	$0, %al
	callq	printf
	jmp	.LBB20_41
.LBB20_37:                              # %sw.bb80
                                        #   in Loop: Header=BB20_25 Depth=1
	movl	-4(%rbp), %eax
	addl	$2, %eax
	cltq
	movq	-80080(%rbp,%rax,8), %rdi
	movabsq	$.L.str.173, %rsi
	leaq	-72(%rbp), %rdx
	movb	$0, %al
	callq	__isoc99_sscanf
	movl	$1, %ecx
	cmpl	%eax, %ecx
	je	.LBB20_39
# %bb.38:                               # %if.then87
                                        #   in Loop: Header=BB20_25 Depth=1
	movslq	-4(%rbp), %rax
	movq	-80080(%rbp,%rax,8), %rcx
	movl	-4(%rbp), %eax
	addl	$2, %eax
	cltq
	movq	-80080(%rbp,%rax,8), %r8
	movabsq	$errortext, %rdi
	movl	$300, %esi              # imm = 0x12C
	movabsq	$.L.str.171, %rdx
	movb	$0, %al
	callq	snprintf
	movabsq	$errortext, %rdi
	movl	$300, %esi              # imm = 0x12C
	callq	error
.LBB20_39:                              # %if.end94
                                        #   in Loop: Header=BB20_25 Depth=1
	vmovsd	-72(%rbp), %xmm0        # xmm0 = mem[0],zero
	movslq	-32(%rbp), %rax
	imulq	$56, %rax, %rax
	movabsq	$Map, %rcx
	addq	%rax, %rcx
	movq	8(%rcx), %rax
	vmovsd	%xmm0, (%rax)
	movabsq	$.L.str.172, %rdi
	movb	$0, %al
	callq	printf
	jmp	.LBB20_41
.LBB20_40:                              # %sw.default99
                                        #   in Loop: Header=BB20_25 Depth=1
	jmp	.LBB20_41
.LBB20_41:                              # %sw.epilog100
                                        #   in Loop: Header=BB20_25 Depth=1
	jmp	.LBB20_42
.LBB20_42:                              # %for.inc
                                        #   in Loop: Header=BB20_25 Depth=1
	movl	-4(%rbp), %eax
	addl	$3, %eax
	movl	%eax, -4(%rbp)
	jmp	.LBB20_25
.LBB20_43:                              # %for.end
	movabsq	$configinput, %rsi
	movq	input, %rdi
	movl	$3592, %edx             # imm = 0xE08
	callq	memcpy
	cmpl	$1278318056, -36(%rbp)  # imm = 0x4C3195E8
	jne	.LBB20_45
.LBB20_44:
	addq	$80080, %rsp            # imm = 0x138D0
	popq	%rbp
	.cfi_def_cfa %rsp, 8
	retq
.LBB20_45:                              # %func_exit
	.cfi_def_cfa %rbp, 16
	callq	detect_breach
	jmp	.LBB20_44
.Lfunc_end20:
	.size	ParseContent.8, .Lfunc_end20-ParseContent.8
	.cfi_endproc
	.section	.rodata,"a",@progbits
	.p2align	3
.LJTI20_0:
	.quad	.LBB20_12
	.quad	.LBB20_11
	.quad	.LBB20_20
	.quad	.LBB20_20
	.quad	.LBB20_4
	.quad	.LBB20_20
	.quad	.LBB20_20
	.quad	.LBB20_20
	.quad	.LBB20_20
	.quad	.LBB20_20
	.quad	.LBB20_20
	.quad	.LBB20_20
	.quad	.LBB20_20
	.quad	.LBB20_20
	.quad	.LBB20_20
	.quad	.LBB20_20
	.quad	.LBB20_20
	.quad	.LBB20_20
	.quad	.LBB20_20
	.quad	.LBB20_20
	.quad	.LBB20_20
	.quad	.LBB20_20
	.quad	.LBB20_20
	.quad	.LBB20_12
	.quad	.LBB20_20
	.quad	.LBB20_16
	.quad	.LBB20_5
                                        # -- End function
	.text
	.p2align	4, 0x90         # -- Begin function ParameterNameToMapIndex.9
	.type	ParameterNameToMapIndex.9,@function
ParameterNameToMapIndex.9:              # @ParameterNameToMapIndex.9
	.cfi_startproc
# %bb.0:                                # %entry
	pushq	%rbp
	.cfi_def_cfa_offset 16
	.cfi_offset %rbp, -16
	movq	%rsp, %rbp
	.cfi_def_cfa_register %rbp
	pushq	%rbx
	subq	$24, %rsp
	.cfi_offset %rbx, -24
	movl	$911423015, -20(%rbp)   # imm = 0x36533627
	movq	%rdi, -32(%rbp)
	movl	$0, -12(%rbp)
.LBB21_1:                               # %while.cond
                                        # =>This Inner Loop Header: Depth=1
	movslq	-12(%rbp), %rax
	imulq	$56, %rax, %rax
	movabsq	$Map, %rcx
	addq	%rax, %rcx
	cmpq	$0, (%rcx)
	je	.LBB21_6
# %bb.2:                                # %while.body
                                        #   in Loop: Header=BB21_1 Depth=1
	xorl	%ebx, %ebx
	movslq	-12(%rbp), %rax
	imulq	$56, %rax, %rax
	movabsq	$Map, %rcx
	addq	%rax, %rcx
	movq	(%rcx), %rdi
	movq	-32(%rbp), %rsi
	callq	strcmp
	cmpl	%eax, %ebx
	jne	.LBB21_4
# %bb.3:                                # %if.then
	movl	-12(%rbp), %eax
	movl	%eax, -16(%rbp)
	jmp	.LBB21_7
.LBB21_4:                               # %if.else
                                        #   in Loop: Header=BB21_1 Depth=1
	movl	-12(%rbp), %eax
	addl	$1, %eax
	movl	%eax, -12(%rbp)
# %bb.5:                                # %if.end
                                        #   in Loop: Header=BB21_1 Depth=1
	jmp	.LBB21_1
.LBB21_6:                               # %while.end
	movl	$-1, -16(%rbp)
.LBB21_7:                               # %return
	movl	-16(%rbp), %ebx
	cmpl	$911423015, -20(%rbp)   # imm = 0x36533627
	jne	.LBB21_9
.LBB21_8:
	movl	%ebx, %eax
	addq	$24, %rsp
	popq	%rbx
	popq	%rbp
	.cfi_def_cfa %rsp, 8
	retq
.LBB21_9:                               # %func_exit
	.cfi_def_cfa %rbp, 16
	callq	detect_breach
	jmp	.LBB21_8
.Lfunc_end21:
	.size	ParameterNameToMapIndex.9, .Lfunc_end21-ParameterNameToMapIndex.9
	.cfi_endproc
                                        # -- End function
	.globl	CeilLog2.10             # -- Begin function CeilLog2.10
	.p2align	4, 0x90
	.type	CeilLog2.10,@function
CeilLog2.10:                            # @CeilLog2.10
	.cfi_startproc
# %bb.0:                                # %entry
	pushq	%rbp
	.cfi_def_cfa_offset 16
	.cfi_offset %rbp, -16
	movq	%rsp, %rbp
	.cfi_def_cfa_register %rbp
	pushq	%rbx
	subq	$24, %rsp
	.cfi_offset %rbx, -24
	movl	$1144536804, -24(%rbp)  # imm = 0x44383EE4
	movl	%edi, -20(%rbp)
	movl	-20(%rbp), %eax
	subl	$1, %eax
	movl	%eax, -12(%rbp)
	movl	$0, -16(%rbp)
.LBB22_1:                               # %while.cond
                                        # =>This Inner Loop Header: Depth=1
	cmpl	$0, -12(%rbp)
	je	.LBB22_3
# %bb.2:                                # %while.body
                                        #   in Loop: Header=BB22_1 Depth=1
	movl	-12(%rbp), %eax
	shrl	$1, %eax
	movl	%eax, -12(%rbp)
	movl	-16(%rbp), %eax
	addl	$1, %eax
	movl	%eax, -16(%rbp)
	jmp	.LBB22_1
.LBB22_3:                               # %while.end
	movl	-16(%rbp), %ebx
	cmpl	$1144536804, -24(%rbp)  # imm = 0x44383EE4
	jne	.LBB22_5
.LBB22_4:
	movl	%ebx, %eax
	addq	$24, %rsp
	popq	%rbx
	popq	%rbp
	.cfi_def_cfa %rsp, 8
	retq
.LBB22_5:                               # %func_exit
	.cfi_def_cfa %rbp, 16
	callq	detect_breach
	jmp	.LBB22_4
.Lfunc_end22:
	.size	CeilLog2.10, .Lfunc_end22-CeilLog2.10
	.cfi_endproc
                                        # -- End function
	.globl	Configure.11            # -- Begin function Configure.11
	.p2align	4, 0x90
	.type	Configure.11,@function
Configure.11:                           # @Configure.11
	.cfi_startproc
# %bb.0:                                # %entry
	pushq	%rbp
	.cfi_def_cfa_offset 16
	.cfi_offset %rbp, -16
	movq	%rsp, %rbp
	.cfi_def_cfa_register %rbp
	pushq	%rbx
	subq	$72, %rsp
	.cfi_offset %rbx, -24
	movabsq	$configinput, %rax
	movl	$722281251, -76(%rbp)   # imm = 0x2B0D2323
	movl	%edi, -52(%rbp)
	movq	%rsi, -32(%rbp)
	movabsq	$.L.str.1, %rcx
	movq	%rcx, -72(%rbp)
	movq	%rax, %rdi
	xorl	%esi, %esi
	movl	$3592, %edx             # imm = 0xE08
	callq	memset
	movabsq	$.L.str.2, %rdi
	movb	$0, %al
	callq	printf
	callq	InitEncoderParams
	movl	$1, -12(%rbp)
	cmpl	$2, -52(%rbp)
	jne	.LBB23_4
# %bb.1:                                # %if.then
	movq	-32(%rbp), %rax
	movq	8(%rax), %rdi
	movabsq	$.L.str.3, %rsi
	movl	$2, %edx
	callq	strncmp
	xorl	%ecx, %ecx
	cmpl	%eax, %ecx
	jne	.LBB23_3
# %bb.2:                                # %if.then4
	callq	JMHelpExit
.LBB23_3:                               # %if.end
	jmp	.LBB23_4
.LBB23_4:                               # %if.end5
	cmpl	$3, -52(%rbp)
	jl	.LBB23_10
# %bb.5:                                # %if.then7
	movq	-32(%rbp), %rax
	movq	8(%rax), %rdi
	movabsq	$.L.str.4, %rsi
	movl	$2, %edx
	callq	strncmp
	xorl	%ecx, %ecx
	cmpl	%eax, %ecx
	jne	.LBB23_7
# %bb.6:                                # %if.then11
	movq	-32(%rbp), %rax
	movq	16(%rax), %rax
	movq	%rax, -72(%rbp)
	movl	$3, -12(%rbp)
.LBB23_7:                               # %if.end13
	movq	-32(%rbp), %rax
	movq	8(%rax), %rdi
	movabsq	$.L.str.3, %rsi
	movl	$2, %edx
	callq	strncmp
	xorl	%ecx, %ecx
	cmpl	%eax, %ecx
	jne	.LBB23_9
# %bb.8:                                # %if.then17
	callq	JMHelpExit
.LBB23_9:                               # %if.end18
	jmp	.LBB23_10
.LBB23_10:                              # %if.end19
	movq	-72(%rbp), %rsi
	movabsq	$.L.str.5, %rdi
	movb	$0, %al
	callq	printf
	movq	-72(%rbp), %rdi
	callq	GetConfigFileContent
	xorl	%ecx, %ecx
	movq	%rax, -24(%rbp)
	cmpq	-24(%rbp), %rcx
	jne	.LBB23_12
# %bb.11:                               # %if.then23
	movabsq	$errortext, %rdi
	movl	$300, %esi              # imm = 0x12C
	callq	error
.LBB23_12:                              # %if.end24
	movq	-24(%rbp), %rbx
	movq	-24(%rbp), %rdi
	callq	strlen
	movq	%rbx, %rdi
	movl	%eax, %esi
	callq	ParseContent
	movabsq	$.L.str.6, %rdi
	movb	$0, %al
	callq	printf
	movq	-24(%rbp), %rdi
	callq	free
.LBB23_13:                              # %while.cond
                                        # =>This Loop Header: Depth=1
                                        #     Child Loop BB23_22 Depth 2
                                        #     Child Loop BB23_29 Depth 2
                                        #       Child Loop BB23_31 Depth 3
	movl	-12(%rbp), %eax
	cmpl	-52(%rbp), %eax
	jge	.LBB23_41
# %bb.14:                               # %while.body
                                        #   in Loop: Header=BB23_13 Depth=1
	movq	-32(%rbp), %rax
	movslq	-12(%rbp), %rcx
	movq	(%rax,%rcx,8), %rdi
	movabsq	$.L.str.3, %rsi
	movl	$2, %edx
	callq	strncmp
	xorl	%ecx, %ecx
	cmpl	%eax, %ecx
	jne	.LBB23_16
# %bb.15:                               # %if.then33
                                        #   in Loop: Header=BB23_13 Depth=1
	callq	JMHelpExit
.LBB23_16:                              # %if.end34
                                        #   in Loop: Header=BB23_13 Depth=1
	movq	-32(%rbp), %rax
	movslq	-12(%rbp), %rcx
	movq	(%rax,%rcx,8), %rdi
	movabsq	$.L.str.7, %rsi
	movl	$2, %edx
	callq	strncmp
	xorl	%ecx, %ecx
	cmpl	%eax, %ecx
	jne	.LBB23_20
# %bb.17:                               # %if.then40
                                        #   in Loop: Header=BB23_13 Depth=1
	movq	-32(%rbp), %rax
	movl	-12(%rbp), %ecx
	addl	$1, %ecx
	movslq	%ecx, %rcx
	movq	(%rax,%rcx,8), %rdi
	callq	GetConfigFileContent
	xorl	%ecx, %ecx
	movq	%rax, -24(%rbp)
	cmpq	-24(%rbp), %rcx
	jne	.LBB23_19
# %bb.18:                               # %if.then46
                                        #   in Loop: Header=BB23_13 Depth=1
	movabsq	$errortext, %rdi
	movl	$300, %esi              # imm = 0x12C
	callq	error
.LBB23_19:                              # %if.end47
                                        #   in Loop: Header=BB23_13 Depth=1
	movq	-32(%rbp), %rax
	movl	-12(%rbp), %ecx
	addl	$1, %ecx
	movslq	%ecx, %rcx
	movq	(%rax,%rcx,8), %rsi
	movabsq	$.L.str.5, %rdi
	movb	$0, %al
	callq	printf
	movq	-24(%rbp), %rbx
	movq	-24(%rbp), %rdi
	callq	strlen
	movq	%rbx, %rdi
	movl	%eax, %esi
	callq	ParseContent
	movabsq	$.L.str.6, %rdi
	movb	$0, %al
	callq	printf
	movq	-24(%rbp), %rdi
	callq	free
	movl	-12(%rbp), %eax
	addl	$2, %eax
	movl	%eax, -12(%rbp)
	jmp	.LBB23_40
.LBB23_20:                              # %if.else
                                        #   in Loop: Header=BB23_13 Depth=1
	movq	-32(%rbp), %rax
	movslq	-12(%rbp), %rcx
	movq	(%rax,%rcx,8), %rdi
	movabsq	$.L.str.8, %rsi
	movl	$2, %edx
	callq	strncmp
	xorl	%ecx, %ecx
	cmpl	%eax, %ecx
	jne	.LBB23_38
# %bb.21:                               # %if.then61
                                        #   in Loop: Header=BB23_13 Depth=1
	movl	-12(%rbp), %eax
	addl	$1, %eax
	movl	%eax, -12(%rbp)
	movl	$0, -36(%rbp)
	movl	-12(%rbp), %eax
	movl	%eax, -40(%rbp)
.LBB23_22:                              # %while.cond62
                                        #   Parent Loop BB23_13 Depth=1
                                        # =>  This Inner Loop Header: Depth=2
	xorl	%eax, %eax
	movl	-40(%rbp), %ecx
	cmpl	-52(%rbp), %ecx
	jge	.LBB23_24
# %bb.23:                               # %land.rhs
                                        #   in Loop: Header=BB23_22 Depth=2
	movq	-32(%rbp), %rax
	movslq	-40(%rbp), %rcx
	movq	(%rax,%rcx,8), %rax
	movsbl	(%rax), %eax
	cmpl	$45, %eax
	setne	%al
.LBB23_24:                              # %land.end
                                        #   in Loop: Header=BB23_22 Depth=2
	testb	$1, %al
	jne	.LBB23_25
	jmp	.LBB23_26
.LBB23_25:                              # %while.body71
                                        #   in Loop: Header=BB23_22 Depth=2
	movq	-32(%rbp), %rax
	movl	-40(%rbp), %ecx
	movl	%ecx, %edx
	addl	$1, %edx
	movl	%edx, -40(%rbp)
	movslq	%ecx, %rcx
	movq	(%rax,%rcx,8), %rdi
	callq	strlen
	movslq	-36(%rbp), %rcx
	addq	%rax, %rcx
	movl	%ecx, -36(%rbp)
	jmp	.LBB23_22
.LBB23_26:                              # %while.end
                                        #   in Loop: Header=BB23_13 Depth=1
	movl	-36(%rbp), %eax
	addl	$1000, %eax             # imm = 0x3E8
	movl	%eax, -36(%rbp)
	movslq	-36(%rbp), %rdi
	callq	malloc
	movq	%rax, -24(%rbp)
	cmpq	$0, %rax
	jne	.LBB23_28
# %bb.27:                               # %if.then84
                                        #   in Loop: Header=BB23_13 Depth=1
	movabsq	$.L.str.9, %rdi
	callq	no_mem_exit
.LBB23_28:                              # %if.end85
                                        #   in Loop: Header=BB23_13 Depth=1
	movq	-24(%rbp), %rax
	movb	$0, (%rax)
.LBB23_29:                              # %while.cond87
                                        #   Parent Loop BB23_13 Depth=1
                                        # =>  This Loop Header: Depth=2
                                        #       Child Loop BB23_31 Depth 3
	movl	-12(%rbp), %eax
	cmpl	-40(%rbp), %eax
	jge	.LBB23_37
# %bb.30:                               # %while.body90
                                        #   in Loop: Header=BB23_29 Depth=2
	movq	-32(%rbp), %rax
	movslq	-12(%rbp), %rcx
	movq	(%rax,%rcx,8), %rax
	movq	%rax, -64(%rbp)
	movq	-24(%rbp), %rbx
	movq	-24(%rbp), %rdi
	callq	strlen
	addq	%rax, %rbx
	movq	%rbx, -48(%rbp)
.LBB23_31:                              # %while.cond96
                                        #   Parent Loop BB23_13 Depth=1
                                        #     Parent Loop BB23_29 Depth=2
                                        # =>    This Inner Loop Header: Depth=3
	movq	-64(%rbp), %rax
	movsbl	(%rax), %eax
	cmpl	$0, %eax
	je	.LBB23_36
# %bb.32:                               # %while.body100
                                        #   in Loop: Header=BB23_31 Depth=3
	movq	-64(%rbp), %rax
	movsbl	(%rax), %eax
	cmpl	$61, %eax
	jne	.LBB23_34
# %bb.33:                               # %if.then104
                                        #   in Loop: Header=BB23_31 Depth=3
	movq	-48(%rbp), %rax
	movq	%rax, %rcx
	addq	$1, %rcx
	movq	%rcx, -48(%rbp)
	movb	$32, (%rax)
	movq	-48(%rbp), %rax
	movq	%rax, %rcx
	addq	$1, %rcx
	movq	%rcx, -48(%rbp)
	movb	$61, (%rax)
	movq	-48(%rbp), %rax
	movq	%rax, %rcx
	addq	$1, %rcx
	movq	%rcx, -48(%rbp)
	movb	$32, (%rax)
	jmp	.LBB23_35
.LBB23_34:                              # %if.else107
                                        #   in Loop: Header=BB23_31 Depth=3
	movq	-64(%rbp), %rax
	movb	(%rax), %al
	movq	-48(%rbp), %rcx
	movq	%rcx, %rdx
	addq	$1, %rdx
	movq	%rdx, -48(%rbp)
	movb	%al, (%rcx)
.LBB23_35:                              # %if.end109
                                        #   in Loop: Header=BB23_31 Depth=3
	movq	-64(%rbp), %rax
	addq	$1, %rax
	movq	%rax, -64(%rbp)
	jmp	.LBB23_31
.LBB23_36:                              # %while.end111
                                        #   in Loop: Header=BB23_29 Depth=2
	movq	-48(%rbp), %rax
	movb	$0, (%rax)
	movl	-12(%rbp), %eax
	addl	$1, %eax
	movl	%eax, -12(%rbp)
	jmp	.LBB23_29
.LBB23_37:                              # %while.end113
                                        #   in Loop: Header=BB23_13 Depth=1
	movq	-24(%rbp), %rsi
	movabsq	$.L.str.10, %rdi
	movb	$0, %al
	callq	printf
	movq	-24(%rbp), %rbx
	movq	-24(%rbp), %rdi
	callq	strlen
	movq	%rbx, %rdi
	movl	%eax, %esi
	callq	ParseContent
	movq	-24(%rbp), %rdi
	callq	free
	movabsq	$.L.str.6, %rdi
	movb	$0, %al
	callq	printf
	jmp	.LBB23_39
.LBB23_38:                              # %if.else118
                                        #   in Loop: Header=BB23_13 Depth=1
	movl	-12(%rbp), %ecx
	movq	-32(%rbp), %rax
	movslq	-12(%rbp), %rdx
	movq	(%rax,%rdx,8), %r8
	movabsq	$errortext, %rdi
	movl	$300, %esi              # imm = 0x12C
	movabsq	$.L.str.11, %rdx
	movb	$0, %al
	callq	snprintf
	movabsq	$errortext, %rdi
	movl	$300, %esi              # imm = 0x12C
	callq	error
.LBB23_39:                              # %if.end122
                                        #   in Loop: Header=BB23_13 Depth=1
	jmp	.LBB23_40
.LBB23_40:                              # %if.end123
                                        #   in Loop: Header=BB23_13 Depth=1
	jmp	.LBB23_13
.LBB23_41:                              # %while.end124
	movabsq	$.L.str.6, %rdi
	movb	$0, %al
	callq	printf
	callq	PatchInp
	movq	input, %rax
	cmpl	$0, 3232(%rax)
	je	.LBB23_43
# %bb.42:                               # %if.then126
	callq	DisplayEncoderParams
.LBB23_43:                              # %if.end128
	cmpl	$722281251, -76(%rbp)   # imm = 0x2B0D2323
	jne	.LBB23_45
.LBB23_44:
	addq	$72, %rsp
	popq	%rbx
	popq	%rbp
	.cfi_def_cfa %rsp, 8
	retq
.LBB23_45:                              # %func_exit
	.cfi_def_cfa %rbp, 16
	callq	detect_breach
	jmp	.LBB23_44
.Lfunc_end23:
	.size	Configure.11, .Lfunc_end23-Configure.11
	.cfi_endproc
                                        # -- End function
	.p2align	4, 0x90         # -- Begin function TestEncoderParams.12
	.type	TestEncoderParams.12,@function
TestEncoderParams.12:                   # @TestEncoderParams.12
	.cfi_startproc
# %bb.0:                                # %entry
	pushq	%rbp
	.cfi_def_cfa_offset 16
	.cfi_offset %rbp, -16
	movq	%rsp, %rbp
	.cfi_def_cfa_register %rbp
	subq	$16, %rsp
	movl	$1614949006, -12(%rbp)  # imm = 0x60422A8E
	movl	%edi, -8(%rbp)
	movl	$0, -4(%rbp)
.LBB24_1:                               # %while.cond
                                        # =>This Inner Loop Header: Depth=1
	movslq	-4(%rbp), %rax
	imulq	$56, %rax, %rax
	movabsq	$Map, %rcx
	addq	%rax, %rcx
	cmpq	$0, (%rcx)
	je	.LBB24_36
# %bb.2:                                # %while.body
                                        #   in Loop: Header=BB24_1 Depth=1
	movslq	-4(%rbp), %rax
	imulq	$56, %rax, %rax
	movabsq	$Map, %rcx
	addq	%rax, %rcx
	cmpl	$1, 32(%rcx)
	jne	.LBB24_15
# %bb.3:                                # %if.then
                                        #   in Loop: Header=BB24_1 Depth=1
	movslq	-4(%rbp), %rax
	imulq	$56, %rax, %rax
	movabsq	$Map, %rcx
	addq	%rax, %rcx
	cmpl	$0, 16(%rcx)
	jne	.LBB24_8
# %bb.4:                                # %if.then7
                                        #   in Loop: Header=BB24_1 Depth=1
	movslq	-4(%rbp), %rax
	imulq	$56, %rax, %rax
	movabsq	$Map, %rcx
	movq	%rcx, %rdx
	addq	%rax, %rdx
	movq	8(%rdx), %rax
	movl	(%rax), %eax
	movslq	-4(%rbp), %rdx
	imulq	$56, %rdx, %rdx
	addq	%rdx, %rcx
	vcvttsd2si	40(%rcx), %ecx
	cmpl	%ecx, %eax
	jl	.LBB24_6
# %bb.5:                                # %lor.lhs.false
                                        #   in Loop: Header=BB24_1 Depth=1
	movslq	-4(%rbp), %rax
	imulq	$56, %rax, %rax
	movabsq	$Map, %rcx
	movq	%rcx, %rdx
	addq	%rax, %rdx
	movq	8(%rdx), %rax
	movl	(%rax), %eax
	movslq	-4(%rbp), %rdx
	imulq	$56, %rdx, %rdx
	addq	%rdx, %rcx
	vcvttsd2si	48(%rcx), %ecx
	cmpl	%ecx, %eax
	jle	.LBB24_7
.LBB24_6:                               # %if.then22
                                        #   in Loop: Header=BB24_1 Depth=1
	movslq	-4(%rbp), %rax
	imulq	$56, %rax, %rax
	movabsq	$Map, %rdx
	movq	%rdx, %rcx
	addq	%rax, %rcx
	movq	(%rcx), %rcx
	movslq	-4(%rbp), %rax
	imulq	$56, %rax, %rax
	movq	%rdx, %rsi
	addq	%rax, %rsi
	vcvttsd2si	40(%rsi), %r8d
	movslq	-4(%rbp), %rax
	imulq	$56, %rax, %rax
	addq	%rax, %rdx
	vcvttsd2si	48(%rdx), %r9d
	movabsq	$errortext, %rdi
	movl	$300, %esi              # imm = 0x12C
	movabsq	$.L.str.216, %rdx
	movb	$0, %al
	callq	snprintf
	movabsq	$errortext, %rdi
	movl	$400, %esi              # imm = 0x190
	callq	error
.LBB24_7:                               # %if.end
                                        #   in Loop: Header=BB24_1 Depth=1
	jmp	.LBB24_14
.LBB24_8:                               # %if.else
                                        #   in Loop: Header=BB24_1 Depth=1
	movslq	-4(%rbp), %rax
	imulq	$56, %rax, %rax
	movabsq	$Map, %rcx
	addq	%rax, %rcx
	cmpl	$2, 16(%rcx)
	jne	.LBB24_13
# %bb.9:                                # %if.then39
                                        #   in Loop: Header=BB24_1 Depth=1
	movslq	-4(%rbp), %rax
	imulq	$56, %rax, %rax
	movabsq	$Map, %rcx
	movq	%rcx, %rdx
	addq	%rax, %rdx
	movq	8(%rdx), %rax
	vmovsd	(%rax), %xmm0           # xmm0 = mem[0],zero
	movslq	-4(%rbp), %rax
	imulq	$56, %rax, %rax
	addq	%rax, %rcx
	vmovsd	40(%rcx), %xmm1         # xmm1 = mem[0],zero
	vucomisd	%xmm0, %xmm1
	ja	.LBB24_11
# %bb.10:                               # %lor.lhs.false48
                                        #   in Loop: Header=BB24_1 Depth=1
	movslq	-4(%rbp), %rax
	imulq	$56, %rax, %rax
	movabsq	$Map, %rcx
	movq	%rcx, %rdx
	addq	%rax, %rdx
	movq	8(%rdx), %rax
	vmovsd	(%rax), %xmm0           # xmm0 = mem[0],zero
	movslq	-4(%rbp), %rax
	imulq	$56, %rax, %rax
	addq	%rax, %rcx
	vucomisd	48(%rcx), %xmm0
	jbe	.LBB24_12
.LBB24_11:                              # %if.then57
                                        #   in Loop: Header=BB24_1 Depth=1
	movslq	-4(%rbp), %rax
	imulq	$56, %rax, %rax
	movabsq	$Map, %rdx
	movq	%rdx, %rcx
	addq	%rax, %rcx
	movq	(%rcx), %rcx
	movslq	-4(%rbp), %rax
	imulq	$56, %rax, %rax
	movq	%rdx, %rsi
	addq	%rax, %rsi
	vmovsd	40(%rsi), %xmm0         # xmm0 = mem[0],zero
	movslq	-4(%rbp), %rax
	imulq	$56, %rax, %rax
	addq	%rax, %rdx
	vmovsd	48(%rdx), %xmm1         # xmm1 = mem[0],zero
	movabsq	$errortext, %rdi
	movl	$300, %esi              # imm = 0x12C
	movabsq	$.L.str.217, %rdx
	movb	$2, %al
	callq	snprintf
	movabsq	$errortext, %rdi
	movl	$400, %esi              # imm = 0x190
	callq	error
.LBB24_12:                              # %if.end68
                                        #   in Loop: Header=BB24_1 Depth=1
	jmp	.LBB24_13
.LBB24_13:                              # %if.end69
                                        #   in Loop: Header=BB24_1 Depth=1
	jmp	.LBB24_14
.LBB24_14:                              # %if.end70
                                        #   in Loop: Header=BB24_1 Depth=1
	jmp	.LBB24_35
.LBB24_15:                              # %if.else71
                                        #   in Loop: Header=BB24_1 Depth=1
	movslq	-4(%rbp), %rax
	imulq	$56, %rax, %rax
	movabsq	$Map, %rcx
	addq	%rax, %rcx
	cmpl	$2, 32(%rcx)
	jne	.LBB24_26
# %bb.16:                               # %if.then77
                                        #   in Loop: Header=BB24_1 Depth=1
	movslq	-4(%rbp), %rax
	imulq	$56, %rax, %rax
	movabsq	$Map, %rcx
	addq	%rax, %rcx
	cmpl	$0, 16(%rcx)
	jne	.LBB24_20
# %bb.17:                               # %if.then83
                                        #   in Loop: Header=BB24_1 Depth=1
	movslq	-4(%rbp), %rax
	imulq	$56, %rax, %rax
	movabsq	$Map, %rcx
	movq	%rcx, %rdx
	addq	%rax, %rdx
	movq	8(%rdx), %rax
	movl	(%rax), %eax
	movslq	-4(%rbp), %rdx
	imulq	$56, %rdx, %rdx
	addq	%rdx, %rcx
	vcvttsd2si	40(%rcx), %ecx
	cmpl	%ecx, %eax
	jge	.LBB24_19
# %bb.18:                               # %if.then93
                                        #   in Loop: Header=BB24_1 Depth=1
	movslq	-4(%rbp), %rax
	imulq	$56, %rax, %rax
	movabsq	$Map, %rdx
	movq	%rdx, %rcx
	addq	%rax, %rcx
	movq	(%rcx), %rcx
	movslq	-4(%rbp), %rax
	imulq	$56, %rax, %rax
	addq	%rax, %rdx
	vcvttsd2si	40(%rdx), %r8d
	movabsq	$errortext, %rdi
	movl	$300, %esi              # imm = 0x12C
	movabsq	$.L.str.218, %rdx
	movb	$0, %al
	callq	snprintf
	movabsq	$errortext, %rdi
	movl	$400, %esi              # imm = 0x190
	callq	error
.LBB24_19:                              # %if.end102
                                        #   in Loop: Header=BB24_1 Depth=1
	jmp	.LBB24_25
.LBB24_20:                              # %if.else103
                                        #   in Loop: Header=BB24_1 Depth=1
	movslq	-4(%rbp), %rax
	imulq	$56, %rax, %rax
	movabsq	$Map, %rcx
	addq	%rax, %rcx
	cmpl	$2, 16(%rcx)
	jne	.LBB24_24
# %bb.21:                               # %if.then109
                                        #   in Loop: Header=BB24_1 Depth=1
	movslq	-4(%rbp), %rax
	imulq	$56, %rax, %rax
	movabsq	$Map, %rcx
	movq	%rcx, %rdx
	addq	%rax, %rdx
	movq	8(%rdx), %rax
	vmovsd	(%rax), %xmm0           # xmm0 = mem[0],zero
	movslq	-4(%rbp), %rax
	imulq	$56, %rax, %rax
	addq	%rax, %rcx
	vmovsd	40(%rcx), %xmm1         # xmm1 = mem[0],zero
	vucomisd	%xmm0, %xmm1
	jbe	.LBB24_23
# %bb.22:                               # %if.then118
                                        #   in Loop: Header=BB24_1 Depth=1
	movslq	-4(%rbp), %rax
	imulq	$56, %rax, %rax
	movabsq	$Map, %rdx
	movq	%rdx, %rcx
	addq	%rax, %rcx
	movq	(%rcx), %rcx
	movslq	-4(%rbp), %rax
	imulq	$56, %rax, %rax
	addq	%rax, %rdx
	vmovsd	40(%rdx), %xmm0         # xmm0 = mem[0],zero
	movabsq	$errortext, %rdi
	movl	$300, %esi              # imm = 0x12C
	movabsq	$.L.str.219, %rdx
	movb	$1, %al
	callq	snprintf
	movabsq	$errortext, %rdi
	movl	$400, %esi              # imm = 0x190
	callq	error
.LBB24_23:                              # %if.end126
                                        #   in Loop: Header=BB24_1 Depth=1
	jmp	.LBB24_24
.LBB24_24:                              # %if.end127
                                        #   in Loop: Header=BB24_1 Depth=1
	jmp	.LBB24_25
.LBB24_25:                              # %if.end128
                                        #   in Loop: Header=BB24_1 Depth=1
	jmp	.LBB24_34
.LBB24_26:                              # %if.else129
                                        #   in Loop: Header=BB24_1 Depth=1
	movslq	-4(%rbp), %rax
	imulq	$56, %rax, %rax
	movabsq	$Map, %rcx
	addq	%rax, %rcx
	cmpl	$3, 32(%rcx)
	jne	.LBB24_33
# %bb.27:                               # %if.then135
                                        #   in Loop: Header=BB24_1 Depth=1
	movslq	-4(%rbp), %rax
	imulq	$56, %rax, %rax
	movabsq	$Map, %rcx
	addq	%rax, %rcx
	cmpl	$0, 16(%rcx)
	jne	.LBB24_32
# %bb.28:                               # %if.then141
                                        #   in Loop: Header=BB24_1 Depth=1
	movslq	-4(%rbp), %rax
	imulq	$56, %rax, %rax
	movabsq	$Map, %rcx
	movq	%rcx, %rdx
	addq	%rax, %rdx
	movq	8(%rdx), %rax
	movl	(%rax), %eax
	movslq	-4(%rbp), %rdx
	imulq	$56, %rdx, %rdx
	addq	%rdx, %rcx
	vmovsd	40(%rcx), %xmm0         # xmm0 = mem[0],zero
	vcvtsi2sdl	-8(%rbp), %xmm0, %xmm1
	vsubsd	%xmm1, %xmm0, %xmm0
	vcvttsd2si	%xmm0, %ecx
	cmpl	%ecx, %eax
	jl	.LBB24_30
# %bb.29:                               # %lor.lhs.false152
                                        #   in Loop: Header=BB24_1 Depth=1
	movslq	-4(%rbp), %rax
	imulq	$56, %rax, %rax
	movabsq	$Map, %rcx
	movq	%rcx, %rdx
	addq	%rax, %rdx
	movq	8(%rdx), %rax
	movl	(%rax), %eax
	movslq	-4(%rbp), %rdx
	imulq	$56, %rdx, %rdx
	addq	%rdx, %rcx
	vcvttsd2si	48(%rcx), %ecx
	cmpl	%ecx, %eax
	jle	.LBB24_31
.LBB24_30:                              # %if.then162
                                        #   in Loop: Header=BB24_1 Depth=1
	movslq	-4(%rbp), %rax
	imulq	$56, %rax, %rax
	movabsq	$Map, %rdx
	movq	%rdx, %rcx
	addq	%rax, %rcx
	movq	(%rcx), %rcx
	movslq	-4(%rbp), %rax
	imulq	$56, %rax, %rax
	movq	%rdx, %rsi
	addq	%rax, %rsi
	vmovsd	40(%rsi), %xmm0         # xmm0 = mem[0],zero
	vcvtsi2sdl	-8(%rbp), %xmm0, %xmm1
	vsubsd	%xmm1, %xmm0, %xmm0
	vcvttsd2si	%xmm0, %r8d
	movslq	-4(%rbp), %rax
	imulq	$56, %rax, %rax
	addq	%rax, %rdx
	vcvttsd2si	48(%rdx), %r9d
	movabsq	$errortext, %rdi
	movl	$300, %esi              # imm = 0x12C
	movabsq	$.L.str.216, %rdx
	movb	$0, %al
	callq	snprintf
	movabsq	$errortext, %rdi
	movl	$400, %esi              # imm = 0x190
	callq	error
.LBB24_31:                              # %if.end177
                                        #   in Loop: Header=BB24_1 Depth=1
	jmp	.LBB24_32
.LBB24_32:                              # %if.end178
                                        #   in Loop: Header=BB24_1 Depth=1
	jmp	.LBB24_33
.LBB24_33:                              # %if.end179
                                        #   in Loop: Header=BB24_1 Depth=1
	jmp	.LBB24_34
.LBB24_34:                              # %if.end180
                                        #   in Loop: Header=BB24_1 Depth=1
	jmp	.LBB24_35
.LBB24_35:                              # %if.end181
                                        #   in Loop: Header=BB24_1 Depth=1
	movl	-4(%rbp), %eax
	addl	$1, %eax
	movl	%eax, -4(%rbp)
	jmp	.LBB24_1
.LBB24_36:                              # %while.end
	cmpl	$1614949006, -12(%rbp)  # imm = 0x60422A8E
	jne	.LBB24_38
.LBB24_37:
	movl	$4294967295, %eax       # imm = 0xFFFFFFFF
	addq	$16, %rsp
	popq	%rbp
	.cfi_def_cfa %rsp, 8
	retq
.LBB24_38:                              # %func_exit
	.cfi_def_cfa %rbp, 16
	callq	detect_breach
	jmp	.LBB24_37
.Lfunc_end24:
	.size	TestEncoderParams.12, .Lfunc_end24-TestEncoderParams.12
	.cfi_endproc
                                        # -- End function
	.globl	Configure.13            # -- Begin function Configure.13
	.p2align	4, 0x90
	.type	Configure.13,@function
Configure.13:                           # @Configure.13
	.cfi_startproc
# %bb.0:                                # %entry
	pushq	%rbp
	.cfi_def_cfa_offset 16
	.cfi_offset %rbp, -16
	movq	%rsp, %rbp
	.cfi_def_cfa_register %rbp
	pushq	%rbx
	subq	$72, %rsp
	.cfi_offset %rbx, -24
	movabsq	$configinput, %rax
	movl	$700594883, -76(%rbp)   # imm = 0x29C23AC3
	movl	%edi, -52(%rbp)
	movq	%rsi, -32(%rbp)
	movabsq	$.L.str.1, %rcx
	movq	%rcx, -72(%rbp)
	movq	%rax, %rdi
	xorl	%esi, %esi
	movl	$3592, %edx             # imm = 0xE08
	callq	memset
	movabsq	$.L.str.2, %rdi
	movb	$0, %al
	callq	printf
	callq	InitEncoderParams
	movl	$1, -12(%rbp)
	cmpl	$2, -52(%rbp)
	jne	.LBB25_4
# %bb.1:                                # %if.then
	movq	-32(%rbp), %rax
	movq	8(%rax), %rdi
	movabsq	$.L.str.3, %rsi
	movl	$2, %edx
	callq	strncmp
	xorl	%ecx, %ecx
	cmpl	%eax, %ecx
	jne	.LBB25_3
# %bb.2:                                # %if.then4
	callq	JMHelpExit
.LBB25_3:                               # %if.end
	jmp	.LBB25_4
.LBB25_4:                               # %if.end5
	cmpl	$3, -52(%rbp)
	jl	.LBB25_10
# %bb.5:                                # %if.then7
	movq	-32(%rbp), %rax
	movq	8(%rax), %rdi
	movabsq	$.L.str.4, %rsi
	movl	$2, %edx
	callq	strncmp
	xorl	%ecx, %ecx
	cmpl	%eax, %ecx
	jne	.LBB25_7
# %bb.6:                                # %if.then11
	movq	-32(%rbp), %rax
	movq	16(%rax), %rax
	movq	%rax, -72(%rbp)
	movl	$3, -12(%rbp)
.LBB25_7:                               # %if.end13
	movq	-32(%rbp), %rax
	movq	8(%rax), %rdi
	movabsq	$.L.str.3, %rsi
	movl	$2, %edx
	callq	strncmp
	xorl	%ecx, %ecx
	cmpl	%eax, %ecx
	jne	.LBB25_9
# %bb.8:                                # %if.then17
	callq	JMHelpExit
.LBB25_9:                               # %if.end18
	jmp	.LBB25_10
.LBB25_10:                              # %if.end19
	movq	-72(%rbp), %rsi
	movabsq	$.L.str.5, %rdi
	movb	$0, %al
	callq	printf
	movq	-72(%rbp), %rdi
	callq	GetConfigFileContent
	xorl	%ecx, %ecx
	movq	%rax, -24(%rbp)
	cmpq	-24(%rbp), %rcx
	jne	.LBB25_12
# %bb.11:                               # %if.then23
	movabsq	$errortext, %rdi
	movl	$300, %esi              # imm = 0x12C
	callq	error
.LBB25_12:                              # %if.end24
	movq	-24(%rbp), %rbx
	movq	-24(%rbp), %rdi
	callq	strlen
	movq	%rbx, %rdi
	movl	%eax, %esi
	callq	ParseContent
	movabsq	$.L.str.6, %rdi
	movb	$0, %al
	callq	printf
	movq	-24(%rbp), %rdi
	callq	free
.LBB25_13:                              # %while.cond
                                        # =>This Loop Header: Depth=1
                                        #     Child Loop BB25_22 Depth 2
                                        #     Child Loop BB25_29 Depth 2
                                        #       Child Loop BB25_31 Depth 3
	movl	-12(%rbp), %eax
	cmpl	-52(%rbp), %eax
	jge	.LBB25_41
# %bb.14:                               # %while.body
                                        #   in Loop: Header=BB25_13 Depth=1
	movq	-32(%rbp), %rax
	movslq	-12(%rbp), %rcx
	movq	(%rax,%rcx,8), %rdi
	movabsq	$.L.str.3, %rsi
	movl	$2, %edx
	callq	strncmp
	xorl	%ecx, %ecx
	cmpl	%eax, %ecx
	jne	.LBB25_16
# %bb.15:                               # %if.then33
                                        #   in Loop: Header=BB25_13 Depth=1
	callq	JMHelpExit
.LBB25_16:                              # %if.end34
                                        #   in Loop: Header=BB25_13 Depth=1
	movq	-32(%rbp), %rax
	movslq	-12(%rbp), %rcx
	movq	(%rax,%rcx,8), %rdi
	movabsq	$.L.str.7, %rsi
	movl	$2, %edx
	callq	strncmp
	xorl	%ecx, %ecx
	cmpl	%eax, %ecx
	jne	.LBB25_20
# %bb.17:                               # %if.then40
                                        #   in Loop: Header=BB25_13 Depth=1
	movq	-32(%rbp), %rax
	movl	-12(%rbp), %ecx
	addl	$1, %ecx
	movslq	%ecx, %rcx
	movq	(%rax,%rcx,8), %rdi
	callq	GetConfigFileContent
	xorl	%ecx, %ecx
	movq	%rax, -24(%rbp)
	cmpq	-24(%rbp), %rcx
	jne	.LBB25_19
# %bb.18:                               # %if.then46
                                        #   in Loop: Header=BB25_13 Depth=1
	movabsq	$errortext, %rdi
	movl	$300, %esi              # imm = 0x12C
	callq	error
.LBB25_19:                              # %if.end47
                                        #   in Loop: Header=BB25_13 Depth=1
	movq	-32(%rbp), %rax
	movl	-12(%rbp), %ecx
	addl	$1, %ecx
	movslq	%ecx, %rcx
	movq	(%rax,%rcx,8), %rsi
	movabsq	$.L.str.5, %rdi
	movb	$0, %al
	callq	printf
	movq	-24(%rbp), %rbx
	movq	-24(%rbp), %rdi
	callq	strlen
	movq	%rbx, %rdi
	movl	%eax, %esi
	callq	ParseContent
	movabsq	$.L.str.6, %rdi
	movb	$0, %al
	callq	printf
	movq	-24(%rbp), %rdi
	callq	free
	movl	-12(%rbp), %eax
	addl	$2, %eax
	movl	%eax, -12(%rbp)
	jmp	.LBB25_40
.LBB25_20:                              # %if.else
                                        #   in Loop: Header=BB25_13 Depth=1
	movq	-32(%rbp), %rax
	movslq	-12(%rbp), %rcx
	movq	(%rax,%rcx,8), %rdi
	movabsq	$.L.str.8, %rsi
	movl	$2, %edx
	callq	strncmp
	xorl	%ecx, %ecx
	cmpl	%eax, %ecx
	jne	.LBB25_38
# %bb.21:                               # %if.then61
                                        #   in Loop: Header=BB25_13 Depth=1
	movl	-12(%rbp), %eax
	addl	$1, %eax
	movl	%eax, -12(%rbp)
	movl	$0, -36(%rbp)
	movl	-12(%rbp), %eax
	movl	%eax, -40(%rbp)
.LBB25_22:                              # %while.cond62
                                        #   Parent Loop BB25_13 Depth=1
                                        # =>  This Inner Loop Header: Depth=2
	xorl	%eax, %eax
	movl	-40(%rbp), %ecx
	cmpl	-52(%rbp), %ecx
	jge	.LBB25_24
# %bb.23:                               # %land.rhs
                                        #   in Loop: Header=BB25_22 Depth=2
	movq	-32(%rbp), %rax
	movslq	-40(%rbp), %rcx
	movq	(%rax,%rcx,8), %rax
	movsbl	(%rax), %eax
	cmpl	$45, %eax
	setne	%al
.LBB25_24:                              # %land.end
                                        #   in Loop: Header=BB25_22 Depth=2
	testb	$1, %al
	jne	.LBB25_25
	jmp	.LBB25_26
.LBB25_25:                              # %while.body71
                                        #   in Loop: Header=BB25_22 Depth=2
	movq	-32(%rbp), %rax
	movl	-40(%rbp), %ecx
	movl	%ecx, %edx
	addl	$1, %edx
	movl	%edx, -40(%rbp)
	movslq	%ecx, %rcx
	movq	(%rax,%rcx,8), %rdi
	callq	strlen
	movslq	-36(%rbp), %rcx
	addq	%rax, %rcx
	movl	%ecx, -36(%rbp)
	jmp	.LBB25_22
.LBB25_26:                              # %while.end
                                        #   in Loop: Header=BB25_13 Depth=1
	movl	-36(%rbp), %eax
	addl	$1000, %eax             # imm = 0x3E8
	movl	%eax, -36(%rbp)
	movslq	-36(%rbp), %rdi
	callq	malloc
	movq	%rax, -24(%rbp)
	cmpq	$0, %rax
	jne	.LBB25_28
# %bb.27:                               # %if.then84
                                        #   in Loop: Header=BB25_13 Depth=1
	movabsq	$.L.str.9, %rdi
	callq	no_mem_exit
.LBB25_28:                              # %if.end85
                                        #   in Loop: Header=BB25_13 Depth=1
	movq	-24(%rbp), %rax
	movb	$0, (%rax)
.LBB25_29:                              # %while.cond87
                                        #   Parent Loop BB25_13 Depth=1
                                        # =>  This Loop Header: Depth=2
                                        #       Child Loop BB25_31 Depth 3
	movl	-12(%rbp), %eax
	cmpl	-40(%rbp), %eax
	jge	.LBB25_37
# %bb.30:                               # %while.body90
                                        #   in Loop: Header=BB25_29 Depth=2
	movq	-32(%rbp), %rax
	movslq	-12(%rbp), %rcx
	movq	(%rax,%rcx,8), %rax
	movq	%rax, -64(%rbp)
	movq	-24(%rbp), %rbx
	movq	-24(%rbp), %rdi
	callq	strlen
	addq	%rax, %rbx
	movq	%rbx, -48(%rbp)
.LBB25_31:                              # %while.cond96
                                        #   Parent Loop BB25_13 Depth=1
                                        #     Parent Loop BB25_29 Depth=2
                                        # =>    This Inner Loop Header: Depth=3
	movq	-64(%rbp), %rax
	movsbl	(%rax), %eax
	cmpl	$0, %eax
	je	.LBB25_36
# %bb.32:                               # %while.body100
                                        #   in Loop: Header=BB25_31 Depth=3
	movq	-64(%rbp), %rax
	movsbl	(%rax), %eax
	cmpl	$61, %eax
	jne	.LBB25_34
# %bb.33:                               # %if.then104
                                        #   in Loop: Header=BB25_31 Depth=3
	movq	-48(%rbp), %rax
	movq	%rax, %rcx
	addq	$1, %rcx
	movq	%rcx, -48(%rbp)
	movb	$32, (%rax)
	movq	-48(%rbp), %rax
	movq	%rax, %rcx
	addq	$1, %rcx
	movq	%rcx, -48(%rbp)
	movb	$61, (%rax)
	movq	-48(%rbp), %rax
	movq	%rax, %rcx
	addq	$1, %rcx
	movq	%rcx, -48(%rbp)
	movb	$32, (%rax)
	jmp	.LBB25_35
.LBB25_34:                              # %if.else107
                                        #   in Loop: Header=BB25_31 Depth=3
	movq	-64(%rbp), %rax
	movb	(%rax), %al
	movq	-48(%rbp), %rcx
	movq	%rcx, %rdx
	addq	$1, %rdx
	movq	%rdx, -48(%rbp)
	movb	%al, (%rcx)
.LBB25_35:                              # %if.end109
                                        #   in Loop: Header=BB25_31 Depth=3
	movq	-64(%rbp), %rax
	addq	$1, %rax
	movq	%rax, -64(%rbp)
	jmp	.LBB25_31
.LBB25_36:                              # %while.end111
                                        #   in Loop: Header=BB25_29 Depth=2
	movq	-48(%rbp), %rax
	movb	$0, (%rax)
	movl	-12(%rbp), %eax
	addl	$1, %eax
	movl	%eax, -12(%rbp)
	jmp	.LBB25_29
.LBB25_37:                              # %while.end113
                                        #   in Loop: Header=BB25_13 Depth=1
	movq	-24(%rbp), %rsi
	movabsq	$.L.str.10, %rdi
	movb	$0, %al
	callq	printf
	movq	-24(%rbp), %rbx
	movq	-24(%rbp), %rdi
	callq	strlen
	movq	%rbx, %rdi
	movl	%eax, %esi
	callq	ParseContent
	movq	-24(%rbp), %rdi
	callq	free
	movabsq	$.L.str.6, %rdi
	movb	$0, %al
	callq	printf
	jmp	.LBB25_39
.LBB25_38:                              # %if.else118
                                        #   in Loop: Header=BB25_13 Depth=1
	movl	-12(%rbp), %ecx
	movq	-32(%rbp), %rax
	movslq	-12(%rbp), %rdx
	movq	(%rax,%rdx,8), %r8
	movabsq	$errortext, %rdi
	movl	$300, %esi              # imm = 0x12C
	movabsq	$.L.str.11, %rdx
	movb	$0, %al
	callq	snprintf
	movabsq	$errortext, %rdi
	movl	$300, %esi              # imm = 0x12C
	callq	error
.LBB25_39:                              # %if.end122
                                        #   in Loop: Header=BB25_13 Depth=1
	jmp	.LBB25_40
.LBB25_40:                              # %if.end123
                                        #   in Loop: Header=BB25_13 Depth=1
	jmp	.LBB25_13
.LBB25_41:                              # %while.end124
	movabsq	$.L.str.6, %rdi
	movb	$0, %al
	callq	printf
	callq	PatchInp
	movq	input, %rax
	cmpl	$0, 3232(%rax)
	je	.LBB25_43
# %bb.42:                               # %if.then126
	callq	DisplayEncoderParams
.LBB25_43:                              # %if.end128
	cmpl	$700594883, -76(%rbp)   # imm = 0x29C23AC3
	jne	.LBB25_45
.LBB25_44:
	addq	$72, %rsp
	popq	%rbx
	popq	%rbp
	.cfi_def_cfa %rsp, 8
	retq
.LBB25_45:                              # %func_exit
	.cfi_def_cfa %rbp, 16
	callq	detect_breach
	jmp	.LBB25_44
.Lfunc_end25:
	.size	Configure.13, .Lfunc_end25-Configure.13
	.cfi_endproc
                                        # -- End function
	.globl	Configure.14            # -- Begin function Configure.14
	.p2align	4, 0x90
	.type	Configure.14,@function
Configure.14:                           # @Configure.14
	.cfi_startproc
# %bb.0:                                # %entry
	pushq	%rbp
	.cfi_def_cfa_offset 16
	.cfi_offset %rbp, -16
	movq	%rsp, %rbp
	.cfi_def_cfa_register %rbp
	pushq	%rbx
	subq	$72, %rsp
	.cfi_offset %rbx, -24
	movabsq	$configinput, %rax
	movl	$1427880460, -76(%rbp)  # imm = 0x551BBA0C
	movl	%edi, -52(%rbp)
	movq	%rsi, -32(%rbp)
	movabsq	$.L.str.1, %rcx
	movq	%rcx, -72(%rbp)
	movq	%rax, %rdi
	xorl	%esi, %esi
	movl	$3592, %edx             # imm = 0xE08
	callq	memset
	movabsq	$.L.str.2, %rdi
	movb	$0, %al
	callq	printf
	callq	InitEncoderParams
	movl	$1, -12(%rbp)
	cmpl	$2, -52(%rbp)
	jne	.LBB26_4
# %bb.1:                                # %if.then
	movq	-32(%rbp), %rax
	movq	8(%rax), %rdi
	movabsq	$.L.str.3, %rsi
	movl	$2, %edx
	callq	strncmp
	xorl	%ecx, %ecx
	cmpl	%eax, %ecx
	jne	.LBB26_3
# %bb.2:                                # %if.then4
	callq	JMHelpExit
.LBB26_3:                               # %if.end
	jmp	.LBB26_4
.LBB26_4:                               # %if.end5
	cmpl	$3, -52(%rbp)
	jl	.LBB26_10
# %bb.5:                                # %if.then7
	movq	-32(%rbp), %rax
	movq	8(%rax), %rdi
	movabsq	$.L.str.4, %rsi
	movl	$2, %edx
	callq	strncmp
	xorl	%ecx, %ecx
	cmpl	%eax, %ecx
	jne	.LBB26_7
# %bb.6:                                # %if.then11
	movq	-32(%rbp), %rax
	movq	16(%rax), %rax
	movq	%rax, -72(%rbp)
	movl	$3, -12(%rbp)
.LBB26_7:                               # %if.end13
	movq	-32(%rbp), %rax
	movq	8(%rax), %rdi
	movabsq	$.L.str.3, %rsi
	movl	$2, %edx
	callq	strncmp
	xorl	%ecx, %ecx
	cmpl	%eax, %ecx
	jne	.LBB26_9
# %bb.8:                                # %if.then17
	callq	JMHelpExit
.LBB26_9:                               # %if.end18
	jmp	.LBB26_10
.LBB26_10:                              # %if.end19
	movq	-72(%rbp), %rsi
	movabsq	$.L.str.5, %rdi
	movb	$0, %al
	callq	printf
	movq	-72(%rbp), %rdi
	callq	GetConfigFileContent
	xorl	%ecx, %ecx
	movq	%rax, -24(%rbp)
	cmpq	-24(%rbp), %rcx
	jne	.LBB26_12
# %bb.11:                               # %if.then23
	movabsq	$errortext, %rdi
	movl	$300, %esi              # imm = 0x12C
	callq	error
.LBB26_12:                              # %if.end24
	movq	-24(%rbp), %rbx
	movq	-24(%rbp), %rdi
	callq	strlen
	movq	%rbx, %rdi
	movl	%eax, %esi
	callq	ParseContent
	movabsq	$.L.str.6, %rdi
	movb	$0, %al
	callq	printf
	movq	-24(%rbp), %rdi
	callq	free
.LBB26_13:                              # %while.cond
                                        # =>This Loop Header: Depth=1
                                        #     Child Loop BB26_22 Depth 2
                                        #     Child Loop BB26_29 Depth 2
                                        #       Child Loop BB26_31 Depth 3
	movl	-12(%rbp), %eax
	cmpl	-52(%rbp), %eax
	jge	.LBB26_41
# %bb.14:                               # %while.body
                                        #   in Loop: Header=BB26_13 Depth=1
	movq	-32(%rbp), %rax
	movslq	-12(%rbp), %rcx
	movq	(%rax,%rcx,8), %rdi
	movabsq	$.L.str.3, %rsi
	movl	$2, %edx
	callq	strncmp
	xorl	%ecx, %ecx
	cmpl	%eax, %ecx
	jne	.LBB26_16
# %bb.15:                               # %if.then33
                                        #   in Loop: Header=BB26_13 Depth=1
	callq	JMHelpExit
.LBB26_16:                              # %if.end34
                                        #   in Loop: Header=BB26_13 Depth=1
	movq	-32(%rbp), %rax
	movslq	-12(%rbp), %rcx
	movq	(%rax,%rcx,8), %rdi
	movabsq	$.L.str.7, %rsi
	movl	$2, %edx
	callq	strncmp
	xorl	%ecx, %ecx
	cmpl	%eax, %ecx
	jne	.LBB26_20
# %bb.17:                               # %if.then40
                                        #   in Loop: Header=BB26_13 Depth=1
	movq	-32(%rbp), %rax
	movl	-12(%rbp), %ecx
	addl	$1, %ecx
	movslq	%ecx, %rcx
	movq	(%rax,%rcx,8), %rdi
	callq	GetConfigFileContent
	xorl	%ecx, %ecx
	movq	%rax, -24(%rbp)
	cmpq	-24(%rbp), %rcx
	jne	.LBB26_19
# %bb.18:                               # %if.then46
                                        #   in Loop: Header=BB26_13 Depth=1
	movabsq	$errortext, %rdi
	movl	$300, %esi              # imm = 0x12C
	callq	error
.LBB26_19:                              # %if.end47
                                        #   in Loop: Header=BB26_13 Depth=1
	movq	-32(%rbp), %rax
	movl	-12(%rbp), %ecx
	addl	$1, %ecx
	movslq	%ecx, %rcx
	movq	(%rax,%rcx,8), %rsi
	movabsq	$.L.str.5, %rdi
	movb	$0, %al
	callq	printf
	movq	-24(%rbp), %rbx
	movq	-24(%rbp), %rdi
	callq	strlen
	movq	%rbx, %rdi
	movl	%eax, %esi
	callq	ParseContent
	movabsq	$.L.str.6, %rdi
	movb	$0, %al
	callq	printf
	movq	-24(%rbp), %rdi
	callq	free
	movl	-12(%rbp), %eax
	addl	$2, %eax
	movl	%eax, -12(%rbp)
	jmp	.LBB26_40
.LBB26_20:                              # %if.else
                                        #   in Loop: Header=BB26_13 Depth=1
	movq	-32(%rbp), %rax
	movslq	-12(%rbp), %rcx
	movq	(%rax,%rcx,8), %rdi
	movabsq	$.L.str.8, %rsi
	movl	$2, %edx
	callq	strncmp
	xorl	%ecx, %ecx
	cmpl	%eax, %ecx
	jne	.LBB26_38
# %bb.21:                               # %if.then61
                                        #   in Loop: Header=BB26_13 Depth=1
	movl	-12(%rbp), %eax
	addl	$1, %eax
	movl	%eax, -12(%rbp)
	movl	$0, -36(%rbp)
	movl	-12(%rbp), %eax
	movl	%eax, -40(%rbp)
.LBB26_22:                              # %while.cond62
                                        #   Parent Loop BB26_13 Depth=1
                                        # =>  This Inner Loop Header: Depth=2
	xorl	%eax, %eax
	movl	-40(%rbp), %ecx
	cmpl	-52(%rbp), %ecx
	jge	.LBB26_24
# %bb.23:                               # %land.rhs
                                        #   in Loop: Header=BB26_22 Depth=2
	movq	-32(%rbp), %rax
	movslq	-40(%rbp), %rcx
	movq	(%rax,%rcx,8), %rax
	movsbl	(%rax), %eax
	cmpl	$45, %eax
	setne	%al
.LBB26_24:                              # %land.end
                                        #   in Loop: Header=BB26_22 Depth=2
	testb	$1, %al
	jne	.LBB26_25
	jmp	.LBB26_26
.LBB26_25:                              # %while.body71
                                        #   in Loop: Header=BB26_22 Depth=2
	movq	-32(%rbp), %rax
	movl	-40(%rbp), %ecx
	movl	%ecx, %edx
	addl	$1, %edx
	movl	%edx, -40(%rbp)
	movslq	%ecx, %rcx
	movq	(%rax,%rcx,8), %rdi
	callq	strlen
	movslq	-36(%rbp), %rcx
	addq	%rax, %rcx
	movl	%ecx, -36(%rbp)
	jmp	.LBB26_22
.LBB26_26:                              # %while.end
                                        #   in Loop: Header=BB26_13 Depth=1
	movl	-36(%rbp), %eax
	addl	$1000, %eax             # imm = 0x3E8
	movl	%eax, -36(%rbp)
	movslq	-36(%rbp), %rdi
	callq	malloc
	movq	%rax, -24(%rbp)
	cmpq	$0, %rax
	jne	.LBB26_28
# %bb.27:                               # %if.then84
                                        #   in Loop: Header=BB26_13 Depth=1
	movabsq	$.L.str.9, %rdi
	callq	no_mem_exit
.LBB26_28:                              # %if.end85
                                        #   in Loop: Header=BB26_13 Depth=1
	movq	-24(%rbp), %rax
	movb	$0, (%rax)
.LBB26_29:                              # %while.cond87
                                        #   Parent Loop BB26_13 Depth=1
                                        # =>  This Loop Header: Depth=2
                                        #       Child Loop BB26_31 Depth 3
	movl	-12(%rbp), %eax
	cmpl	-40(%rbp), %eax
	jge	.LBB26_37
# %bb.30:                               # %while.body90
                                        #   in Loop: Header=BB26_29 Depth=2
	movq	-32(%rbp), %rax
	movslq	-12(%rbp), %rcx
	movq	(%rax,%rcx,8), %rax
	movq	%rax, -64(%rbp)
	movq	-24(%rbp), %rbx
	movq	-24(%rbp), %rdi
	callq	strlen
	addq	%rax, %rbx
	movq	%rbx, -48(%rbp)
.LBB26_31:                              # %while.cond96
                                        #   Parent Loop BB26_13 Depth=1
                                        #     Parent Loop BB26_29 Depth=2
                                        # =>    This Inner Loop Header: Depth=3
	movq	-64(%rbp), %rax
	movsbl	(%rax), %eax
	cmpl	$0, %eax
	je	.LBB26_36
# %bb.32:                               # %while.body100
                                        #   in Loop: Header=BB26_31 Depth=3
	movq	-64(%rbp), %rax
	movsbl	(%rax), %eax
	cmpl	$61, %eax
	jne	.LBB26_34
# %bb.33:                               # %if.then104
                                        #   in Loop: Header=BB26_31 Depth=3
	movq	-48(%rbp), %rax
	movq	%rax, %rcx
	addq	$1, %rcx
	movq	%rcx, -48(%rbp)
	movb	$32, (%rax)
	movq	-48(%rbp), %rax
	movq	%rax, %rcx
	addq	$1, %rcx
	movq	%rcx, -48(%rbp)
	movb	$61, (%rax)
	movq	-48(%rbp), %rax
	movq	%rax, %rcx
	addq	$1, %rcx
	movq	%rcx, -48(%rbp)
	movb	$32, (%rax)
	jmp	.LBB26_35
.LBB26_34:                              # %if.else107
                                        #   in Loop: Header=BB26_31 Depth=3
	movq	-64(%rbp), %rax
	movb	(%rax), %al
	movq	-48(%rbp), %rcx
	movq	%rcx, %rdx
	addq	$1, %rdx
	movq	%rdx, -48(%rbp)
	movb	%al, (%rcx)
.LBB26_35:                              # %if.end109
                                        #   in Loop: Header=BB26_31 Depth=3
	movq	-64(%rbp), %rax
	addq	$1, %rax
	movq	%rax, -64(%rbp)
	jmp	.LBB26_31
.LBB26_36:                              # %while.end111
                                        #   in Loop: Header=BB26_29 Depth=2
	movq	-48(%rbp), %rax
	movb	$0, (%rax)
	movl	-12(%rbp), %eax
	addl	$1, %eax
	movl	%eax, -12(%rbp)
	jmp	.LBB26_29
.LBB26_37:                              # %while.end113
                                        #   in Loop: Header=BB26_13 Depth=1
	movq	-24(%rbp), %rsi
	movabsq	$.L.str.10, %rdi
	movb	$0, %al
	callq	printf
	movq	-24(%rbp), %rbx
	movq	-24(%rbp), %rdi
	callq	strlen
	movq	%rbx, %rdi
	movl	%eax, %esi
	callq	ParseContent
	movq	-24(%rbp), %rdi
	callq	free
	movabsq	$.L.str.6, %rdi
	movb	$0, %al
	callq	printf
	jmp	.LBB26_39
.LBB26_38:                              # %if.else118
                                        #   in Loop: Header=BB26_13 Depth=1
	movl	-12(%rbp), %ecx
	movq	-32(%rbp), %rax
	movslq	-12(%rbp), %rdx
	movq	(%rax,%rdx,8), %r8
	movabsq	$errortext, %rdi
	movl	$300, %esi              # imm = 0x12C
	movabsq	$.L.str.11, %rdx
	movb	$0, %al
	callq	snprintf
	movabsq	$errortext, %rdi
	movl	$300, %esi              # imm = 0x12C
	callq	error
.LBB26_39:                              # %if.end122
                                        #   in Loop: Header=BB26_13 Depth=1
	jmp	.LBB26_40
.LBB26_40:                              # %if.end123
                                        #   in Loop: Header=BB26_13 Depth=1
	jmp	.LBB26_13
.LBB26_41:                              # %while.end124
	movabsq	$.L.str.6, %rdi
	movb	$0, %al
	callq	printf
	callq	PatchInp
	movq	input, %rax
	cmpl	$0, 3232(%rax)
	je	.LBB26_43
# %bb.42:                               # %if.then126
	callq	DisplayEncoderParams
.LBB26_43:                              # %if.end128
	cmpl	$1427880460, -76(%rbp)  # imm = 0x551BBA0C
	jne	.LBB26_45
.LBB26_44:
	addq	$72, %rsp
	popq	%rbx
	popq	%rbp
	.cfi_def_cfa %rsp, 8
	retq
.LBB26_45:                              # %func_exit
	.cfi_def_cfa %rbp, 16
	callq	detect_breach
	jmp	.LBB26_44
.Lfunc_end26:
	.size	Configure.14, .Lfunc_end26-Configure.14
	.cfi_endproc
                                        # -- End function
	.globl	GetConfigFileContent.15 # -- Begin function GetConfigFileContent.15
	.p2align	4, 0x90
	.type	GetConfigFileContent.15,@function
GetConfigFileContent.15:                # @GetConfigFileContent.15
	.cfi_startproc
# %bb.0:                                # %entry
	pushq	%rbp
	.cfi_def_cfa_offset 16
	.cfi_offset %rbp, -16
	movq	%rsp, %rbp
	.cfi_def_cfa_register %rbp
	pushq	%rbx
	subq	$56, %rsp
	.cfi_offset %rbx, -24
	movl	$282947364, -52(%rbp)   # imm = 0x10DD6F24
	movq	%rdi, -24(%rbp)
	movq	-24(%rbp), %rdi
	movabsq	$.L.str.12, %rsi
	callq	fopen
	xorl	%ecx, %ecx
	movq	%rax, -32(%rbp)
	cmpq	%rax, %rcx
	jne	.LBB27_2
# %bb.1:                                # %if.then
	movq	-24(%rbp), %rcx
	movabsq	$errortext, %rdi
	movl	$300, %esi              # imm = 0x12C
	movabsq	$.L.str.13, %rdx
	movb	$0, %al
	callq	snprintf
	movq	$0, -40(%rbp)
	jmp	.LBB27_12
.LBB27_2:                               # %if.end
	movq	-32(%rbp), %rdi
	xorl	%esi, %esi
	movl	$2, %edx
	callq	fseek
	xorl	%ecx, %ecx
	cmpl	%eax, %ecx
	je	.LBB27_4
# %bb.3:                                # %if.then4
	movq	-24(%rbp), %rcx
	movabsq	$errortext, %rdi
	movl	$300, %esi              # imm = 0x12C
	movabsq	$.L.str.14, %rdx
	movb	$0, %al
	callq	snprintf
	movq	$0, -40(%rbp)
	jmp	.LBB27_12
.LBB27_4:                               # %if.end6
	movq	-32(%rbp), %rdi
	callq	ftell
	movq	%rax, -16(%rbp)
	cmpq	$0, -16(%rbp)
	jl	.LBB27_6
# %bb.5:                                # %lor.lhs.false
	cmpq	$60000, -16(%rbp)       # imm = 0xEA60
	jle	.LBB27_7
.LBB27_6:                               # %if.then10
	movq	-16(%rbp), %rcx
	movq	-24(%rbp), %r8
	movabsq	$errortext, %rdi
	movl	$300, %esi              # imm = 0x12C
	movabsq	$.L.str.15, %rdx
	movb	$0, %al
	callq	snprintf
	movq	$0, -40(%rbp)
	jmp	.LBB27_12
.LBB27_7:                               # %if.end12
	movq	-32(%rbp), %rdi
	xorl	%esi, %esi
	xorl	%edx, %edx
	callq	fseek
	xorl	%ecx, %ecx
	cmpl	%eax, %ecx
	je	.LBB27_9
# %bb.8:                                # %if.then15
	movq	-24(%rbp), %rcx
	movabsq	$errortext, %rdi
	movl	$300, %esi              # imm = 0x12C
	movabsq	$.L.str.14, %rdx
	movb	$0, %al
	callq	snprintf
	movq	$0, -40(%rbp)
	jmp	.LBB27_12
.LBB27_9:                               # %if.end17
	movq	-16(%rbp), %rdi
	addq	$1, %rdi
	callq	malloc
	movq	%rax, -48(%rbp)
	cmpq	$0, %rax
	jne	.LBB27_11
# %bb.10:                               # %if.then20
	movabsq	$.L.str.16, %rdi
	callq	no_mem_exit
.LBB27_11:                              # %if.end21
	movq	-48(%rbp), %rdi
	movq	-16(%rbp), %rdx
	movq	-32(%rbp), %rcx
	movl	$1, %esi
	callq	fread
	movq	%rax, -16(%rbp)
	movq	-48(%rbp), %rax
	movq	-16(%rbp), %rcx
	movb	$0, (%rax,%rcx)
	movq	-32(%rbp), %rdi
	callq	fclose
	movq	-48(%rbp), %rax
	movq	%rax, -40(%rbp)
.LBB27_12:                              # %return
	movq	-40(%rbp), %rbx
	cmpl	$282947364, -52(%rbp)   # imm = 0x10DD6F24
	jne	.LBB27_14
.LBB27_13:
	movq	%rbx, %rax
	addq	$56, %rsp
	popq	%rbx
	popq	%rbp
	.cfi_def_cfa %rsp, 8
	retq
.LBB27_14:                              # %func_exit
	.cfi_def_cfa %rbp, 16
	callq	detect_breach
	jmp	.LBB27_13
.Lfunc_end27:
	.size	GetConfigFileContent.15, .Lfunc_end27-GetConfigFileContent.15
	.cfi_endproc
                                        # -- End function
	.p2align	4, 0x90         # -- Begin function ParameterNameToMapIndex.16
	.type	ParameterNameToMapIndex.16,@function
ParameterNameToMapIndex.16:             # @ParameterNameToMapIndex.16
	.cfi_startproc
# %bb.0:                                # %entry
	pushq	%rbp
	.cfi_def_cfa_offset 16
	.cfi_offset %rbp, -16
	movq	%rsp, %rbp
	.cfi_def_cfa_register %rbp
	pushq	%rbx
	subq	$24, %rsp
	.cfi_offset %rbx, -24
	movl	$1498043420, -20(%rbp)  # imm = 0x594A541C
	movq	%rdi, -32(%rbp)
	movl	$0, -12(%rbp)
.LBB28_1:                               # %while.cond
                                        # =>This Inner Loop Header: Depth=1
	movslq	-12(%rbp), %rax
	imulq	$56, %rax, %rax
	movabsq	$Map, %rcx
	addq	%rax, %rcx
	cmpq	$0, (%rcx)
	je	.LBB28_6
# %bb.2:                                # %while.body
                                        #   in Loop: Header=BB28_1 Depth=1
	xorl	%ebx, %ebx
	movslq	-12(%rbp), %rax
	imulq	$56, %rax, %rax
	movabsq	$Map, %rcx
	addq	%rax, %rcx
	movq	(%rcx), %rdi
	movq	-32(%rbp), %rsi
	callq	strcmp
	cmpl	%eax, %ebx
	jne	.LBB28_4
# %bb.3:                                # %if.then
	movl	-12(%rbp), %eax
	movl	%eax, -16(%rbp)
	jmp	.LBB28_7
.LBB28_4:                               # %if.else
                                        #   in Loop: Header=BB28_1 Depth=1
	movl	-12(%rbp), %eax
	addl	$1, %eax
	movl	%eax, -12(%rbp)
# %bb.5:                                # %if.end
                                        #   in Loop: Header=BB28_1 Depth=1
	jmp	.LBB28_1
.LBB28_6:                               # %while.end
	movl	$-1, -16(%rbp)
.LBB28_7:                               # %return
	movl	-16(%rbp), %ebx
	cmpl	$1498043420, -20(%rbp)  # imm = 0x594A541C
	jne	.LBB28_9
.LBB28_8:
	movl	%ebx, %eax
	addq	$24, %rsp
	popq	%rbx
	popq	%rbp
	.cfi_def_cfa %rsp, 8
	retq
.LBB28_9:                               # %func_exit
	.cfi_def_cfa %rbp, 16
	callq	detect_breach
	jmp	.LBB28_8
.Lfunc_end28:
	.size	ParameterNameToMapIndex.16, .Lfunc_end28-ParameterNameToMapIndex.16
	.cfi_endproc
                                        # -- End function
	.p2align	4, 0x90         # -- Begin function ParseContent.17
	.type	ParseContent.17,@function
ParseContent.17:                        # @ParseContent.17
	.cfi_startproc
# %bb.0:                                # %entry
	pushq	%rbp
	.cfi_def_cfa_offset 16
	.cfi_offset %rbp, -16
	movq	%rsp, %rbp
	.cfi_def_cfa_register %rbp
	subq	$80080, %rsp            # imm = 0x138D0
	movl	$1910603727, -44(%rbp)  # imm = 0x71E17FCF
	movq	%rdi, -64(%rbp)
	movl	%esi, -36(%rbp)
	movl	$0, -24(%rbp)
	movl	$0, -28(%rbp)
	movl	$0, -20(%rbp)
	movq	-64(%rbp), %rax
	movq	%rax, -16(%rbp)
	movq	-64(%rbp), %rax
	movslq	-36(%rbp), %rcx
	addq	%rcx, %rax
	movq	%rax, -56(%rbp)
.LBB29_1:                               # %while.cond
                                        # =>This Loop Header: Depth=1
                                        #     Child Loop BB29_6 Depth 2
	movq	-16(%rbp), %rax
	cmpq	-56(%rbp), %rax
	jae	.LBB29_24
# %bb.2:                                # %while.body
                                        #   in Loop: Header=BB29_1 Depth=1
	movq	-16(%rbp), %rax
	movsbl	(%rax), %eax
	addl	$-9, %eax
	movl	%eax, %ecx
	subl	$26, %ecx
	ja	.LBB29_20
# %bb.3:                                # %while.body
                                        #   in Loop: Header=BB29_1 Depth=1
	movq	.LJTI29_0(,%rax,8), %rax
	jmpq	*%rax
.LBB29_4:                               # %sw.bb
                                        #   in Loop: Header=BB29_1 Depth=1
	movq	-16(%rbp), %rax
	addq	$1, %rax
	movq	%rax, -16(%rbp)
	jmp	.LBB29_23
.LBB29_5:                               # %sw.bb1
                                        #   in Loop: Header=BB29_1 Depth=1
	movq	-16(%rbp), %rax
	movb	$0, (%rax)
.LBB29_6:                               # %while.cond2
                                        #   Parent Loop BB29_1 Depth=1
                                        # =>  This Inner Loop Header: Depth=2
	xorl	%eax, %eax
	movq	-16(%rbp), %rcx
	movsbl	(%rcx), %ecx
	cmpl	$10, %ecx
	je	.LBB29_8
# %bb.7:                                # %land.rhs
                                        #   in Loop: Header=BB29_6 Depth=2
	movq	-16(%rbp), %rax
	cmpq	-56(%rbp), %rax
	setb	%al
.LBB29_8:                               # %land.end
                                        #   in Loop: Header=BB29_6 Depth=2
	testb	$1, %al
	jne	.LBB29_9
	jmp	.LBB29_10
.LBB29_9:                               # %while.body8
                                        #   in Loop: Header=BB29_6 Depth=2
	movq	-16(%rbp), %rax
	addq	$1, %rax
	movq	%rax, -16(%rbp)
	jmp	.LBB29_6
.LBB29_10:                              # %while.end
                                        #   in Loop: Header=BB29_1 Depth=1
	movl	$0, -28(%rbp)
	movl	$0, -20(%rbp)
	jmp	.LBB29_23
.LBB29_11:                              # %sw.bb10
                                        #   in Loop: Header=BB29_1 Depth=1
	movl	$0, -20(%rbp)
	movl	$0, -28(%rbp)
	movq	-16(%rbp), %rax
	movq	%rax, %rcx
	addq	$1, %rcx
	movq	%rcx, -16(%rbp)
	movb	$0, (%rax)
	jmp	.LBB29_23
.LBB29_12:                              # %sw.bb12
                                        #   in Loop: Header=BB29_1 Depth=1
	cmpl	$0, -28(%rbp)
	je	.LBB29_14
# %bb.13:                               # %if.then
                                        #   in Loop: Header=BB29_1 Depth=1
	movq	-16(%rbp), %rax
	addq	$1, %rax
	movq	%rax, -16(%rbp)
	jmp	.LBB29_15
.LBB29_14:                              # %if.else
                                        #   in Loop: Header=BB29_1 Depth=1
	movq	-16(%rbp), %rax
	movq	%rax, %rcx
	addq	$1, %rcx
	movq	%rcx, -16(%rbp)
	movb	$0, (%rax)
	movl	$0, -20(%rbp)
.LBB29_15:                              # %if.end
                                        #   in Loop: Header=BB29_1 Depth=1
	jmp	.LBB29_23
.LBB29_16:                              # %sw.bb15
                                        #   in Loop: Header=BB29_1 Depth=1
	movq	-16(%rbp), %rax
	movq	%rax, %rcx
	addq	$1, %rcx
	movq	%rcx, -16(%rbp)
	movb	$0, (%rax)
	cmpl	$0, -28(%rbp)
	jne	.LBB29_18
# %bb.17:                               # %if.then18
                                        #   in Loop: Header=BB29_1 Depth=1
	movq	-16(%rbp), %rax
	movl	-24(%rbp), %ecx
	movl	%ecx, %edx
	addl	$1, %edx
	movl	%edx, -24(%rbp)
	movslq	%ecx, %rcx
	movq	%rax, -80080(%rbp,%rcx,8)
	movl	-20(%rbp), %eax
	xorl	$-1, %eax
	movl	%eax, -20(%rbp)
	jmp	.LBB29_19
.LBB29_18:                              # %if.else21
                                        #   in Loop: Header=BB29_1 Depth=1
	movl	$0, -20(%rbp)
.LBB29_19:                              # %if.end22
                                        #   in Loop: Header=BB29_1 Depth=1
	movl	-28(%rbp), %eax
	xorl	$-1, %eax
	movl	%eax, -28(%rbp)
	jmp	.LBB29_23
.LBB29_20:                              # %sw.default
                                        #   in Loop: Header=BB29_1 Depth=1
	cmpl	$0, -20(%rbp)
	jne	.LBB29_22
# %bb.21:                               # %if.then25
                                        #   in Loop: Header=BB29_1 Depth=1
	movq	-16(%rbp), %rax
	movl	-24(%rbp), %ecx
	movl	%ecx, %edx
	addl	$1, %edx
	movl	%edx, -24(%rbp)
	movslq	%ecx, %rcx
	movq	%rax, -80080(%rbp,%rcx,8)
	movl	-20(%rbp), %eax
	xorl	$-1, %eax
	movl	%eax, -20(%rbp)
.LBB29_22:                              # %if.end30
                                        #   in Loop: Header=BB29_1 Depth=1
	movq	-16(%rbp), %rax
	addq	$1, %rax
	movq	%rax, -16(%rbp)
.LBB29_23:                              # %sw.epilog
                                        #   in Loop: Header=BB29_1 Depth=1
	jmp	.LBB29_1
.LBB29_24:                              # %while.end32
	movl	-24(%rbp), %eax
	addl	$-1, %eax
	movl	%eax, -24(%rbp)
	movl	$0, -4(%rbp)
.LBB29_25:                              # %for.cond
                                        # =>This Inner Loop Header: Depth=1
	movl	-4(%rbp), %eax
	cmpl	-24(%rbp), %eax
	jge	.LBB29_43
# %bb.26:                               # %for.body
                                        #   in Loop: Header=BB29_25 Depth=1
	movslq	-4(%rbp), %rax
	movq	-80080(%rbp,%rax,8), %rdi
	callq	ParameterNameToMapIndex
	xorl	%ecx, %ecx
	movl	%eax, -32(%rbp)
	cmpl	%eax, %ecx
	jle	.LBB29_28
# %bb.27:                               # %if.then39
                                        #   in Loop: Header=BB29_25 Depth=1
	movslq	-4(%rbp), %rax
	movq	-80080(%rbp,%rax,8), %rcx
	movabsq	$errortext, %rdi
	movl	$300, %esi              # imm = 0x12C
	movabsq	$.L.str.167, %rdx
	movb	$0, %al
	callq	snprintf
	movabsq	$errortext, %rdi
	movl	$300, %esi              # imm = 0x12C
	callq	error
.LBB29_28:                              # %if.end43
                                        #   in Loop: Header=BB29_25 Depth=1
	movl	-4(%rbp), %eax
	addl	$1, %eax
	cltq
	movq	-80080(%rbp,%rax,8), %rsi
	movl	$.L.str.168, %edi
	callq	strcmp
	cmpl	$0, %eax
	je	.LBB29_30
# %bb.29:                               # %if.then48
                                        #   in Loop: Header=BB29_25 Depth=1
	movabsq	$errortext, %rdi
	movl	$300, %esi              # imm = 0x12C
	movabsq	$.L.str.169, %rdx
	movb	$0, %al
	callq	snprintf
	movabsq	$errortext, %rdi
	movl	$300, %esi              # imm = 0x12C
	callq	error
.LBB29_30:                              # %if.end50
                                        #   in Loop: Header=BB29_25 Depth=1
	movslq	-32(%rbp), %rax
	imulq	$56, %rax, %rax
	movl	Map+16(%rax), %eax
	testl	%eax, %eax
	je	.LBB29_33
	jmp	.LBB29_31
.LBB29_31:                              # %if.end50
                                        #   in Loop: Header=BB29_25 Depth=1
	movl	%eax, %ecx
	subl	$1, %ecx
	je	.LBB29_36
	jmp	.LBB29_32
.LBB29_32:                              # %if.end50
                                        #   in Loop: Header=BB29_25 Depth=1
	subl	$2, %eax
	je	.LBB29_37
	jmp	.LBB29_40
.LBB29_33:                              # %sw.bb53
                                        #   in Loop: Header=BB29_25 Depth=1
	movl	-4(%rbp), %eax
	addl	$2, %eax
	cltq
	movq	-80080(%rbp,%rax,8), %rdi
	movabsq	$.L.str.170, %rsi
	leaq	-40(%rbp), %rdx
	movb	$0, %al
	callq	__isoc99_sscanf
	movl	$1, %ecx
	cmpl	%eax, %ecx
	je	.LBB29_35
# %bb.34:                               # %if.then60
                                        #   in Loop: Header=BB29_25 Depth=1
	movslq	-4(%rbp), %rax
	movq	-80080(%rbp,%rax,8), %rcx
	movl	-4(%rbp), %eax
	addl	$2, %eax
	cltq
	movq	-80080(%rbp,%rax,8), %r8
	movabsq	$errortext, %rdi
	movl	$300, %esi              # imm = 0x12C
	movabsq	$.L.str.171, %rdx
	movb	$0, %al
	callq	snprintf
	movabsq	$errortext, %rdi
	movl	$300, %esi              # imm = 0x12C
	callq	error
.LBB29_35:                              # %if.end67
                                        #   in Loop: Header=BB29_25 Depth=1
	movl	-40(%rbp), %eax
	movslq	-32(%rbp), %rcx
	imulq	$56, %rcx, %rcx
	movabsq	$Map, %rdx
	addq	%rcx, %rdx
	movq	8(%rdx), %rcx
	movl	%eax, (%rcx)
	movabsq	$.L.str.172, %rdi
	movb	$0, %al
	callq	printf
	jmp	.LBB29_41
.LBB29_36:                              # %sw.bb71
                                        #   in Loop: Header=BB29_25 Depth=1
	movslq	-32(%rbp), %rax
	imulq	$56, %rax, %rax
	movabsq	$Map, %rcx
	addq	%rax, %rcx
	movq	8(%rcx), %rdi
	movl	-4(%rbp), %eax
	addl	$2, %eax
	cltq
	movq	-80080(%rbp,%rax,8), %rsi
	movl	$200, %edx
	callq	strncpy
	movabsq	$.L.str.172, %rdi
	movb	$0, %al
	callq	printf
	jmp	.LBB29_41
.LBB29_37:                              # %sw.bb80
                                        #   in Loop: Header=BB29_25 Depth=1
	movl	-4(%rbp), %eax
	addl	$2, %eax
	cltq
	movq	-80080(%rbp,%rax,8), %rdi
	movabsq	$.L.str.173, %rsi
	leaq	-72(%rbp), %rdx
	movb	$0, %al
	callq	__isoc99_sscanf
	movl	$1, %ecx
	cmpl	%eax, %ecx
	je	.LBB29_39
# %bb.38:                               # %if.then87
                                        #   in Loop: Header=BB29_25 Depth=1
	movslq	-4(%rbp), %rax
	movq	-80080(%rbp,%rax,8), %rcx
	movl	-4(%rbp), %eax
	addl	$2, %eax
	cltq
	movq	-80080(%rbp,%rax,8), %r8
	movabsq	$errortext, %rdi
	movl	$300, %esi              # imm = 0x12C
	movabsq	$.L.str.171, %rdx
	movb	$0, %al
	callq	snprintf
	movabsq	$errortext, %rdi
	movl	$300, %esi              # imm = 0x12C
	callq	error
.LBB29_39:                              # %if.end94
                                        #   in Loop: Header=BB29_25 Depth=1
	vmovsd	-72(%rbp), %xmm0        # xmm0 = mem[0],zero
	movslq	-32(%rbp), %rax
	imulq	$56, %rax, %rax
	movabsq	$Map, %rcx
	addq	%rax, %rcx
	movq	8(%rcx), %rax
	vmovsd	%xmm0, (%rax)
	movabsq	$.L.str.172, %rdi
	movb	$0, %al
	callq	printf
	jmp	.LBB29_41
.LBB29_40:                              # %sw.default99
                                        #   in Loop: Header=BB29_25 Depth=1
	jmp	.LBB29_41
.LBB29_41:                              # %sw.epilog100
                                        #   in Loop: Header=BB29_25 Depth=1
	jmp	.LBB29_42
.LBB29_42:                              # %for.inc
                                        #   in Loop: Header=BB29_25 Depth=1
	movl	-4(%rbp), %eax
	addl	$3, %eax
	movl	%eax, -4(%rbp)
	jmp	.LBB29_25
.LBB29_43:                              # %for.end
	movabsq	$configinput, %rsi
	movq	input, %rdi
	movl	$3592, %edx             # imm = 0xE08
	callq	memcpy
	cmpl	$1910603727, -44(%rbp)  # imm = 0x71E17FCF
	jne	.LBB29_45
.LBB29_44:
	addq	$80080, %rsp            # imm = 0x138D0
	popq	%rbp
	.cfi_def_cfa %rsp, 8
	retq
.LBB29_45:                              # %func_exit
	.cfi_def_cfa %rbp, 16
	callq	detect_breach
	jmp	.LBB29_44
.Lfunc_end29:
	.size	ParseContent.17, .Lfunc_end29-ParseContent.17
	.cfi_endproc
	.section	.rodata,"a",@progbits
	.p2align	3
.LJTI29_0:
	.quad	.LBB29_12
	.quad	.LBB29_11
	.quad	.LBB29_20
	.quad	.LBB29_20
	.quad	.LBB29_4
	.quad	.LBB29_20
	.quad	.LBB29_20
	.quad	.LBB29_20
	.quad	.LBB29_20
	.quad	.LBB29_20
	.quad	.LBB29_20
	.quad	.LBB29_20
	.quad	.LBB29_20
	.quad	.LBB29_20
	.quad	.LBB29_20
	.quad	.LBB29_20
	.quad	.LBB29_20
	.quad	.LBB29_20
	.quad	.LBB29_20
	.quad	.LBB29_20
	.quad	.LBB29_20
	.quad	.LBB29_20
	.quad	.LBB29_20
	.quad	.LBB29_12
	.quad	.LBB29_20
	.quad	.LBB29_16
	.quad	.LBB29_5
                                        # -- End function
	.text
	.p2align	4, 0x90         # -- Begin function ParameterNameToMapIndex.18
	.type	ParameterNameToMapIndex.18,@function
ParameterNameToMapIndex.18:             # @ParameterNameToMapIndex.18
	.cfi_startproc
# %bb.0:                                # %entry
	pushq	%rbp
	.cfi_def_cfa_offset 16
	.cfi_offset %rbp, -16
	movq	%rsp, %rbp
	.cfi_def_cfa_register %rbp
	pushq	%rbx
	subq	$24, %rsp
	.cfi_offset %rbx, -24
	movl	$1561174522, -20(%rbp)  # imm = 0x5D0DA1FA
	movq	%rdi, -32(%rbp)
	movl	$0, -12(%rbp)
.LBB30_1:                               # %while.cond
                                        # =>This Inner Loop Header: Depth=1
	movslq	-12(%rbp), %rax
	imulq	$56, %rax, %rax
	movabsq	$Map, %rcx
	addq	%rax, %rcx
	cmpq	$0, (%rcx)
	je	.LBB30_6
# %bb.2:                                # %while.body
                                        #   in Loop: Header=BB30_1 Depth=1
	xorl	%ebx, %ebx
	movslq	-12(%rbp), %rax
	imulq	$56, %rax, %rax
	movabsq	$Map, %rcx
	addq	%rax, %rcx
	movq	(%rcx), %rdi
	movq	-32(%rbp), %rsi
	callq	strcmp
	cmpl	%eax, %ebx
	jne	.LBB30_4
# %bb.3:                                # %if.then
	movl	-12(%rbp), %eax
	movl	%eax, -16(%rbp)
	jmp	.LBB30_7
.LBB30_4:                               # %if.else
                                        #   in Loop: Header=BB30_1 Depth=1
	movl	-12(%rbp), %eax
	addl	$1, %eax
	movl	%eax, -12(%rbp)
# %bb.5:                                # %if.end
                                        #   in Loop: Header=BB30_1 Depth=1
	jmp	.LBB30_1
.LBB30_6:                               # %while.end
	movl	$-1, -16(%rbp)
.LBB30_7:                               # %return
	movl	-16(%rbp), %ebx
	cmpl	$1561174522, -20(%rbp)  # imm = 0x5D0DA1FA
	jne	.LBB30_9
.LBB30_8:
	movl	%ebx, %eax
	addq	$24, %rsp
	popq	%rbx
	popq	%rbp
	.cfi_def_cfa %rsp, 8
	retq
.LBB30_9:                               # %func_exit
	.cfi_def_cfa %rbp, 16
	callq	detect_breach
	jmp	.LBB30_8
.Lfunc_end30:
	.size	ParameterNameToMapIndex.18, .Lfunc_end30-ParameterNameToMapIndex.18
	.cfi_endproc
                                        # -- End function
	.section	.rodata.cst8,"aM",@progbits,8
	.p2align	3               # -- Begin function PatchInp.19
.LCPI31_0:
	.quad	4629137466983448576     # double 30
	.text
	.p2align	4, 0x90
	.type	PatchInp.19,@function
PatchInp.19:                            # @PatchInp.19
	.cfi_startproc
# %bb.0:                                # %entry
	pushq	%rbp
	.cfi_def_cfa_offset 16
	.cfi_offset %rbp, -16
	movq	%rsp, %rbp
	.cfi_def_cfa_register %rbp
	subq	$48, %rsp
	movl	$1761086242, -40(%rbp)  # imm = 0x68F80B22
	movq	input, %rax
	movl	3296(%rax), %eax
	subl	$8, %eax
	imull	$6, %eax, %eax
	movl	%eax, -32(%rbp)
	movq	$0, -16(%rbp)
	movq	input, %rax
	movl	$1, 3224(%rax)
	movl	-32(%rbp), %edi
	callq	TestEncoderParams
	movq	input, %rax
	vmovsd	2424(%rax), %xmm0       # xmm0 = mem[0],zero
	vxorps	%xmm1, %xmm1, %xmm1
	vucomisd	%xmm1, %xmm0
	jne	.LBB31_2
	jp	.LBB31_2
# %bb.1:                                # %if.then
	vmovsd	.LCPI31_0(%rip), %xmm0  # xmm0 = mem[0],zero
	movq	input, %rax
	vmovsd	%xmm0, 2424(%rax)
.LBB31_2:                               # %if.end
	movq	input, %rax
	movl	$16, 80(%rax)
	movq	input, %rax
	movl	$16, 84(%rax)
	movq	input, %rax
	movl	$16, 88(%rax)
	movq	input, %rax
	movl	$16, 92(%rax)
	movq	input, %rax
	movl	$16, 96(%rax)
	movq	input, %rax
	movl	$8, 100(%rax)
	movq	input, %rax
	movl	$8, 104(%rax)
	movq	input, %rax
	movl	$16, 108(%rax)
	movq	input, %rax
	movl	$8, 112(%rax)
	movq	input, %rax
	movl	$8, 116(%rax)
	movq	input, %rax
	movl	$8, 120(%rax)
	movq	input, %rax
	movl	$4, 124(%rax)
	movq	input, %rax
	movl	$4, 128(%rax)
	movq	input, %rax
	movl	$8, 132(%rax)
	movq	input, %rax
	movl	$4, 136(%rax)
	movq	input, %rax
	movl	$4, 140(%rax)
	movq	input, %rax
	movl	$4, 144(%rax)
	movq	input, %rax
	movl	$4, 148(%rax)
	movq	input, %rax
	movl	$4, 152(%rax)
	movq	input, %rax
	movl	$4, 156(%rax)
	movq	input, %rax
	movl	$4, 160(%rax)
	movq	input, %rax
	movl	$2, 164(%rax)
	movq	input, %rax
	movl	$2, 168(%rax)
	movq	input, %rax
	movl	$4, 172(%rax)
	movq	input, %rax
	movl	$2, 176(%rax)
	movq	input, %rax
	movl	$2, 180(%rax)
	movq	input, %rax
	movl	$2, 184(%rax)
	movq	input, %rax
	movl	$1, 188(%rax)
	movq	input, %rax
	movl	$1, 192(%rax)
	movq	input, %rax
	movl	$2, 196(%rax)
	movq	input, %rax
	movl	$1, 200(%rax)
	movq	input, %rax
	movl	$1, 204(%rax)
	movq	input, %rax
	cmpl	$0, 1316(%rax)
	je	.LBB31_4
# %bb.3:                                # %cond.true
	movq	input, %rax
	movl	1236(%rax), %eax
	addl	$1, %eax
	jmp	.LBB31_5
.LBB31_4:                               # %cond.false
	movl	$1, %eax
	jmp	.LBB31_5
.LBB31_5:                               # %cond.end
	movl	%eax, -20(%rbp)
	movq	input, %rax
	cmpl	$4, 52(%rax)
	jge	.LBB31_10
# %bb.6:                                # %if.then96
	movq	input, %rax
	movl	8(%rax), %edi
	imull	-20(%rbp), %edi
	callq	CeilLog2
	subl	$4, %eax
	cmpl	$0, %eax
	jle	.LBB31_8
# %bb.7:                                # %cond.true101
	movq	input, %rax
	movl	8(%rax), %edi
	imull	-20(%rbp), %edi
	callq	CeilLog2
	subl	$4, %eax
	jmp	.LBB31_9
.LBB31_8:                               # %cond.false106
	xorl	%eax, %eax
	jmp	.LBB31_9
.LBB31_9:                               # %cond.end107
	movl	%eax, log2_max_frame_num_minus4
	jmp	.LBB31_11
.LBB31_10:                              # %if.else
	movq	input, %rax
	movl	52(%rax), %eax
	subl	$4, %eax
	movl	%eax, log2_max_frame_num_minus4
.LBB31_11:                              # %if.end111
	movq	input, %rax
	movl	8(%rax), %edi
	shll	$1, %edi
	movq	input, %rax
	movl	20(%rax), %eax
	addl	$1, %eax
	imull	%eax, %edi
	callq	CeilLog2
	subl	$4, %eax
	cmpl	$0, %eax
	jle	.LBB31_13
# %bb.12:                               # %cond.true119
	movq	input, %rax
	movl	8(%rax), %edi
	shll	$1, %edi
	movq	input, %rax
	movl	20(%rax), %eax
	addl	$1, %eax
	imull	%eax, %edi
	callq	CeilLog2
	subl	$4, %eax
	jmp	.LBB31_14
.LBB31_13:                              # %cond.false127
	xorl	%eax, %eax
	jmp	.LBB31_14
.LBB31_14:                              # %cond.end128
	movl	%eax, log2_max_pic_order_cnt_lsb_minus4
	movq	input, %rax
	movl	1236(%rax), %eax
	movq	input, %rcx
	cmpl	20(%rcx), %eax
	jle	.LBB31_16
# %bb.15:                               # %if.then133
	movq	input, %rax
	movl	1236(%rax), %ecx
	movabsq	$errortext, %rdi
	movl	$300, %esi              # imm = 0x12C
	movabsq	$.L.str.179, %rdx
	movb	$0, %al
	callq	snprintf
	movabsq	$errortext, %rdi
	movl	$400, %esi              # imm = 0x190
	callq	error
.LBB31_16:                              # %if.end136
	movq	input, %rax
	cmpl	$0, 1236(%rax)
	je	.LBB31_20
# %bb.17:                               # %land.lhs.true
	movq	input, %rax
	cmpl	$1, 1248(%rax)
	je	.LBB31_20
# %bb.18:                               # %land.lhs.true140
	movq	input, %rax
	cmpl	$0, 1248(%rax)
	je	.LBB31_20
# %bb.19:                               # %if.then143
	movq	input, %rax
	movl	1248(%rax), %ecx
	movabsq	$errortext, %rdi
	movl	$300, %esi              # imm = 0x12C
	movabsq	$.L.str.180, %rdx
	movb	$0, %al
	callq	snprintf
	movabsq	$errortext, %rdi
	movl	$400, %esi              # imm = 0x190
	callq	error
.LBB31_20:                              # %if.end146
	movq	input, %rax
	cmpl	$0, 2880(%rax)
	jg	.LBB31_22
# %bb.21:                               # %lor.lhs.false
	movq	input, %rax
	cmpl	$0, 2884(%rax)
	jle	.LBB31_25
.LBB31_22:                              # %if.then149
	movq	input, %rax
	cmpl	$0, 1252(%rax)
	jne	.LBB31_24
# %bb.23:                               # %if.then151
	movabsq	$.L.str.181, %rdi
	movb	$0, %al
	callq	printf
.LBB31_24:                              # %if.end153
	movq	input, %rax
	movl	$1, 1252(%rax)
.LBB31_25:                              # %if.end155
	movq	input, %rax
	cmpl	$0, 2880(%rax)
	jle	.LBB31_30
# %bb.26:                               # %if.then158
	movq	input, %rax
	cmpl	$0, 2888(%rax)
	je	.LBB31_29
# %bb.27:                               # %land.lhs.true160
	movq	input, %rax
	cmpl	$1, 2888(%rax)
	je	.LBB31_29
# %bb.28:                               # %if.then163
	movq	input, %rax
	movl	2888(%rax), %ecx
	movabsq	$errortext, %rdi
	movl	$300, %esi              # imm = 0x12C
	movabsq	$.L.str.182, %rdx
	movb	$0, %al
	callq	snprintf
	movabsq	$errortext, %rdi
	movl	$400, %esi              # imm = 0x190
	callq	error
.LBB31_29:                              # %if.end166
	jmp	.LBB31_30
.LBB31_30:                              # %if.end167
	movq	input, %rax
	cmpl	$0, 2356(%rax)
	je	.LBB31_33
# %bb.31:                               # %land.lhs.true169
	movq	input, %rax
	cmpl	$1, 2356(%rax)
	je	.LBB31_33
# %bb.32:                               # %if.then172
	movq	input, %rax
	movl	2356(%rax), %ecx
	movabsq	$errortext, %rdi
	movl	$300, %esi              # imm = 0x12C
	movabsq	$.L.str.183, %rdx
	movb	$0, %al
	callq	snprintf
	movabsq	$errortext, %rdi
	movl	$400, %esi              # imm = 0x190
	callq	error
.LBB31_33:                              # %if.end175
	movq	input, %rdi
	addq	$224, %rdi
	xorl	%esi, %esi
	movb	$0, %al
	callq	open
	movl	%eax, p_in
	cmpl	$-1, %eax
	jne	.LBB31_35
# %bb.34:                               # %if.then178
	movq	input, %rcx
	addq	$224, %rcx
	movabsq	$errortext, %rdi
	movl	$300, %esi              # imm = 0x12C
	movabsq	$.L.str.184, %rdx
	movb	$0, %al
	callq	snprintf
	movabsq	$errortext, %rdi
	movl	$500, %esi              # imm = 0x1F4
	callq	error
.LBB31_35:                              # %if.end182
	movq	input, %rdi
	addq	$624, %rdi              # imm = 0x270
	callq	strlen
	cmpq	$0, %rax
	jbe	.LBB31_38
# %bb.36:                               # %land.lhs.true186
	movq	input, %rdi
	addq	$624, %rdi              # imm = 0x270
	movl	$577, %esi              # imm = 0x241
	movl	$384, %edx              # imm = 0x180
	movb	$0, %al
	callq	open
	movl	%eax, p_dec
	cmpl	$-1, %eax
	jne	.LBB31_38
# %bb.37:                               # %if.then191
	movq	input, %rcx
	addq	$624, %rcx              # imm = 0x270
	movabsq	$errortext, %rdi
	movl	$300, %esi              # imm = 0x12C
	movabsq	$.L.str.185, %rdx
	movb	$0, %al
	callq	snprintf
	movabsq	$errortext, %rdi
	movl	$500, %esi              # imm = 0x1F4
	callq	error
.LBB31_38:                              # %if.end195
	movq	input, %rdi
	addq	$824, %rdi              # imm = 0x338
	callq	strlen
	cmpq	$0, %rax
	jbe	.LBB31_41
# %bb.39:                               # %land.lhs.true199
	movq	input, %rdi
	addq	$824, %rdi              # imm = 0x338
	movabsq	$.L.str.186, %rsi
	callq	fopen
	movq	%rax, p_trace
	cmpq	$0, %rax
	jne	.LBB31_41
# %bb.40:                               # %if.then204
	movq	input, %rcx
	addq	$824, %rcx              # imm = 0x338
	movabsq	$errortext, %rdi
	movl	$300, %esi              # imm = 0x12C
	movabsq	$.L.str.185, %rdx
	movb	$0, %al
	callq	snprintf
	movabsq	$errortext, %rdi
	movl	$500, %esi              # imm = 0x1F4
	callq	error
.LBB31_41:                              # %if.end208
	movq	input, %rax
	movl	64(%rax), %eax
	cltd
	movl	$16, %ecx
	idivl	%ecx
	cmpl	$0, %edx
	je	.LBB31_43
# %bb.42:                               # %if.then210
	movq	input, %rax
	movl	64(%rax), %eax
	cltd
	movl	$16, %ecx
	idivl	%ecx
	subl	%edx, %ecx
	movq	img, %rax
	movl	%ecx, 72728(%rax)
	jmp	.LBB31_44
.LBB31_43:                              # %if.else214
	movq	img, %rax
	movl	$0, 72728(%rax)
.LBB31_44:                              # %if.end216
	movq	input, %rax
	cmpl	$0, 2880(%rax)
	jne	.LBB31_46
# %bb.45:                               # %lor.lhs.false219
	movq	input, %rax
	cmpl	$0, 2884(%rax)
	je	.LBB31_52
.LBB31_46:                              # %if.then222
	movq	input, %rax
	movl	68(%rax), %eax
	cltd
	movl	$2, %ecx
	idivl	%ecx
	cmpl	$0, %edx
	je	.LBB31_48
# %bb.47:                               # %if.then225
	movabsq	$.L.str.187, %rdi
	movl	$500, %esi              # imm = 0x1F4
	callq	error
.LBB31_48:                              # %if.end226
	movq	input, %rax
	movl	68(%rax), %eax
	cltd
	movl	$32, %ecx
	idivl	%ecx
	cmpl	$0, %edx
	je	.LBB31_50
# %bb.49:                               # %if.then230
	movq	input, %rax
	movl	68(%rax), %eax
	cltd
	movl	$32, %ecx
	idivl	%ecx
	subl	%edx, %ecx
	movq	img, %rax
	movl	%ecx, 72732(%rax)
	jmp	.LBB31_51
.LBB31_50:                              # %if.else234
	movq	img, %rax
	movl	$0, 72732(%rax)
.LBB31_51:                              # %if.end236
	jmp	.LBB31_56
.LBB31_52:                              # %if.else237
	movq	input, %rax
	movl	68(%rax), %eax
	cltd
	movl	$16, %ecx
	idivl	%ecx
	cmpl	$0, %edx
	je	.LBB31_54
# %bb.53:                               # %if.then241
	movq	input, %rax
	movl	68(%rax), %eax
	cltd
	movl	$16, %ecx
	idivl	%ecx
	subl	%edx, %ecx
	movq	img, %rax
	movl	%ecx, 72732(%rax)
	jmp	.LBB31_55
.LBB31_54:                              # %if.else246
	movq	img, %rax
	movl	$0, 72732(%rax)
.LBB31_55:                              # %if.end248
	jmp	.LBB31_56
.LBB31_56:                              # %if.end249
	movq	img, %rax
	cmpl	$0, 72732(%rax)
	jne	.LBB31_58
# %bb.57:                               # %lor.lhs.false252
	movq	img, %rax
	cmpl	$0, 72728(%rax)
	je	.LBB31_59
.LBB31_58:                              # %if.then255
	movq	input, %rax
	movl	64(%rax), %esi
	movq	img, %rax
	addl	72728(%rax), %esi
	movq	input, %rax
	movl	68(%rax), %edx
	movq	img, %rax
	addl	72732(%rax), %edx
	movabsq	$.L.str.188, %rdi
	movb	$0, %al
	callq	printf
.LBB31_59:                              # %if.end263
	movq	input, %rax
	cmpl	$0, 3152(%rax)
	je	.LBB31_100
# %bb.60:                               # %land.lhs.true265
	movq	input, %rax
	cmpl	$0, 3156(%rax)
	je	.LBB31_63
# %bb.61:                               # %lor.lhs.false267
	movq	input, %rax
	cmpl	$2, 3156(%rax)
	je	.LBB31_63
# %bb.62:                               # %lor.lhs.false270
	movq	input, %rax
	cmpl	$6, 3156(%rax)
	jne	.LBB31_100
.LBB31_63:                              # %if.then273
	movq	input, %rdi
	addq	$2952, %rdi             # imm = 0xB88
	callq	strlen
	cmpq	$0, %rax
	jbe	.LBB31_66
# %bb.64:                               # %land.lhs.true277
	movq	input, %rdi
	addq	$2952, %rdi             # imm = 0xB88
	movabsq	$.L.str.12, %rsi
	callq	fopen
	movq	%rax, -16(%rbp)
	cmpq	$0, %rax
	jne	.LBB31_66
# %bb.65:                               # %if.then282
	movq	input, %rcx
	addq	$2952, %rcx             # imm = 0xB88
	movabsq	$errortext, %rdi
	movl	$300, %esi              # imm = 0x12C
	movabsq	$.L.str.185, %rdx
	movb	$0, %al
	callq	snprintf
	movabsq	$errortext, %rdi
	movl	$500, %esi              # imm = 0x1F4
	callq	error
	jmp	.LBB31_99
.LBB31_66:                              # %if.else286
	movq	input, %rax
	cmpl	$0, 3156(%rax)
	jne	.LBB31_74
# %bb.67:                               # %if.then289
	movq	input, %rax
	movl	3152(%rax), %eax
	addl	$1, %eax
	movslq	%eax, %rdi
	shlq	$2, %rdi
	callq	malloc
	xorl	%ecx, %ecx
	movq	input, %rdx
	movq	%rax, 3184(%rdx)
	movq	input, %rax
	cmpq	3184(%rax), %rcx
	jne	.LBB31_69
# %bb.68:                               # %if.then297
	movabsq	$.L.str.189, %rdi
	callq	no_mem_exit
.LBB31_69:                              # %if.end298
	movl	$0, -4(%rbp)
.LBB31_70:                              # %for.cond
                                        # =>This Inner Loop Header: Depth=1
	movl	-4(%rbp), %eax
	movq	input, %rcx
	cmpl	3152(%rcx), %eax
	jg	.LBB31_73
# %bb.71:                               # %for.body
                                        #   in Loop: Header=BB31_70 Depth=1
	movq	-16(%rbp), %rdi
	movq	input, %rax
	movq	3184(%rax), %rdx
	movslq	-4(%rbp), %rax
	shlq	$2, %rax
	addq	%rax, %rdx
	movabsq	$.L.str.170, %rsi
	movb	$0, %al
	callq	__isoc99_fscanf
	movq	-16(%rbp), %rdi
	movabsq	$.L.str.190, %rsi
	movb	$0, %al
	callq	__isoc99_fscanf
# %bb.72:                               # %for.inc
                                        #   in Loop: Header=BB31_70 Depth=1
	movl	-4(%rbp), %eax
	addl	$1, %eax
	movl	%eax, -4(%rbp)
	jmp	.LBB31_70
.LBB31_73:                              # %for.end
	jmp	.LBB31_98
.LBB31_74:                              # %if.else305
	movq	input, %rax
	cmpl	$2, 3156(%rax)
	jne	.LBB31_84
# %bb.75:                               # %if.then309
	movq	input, %rax
	movslq	3152(%rax), %rdi
	shlq	$2, %rdi
	callq	malloc
	movq	input, %rcx
	movq	%rax, 3160(%rcx)
	movq	input, %rax
	movslq	3152(%rax), %rdi
	shlq	$2, %rdi
	callq	malloc
	xorl	%ecx, %ecx
	movq	input, %rdx
	movq	%rax, 3168(%rdx)
	movq	input, %rax
	cmpq	3160(%rax), %rcx
	jne	.LBB31_77
# %bb.76:                               # %if.then321
	movabsq	$.L.str.191, %rdi
	callq	no_mem_exit
.LBB31_77:                              # %if.end322
	xorl	%eax, %eax
	movq	input, %rcx
	cmpq	3168(%rcx), %rax
	jne	.LBB31_79
# %bb.78:                               # %if.then326
	movabsq	$.L.str.192, %rdi
	callq	no_mem_exit
.LBB31_79:                              # %if.end327
	movl	$0, -4(%rbp)
.LBB31_80:                              # %for.cond328
                                        # =>This Inner Loop Header: Depth=1
	movl	-4(%rbp), %eax
	movq	input, %rcx
	cmpl	3152(%rcx), %eax
	jge	.LBB31_83
# %bb.81:                               # %for.body332
                                        #   in Loop: Header=BB31_80 Depth=1
	movq	-16(%rbp), %rdi
	movq	input, %rax
	movq	3160(%rax), %rdx
	movslq	-4(%rbp), %rax
	shlq	$2, %rax
	addq	%rax, %rdx
	movabsq	$.L.str.170, %rsi
	movb	$0, %al
	callq	__isoc99_fscanf
	movq	-16(%rbp), %rdi
	movabsq	$.L.str.190, %rsi
	movb	$0, %al
	callq	__isoc99_fscanf
	movq	-16(%rbp), %rdi
	movq	input, %rax
	movq	3168(%rax), %rdx
	movslq	-4(%rbp), %rax
	shlq	$2, %rax
	addq	%rax, %rdx
	movabsq	$.L.str.170, %rsi
	movb	$0, %al
	callq	__isoc99_fscanf
	movq	-16(%rbp), %rdi
	movabsq	$.L.str.190, %rsi
	movb	$0, %al
	callq	__isoc99_fscanf
# %bb.82:                               # %for.inc343
                                        #   in Loop: Header=BB31_80 Depth=1
	movl	-4(%rbp), %eax
	addl	$1, %eax
	movl	%eax, -4(%rbp)
	jmp	.LBB31_80
.LBB31_83:                              # %for.end345
	jmp	.LBB31_97
.LBB31_84:                              # %if.else346
	movq	input, %rax
	cmpl	$6, 3156(%rax)
	jne	.LBB31_96
# %bb.85:                               # %if.then350
	movq	input, %rax
	cmpl	$0, 2880(%rax)
	movb	$1, %al
	jne	.LBB31_87
# %bb.86:                               # %lor.rhs
	movq	input, %rax
	cmpl	$0, 2884(%rax)
	setne	%al
.LBB31_87:                              # %lor.end
	xorb	$-1, %al
	andb	$1, %al
	movzbl	%al, %eax
	movl	%eax, -36(%rbp)
	movq	input, %rax
	movl	64(%rax), %eax
	movq	img, %rcx
	addl	72728(%rcx), %eax
	cltd
	movl	$16, %ecx
	idivl	%ecx
	movl	%eax, -24(%rbp)
	movq	input, %rax
	movl	68(%rax), %eax
	movq	img, %rdx
	addl	72732(%rdx), %eax
	cltd
	idivl	%ecx
	movl	%eax, -48(%rbp)
	movl	-48(%rbp), %eax
	movl	$2, %ecx
	subl	-36(%rbp), %ecx
	cltd
	idivl	%ecx
	movl	%eax, -28(%rbp)
	movslq	-28(%rbp), %rdi
	shlq	$0, %rdi
	movslq	-24(%rbp), %rax
	imulq	%rax, %rdi
	callq	malloc
	xorl	%ecx, %ecx
	movq	input, %rdx
	movq	%rax, 3176(%rdx)
	movq	input, %rax
	cmpq	3176(%rax), %rcx
	jne	.LBB31_89
# %bb.88:                               # %if.then372
	movabsq	$.L.str.193, %rdi
	callq	no_mem_exit
.LBB31_89:                              # %if.end373
	movl	$0, -4(%rbp)
.LBB31_90:                              # %for.cond374
                                        # =>This Inner Loop Header: Depth=1
	movl	-4(%rbp), %eax
	movl	-28(%rbp), %ecx
	imull	-24(%rbp), %ecx
	cmpl	%ecx, %eax
	jge	.LBB31_95
# %bb.91:                               # %for.body378
                                        #   in Loop: Header=BB31_90 Depth=1
	movq	-16(%rbp), %rdi
	movabsq	$.L.str.170, %rsi
	leaq	-44(%rbp), %rdx
	movb	$0, %al
	callq	__isoc99_fscanf
	movl	-44(%rbp), %eax
	movq	input, %rcx
	movq	3176(%rcx), %rcx
	movslq	-4(%rbp), %rdx
	movb	%al, (%rcx,%rdx)
	movq	input, %rax
	movq	3176(%rax), %rax
	movslq	-4(%rbp), %rcx
	movzbl	(%rax,%rcx), %eax
	movq	input, %rcx
	cmpl	3152(%rcx), %eax
	jle	.LBB31_93
# %bb.92:                               # %if.then390
                                        #   in Loop: Header=BB31_90 Depth=1
	movq	input, %rcx
	addq	$2952, %rcx             # imm = 0xB88
	movabsq	$errortext, %rdi
	movl	$300, %esi              # imm = 0x12C
	movabsq	$.L.str.194, %rdx
	movb	$0, %al
	callq	snprintf
	movabsq	$errortext, %rdi
	movl	$500, %esi              # imm = 0x1F4
	callq	error
.LBB31_93:                              # %if.end394
                                        #   in Loop: Header=BB31_90 Depth=1
	movq	-16(%rbp), %rdi
	movabsq	$.L.str.190, %rsi
	movb	$0, %al
	callq	__isoc99_fscanf
# %bb.94:                               # %for.inc396
                                        #   in Loop: Header=BB31_90 Depth=1
	movl	-4(%rbp), %eax
	addl	$1, %eax
	movl	%eax, -4(%rbp)
	jmp	.LBB31_90
.LBB31_95:                              # %for.end398
	jmp	.LBB31_96
.LBB31_96:                              # %if.end399
	jmp	.LBB31_97
.LBB31_97:                              # %if.end400
	jmp	.LBB31_98
.LBB31_98:                              # %if.end401
	movq	-16(%rbp), %rdi
	callq	fclose
.LBB31_99:                              # %if.end403
	jmp	.LBB31_100
.LBB31_100:                             # %if.end404
	movq	input, %rax
	cmpl	$0, 2348(%rax)
	je	.LBB31_105
# %bb.101:                              # %land.lhs.true406
	movq	input, %rax
	cmpl	$0, 1320(%rax)
	je	.LBB31_105
# %bb.102:                              # %land.lhs.true408
	movq	input, %rax
	cmpl	$0, 2880(%rax)
	jne	.LBB31_104
# %bb.103:                              # %lor.lhs.false411
	movq	input, %rax
	cmpl	$0, 2884(%rax)
	je	.LBB31_105
.LBB31_104:                             # %if.then414
	movabsq	$errortext, %rdi
	movl	$300, %esi              # imm = 0x12C
	movabsq	$.L.str.195, %rdx
	movb	$0, %al
	callq	snprintf
	movabsq	$errortext, %rdi
	movl	$400, %esi              # imm = 0x190
	callq	error
.LBB31_105:                             # %if.end416
	movq	input, %rax
	cmpl	$0, 2352(%rax)
	je	.LBB31_110
# %bb.106:                              # %land.lhs.true418
	movq	input, %rax
	cmpl	$0, 1320(%rax)
	je	.LBB31_110
# %bb.107:                              # %land.lhs.true421
	movq	input, %rax
	cmpl	$0, 2880(%rax)
	jne	.LBB31_109
# %bb.108:                              # %lor.lhs.false424
	movq	input, %rax
	cmpl	$0, 2884(%rax)
	je	.LBB31_110
.LBB31_109:                             # %if.then427
	movabsq	$errortext, %rdi
	movl	$300, %esi              # imm = 0x12C
	movabsq	$.L.str.196, %rdx
	movb	$0, %al
	callq	snprintf
	movabsq	$errortext, %rdi
	movl	$400, %esi              # imm = 0x190
	callq	error
.LBB31_110:                             # %if.end429
	movq	input, %rax
	cmpl	$0, 2880(%rax)
	je	.LBB31_114
# %bb.111:                              # %land.lhs.true433
	movq	input, %rax
	cmpl	$2, 2880(%rax)
	je	.LBB31_114
# %bb.112:                              # %land.lhs.true437
	movq	input, %rax
	cmpl	$1, 2880(%rax)
	je	.LBB31_114
# %bb.113:                              # %if.then441
	movq	input, %rax
	movl	2880(%rax), %ecx
	movabsq	$errortext, %rdi
	movl	$300, %esi              # imm = 0x12C
	movabsq	$.L.str.197, %rdx
	movb	$0, %al
	callq	snprintf
	movabsq	$errortext, %rdi
	movl	$400, %esi              # imm = 0x190
	callq	error
.LBB31_114:                             # %if.end444
	movq	input, %rax
	cmpl	$0, 2884(%rax)
	je	.LBB31_118
# %bb.115:                              # %land.lhs.true448
	movq	input, %rax
	cmpl	$2, 2884(%rax)
	je	.LBB31_118
# %bb.116:                              # %land.lhs.true452
	movq	input, %rax
	cmpl	$1, 2884(%rax)
	je	.LBB31_118
# %bb.117:                              # %if.then456
	movq	input, %rax
	movl	2884(%rax), %ecx
	movabsq	$errortext, %rdi
	movl	$300, %esi              # imm = 0x12C
	movabsq	$.L.str.198, %rdx
	movb	$0, %al
	callq	snprintf
	movabsq	$errortext, %rdi
	movl	$400, %esi              # imm = 0x190
	callq	error
.LBB31_118:                             # %if.end459
	movq	input, %rax
	cmpl	$0, 2464(%rax)
	jne	.LBB31_121
# %bb.119:                              # %land.lhs.true461
	movq	input, %rax
	cmpl	$0, 2884(%rax)
	je	.LBB31_121
# %bb.120:                              # %if.then464
	movabsq	$errortext, %rdi
	movl	$300, %esi              # imm = 0x12C
	movabsq	$.L.str.199, %rdx
	movb	$0, %al
	callq	snprintf
	movabsq	$errortext, %rdi
	movl	$500, %esi              # imm = 0x1F4
	callq	error
.LBB31_121:                             # %if.end466
	movq	input, %rax
	cmpl	$1, 2464(%rax)
	jle	.LBB31_123
# %bb.122:                              # %if.then470
	movabsq	$errortext, %rdi
	movl	$300, %esi              # imm = 0x12C
	movabsq	$.L.str.200, %rdx
	movb	$0, %al
	callq	snprintf
	movabsq	$errortext, %rdi
	movl	$500, %esi              # imm = 0x1F4
	callq	error
.LBB31_123:                             # %if.end472
	movq	input, %rax
	movl	2912(%rax), %eax
	movq	input, %rcx
	cmpl	36(%rcx), %eax
	jge	.LBB31_125
# %bb.124:                              # %lor.lhs.false475
	movq	input, %rax
	cmpl	$0, 2912(%rax)
	jge	.LBB31_126
.LBB31_125:                             # %if.then479
	movq	input, %rax
	movl	2912(%rax), %ecx
	movq	input, %rax
	movl	36(%rax), %r8d
	movabsq	$errortext, %rdi
	movl	$300, %esi              # imm = 0x12C
	movabsq	$.L.str.201, %rdx
	movb	$0, %al
	callq	snprintf
	movabsq	$errortext, %rdi
	movl	$500, %esi              # imm = 0x1F4
	callq	error
.LBB31_126:                             # %if.end483
	movq	input, %rax
	cmpl	$0, 2912(%rax)
	jle	.LBB31_129
# %bb.127:                              # %land.lhs.true487
	movq	input, %rax
	cmpl	$0, 2360(%rax)
	jne	.LBB31_129
# %bb.128:                              # %if.then490
	movabsq	$errortext, %rdi
	movl	$300, %esi              # imm = 0x12C
	movabsq	$.L.str.202, %rdx
	movb	$0, %al
	callq	snprintf
	movabsq	$errortext, %rdi
	movl	$500, %esi              # imm = 0x1F4
	callq	error
.LBB31_129:                             # %if.end492
	movq	input, %rax
	cmpl	$0, 2880(%rax)
	jne	.LBB31_131
# %bb.130:                              # %lor.lhs.false495
	movq	input, %rax
	cmpl	$0, 2884(%rax)
	je	.LBB31_133
.LBB31_131:                             # %land.lhs.true498
	movq	input, %rax
	cmpl	$1, 2940(%rax)
	jne	.LBB31_133
# %bb.132:                              # %if.then501
	movabsq	$errortext, %rdi
	movl	$300, %esi              # imm = 0x12C
	movabsq	$.L.str.203, %rdx
	movb	$0, %al
	callq	snprintf
	movabsq	$errortext, %rdi
	movl	$500, %esi              # imm = 0x1F4
	callq	error
.LBB31_133:                             # %if.end503
	movq	input, %rax
	cmpl	$1, 2360(%rax)
	je	.LBB31_136
# %bb.134:                              # %land.lhs.true507
	movq	input, %rax
	cmpl	$1, 2940(%rax)
	jne	.LBB31_136
# %bb.135:                              # %if.then511
	movabsq	$errortext, %rdi
	movl	$300, %esi              # imm = 0x12C
	movabsq	$.L.str.204, %rdx
	movb	$0, %al
	callq	snprintf
	movabsq	$errortext, %rdi
	movl	$500, %esi              # imm = 0x1F4
	callq	error
.LBB31_136:                             # %if.end513
	movq	input, %rax
	cmpl	$0, 1284(%rax)
	jg	.LBB31_138
# %bb.137:                              # %lor.lhs.false516
	movq	input, %rax
	cmpl	$0, 1288(%rax)
	jle	.LBB31_140
.LBB31_138:                             # %land.lhs.true519
	movq	input, %rax
	cmpl	$0, 2884(%rax)
	je	.LBB31_140
# %bb.139:                              # %if.then522
	movabsq	$.L.str.205, %rdi
	movb	$0, %al
	callq	printf
	movabsq	$errortext, %rdi
	movl	$500, %esi              # imm = 0x1F4
	callq	error
.LBB31_140:                             # %if.end524
	movq	input, %rax
	cmpl	$0, 2912(%rax)
	jle	.LBB31_143
# %bb.141:                              # %land.lhs.true528
	movq	input, %rax
	cmpl	$0, 1284(%rax)
	jle	.LBB31_143
# %bb.142:                              # %if.then532
	movabsq	$errortext, %rdi
	movl	$300, %esi              # imm = 0x12C
	movabsq	$.L.str.206, %rdx
	movb	$0, %al
	callq	snprintf
	movabsq	$errortext, %rdi
	movl	$500, %esi              # imm = 0x1F4
	callq	error
.LBB31_143:                             # %if.end534
	movq	input, %rax
	cmpl	$0, 3152(%rax)
	jle	.LBB31_148
# %bb.144:                              # %if.then538
	movq	input, %rax
	cmpl	$3, 3156(%rax)
	jl	.LBB31_147
# %bb.145:                              # %land.lhs.true542
	movq	input, %rax
	cmpl	$5, 3156(%rax)
	jg	.LBB31_147
# %bb.146:                              # %if.then546
	movq	input, %rax
	movl	$1, 3152(%rax)
.LBB31_147:                             # %if.end548
	jmp	.LBB31_148
.LBB31_148:                             # %if.end549
	movq	input, %rax
	cmpl	$0, 3236(%rax)
	je	.LBB31_152
# %bb.149:                              # %if.then551
	movq	input, %rax
	movl	68(%rax), %eax
	movq	img, %rcx
	addl	72732(%rcx), %eax
	movq	input, %rcx
	movl	64(%rcx), %ecx
	movq	img, %rdx
	addl	72728(%rdx), %ecx
	imull	%ecx, %eax
	cltd
	movl	$256, %ecx              # imm = 0x100
	idivl	%ecx
	movq	input, %rcx
	cltd
	idivl	3248(%rcx)
	cmpl	$0, %edx
	je	.LBB31_151
# %bb.150:                              # %if.then563
	movabsq	$errortext, %rdi
	movl	$300, %esi              # imm = 0x12C
	movabsq	$.L.str.207, %rdx
	movb	$0, %al
	callq	snprintf
	movabsq	$errortext, %rdi
	movl	$500, %esi              # imm = 0x1F4
	callq	error
.LBB31_151:                             # %if.end565
	jmp	.LBB31_152
.LBB31_152:                             # %if.end566
	movq	input, %rax
	cmpl	$0, 1236(%rax)
	je	.LBB31_158
# %bb.153:                              # %land.lhs.true569
	movq	input, %rax
	cmpl	$0, 1316(%rax)
	je	.LBB31_158
# %bb.154:                              # %land.lhs.true572
	movq	input, %rax
	cmpl	$0, 1228(%rax)
	je	.LBB31_158
# %bb.155:                              # %land.lhs.true574
	movq	input, %rax
	cmpl	$0, 1224(%rax)
	je	.LBB31_158
# %bb.156:                              # %land.lhs.true576
	movq	input, %rax
	cmpl	$0, 3208(%rax)
	je	.LBB31_158
# %bb.157:                              # %if.then579
	movabsq	$.L.str.208, %rdi
	movl	$4294966296, %esi       # imm = 0xFFFFFC18
	callq	error
.LBB31_158:                             # %if.end580
	movq	input, %rax
	cmpl	$0, 1248(%rax)
	jne	.LBB31_162
# %bb.159:                              # %land.lhs.true583
	movq	input, %rax
	cmpl	$2, 36(%rax)
	jge	.LBB31_162
# %bb.160:                              # %land.lhs.true587
	movq	input, %rax
	cmpl	$0, 1236(%rax)
	jle	.LBB31_162
# %bb.161:                              # %if.then591
	movabsq	$.L.str.209, %rdi
	movl	$4294966296, %esi       # imm = 0xFFFFFC18
	callq	error
.LBB31_162:                             # %if.end592
	movq	input, %rax
	cmpl	$0, 3220(%rax)
	je	.LBB31_165
# %bb.163:                              # %land.lhs.true594
	movq	input, %rax
	cmpl	$0, 1272(%rax)
	je	.LBB31_165
# %bb.164:                              # %if.then596
	movabsq	$errortext, %rdi
	movl	$300, %esi              # imm = 0x12C
	movabsq	$.L.str.210, %rdx
	movb	$0, %al
	callq	snprintf
	movabsq	$errortext, %rdi
	movl	$500, %esi              # imm = 0x1F4
	callq	error
.LBB31_165:                             # %if.end598
	movq	input, %rax
	cmpl	$0, 3220(%rax)
	je	.LBB31_169
# %bb.166:                              # %land.lhs.true601
	movq	input, %rax
	cmpl	$100, (%rax)
	jl	.LBB31_168
# %bb.167:                              # %lor.lhs.false604
	movq	input, %rax
	cmpl	$144, (%rax)
	jle	.LBB31_169
.LBB31_168:                             # %if.then608
	movabsq	$errortext, %rdi
	movl	$300, %esi              # imm = 0x12C
	movabsq	$.L.str.211, %rdx
	movl	$100, %ecx
	movl	$144, %r8d
	movb	$0, %al
	callq	snprintf
	movabsq	$errortext, %rdi
	movl	$500, %esi              # imm = 0x1F4
	callq	error
.LBB31_169:                             # %if.end610
	movq	input, %rax
	cmpl	$0, 3256(%rax)
	je	.LBB31_173
# %bb.170:                              # %land.lhs.true612
	movq	input, %rax
	cmpl	$100, (%rax)
	jl	.LBB31_172
# %bb.171:                              # %lor.lhs.false616
	movq	input, %rax
	cmpl	$144, (%rax)
	jle	.LBB31_173
.LBB31_172:                             # %if.then620
	movabsq	$errortext, %rdi
	movl	$300, %esi              # imm = 0x12C
	movabsq	$.L.str.212, %rdx
	movl	$100, %ecx
	movl	$144, %r8d
	movb	$0, %al
	callq	snprintf
	movabsq	$errortext, %rdi
	movl	$500, %esi              # imm = 0x1F4
	callq	error
.LBB31_173:                             # %if.end622
	movq	input, %rax
	cmpl	$2, 72(%rax)
	jne	.LBB31_176
# %bb.174:                              # %land.lhs.true625
	movq	input, %rax
	cmpl	$122, (%rax)
	jge	.LBB31_176
# %bb.175:                              # %if.then629
	movabsq	$errortext, %rdi
	movl	$300, %esi              # imm = 0x12C
	movabsq	$.L.str.213, %rdx
	movl	$122, %ecx
	movl	$144, %r8d
	movb	$0, %al
	callq	snprintf
	movabsq	$errortext, %rdi
	movl	$500, %esi              # imm = 0x1F4
	callq	error
.LBB31_176:                             # %if.end631
	movq	input, %rax
	cmpl	$3, 72(%rax)
	jne	.LBB31_179
# %bb.177:                              # %land.lhs.true635
	movq	input, %rax
	cmpl	$144, (%rax)
	jge	.LBB31_179
# %bb.178:                              # %if.then639
	movabsq	$errortext, %rdi
	movl	$300, %esi              # imm = 0x12C
	movabsq	$.L.str.214, %rdx
	movl	$144, %ecx
	movb	$0, %al
	callq	snprintf
	movabsq	$errortext, %rdi
	movl	$500, %esi              # imm = 0x1F4
	callq	error
.LBB31_179:                             # %if.end641
	movq	input, %rax
	cmpl	$3, 72(%rax)
	je	.LBB31_182
# %bb.180:                              # %land.lhs.true645
	movq	input, %rax
	cmpl	$0, 3328(%rax)
	je	.LBB31_182
# %bb.181:                              # %if.then647
	movabsq	$errortext, %rdi
	movl	$300, %esi              # imm = 0x12C
	movabsq	$.L.str.215, %rdx
	movb	$0, %al
	callq	snprintf
	movabsq	$errortext, %rdi
	movl	$500, %esi              # imm = 0x1F4
	callq	error
.LBB31_182:                             # %if.end649
	callq	ProfileCheck
	callq	LevelCheck
	cmpl	$1761086242, -40(%rbp)  # imm = 0x68F80B22
	jne	.LBB31_184
.LBB31_183:
	addq	$48, %rsp
	popq	%rbp
	.cfi_def_cfa %rsp, 8
	retq
.LBB31_184:                             # %func_exit
	.cfi_def_cfa %rbp, 16
	callq	detect_breach
	jmp	.LBB31_183
.Lfunc_end31:
	.size	PatchInp.19, .Lfunc_end31-PatchInp.19
	.cfi_endproc
                                        # -- End function
	.p2align	4, 0x90         # -- Begin function ParameterNameToMapIndex.20
	.type	ParameterNameToMapIndex.20,@function
ParameterNameToMapIndex.20:             # @ParameterNameToMapIndex.20
	.cfi_startproc
# %bb.0:                                # %entry
	pushq	%rbp
	.cfi_def_cfa_offset 16
	.cfi_offset %rbp, -16
	movq	%rsp, %rbp
	.cfi_def_cfa_register %rbp
	pushq	%rbx
	subq	$24, %rsp
	.cfi_offset %rbx, -24
	movl	$452046271, -20(%rbp)   # imm = 0x1AF1ADBF
	movq	%rdi, -32(%rbp)
	movl	$0, -12(%rbp)
.LBB32_1:                               # %while.cond
                                        # =>This Inner Loop Header: Depth=1
	movslq	-12(%rbp), %rax
	imulq	$56, %rax, %rax
	movabsq	$Map, %rcx
	addq	%rax, %rcx
	cmpq	$0, (%rcx)
	je	.LBB32_6
# %bb.2:                                # %while.body
                                        #   in Loop: Header=BB32_1 Depth=1
	xorl	%ebx, %ebx
	movslq	-12(%rbp), %rax
	imulq	$56, %rax, %rax
	movabsq	$Map, %rcx
	addq	%rax, %rcx
	movq	(%rcx), %rdi
	movq	-32(%rbp), %rsi
	callq	strcmp
	cmpl	%eax, %ebx
	jne	.LBB32_4
# %bb.3:                                # %if.then
	movl	-12(%rbp), %eax
	movl	%eax, -16(%rbp)
	jmp	.LBB32_7
.LBB32_4:                               # %if.else
                                        #   in Loop: Header=BB32_1 Depth=1
	movl	-12(%rbp), %eax
	addl	$1, %eax
	movl	%eax, -12(%rbp)
# %bb.5:                                # %if.end
                                        #   in Loop: Header=BB32_1 Depth=1
	jmp	.LBB32_1
.LBB32_6:                               # %while.end
	movl	$-1, -16(%rbp)
.LBB32_7:                               # %return
	movl	-16(%rbp), %ebx
	cmpl	$452046271, -20(%rbp)   # imm = 0x1AF1ADBF
	jne	.LBB32_9
.LBB32_8:
	movl	%ebx, %eax
	addq	$24, %rsp
	popq	%rbx
	popq	%rbp
	.cfi_def_cfa %rsp, 8
	retq
.LBB32_9:                               # %func_exit
	.cfi_def_cfa %rbp, 16
	callq	detect_breach
	jmp	.LBB32_8
.Lfunc_end32:
	.size	ParameterNameToMapIndex.20, .Lfunc_end32-ParameterNameToMapIndex.20
	.cfi_endproc
                                        # -- End function
	.p2align	4, 0x90         # -- Begin function ParameterNameToMapIndex.21
	.type	ParameterNameToMapIndex.21,@function
ParameterNameToMapIndex.21:             # @ParameterNameToMapIndex.21
	.cfi_startproc
# %bb.0:                                # %entry
	pushq	%rbp
	.cfi_def_cfa_offset 16
	.cfi_offset %rbp, -16
	movq	%rsp, %rbp
	.cfi_def_cfa_register %rbp
	pushq	%rbx
	subq	$24, %rsp
	.cfi_offset %rbx, -24
	movl	$1843373543, -20(%rbp)  # imm = 0x6DDFA5E7
	movq	%rdi, -32(%rbp)
	movl	$0, -12(%rbp)
.LBB33_1:                               # %while.cond
                                        # =>This Inner Loop Header: Depth=1
	movslq	-12(%rbp), %rax
	imulq	$56, %rax, %rax
	movabsq	$Map, %rcx
	addq	%rax, %rcx
	cmpq	$0, (%rcx)
	je	.LBB33_6
# %bb.2:                                # %while.body
                                        #   in Loop: Header=BB33_1 Depth=1
	xorl	%ebx, %ebx
	movslq	-12(%rbp), %rax
	imulq	$56, %rax, %rax
	movabsq	$Map, %rcx
	addq	%rax, %rcx
	movq	(%rcx), %rdi
	movq	-32(%rbp), %rsi
	callq	strcmp
	cmpl	%eax, %ebx
	jne	.LBB33_4
# %bb.3:                                # %if.then
	movl	-12(%rbp), %eax
	movl	%eax, -16(%rbp)
	jmp	.LBB33_7
.LBB33_4:                               # %if.else
                                        #   in Loop: Header=BB33_1 Depth=1
	movl	-12(%rbp), %eax
	addl	$1, %eax
	movl	%eax, -12(%rbp)
# %bb.5:                                # %if.end
                                        #   in Loop: Header=BB33_1 Depth=1
	jmp	.LBB33_1
.LBB33_6:                               # %while.end
	movl	$-1, -16(%rbp)
.LBB33_7:                               # %return
	movl	-16(%rbp), %ebx
	cmpl	$1843373543, -20(%rbp)  # imm = 0x6DDFA5E7
	jne	.LBB33_9
.LBB33_8:
	movl	%ebx, %eax
	addq	$24, %rsp
	popq	%rbx
	popq	%rbp
	.cfi_def_cfa %rsp, 8
	retq
.LBB33_9:                               # %func_exit
	.cfi_def_cfa %rbp, 16
	callq	detect_breach
	jmp	.LBB33_8
.Lfunc_end33:
	.size	ParameterNameToMapIndex.21, .Lfunc_end33-ParameterNameToMapIndex.21
	.cfi_endproc
                                        # -- End function
	.globl	Configure.22            # -- Begin function Configure.22
	.p2align	4, 0x90
	.type	Configure.22,@function
Configure.22:                           # @Configure.22
	.cfi_startproc
# %bb.0:                                # %entry
	pushq	%rbp
	.cfi_def_cfa_offset 16
	.cfi_offset %rbp, -16
	movq	%rsp, %rbp
	.cfi_def_cfa_register %rbp
	pushq	%rbx
	subq	$72, %rsp
	.cfi_offset %rbx, -24
	movabsq	$configinput, %rax
	movl	$2028138969, -76(%rbp)  # imm = 0x78E2F1D9
	movl	%edi, -52(%rbp)
	movq	%rsi, -32(%rbp)
	movabsq	$.L.str.1, %rcx
	movq	%rcx, -72(%rbp)
	movq	%rax, %rdi
	xorl	%esi, %esi
	movl	$3592, %edx             # imm = 0xE08
	callq	memset
	movabsq	$.L.str.2, %rdi
	movb	$0, %al
	callq	printf
	callq	InitEncoderParams
	movl	$1, -12(%rbp)
	cmpl	$2, -52(%rbp)
	jne	.LBB34_4
# %bb.1:                                # %if.then
	movq	-32(%rbp), %rax
	movq	8(%rax), %rdi
	movabsq	$.L.str.3, %rsi
	movl	$2, %edx
	callq	strncmp
	xorl	%ecx, %ecx
	cmpl	%eax, %ecx
	jne	.LBB34_3
# %bb.2:                                # %if.then4
	callq	JMHelpExit
.LBB34_3:                               # %if.end
	jmp	.LBB34_4
.LBB34_4:                               # %if.end5
	cmpl	$3, -52(%rbp)
	jl	.LBB34_10
# %bb.5:                                # %if.then7
	movq	-32(%rbp), %rax
	movq	8(%rax), %rdi
	movabsq	$.L.str.4, %rsi
	movl	$2, %edx
	callq	strncmp
	xorl	%ecx, %ecx
	cmpl	%eax, %ecx
	jne	.LBB34_7
# %bb.6:                                # %if.then11
	movq	-32(%rbp), %rax
	movq	16(%rax), %rax
	movq	%rax, -72(%rbp)
	movl	$3, -12(%rbp)
.LBB34_7:                               # %if.end13
	movq	-32(%rbp), %rax
	movq	8(%rax), %rdi
	movabsq	$.L.str.3, %rsi
	movl	$2, %edx
	callq	strncmp
	xorl	%ecx, %ecx
	cmpl	%eax, %ecx
	jne	.LBB34_9
# %bb.8:                                # %if.then17
	callq	JMHelpExit
.LBB34_9:                               # %if.end18
	jmp	.LBB34_10
.LBB34_10:                              # %if.end19
	movq	-72(%rbp), %rsi
	movabsq	$.L.str.5, %rdi
	movb	$0, %al
	callq	printf
	movq	-72(%rbp), %rdi
	callq	GetConfigFileContent
	xorl	%ecx, %ecx
	movq	%rax, -24(%rbp)
	cmpq	-24(%rbp), %rcx
	jne	.LBB34_12
# %bb.11:                               # %if.then23
	movabsq	$errortext, %rdi
	movl	$300, %esi              # imm = 0x12C
	callq	error
.LBB34_12:                              # %if.end24
	movq	-24(%rbp), %rbx
	movq	-24(%rbp), %rdi
	callq	strlen
	movq	%rbx, %rdi
	movl	%eax, %esi
	callq	ParseContent
	movabsq	$.L.str.6, %rdi
	movb	$0, %al
	callq	printf
	movq	-24(%rbp), %rdi
	callq	free
.LBB34_13:                              # %while.cond
                                        # =>This Loop Header: Depth=1
                                        #     Child Loop BB34_22 Depth 2
                                        #     Child Loop BB34_29 Depth 2
                                        #       Child Loop BB34_31 Depth 3
	movl	-12(%rbp), %eax
	cmpl	-52(%rbp), %eax
	jge	.LBB34_41
# %bb.14:                               # %while.body
                                        #   in Loop: Header=BB34_13 Depth=1
	movq	-32(%rbp), %rax
	movslq	-12(%rbp), %rcx
	movq	(%rax,%rcx,8), %rdi
	movabsq	$.L.str.3, %rsi
	movl	$2, %edx
	callq	strncmp
	xorl	%ecx, %ecx
	cmpl	%eax, %ecx
	jne	.LBB34_16
# %bb.15:                               # %if.then33
                                        #   in Loop: Header=BB34_13 Depth=1
	callq	JMHelpExit
.LBB34_16:                              # %if.end34
                                        #   in Loop: Header=BB34_13 Depth=1
	movq	-32(%rbp), %rax
	movslq	-12(%rbp), %rcx
	movq	(%rax,%rcx,8), %rdi
	movabsq	$.L.str.7, %rsi
	movl	$2, %edx
	callq	strncmp
	xorl	%ecx, %ecx
	cmpl	%eax, %ecx
	jne	.LBB34_20
# %bb.17:                               # %if.then40
                                        #   in Loop: Header=BB34_13 Depth=1
	movq	-32(%rbp), %rax
	movl	-12(%rbp), %ecx
	addl	$1, %ecx
	movslq	%ecx, %rcx
	movq	(%rax,%rcx,8), %rdi
	callq	GetConfigFileContent
	xorl	%ecx, %ecx
	movq	%rax, -24(%rbp)
	cmpq	-24(%rbp), %rcx
	jne	.LBB34_19
# %bb.18:                               # %if.then46
                                        #   in Loop: Header=BB34_13 Depth=1
	movabsq	$errortext, %rdi
	movl	$300, %esi              # imm = 0x12C
	callq	error
.LBB34_19:                              # %if.end47
                                        #   in Loop: Header=BB34_13 Depth=1
	movq	-32(%rbp), %rax
	movl	-12(%rbp), %ecx
	addl	$1, %ecx
	movslq	%ecx, %rcx
	movq	(%rax,%rcx,8), %rsi
	movabsq	$.L.str.5, %rdi
	movb	$0, %al
	callq	printf
	movq	-24(%rbp), %rbx
	movq	-24(%rbp), %rdi
	callq	strlen
	movq	%rbx, %rdi
	movl	%eax, %esi
	callq	ParseContent
	movabsq	$.L.str.6, %rdi
	movb	$0, %al
	callq	printf
	movq	-24(%rbp), %rdi
	callq	free
	movl	-12(%rbp), %eax
	addl	$2, %eax
	movl	%eax, -12(%rbp)
	jmp	.LBB34_40
.LBB34_20:                              # %if.else
                                        #   in Loop: Header=BB34_13 Depth=1
	movq	-32(%rbp), %rax
	movslq	-12(%rbp), %rcx
	movq	(%rax,%rcx,8), %rdi
	movabsq	$.L.str.8, %rsi
	movl	$2, %edx
	callq	strncmp
	xorl	%ecx, %ecx
	cmpl	%eax, %ecx
	jne	.LBB34_38
# %bb.21:                               # %if.then61
                                        #   in Loop: Header=BB34_13 Depth=1
	movl	-12(%rbp), %eax
	addl	$1, %eax
	movl	%eax, -12(%rbp)
	movl	$0, -40(%rbp)
	movl	-12(%rbp), %eax
	movl	%eax, -36(%rbp)
.LBB34_22:                              # %while.cond62
                                        #   Parent Loop BB34_13 Depth=1
                                        # =>  This Inner Loop Header: Depth=2
	xorl	%eax, %eax
	movl	-36(%rbp), %ecx
	cmpl	-52(%rbp), %ecx
	jge	.LBB34_24
# %bb.23:                               # %land.rhs
                                        #   in Loop: Header=BB34_22 Depth=2
	movq	-32(%rbp), %rax
	movslq	-36(%rbp), %rcx
	movq	(%rax,%rcx,8), %rax
	movsbl	(%rax), %eax
	cmpl	$45, %eax
	setne	%al
.LBB34_24:                              # %land.end
                                        #   in Loop: Header=BB34_22 Depth=2
	testb	$1, %al
	jne	.LBB34_25
	jmp	.LBB34_26
.LBB34_25:                              # %while.body71
                                        #   in Loop: Header=BB34_22 Depth=2
	movq	-32(%rbp), %rax
	movl	-36(%rbp), %ecx
	movl	%ecx, %edx
	addl	$1, %edx
	movl	%edx, -36(%rbp)
	movslq	%ecx, %rcx
	movq	(%rax,%rcx,8), %rdi
	callq	strlen
	movslq	-40(%rbp), %rcx
	addq	%rax, %rcx
	movl	%ecx, -40(%rbp)
	jmp	.LBB34_22
.LBB34_26:                              # %while.end
                                        #   in Loop: Header=BB34_13 Depth=1
	movl	-40(%rbp), %eax
	addl	$1000, %eax             # imm = 0x3E8
	movl	%eax, -40(%rbp)
	movslq	-40(%rbp), %rdi
	callq	malloc
	movq	%rax, -24(%rbp)
	cmpq	$0, %rax
	jne	.LBB34_28
# %bb.27:                               # %if.then84
                                        #   in Loop: Header=BB34_13 Depth=1
	movabsq	$.L.str.9, %rdi
	callq	no_mem_exit
.LBB34_28:                              # %if.end85
                                        #   in Loop: Header=BB34_13 Depth=1
	movq	-24(%rbp), %rax
	movb	$0, (%rax)
.LBB34_29:                              # %while.cond87
                                        #   Parent Loop BB34_13 Depth=1
                                        # =>  This Loop Header: Depth=2
                                        #       Child Loop BB34_31 Depth 3
	movl	-12(%rbp), %eax
	cmpl	-36(%rbp), %eax
	jge	.LBB34_37
# %bb.30:                               # %while.body90
                                        #   in Loop: Header=BB34_29 Depth=2
	movq	-32(%rbp), %rax
	movslq	-12(%rbp), %rcx
	movq	(%rax,%rcx,8), %rax
	movq	%rax, -64(%rbp)
	movq	-24(%rbp), %rbx
	movq	-24(%rbp), %rdi
	callq	strlen
	addq	%rax, %rbx
	movq	%rbx, -48(%rbp)
.LBB34_31:                              # %while.cond96
                                        #   Parent Loop BB34_13 Depth=1
                                        #     Parent Loop BB34_29 Depth=2
                                        # =>    This Inner Loop Header: Depth=3
	movq	-64(%rbp), %rax
	movsbl	(%rax), %eax
	cmpl	$0, %eax
	je	.LBB34_36
# %bb.32:                               # %while.body100
                                        #   in Loop: Header=BB34_31 Depth=3
	movq	-64(%rbp), %rax
	movsbl	(%rax), %eax
	cmpl	$61, %eax
	jne	.LBB34_34
# %bb.33:                               # %if.then104
                                        #   in Loop: Header=BB34_31 Depth=3
	movq	-48(%rbp), %rax
	movq	%rax, %rcx
	addq	$1, %rcx
	movq	%rcx, -48(%rbp)
	movb	$32, (%rax)
	movq	-48(%rbp), %rax
	movq	%rax, %rcx
	addq	$1, %rcx
	movq	%rcx, -48(%rbp)
	movb	$61, (%rax)
	movq	-48(%rbp), %rax
	movq	%rax, %rcx
	addq	$1, %rcx
	movq	%rcx, -48(%rbp)
	movb	$32, (%rax)
	jmp	.LBB34_35
.LBB34_34:                              # %if.else107
                                        #   in Loop: Header=BB34_31 Depth=3
	movq	-64(%rbp), %rax
	movb	(%rax), %al
	movq	-48(%rbp), %rcx
	movq	%rcx, %rdx
	addq	$1, %rdx
	movq	%rdx, -48(%rbp)
	movb	%al, (%rcx)
.LBB34_35:                              # %if.end109
                                        #   in Loop: Header=BB34_31 Depth=3
	movq	-64(%rbp), %rax
	addq	$1, %rax
	movq	%rax, -64(%rbp)
	jmp	.LBB34_31
.LBB34_36:                              # %while.end111
                                        #   in Loop: Header=BB34_29 Depth=2
	movq	-48(%rbp), %rax
	movb	$0, (%rax)
	movl	-12(%rbp), %eax
	addl	$1, %eax
	movl	%eax, -12(%rbp)
	jmp	.LBB34_29
.LBB34_37:                              # %while.end113
                                        #   in Loop: Header=BB34_13 Depth=1
	movq	-24(%rbp), %rsi
	movabsq	$.L.str.10, %rdi
	movb	$0, %al
	callq	printf
	movq	-24(%rbp), %rbx
	movq	-24(%rbp), %rdi
	callq	strlen
	movq	%rbx, %rdi
	movl	%eax, %esi
	callq	ParseContent
	movq	-24(%rbp), %rdi
	callq	free
	movabsq	$.L.str.6, %rdi
	movb	$0, %al
	callq	printf
	jmp	.LBB34_39
.LBB34_38:                              # %if.else118
                                        #   in Loop: Header=BB34_13 Depth=1
	movl	-12(%rbp), %ecx
	movq	-32(%rbp), %rax
	movslq	-12(%rbp), %rdx
	movq	(%rax,%rdx,8), %r8
	movabsq	$errortext, %rdi
	movl	$300, %esi              # imm = 0x12C
	movabsq	$.L.str.11, %rdx
	movb	$0, %al
	callq	snprintf
	movabsq	$errortext, %rdi
	movl	$300, %esi              # imm = 0x12C
	callq	error
.LBB34_39:                              # %if.end122
                                        #   in Loop: Header=BB34_13 Depth=1
	jmp	.LBB34_40
.LBB34_40:                              # %if.end123
                                        #   in Loop: Header=BB34_13 Depth=1
	jmp	.LBB34_13
.LBB34_41:                              # %while.end124
	movabsq	$.L.str.6, %rdi
	movb	$0, %al
	callq	printf
	callq	PatchInp
	movq	input, %rax
	cmpl	$0, 3232(%rax)
	je	.LBB34_43
# %bb.42:                               # %if.then126
	callq	DisplayEncoderParams
.LBB34_43:                              # %if.end128
	cmpl	$2028138969, -76(%rbp)  # imm = 0x78E2F1D9
	jne	.LBB34_45
.LBB34_44:
	addq	$72, %rsp
	popq	%rbx
	popq	%rbp
	.cfi_def_cfa %rsp, 8
	retq
.LBB34_45:                              # %func_exit
	.cfi_def_cfa %rbp, 16
	callq	detect_breach
	jmp	.LBB34_44
.Lfunc_end34:
	.size	Configure.22, .Lfunc_end34-Configure.22
	.cfi_endproc
                                        # -- End function
	.globl	GetConfigFileContent.23 # -- Begin function GetConfigFileContent.23
	.p2align	4, 0x90
	.type	GetConfigFileContent.23,@function
GetConfigFileContent.23:                # @GetConfigFileContent.23
	.cfi_startproc
# %bb.0:                                # %entry
	pushq	%rbp
	.cfi_def_cfa_offset 16
	.cfi_offset %rbp, -16
	movq	%rsp, %rbp
	.cfi_def_cfa_register %rbp
	pushq	%rbx
	subq	$56, %rsp
	.cfi_offset %rbx, -24
	movl	$1721416680, -52(%rbp)  # imm = 0x669ABBE8
	movq	%rdi, -24(%rbp)
	movq	-24(%rbp), %rdi
	movabsq	$.L.str.12, %rsi
	callq	fopen
	xorl	%ecx, %ecx
	movq	%rax, -40(%rbp)
	cmpq	%rax, %rcx
	jne	.LBB35_2
# %bb.1:                                # %if.then
	movq	-24(%rbp), %rcx
	movabsq	$errortext, %rdi
	movl	$300, %esi              # imm = 0x12C
	movabsq	$.L.str.13, %rdx
	movb	$0, %al
	callq	snprintf
	movq	$0, -32(%rbp)
	jmp	.LBB35_12
.LBB35_2:                               # %if.end
	movq	-40(%rbp), %rdi
	xorl	%esi, %esi
	movl	$2, %edx
	callq	fseek
	xorl	%ecx, %ecx
	cmpl	%eax, %ecx
	je	.LBB35_4
# %bb.3:                                # %if.then4
	movq	-24(%rbp), %rcx
	movabsq	$errortext, %rdi
	movl	$300, %esi              # imm = 0x12C
	movabsq	$.L.str.14, %rdx
	movb	$0, %al
	callq	snprintf
	movq	$0, -32(%rbp)
	jmp	.LBB35_12
.LBB35_4:                               # %if.end6
	movq	-40(%rbp), %rdi
	callq	ftell
	movq	%rax, -16(%rbp)
	cmpq	$0, -16(%rbp)
	jl	.LBB35_6
# %bb.5:                                # %lor.lhs.false
	cmpq	$60000, -16(%rbp)       # imm = 0xEA60
	jle	.LBB35_7
.LBB35_6:                               # %if.then10
	movq	-16(%rbp), %rcx
	movq	-24(%rbp), %r8
	movabsq	$errortext, %rdi
	movl	$300, %esi              # imm = 0x12C
	movabsq	$.L.str.15, %rdx
	movb	$0, %al
	callq	snprintf
	movq	$0, -32(%rbp)
	jmp	.LBB35_12
.LBB35_7:                               # %if.end12
	movq	-40(%rbp), %rdi
	xorl	%esi, %esi
	xorl	%edx, %edx
	callq	fseek
	xorl	%ecx, %ecx
	cmpl	%eax, %ecx
	je	.LBB35_9
# %bb.8:                                # %if.then15
	movq	-24(%rbp), %rcx
	movabsq	$errortext, %rdi
	movl	$300, %esi              # imm = 0x12C
	movabsq	$.L.str.14, %rdx
	movb	$0, %al
	callq	snprintf
	movq	$0, -32(%rbp)
	jmp	.LBB35_12
.LBB35_9:                               # %if.end17
	movq	-16(%rbp), %rdi
	addq	$1, %rdi
	callq	malloc
	movq	%rax, -48(%rbp)
	cmpq	$0, %rax
	jne	.LBB35_11
# %bb.10:                               # %if.then20
	movabsq	$.L.str.16, %rdi
	callq	no_mem_exit
.LBB35_11:                              # %if.end21
	movq	-48(%rbp), %rdi
	movq	-16(%rbp), %rdx
	movq	-40(%rbp), %rcx
	movl	$1, %esi
	callq	fread
	movq	%rax, -16(%rbp)
	movq	-48(%rbp), %rax
	movq	-16(%rbp), %rcx
	movb	$0, (%rax,%rcx)
	movq	-40(%rbp), %rdi
	callq	fclose
	movq	-48(%rbp), %rax
	movq	%rax, -32(%rbp)
.LBB35_12:                              # %return
	movq	-32(%rbp), %rbx
	cmpl	$1721416680, -52(%rbp)  # imm = 0x669ABBE8
	jne	.LBB35_14
.LBB35_13:
	movq	%rbx, %rax
	addq	$56, %rsp
	popq	%rbx
	popq	%rbp
	.cfi_def_cfa %rsp, 8
	retq
.LBB35_14:                              # %func_exit
	.cfi_def_cfa %rbp, 16
	callq	detect_breach
	jmp	.LBB35_13
.Lfunc_end35:
	.size	GetConfigFileContent.23, .Lfunc_end35-GetConfigFileContent.23
	.cfi_endproc
                                        # -- End function
	.section	.rodata.cst8,"aM",@progbits,8
	.p2align	3               # -- Begin function PatchInp.24
.LCPI36_0:
	.quad	4629137466983448576     # double 30
	.text
	.p2align	4, 0x90
	.type	PatchInp.24,@function
PatchInp.24:                            # @PatchInp.24
	.cfi_startproc
# %bb.0:                                # %entry
	pushq	%rbp
	.cfi_def_cfa_offset 16
	.cfi_offset %rbp, -16
	movq	%rsp, %rbp
	.cfi_def_cfa_register %rbp
	subq	$48, %rsp
	movl	$828892177, -40(%rbp)   # imm = 0x3167E411
	movq	input, %rax
	movl	3296(%rax), %eax
	subl	$8, %eax
	imull	$6, %eax, %eax
	movl	%eax, -32(%rbp)
	movq	$0, -16(%rbp)
	movq	input, %rax
	movl	$1, 3224(%rax)
	movl	-32(%rbp), %edi
	callq	TestEncoderParams
	movq	input, %rax
	vmovsd	2424(%rax), %xmm0       # xmm0 = mem[0],zero
	vxorps	%xmm1, %xmm1, %xmm1
	vucomisd	%xmm1, %xmm0
	jne	.LBB36_2
	jp	.LBB36_2
# %bb.1:                                # %if.then
	vmovsd	.LCPI36_0(%rip), %xmm0  # xmm0 = mem[0],zero
	movq	input, %rax
	vmovsd	%xmm0, 2424(%rax)
.LBB36_2:                               # %if.end
	movq	input, %rax
	movl	$16, 80(%rax)
	movq	input, %rax
	movl	$16, 84(%rax)
	movq	input, %rax
	movl	$16, 88(%rax)
	movq	input, %rax
	movl	$16, 92(%rax)
	movq	input, %rax
	movl	$16, 96(%rax)
	movq	input, %rax
	movl	$8, 100(%rax)
	movq	input, %rax
	movl	$8, 104(%rax)
	movq	input, %rax
	movl	$16, 108(%rax)
	movq	input, %rax
	movl	$8, 112(%rax)
	movq	input, %rax
	movl	$8, 116(%rax)
	movq	input, %rax
	movl	$8, 120(%rax)
	movq	input, %rax
	movl	$4, 124(%rax)
	movq	input, %rax
	movl	$4, 128(%rax)
	movq	input, %rax
	movl	$8, 132(%rax)
	movq	input, %rax
	movl	$4, 136(%rax)
	movq	input, %rax
	movl	$4, 140(%rax)
	movq	input, %rax
	movl	$4, 144(%rax)
	movq	input, %rax
	movl	$4, 148(%rax)
	movq	input, %rax
	movl	$4, 152(%rax)
	movq	input, %rax
	movl	$4, 156(%rax)
	movq	input, %rax
	movl	$4, 160(%rax)
	movq	input, %rax
	movl	$2, 164(%rax)
	movq	input, %rax
	movl	$2, 168(%rax)
	movq	input, %rax
	movl	$4, 172(%rax)
	movq	input, %rax
	movl	$2, 176(%rax)
	movq	input, %rax
	movl	$2, 180(%rax)
	movq	input, %rax
	movl	$2, 184(%rax)
	movq	input, %rax
	movl	$1, 188(%rax)
	movq	input, %rax
	movl	$1, 192(%rax)
	movq	input, %rax
	movl	$2, 196(%rax)
	movq	input, %rax
	movl	$1, 200(%rax)
	movq	input, %rax
	movl	$1, 204(%rax)
	movq	input, %rax
	cmpl	$0, 1316(%rax)
	je	.LBB36_4
# %bb.3:                                # %cond.true
	movq	input, %rax
	movl	1236(%rax), %eax
	addl	$1, %eax
	jmp	.LBB36_5
.LBB36_4:                               # %cond.false
	movl	$1, %eax
	jmp	.LBB36_5
.LBB36_5:                               # %cond.end
	movl	%eax, -24(%rbp)
	movq	input, %rax
	cmpl	$4, 52(%rax)
	jge	.LBB36_10
# %bb.6:                                # %if.then96
	movq	input, %rax
	movl	8(%rax), %edi
	imull	-24(%rbp), %edi
	callq	CeilLog2
	subl	$4, %eax
	cmpl	$0, %eax
	jle	.LBB36_8
# %bb.7:                                # %cond.true101
	movq	input, %rax
	movl	8(%rax), %edi
	imull	-24(%rbp), %edi
	callq	CeilLog2
	subl	$4, %eax
	jmp	.LBB36_9
.LBB36_8:                               # %cond.false106
	xorl	%eax, %eax
	jmp	.LBB36_9
.LBB36_9:                               # %cond.end107
	movl	%eax, log2_max_frame_num_minus4
	jmp	.LBB36_11
.LBB36_10:                              # %if.else
	movq	input, %rax
	movl	52(%rax), %eax
	subl	$4, %eax
	movl	%eax, log2_max_frame_num_minus4
.LBB36_11:                              # %if.end111
	movq	input, %rax
	movl	8(%rax), %edi
	shll	$1, %edi
	movq	input, %rax
	movl	20(%rax), %eax
	addl	$1, %eax
	imull	%eax, %edi
	callq	CeilLog2
	subl	$4, %eax
	cmpl	$0, %eax
	jle	.LBB36_13
# %bb.12:                               # %cond.true119
	movq	input, %rax
	movl	8(%rax), %edi
	shll	$1, %edi
	movq	input, %rax
	movl	20(%rax), %eax
	addl	$1, %eax
	imull	%eax, %edi
	callq	CeilLog2
	subl	$4, %eax
	jmp	.LBB36_14
.LBB36_13:                              # %cond.false127
	xorl	%eax, %eax
	jmp	.LBB36_14
.LBB36_14:                              # %cond.end128
	movl	%eax, log2_max_pic_order_cnt_lsb_minus4
	movq	input, %rax
	movl	1236(%rax), %eax
	movq	input, %rcx
	cmpl	20(%rcx), %eax
	jle	.LBB36_16
# %bb.15:                               # %if.then133
	movq	input, %rax
	movl	1236(%rax), %ecx
	movabsq	$errortext, %rdi
	movl	$300, %esi              # imm = 0x12C
	movabsq	$.L.str.179, %rdx
	movb	$0, %al
	callq	snprintf
	movabsq	$errortext, %rdi
	movl	$400, %esi              # imm = 0x190
	callq	error
.LBB36_16:                              # %if.end136
	movq	input, %rax
	cmpl	$0, 1236(%rax)
	je	.LBB36_20
# %bb.17:                               # %land.lhs.true
	movq	input, %rax
	cmpl	$1, 1248(%rax)
	je	.LBB36_20
# %bb.18:                               # %land.lhs.true140
	movq	input, %rax
	cmpl	$0, 1248(%rax)
	je	.LBB36_20
# %bb.19:                               # %if.then143
	movq	input, %rax
	movl	1248(%rax), %ecx
	movabsq	$errortext, %rdi
	movl	$300, %esi              # imm = 0x12C
	movabsq	$.L.str.180, %rdx
	movb	$0, %al
	callq	snprintf
	movabsq	$errortext, %rdi
	movl	$400, %esi              # imm = 0x190
	callq	error
.LBB36_20:                              # %if.end146
	movq	input, %rax
	cmpl	$0, 2880(%rax)
	jg	.LBB36_22
# %bb.21:                               # %lor.lhs.false
	movq	input, %rax
	cmpl	$0, 2884(%rax)
	jle	.LBB36_25
.LBB36_22:                              # %if.then149
	movq	input, %rax
	cmpl	$0, 1252(%rax)
	jne	.LBB36_24
# %bb.23:                               # %if.then151
	movabsq	$.L.str.181, %rdi
	movb	$0, %al
	callq	printf
.LBB36_24:                              # %if.end153
	movq	input, %rax
	movl	$1, 1252(%rax)
.LBB36_25:                              # %if.end155
	movq	input, %rax
	cmpl	$0, 2880(%rax)
	jle	.LBB36_30
# %bb.26:                               # %if.then158
	movq	input, %rax
	cmpl	$0, 2888(%rax)
	je	.LBB36_29
# %bb.27:                               # %land.lhs.true160
	movq	input, %rax
	cmpl	$1, 2888(%rax)
	je	.LBB36_29
# %bb.28:                               # %if.then163
	movq	input, %rax
	movl	2888(%rax), %ecx
	movabsq	$errortext, %rdi
	movl	$300, %esi              # imm = 0x12C
	movabsq	$.L.str.182, %rdx
	movb	$0, %al
	callq	snprintf
	movabsq	$errortext, %rdi
	movl	$400, %esi              # imm = 0x190
	callq	error
.LBB36_29:                              # %if.end166
	jmp	.LBB36_30
.LBB36_30:                              # %if.end167
	movq	input, %rax
	cmpl	$0, 2356(%rax)
	je	.LBB36_33
# %bb.31:                               # %land.lhs.true169
	movq	input, %rax
	cmpl	$1, 2356(%rax)
	je	.LBB36_33
# %bb.32:                               # %if.then172
	movq	input, %rax
	movl	2356(%rax), %ecx
	movabsq	$errortext, %rdi
	movl	$300, %esi              # imm = 0x12C
	movabsq	$.L.str.183, %rdx
	movb	$0, %al
	callq	snprintf
	movabsq	$errortext, %rdi
	movl	$400, %esi              # imm = 0x190
	callq	error
.LBB36_33:                              # %if.end175
	movq	input, %rdi
	addq	$224, %rdi
	xorl	%esi, %esi
	movb	$0, %al
	callq	open
	movl	%eax, p_in
	cmpl	$-1, %eax
	jne	.LBB36_35
# %bb.34:                               # %if.then178
	movq	input, %rcx
	addq	$224, %rcx
	movabsq	$errortext, %rdi
	movl	$300, %esi              # imm = 0x12C
	movabsq	$.L.str.184, %rdx
	movb	$0, %al
	callq	snprintf
	movabsq	$errortext, %rdi
	movl	$500, %esi              # imm = 0x1F4
	callq	error
.LBB36_35:                              # %if.end182
	movq	input, %rdi
	addq	$624, %rdi              # imm = 0x270
	callq	strlen
	cmpq	$0, %rax
	jbe	.LBB36_38
# %bb.36:                               # %land.lhs.true186
	movq	input, %rdi
	addq	$624, %rdi              # imm = 0x270
	movl	$577, %esi              # imm = 0x241
	movl	$384, %edx              # imm = 0x180
	movb	$0, %al
	callq	open
	movl	%eax, p_dec
	cmpl	$-1, %eax
	jne	.LBB36_38
# %bb.37:                               # %if.then191
	movq	input, %rcx
	addq	$624, %rcx              # imm = 0x270
	movabsq	$errortext, %rdi
	movl	$300, %esi              # imm = 0x12C
	movabsq	$.L.str.185, %rdx
	movb	$0, %al
	callq	snprintf
	movabsq	$errortext, %rdi
	movl	$500, %esi              # imm = 0x1F4
	callq	error
.LBB36_38:                              # %if.end195
	movq	input, %rdi
	addq	$824, %rdi              # imm = 0x338
	callq	strlen
	cmpq	$0, %rax
	jbe	.LBB36_41
# %bb.39:                               # %land.lhs.true199
	movq	input, %rdi
	addq	$824, %rdi              # imm = 0x338
	movabsq	$.L.str.186, %rsi
	callq	fopen
	movq	%rax, p_trace
	cmpq	$0, %rax
	jne	.LBB36_41
# %bb.40:                               # %if.then204
	movq	input, %rcx
	addq	$824, %rcx              # imm = 0x338
	movabsq	$errortext, %rdi
	movl	$300, %esi              # imm = 0x12C
	movabsq	$.L.str.185, %rdx
	movb	$0, %al
	callq	snprintf
	movabsq	$errortext, %rdi
	movl	$500, %esi              # imm = 0x1F4
	callq	error
.LBB36_41:                              # %if.end208
	movq	input, %rax
	movl	64(%rax), %eax
	cltd
	movl	$16, %ecx
	idivl	%ecx
	cmpl	$0, %edx
	je	.LBB36_43
# %bb.42:                               # %if.then210
	movq	input, %rax
	movl	64(%rax), %eax
	cltd
	movl	$16, %ecx
	idivl	%ecx
	subl	%edx, %ecx
	movq	img, %rax
	movl	%ecx, 72728(%rax)
	jmp	.LBB36_44
.LBB36_43:                              # %if.else214
	movq	img, %rax
	movl	$0, 72728(%rax)
.LBB36_44:                              # %if.end216
	movq	input, %rax
	cmpl	$0, 2880(%rax)
	jne	.LBB36_46
# %bb.45:                               # %lor.lhs.false219
	movq	input, %rax
	cmpl	$0, 2884(%rax)
	je	.LBB36_52
.LBB36_46:                              # %if.then222
	movq	input, %rax
	movl	68(%rax), %eax
	cltd
	movl	$2, %ecx
	idivl	%ecx
	cmpl	$0, %edx
	je	.LBB36_48
# %bb.47:                               # %if.then225
	movabsq	$.L.str.187, %rdi
	movl	$500, %esi              # imm = 0x1F4
	callq	error
.LBB36_48:                              # %if.end226
	movq	input, %rax
	movl	68(%rax), %eax
	cltd
	movl	$32, %ecx
	idivl	%ecx
	cmpl	$0, %edx
	je	.LBB36_50
# %bb.49:                               # %if.then230
	movq	input, %rax
	movl	68(%rax), %eax
	cltd
	movl	$32, %ecx
	idivl	%ecx
	subl	%edx, %ecx
	movq	img, %rax
	movl	%ecx, 72732(%rax)
	jmp	.LBB36_51
.LBB36_50:                              # %if.else234
	movq	img, %rax
	movl	$0, 72732(%rax)
.LBB36_51:                              # %if.end236
	jmp	.LBB36_56
.LBB36_52:                              # %if.else237
	movq	input, %rax
	movl	68(%rax), %eax
	cltd
	movl	$16, %ecx
	idivl	%ecx
	cmpl	$0, %edx
	je	.LBB36_54
# %bb.53:                               # %if.then241
	movq	input, %rax
	movl	68(%rax), %eax
	cltd
	movl	$16, %ecx
	idivl	%ecx
	subl	%edx, %ecx
	movq	img, %rax
	movl	%ecx, 72732(%rax)
	jmp	.LBB36_55
.LBB36_54:                              # %if.else246
	movq	img, %rax
	movl	$0, 72732(%rax)
.LBB36_55:                              # %if.end248
	jmp	.LBB36_56
.LBB36_56:                              # %if.end249
	movq	img, %rax
	cmpl	$0, 72732(%rax)
	jne	.LBB36_58
# %bb.57:                               # %lor.lhs.false252
	movq	img, %rax
	cmpl	$0, 72728(%rax)
	je	.LBB36_59
.LBB36_58:                              # %if.then255
	movq	input, %rax
	movl	64(%rax), %esi
	movq	img, %rax
	addl	72728(%rax), %esi
	movq	input, %rax
	movl	68(%rax), %edx
	movq	img, %rax
	addl	72732(%rax), %edx
	movabsq	$.L.str.188, %rdi
	movb	$0, %al
	callq	printf
.LBB36_59:                              # %if.end263
	movq	input, %rax
	cmpl	$0, 3152(%rax)
	je	.LBB36_100
# %bb.60:                               # %land.lhs.true265
	movq	input, %rax
	cmpl	$0, 3156(%rax)
	je	.LBB36_63
# %bb.61:                               # %lor.lhs.false267
	movq	input, %rax
	cmpl	$2, 3156(%rax)
	je	.LBB36_63
# %bb.62:                               # %lor.lhs.false270
	movq	input, %rax
	cmpl	$6, 3156(%rax)
	jne	.LBB36_100
.LBB36_63:                              # %if.then273
	movq	input, %rdi
	addq	$2952, %rdi             # imm = 0xB88
	callq	strlen
	cmpq	$0, %rax
	jbe	.LBB36_66
# %bb.64:                               # %land.lhs.true277
	movq	input, %rdi
	addq	$2952, %rdi             # imm = 0xB88
	movabsq	$.L.str.12, %rsi
	callq	fopen
	movq	%rax, -16(%rbp)
	cmpq	$0, %rax
	jne	.LBB36_66
# %bb.65:                               # %if.then282
	movq	input, %rcx
	addq	$2952, %rcx             # imm = 0xB88
	movabsq	$errortext, %rdi
	movl	$300, %esi              # imm = 0x12C
	movabsq	$.L.str.185, %rdx
	movb	$0, %al
	callq	snprintf
	movabsq	$errortext, %rdi
	movl	$500, %esi              # imm = 0x1F4
	callq	error
	jmp	.LBB36_99
.LBB36_66:                              # %if.else286
	movq	input, %rax
	cmpl	$0, 3156(%rax)
	jne	.LBB36_74
# %bb.67:                               # %if.then289
	movq	input, %rax
	movl	3152(%rax), %eax
	addl	$1, %eax
	movslq	%eax, %rdi
	shlq	$2, %rdi
	callq	malloc
	xorl	%ecx, %ecx
	movq	input, %rdx
	movq	%rax, 3184(%rdx)
	movq	input, %rax
	cmpq	3184(%rax), %rcx
	jne	.LBB36_69
# %bb.68:                               # %if.then297
	movabsq	$.L.str.189, %rdi
	callq	no_mem_exit
.LBB36_69:                              # %if.end298
	movl	$0, -4(%rbp)
.LBB36_70:                              # %for.cond
                                        # =>This Inner Loop Header: Depth=1
	movl	-4(%rbp), %eax
	movq	input, %rcx
	cmpl	3152(%rcx), %eax
	jg	.LBB36_73
# %bb.71:                               # %for.body
                                        #   in Loop: Header=BB36_70 Depth=1
	movq	-16(%rbp), %rdi
	movq	input, %rax
	movq	3184(%rax), %rdx
	movslq	-4(%rbp), %rax
	shlq	$2, %rax
	addq	%rax, %rdx
	movabsq	$.L.str.170, %rsi
	movb	$0, %al
	callq	__isoc99_fscanf
	movq	-16(%rbp), %rdi
	movabsq	$.L.str.190, %rsi
	movb	$0, %al
	callq	__isoc99_fscanf
# %bb.72:                               # %for.inc
                                        #   in Loop: Header=BB36_70 Depth=1
	movl	-4(%rbp), %eax
	addl	$1, %eax
	movl	%eax, -4(%rbp)
	jmp	.LBB36_70
.LBB36_73:                              # %for.end
	jmp	.LBB36_98
.LBB36_74:                              # %if.else305
	movq	input, %rax
	cmpl	$2, 3156(%rax)
	jne	.LBB36_84
# %bb.75:                               # %if.then309
	movq	input, %rax
	movslq	3152(%rax), %rdi
	shlq	$2, %rdi
	callq	malloc
	movq	input, %rcx
	movq	%rax, 3160(%rcx)
	movq	input, %rax
	movslq	3152(%rax), %rdi
	shlq	$2, %rdi
	callq	malloc
	xorl	%ecx, %ecx
	movq	input, %rdx
	movq	%rax, 3168(%rdx)
	movq	input, %rax
	cmpq	3160(%rax), %rcx
	jne	.LBB36_77
# %bb.76:                               # %if.then321
	movabsq	$.L.str.191, %rdi
	callq	no_mem_exit
.LBB36_77:                              # %if.end322
	xorl	%eax, %eax
	movq	input, %rcx
	cmpq	3168(%rcx), %rax
	jne	.LBB36_79
# %bb.78:                               # %if.then326
	movabsq	$.L.str.192, %rdi
	callq	no_mem_exit
.LBB36_79:                              # %if.end327
	movl	$0, -4(%rbp)
.LBB36_80:                              # %for.cond328
                                        # =>This Inner Loop Header: Depth=1
	movl	-4(%rbp), %eax
	movq	input, %rcx
	cmpl	3152(%rcx), %eax
	jge	.LBB36_83
# %bb.81:                               # %for.body332
                                        #   in Loop: Header=BB36_80 Depth=1
	movq	-16(%rbp), %rdi
	movq	input, %rax
	movq	3160(%rax), %rdx
	movslq	-4(%rbp), %rax
	shlq	$2, %rax
	addq	%rax, %rdx
	movabsq	$.L.str.170, %rsi
	movb	$0, %al
	callq	__isoc99_fscanf
	movq	-16(%rbp), %rdi
	movabsq	$.L.str.190, %rsi
	movb	$0, %al
	callq	__isoc99_fscanf
	movq	-16(%rbp), %rdi
	movq	input, %rax
	movq	3168(%rax), %rdx
	movslq	-4(%rbp), %rax
	shlq	$2, %rax
	addq	%rax, %rdx
	movabsq	$.L.str.170, %rsi
	movb	$0, %al
	callq	__isoc99_fscanf
	movq	-16(%rbp), %rdi
	movabsq	$.L.str.190, %rsi
	movb	$0, %al
	callq	__isoc99_fscanf
# %bb.82:                               # %for.inc343
                                        #   in Loop: Header=BB36_80 Depth=1
	movl	-4(%rbp), %eax
	addl	$1, %eax
	movl	%eax, -4(%rbp)
	jmp	.LBB36_80
.LBB36_83:                              # %for.end345
	jmp	.LBB36_97
.LBB36_84:                              # %if.else346
	movq	input, %rax
	cmpl	$6, 3156(%rax)
	jne	.LBB36_96
# %bb.85:                               # %if.then350
	movq	input, %rax
	cmpl	$0, 2880(%rax)
	movb	$1, %al
	jne	.LBB36_87
# %bb.86:                               # %lor.rhs
	movq	input, %rax
	cmpl	$0, 2884(%rax)
	setne	%al
.LBB36_87:                              # %lor.end
	xorb	$-1, %al
	andb	$1, %al
	movzbl	%al, %eax
	movl	%eax, -48(%rbp)
	movq	input, %rax
	movl	64(%rax), %eax
	movq	img, %rcx
	addl	72728(%rcx), %eax
	cltd
	movl	$16, %ecx
	idivl	%ecx
	movl	%eax, -20(%rbp)
	movq	input, %rax
	movl	68(%rax), %eax
	movq	img, %rdx
	addl	72732(%rdx), %eax
	cltd
	idivl	%ecx
	movl	%eax, -36(%rbp)
	movl	-36(%rbp), %eax
	movl	$2, %ecx
	subl	-48(%rbp), %ecx
	cltd
	idivl	%ecx
	movl	%eax, -28(%rbp)
	movslq	-28(%rbp), %rdi
	shlq	$0, %rdi
	movslq	-20(%rbp), %rax
	imulq	%rax, %rdi
	callq	malloc
	xorl	%ecx, %ecx
	movq	input, %rdx
	movq	%rax, 3176(%rdx)
	movq	input, %rax
	cmpq	3176(%rax), %rcx
	jne	.LBB36_89
# %bb.88:                               # %if.then372
	movabsq	$.L.str.193, %rdi
	callq	no_mem_exit
.LBB36_89:                              # %if.end373
	movl	$0, -4(%rbp)
.LBB36_90:                              # %for.cond374
                                        # =>This Inner Loop Header: Depth=1
	movl	-4(%rbp), %eax
	movl	-28(%rbp), %ecx
	imull	-20(%rbp), %ecx
	cmpl	%ecx, %eax
	jge	.LBB36_95
# %bb.91:                               # %for.body378
                                        #   in Loop: Header=BB36_90 Depth=1
	movq	-16(%rbp), %rdi
	movabsq	$.L.str.170, %rsi
	leaq	-44(%rbp), %rdx
	movb	$0, %al
	callq	__isoc99_fscanf
	movl	-44(%rbp), %eax
	movq	input, %rcx
	movq	3176(%rcx), %rcx
	movslq	-4(%rbp), %rdx
	movb	%al, (%rcx,%rdx)
	movq	input, %rax
	movq	3176(%rax), %rax
	movslq	-4(%rbp), %rcx
	movzbl	(%rax,%rcx), %eax
	movq	input, %rcx
	cmpl	3152(%rcx), %eax
	jle	.LBB36_93
# %bb.92:                               # %if.then390
                                        #   in Loop: Header=BB36_90 Depth=1
	movq	input, %rcx
	addq	$2952, %rcx             # imm = 0xB88
	movabsq	$errortext, %rdi
	movl	$300, %esi              # imm = 0x12C
	movabsq	$.L.str.194, %rdx
	movb	$0, %al
	callq	snprintf
	movabsq	$errortext, %rdi
	movl	$500, %esi              # imm = 0x1F4
	callq	error
.LBB36_93:                              # %if.end394
                                        #   in Loop: Header=BB36_90 Depth=1
	movq	-16(%rbp), %rdi
	movabsq	$.L.str.190, %rsi
	movb	$0, %al
	callq	__isoc99_fscanf
# %bb.94:                               # %for.inc396
                                        #   in Loop: Header=BB36_90 Depth=1
	movl	-4(%rbp), %eax
	addl	$1, %eax
	movl	%eax, -4(%rbp)
	jmp	.LBB36_90
.LBB36_95:                              # %for.end398
	jmp	.LBB36_96
.LBB36_96:                              # %if.end399
	jmp	.LBB36_97
.LBB36_97:                              # %if.end400
	jmp	.LBB36_98
.LBB36_98:                              # %if.end401
	movq	-16(%rbp), %rdi
	callq	fclose
.LBB36_99:                              # %if.end403
	jmp	.LBB36_100
.LBB36_100:                             # %if.end404
	movq	input, %rax
	cmpl	$0, 2348(%rax)
	je	.LBB36_105
# %bb.101:                              # %land.lhs.true406
	movq	input, %rax
	cmpl	$0, 1320(%rax)
	je	.LBB36_105
# %bb.102:                              # %land.lhs.true408
	movq	input, %rax
	cmpl	$0, 2880(%rax)
	jne	.LBB36_104
# %bb.103:                              # %lor.lhs.false411
	movq	input, %rax
	cmpl	$0, 2884(%rax)
	je	.LBB36_105
.LBB36_104:                             # %if.then414
	movabsq	$errortext, %rdi
	movl	$300, %esi              # imm = 0x12C
	movabsq	$.L.str.195, %rdx
	movb	$0, %al
	callq	snprintf
	movabsq	$errortext, %rdi
	movl	$400, %esi              # imm = 0x190
	callq	error
.LBB36_105:                             # %if.end416
	movq	input, %rax
	cmpl	$0, 2352(%rax)
	je	.LBB36_110
# %bb.106:                              # %land.lhs.true418
	movq	input, %rax
	cmpl	$0, 1320(%rax)
	je	.LBB36_110
# %bb.107:                              # %land.lhs.true421
	movq	input, %rax
	cmpl	$0, 2880(%rax)
	jne	.LBB36_109
# %bb.108:                              # %lor.lhs.false424
	movq	input, %rax
	cmpl	$0, 2884(%rax)
	je	.LBB36_110
.LBB36_109:                             # %if.then427
	movabsq	$errortext, %rdi
	movl	$300, %esi              # imm = 0x12C
	movabsq	$.L.str.196, %rdx
	movb	$0, %al
	callq	snprintf
	movabsq	$errortext, %rdi
	movl	$400, %esi              # imm = 0x190
	callq	error
.LBB36_110:                             # %if.end429
	movq	input, %rax
	cmpl	$0, 2880(%rax)
	je	.LBB36_114
# %bb.111:                              # %land.lhs.true433
	movq	input, %rax
	cmpl	$2, 2880(%rax)
	je	.LBB36_114
# %bb.112:                              # %land.lhs.true437
	movq	input, %rax
	cmpl	$1, 2880(%rax)
	je	.LBB36_114
# %bb.113:                              # %if.then441
	movq	input, %rax
	movl	2880(%rax), %ecx
	movabsq	$errortext, %rdi
	movl	$300, %esi              # imm = 0x12C
	movabsq	$.L.str.197, %rdx
	movb	$0, %al
	callq	snprintf
	movabsq	$errortext, %rdi
	movl	$400, %esi              # imm = 0x190
	callq	error
.LBB36_114:                             # %if.end444
	movq	input, %rax
	cmpl	$0, 2884(%rax)
	je	.LBB36_118
# %bb.115:                              # %land.lhs.true448
	movq	input, %rax
	cmpl	$2, 2884(%rax)
	je	.LBB36_118
# %bb.116:                              # %land.lhs.true452
	movq	input, %rax
	cmpl	$1, 2884(%rax)
	je	.LBB36_118
# %bb.117:                              # %if.then456
	movq	input, %rax
	movl	2884(%rax), %ecx
	movabsq	$errortext, %rdi
	movl	$300, %esi              # imm = 0x12C
	movabsq	$.L.str.198, %rdx
	movb	$0, %al
	callq	snprintf
	movabsq	$errortext, %rdi
	movl	$400, %esi              # imm = 0x190
	callq	error
.LBB36_118:                             # %if.end459
	movq	input, %rax
	cmpl	$0, 2464(%rax)
	jne	.LBB36_121
# %bb.119:                              # %land.lhs.true461
	movq	input, %rax
	cmpl	$0, 2884(%rax)
	je	.LBB36_121
# %bb.120:                              # %if.then464
	movabsq	$errortext, %rdi
	movl	$300, %esi              # imm = 0x12C
	movabsq	$.L.str.199, %rdx
	movb	$0, %al
	callq	snprintf
	movabsq	$errortext, %rdi
	movl	$500, %esi              # imm = 0x1F4
	callq	error
.LBB36_121:                             # %if.end466
	movq	input, %rax
	cmpl	$1, 2464(%rax)
	jle	.LBB36_123
# %bb.122:                              # %if.then470
	movabsq	$errortext, %rdi
	movl	$300, %esi              # imm = 0x12C
	movabsq	$.L.str.200, %rdx
	movb	$0, %al
	callq	snprintf
	movabsq	$errortext, %rdi
	movl	$500, %esi              # imm = 0x1F4
	callq	error
.LBB36_123:                             # %if.end472
	movq	input, %rax
	movl	2912(%rax), %eax
	movq	input, %rcx
	cmpl	36(%rcx), %eax
	jge	.LBB36_125
# %bb.124:                              # %lor.lhs.false475
	movq	input, %rax
	cmpl	$0, 2912(%rax)
	jge	.LBB36_126
.LBB36_125:                             # %if.then479
	movq	input, %rax
	movl	2912(%rax), %ecx
	movq	input, %rax
	movl	36(%rax), %r8d
	movabsq	$errortext, %rdi
	movl	$300, %esi              # imm = 0x12C
	movabsq	$.L.str.201, %rdx
	movb	$0, %al
	callq	snprintf
	movabsq	$errortext, %rdi
	movl	$500, %esi              # imm = 0x1F4
	callq	error
.LBB36_126:                             # %if.end483
	movq	input, %rax
	cmpl	$0, 2912(%rax)
	jle	.LBB36_129
# %bb.127:                              # %land.lhs.true487
	movq	input, %rax
	cmpl	$0, 2360(%rax)
	jne	.LBB36_129
# %bb.128:                              # %if.then490
	movabsq	$errortext, %rdi
	movl	$300, %esi              # imm = 0x12C
	movabsq	$.L.str.202, %rdx
	movb	$0, %al
	callq	snprintf
	movabsq	$errortext, %rdi
	movl	$500, %esi              # imm = 0x1F4
	callq	error
.LBB36_129:                             # %if.end492
	movq	input, %rax
	cmpl	$0, 2880(%rax)
	jne	.LBB36_131
# %bb.130:                              # %lor.lhs.false495
	movq	input, %rax
	cmpl	$0, 2884(%rax)
	je	.LBB36_133
.LBB36_131:                             # %land.lhs.true498
	movq	input, %rax
	cmpl	$1, 2940(%rax)
	jne	.LBB36_133
# %bb.132:                              # %if.then501
	movabsq	$errortext, %rdi
	movl	$300, %esi              # imm = 0x12C
	movabsq	$.L.str.203, %rdx
	movb	$0, %al
	callq	snprintf
	movabsq	$errortext, %rdi
	movl	$500, %esi              # imm = 0x1F4
	callq	error
.LBB36_133:                             # %if.end503
	movq	input, %rax
	cmpl	$1, 2360(%rax)
	je	.LBB36_136
# %bb.134:                              # %land.lhs.true507
	movq	input, %rax
	cmpl	$1, 2940(%rax)
	jne	.LBB36_136
# %bb.135:                              # %if.then511
	movabsq	$errortext, %rdi
	movl	$300, %esi              # imm = 0x12C
	movabsq	$.L.str.204, %rdx
	movb	$0, %al
	callq	snprintf
	movabsq	$errortext, %rdi
	movl	$500, %esi              # imm = 0x1F4
	callq	error
.LBB36_136:                             # %if.end513
	movq	input, %rax
	cmpl	$0, 1284(%rax)
	jg	.LBB36_138
# %bb.137:                              # %lor.lhs.false516
	movq	input, %rax
	cmpl	$0, 1288(%rax)
	jle	.LBB36_140
.LBB36_138:                             # %land.lhs.true519
	movq	input, %rax
	cmpl	$0, 2884(%rax)
	je	.LBB36_140
# %bb.139:                              # %if.then522
	movabsq	$.L.str.205, %rdi
	movb	$0, %al
	callq	printf
	movabsq	$errortext, %rdi
	movl	$500, %esi              # imm = 0x1F4
	callq	error
.LBB36_140:                             # %if.end524
	movq	input, %rax
	cmpl	$0, 2912(%rax)
	jle	.LBB36_143
# %bb.141:                              # %land.lhs.true528
	movq	input, %rax
	cmpl	$0, 1284(%rax)
	jle	.LBB36_143
# %bb.142:                              # %if.then532
	movabsq	$errortext, %rdi
	movl	$300, %esi              # imm = 0x12C
	movabsq	$.L.str.206, %rdx
	movb	$0, %al
	callq	snprintf
	movabsq	$errortext, %rdi
	movl	$500, %esi              # imm = 0x1F4
	callq	error
.LBB36_143:                             # %if.end534
	movq	input, %rax
	cmpl	$0, 3152(%rax)
	jle	.LBB36_148
# %bb.144:                              # %if.then538
	movq	input, %rax
	cmpl	$3, 3156(%rax)
	jl	.LBB36_147
# %bb.145:                              # %land.lhs.true542
	movq	input, %rax
	cmpl	$5, 3156(%rax)
	jg	.LBB36_147
# %bb.146:                              # %if.then546
	movq	input, %rax
	movl	$1, 3152(%rax)
.LBB36_147:                             # %if.end548
	jmp	.LBB36_148
.LBB36_148:                             # %if.end549
	movq	input, %rax
	cmpl	$0, 3236(%rax)
	je	.LBB36_152
# %bb.149:                              # %if.then551
	movq	input, %rax
	movl	68(%rax), %eax
	movq	img, %rcx
	addl	72732(%rcx), %eax
	movq	input, %rcx
	movl	64(%rcx), %ecx
	movq	img, %rdx
	addl	72728(%rdx), %ecx
	imull	%ecx, %eax
	cltd
	movl	$256, %ecx              # imm = 0x100
	idivl	%ecx
	movq	input, %rcx
	cltd
	idivl	3248(%rcx)
	cmpl	$0, %edx
	je	.LBB36_151
# %bb.150:                              # %if.then563
	movabsq	$errortext, %rdi
	movl	$300, %esi              # imm = 0x12C
	movabsq	$.L.str.207, %rdx
	movb	$0, %al
	callq	snprintf
	movabsq	$errortext, %rdi
	movl	$500, %esi              # imm = 0x1F4
	callq	error
.LBB36_151:                             # %if.end565
	jmp	.LBB36_152
.LBB36_152:                             # %if.end566
	movq	input, %rax
	cmpl	$0, 1236(%rax)
	je	.LBB36_158
# %bb.153:                              # %land.lhs.true569
	movq	input, %rax
	cmpl	$0, 1316(%rax)
	je	.LBB36_158
# %bb.154:                              # %land.lhs.true572
	movq	input, %rax
	cmpl	$0, 1228(%rax)
	je	.LBB36_158
# %bb.155:                              # %land.lhs.true574
	movq	input, %rax
	cmpl	$0, 1224(%rax)
	je	.LBB36_158
# %bb.156:                              # %land.lhs.true576
	movq	input, %rax
	cmpl	$0, 3208(%rax)
	je	.LBB36_158
# %bb.157:                              # %if.then579
	movabsq	$.L.str.208, %rdi
	movl	$4294966296, %esi       # imm = 0xFFFFFC18
	callq	error
.LBB36_158:                             # %if.end580
	movq	input, %rax
	cmpl	$0, 1248(%rax)
	jne	.LBB36_162
# %bb.159:                              # %land.lhs.true583
	movq	input, %rax
	cmpl	$2, 36(%rax)
	jge	.LBB36_162
# %bb.160:                              # %land.lhs.true587
	movq	input, %rax
	cmpl	$0, 1236(%rax)
	jle	.LBB36_162
# %bb.161:                              # %if.then591
	movabsq	$.L.str.209, %rdi
	movl	$4294966296, %esi       # imm = 0xFFFFFC18
	callq	error
.LBB36_162:                             # %if.end592
	movq	input, %rax
	cmpl	$0, 3220(%rax)
	je	.LBB36_165
# %bb.163:                              # %land.lhs.true594
	movq	input, %rax
	cmpl	$0, 1272(%rax)
	je	.LBB36_165
# %bb.164:                              # %if.then596
	movabsq	$errortext, %rdi
	movl	$300, %esi              # imm = 0x12C
	movabsq	$.L.str.210, %rdx
	movb	$0, %al
	callq	snprintf
	movabsq	$errortext, %rdi
	movl	$500, %esi              # imm = 0x1F4
	callq	error
.LBB36_165:                             # %if.end598
	movq	input, %rax
	cmpl	$0, 3220(%rax)
	je	.LBB36_169
# %bb.166:                              # %land.lhs.true601
	movq	input, %rax
	cmpl	$100, (%rax)
	jl	.LBB36_168
# %bb.167:                              # %lor.lhs.false604
	movq	input, %rax
	cmpl	$144, (%rax)
	jle	.LBB36_169
.LBB36_168:                             # %if.then608
	movabsq	$errortext, %rdi
	movl	$300, %esi              # imm = 0x12C
	movabsq	$.L.str.211, %rdx
	movl	$100, %ecx
	movl	$144, %r8d
	movb	$0, %al
	callq	snprintf
	movabsq	$errortext, %rdi
	movl	$500, %esi              # imm = 0x1F4
	callq	error
.LBB36_169:                             # %if.end610
	movq	input, %rax
	cmpl	$0, 3256(%rax)
	je	.LBB36_173
# %bb.170:                              # %land.lhs.true612
	movq	input, %rax
	cmpl	$100, (%rax)
	jl	.LBB36_172
# %bb.171:                              # %lor.lhs.false616
	movq	input, %rax
	cmpl	$144, (%rax)
	jle	.LBB36_173
.LBB36_172:                             # %if.then620
	movabsq	$errortext, %rdi
	movl	$300, %esi              # imm = 0x12C
	movabsq	$.L.str.212, %rdx
	movl	$100, %ecx
	movl	$144, %r8d
	movb	$0, %al
	callq	snprintf
	movabsq	$errortext, %rdi
	movl	$500, %esi              # imm = 0x1F4
	callq	error
.LBB36_173:                             # %if.end622
	movq	input, %rax
	cmpl	$2, 72(%rax)
	jne	.LBB36_176
# %bb.174:                              # %land.lhs.true625
	movq	input, %rax
	cmpl	$122, (%rax)
	jge	.LBB36_176
# %bb.175:                              # %if.then629
	movabsq	$errortext, %rdi
	movl	$300, %esi              # imm = 0x12C
	movabsq	$.L.str.213, %rdx
	movl	$122, %ecx
	movl	$144, %r8d
	movb	$0, %al
	callq	snprintf
	movabsq	$errortext, %rdi
	movl	$500, %esi              # imm = 0x1F4
	callq	error
.LBB36_176:                             # %if.end631
	movq	input, %rax
	cmpl	$3, 72(%rax)
	jne	.LBB36_179
# %bb.177:                              # %land.lhs.true635
	movq	input, %rax
	cmpl	$144, (%rax)
	jge	.LBB36_179
# %bb.178:                              # %if.then639
	movabsq	$errortext, %rdi
	movl	$300, %esi              # imm = 0x12C
	movabsq	$.L.str.214, %rdx
	movl	$144, %ecx
	movb	$0, %al
	callq	snprintf
	movabsq	$errortext, %rdi
	movl	$500, %esi              # imm = 0x1F4
	callq	error
.LBB36_179:                             # %if.end641
	movq	input, %rax
	cmpl	$3, 72(%rax)
	je	.LBB36_182
# %bb.180:                              # %land.lhs.true645
	movq	input, %rax
	cmpl	$0, 3328(%rax)
	je	.LBB36_182
# %bb.181:                              # %if.then647
	movabsq	$errortext, %rdi
	movl	$300, %esi              # imm = 0x12C
	movabsq	$.L.str.215, %rdx
	movb	$0, %al
	callq	snprintf
	movabsq	$errortext, %rdi
	movl	$500, %esi              # imm = 0x1F4
	callq	error
.LBB36_182:                             # %if.end649
	callq	ProfileCheck
	callq	LevelCheck
	cmpl	$828892177, -40(%rbp)   # imm = 0x3167E411
	jne	.LBB36_184
.LBB36_183:
	addq	$48, %rsp
	popq	%rbp
	.cfi_def_cfa %rsp, 8
	retq
.LBB36_184:                             # %func_exit
	.cfi_def_cfa %rbp, 16
	callq	detect_breach
	jmp	.LBB36_183
.Lfunc_end36:
	.size	PatchInp.24, .Lfunc_end36-PatchInp.24
	.cfi_endproc
                                        # -- End function
	.globl	GetConfigFileContent.25 # -- Begin function GetConfigFileContent.25
	.p2align	4, 0x90
	.type	GetConfigFileContent.25,@function
GetConfigFileContent.25:                # @GetConfigFileContent.25
	.cfi_startproc
# %bb.0:                                # %entry
	pushq	%rbp
	.cfi_def_cfa_offset 16
	.cfi_offset %rbp, -16
	movq	%rsp, %rbp
	.cfi_def_cfa_register %rbp
	pushq	%rbx
	subq	$56, %rsp
	.cfi_offset %rbx, -24
	movl	$2135991090, -52(%rbp)  # imm = 0x7F50A332
	movq	%rdi, -40(%rbp)
	movq	-40(%rbp), %rdi
	movabsq	$.L.str.12, %rsi
	callq	fopen
	xorl	%ecx, %ecx
	movq	%rax, -24(%rbp)
	cmpq	%rax, %rcx
	jne	.LBB37_2
# %bb.1:                                # %if.then
	movq	-40(%rbp), %rcx
	movabsq	$errortext, %rdi
	movl	$300, %esi              # imm = 0x12C
	movabsq	$.L.str.13, %rdx
	movb	$0, %al
	callq	snprintf
	movq	$0, -32(%rbp)
	jmp	.LBB37_12
.LBB37_2:                               # %if.end
	movq	-24(%rbp), %rdi
	xorl	%esi, %esi
	movl	$2, %edx
	callq	fseek
	xorl	%ecx, %ecx
	cmpl	%eax, %ecx
	je	.LBB37_4
# %bb.3:                                # %if.then4
	movq	-40(%rbp), %rcx
	movabsq	$errortext, %rdi
	movl	$300, %esi              # imm = 0x12C
	movabsq	$.L.str.14, %rdx
	movb	$0, %al
	callq	snprintf
	movq	$0, -32(%rbp)
	jmp	.LBB37_12
.LBB37_4:                               # %if.end6
	movq	-24(%rbp), %rdi
	callq	ftell
	movq	%rax, -16(%rbp)
	cmpq	$0, -16(%rbp)
	jl	.LBB37_6
# %bb.5:                                # %lor.lhs.false
	cmpq	$60000, -16(%rbp)       # imm = 0xEA60
	jle	.LBB37_7
.LBB37_6:                               # %if.then10
	movq	-16(%rbp), %rcx
	movq	-40(%rbp), %r8
	movabsq	$errortext, %rdi
	movl	$300, %esi              # imm = 0x12C
	movabsq	$.L.str.15, %rdx
	movb	$0, %al
	callq	snprintf
	movq	$0, -32(%rbp)
	jmp	.LBB37_12
.LBB37_7:                               # %if.end12
	movq	-24(%rbp), %rdi
	xorl	%esi, %esi
	xorl	%edx, %edx
	callq	fseek
	xorl	%ecx, %ecx
	cmpl	%eax, %ecx
	je	.LBB37_9
# %bb.8:                                # %if.then15
	movq	-40(%rbp), %rcx
	movabsq	$errortext, %rdi
	movl	$300, %esi              # imm = 0x12C
	movabsq	$.L.str.14, %rdx
	movb	$0, %al
	callq	snprintf
	movq	$0, -32(%rbp)
	jmp	.LBB37_12
.LBB37_9:                               # %if.end17
	movq	-16(%rbp), %rdi
	addq	$1, %rdi
	callq	malloc
	movq	%rax, -48(%rbp)
	cmpq	$0, %rax
	jne	.LBB37_11
# %bb.10:                               # %if.then20
	movabsq	$.L.str.16, %rdi
	callq	no_mem_exit
.LBB37_11:                              # %if.end21
	movq	-48(%rbp), %rdi
	movq	-16(%rbp), %rdx
	movq	-24(%rbp), %rcx
	movl	$1, %esi
	callq	fread
	movq	%rax, -16(%rbp)
	movq	-48(%rbp), %rax
	movq	-16(%rbp), %rcx
	movb	$0, (%rax,%rcx)
	movq	-24(%rbp), %rdi
	callq	fclose
	movq	-48(%rbp), %rax
	movq	%rax, -32(%rbp)
.LBB37_12:                              # %return
	movq	-32(%rbp), %rbx
	cmpl	$2135991090, -52(%rbp)  # imm = 0x7F50A332
	jne	.LBB37_14
.LBB37_13:
	movq	%rbx, %rax
	addq	$56, %rsp
	popq	%rbx
	popq	%rbp
	.cfi_def_cfa %rsp, 8
	retq
.LBB37_14:                              # %func_exit
	.cfi_def_cfa %rbp, 16
	callq	detect_breach
	jmp	.LBB37_13
.Lfunc_end37:
	.size	GetConfigFileContent.25, .Lfunc_end37-GetConfigFileContent.25
	.cfi_endproc
                                        # -- End function
	.globl	CeilLog2.26             # -- Begin function CeilLog2.26
	.p2align	4, 0x90
	.type	CeilLog2.26,@function
CeilLog2.26:                            # @CeilLog2.26
	.cfi_startproc
# %bb.0:                                # %entry
	pushq	%rbp
	.cfi_def_cfa_offset 16
	.cfi_offset %rbp, -16
	movq	%rsp, %rbp
	.cfi_def_cfa_register %rbp
	pushq	%rbx
	subq	$24, %rsp
	.cfi_offset %rbx, -24
	movl	$1937757736, -20(%rbp)  # imm = 0x737FD628
	movl	%edi, -24(%rbp)
	movl	-24(%rbp), %eax
	subl	$1, %eax
	movl	%eax, -16(%rbp)
	movl	$0, -12(%rbp)
.LBB38_1:                               # %while.cond
                                        # =>This Inner Loop Header: Depth=1
	cmpl	$0, -16(%rbp)
	je	.LBB38_3
# %bb.2:                                # %while.body
                                        #   in Loop: Header=BB38_1 Depth=1
	movl	-16(%rbp), %eax
	shrl	$1, %eax
	movl	%eax, -16(%rbp)
	movl	-12(%rbp), %eax
	addl	$1, %eax
	movl	%eax, -12(%rbp)
	jmp	.LBB38_1
.LBB38_3:                               # %while.end
	movl	-12(%rbp), %ebx
	cmpl	$1937757736, -20(%rbp)  # imm = 0x737FD628
	jne	.LBB38_5
.LBB38_4:
	movl	%ebx, %eax
	addq	$24, %rsp
	popq	%rbx
	popq	%rbp
	.cfi_def_cfa %rsp, 8
	retq
.LBB38_5:                               # %func_exit
	.cfi_def_cfa %rbp, 16
	callq	detect_breach
	jmp	.LBB38_4
.Lfunc_end38:
	.size	CeilLog2.26, .Lfunc_end38-CeilLog2.26
	.cfi_endproc
                                        # -- End function
	.globl	GetConfigFileContent.27 # -- Begin function GetConfigFileContent.27
	.p2align	4, 0x90
	.type	GetConfigFileContent.27,@function
GetConfigFileContent.27:                # @GetConfigFileContent.27
	.cfi_startproc
# %bb.0:                                # %entry
	pushq	%rbp
	.cfi_def_cfa_offset 16
	.cfi_offset %rbp, -16
	movq	%rsp, %rbp
	.cfi_def_cfa_register %rbp
	pushq	%rbx
	subq	$56, %rsp
	.cfi_offset %rbx, -24
	movl	$91755460, -52(%rbp)    # imm = 0x57813C4
	movq	%rdi, -32(%rbp)
	movq	-32(%rbp), %rdi
	movabsq	$.L.str.12, %rsi
	callq	fopen
	xorl	%ecx, %ecx
	movq	%rax, -24(%rbp)
	cmpq	%rax, %rcx
	jne	.LBB39_2
# %bb.1:                                # %if.then
	movq	-32(%rbp), %rcx
	movabsq	$errortext, %rdi
	movl	$300, %esi              # imm = 0x12C
	movabsq	$.L.str.13, %rdx
	movb	$0, %al
	callq	snprintf
	movq	$0, -40(%rbp)
	jmp	.LBB39_12
.LBB39_2:                               # %if.end
	movq	-24(%rbp), %rdi
	xorl	%esi, %esi
	movl	$2, %edx
	callq	fseek
	xorl	%ecx, %ecx
	cmpl	%eax, %ecx
	je	.LBB39_4
# %bb.3:                                # %if.then4
	movq	-32(%rbp), %rcx
	movabsq	$errortext, %rdi
	movl	$300, %esi              # imm = 0x12C
	movabsq	$.L.str.14, %rdx
	movb	$0, %al
	callq	snprintf
	movq	$0, -40(%rbp)
	jmp	.LBB39_12
.LBB39_4:                               # %if.end6
	movq	-24(%rbp), %rdi
	callq	ftell
	movq	%rax, -16(%rbp)
	cmpq	$0, -16(%rbp)
	jl	.LBB39_6
# %bb.5:                                # %lor.lhs.false
	cmpq	$60000, -16(%rbp)       # imm = 0xEA60
	jle	.LBB39_7
.LBB39_6:                               # %if.then10
	movq	-16(%rbp), %rcx
	movq	-32(%rbp), %r8
	movabsq	$errortext, %rdi
	movl	$300, %esi              # imm = 0x12C
	movabsq	$.L.str.15, %rdx
	movb	$0, %al
	callq	snprintf
	movq	$0, -40(%rbp)
	jmp	.LBB39_12
.LBB39_7:                               # %if.end12
	movq	-24(%rbp), %rdi
	xorl	%esi, %esi
	xorl	%edx, %edx
	callq	fseek
	xorl	%ecx, %ecx
	cmpl	%eax, %ecx
	je	.LBB39_9
# %bb.8:                                # %if.then15
	movq	-32(%rbp), %rcx
	movabsq	$errortext, %rdi
	movl	$300, %esi              # imm = 0x12C
	movabsq	$.L.str.14, %rdx
	movb	$0, %al
	callq	snprintf
	movq	$0, -40(%rbp)
	jmp	.LBB39_12
.LBB39_9:                               # %if.end17
	movq	-16(%rbp), %rdi
	addq	$1, %rdi
	callq	malloc
	movq	%rax, -48(%rbp)
	cmpq	$0, %rax
	jne	.LBB39_11
# %bb.10:                               # %if.then20
	movabsq	$.L.str.16, %rdi
	callq	no_mem_exit
.LBB39_11:                              # %if.end21
	movq	-48(%rbp), %rdi
	movq	-16(%rbp), %rdx
	movq	-24(%rbp), %rcx
	movl	$1, %esi
	callq	fread
	movq	%rax, -16(%rbp)
	movq	-48(%rbp), %rax
	movq	-16(%rbp), %rcx
	movb	$0, (%rax,%rcx)
	movq	-24(%rbp), %rdi
	callq	fclose
	movq	-48(%rbp), %rax
	movq	%rax, -40(%rbp)
.LBB39_12:                              # %return
	movq	-40(%rbp), %rbx
	cmpl	$91755460, -52(%rbp)    # imm = 0x57813C4
	jne	.LBB39_14
.LBB39_13:
	movq	%rbx, %rax
	addq	$56, %rsp
	popq	%rbx
	popq	%rbp
	.cfi_def_cfa %rsp, 8
	retq
.LBB39_14:                              # %func_exit
	.cfi_def_cfa %rbp, 16
	callq	detect_breach
	jmp	.LBB39_13
.Lfunc_end39:
	.size	GetConfigFileContent.27, .Lfunc_end39-GetConfigFileContent.27
	.cfi_endproc
                                        # -- End function
	.p2align	4, 0x90         # -- Begin function ParseContent.28
	.type	ParseContent.28,@function
ParseContent.28:                        # @ParseContent.28
	.cfi_startproc
# %bb.0:                                # %entry
	pushq	%rbp
	.cfi_def_cfa_offset 16
	.cfi_offset %rbp, -16
	movq	%rsp, %rbp
	.cfi_def_cfa_register %rbp
	subq	$80080, %rsp            # imm = 0x138D0
	movl	$1178217383, -44(%rbp)  # imm = 0x463A2BA7
	movq	%rdi, -64(%rbp)
	movl	%esi, -40(%rbp)
	movl	$0, -24(%rbp)
	movl	$0, -28(%rbp)
	movl	$0, -20(%rbp)
	movq	-64(%rbp), %rax
	movq	%rax, -16(%rbp)
	movq	-64(%rbp), %rax
	movslq	-40(%rbp), %rcx
	addq	%rcx, %rax
	movq	%rax, -56(%rbp)
.LBB40_1:                               # %while.cond
                                        # =>This Loop Header: Depth=1
                                        #     Child Loop BB40_6 Depth 2
	movq	-16(%rbp), %rax
	cmpq	-56(%rbp), %rax
	jae	.LBB40_24
# %bb.2:                                # %while.body
                                        #   in Loop: Header=BB40_1 Depth=1
	movq	-16(%rbp), %rax
	movsbl	(%rax), %eax
	addl	$-9, %eax
	movl	%eax, %ecx
	subl	$26, %ecx
	ja	.LBB40_20
# %bb.3:                                # %while.body
                                        #   in Loop: Header=BB40_1 Depth=1
	movq	.LJTI40_0(,%rax,8), %rax
	jmpq	*%rax
.LBB40_4:                               # %sw.bb
                                        #   in Loop: Header=BB40_1 Depth=1
	movq	-16(%rbp), %rax
	addq	$1, %rax
	movq	%rax, -16(%rbp)
	jmp	.LBB40_23
.LBB40_5:                               # %sw.bb1
                                        #   in Loop: Header=BB40_1 Depth=1
	movq	-16(%rbp), %rax
	movb	$0, (%rax)
.LBB40_6:                               # %while.cond2
                                        #   Parent Loop BB40_1 Depth=1
                                        # =>  This Inner Loop Header: Depth=2
	xorl	%eax, %eax
	movq	-16(%rbp), %rcx
	movsbl	(%rcx), %ecx
	cmpl	$10, %ecx
	je	.LBB40_8
# %bb.7:                                # %land.rhs
                                        #   in Loop: Header=BB40_6 Depth=2
	movq	-16(%rbp), %rax
	cmpq	-56(%rbp), %rax
	setb	%al
.LBB40_8:                               # %land.end
                                        #   in Loop: Header=BB40_6 Depth=2
	testb	$1, %al
	jne	.LBB40_9
	jmp	.LBB40_10
.LBB40_9:                               # %while.body8
                                        #   in Loop: Header=BB40_6 Depth=2
	movq	-16(%rbp), %rax
	addq	$1, %rax
	movq	%rax, -16(%rbp)
	jmp	.LBB40_6
.LBB40_10:                              # %while.end
                                        #   in Loop: Header=BB40_1 Depth=1
	movl	$0, -28(%rbp)
	movl	$0, -20(%rbp)
	jmp	.LBB40_23
.LBB40_11:                              # %sw.bb10
                                        #   in Loop: Header=BB40_1 Depth=1
	movl	$0, -20(%rbp)
	movl	$0, -28(%rbp)
	movq	-16(%rbp), %rax
	movq	%rax, %rcx
	addq	$1, %rcx
	movq	%rcx, -16(%rbp)
	movb	$0, (%rax)
	jmp	.LBB40_23
.LBB40_12:                              # %sw.bb12
                                        #   in Loop: Header=BB40_1 Depth=1
	cmpl	$0, -28(%rbp)
	je	.LBB40_14
# %bb.13:                               # %if.then
                                        #   in Loop: Header=BB40_1 Depth=1
	movq	-16(%rbp), %rax
	addq	$1, %rax
	movq	%rax, -16(%rbp)
	jmp	.LBB40_15
.LBB40_14:                              # %if.else
                                        #   in Loop: Header=BB40_1 Depth=1
	movq	-16(%rbp), %rax
	movq	%rax, %rcx
	addq	$1, %rcx
	movq	%rcx, -16(%rbp)
	movb	$0, (%rax)
	movl	$0, -20(%rbp)
.LBB40_15:                              # %if.end
                                        #   in Loop: Header=BB40_1 Depth=1
	jmp	.LBB40_23
.LBB40_16:                              # %sw.bb15
                                        #   in Loop: Header=BB40_1 Depth=1
	movq	-16(%rbp), %rax
	movq	%rax, %rcx
	addq	$1, %rcx
	movq	%rcx, -16(%rbp)
	movb	$0, (%rax)
	cmpl	$0, -28(%rbp)
	jne	.LBB40_18
# %bb.17:                               # %if.then18
                                        #   in Loop: Header=BB40_1 Depth=1
	movq	-16(%rbp), %rax
	movl	-24(%rbp), %ecx
	movl	%ecx, %edx
	addl	$1, %edx
	movl	%edx, -24(%rbp)
	movslq	%ecx, %rcx
	movq	%rax, -80080(%rbp,%rcx,8)
	movl	-20(%rbp), %eax
	xorl	$-1, %eax
	movl	%eax, -20(%rbp)
	jmp	.LBB40_19
.LBB40_18:                              # %if.else21
                                        #   in Loop: Header=BB40_1 Depth=1
	movl	$0, -20(%rbp)
.LBB40_19:                              # %if.end22
                                        #   in Loop: Header=BB40_1 Depth=1
	movl	-28(%rbp), %eax
	xorl	$-1, %eax
	movl	%eax, -28(%rbp)
	jmp	.LBB40_23
.LBB40_20:                              # %sw.default
                                        #   in Loop: Header=BB40_1 Depth=1
	cmpl	$0, -20(%rbp)
	jne	.LBB40_22
# %bb.21:                               # %if.then25
                                        #   in Loop: Header=BB40_1 Depth=1
	movq	-16(%rbp), %rax
	movl	-24(%rbp), %ecx
	movl	%ecx, %edx
	addl	$1, %edx
	movl	%edx, -24(%rbp)
	movslq	%ecx, %rcx
	movq	%rax, -80080(%rbp,%rcx,8)
	movl	-20(%rbp), %eax
	xorl	$-1, %eax
	movl	%eax, -20(%rbp)
.LBB40_22:                              # %if.end30
                                        #   in Loop: Header=BB40_1 Depth=1
	movq	-16(%rbp), %rax
	addq	$1, %rax
	movq	%rax, -16(%rbp)
.LBB40_23:                              # %sw.epilog
                                        #   in Loop: Header=BB40_1 Depth=1
	jmp	.LBB40_1
.LBB40_24:                              # %while.end32
	movl	-24(%rbp), %eax
	addl	$-1, %eax
	movl	%eax, -24(%rbp)
	movl	$0, -4(%rbp)
.LBB40_25:                              # %for.cond
                                        # =>This Inner Loop Header: Depth=1
	movl	-4(%rbp), %eax
	cmpl	-24(%rbp), %eax
	jge	.LBB40_43
# %bb.26:                               # %for.body
                                        #   in Loop: Header=BB40_25 Depth=1
	movslq	-4(%rbp), %rax
	movq	-80080(%rbp,%rax,8), %rdi
	callq	ParameterNameToMapIndex
	xorl	%ecx, %ecx
	movl	%eax, -32(%rbp)
	cmpl	%eax, %ecx
	jle	.LBB40_28
# %bb.27:                               # %if.then39
                                        #   in Loop: Header=BB40_25 Depth=1
	movslq	-4(%rbp), %rax
	movq	-80080(%rbp,%rax,8), %rcx
	movabsq	$errortext, %rdi
	movl	$300, %esi              # imm = 0x12C
	movabsq	$.L.str.167, %rdx
	movb	$0, %al
	callq	snprintf
	movabsq	$errortext, %rdi
	movl	$300, %esi              # imm = 0x12C
	callq	error
.LBB40_28:                              # %if.end43
                                        #   in Loop: Header=BB40_25 Depth=1
	movl	-4(%rbp), %eax
	addl	$1, %eax
	cltq
	movq	-80080(%rbp,%rax,8), %rsi
	movl	$.L.str.168, %edi
	callq	strcmp
	cmpl	$0, %eax
	je	.LBB40_30
# %bb.29:                               # %if.then48
                                        #   in Loop: Header=BB40_25 Depth=1
	movabsq	$errortext, %rdi
	movl	$300, %esi              # imm = 0x12C
	movabsq	$.L.str.169, %rdx
	movb	$0, %al
	callq	snprintf
	movabsq	$errortext, %rdi
	movl	$300, %esi              # imm = 0x12C
	callq	error
.LBB40_30:                              # %if.end50
                                        #   in Loop: Header=BB40_25 Depth=1
	movslq	-32(%rbp), %rax
	imulq	$56, %rax, %rax
	movl	Map+16(%rax), %eax
	testl	%eax, %eax
	je	.LBB40_33
	jmp	.LBB40_31
.LBB40_31:                              # %if.end50
                                        #   in Loop: Header=BB40_25 Depth=1
	movl	%eax, %ecx
	subl	$1, %ecx
	je	.LBB40_36
	jmp	.LBB40_32
.LBB40_32:                              # %if.end50
                                        #   in Loop: Header=BB40_25 Depth=1
	subl	$2, %eax
	je	.LBB40_37
	jmp	.LBB40_40
.LBB40_33:                              # %sw.bb53
                                        #   in Loop: Header=BB40_25 Depth=1
	movl	-4(%rbp), %eax
	addl	$2, %eax
	cltq
	movq	-80080(%rbp,%rax,8), %rdi
	movabsq	$.L.str.170, %rsi
	leaq	-36(%rbp), %rdx
	movb	$0, %al
	callq	__isoc99_sscanf
	movl	$1, %ecx
	cmpl	%eax, %ecx
	je	.LBB40_35
# %bb.34:                               # %if.then60
                                        #   in Loop: Header=BB40_25 Depth=1
	movslq	-4(%rbp), %rax
	movq	-80080(%rbp,%rax,8), %rcx
	movl	-4(%rbp), %eax
	addl	$2, %eax
	cltq
	movq	-80080(%rbp,%rax,8), %r8
	movabsq	$errortext, %rdi
	movl	$300, %esi              # imm = 0x12C
	movabsq	$.L.str.171, %rdx
	movb	$0, %al
	callq	snprintf
	movabsq	$errortext, %rdi
	movl	$300, %esi              # imm = 0x12C
	callq	error
.LBB40_35:                              # %if.end67
                                        #   in Loop: Header=BB40_25 Depth=1
	movl	-36(%rbp), %eax
	movslq	-32(%rbp), %rcx
	imulq	$56, %rcx, %rcx
	movabsq	$Map, %rdx
	addq	%rcx, %rdx
	movq	8(%rdx), %rcx
	movl	%eax, (%rcx)
	movabsq	$.L.str.172, %rdi
	movb	$0, %al
	callq	printf
	jmp	.LBB40_41
.LBB40_36:                              # %sw.bb71
                                        #   in Loop: Header=BB40_25 Depth=1
	movslq	-32(%rbp), %rax
	imulq	$56, %rax, %rax
	movabsq	$Map, %rcx
	addq	%rax, %rcx
	movq	8(%rcx), %rdi
	movl	-4(%rbp), %eax
	addl	$2, %eax
	cltq
	movq	-80080(%rbp,%rax,8), %rsi
	movl	$200, %edx
	callq	strncpy
	movabsq	$.L.str.172, %rdi
	movb	$0, %al
	callq	printf
	jmp	.LBB40_41
.LBB40_37:                              # %sw.bb80
                                        #   in Loop: Header=BB40_25 Depth=1
	movl	-4(%rbp), %eax
	addl	$2, %eax
	cltq
	movq	-80080(%rbp,%rax,8), %rdi
	movabsq	$.L.str.173, %rsi
	leaq	-72(%rbp), %rdx
	movb	$0, %al
	callq	__isoc99_sscanf
	movl	$1, %ecx
	cmpl	%eax, %ecx
	je	.LBB40_39
# %bb.38:                               # %if.then87
                                        #   in Loop: Header=BB40_25 Depth=1
	movslq	-4(%rbp), %rax
	movq	-80080(%rbp,%rax,8), %rcx
	movl	-4(%rbp), %eax
	addl	$2, %eax
	cltq
	movq	-80080(%rbp,%rax,8), %r8
	movabsq	$errortext, %rdi
	movl	$300, %esi              # imm = 0x12C
	movabsq	$.L.str.171, %rdx
	movb	$0, %al
	callq	snprintf
	movabsq	$errortext, %rdi
	movl	$300, %esi              # imm = 0x12C
	callq	error
.LBB40_39:                              # %if.end94
                                        #   in Loop: Header=BB40_25 Depth=1
	vmovsd	-72(%rbp), %xmm0        # xmm0 = mem[0],zero
	movslq	-32(%rbp), %rax
	imulq	$56, %rax, %rax
	movabsq	$Map, %rcx
	addq	%rax, %rcx
	movq	8(%rcx), %rax
	vmovsd	%xmm0, (%rax)
	movabsq	$.L.str.172, %rdi
	movb	$0, %al
	callq	printf
	jmp	.LBB40_41
.LBB40_40:                              # %sw.default99
                                        #   in Loop: Header=BB40_25 Depth=1
	jmp	.LBB40_41
.LBB40_41:                              # %sw.epilog100
                                        #   in Loop: Header=BB40_25 Depth=1
	jmp	.LBB40_42
.LBB40_42:                              # %for.inc
                                        #   in Loop: Header=BB40_25 Depth=1
	movl	-4(%rbp), %eax
	addl	$3, %eax
	movl	%eax, -4(%rbp)
	jmp	.LBB40_25
.LBB40_43:                              # %for.end
	movabsq	$configinput, %rsi
	movq	input, %rdi
	movl	$3592, %edx             # imm = 0xE08
	callq	memcpy
	cmpl	$1178217383, -44(%rbp)  # imm = 0x463A2BA7
	jne	.LBB40_45
.LBB40_44:
	addq	$80080, %rsp            # imm = 0x138D0
	popq	%rbp
	.cfi_def_cfa %rsp, 8
	retq
.LBB40_45:                              # %func_exit
	.cfi_def_cfa %rbp, 16
	callq	detect_breach
	jmp	.LBB40_44
.Lfunc_end40:
	.size	ParseContent.28, .Lfunc_end40-ParseContent.28
	.cfi_endproc
	.section	.rodata,"a",@progbits
	.p2align	3
.LJTI40_0:
	.quad	.LBB40_12
	.quad	.LBB40_11
	.quad	.LBB40_20
	.quad	.LBB40_20
	.quad	.LBB40_4
	.quad	.LBB40_20
	.quad	.LBB40_20
	.quad	.LBB40_20
	.quad	.LBB40_20
	.quad	.LBB40_20
	.quad	.LBB40_20
	.quad	.LBB40_20
	.quad	.LBB40_20
	.quad	.LBB40_20
	.quad	.LBB40_20
	.quad	.LBB40_20
	.quad	.LBB40_20
	.quad	.LBB40_20
	.quad	.LBB40_20
	.quad	.LBB40_20
	.quad	.LBB40_20
	.quad	.LBB40_20
	.quad	.LBB40_20
	.quad	.LBB40_12
	.quad	.LBB40_20
	.quad	.LBB40_16
	.quad	.LBB40_5
                                        # -- End function
	.section	.rodata.cst8,"aM",@progbits,8
	.p2align	3               # -- Begin function PatchInp.29
.LCPI41_0:
	.quad	4629137466983448576     # double 30
	.text
	.p2align	4, 0x90
	.type	PatchInp.29,@function
PatchInp.29:                            # @PatchInp.29
	.cfi_startproc
# %bb.0:                                # %entry
	pushq	%rbp
	.cfi_def_cfa_offset 16
	.cfi_offset %rbp, -16
	movq	%rsp, %rbp
	.cfi_def_cfa_register %rbp
	subq	$48, %rsp
	movl	$2094516854, -40(%rbp)  # imm = 0x7CD7CA76
	movq	input, %rax
	movl	3296(%rax), %eax
	subl	$8, %eax
	imull	$6, %eax, %eax
	movl	%eax, -36(%rbp)
	movq	$0, -16(%rbp)
	movq	input, %rax
	movl	$1, 3224(%rax)
	movl	-36(%rbp), %edi
	callq	TestEncoderParams
	movq	input, %rax
	vmovsd	2424(%rax), %xmm0       # xmm0 = mem[0],zero
	vxorps	%xmm1, %xmm1, %xmm1
	vucomisd	%xmm1, %xmm0
	jne	.LBB41_2
	jp	.LBB41_2
# %bb.1:                                # %if.then
	vmovsd	.LCPI41_0(%rip), %xmm0  # xmm0 = mem[0],zero
	movq	input, %rax
	vmovsd	%xmm0, 2424(%rax)
.LBB41_2:                               # %if.end
	movq	input, %rax
	movl	$16, 80(%rax)
	movq	input, %rax
	movl	$16, 84(%rax)
	movq	input, %rax
	movl	$16, 88(%rax)
	movq	input, %rax
	movl	$16, 92(%rax)
	movq	input, %rax
	movl	$16, 96(%rax)
	movq	input, %rax
	movl	$8, 100(%rax)
	movq	input, %rax
	movl	$8, 104(%rax)
	movq	input, %rax
	movl	$16, 108(%rax)
	movq	input, %rax
	movl	$8, 112(%rax)
	movq	input, %rax
	movl	$8, 116(%rax)
	movq	input, %rax
	movl	$8, 120(%rax)
	movq	input, %rax
	movl	$4, 124(%rax)
	movq	input, %rax
	movl	$4, 128(%rax)
	movq	input, %rax
	movl	$8, 132(%rax)
	movq	input, %rax
	movl	$4, 136(%rax)
	movq	input, %rax
	movl	$4, 140(%rax)
	movq	input, %rax
	movl	$4, 144(%rax)
	movq	input, %rax
	movl	$4, 148(%rax)
	movq	input, %rax
	movl	$4, 152(%rax)
	movq	input, %rax
	movl	$4, 156(%rax)
	movq	input, %rax
	movl	$4, 160(%rax)
	movq	input, %rax
	movl	$2, 164(%rax)
	movq	input, %rax
	movl	$2, 168(%rax)
	movq	input, %rax
	movl	$4, 172(%rax)
	movq	input, %rax
	movl	$2, 176(%rax)
	movq	input, %rax
	movl	$2, 180(%rax)
	movq	input, %rax
	movl	$2, 184(%rax)
	movq	input, %rax
	movl	$1, 188(%rax)
	movq	input, %rax
	movl	$1, 192(%rax)
	movq	input, %rax
	movl	$2, 196(%rax)
	movq	input, %rax
	movl	$1, 200(%rax)
	movq	input, %rax
	movl	$1, 204(%rax)
	movq	input, %rax
	cmpl	$0, 1316(%rax)
	je	.LBB41_4
# %bb.3:                                # %cond.true
	movq	input, %rax
	movl	1236(%rax), %eax
	addl	$1, %eax
	jmp	.LBB41_5
.LBB41_4:                               # %cond.false
	movl	$1, %eax
	jmp	.LBB41_5
.LBB41_5:                               # %cond.end
	movl	%eax, -28(%rbp)
	movq	input, %rax
	cmpl	$4, 52(%rax)
	jge	.LBB41_10
# %bb.6:                                # %if.then96
	movq	input, %rax
	movl	8(%rax), %edi
	imull	-28(%rbp), %edi
	callq	CeilLog2
	subl	$4, %eax
	cmpl	$0, %eax
	jle	.LBB41_8
# %bb.7:                                # %cond.true101
	movq	input, %rax
	movl	8(%rax), %edi
	imull	-28(%rbp), %edi
	callq	CeilLog2
	subl	$4, %eax
	jmp	.LBB41_9
.LBB41_8:                               # %cond.false106
	xorl	%eax, %eax
	jmp	.LBB41_9
.LBB41_9:                               # %cond.end107
	movl	%eax, log2_max_frame_num_minus4
	jmp	.LBB41_11
.LBB41_10:                              # %if.else
	movq	input, %rax
	movl	52(%rax), %eax
	subl	$4, %eax
	movl	%eax, log2_max_frame_num_minus4
.LBB41_11:                              # %if.end111
	movq	input, %rax
	movl	8(%rax), %edi
	shll	$1, %edi
	movq	input, %rax
	movl	20(%rax), %eax
	addl	$1, %eax
	imull	%eax, %edi
	callq	CeilLog2
	subl	$4, %eax
	cmpl	$0, %eax
	jle	.LBB41_13
# %bb.12:                               # %cond.true119
	movq	input, %rax
	movl	8(%rax), %edi
	shll	$1, %edi
	movq	input, %rax
	movl	20(%rax), %eax
	addl	$1, %eax
	imull	%eax, %edi
	callq	CeilLog2
	subl	$4, %eax
	jmp	.LBB41_14
.LBB41_13:                              # %cond.false127
	xorl	%eax, %eax
	jmp	.LBB41_14
.LBB41_14:                              # %cond.end128
	movl	%eax, log2_max_pic_order_cnt_lsb_minus4
	movq	input, %rax
	movl	1236(%rax), %eax
	movq	input, %rcx
	cmpl	20(%rcx), %eax
	jle	.LBB41_16
# %bb.15:                               # %if.then133
	movq	input, %rax
	movl	1236(%rax), %ecx
	movabsq	$errortext, %rdi
