	.text
	.file	"context_ini.c"
	.globl	create_context_memory   # -- Begin function create_context_memory
	.p2align	4, 0x90
	.type	create_context_memory,@function
create_context_memory:                  # @create_context_memory
	.cfi_startproc
# %bb.0:                                # %rand_bb
	pushq	%rbp
	.cfi_def_cfa_offset 16
	.cfi_offset %rbp, -16
	movq	%rsp, %rbp
	.cfi_def_cfa_register %rbp
	callq	get_urand
	cmpl	$0, %eax
	jne	.LBB0_17
# %bb.1:                                # %func_create_context_memory.7
	callq	create_context_memory.7
	popq	%rbp
	.cfi_def_cfa %rsp, 8
	retq
.LBB0_2:                                # %func_create_context_memory.26
	.cfi_def_cfa %rbp, 16
	callq	create_context_memory.26
	popq	%rbp
	.cfi_def_cfa %rsp, 8
	retq
.LBB0_3:                                # %func_create_context_memory.49
	.cfi_def_cfa %rbp, 16
	callq	create_context_memory.49
	popq	%rbp
	.cfi_def_cfa %rsp, 8
	retq
.LBB0_4:                                # %func_create_context_memory.54
	.cfi_def_cfa %rbp, 16
	callq	create_context_memory.54
	popq	%rbp
	.cfi_def_cfa %rsp, 8
	retq
.LBB0_5:                                # %func_create_context_memory.55
	.cfi_def_cfa %rbp, 16
	callq	create_context_memory.55
	popq	%rbp
	.cfi_def_cfa %rsp, 8
	retq
.LBB0_6:                                # %func_create_context_memory.56
	.cfi_def_cfa %rbp, 16
	callq	create_context_memory.56
	popq	%rbp
	.cfi_def_cfa %rsp, 8
	retq
.LBB0_7:                                # %func_create_context_memory.61
	.cfi_def_cfa %rbp, 16
	callq	create_context_memory.61
	popq	%rbp
	.cfi_def_cfa %rsp, 8
	retq
.LBB0_8:                                # %func_create_context_memory.63
	.cfi_def_cfa %rbp, 16
	callq	create_context_memory.63
	popq	%rbp
	.cfi_def_cfa %rsp, 8
	retq
.LBB0_9:                                # %func_create_context_memory.69
	.cfi_def_cfa %rbp, 16
	callq	create_context_memory.69
	popq	%rbp
	.cfi_def_cfa %rsp, 8
	retq
.LBB0_10:                               # %func_create_context_memory.71
	.cfi_def_cfa %rbp, 16
	callq	create_context_memory.71
	popq	%rbp
	.cfi_def_cfa %rsp, 8
	retq
.LBB0_11:                               # %func_create_context_memory.78
	.cfi_def_cfa %rbp, 16
	callq	create_context_memory.78
	popq	%rbp
	.cfi_def_cfa %rsp, 8
	retq
.LBB0_12:                               # %func_create_context_memory.79
	.cfi_def_cfa %rbp, 16
	callq	create_context_memory.79
	popq	%rbp
	.cfi_def_cfa %rsp, 8
	retq
.LBB0_13:                               # %func_create_context_memory.81
	.cfi_def_cfa %rbp, 16
	callq	create_context_memory.81
	popq	%rbp
	.cfi_def_cfa %rsp, 8
	retq
.LBB0_14:                               # %func_create_context_memory.82
	.cfi_def_cfa %rbp, 16
	callq	create_context_memory.82
	popq	%rbp
	.cfi_def_cfa %rsp, 8
	retq
.LBB0_15:                               # %func_create_context_memory.83
	.cfi_def_cfa %rbp, 16
	callq	create_context_memory.83
	popq	%rbp
	.cfi_def_cfa %rsp, 8
	retq
.LBB0_16:                               # %func_create_context_memory.84
	.cfi_def_cfa %rbp, 16
	callq	create_context_memory.84
	popq	%rbp
	.cfi_def_cfa %rsp, 8
	retq
.LBB0_17:                               # %ctrl0
	.cfi_def_cfa %rbp, 16
	cmpl	$1, %eax
	je	.LBB0_2
# %bb.18:                               # %ctrl1
	cmpl	$2, %eax
	je	.LBB0_3
# %bb.19:                               # %ctrl2
	cmpl	$3, %eax
	je	.LBB0_4
# %bb.20:                               # %ctrl3
	cmpl	$4, %eax
	je	.LBB0_5
# %bb.21:                               # %ctrl4
	cmpl	$5, %eax
	je	.LBB0_6
# %bb.22:                               # %ctrl5
	cmpl	$6, %eax
	je	.LBB0_7
# %bb.23:                               # %ctrl6
	cmpl	$7, %eax
	je	.LBB0_8
# %bb.24:                               # %ctrl7
	cmpl	$8, %eax
	je	.LBB0_9
# %bb.25:                               # %ctrl8
	cmpl	$9, %eax
	je	.LBB0_10
# %bb.26:                               # %ctrl9
	cmpl	$10, %eax
	je	.LBB0_11
# %bb.27:                               # %ctrl10
	cmpl	$11, %eax
	je	.LBB0_12
# %bb.28:                               # %ctrl11
	cmpl	$12, %eax
	je	.LBB0_13
# %bb.29:                               # %ctrl12
	cmpl	$13, %eax
	je	.LBB0_14
# %bb.30:                               # %ctrl13
	cmpl	$14, %eax
	je	.LBB0_15
	jmp	.LBB0_16
.Lfunc_end0:
	.size	create_context_memory, .Lfunc_end0-create_context_memory
	.cfi_endproc
                                        # -- End function
	.globl	free_context_memory     # -- Begin function free_context_memory
	.p2align	4, 0x90
	.type	free_context_memory,@function
free_context_memory:                    # @free_context_memory
	.cfi_startproc
# %bb.0:                                # %rand_bb
	pushq	%rbp
	.cfi_def_cfa_offset 16
	.cfi_offset %rbp, -16
	movq	%rsp, %rbp
	.cfi_def_cfa_register %rbp
	callq	get_urand
	cmpl	$0, %eax
	jne	.LBB1_2
# %bb.1:                                # %func_free_context_memory.1
	callq	free_context_memory.1
	popq	%rbp
	.cfi_def_cfa %rsp, 8
	retq
.LBB1_2:                                # %func_free_context_memory.34
	.cfi_def_cfa %rbp, 16
	callq	free_context_memory.34
	popq	%rbp
	.cfi_def_cfa %rsp, 8
	retq
.Lfunc_end1:
	.size	free_context_memory, .Lfunc_end1-free_context_memory
	.cfi_endproc
                                        # -- End function
	.globl	SetCtxModelNumber       # -- Begin function SetCtxModelNumber
	.p2align	4, 0x90
	.type	SetCtxModelNumber,@function
SetCtxModelNumber:                      # @SetCtxModelNumber
	.cfi_startproc
# %bb.0:                                # %rand_bb
	pushq	%rbp
	.cfi_def_cfa_offset 16
	.cfi_offset %rbp, -16
	movq	%rsp, %rbp
	.cfi_def_cfa_register %rbp
	callq	get_urand
	cmpl	$0, %eax
	jne	.LBB2_7
# %bb.1:                                # %func_SetCtxModelNumber.6
	callq	SetCtxModelNumber.6
	popq	%rbp
	.cfi_def_cfa %rsp, 8
	retq
.LBB2_2:                                # %func_SetCtxModelNumber.9
	.cfi_def_cfa %rbp, 16
	callq	SetCtxModelNumber.9
	popq	%rbp
	.cfi_def_cfa %rsp, 8
	retq
.LBB2_3:                                # %func_SetCtxModelNumber.10
	.cfi_def_cfa %rbp, 16
	callq	SetCtxModelNumber.10
	popq	%rbp
	.cfi_def_cfa %rsp, 8
	retq
.LBB2_4:                                # %func_SetCtxModelNumber.11
	.cfi_def_cfa %rbp, 16
	callq	SetCtxModelNumber.11
	popq	%rbp
	.cfi_def_cfa %rsp, 8
	retq
.LBB2_5:                                # %func_SetCtxModelNumber.21
	.cfi_def_cfa %rbp, 16
	callq	SetCtxModelNumber.21
	popq	%rbp
	.cfi_def_cfa %rsp, 8
	retq
.LBB2_6:                                # %func_SetCtxModelNumber.25
	.cfi_def_cfa %rbp, 16
	callq	SetCtxModelNumber.25
	popq	%rbp
	.cfi_def_cfa %rsp, 8
	retq
.LBB2_7:                                # %ctrl0
	.cfi_def_cfa %rbp, 16
	cmpl	$1, %eax
	je	.LBB2_2
# %bb.8:                                # %ctrl1
	cmpl	$2, %eax
	je	.LBB2_3
# %bb.9:                                # %ctrl2
	cmpl	$3, %eax
	je	.LBB2_4
# %bb.10:                               # %ctrl3
	cmpl	$4, %eax
	je	.LBB2_5
	jmp	.LBB2_6
.Lfunc_end2:
	.size	SetCtxModelNumber, .Lfunc_end2-SetCtxModelNumber
	.cfi_endproc
                                        # -- End function
	.globl	init_contexts           # -- Begin function init_contexts
	.p2align	4, 0x90
	.type	init_contexts,@function
init_contexts:                          # @init_contexts
	.cfi_startproc
# %bb.0:                                # %rand_bb
	pushq	%rbp
	.cfi_def_cfa_offset 16
	.cfi_offset %rbp, -16
	movq	%rsp, %rbp
	.cfi_def_cfa_register %rbp
	callq	get_urand
	cmpl	$0, %eax
	jne	.LBB3_17
# %bb.1:                                # %func_init_contexts.13
	callq	init_contexts.13
	popq	%rbp
	.cfi_def_cfa %rsp, 8
	retq
.LBB3_2:                                # %func_init_contexts.14
	.cfi_def_cfa %rbp, 16
	callq	init_contexts.14
	popq	%rbp
	.cfi_def_cfa %rsp, 8
	retq
.LBB3_3:                                # %func_init_contexts.16
	.cfi_def_cfa %rbp, 16
	callq	init_contexts.16
	popq	%rbp
	.cfi_def_cfa %rsp, 8
	retq
.LBB3_4:                                # %func_init_contexts.18
	.cfi_def_cfa %rbp, 16
	callq	init_contexts.18
	popq	%rbp
	.cfi_def_cfa %rsp, 8
	retq
.LBB3_5:                                # %func_init_contexts.20
	.cfi_def_cfa %rbp, 16
	callq	init_contexts.20
	popq	%rbp
	.cfi_def_cfa %rsp, 8
	retq
.LBB3_6:                                # %func_init_contexts.22
	.cfi_def_cfa %rbp, 16
	callq	init_contexts.22
	popq	%rbp
	.cfi_def_cfa %rsp, 8
	retq
.LBB3_7:                                # %func_init_contexts.36
	.cfi_def_cfa %rbp, 16
	callq	init_contexts.36
	popq	%rbp
	.cfi_def_cfa %rsp, 8
	retq
.LBB3_8:                                # %func_init_contexts.46
	.cfi_def_cfa %rbp, 16
	callq	init_contexts.46
	popq	%rbp
	.cfi_def_cfa %rsp, 8
	retq
.LBB3_9:                                # %func_init_contexts.47
	.cfi_def_cfa %rbp, 16
	callq	init_contexts.47
	popq	%rbp
	.cfi_def_cfa %rsp, 8
	retq
.LBB3_10:                               # %func_init_contexts.48
	.cfi_def_cfa %rbp, 16
	callq	init_contexts.48
	popq	%rbp
	.cfi_def_cfa %rsp, 8
	retq
.LBB3_11:                               # %func_init_contexts.53
	.cfi_def_cfa %rbp, 16
	callq	init_contexts.53
	popq	%rbp
	.cfi_def_cfa %rsp, 8
	retq
.LBB3_12:                               # %func_init_contexts.58
	.cfi_def_cfa %rbp, 16
	callq	init_contexts.58
	popq	%rbp
	.cfi_def_cfa %rsp, 8
	retq
.LBB3_13:                               # %func_init_contexts.59
	.cfi_def_cfa %rbp, 16
	callq	init_contexts.59
	popq	%rbp
	.cfi_def_cfa %rsp, 8
	retq
.LBB3_14:                               # %func_init_contexts.60
	.cfi_def_cfa %rbp, 16
	callq	init_contexts.60
	popq	%rbp
	.cfi_def_cfa %rsp, 8
	retq
.LBB3_15:                               # %func_init_contexts.67
	.cfi_def_cfa %rbp, 16
	callq	init_contexts.67
	popq	%rbp
	.cfi_def_cfa %rsp, 8
	retq
.LBB3_16:                               # %func_init_contexts.74
	.cfi_def_cfa %rbp, 16
	callq	init_contexts.74
	popq	%rbp
	.cfi_def_cfa %rsp, 8
	retq
.LBB3_17:                               # %ctrl0
	.cfi_def_cfa %rbp, 16
	cmpl	$1, %eax
	je	.LBB3_2
# %bb.18:                               # %ctrl1
	cmpl	$2, %eax
	je	.LBB3_3
# %bb.19:                               # %ctrl2
	cmpl	$3, %eax
	je	.LBB3_4
# %bb.20:                               # %ctrl3
	cmpl	$4, %eax
	je	.LBB3_5
# %bb.21:                               # %ctrl4
	cmpl	$5, %eax
	je	.LBB3_6
# %bb.22:                               # %ctrl5
	cmpl	$6, %eax
	je	.LBB3_7
# %bb.23:                               # %ctrl6
	cmpl	$7, %eax
	je	.LBB3_8
# %bb.24:                               # %ctrl7
	cmpl	$8, %eax
	je	.LBB3_9
# %bb.25:                               # %ctrl8
	cmpl	$9, %eax
	je	.LBB3_10
# %bb.26:                               # %ctrl9
	cmpl	$10, %eax
	je	.LBB3_11
# %bb.27:                               # %ctrl10
	cmpl	$11, %eax
	je	.LBB3_12
# %bb.28:                               # %ctrl11
	cmpl	$12, %eax
	je	.LBB3_13
# %bb.29:                               # %ctrl12
	cmpl	$13, %eax
	je	.LBB3_14
# %bb.30:                               # %ctrl13
	cmpl	$14, %eax
	je	.LBB3_15
	jmp	.LBB3_16
.Lfunc_end3:
	.size	init_contexts, .Lfunc_end3-init_contexts
	.cfi_endproc
                                        # -- End function
	.globl	XRate                   # -- Begin function XRate
	.p2align	4, 0x90
	.type	XRate,@function
XRate:                                  # @XRate
	.cfi_startproc
# %bb.0:                                # %rand_bb
	pushq	%rbp
	.cfi_def_cfa_offset 16
	.cfi_offset %rbp, -16
	movq	%rsp, %rbp
	.cfi_def_cfa_register %rbp
	pushq	%r14
	pushq	%rbx
	.cfi_offset %rbx, -32
	.cfi_offset %r14, -24
	movq	%rsi, %r14
	movq	%rdi, %rbx
	callq	get_urand
	cmpl	$0, %eax
	jne	.LBB4_17
# %bb.1:                                # %func_XRate.3
	movq	%rbx, %rdi
	movq	%r14, %rsi
	callq	XRate.3
	popq	%rbx
	popq	%r14
	popq	%rbp
	.cfi_def_cfa %rsp, 8
	retq
.LBB4_2:                                # %func_XRate.5
	.cfi_def_cfa %rbp, 16
	movq	%rbx, %rdi
	movq	%r14, %rsi
	callq	XRate.5
	popq	%rbx
	popq	%r14
	popq	%rbp
	.cfi_def_cfa %rsp, 8
	retq
.LBB4_3:                                # %func_XRate.17
	.cfi_def_cfa %rbp, 16
	movq	%rbx, %rdi
	movq	%r14, %rsi
	callq	XRate.17
	popq	%rbx
	popq	%r14
	popq	%rbp
	.cfi_def_cfa %rsp, 8
	retq
.LBB4_4:                                # %func_XRate.19
	.cfi_def_cfa %rbp, 16
	movq	%rbx, %rdi
	movq	%r14, %rsi
	callq	XRate.19
	popq	%rbx
	popq	%r14
	popq	%rbp
	.cfi_def_cfa %rsp, 8
	retq
.LBB4_5:                                # %func_XRate.24
	.cfi_def_cfa %rbp, 16
	movq	%rbx, %rdi
	movq	%r14, %rsi
	callq	XRate.24
	popq	%rbx
	popq	%r14
	popq	%rbp
	.cfi_def_cfa %rsp, 8
	retq
.LBB4_6:                                # %func_XRate.41
	.cfi_def_cfa %rbp, 16
	movq	%rbx, %rdi
	movq	%r14, %rsi
	callq	XRate.41
	popq	%rbx
	popq	%r14
	popq	%rbp
	.cfi_def_cfa %rsp, 8
	retq
.LBB4_7:                                # %func_XRate.44
	.cfi_def_cfa %rbp, 16
	movq	%rbx, %rdi
	movq	%r14, %rsi
	callq	XRate.44
	popq	%rbx
	popq	%r14
	popq	%rbp
	.cfi_def_cfa %rsp, 8
	retq
.LBB4_8:                                # %func_XRate.50
	.cfi_def_cfa %rbp, 16
	movq	%rbx, %rdi
	movq	%r14, %rsi
	callq	XRate.50
	popq	%rbx
	popq	%r14
	popq	%rbp
	.cfi_def_cfa %rsp, 8
	retq
.LBB4_9:                                # %func_XRate.57
	.cfi_def_cfa %rbp, 16
	movq	%rbx, %rdi
	movq	%r14, %rsi
	callq	XRate.57
	popq	%rbx
	popq	%r14
	popq	%rbp
	.cfi_def_cfa %rsp, 8
	retq
.LBB4_10:                               # %func_XRate.64
	.cfi_def_cfa %rbp, 16
	movq	%rbx, %rdi
	movq	%r14, %rsi
	callq	XRate.64
	popq	%rbx
	popq	%r14
	popq	%rbp
	.cfi_def_cfa %rsp, 8
	retq
.LBB4_11:                               # %func_XRate.65
	.cfi_def_cfa %rbp, 16
	movq	%rbx, %rdi
	movq	%r14, %rsi
	callq	XRate.65
	popq	%rbx
	popq	%r14
	popq	%rbp
	.cfi_def_cfa %rsp, 8
	retq
.LBB4_12:                               # %func_XRate.66
	.cfi_def_cfa %rbp, 16
	movq	%rbx, %rdi
	movq	%r14, %rsi
	callq	XRate.66
	popq	%rbx
	popq	%r14
	popq	%rbp
	.cfi_def_cfa %rsp, 8
	retq
.LBB4_13:                               # %func_XRate.70
	.cfi_def_cfa %rbp, 16
	movq	%rbx, %rdi
	movq	%r14, %rsi
	callq	XRate.70
	popq	%rbx
	popq	%r14
	popq	%rbp
	.cfi_def_cfa %rsp, 8
	retq
.LBB4_14:                               # %func_XRate.72
	.cfi_def_cfa %rbp, 16
	movq	%rbx, %rdi
	movq	%r14, %rsi
	callq	XRate.72
	popq	%rbx
	popq	%r14
	popq	%rbp
	.cfi_def_cfa %rsp, 8
	retq
.LBB4_15:                               # %func_XRate.75
	.cfi_def_cfa %rbp, 16
	movq	%rbx, %rdi
	movq	%r14, %rsi
	callq	XRate.75
	popq	%rbx
	popq	%r14
	popq	%rbp
	.cfi_def_cfa %rsp, 8
	retq
.LBB4_16:                               # %func_XRate.77
	.cfi_def_cfa %rbp, 16
	movq	%rbx, %rdi
	movq	%r14, %rsi
	callq	XRate.77
	popq	%rbx
	popq	%r14
	popq	%rbp
	.cfi_def_cfa %rsp, 8
	retq
.LBB4_17:                               # %ctrl0
	.cfi_def_cfa %rbp, 16
	cmpl	$1, %eax
	je	.LBB4_2
# %bb.18:                               # %ctrl1
	cmpl	$2, %eax
	je	.LBB4_3
# %bb.19:                               # %ctrl2
	cmpl	$3, %eax
	je	.LBB4_4
# %bb.20:                               # %ctrl3
	cmpl	$4, %eax
	je	.LBB4_5
# %bb.21:                               # %ctrl4
	cmpl	$5, %eax
	je	.LBB4_6
# %bb.22:                               # %ctrl5
	cmpl	$6, %eax
	je	.LBB4_7
# %bb.23:                               # %ctrl6
	cmpl	$7, %eax
	je	.LBB4_8
# %bb.24:                               # %ctrl7
	cmpl	$8, %eax
	je	.LBB4_9
# %bb.25:                               # %ctrl8
	cmpl	$9, %eax
	je	.LBB4_10
# %bb.26:                               # %ctrl9
	cmpl	$10, %eax
	je	.LBB4_11
# %bb.27:                               # %ctrl10
	cmpl	$11, %eax
	je	.LBB4_12
# %bb.28:                               # %ctrl11
	cmpl	$12, %eax
	je	.LBB4_13
# %bb.29:                               # %ctrl12
	cmpl	$13, %eax
	je	.LBB4_14
# %bb.30:                               # %ctrl13
	cmpl	$14, %eax
	je	.LBB4_15
	jmp	.LBB4_16
.Lfunc_end4:
	.size	XRate, .Lfunc_end4-XRate
	.cfi_endproc
                                        # -- End function
	.globl	GetCtxModelNumber       # -- Begin function GetCtxModelNumber
	.p2align	4, 0x90
	.type	GetCtxModelNumber,@function
GetCtxModelNumber:                      # @GetCtxModelNumber
	.cfi_startproc
# %bb.0:                                # %rand_bb
	pushq	%rbp
	.cfi_def_cfa_offset 16
	.cfi_offset %rbp, -16
	movq	%rsp, %rbp
	.cfi_def_cfa_register %rbp
	pushq	%r15
	pushq	%r14
	pushq	%rbx
	pushq	%rax
	.cfi_offset %rbx, -40
	.cfi_offset %r14, -32
	.cfi_offset %r15, -24
	movq	%rdx, %r14
	movq	%rsi, %r15
	movq	%rdi, %rbx
	callq	get_urand
	cmpl	$0, %eax
	jne	.LBB5_17
# %bb.1:                                # %func_GetCtxModelNumber.15
	movq	%rbx, %rdi
	movq	%r15, %rsi
	movq	%r14, %rdx
	callq	GetCtxModelNumber.15
	addq	$8, %rsp
	popq	%rbx
	popq	%r14
	popq	%r15
	popq	%rbp
	.cfi_def_cfa %rsp, 8
	retq
.LBB5_2:                                # %func_GetCtxModelNumber.29
	.cfi_def_cfa %rbp, 16
	movq	%rbx, %rdi
	movq	%r15, %rsi
	movq	%r14, %rdx
	callq	GetCtxModelNumber.29
	addq	$8, %rsp
	popq	%rbx
	popq	%r14
	popq	%r15
	popq	%rbp
	.cfi_def_cfa %rsp, 8
	retq
.LBB5_3:                                # %func_GetCtxModelNumber.31
	.cfi_def_cfa %rbp, 16
	movq	%rbx, %rdi
	movq	%r15, %rsi
	movq	%r14, %rdx
	callq	GetCtxModelNumber.31
	addq	$8, %rsp
	popq	%rbx
	popq	%r14
	popq	%r15
	popq	%rbp
	.cfi_def_cfa %rsp, 8
	retq
.LBB5_4:                                # %func_GetCtxModelNumber.33
	.cfi_def_cfa %rbp, 16
	movq	%rbx, %rdi
	movq	%r15, %rsi
	movq	%r14, %rdx
	callq	GetCtxModelNumber.33
	addq	$8, %rsp
	popq	%rbx
	popq	%r14
	popq	%r15
	popq	%rbp
	.cfi_def_cfa %rsp, 8
	retq
.LBB5_5:                                # %func_GetCtxModelNumber.35
	.cfi_def_cfa %rbp, 16
	movq	%rbx, %rdi
	movq	%r15, %rsi
	movq	%r14, %rdx
	callq	GetCtxModelNumber.35
	addq	$8, %rsp
	popq	%rbx
	popq	%r14
	popq	%r15
	popq	%rbp
	.cfi_def_cfa %rsp, 8
	retq
.LBB5_6:                                # %func_GetCtxModelNumber.37
	.cfi_def_cfa %rbp, 16
	movq	%rbx, %rdi
	movq	%r15, %rsi
	movq	%r14, %rdx
	callq	GetCtxModelNumber.37
	addq	$8, %rsp
	popq	%rbx
	popq	%r14
	popq	%r15
	popq	%rbp
	.cfi_def_cfa %rsp, 8
	retq
.LBB5_7:                                # %func_GetCtxModelNumber.40
	.cfi_def_cfa %rbp, 16
	movq	%rbx, %rdi
	movq	%r15, %rsi
	movq	%r14, %rdx
	callq	GetCtxModelNumber.40
	addq	$8, %rsp
	popq	%rbx
	popq	%r14
	popq	%r15
	popq	%rbp
	.cfi_def_cfa %rsp, 8
	retq
.LBB5_8:                                # %func_GetCtxModelNumber.42
	.cfi_def_cfa %rbp, 16
	movq	%rbx, %rdi
	movq	%r15, %rsi
	movq	%r14, %rdx
	callq	GetCtxModelNumber.42
	addq	$8, %rsp
	popq	%rbx
	popq	%r14
	popq	%r15
	popq	%rbp
	.cfi_def_cfa %rsp, 8
	retq
.LBB5_9:                                # %func_GetCtxModelNumber.43
	.cfi_def_cfa %rbp, 16
	movq	%rbx, %rdi
	movq	%r15, %rsi
	movq	%r14, %rdx
	callq	GetCtxModelNumber.43
	addq	$8, %rsp
	popq	%rbx
	popq	%r14
	popq	%r15
	popq	%rbp
	.cfi_def_cfa %rsp, 8
	retq
.LBB5_10:                               # %func_GetCtxModelNumber.45
	.cfi_def_cfa %rbp, 16
	movq	%rbx, %rdi
	movq	%r15, %rsi
	movq	%r14, %rdx
	callq	GetCtxModelNumber.45
	addq	$8, %rsp
	popq	%rbx
	popq	%r14
	popq	%r15
	popq	%rbp
	.cfi_def_cfa %rsp, 8
	retq
.LBB5_11:                               # %func_GetCtxModelNumber.52
	.cfi_def_cfa %rbp, 16
	movq	%rbx, %rdi
	movq	%r15, %rsi
	movq	%r14, %rdx
	callq	GetCtxModelNumber.52
	addq	$8, %rsp
	popq	%rbx
	popq	%r14
	popq	%r15
	popq	%rbp
	.cfi_def_cfa %rsp, 8
	retq
.LBB5_12:                               # %func_GetCtxModelNumber.62
	.cfi_def_cfa %rbp, 16
	movq	%rbx, %rdi
	movq	%r15, %rsi
	movq	%r14, %rdx
	callq	GetCtxModelNumber.62
	addq	$8, %rsp
	popq	%rbx
	popq	%r14
	popq	%r15
	popq	%rbp
	.cfi_def_cfa %rsp, 8
	retq
.LBB5_13:                               # %func_GetCtxModelNumber.68
	.cfi_def_cfa %rbp, 16
	movq	%rbx, %rdi
	movq	%r15, %rsi
	movq	%r14, %rdx
	callq	GetCtxModelNumber.68
	addq	$8, %rsp
	popq	%rbx
	popq	%r14
	popq	%r15
	popq	%rbp
	.cfi_def_cfa %rsp, 8
	retq
.LBB5_14:                               # %func_GetCtxModelNumber.73
	.cfi_def_cfa %rbp, 16
	movq	%rbx, %rdi
	movq	%r15, %rsi
	movq	%r14, %rdx
	callq	GetCtxModelNumber.73
	addq	$8, %rsp
	popq	%rbx
	popq	%r14
	popq	%r15
	popq	%rbp
	.cfi_def_cfa %rsp, 8
	retq
.LBB5_15:                               # %func_GetCtxModelNumber.76
	.cfi_def_cfa %rbp, 16
	movq	%rbx, %rdi
	movq	%r15, %rsi
	movq	%r14, %rdx
	callq	GetCtxModelNumber.76
	addq	$8, %rsp
	popq	%rbx
	popq	%r14
	popq	%r15
	popq	%rbp
	.cfi_def_cfa %rsp, 8
	retq
.LBB5_16:                               # %func_GetCtxModelNumber.80
	.cfi_def_cfa %rbp, 16
	movq	%rbx, %rdi
	movq	%r15, %rsi
	movq	%r14, %rdx
	callq	GetCtxModelNumber.80
	addq	$8, %rsp
	popq	%rbx
	popq	%r14
	popq	%r15
	popq	%rbp
	.cfi_def_cfa %rsp, 8
	retq
.LBB5_17:                               # %ctrl0
	.cfi_def_cfa %rbp, 16
	cmpl	$1, %eax
	je	.LBB5_2
# %bb.18:                               # %ctrl1
	cmpl	$2, %eax
	je	.LBB5_3
# %bb.19:                               # %ctrl2
	cmpl	$3, %eax
	je	.LBB5_4
# %bb.20:                               # %ctrl3
	cmpl	$4, %eax
	je	.LBB5_5
# %bb.21:                               # %ctrl4
	cmpl	$5, %eax
	je	.LBB5_6
# %bb.22:                               # %ctrl5
	cmpl	$6, %eax
	je	.LBB5_7
# %bb.23:                               # %ctrl6
	cmpl	$7, %eax
	je	.LBB5_8
# %bb.24:                               # %ctrl7
	cmpl	$8, %eax
	je	.LBB5_9
# %bb.25:                               # %ctrl8
	cmpl	$9, %eax
	je	.LBB5_10
# %bb.26:                               # %ctrl9
	cmpl	$10, %eax
	je	.LBB5_11
# %bb.27:                               # %ctrl10
	cmpl	$11, %eax
	je	.LBB5_12
# %bb.28:                               # %ctrl11
	cmpl	$12, %eax
	je	.LBB5_13
# %bb.29:                               # %ctrl12
	cmpl	$13, %eax
	je	.LBB5_14
# %bb.30:                               # %ctrl13
	cmpl	$14, %eax
	je	.LBB5_15
	jmp	.LBB5_16
.Lfunc_end5:
	.size	GetCtxModelNumber, .Lfunc_end5-GetCtxModelNumber
	.cfi_endproc
                                        # -- End function
	.globl	store_contexts          # -- Begin function store_contexts
	.p2align	4, 0x90
	.type	store_contexts,@function
store_contexts:                         # @store_contexts
	.cfi_startproc
# %bb.0:                                # %rand_bb
	pushq	%rbp
	.cfi_def_cfa_offset 16
	.cfi_offset %rbp, -16
	movq	%rsp, %rbp
	.cfi_def_cfa_register %rbp
	callq	get_urand
	cmpl	$0, %eax
	jne	.LBB6_7
# %bb.1:                                # %func_store_contexts.2
	callq	store_contexts.2
	popq	%rbp
	.cfi_def_cfa %rsp, 8
	retq
.LBB6_2:                                # %func_store_contexts.8
	.cfi_def_cfa %rbp, 16
	callq	store_contexts.8
	popq	%rbp
	.cfi_def_cfa %rsp, 8
	retq
.LBB6_3:                                # %func_store_contexts.27
	.cfi_def_cfa %rbp, 16
	callq	store_contexts.27
	popq	%rbp
	.cfi_def_cfa %rsp, 8
	retq
.LBB6_4:                                # %func_store_contexts.32
	.cfi_def_cfa %rbp, 16
	callq	store_contexts.32
	popq	%rbp
	.cfi_def_cfa %rsp, 8
	retq
.LBB6_5:                                # %func_store_contexts.39
	.cfi_def_cfa %rbp, 16
	callq	store_contexts.39
	popq	%rbp
	.cfi_def_cfa %rsp, 8
	retq
.LBB6_6:                                # %func_store_contexts.51
	.cfi_def_cfa %rbp, 16
	callq	store_contexts.51
	popq	%rbp
	.cfi_def_cfa %rsp, 8
	retq
.LBB6_7:                                # %ctrl0
	.cfi_def_cfa %rbp, 16
	cmpl	$1, %eax
	je	.LBB6_2
# %bb.8:                                # %ctrl1
	cmpl	$2, %eax
	je	.LBB6_3
# %bb.9:                                # %ctrl2
	cmpl	$3, %eax
	je	.LBB6_4
# %bb.10:                               # %ctrl3
	cmpl	$4, %eax
	je	.LBB6_5
	jmp	.LBB6_6
.Lfunc_end6:
	.size	store_contexts, .Lfunc_end6-store_contexts
	.cfi_endproc
                                        # -- End function
	.globl	update_field_frame_contexts # -- Begin function update_field_frame_contexts
	.p2align	4, 0x90
	.type	update_field_frame_contexts,@function
update_field_frame_contexts:            # @update_field_frame_contexts
	.cfi_startproc
# %bb.0:                                # %rand_bb
	pushq	%rbp
	.cfi_def_cfa_offset 16
	.cfi_offset %rbp, -16
	movq	%rsp, %rbp
	.cfi_def_cfa_register %rbp
	pushq	%rbx
	pushq	%rax
	.cfi_offset %rbx, -24
	movl	%edi, %ebx
	callq	get_urand
	cmpl	$0, %eax
	jne	.LBB7_7
# %bb.1:                                # %func_update_field_frame_contexts.4
	movl	%ebx, %edi
	callq	update_field_frame_contexts.4
	addq	$8, %rsp
	popq	%rbx
	popq	%rbp
	.cfi_def_cfa %rsp, 8
	retq
.LBB7_2:                                # %func_update_field_frame_contexts.12
	.cfi_def_cfa %rbp, 16
	movl	%ebx, %edi
	callq	update_field_frame_contexts.12
	addq	$8, %rsp
	popq	%rbx
	popq	%rbp
	.cfi_def_cfa %rsp, 8
	retq
.LBB7_3:                                # %func_update_field_frame_contexts.23
	.cfi_def_cfa %rbp, 16
	movl	%ebx, %edi
	callq	update_field_frame_contexts.23
	addq	$8, %rsp
	popq	%rbx
	popq	%rbp
	.cfi_def_cfa %rsp, 8
	retq
.LBB7_4:                                # %func_update_field_frame_contexts.28
	.cfi_def_cfa %rbp, 16
	movl	%ebx, %edi
	callq	update_field_frame_contexts.28
	addq	$8, %rsp
	popq	%rbx
	popq	%rbp
	.cfi_def_cfa %rsp, 8
	retq
.LBB7_5:                                # %func_update_field_frame_contexts.30
	.cfi_def_cfa %rbp, 16
	movl	%ebx, %edi
	callq	update_field_frame_contexts.30
	addq	$8, %rsp
	popq	%rbx
	popq	%rbp
	.cfi_def_cfa %rsp, 8
	retq
.LBB7_6:                                # %func_update_field_frame_contexts.38
	.cfi_def_cfa %rbp, 16
	movl	%ebx, %edi
	callq	update_field_frame_contexts.38
	addq	$8, %rsp
	popq	%rbx
	popq	%rbp
	.cfi_def_cfa %rsp, 8
	retq
.LBB7_7:                                # %ctrl0
	.cfi_def_cfa %rbp, 16
	cmpl	$1, %eax
	je	.LBB7_2
# %bb.8:                                # %ctrl1
	cmpl	$2, %eax
	je	.LBB7_3
# %bb.9:                                # %ctrl2
	cmpl	$3, %eax
	je	.LBB7_4
# %bb.10:                               # %ctrl3
	cmpl	$4, %eax
	je	.LBB7_5
	jmp	.LBB7_6
.Lfunc_end7:
	.size	update_field_frame_contexts, .Lfunc_end7-update_field_frame_contexts
	.cfi_endproc
                                        # -- End function
	.globl	free_context_memory.1   # -- Begin function free_context_memory.1
	.p2align	4, 0x90
	.type	free_context_memory.1,@function
free_context_memory.1:                  # @free_context_memory.1
	.cfi_startproc
# %bb.0:                                # %entry
	pushq	%rbp
	.cfi_def_cfa_offset 16
	.cfi_offset %rbp, -16
	movq	%rsp, %rbp
	.cfi_def_cfa_register %rbp
	subq	$16, %rsp
	movl	$368066380, -12(%rbp)   # imm = 0x15F03F4C
	movl	$0, -4(%rbp)
.LBB8_1:                                # %for.cond
                                        # =>This Loop Header: Depth=1
                                        #     Child Loop BB8_3 Depth 2
	cmpl	$3, -4(%rbp)
	jge	.LBB8_8
# %bb.2:                                # %for.body
                                        #   in Loop: Header=BB8_1 Depth=1
	movl	$0, -8(%rbp)
.LBB8_3:                                # %for.cond1
                                        #   Parent Loop BB8_1 Depth=1
                                        # =>  This Inner Loop Header: Depth=2
	cmpl	$4, -8(%rbp)
	jge	.LBB8_6
# %bb.4:                                # %for.body3
                                        #   in Loop: Header=BB8_3 Depth=2
	movq	initialized, %rax
	movslq	-4(%rbp), %rcx
	movq	(%rax,%rcx,8), %rax
	movslq	-8(%rbp), %rcx
	movq	(%rax,%rcx,8), %rdi
	callq	free
	movq	model_number, %rax
	movslq	-4(%rbp), %rcx
	movq	(%rax,%rcx,8), %rax
	movslq	-8(%rbp), %rcx
	movq	(%rax,%rcx,8), %rdi
	callq	free
# %bb.5:                                # %for.inc
                                        #   in Loop: Header=BB8_3 Depth=2
	movl	-8(%rbp), %eax
	addl	$1, %eax
	movl	%eax, -8(%rbp)
	jmp	.LBB8_3
.LBB8_6:                                # %for.end
                                        #   in Loop: Header=BB8_1 Depth=1
	movq	initialized, %rax
	movslq	-4(%rbp), %rcx
	movq	(%rax,%rcx,8), %rdi
	callq	free
	movq	model_number, %rax
	movslq	-4(%rbp), %rcx
	movq	(%rax,%rcx,8), %rdi
	callq	free
# %bb.7:                                # %for.inc14
                                        #   in Loop: Header=BB8_1 Depth=1
	movl	-4(%rbp), %eax
	addl	$1, %eax
	movl	%eax, -4(%rbp)
	jmp	.LBB8_1
.LBB8_8:                                # %for.end16
	movq	initialized, %rdi
	callq	free
	movq	model_number, %rdi
	callq	free
	cmpl	$368066380, -12(%rbp)   # imm = 0x15F03F4C
	jne	.LBB8_10
.LBB8_9:
	addq	$16, %rsp
	popq	%rbp
	.cfi_def_cfa %rsp, 8
	retq
.LBB8_10:                               # %func_exit
	.cfi_def_cfa %rbp, 16
	callq	detect_breach
	jmp	.LBB8_9
.Lfunc_end8:
	.size	free_context_memory.1, .Lfunc_end8-free_context_memory.1
	.cfi_endproc
                                        # -- End function
	.globl	store_contexts.2        # -- Begin function store_contexts.2
	.p2align	4, 0x90
	.type	store_contexts.2,@function
store_contexts.2:                       # @store_contexts.2
	.cfi_startproc
# %bb.0:                                # %entry
	pushq	%rbp
	.cfi_def_cfa_offset 16
	.cfi_offset %rbp, -16
	movq	%rsp, %rbp
	.cfi_def_cfa_register %rbp
	subq	$16, %rsp
	movl	$652802620, -16(%rbp)   # imm = 0x26E8FA3C
	movq	img, %rax
	movl	72444(%rax), %eax
	movl	%eax, -4(%rbp)
	movq	img, %rax
	movl	24(%rax), %eax
	movl	%eax, -8(%rbp)
	movq	img, %rax
	movq	14160(%rax), %rax
	movl	12(%rax), %eax
	cltd
	idivl	num_mb_per_slice
	movl	%eax, -12(%rbp)
	movq	input, %rax
	cmpl	$0, 3212(%rax)
	je	.LBB9_2
# %bb.1:                                # %if.then
	movq	initialized, %rax
	movslq	-4(%rbp), %rcx
	movq	(%rax,%rcx,8), %rax
	movslq	-8(%rbp), %rcx
	movq	(%rax,%rcx,8), %rax
	movslq	-12(%rbp), %rcx
	movl	$1, (%rax,%rcx,4)
	movq	model_number, %rax
	movslq	-4(%rbp), %rcx
	movq	(%rax,%rcx,8), %rax
	movslq	-8(%rbp), %rcx
	movq	(%rax,%rcx,8), %rdi
	movslq	-12(%rbp), %rax
	shlq	$2, %rax
	addq	%rax, %rdi
	movq	img, %rax
	movq	14160(%rax), %rax
	movq	32(%rax), %rsi
	movq	img, %rax
	movq	14160(%rax), %rax
	movq	40(%rax), %rdx
	callq	GetCtxModelNumber
	jmp	.LBB9_3
.LBB9_2:                                # %if.else
	jmp	.LBB9_3
.LBB9_3:                                # %if.end
	cmpl	$652802620, -16(%rbp)   # imm = 0x26E8FA3C
	jne	.LBB9_5
.LBB9_4:
	addq	$16, %rsp
	popq	%rbp
	.cfi_def_cfa %rsp, 8
	retq
.LBB9_5:                                # %func_exit
	.cfi_def_cfa %rbp, 16
	callq	detect_breach
	jmp	.LBB9_4
.Lfunc_end9:
	.size	store_contexts.2, .Lfunc_end9-store_contexts.2
	.cfi_endproc
                                        # -- End function
	.section	.rodata.cst8,"aM",@progbits,8
	.p2align	3               # -- Begin function XRate.3
.LCPI10_0:
	.quad	4607182418800017408     # double 1
.LCPI10_1:
	.quad	4629700416936869888     # double 32
	.section	.rodata.cst16,"aM",@progbits,16
	.p2align	4
.LCPI10_2:
	.long	1127219200              # 0x43300000
	.long	1160773632              # 0x45300000
	.long	0                       # 0x0
	.long	0                       # 0x0
.LCPI10_3:
	.quad	4841369599423283200     # double 4503599627370496
	.quad	4985484787499139072     # double 1.9342813113834067E+25
	.text
	.globl	XRate.3
	.p2align	4, 0x90
	.type	XRate.3,@function
XRate.3:                                # @XRate.3
	.cfi_startproc
# %bb.0:                                # %entry
	pushq	%rbp
	.cfi_def_cfa_offset 16
	.cfi_offset %rbp, -16
	movq	%rsp, %rbp
	.cfi_def_cfa_register %rbp
	subq	$64, %rsp
	xorl	%eax, %eax
	movl	$389850008, -36(%rbp)   # imm = 0x173CA398
	movq	%rdi, -16(%rbp)
	movq	%rsi, -48(%rbp)
	vxorps	%xmm0, %xmm0, %xmm0
	vmovsd	%xmm0, -24(%rbp)
	movq	img, %rcx
	cmpl	40(%rcx), %eax
	jle	.LBB10_2
# %bb.1:                                # %cond.true
	xorl	%eax, %eax
	jmp	.LBB10_3
.LBB10_2:                               # %cond.false
	movq	img, %rax
	movl	40(%rax), %eax
.LBB10_3:                               # %cond.end
	vmovsd	.LCPI10_0(%rip), %xmm0  # xmm0 = mem[0],zero
	vmovsd	.LCPI10_1(%rip), %xmm1  # xmm1 = mem[0],zero
	movl	%eax, -32(%rbp)
	movq	-16(%rbp), %rax
	vmovq	8(%rax), %xmm2          # xmm2 = mem[0],zero
	vmovdqa	.LCPI10_2(%rip), %xmm3  # xmm3 = [1127219200,1160773632,0,0]
	vpunpckldq	%xmm3, %xmm2, %xmm2 # xmm2 = xmm2[0],xmm3[0],xmm2[1],xmm3[1]
	vmovapd	.LCPI10_3(%rip), %xmm3  # xmm3 = [4.503599627370496E+15,1.9342813113834067E+25]
	vsubpd	%xmm3, %xmm2, %xmm2
	vhaddpd	%xmm2, %xmm2, %xmm2
	vdivsd	%xmm1, %xmm2, %xmm1
	vucomisd	%xmm0, %xmm1
	jbe	.LBB10_5
# %bb.4:                                # %cond.true5
	vmovsd	.LCPI10_0(%rip), %xmm0  # xmm0 = mem[0],zero
	jmp	.LBB10_6
.LBB10_5:                               # %cond.false6
	vmovsd	.LCPI10_1(%rip), %xmm0  # xmm0 = mem[0],zero
	movq	-16(%rbp), %rax
	vmovq	8(%rax), %xmm1          # xmm1 = mem[0],zero
	vmovdqa	.LCPI10_2(%rip), %xmm2  # xmm2 = [1127219200,1160773632,0,0]
	vpunpckldq	%xmm2, %xmm1, %xmm1 # xmm1 = xmm1[0],xmm2[0],xmm1[1],xmm2[1]
	vmovapd	.LCPI10_3(%rip), %xmm2  # xmm2 = [4.503599627370496E+15,1.9342813113834067E+25]
	vsubpd	%xmm2, %xmm1, %xmm1
	vhaddpd	%xmm1, %xmm1, %xmm1
	vdivsd	%xmm0, %xmm1, %xmm0
.LBB10_6:                               # %cond.end10
	xorl	%eax, %eax
	vmovsd	%xmm0, -56(%rbp)
	movq	-48(%rbp), %rcx
	movl	(%rcx), %ecx
	imull	-32(%rbp), %ecx
	sarl	$4, %ecx
	movq	-48(%rbp), %rdx
	addl	4(%rdx), %ecx
	movl	%ecx, -4(%rbp)
	cmpl	-4(%rbp), %eax
	jle	.LBB10_8
# %bb.7:                                # %cond.true15
	xorl	%eax, %eax
	jmp	.LBB10_9
.LBB10_8:                               # %cond.false16
	movl	-4(%rbp), %eax
.LBB10_9:                               # %cond.end17
	cmpl	$127, %eax
	jge	.LBB10_14
# %bb.10:                               # %cond.true21
	xorl	%eax, %eax
	cmpl	-4(%rbp), %eax
	jle	.LBB10_12
# %bb.11:                               # %cond.true24
	xorl	%eax, %eax
	jmp	.LBB10_13
.LBB10_12:                              # %cond.false25
	movl	-4(%rbp), %eax
.LBB10_13:                              # %cond.end26
	jmp	.LBB10_15
.LBB10_14:                              # %cond.false28
	movl	$127, %eax
	jmp	.LBB10_15
.LBB10_15:                              # %cond.end29
	movl	%eax, -4(%rbp)
	movq	-16(%rbp), %rax
	movzbl	2(%rax), %eax
	cmpl	$0, %eax
	je	.LBB10_17
# %bb.16:                               # %cond.true32
	movq	-16(%rbp), %rax
	movzwl	(%rax), %eax
	addl	$64, %eax
	jmp	.LBB10_18
.LBB10_17:                              # %cond.false35
	movq	-16(%rbp), %rax
	movzwl	(%rax), %ecx
	movl	$63, %eax
	subl	%ecx, %eax
.LBB10_18:                              # %cond.end38
	movl	%eax, -28(%rbp)
	vmovsd	-56(%rbp), %xmm0        # xmm0 = mem[0],zero
	movslq	-28(%rbp), %rax
	vmulsd	probability(,%rax,8), %xmm0, %xmm0
	movslq	-4(%rbp), %rax
	vmulsd	entropy(,%rax,8), %xmm0, %xmm0
	vmovsd	-24(%rbp), %xmm1        # xmm1 = mem[0],zero
	vsubsd	%xmm0, %xmm1, %xmm0
	vmovsd	%xmm0, -24(%rbp)
	vmovsd	-56(%rbp), %xmm0        # xmm0 = mem[0],zero
	movl	$127, %eax
	movl	$127, %ecx
	subl	-28(%rbp), %ecx
	movslq	%ecx, %rcx
	vmulsd	probability(,%rcx,8), %xmm0, %xmm0
	subl	-4(%rbp), %eax
	cltq
	vmulsd	entropy(,%rax,8), %xmm0, %xmm0
	vmovsd	-24(%rbp), %xmm1        # xmm1 = mem[0],zero
	vsubsd	%xmm0, %xmm1, %xmm0
	vmovsd	%xmm0, -24(%rbp)
	vmovsd	-24(%rbp), %xmm0        # xmm0 = mem[0],zero
	cmpl	$389850008, -36(%rbp)   # imm = 0x173CA398
	jne	.LBB10_20
.LBB10_19:
	addq	$64, %rsp
	popq	%rbp
	.cfi_def_cfa %rsp, 8
	retq
.LBB10_20:                              # %func_exit
	.cfi_def_cfa %rbp, 16
	vmovsd	%xmm0, -64(%rbp)        # 8-byte Spill
	callq	detect_breach
	vmovsd	-64(%rbp), %xmm0        # 8-byte Reload
                                        # xmm0 = mem[0],zero
	jmp	.LBB10_19
.Lfunc_end10:
	.size	XRate.3, .Lfunc_end10-XRate.3
	.cfi_endproc
                                        # -- End function
	.globl	update_field_frame_contexts.4 # -- Begin function update_field_frame_contexts.4
	.p2align	4, 0x90
	.type	update_field_frame_contexts.4,@function
update_field_frame_contexts.4:          # @update_field_frame_contexts.4
	.cfi_startproc
# %bb.0:                                # %entry
	pushq	%rbp
	.cfi_def_cfa_offset 16
	.cfi_offset %rbp, -16
	movq	%rsp, %rbp
	.cfi_def_cfa_register %rbp
	subq	$16, %rsp
	movl	$2086502002, -16(%rbp)  # imm = 0x7C5D7E72
	movl	%edi, -12(%rbp)
	cmpl	$0, -12(%rbp)
	je	.LBB11_10
# %bb.1:                                # %if.then
	movl	$0, -8(%rbp)
.LBB11_2:                               # %for.cond
                                        # =>This Loop Header: Depth=1
                                        #     Child Loop BB11_4 Depth 2
	cmpl	$4, -8(%rbp)
	jge	.LBB11_9
# %bb.3:                                # %for.body
                                        #   in Loop: Header=BB11_2 Depth=1
	movl	$0, -4(%rbp)
.LBB11_4:                               # %for.cond1
                                        #   Parent Loop BB11_2 Depth=1
                                        # =>  This Inner Loop Header: Depth=2
	movl	-4(%rbp), %eax
	cmpl	number_of_slices, %eax
	jge	.LBB11_7
# %bb.5:                                # %for.body3
                                        #   in Loop: Header=BB11_4 Depth=2
	movq	initialized, %rax
	movq	8(%rax), %rax
	movslq	-8(%rbp), %rcx
	movq	(%rax,%rcx,8), %rax
	movl	-4(%rbp), %ecx
	sarl	$1, %ecx
	movslq	%ecx, %rcx
	movl	(%rax,%rcx,4), %eax
	movq	initialized, %rcx
	movq	(%rcx), %rcx
	movslq	-8(%rbp), %rdx
	movq	(%rcx,%rdx,8), %rcx
	movslq	-4(%rbp), %rdx
	movl	%eax, (%rcx,%rdx,4)
	movq	model_number, %rax
	movq	8(%rax), %rax
	movslq	-8(%rbp), %rcx
	movq	(%rax,%rcx,8), %rax
	movl	-4(%rbp), %ecx
	sarl	$1, %ecx
	movslq	%ecx, %rcx
	movl	(%rax,%rcx,4), %eax
	movq	model_number, %rcx
	movq	(%rcx), %rcx
	movslq	-8(%rbp), %rdx
	movq	(%rcx,%rdx,8), %rcx
	movslq	-4(%rbp), %rdx
	movl	%eax, (%rcx,%rdx,4)
# %bb.6:                                # %for.inc
                                        #   in Loop: Header=BB11_4 Depth=2
	movl	-4(%rbp), %eax
	addl	$1, %eax
	movl	%eax, -4(%rbp)
	jmp	.LBB11_4
.LBB11_7:                               # %for.end
                                        #   in Loop: Header=BB11_2 Depth=1
	jmp	.LBB11_8
.LBB11_8:                               # %for.inc23
                                        #   in Loop: Header=BB11_2 Depth=1
	movl	-8(%rbp), %eax
	addl	$1, %eax
	movl	%eax, -8(%rbp)
	jmp	.LBB11_2
.LBB11_9:                               # %for.end25
	jmp	.LBB11_19
.LBB11_10:                              # %if.else
	movl	$0, -8(%rbp)
.LBB11_11:                              # %for.cond26
                                        # =>This Loop Header: Depth=1
                                        #     Child Loop BB11_13 Depth 2
	cmpl	$4, -8(%rbp)
	jge	.LBB11_18
# %bb.12:                               # %for.body28
                                        #   in Loop: Header=BB11_11 Depth=1
	movl	$0, -4(%rbp)
.LBB11_13:                              # %for.cond29
                                        #   Parent Loop BB11_11 Depth=1
                                        # =>  This Inner Loop Header: Depth=2
	movl	-4(%rbp), %eax
	movl	number_of_slices, %ecx
	addl	$1, %ecx
	sarl	$1, %ecx
	cmpl	%ecx, %eax
	jge	.LBB11_16
# %bb.14:                               # %for.body32
                                        #   in Loop: Header=BB11_13 Depth=2
	movq	initialized, %rax
	movq	(%rax), %rax
	movslq	-8(%rbp), %rcx
	movq	(%rax,%rcx,8), %rax
	movl	-4(%rbp), %ecx
	shll	$1, %ecx
	movslq	%ecx, %rcx
	movl	(%rax,%rcx,4), %eax
	movq	initialized, %rcx
	movq	8(%rcx), %rcx
	movslq	-8(%rbp), %rdx
	movq	(%rcx,%rdx,8), %rcx
	movslq	-4(%rbp), %rdx
	movl	%eax, (%rcx,%rdx,4)
	movq	model_number, %rax
	movq	(%rax), %rax
	movslq	-8(%rbp), %rcx
	movq	(%rax,%rcx,8), %rax
	movl	-4(%rbp), %ecx
	shll	$1, %ecx
	movslq	%ecx, %rcx
	movl	(%rax,%rcx,4), %eax
	movq	model_number, %rcx
	movq	8(%rcx), %rcx
	movslq	-8(%rbp), %rdx
	movq	(%rcx,%rdx,8), %rcx
	movslq	-4(%rbp), %rdx
	movl	%eax, (%rcx,%rdx,4)
# %bb.15:                               # %for.inc54
                                        #   in Loop: Header=BB11_13 Depth=2
	movl	-4(%rbp), %eax
	addl	$1, %eax
	movl	%eax, -4(%rbp)
	jmp	.LBB11_13
.LBB11_16:                              # %for.end56
                                        #   in Loop: Header=BB11_11 Depth=1
	jmp	.LBB11_17
.LBB11_17:                              # %for.inc57
                                        #   in Loop: Header=BB11_11 Depth=1
	movl	-8(%rbp), %eax
	addl	$1, %eax
	movl	%eax, -8(%rbp)
	jmp	.LBB11_11
.LBB11_18:                              # %for.end59
	jmp	.LBB11_19
.LBB11_19:                              # %if.end
	cmpl	$2086502002, -16(%rbp)  # imm = 0x7C5D7E72
	jne	.LBB11_21
.LBB11_20:
	addq	$16, %rsp
	popq	%rbp
	.cfi_def_cfa %rsp, 8
	retq
.LBB11_21:                              # %func_exit
	.cfi_def_cfa %rbp, 16
	callq	detect_breach
	jmp	.LBB11_20
.Lfunc_end11:
	.size	update_field_frame_contexts.4, .Lfunc_end11-update_field_frame_contexts.4
	.cfi_endproc
                                        # -- End function
	.section	.rodata.cst8,"aM",@progbits,8
	.p2align	3               # -- Begin function XRate.5
.LCPI12_0:
	.quad	4607182418800017408     # double 1
.LCPI12_1:
	.quad	4629700416936869888     # double 32
	.section	.rodata.cst16,"aM",@progbits,16
	.p2align	4
.LCPI12_2:
	.long	1127219200              # 0x43300000
	.long	1160773632              # 0x45300000
	.long	0                       # 0x0
	.long	0                       # 0x0
.LCPI12_3:
	.quad	4841369599423283200     # double 4503599627370496
	.quad	4985484787499139072     # double 1.9342813113834067E+25
	.text
	.globl	XRate.5
	.p2align	4, 0x90
	.type	XRate.5,@function
XRate.5:                                # @XRate.5
	.cfi_startproc
# %bb.0:                                # %entry
	pushq	%rbp
	.cfi_def_cfa_offset 16
	.cfi_offset %rbp, -16
	movq	%rsp, %rbp
	.cfi_def_cfa_register %rbp
	subq	$64, %rsp
	xorl	%eax, %eax
	movl	$1237879172, -36(%rbp)  # imm = 0x49C88984
	movq	%rdi, -16(%rbp)
	movq	%rsi, -56(%rbp)
	vxorps	%xmm0, %xmm0, %xmm0
	vmovsd	%xmm0, -24(%rbp)
	movq	img, %rcx
	cmpl	40(%rcx), %eax
	jle	.LBB12_2
# %bb.1:                                # %cond.true
	xorl	%eax, %eax
	jmp	.LBB12_3
.LBB12_2:                               # %cond.false
	movq	img, %rax
	movl	40(%rax), %eax
.LBB12_3:                               # %cond.end
	vmovsd	.LCPI12_0(%rip), %xmm0  # xmm0 = mem[0],zero
	vmovsd	.LCPI12_1(%rip), %xmm1  # xmm1 = mem[0],zero
	movl	%eax, -32(%rbp)
	movq	-16(%rbp), %rax
	vmovq	8(%rax), %xmm2          # xmm2 = mem[0],zero
	vmovdqa	.LCPI12_2(%rip), %xmm3  # xmm3 = [1127219200,1160773632,0,0]
	vpunpckldq	%xmm3, %xmm2, %xmm2 # xmm2 = xmm2[0],xmm3[0],xmm2[1],xmm3[1]
	vmovapd	.LCPI12_3(%rip), %xmm3  # xmm3 = [4.503599627370496E+15,1.9342813113834067E+25]
	vsubpd	%xmm3, %xmm2, %xmm2
	vhaddpd	%xmm2, %xmm2, %xmm2
	vdivsd	%xmm1, %xmm2, %xmm1
	vucomisd	%xmm0, %xmm1
	jbe	.LBB12_5
# %bb.4:                                # %cond.true5
	vmovsd	.LCPI12_0(%rip), %xmm0  # xmm0 = mem[0],zero
	jmp	.LBB12_6
.LBB12_5:                               # %cond.false6
	vmovsd	.LCPI12_1(%rip), %xmm0  # xmm0 = mem[0],zero
	movq	-16(%rbp), %rax
	vmovq	8(%rax), %xmm1          # xmm1 = mem[0],zero
	vmovdqa	.LCPI12_2(%rip), %xmm2  # xmm2 = [1127219200,1160773632,0,0]
	vpunpckldq	%xmm2, %xmm1, %xmm1 # xmm1 = xmm1[0],xmm2[0],xmm1[1],xmm2[1]
	vmovapd	.LCPI12_3(%rip), %xmm2  # xmm2 = [4.503599627370496E+15,1.9342813113834067E+25]
	vsubpd	%xmm2, %xmm1, %xmm1
	vhaddpd	%xmm1, %xmm1, %xmm1
	vdivsd	%xmm0, %xmm1, %xmm0
.LBB12_6:                               # %cond.end10
	xorl	%eax, %eax
	vmovsd	%xmm0, -48(%rbp)
	movq	-56(%rbp), %rcx
	movl	(%rcx), %ecx
	imull	-32(%rbp), %ecx
	sarl	$4, %ecx
	movq	-56(%rbp), %rdx
	addl	4(%rdx), %ecx
	movl	%ecx, -4(%rbp)
	cmpl	-4(%rbp), %eax
	jle	.LBB12_8
# %bb.7:                                # %cond.true15
	xorl	%eax, %eax
	jmp	.LBB12_9
.LBB12_8:                               # %cond.false16
	movl	-4(%rbp), %eax
.LBB12_9:                               # %cond.end17
	cmpl	$127, %eax
	jge	.LBB12_14
# %bb.10:                               # %cond.true21
	xorl	%eax, %eax
	cmpl	-4(%rbp), %eax
	jle	.LBB12_12
# %bb.11:                               # %cond.true24
	xorl	%eax, %eax
	jmp	.LBB12_13
.LBB12_12:                              # %cond.false25
	movl	-4(%rbp), %eax
.LBB12_13:                              # %cond.end26
	jmp	.LBB12_15
.LBB12_14:                              # %cond.false28
	movl	$127, %eax
	jmp	.LBB12_15
.LBB12_15:                              # %cond.end29
	movl	%eax, -4(%rbp)
	movq	-16(%rbp), %rax
	movzbl	2(%rax), %eax
	cmpl	$0, %eax
	je	.LBB12_17
# %bb.16:                               # %cond.true32
	movq	-16(%rbp), %rax
	movzwl	(%rax), %eax
	addl	$64, %eax
	jmp	.LBB12_18
.LBB12_17:                              # %cond.false35
	movq	-16(%rbp), %rax
	movzwl	(%rax), %ecx
	movl	$63, %eax
	subl	%ecx, %eax
.LBB12_18:                              # %cond.end38
	movl	%eax, -28(%rbp)
	vmovsd	-48(%rbp), %xmm0        # xmm0 = mem[0],zero
	movslq	-28(%rbp), %rax
	vmulsd	probability(,%rax,8), %xmm0, %xmm0
	movslq	-4(%rbp), %rax
	vmulsd	entropy(,%rax,8), %xmm0, %xmm0
	vmovsd	-24(%rbp), %xmm1        # xmm1 = mem[0],zero
	vsubsd	%xmm0, %xmm1, %xmm0
	vmovsd	%xmm0, -24(%rbp)
	vmovsd	-48(%rbp), %xmm0        # xmm0 = mem[0],zero
	movl	$127, %eax
	movl	$127, %ecx
	subl	-28(%rbp), %ecx
	movslq	%ecx, %rcx
	vmulsd	probability(,%rcx,8), %xmm0, %xmm0
	subl	-4(%rbp), %eax
	cltq
	vmulsd	entropy(,%rax,8), %xmm0, %xmm0
	vmovsd	-24(%rbp), %xmm1        # xmm1 = mem[0],zero
	vsubsd	%xmm0, %xmm1, %xmm0
	vmovsd	%xmm0, -24(%rbp)
	vmovsd	-24(%rbp), %xmm0        # xmm0 = mem[0],zero
	cmpl	$1237879172, -36(%rbp)  # imm = 0x49C88984
	jne	.LBB12_20
.LBB12_19:
	addq	$64, %rsp
	popq	%rbp
	.cfi_def_cfa %rsp, 8
	retq
.LBB12_20:                              # %func_exit
	.cfi_def_cfa %rbp, 16
	vmovsd	%xmm0, -64(%rbp)        # 8-byte Spill
	callq	detect_breach
	vmovsd	-64(%rbp), %xmm0        # 8-byte Reload
                                        # xmm0 = mem[0],zero
	jmp	.LBB12_19
.Lfunc_end12:
	.size	XRate.5, .Lfunc_end12-XRate.5
	.cfi_endproc
                                        # -- End function
	.globl	SetCtxModelNumber.6     # -- Begin function SetCtxModelNumber.6
	.p2align	4, 0x90
	.type	SetCtxModelNumber.6,@function
SetCtxModelNumber.6:                    # @SetCtxModelNumber.6
	.cfi_startproc
# %bb.0:                                # %entry
	pushq	%rbp
	.cfi_def_cfa_offset 16
	.cfi_offset %rbp, -16
	movq	%rsp, %rbp
	.cfi_def_cfa_register %rbp
	subq	$16, %rsp
	movl	$1631723496, -16(%rbp)  # imm = 0x61421FE8
	movq	img, %rax
	movl	72444(%rax), %eax
	movl	%eax, -12(%rbp)
	movq	img, %rax
	movl	24(%rax), %eax
	movl	%eax, -8(%rbp)
	movq	img, %rax
	movq	14160(%rax), %rax
	movl	12(%rax), %eax
	cltd
	idivl	num_mb_per_slice
	movl	%eax, -4(%rbp)
	movq	img, %rax
	cmpl	$2, 24(%rax)
	jne	.LBB13_2
# %bb.1:                                # %if.then
	movq	img, %rax
	movl	$0, 72520(%rax)
	jmp	.LBB13_11
.LBB13_2:                               # %if.end
	movq	input, %rax
	cmpl	$0, 3212(%rax)
	jne	.LBB13_4
# %bb.3:                                # %if.then3
	movq	input, %rax
	movl	3216(%rax), %eax
	movq	img, %rcx
	movl	%eax, 72520(%rcx)
	jmp	.LBB13_11
.LBB13_4:                               # %if.end6
	movq	initialized, %rax
	movslq	-12(%rbp), %rcx
	movq	(%rax,%rcx,8), %rax
	movslq	-8(%rbp), %rcx
	movq	(%rax,%rcx,8), %rax
	movslq	-4(%rbp), %rcx
	cmpl	$0, (%rax,%rcx,4)
	je	.LBB13_6
# %bb.5:                                # %if.then11
	movq	model_number, %rax
	movslq	-12(%rbp), %rcx
	movq	(%rax,%rcx,8), %rax
	movslq	-8(%rbp), %rcx
	movq	(%rax,%rcx,8), %rax
	movslq	-4(%rbp), %rcx
	movl	(%rax,%rcx,4), %eax
	movq	img, %rcx
	movl	%eax, 72520(%rcx)
	jmp	.LBB13_11
.LBB13_6:                               # %if.else
	cmpl	$0, -4(%rbp)
	je	.LBB13_9
# %bb.7:                                # %land.lhs.true
	movq	initialized, %rax
	movslq	-12(%rbp), %rcx
	movq	(%rax,%rcx,8), %rax
	movslq	-8(%rbp), %rcx
	movq	(%rax,%rcx,8), %rax
	movl	-4(%rbp), %ecx
	subl	$1, %ecx
	movslq	%ecx, %rcx
	cmpl	$0, (%rax,%rcx,4)
	je	.LBB13_9
# %bb.8:                                # %if.then27
	movq	model_number, %rax
	movslq	-12(%rbp), %rcx
	movq	(%rax,%rcx,8), %rax
	movslq	-8(%rbp), %rcx
	movq	(%rax,%rcx,8), %rax
	movl	-4(%rbp), %ecx
	subl	$1, %ecx
	movslq	%ecx, %rcx
	movl	(%rax,%rcx,4), %eax
	movq	img, %rcx
	movl	%eax, 72520(%rcx)
	jmp	.LBB13_10
.LBB13_9:                               # %if.else36
	movq	img, %rax
	movl	$0, 72520(%rax)
.LBB13_10:                              # %if.end38
	jmp	.LBB13_11
.LBB13_11:                              # %if.end39
	cmpl	$1631723496, -16(%rbp)  # imm = 0x61421FE8
	jne	.LBB13_13
.LBB13_12:
	addq	$16, %rsp
	popq	%rbp
	.cfi_def_cfa %rsp, 8
	retq
.LBB13_13:                              # %func_exit
	.cfi_def_cfa %rbp, 16
	callq	detect_breach
	jmp	.LBB13_12
.Lfunc_end13:
	.size	SetCtxModelNumber.6, .Lfunc_end13-SetCtxModelNumber.6
	.cfi_endproc
                                        # -- End function
	.section	.rodata.cst8,"aM",@progbits,8
	.p2align	3               # -- Begin function create_context_memory.7
.LCPI14_0:
	.quad	4611686018427387904     # double 2
.LCPI14_1:
	.quad	4607182418800017408     # double 1
	.text
	.globl	create_context_memory.7
	.p2align	4, 0x90
	.type	create_context_memory.7,@function
create_context_memory.7:                # @create_context_memory.7
	.cfi_startproc
# %bb.0:                                # %entry
	pushq	%rbp
	.cfi_def_cfa_offset 16
	.cfi_offset %rbp, -16
	movq	%rsp, %rbp
	.cfi_def_cfa_register %rbp
	subq	$48, %rsp
	movl	$1714591424, -20(%rbp)  # imm = 0x663296C0
	movq	img, %rax
	movl	72488(%rax), %eax
	movl	%eax, -16(%rbp)
	movq	input, %rax
	cmpl	$1, 208(%rax)
	jne	.LBB14_2
# %bb.1:                                # %cond.true
	movq	input, %rax
	movl	212(%rax), %eax
	jmp	.LBB14_3
.LBB14_2:                               # %cond.false
	movl	-16(%rbp), %eax
.LBB14_3:                               # %cond.end
	movl	%eax, num_mb_per_slice
	movl	-16(%rbp), %eax
	addl	num_mb_per_slice, %eax
	subl	$1, %eax
	cltd
	idivl	num_mb_per_slice
	movl	%eax, number_of_slices
	movl	$24, %edi
	callq	malloc
	movq	%rax, initialized
	cmpq	$0, %rax
	jne	.LBB14_5
# %bb.4:                                # %if.then
	movabsq	$.L.str, %rdi
	callq	no_mem_exit
.LBB14_5:                               # %if.end
	movl	$24, %edi
	callq	malloc
	movq	%rax, model_number
	cmpq	$0, %rax
	jne	.LBB14_7
# %bb.6:                                # %if.then4
	movabsq	$.L.str.1, %rdi
	callq	no_mem_exit
.LBB14_7:                               # %if.end5
	movl	$0, -4(%rbp)
.LBB14_8:                               # %for.cond
                                        # =>This Loop Header: Depth=1
                                        #     Child Loop BB14_14 Depth 2
	cmpl	$3, -4(%rbp)
	jge	.LBB14_23
# %bb.9:                                # %for.body
                                        #   in Loop: Header=BB14_8 Depth=1
	movl	$32, %edi
	callq	malloc
	movq	initialized, %rcx
	movslq	-4(%rbp), %rdx
	movq	%rax, (%rcx,%rdx,8)
	cmpq	$0, %rax
	jne	.LBB14_11
# %bb.10:                               # %if.then9
                                        #   in Loop: Header=BB14_8 Depth=1
	movabsq	$.L.str, %rdi
	callq	no_mem_exit
.LBB14_11:                              # %if.end10
                                        #   in Loop: Header=BB14_8 Depth=1
	movl	$32, %edi
	callq	malloc
	movq	model_number, %rcx
	movslq	-4(%rbp), %rdx
	movq	%rax, (%rcx,%rdx,8)
	cmpq	$0, %rax
	jne	.LBB14_13
# %bb.12:                               # %if.then15
                                        #   in Loop: Header=BB14_8 Depth=1
	movabsq	$.L.str.1, %rdi
	callq	no_mem_exit
.LBB14_13:                              # %if.end16
                                        #   in Loop: Header=BB14_8 Depth=1
	movl	$0, -8(%rbp)
.LBB14_14:                              # %for.cond17
                                        #   Parent Loop BB14_8 Depth=1
                                        # =>  This Inner Loop Header: Depth=2
	cmpl	$4, -8(%rbp)
	jge	.LBB14_21
# %bb.15:                               # %for.body19
                                        #   in Loop: Header=BB14_14 Depth=2
	movslq	number_of_slices, %rdi
	shlq	$2, %rdi
	callq	malloc
	movq	initialized, %rcx
	movslq	-4(%rbp), %rdx
	movq	(%rcx,%rdx,8), %rcx
	movslq	-8(%rbp), %rdx
	movq	%rax, (%rcx,%rdx,8)
	cmpq	$0, %rax
	jne	.LBB14_17
# %bb.16:                               # %if.then27
                                        #   in Loop: Header=BB14_14 Depth=2
	movabsq	$.L.str, %rdi
	callq	no_mem_exit
.LBB14_17:                              # %if.end28
                                        #   in Loop: Header=BB14_14 Depth=2
	movslq	number_of_slices, %rdi
	shlq	$2, %rdi
	callq	malloc
	movq	model_number, %rcx
	movslq	-4(%rbp), %rdx
	movq	(%rcx,%rdx,8), %rcx
	movslq	-8(%rbp), %rdx
	movq	%rax, (%rcx,%rdx,8)
	cmpq	$0, %rax
	jne	.LBB14_19
# %bb.18:                               # %if.then38
                                        #   in Loop: Header=BB14_14 Depth=2
	movabsq	$.L.str.1, %rdi
	callq	no_mem_exit
.LBB14_19:                              # %if.end39
                                        #   in Loop: Header=BB14_14 Depth=2
	jmp	.LBB14_20
.LBB14_20:                              # %for.inc
                                        #   in Loop: Header=BB14_14 Depth=2
	movl	-8(%rbp), %eax
	addl	$1, %eax
	movl	%eax, -8(%rbp)
	jmp	.LBB14_14
.LBB14_21:                              # %for.end
                                        #   in Loop: Header=BB14_8 Depth=1
	jmp	.LBB14_22
.LBB14_22:                              # %for.inc40
                                        #   in Loop: Header=BB14_8 Depth=1
	movl	-4(%rbp), %eax
	addl	$1, %eax
	movl	%eax, -4(%rbp)
	jmp	.LBB14_8
.LBB14_23:                              # %for.end42
	movl	$0, -4(%rbp)
.LBB14_24:                              # %for.cond43
                                        # =>This Loop Header: Depth=1
                                        #     Child Loop BB14_26 Depth 2
                                        #       Child Loop BB14_28 Depth 3
	cmpl	$3, -4(%rbp)
	jge	.LBB14_35
# %bb.25:                               # %for.body46
                                        #   in Loop: Header=BB14_24 Depth=1
	movl	$0, -8(%rbp)
.LBB14_26:                              # %for.cond47
                                        #   Parent Loop BB14_24 Depth=1
                                        # =>  This Loop Header: Depth=2
                                        #       Child Loop BB14_28 Depth 3
	cmpl	$4, -8(%rbp)
	jge	.LBB14_33
# %bb.27:                               # %for.body50
                                        #   in Loop: Header=BB14_26 Depth=2
	movl	$0, -12(%rbp)
.LBB14_28:                              # %for.cond51
                                        #   Parent Loop BB14_24 Depth=1
                                        #     Parent Loop BB14_26 Depth=2
                                        # =>    This Inner Loop Header: Depth=3
	movl	-12(%rbp), %eax
	cmpl	number_of_slices, %eax
	jge	.LBB14_31
# %bb.29:                               # %for.body54
                                        #   in Loop: Header=BB14_28 Depth=3
	movq	initialized, %rax
	movslq	-4(%rbp), %rcx
	movq	(%rax,%rcx,8), %rax
	movslq	-8(%rbp), %rcx
	movq	(%rax,%rcx,8), %rax
	movslq	-12(%rbp), %rcx
	movl	$0, (%rax,%rcx,4)
# %bb.30:                               # %for.inc61
                                        #   in Loop: Header=BB14_28 Depth=3
	movl	-12(%rbp), %eax
	addl	$1, %eax
	movl	%eax, -12(%rbp)
	jmp	.LBB14_28
.LBB14_31:                              # %for.end63
                                        #   in Loop: Header=BB14_26 Depth=2
	jmp	.LBB14_32
.LBB14_32:                              # %for.inc64
                                        #   in Loop: Header=BB14_26 Depth=2
	movl	-8(%rbp), %eax
	addl	$1, %eax
	movl	%eax, -8(%rbp)
	jmp	.LBB14_26
.LBB14_33:                              # %for.end66
                                        #   in Loop: Header=BB14_24 Depth=1
	jmp	.LBB14_34
.LBB14_34:                              # %for.inc67
                                        #   in Loop: Header=BB14_24 Depth=1
	movl	-4(%rbp), %eax
	addl	$1, %eax
	movl	%eax, -4(%rbp)
	jmp	.LBB14_24
.LBB14_35:                              # %for.end69
	movl	$0, -4(%rbp)
.LBB14_36:                              # %for.cond70
                                        # =>This Inner Loop Header: Depth=1
	cmpl	$64, -4(%rbp)
	jge	.LBB14_39
# %bb.37:                               # %for.body73
                                        #   in Loop: Header=BB14_36 Depth=1
	vmovsd	.LCPI14_1(%rip), %xmm0  # xmm0 = mem[0],zero
	movl	$127, %eax
	subl	-4(%rbp), %eax
	cltq
	vsubsd	probability(,%rax,8), %xmm0, %xmm0
	movslq	-4(%rbp), %rax
	vmovsd	%xmm0, probability(,%rax,8)
	movslq	-4(%rbp), %rax
	vmovsd	probability(,%rax,8), %xmm0 # xmm0 = mem[0],zero
	callq	log10
	vmovsd	%xmm0, -32(%rbp)        # 8-byte Spill
	vmovsd	.LCPI14_0(%rip), %xmm0  # xmm0 = mem[0],zero
	callq	log10
	vmovsd	-32(%rbp), %xmm1        # 8-byte Reload
                                        # xmm1 = mem[0],zero
	vdivsd	%xmm0, %xmm1, %xmm0
	movslq	-4(%rbp), %rax
	vmovsd	%xmm0, entropy(,%rax,8)
	movl	$127, %eax
	subl	-4(%rbp), %eax
	cltq
	vmovsd	probability(,%rax,8), %xmm0 # xmm0 = mem[0],zero
	callq	log10
	vmovsd	%xmm0, -40(%rbp)        # 8-byte Spill
	vmovsd	.LCPI14_0(%rip), %xmm0  # xmm0 = mem[0],zero
	callq	log10
	vmovsd	-40(%rbp), %xmm1        # 8-byte Reload
                                        # xmm1 = mem[0],zero
	vdivsd	%xmm0, %xmm1, %xmm0
	movl	$127, %eax
	subl	-4(%rbp), %eax
	cltq
	vmovsd	%xmm0, entropy(,%rax,8)
# %bb.38:                               # %for.inc96
                                        #   in Loop: Header=BB14_36 Depth=1
	movl	-4(%rbp), %eax
	addl	$1, %eax
	movl	%eax, -4(%rbp)
	jmp	.LBB14_36
.LBB14_39:                              # %for.end98
	cmpl	$1714591424, -20(%rbp)  # imm = 0x663296C0
	jne	.LBB14_41
.LBB14_40:
	addq	$48, %rsp
	popq	%rbp
	.cfi_def_cfa %rsp, 8
	retq
.LBB14_41:                              # %func_exit
	.cfi_def_cfa %rbp, 16
	callq	detect_breach
	jmp	.LBB14_40
.Lfunc_end14:
	.size	create_context_memory.7, .Lfunc_end14-create_context_memory.7
	.cfi_endproc
                                        # -- End function
	.globl	store_contexts.8        # -- Begin function store_contexts.8
	.p2align	4, 0x90
	.type	store_contexts.8,@function
store_contexts.8:                       # @store_contexts.8
	.cfi_startproc
# %bb.0:                                # %entry
	pushq	%rbp
	.cfi_def_cfa_offset 16
	.cfi_offset %rbp, -16
	movq	%rsp, %rbp
	.cfi_def_cfa_register %rbp
	subq	$16, %rsp
	movl	$987092995, -16(%rbp)   # imm = 0x3AD5D803
	movq	img, %rax
	movl	72444(%rax), %eax
	movl	%eax, -4(%rbp)
	movq	img, %rax
	movl	24(%rax), %eax
	movl	%eax, -12(%rbp)
	movq	img, %rax
	movq	14160(%rax), %rax
	movl	12(%rax), %eax
	cltd
	idivl	num_mb_per_slice
	movl	%eax, -8(%rbp)
	movq	input, %rax
	cmpl	$0, 3212(%rax)
	je	.LBB15_2
# %bb.1:                                # %if.then
	movq	initialized, %rax
	movslq	-4(%rbp), %rcx
	movq	(%rax,%rcx,8), %rax
	movslq	-12(%rbp), %rcx
	movq	(%rax,%rcx,8), %rax
	movslq	-8(%rbp), %rcx
	movl	$1, (%rax,%rcx,4)
	movq	model_number, %rax
	movslq	-4(%rbp), %rcx
	movq	(%rax,%rcx,8), %rax
	movslq	-12(%rbp), %rcx
	movq	(%rax,%rcx,8), %rdi
	movslq	-8(%rbp), %rax
	shlq	$2, %rax
	addq	%rax, %rdi
	movq	img, %rax
	movq	14160(%rax), %rax
	movq	32(%rax), %rsi
	movq	img, %rax
	movq	14160(%rax), %rax
	movq	40(%rax), %rdx
	callq	GetCtxModelNumber
	jmp	.LBB15_3
.LBB15_2:                               # %if.else
	jmp	.LBB15_3
.LBB15_3:                               # %if.end
	cmpl	$987092995, -16(%rbp)   # imm = 0x3AD5D803
	jne	.LBB15_5
.LBB15_4:
	addq	$16, %rsp
	popq	%rbp
	.cfi_def_cfa %rsp, 8
	retq
.LBB15_5:                               # %func_exit
	.cfi_def_cfa %rbp, 16
	callq	detect_breach
	jmp	.LBB15_4
.Lfunc_end15:
	.size	store_contexts.8, .Lfunc_end15-store_contexts.8
	.cfi_endproc
                                        # -- End function
	.globl	SetCtxModelNumber.9     # -- Begin function SetCtxModelNumber.9
	.p2align	4, 0x90
	.type	SetCtxModelNumber.9,@function
SetCtxModelNumber.9:                    # @SetCtxModelNumber.9
	.cfi_startproc
# %bb.0:                                # %entry
	pushq	%rbp
	.cfi_def_cfa_offset 16
	.cfi_offset %rbp, -16
	movq	%rsp, %rbp
	.cfi_def_cfa_register %rbp
	subq	$16, %rsp
	movl	$899053522, -16(%rbp)   # imm = 0x359677D2
	movq	img, %rax
	movl	72444(%rax), %eax
	movl	%eax, -8(%rbp)
	movq	img, %rax
	movl	24(%rax), %eax
	movl	%eax, -12(%rbp)
	movq	img, %rax
	movq	14160(%rax), %rax
	movl	12(%rax), %eax
	cltd
	idivl	num_mb_per_slice
	movl	%eax, -4(%rbp)
	movq	img, %rax
	cmpl	$2, 24(%rax)
	jne	.LBB16_2
# %bb.1:                                # %if.then
	movq	img, %rax
	movl	$0, 72520(%rax)
	jmp	.LBB16_11
.LBB16_2:                               # %if.end
	movq	input, %rax
	cmpl	$0, 3212(%rax)
	jne	.LBB16_4
# %bb.3:                                # %if.then3
	movq	input, %rax
	movl	3216(%rax), %eax
	movq	img, %rcx
	movl	%eax, 72520(%rcx)
	jmp	.LBB16_11
.LBB16_4:                               # %if.end6
	movq	initialized, %rax
	movslq	-8(%rbp), %rcx
	movq	(%rax,%rcx,8), %rax
	movslq	-12(%rbp), %rcx
	movq	(%rax,%rcx,8), %rax
	movslq	-4(%rbp), %rcx
	cmpl	$0, (%rax,%rcx,4)
	je	.LBB16_6
# %bb.5:                                # %if.then11
	movq	model_number, %rax
	movslq	-8(%rbp), %rcx
	movq	(%rax,%rcx,8), %rax
	movslq	-12(%rbp), %rcx
	movq	(%rax,%rcx,8), %rax
	movslq	-4(%rbp), %rcx
	movl	(%rax,%rcx,4), %eax
	movq	img, %rcx
	movl	%eax, 72520(%rcx)
	jmp	.LBB16_11
.LBB16_6:                               # %if.else
	cmpl	$0, -4(%rbp)
	je	.LBB16_9
# %bb.7:                                # %land.lhs.true
	movq	initialized, %rax
	movslq	-8(%rbp), %rcx
	movq	(%rax,%rcx,8), %rax
	movslq	-12(%rbp), %rcx
	movq	(%rax,%rcx,8), %rax
	movl	-4(%rbp), %ecx
	subl	$1, %ecx
	movslq	%ecx, %rcx
	cmpl	$0, (%rax,%rcx,4)
	je	.LBB16_9
# %bb.8:                                # %if.then27
	movq	model_number, %rax
	movslq	-8(%rbp), %rcx
	movq	(%rax,%rcx,8), %rax
	movslq	-12(%rbp), %rcx
	movq	(%rax,%rcx,8), %rax
	movl	-4(%rbp), %ecx
	subl	$1, %ecx
	movslq	%ecx, %rcx
	movl	(%rax,%rcx,4), %eax
	movq	img, %rcx
	movl	%eax, 72520(%rcx)
	jmp	.LBB16_10
.LBB16_9:                               # %if.else36
	movq	img, %rax
	movl	$0, 72520(%rax)
.LBB16_10:                              # %if.end38
	jmp	.LBB16_11
.LBB16_11:                              # %if.end39
	cmpl	$899053522, -16(%rbp)   # imm = 0x359677D2
	jne	.LBB16_13
.LBB16_12:
	addq	$16, %rsp
	popq	%rbp
	.cfi_def_cfa %rsp, 8
	retq
.LBB16_13:                              # %func_exit
	.cfi_def_cfa %rbp, 16
	callq	detect_breach
	jmp	.LBB16_12
.Lfunc_end16:
	.size	SetCtxModelNumber.9, .Lfunc_end16-SetCtxModelNumber.9
	.cfi_endproc
                                        # -- End function
	.globl	SetCtxModelNumber.10    # -- Begin function SetCtxModelNumber.10
	.p2align	4, 0x90
	.type	SetCtxModelNumber.10,@function
SetCtxModelNumber.10:                   # @SetCtxModelNumber.10
	.cfi_startproc
# %bb.0:                                # %entry
	pushq	%rbp
	.cfi_def_cfa_offset 16
	.cfi_offset %rbp, -16
	movq	%rsp, %rbp
	.cfi_def_cfa_register %rbp
	subq	$16, %rsp
	movl	$1658467915, -16(%rbp)  # imm = 0x62DA364B
	movq	img, %rax
	movl	72444(%rax), %eax
	movl	%eax, -8(%rbp)
	movq	img, %rax
	movl	24(%rax), %eax
	movl	%eax, -12(%rbp)
	movq	img, %rax
	movq	14160(%rax), %rax
	movl	12(%rax), %eax
	cltd
	idivl	num_mb_per_slice
	movl	%eax, -4(%rbp)
	movq	img, %rax
	cmpl	$2, 24(%rax)
	jne	.LBB17_2
# %bb.1:                                # %if.then
	movq	img, %rax
	movl	$0, 72520(%rax)
	jmp	.LBB17_11
.LBB17_2:                               # %if.end
	movq	input, %rax
	cmpl	$0, 3212(%rax)
	jne	.LBB17_4
# %bb.3:                                # %if.then3
	movq	input, %rax
	movl	3216(%rax), %eax
	movq	img, %rcx
	movl	%eax, 72520(%rcx)
	jmp	.LBB17_11
.LBB17_4:                               # %if.end6
	movq	initialized, %rax
	movslq	-8(%rbp), %rcx
	movq	(%rax,%rcx,8), %rax
	movslq	-12(%rbp), %rcx
	movq	(%rax,%rcx,8), %rax
	movslq	-4(%rbp), %rcx
	cmpl	$0, (%rax,%rcx,4)
	je	.LBB17_6
# %bb.5:                                # %if.then11
	movq	model_number, %rax
	movslq	-8(%rbp), %rcx
	movq	(%rax,%rcx,8), %rax
	movslq	-12(%rbp), %rcx
	movq	(%rax,%rcx,8), %rax
	movslq	-4(%rbp), %rcx
	movl	(%rax,%rcx,4), %eax
	movq	img, %rcx
	movl	%eax, 72520(%rcx)
	jmp	.LBB17_11
.LBB17_6:                               # %if.else
	cmpl	$0, -4(%rbp)
	je	.LBB17_9
# %bb.7:                                # %land.lhs.true
	movq	initialized, %rax
	movslq	-8(%rbp), %rcx
	movq	(%rax,%rcx,8), %rax
	movslq	-12(%rbp), %rcx
	movq	(%rax,%rcx,8), %rax
	movl	-4(%rbp), %ecx
	subl	$1, %ecx
	movslq	%ecx, %rcx
	cmpl	$0, (%rax,%rcx,4)
	je	.LBB17_9
# %bb.8:                                # %if.then27
	movq	model_number, %rax
	movslq	-8(%rbp), %rcx
	movq	(%rax,%rcx,8), %rax
	movslq	-12(%rbp), %rcx
	movq	(%rax,%rcx,8), %rax
	movl	-4(%rbp), %ecx
	subl	$1, %ecx
	movslq	%ecx, %rcx
	movl	(%rax,%rcx,4), %eax
	movq	img, %rcx
	movl	%eax, 72520(%rcx)
	jmp	.LBB17_10
.LBB17_9:                               # %if.else36
	movq	img, %rax
	movl	$0, 72520(%rax)
.LBB17_10:                              # %if.end38
	jmp	.LBB17_11
.LBB17_11:                              # %if.end39
	cmpl	$1658467915, -16(%rbp)  # imm = 0x62DA364B
	jne	.LBB17_13
.LBB17_12:
	addq	$16, %rsp
	popq	%rbp
	.cfi_def_cfa %rsp, 8
	retq
.LBB17_13:                              # %func_exit
	.cfi_def_cfa %rbp, 16
	callq	detect_breach
	jmp	.LBB17_12
.Lfunc_end17:
	.size	SetCtxModelNumber.10, .Lfunc_end17-SetCtxModelNumber.10
	.cfi_endproc
                                        # -- End function
	.globl	SetCtxModelNumber.11    # -- Begin function SetCtxModelNumber.11
	.p2align	4, 0x90
	.type	SetCtxModelNumber.11,@function
SetCtxModelNumber.11:                   # @SetCtxModelNumber.11
	.cfi_startproc
# %bb.0:                                # %entry
	pushq	%rbp
	.cfi_def_cfa_offset 16
	.cfi_offset %rbp, -16
	movq	%rsp, %rbp
	.cfi_def_cfa_register %rbp
	subq	$16, %rsp
	movl	$391018365, -16(%rbp)   # imm = 0x174E777D
	movq	img, %rax
	movl	72444(%rax), %eax
	movl	%eax, -12(%rbp)
	movq	img, %rax
	movl	24(%rax), %eax
	movl	%eax, -8(%rbp)
	movq	img, %rax
	movq	14160(%rax), %rax
	movl	12(%rax), %eax
	cltd
	idivl	num_mb_per_slice
	movl	%eax, -4(%rbp)
	movq	img, %rax
	cmpl	$2, 24(%rax)
	jne	.LBB18_2
# %bb.1:                                # %if.then
	movq	img, %rax
	movl	$0, 72520(%rax)
	jmp	.LBB18_11
.LBB18_2:                               # %if.end
	movq	input, %rax
	cmpl	$0, 3212(%rax)
	jne	.LBB18_4
# %bb.3:                                # %if.then3
	movq	input, %rax
	movl	3216(%rax), %eax
	movq	img, %rcx
	movl	%eax, 72520(%rcx)
	jmp	.LBB18_11
.LBB18_4:                               # %if.end6
	movq	initialized, %rax
	movslq	-12(%rbp), %rcx
	movq	(%rax,%rcx,8), %rax
	movslq	-8(%rbp), %rcx
	movq	(%rax,%rcx,8), %rax
	movslq	-4(%rbp), %rcx
	cmpl	$0, (%rax,%rcx,4)
	je	.LBB18_6
# %bb.5:                                # %if.then11
	movq	model_number, %rax
	movslq	-12(%rbp), %rcx
	movq	(%rax,%rcx,8), %rax
	movslq	-8(%rbp), %rcx
	movq	(%rax,%rcx,8), %rax
	movslq	-4(%rbp), %rcx
	movl	(%rax,%rcx,4), %eax
	movq	img, %rcx
	movl	%eax, 72520(%rcx)
	jmp	.LBB18_11
.LBB18_6:                               # %if.else
	cmpl	$0, -4(%rbp)
	je	.LBB18_9
# %bb.7:                                # %land.lhs.true
	movq	initialized, %rax
	movslq	-12(%rbp), %rcx
	movq	(%rax,%rcx,8), %rax
	movslq	-8(%rbp), %rcx
	movq	(%rax,%rcx,8), %rax
	movl	-4(%rbp), %ecx
	subl	$1, %ecx
	movslq	%ecx, %rcx
	cmpl	$0, (%rax,%rcx,4)
	je	.LBB18_9
# %bb.8:                                # %if.then27
	movq	model_number, %rax
	movslq	-12(%rbp), %rcx
	movq	(%rax,%rcx,8), %rax
	movslq	-8(%rbp), %rcx
	movq	(%rax,%rcx,8), %rax
	movl	-4(%rbp), %ecx
	subl	$1, %ecx
	movslq	%ecx, %rcx
	movl	(%rax,%rcx,4), %eax
	movq	img, %rcx
	movl	%eax, 72520(%rcx)
	jmp	.LBB18_10
.LBB18_9:                               # %if.else36
	movq	img, %rax
	movl	$0, 72520(%rax)
.LBB18_10:                              # %if.end38
	jmp	.LBB18_11
.LBB18_11:                              # %if.end39
	cmpl	$391018365, -16(%rbp)   # imm = 0x174E777D
	jne	.LBB18_13
.LBB18_12:
	addq	$16, %rsp
	popq	%rbp
	.cfi_def_cfa %rsp, 8
	retq
.LBB18_13:                              # %func_exit
	.cfi_def_cfa %rbp, 16
	callq	detect_breach
	jmp	.LBB18_12
.Lfunc_end18:
	.size	SetCtxModelNumber.11, .Lfunc_end18-SetCtxModelNumber.11
	.cfi_endproc
                                        # -- End function
	.globl	update_field_frame_contexts.12 # -- Begin function update_field_frame_contexts.12
	.p2align	4, 0x90
	.type	update_field_frame_contexts.12,@function
update_field_frame_contexts.12:         # @update_field_frame_contexts.12
	.cfi_startproc
# %bb.0:                                # %entry
	pushq	%rbp
	.cfi_def_cfa_offset 16
	.cfi_offset %rbp, -16
	movq	%rsp, %rbp
	.cfi_def_cfa_register %rbp
	subq	$16, %rsp
	movl	$1784031465, -16(%rbp)  # imm = 0x6A5628E9
	movl	%edi, -12(%rbp)
	cmpl	$0, -12(%rbp)
	je	.LBB19_10
# %bb.1:                                # %if.then
	movl	$0, -4(%rbp)
.LBB19_2:                               # %for.cond
                                        # =>This Loop Header: Depth=1
                                        #     Child Loop BB19_4 Depth 2
	cmpl	$4, -4(%rbp)
	jge	.LBB19_9
# %bb.3:                                # %for.body
                                        #   in Loop: Header=BB19_2 Depth=1
	movl	$0, -8(%rbp)
.LBB19_4:                               # %for.cond1
                                        #   Parent Loop BB19_2 Depth=1
                                        # =>  This Inner Loop Header: Depth=2
	movl	-8(%rbp), %eax
	cmpl	number_of_slices, %eax
	jge	.LBB19_7
# %bb.5:                                # %for.body3
                                        #   in Loop: Header=BB19_4 Depth=2
	movq	initialized, %rax
	movq	8(%rax), %rax
	movslq	-4(%rbp), %rcx
	movq	(%rax,%rcx,8), %rax
	movl	-8(%rbp), %ecx
	sarl	$1, %ecx
	movslq	%ecx, %rcx
	movl	(%rax,%rcx,4), %eax
	movq	initialized, %rcx
	movq	(%rcx), %rcx
	movslq	-4(%rbp), %rdx
	movq	(%rcx,%rdx,8), %rcx
	movslq	-8(%rbp), %rdx
	movl	%eax, (%rcx,%rdx,4)
	movq	model_number, %rax
	movq	8(%rax), %rax
	movslq	-4(%rbp), %rcx
	movq	(%rax,%rcx,8), %rax
	movl	-8(%rbp), %ecx
	sarl	$1, %ecx
	movslq	%ecx, %rcx
	movl	(%rax,%rcx,4), %eax
	movq	model_number, %rcx
	movq	(%rcx), %rcx
	movslq	-4(%rbp), %rdx
	movq	(%rcx,%rdx,8), %rcx
	movslq	-8(%rbp), %rdx
	movl	%eax, (%rcx,%rdx,4)
# %bb.6:                                # %for.inc
                                        #   in Loop: Header=BB19_4 Depth=2
	movl	-8(%rbp), %eax
	addl	$1, %eax
	movl	%eax, -8(%rbp)
	jmp	.LBB19_4
.LBB19_7:                               # %for.end
                                        #   in Loop: Header=BB19_2 Depth=1
	jmp	.LBB19_8
.LBB19_8:                               # %for.inc23
                                        #   in Loop: Header=BB19_2 Depth=1
	movl	-4(%rbp), %eax
	addl	$1, %eax
	movl	%eax, -4(%rbp)
	jmp	.LBB19_2
.LBB19_9:                               # %for.end25
	jmp	.LBB19_19
.LBB19_10:                              # %if.else
	movl	$0, -4(%rbp)
.LBB19_11:                              # %for.cond26
                                        # =>This Loop Header: Depth=1
                                        #     Child Loop BB19_13 Depth 2
	cmpl	$4, -4(%rbp)
	jge	.LBB19_18
# %bb.12:                               # %for.body28
                                        #   in Loop: Header=BB19_11 Depth=1
	movl	$0, -8(%rbp)
.LBB19_13:                              # %for.cond29
                                        #   Parent Loop BB19_11 Depth=1
                                        # =>  This Inner Loop Header: Depth=2
	movl	-8(%rbp), %eax
	movl	number_of_slices, %ecx
	addl	$1, %ecx
	sarl	$1, %ecx
	cmpl	%ecx, %eax
	jge	.LBB19_16
# %bb.14:                               # %for.body32
                                        #   in Loop: Header=BB19_13 Depth=2
	movq	initialized, %rax
	movq	(%rax), %rax
	movslq	-4(%rbp), %rcx
	movq	(%rax,%rcx,8), %rax
	movl	-8(%rbp), %ecx
	shll	$1, %ecx
	movslq	%ecx, %rcx
	movl	(%rax,%rcx,4), %eax
	movq	initialized, %rcx
	movq	8(%rcx), %rcx
	movslq	-4(%rbp), %rdx
	movq	(%rcx,%rdx,8), %rcx
	movslq	-8(%rbp), %rdx
	movl	%eax, (%rcx,%rdx,4)
	movq	model_number, %rax
	movq	(%rax), %rax
	movslq	-4(%rbp), %rcx
	movq	(%rax,%rcx,8), %rax
	movl	-8(%rbp), %ecx
	shll	$1, %ecx
	movslq	%ecx, %rcx
	movl	(%rax,%rcx,4), %eax
	movq	model_number, %rcx
	movq	8(%rcx), %rcx
	movslq	-4(%rbp), %rdx
	movq	(%rcx,%rdx,8), %rcx
	movslq	-8(%rbp), %rdx
	movl	%eax, (%rcx,%rdx,4)
# %bb.15:                               # %for.inc54
                                        #   in Loop: Header=BB19_13 Depth=2
	movl	-8(%rbp), %eax
	addl	$1, %eax
	movl	%eax, -8(%rbp)
	jmp	.LBB19_13
.LBB19_16:                              # %for.end56
                                        #   in Loop: Header=BB19_11 Depth=1
	jmp	.LBB19_17
.LBB19_17:                              # %for.inc57
                                        #   in Loop: Header=BB19_11 Depth=1
	movl	-4(%rbp), %eax
	addl	$1, %eax
	movl	%eax, -4(%rbp)
	jmp	.LBB19_11
.LBB19_18:                              # %for.end59
	jmp	.LBB19_19
.LBB19_19:                              # %if.end
	cmpl	$1784031465, -16(%rbp)  # imm = 0x6A5628E9
	jne	.LBB19_21
.LBB19_20:
	addq	$16, %rsp
	popq	%rbp
	.cfi_def_cfa %rsp, 8
	retq
.LBB19_21:                              # %func_exit
	.cfi_def_cfa %rbp, 16
	callq	detect_breach
	jmp	.LBB19_20
.Lfunc_end19:
	.size	update_field_frame_contexts.12, .Lfunc_end19-update_field_frame_contexts.12
	.cfi_endproc
                                        # -- End function
	.globl	init_contexts.13        # -- Begin function init_contexts.13
	.p2align	4, 0x90
	.type	init_contexts.13,@function
init_contexts.13:                       # @init_contexts.13
	.cfi_startproc
# %bb.0:                                # %entry
	pushq	%rbp
	.cfi_def_cfa_offset 16
	.cfi_offset %rbp, -16
	movq	%rsp, %rbp
	.cfi_def_cfa_register %rbp
	subq	$32, %rsp
	movl	$2035969686, -28(%rbp)  # imm = 0x795A6E96
	movq	img, %rax
	movq	14160(%rax), %rax
	movq	32(%rax), %rax
	movq	%rax, -24(%rbp)
	movq	img, %rax
	movq	14160(%rax), %rax
	movq	40(%rax), %rax
	movq	%rax, -16(%rbp)
	movl	$0, -8(%rbp)
.LBB20_1:                               # %for.cond
                                        # =>This Loop Header: Depth=1
                                        #     Child Loop BB20_3 Depth 2
	cmpl	$3, -8(%rbp)
	jge	.LBB20_11
# %bb.2:                                # %for.body
                                        #   in Loop: Header=BB20_1 Depth=1
	movl	$0, -4(%rbp)
.LBB20_3:                               # %for.cond2
                                        #   Parent Loop BB20_1 Depth=1
                                        # =>  This Inner Loop Header: Depth=2
	cmpl	$11, -4(%rbp)
	jge	.LBB20_9
# %bb.4:                                # %for.body4
                                        #   in Loop: Header=BB20_3 Depth=2
	movq	img, %rax
	cmpl	$2, 24(%rax)
	jne	.LBB20_6
# %bb.5:                                # %if.then
                                        #   in Loop: Header=BB20_3 Depth=2
	movq	-24(%rbp), %rdi
	movslq	-8(%rbp), %rax
	imulq	$176, %rax, %rax
	addq	%rax, %rdi
	movslq	-4(%rbp), %rax
	shlq	$4, %rax
	addq	%rax, %rdi
	movq	img, %rax
	movslq	72520(%rax), %rax
	imulq	$264, %rax, %rax        # imm = 0x108
	movabsq	$INIT_MB_TYPE_I, %rsi
	addq	%rax, %rsi
	movslq	-8(%rbp), %rax
	imulq	$88, %rax, %rax
	addq	%rax, %rsi
	movslq	-4(%rbp), %rax
	shlq	$3, %rax
	addq	%rax, %rsi
	callq	biari_init_context
	jmp	.LBB20_7
.LBB20_6:                               # %if.else
                                        #   in Loop: Header=BB20_3 Depth=2
	movq	-24(%rbp), %rdi
	movslq	-8(%rbp), %rax
	imulq	$176, %rax, %rax
	addq	%rax, %rdi
	movslq	-4(%rbp), %rax
	shlq	$4, %rax
	addq	%rax, %rdi
	movq	img, %rax
	movslq	72520(%rax), %rax
	imulq	$264, %rax, %rax        # imm = 0x108
	movabsq	$INIT_MB_TYPE_P, %rsi
	addq	%rax, %rsi
	movslq	-8(%rbp), %rax
	imulq	$88, %rax, %rax
	addq	%rax, %rsi
	movslq	-4(%rbp), %rax
	shlq	$3, %rax
	addq	%rax, %rsi
	callq	biari_init_context
.LBB20_7:                               # %if.end
                                        #   in Loop: Header=BB20_3 Depth=2
	jmp	.LBB20_8
.LBB20_8:                               # %for.inc
                                        #   in Loop: Header=BB20_3 Depth=2
	movl	-4(%rbp), %eax
	addl	$1, %eax
	movl	%eax, -4(%rbp)
	jmp	.LBB20_3
.LBB20_9:                               # %for.end
                                        #   in Loop: Header=BB20_1 Depth=1
	jmp	.LBB20_10
.LBB20_10:                              # %for.inc28
                                        #   in Loop: Header=BB20_1 Depth=1
	movl	-8(%rbp), %eax
	addl	$1, %eax
	movl	%eax, -8(%rbp)
	jmp	.LBB20_1
.LBB20_11:                              # %for.end30
	movl	$0, -8(%rbp)
.LBB20_12:                              # %for.cond31
                                        # =>This Loop Header: Depth=1
                                        #     Child Loop BB20_14 Depth 2
	cmpl	$2, -8(%rbp)
	jge	.LBB20_22
# %bb.13:                               # %for.body33
                                        #   in Loop: Header=BB20_12 Depth=1
	movl	$0, -4(%rbp)
.LBB20_14:                              # %for.cond34
                                        #   Parent Loop BB20_12 Depth=1
                                        # =>  This Inner Loop Header: Depth=2
	cmpl	$9, -4(%rbp)
	jge	.LBB20_20
# %bb.15:                               # %for.body36
                                        #   in Loop: Header=BB20_14 Depth=2
	movq	img, %rax
	cmpl	$2, 24(%rax)
	jne	.LBB20_17
# %bb.16:                               # %if.then39
                                        #   in Loop: Header=BB20_14 Depth=2
	movq	-24(%rbp), %rdi
	addq	$528, %rdi              # imm = 0x210
	movslq	-8(%rbp), %rax
	imulq	$144, %rax, %rax
	addq	%rax, %rdi
	movslq	-4(%rbp), %rax
	shlq	$4, %rax
	addq	%rax, %rdi
	movq	img, %rax
	movslq	72520(%rax), %rax
	imulq	$144, %rax, %rax
	movabsq	$INIT_B8_TYPE_I, %rsi
	addq	%rax, %rsi
	movslq	-8(%rbp), %rax
	imulq	$72, %rax, %rax
	addq	%rax, %rsi
	movslq	-4(%rbp), %rax
	shlq	$3, %rax
	addq	%rax, %rsi
	callq	biari_init_context
	jmp	.LBB20_18
.LBB20_17:                              # %if.else52
                                        #   in Loop: Header=BB20_14 Depth=2
	movq	-24(%rbp), %rdi
	addq	$528, %rdi              # imm = 0x210
	movslq	-8(%rbp), %rax
	imulq	$144, %rax, %rax
	addq	%rax, %rdi
	movslq	-4(%rbp), %rax
	shlq	$4, %rax
	addq	%rax, %rdi
	movq	img, %rax
	movslq	72520(%rax), %rax
	imulq	$144, %rax, %rax
	movabsq	$INIT_B8_TYPE_P, %rsi
	addq	%rax, %rsi
	movslq	-8(%rbp), %rax
	imulq	$72, %rax, %rax
	addq	%rax, %rsi
	movslq	-4(%rbp), %rax
	shlq	$3, %rax
	addq	%rax, %rsi
	callq	biari_init_context
.LBB20_18:                              # %if.end66
                                        #   in Loop: Header=BB20_14 Depth=2
	jmp	.LBB20_19
.LBB20_19:                              # %for.inc67
                                        #   in Loop: Header=BB20_14 Depth=2
	movl	-4(%rbp), %eax
	addl	$1, %eax
	movl	%eax, -4(%rbp)
	jmp	.LBB20_14
.LBB20_20:                              # %for.end69
                                        #   in Loop: Header=BB20_12 Depth=1
	jmp	.LBB20_21
.LBB20_21:                              # %for.inc70
                                        #   in Loop: Header=BB20_12 Depth=1
	movl	-8(%rbp), %eax
	addl	$1, %eax
	movl	%eax, -8(%rbp)
	jmp	.LBB20_12
.LBB20_22:                              # %for.end72
	movl	$0, -8(%rbp)
.LBB20_23:                              # %for.cond73
                                        # =>This Loop Header: Depth=1
                                        #     Child Loop BB20_25 Depth 2
	cmpl	$2, -8(%rbp)
	jge	.LBB20_33
# %bb.24:                               # %for.body75
                                        #   in Loop: Header=BB20_23 Depth=1
	movl	$0, -4(%rbp)
.LBB20_25:                              # %for.cond76
                                        #   Parent Loop BB20_23 Depth=1
                                        # =>  This Inner Loop Header: Depth=2
	cmpl	$10, -4(%rbp)
	jge	.LBB20_31
# %bb.26:                               # %for.body78
                                        #   in Loop: Header=BB20_25 Depth=2
	movq	img, %rax
	cmpl	$2, 24(%rax)
	jne	.LBB20_28
# %bb.27:                               # %if.then81
                                        #   in Loop: Header=BB20_25 Depth=2
	movq	-24(%rbp), %rdi
	addq	$816, %rdi              # imm = 0x330
	movslq	-8(%rbp), %rax
	imulq	$160, %rax, %rax
	addq	%rax, %rdi
	movslq	-4(%rbp), %rax
	shlq	$4, %rax
	addq	%rax, %rdi
	movq	img, %rax
	movslq	72520(%rax), %rax
	imulq	$160, %rax, %rax
	movabsq	$INIT_MV_RES_I, %rsi
	addq	%rax, %rsi
	movslq	-8(%rbp), %rax
	imulq	$80, %rax, %rax
	addq	%rax, %rsi
	movslq	-4(%rbp), %rax
	shlq	$3, %rax
	addq	%rax, %rsi
	callq	biari_init_context
	jmp	.LBB20_29
.LBB20_28:                              # %if.else94
                                        #   in Loop: Header=BB20_25 Depth=2
	movq	-24(%rbp), %rdi
	addq	$816, %rdi              # imm = 0x330
	movslq	-8(%rbp), %rax
	imulq	$160, %rax, %rax
	addq	%rax, %rdi
	movslq	-4(%rbp), %rax
	shlq	$4, %rax
	addq	%rax, %rdi
	movq	img, %rax
	movslq	72520(%rax), %rax
	imulq	$160, %rax, %rax
	movabsq	$INIT_MV_RES_P, %rsi
	addq	%rax, %rsi
	movslq	-8(%rbp), %rax
	imulq	$80, %rax, %rax
	addq	%rax, %rsi
	movslq	-4(%rbp), %rax
	shlq	$3, %rax
	addq	%rax, %rsi
	callq	biari_init_context
.LBB20_29:                              # %if.end108
                                        #   in Loop: Header=BB20_25 Depth=2
	jmp	.LBB20_30
.LBB20_30:                              # %for.inc109
                                        #   in Loop: Header=BB20_25 Depth=2
	movl	-4(%rbp), %eax
	addl	$1, %eax
	movl	%eax, -4(%rbp)
	jmp	.LBB20_25
.LBB20_31:                              # %for.end111
                                        #   in Loop: Header=BB20_23 Depth=1
	jmp	.LBB20_32
.LBB20_32:                              # %for.inc112
                                        #   in Loop: Header=BB20_23 Depth=1
	movl	-8(%rbp), %eax
	addl	$1, %eax
	movl	%eax, -8(%rbp)
	jmp	.LBB20_23
.LBB20_33:                              # %for.end114
	movl	$0, -8(%rbp)
.LBB20_34:                              # %for.cond115
                                        # =>This Loop Header: Depth=1
                                        #     Child Loop BB20_36 Depth 2
	cmpl	$2, -8(%rbp)
	jge	.LBB20_44
# %bb.35:                               # %for.body117
                                        #   in Loop: Header=BB20_34 Depth=1
	movl	$0, -4(%rbp)
.LBB20_36:                              # %for.cond118
                                        #   Parent Loop BB20_34 Depth=1
                                        # =>  This Inner Loop Header: Depth=2
	cmpl	$6, -4(%rbp)
	jge	.LBB20_42
# %bb.37:                               # %for.body120
                                        #   in Loop: Header=BB20_36 Depth=2
	movq	img, %rax
	cmpl	$2, 24(%rax)
	jne	.LBB20_39
# %bb.38:                               # %if.then123
                                        #   in Loop: Header=BB20_36 Depth=2
	movq	-24(%rbp), %rdi
	addq	$1136, %rdi             # imm = 0x470
	movslq	-8(%rbp), %rax
	imulq	$96, %rax, %rax
	addq	%rax, %rdi
	movslq	-4(%rbp), %rax
	shlq	$4, %rax
	addq	%rax, %rdi
	movq	img, %rax
	movslq	72520(%rax), %rax
	imulq	$96, %rax, %rax
	movabsq	$INIT_REF_NO_I, %rsi
	addq	%rax, %rsi
	movslq	-8(%rbp), %rax
	imulq	$48, %rax, %rax
	addq	%rax, %rsi
	movslq	-4(%rbp), %rax
	shlq	$3, %rax
	addq	%rax, %rsi
	callq	biari_init_context
	jmp	.LBB20_40
.LBB20_39:                              # %if.else136
                                        #   in Loop: Header=BB20_36 Depth=2
	movq	-24(%rbp), %rdi
	addq	$1136, %rdi             # imm = 0x470
	movslq	-8(%rbp), %rax
	imulq	$96, %rax, %rax
	addq	%rax, %rdi
	movslq	-4(%rbp), %rax
	shlq	$4, %rax
	addq	%rax, %rdi
	movq	img, %rax
	movslq	72520(%rax), %rax
	imulq	$96, %rax, %rax
	movabsq	$INIT_REF_NO_P, %rsi
	addq	%rax, %rsi
	movslq	-8(%rbp), %rax
	imulq	$48, %rax, %rax
	addq	%rax, %rsi
	movslq	-4(%rbp), %rax
	shlq	$3, %rax
	addq	%rax, %rsi
	callq	biari_init_context
.LBB20_40:                              # %if.end150
                                        #   in Loop: Header=BB20_36 Depth=2
	jmp	.LBB20_41
.LBB20_41:                              # %for.inc151
                                        #   in Loop: Header=BB20_36 Depth=2
	movl	-4(%rbp), %eax
	addl	$1, %eax
	movl	%eax, -4(%rbp)
	jmp	.LBB20_36
.LBB20_42:                              # %for.end153
                                        #   in Loop: Header=BB20_34 Depth=1
	jmp	.LBB20_43
.LBB20_43:                              # %for.inc154
                                        #   in Loop: Header=BB20_34 Depth=1
	movl	-8(%rbp), %eax
	addl	$1, %eax
	movl	%eax, -8(%rbp)
	jmp	.LBB20_34
.LBB20_44:                              # %for.end156
	movl	$0, -4(%rbp)
.LBB20_45:                              # %for.cond157
                                        # =>This Inner Loop Header: Depth=1
	cmpl	$4, -4(%rbp)
	jge	.LBB20_51
# %bb.46:                               # %for.body159
                                        #   in Loop: Header=BB20_45 Depth=1
	movq	img, %rax
	cmpl	$2, 24(%rax)
	jne	.LBB20_48
# %bb.47:                               # %if.then162
                                        #   in Loop: Header=BB20_45 Depth=1
	movq	-24(%rbp), %rdi
	addq	$1328, %rdi             # imm = 0x530
	movslq	-4(%rbp), %rax
	shlq	$4, %rax
	addq	%rax, %rdi
	movq	img, %rax
	movslq	72520(%rax), %rax
	shlq	$5, %rax
	movabsq	$INIT_DELTA_QP_I, %rsi
	addq	%rax, %rsi
	movslq	-4(%rbp), %rax
	shlq	$3, %rax
	addq	%rax, %rsi
	callq	biari_init_context
	jmp	.LBB20_49
.LBB20_48:                              # %if.else172
                                        #   in Loop: Header=BB20_45 Depth=1
	movq	-24(%rbp), %rdi
	addq	$1328, %rdi             # imm = 0x530
	movslq	-4(%rbp), %rax
	shlq	$4, %rax
	addq	%rax, %rdi
	movq	img, %rax
	movslq	72520(%rax), %rax
	shlq	$5, %rax
	movabsq	$INIT_DELTA_QP_P, %rsi
	addq	%rax, %rsi
	movslq	-4(%rbp), %rax
	shlq	$3, %rax
	addq	%rax, %rsi
	callq	biari_init_context
.LBB20_49:                              # %if.end183
                                        #   in Loop: Header=BB20_45 Depth=1
	jmp	.LBB20_50
.LBB20_50:                              # %for.inc184
                                        #   in Loop: Header=BB20_45 Depth=1
	movl	-4(%rbp), %eax
	addl	$1, %eax
	movl	%eax, -4(%rbp)
	jmp	.LBB20_45
.LBB20_51:                              # %for.end186
	movl	$0, -4(%rbp)
.LBB20_52:                              # %for.cond187
                                        # =>This Inner Loop Header: Depth=1
	cmpl	$4, -4(%rbp)
	jge	.LBB20_58
# %bb.53:                               # %for.body189
                                        #   in Loop: Header=BB20_52 Depth=1
	movq	img, %rax
	cmpl	$2, 24(%rax)
	jne	.LBB20_55
# %bb.54:                               # %if.then192
                                        #   in Loop: Header=BB20_52 Depth=1
	movq	-24(%rbp), %rdi
	addq	$1392, %rdi             # imm = 0x570
	movslq	-4(%rbp), %rax
	shlq	$4, %rax
	addq	%rax, %rdi
	movq	img, %rax
	movslq	72520(%rax), %rax
	shlq	$5, %rax
	movabsq	$INIT_MB_AFF_I, %rsi
	addq	%rax, %rsi
	movslq	-4(%rbp), %rax
	shlq	$3, %rax
	addq	%rax, %rsi
	callq	biari_init_context
	jmp	.LBB20_56
.LBB20_55:                              # %if.else202
                                        #   in Loop: Header=BB20_52 Depth=1
	movq	-24(%rbp), %rdi
	addq	$1392, %rdi             # imm = 0x570
	movslq	-4(%rbp), %rax
	shlq	$4, %rax
	addq	%rax, %rdi
	movq	img, %rax
	movslq	72520(%rax), %rax
	shlq	$5, %rax
	movabsq	$INIT_MB_AFF_P, %rsi
	addq	%rax, %rsi
	movslq	-4(%rbp), %rax
	shlq	$3, %rax
	addq	%rax, %rsi
	callq	biari_init_context
.LBB20_56:                              # %if.end213
                                        #   in Loop: Header=BB20_52 Depth=1
	jmp	.LBB20_57
.LBB20_57:                              # %for.inc214
                                        #   in Loop: Header=BB20_52 Depth=1
	movl	-4(%rbp), %eax
	addl	$1, %eax
	movl	%eax, -4(%rbp)
	jmp	.LBB20_52
.LBB20_58:                              # %for.end216
	movl	$0, -4(%rbp)
.LBB20_59:                              # %for.cond217
                                        # =>This Inner Loop Header: Depth=1
	cmpl	$3, -4(%rbp)
	jge	.LBB20_65
# %bb.60:                               # %for.body219
                                        #   in Loop: Header=BB20_59 Depth=1
	movq	img, %rax
	cmpl	$2, 24(%rax)
	jne	.LBB20_62
# %bb.61:                               # %if.then222
                                        #   in Loop: Header=BB20_59 Depth=1
	movq	-24(%rbp), %rdi
	addq	$1456, %rdi             # imm = 0x5B0
	movslq	-4(%rbp), %rax
	shlq	$4, %rax
	addq	%rax, %rdi
	movq	img, %rax
	movslq	72520(%rax), %rax
	imulq	$24, %rax, %rax
	movabsq	$INIT_TRANSFORM_SIZE_I, %rsi
	addq	%rax, %rsi
	movslq	-4(%rbp), %rax
	shlq	$3, %rax
	addq	%rax, %rsi
	callq	biari_init_context
	jmp	.LBB20_63
.LBB20_62:                              # %if.else232
                                        #   in Loop: Header=BB20_59 Depth=1
	movq	-24(%rbp), %rdi
	addq	$1456, %rdi             # imm = 0x5B0
	movslq	-4(%rbp), %rax
	shlq	$4, %rax
	addq	%rax, %rdi
	movq	img, %rax
	movslq	72520(%rax), %rax
	imulq	$24, %rax, %rax
	movabsq	$INIT_TRANSFORM_SIZE_P, %rsi
	addq	%rax, %rsi
	movslq	-4(%rbp), %rax
	shlq	$3, %rax
	addq	%rax, %rsi
	callq	biari_init_context
.LBB20_63:                              # %if.end243
                                        #   in Loop: Header=BB20_59 Depth=1
	jmp	.LBB20_64
.LBB20_64:                              # %for.inc244
                                        #   in Loop: Header=BB20_59 Depth=1
	movl	-4(%rbp), %eax
	addl	$1, %eax
	movl	%eax, -4(%rbp)
	jmp	.LBB20_59
.LBB20_65:                              # %for.end246
	movl	$0, -4(%rbp)
.LBB20_66:                              # %for.cond247
                                        # =>This Inner Loop Header: Depth=1
	cmpl	$2, -4(%rbp)
	jge	.LBB20_72
# %bb.67:                               # %for.body249
                                        #   in Loop: Header=BB20_66 Depth=1
	movq	img, %rax
	cmpl	$2, 24(%rax)
	jne	.LBB20_69
# %bb.68:                               # %if.then252
                                        #   in Loop: Header=BB20_66 Depth=1
	movq	-16(%rbp), %rdi
	movslq	-4(%rbp), %rax
	shlq	$4, %rax
	addq	%rax, %rdi
	movq	img, %rax
	movslq	72520(%rax), %rax
	shlq	$4, %rax
	movabsq	$INIT_IPR_I, %rsi
	addq	%rax, %rsi
	movslq	-4(%rbp), %rax
	shlq	$3, %rax
	addq	%rax, %rsi
	callq	biari_init_context
	jmp	.LBB20_70
.LBB20_69:                              # %if.else262
                                        #   in Loop: Header=BB20_66 Depth=1
	movq	-16(%rbp), %rdi
	movslq	-4(%rbp), %rax
	shlq	$4, %rax
	addq	%rax, %rdi
	movq	img, %rax
	movslq	72520(%rax), %rax
	shlq	$4, %rax
	movabsq	$INIT_IPR_P, %rsi
	addq	%rax, %rsi
	movslq	-4(%rbp), %rax
	shlq	$3, %rax
	addq	%rax, %rsi
	callq	biari_init_context
.LBB20_70:                              # %if.end273
                                        #   in Loop: Header=BB20_66 Depth=1
	jmp	.LBB20_71
.LBB20_71:                              # %for.inc274
                                        #   in Loop: Header=BB20_66 Depth=1
	movl	-4(%rbp), %eax
	addl	$1, %eax
	movl	%eax, -4(%rbp)
	jmp	.LBB20_66
.LBB20_72:                              # %for.end276
	movl	$0, -4(%rbp)
.LBB20_73:                              # %for.cond277
                                        # =>This Inner Loop Header: Depth=1
	cmpl	$4, -4(%rbp)
	jge	.LBB20_79
# %bb.74:                               # %for.body279
                                        #   in Loop: Header=BB20_73 Depth=1
	movq	img, %rax
	cmpl	$2, 24(%rax)
	jne	.LBB20_76
# %bb.75:                               # %if.then282
                                        #   in Loop: Header=BB20_73 Depth=1
	movq	-16(%rbp), %rdi
	addq	$32, %rdi
	movslq	-4(%rbp), %rax
	shlq	$4, %rax
	addq	%rax, %rdi
	movq	img, %rax
	movslq	72520(%rax), %rax
	shlq	$5, %rax
	movabsq	$INIT_CIPR_I, %rsi
	addq	%rax, %rsi
	movslq	-4(%rbp), %rax
	shlq	$3, %rax
	addq	%rax, %rsi
	callq	biari_init_context
	jmp	.LBB20_77
.LBB20_76:                              # %if.else292
                                        #   in Loop: Header=BB20_73 Depth=1
	movq	-16(%rbp), %rdi
	addq	$32, %rdi
	movslq	-4(%rbp), %rax
	shlq	$4, %rax
	addq	%rax, %rdi
	movq	img, %rax
	movslq	72520(%rax), %rax
	shlq	$5, %rax
	movabsq	$INIT_CIPR_P, %rsi
	addq	%rax, %rsi
	movslq	-4(%rbp), %rax
	shlq	$3, %rax
	addq	%rax, %rsi
	callq	biari_init_context
.LBB20_77:                              # %if.end303
                                        #   in Loop: Header=BB20_73 Depth=1
	jmp	.LBB20_78
.LBB20_78:                              # %for.inc304
                                        #   in Loop: Header=BB20_73 Depth=1
	movl	-4(%rbp), %eax
	addl	$1, %eax
	movl	%eax, -4(%rbp)
	jmp	.LBB20_73
.LBB20_79:                              # %for.end306
	movl	$0, -8(%rbp)
.LBB20_80:                              # %for.cond307
                                        # =>This Loop Header: Depth=1
                                        #     Child Loop BB20_82 Depth 2
	cmpl	$3, -8(%rbp)
	jge	.LBB20_90
# %bb.81:                               # %for.body309
                                        #   in Loop: Header=BB20_80 Depth=1
	movl	$0, -4(%rbp)
.LBB20_82:                              # %for.cond310
                                        #   Parent Loop BB20_80 Depth=1
                                        # =>  This Inner Loop Header: Depth=2
	cmpl	$4, -4(%rbp)
	jge	.LBB20_88
# %bb.83:                               # %for.body312
                                        #   in Loop: Header=BB20_82 Depth=2
	movq	img, %rax
	cmpl	$2, 24(%rax)
	jne	.LBB20_85
# %bb.84:                               # %if.then315
                                        #   in Loop: Header=BB20_82 Depth=2
	movq	-16(%rbp), %rdi
	addq	$96, %rdi
	movslq	-8(%rbp), %rax
	shlq	$6, %rax
	addq	%rax, %rdi
	movslq	-4(%rbp), %rax
	shlq	$4, %rax
	addq	%rax, %rdi
	movq	img, %rax
	movslq	72520(%rax), %rax
	imulq	$96, %rax, %rax
	movabsq	$INIT_CBP_I, %rsi
	addq	%rax, %rsi
	movslq	-8(%rbp), %rax
	shlq	$5, %rax
	addq	%rax, %rsi
	movslq	-4(%rbp), %rax
	shlq	$3, %rax
	addq	%rax, %rsi
	callq	biari_init_context
	jmp	.LBB20_86
.LBB20_85:                              # %if.else328
                                        #   in Loop: Header=BB20_82 Depth=2
	movq	-16(%rbp), %rdi
	addq	$96, %rdi
	movslq	-8(%rbp), %rax
	shlq	$6, %rax
	addq	%rax, %rdi
	movslq	-4(%rbp), %rax
	shlq	$4, %rax
	addq	%rax, %rdi
	movq	img, %rax
	movslq	72520(%rax), %rax
	imulq	$96, %rax, %rax
	movabsq	$INIT_CBP_P, %rsi
	addq	%rax, %rsi
	movslq	-8(%rbp), %rax
	shlq	$5, %rax
	addq	%rax, %rsi
	movslq	-4(%rbp), %rax
	shlq	$3, %rax
	addq	%rax, %rsi
	callq	biari_init_context
.LBB20_86:                              # %if.end342
                                        #   in Loop: Header=BB20_82 Depth=2
	jmp	.LBB20_87
.LBB20_87:                              # %for.inc343
                                        #   in Loop: Header=BB20_82 Depth=2
	movl	-4(%rbp), %eax
	addl	$1, %eax
	movl	%eax, -4(%rbp)
	jmp	.LBB20_82
.LBB20_88:                              # %for.end345
                                        #   in Loop: Header=BB20_80 Depth=1
	jmp	.LBB20_89
.LBB20_89:                              # %for.inc346
                                        #   in Loop: Header=BB20_80 Depth=1
	movl	-8(%rbp), %eax
	addl	$1, %eax
	movl	%eax, -8(%rbp)
	jmp	.LBB20_80
.LBB20_90:                              # %for.end348
	movl	$0, -8(%rbp)
.LBB20_91:                              # %for.cond349
                                        # =>This Loop Header: Depth=1
                                        #     Child Loop BB20_93 Depth 2
	cmpl	$10, -8(%rbp)
	jge	.LBB20_101
# %bb.92:                               # %for.body351
                                        #   in Loop: Header=BB20_91 Depth=1
	movl	$0, -4(%rbp)
.LBB20_93:                              # %for.cond352
                                        #   Parent Loop BB20_91 Depth=1
                                        # =>  This Inner Loop Header: Depth=2
	cmpl	$4, -4(%rbp)
	jge	.LBB20_99
# %bb.94:                               # %for.body354
                                        #   in Loop: Header=BB20_93 Depth=2
	movq	img, %rax
	cmpl	$2, 24(%rax)
	jne	.LBB20_96
# %bb.95:                               # %if.then357
                                        #   in Loop: Header=BB20_93 Depth=2
	movq	-16(%rbp), %rdi
	addq	$288, %rdi              # imm = 0x120
	movslq	-8(%rbp), %rax
	shlq	$6, %rax
	addq	%rax, %rdi
	movslq	-4(%rbp), %rax
	shlq	$4, %rax
	addq	%rax, %rdi
	movq	img, %rax
	movslq	72520(%rax), %rax
	shlq	$8, %rax
	movabsq	$INIT_BCBP_I, %rsi
	addq	%rax, %rsi
	movslq	-8(%rbp), %rax
	shlq	$5, %rax
	addq	%rax, %rsi
	movslq	-4(%rbp), %rax
	shlq	$3, %rax
	addq	%rax, %rsi
	callq	biari_init_context
	jmp	.LBB20_97
.LBB20_96:                              # %if.else370
                                        #   in Loop: Header=BB20_93 Depth=2
	movq	-16(%rbp), %rdi
	addq	$288, %rdi              # imm = 0x120
	movslq	-8(%rbp), %rax
	shlq	$6, %rax
	addq	%rax, %rdi
	movslq	-4(%rbp), %rax
	shlq	$4, %rax
	addq	%rax, %rdi
	movq	img, %rax
	movslq	72520(%rax), %rax
	shlq	$8, %rax
	movabsq	$INIT_BCBP_P, %rsi
	addq	%rax, %rsi
	movslq	-8(%rbp), %rax
	shlq	$5, %rax
	addq	%rax, %rsi
	movslq	-4(%rbp), %rax
	shlq	$3, %rax
	addq	%rax, %rsi
	callq	biari_init_context
.LBB20_97:                              # %if.end384
                                        #   in Loop: Header=BB20_93 Depth=2
	jmp	.LBB20_98
.LBB20_98:                              # %for.inc385
                                        #   in Loop: Header=BB20_93 Depth=2
	movl	-4(%rbp), %eax
	addl	$1, %eax
	movl	%eax, -4(%rbp)
	jmp	.LBB20_93
.LBB20_99:                              # %for.end387
                                        #   in Loop: Header=BB20_91 Depth=1
	jmp	.LBB20_100
.LBB20_100:                             # %for.inc388
                                        #   in Loop: Header=BB20_91 Depth=1
	movl	-8(%rbp), %eax
	addl	$1, %eax
	movl	%eax, -8(%rbp)
	jmp	.LBB20_91
.LBB20_101:                             # %for.end390
	movl	$0, -8(%rbp)
.LBB20_102:                             # %for.cond391
                                        # =>This Loop Header: Depth=1
                                        #     Child Loop BB20_104 Depth 2
	cmpl	$10, -8(%rbp)
	jge	.LBB20_112
# %bb.103:                              # %for.body393
                                        #   in Loop: Header=BB20_102 Depth=1
	movl	$0, -4(%rbp)
.LBB20_104:                             # %for.cond394
                                        #   Parent Loop BB20_102 Depth=1
                                        # =>  This Inner Loop Header: Depth=2
	cmpl	$15, -4(%rbp)
	jge	.LBB20_110
# %bb.105:                              # %for.body396
                                        #   in Loop: Header=BB20_104 Depth=2
	movq	img, %rax
	cmpl	$2, 24(%rax)
	jne	.LBB20_107
# %bb.106:                              # %if.then399
                                        #   in Loop: Header=BB20_104 Depth=2
	movq	-16(%rbp), %rdi
	addq	$928, %rdi              # imm = 0x3A0
	movslq	-8(%rbp), %rax
	imulq	$240, %rax, %rax
	addq	%rax, %rdi
	movslq	-4(%rbp), %rax
	shlq	$4, %rax
	addq	%rax, %rdi
	movq	img, %rax
	movslq	72520(%rax), %rax
	imulq	$960, %rax, %rax        # imm = 0x3C0
	movabsq	$INIT_MAP_I, %rsi
	addq	%rax, %rsi
	movslq	-8(%rbp), %rax
	imulq	$120, %rax, %rax
	addq	%rax, %rsi
	movslq	-4(%rbp), %rax
	shlq	$3, %rax
	addq	%rax, %rsi
	callq	biari_init_context
	jmp	.LBB20_108
.LBB20_107:                             # %if.else412
                                        #   in Loop: Header=BB20_104 Depth=2
	movq	-16(%rbp), %rdi
	addq	$928, %rdi              # imm = 0x3A0
	movslq	-8(%rbp), %rax
	imulq	$240, %rax, %rax
	addq	%rax, %rdi
	movslq	-4(%rbp), %rax
	shlq	$4, %rax
	addq	%rax, %rdi
	movq	img, %rax
	movslq	72520(%rax), %rax
	imulq	$960, %rax, %rax        # imm = 0x3C0
	movabsq	$INIT_MAP_P, %rsi
	addq	%rax, %rsi
	movslq	-8(%rbp), %rax
	imulq	$120, %rax, %rax
	addq	%rax, %rsi
	movslq	-4(%rbp), %rax
	shlq	$3, %rax
	addq	%rax, %rsi
	callq	biari_init_context
.LBB20_108:                             # %if.end426
                                        #   in Loop: Header=BB20_104 Depth=2
	jmp	.LBB20_109
.LBB20_109:                             # %for.inc427
                                        #   in Loop: Header=BB20_104 Depth=2
	movl	-4(%rbp), %eax
	addl	$1, %eax
	movl	%eax, -4(%rbp)
	jmp	.LBB20_104
.LBB20_110:                             # %for.end429
                                        #   in Loop: Header=BB20_102 Depth=1
	jmp	.LBB20_111
.LBB20_111:                             # %for.inc430
                                        #   in Loop: Header=BB20_102 Depth=1
	movl	-8(%rbp), %eax
	addl	$1, %eax
	movl	%eax, -8(%rbp)
	jmp	.LBB20_102
.LBB20_112:                             # %for.end432
	movl	$0, -8(%rbp)
.LBB20_113:                             # %for.cond433
                                        # =>This Loop Header: Depth=1
                                        #     Child Loop BB20_115 Depth 2
	cmpl	$10, -8(%rbp)
	jge	.LBB20_123
# %bb.114:                              # %for.body435
                                        #   in Loop: Header=BB20_113 Depth=1
	movl	$0, -4(%rbp)
.LBB20_115:                             # %for.cond436
                                        #   Parent Loop BB20_113 Depth=1
                                        # =>  This Inner Loop Header: Depth=2
	cmpl	$15, -4(%rbp)
	jge	.LBB20_121
# %bb.116:                              # %for.body438
                                        #   in Loop: Header=BB20_115 Depth=2
	movq	img, %rax
	cmpl	$2, 24(%rax)
	jne	.LBB20_118
# %bb.117:                              # %if.then441
                                        #   in Loop: Header=BB20_115 Depth=2
	movq	-16(%rbp), %rdi
	addq	$3328, %rdi             # imm = 0xD00
	movslq	-8(%rbp), %rax
	imulq	$240, %rax, %rax
	addq	%rax, %rdi
	movslq	-4(%rbp), %rax
	shlq	$4, %rax
	addq	%rax, %rdi
	movq	img, %rax
	movslq	72520(%rax), %rax
	imulq	$960, %rax, %rax        # imm = 0x3C0
	movabsq	$INIT_LAST_I, %rsi
	addq	%rax, %rsi
	movslq	-8(%rbp), %rax
	imulq	$120, %rax, %rax
	addq	%rax, %rsi
	movslq	-4(%rbp), %rax
	shlq	$3, %rax
	addq	%rax, %rsi
	callq	biari_init_context
	jmp	.LBB20_119
.LBB20_118:                             # %if.else454
                                        #   in Loop: Header=BB20_115 Depth=2
	movq	-16(%rbp), %rdi
	addq	$3328, %rdi             # imm = 0xD00
	movslq	-8(%rbp), %rax
	imulq	$240, %rax, %rax
	addq	%rax, %rdi
	movslq	-4(%rbp), %rax
	shlq	$4, %rax
	addq	%rax, %rdi
	movq	img, %rax
	movslq	72520(%rax), %rax
	imulq	$960, %rax, %rax        # imm = 0x3C0
	movabsq	$INIT_LAST_P, %rsi
	addq	%rax, %rsi
	movslq	-8(%rbp), %rax
	imulq	$120, %rax, %rax
	addq	%rax, %rsi
	movslq	-4(%rbp), %rax
	shlq	$3, %rax
	addq	%rax, %rsi
	callq	biari_init_context
.LBB20_119:                             # %if.end468
                                        #   in Loop: Header=BB20_115 Depth=2
	jmp	.LBB20_120
.LBB20_120:                             # %for.inc469
                                        #   in Loop: Header=BB20_115 Depth=2
	movl	-4(%rbp), %eax
	addl	$1, %eax
	movl	%eax, -4(%rbp)
	jmp	.LBB20_115
.LBB20_121:                             # %for.end471
                                        #   in Loop: Header=BB20_113 Depth=1
	jmp	.LBB20_122
.LBB20_122:                             # %for.inc472
                                        #   in Loop: Header=BB20_113 Depth=1
	movl	-8(%rbp), %eax
	addl	$1, %eax
	movl	%eax, -8(%rbp)
	jmp	.LBB20_113
.LBB20_123:                             # %for.end474
	movl	$0, -8(%rbp)
.LBB20_124:                             # %for.cond475
                                        # =>This Loop Header: Depth=1
                                        #     Child Loop BB20_126 Depth 2
	cmpl	$10, -8(%rbp)
	jge	.LBB20_134
# %bb.125:                              # %for.body477
                                        #   in Loop: Header=BB20_124 Depth=1
	movl	$0, -4(%rbp)
.LBB20_126:                             # %for.cond478
                                        #   Parent Loop BB20_124 Depth=1
                                        # =>  This Inner Loop Header: Depth=2
	cmpl	$5, -4(%rbp)
	jge	.LBB20_132
# %bb.127:                              # %for.body480
                                        #   in Loop: Header=BB20_126 Depth=2
	movq	img, %rax
	cmpl	$2, 24(%rax)
	jne	.LBB20_129
# %bb.128:                              # %if.then483
                                        #   in Loop: Header=BB20_126 Depth=2
	movq	-16(%rbp), %rdi
	addq	$5728, %rdi             # imm = 0x1660
	movslq	-8(%rbp), %rax
	imulq	$80, %rax, %rax
	addq	%rax, %rdi
	movslq	-4(%rbp), %rax
	shlq	$4, %rax
	addq	%rax, %rdi
	movq	img, %rax
	movslq	72520(%rax), %rax
	imulq	$320, %rax, %rax        # imm = 0x140
	movabsq	$INIT_ONE_I, %rsi
	addq	%rax, %rsi
	movslq	-8(%rbp), %rax
	imulq	$40, %rax, %rax
	addq	%rax, %rsi
	movslq	-4(%rbp), %rax
	shlq	$3, %rax
	addq	%rax, %rsi
	callq	biari_init_context
	jmp	.LBB20_130
.LBB20_129:                             # %if.else496
                                        #   in Loop: Header=BB20_126 Depth=2
	movq	-16(%rbp), %rdi
	addq	$5728, %rdi             # imm = 0x1660
	movslq	-8(%rbp), %rax
	imulq	$80, %rax, %rax
	addq	%rax, %rdi
	movslq	-4(%rbp), %rax
	shlq	$4, %rax
	addq	%rax, %rdi
	movq	img, %rax
	movslq	72520(%rax), %rax
	imulq	$320, %rax, %rax        # imm = 0x140
	movabsq	$INIT_ONE_P, %rsi
	addq	%rax, %rsi
	movslq	-8(%rbp), %rax
	imulq	$40, %rax, %rax
	addq	%rax, %rsi
	movslq	-4(%rbp), %rax
	shlq	$3, %rax
	addq	%rax, %rsi
	callq	biari_init_context
.LBB20_130:                             # %if.end510
                                        #   in Loop: Header=BB20_126 Depth=2
	jmp	.LBB20_131
.LBB20_131:                             # %for.inc511
                                        #   in Loop: Header=BB20_126 Depth=2
	movl	-4(%rbp), %eax
	addl	$1, %eax
	movl	%eax, -4(%rbp)
	jmp	.LBB20_126
.LBB20_132:                             # %for.end513
                                        #   in Loop: Header=BB20_124 Depth=1
	jmp	.LBB20_133
.LBB20_133:                             # %for.inc514
                                        #   in Loop: Header=BB20_124 Depth=1
	movl	-8(%rbp), %eax
	addl	$1, %eax
	movl	%eax, -8(%rbp)
	jmp	.LBB20_124
.LBB20_134:                             # %for.end516
	movl	$0, -8(%rbp)
.LBB20_135:                             # %for.cond517
                                        # =>This Loop Header: Depth=1
                                        #     Child Loop BB20_137 Depth 2
	cmpl	$10, -8(%rbp)
	jge	.LBB20_145
# %bb.136:                              # %for.body519
                                        #   in Loop: Header=BB20_135 Depth=1
	movl	$0, -4(%rbp)
.LBB20_137:                             # %for.cond520
                                        #   Parent Loop BB20_135 Depth=1
                                        # =>  This Inner Loop Header: Depth=2
	cmpl	$5, -4(%rbp)
	jge	.LBB20_143
# %bb.138:                              # %for.body522
                                        #   in Loop: Header=BB20_137 Depth=2
	movq	img, %rax
	cmpl	$2, 24(%rax)
	jne	.LBB20_140
# %bb.139:                              # %if.then525
                                        #   in Loop: Header=BB20_137 Depth=2
	movq	-16(%rbp), %rdi
	addq	$6528, %rdi             # imm = 0x1980
	movslq	-8(%rbp), %rax
	imulq	$80, %rax, %rax
	addq	%rax, %rdi
	movslq	-4(%rbp), %rax
	shlq	$4, %rax
	addq	%rax, %rdi
	movq	img, %rax
	movslq	72520(%rax), %rax
	imulq	$320, %rax, %rax        # imm = 0x140
	movabsq	$INIT_ABS_I, %rsi
	addq	%rax, %rsi
	movslq	-8(%rbp), %rax
	imulq	$40, %rax, %rax
	addq	%rax, %rsi
	movslq	-4(%rbp), %rax
	shlq	$3, %rax
	addq	%rax, %rsi
	callq	biari_init_context
	jmp	.LBB20_141
.LBB20_140:                             # %if.else538
                                        #   in Loop: Header=BB20_137 Depth=2
	movq	-16(%rbp), %rdi
	addq	$6528, %rdi             # imm = 0x1980
	movslq	-8(%rbp), %rax
	imulq	$80, %rax, %rax
	addq	%rax, %rdi
	movslq	-4(%rbp), %rax
	shlq	$4, %rax
	addq	%rax, %rdi
	movq	img, %rax
	movslq	72520(%rax), %rax
	imulq	$320, %rax, %rax        # imm = 0x140
	movabsq	$INIT_ABS_P, %rsi
	addq	%rax, %rsi
	movslq	-8(%rbp), %rax
	imulq	$40, %rax, %rax
	addq	%rax, %rsi
	movslq	-4(%rbp), %rax
	shlq	$3, %rax
	addq	%rax, %rsi
	callq	biari_init_context
.LBB20_141:                             # %if.end552
                                        #   in Loop: Header=BB20_137 Depth=2
	jmp	.LBB20_142
.LBB20_142:                             # %for.inc553
                                        #   in Loop: Header=BB20_137 Depth=2
	movl	-4(%rbp), %eax
	addl	$1, %eax
	movl	%eax, -4(%rbp)
	jmp	.LBB20_137
.LBB20_143:                             # %for.end555
                                        #   in Loop: Header=BB20_135 Depth=1
	jmp	.LBB20_144
.LBB20_144:                             # %for.inc556
                                        #   in Loop: Header=BB20_135 Depth=1
	movl	-8(%rbp), %eax
	addl	$1, %eax
	movl	%eax, -8(%rbp)
	jmp	.LBB20_135
.LBB20_145:                             # %for.end558
	movl	$0, -8(%rbp)
.LBB20_146:                             # %for.cond559
                                        # =>This Loop Header: Depth=1
                                        #     Child Loop BB20_148 Depth 2
	cmpl	$10, -8(%rbp)
	jge	.LBB20_156
# %bb.147:                              # %for.body561
                                        #   in Loop: Header=BB20_146 Depth=1
	movl	$0, -4(%rbp)
.LBB20_148:                             # %for.cond562
                                        #   Parent Loop BB20_146 Depth=1
                                        # =>  This Inner Loop Header: Depth=2
	cmpl	$15, -4(%rbp)
	jge	.LBB20_154
# %bb.149:                              # %for.body564
                                        #   in Loop: Header=BB20_148 Depth=2
	movq	img, %rax
	cmpl	$2, 24(%rax)
	jne	.LBB20_151
# %bb.150:                              # %if.then567
                                        #   in Loop: Header=BB20_148 Depth=2
	movq	-16(%rbp), %rdi
	addq	$7328, %rdi             # imm = 0x1CA0
	movslq	-8(%rbp), %rax
	imulq	$240, %rax, %rax
	addq	%rax, %rdi
	movslq	-4(%rbp), %rax
	shlq	$4, %rax
	addq	%rax, %rdi
	movq	img, %rax
	movslq	72520(%rax), %rax
	imulq	$960, %rax, %rax        # imm = 0x3C0
	movabsq	$INIT_FLD_MAP_I, %rsi
	addq	%rax, %rsi
	movslq	-8(%rbp), %rax
	imulq	$120, %rax, %rax
	addq	%rax, %rsi
	movslq	-4(%rbp), %rax
	shlq	$3, %rax
	addq	%rax, %rsi
	callq	biari_init_context
	jmp	.LBB20_152
.LBB20_151:                             # %if.else580
                                        #   in Loop: Header=BB20_148 Depth=2
	movq	-16(%rbp), %rdi
	addq	$7328, %rdi             # imm = 0x1CA0
	movslq	-8(%rbp), %rax
	imulq	$240, %rax, %rax
	addq	%rax, %rdi
	movslq	-4(%rbp), %rax
	shlq	$4, %rax
	addq	%rax, %rdi
	movq	img, %rax
	movslq	72520(%rax), %rax
	imulq	$960, %rax, %rax        # imm = 0x3C0
	movabsq	$INIT_FLD_MAP_P, %rsi
	addq	%rax, %rsi
	movslq	-8(%rbp), %rax
	imulq	$120, %rax, %rax
	addq	%rax, %rsi
	movslq	-4(%rbp), %rax
	shlq	$3, %rax
	addq	%rax, %rsi
	callq	biari_init_context
.LBB20_152:                             # %if.end594
                                        #   in Loop: Header=BB20_148 Depth=2
	jmp	.LBB20_153
.LBB20_153:                             # %for.inc595
                                        #   in Loop: Header=BB20_148 Depth=2
	movl	-4(%rbp), %eax
	addl	$1, %eax
	movl	%eax, -4(%rbp)
	jmp	.LBB20_148
.LBB20_154:                             # %for.end597
                                        #   in Loop: Header=BB20_146 Depth=1
	jmp	.LBB20_155
.LBB20_155:                             # %for.inc598
                                        #   in Loop: Header=BB20_146 Depth=1
	movl	-8(%rbp), %eax
	addl	$1, %eax
	movl	%eax, -8(%rbp)
	jmp	.LBB20_146
.LBB20_156:                             # %for.end600
	movl	$0, -8(%rbp)
.LBB20_157:                             # %for.cond601
                                        # =>This Loop Header: Depth=1
                                        #     Child Loop BB20_159 Depth 2
	cmpl	$10, -8(%rbp)
	jge	.LBB20_167
# %bb.158:                              # %for.body603
                                        #   in Loop: Header=BB20_157 Depth=1
	movl	$0, -4(%rbp)
.LBB20_159:                             # %for.cond604
                                        #   Parent Loop BB20_157 Depth=1
                                        # =>  This Inner Loop Header: Depth=2
	cmpl	$15, -4(%rbp)
	jge	.LBB20_165
# %bb.160:                              # %for.body606
                                        #   in Loop: Header=BB20_159 Depth=2
	movq	img, %rax
	cmpl	$2, 24(%rax)
	jne	.LBB20_162
# %bb.161:                              # %if.then609
                                        #   in Loop: Header=BB20_159 Depth=2
	movq	-16(%rbp), %rdi
	addq	$9728, %rdi             # imm = 0x2600
	movslq	-8(%rbp), %rax
	imulq	$240, %rax, %rax
	addq	%rax, %rdi
	movslq	-4(%rbp), %rax
	shlq	$4, %rax
	addq	%rax, %rdi
	movq	img, %rax
	movslq	72520(%rax), %rax
	imulq	$960, %rax, %rax        # imm = 0x3C0
	movabsq	$INIT_FLD_LAST_I, %rsi
	addq	%rax, %rsi
	movslq	-8(%rbp), %rax
	imulq	$120, %rax, %rax
	addq	%rax, %rsi
	movslq	-4(%rbp), %rax
	shlq	$3, %rax
	addq	%rax, %rsi
	callq	biari_init_context
	jmp	.LBB20_163
.LBB20_162:                             # %if.else622
                                        #   in Loop: Header=BB20_159 Depth=2
	movq	-16(%rbp), %rdi
	addq	$9728, %rdi             # imm = 0x2600
	movslq	-8(%rbp), %rax
	imulq	$240, %rax, %rax
	addq	%rax, %rdi
	movslq	-4(%rbp), %rax
	shlq	$4, %rax
	addq	%rax, %rdi
	movq	img, %rax
	movslq	72520(%rax), %rax
	imulq	$960, %rax, %rax        # imm = 0x3C0
	movabsq	$INIT_FLD_LAST_P, %rsi
	addq	%rax, %rsi
	movslq	-8(%rbp), %rax
	imulq	$120, %rax, %rax
	addq	%rax, %rsi
	movslq	-4(%rbp), %rax
	shlq	$3, %rax
	addq	%rax, %rsi
	callq	biari_init_context
.LBB20_163:                             # %if.end636
                                        #   in Loop: Header=BB20_159 Depth=2
	jmp	.LBB20_164
.LBB20_164:                             # %for.inc637
                                        #   in Loop: Header=BB20_159 Depth=2
	movl	-4(%rbp), %eax
	addl	$1, %eax
	movl	%eax, -4(%rbp)
	jmp	.LBB20_159
.LBB20_165:                             # %for.end639
                                        #   in Loop: Header=BB20_157 Depth=1
	jmp	.LBB20_166
.LBB20_166:                             # %for.inc640
                                        #   in Loop: Header=BB20_157 Depth=1
	movl	-8(%rbp), %eax
	addl	$1, %eax
	movl	%eax, -8(%rbp)
	jmp	.LBB20_157
.LBB20_167:                             # %for.end642
	cmpl	$2035969686, -28(%rbp)  # imm = 0x795A6E96
	jne	.LBB20_169
.LBB20_168:
	addq	$32, %rsp
	popq	%rbp
	.cfi_def_cfa %rsp, 8
	retq
.LBB20_169:                             # %func_exit
	.cfi_def_cfa %rbp, 16
	callq	detect_breach
	jmp	.LBB20_168
.Lfunc_end20:
	.size	init_contexts.13, .Lfunc_end20-init_contexts.13
	.cfi_endproc
                                        # -- End function
	.globl	init_contexts.14        # -- Begin function init_contexts.14
	.p2align	4, 0x90
	.type	init_contexts.14,@function
init_contexts.14:                       # @init_contexts.14
	.cfi_startproc
# %bb.0:                                # %entry
	pushq	%rbp
	.cfi_def_cfa_offset 16
	.cfi_offset %rbp, -16
	movq	%rsp, %rbp
	.cfi_def_cfa_register %rbp
	subq	$32, %rsp
	movl	$544184319, -28(%rbp)   # imm = 0x206F97FF
	movq	img, %rax
	movq	14160(%rax), %rax
	movq	32(%rax), %rax
	movq	%rax, -24(%rbp)
	movq	img, %rax
	movq	14160(%rax), %rax
	movq	40(%rax), %rax
	movq	%rax, -16(%rbp)
	movl	$0, -8(%rbp)
.LBB21_1:                               # %for.cond
                                        # =>This Loop Header: Depth=1
                                        #     Child Loop BB21_3 Depth 2
	cmpl	$3, -8(%rbp)
	jge	.LBB21_11
# %bb.2:                                # %for.body
                                        #   in Loop: Header=BB21_1 Depth=1
	movl	$0, -4(%rbp)
.LBB21_3:                               # %for.cond2
                                        #   Parent Loop BB21_1 Depth=1
                                        # =>  This Inner Loop Header: Depth=2
	cmpl	$11, -4(%rbp)
	jge	.LBB21_9
# %bb.4:                                # %for.body4
                                        #   in Loop: Header=BB21_3 Depth=2
	movq	img, %rax
	cmpl	$2, 24(%rax)
	jne	.LBB21_6
# %bb.5:                                # %if.then
                                        #   in Loop: Header=BB21_3 Depth=2
	movq	-24(%rbp), %rdi
	movslq	-8(%rbp), %rax
	imulq	$176, %rax, %rax
	addq	%rax, %rdi
	movslq	-4(%rbp), %rax
	shlq	$4, %rax
	addq	%rax, %rdi
	movq	img, %rax
	movslq	72520(%rax), %rax
	imulq	$264, %rax, %rax        # imm = 0x108
	movabsq	$INIT_MB_TYPE_I, %rsi
	addq	%rax, %rsi
	movslq	-8(%rbp), %rax
	imulq	$88, %rax, %rax
	addq	%rax, %rsi
	movslq	-4(%rbp), %rax
	shlq	$3, %rax
	addq	%rax, %rsi
	callq	biari_init_context
	jmp	.LBB21_7
.LBB21_6:                               # %if.else
                                        #   in Loop: Header=BB21_3 Depth=2
	movq	-24(%rbp), %rdi
	movslq	-8(%rbp), %rax
	imulq	$176, %rax, %rax
	addq	%rax, %rdi
	movslq	-4(%rbp), %rax
	shlq	$4, %rax
	addq	%rax, %rdi
	movq	img, %rax
	movslq	72520(%rax), %rax
	imulq	$264, %rax, %rax        # imm = 0x108
	movabsq	$INIT_MB_TYPE_P, %rsi
	addq	%rax, %rsi
	movslq	-8(%rbp), %rax
	imulq	$88, %rax, %rax
	addq	%rax, %rsi
	movslq	-4(%rbp), %rax
	shlq	$3, %rax
	addq	%rax, %rsi
	callq	biari_init_context
.LBB21_7:                               # %if.end
                                        #   in Loop: Header=BB21_3 Depth=2
	jmp	.LBB21_8
.LBB21_8:                               # %for.inc
                                        #   in Loop: Header=BB21_3 Depth=2
	movl	-4(%rbp), %eax
	addl	$1, %eax
	movl	%eax, -4(%rbp)
	jmp	.LBB21_3
.LBB21_9:                               # %for.end
                                        #   in Loop: Header=BB21_1 Depth=1
	jmp	.LBB21_10
.LBB21_10:                              # %for.inc28
                                        #   in Loop: Header=BB21_1 Depth=1
	movl	-8(%rbp), %eax
	addl	$1, %eax
	movl	%eax, -8(%rbp)
	jmp	.LBB21_1
.LBB21_11:                              # %for.end30
	movl	$0, -8(%rbp)
.LBB21_12:                              # %for.cond31
                                        # =>This Loop Header: Depth=1
                                        #     Child Loop BB21_14 Depth 2
	cmpl	$2, -8(%rbp)
	jge	.LBB21_22
# %bb.13:                               # %for.body33
                                        #   in Loop: Header=BB21_12 Depth=1
	movl	$0, -4(%rbp)
.LBB21_14:                              # %for.cond34
                                        #   Parent Loop BB21_12 Depth=1
                                        # =>  This Inner Loop Header: Depth=2
	cmpl	$9, -4(%rbp)
	jge	.LBB21_20
# %bb.15:                               # %for.body36
                                        #   in Loop: Header=BB21_14 Depth=2
	movq	img, %rax
	cmpl	$2, 24(%rax)
	jne	.LBB21_17
# %bb.16:                               # %if.then39
                                        #   in Loop: Header=BB21_14 Depth=2
	movq	-24(%rbp), %rdi
	addq	$528, %rdi              # imm = 0x210
	movslq	-8(%rbp), %rax
	imulq	$144, %rax, %rax
	addq	%rax, %rdi
	movslq	-4(%rbp), %rax
	shlq	$4, %rax
	addq	%rax, %rdi
	movq	img, %rax
	movslq	72520(%rax), %rax
	imulq	$144, %rax, %rax
	movabsq	$INIT_B8_TYPE_I, %rsi
	addq	%rax, %rsi
	movslq	-8(%rbp), %rax
	imulq	$72, %rax, %rax
	addq	%rax, %rsi
	movslq	-4(%rbp), %rax
	shlq	$3, %rax
	addq	%rax, %rsi
	callq	biari_init_context
	jmp	.LBB21_18
.LBB21_17:                              # %if.else52
                                        #   in Loop: Header=BB21_14 Depth=2
	movq	-24(%rbp), %rdi
	addq	$528, %rdi              # imm = 0x210
	movslq	-8(%rbp), %rax
	imulq	$144, %rax, %rax
	addq	%rax, %rdi
	movslq	-4(%rbp), %rax
	shlq	$4, %rax
	addq	%rax, %rdi
	movq	img, %rax
	movslq	72520(%rax), %rax
	imulq	$144, %rax, %rax
	movabsq	$INIT_B8_TYPE_P, %rsi
	addq	%rax, %rsi
	movslq	-8(%rbp), %rax
	imulq	$72, %rax, %rax
	addq	%rax, %rsi
	movslq	-4(%rbp), %rax
	shlq	$3, %rax
	addq	%rax, %rsi
	callq	biari_init_context
.LBB21_18:                              # %if.end66
                                        #   in Loop: Header=BB21_14 Depth=2
	jmp	.LBB21_19
.LBB21_19:                              # %for.inc67
                                        #   in Loop: Header=BB21_14 Depth=2
	movl	-4(%rbp), %eax
	addl	$1, %eax
	movl	%eax, -4(%rbp)
	jmp	.LBB21_14
.LBB21_20:                              # %for.end69
                                        #   in Loop: Header=BB21_12 Depth=1
	jmp	.LBB21_21
.LBB21_21:                              # %for.inc70
                                        #   in Loop: Header=BB21_12 Depth=1
	movl	-8(%rbp), %eax
	addl	$1, %eax
	movl	%eax, -8(%rbp)
	jmp	.LBB21_12
.LBB21_22:                              # %for.end72
	movl	$0, -8(%rbp)
.LBB21_23:                              # %for.cond73
                                        # =>This Loop Header: Depth=1
                                        #     Child Loop BB21_25 Depth 2
	cmpl	$2, -8(%rbp)
	jge	.LBB21_33
# %bb.24:                               # %for.body75
                                        #   in Loop: Header=BB21_23 Depth=1
	movl	$0, -4(%rbp)
.LBB21_25:                              # %for.cond76
                                        #   Parent Loop BB21_23 Depth=1
                                        # =>  This Inner Loop Header: Depth=2
	cmpl	$10, -4(%rbp)
	jge	.LBB21_31
# %bb.26:                               # %for.body78
                                        #   in Loop: Header=BB21_25 Depth=2
	movq	img, %rax
	cmpl	$2, 24(%rax)
	jne	.LBB21_28
# %bb.27:                               # %if.then81
                                        #   in Loop: Header=BB21_25 Depth=2
	movq	-24(%rbp), %rdi
	addq	$816, %rdi              # imm = 0x330
	movslq	-8(%rbp), %rax
	imulq	$160, %rax, %rax
	addq	%rax, %rdi
	movslq	-4(%rbp), %rax
	shlq	$4, %rax
	addq	%rax, %rdi
	movq	img, %rax
	movslq	72520(%rax), %rax
	imulq	$160, %rax, %rax
	movabsq	$INIT_MV_RES_I, %rsi
	addq	%rax, %rsi
	movslq	-8(%rbp), %rax
	imulq	$80, %rax, %rax
	addq	%rax, %rsi
	movslq	-4(%rbp), %rax
	shlq	$3, %rax
	addq	%rax, %rsi
	callq	biari_init_context
	jmp	.LBB21_29
.LBB21_28:                              # %if.else94
                                        #   in Loop: Header=BB21_25 Depth=2
	movq	-24(%rbp), %rdi
	addq	$816, %rdi              # imm = 0x330
	movslq	-8(%rbp), %rax
	imulq	$160, %rax, %rax
	addq	%rax, %rdi
	movslq	-4(%rbp), %rax
	shlq	$4, %rax
	addq	%rax, %rdi
	movq	img, %rax
	movslq	72520(%rax), %rax
	imulq	$160, %rax, %rax
	movabsq	$INIT_MV_RES_P, %rsi
	addq	%rax, %rsi
	movslq	-8(%rbp), %rax
	imulq	$80, %rax, %rax
	addq	%rax, %rsi
	movslq	-4(%rbp), %rax
	shlq	$3, %rax
	addq	%rax, %rsi
	callq	biari_init_context
.LBB21_29:                              # %if.end108
                                        #   in Loop: Header=BB21_25 Depth=2
	jmp	.LBB21_30
.LBB21_30:                              # %for.inc109
                                        #   in Loop: Header=BB21_25 Depth=2
	movl	-4(%rbp), %eax
	addl	$1, %eax
	movl	%eax, -4(%rbp)
	jmp	.LBB21_25
.LBB21_31:                              # %for.end111
                                        #   in Loop: Header=BB21_23 Depth=1
	jmp	.LBB21_32
.LBB21_32:                              # %for.inc112
                                        #   in Loop: Header=BB21_23 Depth=1
	movl	-8(%rbp), %eax
	addl	$1, %eax
	movl	%eax, -8(%rbp)
	jmp	.LBB21_23
.LBB21_33:                              # %for.end114
	movl	$0, -8(%rbp)
.LBB21_34:                              # %for.cond115
                                        # =>This Loop Header: Depth=1
                                        #     Child Loop BB21_36 Depth 2
	cmpl	$2, -8(%rbp)
	jge	.LBB21_44
# %bb.35:                               # %for.body117
                                        #   in Loop: Header=BB21_34 Depth=1
	movl	$0, -4(%rbp)
.LBB21_36:                              # %for.cond118
                                        #   Parent Loop BB21_34 Depth=1
                                        # =>  This Inner Loop Header: Depth=2
	cmpl	$6, -4(%rbp)
	jge	.LBB21_42
# %bb.37:                               # %for.body120
                                        #   in Loop: Header=BB21_36 Depth=2
	movq	img, %rax
	cmpl	$2, 24(%rax)
	jne	.LBB21_39
# %bb.38:                               # %if.then123
                                        #   in Loop: Header=BB21_36 Depth=2
	movq	-24(%rbp), %rdi
	addq	$1136, %rdi             # imm = 0x470
	movslq	-8(%rbp), %rax
	imulq	$96, %rax, %rax
	addq	%rax, %rdi
	movslq	-4(%rbp), %rax
	shlq	$4, %rax
	addq	%rax, %rdi
	movq	img, %rax
	movslq	72520(%rax), %rax
	imulq	$96, %rax, %rax
	movabsq	$INIT_REF_NO_I, %rsi
	addq	%rax, %rsi
	movslq	-8(%rbp), %rax
	imulq	$48, %rax, %rax
	addq	%rax, %rsi
	movslq	-4(%rbp), %rax
	shlq	$3, %rax
	addq	%rax, %rsi
	callq	biari_init_context
	jmp	.LBB21_40
.LBB21_39:                              # %if.else136
                                        #   in Loop: Header=BB21_36 Depth=2
	movq	-24(%rbp), %rdi
	addq	$1136, %rdi             # imm = 0x470
	movslq	-8(%rbp), %rax
	imulq	$96, %rax, %rax
	addq	%rax, %rdi
	movslq	-4(%rbp), %rax
	shlq	$4, %rax
	addq	%rax, %rdi
	movq	img, %rax
	movslq	72520(%rax), %rax
	imulq	$96, %rax, %rax
	movabsq	$INIT_REF_NO_P, %rsi
	addq	%rax, %rsi
	movslq	-8(%rbp), %rax
	imulq	$48, %rax, %rax
	addq	%rax, %rsi
	movslq	-4(%rbp), %rax
	shlq	$3, %rax
	addq	%rax, %rsi
	callq	biari_init_context
.LBB21_40:                              # %if.end150
                                        #   in Loop: Header=BB21_36 Depth=2
	jmp	.LBB21_41
.LBB21_41:                              # %for.inc151
                                        #   in Loop: Header=BB21_36 Depth=2
	movl	-4(%rbp), %eax
	addl	$1, %eax
	movl	%eax, -4(%rbp)
	jmp	.LBB21_36
.LBB21_42:                              # %for.end153
                                        #   in Loop: Header=BB21_34 Depth=1
	jmp	.LBB21_43
.LBB21_43:                              # %for.inc154
                                        #   in Loop: Header=BB21_34 Depth=1
	movl	-8(%rbp), %eax
	addl	$1, %eax
	movl	%eax, -8(%rbp)
	jmp	.LBB21_34
.LBB21_44:                              # %for.end156
	movl	$0, -4(%rbp)
.LBB21_45:                              # %for.cond157
                                        # =>This Inner Loop Header: Depth=1
	cmpl	$4, -4(%rbp)
	jge	.LBB21_51
# %bb.46:                               # %for.body159
                                        #   in Loop: Header=BB21_45 Depth=1
	movq	img, %rax
	cmpl	$2, 24(%rax)
	jne	.LBB21_48
# %bb.47:                               # %if.then162
                                        #   in Loop: Header=BB21_45 Depth=1
	movq	-24(%rbp), %rdi
	addq	$1328, %rdi             # imm = 0x530
	movslq	-4(%rbp), %rax
	shlq	$4, %rax
	addq	%rax, %rdi
	movq	img, %rax
	movslq	72520(%rax), %rax
	shlq	$5, %rax
	movabsq	$INIT_DELTA_QP_I, %rsi
	addq	%rax, %rsi
	movslq	-4(%rbp), %rax
	shlq	$3, %rax
	addq	%rax, %rsi
	callq	biari_init_context
	jmp	.LBB21_49
.LBB21_48:                              # %if.else172
                                        #   in Loop: Header=BB21_45 Depth=1
	movq	-24(%rbp), %rdi
	addq	$1328, %rdi             # imm = 0x530
	movslq	-4(%rbp), %rax
	shlq	$4, %rax
	addq	%rax, %rdi
	movq	img, %rax
	movslq	72520(%rax), %rax
	shlq	$5, %rax
	movabsq	$INIT_DELTA_QP_P, %rsi
	addq	%rax, %rsi
	movslq	-4(%rbp), %rax
	shlq	$3, %rax
	addq	%rax, %rsi
	callq	biari_init_context
.LBB21_49:                              # %if.end183
                                        #   in Loop: Header=BB21_45 Depth=1
	jmp	.LBB21_50
.LBB21_50:                              # %for.inc184
                                        #   in Loop: Header=BB21_45 Depth=1
	movl	-4(%rbp), %eax
	addl	$1, %eax
	movl	%eax, -4(%rbp)
	jmp	.LBB21_45
.LBB21_51:                              # %for.end186
	movl	$0, -4(%rbp)
.LBB21_52:                              # %for.cond187
                                        # =>This Inner Loop Header: Depth=1
	cmpl	$4, -4(%rbp)
	jge	.LBB21_58
# %bb.53:                               # %for.body189
                                        #   in Loop: Header=BB21_52 Depth=1
	movq	img, %rax
	cmpl	$2, 24(%rax)
	jne	.LBB21_55
# %bb.54:                               # %if.then192
                                        #   in Loop: Header=BB21_52 Depth=1
	movq	-24(%rbp), %rdi
	addq	$1392, %rdi             # imm = 0x570
	movslq	-4(%rbp), %rax
	shlq	$4, %rax
	addq	%rax, %rdi
	movq	img, %rax
	movslq	72520(%rax), %rax
	shlq	$5, %rax
	movabsq	$INIT_MB_AFF_I, %rsi
	addq	%rax, %rsi
	movslq	-4(%rbp), %rax
	shlq	$3, %rax
	addq	%rax, %rsi
	callq	biari_init_context
	jmp	.LBB21_56
.LBB21_55:                              # %if.else202
                                        #   in Loop: Header=BB21_52 Depth=1
	movq	-24(%rbp), %rdi
	addq	$1392, %rdi             # imm = 0x570
	movslq	-4(%rbp), %rax
	shlq	$4, %rax
	addq	%rax, %rdi
	movq	img, %rax
	movslq	72520(%rax), %rax
	shlq	$5, %rax
	movabsq	$INIT_MB_AFF_P, %rsi
	addq	%rax, %rsi
	movslq	-4(%rbp), %rax
	shlq	$3, %rax
	addq	%rax, %rsi
	callq	biari_init_context
.LBB21_56:                              # %if.end213
                                        #   in Loop: Header=BB21_52 Depth=1
	jmp	.LBB21_57
.LBB21_57:                              # %for.inc214
                                        #   in Loop: Header=BB21_52 Depth=1
	movl	-4(%rbp), %eax
	addl	$1, %eax
	movl	%eax, -4(%rbp)
	jmp	.LBB21_52
.LBB21_58:                              # %for.end216
	movl	$0, -4(%rbp)
.LBB21_59:                              # %for.cond217
                                        # =>This Inner Loop Header: Depth=1
	cmpl	$3, -4(%rbp)
	jge	.LBB21_65
# %bb.60:                               # %for.body219
                                        #   in Loop: Header=BB21_59 Depth=1
	movq	img, %rax
	cmpl	$2, 24(%rax)
	jne	.LBB21_62
# %bb.61:                               # %if.then222
                                        #   in Loop: Header=BB21_59 Depth=1
	movq	-24(%rbp), %rdi
	addq	$1456, %rdi             # imm = 0x5B0
	movslq	-4(%rbp), %rax
	shlq	$4, %rax
	addq	%rax, %rdi
	movq	img, %rax
	movslq	72520(%rax), %rax
	imulq	$24, %rax, %rax
	movabsq	$INIT_TRANSFORM_SIZE_I, %rsi
	addq	%rax, %rsi
	movslq	-4(%rbp), %rax
	shlq	$3, %rax
	addq	%rax, %rsi
	callq	biari_init_context
	jmp	.LBB21_63
.LBB21_62:                              # %if.else232
                                        #   in Loop: Header=BB21_59 Depth=1
	movq	-24(%rbp), %rdi
	addq	$1456, %rdi             # imm = 0x5B0
	movslq	-4(%rbp), %rax
	shlq	$4, %rax
	addq	%rax, %rdi
	movq	img, %rax
	movslq	72520(%rax), %rax
	imulq	$24, %rax, %rax
	movabsq	$INIT_TRANSFORM_SIZE_P, %rsi
	addq	%rax, %rsi
	movslq	-4(%rbp), %rax
	shlq	$3, %rax
	addq	%rax, %rsi
	callq	biari_init_context
.LBB21_63:                              # %if.end243
                                        #   in Loop: Header=BB21_59 Depth=1
	jmp	.LBB21_64
.LBB21_64:                              # %for.inc244
                                        #   in Loop: Header=BB21_59 Depth=1
	movl	-4(%rbp), %eax
	addl	$1, %eax
	movl	%eax, -4(%rbp)
	jmp	.LBB21_59
.LBB21_65:                              # %for.end246
	movl	$0, -4(%rbp)
.LBB21_66:                              # %for.cond247
                                        # =>This Inner Loop Header: Depth=1
	cmpl	$2, -4(%rbp)
	jge	.LBB21_72
# %bb.67:                               # %for.body249
                                        #   in Loop: Header=BB21_66 Depth=1
	movq	img, %rax
	cmpl	$2, 24(%rax)
	jne	.LBB21_69
# %bb.68:                               # %if.then252
                                        #   in Loop: Header=BB21_66 Depth=1
	movq	-16(%rbp), %rdi
	movslq	-4(%rbp), %rax
	shlq	$4, %rax
	addq	%rax, %rdi
	movq	img, %rax
	movslq	72520(%rax), %rax
	shlq	$4, %rax
	movabsq	$INIT_IPR_I, %rsi
	addq	%rax, %rsi
	movslq	-4(%rbp), %rax
	shlq	$3, %rax
	addq	%rax, %rsi
	callq	biari_init_context
	jmp	.LBB21_70
.LBB21_69:                              # %if.else262
                                        #   in Loop: Header=BB21_66 Depth=1
	movq	-16(%rbp), %rdi
	movslq	-4(%rbp), %rax
	shlq	$4, %rax
	addq	%rax, %rdi
	movq	img, %rax
	movslq	72520(%rax), %rax
	shlq	$4, %rax
	movabsq	$INIT_IPR_P, %rsi
	addq	%rax, %rsi
	movslq	-4(%rbp), %rax
	shlq	$3, %rax
	addq	%rax, %rsi
	callq	biari_init_context
.LBB21_70:                              # %if.end273
                                        #   in Loop: Header=BB21_66 Depth=1
	jmp	.LBB21_71
.LBB21_71:                              # %for.inc274
                                        #   in Loop: Header=BB21_66 Depth=1
	movl	-4(%rbp), %eax
	addl	$1, %eax
	movl	%eax, -4(%rbp)
	jmp	.LBB21_66
.LBB21_72:                              # %for.end276
	movl	$0, -4(%rbp)
.LBB21_73:                              # %for.cond277
                                        # =>This Inner Loop Header: Depth=1
	cmpl	$4, -4(%rbp)
	jge	.LBB21_79
# %bb.74:                               # %for.body279
                                        #   in Loop: Header=BB21_73 Depth=1
	movq	img, %rax
	cmpl	$2, 24(%rax)
	jne	.LBB21_76
# %bb.75:                               # %if.then282
                                        #   in Loop: Header=BB21_73 Depth=1
	movq	-16(%rbp), %rdi
	addq	$32, %rdi
	movslq	-4(%rbp), %rax
	shlq	$4, %rax
	addq	%rax, %rdi
	movq	img, %rax
	movslq	72520(%rax), %rax
	shlq	$5, %rax
	movabsq	$INIT_CIPR_I, %rsi
	addq	%rax, %rsi
	movslq	-4(%rbp), %rax
	shlq	$3, %rax
	addq	%rax, %rsi
	callq	biari_init_context
	jmp	.LBB21_77
.LBB21_76:                              # %if.else292
                                        #   in Loop: Header=BB21_73 Depth=1
	movq	-16(%rbp), %rdi
	addq	$32, %rdi
	movslq	-4(%rbp), %rax
	shlq	$4, %rax
	addq	%rax, %rdi
	movq	img, %rax
	movslq	72520(%rax), %rax
	shlq	$5, %rax
	movabsq	$INIT_CIPR_P, %rsi
	addq	%rax, %rsi
	movslq	-4(%rbp), %rax
	shlq	$3, %rax
	addq	%rax, %rsi
	callq	biari_init_context
.LBB21_77:                              # %if.end303
                                        #   in Loop: Header=BB21_73 Depth=1
	jmp	.LBB21_78
.LBB21_78:                              # %for.inc304
                                        #   in Loop: Header=BB21_73 Depth=1
	movl	-4(%rbp), %eax
	addl	$1, %eax
	movl	%eax, -4(%rbp)
	jmp	.LBB21_73
.LBB21_79:                              # %for.end306
	movl	$0, -8(%rbp)
.LBB21_80:                              # %for.cond307
                                        # =>This Loop Header: Depth=1
                                        #     Child Loop BB21_82 Depth 2
	cmpl	$3, -8(%rbp)
	jge	.LBB21_90
# %bb.81:                               # %for.body309
                                        #   in Loop: Header=BB21_80 Depth=1
	movl	$0, -4(%rbp)
.LBB21_82:                              # %for.cond310
                                        #   Parent Loop BB21_80 Depth=1
                                        # =>  This Inner Loop Header: Depth=2
	cmpl	$4, -4(%rbp)
	jge	.LBB21_88
# %bb.83:                               # %for.body312
                                        #   in Loop: Header=BB21_82 Depth=2
	movq	img, %rax
	cmpl	$2, 24(%rax)
	jne	.LBB21_85
# %bb.84:                               # %if.then315
                                        #   in Loop: Header=BB21_82 Depth=2
	movq	-16(%rbp), %rdi
	addq	$96, %rdi
	movslq	-8(%rbp), %rax
	shlq	$6, %rax
	addq	%rax, %rdi
	movslq	-4(%rbp), %rax
	shlq	$4, %rax
	addq	%rax, %rdi
	movq	img, %rax
	movslq	72520(%rax), %rax
	imulq	$96, %rax, %rax
	movabsq	$INIT_CBP_I, %rsi
	addq	%rax, %rsi
	movslq	-8(%rbp), %rax
	shlq	$5, %rax
	addq	%rax, %rsi
	movslq	-4(%rbp), %rax
	shlq	$3, %rax
	addq	%rax, %rsi
	callq	biari_init_context
	jmp	.LBB21_86
.LBB21_85:                              # %if.else328
                                        #   in Loop: Header=BB21_82 Depth=2
	movq	-16(%rbp), %rdi
	addq	$96, %rdi
	movslq	-8(%rbp), %rax
	shlq	$6, %rax
	addq	%rax, %rdi
	movslq	-4(%rbp), %rax
	shlq	$4, %rax
	addq	%rax, %rdi
	movq	img, %rax
	movslq	72520(%rax), %rax
	imulq	$96, %rax, %rax
	movabsq	$INIT_CBP_P, %rsi
	addq	%rax, %rsi
	movslq	-8(%rbp), %rax
	shlq	$5, %rax
	addq	%rax, %rsi
	movslq	-4(%rbp), %rax
	shlq	$3, %rax
	addq	%rax, %rsi
	callq	biari_init_context
.LBB21_86:                              # %if.end342
                                        #   in Loop: Header=BB21_82 Depth=2
	jmp	.LBB21_87
.LBB21_87:                              # %for.inc343
                                        #   in Loop: Header=BB21_82 Depth=2
	movl	-4(%rbp), %eax
	addl	$1, %eax
	movl	%eax, -4(%rbp)
	jmp	.LBB21_82
.LBB21_88:                              # %for.end345
                                        #   in Loop: Header=BB21_80 Depth=1
	jmp	.LBB21_89
.LBB21_89:                              # %for.inc346
                                        #   in Loop: Header=BB21_80 Depth=1
	movl	-8(%rbp), %eax
	addl	$1, %eax
	movl	%eax, -8(%rbp)
	jmp	.LBB21_80
.LBB21_90:                              # %for.end348
	movl	$0, -8(%rbp)
.LBB21_91:                              # %for.cond349
                                        # =>This Loop Header: Depth=1
                                        #     Child Loop BB21_93 Depth 2
	cmpl	$10, -8(%rbp)
	jge	.LBB21_101
# %bb.92:                               # %for.body351
                                        #   in Loop: Header=BB21_91 Depth=1
	movl	$0, -4(%rbp)
.LBB21_93:                              # %for.cond352
                                        #   Parent Loop BB21_91 Depth=1
                                        # =>  This Inner Loop Header: Depth=2
	cmpl	$4, -4(%rbp)
	jge	.LBB21_99
# %bb.94:                               # %for.body354
                                        #   in Loop: Header=BB21_93 Depth=2
	movq	img, %rax
	cmpl	$2, 24(%rax)
	jne	.LBB21_96
# %bb.95:                               # %if.then357
                                        #   in Loop: Header=BB21_93 Depth=2
	movq	-16(%rbp), %rdi
	addq	$288, %rdi              # imm = 0x120
	movslq	-8(%rbp), %rax
	shlq	$6, %rax
	addq	%rax, %rdi
	movslq	-4(%rbp), %rax
	shlq	$4, %rax
	addq	%rax, %rdi
	movq	img, %rax
	movslq	72520(%rax), %rax
	shlq	$8, %rax
	movabsq	$INIT_BCBP_I, %rsi
	addq	%rax, %rsi
	movslq	-8(%rbp), %rax
	shlq	$5, %rax
	addq	%rax, %rsi
	movslq	-4(%rbp), %rax
	shlq	$3, %rax
	addq	%rax, %rsi
	callq	biari_init_context
	jmp	.LBB21_97
.LBB21_96:                              # %if.else370
                                        #   in Loop: Header=BB21_93 Depth=2
	movq	-16(%rbp), %rdi
	addq	$288, %rdi              # imm = 0x120
	movslq	-8(%rbp), %rax
	shlq	$6, %rax
	addq	%rax, %rdi
	movslq	-4(%rbp), %rax
	shlq	$4, %rax
	addq	%rax, %rdi
	movq	img, %rax
	movslq	72520(%rax), %rax
	shlq	$8, %rax
	movabsq	$INIT_BCBP_P, %rsi
	addq	%rax, %rsi
	movslq	-8(%rbp), %rax
	shlq	$5, %rax
	addq	%rax, %rsi
	movslq	-4(%rbp), %rax
	shlq	$3, %rax
	addq	%rax, %rsi
	callq	biari_init_context
.LBB21_97:                              # %if.end384
                                        #   in Loop: Header=BB21_93 Depth=2
	jmp	.LBB21_98
.LBB21_98:                              # %for.inc385
                                        #   in Loop: Header=BB21_93 Depth=2
	movl	-4(%rbp), %eax
	addl	$1, %eax
	movl	%eax, -4(%rbp)
	jmp	.LBB21_93
.LBB21_99:                              # %for.end387
                                        #   in Loop: Header=BB21_91 Depth=1
	jmp	.LBB21_100
.LBB21_100:                             # %for.inc388
                                        #   in Loop: Header=BB21_91 Depth=1
	movl	-8(%rbp), %eax
	addl	$1, %eax
	movl	%eax, -8(%rbp)
	jmp	.LBB21_91
.LBB21_101:                             # %for.end390
	movl	$0, -8(%rbp)
.LBB21_102:                             # %for.cond391
                                        # =>This Loop Header: Depth=1
                                        #     Child Loop BB21_104 Depth 2
	cmpl	$10, -8(%rbp)
	jge	.LBB21_112
# %bb.103:                              # %for.body393
                                        #   in Loop: Header=BB21_102 Depth=1
	movl	$0, -4(%rbp)
.LBB21_104:                             # %for.cond394
                                        #   Parent Loop BB21_102 Depth=1
                                        # =>  This Inner Loop Header: Depth=2
	cmpl	$15, -4(%rbp)
	jge	.LBB21_110
# %bb.105:                              # %for.body396
                                        #   in Loop: Header=BB21_104 Depth=2
	movq	img, %rax
	cmpl	$2, 24(%rax)
	jne	.LBB21_107
# %bb.106:                              # %if.then399
                                        #   in Loop: Header=BB21_104 Depth=2
	movq	-16(%rbp), %rdi
	addq	$928, %rdi              # imm = 0x3A0
	movslq	-8(%rbp), %rax
	imulq	$240, %rax, %rax
	addq	%rax, %rdi
	movslq	-4(%rbp), %rax
	shlq	$4, %rax
	addq	%rax, %rdi
	movq	img, %rax
	movslq	72520(%rax), %rax
	imulq	$960, %rax, %rax        # imm = 0x3C0
	movabsq	$INIT_MAP_I, %rsi
	addq	%rax, %rsi
	movslq	-8(%rbp), %rax
	imulq	$120, %rax, %rax
	addq	%rax, %rsi
	movslq	-4(%rbp), %rax
	shlq	$3, %rax
	addq	%rax, %rsi
	callq	biari_init_context
	jmp	.LBB21_108
.LBB21_107:                             # %if.else412
                                        #   in Loop: Header=BB21_104 Depth=2
	movq	-16(%rbp), %rdi
	addq	$928, %rdi              # imm = 0x3A0
	movslq	-8(%rbp), %rax
	imulq	$240, %rax, %rax
	addq	%rax, %rdi
	movslq	-4(%rbp), %rax
	shlq	$4, %rax
	addq	%rax, %rdi
	movq	img, %rax
	movslq	72520(%rax), %rax
	imulq	$960, %rax, %rax        # imm = 0x3C0
	movabsq	$INIT_MAP_P, %rsi
	addq	%rax, %rsi
	movslq	-8(%rbp), %rax
	imulq	$120, %rax, %rax
	addq	%rax, %rsi
	movslq	-4(%rbp), %rax
	shlq	$3, %rax
	addq	%rax, %rsi
	callq	biari_init_context
.LBB21_108:                             # %if.end426
                                        #   in Loop: Header=BB21_104 Depth=2
	jmp	.LBB21_109
.LBB21_109:                             # %for.inc427
                                        #   in Loop: Header=BB21_104 Depth=2
	movl	-4(%rbp), %eax
	addl	$1, %eax
	movl	%eax, -4(%rbp)
	jmp	.LBB21_104
.LBB21_110:                             # %for.end429
                                        #   in Loop: Header=BB21_102 Depth=1
	jmp	.LBB21_111
.LBB21_111:                             # %for.inc430
                                        #   in Loop: Header=BB21_102 Depth=1
	movl	-8(%rbp), %eax
	addl	$1, %eax
	movl	%eax, -8(%rbp)
	jmp	.LBB21_102
.LBB21_112:                             # %for.end432
	movl	$0, -8(%rbp)
.LBB21_113:                             # %for.cond433
                                        # =>This Loop Header: Depth=1
                                        #     Child Loop BB21_115 Depth 2
	cmpl	$10, -8(%rbp)
	jge	.LBB21_123
# %bb.114:                              # %for.body435
                                        #   in Loop: Header=BB21_113 Depth=1
	movl	$0, -4(%rbp)
.LBB21_115:                             # %for.cond436
                                        #   Parent Loop BB21_113 Depth=1
                                        # =>  This Inner Loop Header: Depth=2
	cmpl	$15, -4(%rbp)
	jge	.LBB21_121
# %bb.116:                              # %for.body438
                                        #   in Loop: Header=BB21_115 Depth=2
	movq	img, %rax
	cmpl	$2, 24(%rax)
	jne	.LBB21_118
# %bb.117:                              # %if.then441
                                        #   in Loop: Header=BB21_115 Depth=2
	movq	-16(%rbp), %rdi
	addq	$3328, %rdi             # imm = 0xD00
	movslq	-8(%rbp), %rax
	imulq	$240, %rax, %rax
	addq	%rax, %rdi
	movslq	-4(%rbp), %rax
	shlq	$4, %rax
	addq	%rax, %rdi
	movq	img, %rax
	movslq	72520(%rax), %rax
	imulq	$960, %rax, %rax        # imm = 0x3C0
	movabsq	$INIT_LAST_I, %rsi
	addq	%rax, %rsi
	movslq	-8(%rbp), %rax
	imulq	$120, %rax, %rax
	addq	%rax, %rsi
	movslq	-4(%rbp), %rax
	shlq	$3, %rax
	addq	%rax, %rsi
	callq	biari_init_context
	jmp	.LBB21_119
.LBB21_118:                             # %if.else454
                                        #   in Loop: Header=BB21_115 Depth=2
	movq	-16(%rbp), %rdi
	addq	$3328, %rdi             # imm = 0xD00
	movslq	-8(%rbp), %rax
	imulq	$240, %rax, %rax
	addq	%rax, %rdi
	movslq	-4(%rbp), %rax
	shlq	$4, %rax
	addq	%rax, %rdi
	movq	img, %rax
	movslq	72520(%rax), %rax
	imulq	$960, %rax, %rax        # imm = 0x3C0
	movabsq	$INIT_LAST_P, %rsi
	addq	%rax, %rsi
	movslq	-8(%rbp), %rax
	imulq	$120, %rax, %rax
	addq	%rax, %rsi
	movslq	-4(%rbp), %rax
	shlq	$3, %rax
	addq	%rax, %rsi
	callq	biari_init_context
.LBB21_119:                             # %if.end468
                                        #   in Loop: Header=BB21_115 Depth=2
	jmp	.LBB21_120
.LBB21_120:                             # %for.inc469
                                        #   in Loop: Header=BB21_115 Depth=2
	movl	-4(%rbp), %eax
	addl	$1, %eax
	movl	%eax, -4(%rbp)
	jmp	.LBB21_115
.LBB21_121:                             # %for.end471
                                        #   in Loop: Header=BB21_113 Depth=1
	jmp	.LBB21_122
.LBB21_122:                             # %for.inc472
                                        #   in Loop: Header=BB21_113 Depth=1
	movl	-8(%rbp), %eax
	addl	$1, %eax
	movl	%eax, -8(%rbp)
	jmp	.LBB21_113
.LBB21_123:                             # %for.end474
	movl	$0, -8(%rbp)
.LBB21_124:                             # %for.cond475
                                        # =>This Loop Header: Depth=1
                                        #     Child Loop BB21_126 Depth 2
	cmpl	$10, -8(%rbp)
	jge	.LBB21_134
# %bb.125:                              # %for.body477
                                        #   in Loop: Header=BB21_124 Depth=1
	movl	$0, -4(%rbp)
.LBB21_126:                             # %for.cond478
                                        #   Parent Loop BB21_124 Depth=1
                                        # =>  This Inner Loop Header: Depth=2
	cmpl	$5, -4(%rbp)
	jge	.LBB21_132
# %bb.127:                              # %for.body480
                                        #   in Loop: Header=BB21_126 Depth=2
	movq	img, %rax
	cmpl	$2, 24(%rax)
	jne	.LBB21_129
# %bb.128:                              # %if.then483
                                        #   in Loop: Header=BB21_126 Depth=2
	movq	-16(%rbp), %rdi
	addq	$5728, %rdi             # imm = 0x1660
	movslq	-8(%rbp), %rax
	imulq	$80, %rax, %rax
	addq	%rax, %rdi
	movslq	-4(%rbp), %rax
	shlq	$4, %rax
	addq	%rax, %rdi
	movq	img, %rax
	movslq	72520(%rax), %rax
	imulq	$320, %rax, %rax        # imm = 0x140
	movabsq	$INIT_ONE_I, %rsi
	addq	%rax, %rsi
	movslq	-8(%rbp), %rax
	imulq	$40, %rax, %rax
	addq	%rax, %rsi
	movslq	-4(%rbp), %rax
	shlq	$3, %rax
	addq	%rax, %rsi
	callq	biari_init_context
	jmp	.LBB21_130
.LBB21_129:                             # %if.else496
                                        #   in Loop: Header=BB21_126 Depth=2
	movq	-16(%rbp), %rdi
	addq	$5728, %rdi             # imm = 0x1660
	movslq	-8(%rbp), %rax
	imulq	$80, %rax, %rax
	addq	%rax, %rdi
	movslq	-4(%rbp), %rax
	shlq	$4, %rax
	addq	%rax, %rdi
	movq	img, %rax
	movslq	72520(%rax), %rax
	imulq	$320, %rax, %rax        # imm = 0x140
	movabsq	$INIT_ONE_P, %rsi
	addq	%rax, %rsi
	movslq	-8(%rbp), %rax
	imulq	$40, %rax, %rax
	addq	%rax, %rsi
	movslq	-4(%rbp), %rax
	shlq	$3, %rax
	addq	%rax, %rsi
	callq	biari_init_context
.LBB21_130:                             # %if.end510
                                        #   in Loop: Header=BB21_126 Depth=2
	jmp	.LBB21_131
.LBB21_131:                             # %for.inc511
                                        #   in Loop: Header=BB21_126 Depth=2
	movl	-4(%rbp), %eax
	addl	$1, %eax
	movl	%eax, -4(%rbp)
	jmp	.LBB21_126
.LBB21_132:                             # %for.end513
                                        #   in Loop: Header=BB21_124 Depth=1
	jmp	.LBB21_133
.LBB21_133:                             # %for.inc514
                                        #   in Loop: Header=BB21_124 Depth=1
	movl	-8(%rbp), %eax
	addl	$1, %eax
	movl	%eax, -8(%rbp)
	jmp	.LBB21_124
.LBB21_134:                             # %for.end516
	movl	$0, -8(%rbp)
.LBB21_135:                             # %for.cond517
                                        # =>This Loop Header: Depth=1
                                        #     Child Loop BB21_137 Depth 2
	cmpl	$10, -8(%rbp)
	jge	.LBB21_145
# %bb.136:                              # %for.body519
                                        #   in Loop: Header=BB21_135 Depth=1
	movl	$0, -4(%rbp)
.LBB21_137:                             # %for.cond520
                                        #   Parent Loop BB21_135 Depth=1
                                        # =>  This Inner Loop Header: Depth=2
	cmpl	$5, -4(%rbp)
	jge	.LBB21_143
# %bb.138:                              # %for.body522
                                        #   in Loop: Header=BB21_137 Depth=2
	movq	img, %rax
	cmpl	$2, 24(%rax)
	jne	.LBB21_140
# %bb.139:                              # %if.then525
                                        #   in Loop: Header=BB21_137 Depth=2
	movq	-16(%rbp), %rdi
	addq	$6528, %rdi             # imm = 0x1980
	movslq	-8(%rbp), %rax
	imulq	$80, %rax, %rax
	addq	%rax, %rdi
	movslq	-4(%rbp), %rax
	shlq	$4, %rax
	addq	%rax, %rdi
	movq	img, %rax
	movslq	72520(%rax), %rax
	imulq	$320, %rax, %rax        # imm = 0x140
	movabsq	$INIT_ABS_I, %rsi
	addq	%rax, %rsi
	movslq	-8(%rbp), %rax
	imulq	$40, %rax, %rax
	addq	%rax, %rsi
	movslq	-4(%rbp), %rax
	shlq	$3, %rax
	addq	%rax, %rsi
	callq	biari_init_context
	jmp	.LBB21_141
.LBB21_140:                             # %if.else538
                                        #   in Loop: Header=BB21_137 Depth=2
	movq	-16(%rbp), %rdi
	addq	$6528, %rdi             # imm = 0x1980
	movslq	-8(%rbp), %rax
	imulq	$80, %rax, %rax
	addq	%rax, %rdi
	movslq	-4(%rbp), %rax
	shlq	$4, %rax
	addq	%rax, %rdi
	movq	img, %rax
	movslq	72520(%rax), %rax
	imulq	$320, %rax, %rax        # imm = 0x140
	movabsq	$INIT_ABS_P, %rsi
	addq	%rax, %rsi
	movslq	-8(%rbp), %rax
	imulq	$40, %rax, %rax
	addq	%rax, %rsi
	movslq	-4(%rbp), %rax
	shlq	$3, %rax
	addq	%rax, %rsi
	callq	biari_init_context
.LBB21_141:                             # %if.end552
                                        #   in Loop: Header=BB21_137 Depth=2
	jmp	.LBB21_142
.LBB21_142:                             # %for.inc553
                                        #   in Loop: Header=BB21_137 Depth=2
	movl	-4(%rbp), %eax
	addl	$1, %eax
	movl	%eax, -4(%rbp)
	jmp	.LBB21_137
.LBB21_143:                             # %for.end555
                                        #   in Loop: Header=BB21_135 Depth=1
	jmp	.LBB21_144
.LBB21_144:                             # %for.inc556
                                        #   in Loop: Header=BB21_135 Depth=1
	movl	-8(%rbp), %eax
	addl	$1, %eax
	movl	%eax, -8(%rbp)
	jmp	.LBB21_135
.LBB21_145:                             # %for.end558
	movl	$0, -8(%rbp)
.LBB21_146:                             # %for.cond559
                                        # =>This Loop Header: Depth=1
                                        #     Child Loop BB21_148 Depth 2
	cmpl	$10, -8(%rbp)
	jge	.LBB21_156
# %bb.147:                              # %for.body561
                                        #   in Loop: Header=BB21_146 Depth=1
	movl	$0, -4(%rbp)
.LBB21_148:                             # %for.cond562
                                        #   Parent Loop BB21_146 Depth=1
                                        # =>  This Inner Loop Header: Depth=2
	cmpl	$15, -4(%rbp)
	jge	.LBB21_154
# %bb.149:                              # %for.body564
                                        #   in Loop: Header=BB21_148 Depth=2
	movq	img, %rax
	cmpl	$2, 24(%rax)
	jne	.LBB21_151
# %bb.150:                              # %if.then567
                                        #   in Loop: Header=BB21_148 Depth=2
	movq	-16(%rbp), %rdi
	addq	$7328, %rdi             # imm = 0x1CA0
	movslq	-8(%rbp), %rax
	imulq	$240, %rax, %rax
	addq	%rax, %rdi
	movslq	-4(%rbp), %rax
	shlq	$4, %rax
	addq	%rax, %rdi
	movq	img, %rax
	movslq	72520(%rax), %rax
	imulq	$960, %rax, %rax        # imm = 0x3C0
	movabsq	$INIT_FLD_MAP_I, %rsi
	addq	%rax, %rsi
	movslq	-8(%rbp), %rax
	imulq	$120, %rax, %rax
	addq	%rax, %rsi
	movslq	-4(%rbp), %rax
	shlq	$3, %rax
	addq	%rax, %rsi
	callq	biari_init_context
	jmp	.LBB21_152
.LBB21_151:                             # %if.else580
                                        #   in Loop: Header=BB21_148 Depth=2
	movq	-16(%rbp), %rdi
	addq	$7328, %rdi             # imm = 0x1CA0
	movslq	-8(%rbp), %rax
	imulq	$240, %rax, %rax
	addq	%rax, %rdi
	movslq	-4(%rbp), %rax
	shlq	$4, %rax
	addq	%rax, %rdi
	movq	img, %rax
	movslq	72520(%rax), %rax
	imulq	$960, %rax, %rax        # imm = 0x3C0
	movabsq	$INIT_FLD_MAP_P, %rsi
	addq	%rax, %rsi
	movslq	-8(%rbp), %rax
	imulq	$120, %rax, %rax
	addq	%rax, %rsi
	movslq	-4(%rbp), %rax
	shlq	$3, %rax
	addq	%rax, %rsi
	callq	biari_init_context
.LBB21_152:                             # %if.end594
                                        #   in Loop: Header=BB21_148 Depth=2
	jmp	.LBB21_153
.LBB21_153:                             # %for.inc595
                                        #   in Loop: Header=BB21_148 Depth=2
	movl	-4(%rbp), %eax
	addl	$1, %eax
	movl	%eax, -4(%rbp)
	jmp	.LBB21_148
.LBB21_154:                             # %for.end597
                                        #   in Loop: Header=BB21_146 Depth=1
	jmp	.LBB21_155
.LBB21_155:                             # %for.inc598
                                        #   in Loop: Header=BB21_146 Depth=1
	movl	-8(%rbp), %eax
	addl	$1, %eax
	movl	%eax, -8(%rbp)
	jmp	.LBB21_146
.LBB21_156:                             # %for.end600
	movl	$0, -8(%rbp)
.LBB21_157:                             # %for.cond601
                                        # =>This Loop Header: Depth=1
                                        #     Child Loop BB21_159 Depth 2
	cmpl	$10, -8(%rbp)
	jge	.LBB21_167
# %bb.158:                              # %for.body603
                                        #   in Loop: Header=BB21_157 Depth=1
	movl	$0, -4(%rbp)
.LBB21_159:                             # %for.cond604
                                        #   Parent Loop BB21_157 Depth=1
                                        # =>  This Inner Loop Header: Depth=2
	cmpl	$15, -4(%rbp)
	jge	.LBB21_165
# %bb.160:                              # %for.body606
                                        #   in Loop: Header=BB21_159 Depth=2
	movq	img, %rax
	cmpl	$2, 24(%rax)
	jne	.LBB21_162
# %bb.161:                              # %if.then609
                                        #   in Loop: Header=BB21_159 Depth=2
	movq	-16(%rbp), %rdi
	addq	$9728, %rdi             # imm = 0x2600
	movslq	-8(%rbp), %rax
	imulq	$240, %rax, %rax
	addq	%rax, %rdi
	movslq	-4(%rbp), %rax
	shlq	$4, %rax
	addq	%rax, %rdi
	movq	img, %rax
	movslq	72520(%rax), %rax
	imulq	$960, %rax, %rax        # imm = 0x3C0
	movabsq	$INIT_FLD_LAST_I, %rsi
	addq	%rax, %rsi
	movslq	-8(%rbp), %rax
	imulq	$120, %rax, %rax
	addq	%rax, %rsi
	movslq	-4(%rbp), %rax
	shlq	$3, %rax
	addq	%rax, %rsi
	callq	biari_init_context
	jmp	.LBB21_163
.LBB21_162:                             # %if.else622
                                        #   in Loop: Header=BB21_159 Depth=2
	movq	-16(%rbp), %rdi
	addq	$9728, %rdi             # imm = 0x2600
	movslq	-8(%rbp), %rax
	imulq	$240, %rax, %rax
	addq	%rax, %rdi
	movslq	-4(%rbp), %rax
	shlq	$4, %rax
	addq	%rax, %rdi
	movq	img, %rax
	movslq	72520(%rax), %rax
	imulq	$960, %rax, %rax        # imm = 0x3C0
	movabsq	$INIT_FLD_LAST_P, %rsi
	addq	%rax, %rsi
	movslq	-8(%rbp), %rax
	imulq	$120, %rax, %rax
	addq	%rax, %rsi
	movslq	-4(%rbp), %rax
	shlq	$3, %rax
	addq	%rax, %rsi
	callq	biari_init_context
.LBB21_163:                             # %if.end636
                                        #   in Loop: Header=BB21_159 Depth=2
	jmp	.LBB21_164
.LBB21_164:                             # %for.inc637
                                        #   in Loop: Header=BB21_159 Depth=2
	movl	-4(%rbp), %eax
	addl	$1, %eax
	movl	%eax, -4(%rbp)
	jmp	.LBB21_159
.LBB21_165:                             # %for.end639
                                        #   in Loop: Header=BB21_157 Depth=1
	jmp	.LBB21_166
.LBB21_166:                             # %for.inc640
                                        #   in Loop: Header=BB21_157 Depth=1
	movl	-8(%rbp), %eax
	addl	$1, %eax
	movl	%eax, -8(%rbp)
	jmp	.LBB21_157
.LBB21_167:                             # %for.end642
	cmpl	$544184319, -28(%rbp)   # imm = 0x206F97FF
	jne	.LBB21_169
.LBB21_168:
	addq	$32, %rsp
	popq	%rbp
	.cfi_def_cfa %rsp, 8
	retq
.LBB21_169:                             # %func_exit
	.cfi_def_cfa %rbp, 16
	callq	detect_breach
	jmp	.LBB21_168
.Lfunc_end21:
	.size	init_contexts.14, .Lfunc_end21-init_contexts.14
	.cfi_endproc
                                        # -- End function
	.section	.rodata.cst8,"aM",@progbits,8
	.p2align	3               # -- Begin function GetCtxModelNumber.15
.LCPI22_0:
	.quad	5055640609639927018     # double 1.0E+30
	.text
	.globl	GetCtxModelNumber.15
	.p2align	4, 0x90
	.type	GetCtxModelNumber.15,@function
GetCtxModelNumber.15:                   # @GetCtxModelNumber.15
	.cfi_startproc
# %bb.0:                                # %entry
	pushq	%rbp
	.cfi_def_cfa_offset 16
	.cfi_offset %rbp, -16
	movq	%rsp, %rbp
	.cfi_def_cfa_register %rbp
	subq	$64, %rsp
	vmovsd	.LCPI22_0(%rip), %xmm0  # xmm0 = mem[0],zero
	movl	$1051508216, -48(%rbp)  # imm = 0x3EACBDF8
	movq	%rdi, -64(%rbp)
	movq	%rsi, -40(%rbp)
	movq	%rdx, -32(%rbp)
	movq	img, %rax
	movl	24(%rax), %eax
	cmpl	$2, %eax
	movl	$1, %eax
	movl	$3, %ecx
	cmovel	%eax, %ecx
	movl	%ecx, -44(%rbp)
	vmovsd	%xmm0, -56(%rbp)
	movl	$0, -12(%rbp)
.LBB22_1:                               # %for.cond
                                        # =>This Loop Header: Depth=1
                                        #     Child Loop BB22_3 Depth 2
                                        #       Child Loop BB22_5 Depth 3
                                        #     Child Loop BB22_14 Depth 2
                                        #       Child Loop BB22_16 Depth 3
                                        #     Child Loop BB22_25 Depth 2
                                        #       Child Loop BB22_27 Depth 3
                                        #     Child Loop BB22_36 Depth 2
                                        #       Child Loop BB22_38 Depth 3
                                        #     Child Loop BB22_47 Depth 2
                                        #     Child Loop BB22_54 Depth 2
                                        #     Child Loop BB22_61 Depth 2
                                        #     Child Loop BB22_68 Depth 2
                                        #     Child Loop BB22_75 Depth 2
                                        #     Child Loop BB22_82 Depth 2
                                        #       Child Loop BB22_84 Depth 3
                                        #     Child Loop BB22_93 Depth 2
                                        #       Child Loop BB22_95 Depth 3
                                        #     Child Loop BB22_104 Depth 2
                                        #       Child Loop BB22_106 Depth 3
                                        #     Child Loop BB22_115 Depth 2
                                        #       Child Loop BB22_117 Depth 3
                                        #     Child Loop BB22_126 Depth 2
                                        #       Child Loop BB22_128 Depth 3
                                        #     Child Loop BB22_137 Depth 2
                                        #       Child Loop BB22_139 Depth 3
                                        #     Child Loop BB22_148 Depth 2
                                        #       Child Loop BB22_150 Depth 3
                                        #     Child Loop BB22_159 Depth 2
                                        #       Child Loop BB22_161 Depth 3
	movl	-12(%rbp), %eax
	cmpl	-44(%rbp), %eax
	jge	.LBB22_173
# %bb.2:                                # %for.body
                                        #   in Loop: Header=BB22_1 Depth=1
	vxorps	%xmm0, %xmm0, %xmm0
	vmovsd	%xmm0, -24(%rbp)
	movl	$0, -8(%rbp)
.LBB22_3:                               # %for.cond2
                                        #   Parent Loop BB22_1 Depth=1
                                        # =>  This Loop Header: Depth=2
                                        #       Child Loop BB22_5 Depth 3
	cmpl	$3, -8(%rbp)
	jge	.LBB22_13
# %bb.4:                                # %for.body4
                                        #   in Loop: Header=BB22_3 Depth=2
	movl	$0, -4(%rbp)
.LBB22_5:                               # %for.cond5
                                        #   Parent Loop BB22_1 Depth=1
                                        #     Parent Loop BB22_3 Depth=2
                                        # =>    This Inner Loop Header: Depth=3
	cmpl	$11, -4(%rbp)
	jge	.LBB22_11
# %bb.6:                                # %for.body7
                                        #   in Loop: Header=BB22_5 Depth=3
	movq	img, %rax
	cmpl	$2, 24(%rax)
	jne	.LBB22_8
# %bb.7:                                # %if.then
                                        #   in Loop: Header=BB22_5 Depth=3
	movq	-40(%rbp), %rdi
	movslq	-8(%rbp), %rax
	imulq	$176, %rax, %rax
	addq	%rax, %rdi
	movslq	-4(%rbp), %rax
	shlq	$4, %rax
	addq	%rax, %rdi
	movslq	-12(%rbp), %rax
	imulq	$264, %rax, %rax        # imm = 0x108
	movabsq	$INIT_MB_TYPE_I, %rsi
	addq	%rax, %rsi
	movslq	-8(%rbp), %rax
	imulq	$88, %rax, %rax
	addq	%rax, %rsi
	movslq	-4(%rbp), %rax
	shlq	$3, %rax
	addq	%rax, %rsi
	callq	XRate
	vaddsd	-24(%rbp), %xmm0, %xmm0
	vmovsd	%xmm0, -24(%rbp)
	jmp	.LBB22_9
.LBB22_8:                               # %if.else
                                        #   in Loop: Header=BB22_5 Depth=3
	movq	-40(%rbp), %rdi
	movslq	-8(%rbp), %rax
	imulq	$176, %rax, %rax
	addq	%rax, %rdi
	movslq	-4(%rbp), %rax
	shlq	$4, %rax
	addq	%rax, %rdi
	movslq	-12(%rbp), %rax
	imulq	$264, %rax, %rax        # imm = 0x108
	movabsq	$INIT_MB_TYPE_P, %rsi
	addq	%rax, %rsi
	movslq	-8(%rbp), %rax
	imulq	$88, %rax, %rax
	addq	%rax, %rsi
	movslq	-4(%rbp), %rax
	shlq	$3, %rax
	addq	%rax, %rsi
	callq	XRate
	vaddsd	-24(%rbp), %xmm0, %xmm0
	vmovsd	%xmm0, -24(%rbp)
.LBB22_9:                               # %if.end
                                        #   in Loop: Header=BB22_5 Depth=3
	jmp	.LBB22_10
.LBB22_10:                              # %for.inc
                                        #   in Loop: Header=BB22_5 Depth=3
	movl	-4(%rbp), %eax
	addl	$1, %eax
	movl	%eax, -4(%rbp)
	jmp	.LBB22_5
.LBB22_11:                              # %for.end
                                        #   in Loop: Header=BB22_3 Depth=2
	jmp	.LBB22_12
.LBB22_12:                              # %for.inc33
                                        #   in Loop: Header=BB22_3 Depth=2
	movl	-8(%rbp), %eax
	addl	$1, %eax
	movl	%eax, -8(%rbp)
	jmp	.LBB22_3
.LBB22_13:                              # %for.end35
                                        #   in Loop: Header=BB22_1 Depth=1
	movl	$0, -8(%rbp)
.LBB22_14:                              # %for.cond36
                                        #   Parent Loop BB22_1 Depth=1
                                        # =>  This Loop Header: Depth=2
                                        #       Child Loop BB22_16 Depth 3
	cmpl	$2, -8(%rbp)
	jge	.LBB22_24
# %bb.15:                               # %for.body38
                                        #   in Loop: Header=BB22_14 Depth=2
	movl	$0, -4(%rbp)
.LBB22_16:                              # %for.cond39
                                        #   Parent Loop BB22_1 Depth=1
                                        #     Parent Loop BB22_14 Depth=2
                                        # =>    This Inner Loop Header: Depth=3
	cmpl	$9, -4(%rbp)
	jge	.LBB22_22
# %bb.17:                               # %for.body41
                                        #   in Loop: Header=BB22_16 Depth=3
	movq	img, %rax
	cmpl	$2, 24(%rax)
	jne	.LBB22_19
# %bb.18:                               # %if.then44
                                        #   in Loop: Header=BB22_16 Depth=3
	movq	-40(%rbp), %rdi
	addq	$528, %rdi              # imm = 0x210
	movslq	-8(%rbp), %rax
	imulq	$144, %rax, %rax
	addq	%rax, %rdi
	movslq	-4(%rbp), %rax
	shlq	$4, %rax
	addq	%rax, %rdi
	movslq	-12(%rbp), %rax
	imulq	$144, %rax, %rax
	movabsq	$INIT_B8_TYPE_I, %rsi
	addq	%rax, %rsi
	movslq	-8(%rbp), %rax
	imulq	$72, %rax, %rax
	addq	%rax, %rsi
	movslq	-4(%rbp), %rax
	shlq	$3, %rax
	addq	%rax, %rsi
	callq	XRate
	vaddsd	-24(%rbp), %xmm0, %xmm0
	vmovsd	%xmm0, -24(%rbp)
	jmp	.LBB22_20
.LBB22_19:                              # %if.else58
                                        #   in Loop: Header=BB22_16 Depth=3
	movq	-40(%rbp), %rdi
	addq	$528, %rdi              # imm = 0x210
	movslq	-8(%rbp), %rax
	imulq	$144, %rax, %rax
	addq	%rax, %rdi
	movslq	-4(%rbp), %rax
	shlq	$4, %rax
	addq	%rax, %rdi
	movslq	-12(%rbp), %rax
	imulq	$144, %rax, %rax
	movabsq	$INIT_B8_TYPE_P, %rsi
	addq	%rax, %rsi
	movslq	-8(%rbp), %rax
	imulq	$72, %rax, %rax
	addq	%rax, %rsi
	movslq	-4(%rbp), %rax
	shlq	$3, %rax
	addq	%rax, %rsi
	callq	XRate
	vaddsd	-24(%rbp), %xmm0, %xmm0
	vmovsd	%xmm0, -24(%rbp)
.LBB22_20:                              # %if.end73
                                        #   in Loop: Header=BB22_16 Depth=3
	jmp	.LBB22_21
.LBB22_21:                              # %for.inc74
                                        #   in Loop: Header=BB22_16 Depth=3
	movl	-4(%rbp), %eax
	addl	$1, %eax
	movl	%eax, -4(%rbp)
	jmp	.LBB22_16
.LBB22_22:                              # %for.end76
                                        #   in Loop: Header=BB22_14 Depth=2
	jmp	.LBB22_23
.LBB22_23:                              # %for.inc77
                                        #   in Loop: Header=BB22_14 Depth=2
	movl	-8(%rbp), %eax
	addl	$1, %eax
	movl	%eax, -8(%rbp)
	jmp	.LBB22_14
.LBB22_24:                              # %for.end79
                                        #   in Loop: Header=BB22_1 Depth=1
	movl	$0, -8(%rbp)
.LBB22_25:                              # %for.cond80
                                        #   Parent Loop BB22_1 Depth=1
                                        # =>  This Loop Header: Depth=2
                                        #       Child Loop BB22_27 Depth 3
	cmpl	$2, -8(%rbp)
	jge	.LBB22_35
# %bb.26:                               # %for.body82
                                        #   in Loop: Header=BB22_25 Depth=2
	movl	$0, -4(%rbp)
.LBB22_27:                              # %for.cond83
                                        #   Parent Loop BB22_1 Depth=1
                                        #     Parent Loop BB22_25 Depth=2
                                        # =>    This Inner Loop Header: Depth=3
	cmpl	$10, -4(%rbp)
	jge	.LBB22_33
# %bb.28:                               # %for.body85
                                        #   in Loop: Header=BB22_27 Depth=3
	movq	img, %rax
	cmpl	$2, 24(%rax)
	jne	.LBB22_30
# %bb.29:                               # %if.then88
                                        #   in Loop: Header=BB22_27 Depth=3
	movq	-40(%rbp), %rdi
	addq	$816, %rdi              # imm = 0x330
	movslq	-8(%rbp), %rax
	imulq	$160, %rax, %rax
	addq	%rax, %rdi
	movslq	-4(%rbp), %rax
	shlq	$4, %rax
	addq	%rax, %rdi
	movslq	-12(%rbp), %rax
	imulq	$160, %rax, %rax
	movabsq	$INIT_MV_RES_I, %rsi
	addq	%rax, %rsi
	movslq	-8(%rbp), %rax
	imulq	$80, %rax, %rax
	addq	%rax, %rsi
	movslq	-4(%rbp), %rax
	shlq	$3, %rax
	addq	%rax, %rsi
	callq	XRate
	vaddsd	-24(%rbp), %xmm0, %xmm0
	vmovsd	%xmm0, -24(%rbp)
	jmp	.LBB22_31
.LBB22_30:                              # %if.else102
                                        #   in Loop: Header=BB22_27 Depth=3
	movq	-40(%rbp), %rdi
	addq	$816, %rdi              # imm = 0x330
	movslq	-8(%rbp), %rax
	imulq	$160, %rax, %rax
	addq	%rax, %rdi
	movslq	-4(%rbp), %rax
	shlq	$4, %rax
	addq	%rax, %rdi
	movslq	-12(%rbp), %rax
	imulq	$160, %rax, %rax
	movabsq	$INIT_MV_RES_P, %rsi
	addq	%rax, %rsi
	movslq	-8(%rbp), %rax
	imulq	$80, %rax, %rax
	addq	%rax, %rsi
	movslq	-4(%rbp), %rax
	shlq	$3, %rax
	addq	%rax, %rsi
	callq	XRate
	vaddsd	-24(%rbp), %xmm0, %xmm0
	vmovsd	%xmm0, -24(%rbp)
.LBB22_31:                              # %if.end117
                                        #   in Loop: Header=BB22_27 Depth=3
	jmp	.LBB22_32
.LBB22_32:                              # %for.inc118
                                        #   in Loop: Header=BB22_27 Depth=3
	movl	-4(%rbp), %eax
	addl	$1, %eax
	movl	%eax, -4(%rbp)
	jmp	.LBB22_27
.LBB22_33:                              # %for.end120
                                        #   in Loop: Header=BB22_25 Depth=2
	jmp	.LBB22_34
.LBB22_34:                              # %for.inc121
                                        #   in Loop: Header=BB22_25 Depth=2
	movl	-8(%rbp), %eax
	addl	$1, %eax
	movl	%eax, -8(%rbp)
	jmp	.LBB22_25
.LBB22_35:                              # %for.end123
                                        #   in Loop: Header=BB22_1 Depth=1
	movl	$0, -8(%rbp)
.LBB22_36:                              # %for.cond124
                                        #   Parent Loop BB22_1 Depth=1
                                        # =>  This Loop Header: Depth=2
                                        #       Child Loop BB22_38 Depth 3
	cmpl	$2, -8(%rbp)
	jge	.LBB22_46
# %bb.37:                               # %for.body126
                                        #   in Loop: Header=BB22_36 Depth=2
	movl	$0, -4(%rbp)
.LBB22_38:                              # %for.cond127
                                        #   Parent Loop BB22_1 Depth=1
                                        #     Parent Loop BB22_36 Depth=2
                                        # =>    This Inner Loop Header: Depth=3
	cmpl	$6, -4(%rbp)
	jge	.LBB22_44
# %bb.39:                               # %for.body129
                                        #   in Loop: Header=BB22_38 Depth=3
	movq	img, %rax
	cmpl	$2, 24(%rax)
	jne	.LBB22_41
# %bb.40:                               # %if.then132
                                        #   in Loop: Header=BB22_38 Depth=3
	movq	-40(%rbp), %rdi
	addq	$1136, %rdi             # imm = 0x470
	movslq	-8(%rbp), %rax
	imulq	$96, %rax, %rax
	addq	%rax, %rdi
	movslq	-4(%rbp), %rax
	shlq	$4, %rax
	addq	%rax, %rdi
	movslq	-12(%rbp), %rax
	imulq	$96, %rax, %rax
	movabsq	$INIT_REF_NO_I, %rsi
	addq	%rax, %rsi
	movslq	-8(%rbp), %rax
	imulq	$48, %rax, %rax
	addq	%rax, %rsi
	movslq	-4(%rbp), %rax
	shlq	$3, %rax
	addq	%rax, %rsi
	callq	XRate
	vaddsd	-24(%rbp), %xmm0, %xmm0
	vmovsd	%xmm0, -24(%rbp)
	jmp	.LBB22_42
.LBB22_41:                              # %if.else146
                                        #   in Loop: Header=BB22_38 Depth=3
	movq	-40(%rbp), %rdi
	addq	$1136, %rdi             # imm = 0x470
	movslq	-8(%rbp), %rax
	imulq	$96, %rax, %rax
	addq	%rax, %rdi
	movslq	-4(%rbp), %rax
	shlq	$4, %rax
	addq	%rax, %rdi
	movslq	-12(%rbp), %rax
	imulq	$96, %rax, %rax
	movabsq	$INIT_REF_NO_P, %rsi
	addq	%rax, %rsi
	movslq	-8(%rbp), %rax
	imulq	$48, %rax, %rax
	addq	%rax, %rsi
	movslq	-4(%rbp), %rax
	shlq	$3, %rax
	addq	%rax, %rsi
	callq	XRate
	vaddsd	-24(%rbp), %xmm0, %xmm0
	vmovsd	%xmm0, -24(%rbp)
.LBB22_42:                              # %if.end161
                                        #   in Loop: Header=BB22_38 Depth=3
	jmp	.LBB22_43
.LBB22_43:                              # %for.inc162
                                        #   in Loop: Header=BB22_38 Depth=3
	movl	-4(%rbp), %eax
	addl	$1, %eax
	movl	%eax, -4(%rbp)
	jmp	.LBB22_38
.LBB22_44:                              # %for.end164
                                        #   in Loop: Header=BB22_36 Depth=2
	jmp	.LBB22_45
.LBB22_45:                              # %for.inc165
                                        #   in Loop: Header=BB22_36 Depth=2
	movl	-8(%rbp), %eax
	addl	$1, %eax
	movl	%eax, -8(%rbp)
	jmp	.LBB22_36
.LBB22_46:                              # %for.end167
                                        #   in Loop: Header=BB22_1 Depth=1
	movl	$0, -4(%rbp)
.LBB22_47:                              # %for.cond168
                                        #   Parent Loop BB22_1 Depth=1
                                        # =>  This Inner Loop Header: Depth=2
	cmpl	$4, -4(%rbp)
	jge	.LBB22_53
# %bb.48:                               # %for.body170
                                        #   in Loop: Header=BB22_47 Depth=2
	movq	img, %rax
	cmpl	$2, 24(%rax)
	jne	.LBB22_50
# %bb.49:                               # %if.then173
                                        #   in Loop: Header=BB22_47 Depth=2
	movq	-40(%rbp), %rdi
	addq	$1328, %rdi             # imm = 0x530
	movslq	-4(%rbp), %rax
	shlq	$4, %rax
	addq	%rax, %rdi
	movslq	-12(%rbp), %rax
	shlq	$5, %rax
	movabsq	$INIT_DELTA_QP_I, %rsi
	addq	%rax, %rsi
	movslq	-4(%rbp), %rax
	shlq	$3, %rax
	addq	%rax, %rsi
	callq	XRate
	vaddsd	-24(%rbp), %xmm0, %xmm0
	vmovsd	%xmm0, -24(%rbp)
	jmp	.LBB22_51
.LBB22_50:                              # %if.else184
                                        #   in Loop: Header=BB22_47 Depth=2
	movq	-40(%rbp), %rdi
	addq	$1328, %rdi             # imm = 0x530
	movslq	-4(%rbp), %rax
	shlq	$4, %rax
	addq	%rax, %rdi
	movslq	-12(%rbp), %rax
	shlq	$5, %rax
	movabsq	$INIT_DELTA_QP_P, %rsi
	addq	%rax, %rsi
	movslq	-4(%rbp), %rax
	shlq	$3, %rax
	addq	%rax, %rsi
	callq	XRate
	vaddsd	-24(%rbp), %xmm0, %xmm0
	vmovsd	%xmm0, -24(%rbp)
.LBB22_51:                              # %if.end196
                                        #   in Loop: Header=BB22_47 Depth=2
	jmp	.LBB22_52
.LBB22_52:                              # %for.inc197
                                        #   in Loop: Header=BB22_47 Depth=2
	movl	-4(%rbp), %eax
	addl	$1, %eax
	movl	%eax, -4(%rbp)
	jmp	.LBB22_47
.LBB22_53:                              # %for.end199
                                        #   in Loop: Header=BB22_1 Depth=1
	movl	$0, -4(%rbp)
.LBB22_54:                              # %for.cond200
                                        #   Parent Loop BB22_1 Depth=1
                                        # =>  This Inner Loop Header: Depth=2
	cmpl	$4, -4(%rbp)
	jge	.LBB22_60
# %bb.55:                               # %for.body202
                                        #   in Loop: Header=BB22_54 Depth=2
	movq	img, %rax
	cmpl	$2, 24(%rax)
	jne	.LBB22_57
# %bb.56:                               # %if.then205
                                        #   in Loop: Header=BB22_54 Depth=2
	movq	-40(%rbp), %rdi
	addq	$1392, %rdi             # imm = 0x570
	movslq	-4(%rbp), %rax
	shlq	$4, %rax
	addq	%rax, %rdi
	movslq	-12(%rbp), %rax
	shlq	$5, %rax
	movabsq	$INIT_MB_AFF_I, %rsi
	addq	%rax, %rsi
	movslq	-4(%rbp), %rax
	shlq	$3, %rax
	addq	%rax, %rsi
	callq	XRate
	vaddsd	-24(%rbp), %xmm0, %xmm0
	vmovsd	%xmm0, -24(%rbp)
	jmp	.LBB22_58
.LBB22_57:                              # %if.else216
                                        #   in Loop: Header=BB22_54 Depth=2
	movq	-40(%rbp), %rdi
	addq	$1392, %rdi             # imm = 0x570
	movslq	-4(%rbp), %rax
	shlq	$4, %rax
	addq	%rax, %rdi
	movslq	-12(%rbp), %rax
	shlq	$5, %rax
	movabsq	$INIT_MB_AFF_P, %rsi
	addq	%rax, %rsi
	movslq	-4(%rbp), %rax
	shlq	$3, %rax
	addq	%rax, %rsi
	callq	XRate
	vaddsd	-24(%rbp), %xmm0, %xmm0
	vmovsd	%xmm0, -24(%rbp)
.LBB22_58:                              # %if.end228
                                        #   in Loop: Header=BB22_54 Depth=2
	jmp	.LBB22_59
.LBB22_59:                              # %for.inc229
                                        #   in Loop: Header=BB22_54 Depth=2
	movl	-4(%rbp), %eax
	addl	$1, %eax
	movl	%eax, -4(%rbp)
	jmp	.LBB22_54
.LBB22_60:                              # %for.end231
                                        #   in Loop: Header=BB22_1 Depth=1
	movl	$0, -4(%rbp)
.LBB22_61:                              # %for.cond232
                                        #   Parent Loop BB22_1 Depth=1
                                        # =>  This Inner Loop Header: Depth=2
	cmpl	$3, -4(%rbp)
	jge	.LBB22_67
# %bb.62:                               # %for.body234
                                        #   in Loop: Header=BB22_61 Depth=2
	movq	img, %rax
	cmpl	$2, 24(%rax)
	jne	.LBB22_64
# %bb.63:                               # %if.then237
                                        #   in Loop: Header=BB22_61 Depth=2
	movq	-40(%rbp), %rdi
	addq	$1456, %rdi             # imm = 0x5B0
	movslq	-4(%rbp), %rax
	shlq	$4, %rax
	addq	%rax, %rdi
	movslq	-12(%rbp), %rax
	imulq	$24, %rax, %rax
	movabsq	$INIT_TRANSFORM_SIZE_I, %rsi
	addq	%rax, %rsi
	movslq	-4(%rbp), %rax
	shlq	$3, %rax
	addq	%rax, %rsi
	callq	XRate
	vaddsd	-24(%rbp), %xmm0, %xmm0
	vmovsd	%xmm0, -24(%rbp)
	jmp	.LBB22_65
.LBB22_64:                              # %if.else248
                                        #   in Loop: Header=BB22_61 Depth=2
	movq	-40(%rbp), %rdi
	addq	$1456, %rdi             # imm = 0x5B0
	movslq	-4(%rbp), %rax
	shlq	$4, %rax
	addq	%rax, %rdi
	movslq	-12(%rbp), %rax
	imulq	$24, %rax, %rax
	movabsq	$INIT_TRANSFORM_SIZE_P, %rsi
	addq	%rax, %rsi
	movslq	-4(%rbp), %rax
	shlq	$3, %rax
	addq	%rax, %rsi
	callq	XRate
	vaddsd	-24(%rbp), %xmm0, %xmm0
	vmovsd	%xmm0, -24(%rbp)
.LBB22_65:                              # %if.end260
                                        #   in Loop: Header=BB22_61 Depth=2
	jmp	.LBB22_66
.LBB22_66:                              # %for.inc261
                                        #   in Loop: Header=BB22_61 Depth=2
	movl	-4(%rbp), %eax
	addl	$1, %eax
	movl	%eax, -4(%rbp)
	jmp	.LBB22_61
.LBB22_67:                              # %for.end263
                                        #   in Loop: Header=BB22_1 Depth=1
	movl	$0, -4(%rbp)
.LBB22_68:                              # %for.cond264
                                        #   Parent Loop BB22_1 Depth=1
                                        # =>  This Inner Loop Header: Depth=2
	cmpl	$2, -4(%rbp)
	jge	.LBB22_74
# %bb.69:                               # %for.body266
                                        #   in Loop: Header=BB22_68 Depth=2
	movq	img, %rax
	cmpl	$2, 24(%rax)
	jne	.LBB22_71
# %bb.70:                               # %if.then269
                                        #   in Loop: Header=BB22_68 Depth=2
	movq	-32(%rbp), %rdi
	movslq	-4(%rbp), %rax
	shlq	$4, %rax
	addq	%rax, %rdi
	movslq	-12(%rbp), %rax
	shlq	$4, %rax
	movabsq	$INIT_IPR_I, %rsi
	addq	%rax, %rsi
	movslq	-4(%rbp), %rax
	shlq	$3, %rax
	addq	%rax, %rsi
	callq	XRate
	vaddsd	-24(%rbp), %xmm0, %xmm0
	vmovsd	%xmm0, -24(%rbp)
	jmp	.LBB22_72
.LBB22_71:                              # %if.else280
                                        #   in Loop: Header=BB22_68 Depth=2
	movq	-32(%rbp), %rdi
	movslq	-4(%rbp), %rax
	shlq	$4, %rax
	addq	%rax, %rdi
	movslq	-12(%rbp), %rax
	shlq	$4, %rax
	movabsq	$INIT_IPR_P, %rsi
	addq	%rax, %rsi
	movslq	-4(%rbp), %rax
	shlq	$3, %rax
	addq	%rax, %rsi
	callq	XRate
	vaddsd	-24(%rbp), %xmm0, %xmm0
	vmovsd	%xmm0, -24(%rbp)
.LBB22_72:                              # %if.end292
                                        #   in Loop: Header=BB22_68 Depth=2
	jmp	.LBB22_73
.LBB22_73:                              # %for.inc293
                                        #   in Loop: Header=BB22_68 Depth=2
	movl	-4(%rbp), %eax
	addl	$1, %eax
	movl	%eax, -4(%rbp)
	jmp	.LBB22_68
.LBB22_74:                              # %for.end295
                                        #   in Loop: Header=BB22_1 Depth=1
	movl	$0, -4(%rbp)
.LBB22_75:                              # %for.cond296
                                        #   Parent Loop BB22_1 Depth=1
                                        # =>  This Inner Loop Header: Depth=2
	cmpl	$4, -4(%rbp)
	jge	.LBB22_81
# %bb.76:                               # %for.body298
                                        #   in Loop: Header=BB22_75 Depth=2
	movq	img, %rax
	cmpl	$2, 24(%rax)
	jne	.LBB22_78
# %bb.77:                               # %if.then301
                                        #   in Loop: Header=BB22_75 Depth=2
	movq	-32(%rbp), %rdi
	addq	$32, %rdi
	movslq	-4(%rbp), %rax
	shlq	$4, %rax
	addq	%rax, %rdi
	movslq	-12(%rbp), %rax
	shlq	$5, %rax
	movabsq	$INIT_CIPR_I, %rsi
	addq	%rax, %rsi
	movslq	-4(%rbp), %rax
	shlq	$3, %rax
	addq	%rax, %rsi
	callq	XRate
	vaddsd	-24(%rbp), %xmm0, %xmm0
	vmovsd	%xmm0, -24(%rbp)
	jmp	.LBB22_79
.LBB22_78:                              # %if.else312
                                        #   in Loop: Header=BB22_75 Depth=2
	movq	-32(%rbp), %rdi
	addq	$32, %rdi
	movslq	-4(%rbp), %rax
	shlq	$4, %rax
	addq	%rax, %rdi
	movslq	-12(%rbp), %rax
	shlq	$5, %rax
	movabsq	$INIT_CIPR_P, %rsi
	addq	%rax, %rsi
	movslq	-4(%rbp), %rax
	shlq	$3, %rax
	addq	%rax, %rsi
	callq	XRate
	vaddsd	-24(%rbp), %xmm0, %xmm0
	vmovsd	%xmm0, -24(%rbp)
.LBB22_79:                              # %if.end324
                                        #   in Loop: Header=BB22_75 Depth=2
	jmp	.LBB22_80
.LBB22_80:                              # %for.inc325
                                        #   in Loop: Header=BB22_75 Depth=2
	movl	-4(%rbp), %eax
	addl	$1, %eax
	movl	%eax, -4(%rbp)
	jmp	.LBB22_75
.LBB22_81:                              # %for.end327
                                        #   in Loop: Header=BB22_1 Depth=1
	movl	$0, -8(%rbp)
.LBB22_82:                              # %for.cond328
                                        #   Parent Loop BB22_1 Depth=1
                                        # =>  This Loop Header: Depth=2
                                        #       Child Loop BB22_84 Depth 3
	cmpl	$3, -8(%rbp)
	jge	.LBB22_92
# %bb.83:                               # %for.body330
                                        #   in Loop: Header=BB22_82 Depth=2
	movl	$0, -4(%rbp)
.LBB22_84:                              # %for.cond331
                                        #   Parent Loop BB22_1 Depth=1
                                        #     Parent Loop BB22_82 Depth=2
                                        # =>    This Inner Loop Header: Depth=3
	cmpl	$4, -4(%rbp)
	jge	.LBB22_90
# %bb.85:                               # %for.body333
                                        #   in Loop: Header=BB22_84 Depth=3
	movq	img, %rax
	cmpl	$2, 24(%rax)
	jne	.LBB22_87
# %bb.86:                               # %if.then336
                                        #   in Loop: Header=BB22_84 Depth=3
	movq	-32(%rbp), %rdi
	addq	$96, %rdi
	movslq	-8(%rbp), %rax
	shlq	$6, %rax
	addq	%rax, %rdi
	movslq	-4(%rbp), %rax
	shlq	$4, %rax
	addq	%rax, %rdi
	movslq	-12(%rbp), %rax
	imulq	$96, %rax, %rax
	movabsq	$INIT_CBP_I, %rsi
	addq	%rax, %rsi
	movslq	-8(%rbp), %rax
	shlq	$5, %rax
	addq	%rax, %rsi
	movslq	-4(%rbp), %rax
	shlq	$3, %rax
	addq	%rax, %rsi
	callq	XRate
	vaddsd	-24(%rbp), %xmm0, %xmm0
	vmovsd	%xmm0, -24(%rbp)
	jmp	.LBB22_88
.LBB22_87:                              # %if.else350
                                        #   in Loop: Header=BB22_84 Depth=3
	movq	-32(%rbp), %rdi
	addq	$96, %rdi
	movslq	-8(%rbp), %rax
	shlq	$6, %rax
	addq	%rax, %rdi
	movslq	-4(%rbp), %rax
	shlq	$4, %rax
	addq	%rax, %rdi
	movslq	-12(%rbp), %rax
	imulq	$96, %rax, %rax
	movabsq	$INIT_CBP_P, %rsi
	addq	%rax, %rsi
	movslq	-8(%rbp), %rax
	shlq	$5, %rax
	addq	%rax, %rsi
	movslq	-4(%rbp), %rax
	shlq	$3, %rax
	addq	%rax, %rsi
	callq	XRate
	vaddsd	-24(%rbp), %xmm0, %xmm0
	vmovsd	%xmm0, -24(%rbp)
.LBB22_88:                              # %if.end365
                                        #   in Loop: Header=BB22_84 Depth=3
	jmp	.LBB22_89
.LBB22_89:                              # %for.inc366
                                        #   in Loop: Header=BB22_84 Depth=3
	movl	-4(%rbp), %eax
	addl	$1, %eax
	movl	%eax, -4(%rbp)
	jmp	.LBB22_84
.LBB22_90:                              # %for.end368
                                        #   in Loop: Header=BB22_82 Depth=2
	jmp	.LBB22_91
.LBB22_91:                              # %for.inc369
                                        #   in Loop: Header=BB22_82 Depth=2
	movl	-8(%rbp), %eax
	addl	$1, %eax
	movl	%eax, -8(%rbp)
	jmp	.LBB22_82
.LBB22_92:                              # %for.end371
                                        #   in Loop: Header=BB22_1 Depth=1
	movl	$0, -8(%rbp)
.LBB22_93:                              # %for.cond372
                                        #   Parent Loop BB22_1 Depth=1
                                        # =>  This Loop Header: Depth=2
                                        #       Child Loop BB22_95 Depth 3
	cmpl	$10, -8(%rbp)
	jge	.LBB22_103
# %bb.94:                               # %for.body374
                                        #   in Loop: Header=BB22_93 Depth=2
	movl	$0, -4(%rbp)
.LBB22_95:                              # %for.cond375
                                        #   Parent Loop BB22_1 Depth=1
                                        #     Parent Loop BB22_93 Depth=2
                                        # =>    This Inner Loop Header: Depth=3
	cmpl	$4, -4(%rbp)
	jge	.LBB22_101
# %bb.96:                               # %for.body377
                                        #   in Loop: Header=BB22_95 Depth=3
	movq	img, %rax
	cmpl	$2, 24(%rax)
	jne	.LBB22_98
# %bb.97:                               # %if.then380
                                        #   in Loop: Header=BB22_95 Depth=3
	movq	-32(%rbp), %rdi
	addq	$288, %rdi              # imm = 0x120
	movslq	-8(%rbp), %rax
	shlq	$6, %rax
	addq	%rax, %rdi
	movslq	-4(%rbp), %rax
	shlq	$4, %rax
	addq	%rax, %rdi
	movslq	-12(%rbp), %rax
	shlq	$8, %rax
	movabsq	$INIT_BCBP_I, %rsi
	addq	%rax, %rsi
	movslq	-8(%rbp), %rax
	shlq	$5, %rax
	addq	%rax, %rsi
	movslq	-4(%rbp), %rax
	shlq	$3, %rax
	addq	%rax, %rsi
	callq	XRate
	vaddsd	-24(%rbp), %xmm0, %xmm0
	vmovsd	%xmm0, -24(%rbp)
	jmp	.LBB22_99
.LBB22_98:                              # %if.else394
                                        #   in Loop: Header=BB22_95 Depth=3
	movq	-32(%rbp), %rdi
	addq	$288, %rdi              # imm = 0x120
	movslq	-8(%rbp), %rax
	shlq	$6, %rax
	addq	%rax, %rdi
	movslq	-4(%rbp), %rax
	shlq	$4, %rax
	addq	%rax, %rdi
	movslq	-12(%rbp), %rax
	shlq	$8, %rax
	movabsq	$INIT_BCBP_P, %rsi
	addq	%rax, %rsi
	movslq	-8(%rbp), %rax
	shlq	$5, %rax
	addq	%rax, %rsi
	movslq	-4(%rbp), %rax
	shlq	$3, %rax
	addq	%rax, %rsi
	callq	XRate
	vaddsd	-24(%rbp), %xmm0, %xmm0
	vmovsd	%xmm0, -24(%rbp)
.LBB22_99:                              # %if.end409
                                        #   in Loop: Header=BB22_95 Depth=3
	jmp	.LBB22_100
.LBB22_100:                             # %for.inc410
                                        #   in Loop: Header=BB22_95 Depth=3
	movl	-4(%rbp), %eax
	addl	$1, %eax
	movl	%eax, -4(%rbp)
	jmp	.LBB22_95
.LBB22_101:                             # %for.end412
                                        #   in Loop: Header=BB22_93 Depth=2
	jmp	.LBB22_102
.LBB22_102:                             # %for.inc413
                                        #   in Loop: Header=BB22_93 Depth=2
	movl	-8(%rbp), %eax
	addl	$1, %eax
	movl	%eax, -8(%rbp)
	jmp	.LBB22_93
.LBB22_103:                             # %for.end415
                                        #   in Loop: Header=BB22_1 Depth=1
	movl	$0, -8(%rbp)
.LBB22_104:                             # %for.cond416
                                        #   Parent Loop BB22_1 Depth=1
                                        # =>  This Loop Header: Depth=2
                                        #       Child Loop BB22_106 Depth 3
	cmpl	$10, -8(%rbp)
	jge	.LBB22_114
# %bb.105:                              # %for.body418
                                        #   in Loop: Header=BB22_104 Depth=2
	movl	$0, -4(%rbp)
.LBB22_106:                             # %for.cond419
                                        #   Parent Loop BB22_1 Depth=1
                                        #     Parent Loop BB22_104 Depth=2
                                        # =>    This Inner Loop Header: Depth=3
	cmpl	$15, -4(%rbp)
	jge	.LBB22_112
# %bb.107:                              # %for.body421
                                        #   in Loop: Header=BB22_106 Depth=3
	movq	img, %rax
	cmpl	$2, 24(%rax)
	jne	.LBB22_109
# %bb.108:                              # %if.then424
                                        #   in Loop: Header=BB22_106 Depth=3
	movq	-32(%rbp), %rdi
	addq	$928, %rdi              # imm = 0x3A0
	movslq	-8(%rbp), %rax
	imulq	$240, %rax, %rax
	addq	%rax, %rdi
	movslq	-4(%rbp), %rax
	shlq	$4, %rax
	addq	%rax, %rdi
	movslq	-12(%rbp), %rax
	imulq	$960, %rax, %rax        # imm = 0x3C0
	movabsq	$INIT_MAP_I, %rsi
	addq	%rax, %rsi
	movslq	-8(%rbp), %rax
	imulq	$120, %rax, %rax
	addq	%rax, %rsi
	movslq	-4(%rbp), %rax
	shlq	$3, %rax
	addq	%rax, %rsi
	callq	XRate
	vaddsd	-24(%rbp), %xmm0, %xmm0
	vmovsd	%xmm0, -24(%rbp)
	jmp	.LBB22_110
.LBB22_109:                             # %if.else438
                                        #   in Loop: Header=BB22_106 Depth=3
	movq	-32(%rbp), %rdi
	addq	$928, %rdi              # imm = 0x3A0
	movslq	-8(%rbp), %rax
	imulq	$240, %rax, %rax
	addq	%rax, %rdi
	movslq	-4(%rbp), %rax
	shlq	$4, %rax
	addq	%rax, %rdi
	movslq	-12(%rbp), %rax
	imulq	$960, %rax, %rax        # imm = 0x3C0
	movabsq	$INIT_MAP_P, %rsi
	addq	%rax, %rsi
	movslq	-8(%rbp), %rax
	imulq	$120, %rax, %rax
	addq	%rax, %rsi
	movslq	-4(%rbp), %rax
	shlq	$3, %rax
	addq	%rax, %rsi
	callq	XRate
	vaddsd	-24(%rbp), %xmm0, %xmm0
	vmovsd	%xmm0, -24(%rbp)
.LBB22_110:                             # %if.end453
                                        #   in Loop: Header=BB22_106 Depth=3
	jmp	.LBB22_111
.LBB22_111:                             # %for.inc454
                                        #   in Loop: Header=BB22_106 Depth=3
	movl	-4(%rbp), %eax
	addl	$1, %eax
	movl	%eax, -4(%rbp)
	jmp	.LBB22_106
.LBB22_112:                             # %for.end456
                                        #   in Loop: Header=BB22_104 Depth=2
	jmp	.LBB22_113
.LBB22_113:                             # %for.inc457
                                        #   in Loop: Header=BB22_104 Depth=2
	movl	-8(%rbp), %eax
	addl	$1, %eax
	movl	%eax, -8(%rbp)
	jmp	.LBB22_104
.LBB22_114:                             # %for.end459
                                        #   in Loop: Header=BB22_1 Depth=1
	movl	$0, -8(%rbp)
.LBB22_115:                             # %for.cond460
                                        #   Parent Loop BB22_1 Depth=1
                                        # =>  This Loop Header: Depth=2
                                        #       Child Loop BB22_117 Depth 3
	cmpl	$10, -8(%rbp)
	jge	.LBB22_125
# %bb.116:                              # %for.body462
                                        #   in Loop: Header=BB22_115 Depth=2
	movl	$0, -4(%rbp)
.LBB22_117:                             # %for.cond463
                                        #   Parent Loop BB22_1 Depth=1
                                        #     Parent Loop BB22_115 Depth=2
                                        # =>    This Inner Loop Header: Depth=3
	cmpl	$15, -4(%rbp)
	jge	.LBB22_123
# %bb.118:                              # %for.body465
                                        #   in Loop: Header=BB22_117 Depth=3
	movq	img, %rax
	cmpl	$2, 24(%rax)
	jne	.LBB22_120
# %bb.119:                              # %if.then468
                                        #   in Loop: Header=BB22_117 Depth=3
	movq	-32(%rbp), %rdi
	addq	$3328, %rdi             # imm = 0xD00
	movslq	-8(%rbp), %rax
	imulq	$240, %rax, %rax
	addq	%rax, %rdi
	movslq	-4(%rbp), %rax
	shlq	$4, %rax
	addq	%rax, %rdi
	movslq	-12(%rbp), %rax
	imulq	$960, %rax, %rax        # imm = 0x3C0
	movabsq	$INIT_LAST_I, %rsi
	addq	%rax, %rsi
	movslq	-8(%rbp), %rax
	imulq	$120, %rax, %rax
	addq	%rax, %rsi
	movslq	-4(%rbp), %rax
	shlq	$3, %rax
	addq	%rax, %rsi
	callq	XRate
	vaddsd	-24(%rbp), %xmm0, %xmm0
	vmovsd	%xmm0, -24(%rbp)
	jmp	.LBB22_121
.LBB22_120:                             # %if.else482
                                        #   in Loop: Header=BB22_117 Depth=3
	movq	-32(%rbp), %rdi
	addq	$3328, %rdi             # imm = 0xD00
	movslq	-8(%rbp), %rax
	imulq	$240, %rax, %rax
	addq	%rax, %rdi
	movslq	-4(%rbp), %rax
	shlq	$4, %rax
	addq	%rax, %rdi
	movslq	-12(%rbp), %rax
	imulq	$960, %rax, %rax        # imm = 0x3C0
	movabsq	$INIT_LAST_P, %rsi
	addq	%rax, %rsi
	movslq	-8(%rbp), %rax
	imulq	$120, %rax, %rax
	addq	%rax, %rsi
	movslq	-4(%rbp), %rax
	shlq	$3, %rax
	addq	%rax, %rsi
	callq	XRate
	vaddsd	-24(%rbp), %xmm0, %xmm0
	vmovsd	%xmm0, -24(%rbp)
.LBB22_121:                             # %if.end497
                                        #   in Loop: Header=BB22_117 Depth=3
	jmp	.LBB22_122
.LBB22_122:                             # %for.inc498
                                        #   in Loop: Header=BB22_117 Depth=3
	movl	-4(%rbp), %eax
	addl	$1, %eax
	movl	%eax, -4(%rbp)
	jmp	.LBB22_117
.LBB22_123:                             # %for.end500
                                        #   in Loop: Header=BB22_115 Depth=2
	jmp	.LBB22_124
.LBB22_124:                             # %for.inc501
                                        #   in Loop: Header=BB22_115 Depth=2
	movl	-8(%rbp), %eax
	addl	$1, %eax
	movl	%eax, -8(%rbp)
	jmp	.LBB22_115
.LBB22_125:                             # %for.end503
                                        #   in Loop: Header=BB22_1 Depth=1
	movl	$0, -8(%rbp)
.LBB22_126:                             # %for.cond504
                                        #   Parent Loop BB22_1 Depth=1
                                        # =>  This Loop Header: Depth=2
                                        #       Child Loop BB22_128 Depth 3
	cmpl	$10, -8(%rbp)
	jge	.LBB22_136
# %bb.127:                              # %for.body506
                                        #   in Loop: Header=BB22_126 Depth=2
	movl	$0, -4(%rbp)
.LBB22_128:                             # %for.cond507
                                        #   Parent Loop BB22_1 Depth=1
                                        #     Parent Loop BB22_126 Depth=2
                                        # =>    This Inner Loop Header: Depth=3
	cmpl	$5, -4(%rbp)
	jge	.LBB22_134
# %bb.129:                              # %for.body509
                                        #   in Loop: Header=BB22_128 Depth=3
	movq	img, %rax
	cmpl	$2, 24(%rax)
	jne	.LBB22_131
# %bb.130:                              # %if.then512
                                        #   in Loop: Header=BB22_128 Depth=3
	movq	-32(%rbp), %rdi
	addq	$5728, %rdi             # imm = 0x1660
	movslq	-8(%rbp), %rax
	imulq	$80, %rax, %rax
	addq	%rax, %rdi
	movslq	-4(%rbp), %rax
	shlq	$4, %rax
	addq	%rax, %rdi
	movslq	-12(%rbp), %rax
	imulq	$320, %rax, %rax        # imm = 0x140
	movabsq	$INIT_ONE_I, %rsi
	addq	%rax, %rsi
	movslq	-8(%rbp), %rax
	imulq	$40, %rax, %rax
	addq	%rax, %rsi
	movslq	-4(%rbp), %rax
	shlq	$3, %rax
	addq	%rax, %rsi
	callq	XRate
	vaddsd	-24(%rbp), %xmm0, %xmm0
	vmovsd	%xmm0, -24(%rbp)
	jmp	.LBB22_132
.LBB22_131:                             # %if.else526
                                        #   in Loop: Header=BB22_128 Depth=3
	movq	-32(%rbp), %rdi
	addq	$5728, %rdi             # imm = 0x1660
	movslq	-8(%rbp), %rax
	imulq	$80, %rax, %rax
	addq	%rax, %rdi
	movslq	-4(%rbp), %rax
	shlq	$4, %rax
	addq	%rax, %rdi
	movslq	-12(%rbp), %rax
	imulq	$320, %rax, %rax        # imm = 0x140
	movabsq	$INIT_ONE_P, %rsi
	addq	%rax, %rsi
	movslq	-8(%rbp), %rax
	imulq	$40, %rax, %rax
	addq	%rax, %rsi
	movslq	-4(%rbp), %rax
	shlq	$3, %rax
	addq	%rax, %rsi
	callq	XRate
	vaddsd	-24(%rbp), %xmm0, %xmm0
	vmovsd	%xmm0, -24(%rbp)
.LBB22_132:                             # %if.end541
                                        #   in Loop: Header=BB22_128 Depth=3
	jmp	.LBB22_133
.LBB22_133:                             # %for.inc542
                                        #   in Loop: Header=BB22_128 Depth=3
	movl	-4(%rbp), %eax
	addl	$1, %eax
	movl	%eax, -4(%rbp)
	jmp	.LBB22_128
.LBB22_134:                             # %for.end544
                                        #   in Loop: Header=BB22_126 Depth=2
	jmp	.LBB22_135
.LBB22_135:                             # %for.inc545
                                        #   in Loop: Header=BB22_126 Depth=2
	movl	-8(%rbp), %eax
	addl	$1, %eax
	movl	%eax, -8(%rbp)
	jmp	.LBB22_126
.LBB22_136:                             # %for.end547
                                        #   in Loop: Header=BB22_1 Depth=1
	movl	$0, -8(%rbp)
.LBB22_137:                             # %for.cond548
                                        #   Parent Loop BB22_1 Depth=1
                                        # =>  This Loop Header: Depth=2
                                        #       Child Loop BB22_139 Depth 3
	cmpl	$10, -8(%rbp)
	jge	.LBB22_147
# %bb.138:                              # %for.body550
                                        #   in Loop: Header=BB22_137 Depth=2
	movl	$0, -4(%rbp)
.LBB22_139:                             # %for.cond551
                                        #   Parent Loop BB22_1 Depth=1
                                        #     Parent Loop BB22_137 Depth=2
                                        # =>    This Inner Loop Header: Depth=3
	cmpl	$5, -4(%rbp)
	jge	.LBB22_145
# %bb.140:                              # %for.body553
                                        #   in Loop: Header=BB22_139 Depth=3
	movq	img, %rax
	cmpl	$2, 24(%rax)
	jne	.LBB22_142
# %bb.141:                              # %if.then556
                                        #   in Loop: Header=BB22_139 Depth=3
	movq	-32(%rbp), %rdi
	addq	$6528, %rdi             # imm = 0x1980
	movslq	-8(%rbp), %rax
	imulq	$80, %rax, %rax
	addq	%rax, %rdi
	movslq	-4(%rbp), %rax
	shlq	$4, %rax
	addq	%rax, %rdi
	movslq	-12(%rbp), %rax
	imulq	$320, %rax, %rax        # imm = 0x140
	movabsq	$INIT_ABS_I, %rsi
	addq	%rax, %rsi
	movslq	-8(%rbp), %rax
	imulq	$40, %rax, %rax
	addq	%rax, %rsi
	movslq	-4(%rbp), %rax
	shlq	$3, %rax
	addq	%rax, %rsi
	callq	XRate
	vaddsd	-24(%rbp), %xmm0, %xmm0
	vmovsd	%xmm0, -24(%rbp)
	jmp	.LBB22_143
.LBB22_142:                             # %if.else570
                                        #   in Loop: Header=BB22_139 Depth=3
	movq	-32(%rbp), %rdi
	addq	$6528, %rdi             # imm = 0x1980
	movslq	-8(%rbp), %rax
	imulq	$80, %rax, %rax
	addq	%rax, %rdi
	movslq	-4(%rbp), %rax
	shlq	$4, %rax
	addq	%rax, %rdi
	movslq	-12(%rbp), %rax
	imulq	$320, %rax, %rax        # imm = 0x140
	movabsq	$INIT_ABS_P, %rsi
	addq	%rax, %rsi
	movslq	-8(%rbp), %rax
	imulq	$40, %rax, %rax
	addq	%rax, %rsi
	movslq	-4(%rbp), %rax
	shlq	$3, %rax
	addq	%rax, %rsi
	callq	XRate
	vaddsd	-24(%rbp), %xmm0, %xmm0
	vmovsd	%xmm0, -24(%rbp)
.LBB22_143:                             # %if.end585
                                        #   in Loop: Header=BB22_139 Depth=3
	jmp	.LBB22_144
.LBB22_144:                             # %for.inc586
                                        #   in Loop: Header=BB22_139 Depth=3
	movl	-4(%rbp), %eax
	addl	$1, %eax
	movl	%eax, -4(%rbp)
	jmp	.LBB22_139
.LBB22_145:                             # %for.end588
                                        #   in Loop: Header=BB22_137 Depth=2
	jmp	.LBB22_146
.LBB22_146:                             # %for.inc589
                                        #   in Loop: Header=BB22_137 Depth=2
	movl	-8(%rbp), %eax
	addl	$1, %eax
	movl	%eax, -8(%rbp)
	jmp	.LBB22_137
.LBB22_147:                             # %for.end591
                                        #   in Loop: Header=BB22_1 Depth=1
	movl	$0, -8(%rbp)
.LBB22_148:                             # %for.cond592
                                        #   Parent Loop BB22_1 Depth=1
                                        # =>  This Loop Header: Depth=2
                                        #       Child Loop BB22_150 Depth 3
	cmpl	$10, -8(%rbp)
	jge	.LBB22_158
# %bb.149:                              # %for.body594
                                        #   in Loop: Header=BB22_148 Depth=2
	movl	$0, -4(%rbp)
.LBB22_150:                             # %for.cond595
                                        #   Parent Loop BB22_1 Depth=1
                                        #     Parent Loop BB22_148 Depth=2
                                        # =>    This Inner Loop Header: Depth=3
	cmpl	$15, -4(%rbp)
	jge	.LBB22_156
# %bb.151:                              # %for.body597
                                        #   in Loop: Header=BB22_150 Depth=3
	movq	img, %rax
	cmpl	$2, 24(%rax)
	jne	.LBB22_153
# %bb.152:                              # %if.then600
                                        #   in Loop: Header=BB22_150 Depth=3
	movq	-32(%rbp), %rdi
	addq	$7328, %rdi             # imm = 0x1CA0
	movslq	-8(%rbp), %rax
	imulq	$240, %rax, %rax
	addq	%rax, %rdi
	movslq	-4(%rbp), %rax
	shlq	$4, %rax
	addq	%rax, %rdi
	movslq	-12(%rbp), %rax
	imulq	$960, %rax, %rax        # imm = 0x3C0
	movabsq	$INIT_FLD_MAP_I, %rsi
	addq	%rax, %rsi
	movslq	-8(%rbp), %rax
	imulq	$120, %rax, %rax
	addq	%rax, %rsi
	movslq	-4(%rbp), %rax
	shlq	$3, %rax
	addq	%rax, %rsi
	callq	XRate
	vaddsd	-24(%rbp), %xmm0, %xmm0
	vmovsd	%xmm0, -24(%rbp)
	jmp	.LBB22_154
.LBB22_153:                             # %if.else614
                                        #   in Loop: Header=BB22_150 Depth=3
	movq	-32(%rbp), %rdi
	addq	$7328, %rdi             # imm = 0x1CA0
	movslq	-8(%rbp), %rax
	imulq	$240, %rax, %rax
	addq	%rax, %rdi
	movslq	-4(%rbp), %rax
	shlq	$4, %rax
	addq	%rax, %rdi
	movslq	-12(%rbp), %rax
	imulq	$960, %rax, %rax        # imm = 0x3C0
	movabsq	$INIT_FLD_MAP_P, %rsi
	addq	%rax, %rsi
	movslq	-8(%rbp), %rax
	imulq	$120, %rax, %rax
	addq	%rax, %rsi
	movslq	-4(%rbp), %rax
	shlq	$3, %rax
	addq	%rax, %rsi
	callq	XRate
	vaddsd	-24(%rbp), %xmm0, %xmm0
	vmovsd	%xmm0, -24(%rbp)
.LBB22_154:                             # %if.end629
                                        #   in Loop: Header=BB22_150 Depth=3
	jmp	.LBB22_155
.LBB22_155:                             # %for.inc630
                                        #   in Loop: Header=BB22_150 Depth=3
	movl	-4(%rbp), %eax
	addl	$1, %eax
	movl	%eax, -4(%rbp)
	jmp	.LBB22_150
.LBB22_156:                             # %for.end632
                                        #   in Loop: Header=BB22_148 Depth=2
	jmp	.LBB22_157
.LBB22_157:                             # %for.inc633
                                        #   in Loop: Header=BB22_148 Depth=2
	movl	-8(%rbp), %eax
	addl	$1, %eax
	movl	%eax, -8(%rbp)
	jmp	.LBB22_148
.LBB22_158:                             # %for.end635
                                        #   in Loop: Header=BB22_1 Depth=1
	movl	$0, -8(%rbp)
.LBB22_159:                             # %for.cond636
                                        #   Parent Loop BB22_1 Depth=1
                                        # =>  This Loop Header: Depth=2
                                        #       Child Loop BB22_161 Depth 3
	cmpl	$10, -8(%rbp)
	jge	.LBB22_169
# %bb.160:                              # %for.body638
                                        #   in Loop: Header=BB22_159 Depth=2
	movl	$0, -4(%rbp)
.LBB22_161:                             # %for.cond639
                                        #   Parent Loop BB22_1 Depth=1
                                        #     Parent Loop BB22_159 Depth=2
                                        # =>    This Inner Loop Header: Depth=3
	cmpl	$15, -4(%rbp)
	jge	.LBB22_167
# %bb.162:                              # %for.body641
                                        #   in Loop: Header=BB22_161 Depth=3
	movq	img, %rax
	cmpl	$2, 24(%rax)
	jne	.LBB22_164
# %bb.163:                              # %if.then644
                                        #   in Loop: Header=BB22_161 Depth=3
	movq	-32(%rbp), %rdi
	addq	$9728, %rdi             # imm = 0x2600
	movslq	-8(%rbp), %rax
	imulq	$240, %rax, %rax
	addq	%rax, %rdi
	movslq	-4(%rbp), %rax
	shlq	$4, %rax
	addq	%rax, %rdi
	movslq	-12(%rbp), %rax
	imulq	$960, %rax, %rax        # imm = 0x3C0
	movabsq	$INIT_FLD_LAST_I, %rsi
	addq	%rax, %rsi
	movslq	-8(%rbp), %rax
	imulq	$120, %rax, %rax
	addq	%rax, %rsi
	movslq	-4(%rbp), %rax
	shlq	$3, %rax
	addq	%rax, %rsi
	callq	XRate
	vaddsd	-24(%rbp), %xmm0, %xmm0
	vmovsd	%xmm0, -24(%rbp)
	jmp	.LBB22_165
.LBB22_164:                             # %if.else658
                                        #   in Loop: Header=BB22_161 Depth=3
	movq	-32(%rbp), %rdi
	addq	$9728, %rdi             # imm = 0x2600
	movslq	-8(%rbp), %rax
	imulq	$240, %rax, %rax
	addq	%rax, %rdi
	movslq	-4(%rbp), %rax
	shlq	$4, %rax
	addq	%rax, %rdi
	movslq	-12(%rbp), %rax
	imulq	$960, %rax, %rax        # imm = 0x3C0
	movabsq	$INIT_FLD_LAST_P, %rsi
	addq	%rax, %rsi
	movslq	-8(%rbp), %rax
	imulq	$120, %rax, %rax
	addq	%rax, %rsi
	movslq	-4(%rbp), %rax
	shlq	$3, %rax
	addq	%rax, %rsi
	callq	XRate
	vaddsd	-24(%rbp), %xmm0, %xmm0
	vmovsd	%xmm0, -24(%rbp)
.LBB22_165:                             # %if.end673
                                        #   in Loop: Header=BB22_161 Depth=3
	jmp	.LBB22_166
.LBB22_166:                             # %for.inc674
                                        #   in Loop: Header=BB22_161 Depth=3
	movl	-4(%rbp), %eax
	addl	$1, %eax
	movl	%eax, -4(%rbp)
	jmp	.LBB22_161
.LBB22_167:                             # %for.end676
                                        #   in Loop: Header=BB22_159 Depth=2
	jmp	.LBB22_168
.LBB22_168:                             # %for.inc677
                                        #   in Loop: Header=BB22_159 Depth=2
	movl	-8(%rbp), %eax
	addl	$1, %eax
	movl	%eax, -8(%rbp)
	jmp	.LBB22_159
.LBB22_169:                             # %for.end679
                                        #   in Loop: Header=BB22_1 Depth=1
	vmovsd	-24(%rbp), %xmm0        # xmm0 = mem[0],zero
	vmovsd	-56(%rbp), %xmm1        # xmm1 = mem[0],zero
	vucomisd	%xmm0, %xmm1
	jbe	.LBB22_171
# %bb.170:                              # %if.then681
                                        #   in Loop: Header=BB22_1 Depth=1
	vmovsd	-24(%rbp), %xmm0        # xmm0 = mem[0],zero
	vmovsd	%xmm0, -56(%rbp)
	movl	-12(%rbp), %eax
	movq	-64(%rbp), %rcx
	movl	%eax, (%rcx)
.LBB22_171:                             # %if.end682
                                        #   in Loop: Header=BB22_1 Depth=1
	jmp	.LBB22_172
.LBB22_172:                             # %for.inc683
                                        #   in Loop: Header=BB22_1 Depth=1
	movl	-12(%rbp), %eax
	addl	$1, %eax
	movl	%eax, -12(%rbp)
	jmp	.LBB22_1
.LBB22_173:                             # %for.end685
	cmpl	$1051508216, -48(%rbp)  # imm = 0x3EACBDF8
	jne	.LBB22_175
.LBB22_174:
	addq	$64, %rsp
	popq	%rbp
	.cfi_def_cfa %rsp, 8
	retq
.LBB22_175:                             # %func_exit
	.cfi_def_cfa %rbp, 16
	callq	detect_breach
	jmp	.LBB22_174
.Lfunc_end22:
	.size	GetCtxModelNumber.15, .Lfunc_end22-GetCtxModelNumber.15
	.cfi_endproc
                                        # -- End function
	.globl	init_contexts.16        # -- Begin function init_contexts.16
	.p2align	4, 0x90
	.type	init_contexts.16,@function
init_contexts.16:                       # @init_contexts.16
	.cfi_startproc
# %bb.0:                                # %entry
	pushq	%rbp
	.cfi_def_cfa_offset 16
	.cfi_offset %rbp, -16
	movq	%rsp, %rbp
	.cfi_def_cfa_register %rbp
	subq	$32, %rsp
	movl	$1019464784, -28(%rbp)  # imm = 0x3CC3CC50
	movq	img, %rax
	movq	14160(%rax), %rax
	movq	32(%rax), %rax
	movq	%rax, -24(%rbp)
	movq	img, %rax
	movq	14160(%rax), %rax
	movq	40(%rax), %rax
	movq	%rax, -16(%rbp)
	movl	$0, -8(%rbp)
.LBB23_1:                               # %for.cond
                                        # =>This Loop Header: Depth=1
                                        #     Child Loop BB23_3 Depth 2
	cmpl	$3, -8(%rbp)
	jge	.LBB23_11
# %bb.2:                                # %for.body
                                        #   in Loop: Header=BB23_1 Depth=1
	movl	$0, -4(%rbp)
.LBB23_3:                               # %for.cond2
                                        #   Parent Loop BB23_1 Depth=1
                                        # =>  This Inner Loop Header: Depth=2
	cmpl	$11, -4(%rbp)
	jge	.LBB23_9
# %bb.4:                                # %for.body4
                                        #   in Loop: Header=BB23_3 Depth=2
	movq	img, %rax
	cmpl	$2, 24(%rax)
	jne	.LBB23_6
# %bb.5:                                # %if.then
                                        #   in Loop: Header=BB23_3 Depth=2
	movq	-24(%rbp), %rdi
	movslq	-8(%rbp), %rax
	imulq	$176, %rax, %rax
	addq	%rax, %rdi
	movslq	-4(%rbp), %rax
	shlq	$4, %rax
	addq	%rax, %rdi
	movq	img, %rax
	movslq	72520(%rax), %rax
	imulq	$264, %rax, %rax        # imm = 0x108
	movabsq	$INIT_MB_TYPE_I, %rsi
	addq	%rax, %rsi
	movslq	-8(%rbp), %rax
	imulq	$88, %rax, %rax
	addq	%rax, %rsi
	movslq	-4(%rbp), %rax
	shlq	$3, %rax
	addq	%rax, %rsi
	callq	biari_init_context
	jmp	.LBB23_7
.LBB23_6:                               # %if.else
                                        #   in Loop: Header=BB23_3 Depth=2
	movq	-24(%rbp), %rdi
	movslq	-8(%rbp), %rax
	imulq	$176, %rax, %rax
	addq	%rax, %rdi
	movslq	-4(%rbp), %rax
	shlq	$4, %rax
	addq	%rax, %rdi
	movq	img, %rax
	movslq	72520(%rax), %rax
	imulq	$264, %rax, %rax        # imm = 0x108
	movabsq	$INIT_MB_TYPE_P, %rsi
	addq	%rax, %rsi
	movslq	-8(%rbp), %rax
	imulq	$88, %rax, %rax
	addq	%rax, %rsi
	movslq	-4(%rbp), %rax
	shlq	$3, %rax
	addq	%rax, %rsi
	callq	biari_init_context
.LBB23_7:                               # %if.end
                                        #   in Loop: Header=BB23_3 Depth=2
	jmp	.LBB23_8
.LBB23_8:                               # %for.inc
                                        #   in Loop: Header=BB23_3 Depth=2
	movl	-4(%rbp), %eax
	addl	$1, %eax
	movl	%eax, -4(%rbp)
	jmp	.LBB23_3
.LBB23_9:                               # %for.end
                                        #   in Loop: Header=BB23_1 Depth=1
	jmp	.LBB23_10
.LBB23_10:                              # %for.inc28
                                        #   in Loop: Header=BB23_1 Depth=1
	movl	-8(%rbp), %eax
	addl	$1, %eax
	movl	%eax, -8(%rbp)
	jmp	.LBB23_1
.LBB23_11:                              # %for.end30
	movl	$0, -8(%rbp)
.LBB23_12:                              # %for.cond31
                                        # =>This Loop Header: Depth=1
                                        #     Child Loop BB23_14 Depth 2
	cmpl	$2, -8(%rbp)
	jge	.LBB23_22
# %bb.13:                               # %for.body33
                                        #   in Loop: Header=BB23_12 Depth=1
	movl	$0, -4(%rbp)
.LBB23_14:                              # %for.cond34
                                        #   Parent Loop BB23_12 Depth=1
                                        # =>  This Inner Loop Header: Depth=2
	cmpl	$9, -4(%rbp)
	jge	.LBB23_20
# %bb.15:                               # %for.body36
                                        #   in Loop: Header=BB23_14 Depth=2
	movq	img, %rax
	cmpl	$2, 24(%rax)
	jne	.LBB23_17
# %bb.16:                               # %if.then39
                                        #   in Loop: Header=BB23_14 Depth=2
	movq	-24(%rbp), %rdi
	addq	$528, %rdi              # imm = 0x210
	movslq	-8(%rbp), %rax
	imulq	$144, %rax, %rax
	addq	%rax, %rdi
	movslq	-4(%rbp), %rax
	shlq	$4, %rax
	addq	%rax, %rdi
	movq	img, %rax
	movslq	72520(%rax), %rax
	imulq	$144, %rax, %rax
	movabsq	$INIT_B8_TYPE_I, %rsi
	addq	%rax, %rsi
	movslq	-8(%rbp), %rax
	imulq	$72, %rax, %rax
	addq	%rax, %rsi
	movslq	-4(%rbp), %rax
	shlq	$3, %rax
	addq	%rax, %rsi
	callq	biari_init_context
	jmp	.LBB23_18
.LBB23_17:                              # %if.else52
                                        #   in Loop: Header=BB23_14 Depth=2
	movq	-24(%rbp), %rdi
	addq	$528, %rdi              # imm = 0x210
	movslq	-8(%rbp), %rax
	imulq	$144, %rax, %rax
	addq	%rax, %rdi
	movslq	-4(%rbp), %rax
	shlq	$4, %rax
	addq	%rax, %rdi
	movq	img, %rax
	movslq	72520(%rax), %rax
	imulq	$144, %rax, %rax
	movabsq	$INIT_B8_TYPE_P, %rsi
	addq	%rax, %rsi
	movslq	-8(%rbp), %rax
	imulq	$72, %rax, %rax
	addq	%rax, %rsi
	movslq	-4(%rbp), %rax
	shlq	$3, %rax
	addq	%rax, %rsi
	callq	biari_init_context
.LBB23_18:                              # %if.end66
                                        #   in Loop: Header=BB23_14 Depth=2
	jmp	.LBB23_19
.LBB23_19:                              # %for.inc67
                                        #   in Loop: Header=BB23_14 Depth=2
	movl	-4(%rbp), %eax
	addl	$1, %eax
	movl	%eax, -4(%rbp)
	jmp	.LBB23_14
.LBB23_20:                              # %for.end69
                                        #   in Loop: Header=BB23_12 Depth=1
	jmp	.LBB23_21
.LBB23_21:                              # %for.inc70
                                        #   in Loop: Header=BB23_12 Depth=1
	movl	-8(%rbp), %eax
	addl	$1, %eax
	movl	%eax, -8(%rbp)
	jmp	.LBB23_12
.LBB23_22:                              # %for.end72
	movl	$0, -8(%rbp)
.LBB23_23:                              # %for.cond73
                                        # =>This Loop Header: Depth=1
                                        #     Child Loop BB23_25 Depth 2
	cmpl	$2, -8(%rbp)
	jge	.LBB23_33
# %bb.24:                               # %for.body75
                                        #   in Loop: Header=BB23_23 Depth=1
	movl	$0, -4(%rbp)
.LBB23_25:                              # %for.cond76
                                        #   Parent Loop BB23_23 Depth=1
                                        # =>  This Inner Loop Header: Depth=2
	cmpl	$10, -4(%rbp)
	jge	.LBB23_31
# %bb.26:                               # %for.body78
                                        #   in Loop: Header=BB23_25 Depth=2
	movq	img, %rax
	cmpl	$2, 24(%rax)
	jne	.LBB23_28
# %bb.27:                               # %if.then81
                                        #   in Loop: Header=BB23_25 Depth=2
	movq	-24(%rbp), %rdi
	addq	$816, %rdi              # imm = 0x330
	movslq	-8(%rbp), %rax
	imulq	$160, %rax, %rax
	addq	%rax, %rdi
	movslq	-4(%rbp), %rax
	shlq	$4, %rax
	addq	%rax, %rdi
	movq	img, %rax
	movslq	72520(%rax), %rax
	imulq	$160, %rax, %rax
	movabsq	$INIT_MV_RES_I, %rsi
	addq	%rax, %rsi
	movslq	-8(%rbp), %rax
	imulq	$80, %rax, %rax
	addq	%rax, %rsi
	movslq	-4(%rbp), %rax
	shlq	$3, %rax
	addq	%rax, %rsi
	callq	biari_init_context
	jmp	.LBB23_29
.LBB23_28:                              # %if.else94
                                        #   in Loop: Header=BB23_25 Depth=2
	movq	-24(%rbp), %rdi
	addq	$816, %rdi              # imm = 0x330
	movslq	-8(%rbp), %rax
	imulq	$160, %rax, %rax
	addq	%rax, %rdi
	movslq	-4(%rbp), %rax
	shlq	$4, %rax
	addq	%rax, %rdi
	movq	img, %rax
	movslq	72520(%rax), %rax
	imulq	$160, %rax, %rax
	movabsq	$INIT_MV_RES_P, %rsi
	addq	%rax, %rsi
	movslq	-8(%rbp), %rax
	imulq	$80, %rax, %rax
	addq	%rax, %rsi
	movslq	-4(%rbp), %rax
	shlq	$3, %rax
	addq	%rax, %rsi
	callq	biari_init_context
.LBB23_29:                              # %if.end108
                                        #   in Loop: Header=BB23_25 Depth=2
	jmp	.LBB23_30
.LBB23_30:                              # %for.inc109
                                        #   in Loop: Header=BB23_25 Depth=2
	movl	-4(%rbp), %eax
	addl	$1, %eax
	movl	%eax, -4(%rbp)
	jmp	.LBB23_25
.LBB23_31:                              # %for.end111
                                        #   in Loop: Header=BB23_23 Depth=1
	jmp	.LBB23_32
.LBB23_32:                              # %for.inc112
                                        #   in Loop: Header=BB23_23 Depth=1
	movl	-8(%rbp), %eax
	addl	$1, %eax
	movl	%eax, -8(%rbp)
	jmp	.LBB23_23
.LBB23_33:                              # %for.end114
	movl	$0, -8(%rbp)
.LBB23_34:                              # %for.cond115
                                        # =>This Loop Header: Depth=1
                                        #     Child Loop BB23_36 Depth 2
	cmpl	$2, -8(%rbp)
	jge	.LBB23_44
# %bb.35:                               # %for.body117
                                        #   in Loop: Header=BB23_34 Depth=1
	movl	$0, -4(%rbp)
.LBB23_36:                              # %for.cond118
                                        #   Parent Loop BB23_34 Depth=1
                                        # =>  This Inner Loop Header: Depth=2
	cmpl	$6, -4(%rbp)
	jge	.LBB23_42
# %bb.37:                               # %for.body120
                                        #   in Loop: Header=BB23_36 Depth=2
	movq	img, %rax
	cmpl	$2, 24(%rax)
	jne	.LBB23_39
# %bb.38:                               # %if.then123
                                        #   in Loop: Header=BB23_36 Depth=2
	movq	-24(%rbp), %rdi
	addq	$1136, %rdi             # imm = 0x470
	movslq	-8(%rbp), %rax
	imulq	$96, %rax, %rax
	addq	%rax, %rdi
	movslq	-4(%rbp), %rax
	shlq	$4, %rax
	addq	%rax, %rdi
	movq	img, %rax
	movslq	72520(%rax), %rax
	imulq	$96, %rax, %rax
	movabsq	$INIT_REF_NO_I, %rsi
	addq	%rax, %rsi
	movslq	-8(%rbp), %rax
	imulq	$48, %rax, %rax
	addq	%rax, %rsi
	movslq	-4(%rbp), %rax
	shlq	$3, %rax
	addq	%rax, %rsi
	callq	biari_init_context
	jmp	.LBB23_40
.LBB23_39:                              # %if.else136
                                        #   in Loop: Header=BB23_36 Depth=2
	movq	-24(%rbp), %rdi
	addq	$1136, %rdi             # imm = 0x470
	movslq	-8(%rbp), %rax
	imulq	$96, %rax, %rax
	addq	%rax, %rdi
	movslq	-4(%rbp), %rax
	shlq	$4, %rax
	addq	%rax, %rdi
	movq	img, %rax
	movslq	72520(%rax), %rax
	imulq	$96, %rax, %rax
	movabsq	$INIT_REF_NO_P, %rsi
	addq	%rax, %rsi
	movslq	-8(%rbp), %rax
	imulq	$48, %rax, %rax
	addq	%rax, %rsi
	movslq	-4(%rbp), %rax
	shlq	$3, %rax
	addq	%rax, %rsi
	callq	biari_init_context
.LBB23_40:                              # %if.end150
                                        #   in Loop: Header=BB23_36 Depth=2
	jmp	.LBB23_41
.LBB23_41:                              # %for.inc151
                                        #   in Loop: Header=BB23_36 Depth=2
	movl	-4(%rbp), %eax
	addl	$1, %eax
	movl	%eax, -4(%rbp)
	jmp	.LBB23_36
.LBB23_42:                              # %for.end153
                                        #   in Loop: Header=BB23_34 Depth=1
	jmp	.LBB23_43
.LBB23_43:                              # %for.inc154
                                        #   in Loop: Header=BB23_34 Depth=1
	movl	-8(%rbp), %eax
	addl	$1, %eax
	movl	%eax, -8(%rbp)
	jmp	.LBB23_34
.LBB23_44:                              # %for.end156
	movl	$0, -4(%rbp)
.LBB23_45:                              # %for.cond157
                                        # =>This Inner Loop Header: Depth=1
	cmpl	$4, -4(%rbp)
	jge	.LBB23_51
# %bb.46:                               # %for.body159
                                        #   in Loop: Header=BB23_45 Depth=1
	movq	img, %rax
	cmpl	$2, 24(%rax)
	jne	.LBB23_48
# %bb.47:                               # %if.then162
                                        #   in Loop: Header=BB23_45 Depth=1
	movq	-24(%rbp), %rdi
	addq	$1328, %rdi             # imm = 0x530
	movslq	-4(%rbp), %rax
	shlq	$4, %rax
	addq	%rax, %rdi
	movq	img, %rax
	movslq	72520(%rax), %rax
	shlq	$5, %rax
	movabsq	$INIT_DELTA_QP_I, %rsi
	addq	%rax, %rsi
	movslq	-4(%rbp), %rax
	shlq	$3, %rax
	addq	%rax, %rsi
	callq	biari_init_context
	jmp	.LBB23_49
.LBB23_48:                              # %if.else172
                                        #   in Loop: Header=BB23_45 Depth=1
	movq	-24(%rbp), %rdi
	addq	$1328, %rdi             # imm = 0x530
	movslq	-4(%rbp), %rax
	shlq	$4, %rax
	addq	%rax, %rdi
	movq	img, %rax
	movslq	72520(%rax), %rax
	shlq	$5, %rax
	movabsq	$INIT_DELTA_QP_P, %rsi
	addq	%rax, %rsi
	movslq	-4(%rbp), %rax
	shlq	$3, %rax
	addq	%rax, %rsi
	callq	biari_init_context
.LBB23_49:                              # %if.end183
                                        #   in Loop: Header=BB23_45 Depth=1
	jmp	.LBB23_50
.LBB23_50:                              # %for.inc184
                                        #   in Loop: Header=BB23_45 Depth=1
	movl	-4(%rbp), %eax
	addl	$1, %eax
	movl	%eax, -4(%rbp)
	jmp	.LBB23_45
.LBB23_51:                              # %for.end186
	movl	$0, -4(%rbp)
.LBB23_52:                              # %for.cond187
                                        # =>This Inner Loop Header: Depth=1
	cmpl	$4, -4(%rbp)
	jge	.LBB23_58
# %bb.53:                               # %for.body189
                                        #   in Loop: Header=BB23_52 Depth=1
	movq	img, %rax
	cmpl	$2, 24(%rax)
	jne	.LBB23_55
# %bb.54:                               # %if.then192
                                        #   in Loop: Header=BB23_52 Depth=1
	movq	-24(%rbp), %rdi
	addq	$1392, %rdi             # imm = 0x570
	movslq	-4(%rbp), %rax
	shlq	$4, %rax
	addq	%rax, %rdi
	movq	img, %rax
	movslq	72520(%rax), %rax
	shlq	$5, %rax
	movabsq	$INIT_MB_AFF_I, %rsi
	addq	%rax, %rsi
	movslq	-4(%rbp), %rax
	shlq	$3, %rax
	addq	%rax, %rsi
	callq	biari_init_context
	jmp	.LBB23_56
.LBB23_55:                              # %if.else202
                                        #   in Loop: Header=BB23_52 Depth=1
	movq	-24(%rbp), %rdi
	addq	$1392, %rdi             # imm = 0x570
	movslq	-4(%rbp), %rax
	shlq	$4, %rax
	addq	%rax, %rdi
	movq	img, %rax
	movslq	72520(%rax), %rax
	shlq	$5, %rax
	movabsq	$INIT_MB_AFF_P, %rsi
	addq	%rax, %rsi
	movslq	-4(%rbp), %rax
	shlq	$3, %rax
	addq	%rax, %rsi
	callq	biari_init_context
.LBB23_56:                              # %if.end213
                                        #   in Loop: Header=BB23_52 Depth=1
	jmp	.LBB23_57
.LBB23_57:                              # %for.inc214
                                        #   in Loop: Header=BB23_52 Depth=1
	movl	-4(%rbp), %eax
	addl	$1, %eax
	movl	%eax, -4(%rbp)
	jmp	.LBB23_52
.LBB23_58:                              # %for.end216
	movl	$0, -4(%rbp)
.LBB23_59:                              # %for.cond217
                                        # =>This Inner Loop Header: Depth=1
	cmpl	$3, -4(%rbp)
	jge	.LBB23_65
# %bb.60:                               # %for.body219
                                        #   in Loop: Header=BB23_59 Depth=1
	movq	img, %rax
	cmpl	$2, 24(%rax)
	jne	.LBB23_62
# %bb.61:                               # %if.then222
                                        #   in Loop: Header=BB23_59 Depth=1
	movq	-24(%rbp), %rdi
	addq	$1456, %rdi             # imm = 0x5B0
	movslq	-4(%rbp), %rax
	shlq	$4, %rax
	addq	%rax, %rdi
	movq	img, %rax
	movslq	72520(%rax), %rax
	imulq	$24, %rax, %rax
	movabsq	$INIT_TRANSFORM_SIZE_I, %rsi
	addq	%rax, %rsi
	movslq	-4(%rbp), %rax
	shlq	$3, %rax
	addq	%rax, %rsi
	callq	biari_init_context
	jmp	.LBB23_63
.LBB23_62:                              # %if.else232
                                        #   in Loop: Header=BB23_59 Depth=1
	movq	-24(%rbp), %rdi
	addq	$1456, %rdi             # imm = 0x5B0
	movslq	-4(%rbp), %rax
	shlq	$4, %rax
	addq	%rax, %rdi
	movq	img, %rax
	movslq	72520(%rax), %rax
	imulq	$24, %rax, %rax
	movabsq	$INIT_TRANSFORM_SIZE_P, %rsi
	addq	%rax, %rsi
	movslq	-4(%rbp), %rax
	shlq	$3, %rax
	addq	%rax, %rsi
	callq	biari_init_context
.LBB23_63:                              # %if.end243
                                        #   in Loop: Header=BB23_59 Depth=1
	jmp	.LBB23_64
.LBB23_64:                              # %for.inc244
                                        #   in Loop: Header=BB23_59 Depth=1
	movl	-4(%rbp), %eax
	addl	$1, %eax
	movl	%eax, -4(%rbp)
	jmp	.LBB23_59
.LBB23_65:                              # %for.end246
	movl	$0, -4(%rbp)
.LBB23_66:                              # %for.cond247
                                        # =>This Inner Loop Header: Depth=1
	cmpl	$2, -4(%rbp)
	jge	.LBB23_72
# %bb.67:                               # %for.body249
                                        #   in Loop: Header=BB23_66 Depth=1
	movq	img, %rax
	cmpl	$2, 24(%rax)
	jne	.LBB23_69
# %bb.68:                               # %if.then252
                                        #   in Loop: Header=BB23_66 Depth=1
	movq	-16(%rbp), %rdi
	movslq	-4(%rbp), %rax
	shlq	$4, %rax
	addq	%rax, %rdi
	movq	img, %rax
	movslq	72520(%rax), %rax
	shlq	$4, %rax
	movabsq	$INIT_IPR_I, %rsi
	addq	%rax, %rsi
	movslq	-4(%rbp), %rax
	shlq	$3, %rax
	addq	%rax, %rsi
	callq	biari_init_context
	jmp	.LBB23_70
.LBB23_69:                              # %if.else262
                                        #   in Loop: Header=BB23_66 Depth=1
	movq	-16(%rbp), %rdi
	movslq	-4(%rbp), %rax
	shlq	$4, %rax
	addq	%rax, %rdi
	movq	img, %rax
	movslq	72520(%rax), %rax
	shlq	$4, %rax
	movabsq	$INIT_IPR_P, %rsi
	addq	%rax, %rsi
	movslq	-4(%rbp), %rax
	shlq	$3, %rax
	addq	%rax, %rsi
	callq	biari_init_context
.LBB23_70:                              # %if.end273
                                        #   in Loop: Header=BB23_66 Depth=1
	jmp	.LBB23_71
.LBB23_71:                              # %for.inc274
                                        #   in Loop: Header=BB23_66 Depth=1
	movl	-4(%rbp), %eax
	addl	$1, %eax
	movl	%eax, -4(%rbp)
	jmp	.LBB23_66
.LBB23_72:                              # %for.end276
	movl	$0, -4(%rbp)
.LBB23_73:                              # %for.cond277
                                        # =>This Inner Loop Header: Depth=1
	cmpl	$4, -4(%rbp)
	jge	.LBB23_79
# %bb.74:                               # %for.body279
                                        #   in Loop: Header=BB23_73 Depth=1
	movq	img, %rax
	cmpl	$2, 24(%rax)
	jne	.LBB23_76
# %bb.75:                               # %if.then282
                                        #   in Loop: Header=BB23_73 Depth=1
	movq	-16(%rbp), %rdi
	addq	$32, %rdi
	movslq	-4(%rbp), %rax
	shlq	$4, %rax
	addq	%rax, %rdi
	movq	img, %rax
	movslq	72520(%rax), %rax
	shlq	$5, %rax
	movabsq	$INIT_CIPR_I, %rsi
	addq	%rax, %rsi
	movslq	-4(%rbp), %rax
	shlq	$3, %rax
	addq	%rax, %rsi
	callq	biari_init_context
	jmp	.LBB23_77
.LBB23_76:                              # %if.else292
                                        #   in Loop: Header=BB23_73 Depth=1
	movq	-16(%rbp), %rdi
	addq	$32, %rdi
	movslq	-4(%rbp), %rax
	shlq	$4, %rax
	addq	%rax, %rdi
	movq	img, %rax
	movslq	72520(%rax), %rax
	shlq	$5, %rax
	movabsq	$INIT_CIPR_P, %rsi
	addq	%rax, %rsi
	movslq	-4(%rbp), %rax
	shlq	$3, %rax
	addq	%rax, %rsi
	callq	biari_init_context
.LBB23_77:                              # %if.end303
                                        #   in Loop: Header=BB23_73 Depth=1
	jmp	.LBB23_78
.LBB23_78:                              # %for.inc304
                                        #   in Loop: Header=BB23_73 Depth=1
	movl	-4(%rbp), %eax
	addl	$1, %eax
	movl	%eax, -4(%rbp)
	jmp	.LBB23_73
.LBB23_79:                              # %for.end306
	movl	$0, -8(%rbp)
.LBB23_80:                              # %for.cond307
                                        # =>This Loop Header: Depth=1
                                        #     Child Loop BB23_82 Depth 2
	cmpl	$3, -8(%rbp)
	jge	.LBB23_90
# %bb.81:                               # %for.body309
                                        #   in Loop: Header=BB23_80 Depth=1
	movl	$0, -4(%rbp)
.LBB23_82:                              # %for.cond310
                                        #   Parent Loop BB23_80 Depth=1
                                        # =>  This Inner Loop Header: Depth=2
	cmpl	$4, -4(%rbp)
	jge	.LBB23_88
# %bb.83:                               # %for.body312
                                        #   in Loop: Header=BB23_82 Depth=2
	movq	img, %rax
	cmpl	$2, 24(%rax)
	jne	.LBB23_85
# %bb.84:                               # %if.then315
                                        #   in Loop: Header=BB23_82 Depth=2
	movq	-16(%rbp), %rdi
	addq	$96, %rdi
	movslq	-8(%rbp), %rax
	shlq	$6, %rax
	addq	%rax, %rdi
	movslq	-4(%rbp), %rax
	shlq	$4, %rax
	addq	%rax, %rdi
	movq	img, %rax
	movslq	72520(%rax), %rax
	imulq	$96, %rax, %rax
	movabsq	$INIT_CBP_I, %rsi
	addq	%rax, %rsi
	movslq	-8(%rbp), %rax
	shlq	$5, %rax
	addq	%rax, %rsi
	movslq	-4(%rbp), %rax
	shlq	$3, %rax
	addq	%rax, %rsi
	callq	biari_init_context
	jmp	.LBB23_86
.LBB23_85:                              # %if.else328
                                        #   in Loop: Header=BB23_82 Depth=2
	movq	-16(%rbp), %rdi
	addq	$96, %rdi
	movslq	-8(%rbp), %rax
	shlq	$6, %rax
	addq	%rax, %rdi
	movslq	-4(%rbp), %rax
	shlq	$4, %rax
	addq	%rax, %rdi
	movq	img, %rax
	movslq	72520(%rax), %rax
	imulq	$96, %rax, %rax
	movabsq	$INIT_CBP_P, %rsi
	addq	%rax, %rsi
	movslq	-8(%rbp), %rax
	shlq	$5, %rax
	addq	%rax, %rsi
	movslq	-4(%rbp), %rax
	shlq	$3, %rax
	addq	%rax, %rsi
	callq	biari_init_context
.LBB23_86:                              # %if.end342
                                        #   in Loop: Header=BB23_82 Depth=2
	jmp	.LBB23_87
.LBB23_87:                              # %for.inc343
                                        #   in Loop: Header=BB23_82 Depth=2
	movl	-4(%rbp), %eax
	addl	$1, %eax
	movl	%eax, -4(%rbp)
	jmp	.LBB23_82
.LBB23_88:                              # %for.end345
                                        #   in Loop: Header=BB23_80 Depth=1
	jmp	.LBB23_89
.LBB23_89:                              # %for.inc346
                                        #   in Loop: Header=BB23_80 Depth=1
	movl	-8(%rbp), %eax
	addl	$1, %eax
	movl	%eax, -8(%rbp)
	jmp	.LBB23_80
.LBB23_90:                              # %for.end348
	movl	$0, -8(%rbp)
.LBB23_91:                              # %for.cond349
                                        # =>This Loop Header: Depth=1
                                        #     Child Loop BB23_93 Depth 2
	cmpl	$10, -8(%rbp)
	jge	.LBB23_101
# %bb.92:                               # %for.body351
                                        #   in Loop: Header=BB23_91 Depth=1
	movl	$0, -4(%rbp)
.LBB23_93:                              # %for.cond352
                                        #   Parent Loop BB23_91 Depth=1
                                        # =>  This Inner Loop Header: Depth=2
	cmpl	$4, -4(%rbp)
	jge	.LBB23_99
# %bb.94:                               # %for.body354
                                        #   in Loop: Header=BB23_93 Depth=2
	movq	img, %rax
	cmpl	$2, 24(%rax)
	jne	.LBB23_96
# %bb.95:                               # %if.then357
                                        #   in Loop: Header=BB23_93 Depth=2
	movq	-16(%rbp), %rdi
	addq	$288, %rdi              # imm = 0x120
	movslq	-8(%rbp), %rax
	shlq	$6, %rax
	addq	%rax, %rdi
	movslq	-4(%rbp), %rax
	shlq	$4, %rax
	addq	%rax, %rdi
	movq	img, %rax
	movslq	72520(%rax), %rax
	shlq	$8, %rax
	movabsq	$INIT_BCBP_I, %rsi
	addq	%rax, %rsi
	movslq	-8(%rbp), %rax
	shlq	$5, %rax
	addq	%rax, %rsi
	movslq	-4(%rbp), %rax
	shlq	$3, %rax
	addq	%rax, %rsi
	callq	biari_init_context
	jmp	.LBB23_97
.LBB23_96:                              # %if.else370
                                        #   in Loop: Header=BB23_93 Depth=2
	movq	-16(%rbp), %rdi
	addq	$288, %rdi              # imm = 0x120
	movslq	-8(%rbp), %rax
	shlq	$6, %rax
	addq	%rax, %rdi
	movslq	-4(%rbp), %rax
	shlq	$4, %rax
	addq	%rax, %rdi
	movq	img, %rax
	movslq	72520(%rax), %rax
	shlq	$8, %rax
	movabsq	$INIT_BCBP_P, %rsi
	addq	%rax, %rsi
	movslq	-8(%rbp), %rax
	shlq	$5, %rax
	addq	%rax, %rsi
	movslq	-4(%rbp), %rax
	shlq	$3, %rax
	addq	%rax, %rsi
	callq	biari_init_context
.LBB23_97:                              # %if.end384
                                        #   in Loop: Header=BB23_93 Depth=2
	jmp	.LBB23_98
.LBB23_98:                              # %for.inc385
                                        #   in Loop: Header=BB23_93 Depth=2
	movl	-4(%rbp), %eax
	addl	$1, %eax
	movl	%eax, -4(%rbp)
	jmp	.LBB23_93
.LBB23_99:                              # %for.end387
                                        #   in Loop: Header=BB23_91 Depth=1
	jmp	.LBB23_100
.LBB23_100:                             # %for.inc388
                                        #   in Loop: Header=BB23_91 Depth=1
	movl	-8(%rbp), %eax
	addl	$1, %eax
	movl	%eax, -8(%rbp)
	jmp	.LBB23_91
.LBB23_101:                             # %for.end390
	movl	$0, -8(%rbp)
.LBB23_102:                             # %for.cond391
                                        # =>This Loop Header: Depth=1
                                        #     Child Loop BB23_104 Depth 2
	cmpl	$10, -8(%rbp)
	jge	.LBB23_112
# %bb.103:                              # %for.body393
                                        #   in Loop: Header=BB23_102 Depth=1
	movl	$0, -4(%rbp)
.LBB23_104:                             # %for.cond394
                                        #   Parent Loop BB23_102 Depth=1
                                        # =>  This Inner Loop Header: Depth=2
	cmpl	$15, -4(%rbp)
	jge	.LBB23_110
# %bb.105:                              # %for.body396
                                        #   in Loop: Header=BB23_104 Depth=2
	movq	img, %rax
	cmpl	$2, 24(%rax)
	jne	.LBB23_107
# %bb.106:                              # %if.then399
                                        #   in Loop: Header=BB23_104 Depth=2
	movq	-16(%rbp), %rdi
	addq	$928, %rdi              # imm = 0x3A0
	movslq	-8(%rbp), %rax
	imulq	$240, %rax, %rax
	addq	%rax, %rdi
	movslq	-4(%rbp), %rax
	shlq	$4, %rax
	addq	%rax, %rdi
	movq	img, %rax
	movslq	72520(%rax), %rax
	imulq	$960, %rax, %rax        # imm = 0x3C0
	movabsq	$INIT_MAP_I, %rsi
	addq	%rax, %rsi
	movslq	-8(%rbp), %rax
	imulq	$120, %rax, %rax
	addq	%rax, %rsi
	movslq	-4(%rbp), %rax
	shlq	$3, %rax
	addq	%rax, %rsi
	callq	biari_init_context
	jmp	.LBB23_108
.LBB23_107:                             # %if.else412
                                        #   in Loop: Header=BB23_104 Depth=2
	movq	-16(%rbp), %rdi
	addq	$928, %rdi              # imm = 0x3A0
	movslq	-8(%rbp), %rax
	imulq	$240, %rax, %rax
	addq	%rax, %rdi
	movslq	-4(%rbp), %rax
	shlq	$4, %rax
	addq	%rax, %rdi
	movq	img, %rax
	movslq	72520(%rax), %rax
	imulq	$960, %rax, %rax        # imm = 0x3C0
	movabsq	$INIT_MAP_P, %rsi
	addq	%rax, %rsi
	movslq	-8(%rbp), %rax
	imulq	$120, %rax, %rax
	addq	%rax, %rsi
	movslq	-4(%rbp), %rax
	shlq	$3, %rax
	addq	%rax, %rsi
	callq	biari_init_context
.LBB23_108:                             # %if.end426
                                        #   in Loop: Header=BB23_104 Depth=2
	jmp	.LBB23_109
.LBB23_109:                             # %for.inc427
                                        #   in Loop: Header=BB23_104 Depth=2
	movl	-4(%rbp), %eax
	addl	$1, %eax
	movl	%eax, -4(%rbp)
	jmp	.LBB23_104
.LBB23_110:                             # %for.end429
                                        #   in Loop: Header=BB23_102 Depth=1
	jmp	.LBB23_111
.LBB23_111:                             # %for.inc430
                                        #   in Loop: Header=BB23_102 Depth=1
	movl	-8(%rbp), %eax
	addl	$1, %eax
	movl	%eax, -8(%rbp)
	jmp	.LBB23_102
.LBB23_112:                             # %for.end432
	movl	$0, -8(%rbp)
.LBB23_113:                             # %for.cond433
                                        # =>This Loop Header: Depth=1
                                        #     Child Loop BB23_115 Depth 2
	cmpl	$10, -8(%rbp)
	jge	.LBB23_123
# %bb.114:                              # %for.body435
                                        #   in Loop: Header=BB23_113 Depth=1
	movl	$0, -4(%rbp)
.LBB23_115:                             # %for.cond436
                                        #   Parent Loop BB23_113 Depth=1
                                        # =>  This Inner Loop Header: Depth=2
	cmpl	$15, -4(%rbp)
	jge	.LBB23_121
# %bb.116:                              # %for.body438
                                        #   in Loop: Header=BB23_115 Depth=2
	movq	img, %rax
	cmpl	$2, 24(%rax)
	jne	.LBB23_118
# %bb.117:                              # %if.then441
                                        #   in Loop: Header=BB23_115 Depth=2
	movq	-16(%rbp), %rdi
	addq	$3328, %rdi             # imm = 0xD00
	movslq	-8(%rbp), %rax
	imulq	$240, %rax, %rax
	addq	%rax, %rdi
	movslq	-4(%rbp), %rax
	shlq	$4, %rax
	addq	%rax, %rdi
	movq	img, %rax
	movslq	72520(%rax), %rax
	imulq	$960, %rax, %rax        # imm = 0x3C0
	movabsq	$INIT_LAST_I, %rsi
	addq	%rax, %rsi
	movslq	-8(%rbp), %rax
	imulq	$120, %rax, %rax
	addq	%rax, %rsi
	movslq	-4(%rbp), %rax
	shlq	$3, %rax
	addq	%rax, %rsi
	callq	biari_init_context
	jmp	.LBB23_119
.LBB23_118:                             # %if.else454
                                        #   in Loop: Header=BB23_115 Depth=2
	movq	-16(%rbp), %rdi
	addq	$3328, %rdi             # imm = 0xD00
	movslq	-8(%rbp), %rax
	imulq	$240, %rax, %rax
	addq	%rax, %rdi
	movslq	-4(%rbp), %rax
	shlq	$4, %rax
	addq	%rax, %rdi
	movq	img, %rax
	movslq	72520(%rax), %rax
	imulq	$960, %rax, %rax        # imm = 0x3C0
	movabsq	$INIT_LAST_P, %rsi
	addq	%rax, %rsi
	movslq	-8(%rbp), %rax
	imulq	$120, %rax, %rax
	addq	%rax, %rsi
	movslq	-4(%rbp), %rax
	shlq	$3, %rax
	addq	%rax, %rsi
	callq	biari_init_context
.LBB23_119:                             # %if.end468
                                        #   in Loop: Header=BB23_115 Depth=2
	jmp	.LBB23_120
.LBB23_120:                             # %for.inc469
                                        #   in Loop: Header=BB23_115 Depth=2
	movl	-4(%rbp), %eax
	addl	$1, %eax
	movl	%eax, -4(%rbp)
	jmp	.LBB23_115
.LBB23_121:                             # %for.end471
                                        #   in Loop: Header=BB23_113 Depth=1
	jmp	.LBB23_122
.LBB23_122:                             # %for.inc472
                                        #   in Loop: Header=BB23_113 Depth=1
	movl	-8(%rbp), %eax
	addl	$1, %eax
	movl	%eax, -8(%rbp)
	jmp	.LBB23_113
.LBB23_123:                             # %for.end474
	movl	$0, -8(%rbp)
.LBB23_124:                             # %for.cond475
                                        # =>This Loop Header: Depth=1
                                        #     Child Loop BB23_126 Depth 2
	cmpl	$10, -8(%rbp)
	jge	.LBB23_134
# %bb.125:                              # %for.body477
                                        #   in Loop: Header=BB23_124 Depth=1
	movl	$0, -4(%rbp)
.LBB23_126:                             # %for.cond478
                                        #   Parent Loop BB23_124 Depth=1
                                        # =>  This Inner Loop Header: Depth=2
	cmpl	$5, -4(%rbp)
	jge	.LBB23_132
# %bb.127:                              # %for.body480
                                        #   in Loop: Header=BB23_126 Depth=2
	movq	img, %rax
	cmpl	$2, 24(%rax)
	jne	.LBB23_129
# %bb.128:                              # %if.then483
                                        #   in Loop: Header=BB23_126 Depth=2
	movq	-16(%rbp), %rdi
	addq	$5728, %rdi             # imm = 0x1660
	movslq	-8(%rbp), %rax
	imulq	$80, %rax, %rax
	addq	%rax, %rdi
	movslq	-4(%rbp), %rax
	shlq	$4, %rax
	addq	%rax, %rdi
	movq	img, %rax
	movslq	72520(%rax), %rax
	imulq	$320, %rax, %rax        # imm = 0x140
	movabsq	$INIT_ONE_I, %rsi
	addq	%rax, %rsi
	movslq	-8(%rbp), %rax
	imulq	$40, %rax, %rax
	addq	%rax, %rsi
	movslq	-4(%rbp), %rax
	shlq	$3, %rax
	addq	%rax, %rsi
	callq	biari_init_context
	jmp	.LBB23_130
.LBB23_129:                             # %if.else496
                                        #   in Loop: Header=BB23_126 Depth=2
	movq	-16(%rbp), %rdi
	addq	$5728, %rdi             # imm = 0x1660
	movslq	-8(%rbp), %rax
	imulq	$80, %rax, %rax
	addq	%rax, %rdi
	movslq	-4(%rbp), %rax
	shlq	$4, %rax
	addq	%rax, %rdi
	movq	img, %rax
	movslq	72520(%rax), %rax
	imulq	$320, %rax, %rax        # imm = 0x140
	movabsq	$INIT_ONE_P, %rsi
	addq	%rax, %rsi
	movslq	-8(%rbp), %rax
	imulq	$40, %rax, %rax
	addq	%rax, %rsi
	movslq	-4(%rbp), %rax
	shlq	$3, %rax
	addq	%rax, %rsi
	callq	biari_init_context
.LBB23_130:                             # %if.end510
                                        #   in Loop: Header=BB23_126 Depth=2
	jmp	.LBB23_131
.LBB23_131:                             # %for.inc511
                                        #   in Loop: Header=BB23_126 Depth=2
	movl	-4(%rbp), %eax
	addl	$1, %eax
	movl	%eax, -4(%rbp)
	jmp	.LBB23_126
.LBB23_132:                             # %for.end513
                                        #   in Loop: Header=BB23_124 Depth=1
	jmp	.LBB23_133
.LBB23_133:                             # %for.inc514
                                        #   in Loop: Header=BB23_124 Depth=1
	movl	-8(%rbp), %eax
	addl	$1, %eax
	movl	%eax, -8(%rbp)
	jmp	.LBB23_124
.LBB23_134:                             # %for.end516
	movl	$0, -8(%rbp)
.LBB23_135:                             # %for.cond517
                                        # =>This Loop Header: Depth=1
                                        #     Child Loop BB23_137 Depth 2
	cmpl	$10, -8(%rbp)
	jge	.LBB23_145
# %bb.136:                              # %for.body519
                                        #   in Loop: Header=BB23_135 Depth=1
	movl	$0, -4(%rbp)
.LBB23_137:                             # %for.cond520
                                        #   Parent Loop BB23_135 Depth=1
                                        # =>  This Inner Loop Header: Depth=2
	cmpl	$5, -4(%rbp)
	jge	.LBB23_143
# %bb.138:                              # %for.body522
                                        #   in Loop: Header=BB23_137 Depth=2
	movq	img, %rax
	cmpl	$2, 24(%rax)
	jne	.LBB23_140
# %bb.139:                              # %if.then525
                                        #   in Loop: Header=BB23_137 Depth=2
	movq	-16(%rbp), %rdi
	addq	$6528, %rdi             # imm = 0x1980
	movslq	-8(%rbp), %rax
	imulq	$80, %rax, %rax
	addq	%rax, %rdi
	movslq	-4(%rbp), %rax
	shlq	$4, %rax
	addq	%rax, %rdi
	movq	img, %rax
	movslq	72520(%rax), %rax
	imulq	$320, %rax, %rax        # imm = 0x140
	movabsq	$INIT_ABS_I, %rsi
	addq	%rax, %rsi
	movslq	-8(%rbp), %rax
	imulq	$40, %rax, %rax
	addq	%rax, %rsi
	movslq	-4(%rbp), %rax
	shlq	$3, %rax
	addq	%rax, %rsi
	callq	biari_init_context
	jmp	.LBB23_141
.LBB23_140:                             # %if.else538
                                        #   in Loop: Header=BB23_137 Depth=2
	movq	-16(%rbp), %rdi
	addq	$6528, %rdi             # imm = 0x1980
	movslq	-8(%rbp), %rax
	imulq	$80, %rax, %rax
	addq	%rax, %rdi
	movslq	-4(%rbp), %rax
	shlq	$4, %rax
	addq	%rax, %rdi
	movq	img, %rax
	movslq	72520(%rax), %rax
	imulq	$320, %rax, %rax        # imm = 0x140
	movabsq	$INIT_ABS_P, %rsi
	addq	%rax, %rsi
	movslq	-8(%rbp), %rax
	imulq	$40, %rax, %rax
	addq	%rax, %rsi
	movslq	-4(%rbp), %rax
	shlq	$3, %rax
	addq	%rax, %rsi
	callq	biari_init_context
.LBB23_141:                             # %if.end552
                                        #   in Loop: Header=BB23_137 Depth=2
	jmp	.LBB23_142
.LBB23_142:                             # %for.inc553
                                        #   in Loop: Header=BB23_137 Depth=2
	movl	-4(%rbp), %eax
	addl	$1, %eax
	movl	%eax, -4(%rbp)
	jmp	.LBB23_137
.LBB23_143:                             # %for.end555
                                        #   in Loop: Header=BB23_135 Depth=1
	jmp	.LBB23_144
.LBB23_144:                             # %for.inc556
                                        #   in Loop: Header=BB23_135 Depth=1
	movl	-8(%rbp), %eax
	addl	$1, %eax
	movl	%eax, -8(%rbp)
	jmp	.LBB23_135
.LBB23_145:                             # %for.end558
	movl	$0, -8(%rbp)
.LBB23_146:                             # %for.cond559
                                        # =>This Loop Header: Depth=1
                                        #     Child Loop BB23_148 Depth 2
	cmpl	$10, -8(%rbp)
	jge	.LBB23_156
# %bb.147:                              # %for.body561
                                        #   in Loop: Header=BB23_146 Depth=1
	movl	$0, -4(%rbp)
.LBB23_148:                             # %for.cond562
                                        #   Parent Loop BB23_146 Depth=1
                                        # =>  This Inner Loop Header: Depth=2
	cmpl	$15, -4(%rbp)
	jge	.LBB23_154
# %bb.149:                              # %for.body564
                                        #   in Loop: Header=BB23_148 Depth=2
	movq	img, %rax
	cmpl	$2, 24(%rax)
	jne	.LBB23_151
# %bb.150:                              # %if.then567
                                        #   in Loop: Header=BB23_148 Depth=2
	movq	-16(%rbp), %rdi
	addq	$7328, %rdi             # imm = 0x1CA0
	movslq	-8(%rbp), %rax
	imulq	$240, %rax, %rax
	addq	%rax, %rdi
	movslq	-4(%rbp), %rax
	shlq	$4, %rax
	addq	%rax, %rdi
	movq	img, %rax
	movslq	72520(%rax), %rax
	imulq	$960, %rax, %rax        # imm = 0x3C0
	movabsq	$INIT_FLD_MAP_I, %rsi
	addq	%rax, %rsi
	movslq	-8(%rbp), %rax
	imulq	$120, %rax, %rax
	addq	%rax, %rsi
	movslq	-4(%rbp), %rax
	shlq	$3, %rax
	addq	%rax, %rsi
	callq	biari_init_context
	jmp	.LBB23_152
.LBB23_151:                             # %if.else580
                                        #   in Loop: Header=BB23_148 Depth=2
	movq	-16(%rbp), %rdi
	addq	$7328, %rdi             # imm = 0x1CA0
	movslq	-8(%rbp), %rax
	imulq	$240, %rax, %rax
	addq	%rax, %rdi
	movslq	-4(%rbp), %rax
	shlq	$4, %rax
	addq	%rax, %rdi
	movq	img, %rax
	movslq	72520(%rax), %rax
	imulq	$960, %rax, %rax        # imm = 0x3C0
	movabsq	$INIT_FLD_MAP_P, %rsi
	addq	%rax, %rsi
	movslq	-8(%rbp), %rax
	imulq	$120, %rax, %rax
	addq	%rax, %rsi
	movslq	-4(%rbp), %rax
	shlq	$3, %rax
	addq	%rax, %rsi
	callq	biari_init_context
.LBB23_152:                             # %if.end594
                                        #   in Loop: Header=BB23_148 Depth=2
	jmp	.LBB23_153
.LBB23_153:                             # %for.inc595
                                        #   in Loop: Header=BB23_148 Depth=2
	movl	-4(%rbp), %eax
	addl	$1, %eax
	movl	%eax, -4(%rbp)
	jmp	.LBB23_148
.LBB23_154:                             # %for.end597
                                        #   in Loop: Header=BB23_146 Depth=1
	jmp	.LBB23_155
.LBB23_155:                             # %for.inc598
                                        #   in Loop: Header=BB23_146 Depth=1
	movl	-8(%rbp), %eax
	addl	$1, %eax
	movl	%eax, -8(%rbp)
	jmp	.LBB23_146
.LBB23_156:                             # %for.end600
	movl	$0, -8(%rbp)
.LBB23_157:                             # %for.cond601
                                        # =>This Loop Header: Depth=1
                                        #     Child Loop BB23_159 Depth 2
	cmpl	$10, -8(%rbp)
	jge	.LBB23_167
# %bb.158:                              # %for.body603
                                        #   in Loop: Header=BB23_157 Depth=1
	movl	$0, -4(%rbp)
.LBB23_159:                             # %for.cond604
                                        #   Parent Loop BB23_157 Depth=1
                                        # =>  This Inner Loop Header: Depth=2
	cmpl	$15, -4(%rbp)
	jge	.LBB23_165
# %bb.160:                              # %for.body606
                                        #   in Loop: Header=BB23_159 Depth=2
	movq	img, %rax
	cmpl	$2, 24(%rax)
	jne	.LBB23_162
# %bb.161:                              # %if.then609
                                        #   in Loop: Header=BB23_159 Depth=2
	movq	-16(%rbp), %rdi
	addq	$9728, %rdi             # imm = 0x2600
	movslq	-8(%rbp), %rax
	imulq	$240, %rax, %rax
	addq	%rax, %rdi
	movslq	-4(%rbp), %rax
	shlq	$4, %rax
	addq	%rax, %rdi
	movq	img, %rax
	movslq	72520(%rax), %rax
	imulq	$960, %rax, %rax        # imm = 0x3C0
	movabsq	$INIT_FLD_LAST_I, %rsi
	addq	%rax, %rsi
	movslq	-8(%rbp), %rax
	imulq	$120, %rax, %rax
	addq	%rax, %rsi
	movslq	-4(%rbp), %rax
	shlq	$3, %rax
	addq	%rax, %rsi
	callq	biari_init_context
	jmp	.LBB23_163
.LBB23_162:                             # %if.else622
                                        #   in Loop: Header=BB23_159 Depth=2
	movq	-16(%rbp), %rdi
	addq	$9728, %rdi             # imm = 0x2600
	movslq	-8(%rbp), %rax
	imulq	$240, %rax, %rax
	addq	%rax, %rdi
	movslq	-4(%rbp), %rax
	shlq	$4, %rax
	addq	%rax, %rdi
	movq	img, %rax
	movslq	72520(%rax), %rax
	imulq	$960, %rax, %rax        # imm = 0x3C0
	movabsq	$INIT_FLD_LAST_P, %rsi
	addq	%rax, %rsi
	movslq	-8(%rbp), %rax
	imulq	$120, %rax, %rax
	addq	%rax, %rsi
	movslq	-4(%rbp), %rax
	shlq	$3, %rax
	addq	%rax, %rsi
	callq	biari_init_context
.LBB23_163:                             # %if.end636
                                        #   in Loop: Header=BB23_159 Depth=2
	jmp	.LBB23_164
.LBB23_164:                             # %for.inc637
                                        #   in Loop: Header=BB23_159 Depth=2
	movl	-4(%rbp), %eax
	addl	$1, %eax
	movl	%eax, -4(%rbp)
	jmp	.LBB23_159
.LBB23_165:                             # %for.end639
                                        #   in Loop: Header=BB23_157 Depth=1
	jmp	.LBB23_166
.LBB23_166:                             # %for.inc640
                                        #   in Loop: Header=BB23_157 Depth=1
	movl	-8(%rbp), %eax
	addl	$1, %eax
	movl	%eax, -8(%rbp)
	jmp	.LBB23_157
.LBB23_167:                             # %for.end642
	cmpl	$1019464784, -28(%rbp)  # imm = 0x3CC3CC50
	jne	.LBB23_169
.LBB23_168:
	addq	$32, %rsp
	popq	%rbp
	.cfi_def_cfa %rsp, 8
	retq
.LBB23_169:                             # %func_exit
	.cfi_def_cfa %rbp, 16
	callq	detect_breach
	jmp	.LBB23_168
.Lfunc_end23:
	.size	init_contexts.16, .Lfunc_end23-init_contexts.16
	.cfi_endproc
                                        # -- End function
	.section	.rodata.cst8,"aM",@progbits,8
	.p2align	3               # -- Begin function XRate.17
.LCPI24_0:
	.quad	4607182418800017408     # double 1
.LCPI24_1:
	.quad	4629700416936869888     # double 32
	.section	.rodata.cst16,"aM",@progbits,16
	.p2align	4
.LCPI24_2:
	.long	1127219200              # 0x43300000
	.long	1160773632              # 0x45300000
	.long	0                       # 0x0
	.long	0                       # 0x0
.LCPI24_3:
	.quad	4841369599423283200     # double 4503599627370496
	.quad	4985484787499139072     # double 1.9342813113834067E+25
	.text
	.globl	XRate.17
	.p2align	4, 0x90
	.type	XRate.17,@function
XRate.17:                               # @XRate.17
	.cfi_startproc
# %bb.0:                                # %entry
	pushq	%rbp
	.cfi_def_cfa_offset 16
	.cfi_offset %rbp, -16
	movq	%rsp, %rbp
	.cfi_def_cfa_register %rbp
	subq	$64, %rsp
	xorl	%eax, %eax
	movl	$1774764524, -36(%rbp)  # imm = 0x69C8C1EC
	movq	%rdi, -24(%rbp)
	movq	%rsi, -56(%rbp)
	vxorps	%xmm0, %xmm0, %xmm0
