	.text
	.file	"context_ini.c"
	.globl	create_context_memory   # -- Begin function create_context_memory
	.p2align	4, 0x90
	.type	create_context_memory,@function
create_context_memory:                  # @create_context_memory
	.cfi_startproc
# %bb.0:                                # %rand_bb
	pushq	%rbp
	.cfi_def_cfa_offset 16
	.cfi_offset %rbp, -16
	movq	%rsp, %rbp
	.cfi_def_cfa_register %rbp
	callq	get_rand
	cmpl	$0, %eax
	jne	.LBB0_9
# %bb.1:                                # %func_create_context_memory.15
	callq	create_context_memory.15
	popq	%rbp
	.cfi_def_cfa %rsp, 8
	retq
.LBB0_2:                                # %func_create_context_memory.22
	.cfi_def_cfa %rbp, 16
	callq	create_context_memory.22
	popq	%rbp
	.cfi_def_cfa %rsp, 8
	retq
.LBB0_3:                                # %func_create_context_memory.28
	.cfi_def_cfa %rbp, 16
	callq	create_context_memory.28
	popq	%rbp
	.cfi_def_cfa %rsp, 8
	retq
.LBB0_4:                                # %func_create_context_memory.32
	.cfi_def_cfa %rbp, 16
	callq	create_context_memory.32
	popq	%rbp
	.cfi_def_cfa %rsp, 8
	retq
.LBB0_5:                                # %func_create_context_memory.41
	.cfi_def_cfa %rbp, 16
	callq	create_context_memory.41
	popq	%rbp
	.cfi_def_cfa %rsp, 8
	retq
.LBB0_6:                                # %func_create_context_memory.43
	.cfi_def_cfa %rbp, 16
	callq	create_context_memory.43
	popq	%rbp
	.cfi_def_cfa %rsp, 8
	retq
.LBB0_7:                                # %func_create_context_memory.47
	.cfi_def_cfa %rbp, 16
	callq	create_context_memory.47
	popq	%rbp
	.cfi_def_cfa %rsp, 8
	retq
.LBB0_8:                                # %func_create_context_memory.51
	.cfi_def_cfa %rbp, 16
	callq	create_context_memory.51
	popq	%rbp
	.cfi_def_cfa %rsp, 8
	retq
.LBB0_9:                                # %ctrl0
	.cfi_def_cfa %rbp, 16
	cmpl	$1, %eax
	je	.LBB0_2
# %bb.10:                               # %ctrl1
	cmpl	$2, %eax
	je	.LBB0_3
# %bb.11:                               # %ctrl2
	cmpl	$3, %eax
	je	.LBB0_4
# %bb.12:                               # %ctrl3
	cmpl	$4, %eax
	je	.LBB0_5
# %bb.13:                               # %ctrl4
	cmpl	$5, %eax
	je	.LBB0_6
# %bb.14:                               # %ctrl5
	cmpl	$6, %eax
	je	.LBB0_7
	jmp	.LBB0_8
.Lfunc_end0:
	.size	create_context_memory, .Lfunc_end0-create_context_memory
	.cfi_endproc
                                        # -- End function
	.globl	free_context_memory     # -- Begin function free_context_memory
	.p2align	4, 0x90
	.type	free_context_memory,@function
free_context_memory:                    # @free_context_memory
	.cfi_startproc
# %bb.0:                                # %rand_bb
	pushq	%rbp
	.cfi_def_cfa_offset 16
	.cfi_offset %rbp, -16
	movq	%rsp, %rbp
	.cfi_def_cfa_register %rbp
	callq	get_rand
	cmpl	$0, %eax
	jne	.LBB1_2
# %bb.1:                                # %func_free_context_memory.10
	callq	free_context_memory.10
	popq	%rbp
	.cfi_def_cfa %rsp, 8
	retq
.LBB1_2:                                # %func_free_context_memory.25
	.cfi_def_cfa %rbp, 16
	callq	free_context_memory.25
	popq	%rbp
	.cfi_def_cfa %rsp, 8
	retq
.Lfunc_end1:
	.size	free_context_memory, .Lfunc_end1-free_context_memory
	.cfi_endproc
                                        # -- End function
	.globl	SetCtxModelNumber       # -- Begin function SetCtxModelNumber
	.p2align	4, 0x90
	.type	SetCtxModelNumber,@function
SetCtxModelNumber:                      # @SetCtxModelNumber
	.cfi_startproc
# %bb.0:                                # %rand_bb
	pushq	%rbp
	.cfi_def_cfa_offset 16
	.cfi_offset %rbp, -16
	movq	%rsp, %rbp
	.cfi_def_cfa_register %rbp
	callq	get_rand
	cmpl	$0, %eax
	jne	.LBB2_7
# %bb.1:                                # %func_SetCtxModelNumber.5
	callq	SetCtxModelNumber.5
	popq	%rbp
	.cfi_def_cfa %rsp, 8
	retq
.LBB2_2:                                # %func_SetCtxModelNumber.13
	.cfi_def_cfa %rbp, 16
	callq	SetCtxModelNumber.13
	popq	%rbp
	.cfi_def_cfa %rsp, 8
	retq
.LBB2_3:                                # %func_SetCtxModelNumber.23
	.cfi_def_cfa %rbp, 16
	callq	SetCtxModelNumber.23
	popq	%rbp
	.cfi_def_cfa %rsp, 8
	retq
.LBB2_4:                                # %func_SetCtxModelNumber.33
	.cfi_def_cfa %rbp, 16
	callq	SetCtxModelNumber.33
	popq	%rbp
	.cfi_def_cfa %rsp, 8
	retq
.LBB2_5:                                # %func_SetCtxModelNumber.36
	.cfi_def_cfa %rbp, 16
	callq	SetCtxModelNumber.36
	popq	%rbp
	.cfi_def_cfa %rsp, 8
	retq
.LBB2_6:                                # %func_SetCtxModelNumber.46
	.cfi_def_cfa %rbp, 16
	callq	SetCtxModelNumber.46
	popq	%rbp
	.cfi_def_cfa %rsp, 8
	retq
.LBB2_7:                                # %ctrl0
	.cfi_def_cfa %rbp, 16
	cmpl	$1, %eax
	je	.LBB2_2
# %bb.8:                                # %ctrl1
	cmpl	$2, %eax
	je	.LBB2_3
# %bb.9:                                # %ctrl2
	cmpl	$3, %eax
	je	.LBB2_4
# %bb.10:                               # %ctrl3
	cmpl	$4, %eax
	je	.LBB2_5
	jmp	.LBB2_6
.Lfunc_end2:
	.size	SetCtxModelNumber, .Lfunc_end2-SetCtxModelNumber
	.cfi_endproc
                                        # -- End function
	.globl	init_contexts           # -- Begin function init_contexts
	.p2align	4, 0x90
	.type	init_contexts,@function
init_contexts:                          # @init_contexts
	.cfi_startproc
# %bb.0:                                # %rand_bb
	pushq	%rbp
	.cfi_def_cfa_offset 16
	.cfi_offset %rbp, -16
	movq	%rsp, %rbp
	.cfi_def_cfa_register %rbp
	callq	get_rand
	cmpl	$0, %eax
	jne	.LBB3_9
# %bb.1:                                # %func_init_contexts.1
	callq	init_contexts.1
	popq	%rbp
	.cfi_def_cfa %rsp, 8
	retq
.LBB3_2:                                # %func_init_contexts.2
	.cfi_def_cfa %rbp, 16
	callq	init_contexts.2
	popq	%rbp
	.cfi_def_cfa %rsp, 8
	retq
.LBB3_3:                                # %func_init_contexts.6
	.cfi_def_cfa %rbp, 16
	callq	init_contexts.6
	popq	%rbp
	.cfi_def_cfa %rsp, 8
	retq
.LBB3_4:                                # %func_init_contexts.7
	.cfi_def_cfa %rbp, 16
	callq	init_contexts.7
	popq	%rbp
	.cfi_def_cfa %rsp, 8
	retq
.LBB3_5:                                # %func_init_contexts.11
	.cfi_def_cfa %rbp, 16
	callq	init_contexts.11
	popq	%rbp
	.cfi_def_cfa %rsp, 8
	retq
.LBB3_6:                                # %func_init_contexts.12
	.cfi_def_cfa %rbp, 16
	callq	init_contexts.12
	popq	%rbp
	.cfi_def_cfa %rsp, 8
	retq
.LBB3_7:                                # %func_init_contexts.34
	.cfi_def_cfa %rbp, 16
	callq	init_contexts.34
	popq	%rbp
	.cfi_def_cfa %rsp, 8
	retq
.LBB3_8:                                # %func_init_contexts.37
	.cfi_def_cfa %rbp, 16
	callq	init_contexts.37
	popq	%rbp
	.cfi_def_cfa %rsp, 8
	retq
.LBB3_9:                                # %ctrl0
	.cfi_def_cfa %rbp, 16
	cmpl	$1, %eax
	je	.LBB3_2
# %bb.10:                               # %ctrl1
	cmpl	$2, %eax
	je	.LBB3_3
# %bb.11:                               # %ctrl2
	cmpl	$3, %eax
	je	.LBB3_4
# %bb.12:                               # %ctrl3
	cmpl	$4, %eax
	je	.LBB3_5
# %bb.13:                               # %ctrl4
	cmpl	$5, %eax
	je	.LBB3_6
# %bb.14:                               # %ctrl5
	cmpl	$6, %eax
	je	.LBB3_7
	jmp	.LBB3_8
.Lfunc_end3:
	.size	init_contexts, .Lfunc_end3-init_contexts
	.cfi_endproc
                                        # -- End function
	.globl	XRate                   # -- Begin function XRate
	.p2align	4, 0x90
	.type	XRate,@function
XRate:                                  # @XRate
	.cfi_startproc
# %bb.0:                                # %rand_bb
	pushq	%rbp
	.cfi_def_cfa_offset 16
	.cfi_offset %rbp, -16
	movq	%rsp, %rbp
	.cfi_def_cfa_register %rbp
	pushq	%r14
	pushq	%rbx
	.cfi_offset %rbx, -32
	.cfi_offset %r14, -24
	movq	%rsi, %r14
	movq	%rdi, %rbx
	callq	get_rand
	cmpl	$0, %eax
	jne	.LBB4_9
# %bb.1:                                # %func_XRate.27
	movq	%rbx, %rdi
	movq	%r14, %rsi
	callq	XRate.27
	popq	%rbx
	popq	%r14
	popq	%rbp
	.cfi_def_cfa %rsp, 8
	retq
.LBB4_2:                                # %func_XRate.31
	.cfi_def_cfa %rbp, 16
	movq	%rbx, %rdi
	movq	%r14, %rsi
	callq	XRate.31
	popq	%rbx
	popq	%r14
	popq	%rbp
	.cfi_def_cfa %rsp, 8
	retq
.LBB4_3:                                # %func_XRate.38
	.cfi_def_cfa %rbp, 16
	movq	%rbx, %rdi
	movq	%r14, %rsi
	callq	XRate.38
	popq	%rbx
	popq	%r14
	popq	%rbp
	.cfi_def_cfa %rsp, 8
	retq
.LBB4_4:                                # %func_XRate.39
	.cfi_def_cfa %rbp, 16
	movq	%rbx, %rdi
	movq	%r14, %rsi
	callq	XRate.39
	popq	%rbx
	popq	%r14
	popq	%rbp
	.cfi_def_cfa %rsp, 8
	retq
.LBB4_5:                                # %func_XRate.42
	.cfi_def_cfa %rbp, 16
	movq	%rbx, %rdi
	movq	%r14, %rsi
	callq	XRate.42
	popq	%rbx
	popq	%r14
	popq	%rbp
	.cfi_def_cfa %rsp, 8
	retq
.LBB4_6:                                # %func_XRate.49
	.cfi_def_cfa %rbp, 16
	movq	%rbx, %rdi
	movq	%r14, %rsi
	callq	XRate.49
	popq	%rbx
	popq	%r14
	popq	%rbp
	.cfi_def_cfa %rsp, 8
	retq
.LBB4_7:                                # %func_XRate.50
	.cfi_def_cfa %rbp, 16
	movq	%rbx, %rdi
	movq	%r14, %rsi
	callq	XRate.50
	popq	%rbx
	popq	%r14
	popq	%rbp
	.cfi_def_cfa %rsp, 8
	retq
.LBB4_8:                                # %func_XRate.52
	.cfi_def_cfa %rbp, 16
	movq	%rbx, %rdi
	movq	%r14, %rsi
	callq	XRate.52
	popq	%rbx
	popq	%r14
	popq	%rbp
	.cfi_def_cfa %rsp, 8
	retq
.LBB4_9:                                # %ctrl0
	.cfi_def_cfa %rbp, 16
	cmpl	$1, %eax
	je	.LBB4_2
# %bb.10:                               # %ctrl1
	cmpl	$2, %eax
	je	.LBB4_3
# %bb.11:                               # %ctrl2
	cmpl	$3, %eax
	je	.LBB4_4
# %bb.12:                               # %ctrl3
	cmpl	$4, %eax
	je	.LBB4_5
# %bb.13:                               # %ctrl4
	cmpl	$5, %eax
	je	.LBB4_6
# %bb.14:                               # %ctrl5
	cmpl	$6, %eax
	je	.LBB4_7
	jmp	.LBB4_8
.Lfunc_end4:
	.size	XRate, .Lfunc_end4-XRate
	.cfi_endproc
                                        # -- End function
	.globl	GetCtxModelNumber       # -- Begin function GetCtxModelNumber
	.p2align	4, 0x90
	.type	GetCtxModelNumber,@function
GetCtxModelNumber:                      # @GetCtxModelNumber
	.cfi_startproc
# %bb.0:                                # %rand_bb
	pushq	%rbp
	.cfi_def_cfa_offset 16
	.cfi_offset %rbp, -16
	movq	%rsp, %rbp
	.cfi_def_cfa_register %rbp
	pushq	%r15
	pushq	%r14
	pushq	%rbx
	pushq	%rax
	.cfi_offset %rbx, -40
	.cfi_offset %r14, -32
	.cfi_offset %r15, -24
	movq	%rdx, %r14
	movq	%rsi, %r15
	movq	%rdi, %rbx
	callq	get_rand
	cmpl	$0, %eax
	jne	.LBB5_9
# %bb.1:                                # %func_GetCtxModelNumber.8
	movq	%rbx, %rdi
	movq	%r15, %rsi
	movq	%r14, %rdx
	callq	GetCtxModelNumber.8
	addq	$8, %rsp
	popq	%rbx
	popq	%r14
	popq	%r15
	popq	%rbp
	.cfi_def_cfa %rsp, 8
	retq
.LBB5_2:                                # %func_GetCtxModelNumber.9
	.cfi_def_cfa %rbp, 16
	movq	%rbx, %rdi
	movq	%r15, %rsi
	movq	%r14, %rdx
	callq	GetCtxModelNumber.9
	addq	$8, %rsp
	popq	%rbx
	popq	%r14
	popq	%r15
	popq	%rbp
	.cfi_def_cfa %rsp, 8
	retq
.LBB5_3:                                # %func_GetCtxModelNumber.14
	.cfi_def_cfa %rbp, 16
	movq	%rbx, %rdi
	movq	%r15, %rsi
	movq	%r14, %rdx
	callq	GetCtxModelNumber.14
	addq	$8, %rsp
	popq	%rbx
	popq	%r14
	popq	%r15
	popq	%rbp
	.cfi_def_cfa %rsp, 8
	retq
.LBB5_4:                                # %func_GetCtxModelNumber.29
	.cfi_def_cfa %rbp, 16
	movq	%rbx, %rdi
	movq	%r15, %rsi
	movq	%r14, %rdx
	callq	GetCtxModelNumber.29
	addq	$8, %rsp
	popq	%rbx
	popq	%r14
	popq	%r15
	popq	%rbp
	.cfi_def_cfa %rsp, 8
	retq
.LBB5_5:                                # %func_GetCtxModelNumber.40
	.cfi_def_cfa %rbp, 16
	movq	%rbx, %rdi
	movq	%r15, %rsi
	movq	%r14, %rdx
	callq	GetCtxModelNumber.40
	addq	$8, %rsp
	popq	%rbx
	popq	%r14
	popq	%r15
	popq	%rbp
	.cfi_def_cfa %rsp, 8
	retq
.LBB5_6:                                # %func_GetCtxModelNumber.44
	.cfi_def_cfa %rbp, 16
	movq	%rbx, %rdi
	movq	%r15, %rsi
	movq	%r14, %rdx
	callq	GetCtxModelNumber.44
	addq	$8, %rsp
	popq	%rbx
	popq	%r14
	popq	%r15
	popq	%rbp
	.cfi_def_cfa %rsp, 8
	retq
.LBB5_7:                                # %func_GetCtxModelNumber.45
	.cfi_def_cfa %rbp, 16
	movq	%rbx, %rdi
	movq	%r15, %rsi
	movq	%r14, %rdx
	callq	GetCtxModelNumber.45
	addq	$8, %rsp
	popq	%rbx
	popq	%r14
	popq	%r15
	popq	%rbp
	.cfi_def_cfa %rsp, 8
	retq
.LBB5_8:                                # %func_GetCtxModelNumber.48
	.cfi_def_cfa %rbp, 16
	movq	%rbx, %rdi
	movq	%r15, %rsi
	movq	%r14, %rdx
	callq	GetCtxModelNumber.48
	addq	$8, %rsp
	popq	%rbx
	popq	%r14
	popq	%r15
	popq	%rbp
	.cfi_def_cfa %rsp, 8
	retq
.LBB5_9:                                # %ctrl0
	.cfi_def_cfa %rbp, 16
	cmpl	$1, %eax
	je	.LBB5_2
# %bb.10:                               # %ctrl1
	cmpl	$2, %eax
	je	.LBB5_3
# %bb.11:                               # %ctrl2
	cmpl	$3, %eax
	je	.LBB5_4
# %bb.12:                               # %ctrl3
	cmpl	$4, %eax
	je	.LBB5_5
# %bb.13:                               # %ctrl4
	cmpl	$5, %eax
	je	.LBB5_6
# %bb.14:                               # %ctrl5
	cmpl	$6, %eax
	je	.LBB5_7
	jmp	.LBB5_8
.Lfunc_end5:
	.size	GetCtxModelNumber, .Lfunc_end5-GetCtxModelNumber
	.cfi_endproc
                                        # -- End function
	.globl	store_contexts          # -- Begin function store_contexts
	.p2align	4, 0x90
	.type	store_contexts,@function
store_contexts:                         # @store_contexts
	.cfi_startproc
# %bb.0:                                # %rand_bb
	pushq	%rbp
	.cfi_def_cfa_offset 16
	.cfi_offset %rbp, -16
	movq	%rsp, %rbp
	.cfi_def_cfa_register %rbp
	callq	get_rand
	cmpl	$0, %eax
	jne	.LBB6_7
# %bb.1:                                # %func_store_contexts.3
	callq	store_contexts.3
	popq	%rbp
	.cfi_def_cfa %rsp, 8
	retq
.LBB6_2:                                # %func_store_contexts.21
	.cfi_def_cfa %rbp, 16
	callq	store_contexts.21
	popq	%rbp
	.cfi_def_cfa %rsp, 8
	retq
.LBB6_3:                                # %func_store_contexts.24
	.cfi_def_cfa %rbp, 16
	callq	store_contexts.24
	popq	%rbp
	.cfi_def_cfa %rsp, 8
	retq
.LBB6_4:                                # %func_store_contexts.26
	.cfi_def_cfa %rbp, 16
	callq	store_contexts.26
	popq	%rbp
	.cfi_def_cfa %rsp, 8
	retq
.LBB6_5:                                # %func_store_contexts.30
	.cfi_def_cfa %rbp, 16
	callq	store_contexts.30
	popq	%rbp
	.cfi_def_cfa %rsp, 8
	retq
.LBB6_6:                                # %func_store_contexts.35
	.cfi_def_cfa %rbp, 16
	callq	store_contexts.35
	popq	%rbp
	.cfi_def_cfa %rsp, 8
	retq
.LBB6_7:                                # %ctrl0
	.cfi_def_cfa %rbp, 16
	cmpl	$1, %eax
	je	.LBB6_2
# %bb.8:                                # %ctrl1
	cmpl	$2, %eax
	je	.LBB6_3
# %bb.9:                                # %ctrl2
	cmpl	$3, %eax
	je	.LBB6_4
# %bb.10:                               # %ctrl3
	cmpl	$4, %eax
	je	.LBB6_5
	jmp	.LBB6_6
.Lfunc_end6:
	.size	store_contexts, .Lfunc_end6-store_contexts
	.cfi_endproc
                                        # -- End function
	.globl	update_field_frame_contexts # -- Begin function update_field_frame_contexts
	.p2align	4, 0x90
	.type	update_field_frame_contexts,@function
update_field_frame_contexts:            # @update_field_frame_contexts
	.cfi_startproc
# %bb.0:                                # %rand_bb
	pushq	%rbp
	.cfi_def_cfa_offset 16
	.cfi_offset %rbp, -16
	movq	%rsp, %rbp
	.cfi_def_cfa_register %rbp
	pushq	%rbx
	pushq	%rax
	.cfi_offset %rbx, -24
	movl	%edi, %ebx
	callq	get_rand
	cmpl	$0, %eax
	jne	.LBB7_7
# %bb.1:                                # %func_update_field_frame_contexts.4
	movl	%ebx, %edi
	callq	update_field_frame_contexts.4
	addq	$8, %rsp
	popq	%rbx
	popq	%rbp
	.cfi_def_cfa %rsp, 8
	retq
.LBB7_2:                                # %func_update_field_frame_contexts.16
	.cfi_def_cfa %rbp, 16
	movl	%ebx, %edi
	callq	update_field_frame_contexts.16
	addq	$8, %rsp
	popq	%rbx
	popq	%rbp
	.cfi_def_cfa %rsp, 8
	retq
.LBB7_3:                                # %func_update_field_frame_contexts.17
	.cfi_def_cfa %rbp, 16
	movl	%ebx, %edi
	callq	update_field_frame_contexts.17
	addq	$8, %rsp
	popq	%rbx
	popq	%rbp
	.cfi_def_cfa %rsp, 8
	retq
.LBB7_4:                                # %func_update_field_frame_contexts.18
	.cfi_def_cfa %rbp, 16
	movl	%ebx, %edi
	callq	update_field_frame_contexts.18
	addq	$8, %rsp
	popq	%rbx
	popq	%rbp
	.cfi_def_cfa %rsp, 8
	retq
.LBB7_5:                                # %func_update_field_frame_contexts.19
	.cfi_def_cfa %rbp, 16
	movl	%ebx, %edi
	callq	update_field_frame_contexts.19
	addq	$8, %rsp
	popq	%rbx
	popq	%rbp
	.cfi_def_cfa %rsp, 8
	retq
.LBB7_6:                                # %func_update_field_frame_contexts.20
	.cfi_def_cfa %rbp, 16
	movl	%ebx, %edi
	callq	update_field_frame_contexts.20
	addq	$8, %rsp
	popq	%rbx
	popq	%rbp
	.cfi_def_cfa %rsp, 8
	retq
.LBB7_7:                                # %ctrl0
	.cfi_def_cfa %rbp, 16
	cmpl	$1, %eax
	je	.LBB7_2
# %bb.8:                                # %ctrl1
	cmpl	$2, %eax
	je	.LBB7_3
# %bb.9:                                # %ctrl2
	cmpl	$3, %eax
	je	.LBB7_4
# %bb.10:                               # %ctrl3
	cmpl	$4, %eax
	je	.LBB7_5
	jmp	.LBB7_6
.Lfunc_end7:
	.size	update_field_frame_contexts, .Lfunc_end7-update_field_frame_contexts
	.cfi_endproc
                                        # -- End function
	.globl	init_contexts.1         # -- Begin function init_contexts.1
	.p2align	4, 0x90
	.type	init_contexts.1,@function
init_contexts.1:                        # @init_contexts.1
	.cfi_startproc
# %bb.0:                                # %entry
	pushq	%rbp
	.cfi_def_cfa_offset 16
	.cfi_offset %rbp, -16
	movq	%rsp, %rbp
	.cfi_def_cfa_register %rbp
	subq	$32, %rsp
	movl	$1727559106, -28(%rbp)  # imm = 0x66F875C2
	movq	img, %rax
	movq	14160(%rax), %rax
	movq	32(%rax), %rax
	movq	%rax, -24(%rbp)
	movq	img, %rax
	movq	14160(%rax), %rax
	movq	40(%rax), %rax
	movq	%rax, -16(%rbp)
	movl	$0, -8(%rbp)
.LBB8_1:                                # %for.cond
                                        # =>This Loop Header: Depth=1
                                        #     Child Loop BB8_3 Depth 2
	cmpl	$3, -8(%rbp)
	jge	.LBB8_11
# %bb.2:                                # %for.body
                                        #   in Loop: Header=BB8_1 Depth=1
	movl	$0, -4(%rbp)
.LBB8_3:                                # %for.cond2
                                        #   Parent Loop BB8_1 Depth=1
                                        # =>  This Inner Loop Header: Depth=2
	cmpl	$11, -4(%rbp)
	jge	.LBB8_9
# %bb.4:                                # %for.body4
                                        #   in Loop: Header=BB8_3 Depth=2
	movq	img, %rax
	cmpl	$2, 24(%rax)
	jne	.LBB8_6
# %bb.5:                                # %if.then
                                        #   in Loop: Header=BB8_3 Depth=2
	movq	-24(%rbp), %rdi
	movslq	-8(%rbp), %rax
	imulq	$176, %rax, %rax
	addq	%rax, %rdi
	movslq	-4(%rbp), %rax
	shlq	$4, %rax
	addq	%rax, %rdi
	movq	img, %rax
	movslq	72520(%rax), %rax
	imulq	$264, %rax, %rax        # imm = 0x108
	movabsq	$INIT_MB_TYPE_I, %rsi
	addq	%rax, %rsi
	movslq	-8(%rbp), %rax
	imulq	$88, %rax, %rax
	addq	%rax, %rsi
	movslq	-4(%rbp), %rax
	shlq	$3, %rax
	addq	%rax, %rsi
	callq	biari_init_context
	jmp	.LBB8_7
.LBB8_6:                                # %if.else
                                        #   in Loop: Header=BB8_3 Depth=2
	movq	-24(%rbp), %rdi
	movslq	-8(%rbp), %rax
	imulq	$176, %rax, %rax
	addq	%rax, %rdi
	movslq	-4(%rbp), %rax
	shlq	$4, %rax
	addq	%rax, %rdi
	movq	img, %rax
	movslq	72520(%rax), %rax
	imulq	$264, %rax, %rax        # imm = 0x108
	movabsq	$INIT_MB_TYPE_P, %rsi
	addq	%rax, %rsi
	movslq	-8(%rbp), %rax
	imulq	$88, %rax, %rax
	addq	%rax, %rsi
	movslq	-4(%rbp), %rax
	shlq	$3, %rax
	addq	%rax, %rsi
	callq	biari_init_context
.LBB8_7:                                # %if.end
                                        #   in Loop: Header=BB8_3 Depth=2
	jmp	.LBB8_8
.LBB8_8:                                # %for.inc
                                        #   in Loop: Header=BB8_3 Depth=2
	movl	-4(%rbp), %eax
	addl	$1, %eax
	movl	%eax, -4(%rbp)
	jmp	.LBB8_3
.LBB8_9:                                # %for.end
                                        #   in Loop: Header=BB8_1 Depth=1
	jmp	.LBB8_10
.LBB8_10:                               # %for.inc28
                                        #   in Loop: Header=BB8_1 Depth=1
	movl	-8(%rbp), %eax
	addl	$1, %eax
	movl	%eax, -8(%rbp)
	jmp	.LBB8_1
.LBB8_11:                               # %for.end30
	movl	$0, -8(%rbp)
.LBB8_12:                               # %for.cond31
                                        # =>This Loop Header: Depth=1
                                        #     Child Loop BB8_14 Depth 2
	cmpl	$2, -8(%rbp)
	jge	.LBB8_22
# %bb.13:                               # %for.body33
                                        #   in Loop: Header=BB8_12 Depth=1
	movl	$0, -4(%rbp)
.LBB8_14:                               # %for.cond34
                                        #   Parent Loop BB8_12 Depth=1
                                        # =>  This Inner Loop Header: Depth=2
	cmpl	$9, -4(%rbp)
	jge	.LBB8_20
# %bb.15:                               # %for.body36
                                        #   in Loop: Header=BB8_14 Depth=2
	movq	img, %rax
	cmpl	$2, 24(%rax)
	jne	.LBB8_17
# %bb.16:                               # %if.then39
                                        #   in Loop: Header=BB8_14 Depth=2
	movq	-24(%rbp), %rdi
	addq	$528, %rdi              # imm = 0x210
	movslq	-8(%rbp), %rax
	imulq	$144, %rax, %rax
	addq	%rax, %rdi
	movslq	-4(%rbp), %rax
	shlq	$4, %rax
	addq	%rax, %rdi
	movq	img, %rax
	movslq	72520(%rax), %rax
	imulq	$144, %rax, %rax
	movabsq	$INIT_B8_TYPE_I, %rsi
	addq	%rax, %rsi
	movslq	-8(%rbp), %rax
	imulq	$72, %rax, %rax
	addq	%rax, %rsi
	movslq	-4(%rbp), %rax
	shlq	$3, %rax
	addq	%rax, %rsi
	callq	biari_init_context
	jmp	.LBB8_18
.LBB8_17:                               # %if.else52
                                        #   in Loop: Header=BB8_14 Depth=2
	movq	-24(%rbp), %rdi
	addq	$528, %rdi              # imm = 0x210
	movslq	-8(%rbp), %rax
	imulq	$144, %rax, %rax
	addq	%rax, %rdi
	movslq	-4(%rbp), %rax
	shlq	$4, %rax
	addq	%rax, %rdi
	movq	img, %rax
	movslq	72520(%rax), %rax
	imulq	$144, %rax, %rax
	movabsq	$INIT_B8_TYPE_P, %rsi
	addq	%rax, %rsi
	movslq	-8(%rbp), %rax
	imulq	$72, %rax, %rax
	addq	%rax, %rsi
	movslq	-4(%rbp), %rax
	shlq	$3, %rax
	addq	%rax, %rsi
	callq	biari_init_context
.LBB8_18:                               # %if.end66
                                        #   in Loop: Header=BB8_14 Depth=2
	jmp	.LBB8_19
.LBB8_19:                               # %for.inc67
                                        #   in Loop: Header=BB8_14 Depth=2
	movl	-4(%rbp), %eax
	addl	$1, %eax
	movl	%eax, -4(%rbp)
	jmp	.LBB8_14
.LBB8_20:                               # %for.end69
                                        #   in Loop: Header=BB8_12 Depth=1
	jmp	.LBB8_21
.LBB8_21:                               # %for.inc70
                                        #   in Loop: Header=BB8_12 Depth=1
	movl	-8(%rbp), %eax
	addl	$1, %eax
	movl	%eax, -8(%rbp)
	jmp	.LBB8_12
.LBB8_22:                               # %for.end72
	movl	$0, -8(%rbp)
.LBB8_23:                               # %for.cond73
                                        # =>This Loop Header: Depth=1
                                        #     Child Loop BB8_25 Depth 2
	cmpl	$2, -8(%rbp)
	jge	.LBB8_33
# %bb.24:                               # %for.body75
                                        #   in Loop: Header=BB8_23 Depth=1
	movl	$0, -4(%rbp)
.LBB8_25:                               # %for.cond76
                                        #   Parent Loop BB8_23 Depth=1
                                        # =>  This Inner Loop Header: Depth=2
	cmpl	$10, -4(%rbp)
	jge	.LBB8_31
# %bb.26:                               # %for.body78
                                        #   in Loop: Header=BB8_25 Depth=2
	movq	img, %rax
	cmpl	$2, 24(%rax)
	jne	.LBB8_28
# %bb.27:                               # %if.then81
                                        #   in Loop: Header=BB8_25 Depth=2
	movq	-24(%rbp), %rdi
	addq	$816, %rdi              # imm = 0x330
	movslq	-8(%rbp), %rax
	imulq	$160, %rax, %rax
	addq	%rax, %rdi
	movslq	-4(%rbp), %rax
	shlq	$4, %rax
	addq	%rax, %rdi
	movq	img, %rax
	movslq	72520(%rax), %rax
	imulq	$160, %rax, %rax
	movabsq	$INIT_MV_RES_I, %rsi
	addq	%rax, %rsi
	movslq	-8(%rbp), %rax
	imulq	$80, %rax, %rax
	addq	%rax, %rsi
	movslq	-4(%rbp), %rax
	shlq	$3, %rax
	addq	%rax, %rsi
	callq	biari_init_context
	jmp	.LBB8_29
.LBB8_28:                               # %if.else94
                                        #   in Loop: Header=BB8_25 Depth=2
	movq	-24(%rbp), %rdi
	addq	$816, %rdi              # imm = 0x330
	movslq	-8(%rbp), %rax
	imulq	$160, %rax, %rax
	addq	%rax, %rdi
	movslq	-4(%rbp), %rax
	shlq	$4, %rax
	addq	%rax, %rdi
	movq	img, %rax
	movslq	72520(%rax), %rax
	imulq	$160, %rax, %rax
	movabsq	$INIT_MV_RES_P, %rsi
	addq	%rax, %rsi
	movslq	-8(%rbp), %rax
	imulq	$80, %rax, %rax
	addq	%rax, %rsi
	movslq	-4(%rbp), %rax
	shlq	$3, %rax
	addq	%rax, %rsi
	callq	biari_init_context
.LBB8_29:                               # %if.end108
                                        #   in Loop: Header=BB8_25 Depth=2
	jmp	.LBB8_30
.LBB8_30:                               # %for.inc109
                                        #   in Loop: Header=BB8_25 Depth=2
	movl	-4(%rbp), %eax
	addl	$1, %eax
	movl	%eax, -4(%rbp)
	jmp	.LBB8_25
.LBB8_31:                               # %for.end111
                                        #   in Loop: Header=BB8_23 Depth=1
	jmp	.LBB8_32
.LBB8_32:                               # %for.inc112
                                        #   in Loop: Header=BB8_23 Depth=1
	movl	-8(%rbp), %eax
	addl	$1, %eax
	movl	%eax, -8(%rbp)
	jmp	.LBB8_23
.LBB8_33:                               # %for.end114
	movl	$0, -8(%rbp)
.LBB8_34:                               # %for.cond115
                                        # =>This Loop Header: Depth=1
                                        #     Child Loop BB8_36 Depth 2
	cmpl	$2, -8(%rbp)
	jge	.LBB8_44
# %bb.35:                               # %for.body117
                                        #   in Loop: Header=BB8_34 Depth=1
	movl	$0, -4(%rbp)
.LBB8_36:                               # %for.cond118
                                        #   Parent Loop BB8_34 Depth=1
                                        # =>  This Inner Loop Header: Depth=2
	cmpl	$6, -4(%rbp)
	jge	.LBB8_42
# %bb.37:                               # %for.body120
                                        #   in Loop: Header=BB8_36 Depth=2
	movq	img, %rax
	cmpl	$2, 24(%rax)
	jne	.LBB8_39
# %bb.38:                               # %if.then123
                                        #   in Loop: Header=BB8_36 Depth=2
	movq	-24(%rbp), %rdi
	addq	$1136, %rdi             # imm = 0x470
	movslq	-8(%rbp), %rax
	imulq	$96, %rax, %rax
	addq	%rax, %rdi
	movslq	-4(%rbp), %rax
	shlq	$4, %rax
	addq	%rax, %rdi
	movq	img, %rax
	movslq	72520(%rax), %rax
	imulq	$96, %rax, %rax
	movabsq	$INIT_REF_NO_I, %rsi
	addq	%rax, %rsi
	movslq	-8(%rbp), %rax
	imulq	$48, %rax, %rax
	addq	%rax, %rsi
	movslq	-4(%rbp), %rax
	shlq	$3, %rax
	addq	%rax, %rsi
	callq	biari_init_context
	jmp	.LBB8_40
.LBB8_39:                               # %if.else136
                                        #   in Loop: Header=BB8_36 Depth=2
	movq	-24(%rbp), %rdi
	addq	$1136, %rdi             # imm = 0x470
	movslq	-8(%rbp), %rax
	imulq	$96, %rax, %rax
	addq	%rax, %rdi
	movslq	-4(%rbp), %rax
	shlq	$4, %rax
	addq	%rax, %rdi
	movq	img, %rax
	movslq	72520(%rax), %rax
	imulq	$96, %rax, %rax
	movabsq	$INIT_REF_NO_P, %rsi
	addq	%rax, %rsi
	movslq	-8(%rbp), %rax
	imulq	$48, %rax, %rax
	addq	%rax, %rsi
	movslq	-4(%rbp), %rax
	shlq	$3, %rax
	addq	%rax, %rsi
	callq	biari_init_context
.LBB8_40:                               # %if.end150
                                        #   in Loop: Header=BB8_36 Depth=2
	jmp	.LBB8_41
.LBB8_41:                               # %for.inc151
                                        #   in Loop: Header=BB8_36 Depth=2
	movl	-4(%rbp), %eax
	addl	$1, %eax
	movl	%eax, -4(%rbp)
	jmp	.LBB8_36
.LBB8_42:                               # %for.end153
                                        #   in Loop: Header=BB8_34 Depth=1
	jmp	.LBB8_43
.LBB8_43:                               # %for.inc154
                                        #   in Loop: Header=BB8_34 Depth=1
	movl	-8(%rbp), %eax
	addl	$1, %eax
	movl	%eax, -8(%rbp)
	jmp	.LBB8_34
.LBB8_44:                               # %for.end156
	movl	$0, -4(%rbp)
.LBB8_45:                               # %for.cond157
                                        # =>This Inner Loop Header: Depth=1
	cmpl	$4, -4(%rbp)
	jge	.LBB8_51
# %bb.46:                               # %for.body159
                                        #   in Loop: Header=BB8_45 Depth=1
	movq	img, %rax
	cmpl	$2, 24(%rax)
	jne	.LBB8_48
# %bb.47:                               # %if.then162
                                        #   in Loop: Header=BB8_45 Depth=1
	movq	-24(%rbp), %rdi
	addq	$1328, %rdi             # imm = 0x530
	movslq	-4(%rbp), %rax
	shlq	$4, %rax
	addq	%rax, %rdi
	movq	img, %rax
	movslq	72520(%rax), %rax
	shlq	$5, %rax
	movabsq	$INIT_DELTA_QP_I, %rsi
	addq	%rax, %rsi
	movslq	-4(%rbp), %rax
	shlq	$3, %rax
	addq	%rax, %rsi
	callq	biari_init_context
	jmp	.LBB8_49
.LBB8_48:                               # %if.else172
                                        #   in Loop: Header=BB8_45 Depth=1
	movq	-24(%rbp), %rdi
	addq	$1328, %rdi             # imm = 0x530
	movslq	-4(%rbp), %rax
	shlq	$4, %rax
	addq	%rax, %rdi
	movq	img, %rax
	movslq	72520(%rax), %rax
	shlq	$5, %rax
	movabsq	$INIT_DELTA_QP_P, %rsi
	addq	%rax, %rsi
	movslq	-4(%rbp), %rax
	shlq	$3, %rax
	addq	%rax, %rsi
	callq	biari_init_context
.LBB8_49:                               # %if.end183
                                        #   in Loop: Header=BB8_45 Depth=1
	jmp	.LBB8_50
.LBB8_50:                               # %for.inc184
                                        #   in Loop: Header=BB8_45 Depth=1
	movl	-4(%rbp), %eax
	addl	$1, %eax
	movl	%eax, -4(%rbp)
	jmp	.LBB8_45
.LBB8_51:                               # %for.end186
	movl	$0, -4(%rbp)
.LBB8_52:                               # %for.cond187
                                        # =>This Inner Loop Header: Depth=1
	cmpl	$4, -4(%rbp)
	jge	.LBB8_58
# %bb.53:                               # %for.body189
                                        #   in Loop: Header=BB8_52 Depth=1
	movq	img, %rax
	cmpl	$2, 24(%rax)
	jne	.LBB8_55
# %bb.54:                               # %if.then192
                                        #   in Loop: Header=BB8_52 Depth=1
	movq	-24(%rbp), %rdi
	addq	$1392, %rdi             # imm = 0x570
	movslq	-4(%rbp), %rax
	shlq	$4, %rax
	addq	%rax, %rdi
	movq	img, %rax
	movslq	72520(%rax), %rax
	shlq	$5, %rax
	movabsq	$INIT_MB_AFF_I, %rsi
	addq	%rax, %rsi
	movslq	-4(%rbp), %rax
	shlq	$3, %rax
	addq	%rax, %rsi
	callq	biari_init_context
	jmp	.LBB8_56
.LBB8_55:                               # %if.else202
                                        #   in Loop: Header=BB8_52 Depth=1
	movq	-24(%rbp), %rdi
	addq	$1392, %rdi             # imm = 0x570
	movslq	-4(%rbp), %rax
	shlq	$4, %rax
	addq	%rax, %rdi
	movq	img, %rax
	movslq	72520(%rax), %rax
	shlq	$5, %rax
	movabsq	$INIT_MB_AFF_P, %rsi
	addq	%rax, %rsi
	movslq	-4(%rbp), %rax
	shlq	$3, %rax
	addq	%rax, %rsi
	callq	biari_init_context
.LBB8_56:                               # %if.end213
                                        #   in Loop: Header=BB8_52 Depth=1
	jmp	.LBB8_57
.LBB8_57:                               # %for.inc214
                                        #   in Loop: Header=BB8_52 Depth=1
	movl	-4(%rbp), %eax
	addl	$1, %eax
	movl	%eax, -4(%rbp)
	jmp	.LBB8_52
.LBB8_58:                               # %for.end216
	movl	$0, -4(%rbp)
.LBB8_59:                               # %for.cond217
                                        # =>This Inner Loop Header: Depth=1
	cmpl	$3, -4(%rbp)
	jge	.LBB8_65
# %bb.60:                               # %for.body219
                                        #   in Loop: Header=BB8_59 Depth=1
	movq	img, %rax
	cmpl	$2, 24(%rax)
	jne	.LBB8_62
# %bb.61:                               # %if.then222
                                        #   in Loop: Header=BB8_59 Depth=1
	movq	-24(%rbp), %rdi
	addq	$1456, %rdi             # imm = 0x5B0
	movslq	-4(%rbp), %rax
	shlq	$4, %rax
	addq	%rax, %rdi
	movq	img, %rax
	movslq	72520(%rax), %rax
	imulq	$24, %rax, %rax
	movabsq	$INIT_TRANSFORM_SIZE_I, %rsi
	addq	%rax, %rsi
	movslq	-4(%rbp), %rax
	shlq	$3, %rax
	addq	%rax, %rsi
	callq	biari_init_context
	jmp	.LBB8_63
.LBB8_62:                               # %if.else232
                                        #   in Loop: Header=BB8_59 Depth=1
	movq	-24(%rbp), %rdi
	addq	$1456, %rdi             # imm = 0x5B0
	movslq	-4(%rbp), %rax
	shlq	$4, %rax
	addq	%rax, %rdi
	movq	img, %rax
	movslq	72520(%rax), %rax
	imulq	$24, %rax, %rax
	movabsq	$INIT_TRANSFORM_SIZE_P, %rsi
	addq	%rax, %rsi
	movslq	-4(%rbp), %rax
	shlq	$3, %rax
	addq	%rax, %rsi
	callq	biari_init_context
.LBB8_63:                               # %if.end243
                                        #   in Loop: Header=BB8_59 Depth=1
	jmp	.LBB8_64
.LBB8_64:                               # %for.inc244
                                        #   in Loop: Header=BB8_59 Depth=1
	movl	-4(%rbp), %eax
	addl	$1, %eax
	movl	%eax, -4(%rbp)
	jmp	.LBB8_59
.LBB8_65:                               # %for.end246
	movl	$0, -4(%rbp)
.LBB8_66:                               # %for.cond247
                                        # =>This Inner Loop Header: Depth=1
	cmpl	$2, -4(%rbp)
	jge	.LBB8_72
# %bb.67:                               # %for.body249
                                        #   in Loop: Header=BB8_66 Depth=1
	movq	img, %rax
	cmpl	$2, 24(%rax)
	jne	.LBB8_69
# %bb.68:                               # %if.then252
                                        #   in Loop: Header=BB8_66 Depth=1
	movq	-16(%rbp), %rdi
	movslq	-4(%rbp), %rax
	shlq	$4, %rax
	addq	%rax, %rdi
	movq	img, %rax
	movslq	72520(%rax), %rax
	shlq	$4, %rax
	movabsq	$INIT_IPR_I, %rsi
	addq	%rax, %rsi
	movslq	-4(%rbp), %rax
	shlq	$3, %rax
	addq	%rax, %rsi
	callq	biari_init_context
	jmp	.LBB8_70
.LBB8_69:                               # %if.else262
                                        #   in Loop: Header=BB8_66 Depth=1
	movq	-16(%rbp), %rdi
	movslq	-4(%rbp), %rax
	shlq	$4, %rax
	addq	%rax, %rdi
	movq	img, %rax
	movslq	72520(%rax), %rax
	shlq	$4, %rax
	movabsq	$INIT_IPR_P, %rsi
	addq	%rax, %rsi
	movslq	-4(%rbp), %rax
	shlq	$3, %rax
	addq	%rax, %rsi
	callq	biari_init_context
.LBB8_70:                               # %if.end273
                                        #   in Loop: Header=BB8_66 Depth=1
	jmp	.LBB8_71
.LBB8_71:                               # %for.inc274
                                        #   in Loop: Header=BB8_66 Depth=1
	movl	-4(%rbp), %eax
	addl	$1, %eax
	movl	%eax, -4(%rbp)
	jmp	.LBB8_66
.LBB8_72:                               # %for.end276
	movl	$0, -4(%rbp)
.LBB8_73:                               # %for.cond277
                                        # =>This Inner Loop Header: Depth=1
	cmpl	$4, -4(%rbp)
	jge	.LBB8_79
# %bb.74:                               # %for.body279
                                        #   in Loop: Header=BB8_73 Depth=1
	movq	img, %rax
	cmpl	$2, 24(%rax)
	jne	.LBB8_76
# %bb.75:                               # %if.then282
                                        #   in Loop: Header=BB8_73 Depth=1
	movq	-16(%rbp), %rdi
	addq	$32, %rdi
	movslq	-4(%rbp), %rax
	shlq	$4, %rax
	addq	%rax, %rdi
	movq	img, %rax
	movslq	72520(%rax), %rax
	shlq	$5, %rax
	movabsq	$INIT_CIPR_I, %rsi
	addq	%rax, %rsi
	movslq	-4(%rbp), %rax
	shlq	$3, %rax
	addq	%rax, %rsi
	callq	biari_init_context
	jmp	.LBB8_77
.LBB8_76:                               # %if.else292
                                        #   in Loop: Header=BB8_73 Depth=1
	movq	-16(%rbp), %rdi
	addq	$32, %rdi
	movslq	-4(%rbp), %rax
	shlq	$4, %rax
	addq	%rax, %rdi
	movq	img, %rax
	movslq	72520(%rax), %rax
	shlq	$5, %rax
	movabsq	$INIT_CIPR_P, %rsi
	addq	%rax, %rsi
	movslq	-4(%rbp), %rax
	shlq	$3, %rax
	addq	%rax, %rsi
	callq	biari_init_context
.LBB8_77:                               # %if.end303
                                        #   in Loop: Header=BB8_73 Depth=1
	jmp	.LBB8_78
.LBB8_78:                               # %for.inc304
                                        #   in Loop: Header=BB8_73 Depth=1
	movl	-4(%rbp), %eax
	addl	$1, %eax
	movl	%eax, -4(%rbp)
	jmp	.LBB8_73
.LBB8_79:                               # %for.end306
	movl	$0, -8(%rbp)
.LBB8_80:                               # %for.cond307
                                        # =>This Loop Header: Depth=1
                                        #     Child Loop BB8_82 Depth 2
	cmpl	$3, -8(%rbp)
	jge	.LBB8_90
# %bb.81:                               # %for.body309
                                        #   in Loop: Header=BB8_80 Depth=1
	movl	$0, -4(%rbp)
.LBB8_82:                               # %for.cond310
                                        #   Parent Loop BB8_80 Depth=1
                                        # =>  This Inner Loop Header: Depth=2
	cmpl	$4, -4(%rbp)
	jge	.LBB8_88
# %bb.83:                               # %for.body312
                                        #   in Loop: Header=BB8_82 Depth=2
	movq	img, %rax
	cmpl	$2, 24(%rax)
	jne	.LBB8_85
# %bb.84:                               # %if.then315
                                        #   in Loop: Header=BB8_82 Depth=2
	movq	-16(%rbp), %rdi
	addq	$96, %rdi
	movslq	-8(%rbp), %rax
	shlq	$6, %rax
	addq	%rax, %rdi
	movslq	-4(%rbp), %rax
	shlq	$4, %rax
	addq	%rax, %rdi
	movq	img, %rax
	movslq	72520(%rax), %rax
	imulq	$96, %rax, %rax
	movabsq	$INIT_CBP_I, %rsi
	addq	%rax, %rsi
	movslq	-8(%rbp), %rax
	shlq	$5, %rax
	addq	%rax, %rsi
	movslq	-4(%rbp), %rax
	shlq	$3, %rax
	addq	%rax, %rsi
	callq	biari_init_context
	jmp	.LBB8_86
.LBB8_85:                               # %if.else328
                                        #   in Loop: Header=BB8_82 Depth=2
	movq	-16(%rbp), %rdi
	addq	$96, %rdi
	movslq	-8(%rbp), %rax
	shlq	$6, %rax
	addq	%rax, %rdi
	movslq	-4(%rbp), %rax
	shlq	$4, %rax
	addq	%rax, %rdi
	movq	img, %rax
	movslq	72520(%rax), %rax
	imulq	$96, %rax, %rax
	movabsq	$INIT_CBP_P, %rsi
	addq	%rax, %rsi
	movslq	-8(%rbp), %rax
	shlq	$5, %rax
	addq	%rax, %rsi
	movslq	-4(%rbp), %rax
	shlq	$3, %rax
	addq	%rax, %rsi
	callq	biari_init_context
.LBB8_86:                               # %if.end342
                                        #   in Loop: Header=BB8_82 Depth=2
	jmp	.LBB8_87
.LBB8_87:                               # %for.inc343
                                        #   in Loop: Header=BB8_82 Depth=2
	movl	-4(%rbp), %eax
	addl	$1, %eax
	movl	%eax, -4(%rbp)
	jmp	.LBB8_82
.LBB8_88:                               # %for.end345
                                        #   in Loop: Header=BB8_80 Depth=1
	jmp	.LBB8_89
.LBB8_89:                               # %for.inc346
                                        #   in Loop: Header=BB8_80 Depth=1
	movl	-8(%rbp), %eax
	addl	$1, %eax
	movl	%eax, -8(%rbp)
	jmp	.LBB8_80
.LBB8_90:                               # %for.end348
	movl	$0, -8(%rbp)
.LBB8_91:                               # %for.cond349
                                        # =>This Loop Header: Depth=1
                                        #     Child Loop BB8_93 Depth 2
	cmpl	$10, -8(%rbp)
	jge	.LBB8_101
# %bb.92:                               # %for.body351
                                        #   in Loop: Header=BB8_91 Depth=1
	movl	$0, -4(%rbp)
.LBB8_93:                               # %for.cond352
                                        #   Parent Loop BB8_91 Depth=1
                                        # =>  This Inner Loop Header: Depth=2
	cmpl	$4, -4(%rbp)
	jge	.LBB8_99
# %bb.94:                               # %for.body354
                                        #   in Loop: Header=BB8_93 Depth=2
	movq	img, %rax
	cmpl	$2, 24(%rax)
	jne	.LBB8_96
# %bb.95:                               # %if.then357
                                        #   in Loop: Header=BB8_93 Depth=2
	movq	-16(%rbp), %rdi
	addq	$288, %rdi              # imm = 0x120
	movslq	-8(%rbp), %rax
	shlq	$6, %rax
	addq	%rax, %rdi
	movslq	-4(%rbp), %rax
	shlq	$4, %rax
	addq	%rax, %rdi
	movq	img, %rax
	movslq	72520(%rax), %rax
	shlq	$8, %rax
	movabsq	$INIT_BCBP_I, %rsi
	addq	%rax, %rsi
	movslq	-8(%rbp), %rax
	shlq	$5, %rax
	addq	%rax, %rsi
	movslq	-4(%rbp), %rax
	shlq	$3, %rax
	addq	%rax, %rsi
	callq	biari_init_context
	jmp	.LBB8_97
.LBB8_96:                               # %if.else370
                                        #   in Loop: Header=BB8_93 Depth=2
	movq	-16(%rbp), %rdi
	addq	$288, %rdi              # imm = 0x120
	movslq	-8(%rbp), %rax
	shlq	$6, %rax
	addq	%rax, %rdi
	movslq	-4(%rbp), %rax
	shlq	$4, %rax
	addq	%rax, %rdi
	movq	img, %rax
	movslq	72520(%rax), %rax
	shlq	$8, %rax
	movabsq	$INIT_BCBP_P, %rsi
	addq	%rax, %rsi
	movslq	-8(%rbp), %rax
	shlq	$5, %rax
	addq	%rax, %rsi
	movslq	-4(%rbp), %rax
	shlq	$3, %rax
	addq	%rax, %rsi
	callq	biari_init_context
.LBB8_97:                               # %if.end384
                                        #   in Loop: Header=BB8_93 Depth=2
	jmp	.LBB8_98
.LBB8_98:                               # %for.inc385
                                        #   in Loop: Header=BB8_93 Depth=2
	movl	-4(%rbp), %eax
	addl	$1, %eax
	movl	%eax, -4(%rbp)
	jmp	.LBB8_93
.LBB8_99:                               # %for.end387
                                        #   in Loop: Header=BB8_91 Depth=1
	jmp	.LBB8_100
.LBB8_100:                              # %for.inc388
                                        #   in Loop: Header=BB8_91 Depth=1
	movl	-8(%rbp), %eax
	addl	$1, %eax
	movl	%eax, -8(%rbp)
	jmp	.LBB8_91
.LBB8_101:                              # %for.end390
	movl	$0, -8(%rbp)
.LBB8_102:                              # %for.cond391
                                        # =>This Loop Header: Depth=1
                                        #     Child Loop BB8_104 Depth 2
	cmpl	$10, -8(%rbp)
	jge	.LBB8_112
# %bb.103:                              # %for.body393
                                        #   in Loop: Header=BB8_102 Depth=1
	movl	$0, -4(%rbp)
.LBB8_104:                              # %for.cond394
                                        #   Parent Loop BB8_102 Depth=1
                                        # =>  This Inner Loop Header: Depth=2
	cmpl	$15, -4(%rbp)
	jge	.LBB8_110
# %bb.105:                              # %for.body396
                                        #   in Loop: Header=BB8_104 Depth=2
	movq	img, %rax
	cmpl	$2, 24(%rax)
	jne	.LBB8_107
# %bb.106:                              # %if.then399
                                        #   in Loop: Header=BB8_104 Depth=2
	movq	-16(%rbp), %rdi
	addq	$928, %rdi              # imm = 0x3A0
	movslq	-8(%rbp), %rax
	imulq	$240, %rax, %rax
	addq	%rax, %rdi
	movslq	-4(%rbp), %rax
	shlq	$4, %rax
	addq	%rax, %rdi
	movq	img, %rax
	movslq	72520(%rax), %rax
	imulq	$960, %rax, %rax        # imm = 0x3C0
	movabsq	$INIT_MAP_I, %rsi
	addq	%rax, %rsi
	movslq	-8(%rbp), %rax
	imulq	$120, %rax, %rax
	addq	%rax, %rsi
	movslq	-4(%rbp), %rax
	shlq	$3, %rax
	addq	%rax, %rsi
	callq	biari_init_context
	jmp	.LBB8_108
.LBB8_107:                              # %if.else412
                                        #   in Loop: Header=BB8_104 Depth=2
	movq	-16(%rbp), %rdi
	addq	$928, %rdi              # imm = 0x3A0
	movslq	-8(%rbp), %rax
	imulq	$240, %rax, %rax
	addq	%rax, %rdi
	movslq	-4(%rbp), %rax
	shlq	$4, %rax
	addq	%rax, %rdi
	movq	img, %rax
	movslq	72520(%rax), %rax
	imulq	$960, %rax, %rax        # imm = 0x3C0
	movabsq	$INIT_MAP_P, %rsi
	addq	%rax, %rsi
	movslq	-8(%rbp), %rax
	imulq	$120, %rax, %rax
	addq	%rax, %rsi
	movslq	-4(%rbp), %rax
	shlq	$3, %rax
	addq	%rax, %rsi
	callq	biari_init_context
.LBB8_108:                              # %if.end426
                                        #   in Loop: Header=BB8_104 Depth=2
	jmp	.LBB8_109
.LBB8_109:                              # %for.inc427
                                        #   in Loop: Header=BB8_104 Depth=2
	movl	-4(%rbp), %eax
	addl	$1, %eax
	movl	%eax, -4(%rbp)
	jmp	.LBB8_104
.LBB8_110:                              # %for.end429
                                        #   in Loop: Header=BB8_102 Depth=1
	jmp	.LBB8_111
.LBB8_111:                              # %for.inc430
                                        #   in Loop: Header=BB8_102 Depth=1
	movl	-8(%rbp), %eax
	addl	$1, %eax
	movl	%eax, -8(%rbp)
	jmp	.LBB8_102
.LBB8_112:                              # %for.end432
	movl	$0, -8(%rbp)
.LBB8_113:                              # %for.cond433
                                        # =>This Loop Header: Depth=1
                                        #     Child Loop BB8_115 Depth 2
	cmpl	$10, -8(%rbp)
	jge	.LBB8_123
# %bb.114:                              # %for.body435
                                        #   in Loop: Header=BB8_113 Depth=1
	movl	$0, -4(%rbp)
.LBB8_115:                              # %for.cond436
                                        #   Parent Loop BB8_113 Depth=1
                                        # =>  This Inner Loop Header: Depth=2
	cmpl	$15, -4(%rbp)
	jge	.LBB8_121
# %bb.116:                              # %for.body438
                                        #   in Loop: Header=BB8_115 Depth=2
	movq	img, %rax
	cmpl	$2, 24(%rax)
	jne	.LBB8_118
# %bb.117:                              # %if.then441
                                        #   in Loop: Header=BB8_115 Depth=2
	movq	-16(%rbp), %rdi
	addq	$3328, %rdi             # imm = 0xD00
	movslq	-8(%rbp), %rax
	imulq	$240, %rax, %rax
	addq	%rax, %rdi
	movslq	-4(%rbp), %rax
	shlq	$4, %rax
	addq	%rax, %rdi
	movq	img, %rax
	movslq	72520(%rax), %rax
	imulq	$960, %rax, %rax        # imm = 0x3C0
	movabsq	$INIT_LAST_I, %rsi
	addq	%rax, %rsi
	movslq	-8(%rbp), %rax
	imulq	$120, %rax, %rax
	addq	%rax, %rsi
	movslq	-4(%rbp), %rax
	shlq	$3, %rax
	addq	%rax, %rsi
	callq	biari_init_context
	jmp	.LBB8_119
.LBB8_118:                              # %if.else454
                                        #   in Loop: Header=BB8_115 Depth=2
	movq	-16(%rbp), %rdi
	addq	$3328, %rdi             # imm = 0xD00
	movslq	-8(%rbp), %rax
	imulq	$240, %rax, %rax
	addq	%rax, %rdi
	movslq	-4(%rbp), %rax
	shlq	$4, %rax
	addq	%rax, %rdi
	movq	img, %rax
	movslq	72520(%rax), %rax
	imulq	$960, %rax, %rax        # imm = 0x3C0
	movabsq	$INIT_LAST_P, %rsi
	addq	%rax, %rsi
	movslq	-8(%rbp), %rax
	imulq	$120, %rax, %rax
	addq	%rax, %rsi
	movslq	-4(%rbp), %rax
	shlq	$3, %rax
	addq	%rax, %rsi
	callq	biari_init_context
.LBB8_119:                              # %if.end468
                                        #   in Loop: Header=BB8_115 Depth=2
	jmp	.LBB8_120
.LBB8_120:                              # %for.inc469
                                        #   in Loop: Header=BB8_115 Depth=2
	movl	-4(%rbp), %eax
	addl	$1, %eax
	movl	%eax, -4(%rbp)
	jmp	.LBB8_115
.LBB8_121:                              # %for.end471
                                        #   in Loop: Header=BB8_113 Depth=1
	jmp	.LBB8_122
.LBB8_122:                              # %for.inc472
                                        #   in Loop: Header=BB8_113 Depth=1
	movl	-8(%rbp), %eax
	addl	$1, %eax
	movl	%eax, -8(%rbp)
	jmp	.LBB8_113
.LBB8_123:                              # %for.end474
	movl	$0, -8(%rbp)
.LBB8_124:                              # %for.cond475
                                        # =>This Loop Header: Depth=1
                                        #     Child Loop BB8_126 Depth 2
	cmpl	$10, -8(%rbp)
	jge	.LBB8_134
# %bb.125:                              # %for.body477
                                        #   in Loop: Header=BB8_124 Depth=1
	movl	$0, -4(%rbp)
.LBB8_126:                              # %for.cond478
                                        #   Parent Loop BB8_124 Depth=1
                                        # =>  This Inner Loop Header: Depth=2
	cmpl	$5, -4(%rbp)
	jge	.LBB8_132
# %bb.127:                              # %for.body480
                                        #   in Loop: Header=BB8_126 Depth=2
	movq	img, %rax
	cmpl	$2, 24(%rax)
	jne	.LBB8_129
# %bb.128:                              # %if.then483
                                        #   in Loop: Header=BB8_126 Depth=2
	movq	-16(%rbp), %rdi
	addq	$5728, %rdi             # imm = 0x1660
	movslq	-8(%rbp), %rax
	imulq	$80, %rax, %rax
	addq	%rax, %rdi
	movslq	-4(%rbp), %rax
	shlq	$4, %rax
	addq	%rax, %rdi
	movq	img, %rax
	movslq	72520(%rax), %rax
	imulq	$320, %rax, %rax        # imm = 0x140
	movabsq	$INIT_ONE_I, %rsi
	addq	%rax, %rsi
	movslq	-8(%rbp), %rax
	imulq	$40, %rax, %rax
	addq	%rax, %rsi
	movslq	-4(%rbp), %rax
	shlq	$3, %rax
	addq	%rax, %rsi
	callq	biari_init_context
	jmp	.LBB8_130
.LBB8_129:                              # %if.else496
                                        #   in Loop: Header=BB8_126 Depth=2
	movq	-16(%rbp), %rdi
	addq	$5728, %rdi             # imm = 0x1660
	movslq	-8(%rbp), %rax
	imulq	$80, %rax, %rax
	addq	%rax, %rdi
	movslq	-4(%rbp), %rax
	shlq	$4, %rax
	addq	%rax, %rdi
	movq	img, %rax
	movslq	72520(%rax), %rax
	imulq	$320, %rax, %rax        # imm = 0x140
	movabsq	$INIT_ONE_P, %rsi
	addq	%rax, %rsi
	movslq	-8(%rbp), %rax
	imulq	$40, %rax, %rax
	addq	%rax, %rsi
	movslq	-4(%rbp), %rax
	shlq	$3, %rax
	addq	%rax, %rsi
	callq	biari_init_context
.LBB8_130:                              # %if.end510
                                        #   in Loop: Header=BB8_126 Depth=2
	jmp	.LBB8_131
.LBB8_131:                              # %for.inc511
                                        #   in Loop: Header=BB8_126 Depth=2
	movl	-4(%rbp), %eax
	addl	$1, %eax
	movl	%eax, -4(%rbp)
	jmp	.LBB8_126
.LBB8_132:                              # %for.end513
                                        #   in Loop: Header=BB8_124 Depth=1
	jmp	.LBB8_133
.LBB8_133:                              # %for.inc514
                                        #   in Loop: Header=BB8_124 Depth=1
	movl	-8(%rbp), %eax
	addl	$1, %eax
	movl	%eax, -8(%rbp)
	jmp	.LBB8_124
.LBB8_134:                              # %for.end516
	movl	$0, -8(%rbp)
.LBB8_135:                              # %for.cond517
                                        # =>This Loop Header: Depth=1
                                        #     Child Loop BB8_137 Depth 2
	cmpl	$10, -8(%rbp)
	jge	.LBB8_145
# %bb.136:                              # %for.body519
                                        #   in Loop: Header=BB8_135 Depth=1
	movl	$0, -4(%rbp)
.LBB8_137:                              # %for.cond520
                                        #   Parent Loop BB8_135 Depth=1
                                        # =>  This Inner Loop Header: Depth=2
	cmpl	$5, -4(%rbp)
	jge	.LBB8_143
# %bb.138:                              # %for.body522
                                        #   in Loop: Header=BB8_137 Depth=2
	movq	img, %rax
	cmpl	$2, 24(%rax)
	jne	.LBB8_140
# %bb.139:                              # %if.then525
                                        #   in Loop: Header=BB8_137 Depth=2
	movq	-16(%rbp), %rdi
	addq	$6528, %rdi             # imm = 0x1980
	movslq	-8(%rbp), %rax
	imulq	$80, %rax, %rax
	addq	%rax, %rdi
	movslq	-4(%rbp), %rax
	shlq	$4, %rax
	addq	%rax, %rdi
	movq	img, %rax
	movslq	72520(%rax), %rax
	imulq	$320, %rax, %rax        # imm = 0x140
	movabsq	$INIT_ABS_I, %rsi
	addq	%rax, %rsi
	movslq	-8(%rbp), %rax
	imulq	$40, %rax, %rax
	addq	%rax, %rsi
	movslq	-4(%rbp), %rax
	shlq	$3, %rax
	addq	%rax, %rsi
	callq	biari_init_context
	jmp	.LBB8_141
.LBB8_140:                              # %if.else538
                                        #   in Loop: Header=BB8_137 Depth=2
	movq	-16(%rbp), %rdi
	addq	$6528, %rdi             # imm = 0x1980
	movslq	-8(%rbp), %rax
	imulq	$80, %rax, %rax
	addq	%rax, %rdi
	movslq	-4(%rbp), %rax
	shlq	$4, %rax
	addq	%rax, %rdi
	movq	img, %rax
	movslq	72520(%rax), %rax
	imulq	$320, %rax, %rax        # imm = 0x140
	movabsq	$INIT_ABS_P, %rsi
	addq	%rax, %rsi
	movslq	-8(%rbp), %rax
	imulq	$40, %rax, %rax
	addq	%rax, %rsi
	movslq	-4(%rbp), %rax
	shlq	$3, %rax
	addq	%rax, %rsi
	callq	biari_init_context
.LBB8_141:                              # %if.end552
                                        #   in Loop: Header=BB8_137 Depth=2
	jmp	.LBB8_142
.LBB8_142:                              # %for.inc553
                                        #   in Loop: Header=BB8_137 Depth=2
	movl	-4(%rbp), %eax
	addl	$1, %eax
	movl	%eax, -4(%rbp)
	jmp	.LBB8_137
.LBB8_143:                              # %for.end555
                                        #   in Loop: Header=BB8_135 Depth=1
	jmp	.LBB8_144
.LBB8_144:                              # %for.inc556
                                        #   in Loop: Header=BB8_135 Depth=1
	movl	-8(%rbp), %eax
	addl	$1, %eax
	movl	%eax, -8(%rbp)
	jmp	.LBB8_135
.LBB8_145:                              # %for.end558
	movl	$0, -8(%rbp)
.LBB8_146:                              # %for.cond559
                                        # =>This Loop Header: Depth=1
                                        #     Child Loop BB8_148 Depth 2
	cmpl	$10, -8(%rbp)
	jge	.LBB8_156
# %bb.147:                              # %for.body561
                                        #   in Loop: Header=BB8_146 Depth=1
	movl	$0, -4(%rbp)
.LBB8_148:                              # %for.cond562
                                        #   Parent Loop BB8_146 Depth=1
                                        # =>  This Inner Loop Header: Depth=2
	cmpl	$15, -4(%rbp)
	jge	.LBB8_154
# %bb.149:                              # %for.body564
                                        #   in Loop: Header=BB8_148 Depth=2
	movq	img, %rax
	cmpl	$2, 24(%rax)
	jne	.LBB8_151
# %bb.150:                              # %if.then567
                                        #   in Loop: Header=BB8_148 Depth=2
	movq	-16(%rbp), %rdi
	addq	$7328, %rdi             # imm = 0x1CA0
	movslq	-8(%rbp), %rax
	imulq	$240, %rax, %rax
	addq	%rax, %rdi
	movslq	-4(%rbp), %rax
	shlq	$4, %rax
	addq	%rax, %rdi
	movq	img, %rax
	movslq	72520(%rax), %rax
	imulq	$960, %rax, %rax        # imm = 0x3C0
	movabsq	$INIT_FLD_MAP_I, %rsi
	addq	%rax, %rsi
	movslq	-8(%rbp), %rax
	imulq	$120, %rax, %rax
	addq	%rax, %rsi
	movslq	-4(%rbp), %rax
	shlq	$3, %rax
	addq	%rax, %rsi
	callq	biari_init_context
	jmp	.LBB8_152
.LBB8_151:                              # %if.else580
                                        #   in Loop: Header=BB8_148 Depth=2
	movq	-16(%rbp), %rdi
	addq	$7328, %rdi             # imm = 0x1CA0
	movslq	-8(%rbp), %rax
	imulq	$240, %rax, %rax
	addq	%rax, %rdi
	movslq	-4(%rbp), %rax
	shlq	$4, %rax
	addq	%rax, %rdi
	movq	img, %rax
	movslq	72520(%rax), %rax
	imulq	$960, %rax, %rax        # imm = 0x3C0
	movabsq	$INIT_FLD_MAP_P, %rsi
	addq	%rax, %rsi
	movslq	-8(%rbp), %rax
	imulq	$120, %rax, %rax
	addq	%rax, %rsi
	movslq	-4(%rbp), %rax
	shlq	$3, %rax
	addq	%rax, %rsi
	callq	biari_init_context
.LBB8_152:                              # %if.end594
                                        #   in Loop: Header=BB8_148 Depth=2
	jmp	.LBB8_153
.LBB8_153:                              # %for.inc595
                                        #   in Loop: Header=BB8_148 Depth=2
	movl	-4(%rbp), %eax
	addl	$1, %eax
	movl	%eax, -4(%rbp)
	jmp	.LBB8_148
.LBB8_154:                              # %for.end597
                                        #   in Loop: Header=BB8_146 Depth=1
	jmp	.LBB8_155
.LBB8_155:                              # %for.inc598
                                        #   in Loop: Header=BB8_146 Depth=1
	movl	-8(%rbp), %eax
	addl	$1, %eax
	movl	%eax, -8(%rbp)
	jmp	.LBB8_146
.LBB8_156:                              # %for.end600
	movl	$0, -8(%rbp)
.LBB8_157:                              # %for.cond601
                                        # =>This Loop Header: Depth=1
                                        #     Child Loop BB8_159 Depth 2
	cmpl	$10, -8(%rbp)
	jge	.LBB8_167
# %bb.158:                              # %for.body603
                                        #   in Loop: Header=BB8_157 Depth=1
	movl	$0, -4(%rbp)
.LBB8_159:                              # %for.cond604
                                        #   Parent Loop BB8_157 Depth=1
                                        # =>  This Inner Loop Header: Depth=2
	cmpl	$15, -4(%rbp)
	jge	.LBB8_165
# %bb.160:                              # %for.body606
                                        #   in Loop: Header=BB8_159 Depth=2
	movq	img, %rax
	cmpl	$2, 24(%rax)
	jne	.LBB8_162
# %bb.161:                              # %if.then609
                                        #   in Loop: Header=BB8_159 Depth=2
	movq	-16(%rbp), %rdi
	addq	$9728, %rdi             # imm = 0x2600
	movslq	-8(%rbp), %rax
	imulq	$240, %rax, %rax
	addq	%rax, %rdi
	movslq	-4(%rbp), %rax
	shlq	$4, %rax
	addq	%rax, %rdi
	movq	img, %rax
	movslq	72520(%rax), %rax
	imulq	$960, %rax, %rax        # imm = 0x3C0
	movabsq	$INIT_FLD_LAST_I, %rsi
	addq	%rax, %rsi
	movslq	-8(%rbp), %rax
	imulq	$120, %rax, %rax
	addq	%rax, %rsi
	movslq	-4(%rbp), %rax
	shlq	$3, %rax
	addq	%rax, %rsi
	callq	biari_init_context
	jmp	.LBB8_163
.LBB8_162:                              # %if.else622
                                        #   in Loop: Header=BB8_159 Depth=2
	movq	-16(%rbp), %rdi
	addq	$9728, %rdi             # imm = 0x2600
	movslq	-8(%rbp), %rax
	imulq	$240, %rax, %rax
	addq	%rax, %rdi
	movslq	-4(%rbp), %rax
	shlq	$4, %rax
	addq	%rax, %rdi
	movq	img, %rax
	movslq	72520(%rax), %rax
	imulq	$960, %rax, %rax        # imm = 0x3C0
	movabsq	$INIT_FLD_LAST_P, %rsi
	addq	%rax, %rsi
	movslq	-8(%rbp), %rax
	imulq	$120, %rax, %rax
	addq	%rax, %rsi
	movslq	-4(%rbp), %rax
	shlq	$3, %rax
	addq	%rax, %rsi
	callq	biari_init_context
.LBB8_163:                              # %if.end636
                                        #   in Loop: Header=BB8_159 Depth=2
	jmp	.LBB8_164
.LBB8_164:                              # %for.inc637
                                        #   in Loop: Header=BB8_159 Depth=2
	movl	-4(%rbp), %eax
	addl	$1, %eax
	movl	%eax, -4(%rbp)
	jmp	.LBB8_159
.LBB8_165:                              # %for.end639
                                        #   in Loop: Header=BB8_157 Depth=1
	jmp	.LBB8_166
.LBB8_166:                              # %for.inc640
                                        #   in Loop: Header=BB8_157 Depth=1
	movl	-8(%rbp), %eax
	addl	$1, %eax
	movl	%eax, -8(%rbp)
	jmp	.LBB8_157
.LBB8_167:                              # %for.end642
	cmpl	$1727559106, -28(%rbp)  # imm = 0x66F875C2
	jne	.LBB8_169
.LBB8_168:
	addq	$32, %rsp
	popq	%rbp
	.cfi_def_cfa %rsp, 8
	retq
.LBB8_169:                              # %func_exit
	.cfi_def_cfa %rbp, 16
	callq	detect_breach
	jmp	.LBB8_168
.Lfunc_end8:
	.size	init_contexts.1, .Lfunc_end8-init_contexts.1
	.cfi_endproc
                                        # -- End function
	.globl	init_contexts.2         # -- Begin function init_contexts.2
	.p2align	4, 0x90
	.type	init_contexts.2,@function
init_contexts.2:                        # @init_contexts.2
	.cfi_startproc
# %bb.0:                                # %entry
	pushq	%rbp
	.cfi_def_cfa_offset 16
	.cfi_offset %rbp, -16
	movq	%rsp, %rbp
	.cfi_def_cfa_register %rbp
	subq	$32, %rsp
	movl	$407840335, -28(%rbp)   # imm = 0x184F264F
	movq	img, %rax
	movq	14160(%rax), %rax
	movq	32(%rax), %rax
	movq	%rax, -24(%rbp)
	movq	img, %rax
	movq	14160(%rax), %rax
	movq	40(%rax), %rax
	movq	%rax, -16(%rbp)
	movl	$0, -8(%rbp)
.LBB9_1:                                # %for.cond
                                        # =>This Loop Header: Depth=1
                                        #     Child Loop BB9_3 Depth 2
	cmpl	$3, -8(%rbp)
	jge	.LBB9_11
# %bb.2:                                # %for.body
                                        #   in Loop: Header=BB9_1 Depth=1
	movl	$0, -4(%rbp)
.LBB9_3:                                # %for.cond2
                                        #   Parent Loop BB9_1 Depth=1
                                        # =>  This Inner Loop Header: Depth=2
	cmpl	$11, -4(%rbp)
	jge	.LBB9_9
# %bb.4:                                # %for.body4
                                        #   in Loop: Header=BB9_3 Depth=2
	movq	img, %rax
	cmpl	$2, 24(%rax)
	jne	.LBB9_6
# %bb.5:                                # %if.then
                                        #   in Loop: Header=BB9_3 Depth=2
	movq	-24(%rbp), %rdi
	movslq	-8(%rbp), %rax
	imulq	$176, %rax, %rax
	addq	%rax, %rdi
	movslq	-4(%rbp), %rax
	shlq	$4, %rax
	addq	%rax, %rdi
	movq	img, %rax
	movslq	72520(%rax), %rax
	imulq	$264, %rax, %rax        # imm = 0x108
	movabsq	$INIT_MB_TYPE_I, %rsi
	addq	%rax, %rsi
	movslq	-8(%rbp), %rax
	imulq	$88, %rax, %rax
	addq	%rax, %rsi
	movslq	-4(%rbp), %rax
	shlq	$3, %rax
	addq	%rax, %rsi
	callq	biari_init_context
	jmp	.LBB9_7
.LBB9_6:                                # %if.else
                                        #   in Loop: Header=BB9_3 Depth=2
	movq	-24(%rbp), %rdi
	movslq	-8(%rbp), %rax
	imulq	$176, %rax, %rax
	addq	%rax, %rdi
	movslq	-4(%rbp), %rax
	shlq	$4, %rax
	addq	%rax, %rdi
	movq	img, %rax
	movslq	72520(%rax), %rax
	imulq	$264, %rax, %rax        # imm = 0x108
	movabsq	$INIT_MB_TYPE_P, %rsi
	addq	%rax, %rsi
	movslq	-8(%rbp), %rax
	imulq	$88, %rax, %rax
	addq	%rax, %rsi
	movslq	-4(%rbp), %rax
	shlq	$3, %rax
	addq	%rax, %rsi
	callq	biari_init_context
.LBB9_7:                                # %if.end
                                        #   in Loop: Header=BB9_3 Depth=2
	jmp	.LBB9_8
.LBB9_8:                                # %for.inc
                                        #   in Loop: Header=BB9_3 Depth=2
	movl	-4(%rbp), %eax
	addl	$1, %eax
	movl	%eax, -4(%rbp)
	jmp	.LBB9_3
.LBB9_9:                                # %for.end
                                        #   in Loop: Header=BB9_1 Depth=1
	jmp	.LBB9_10
.LBB9_10:                               # %for.inc28
                                        #   in Loop: Header=BB9_1 Depth=1
	movl	-8(%rbp), %eax
	addl	$1, %eax
	movl	%eax, -8(%rbp)
	jmp	.LBB9_1
.LBB9_11:                               # %for.end30
	movl	$0, -8(%rbp)
.LBB9_12:                               # %for.cond31
                                        # =>This Loop Header: Depth=1
                                        #     Child Loop BB9_14 Depth 2
	cmpl	$2, -8(%rbp)
	jge	.LBB9_22
# %bb.13:                               # %for.body33
                                        #   in Loop: Header=BB9_12 Depth=1
	movl	$0, -4(%rbp)
.LBB9_14:                               # %for.cond34
                                        #   Parent Loop BB9_12 Depth=1
                                        # =>  This Inner Loop Header: Depth=2
	cmpl	$9, -4(%rbp)
	jge	.LBB9_20
# %bb.15:                               # %for.body36
                                        #   in Loop: Header=BB9_14 Depth=2
	movq	img, %rax
	cmpl	$2, 24(%rax)
	jne	.LBB9_17
# %bb.16:                               # %if.then39
                                        #   in Loop: Header=BB9_14 Depth=2
	movq	-24(%rbp), %rdi
	addq	$528, %rdi              # imm = 0x210
	movslq	-8(%rbp), %rax
	imulq	$144, %rax, %rax
	addq	%rax, %rdi
	movslq	-4(%rbp), %rax
	shlq	$4, %rax
	addq	%rax, %rdi
	movq	img, %rax
	movslq	72520(%rax), %rax
	imulq	$144, %rax, %rax
	movabsq	$INIT_B8_TYPE_I, %rsi
	addq	%rax, %rsi
	movslq	-8(%rbp), %rax
	imulq	$72, %rax, %rax
	addq	%rax, %rsi
	movslq	-4(%rbp), %rax
	shlq	$3, %rax
	addq	%rax, %rsi
	callq	biari_init_context
	jmp	.LBB9_18
.LBB9_17:                               # %if.else52
                                        #   in Loop: Header=BB9_14 Depth=2
	movq	-24(%rbp), %rdi
	addq	$528, %rdi              # imm = 0x210
	movslq	-8(%rbp), %rax
	imulq	$144, %rax, %rax
	addq	%rax, %rdi
	movslq	-4(%rbp), %rax
	shlq	$4, %rax
	addq	%rax, %rdi
	movq	img, %rax
	movslq	72520(%rax), %rax
	imulq	$144, %rax, %rax
	movabsq	$INIT_B8_TYPE_P, %rsi
	addq	%rax, %rsi
	movslq	-8(%rbp), %rax
	imulq	$72, %rax, %rax
	addq	%rax, %rsi
	movslq	-4(%rbp), %rax
	shlq	$3, %rax
	addq	%rax, %rsi
	callq	biari_init_context
.LBB9_18:                               # %if.end66
                                        #   in Loop: Header=BB9_14 Depth=2
	jmp	.LBB9_19
.LBB9_19:                               # %for.inc67
                                        #   in Loop: Header=BB9_14 Depth=2
	movl	-4(%rbp), %eax
	addl	$1, %eax
	movl	%eax, -4(%rbp)
	jmp	.LBB9_14
.LBB9_20:                               # %for.end69
                                        #   in Loop: Header=BB9_12 Depth=1
	jmp	.LBB9_21
.LBB9_21:                               # %for.inc70
                                        #   in Loop: Header=BB9_12 Depth=1
	movl	-8(%rbp), %eax
	addl	$1, %eax
	movl	%eax, -8(%rbp)
	jmp	.LBB9_12
.LBB9_22:                               # %for.end72
	movl	$0, -8(%rbp)
.LBB9_23:                               # %for.cond73
                                        # =>This Loop Header: Depth=1
                                        #     Child Loop BB9_25 Depth 2
	cmpl	$2, -8(%rbp)
	jge	.LBB9_33
# %bb.24:                               # %for.body75
                                        #   in Loop: Header=BB9_23 Depth=1
	movl	$0, -4(%rbp)
.LBB9_25:                               # %for.cond76
                                        #   Parent Loop BB9_23 Depth=1
                                        # =>  This Inner Loop Header: Depth=2
	cmpl	$10, -4(%rbp)
	jge	.LBB9_31
# %bb.26:                               # %for.body78
                                        #   in Loop: Header=BB9_25 Depth=2
	movq	img, %rax
	cmpl	$2, 24(%rax)
	jne	.LBB9_28
# %bb.27:                               # %if.then81
                                        #   in Loop: Header=BB9_25 Depth=2
	movq	-24(%rbp), %rdi
	addq	$816, %rdi              # imm = 0x330
	movslq	-8(%rbp), %rax
	imulq	$160, %rax, %rax
	addq	%rax, %rdi
	movslq	-4(%rbp), %rax
	shlq	$4, %rax
	addq	%rax, %rdi
	movq	img, %rax
	movslq	72520(%rax), %rax
	imulq	$160, %rax, %rax
	movabsq	$INIT_MV_RES_I, %rsi
	addq	%rax, %rsi
	movslq	-8(%rbp), %rax
	imulq	$80, %rax, %rax
	addq	%rax, %rsi
	movslq	-4(%rbp), %rax
	shlq	$3, %rax
	addq	%rax, %rsi
	callq	biari_init_context
	jmp	.LBB9_29
.LBB9_28:                               # %if.else94
                                        #   in Loop: Header=BB9_25 Depth=2
	movq	-24(%rbp), %rdi
	addq	$816, %rdi              # imm = 0x330
	movslq	-8(%rbp), %rax
	imulq	$160, %rax, %rax
	addq	%rax, %rdi
	movslq	-4(%rbp), %rax
	shlq	$4, %rax
	addq	%rax, %rdi
	movq	img, %rax
	movslq	72520(%rax), %rax
	imulq	$160, %rax, %rax
	movabsq	$INIT_MV_RES_P, %rsi
	addq	%rax, %rsi
	movslq	-8(%rbp), %rax
	imulq	$80, %rax, %rax
	addq	%rax, %rsi
	movslq	-4(%rbp), %rax
	shlq	$3, %rax
	addq	%rax, %rsi
	callq	biari_init_context
.LBB9_29:                               # %if.end108
                                        #   in Loop: Header=BB9_25 Depth=2
	jmp	.LBB9_30
.LBB9_30:                               # %for.inc109
                                        #   in Loop: Header=BB9_25 Depth=2
	movl	-4(%rbp), %eax
	addl	$1, %eax
	movl	%eax, -4(%rbp)
	jmp	.LBB9_25
.LBB9_31:                               # %for.end111
                                        #   in Loop: Header=BB9_23 Depth=1
	jmp	.LBB9_32
.LBB9_32:                               # %for.inc112
                                        #   in Loop: Header=BB9_23 Depth=1
	movl	-8(%rbp), %eax
	addl	$1, %eax
	movl	%eax, -8(%rbp)
	jmp	.LBB9_23
.LBB9_33:                               # %for.end114
	movl	$0, -8(%rbp)
.LBB9_34:                               # %for.cond115
                                        # =>This Loop Header: Depth=1
                                        #     Child Loop BB9_36 Depth 2
	cmpl	$2, -8(%rbp)
	jge	.LBB9_44
# %bb.35:                               # %for.body117
                                        #   in Loop: Header=BB9_34 Depth=1
	movl	$0, -4(%rbp)
.LBB9_36:                               # %for.cond118
                                        #   Parent Loop BB9_34 Depth=1
                                        # =>  This Inner Loop Header: Depth=2
	cmpl	$6, -4(%rbp)
	jge	.LBB9_42
# %bb.37:                               # %for.body120
                                        #   in Loop: Header=BB9_36 Depth=2
	movq	img, %rax
	cmpl	$2, 24(%rax)
	jne	.LBB9_39
# %bb.38:                               # %if.then123
                                        #   in Loop: Header=BB9_36 Depth=2
	movq	-24(%rbp), %rdi
	addq	$1136, %rdi             # imm = 0x470
	movslq	-8(%rbp), %rax
	imulq	$96, %rax, %rax
	addq	%rax, %rdi
	movslq	-4(%rbp), %rax
	shlq	$4, %rax
	addq	%rax, %rdi
	movq	img, %rax
	movslq	72520(%rax), %rax
	imulq	$96, %rax, %rax
	movabsq	$INIT_REF_NO_I, %rsi
	addq	%rax, %rsi
	movslq	-8(%rbp), %rax
	imulq	$48, %rax, %rax
	addq	%rax, %rsi
	movslq	-4(%rbp), %rax
	shlq	$3, %rax
	addq	%rax, %rsi
	callq	biari_init_context
	jmp	.LBB9_40
.LBB9_39:                               # %if.else136
                                        #   in Loop: Header=BB9_36 Depth=2
	movq	-24(%rbp), %rdi
	addq	$1136, %rdi             # imm = 0x470
	movslq	-8(%rbp), %rax
	imulq	$96, %rax, %rax
	addq	%rax, %rdi
	movslq	-4(%rbp), %rax
	shlq	$4, %rax
	addq	%rax, %rdi
	movq	img, %rax
	movslq	72520(%rax), %rax
	imulq	$96, %rax, %rax
	movabsq	$INIT_REF_NO_P, %rsi
	addq	%rax, %rsi
	movslq	-8(%rbp), %rax
	imulq	$48, %rax, %rax
	addq	%rax, %rsi
	movslq	-4(%rbp), %rax
	shlq	$3, %rax
	addq	%rax, %rsi
	callq	biari_init_context
.LBB9_40:                               # %if.end150
                                        #   in Loop: Header=BB9_36 Depth=2
	jmp	.LBB9_41
.LBB9_41:                               # %for.inc151
                                        #   in Loop: Header=BB9_36 Depth=2
	movl	-4(%rbp), %eax
	addl	$1, %eax
	movl	%eax, -4(%rbp)
	jmp	.LBB9_36
.LBB9_42:                               # %for.end153
                                        #   in Loop: Header=BB9_34 Depth=1
	jmp	.LBB9_43
.LBB9_43:                               # %for.inc154
                                        #   in Loop: Header=BB9_34 Depth=1
	movl	-8(%rbp), %eax
	addl	$1, %eax
	movl	%eax, -8(%rbp)
	jmp	.LBB9_34
.LBB9_44:                               # %for.end156
	movl	$0, -4(%rbp)
.LBB9_45:                               # %for.cond157
                                        # =>This Inner Loop Header: Depth=1
	cmpl	$4, -4(%rbp)
	jge	.LBB9_51
# %bb.46:                               # %for.body159
                                        #   in Loop: Header=BB9_45 Depth=1
	movq	img, %rax
	cmpl	$2, 24(%rax)
	jne	.LBB9_48
# %bb.47:                               # %if.then162
                                        #   in Loop: Header=BB9_45 Depth=1
	movq	-24(%rbp), %rdi
	addq	$1328, %rdi             # imm = 0x530
	movslq	-4(%rbp), %rax
	shlq	$4, %rax
	addq	%rax, %rdi
	movq	img, %rax
	movslq	72520(%rax), %rax
	shlq	$5, %rax
	movabsq	$INIT_DELTA_QP_I, %rsi
	addq	%rax, %rsi
	movslq	-4(%rbp), %rax
	shlq	$3, %rax
	addq	%rax, %rsi
	callq	biari_init_context
	jmp	.LBB9_49
.LBB9_48:                               # %if.else172
                                        #   in Loop: Header=BB9_45 Depth=1
	movq	-24(%rbp), %rdi
	addq	$1328, %rdi             # imm = 0x530
	movslq	-4(%rbp), %rax
	shlq	$4, %rax
	addq	%rax, %rdi
	movq	img, %rax
	movslq	72520(%rax), %rax
	shlq	$5, %rax
	movabsq	$INIT_DELTA_QP_P, %rsi
	addq	%rax, %rsi
	movslq	-4(%rbp), %rax
	shlq	$3, %rax
	addq	%rax, %rsi
	callq	biari_init_context
.LBB9_49:                               # %if.end183
                                        #   in Loop: Header=BB9_45 Depth=1
	jmp	.LBB9_50
.LBB9_50:                               # %for.inc184
                                        #   in Loop: Header=BB9_45 Depth=1
	movl	-4(%rbp), %eax
	addl	$1, %eax
	movl	%eax, -4(%rbp)
	jmp	.LBB9_45
.LBB9_51:                               # %for.end186
	movl	$0, -4(%rbp)
.LBB9_52:                               # %for.cond187
                                        # =>This Inner Loop Header: Depth=1
	cmpl	$4, -4(%rbp)
	jge	.LBB9_58
# %bb.53:                               # %for.body189
                                        #   in Loop: Header=BB9_52 Depth=1
	movq	img, %rax
	cmpl	$2, 24(%rax)
	jne	.LBB9_55
# %bb.54:                               # %if.then192
                                        #   in Loop: Header=BB9_52 Depth=1
	movq	-24(%rbp), %rdi
	addq	$1392, %rdi             # imm = 0x570
	movslq	-4(%rbp), %rax
	shlq	$4, %rax
	addq	%rax, %rdi
	movq	img, %rax
	movslq	72520(%rax), %rax
	shlq	$5, %rax
	movabsq	$INIT_MB_AFF_I, %rsi
	addq	%rax, %rsi
	movslq	-4(%rbp), %rax
	shlq	$3, %rax
	addq	%rax, %rsi
	callq	biari_init_context
	jmp	.LBB9_56
.LBB9_55:                               # %if.else202
                                        #   in Loop: Header=BB9_52 Depth=1
	movq	-24(%rbp), %rdi
	addq	$1392, %rdi             # imm = 0x570
	movslq	-4(%rbp), %rax
	shlq	$4, %rax
	addq	%rax, %rdi
	movq	img, %rax
	movslq	72520(%rax), %rax
	shlq	$5, %rax
	movabsq	$INIT_MB_AFF_P, %rsi
	addq	%rax, %rsi
	movslq	-4(%rbp), %rax
	shlq	$3, %rax
	addq	%rax, %rsi
	callq	biari_init_context
.LBB9_56:                               # %if.end213
                                        #   in Loop: Header=BB9_52 Depth=1
	jmp	.LBB9_57
.LBB9_57:                               # %for.inc214
                                        #   in Loop: Header=BB9_52 Depth=1
	movl	-4(%rbp), %eax
	addl	$1, %eax
	movl	%eax, -4(%rbp)
	jmp	.LBB9_52
.LBB9_58:                               # %for.end216
	movl	$0, -4(%rbp)
.LBB9_59:                               # %for.cond217
                                        # =>This Inner Loop Header: Depth=1
	cmpl	$3, -4(%rbp)
	jge	.LBB9_65
# %bb.60:                               # %for.body219
                                        #   in Loop: Header=BB9_59 Depth=1
	movq	img, %rax
	cmpl	$2, 24(%rax)
	jne	.LBB9_62
# %bb.61:                               # %if.then222
                                        #   in Loop: Header=BB9_59 Depth=1
	movq	-24(%rbp), %rdi
	addq	$1456, %rdi             # imm = 0x5B0
	movslq	-4(%rbp), %rax
	shlq	$4, %rax
	addq	%rax, %rdi
	movq	img, %rax
	movslq	72520(%rax), %rax
	imulq	$24, %rax, %rax
	movabsq	$INIT_TRANSFORM_SIZE_I, %rsi
	addq	%rax, %rsi
	movslq	-4(%rbp), %rax
	shlq	$3, %rax
	addq	%rax, %rsi
	callq	biari_init_context
	jmp	.LBB9_63
.LBB9_62:                               # %if.else232
                                        #   in Loop: Header=BB9_59 Depth=1
	movq	-24(%rbp), %rdi
	addq	$1456, %rdi             # imm = 0x5B0
	movslq	-4(%rbp), %rax
	shlq	$4, %rax
	addq	%rax, %rdi
	movq	img, %rax
	movslq	72520(%rax), %rax
	imulq	$24, %rax, %rax
	movabsq	$INIT_TRANSFORM_SIZE_P, %rsi
	addq	%rax, %rsi
	movslq	-4(%rbp), %rax
	shlq	$3, %rax
	addq	%rax, %rsi
	callq	biari_init_context
.LBB9_63:                               # %if.end243
                                        #   in Loop: Header=BB9_59 Depth=1
	jmp	.LBB9_64
.LBB9_64:                               # %for.inc244
                                        #   in Loop: Header=BB9_59 Depth=1
	movl	-4(%rbp), %eax
	addl	$1, %eax
	movl	%eax, -4(%rbp)
	jmp	.LBB9_59
.LBB9_65:                               # %for.end246
	movl	$0, -4(%rbp)
.LBB9_66:                               # %for.cond247
                                        # =>This Inner Loop Header: Depth=1
	cmpl	$2, -4(%rbp)
	jge	.LBB9_72
# %bb.67:                               # %for.body249
                                        #   in Loop: Header=BB9_66 Depth=1
	movq	img, %rax
	cmpl	$2, 24(%rax)
	jne	.LBB9_69
# %bb.68:                               # %if.then252
                                        #   in Loop: Header=BB9_66 Depth=1
	movq	-16(%rbp), %rdi
	movslq	-4(%rbp), %rax
	shlq	$4, %rax
	addq	%rax, %rdi
	movq	img, %rax
	movslq	72520(%rax), %rax
	shlq	$4, %rax
	movabsq	$INIT_IPR_I, %rsi
	addq	%rax, %rsi
	movslq	-4(%rbp), %rax
	shlq	$3, %rax
	addq	%rax, %rsi
	callq	biari_init_context
	jmp	.LBB9_70
.LBB9_69:                               # %if.else262
                                        #   in Loop: Header=BB9_66 Depth=1
	movq	-16(%rbp), %rdi
	movslq	-4(%rbp), %rax
	shlq	$4, %rax
	addq	%rax, %rdi
	movq	img, %rax
	movslq	72520(%rax), %rax
	shlq	$4, %rax
	movabsq	$INIT_IPR_P, %rsi
	addq	%rax, %rsi
	movslq	-4(%rbp), %rax
	shlq	$3, %rax
	addq	%rax, %rsi
	callq	biari_init_context
.LBB9_70:                               # %if.end273
                                        #   in Loop: Header=BB9_66 Depth=1
	jmp	.LBB9_71
.LBB9_71:                               # %for.inc274
                                        #   in Loop: Header=BB9_66 Depth=1
	movl	-4(%rbp), %eax
	addl	$1, %eax
	movl	%eax, -4(%rbp)
	jmp	.LBB9_66
.LBB9_72:                               # %for.end276
	movl	$0, -4(%rbp)
.LBB9_73:                               # %for.cond277
                                        # =>This Inner Loop Header: Depth=1
	cmpl	$4, -4(%rbp)
	jge	.LBB9_79
# %bb.74:                               # %for.body279
                                        #   in Loop: Header=BB9_73 Depth=1
	movq	img, %rax
	cmpl	$2, 24(%rax)
	jne	.LBB9_76
# %bb.75:                               # %if.then282
                                        #   in Loop: Header=BB9_73 Depth=1
	movq	-16(%rbp), %rdi
	addq	$32, %rdi
	movslq	-4(%rbp), %rax
	shlq	$4, %rax
	addq	%rax, %rdi
	movq	img, %rax
	movslq	72520(%rax), %rax
	shlq	$5, %rax
	movabsq	$INIT_CIPR_I, %rsi
	addq	%rax, %rsi
	movslq	-4(%rbp), %rax
	shlq	$3, %rax
	addq	%rax, %rsi
	callq	biari_init_context
	jmp	.LBB9_77
.LBB9_76:                               # %if.else292
                                        #   in Loop: Header=BB9_73 Depth=1
	movq	-16(%rbp), %rdi
	addq	$32, %rdi
	movslq	-4(%rbp), %rax
	shlq	$4, %rax
	addq	%rax, %rdi
	movq	img, %rax
	movslq	72520(%rax), %rax
	shlq	$5, %rax
	movabsq	$INIT_CIPR_P, %rsi
	addq	%rax, %rsi
	movslq	-4(%rbp), %rax
	shlq	$3, %rax
	addq	%rax, %rsi
	callq	biari_init_context
.LBB9_77:                               # %if.end303
                                        #   in Loop: Header=BB9_73 Depth=1
	jmp	.LBB9_78
.LBB9_78:                               # %for.inc304
                                        #   in Loop: Header=BB9_73 Depth=1
	movl	-4(%rbp), %eax
	addl	$1, %eax
	movl	%eax, -4(%rbp)
	jmp	.LBB9_73
.LBB9_79:                               # %for.end306
	movl	$0, -8(%rbp)
.LBB9_80:                               # %for.cond307
                                        # =>This Loop Header: Depth=1
                                        #     Child Loop BB9_82 Depth 2
	cmpl	$3, -8(%rbp)
	jge	.LBB9_90
# %bb.81:                               # %for.body309
                                        #   in Loop: Header=BB9_80 Depth=1
	movl	$0, -4(%rbp)
.LBB9_82:                               # %for.cond310
                                        #   Parent Loop BB9_80 Depth=1
                                        # =>  This Inner Loop Header: Depth=2
	cmpl	$4, -4(%rbp)
	jge	.LBB9_88
# %bb.83:                               # %for.body312
                                        #   in Loop: Header=BB9_82 Depth=2
	movq	img, %rax
	cmpl	$2, 24(%rax)
	jne	.LBB9_85
# %bb.84:                               # %if.then315
                                        #   in Loop: Header=BB9_82 Depth=2
	movq	-16(%rbp), %rdi
	addq	$96, %rdi
	movslq	-8(%rbp), %rax
	shlq	$6, %rax
	addq	%rax, %rdi
	movslq	-4(%rbp), %rax
	shlq	$4, %rax
	addq	%rax, %rdi
	movq	img, %rax
	movslq	72520(%rax), %rax
	imulq	$96, %rax, %rax
	movabsq	$INIT_CBP_I, %rsi
	addq	%rax, %rsi
	movslq	-8(%rbp), %rax
	shlq	$5, %rax
	addq	%rax, %rsi
	movslq	-4(%rbp), %rax
	shlq	$3, %rax
	addq	%rax, %rsi
	callq	biari_init_context
	jmp	.LBB9_86
.LBB9_85:                               # %if.else328
                                        #   in Loop: Header=BB9_82 Depth=2
	movq	-16(%rbp), %rdi
	addq	$96, %rdi
	movslq	-8(%rbp), %rax
	shlq	$6, %rax
	addq	%rax, %rdi
	movslq	-4(%rbp), %rax
	shlq	$4, %rax
	addq	%rax, %rdi
	movq	img, %rax
	movslq	72520(%rax), %rax
	imulq	$96, %rax, %rax
	movabsq	$INIT_CBP_P, %rsi
	addq	%rax, %rsi
	movslq	-8(%rbp), %rax
	shlq	$5, %rax
	addq	%rax, %rsi
	movslq	-4(%rbp), %rax
	shlq	$3, %rax
	addq	%rax, %rsi
	callq	biari_init_context
.LBB9_86:                               # %if.end342
                                        #   in Loop: Header=BB9_82 Depth=2
	jmp	.LBB9_87
.LBB9_87:                               # %for.inc343
                                        #   in Loop: Header=BB9_82 Depth=2
	movl	-4(%rbp), %eax
	addl	$1, %eax
	movl	%eax, -4(%rbp)
	jmp	.LBB9_82
.LBB9_88:                               # %for.end345
                                        #   in Loop: Header=BB9_80 Depth=1
	jmp	.LBB9_89
.LBB9_89:                               # %for.inc346
                                        #   in Loop: Header=BB9_80 Depth=1
	movl	-8(%rbp), %eax
	addl	$1, %eax
	movl	%eax, -8(%rbp)
	jmp	.LBB9_80
.LBB9_90:                               # %for.end348
	movl	$0, -8(%rbp)
.LBB9_91:                               # %for.cond349
                                        # =>This Loop Header: Depth=1
                                        #     Child Loop BB9_93 Depth 2
	cmpl	$10, -8(%rbp)
	jge	.LBB9_101
# %bb.92:                               # %for.body351
                                        #   in Loop: Header=BB9_91 Depth=1
	movl	$0, -4(%rbp)
.LBB9_93:                               # %for.cond352
                                        #   Parent Loop BB9_91 Depth=1
                                        # =>  This Inner Loop Header: Depth=2
	cmpl	$4, -4(%rbp)
	jge	.LBB9_99
# %bb.94:                               # %for.body354
                                        #   in Loop: Header=BB9_93 Depth=2
	movq	img, %rax
	cmpl	$2, 24(%rax)
	jne	.LBB9_96
# %bb.95:                               # %if.then357
                                        #   in Loop: Header=BB9_93 Depth=2
	movq	-16(%rbp), %rdi
	addq	$288, %rdi              # imm = 0x120
	movslq	-8(%rbp), %rax
	shlq	$6, %rax
	addq	%rax, %rdi
	movslq	-4(%rbp), %rax
	shlq	$4, %rax
	addq	%rax, %rdi
	movq	img, %rax
	movslq	72520(%rax), %rax
	shlq	$8, %rax
	movabsq	$INIT_BCBP_I, %rsi
	addq	%rax, %rsi
	movslq	-8(%rbp), %rax
	shlq	$5, %rax
	addq	%rax, %rsi
	movslq	-4(%rbp), %rax
	shlq	$3, %rax
	addq	%rax, %rsi
	callq	biari_init_context
	jmp	.LBB9_97
.LBB9_96:                               # %if.else370
                                        #   in Loop: Header=BB9_93 Depth=2
	movq	-16(%rbp), %rdi
	addq	$288, %rdi              # imm = 0x120
	movslq	-8(%rbp), %rax
	shlq	$6, %rax
	addq	%rax, %rdi
	movslq	-4(%rbp), %rax
	shlq	$4, %rax
	addq	%rax, %rdi
	movq	img, %rax
	movslq	72520(%rax), %rax
	shlq	$8, %rax
	movabsq	$INIT_BCBP_P, %rsi
	addq	%rax, %rsi
	movslq	-8(%rbp), %rax
	shlq	$5, %rax
	addq	%rax, %rsi
	movslq	-4(%rbp), %rax
	shlq	$3, %rax
	addq	%rax, %rsi
	callq	biari_init_context
.LBB9_97:                               # %if.end384
                                        #   in Loop: Header=BB9_93 Depth=2
	jmp	.LBB9_98
.LBB9_98:                               # %for.inc385
                                        #   in Loop: Header=BB9_93 Depth=2
	movl	-4(%rbp), %eax
	addl	$1, %eax
	movl	%eax, -4(%rbp)
	jmp	.LBB9_93
.LBB9_99:                               # %for.end387
                                        #   in Loop: Header=BB9_91 Depth=1
	jmp	.LBB9_100
.LBB9_100:                              # %for.inc388
                                        #   in Loop: Header=BB9_91 Depth=1
	movl	-8(%rbp), %eax
	addl	$1, %eax
	movl	%eax, -8(%rbp)
	jmp	.LBB9_91
.LBB9_101:                              # %for.end390
	movl	$0, -8(%rbp)
.LBB9_102:                              # %for.cond391
                                        # =>This Loop Header: Depth=1
                                        #     Child Loop BB9_104 Depth 2
	cmpl	$10, -8(%rbp)
	jge	.LBB9_112
# %bb.103:                              # %for.body393
                                        #   in Loop: Header=BB9_102 Depth=1
	movl	$0, -4(%rbp)
.LBB9_104:                              # %for.cond394
                                        #   Parent Loop BB9_102 Depth=1
                                        # =>  This Inner Loop Header: Depth=2
	cmpl	$15, -4(%rbp)
	jge	.LBB9_110
# %bb.105:                              # %for.body396
                                        #   in Loop: Header=BB9_104 Depth=2
	movq	img, %rax
	cmpl	$2, 24(%rax)
	jne	.LBB9_107
# %bb.106:                              # %if.then399
                                        #   in Loop: Header=BB9_104 Depth=2
	movq	-16(%rbp), %rdi
	addq	$928, %rdi              # imm = 0x3A0
	movslq	-8(%rbp), %rax
	imulq	$240, %rax, %rax
	addq	%rax, %rdi
	movslq	-4(%rbp), %rax
	shlq	$4, %rax
	addq	%rax, %rdi
	movq	img, %rax
	movslq	72520(%rax), %rax
	imulq	$960, %rax, %rax        # imm = 0x3C0
	movabsq	$INIT_MAP_I, %rsi
	addq	%rax, %rsi
	movslq	-8(%rbp), %rax
	imulq	$120, %rax, %rax
	addq	%rax, %rsi
	movslq	-4(%rbp), %rax
	shlq	$3, %rax
	addq	%rax, %rsi
	callq	biari_init_context
	jmp	.LBB9_108
.LBB9_107:                              # %if.else412
                                        #   in Loop: Header=BB9_104 Depth=2
	movq	-16(%rbp), %rdi
	addq	$928, %rdi              # imm = 0x3A0
	movslq	-8(%rbp), %rax
	imulq	$240, %rax, %rax
	addq	%rax, %rdi
	movslq	-4(%rbp), %rax
	shlq	$4, %rax
	addq	%rax, %rdi
	movq	img, %rax
	movslq	72520(%rax), %rax
	imulq	$960, %rax, %rax        # imm = 0x3C0
	movabsq	$INIT_MAP_P, %rsi
	addq	%rax, %rsi
	movslq	-8(%rbp), %rax
	imulq	$120, %rax, %rax
	addq	%rax, %rsi
	movslq	-4(%rbp), %rax
	shlq	$3, %rax
	addq	%rax, %rsi
	callq	biari_init_context
.LBB9_108:                              # %if.end426
                                        #   in Loop: Header=BB9_104 Depth=2
	jmp	.LBB9_109
.LBB9_109:                              # %for.inc427
                                        #   in Loop: Header=BB9_104 Depth=2
	movl	-4(%rbp), %eax
	addl	$1, %eax
	movl	%eax, -4(%rbp)
	jmp	.LBB9_104
.LBB9_110:                              # %for.end429
                                        #   in Loop: Header=BB9_102 Depth=1
	jmp	.LBB9_111
.LBB9_111:                              # %for.inc430
                                        #   in Loop: Header=BB9_102 Depth=1
	movl	-8(%rbp), %eax
	addl	$1, %eax
	movl	%eax, -8(%rbp)
	jmp	.LBB9_102
.LBB9_112:                              # %for.end432
	movl	$0, -8(%rbp)
.LBB9_113:                              # %for.cond433
                                        # =>This Loop Header: Depth=1
                                        #     Child Loop BB9_115 Depth 2
	cmpl	$10, -8(%rbp)
	jge	.LBB9_123
# %bb.114:                              # %for.body435
                                        #   in Loop: Header=BB9_113 Depth=1
	movl	$0, -4(%rbp)
.LBB9_115:                              # %for.cond436
                                        #   Parent Loop BB9_113 Depth=1
                                        # =>  This Inner Loop Header: Depth=2
	cmpl	$15, -4(%rbp)
	jge	.LBB9_121
# %bb.116:                              # %for.body438
                                        #   in Loop: Header=BB9_115 Depth=2
	movq	img, %rax
	cmpl	$2, 24(%rax)
	jne	.LBB9_118
# %bb.117:                              # %if.then441
                                        #   in Loop: Header=BB9_115 Depth=2
	movq	-16(%rbp), %rdi
	addq	$3328, %rdi             # imm = 0xD00
	movslq	-8(%rbp), %rax
	imulq	$240, %rax, %rax
	addq	%rax, %rdi
	movslq	-4(%rbp), %rax
	shlq	$4, %rax
	addq	%rax, %rdi
	movq	img, %rax
	movslq	72520(%rax), %rax
	imulq	$960, %rax, %rax        # imm = 0x3C0
	movabsq	$INIT_LAST_I, %rsi
	addq	%rax, %rsi
	movslq	-8(%rbp), %rax
	imulq	$120, %rax, %rax
	addq	%rax, %rsi
	movslq	-4(%rbp), %rax
	shlq	$3, %rax
	addq	%rax, %rsi
	callq	biari_init_context
	jmp	.LBB9_119
.LBB9_118:                              # %if.else454
                                        #   in Loop: Header=BB9_115 Depth=2
	movq	-16(%rbp), %rdi
	addq	$3328, %rdi             # imm = 0xD00
	movslq	-8(%rbp), %rax
	imulq	$240, %rax, %rax
	addq	%rax, %rdi
	movslq	-4(%rbp), %rax
	shlq	$4, %rax
	addq	%rax, %rdi
	movq	img, %rax
	movslq	72520(%rax), %rax
	imulq	$960, %rax, %rax        # imm = 0x3C0
	movabsq	$INIT_LAST_P, %rsi
	addq	%rax, %rsi
	movslq	-8(%rbp), %rax
	imulq	$120, %rax, %rax
	addq	%rax, %rsi
	movslq	-4(%rbp), %rax
	shlq	$3, %rax
	addq	%rax, %rsi
	callq	biari_init_context
.LBB9_119:                              # %if.end468
                                        #   in Loop: Header=BB9_115 Depth=2
	jmp	.LBB9_120
.LBB9_120:                              # %for.inc469
                                        #   in Loop: Header=BB9_115 Depth=2
	movl	-4(%rbp), %eax
	addl	$1, %eax
	movl	%eax, -4(%rbp)
	jmp	.LBB9_115
.LBB9_121:                              # %for.end471
                                        #   in Loop: Header=BB9_113 Depth=1
	jmp	.LBB9_122
.LBB9_122:                              # %for.inc472
                                        #   in Loop: Header=BB9_113 Depth=1
	movl	-8(%rbp), %eax
	addl	$1, %eax
	movl	%eax, -8(%rbp)
	jmp	.LBB9_113
.LBB9_123:                              # %for.end474
	movl	$0, -8(%rbp)
.LBB9_124:                              # %for.cond475
                                        # =>This Loop Header: Depth=1
                                        #     Child Loop BB9_126 Depth 2
	cmpl	$10, -8(%rbp)
	jge	.LBB9_134
# %bb.125:                              # %for.body477
                                        #   in Loop: Header=BB9_124 Depth=1
	movl	$0, -4(%rbp)
.LBB9_126:                              # %for.cond478
                                        #   Parent Loop BB9_124 Depth=1
                                        # =>  This Inner Loop Header: Depth=2
	cmpl	$5, -4(%rbp)
	jge	.LBB9_132
# %bb.127:                              # %for.body480
                                        #   in Loop: Header=BB9_126 Depth=2
	movq	img, %rax
	cmpl	$2, 24(%rax)
	jne	.LBB9_129
# %bb.128:                              # %if.then483
                                        #   in Loop: Header=BB9_126 Depth=2
	movq	-16(%rbp), %rdi
	addq	$5728, %rdi             # imm = 0x1660
	movslq	-8(%rbp), %rax
	imulq	$80, %rax, %rax
	addq	%rax, %rdi
	movslq	-4(%rbp), %rax
	shlq	$4, %rax
	addq	%rax, %rdi
	movq	img, %rax
	movslq	72520(%rax), %rax
	imulq	$320, %rax, %rax        # imm = 0x140
	movabsq	$INIT_ONE_I, %rsi
	addq	%rax, %rsi
	movslq	-8(%rbp), %rax
	imulq	$40, %rax, %rax
	addq	%rax, %rsi
	movslq	-4(%rbp), %rax
	shlq	$3, %rax
	addq	%rax, %rsi
	callq	biari_init_context
	jmp	.LBB9_130
.LBB9_129:                              # %if.else496
                                        #   in Loop: Header=BB9_126 Depth=2
	movq	-16(%rbp), %rdi
	addq	$5728, %rdi             # imm = 0x1660
	movslq	-8(%rbp), %rax
	imulq	$80, %rax, %rax
	addq	%rax, %rdi
	movslq	-4(%rbp), %rax
	shlq	$4, %rax
	addq	%rax, %rdi
	movq	img, %rax
	movslq	72520(%rax), %rax
	imulq	$320, %rax, %rax        # imm = 0x140
	movabsq	$INIT_ONE_P, %rsi
	addq	%rax, %rsi
	movslq	-8(%rbp), %rax
	imulq	$40, %rax, %rax
	addq	%rax, %rsi
	movslq	-4(%rbp), %rax
	shlq	$3, %rax
	addq	%rax, %rsi
	callq	biari_init_context
.LBB9_130:                              # %if.end510
                                        #   in Loop: Header=BB9_126 Depth=2
	jmp	.LBB9_131
.LBB9_131:                              # %for.inc511
                                        #   in Loop: Header=BB9_126 Depth=2
	movl	-4(%rbp), %eax
	addl	$1, %eax
	movl	%eax, -4(%rbp)
	jmp	.LBB9_126
.LBB9_132:                              # %for.end513
                                        #   in Loop: Header=BB9_124 Depth=1
	jmp	.LBB9_133
.LBB9_133:                              # %for.inc514
                                        #   in Loop: Header=BB9_124 Depth=1
	movl	-8(%rbp), %eax
	addl	$1, %eax
	movl	%eax, -8(%rbp)
	jmp	.LBB9_124
.LBB9_134:                              # %for.end516
	movl	$0, -8(%rbp)
.LBB9_135:                              # %for.cond517
                                        # =>This Loop Header: Depth=1
                                        #     Child Loop BB9_137 Depth 2
	cmpl	$10, -8(%rbp)
	jge	.LBB9_145
# %bb.136:                              # %for.body519
                                        #   in Loop: Header=BB9_135 Depth=1
	movl	$0, -4(%rbp)
.LBB9_137:                              # %for.cond520
                                        #   Parent Loop BB9_135 Depth=1
                                        # =>  This Inner Loop Header: Depth=2
	cmpl	$5, -4(%rbp)
	jge	.LBB9_143
# %bb.138:                              # %for.body522
                                        #   in Loop: Header=BB9_137 Depth=2
	movq	img, %rax
	cmpl	$2, 24(%rax)
	jne	.LBB9_140
# %bb.139:                              # %if.then525
                                        #   in Loop: Header=BB9_137 Depth=2
	movq	-16(%rbp), %rdi
	addq	$6528, %rdi             # imm = 0x1980
	movslq	-8(%rbp), %rax
	imulq	$80, %rax, %rax
	addq	%rax, %rdi
	movslq	-4(%rbp), %rax
	shlq	$4, %rax
	addq	%rax, %rdi
	movq	img, %rax
	movslq	72520(%rax), %rax
	imulq	$320, %rax, %rax        # imm = 0x140
	movabsq	$INIT_ABS_I, %rsi
	addq	%rax, %rsi
	movslq	-8(%rbp), %rax
	imulq	$40, %rax, %rax
	addq	%rax, %rsi
	movslq	-4(%rbp), %rax
	shlq	$3, %rax
	addq	%rax, %rsi
	callq	biari_init_context
	jmp	.LBB9_141
.LBB9_140:                              # %if.else538
                                        #   in Loop: Header=BB9_137 Depth=2
	movq	-16(%rbp), %rdi
	addq	$6528, %rdi             # imm = 0x1980
	movslq	-8(%rbp), %rax
	imulq	$80, %rax, %rax
	addq	%rax, %rdi
	movslq	-4(%rbp), %rax
	shlq	$4, %rax
	addq	%rax, %rdi
	movq	img, %rax
	movslq	72520(%rax), %rax
	imulq	$320, %rax, %rax        # imm = 0x140
	movabsq	$INIT_ABS_P, %rsi
	addq	%rax, %rsi
	movslq	-8(%rbp), %rax
	imulq	$40, %rax, %rax
	addq	%rax, %rsi
	movslq	-4(%rbp), %rax
	shlq	$3, %rax
	addq	%rax, %rsi
	callq	biari_init_context
.LBB9_141:                              # %if.end552
                                        #   in Loop: Header=BB9_137 Depth=2
	jmp	.LBB9_142
.LBB9_142:                              # %for.inc553
                                        #   in Loop: Header=BB9_137 Depth=2
	movl	-4(%rbp), %eax
	addl	$1, %eax
	movl	%eax, -4(%rbp)
	jmp	.LBB9_137
.LBB9_143:                              # %for.end555
                                        #   in Loop: Header=BB9_135 Depth=1
	jmp	.LBB9_144
.LBB9_144:                              # %for.inc556
                                        #   in Loop: Header=BB9_135 Depth=1
	movl	-8(%rbp), %eax
	addl	$1, %eax
	movl	%eax, -8(%rbp)
	jmp	.LBB9_135
.LBB9_145:                              # %for.end558
	movl	$0, -8(%rbp)
.LBB9_146:                              # %for.cond559
                                        # =>This Loop Header: Depth=1
                                        #     Child Loop BB9_148 Depth 2
	cmpl	$10, -8(%rbp)
	jge	.LBB9_156
# %bb.147:                              # %for.body561
                                        #   in Loop: Header=BB9_146 Depth=1
	movl	$0, -4(%rbp)
.LBB9_148:                              # %for.cond562
                                        #   Parent Loop BB9_146 Depth=1
                                        # =>  This Inner Loop Header: Depth=2
	cmpl	$15, -4(%rbp)
	jge	.LBB9_154
# %bb.149:                              # %for.body564
                                        #   in Loop: Header=BB9_148 Depth=2
	movq	img, %rax
	cmpl	$2, 24(%rax)
	jne	.LBB9_151
# %bb.150:                              # %if.then567
                                        #   in Loop: Header=BB9_148 Depth=2
	movq	-16(%rbp), %rdi
	addq	$7328, %rdi             # imm = 0x1CA0
	movslq	-8(%rbp), %rax
	imulq	$240, %rax, %rax
	addq	%rax, %rdi
	movslq	-4(%rbp), %rax
	shlq	$4, %rax
	addq	%rax, %rdi
	movq	img, %rax
	movslq	72520(%rax), %rax
	imulq	$960, %rax, %rax        # imm = 0x3C0
	movabsq	$INIT_FLD_MAP_I, %rsi
	addq	%rax, %rsi
	movslq	-8(%rbp), %rax
	imulq	$120, %rax, %rax
	addq	%rax, %rsi
	movslq	-4(%rbp), %rax
	shlq	$3, %rax
	addq	%rax, %rsi
	callq	biari_init_context
	jmp	.LBB9_152
.LBB9_151:                              # %if.else580
                                        #   in Loop: Header=BB9_148 Depth=2
	movq	-16(%rbp), %rdi
	addq	$7328, %rdi             # imm = 0x1CA0
	movslq	-8(%rbp), %rax
	imulq	$240, %rax, %rax
	addq	%rax, %rdi
	movslq	-4(%rbp), %rax
	shlq	$4, %rax
	addq	%rax, %rdi
	movq	img, %rax
	movslq	72520(%rax), %rax
	imulq	$960, %rax, %rax        # imm = 0x3C0
	movabsq	$INIT_FLD_MAP_P, %rsi
	addq	%rax, %rsi
	movslq	-8(%rbp), %rax
	imulq	$120, %rax, %rax
	addq	%rax, %rsi
	movslq	-4(%rbp), %rax
	shlq	$3, %rax
	addq	%rax, %rsi
	callq	biari_init_context
.LBB9_152:                              # %if.end594
                                        #   in Loop: Header=BB9_148 Depth=2
	jmp	.LBB9_153
.LBB9_153:                              # %for.inc595
                                        #   in Loop: Header=BB9_148 Depth=2
	movl	-4(%rbp), %eax
	addl	$1, %eax
	movl	%eax, -4(%rbp)
	jmp	.LBB9_148
.LBB9_154:                              # %for.end597
                                        #   in Loop: Header=BB9_146 Depth=1
	jmp	.LBB9_155
.LBB9_155:                              # %for.inc598
                                        #   in Loop: Header=BB9_146 Depth=1
	movl	-8(%rbp), %eax
	addl	$1, %eax
	movl	%eax, -8(%rbp)
	jmp	.LBB9_146
.LBB9_156:                              # %for.end600
	movl	$0, -8(%rbp)
.LBB9_157:                              # %for.cond601
                                        # =>This Loop Header: Depth=1
                                        #     Child Loop BB9_159 Depth 2
	cmpl	$10, -8(%rbp)
	jge	.LBB9_167
# %bb.158:                              # %for.body603
                                        #   in Loop: Header=BB9_157 Depth=1
	movl	$0, -4(%rbp)
.LBB9_159:                              # %for.cond604
                                        #   Parent Loop BB9_157 Depth=1
                                        # =>  This Inner Loop Header: Depth=2
	cmpl	$15, -4(%rbp)
	jge	.LBB9_165
# %bb.160:                              # %for.body606
                                        #   in Loop: Header=BB9_159 Depth=2
	movq	img, %rax
	cmpl	$2, 24(%rax)
	jne	.LBB9_162
# %bb.161:                              # %if.then609
                                        #   in Loop: Header=BB9_159 Depth=2
	movq	-16(%rbp), %rdi
	addq	$9728, %rdi             # imm = 0x2600
	movslq	-8(%rbp), %rax
	imulq	$240, %rax, %rax
	addq	%rax, %rdi
	movslq	-4(%rbp), %rax
	shlq	$4, %rax
	addq	%rax, %rdi
	movq	img, %rax
	movslq	72520(%rax), %rax
	imulq	$960, %rax, %rax        # imm = 0x3C0
	movabsq	$INIT_FLD_LAST_I, %rsi
	addq	%rax, %rsi
	movslq	-8(%rbp), %rax
	imulq	$120, %rax, %rax
	addq	%rax, %rsi
	movslq	-4(%rbp), %rax
	shlq	$3, %rax
	addq	%rax, %rsi
	callq	biari_init_context
	jmp	.LBB9_163
.LBB9_162:                              # %if.else622
                                        #   in Loop: Header=BB9_159 Depth=2
	movq	-16(%rbp), %rdi
	addq	$9728, %rdi             # imm = 0x2600
	movslq	-8(%rbp), %rax
	imulq	$240, %rax, %rax
	addq	%rax, %rdi
	movslq	-4(%rbp), %rax
	shlq	$4, %rax
	addq	%rax, %rdi
	movq	img, %rax
	movslq	72520(%rax), %rax
	imulq	$960, %rax, %rax        # imm = 0x3C0
	movabsq	$INIT_FLD_LAST_P, %rsi
	addq	%rax, %rsi
	movslq	-8(%rbp), %rax
	imulq	$120, %rax, %rax
	addq	%rax, %rsi
	movslq	-4(%rbp), %rax
	shlq	$3, %rax
	addq	%rax, %rsi
	callq	biari_init_context
.LBB9_163:                              # %if.end636
                                        #   in Loop: Header=BB9_159 Depth=2
	jmp	.LBB9_164
.LBB9_164:                              # %for.inc637
                                        #   in Loop: Header=BB9_159 Depth=2
	movl	-4(%rbp), %eax
	addl	$1, %eax
	movl	%eax, -4(%rbp)
	jmp	.LBB9_159
.LBB9_165:                              # %for.end639
                                        #   in Loop: Header=BB9_157 Depth=1
	jmp	.LBB9_166
.LBB9_166:                              # %for.inc640
                                        #   in Loop: Header=BB9_157 Depth=1
	movl	-8(%rbp), %eax
	addl	$1, %eax
	movl	%eax, -8(%rbp)
	jmp	.LBB9_157
.LBB9_167:                              # %for.end642
	cmpl	$407840335, -28(%rbp)   # imm = 0x184F264F
	jne	.LBB9_169
.LBB9_168:
	addq	$32, %rsp
	popq	%rbp
	.cfi_def_cfa %rsp, 8
	retq
.LBB9_169:                              # %func_exit
	.cfi_def_cfa %rbp, 16
	callq	detect_breach
	jmp	.LBB9_168
.Lfunc_end9:
	.size	init_contexts.2, .Lfunc_end9-init_contexts.2
	.cfi_endproc
                                        # -- End function
	.globl	store_contexts.3        # -- Begin function store_contexts.3
	.p2align	4, 0x90
	.type	store_contexts.3,@function
store_contexts.3:                       # @store_contexts.3
	.cfi_startproc
# %bb.0:                                # %entry
	pushq	%rbp
	.cfi_def_cfa_offset 16
	.cfi_offset %rbp, -16
	movq	%rsp, %rbp
	.cfi_def_cfa_register %rbp
	subq	$16, %rsp
	movl	$556730093, -16(%rbp)   # imm = 0x212F06ED
	movq	img, %rax
	movl	72444(%rax), %eax
	movl	%eax, -8(%rbp)
	movq	img, %rax
	movl	24(%rax), %eax
	movl	%eax, -4(%rbp)
	movq	img, %rax
	movq	14160(%rax), %rax
	movl	12(%rax), %eax
	cltd
	idivl	num_mb_per_slice
	movl	%eax, -12(%rbp)
	movq	input, %rax
	cmpl	$0, 3212(%rax)
	je	.LBB10_2
# %bb.1:                                # %if.then
	movq	initialized, %rax
	movslq	-8(%rbp), %rcx
	movq	(%rax,%rcx,8), %rax
	movslq	-4(%rbp), %rcx
	movq	(%rax,%rcx,8), %rax
	movslq	-12(%rbp), %rcx
	movl	$1, (%rax,%rcx,4)
	movq	model_number, %rax
	movslq	-8(%rbp), %rcx
	movq	(%rax,%rcx,8), %rax
	movslq	-4(%rbp), %rcx
	movq	(%rax,%rcx,8), %rdi
	movslq	-12(%rbp), %rax
	shlq	$2, %rax
	addq	%rax, %rdi
	movq	img, %rax
	movq	14160(%rax), %rax
	movq	32(%rax), %rsi
	movq	img, %rax
	movq	14160(%rax), %rax
	movq	40(%rax), %rdx
	callq	GetCtxModelNumber
	jmp	.LBB10_3
.LBB10_2:                               # %if.else
	jmp	.LBB10_3
.LBB10_3:                               # %if.end
	cmpl	$556730093, -16(%rbp)   # imm = 0x212F06ED
	jne	.LBB10_5
.LBB10_4:
	addq	$16, %rsp
	popq	%rbp
	.cfi_def_cfa %rsp, 8
	retq
.LBB10_5:                               # %func_exit
	.cfi_def_cfa %rbp, 16
	callq	detect_breach
	jmp	.LBB10_4
.Lfunc_end10:
	.size	store_contexts.3, .Lfunc_end10-store_contexts.3
	.cfi_endproc
                                        # -- End function
	.globl	update_field_frame_contexts.4 # -- Begin function update_field_frame_contexts.4
	.p2align	4, 0x90
	.type	update_field_frame_contexts.4,@function
update_field_frame_contexts.4:          # @update_field_frame_contexts.4
	.cfi_startproc
# %bb.0:                                # %entry
	pushq	%rbp
	.cfi_def_cfa_offset 16
	.cfi_offset %rbp, -16
	movq	%rsp, %rbp
	.cfi_def_cfa_register %rbp
	subq	$16, %rsp
	movl	$1754235992, -12(%rbp)  # imm = 0x688F8458
	movl	%edi, -16(%rbp)
	cmpl	$0, -16(%rbp)
	je	.LBB11_10
# %bb.1:                                # %if.then
	movl	$0, -8(%rbp)
.LBB11_2:                               # %for.cond
                                        # =>This Loop Header: Depth=1
                                        #     Child Loop BB11_4 Depth 2
	cmpl	$4, -8(%rbp)
	jge	.LBB11_9
# %bb.3:                                # %for.body
                                        #   in Loop: Header=BB11_2 Depth=1
	movl	$0, -4(%rbp)
.LBB11_4:                               # %for.cond1
                                        #   Parent Loop BB11_2 Depth=1
                                        # =>  This Inner Loop Header: Depth=2
	movl	-4(%rbp), %eax
	cmpl	number_of_slices, %eax
	jge	.LBB11_7
# %bb.5:                                # %for.body3
                                        #   in Loop: Header=BB11_4 Depth=2
	movq	initialized, %rax
	movq	8(%rax), %rax
	movslq	-8(%rbp), %rcx
	movq	(%rax,%rcx,8), %rax
	movl	-4(%rbp), %ecx
	sarl	$1, %ecx
	movslq	%ecx, %rcx
	movl	(%rax,%rcx,4), %eax
	movq	initialized, %rcx
	movq	(%rcx), %rcx
	movslq	-8(%rbp), %rdx
	movq	(%rcx,%rdx,8), %rcx
	movslq	-4(%rbp), %rdx
	movl	%eax, (%rcx,%rdx,4)
	movq	model_number, %rax
	movq	8(%rax), %rax
	movslq	-8(%rbp), %rcx
	movq	(%rax,%rcx,8), %rax
	movl	-4(%rbp), %ecx
	sarl	$1, %ecx
	movslq	%ecx, %rcx
	movl	(%rax,%rcx,4), %eax
	movq	model_number, %rcx
	movq	(%rcx), %rcx
	movslq	-8(%rbp), %rdx
	movq	(%rcx,%rdx,8), %rcx
	movslq	-4(%rbp), %rdx
	movl	%eax, (%rcx,%rdx,4)
# %bb.6:                                # %for.inc
                                        #   in Loop: Header=BB11_4 Depth=2
	movl	-4(%rbp), %eax
	addl	$1, %eax
	movl	%eax, -4(%rbp)
	jmp	.LBB11_4
.LBB11_7:                               # %for.end
                                        #   in Loop: Header=BB11_2 Depth=1
	jmp	.LBB11_8
.LBB11_8:                               # %for.inc23
                                        #   in Loop: Header=BB11_2 Depth=1
	movl	-8(%rbp), %eax
	addl	$1, %eax
	movl	%eax, -8(%rbp)
	jmp	.LBB11_2
.LBB11_9:                               # %for.end25
	jmp	.LBB11_19
.LBB11_10:                              # %if.else
	movl	$0, -8(%rbp)
.LBB11_11:                              # %for.cond26
                                        # =>This Loop Header: Depth=1
                                        #     Child Loop BB11_13 Depth 2
	cmpl	$4, -8(%rbp)
	jge	.LBB11_18
# %bb.12:                               # %for.body28
                                        #   in Loop: Header=BB11_11 Depth=1
	movl	$0, -4(%rbp)
.LBB11_13:                              # %for.cond29
                                        #   Parent Loop BB11_11 Depth=1
                                        # =>  This Inner Loop Header: Depth=2
	movl	-4(%rbp), %eax
	movl	number_of_slices, %ecx
	addl	$1, %ecx
	sarl	$1, %ecx
	cmpl	%ecx, %eax
	jge	.LBB11_16
# %bb.14:                               # %for.body32
                                        #   in Loop: Header=BB11_13 Depth=2
	movq	initialized, %rax
	movq	(%rax), %rax
	movslq	-8(%rbp), %rcx
	movq	(%rax,%rcx,8), %rax
	movl	-4(%rbp), %ecx
	shll	$1, %ecx
	movslq	%ecx, %rcx
	movl	(%rax,%rcx,4), %eax
	movq	initialized, %rcx
	movq	8(%rcx), %rcx
	movslq	-8(%rbp), %rdx
	movq	(%rcx,%rdx,8), %rcx
	movslq	-4(%rbp), %rdx
	movl	%eax, (%rcx,%rdx,4)
	movq	model_number, %rax
	movq	(%rax), %rax
	movslq	-8(%rbp), %rcx
	movq	(%rax,%rcx,8), %rax
	movl	-4(%rbp), %ecx
	shll	$1, %ecx
	movslq	%ecx, %rcx
	movl	(%rax,%rcx,4), %eax
	movq	model_number, %rcx
	movq	8(%rcx), %rcx
	movslq	-8(%rbp), %rdx
	movq	(%rcx,%rdx,8), %rcx
	movslq	-4(%rbp), %rdx
	movl	%eax, (%rcx,%rdx,4)
# %bb.15:                               # %for.inc54
                                        #   in Loop: Header=BB11_13 Depth=2
	movl	-4(%rbp), %eax
	addl	$1, %eax
	movl	%eax, -4(%rbp)
	jmp	.LBB11_13
.LBB11_16:                              # %for.end56
                                        #   in Loop: Header=BB11_11 Depth=1
	jmp	.LBB11_17
.LBB11_17:                              # %for.inc57
                                        #   in Loop: Header=BB11_11 Depth=1
	movl	-8(%rbp), %eax
	addl	$1, %eax
	movl	%eax, -8(%rbp)
	jmp	.LBB11_11
.LBB11_18:                              # %for.end59
	jmp	.LBB11_19
.LBB11_19:                              # %if.end
	cmpl	$1754235992, -12(%rbp)  # imm = 0x688F8458
	jne	.LBB11_21
.LBB11_20:
	addq	$16, %rsp
	popq	%rbp
	.cfi_def_cfa %rsp, 8
	retq
.LBB11_21:                              # %func_exit
	.cfi_def_cfa %rbp, 16
	callq	detect_breach
	jmp	.LBB11_20
.Lfunc_end11:
	.size	update_field_frame_contexts.4, .Lfunc_end11-update_field_frame_contexts.4
	.cfi_endproc
                                        # -- End function
	.globl	SetCtxModelNumber.5     # -- Begin function SetCtxModelNumber.5
	.p2align	4, 0x90
	.type	SetCtxModelNumber.5,@function
SetCtxModelNumber.5:                    # @SetCtxModelNumber.5
	.cfi_startproc
# %bb.0:                                # %entry
	pushq	%rbp
	.cfi_def_cfa_offset 16
	.cfi_offset %rbp, -16
	movq	%rsp, %rbp
	.cfi_def_cfa_register %rbp
	subq	$16, %rsp
	movl	$1441532956, -16(%rbp)  # imm = 0x55EC0C1C
	movq	img, %rax
	movl	72444(%rax), %eax
	movl	%eax, -8(%rbp)
	movq	img, %rax
	movl	24(%rax), %eax
	movl	%eax, -12(%rbp)
	movq	img, %rax
	movq	14160(%rax), %rax
	movl	12(%rax), %eax
	cltd
	idivl	num_mb_per_slice
	movl	%eax, -4(%rbp)
	movq	img, %rax
	cmpl	$2, 24(%rax)
	jne	.LBB12_2
# %bb.1:                                # %if.then
	movq	img, %rax
	movl	$0, 72520(%rax)
	jmp	.LBB12_11
.LBB12_2:                               # %if.end
	movq	input, %rax
	cmpl	$0, 3212(%rax)
	jne	.LBB12_4
# %bb.3:                                # %if.then3
	movq	input, %rax
	movl	3216(%rax), %eax
	movq	img, %rcx
	movl	%eax, 72520(%rcx)
	jmp	.LBB12_11
.LBB12_4:                               # %if.end6
	movq	initialized, %rax
	movslq	-8(%rbp), %rcx
	movq	(%rax,%rcx,8), %rax
	movslq	-12(%rbp), %rcx
	movq	(%rax,%rcx,8), %rax
	movslq	-4(%rbp), %rcx
	cmpl	$0, (%rax,%rcx,4)
	je	.LBB12_6
# %bb.5:                                # %if.then11
	movq	model_number, %rax
	movslq	-8(%rbp), %rcx
	movq	(%rax,%rcx,8), %rax
	movslq	-12(%rbp), %rcx
	movq	(%rax,%rcx,8), %rax
	movslq	-4(%rbp), %rcx
	movl	(%rax,%rcx,4), %eax
	movq	img, %rcx
	movl	%eax, 72520(%rcx)
	jmp	.LBB12_11
.LBB12_6:                               # %if.else
	cmpl	$0, -4(%rbp)
	je	.LBB12_9
# %bb.7:                                # %land.lhs.true
	movq	initialized, %rax
	movslq	-8(%rbp), %rcx
	movq	(%rax,%rcx,8), %rax
	movslq	-12(%rbp), %rcx
	movq	(%rax,%rcx,8), %rax
	movl	-4(%rbp), %ecx
	subl	$1, %ecx
	movslq	%ecx, %rcx
	cmpl	$0, (%rax,%rcx,4)
	je	.LBB12_9
# %bb.8:                                # %if.then27
	movq	model_number, %rax
	movslq	-8(%rbp), %rcx
	movq	(%rax,%rcx,8), %rax
	movslq	-12(%rbp), %rcx
	movq	(%rax,%rcx,8), %rax
	movl	-4(%rbp), %ecx
	subl	$1, %ecx
	movslq	%ecx, %rcx
	movl	(%rax,%rcx,4), %eax
	movq	img, %rcx
	movl	%eax, 72520(%rcx)
	jmp	.LBB12_10
.LBB12_9:                               # %if.else36
	movq	img, %rax
	movl	$0, 72520(%rax)
.LBB12_10:                              # %if.end38
	jmp	.LBB12_11
.LBB12_11:                              # %if.end39
	cmpl	$1441532956, -16(%rbp)  # imm = 0x55EC0C1C
	jne	.LBB12_13
.LBB12_12:
	addq	$16, %rsp
	popq	%rbp
	.cfi_def_cfa %rsp, 8
	retq
.LBB12_13:                              # %func_exit
	.cfi_def_cfa %rbp, 16
	callq	detect_breach
	jmp	.LBB12_12
.Lfunc_end12:
	.size	SetCtxModelNumber.5, .Lfunc_end12-SetCtxModelNumber.5
	.cfi_endproc
                                        # -- End function
	.globl	init_contexts.6         # -- Begin function init_contexts.6
	.p2align	4, 0x90
	.type	init_contexts.6,@function
init_contexts.6:                        # @init_contexts.6
	.cfi_startproc
# %bb.0:                                # %entry
	pushq	%rbp
	.cfi_def_cfa_offset 16
	.cfi_offset %rbp, -16
	movq	%rsp, %rbp
	.cfi_def_cfa_register %rbp
	subq	$32, %rsp
	movl	$1059838256, -28(%rbp)  # imm = 0x3F2BD930
	movq	img, %rax
	movq	14160(%rax), %rax
	movq	32(%rax), %rax
	movq	%rax, -24(%rbp)
	movq	img, %rax
	movq	14160(%rax), %rax
	movq	40(%rax), %rax
	movq	%rax, -16(%rbp)
	movl	$0, -8(%rbp)
.LBB13_1:                               # %for.cond
                                        # =>This Loop Header: Depth=1
                                        #     Child Loop BB13_3 Depth 2
	cmpl	$3, -8(%rbp)
	jge	.LBB13_11
# %bb.2:                                # %for.body
                                        #   in Loop: Header=BB13_1 Depth=1
	movl	$0, -4(%rbp)
.LBB13_3:                               # %for.cond2
                                        #   Parent Loop BB13_1 Depth=1
                                        # =>  This Inner Loop Header: Depth=2
	cmpl	$11, -4(%rbp)
	jge	.LBB13_9
# %bb.4:                                # %for.body4
                                        #   in Loop: Header=BB13_3 Depth=2
	movq	img, %rax
	cmpl	$2, 24(%rax)
	jne	.LBB13_6
# %bb.5:                                # %if.then
                                        #   in Loop: Header=BB13_3 Depth=2
	movq	-24(%rbp), %rdi
	movslq	-8(%rbp), %rax
	imulq	$176, %rax, %rax
	addq	%rax, %rdi
	movslq	-4(%rbp), %rax
	shlq	$4, %rax
	addq	%rax, %rdi
	movq	img, %rax
	movslq	72520(%rax), %rax
	imulq	$264, %rax, %rax        # imm = 0x108
	movabsq	$INIT_MB_TYPE_I, %rsi
	addq	%rax, %rsi
	movslq	-8(%rbp), %rax
	imulq	$88, %rax, %rax
	addq	%rax, %rsi
	movslq	-4(%rbp), %rax
	shlq	$3, %rax
	addq	%rax, %rsi
	callq	biari_init_context
	jmp	.LBB13_7
.LBB13_6:                               # %if.else
                                        #   in Loop: Header=BB13_3 Depth=2
	movq	-24(%rbp), %rdi
	movslq	-8(%rbp), %rax
	imulq	$176, %rax, %rax
	addq	%rax, %rdi
	movslq	-4(%rbp), %rax
	shlq	$4, %rax
	addq	%rax, %rdi
	movq	img, %rax
	movslq	72520(%rax), %rax
	imulq	$264, %rax, %rax        # imm = 0x108
	movabsq	$INIT_MB_TYPE_P, %rsi
	addq	%rax, %rsi
	movslq	-8(%rbp), %rax
	imulq	$88, %rax, %rax
	addq	%rax, %rsi
	movslq	-4(%rbp), %rax
	shlq	$3, %rax
	addq	%rax, %rsi
	callq	biari_init_context
.LBB13_7:                               # %if.end
                                        #   in Loop: Header=BB13_3 Depth=2
	jmp	.LBB13_8
.LBB13_8:                               # %for.inc
                                        #   in Loop: Header=BB13_3 Depth=2
	movl	-4(%rbp), %eax
	addl	$1, %eax
	movl	%eax, -4(%rbp)
	jmp	.LBB13_3
.LBB13_9:                               # %for.end
                                        #   in Loop: Header=BB13_1 Depth=1
	jmp	.LBB13_10
.LBB13_10:                              # %for.inc28
                                        #   in Loop: Header=BB13_1 Depth=1
	movl	-8(%rbp), %eax
	addl	$1, %eax
	movl	%eax, -8(%rbp)
	jmp	.LBB13_1
.LBB13_11:                              # %for.end30
	movl	$0, -8(%rbp)
.LBB13_12:                              # %for.cond31
                                        # =>This Loop Header: Depth=1
                                        #     Child Loop BB13_14 Depth 2
	cmpl	$2, -8(%rbp)
	jge	.LBB13_22
# %bb.13:                               # %for.body33
                                        #   in Loop: Header=BB13_12 Depth=1
	movl	$0, -4(%rbp)
.LBB13_14:                              # %for.cond34
                                        #   Parent Loop BB13_12 Depth=1
                                        # =>  This Inner Loop Header: Depth=2
	cmpl	$9, -4(%rbp)
	jge	.LBB13_20
# %bb.15:                               # %for.body36
                                        #   in Loop: Header=BB13_14 Depth=2
	movq	img, %rax
	cmpl	$2, 24(%rax)
	jne	.LBB13_17
# %bb.16:                               # %if.then39
                                        #   in Loop: Header=BB13_14 Depth=2
	movq	-24(%rbp), %rdi
	addq	$528, %rdi              # imm = 0x210
	movslq	-8(%rbp), %rax
	imulq	$144, %rax, %rax
	addq	%rax, %rdi
	movslq	-4(%rbp), %rax
	shlq	$4, %rax
	addq	%rax, %rdi
	movq	img, %rax
	movslq	72520(%rax), %rax
	imulq	$144, %rax, %rax
	movabsq	$INIT_B8_TYPE_I, %rsi
	addq	%rax, %rsi
	movslq	-8(%rbp), %rax
	imulq	$72, %rax, %rax
	addq	%rax, %rsi
	movslq	-4(%rbp), %rax
	shlq	$3, %rax
	addq	%rax, %rsi
	callq	biari_init_context
	jmp	.LBB13_18
.LBB13_17:                              # %if.else52
                                        #   in Loop: Header=BB13_14 Depth=2
	movq	-24(%rbp), %rdi
	addq	$528, %rdi              # imm = 0x210
	movslq	-8(%rbp), %rax
	imulq	$144, %rax, %rax
	addq	%rax, %rdi
	movslq	-4(%rbp), %rax
	shlq	$4, %rax
	addq	%rax, %rdi
	movq	img, %rax
	movslq	72520(%rax), %rax
	imulq	$144, %rax, %rax
	movabsq	$INIT_B8_TYPE_P, %rsi
	addq	%rax, %rsi
	movslq	-8(%rbp), %rax
	imulq	$72, %rax, %rax
	addq	%rax, %rsi
	movslq	-4(%rbp), %rax
	shlq	$3, %rax
	addq	%rax, %rsi
	callq	biari_init_context
.LBB13_18:                              # %if.end66
                                        #   in Loop: Header=BB13_14 Depth=2
	jmp	.LBB13_19
.LBB13_19:                              # %for.inc67
                                        #   in Loop: Header=BB13_14 Depth=2
	movl	-4(%rbp), %eax
	addl	$1, %eax
	movl	%eax, -4(%rbp)
	jmp	.LBB13_14
.LBB13_20:                              # %for.end69
                                        #   in Loop: Header=BB13_12 Depth=1
	jmp	.LBB13_21
.LBB13_21:                              # %for.inc70
                                        #   in Loop: Header=BB13_12 Depth=1
	movl	-8(%rbp), %eax
	addl	$1, %eax
	movl	%eax, -8(%rbp)
	jmp	.LBB13_12
.LBB13_22:                              # %for.end72
	movl	$0, -8(%rbp)
.LBB13_23:                              # %for.cond73
                                        # =>This Loop Header: Depth=1
                                        #     Child Loop BB13_25 Depth 2
	cmpl	$2, -8(%rbp)
	jge	.LBB13_33
# %bb.24:                               # %for.body75
                                        #   in Loop: Header=BB13_23 Depth=1
	movl	$0, -4(%rbp)
.LBB13_25:                              # %for.cond76
                                        #   Parent Loop BB13_23 Depth=1
                                        # =>  This Inner Loop Header: Depth=2
	cmpl	$10, -4(%rbp)
	jge	.LBB13_31
# %bb.26:                               # %for.body78
                                        #   in Loop: Header=BB13_25 Depth=2
	movq	img, %rax
	cmpl	$2, 24(%rax)
	jne	.LBB13_28
# %bb.27:                               # %if.then81
                                        #   in Loop: Header=BB13_25 Depth=2
	movq	-24(%rbp), %rdi
	addq	$816, %rdi              # imm = 0x330
	movslq	-8(%rbp), %rax
	imulq	$160, %rax, %rax
	addq	%rax, %rdi
	movslq	-4(%rbp), %rax
	shlq	$4, %rax
	addq	%rax, %rdi
	movq	img, %rax
	movslq	72520(%rax), %rax
	imulq	$160, %rax, %rax
	movabsq	$INIT_MV_RES_I, %rsi
	addq	%rax, %rsi
	movslq	-8(%rbp), %rax
	imulq	$80, %rax, %rax
	addq	%rax, %rsi
	movslq	-4(%rbp), %rax
	shlq	$3, %rax
	addq	%rax, %rsi
	callq	biari_init_context
	jmp	.LBB13_29
.LBB13_28:                              # %if.else94
                                        #   in Loop: Header=BB13_25 Depth=2
	movq	-24(%rbp), %rdi
	addq	$816, %rdi              # imm = 0x330
	movslq	-8(%rbp), %rax
	imulq	$160, %rax, %rax
	addq	%rax, %rdi
	movslq	-4(%rbp), %rax
	shlq	$4, %rax
	addq	%rax, %rdi
	movq	img, %rax
	movslq	72520(%rax), %rax
	imulq	$160, %rax, %rax
	movabsq	$INIT_MV_RES_P, %rsi
	addq	%rax, %rsi
	movslq	-8(%rbp), %rax
	imulq	$80, %rax, %rax
	addq	%rax, %rsi
	movslq	-4(%rbp), %rax
	shlq	$3, %rax
	addq	%rax, %rsi
	callq	biari_init_context
.LBB13_29:                              # %if.end108
                                        #   in Loop: Header=BB13_25 Depth=2
	jmp	.LBB13_30
.LBB13_30:                              # %for.inc109
                                        #   in Loop: Header=BB13_25 Depth=2
	movl	-4(%rbp), %eax
	addl	$1, %eax
	movl	%eax, -4(%rbp)
	jmp	.LBB13_25
.LBB13_31:                              # %for.end111
                                        #   in Loop: Header=BB13_23 Depth=1
	jmp	.LBB13_32
.LBB13_32:                              # %for.inc112
                                        #   in Loop: Header=BB13_23 Depth=1
	movl	-8(%rbp), %eax
	addl	$1, %eax
	movl	%eax, -8(%rbp)
	jmp	.LBB13_23
.LBB13_33:                              # %for.end114
	movl	$0, -8(%rbp)
.LBB13_34:                              # %for.cond115
                                        # =>This Loop Header: Depth=1
                                        #     Child Loop BB13_36 Depth 2
	cmpl	$2, -8(%rbp)
	jge	.LBB13_44
# %bb.35:                               # %for.body117
                                        #   in Loop: Header=BB13_34 Depth=1
	movl	$0, -4(%rbp)
.LBB13_36:                              # %for.cond118
                                        #   Parent Loop BB13_34 Depth=1
                                        # =>  This Inner Loop Header: Depth=2
	cmpl	$6, -4(%rbp)
	jge	.LBB13_42
# %bb.37:                               # %for.body120
                                        #   in Loop: Header=BB13_36 Depth=2
	movq	img, %rax
	cmpl	$2, 24(%rax)
	jne	.LBB13_39
# %bb.38:                               # %if.then123
                                        #   in Loop: Header=BB13_36 Depth=2
	movq	-24(%rbp), %rdi
	addq	$1136, %rdi             # imm = 0x470
	movslq	-8(%rbp), %rax
	imulq	$96, %rax, %rax
	addq	%rax, %rdi
	movslq	-4(%rbp), %rax
	shlq	$4, %rax
	addq	%rax, %rdi
	movq	img, %rax
	movslq	72520(%rax), %rax
	imulq	$96, %rax, %rax
	movabsq	$INIT_REF_NO_I, %rsi
	addq	%rax, %rsi
	movslq	-8(%rbp), %rax
	imulq	$48, %rax, %rax
	addq	%rax, %rsi
	movslq	-4(%rbp), %rax
	shlq	$3, %rax
	addq	%rax, %rsi
	callq	biari_init_context
	jmp	.LBB13_40
.LBB13_39:                              # %if.else136
                                        #   in Loop: Header=BB13_36 Depth=2
	movq	-24(%rbp), %rdi
	addq	$1136, %rdi             # imm = 0x470
	movslq	-8(%rbp), %rax
	imulq	$96, %rax, %rax
	addq	%rax, %rdi
	movslq	-4(%rbp), %rax
	shlq	$4, %rax
	addq	%rax, %rdi
	movq	img, %rax
	movslq	72520(%rax), %rax
	imulq	$96, %rax, %rax
	movabsq	$INIT_REF_NO_P, %rsi
	addq	%rax, %rsi
	movslq	-8(%rbp), %rax
	imulq	$48, %rax, %rax
	addq	%rax, %rsi
	movslq	-4(%rbp), %rax
	shlq	$3, %rax
	addq	%rax, %rsi
	callq	biari_init_context
.LBB13_40:                              # %if.end150
                                        #   in Loop: Header=BB13_36 Depth=2
	jmp	.LBB13_41
.LBB13_41:                              # %for.inc151
                                        #   in Loop: Header=BB13_36 Depth=2
	movl	-4(%rbp), %eax
	addl	$1, %eax
	movl	%eax, -4(%rbp)
	jmp	.LBB13_36
.LBB13_42:                              # %for.end153
                                        #   in Loop: Header=BB13_34 Depth=1
	jmp	.LBB13_43
.LBB13_43:                              # %for.inc154
                                        #   in Loop: Header=BB13_34 Depth=1
	movl	-8(%rbp), %eax
	addl	$1, %eax
	movl	%eax, -8(%rbp)
	jmp	.LBB13_34
.LBB13_44:                              # %for.end156
	movl	$0, -4(%rbp)
.LBB13_45:                              # %for.cond157
                                        # =>This Inner Loop Header: Depth=1
	cmpl	$4, -4(%rbp)
	jge	.LBB13_51
# %bb.46:                               # %for.body159
                                        #   in Loop: Header=BB13_45 Depth=1
	movq	img, %rax
	cmpl	$2, 24(%rax)
	jne	.LBB13_48
# %bb.47:                               # %if.then162
                                        #   in Loop: Header=BB13_45 Depth=1
	movq	-24(%rbp), %rdi
	addq	$1328, %rdi             # imm = 0x530
	movslq	-4(%rbp), %rax
	shlq	$4, %rax
	addq	%rax, %rdi
	movq	img, %rax
	movslq	72520(%rax), %rax
	shlq	$5, %rax
	movabsq	$INIT_DELTA_QP_I, %rsi
	addq	%rax, %rsi
	movslq	-4(%rbp), %rax
	shlq	$3, %rax
	addq	%rax, %rsi
	callq	biari_init_context
	jmp	.LBB13_49
.LBB13_48:                              # %if.else172
                                        #   in Loop: Header=BB13_45 Depth=1
	movq	-24(%rbp), %rdi
	addq	$1328, %rdi             # imm = 0x530
	movslq	-4(%rbp), %rax
	shlq	$4, %rax
	addq	%rax, %rdi
	movq	img, %rax
	movslq	72520(%rax), %rax
	shlq	$5, %rax
	movabsq	$INIT_DELTA_QP_P, %rsi
	addq	%rax, %rsi
	movslq	-4(%rbp), %rax
	shlq	$3, %rax
	addq	%rax, %rsi
	callq	biari_init_context
.LBB13_49:                              # %if.end183
                                        #   in Loop: Header=BB13_45 Depth=1
	jmp	.LBB13_50
.LBB13_50:                              # %for.inc184
                                        #   in Loop: Header=BB13_45 Depth=1
	movl	-4(%rbp), %eax
	addl	$1, %eax
	movl	%eax, -4(%rbp)
	jmp	.LBB13_45
.LBB13_51:                              # %for.end186
	movl	$0, -4(%rbp)
.LBB13_52:                              # %for.cond187
                                        # =>This Inner Loop Header: Depth=1
	cmpl	$4, -4(%rbp)
	jge	.LBB13_58
# %bb.53:                               # %for.body189
                                        #   in Loop: Header=BB13_52 Depth=1
	movq	img, %rax
	cmpl	$2, 24(%rax)
	jne	.LBB13_55
# %bb.54:                               # %if.then192
                                        #   in Loop: Header=BB13_52 Depth=1
	movq	-24(%rbp), %rdi
	addq	$1392, %rdi             # imm = 0x570
	movslq	-4(%rbp), %rax
	shlq	$4, %rax
	addq	%rax, %rdi
	movq	img, %rax
	movslq	72520(%rax), %rax
	shlq	$5, %rax
	movabsq	$INIT_MB_AFF_I, %rsi
	addq	%rax, %rsi
	movslq	-4(%rbp), %rax
	shlq	$3, %rax
	addq	%rax, %rsi
	callq	biari_init_context
	jmp	.LBB13_56
.LBB13_55:                              # %if.else202
                                        #   in Loop: Header=BB13_52 Depth=1
	movq	-24(%rbp), %rdi
	addq	$1392, %rdi             # imm = 0x570
	movslq	-4(%rbp), %rax
	shlq	$4, %rax
	addq	%rax, %rdi
	movq	img, %rax
	movslq	72520(%rax), %rax
	shlq	$5, %rax
	movabsq	$INIT_MB_AFF_P, %rsi
	addq	%rax, %rsi
	movslq	-4(%rbp), %rax
	shlq	$3, %rax
	addq	%rax, %rsi
	callq	biari_init_context
.LBB13_56:                              # %if.end213
                                        #   in Loop: Header=BB13_52 Depth=1
	jmp	.LBB13_57
.LBB13_57:                              # %for.inc214
                                        #   in Loop: Header=BB13_52 Depth=1
	movl	-4(%rbp), %eax
	addl	$1, %eax
	movl	%eax, -4(%rbp)
	jmp	.LBB13_52
.LBB13_58:                              # %for.end216
	movl	$0, -4(%rbp)
.LBB13_59:                              # %for.cond217
                                        # =>This Inner Loop Header: Depth=1
	cmpl	$3, -4(%rbp)
	jge	.LBB13_65
# %bb.60:                               # %for.body219
                                        #   in Loop: Header=BB13_59 Depth=1
	movq	img, %rax
	cmpl	$2, 24(%rax)
	jne	.LBB13_62
# %bb.61:                               # %if.then222
                                        #   in Loop: Header=BB13_59 Depth=1
	movq	-24(%rbp), %rdi
	addq	$1456, %rdi             # imm = 0x5B0
	movslq	-4(%rbp), %rax
	shlq	$4, %rax
	addq	%rax, %rdi
	movq	img, %rax
	movslq	72520(%rax), %rax
	imulq	$24, %rax, %rax
	movabsq	$INIT_TRANSFORM_SIZE_I, %rsi
	addq	%rax, %rsi
	movslq	-4(%rbp), %rax
	shlq	$3, %rax
	addq	%rax, %rsi
	callq	biari_init_context
	jmp	.LBB13_63
.LBB13_62:                              # %if.else232
                                        #   in Loop: Header=BB13_59 Depth=1
	movq	-24(%rbp), %rdi
	addq	$1456, %rdi             # imm = 0x5B0
	movslq	-4(%rbp), %rax
	shlq	$4, %rax
	addq	%rax, %rdi
	movq	img, %rax
	movslq	72520(%rax), %rax
	imulq	$24, %rax, %rax
	movabsq	$INIT_TRANSFORM_SIZE_P, %rsi
	addq	%rax, %rsi
	movslq	-4(%rbp), %rax
	shlq	$3, %rax
	addq	%rax, %rsi
	callq	biari_init_context
.LBB13_63:                              # %if.end243
                                        #   in Loop: Header=BB13_59 Depth=1
	jmp	.LBB13_64
.LBB13_64:                              # %for.inc244
                                        #   in Loop: Header=BB13_59 Depth=1
	movl	-4(%rbp), %eax
	addl	$1, %eax
	movl	%eax, -4(%rbp)
	jmp	.LBB13_59
.LBB13_65:                              # %for.end246
	movl	$0, -4(%rbp)
.LBB13_66:                              # %for.cond247
                                        # =>This Inner Loop Header: Depth=1
	cmpl	$2, -4(%rbp)
	jge	.LBB13_72
# %bb.67:                               # %for.body249
                                        #   in Loop: Header=BB13_66 Depth=1
	movq	img, %rax
	cmpl	$2, 24(%rax)
	jne	.LBB13_69
# %bb.68:                               # %if.then252
                                        #   in Loop: Header=BB13_66 Depth=1
	movq	-16(%rbp), %rdi
	movslq	-4(%rbp), %rax
	shlq	$4, %rax
	addq	%rax, %rdi
	movq	img, %rax
	movslq	72520(%rax), %rax
	shlq	$4, %rax
	movabsq	$INIT_IPR_I, %rsi
	addq	%rax, %rsi
	movslq	-4(%rbp), %rax
	shlq	$3, %rax
	addq	%rax, %rsi
	callq	biari_init_context
	jmp	.LBB13_70
.LBB13_69:                              # %if.else262
                                        #   in Loop: Header=BB13_66 Depth=1
	movq	-16(%rbp), %rdi
	movslq	-4(%rbp), %rax
	shlq	$4, %rax
	addq	%rax, %rdi
	movq	img, %rax
	movslq	72520(%rax), %rax
	shlq	$4, %rax
	movabsq	$INIT_IPR_P, %rsi
	addq	%rax, %rsi
	movslq	-4(%rbp), %rax
	shlq	$3, %rax
	addq	%rax, %rsi
	callq	biari_init_context
.LBB13_70:                              # %if.end273
                                        #   in Loop: Header=BB13_66 Depth=1
	jmp	.LBB13_71
.LBB13_71:                              # %for.inc274
                                        #   in Loop: Header=BB13_66 Depth=1
	movl	-4(%rbp), %eax
	addl	$1, %eax
	movl	%eax, -4(%rbp)
	jmp	.LBB13_66
.LBB13_72:                              # %for.end276
	movl	$0, -4(%rbp)
.LBB13_73:                              # %for.cond277
                                        # =>This Inner Loop Header: Depth=1
	cmpl	$4, -4(%rbp)
	jge	.LBB13_79
# %bb.74:                               # %for.body279
                                        #   in Loop: Header=BB13_73 Depth=1
	movq	img, %rax
	cmpl	$2, 24(%rax)
	jne	.LBB13_76
# %bb.75:                               # %if.then282
                                        #   in Loop: Header=BB13_73 Depth=1
	movq	-16(%rbp), %rdi
	addq	$32, %rdi
	movslq	-4(%rbp), %rax
	shlq	$4, %rax
	addq	%rax, %rdi
	movq	img, %rax
	movslq	72520(%rax), %rax
	shlq	$5, %rax
	movabsq	$INIT_CIPR_I, %rsi
	addq	%rax, %rsi
	movslq	-4(%rbp), %rax
	shlq	$3, %rax
	addq	%rax, %rsi
	callq	biari_init_context
	jmp	.LBB13_77
.LBB13_76:                              # %if.else292
                                        #   in Loop: Header=BB13_73 Depth=1
	movq	-16(%rbp), %rdi
	addq	$32, %rdi
	movslq	-4(%rbp), %rax
	shlq	$4, %rax
	addq	%rax, %rdi
	movq	img, %rax
	movslq	72520(%rax), %rax
	shlq	$5, %rax
	movabsq	$INIT_CIPR_P, %rsi
	addq	%rax, %rsi
	movslq	-4(%rbp), %rax
	shlq	$3, %rax
	addq	%rax, %rsi
	callq	biari_init_context
.LBB13_77:                              # %if.end303
                                        #   in Loop: Header=BB13_73 Depth=1
	jmp	.LBB13_78
.LBB13_78:                              # %for.inc304
                                        #   in Loop: Header=BB13_73 Depth=1
	movl	-4(%rbp), %eax
	addl	$1, %eax
	movl	%eax, -4(%rbp)
	jmp	.LBB13_73
.LBB13_79:                              # %for.end306
	movl	$0, -8(%rbp)
.LBB13_80:                              # %for.cond307
                                        # =>This Loop Header: Depth=1
                                        #     Child Loop BB13_82 Depth 2
	cmpl	$3, -8(%rbp)
	jge	.LBB13_90
# %bb.81:                               # %for.body309
                                        #   in Loop: Header=BB13_80 Depth=1
	movl	$0, -4(%rbp)
.LBB13_82:                              # %for.cond310
                                        #   Parent Loop BB13_80 Depth=1
                                        # =>  This Inner Loop Header: Depth=2
	cmpl	$4, -4(%rbp)
	jge	.LBB13_88
# %bb.83:                               # %for.body312
                                        #   in Loop: Header=BB13_82 Depth=2
	movq	img, %rax
	cmpl	$2, 24(%rax)
	jne	.LBB13_85
# %bb.84:                               # %if.then315
                                        #   in Loop: Header=BB13_82 Depth=2
	movq	-16(%rbp), %rdi
	addq	$96, %rdi
	movslq	-8(%rbp), %rax
	shlq	$6, %rax
	addq	%rax, %rdi
	movslq	-4(%rbp), %rax
	shlq	$4, %rax
	addq	%rax, %rdi
	movq	img, %rax
	movslq	72520(%rax), %rax
	imulq	$96, %rax, %rax
	movabsq	$INIT_CBP_I, %rsi
	addq	%rax, %rsi
	movslq	-8(%rbp), %rax
	shlq	$5, %rax
	addq	%rax, %rsi
	movslq	-4(%rbp), %rax
	shlq	$3, %rax
	addq	%rax, %rsi
	callq	biari_init_context
	jmp	.LBB13_86
.LBB13_85:                              # %if.else328
                                        #   in Loop: Header=BB13_82 Depth=2
	movq	-16(%rbp), %rdi
	addq	$96, %rdi
	movslq	-8(%rbp), %rax
	shlq	$6, %rax
	addq	%rax, %rdi
	movslq	-4(%rbp), %rax
	shlq	$4, %rax
	addq	%rax, %rdi
	movq	img, %rax
	movslq	72520(%rax), %rax
	imulq	$96, %rax, %rax
	movabsq	$INIT_CBP_P, %rsi
	addq	%rax, %rsi
	movslq	-8(%rbp), %rax
	shlq	$5, %rax
	addq	%rax, %rsi
	movslq	-4(%rbp), %rax
	shlq	$3, %rax
	addq	%rax, %rsi
	callq	biari_init_context
.LBB13_86:                              # %if.end342
                                        #   in Loop: Header=BB13_82 Depth=2
	jmp	.LBB13_87
.LBB13_87:                              # %for.inc343
                                        #   in Loop: Header=BB13_82 Depth=2
	movl	-4(%rbp), %eax
	addl	$1, %eax
	movl	%eax, -4(%rbp)
	jmp	.LBB13_82
.LBB13_88:                              # %for.end345
                                        #   in Loop: Header=BB13_80 Depth=1
	jmp	.LBB13_89
.LBB13_89:                              # %for.inc346
                                        #   in Loop: Header=BB13_80 Depth=1
	movl	-8(%rbp), %eax
	addl	$1, %eax
	movl	%eax, -8(%rbp)
	jmp	.LBB13_80
.LBB13_90:                              # %for.end348
	movl	$0, -8(%rbp)
.LBB13_91:                              # %for.cond349
                                        # =>This Loop Header: Depth=1
                                        #     Child Loop BB13_93 Depth 2
	cmpl	$10, -8(%rbp)
	jge	.LBB13_101
# %bb.92:                               # %for.body351
                                        #   in Loop: Header=BB13_91 Depth=1
	movl	$0, -4(%rbp)
.LBB13_93:                              # %for.cond352
                                        #   Parent Loop BB13_91 Depth=1
                                        # =>  This Inner Loop Header: Depth=2
	cmpl	$4, -4(%rbp)
	jge	.LBB13_99
# %bb.94:                               # %for.body354
                                        #   in Loop: Header=BB13_93 Depth=2
	movq	img, %rax
	cmpl	$2, 24(%rax)
	jne	.LBB13_96
# %bb.95:                               # %if.then357
                                        #   in Loop: Header=BB13_93 Depth=2
	movq	-16(%rbp), %rdi
	addq	$288, %rdi              # imm = 0x120
	movslq	-8(%rbp), %rax
	shlq	$6, %rax
	addq	%rax, %rdi
	movslq	-4(%rbp), %rax
	shlq	$4, %rax
	addq	%rax, %rdi
	movq	img, %rax
	movslq	72520(%rax), %rax
	shlq	$8, %rax
	movabsq	$INIT_BCBP_I, %rsi
	addq	%rax, %rsi
	movslq	-8(%rbp), %rax
	shlq	$5, %rax
	addq	%rax, %rsi
	movslq	-4(%rbp), %rax
	shlq	$3, %rax
	addq	%rax, %rsi
	callq	biari_init_context
	jmp	.LBB13_97
.LBB13_96:                              # %if.else370
                                        #   in Loop: Header=BB13_93 Depth=2
	movq	-16(%rbp), %rdi
	addq	$288, %rdi              # imm = 0x120
	movslq	-8(%rbp), %rax
	shlq	$6, %rax
	addq	%rax, %rdi
	movslq	-4(%rbp), %rax
	shlq	$4, %rax
	addq	%rax, %rdi
	movq	img, %rax
	movslq	72520(%rax), %rax
	shlq	$8, %rax
	movabsq	$INIT_BCBP_P, %rsi
	addq	%rax, %rsi
	movslq	-8(%rbp), %rax
	shlq	$5, %rax
	addq	%rax, %rsi
	movslq	-4(%rbp), %rax
	shlq	$3, %rax
	addq	%rax, %rsi
	callq	biari_init_context
.LBB13_97:                              # %if.end384
                                        #   in Loop: Header=BB13_93 Depth=2
	jmp	.LBB13_98
.LBB13_98:                              # %for.inc385
                                        #   in Loop: Header=BB13_93 Depth=2
	movl	-4(%rbp), %eax
	addl	$1, %eax
	movl	%eax, -4(%rbp)
	jmp	.LBB13_93
.LBB13_99:                              # %for.end387
                                        #   in Loop: Header=BB13_91 Depth=1
	jmp	.LBB13_100
.LBB13_100:                             # %for.inc388
                                        #   in Loop: Header=BB13_91 Depth=1
	movl	-8(%rbp), %eax
	addl	$1, %eax
	movl	%eax, -8(%rbp)
	jmp	.LBB13_91
.LBB13_101:                             # %for.end390
	movl	$0, -8(%rbp)
.LBB13_102:                             # %for.cond391
                                        # =>This Loop Header: Depth=1
                                        #     Child Loop BB13_104 Depth 2
	cmpl	$10, -8(%rbp)
	jge	.LBB13_112
# %bb.103:                              # %for.body393
                                        #   in Loop: Header=BB13_102 Depth=1
	movl	$0, -4(%rbp)
.LBB13_104:                             # %for.cond394
                                        #   Parent Loop BB13_102 Depth=1
                                        # =>  This Inner Loop Header: Depth=2
	cmpl	$15, -4(%rbp)
	jge	.LBB13_110
# %bb.105:                              # %for.body396
                                        #   in Loop: Header=BB13_104 Depth=2
	movq	img, %rax
	cmpl	$2, 24(%rax)
	jne	.LBB13_107
# %bb.106:                              # %if.then399
                                        #   in Loop: Header=BB13_104 Depth=2
	movq	-16(%rbp), %rdi
	addq	$928, %rdi              # imm = 0x3A0
	movslq	-8(%rbp), %rax
	imulq	$240, %rax, %rax
	addq	%rax, %rdi
	movslq	-4(%rbp), %rax
	shlq	$4, %rax
	addq	%rax, %rdi
	movq	img, %rax
	movslq	72520(%rax), %rax
	imulq	$960, %rax, %rax        # imm = 0x3C0
	movabsq	$INIT_MAP_I, %rsi
	addq	%rax, %rsi
	movslq	-8(%rbp), %rax
	imulq	$120, %rax, %rax
	addq	%rax, %rsi
	movslq	-4(%rbp), %rax
	shlq	$3, %rax
	addq	%rax, %rsi
	callq	biari_init_context
	jmp	.LBB13_108
.LBB13_107:                             # %if.else412
                                        #   in Loop: Header=BB13_104 Depth=2
	movq	-16(%rbp), %rdi
	addq	$928, %rdi              # imm = 0x3A0
	movslq	-8(%rbp), %rax
	imulq	$240, %rax, %rax
	addq	%rax, %rdi
	movslq	-4(%rbp), %rax
	shlq	$4, %rax
	addq	%rax, %rdi
	movq	img, %rax
	movslq	72520(%rax), %rax
	imulq	$960, %rax, %rax        # imm = 0x3C0
	movabsq	$INIT_MAP_P, %rsi
	addq	%rax, %rsi
	movslq	-8(%rbp), %rax
	imulq	$120, %rax, %rax
	addq	%rax, %rsi
	movslq	-4(%rbp), %rax
	shlq	$3, %rax
	addq	%rax, %rsi
	callq	biari_init_context
.LBB13_108:                             # %if.end426
                                        #   in Loop: Header=BB13_104 Depth=2
	jmp	.LBB13_109
.LBB13_109:                             # %for.inc427
                                        #   in Loop: Header=BB13_104 Depth=2
	movl	-4(%rbp), %eax
	addl	$1, %eax
	movl	%eax, -4(%rbp)
	jmp	.LBB13_104
.LBB13_110:                             # %for.end429
                                        #   in Loop: Header=BB13_102 Depth=1
	jmp	.LBB13_111
.LBB13_111:                             # %for.inc430
                                        #   in Loop: Header=BB13_102 Depth=1
	movl	-8(%rbp), %eax
	addl	$1, %eax
	movl	%eax, -8(%rbp)
	jmp	.LBB13_102
.LBB13_112:                             # %for.end432
	movl	$0, -8(%rbp)
.LBB13_113:                             # %for.cond433
                                        # =>This Loop Header: Depth=1
                                        #     Child Loop BB13_115 Depth 2
	cmpl	$10, -8(%rbp)
	jge	.LBB13_123
# %bb.114:                              # %for.body435
                                        #   in Loop: Header=BB13_113 Depth=1
	movl	$0, -4(%rbp)
.LBB13_115:                             # %for.cond436
                                        #   Parent Loop BB13_113 Depth=1
                                        # =>  This Inner Loop Header: Depth=2
	cmpl	$15, -4(%rbp)
	jge	.LBB13_121
# %bb.116:                              # %for.body438
                                        #   in Loop: Header=BB13_115 Depth=2
	movq	img, %rax
	cmpl	$2, 24(%rax)
	jne	.LBB13_118
# %bb.117:                              # %if.then441
                                        #   in Loop: Header=BB13_115 Depth=2
	movq	-16(%rbp), %rdi
	addq	$3328, %rdi             # imm = 0xD00
	movslq	-8(%rbp), %rax
	imulq	$240, %rax, %rax
	addq	%rax, %rdi
	movslq	-4(%rbp), %rax
	shlq	$4, %rax
	addq	%rax, %rdi
	movq	img, %rax
	movslq	72520(%rax), %rax
	imulq	$960, %rax, %rax        # imm = 0x3C0
	movabsq	$INIT_LAST_I, %rsi
	addq	%rax, %rsi
	movslq	-8(%rbp), %rax
	imulq	$120, %rax, %rax
	addq	%rax, %rsi
	movslq	-4(%rbp), %rax
	shlq	$3, %rax
	addq	%rax, %rsi
	callq	biari_init_context
	jmp	.LBB13_119
.LBB13_118:                             # %if.else454
                                        #   in Loop: Header=BB13_115 Depth=2
	movq	-16(%rbp), %rdi
	addq	$3328, %rdi             # imm = 0xD00
	movslq	-8(%rbp), %rax
	imulq	$240, %rax, %rax
	addq	%rax, %rdi
	movslq	-4(%rbp), %rax
	shlq	$4, %rax
	addq	%rax, %rdi
	movq	img, %rax
	movslq	72520(%rax), %rax
	imulq	$960, %rax, %rax        # imm = 0x3C0
	movabsq	$INIT_LAST_P, %rsi
	addq	%rax, %rsi
	movslq	-8(%rbp), %rax
	imulq	$120, %rax, %rax
	addq	%rax, %rsi
	movslq	-4(%rbp), %rax
	shlq	$3, %rax
	addq	%rax, %rsi
	callq	biari_init_context
.LBB13_119:                             # %if.end468
                                        #   in Loop: Header=BB13_115 Depth=2
	jmp	.LBB13_120
.LBB13_120:                             # %for.inc469
                                        #   in Loop: Header=BB13_115 Depth=2
	movl	-4(%rbp), %eax
	addl	$1, %eax
	movl	%eax, -4(%rbp)
	jmp	.LBB13_115
.LBB13_121:                             # %for.end471
                                        #   in Loop: Header=BB13_113 Depth=1
	jmp	.LBB13_122
.LBB13_122:                             # %for.inc472
                                        #   in Loop: Header=BB13_113 Depth=1
	movl	-8(%rbp), %eax
	addl	$1, %eax
	movl	%eax, -8(%rbp)
	jmp	.LBB13_113
.LBB13_123:                             # %for.end474
	movl	$0, -8(%rbp)
.LBB13_124:                             # %for.cond475
                                        # =>This Loop Header: Depth=1
                                        #     Child Loop BB13_126 Depth 2
	cmpl	$10, -8(%rbp)
	jge	.LBB13_134
# %bb.125:                              # %for.body477
                                        #   in Loop: Header=BB13_124 Depth=1
	movl	$0, -4(%rbp)
.LBB13_126:                             # %for.cond478
                                        #   Parent Loop BB13_124 Depth=1
                                        # =>  This Inner Loop Header: Depth=2
	cmpl	$5, -4(%rbp)
	jge	.LBB13_132
# %bb.127:                              # %for.body480
                                        #   in Loop: Header=BB13_126 Depth=2
	movq	img, %rax
	cmpl	$2, 24(%rax)
	jne	.LBB13_129
# %bb.128:                              # %if.then483
                                        #   in Loop: Header=BB13_126 Depth=2
	movq	-16(%rbp), %rdi
	addq	$5728, %rdi             # imm = 0x1660
	movslq	-8(%rbp), %rax
	imulq	$80, %rax, %rax
	addq	%rax, %rdi
	movslq	-4(%rbp), %rax
	shlq	$4, %rax
	addq	%rax, %rdi
	movq	img, %rax
	movslq	72520(%rax), %rax
	imulq	$320, %rax, %rax        # imm = 0x140
	movabsq	$INIT_ONE_I, %rsi
	addq	%rax, %rsi
	movslq	-8(%rbp), %rax
	imulq	$40, %rax, %rax
	addq	%rax, %rsi
	movslq	-4(%rbp), %rax
	shlq	$3, %rax
	addq	%rax, %rsi
	callq	biari_init_context
	jmp	.LBB13_130
.LBB13_129:                             # %if.else496
                                        #   in Loop: Header=BB13_126 Depth=2
	movq	-16(%rbp), %rdi
	addq	$5728, %rdi             # imm = 0x1660
	movslq	-8(%rbp), %rax
	imulq	$80, %rax, %rax
	addq	%rax, %rdi
	movslq	-4(%rbp), %rax
	shlq	$4, %rax
	addq	%rax, %rdi
	movq	img, %rax
	movslq	72520(%rax), %rax
	imulq	$320, %rax, %rax        # imm = 0x140
	movabsq	$INIT_ONE_P, %rsi
	addq	%rax, %rsi
	movslq	-8(%rbp), %rax
	imulq	$40, %rax, %rax
	addq	%rax, %rsi
	movslq	-4(%rbp), %rax
	shlq	$3, %rax
	addq	%rax, %rsi
	callq	biari_init_context
.LBB13_130:                             # %if.end510
                                        #   in Loop: Header=BB13_126 Depth=2
	jmp	.LBB13_131
.LBB13_131:                             # %for.inc511
                                        #   in Loop: Header=BB13_126 Depth=2
	movl	-4(%rbp), %eax
	addl	$1, %eax
	movl	%eax, -4(%rbp)
	jmp	.LBB13_126
.LBB13_132:                             # %for.end513
                                        #   in Loop: Header=BB13_124 Depth=1
	jmp	.LBB13_133
.LBB13_133:                             # %for.inc514
                                        #   in Loop: Header=BB13_124 Depth=1
	movl	-8(%rbp), %eax
	addl	$1, %eax
	movl	%eax, -8(%rbp)
	jmp	.LBB13_124
.LBB13_134:                             # %for.end516
	movl	$0, -8(%rbp)
.LBB13_135:                             # %for.cond517
                                        # =>This Loop Header: Depth=1
                                        #     Child Loop BB13_137 Depth 2
	cmpl	$10, -8(%rbp)
	jge	.LBB13_145
# %bb.136:                              # %for.body519
                                        #   in Loop: Header=BB13_135 Depth=1
	movl	$0, -4(%rbp)
.LBB13_137:                             # %for.cond520
                                        #   Parent Loop BB13_135 Depth=1
                                        # =>  This Inner Loop Header: Depth=2
	cmpl	$5, -4(%rbp)
	jge	.LBB13_143
# %bb.138:                              # %for.body522
                                        #   in Loop: Header=BB13_137 Depth=2
	movq	img, %rax
	cmpl	$2, 24(%rax)
	jne	.LBB13_140
# %bb.139:                              # %if.then525
                                        #   in Loop: Header=BB13_137 Depth=2
	movq	-16(%rbp), %rdi
	addq	$6528, %rdi             # imm = 0x1980
	movslq	-8(%rbp), %rax
	imulq	$80, %rax, %rax
	addq	%rax, %rdi
	movslq	-4(%rbp), %rax
	shlq	$4, %rax
	addq	%rax, %rdi
	movq	img, %rax
	movslq	72520(%rax), %rax
	imulq	$320, %rax, %rax        # imm = 0x140
	movabsq	$INIT_ABS_I, %rsi
	addq	%rax, %rsi
	movslq	-8(%rbp), %rax
	imulq	$40, %rax, %rax
	addq	%rax, %rsi
	movslq	-4(%rbp), %rax
	shlq	$3, %rax
	addq	%rax, %rsi
	callq	biari_init_context
	jmp	.LBB13_141
.LBB13_140:                             # %if.else538
                                        #   in Loop: Header=BB13_137 Depth=2
	movq	-16(%rbp), %rdi
	addq	$6528, %rdi             # imm = 0x1980
	movslq	-8(%rbp), %rax
	imulq	$80, %rax, %rax
	addq	%rax, %rdi
	movslq	-4(%rbp), %rax
	shlq	$4, %rax
	addq	%rax, %rdi
	movq	img, %rax
	movslq	72520(%rax), %rax
	imulq	$320, %rax, %rax        # imm = 0x140
	movabsq	$INIT_ABS_P, %rsi
	addq	%rax, %rsi
	movslq	-8(%rbp), %rax
	imulq	$40, %rax, %rax
	addq	%rax, %rsi
	movslq	-4(%rbp), %rax
	shlq	$3, %rax
	addq	%rax, %rsi
	callq	biari_init_context
.LBB13_141:                             # %if.end552
                                        #   in Loop: Header=BB13_137 Depth=2
	jmp	.LBB13_142
.LBB13_142:                             # %for.inc553
                                        #   in Loop: Header=BB13_137 Depth=2
	movl	-4(%rbp), %eax
	addl	$1, %eax
	movl	%eax, -4(%rbp)
	jmp	.LBB13_137
.LBB13_143:                             # %for.end555
                                        #   in Loop: Header=BB13_135 Depth=1
	jmp	.LBB13_144
.LBB13_144:                             # %for.inc556
                                        #   in Loop: Header=BB13_135 Depth=1
	movl	-8(%rbp), %eax
	addl	$1, %eax
	movl	%eax, -8(%rbp)
	jmp	.LBB13_135
.LBB13_145:                             # %for.end558
	movl	$0, -8(%rbp)
.LBB13_146:                             # %for.cond559
                                        # =>This Loop Header: Depth=1
                                        #     Child Loop BB13_148 Depth 2
	cmpl	$10, -8(%rbp)
	jge	.LBB13_156
# %bb.147:                              # %for.body561
                                        #   in Loop: Header=BB13_146 Depth=1
	movl	$0, -4(%rbp)
.LBB13_148:                             # %for.cond562
                                        #   Parent Loop BB13_146 Depth=1
                                        # =>  This Inner Loop Header: Depth=2
	cmpl	$15, -4(%rbp)
	jge	.LBB13_154
# %bb.149:                              # %for.body564
                                        #   in Loop: Header=BB13_148 Depth=2
	movq	img, %rax
	cmpl	$2, 24(%rax)
	jne	.LBB13_151
# %bb.150:                              # %if.then567
                                        #   in Loop: Header=BB13_148 Depth=2
	movq	-16(%rbp), %rdi
	addq	$7328, %rdi             # imm = 0x1CA0
	movslq	-8(%rbp), %rax
	imulq	$240, %rax, %rax
	addq	%rax, %rdi
	movslq	-4(%rbp), %rax
	shlq	$4, %rax
	addq	%rax, %rdi
	movq	img, %rax
	movslq	72520(%rax), %rax
	imulq	$960, %rax, %rax        # imm = 0x3C0
	movabsq	$INIT_FLD_MAP_I, %rsi
	addq	%rax, %rsi
	movslq	-8(%rbp), %rax
	imulq	$120, %rax, %rax
	addq	%rax, %rsi
	movslq	-4(%rbp), %rax
	shlq	$3, %rax
	addq	%rax, %rsi
	callq	biari_init_context
	jmp	.LBB13_152
.LBB13_151:                             # %if.else580
                                        #   in Loop: Header=BB13_148 Depth=2
	movq	-16(%rbp), %rdi
	addq	$7328, %rdi             # imm = 0x1CA0
	movslq	-8(%rbp), %rax
	imulq	$240, %rax, %rax
	addq	%rax, %rdi
	movslq	-4(%rbp), %rax
	shlq	$4, %rax
	addq	%rax, %rdi
	movq	img, %rax
	movslq	72520(%rax), %rax
	imulq	$960, %rax, %rax        # imm = 0x3C0
	movabsq	$INIT_FLD_MAP_P, %rsi
	addq	%rax, %rsi
	movslq	-8(%rbp), %rax
	imulq	$120, %rax, %rax
	addq	%rax, %rsi
	movslq	-4(%rbp), %rax
	shlq	$3, %rax
	addq	%rax, %rsi
	callq	biari_init_context
.LBB13_152:                             # %if.end594
                                        #   in Loop: Header=BB13_148 Depth=2
	jmp	.LBB13_153
.LBB13_153:                             # %for.inc595
                                        #   in Loop: Header=BB13_148 Depth=2
	movl	-4(%rbp), %eax
	addl	$1, %eax
	movl	%eax, -4(%rbp)
	jmp	.LBB13_148
.LBB13_154:                             # %for.end597
                                        #   in Loop: Header=BB13_146 Depth=1
	jmp	.LBB13_155
.LBB13_155:                             # %for.inc598
                                        #   in Loop: Header=BB13_146 Depth=1
	movl	-8(%rbp), %eax
	addl	$1, %eax
	movl	%eax, -8(%rbp)
	jmp	.LBB13_146
.LBB13_156:                             # %for.end600
	movl	$0, -8(%rbp)
.LBB13_157:                             # %for.cond601
                                        # =>This Loop Header: Depth=1
                                        #     Child Loop BB13_159 Depth 2
	cmpl	$10, -8(%rbp)
	jge	.LBB13_167
# %bb.158:                              # %for.body603
                                        #   in Loop: Header=BB13_157 Depth=1
	movl	$0, -4(%rbp)
.LBB13_159:                             # %for.cond604
                                        #   Parent Loop BB13_157 Depth=1
                                        # =>  This Inner Loop Header: Depth=2
	cmpl	$15, -4(%rbp)
	jge	.LBB13_165
# %bb.160:                              # %for.body606
                                        #   in Loop: Header=BB13_159 Depth=2
	movq	img, %rax
	cmpl	$2, 24(%rax)
	jne	.LBB13_162
# %bb.161:                              # %if.then609
                                        #   in Loop: Header=BB13_159 Depth=2
	movq	-16(%rbp), %rdi
	addq	$9728, %rdi             # imm = 0x2600
	movslq	-8(%rbp), %rax
	imulq	$240, %rax, %rax
	addq	%rax, %rdi
	movslq	-4(%rbp), %rax
	shlq	$4, %rax
	addq	%rax, %rdi
	movq	img, %rax
	movslq	72520(%rax), %rax
	imulq	$960, %rax, %rax        # imm = 0x3C0
	movabsq	$INIT_FLD_LAST_I, %rsi
	addq	%rax, %rsi
	movslq	-8(%rbp), %rax
	imulq	$120, %rax, %rax
	addq	%rax, %rsi
	movslq	-4(%rbp), %rax
	shlq	$3, %rax
	addq	%rax, %rsi
	callq	biari_init_context
	jmp	.LBB13_163
.LBB13_162:                             # %if.else622
                                        #   in Loop: Header=BB13_159 Depth=2
	movq	-16(%rbp), %rdi
	addq	$9728, %rdi             # imm = 0x2600
	movslq	-8(%rbp), %rax
	imulq	$240, %rax, %rax
	addq	%rax, %rdi
	movslq	-4(%rbp), %rax
	shlq	$4, %rax
	addq	%rax, %rdi
	movq	img, %rax
	movslq	72520(%rax), %rax
	imulq	$960, %rax, %rax        # imm = 0x3C0
	movabsq	$INIT_FLD_LAST_P, %rsi
	addq	%rax, %rsi
	movslq	-8(%rbp), %rax
	imulq	$120, %rax, %rax
	addq	%rax, %rsi
	movslq	-4(%rbp), %rax
	shlq	$3, %rax
	addq	%rax, %rsi
	callq	biari_init_context
.LBB13_163:                             # %if.end636
                                        #   in Loop: Header=BB13_159 Depth=2
	jmp	.LBB13_164
.LBB13_164:                             # %for.inc637
                                        #   in Loop: Header=BB13_159 Depth=2
	movl	-4(%rbp), %eax
	addl	$1, %eax
	movl	%eax, -4(%rbp)
	jmp	.LBB13_159
.LBB13_165:                             # %for.end639
                                        #   in Loop: Header=BB13_157 Depth=1
	jmp	.LBB13_166
.LBB13_166:                             # %for.inc640
                                        #   in Loop: Header=BB13_157 Depth=1
	movl	-8(%rbp), %eax
	addl	$1, %eax
	movl	%eax, -8(%rbp)
	jmp	.LBB13_157
.LBB13_167:                             # %for.end642
	cmpl	$1059838256, -28(%rbp)  # imm = 0x3F2BD930
	jne	.LBB13_169
.LBB13_168:
	addq	$32, %rsp
	popq	%rbp
	.cfi_def_cfa %rsp, 8
	retq
.LBB13_169:                             # %func_exit
	.cfi_def_cfa %rbp, 16
	callq	detect_breach
	jmp	.LBB13_168
.Lfunc_end13:
	.size	init_contexts.6, .Lfunc_end13-init_contexts.6
	.cfi_endproc
                                        # -- End function
	.globl	init_contexts.7         # -- Begin function init_contexts.7
	.p2align	4, 0x90
	.type	init_contexts.7,@function
init_contexts.7:                        # @init_contexts.7
	.cfi_startproc
# %bb.0:                                # %entry
	pushq	%rbp
	.cfi_def_cfa_offset 16
	.cfi_offset %rbp, -16
	movq	%rsp, %rbp
	.cfi_def_cfa_register %rbp
	subq	$32, %rsp
	movl	$513693819, -28(%rbp)   # imm = 0x1E9E587B
	movq	img, %rax
	movq	14160(%rax), %rax
	movq	32(%rax), %rax
	movq	%rax, -24(%rbp)
	movq	img, %rax
	movq	14160(%rax), %rax
	movq	40(%rax), %rax
	movq	%rax, -16(%rbp)
	movl	$0, -8(%rbp)
.LBB14_1:                               # %for.cond
                                        # =>This Loop Header: Depth=1
                                        #     Child Loop BB14_3 Depth 2
	cmpl	$3, -8(%rbp)
	jge	.LBB14_11
# %bb.2:                                # %for.body
                                        #   in Loop: Header=BB14_1 Depth=1
	movl	$0, -4(%rbp)
.LBB14_3:                               # %for.cond2
                                        #   Parent Loop BB14_1 Depth=1
                                        # =>  This Inner Loop Header: Depth=2
	cmpl	$11, -4(%rbp)
	jge	.LBB14_9
# %bb.4:                                # %for.body4
                                        #   in Loop: Header=BB14_3 Depth=2
	movq	img, %rax
	cmpl	$2, 24(%rax)
	jne	.LBB14_6
# %bb.5:                                # %if.then
                                        #   in Loop: Header=BB14_3 Depth=2
	movq	-24(%rbp), %rdi
	movslq	-8(%rbp), %rax
	imulq	$176, %rax, %rax
	addq	%rax, %rdi
	movslq	-4(%rbp), %rax
	shlq	$4, %rax
	addq	%rax, %rdi
	movq	img, %rax
	movslq	72520(%rax), %rax
	imulq	$264, %rax, %rax        # imm = 0x108
	movabsq	$INIT_MB_TYPE_I, %rsi
	addq	%rax, %rsi
	movslq	-8(%rbp), %rax
	imulq	$88, %rax, %rax
	addq	%rax, %rsi
	movslq	-4(%rbp), %rax
	shlq	$3, %rax
	addq	%rax, %rsi
	callq	biari_init_context
	jmp	.LBB14_7
.LBB14_6:                               # %if.else
                                        #   in Loop: Header=BB14_3 Depth=2
	movq	-24(%rbp), %rdi
	movslq	-8(%rbp), %rax
	imulq	$176, %rax, %rax
	addq	%rax, %rdi
	movslq	-4(%rbp), %rax
	shlq	$4, %rax
	addq	%rax, %rdi
	movq	img, %rax
	movslq	72520(%rax), %rax
	imulq	$264, %rax, %rax        # imm = 0x108
	movabsq	$INIT_MB_TYPE_P, %rsi
	addq	%rax, %rsi
	movslq	-8(%rbp), %rax
	imulq	$88, %rax, %rax
	addq	%rax, %rsi
	movslq	-4(%rbp), %rax
	shlq	$3, %rax
	addq	%rax, %rsi
	callq	biari_init_context
.LBB14_7:                               # %if.end
                                        #   in Loop: Header=BB14_3 Depth=2
	jmp	.LBB14_8
.LBB14_8:                               # %for.inc
                                        #   in Loop: Header=BB14_3 Depth=2
	movl	-4(%rbp), %eax
	addl	$1, %eax
	movl	%eax, -4(%rbp)
	jmp	.LBB14_3
.LBB14_9:                               # %for.end
                                        #   in Loop: Header=BB14_1 Depth=1
	jmp	.LBB14_10
.LBB14_10:                              # %for.inc28
                                        #   in Loop: Header=BB14_1 Depth=1
	movl	-8(%rbp), %eax
	addl	$1, %eax
	movl	%eax, -8(%rbp)
	jmp	.LBB14_1
.LBB14_11:                              # %for.end30
	movl	$0, -8(%rbp)
.LBB14_12:                              # %for.cond31
                                        # =>This Loop Header: Depth=1
                                        #     Child Loop BB14_14 Depth 2
	cmpl	$2, -8(%rbp)
	jge	.LBB14_22
# %bb.13:                               # %for.body33
                                        #   in Loop: Header=BB14_12 Depth=1
	movl	$0, -4(%rbp)
.LBB14_14:                              # %for.cond34
                                        #   Parent Loop BB14_12 Depth=1
                                        # =>  This Inner Loop Header: Depth=2
	cmpl	$9, -4(%rbp)
	jge	.LBB14_20
# %bb.15:                               # %for.body36
                                        #   in Loop: Header=BB14_14 Depth=2
	movq	img, %rax
	cmpl	$2, 24(%rax)
	jne	.LBB14_17
# %bb.16:                               # %if.then39
                                        #   in Loop: Header=BB14_14 Depth=2
	movq	-24(%rbp), %rdi
	addq	$528, %rdi              # imm = 0x210
	movslq	-8(%rbp), %rax
	imulq	$144, %rax, %rax
	addq	%rax, %rdi
	movslq	-4(%rbp), %rax
	shlq	$4, %rax
	addq	%rax, %rdi
	movq	img, %rax
	movslq	72520(%rax), %rax
	imulq	$144, %rax, %rax
	movabsq	$INIT_B8_TYPE_I, %rsi
	addq	%rax, %rsi
	movslq	-8(%rbp), %rax
	imulq	$72, %rax, %rax
	addq	%rax, %rsi
	movslq	-4(%rbp), %rax
	shlq	$3, %rax
	addq	%rax, %rsi
	callq	biari_init_context
	jmp	.LBB14_18
.LBB14_17:                              # %if.else52
                                        #   in Loop: Header=BB14_14 Depth=2
	movq	-24(%rbp), %rdi
	addq	$528, %rdi              # imm = 0x210
	movslq	-8(%rbp), %rax
	imulq	$144, %rax, %rax
	addq	%rax, %rdi
	movslq	-4(%rbp), %rax
	shlq	$4, %rax
	addq	%rax, %rdi
	movq	img, %rax
	movslq	72520(%rax), %rax
	imulq	$144, %rax, %rax
	movabsq	$INIT_B8_TYPE_P, %rsi
	addq	%rax, %rsi
	movslq	-8(%rbp), %rax
	imulq	$72, %rax, %rax
	addq	%rax, %rsi
	movslq	-4(%rbp), %rax
	shlq	$3, %rax
	addq	%rax, %rsi
	callq	biari_init_context
.LBB14_18:                              # %if.end66
                                        #   in Loop: Header=BB14_14 Depth=2
	jmp	.LBB14_19
.LBB14_19:                              # %for.inc67
                                        #   in Loop: Header=BB14_14 Depth=2
	movl	-4(%rbp), %eax
	addl	$1, %eax
	movl	%eax, -4(%rbp)
	jmp	.LBB14_14
.LBB14_20:                              # %for.end69
                                        #   in Loop: Header=BB14_12 Depth=1
	jmp	.LBB14_21
.LBB14_21:                              # %for.inc70
                                        #   in Loop: Header=BB14_12 Depth=1
	movl	-8(%rbp), %eax
	addl	$1, %eax
	movl	%eax, -8(%rbp)
	jmp	.LBB14_12
.LBB14_22:                              # %for.end72
	movl	$0, -8(%rbp)
.LBB14_23:                              # %for.cond73
                                        # =>This Loop Header: Depth=1
                                        #     Child Loop BB14_25 Depth 2
	cmpl	$2, -8(%rbp)
	jge	.LBB14_33
# %bb.24:                               # %for.body75
                                        #   in Loop: Header=BB14_23 Depth=1
	movl	$0, -4(%rbp)
.LBB14_25:                              # %for.cond76
                                        #   Parent Loop BB14_23 Depth=1
                                        # =>  This Inner Loop Header: Depth=2
	cmpl	$10, -4(%rbp)
	jge	.LBB14_31
# %bb.26:                               # %for.body78
                                        #   in Loop: Header=BB14_25 Depth=2
	movq	img, %rax
	cmpl	$2, 24(%rax)
	jne	.LBB14_28
# %bb.27:                               # %if.then81
                                        #   in Loop: Header=BB14_25 Depth=2
	movq	-24(%rbp), %rdi
	addq	$816, %rdi              # imm = 0x330
	movslq	-8(%rbp), %rax
	imulq	$160, %rax, %rax
	addq	%rax, %rdi
	movslq	-4(%rbp), %rax
	shlq	$4, %rax
	addq	%rax, %rdi
	movq	img, %rax
	movslq	72520(%rax), %rax
	imulq	$160, %rax, %rax
	movabsq	$INIT_MV_RES_I, %rsi
	addq	%rax, %rsi
	movslq	-8(%rbp), %rax
	imulq	$80, %rax, %rax
	addq	%rax, %rsi
	movslq	-4(%rbp), %rax
	shlq	$3, %rax
	addq	%rax, %rsi
	callq	biari_init_context
	jmp	.LBB14_29
.LBB14_28:                              # %if.else94
                                        #   in Loop: Header=BB14_25 Depth=2
	movq	-24(%rbp), %rdi
	addq	$816, %rdi              # imm = 0x330
	movslq	-8(%rbp), %rax
	imulq	$160, %rax, %rax
	addq	%rax, %rdi
	movslq	-4(%rbp), %rax
	shlq	$4, %rax
	addq	%rax, %rdi
	movq	img, %rax
	movslq	72520(%rax), %rax
	imulq	$160, %rax, %rax
	movabsq	$INIT_MV_RES_P, %rsi
	addq	%rax, %rsi
	movslq	-8(%rbp), %rax
	imulq	$80, %rax, %rax
	addq	%rax, %rsi
	movslq	-4(%rbp), %rax
	shlq	$3, %rax
	addq	%rax, %rsi
	callq	biari_init_context
.LBB14_29:                              # %if.end108
                                        #   in Loop: Header=BB14_25 Depth=2
	jmp	.LBB14_30
.LBB14_30:                              # %for.inc109
                                        #   in Loop: Header=BB14_25 Depth=2
	movl	-4(%rbp), %eax
	addl	$1, %eax
	movl	%eax, -4(%rbp)
	jmp	.LBB14_25
.LBB14_31:                              # %for.end111
                                        #   in Loop: Header=BB14_23 Depth=1
	jmp	.LBB14_32
.LBB14_32:                              # %for.inc112
                                        #   in Loop: Header=BB14_23 Depth=1
	movl	-8(%rbp), %eax
	addl	$1, %eax
	movl	%eax, -8(%rbp)
	jmp	.LBB14_23
.LBB14_33:                              # %for.end114
	movl	$0, -8(%rbp)
.LBB14_34:                              # %for.cond115
                                        # =>This Loop Header: Depth=1
                                        #     Child Loop BB14_36 Depth 2
	cmpl	$2, -8(%rbp)
	jge	.LBB14_44
# %bb.35:                               # %for.body117
                                        #   in Loop: Header=BB14_34 Depth=1
	movl	$0, -4(%rbp)
.LBB14_36:                              # %for.cond118
                                        #   Parent Loop BB14_34 Depth=1
                                        # =>  This Inner Loop Header: Depth=2
	cmpl	$6, -4(%rbp)
	jge	.LBB14_42
# %bb.37:                               # %for.body120
                                        #   in Loop: Header=BB14_36 Depth=2
	movq	img, %rax
	cmpl	$2, 24(%rax)
	jne	.LBB14_39
# %bb.38:                               # %if.then123
                                        #   in Loop: Header=BB14_36 Depth=2
	movq	-24(%rbp), %rdi
	addq	$1136, %rdi             # imm = 0x470
	movslq	-8(%rbp), %rax
	imulq	$96, %rax, %rax
	addq	%rax, %rdi
	movslq	-4(%rbp), %rax
	shlq	$4, %rax
	addq	%rax, %rdi
	movq	img, %rax
	movslq	72520(%rax), %rax
	imulq	$96, %rax, %rax
	movabsq	$INIT_REF_NO_I, %rsi
	addq	%rax, %rsi
	movslq	-8(%rbp), %rax
	imulq	$48, %rax, %rax
	addq	%rax, %rsi
	movslq	-4(%rbp), %rax
	shlq	$3, %rax
	addq	%rax, %rsi
	callq	biari_init_context
	jmp	.LBB14_40
.LBB14_39:                              # %if.else136
                                        #   in Loop: Header=BB14_36 Depth=2
	movq	-24(%rbp), %rdi
	addq	$1136, %rdi             # imm = 0x470
	movslq	-8(%rbp), %rax
	imulq	$96, %rax, %rax
	addq	%rax, %rdi
	movslq	-4(%rbp), %rax
	shlq	$4, %rax
	addq	%rax, %rdi
	movq	img, %rax
	movslq	72520(%rax), %rax
	imulq	$96, %rax, %rax
	movabsq	$INIT_REF_NO_P, %rsi
	addq	%rax, %rsi
	movslq	-8(%rbp), %rax
	imulq	$48, %rax, %rax
	addq	%rax, %rsi
	movslq	-4(%rbp), %rax
	shlq	$3, %rax
	addq	%rax, %rsi
	callq	biari_init_context
.LBB14_40:                              # %if.end150
                                        #   in Loop: Header=BB14_36 Depth=2
	jmp	.LBB14_41
.LBB14_41:                              # %for.inc151
                                        #   in Loop: Header=BB14_36 Depth=2
	movl	-4(%rbp), %eax
	addl	$1, %eax
	movl	%eax, -4(%rbp)
	jmp	.LBB14_36
.LBB14_42:                              # %for.end153
                                        #   in Loop: Header=BB14_34 Depth=1
	jmp	.LBB14_43
.LBB14_43:                              # %for.inc154
                                        #   in Loop: Header=BB14_34 Depth=1
	movl	-8(%rbp), %eax
	addl	$1, %eax
	movl	%eax, -8(%rbp)
	jmp	.LBB14_34
.LBB14_44:                              # %for.end156
	movl	$0, -4(%rbp)
.LBB14_45:                              # %for.cond157
                                        # =>This Inner Loop Header: Depth=1
	cmpl	$4, -4(%rbp)
	jge	.LBB14_51
# %bb.46:                               # %for.body159
                                        #   in Loop: Header=BB14_45 Depth=1
	movq	img, %rax
	cmpl	$2, 24(%rax)
	jne	.LBB14_48
# %bb.47:                               # %if.then162
                                        #   in Loop: Header=BB14_45 Depth=1
	movq	-24(%rbp), %rdi
	addq	$1328, %rdi             # imm = 0x530
	movslq	-4(%rbp), %rax
	shlq	$4, %rax
	addq	%rax, %rdi
	movq	img, %rax
	movslq	72520(%rax), %rax
	shlq	$5, %rax
	movabsq	$INIT_DELTA_QP_I, %rsi
	addq	%rax, %rsi
	movslq	-4(%rbp), %rax
	shlq	$3, %rax
	addq	%rax, %rsi
	callq	biari_init_context
	jmp	.LBB14_49
.LBB14_48:                              # %if.else172
                                        #   in Loop: Header=BB14_45 Depth=1
	movq	-24(%rbp), %rdi
	addq	$1328, %rdi             # imm = 0x530
	movslq	-4(%rbp), %rax
	shlq	$4, %rax
	addq	%rax, %rdi
	movq	img, %rax
	movslq	72520(%rax), %rax
	shlq	$5, %rax
	movabsq	$INIT_DELTA_QP_P, %rsi
	addq	%rax, %rsi
	movslq	-4(%rbp), %rax
	shlq	$3, %rax
	addq	%rax, %rsi
	callq	biari_init_context
.LBB14_49:                              # %if.end183
                                        #   in Loop: Header=BB14_45 Depth=1
	jmp	.LBB14_50
.LBB14_50:                              # %for.inc184
                                        #   in Loop: Header=BB14_45 Depth=1
	movl	-4(%rbp), %eax
	addl	$1, %eax
	movl	%eax, -4(%rbp)
	jmp	.LBB14_45
.LBB14_51:                              # %for.end186
	movl	$0, -4(%rbp)
.LBB14_52:                              # %for.cond187
                                        # =>This Inner Loop Header: Depth=1
	cmpl	$4, -4(%rbp)
	jge	.LBB14_58
# %bb.53:                               # %for.body189
                                        #   in Loop: Header=BB14_52 Depth=1
	movq	img, %rax
	cmpl	$2, 24(%rax)
	jne	.LBB14_55
# %bb.54:                               # %if.then192
                                        #   in Loop: Header=BB14_52 Depth=1
	movq	-24(%rbp), %rdi
	addq	$1392, %rdi             # imm = 0x570
	movslq	-4(%rbp), %rax
	shlq	$4, %rax
	addq	%rax, %rdi
	movq	img, %rax
	movslq	72520(%rax), %rax
	shlq	$5, %rax
	movabsq	$INIT_MB_AFF_I, %rsi
	addq	%rax, %rsi
	movslq	-4(%rbp), %rax
	shlq	$3, %rax
	addq	%rax, %rsi
	callq	biari_init_context
	jmp	.LBB14_56
.LBB14_55:                              # %if.else202
                                        #   in Loop: Header=BB14_52 Depth=1
	movq	-24(%rbp), %rdi
	addq	$1392, %rdi             # imm = 0x570
	movslq	-4(%rbp), %rax
	shlq	$4, %rax
	addq	%rax, %rdi
	movq	img, %rax
	movslq	72520(%rax), %rax
	shlq	$5, %rax
	movabsq	$INIT_MB_AFF_P, %rsi
	addq	%rax, %rsi
	movslq	-4(%rbp), %rax
	shlq	$3, %rax
	addq	%rax, %rsi
	callq	biari_init_context
.LBB14_56:                              # %if.end213
                                        #   in Loop: Header=BB14_52 Depth=1
	jmp	.LBB14_57
.LBB14_57:                              # %for.inc214
                                        #   in Loop: Header=BB14_52 Depth=1
	movl	-4(%rbp), %eax
	addl	$1, %eax
	movl	%eax, -4(%rbp)
	jmp	.LBB14_52
.LBB14_58:                              # %for.end216
	movl	$0, -4(%rbp)
.LBB14_59:                              # %for.cond217
                                        # =>This Inner Loop Header: Depth=1
	cmpl	$3, -4(%rbp)
	jge	.LBB14_65
# %bb.60:                               # %for.body219
                                        #   in Loop: Header=BB14_59 Depth=1
	movq	img, %rax
	cmpl	$2, 24(%rax)
	jne	.LBB14_62
# %bb.61:                               # %if.then222
                                        #   in Loop: Header=BB14_59 Depth=1
	movq	-24(%rbp), %rdi
	addq	$1456, %rdi             # imm = 0x5B0
	movslq	-4(%rbp), %rax
	shlq	$4, %rax
	addq	%rax, %rdi
	movq	img, %rax
	movslq	72520(%rax), %rax
	imulq	$24, %rax, %rax
	movabsq	$INIT_TRANSFORM_SIZE_I, %rsi
	addq	%rax, %rsi
	movslq	-4(%rbp), %rax
	shlq	$3, %rax
	addq	%rax, %rsi
	callq	biari_init_context
	jmp	.LBB14_63
.LBB14_62:                              # %if.else232
                                        #   in Loop: Header=BB14_59 Depth=1
	movq	-24(%rbp), %rdi
	addq	$1456, %rdi             # imm = 0x5B0
	movslq	-4(%rbp), %rax
	shlq	$4, %rax
	addq	%rax, %rdi
	movq	img, %rax
	movslq	72520(%rax), %rax
	imulq	$24, %rax, %rax
	movabsq	$INIT_TRANSFORM_SIZE_P, %rsi
	addq	%rax, %rsi
	movslq	-4(%rbp), %rax
	shlq	$3, %rax
	addq	%rax, %rsi
	callq	biari_init_context
.LBB14_63:                              # %if.end243
                                        #   in Loop: Header=BB14_59 Depth=1
	jmp	.LBB14_64
.LBB14_64:                              # %for.inc244
                                        #   in Loop: Header=BB14_59 Depth=1
	movl	-4(%rbp), %eax
	addl	$1, %eax
	movl	%eax, -4(%rbp)
	jmp	.LBB14_59
.LBB14_65:                              # %for.end246
	movl	$0, -4(%rbp)
.LBB14_66:                              # %for.cond247
                                        # =>This Inner Loop Header: Depth=1
	cmpl	$2, -4(%rbp)
	jge	.LBB14_72
# %bb.67:                               # %for.body249
                                        #   in Loop: Header=BB14_66 Depth=1
	movq	img, %rax
	cmpl	$2, 24(%rax)
	jne	.LBB14_69
# %bb.68:                               # %if.then252
                                        #   in Loop: Header=BB14_66 Depth=1
	movq	-16(%rbp), %rdi
	movslq	-4(%rbp), %rax
	shlq	$4, %rax
	addq	%rax, %rdi
	movq	img, %rax
	movslq	72520(%rax), %rax
	shlq	$4, %rax
	movabsq	$INIT_IPR_I, %rsi
	addq	%rax, %rsi
	movslq	-4(%rbp), %rax
	shlq	$3, %rax
	addq	%rax, %rsi
	callq	biari_init_context
	jmp	.LBB14_70
.LBB14_69:                              # %if.else262
                                        #   in Loop: Header=BB14_66 Depth=1
	movq	-16(%rbp), %rdi
	movslq	-4(%rbp), %rax
	shlq	$4, %rax
	addq	%rax, %rdi
	movq	img, %rax
	movslq	72520(%rax), %rax
	shlq	$4, %rax
	movabsq	$INIT_IPR_P, %rsi
	addq	%rax, %rsi
	movslq	-4(%rbp), %rax
	shlq	$3, %rax
	addq	%rax, %rsi
	callq	biari_init_context
.LBB14_70:                              # %if.end273
                                        #   in Loop: Header=BB14_66 Depth=1
	jmp	.LBB14_71
.LBB14_71:                              # %for.inc274
                                        #   in Loop: Header=BB14_66 Depth=1
	movl	-4(%rbp), %eax
	addl	$1, %eax
	movl	%eax, -4(%rbp)
	jmp	.LBB14_66
.LBB14_72:                              # %for.end276
	movl	$0, -4(%rbp)
.LBB14_73:                              # %for.cond277
                                        # =>This Inner Loop Header: Depth=1
	cmpl	$4, -4(%rbp)
	jge	.LBB14_79
# %bb.74:                               # %for.body279
                                        #   in Loop: Header=BB14_73 Depth=1
	movq	img, %rax
	cmpl	$2, 24(%rax)
	jne	.LBB14_76
# %bb.75:                               # %if.then282
                                        #   in Loop: Header=BB14_73 Depth=1
	movq	-16(%rbp), %rdi
	addq	$32, %rdi
	movslq	-4(%rbp), %rax
	shlq	$4, %rax
	addq	%rax, %rdi
	movq	img, %rax
	movslq	72520(%rax), %rax
	shlq	$5, %rax
	movabsq	$INIT_CIPR_I, %rsi
	addq	%rax, %rsi
	movslq	-4(%rbp), %rax
	shlq	$3, %rax
	addq	%rax, %rsi
	callq	biari_init_context
	jmp	.LBB14_77
.LBB14_76:                              # %if.else292
                                        #   in Loop: Header=BB14_73 Depth=1
	movq	-16(%rbp), %rdi
	addq	$32, %rdi
	movslq	-4(%rbp), %rax
	shlq	$4, %rax
	addq	%rax, %rdi
	movq	img, %rax
	movslq	72520(%rax), %rax
	shlq	$5, %rax
	movabsq	$INIT_CIPR_P, %rsi
	addq	%rax, %rsi
	movslq	-4(%rbp), %rax
	shlq	$3, %rax
	addq	%rax, %rsi
	callq	biari_init_context
.LBB14_77:                              # %if.end303
                                        #   in Loop: Header=BB14_73 Depth=1
	jmp	.LBB14_78
.LBB14_78:                              # %for.inc304
                                        #   in Loop: Header=BB14_73 Depth=1
	movl	-4(%rbp), %eax
	addl	$1, %eax
	movl	%eax, -4(%rbp)
	jmp	.LBB14_73
.LBB14_79:                              # %for.end306
	movl	$0, -8(%rbp)
.LBB14_80:                              # %for.cond307
                                        # =>This Loop Header: Depth=1
                                        #     Child Loop BB14_82 Depth 2
	cmpl	$3, -8(%rbp)
	jge	.LBB14_90
# %bb.81:                               # %for.body309
                                        #   in Loop: Header=BB14_80 Depth=1
	movl	$0, -4(%rbp)
.LBB14_82:                              # %for.cond310
                                        #   Parent Loop BB14_80 Depth=1
                                        # =>  This Inner Loop Header: Depth=2
	cmpl	$4, -4(%rbp)
	jge	.LBB14_88
# %bb.83:                               # %for.body312
                                        #   in Loop: Header=BB14_82 Depth=2
	movq	img, %rax
	cmpl	$2, 24(%rax)
	jne	.LBB14_85
# %bb.84:                               # %if.then315
                                        #   in Loop: Header=BB14_82 Depth=2
	movq	-16(%rbp), %rdi
	addq	$96, %rdi
	movslq	-8(%rbp), %rax
	shlq	$6, %rax
	addq	%rax, %rdi
	movslq	-4(%rbp), %rax
	shlq	$4, %rax
	addq	%rax, %rdi
	movq	img, %rax
	movslq	72520(%rax), %rax
	imulq	$96, %rax, %rax
	movabsq	$INIT_CBP_I, %rsi
	addq	%rax, %rsi
	movslq	-8(%rbp), %rax
	shlq	$5, %rax
	addq	%rax, %rsi
	movslq	-4(%rbp), %rax
	shlq	$3, %rax
	addq	%rax, %rsi
	callq	biari_init_context
	jmp	.LBB14_86
.LBB14_85:                              # %if.else328
                                        #   in Loop: Header=BB14_82 Depth=2
	movq	-16(%rbp), %rdi
	addq	$96, %rdi
	movslq	-8(%rbp), %rax
	shlq	$6, %rax
	addq	%rax, %rdi
	movslq	-4(%rbp), %rax
	shlq	$4, %rax
	addq	%rax, %rdi
	movq	img, %rax
	movslq	72520(%rax), %rax
	imulq	$96, %rax, %rax
	movabsq	$INIT_CBP_P, %rsi
	addq	%rax, %rsi
	movslq	-8(%rbp), %rax
	shlq	$5, %rax
	addq	%rax, %rsi
	movslq	-4(%rbp), %rax
	shlq	$3, %rax
	addq	%rax, %rsi
	callq	biari_init_context
.LBB14_86:                              # %if.end342
                                        #   in Loop: Header=BB14_82 Depth=2
	jmp	.LBB14_87
.LBB14_87:                              # %for.inc343
                                        #   in Loop: Header=BB14_82 Depth=2
	movl	-4(%rbp), %eax
	addl	$1, %eax
	movl	%eax, -4(%rbp)
	jmp	.LBB14_82
.LBB14_88:                              # %for.end345
                                        #   in Loop: Header=BB14_80 Depth=1
	jmp	.LBB14_89
.LBB14_89:                              # %for.inc346
                                        #   in Loop: Header=BB14_80 Depth=1
	movl	-8(%rbp), %eax
	addl	$1, %eax
	movl	%eax, -8(%rbp)
	jmp	.LBB14_80
.LBB14_90:                              # %for.end348
	movl	$0, -8(%rbp)
.LBB14_91:                              # %for.cond349
                                        # =>This Loop Header: Depth=1
                                        #     Child Loop BB14_93 Depth 2
	cmpl	$10, -8(%rbp)
	jge	.LBB14_101
# %bb.92:                               # %for.body351
                                        #   in Loop: Header=BB14_91 Depth=1
	movl	$0, -4(%rbp)
.LBB14_93:                              # %for.cond352
                                        #   Parent Loop BB14_91 Depth=1
                                        # =>  This Inner Loop Header: Depth=2
	cmpl	$4, -4(%rbp)
	jge	.LBB14_99
# %bb.94:                               # %for.body354
                                        #   in Loop: Header=BB14_93 Depth=2
	movq	img, %rax
	cmpl	$2, 24(%rax)
	jne	.LBB14_96
# %bb.95:                               # %if.then357
                                        #   in Loop: Header=BB14_93 Depth=2
	movq	-16(%rbp), %rdi
	addq	$288, %rdi              # imm = 0x120
	movslq	-8(%rbp), %rax
	shlq	$6, %rax
	addq	%rax, %rdi
	movslq	-4(%rbp), %rax
	shlq	$4, %rax
	addq	%rax, %rdi
	movq	img, %rax
	movslq	72520(%rax), %rax
	shlq	$8, %rax
	movabsq	$INIT_BCBP_I, %rsi
	addq	%rax, %rsi
	movslq	-8(%rbp), %rax
	shlq	$5, %rax
	addq	%rax, %rsi
	movslq	-4(%rbp), %rax
	shlq	$3, %rax
	addq	%rax, %rsi
	callq	biari_init_context
	jmp	.LBB14_97
.LBB14_96:                              # %if.else370
                                        #   in Loop: Header=BB14_93 Depth=2
	movq	-16(%rbp), %rdi
	addq	$288, %rdi              # imm = 0x120
	movslq	-8(%rbp), %rax
	shlq	$6, %rax
	addq	%rax, %rdi
	movslq	-4(%rbp), %rax
	shlq	$4, %rax
	addq	%rax, %rdi
	movq	img, %rax
	movslq	72520(%rax), %rax
	shlq	$8, %rax
	movabsq	$INIT_BCBP_P, %rsi
	addq	%rax, %rsi
	movslq	-8(%rbp), %rax
	shlq	$5, %rax
	addq	%rax, %rsi
	movslq	-4(%rbp), %rax
	shlq	$3, %rax
	addq	%rax, %rsi
	callq	biari_init_context
.LBB14_97:                              # %if.end384
                                        #   in Loop: Header=BB14_93 Depth=2
	jmp	.LBB14_98
.LBB14_98:                              # %for.inc385
                                        #   in Loop: Header=BB14_93 Depth=2
	movl	-4(%rbp), %eax
	addl	$1, %eax
	movl	%eax, -4(%rbp)
	jmp	.LBB14_93
.LBB14_99:                              # %for.end387
                                        #   in Loop: Header=BB14_91 Depth=1
	jmp	.LBB14_100
.LBB14_100:                             # %for.inc388
                                        #   in Loop: Header=BB14_91 Depth=1
	movl	-8(%rbp), %eax
	addl	$1, %eax
	movl	%eax, -8(%rbp)
	jmp	.LBB14_91
.LBB14_101:                             # %for.end390
	movl	$0, -8(%rbp)
.LBB14_102:                             # %for.cond391
                                        # =>This Loop Header: Depth=1
                                        #     Child Loop BB14_104 Depth 2
	cmpl	$10, -8(%rbp)
	jge	.LBB14_112
# %bb.103:                              # %for.body393
                                        #   in Loop: Header=BB14_102 Depth=1
	movl	$0, -4(%rbp)
.LBB14_104:                             # %for.cond394
                                        #   Parent Loop BB14_102 Depth=1
                                        # =>  This Inner Loop Header: Depth=2
	cmpl	$15, -4(%rbp)
	jge	.LBB14_110
# %bb.105:                              # %for.body396
                                        #   in Loop: Header=BB14_104 Depth=2
	movq	img, %rax
	cmpl	$2, 24(%rax)
	jne	.LBB14_107
# %bb.106:                              # %if.then399
                                        #   in Loop: Header=BB14_104 Depth=2
	movq	-16(%rbp), %rdi
	addq	$928, %rdi              # imm = 0x3A0
	movslq	-8(%rbp), %rax
	imulq	$240, %rax, %rax
	addq	%rax, %rdi
	movslq	-4(%rbp), %rax
	shlq	$4, %rax
	addq	%rax, %rdi
	movq	img, %rax
	movslq	72520(%rax), %rax
	imulq	$960, %rax, %rax        # imm = 0x3C0
	movabsq	$INIT_MAP_I, %rsi
	addq	%rax, %rsi
	movslq	-8(%rbp), %rax
	imulq	$120, %rax, %rax
	addq	%rax, %rsi
	movslq	-4(%rbp), %rax
	shlq	$3, %rax
	addq	%rax, %rsi
	callq	biari_init_context
	jmp	.LBB14_108
.LBB14_107:                             # %if.else412
                                        #   in Loop: Header=BB14_104 Depth=2
	movq	-16(%rbp), %rdi
	addq	$928, %rdi              # imm = 0x3A0
	movslq	-8(%rbp), %rax
	imulq	$240, %rax, %rax
	addq	%rax, %rdi
	movslq	-4(%rbp), %rax
	shlq	$4, %rax
	addq	%rax, %rdi
	movq	img, %rax
	movslq	72520(%rax), %rax
	imulq	$960, %rax, %rax        # imm = 0x3C0
	movabsq	$INIT_MAP_P, %rsi
	addq	%rax, %rsi
	movslq	-8(%rbp), %rax
	imulq	$120, %rax, %rax
	addq	%rax, %rsi
	movslq	-4(%rbp), %rax
	shlq	$3, %rax
	addq	%rax, %rsi
	callq	biari_init_context
.LBB14_108:                             # %if.end426
                                        #   in Loop: Header=BB14_104 Depth=2
	jmp	.LBB14_109
.LBB14_109:                             # %for.inc427
                                        #   in Loop: Header=BB14_104 Depth=2
	movl	-4(%rbp), %eax
	addl	$1, %eax
	movl	%eax, -4(%rbp)
	jmp	.LBB14_104
.LBB14_110:                             # %for.end429
                                        #   in Loop: Header=BB14_102 Depth=1
	jmp	.LBB14_111
.LBB14_111:                             # %for.inc430
                                        #   in Loop: Header=BB14_102 Depth=1
	movl	-8(%rbp), %eax
	addl	$1, %eax
	movl	%eax, -8(%rbp)
	jmp	.LBB14_102
.LBB14_112:                             # %for.end432
	movl	$0, -8(%rbp)
.LBB14_113:                             # %for.cond433
                                        # =>This Loop Header: Depth=1
                                        #     Child Loop BB14_115 Depth 2
	cmpl	$10, -8(%rbp)
	jge	.LBB14_123
# %bb.114:                              # %for.body435
                                        #   in Loop: Header=BB14_113 Depth=1
	movl	$0, -4(%rbp)
.LBB14_115:                             # %for.cond436
                                        #   Parent Loop BB14_113 Depth=1
                                        # =>  This Inner Loop Header: Depth=2
	cmpl	$15, -4(%rbp)
	jge	.LBB14_121
# %bb.116:                              # %for.body438
                                        #   in Loop: Header=BB14_115 Depth=2
	movq	img, %rax
	cmpl	$2, 24(%rax)
	jne	.LBB14_118
# %bb.117:                              # %if.then441
                                        #   in Loop: Header=BB14_115 Depth=2
	movq	-16(%rbp), %rdi
	addq	$3328, %rdi             # imm = 0xD00
	movslq	-8(%rbp), %rax
	imulq	$240, %rax, %rax
	addq	%rax, %rdi
	movslq	-4(%rbp), %rax
	shlq	$4, %rax
	addq	%rax, %rdi
	movq	img, %rax
	movslq	72520(%rax), %rax
	imulq	$960, %rax, %rax        # imm = 0x3C0
	movabsq	$INIT_LAST_I, %rsi
	addq	%rax, %rsi
	movslq	-8(%rbp), %rax
	imulq	$120, %rax, %rax
	addq	%rax, %rsi
	movslq	-4(%rbp), %rax
	shlq	$3, %rax
	addq	%rax, %rsi
	callq	biari_init_context
	jmp	.LBB14_119
.LBB14_118:                             # %if.else454
                                        #   in Loop: Header=BB14_115 Depth=2
	movq	-16(%rbp), %rdi
	addq	$3328, %rdi             # imm = 0xD00
	movslq	-8(%rbp), %rax
	imulq	$240, %rax, %rax
	addq	%rax, %rdi
	movslq	-4(%rbp), %rax
	shlq	$4, %rax
	addq	%rax, %rdi
	movq	img, %rax
	movslq	72520(%rax), %rax
	imulq	$960, %rax, %rax        # imm = 0x3C0
	movabsq	$INIT_LAST_P, %rsi
	addq	%rax, %rsi
	movslq	-8(%rbp), %rax
	imulq	$120, %rax, %rax
	addq	%rax, %rsi
	movslq	-4(%rbp), %rax
	shlq	$3, %rax
	addq	%rax, %rsi
	callq	biari_init_context
.LBB14_119:                             # %if.end468
                                        #   in Loop: Header=BB14_115 Depth=2
	jmp	.LBB14_120
.LBB14_120:                             # %for.inc469
                                        #   in Loop: Header=BB14_115 Depth=2
	movl	-4(%rbp), %eax
	addl	$1, %eax
	movl	%eax, -4(%rbp)
	jmp	.LBB14_115
.LBB14_121:                             # %for.end471
                                        #   in Loop: Header=BB14_113 Depth=1
	jmp	.LBB14_122
.LBB14_122:                             # %for.inc472
                                        #   in Loop: Header=BB14_113 Depth=1
	movl	-8(%rbp), %eax
	addl	$1, %eax
	movl	%eax, -8(%rbp)
	jmp	.LBB14_113
.LBB14_123:                             # %for.end474
	movl	$0, -8(%rbp)
.LBB14_124:                             # %for.cond475
                                        # =>This Loop Header: Depth=1
                                        #     Child Loop BB14_126 Depth 2
	cmpl	$10, -8(%rbp)
	jge	.LBB14_134
# %bb.125:                              # %for.body477
                                        #   in Loop: Header=BB14_124 Depth=1
	movl	$0, -4(%rbp)
.LBB14_126:                             # %for.cond478
                                        #   Parent Loop BB14_124 Depth=1
                                        # =>  This Inner Loop Header: Depth=2
	cmpl	$5, -4(%rbp)
	jge	.LBB14_132
# %bb.127:                              # %for.body480
                                        #   in Loop: Header=BB14_126 Depth=2
	movq	img, %rax
	cmpl	$2, 24(%rax)
	jne	.LBB14_129
# %bb.128:                              # %if.then483
                                        #   in Loop: Header=BB14_126 Depth=2
	movq	-16(%rbp), %rdi
	addq	$5728, %rdi             # imm = 0x1660
	movslq	-8(%rbp), %rax
	imulq	$80, %rax, %rax
	addq	%rax, %rdi
	movslq	-4(%rbp), %rax
	shlq	$4, %rax
	addq	%rax, %rdi
	movq	img, %rax
	movslq	72520(%rax), %rax
	imulq	$320, %rax, %rax        # imm = 0x140
	movabsq	$INIT_ONE_I, %rsi
	addq	%rax, %rsi
	movslq	-8(%rbp), %rax
	imulq	$40, %rax, %rax
	addq	%rax, %rsi
	movslq	-4(%rbp), %rax
	shlq	$3, %rax
	addq	%rax, %rsi
	callq	biari_init_context
	jmp	.LBB14_130
.LBB14_129:                             # %if.else496
                                        #   in Loop: Header=BB14_126 Depth=2
	movq	-16(%rbp), %rdi
	addq	$5728, %rdi             # imm = 0x1660
	movslq	-8(%rbp), %rax
	imulq	$80, %rax, %rax
	addq	%rax, %rdi
	movslq	-4(%rbp), %rax
	shlq	$4, %rax
	addq	%rax, %rdi
	movq	img, %rax
	movslq	72520(%rax), %rax
	imulq	$320, %rax, %rax        # imm = 0x140
	movabsq	$INIT_ONE_P, %rsi
	addq	%rax, %rsi
	movslq	-8(%rbp), %rax
	imulq	$40, %rax, %rax
	addq	%rax, %rsi
	movslq	-4(%rbp), %rax
	shlq	$3, %rax
	addq	%rax, %rsi
	callq	biari_init_context
.LBB14_130:                             # %if.end510
                                        #   in Loop: Header=BB14_126 Depth=2
	jmp	.LBB14_131
.LBB14_131:                             # %for.inc511
                                        #   in Loop: Header=BB14_126 Depth=2
	movl	-4(%rbp), %eax
	addl	$1, %eax
	movl	%eax, -4(%rbp)
	jmp	.LBB14_126
.LBB14_132:                             # %for.end513
                                        #   in Loop: Header=BB14_124 Depth=1
	jmp	.LBB14_133
.LBB14_133:                             # %for.inc514
                                        #   in Loop: Header=BB14_124 Depth=1
	movl	-8(%rbp), %eax
	addl	$1, %eax
	movl	%eax, -8(%rbp)
	jmp	.LBB14_124
.LBB14_134:                             # %for.end516
	movl	$0, -8(%rbp)
.LBB14_135:                             # %for.cond517
                                        # =>This Loop Header: Depth=1
                                        #     Child Loop BB14_137 Depth 2
	cmpl	$10, -8(%rbp)
	jge	.LBB14_145
# %bb.136:                              # %for.body519
                                        #   in Loop: Header=BB14_135 Depth=1
	movl	$0, -4(%rbp)
.LBB14_137:                             # %for.cond520
                                        #   Parent Loop BB14_135 Depth=1
                                        # =>  This Inner Loop Header: Depth=2
	cmpl	$5, -4(%rbp)
	jge	.LBB14_143
# %bb.138:                              # %for.body522
                                        #   in Loop: Header=BB14_137 Depth=2
	movq	img, %rax
	cmpl	$2, 24(%rax)
	jne	.LBB14_140
# %bb.139:                              # %if.then525
                                        #   in Loop: Header=BB14_137 Depth=2
	movq	-16(%rbp), %rdi
	addq	$6528, %rdi             # imm = 0x1980
	movslq	-8(%rbp), %rax
	imulq	$80, %rax, %rax
	addq	%rax, %rdi
	movslq	-4(%rbp), %rax
	shlq	$4, %rax
	addq	%rax, %rdi
	movq	img, %rax
	movslq	72520(%rax), %rax
	imulq	$320, %rax, %rax        # imm = 0x140
	movabsq	$INIT_ABS_I, %rsi
	addq	%rax, %rsi
	movslq	-8(%rbp), %rax
	imulq	$40, %rax, %rax
	addq	%rax, %rsi
	movslq	-4(%rbp), %rax
	shlq	$3, %rax
	addq	%rax, %rsi
	callq	biari_init_context
	jmp	.LBB14_141
.LBB14_140:                             # %if.else538
                                        #   in Loop: Header=BB14_137 Depth=2
	movq	-16(%rbp), %rdi
	addq	$6528, %rdi             # imm = 0x1980
	movslq	-8(%rbp), %rax
	imulq	$80, %rax, %rax
	addq	%rax, %rdi
	movslq	-4(%rbp), %rax
	shlq	$4, %rax
	addq	%rax, %rdi
	movq	img, %rax
	movslq	72520(%rax), %rax
	imulq	$320, %rax, %rax        # imm = 0x140
	movabsq	$INIT_ABS_P, %rsi
	addq	%rax, %rsi
	movslq	-8(%rbp), %rax
	imulq	$40, %rax, %rax
	addq	%rax, %rsi
	movslq	-4(%rbp), %rax
	shlq	$3, %rax
	addq	%rax, %rsi
	callq	biari_init_context
.LBB14_141:                             # %if.end552
                                        #   in Loop: Header=BB14_137 Depth=2
	jmp	.LBB14_142
.LBB14_142:                             # %for.inc553
                                        #   in Loop: Header=BB14_137 Depth=2
	movl	-4(%rbp), %eax
	addl	$1, %eax
	movl	%eax, -4(%rbp)
	jmp	.LBB14_137
.LBB14_143:                             # %for.end555
                                        #   in Loop: Header=BB14_135 Depth=1
	jmp	.LBB14_144
.LBB14_144:                             # %for.inc556
                                        #   in Loop: Header=BB14_135 Depth=1
	movl	-8(%rbp), %eax
	addl	$1, %eax
	movl	%eax, -8(%rbp)
	jmp	.LBB14_135
.LBB14_145:                             # %for.end558
	movl	$0, -8(%rbp)
.LBB14_146:                             # %for.cond559
                                        # =>This Loop Header: Depth=1
                                        #     Child Loop BB14_148 Depth 2
	cmpl	$10, -8(%rbp)
	jge	.LBB14_156
# %bb.147:                              # %for.body561
                                        #   in Loop: Header=BB14_146 Depth=1
	movl	$0, -4(%rbp)
.LBB14_148:                             # %for.cond562
                                        #   Parent Loop BB14_146 Depth=1
                                        # =>  This Inner Loop Header: Depth=2
	cmpl	$15, -4(%rbp)
	jge	.LBB14_154
# %bb.149:                              # %for.body564
                                        #   in Loop: Header=BB14_148 Depth=2
	movq	img, %rax
	cmpl	$2, 24(%rax)
	jne	.LBB14_151
# %bb.150:                              # %if.then567
                                        #   in Loop: Header=BB14_148 Depth=2
	movq	-16(%rbp), %rdi
	addq	$7328, %rdi             # imm = 0x1CA0
	movslq	-8(%rbp), %rax
	imulq	$240, %rax, %rax
	addq	%rax, %rdi
	movslq	-4(%rbp), %rax
	shlq	$4, %rax
	addq	%rax, %rdi
	movq	img, %rax
	movslq	72520(%rax), %rax
	imulq	$960, %rax, %rax        # imm = 0x3C0
	movabsq	$INIT_FLD_MAP_I, %rsi
	addq	%rax, %rsi
	movslq	-8(%rbp), %rax
	imulq	$120, %rax, %rax
	addq	%rax, %rsi
	movslq	-4(%rbp), %rax
	shlq	$3, %rax
	addq	%rax, %rsi
	callq	biari_init_context
	jmp	.LBB14_152
.LBB14_151:                             # %if.else580
                                        #   in Loop: Header=BB14_148 Depth=2
	movq	-16(%rbp), %rdi
	addq	$7328, %rdi             # imm = 0x1CA0
	movslq	-8(%rbp), %rax
	imulq	$240, %rax, %rax
	addq	%rax, %rdi
	movslq	-4(%rbp), %rax
	shlq	$4, %rax
	addq	%rax, %rdi
	movq	img, %rax
	movslq	72520(%rax), %rax
	imulq	$960, %rax, %rax        # imm = 0x3C0
	movabsq	$INIT_FLD_MAP_P, %rsi
	addq	%rax, %rsi
	movslq	-8(%rbp), %rax
	imulq	$120, %rax, %rax
	addq	%rax, %rsi
	movslq	-4(%rbp), %rax
	shlq	$3, %rax
	addq	%rax, %rsi
	callq	biari_init_context
.LBB14_152:                             # %if.end594
                                        #   in Loop: Header=BB14_148 Depth=2
	jmp	.LBB14_153
.LBB14_153:                             # %for.inc595
                                        #   in Loop: Header=BB14_148 Depth=2
	movl	-4(%rbp), %eax
	addl	$1, %eax
	movl	%eax, -4(%rbp)
	jmp	.LBB14_148
.LBB14_154:                             # %for.end597
                                        #   in Loop: Header=BB14_146 Depth=1
	jmp	.LBB14_155
.LBB14_155:                             # %for.inc598
                                        #   in Loop: Header=BB14_146 Depth=1
	movl	-8(%rbp), %eax
	addl	$1, %eax
	movl	%eax, -8(%rbp)
	jmp	.LBB14_146
.LBB14_156:                             # %for.end600
	movl	$0, -8(%rbp)
.LBB14_157:                             # %for.cond601
                                        # =>This Loop Header: Depth=1
                                        #     Child Loop BB14_159 Depth 2
	cmpl	$10, -8(%rbp)
	jge	.LBB14_167
# %bb.158:                              # %for.body603
                                        #   in Loop: Header=BB14_157 Depth=1
	movl	$0, -4(%rbp)
.LBB14_159:                             # %for.cond604
                                        #   Parent Loop BB14_157 Depth=1
                                        # =>  This Inner Loop Header: Depth=2
	cmpl	$15, -4(%rbp)
	jge	.LBB14_165
# %bb.160:                              # %for.body606
                                        #   in Loop: Header=BB14_159 Depth=2
	movq	img, %rax
	cmpl	$2, 24(%rax)
	jne	.LBB14_162
# %bb.161:                              # %if.then609
                                        #   in Loop: Header=BB14_159 Depth=2
	movq	-16(%rbp), %rdi
	addq	$9728, %rdi             # imm = 0x2600
	movslq	-8(%rbp), %rax
	imulq	$240, %rax, %rax
	addq	%rax, %rdi
	movslq	-4(%rbp), %rax
	shlq	$4, %rax
	addq	%rax, %rdi
	movq	img, %rax
	movslq	72520(%rax), %rax
	imulq	$960, %rax, %rax        # imm = 0x3C0
	movabsq	$INIT_FLD_LAST_I, %rsi
	addq	%rax, %rsi
	movslq	-8(%rbp), %rax
	imulq	$120, %rax, %rax
	addq	%rax, %rsi
	movslq	-4(%rbp), %rax
	shlq	$3, %rax
	addq	%rax, %rsi
	callq	biari_init_context
	jmp	.LBB14_163
.LBB14_162:                             # %if.else622
                                        #   in Loop: Header=BB14_159 Depth=2
	movq	-16(%rbp), %rdi
	addq	$9728, %rdi             # imm = 0x2600
	movslq	-8(%rbp), %rax
	imulq	$240, %rax, %rax
	addq	%rax, %rdi
	movslq	-4(%rbp), %rax
	shlq	$4, %rax
	addq	%rax, %rdi
	movq	img, %rax
	movslq	72520(%rax), %rax
	imulq	$960, %rax, %rax        # imm = 0x3C0
	movabsq	$INIT_FLD_LAST_P, %rsi
	addq	%rax, %rsi
	movslq	-8(%rbp), %rax
	imulq	$120, %rax, %rax
	addq	%rax, %rsi
	movslq	-4(%rbp), %rax
	shlq	$3, %rax
	addq	%rax, %rsi
	callq	biari_init_context
.LBB14_163:                             # %if.end636
                                        #   in Loop: Header=BB14_159 Depth=2
	jmp	.LBB14_164
.LBB14_164:                             # %for.inc637
                                        #   in Loop: Header=BB14_159 Depth=2
	movl	-4(%rbp), %eax
	addl	$1, %eax
	movl	%eax, -4(%rbp)
	jmp	.LBB14_159
.LBB14_165:                             # %for.end639
                                        #   in Loop: Header=BB14_157 Depth=1
	jmp	.LBB14_166
.LBB14_166:                             # %for.inc640
                                        #   in Loop: Header=BB14_157 Depth=1
	movl	-8(%rbp), %eax
	addl	$1, %eax
	movl	%eax, -8(%rbp)
	jmp	.LBB14_157
.LBB14_167:                             # %for.end642
	cmpl	$513693819, -28(%rbp)   # imm = 0x1E9E587B
	jne	.LBB14_169
.LBB14_168:
	addq	$32, %rsp
	popq	%rbp
	.cfi_def_cfa %rsp, 8
	retq
.LBB14_169:                             # %func_exit
	.cfi_def_cfa %rbp, 16
	callq	detect_breach
	jmp	.LBB14_168
.Lfunc_end14:
	.size	init_contexts.7, .Lfunc_end14-init_contexts.7
	.cfi_endproc
                                        # -- End function
	.section	.rodata.cst8,"aM",@progbits,8
	.p2align	3               # -- Begin function GetCtxModelNumber.8
.LCPI15_0:
	.quad	5055640609639927018     # double 1.0E+30
	.text
	.globl	GetCtxModelNumber.8
	.p2align	4, 0x90
	.type	GetCtxModelNumber.8,@function
GetCtxModelNumber.8:                    # @GetCtxModelNumber.8
	.cfi_startproc
# %bb.0:                                # %entry
	pushq	%rbp
	.cfi_def_cfa_offset 16
	.cfi_offset %rbp, -16
	movq	%rsp, %rbp
	.cfi_def_cfa_register %rbp
	subq	$64, %rsp
	vmovsd	.LCPI15_0(%rip), %xmm0  # xmm0 = mem[0],zero
	movl	$2123884712, -48(%rbp)  # imm = 0x7E97E8A8
	movq	%rdi, -64(%rbp)
	movq	%rsi, -40(%rbp)
	movq	%rdx, -32(%rbp)
	movq	img, %rax
	movl	24(%rax), %eax
	cmpl	$2, %eax
	movl	$1, %eax
	movl	$3, %ecx
	cmovel	%eax, %ecx
	movl	%ecx, -44(%rbp)
	vmovsd	%xmm0, -56(%rbp)
	movl	$0, -12(%rbp)
.LBB15_1:                               # %for.cond
                                        # =>This Loop Header: Depth=1
                                        #     Child Loop BB15_3 Depth 2
                                        #       Child Loop BB15_5 Depth 3
                                        #     Child Loop BB15_14 Depth 2
                                        #       Child Loop BB15_16 Depth 3
                                        #     Child Loop BB15_25 Depth 2
                                        #       Child Loop BB15_27 Depth 3
                                        #     Child Loop BB15_36 Depth 2
                                        #       Child Loop BB15_38 Depth 3
                                        #     Child Loop BB15_47 Depth 2
                                        #     Child Loop BB15_54 Depth 2
                                        #     Child Loop BB15_61 Depth 2
                                        #     Child Loop BB15_68 Depth 2
                                        #     Child Loop BB15_75 Depth 2
                                        #     Child Loop BB15_82 Depth 2
                                        #       Child Loop BB15_84 Depth 3
                                        #     Child Loop BB15_93 Depth 2
                                        #       Child Loop BB15_95 Depth 3
                                        #     Child Loop BB15_104 Depth 2
                                        #       Child Loop BB15_106 Depth 3
                                        #     Child Loop BB15_115 Depth 2
                                        #       Child Loop BB15_117 Depth 3
                                        #     Child Loop BB15_126 Depth 2
                                        #       Child Loop BB15_128 Depth 3
                                        #     Child Loop BB15_137 Depth 2
                                        #       Child Loop BB15_139 Depth 3
                                        #     Child Loop BB15_148 Depth 2
                                        #       Child Loop BB15_150 Depth 3
                                        #     Child Loop BB15_159 Depth 2
                                        #       Child Loop BB15_161 Depth 3
	movl	-12(%rbp), %eax
	cmpl	-44(%rbp), %eax
	jge	.LBB15_173
# %bb.2:                                # %for.body
                                        #   in Loop: Header=BB15_1 Depth=1
	vxorps	%xmm0, %xmm0, %xmm0
	vmovsd	%xmm0, -24(%rbp)
	movl	$0, -8(%rbp)
.LBB15_3:                               # %for.cond2
                                        #   Parent Loop BB15_1 Depth=1
                                        # =>  This Loop Header: Depth=2
                                        #       Child Loop BB15_5 Depth 3
	cmpl	$3, -8(%rbp)
	jge	.LBB15_13
# %bb.4:                                # %for.body4
                                        #   in Loop: Header=BB15_3 Depth=2
	movl	$0, -4(%rbp)
.LBB15_5:                               # %for.cond5
                                        #   Parent Loop BB15_1 Depth=1
                                        #     Parent Loop BB15_3 Depth=2
                                        # =>    This Inner Loop Header: Depth=3
	cmpl	$11, -4(%rbp)
	jge	.LBB15_11
# %bb.6:                                # %for.body7
                                        #   in Loop: Header=BB15_5 Depth=3
	movq	img, %rax
	cmpl	$2, 24(%rax)
	jne	.LBB15_8
# %bb.7:                                # %if.then
                                        #   in Loop: Header=BB15_5 Depth=3
	movq	-40(%rbp), %rdi
	movslq	-8(%rbp), %rax
	imulq	$176, %rax, %rax
	addq	%rax, %rdi
	movslq	-4(%rbp), %rax
	shlq	$4, %rax
	addq	%rax, %rdi
	movslq	-12(%rbp), %rax
	imulq	$264, %rax, %rax        # imm = 0x108
	movabsq	$INIT_MB_TYPE_I, %rsi
	addq	%rax, %rsi
	movslq	-8(%rbp), %rax
	imulq	$88, %rax, %rax
	addq	%rax, %rsi
	movslq	-4(%rbp), %rax
	shlq	$3, %rax
	addq	%rax, %rsi
	callq	XRate
	vaddsd	-24(%rbp), %xmm0, %xmm0
	vmovsd	%xmm0, -24(%rbp)
	jmp	.LBB15_9
.LBB15_8:                               # %if.else
                                        #   in Loop: Header=BB15_5 Depth=3
	movq	-40(%rbp), %rdi
	movslq	-8(%rbp), %rax
	imulq	$176, %rax, %rax
	addq	%rax, %rdi
	movslq	-4(%rbp), %rax
	shlq	$4, %rax
	addq	%rax, %rdi
	movslq	-12(%rbp), %rax
	imulq	$264, %rax, %rax        # imm = 0x108
	movabsq	$INIT_MB_TYPE_P, %rsi
	addq	%rax, %rsi
	movslq	-8(%rbp), %rax
	imulq	$88, %rax, %rax
	addq	%rax, %rsi
	movslq	-4(%rbp), %rax
	shlq	$3, %rax
	addq	%rax, %rsi
	callq	XRate
	vaddsd	-24(%rbp), %xmm0, %xmm0
	vmovsd	%xmm0, -24(%rbp)
.LBB15_9:                               # %if.end
                                        #   in Loop: Header=BB15_5 Depth=3
	jmp	.LBB15_10
.LBB15_10:                              # %for.inc
                                        #   in Loop: Header=BB15_5 Depth=3
	movl	-4(%rbp), %eax
	addl	$1, %eax
	movl	%eax, -4(%rbp)
	jmp	.LBB15_5
.LBB15_11:                              # %for.end
                                        #   in Loop: Header=BB15_3 Depth=2
	jmp	.LBB15_12
.LBB15_12:                              # %for.inc33
                                        #   in Loop: Header=BB15_3 Depth=2
	movl	-8(%rbp), %eax
	addl	$1, %eax
	movl	%eax, -8(%rbp)
	jmp	.LBB15_3
.LBB15_13:                              # %for.end35
                                        #   in Loop: Header=BB15_1 Depth=1
	movl	$0, -8(%rbp)
.LBB15_14:                              # %for.cond36
                                        #   Parent Loop BB15_1 Depth=1
                                        # =>  This Loop Header: Depth=2
                                        #       Child Loop BB15_16 Depth 3
	cmpl	$2, -8(%rbp)
	jge	.LBB15_24
# %bb.15:                               # %for.body38
                                        #   in Loop: Header=BB15_14 Depth=2
	movl	$0, -4(%rbp)
.LBB15_16:                              # %for.cond39
                                        #   Parent Loop BB15_1 Depth=1
                                        #     Parent Loop BB15_14 Depth=2
                                        # =>    This Inner Loop Header: Depth=3
	cmpl	$9, -4(%rbp)
	jge	.LBB15_22
# %bb.17:                               # %for.body41
                                        #   in Loop: Header=BB15_16 Depth=3
	movq	img, %rax
	cmpl	$2, 24(%rax)
	jne	.LBB15_19
# %bb.18:                               # %if.then44
                                        #   in Loop: Header=BB15_16 Depth=3
	movq	-40(%rbp), %rdi
	addq	$528, %rdi              # imm = 0x210
	movslq	-8(%rbp), %rax
	imulq	$144, %rax, %rax
	addq	%rax, %rdi
	movslq	-4(%rbp), %rax
	shlq	$4, %rax
	addq	%rax, %rdi
	movslq	-12(%rbp), %rax
	imulq	$144, %rax, %rax
	movabsq	$INIT_B8_TYPE_I, %rsi
	addq	%rax, %rsi
	movslq	-8(%rbp), %rax
	imulq	$72, %rax, %rax
	addq	%rax, %rsi
	movslq	-4(%rbp), %rax
	shlq	$3, %rax
	addq	%rax, %rsi
	callq	XRate
	vaddsd	-24(%rbp), %xmm0, %xmm0
	vmovsd	%xmm0, -24(%rbp)
	jmp	.LBB15_20
.LBB15_19:                              # %if.else58
                                        #   in Loop: Header=BB15_16 Depth=3
	movq	-40(%rbp), %rdi
	addq	$528, %rdi              # imm = 0x210
	movslq	-8(%rbp), %rax
	imulq	$144, %rax, %rax
	addq	%rax, %rdi
	movslq	-4(%rbp), %rax
	shlq	$4, %rax
	addq	%rax, %rdi
	movslq	-12(%rbp), %rax
	imulq	$144, %rax, %rax
	movabsq	$INIT_B8_TYPE_P, %rsi
	addq	%rax, %rsi
	movslq	-8(%rbp), %rax
	imulq	$72, %rax, %rax
	addq	%rax, %rsi
	movslq	-4(%rbp), %rax
	shlq	$3, %rax
	addq	%rax, %rsi
	callq	XRate
	vaddsd	-24(%rbp), %xmm0, %xmm0
	vmovsd	%xmm0, -24(%rbp)
.LBB15_20:                              # %if.end73
                                        #   in Loop: Header=BB15_16 Depth=3
	jmp	.LBB15_21
.LBB15_21:                              # %for.inc74
                                        #   in Loop: Header=BB15_16 Depth=3
	movl	-4(%rbp), %eax
	addl	$1, %eax
	movl	%eax, -4(%rbp)
	jmp	.LBB15_16
.LBB15_22:                              # %for.end76
                                        #   in Loop: Header=BB15_14 Depth=2
	jmp	.LBB15_23
.LBB15_23:                              # %for.inc77
                                        #   in Loop: Header=BB15_14 Depth=2
	movl	-8(%rbp), %eax
	addl	$1, %eax
	movl	%eax, -8(%rbp)
	jmp	.LBB15_14
.LBB15_24:                              # %for.end79
                                        #   in Loop: Header=BB15_1 Depth=1
	movl	$0, -8(%rbp)
.LBB15_25:                              # %for.cond80
                                        #   Parent Loop BB15_1 Depth=1
                                        # =>  This Loop Header: Depth=2
                                        #       Child Loop BB15_27 Depth 3
	cmpl	$2, -8(%rbp)
	jge	.LBB15_35
# %bb.26:                               # %for.body82
                                        #   in Loop: Header=BB15_25 Depth=2
	movl	$0, -4(%rbp)
.LBB15_27:                              # %for.cond83
                                        #   Parent Loop BB15_1 Depth=1
                                        #     Parent Loop BB15_25 Depth=2
                                        # =>    This Inner Loop Header: Depth=3
	cmpl	$10, -4(%rbp)
	jge	.LBB15_33
# %bb.28:                               # %for.body85
                                        #   in Loop: Header=BB15_27 Depth=3
	movq	img, %rax
	cmpl	$2, 24(%rax)
	jne	.LBB15_30
# %bb.29:                               # %if.then88
                                        #   in Loop: Header=BB15_27 Depth=3
	movq	-40(%rbp), %rdi
	addq	$816, %rdi              # imm = 0x330
	movslq	-8(%rbp), %rax
	imulq	$160, %rax, %rax
	addq	%rax, %rdi
	movslq	-4(%rbp), %rax
	shlq	$4, %rax
	addq	%rax, %rdi
	movslq	-12(%rbp), %rax
	imulq	$160, %rax, %rax
	movabsq	$INIT_MV_RES_I, %rsi
	addq	%rax, %rsi
	movslq	-8(%rbp), %rax
	imulq	$80, %rax, %rax
	addq	%rax, %rsi
	movslq	-4(%rbp), %rax
	shlq	$3, %rax
	addq	%rax, %rsi
	callq	XRate
	vaddsd	-24(%rbp), %xmm0, %xmm0
	vmovsd	%xmm0, -24(%rbp)
	jmp	.LBB15_31
.LBB15_30:                              # %if.else102
                                        #   in Loop: Header=BB15_27 Depth=3
	movq	-40(%rbp), %rdi
	addq	$816, %rdi              # imm = 0x330
	movslq	-8(%rbp), %rax
	imulq	$160, %rax, %rax
	addq	%rax, %rdi
	movslq	-4(%rbp), %rax
	shlq	$4, %rax
	addq	%rax, %rdi
	movslq	-12(%rbp), %rax
	imulq	$160, %rax, %rax
	movabsq	$INIT_MV_RES_P, %rsi
	addq	%rax, %rsi
	movslq	-8(%rbp), %rax
	imulq	$80, %rax, %rax
	addq	%rax, %rsi
	movslq	-4(%rbp), %rax
	shlq	$3, %rax
	addq	%rax, %rsi
	callq	XRate
	vaddsd	-24(%rbp), %xmm0, %xmm0
	vmovsd	%xmm0, -24(%rbp)
.LBB15_31:                              # %if.end117
                                        #   in Loop: Header=BB15_27 Depth=3
	jmp	.LBB15_32
.LBB15_32:                              # %for.inc118
                                        #   in Loop: Header=BB15_27 Depth=3
	movl	-4(%rbp), %eax
	addl	$1, %eax
	movl	%eax, -4(%rbp)
	jmp	.LBB15_27
.LBB15_33:                              # %for.end120
                                        #   in Loop: Header=BB15_25 Depth=2
	jmp	.LBB15_34
.LBB15_34:                              # %for.inc121
                                        #   in Loop: Header=BB15_25 Depth=2
	movl	-8(%rbp), %eax
	addl	$1, %eax
	movl	%eax, -8(%rbp)
	jmp	.LBB15_25
.LBB15_35:                              # %for.end123
                                        #   in Loop: Header=BB15_1 Depth=1
	movl	$0, -8(%rbp)
.LBB15_36:                              # %for.cond124
                                        #   Parent Loop BB15_1 Depth=1
                                        # =>  This Loop Header: Depth=2
                                        #       Child Loop BB15_38 Depth 3
	cmpl	$2, -8(%rbp)
	jge	.LBB15_46
# %bb.37:                               # %for.body126
                                        #   in Loop: Header=BB15_36 Depth=2
	movl	$0, -4(%rbp)
.LBB15_38:                              # %for.cond127
                                        #   Parent Loop BB15_1 Depth=1
                                        #     Parent Loop BB15_36 Depth=2
                                        # =>    This Inner Loop Header: Depth=3
	cmpl	$6, -4(%rbp)
	jge	.LBB15_44
# %bb.39:                               # %for.body129
                                        #   in Loop: Header=BB15_38 Depth=3
	movq	img, %rax
	cmpl	$2, 24(%rax)
	jne	.LBB15_41
# %bb.40:                               # %if.then132
                                        #   in Loop: Header=BB15_38 Depth=3
	movq	-40(%rbp), %rdi
	addq	$1136, %rdi             # imm = 0x470
	movslq	-8(%rbp), %rax
	imulq	$96, %rax, %rax
	addq	%rax, %rdi
	movslq	-4(%rbp), %rax
	shlq	$4, %rax
	addq	%rax, %rdi
	movslq	-12(%rbp), %rax
	imulq	$96, %rax, %rax
	movabsq	$INIT_REF_NO_I, %rsi
	addq	%rax, %rsi
	movslq	-8(%rbp), %rax
	imulq	$48, %rax, %rax
	addq	%rax, %rsi
	movslq	-4(%rbp), %rax
	shlq	$3, %rax
	addq	%rax, %rsi
	callq	XRate
	vaddsd	-24(%rbp), %xmm0, %xmm0
	vmovsd	%xmm0, -24(%rbp)
	jmp	.LBB15_42
.LBB15_41:                              # %if.else146
                                        #   in Loop: Header=BB15_38 Depth=3
	movq	-40(%rbp), %rdi
	addq	$1136, %rdi             # imm = 0x470
	movslq	-8(%rbp), %rax
	imulq	$96, %rax, %rax
	addq	%rax, %rdi
	movslq	-4(%rbp), %rax
	shlq	$4, %rax
	addq	%rax, %rdi
	movslq	-12(%rbp), %rax
	imulq	$96, %rax, %rax
	movabsq	$INIT_REF_NO_P, %rsi
	addq	%rax, %rsi
	movslq	-8(%rbp), %rax
	imulq	$48, %rax, %rax
	addq	%rax, %rsi
	movslq	-4(%rbp), %rax
	shlq	$3, %rax
	addq	%rax, %rsi
	callq	XRate
	vaddsd	-24(%rbp), %xmm0, %xmm0
	vmovsd	%xmm0, -24(%rbp)
.LBB15_42:                              # %if.end161
                                        #   in Loop: Header=BB15_38 Depth=3
	jmp	.LBB15_43
.LBB15_43:                              # %for.inc162
                                        #   in Loop: Header=BB15_38 Depth=3
	movl	-4(%rbp), %eax
	addl	$1, %eax
	movl	%eax, -4(%rbp)
	jmp	.LBB15_38
.LBB15_44:                              # %for.end164
                                        #   in Loop: Header=BB15_36 Depth=2
	jmp	.LBB15_45
.LBB15_45:                              # %for.inc165
                                        #   in Loop: Header=BB15_36 Depth=2
	movl	-8(%rbp), %eax
	addl	$1, %eax
	movl	%eax, -8(%rbp)
	jmp	.LBB15_36
.LBB15_46:                              # %for.end167
                                        #   in Loop: Header=BB15_1 Depth=1
	movl	$0, -4(%rbp)
.LBB15_47:                              # %for.cond168
                                        #   Parent Loop BB15_1 Depth=1
                                        # =>  This Inner Loop Header: Depth=2
	cmpl	$4, -4(%rbp)
	jge	.LBB15_53
# %bb.48:                               # %for.body170
                                        #   in Loop: Header=BB15_47 Depth=2
	movq	img, %rax
	cmpl	$2, 24(%rax)
	jne	.LBB15_50
# %bb.49:                               # %if.then173
                                        #   in Loop: Header=BB15_47 Depth=2
	movq	-40(%rbp), %rdi
	addq	$1328, %rdi             # imm = 0x530
	movslq	-4(%rbp), %rax
	shlq	$4, %rax
	addq	%rax, %rdi
	movslq	-12(%rbp), %rax
	shlq	$5, %rax
	movabsq	$INIT_DELTA_QP_I, %rsi
	addq	%rax, %rsi
	movslq	-4(%rbp), %rax
	shlq	$3, %rax
	addq	%rax, %rsi
	callq	XRate
	vaddsd	-24(%rbp), %xmm0, %xmm0
	vmovsd	%xmm0, -24(%rbp)
	jmp	.LBB15_51
.LBB15_50:                              # %if.else184
                                        #   in Loop: Header=BB15_47 Depth=2
	movq	-40(%rbp), %rdi
	addq	$1328, %rdi             # imm = 0x530
	movslq	-4(%rbp), %rax
	shlq	$4, %rax
	addq	%rax, %rdi
	movslq	-12(%rbp), %rax
	shlq	$5, %rax
	movabsq	$INIT_DELTA_QP_P, %rsi
	addq	%rax, %rsi
	movslq	-4(%rbp), %rax
	shlq	$3, %rax
	addq	%rax, %rsi
	callq	XRate
	vaddsd	-24(%rbp), %xmm0, %xmm0
	vmovsd	%xmm0, -24(%rbp)
.LBB15_51:                              # %if.end196
                                        #   in Loop: Header=BB15_47 Depth=2
	jmp	.LBB15_52
.LBB15_52:                              # %for.inc197
                                        #   in Loop: Header=BB15_47 Depth=2
	movl	-4(%rbp), %eax
	addl	$1, %eax
	movl	%eax, -4(%rbp)
	jmp	.LBB15_47
.LBB15_53:                              # %for.end199
                                        #   in Loop: Header=BB15_1 Depth=1
	movl	$0, -4(%rbp)
.LBB15_54:                              # %for.cond200
                                        #   Parent Loop BB15_1 Depth=1
                                        # =>  This Inner Loop Header: Depth=2
	cmpl	$4, -4(%rbp)
	jge	.LBB15_60
# %bb.55:                               # %for.body202
                                        #   in Loop: Header=BB15_54 Depth=2
	movq	img, %rax
	cmpl	$2, 24(%rax)
	jne	.LBB15_57
# %bb.56:                               # %if.then205
                                        #   in Loop: Header=BB15_54 Depth=2
	movq	-40(%rbp), %rdi
	addq	$1392, %rdi             # imm = 0x570
	movslq	-4(%rbp), %rax
	shlq	$4, %rax
	addq	%rax, %rdi
	movslq	-12(%rbp), %rax
	shlq	$5, %rax
	movabsq	$INIT_MB_AFF_I, %rsi
	addq	%rax, %rsi
	movslq	-4(%rbp), %rax
	shlq	$3, %rax
	addq	%rax, %rsi
	callq	XRate
	vaddsd	-24(%rbp), %xmm0, %xmm0
	vmovsd	%xmm0, -24(%rbp)
	jmp	.LBB15_58
.LBB15_57:                              # %if.else216
                                        #   in Loop: Header=BB15_54 Depth=2
	movq	-40(%rbp), %rdi
	addq	$1392, %rdi             # imm = 0x570
	movslq	-4(%rbp), %rax
	shlq	$4, %rax
	addq	%rax, %rdi
	movslq	-12(%rbp), %rax
	shlq	$5, %rax
	movabsq	$INIT_MB_AFF_P, %rsi
	addq	%rax, %rsi
	movslq	-4(%rbp), %rax
	shlq	$3, %rax
	addq	%rax, %rsi
	callq	XRate
	vaddsd	-24(%rbp), %xmm0, %xmm0
	vmovsd	%xmm0, -24(%rbp)
.LBB15_58:                              # %if.end228
                                        #   in Loop: Header=BB15_54 Depth=2
	jmp	.LBB15_59
.LBB15_59:                              # %for.inc229
                                        #   in Loop: Header=BB15_54 Depth=2
	movl	-4(%rbp), %eax
	addl	$1, %eax
	movl	%eax, -4(%rbp)
	jmp	.LBB15_54
.LBB15_60:                              # %for.end231
                                        #   in Loop: Header=BB15_1 Depth=1
	movl	$0, -4(%rbp)
.LBB15_61:                              # %for.cond232
                                        #   Parent Loop BB15_1 Depth=1
                                        # =>  This Inner Loop Header: Depth=2
	cmpl	$3, -4(%rbp)
	jge	.LBB15_67
# %bb.62:                               # %for.body234
                                        #   in Loop: Header=BB15_61 Depth=2
	movq	img, %rax
	cmpl	$2, 24(%rax)
	jne	.LBB15_64
# %bb.63:                               # %if.then237
                                        #   in Loop: Header=BB15_61 Depth=2
	movq	-40(%rbp), %rdi
	addq	$1456, %rdi             # imm = 0x5B0
	movslq	-4(%rbp), %rax
	shlq	$4, %rax
	addq	%rax, %rdi
	movslq	-12(%rbp), %rax
	imulq	$24, %rax, %rax
	movabsq	$INIT_TRANSFORM_SIZE_I, %rsi
	addq	%rax, %rsi
	movslq	-4(%rbp), %rax
	shlq	$3, %rax
	addq	%rax, %rsi
	callq	XRate
	vaddsd	-24(%rbp), %xmm0, %xmm0
	vmovsd	%xmm0, -24(%rbp)
	jmp	.LBB15_65
.LBB15_64:                              # %if.else248
                                        #   in Loop: Header=BB15_61 Depth=2
	movq	-40(%rbp), %rdi
	addq	$1456, %rdi             # imm = 0x5B0
	movslq	-4(%rbp), %rax
	shlq	$4, %rax
	addq	%rax, %rdi
	movslq	-12(%rbp), %rax
	imulq	$24, %rax, %rax
	movabsq	$INIT_TRANSFORM_SIZE_P, %rsi
	addq	%rax, %rsi
	movslq	-4(%rbp), %rax
	shlq	$3, %rax
	addq	%rax, %rsi
	callq	XRate
	vaddsd	-24(%rbp), %xmm0, %xmm0
	vmovsd	%xmm0, -24(%rbp)
.LBB15_65:                              # %if.end260
                                        #   in Loop: Header=BB15_61 Depth=2
	jmp	.LBB15_66
.LBB15_66:                              # %for.inc261
                                        #   in Loop: Header=BB15_61 Depth=2
	movl	-4(%rbp), %eax
	addl	$1, %eax
	movl	%eax, -4(%rbp)
	jmp	.LBB15_61
.LBB15_67:                              # %for.end263
                                        #   in Loop: Header=BB15_1 Depth=1
	movl	$0, -4(%rbp)
.LBB15_68:                              # %for.cond264
                                        #   Parent Loop BB15_1 Depth=1
                                        # =>  This Inner Loop Header: Depth=2
	cmpl	$2, -4(%rbp)
	jge	.LBB15_74
# %bb.69:                               # %for.body266
                                        #   in Loop: Header=BB15_68 Depth=2
	movq	img, %rax
	cmpl	$2, 24(%rax)
	jne	.LBB15_71
# %bb.70:                               # %if.then269
                                        #   in Loop: Header=BB15_68 Depth=2
	movq	-32(%rbp), %rdi
	movslq	-4(%rbp), %rax
	shlq	$4, %rax
	addq	%rax, %rdi
	movslq	-12(%rbp), %rax
	shlq	$4, %rax
	movabsq	$INIT_IPR_I, %rsi
	addq	%rax, %rsi
	movslq	-4(%rbp), %rax
	shlq	$3, %rax
	addq	%rax, %rsi
	callq	XRate
	vaddsd	-24(%rbp), %xmm0, %xmm0
	vmovsd	%xmm0, -24(%rbp)
	jmp	.LBB15_72
.LBB15_71:                              # %if.else280
                                        #   in Loop: Header=BB15_68 Depth=2
	movq	-32(%rbp), %rdi
	movslq	-4(%rbp), %rax
	shlq	$4, %rax
	addq	%rax, %rdi
	movslq	-12(%rbp), %rax
	shlq	$4, %rax
	movabsq	$INIT_IPR_P, %rsi
	addq	%rax, %rsi
	movslq	-4(%rbp), %rax
	shlq	$3, %rax
	addq	%rax, %rsi
	callq	XRate
	vaddsd	-24(%rbp), %xmm0, %xmm0
	vmovsd	%xmm0, -24(%rbp)
.LBB15_72:                              # %if.end292
                                        #   in Loop: Header=BB15_68 Depth=2
	jmp	.LBB15_73
.LBB15_73:                              # %for.inc293
                                        #   in Loop: Header=BB15_68 Depth=2
	movl	-4(%rbp), %eax
	addl	$1, %eax
	movl	%eax, -4(%rbp)
	jmp	.LBB15_68
.LBB15_74:                              # %for.end295
                                        #   in Loop: Header=BB15_1 Depth=1
	movl	$0, -4(%rbp)
.LBB15_75:                              # %for.cond296
                                        #   Parent Loop BB15_1 Depth=1
                                        # =>  This Inner Loop Header: Depth=2
	cmpl	$4, -4(%rbp)
	jge	.LBB15_81
# %bb.76:                               # %for.body298
                                        #   in Loop: Header=BB15_75 Depth=2
	movq	img, %rax
	cmpl	$2, 24(%rax)
	jne	.LBB15_78
# %bb.77:                               # %if.then301
                                        #   in Loop: Header=BB15_75 Depth=2
	movq	-32(%rbp), %rdi
	addq	$32, %rdi
	movslq	-4(%rbp), %rax
	shlq	$4, %rax
	addq	%rax, %rdi
	movslq	-12(%rbp), %rax
	shlq	$5, %rax
	movabsq	$INIT_CIPR_I, %rsi
	addq	%rax, %rsi
	movslq	-4(%rbp), %rax
	shlq	$3, %rax
	addq	%rax, %rsi
	callq	XRate
	vaddsd	-24(%rbp), %xmm0, %xmm0
	vmovsd	%xmm0, -24(%rbp)
	jmp	.LBB15_79
.LBB15_78:                              # %if.else312
                                        #   in Loop: Header=BB15_75 Depth=2
	movq	-32(%rbp), %rdi
	addq	$32, %rdi
	movslq	-4(%rbp), %rax
	shlq	$4, %rax
	addq	%rax, %rdi
	movslq	-12(%rbp), %rax
	shlq	$5, %rax
	movabsq	$INIT_CIPR_P, %rsi
	addq	%rax, %rsi
	movslq	-4(%rbp), %rax
	shlq	$3, %rax
	addq	%rax, %rsi
	callq	XRate
	vaddsd	-24(%rbp), %xmm0, %xmm0
	vmovsd	%xmm0, -24(%rbp)
.LBB15_79:                              # %if.end324
                                        #   in Loop: Header=BB15_75 Depth=2
	jmp	.LBB15_80
.LBB15_80:                              # %for.inc325
                                        #   in Loop: Header=BB15_75 Depth=2
	movl	-4(%rbp), %eax
	addl	$1, %eax
	movl	%eax, -4(%rbp)
	jmp	.LBB15_75
.LBB15_81:                              # %for.end327
                                        #   in Loop: Header=BB15_1 Depth=1
	movl	$0, -8(%rbp)
.LBB15_82:                              # %for.cond328
                                        #   Parent Loop BB15_1 Depth=1
                                        # =>  This Loop Header: Depth=2
                                        #       Child Loop BB15_84 Depth 3
	cmpl	$3, -8(%rbp)
	jge	.LBB15_92
# %bb.83:                               # %for.body330
                                        #   in Loop: Header=BB15_82 Depth=2
	movl	$0, -4(%rbp)
.LBB15_84:                              # %for.cond331
                                        #   Parent Loop BB15_1 Depth=1
                                        #     Parent Loop BB15_82 Depth=2
                                        # =>    This Inner Loop Header: Depth=3
	cmpl	$4, -4(%rbp)
	jge	.LBB15_90
# %bb.85:                               # %for.body333
                                        #   in Loop: Header=BB15_84 Depth=3
	movq	img, %rax
	cmpl	$2, 24(%rax)
	jne	.LBB15_87
# %bb.86:                               # %if.then336
                                        #   in Loop: Header=BB15_84 Depth=3
	movq	-32(%rbp), %rdi
	addq	$96, %rdi
	movslq	-8(%rbp), %rax
	shlq	$6, %rax
	addq	%rax, %rdi
	movslq	-4(%rbp), %rax
	shlq	$4, %rax
	addq	%rax, %rdi
	movslq	-12(%rbp), %rax
	imulq	$96, %rax, %rax
	movabsq	$INIT_CBP_I, %rsi
	addq	%rax, %rsi
	movslq	-8(%rbp), %rax
	shlq	$5, %rax
	addq	%rax, %rsi
	movslq	-4(%rbp), %rax
	shlq	$3, %rax
	addq	%rax, %rsi
	callq	XRate
	vaddsd	-24(%rbp), %xmm0, %xmm0
	vmovsd	%xmm0, -24(%rbp)
	jmp	.LBB15_88
.LBB15_87:                              # %if.else350
                                        #   in Loop: Header=BB15_84 Depth=3
	movq	-32(%rbp), %rdi
	addq	$96, %rdi
	movslq	-8(%rbp), %rax
	shlq	$6, %rax
	addq	%rax, %rdi
	movslq	-4(%rbp), %rax
	shlq	$4, %rax
	addq	%rax, %rdi
	movslq	-12(%rbp), %rax
	imulq	$96, %rax, %rax
	movabsq	$INIT_CBP_P, %rsi
	addq	%rax, %rsi
	movslq	-8(%rbp), %rax
	shlq	$5, %rax
	addq	%rax, %rsi
	movslq	-4(%rbp), %rax
	shlq	$3, %rax
	addq	%rax, %rsi
	callq	XRate
	vaddsd	-24(%rbp), %xmm0, %xmm0
	vmovsd	%xmm0, -24(%rbp)
.LBB15_88:                              # %if.end365
                                        #   in Loop: Header=BB15_84 Depth=3
	jmp	.LBB15_89
.LBB15_89:                              # %for.inc366
                                        #   in Loop: Header=BB15_84 Depth=3
	movl	-4(%rbp), %eax
	addl	$1, %eax
	movl	%eax, -4(%rbp)
	jmp	.LBB15_84
.LBB15_90:                              # %for.end368
                                        #   in Loop: Header=BB15_82 Depth=2
	jmp	.LBB15_91
.LBB15_91:                              # %for.inc369
                                        #   in Loop: Header=BB15_82 Depth=2
	movl	-8(%rbp), %eax
	addl	$1, %eax
	movl	%eax, -8(%rbp)
	jmp	.LBB15_82
.LBB15_92:                              # %for.end371
                                        #   in Loop: Header=BB15_1 Depth=1
	movl	$0, -8(%rbp)
.LBB15_93:                              # %for.cond372
                                        #   Parent Loop BB15_1 Depth=1
                                        # =>  This Loop Header: Depth=2
                                        #       Child Loop BB15_95 Depth 3
	cmpl	$10, -8(%rbp)
	jge	.LBB15_103
# %bb.94:                               # %for.body374
                                        #   in Loop: Header=BB15_93 Depth=2
	movl	$0, -4(%rbp)
.LBB15_95:                              # %for.cond375
                                        #   Parent Loop BB15_1 Depth=1
                                        #     Parent Loop BB15_93 Depth=2
                                        # =>    This Inner Loop Header: Depth=3
	cmpl	$4, -4(%rbp)
	jge	.LBB15_101
# %bb.96:                               # %for.body377
                                        #   in Loop: Header=BB15_95 Depth=3
	movq	img, %rax
	cmpl	$2, 24(%rax)
	jne	.LBB15_98
# %bb.97:                               # %if.then380
                                        #   in Loop: Header=BB15_95 Depth=3
	movq	-32(%rbp), %rdi
	addq	$288, %rdi              # imm = 0x120
	movslq	-8(%rbp), %rax
	shlq	$6, %rax
	addq	%rax, %rdi
	movslq	-4(%rbp), %rax
	shlq	$4, %rax
	addq	%rax, %rdi
	movslq	-12(%rbp), %rax
	shlq	$8, %rax
	movabsq	$INIT_BCBP_I, %rsi
	addq	%rax, %rsi
	movslq	-8(%rbp), %rax
	shlq	$5, %rax
	addq	%rax, %rsi
	movslq	-4(%rbp), %rax
	shlq	$3, %rax
	addq	%rax, %rsi
	callq	XRate
	vaddsd	-24(%rbp), %xmm0, %xmm0
	vmovsd	%xmm0, -24(%rbp)
	jmp	.LBB15_99
.LBB15_98:                              # %if.else394
                                        #   in Loop: Header=BB15_95 Depth=3
	movq	-32(%rbp), %rdi
	addq	$288, %rdi              # imm = 0x120
	movslq	-8(%rbp), %rax
	shlq	$6, %rax
	addq	%rax, %rdi
	movslq	-4(%rbp), %rax
	shlq	$4, %rax
	addq	%rax, %rdi
	movslq	-12(%rbp), %rax
	shlq	$8, %rax
	movabsq	$INIT_BCBP_P, %rsi
	addq	%rax, %rsi
	movslq	-8(%rbp), %rax
	shlq	$5, %rax
	addq	%rax, %rsi
	movslq	-4(%rbp), %rax
	shlq	$3, %rax
	addq	%rax, %rsi
	callq	XRate
	vaddsd	-24(%rbp), %xmm0, %xmm0
	vmovsd	%xmm0, -24(%rbp)
.LBB15_99:                              # %if.end409
                                        #   in Loop: Header=BB15_95 Depth=3
	jmp	.LBB15_100
.LBB15_100:                             # %for.inc410
                                        #   in Loop: Header=BB15_95 Depth=3
	movl	-4(%rbp), %eax
	addl	$1, %eax
	movl	%eax, -4(%rbp)
	jmp	.LBB15_95
.LBB15_101:                             # %for.end412
                                        #   in Loop: Header=BB15_93 Depth=2
	jmp	.LBB15_102
.LBB15_102:                             # %for.inc413
                                        #   in Loop: Header=BB15_93 Depth=2
	movl	-8(%rbp), %eax
	addl	$1, %eax
	movl	%eax, -8(%rbp)
	jmp	.LBB15_93
.LBB15_103:                             # %for.end415
                                        #   in Loop: Header=BB15_1 Depth=1
	movl	$0, -8(%rbp)
.LBB15_104:                             # %for.cond416
                                        #   Parent Loop BB15_1 Depth=1
                                        # =>  This Loop Header: Depth=2
                                        #       Child Loop BB15_106 Depth 3
	cmpl	$10, -8(%rbp)
	jge	.LBB15_114
# %bb.105:                              # %for.body418
                                        #   in Loop: Header=BB15_104 Depth=2
	movl	$0, -4(%rbp)
.LBB15_106:                             # %for.cond419
                                        #   Parent Loop BB15_1 Depth=1
                                        #     Parent Loop BB15_104 Depth=2
                                        # =>    This Inner Loop Header: Depth=3
	cmpl	$15, -4(%rbp)
	jge	.LBB15_112
# %bb.107:                              # %for.body421
                                        #   in Loop: Header=BB15_106 Depth=3
	movq	img, %rax
	cmpl	$2, 24(%rax)
	jne	.LBB15_109
# %bb.108:                              # %if.then424
                                        #   in Loop: Header=BB15_106 Depth=3
	movq	-32(%rbp), %rdi
	addq	$928, %rdi              # imm = 0x3A0
	movslq	-8(%rbp), %rax
	imulq	$240, %rax, %rax
	addq	%rax, %rdi
	movslq	-4(%rbp), %rax
	shlq	$4, %rax
	addq	%rax, %rdi
	movslq	-12(%rbp), %rax
	imulq	$960, %rax, %rax        # imm = 0x3C0
	movabsq	$INIT_MAP_I, %rsi
	addq	%rax, %rsi
	movslq	-8(%rbp), %rax
	imulq	$120, %rax, %rax
	addq	%rax, %rsi
	movslq	-4(%rbp), %rax
	shlq	$3, %rax
	addq	%rax, %rsi
	callq	XRate
	vaddsd	-24(%rbp), %xmm0, %xmm0
	vmovsd	%xmm0, -24(%rbp)
	jmp	.LBB15_110
.LBB15_109:                             # %if.else438
                                        #   in Loop: Header=BB15_106 Depth=3
	movq	-32(%rbp), %rdi
	addq	$928, %rdi              # imm = 0x3A0
	movslq	-8(%rbp), %rax
	imulq	$240, %rax, %rax
	addq	%rax, %rdi
	movslq	-4(%rbp), %rax
	shlq	$4, %rax
	addq	%rax, %rdi
	movslq	-12(%rbp), %rax
	imulq	$960, %rax, %rax        # imm = 0x3C0
	movabsq	$INIT_MAP_P, %rsi
	addq	%rax, %rsi
	movslq	-8(%rbp), %rax
	imulq	$120, %rax, %rax
	addq	%rax, %rsi
	movslq	-4(%rbp), %rax
	shlq	$3, %rax
	addq	%rax, %rsi
	callq	XRate
	vaddsd	-24(%rbp), %xmm0, %xmm0
	vmovsd	%xmm0, -24(%rbp)
.LBB15_110:                             # %if.end453
                                        #   in Loop: Header=BB15_106 Depth=3
	jmp	.LBB15_111
.LBB15_111:                             # %for.inc454
                                        #   in Loop: Header=BB15_106 Depth=3
	movl	-4(%rbp), %eax
	addl	$1, %eax
	movl	%eax, -4(%rbp)
	jmp	.LBB15_106
.LBB15_112:                             # %for.end456
                                        #   in Loop: Header=BB15_104 Depth=2
	jmp	.LBB15_113
.LBB15_113:                             # %for.inc457
                                        #   in Loop: Header=BB15_104 Depth=2
	movl	-8(%rbp), %eax
	addl	$1, %eax
	movl	%eax, -8(%rbp)
	jmp	.LBB15_104
.LBB15_114:                             # %for.end459
                                        #   in Loop: Header=BB15_1 Depth=1
	movl	$0, -8(%rbp)
.LBB15_115:                             # %for.cond460
                                        #   Parent Loop BB15_1 Depth=1
                                        # =>  This Loop Header: Depth=2
                                        #       Child Loop BB15_117 Depth 3
	cmpl	$10, -8(%rbp)
	jge	.LBB15_125
# %bb.116:                              # %for.body462
                                        #   in Loop: Header=BB15_115 Depth=2
	movl	$0, -4(%rbp)
.LBB15_117:                             # %for.cond463
                                        #   Parent Loop BB15_1 Depth=1
                                        #     Parent Loop BB15_115 Depth=2
                                        # =>    This Inner Loop Header: Depth=3
	cmpl	$15, -4(%rbp)
	jge	.LBB15_123
# %bb.118:                              # %for.body465
                                        #   in Loop: Header=BB15_117 Depth=3
	movq	img, %rax
	cmpl	$2, 24(%rax)
	jne	.LBB15_120
# %bb.119:                              # %if.then468
                                        #   in Loop: Header=BB15_117 Depth=3
	movq	-32(%rbp), %rdi
	addq	$3328, %rdi             # imm = 0xD00
	movslq	-8(%rbp), %rax
	imulq	$240, %rax, %rax
	addq	%rax, %rdi
	movslq	-4(%rbp), %rax
	shlq	$4, %rax
	addq	%rax, %rdi
	movslq	-12(%rbp), %rax
	imulq	$960, %rax, %rax        # imm = 0x3C0
	movabsq	$INIT_LAST_I, %rsi
	addq	%rax, %rsi
	movslq	-8(%rbp), %rax
	imulq	$120, %rax, %rax
	addq	%rax, %rsi
	movslq	-4(%rbp), %rax
	shlq	$3, %rax
	addq	%rax, %rsi
	callq	XRate
	vaddsd	-24(%rbp), %xmm0, %xmm0
	vmovsd	%xmm0, -24(%rbp)
	jmp	.LBB15_121
.LBB15_120:                             # %if.else482
                                        #   in Loop: Header=BB15_117 Depth=3
	movq	-32(%rbp), %rdi
	addq	$3328, %rdi             # imm = 0xD00
	movslq	-8(%rbp), %rax
	imulq	$240, %rax, %rax
	addq	%rax, %rdi
	movslq	-4(%rbp), %rax
	shlq	$4, %rax
	addq	%rax, %rdi
	movslq	-12(%rbp), %rax
	imulq	$960, %rax, %rax        # imm = 0x3C0
	movabsq	$INIT_LAST_P, %rsi
	addq	%rax, %rsi
	movslq	-8(%rbp), %rax
	imulq	$120, %rax, %rax
	addq	%rax, %rsi
	movslq	-4(%rbp), %rax
	shlq	$3, %rax
	addq	%rax, %rsi
	callq	XRate
	vaddsd	-24(%rbp), %xmm0, %xmm0
	vmovsd	%xmm0, -24(%rbp)
.LBB15_121:                             # %if.end497
                                        #   in Loop: Header=BB15_117 Depth=3
	jmp	.LBB15_122
.LBB15_122:                             # %for.inc498
                                        #   in Loop: Header=BB15_117 Depth=3
	movl	-4(%rbp), %eax
	addl	$1, %eax
	movl	%eax, -4(%rbp)
	jmp	.LBB15_117
.LBB15_123:                             # %for.end500
                                        #   in Loop: Header=BB15_115 Depth=2
	jmp	.LBB15_124
.LBB15_124:                             # %for.inc501
                                        #   in Loop: Header=BB15_115 Depth=2
	movl	-8(%rbp), %eax
	addl	$1, %eax
	movl	%eax, -8(%rbp)
	jmp	.LBB15_115
.LBB15_125:                             # %for.end503
                                        #   in Loop: Header=BB15_1 Depth=1
	movl	$0, -8(%rbp)
.LBB15_126:                             # %for.cond504
                                        #   Parent Loop BB15_1 Depth=1
                                        # =>  This Loop Header: Depth=2
                                        #       Child Loop BB15_128 Depth 3
	cmpl	$10, -8(%rbp)
	jge	.LBB15_136
# %bb.127:                              # %for.body506
                                        #   in Loop: Header=BB15_126 Depth=2
	movl	$0, -4(%rbp)
.LBB15_128:                             # %for.cond507
                                        #   Parent Loop BB15_1 Depth=1
                                        #     Parent Loop BB15_126 Depth=2
                                        # =>    This Inner Loop Header: Depth=3
	cmpl	$5, -4(%rbp)
	jge	.LBB15_134
# %bb.129:                              # %for.body509
                                        #   in Loop: Header=BB15_128 Depth=3
	movq	img, %rax
	cmpl	$2, 24(%rax)
	jne	.LBB15_131
# %bb.130:                              # %if.then512
                                        #   in Loop: Header=BB15_128 Depth=3
	movq	-32(%rbp), %rdi
	addq	$5728, %rdi             # imm = 0x1660
	movslq	-8(%rbp), %rax
	imulq	$80, %rax, %rax
	addq	%rax, %rdi
	movslq	-4(%rbp), %rax
	shlq	$4, %rax
	addq	%rax, %rdi
	movslq	-12(%rbp), %rax
	imulq	$320, %rax, %rax        # imm = 0x140
	movabsq	$INIT_ONE_I, %rsi
	addq	%rax, %rsi
	movslq	-8(%rbp), %rax
	imulq	$40, %rax, %rax
	addq	%rax, %rsi
	movslq	-4(%rbp), %rax
	shlq	$3, %rax
	addq	%rax, %rsi
	callq	XRate
	vaddsd	-24(%rbp), %xmm0, %xmm0
	vmovsd	%xmm0, -24(%rbp)
	jmp	.LBB15_132
.LBB15_131:                             # %if.else526
                                        #   in Loop: Header=BB15_128 Depth=3
	movq	-32(%rbp), %rdi
	addq	$5728, %rdi             # imm = 0x1660
	movslq	-8(%rbp), %rax
	imulq	$80, %rax, %rax
	addq	%rax, %rdi
	movslq	-4(%rbp), %rax
	shlq	$4, %rax
	addq	%rax, %rdi
	movslq	-12(%rbp), %rax
	imulq	$320, %rax, %rax        # imm = 0x140
	movabsq	$INIT_ONE_P, %rsi
	addq	%rax, %rsi
	movslq	-8(%rbp), %rax
	imulq	$40, %rax, %rax
	addq	%rax, %rsi
	movslq	-4(%rbp), %rax
	shlq	$3, %rax
	addq	%rax, %rsi
	callq	XRate
	vaddsd	-24(%rbp), %xmm0, %xmm0
	vmovsd	%xmm0, -24(%rbp)
.LBB15_132:                             # %if.end541
                                        #   in Loop: Header=BB15_128 Depth=3
	jmp	.LBB15_133
.LBB15_133:                             # %for.inc542
                                        #   in Loop: Header=BB15_128 Depth=3
	movl	-4(%rbp), %eax
	addl	$1, %eax
	movl	%eax, -4(%rbp)
	jmp	.LBB15_128
.LBB15_134:                             # %for.end544
                                        #   in Loop: Header=BB15_126 Depth=2
	jmp	.LBB15_135
.LBB15_135:                             # %for.inc545
                                        #   in Loop: Header=BB15_126 Depth=2
	movl	-8(%rbp), %eax
	addl	$1, %eax
	movl	%eax, -8(%rbp)
	jmp	.LBB15_126
.LBB15_136:                             # %for.end547
                                        #   in Loop: Header=BB15_1 Depth=1
	movl	$0, -8(%rbp)
.LBB15_137:                             # %for.cond548
                                        #   Parent Loop BB15_1 Depth=1
                                        # =>  This Loop Header: Depth=2
                                        #       Child Loop BB15_139 Depth 3
	cmpl	$10, -8(%rbp)
	jge	.LBB15_147
# %bb.138:                              # %for.body550
                                        #   in Loop: Header=BB15_137 Depth=2
	movl	$0, -4(%rbp)
.LBB15_139:                             # %for.cond551
                                        #   Parent Loop BB15_1 Depth=1
                                        #     Parent Loop BB15_137 Depth=2
                                        # =>    This Inner Loop Header: Depth=3
	cmpl	$5, -4(%rbp)
	jge	.LBB15_145
# %bb.140:                              # %for.body553
                                        #   in Loop: Header=BB15_139 Depth=3
	movq	img, %rax
	cmpl	$2, 24(%rax)
	jne	.LBB15_142
# %bb.141:                              # %if.then556
                                        #   in Loop: Header=BB15_139 Depth=3
	movq	-32(%rbp), %rdi
	addq	$6528, %rdi             # imm = 0x1980
	movslq	-8(%rbp), %rax
	imulq	$80, %rax, %rax
	addq	%rax, %rdi
	movslq	-4(%rbp), %rax
	shlq	$4, %rax
	addq	%rax, %rdi
	movslq	-12(%rbp), %rax
	imulq	$320, %rax, %rax        # imm = 0x140
	movabsq	$INIT_ABS_I, %rsi
	addq	%rax, %rsi
	movslq	-8(%rbp), %rax
	imulq	$40, %rax, %rax
	addq	%rax, %rsi
	movslq	-4(%rbp), %rax
	shlq	$3, %rax
	addq	%rax, %rsi
	callq	XRate
	vaddsd	-24(%rbp), %xmm0, %xmm0
	vmovsd	%xmm0, -24(%rbp)
	jmp	.LBB15_143
.LBB15_142:                             # %if.else570
                                        #   in Loop: Header=BB15_139 Depth=3
	movq	-32(%rbp), %rdi
	addq	$6528, %rdi             # imm = 0x1980
	movslq	-8(%rbp), %rax
	imulq	$80, %rax, %rax
	addq	%rax, %rdi
	movslq	-4(%rbp), %rax
	shlq	$4, %rax
	addq	%rax, %rdi
	movslq	-12(%rbp), %rax
	imulq	$320, %rax, %rax        # imm = 0x140
	movabsq	$INIT_ABS_P, %rsi
	addq	%rax, %rsi
	movslq	-8(%rbp), %rax
	imulq	$40, %rax, %rax
	addq	%rax, %rsi
	movslq	-4(%rbp), %rax
	shlq	$3, %rax
	addq	%rax, %rsi
	callq	XRate
	vaddsd	-24(%rbp), %xmm0, %xmm0
	vmovsd	%xmm0, -24(%rbp)
.LBB15_143:                             # %if.end585
                                        #   in Loop: Header=BB15_139 Depth=3
	jmp	.LBB15_144
.LBB15_144:                             # %for.inc586
                                        #   in Loop: Header=BB15_139 Depth=3
	movl	-4(%rbp), %eax
	addl	$1, %eax
	movl	%eax, -4(%rbp)
	jmp	.LBB15_139
.LBB15_145:                             # %for.end588
                                        #   in Loop: Header=BB15_137 Depth=2
	jmp	.LBB15_146
.LBB15_146:                             # %for.inc589
                                        #   in Loop: Header=BB15_137 Depth=2
	movl	-8(%rbp), %eax
	addl	$1, %eax
	movl	%eax, -8(%rbp)
	jmp	.LBB15_137
.LBB15_147:                             # %for.end591
                                        #   in Loop: Header=BB15_1 Depth=1
	movl	$0, -8(%rbp)
.LBB15_148:                             # %for.cond592
                                        #   Parent Loop BB15_1 Depth=1
                                        # =>  This Loop Header: Depth=2
                                        #       Child Loop BB15_150 Depth 3
	cmpl	$10, -8(%rbp)
	jge	.LBB15_158
# %bb.149:                              # %for.body594
                                        #   in Loop: Header=BB15_148 Depth=2
	movl	$0, -4(%rbp)
.LBB15_150:                             # %for.cond595
                                        #   Parent Loop BB15_1 Depth=1
                                        #     Parent Loop BB15_148 Depth=2
                                        # =>    This Inner Loop Header: Depth=3
	cmpl	$15, -4(%rbp)
	jge	.LBB15_156
# %bb.151:                              # %for.body597
                                        #   in Loop: Header=BB15_150 Depth=3
	movq	img, %rax
	cmpl	$2, 24(%rax)
	jne	.LBB15_153
# %bb.152:                              # %if.then600
                                        #   in Loop: Header=BB15_150 Depth=3
	movq	-32(%rbp), %rdi
	addq	$7328, %rdi             # imm = 0x1CA0
	movslq	-8(%rbp), %rax
	imulq	$240, %rax, %rax
	addq	%rax, %rdi
	movslq	-4(%rbp), %rax
	shlq	$4, %rax
	addq	%rax, %rdi
	movslq	-12(%rbp), %rax
	imulq	$960, %rax, %rax        # imm = 0x3C0
	movabsq	$INIT_FLD_MAP_I, %rsi
	addq	%rax, %rsi
	movslq	-8(%rbp), %rax
	imulq	$120, %rax, %rax
	addq	%rax, %rsi
	movslq	-4(%rbp), %rax
	shlq	$3, %rax
	addq	%rax, %rsi
	callq	XRate
	vaddsd	-24(%rbp), %xmm0, %xmm0
	vmovsd	%xmm0, -24(%rbp)
	jmp	.LBB15_154
.LBB15_153:                             # %if.else614
                                        #   in Loop: Header=BB15_150 Depth=3
	movq	-32(%rbp), %rdi
	addq	$7328, %rdi             # imm = 0x1CA0
	movslq	-8(%rbp), %rax
	imulq	$240, %rax, %rax
	addq	%rax, %rdi
	movslq	-4(%rbp), %rax
	shlq	$4, %rax
	addq	%rax, %rdi
	movslq	-12(%rbp), %rax
	imulq	$960, %rax, %rax        # imm = 0x3C0
	movabsq	$INIT_FLD_MAP_P, %rsi
	addq	%rax, %rsi
	movslq	-8(%rbp), %rax
	imulq	$120, %rax, %rax
	addq	%rax, %rsi
	movslq	-4(%rbp), %rax
	shlq	$3, %rax
	addq	%rax, %rsi
	callq	XRate
	vaddsd	-24(%rbp), %xmm0, %xmm0
	vmovsd	%xmm0, -24(%rbp)
.LBB15_154:                             # %if.end629
                                        #   in Loop: Header=BB15_150 Depth=3
	jmp	.LBB15_155
.LBB15_155:                             # %for.inc630
                                        #   in Loop: Header=BB15_150 Depth=3
	movl	-4(%rbp), %eax
	addl	$1, %eax
	movl	%eax, -4(%rbp)
	jmp	.LBB15_150
.LBB15_156:                             # %for.end632
                                        #   in Loop: Header=BB15_148 Depth=2
	jmp	.LBB15_157
.LBB15_157:                             # %for.inc633
                                        #   in Loop: Header=BB15_148 Depth=2
	movl	-8(%rbp), %eax
	addl	$1, %eax
	movl	%eax, -8(%rbp)
	jmp	.LBB15_148
.LBB15_158:                             # %for.end635
                                        #   in Loop: Header=BB15_1 Depth=1
	movl	$0, -8(%rbp)
.LBB15_159:                             # %for.cond636
                                        #   Parent Loop BB15_1 Depth=1
                                        # =>  This Loop Header: Depth=2
                                        #       Child Loop BB15_161 Depth 3
	cmpl	$10, -8(%rbp)
	jge	.LBB15_169
# %bb.160:                              # %for.body638
                                        #   in Loop: Header=BB15_159 Depth=2
	movl	$0, -4(%rbp)
.LBB15_161:                             # %for.cond639
                                        #   Parent Loop BB15_1 Depth=1
                                        #     Parent Loop BB15_159 Depth=2
                                        # =>    This Inner Loop Header: Depth=3
	cmpl	$15, -4(%rbp)
	jge	.LBB15_167
# %bb.162:                              # %for.body641
                                        #   in Loop: Header=BB15_161 Depth=3
	movq	img, %rax
	cmpl	$2, 24(%rax)
	jne	.LBB15_164
# %bb.163:                              # %if.then644
                                        #   in Loop: Header=BB15_161 Depth=3
	movq	-32(%rbp), %rdi
	addq	$9728, %rdi             # imm = 0x2600
	movslq	-8(%rbp), %rax
	imulq	$240, %rax, %rax
	addq	%rax, %rdi
	movslq	-4(%rbp), %rax
	shlq	$4, %rax
	addq	%rax, %rdi
	movslq	-12(%rbp), %rax
	imulq	$960, %rax, %rax        # imm = 0x3C0
	movabsq	$INIT_FLD_LAST_I, %rsi
	addq	%rax, %rsi
	movslq	-8(%rbp), %rax
	imulq	$120, %rax, %rax
	addq	%rax, %rsi
	movslq	-4(%rbp), %rax
	shlq	$3, %rax
	addq	%rax, %rsi
	callq	XRate
	vaddsd	-24(%rbp), %xmm0, %xmm0
	vmovsd	%xmm0, -24(%rbp)
	jmp	.LBB15_165
.LBB15_164:                             # %if.else658
                                        #   in Loop: Header=BB15_161 Depth=3
	movq	-32(%rbp), %rdi
	addq	$9728, %rdi             # imm = 0x2600
	movslq	-8(%rbp), %rax
	imulq	$240, %rax, %rax
	addq	%rax, %rdi
	movslq	-4(%rbp), %rax
	shlq	$4, %rax
	addq	%rax, %rdi
	movslq	-12(%rbp), %rax
	imulq	$960, %rax, %rax        # imm = 0x3C0
	movabsq	$INIT_FLD_LAST_P, %rsi
	addq	%rax, %rsi
	movslq	-8(%rbp), %rax
	imulq	$120, %rax, %rax
	addq	%rax, %rsi
	movslq	-4(%rbp), %rax
	shlq	$3, %rax
	addq	%rax, %rsi
	callq	XRate
	vaddsd	-24(%rbp), %xmm0, %xmm0
	vmovsd	%xmm0, -24(%rbp)
.LBB15_165:                             # %if.end673
                                        #   in Loop: Header=BB15_161 Depth=3
	jmp	.LBB15_166
.LBB15_166:                             # %for.inc674
                                        #   in Loop: Header=BB15_161 Depth=3
	movl	-4(%rbp), %eax
	addl	$1, %eax
	movl	%eax, -4(%rbp)
	jmp	.LBB15_161
.LBB15_167:                             # %for.end676
                                        #   in Loop: Header=BB15_159 Depth=2
	jmp	.LBB15_168
.LBB15_168:                             # %for.inc677
                                        #   in Loop: Header=BB15_159 Depth=2
	movl	-8(%rbp), %eax
	addl	$1, %eax
	movl	%eax, -8(%rbp)
	jmp	.LBB15_159
.LBB15_169:                             # %for.end679
                                        #   in Loop: Header=BB15_1 Depth=1
	vmovsd	-24(%rbp), %xmm0        # xmm0 = mem[0],zero
	vmovsd	-56(%rbp), %xmm1        # xmm1 = mem[0],zero
	vucomisd	%xmm0, %xmm1
	jbe	.LBB15_171
# %bb.170:                              # %if.then681
                                        #   in Loop: Header=BB15_1 Depth=1
	vmovsd	-24(%rbp), %xmm0        # xmm0 = mem[0],zero
	vmovsd	%xmm0, -56(%rbp)
	movl	-12(%rbp), %eax
	movq	-64(%rbp), %rcx
	movl	%eax, (%rcx)
.LBB15_171:                             # %if.end682
                                        #   in Loop: Header=BB15_1 Depth=1
	jmp	.LBB15_172
.LBB15_172:                             # %for.inc683
                                        #   in Loop: Header=BB15_1 Depth=1
	movl	-12(%rbp), %eax
	addl	$1, %eax
	movl	%eax, -12(%rbp)
	jmp	.LBB15_1
.LBB15_173:                             # %for.end685
	cmpl	$2123884712, -48(%rbp)  # imm = 0x7E97E8A8
	jne	.LBB15_175
.LBB15_174:
	addq	$64, %rsp
	popq	%rbp
	.cfi_def_cfa %rsp, 8
	retq
.LBB15_175:                             # %func_exit
	.cfi_def_cfa %rbp, 16
	callq	detect_breach
	jmp	.LBB15_174
.Lfunc_end15:
	.size	GetCtxModelNumber.8, .Lfunc_end15-GetCtxModelNumber.8
	.cfi_endproc
                                        # -- End function
	.section	.rodata.cst8,"aM",@progbits,8
	.p2align	3               # -- Begin function GetCtxModelNumber.9
.LCPI16_0:
	.quad	5055640609639927018     # double 1.0E+30
	.text
	.globl	GetCtxModelNumber.9
	.p2align	4, 0x90
	.type	GetCtxModelNumber.9,@function
GetCtxModelNumber.9:                    # @GetCtxModelNumber.9
	.cfi_startproc
# %bb.0:                                # %entry
	pushq	%rbp
	.cfi_def_cfa_offset 16
	.cfi_offset %rbp, -16
	movq	%rsp, %rbp
	.cfi_def_cfa_register %rbp
	subq	$64, %rsp
	vmovsd	.LCPI16_0(%rip), %xmm0  # xmm0 = mem[0],zero
	movl	$684078115, -48(%rbp)   # imm = 0x28C63423
	movq	%rdi, -64(%rbp)
	movq	%rsi, -40(%rbp)
	movq	%rdx, -32(%rbp)
	movq	img, %rax
	movl	24(%rax), %eax
	cmpl	$2, %eax
	movl	$1, %eax
	movl	$3, %ecx
	cmovel	%eax, %ecx
	movl	%ecx, -44(%rbp)
	vmovsd	%xmm0, -56(%rbp)
	movl	$0, -12(%rbp)
.LBB16_1:                               # %for.cond
                                        # =>This Loop Header: Depth=1
                                        #     Child Loop BB16_3 Depth 2
                                        #       Child Loop BB16_5 Depth 3
                                        #     Child Loop BB16_14 Depth 2
                                        #       Child Loop BB16_16 Depth 3
                                        #     Child Loop BB16_25 Depth 2
                                        #       Child Loop BB16_27 Depth 3
                                        #     Child Loop BB16_36 Depth 2
                                        #       Child Loop BB16_38 Depth 3
                                        #     Child Loop BB16_47 Depth 2
                                        #     Child Loop BB16_54 Depth 2
                                        #     Child Loop BB16_61 Depth 2
                                        #     Child Loop BB16_68 Depth 2
                                        #     Child Loop BB16_75 Depth 2
                                        #     Child Loop BB16_82 Depth 2
                                        #       Child Loop BB16_84 Depth 3
                                        #     Child Loop BB16_93 Depth 2
                                        #       Child Loop BB16_95 Depth 3
                                        #     Child Loop BB16_104 Depth 2
                                        #       Child Loop BB16_106 Depth 3
                                        #     Child Loop BB16_115 Depth 2
                                        #       Child Loop BB16_117 Depth 3
                                        #     Child Loop BB16_126 Depth 2
                                        #       Child Loop BB16_128 Depth 3
                                        #     Child Loop BB16_137 Depth 2
                                        #       Child Loop BB16_139 Depth 3
                                        #     Child Loop BB16_148 Depth 2
                                        #       Child Loop BB16_150 Depth 3
                                        #     Child Loop BB16_159 Depth 2
                                        #       Child Loop BB16_161 Depth 3
	movl	-12(%rbp), %eax
	cmpl	-44(%rbp), %eax
	jge	.LBB16_173
# %bb.2:                                # %for.body
                                        #   in Loop: Header=BB16_1 Depth=1
	vxorps	%xmm0, %xmm0, %xmm0
	vmovsd	%xmm0, -24(%rbp)
	movl	$0, -8(%rbp)
.LBB16_3:                               # %for.cond2
                                        #   Parent Loop BB16_1 Depth=1
                                        # =>  This Loop Header: Depth=2
                                        #       Child Loop BB16_5 Depth 3
	cmpl	$3, -8(%rbp)
	jge	.LBB16_13
# %bb.4:                                # %for.body4
                                        #   in Loop: Header=BB16_3 Depth=2
	movl	$0, -4(%rbp)
.LBB16_5:                               # %for.cond5
                                        #   Parent Loop BB16_1 Depth=1
                                        #     Parent Loop BB16_3 Depth=2
                                        # =>    This Inner Loop Header: Depth=3
	cmpl	$11, -4(%rbp)
	jge	.LBB16_11
# %bb.6:                                # %for.body7
                                        #   in Loop: Header=BB16_5 Depth=3
	movq	img, %rax
	cmpl	$2, 24(%rax)
	jne	.LBB16_8
# %bb.7:                                # %if.then
                                        #   in Loop: Header=BB16_5 Depth=3
	movq	-40(%rbp), %rdi
	movslq	-8(%rbp), %rax
	imulq	$176, %rax, %rax
	addq	%rax, %rdi
	movslq	-4(%rbp), %rax
	shlq	$4, %rax
	addq	%rax, %rdi
	movslq	-12(%rbp), %rax
	imulq	$264, %rax, %rax        # imm = 0x108
	movabsq	$INIT_MB_TYPE_I, %rsi
	addq	%rax, %rsi
	movslq	-8(%rbp), %rax
	imulq	$88, %rax, %rax
	addq	%rax, %rsi
	movslq	-4(%rbp), %rax
	shlq	$3, %rax
	addq	%rax, %rsi
	callq	XRate
	vaddsd	-24(%rbp), %xmm0, %xmm0
	vmovsd	%xmm0, -24(%rbp)
	jmp	.LBB16_9
.LBB16_8:                               # %if.else
                                        #   in Loop: Header=BB16_5 Depth=3
	movq	-40(%rbp), %rdi
	movslq	-8(%rbp), %rax
	imulq	$176, %rax, %rax
	addq	%rax, %rdi
	movslq	-4(%rbp), %rax
	shlq	$4, %rax
	addq	%rax, %rdi
	movslq	-12(%rbp), %rax
	imulq	$264, %rax, %rax        # imm = 0x108
	movabsq	$INIT_MB_TYPE_P, %rsi
	addq	%rax, %rsi
	movslq	-8(%rbp), %rax
	imulq	$88, %rax, %rax
	addq	%rax, %rsi
	movslq	-4(%rbp), %rax
	shlq	$3, %rax
	addq	%rax, %rsi
	callq	XRate
	vaddsd	-24(%rbp), %xmm0, %xmm0
	vmovsd	%xmm0, -24(%rbp)
.LBB16_9:                               # %if.end
                                        #   in Loop: Header=BB16_5 Depth=3
	jmp	.LBB16_10
.LBB16_10:                              # %for.inc
                                        #   in Loop: Header=BB16_5 Depth=3
	movl	-4(%rbp), %eax
	addl	$1, %eax
	movl	%eax, -4(%rbp)
	jmp	.LBB16_5
.LBB16_11:                              # %for.end
                                        #   in Loop: Header=BB16_3 Depth=2
	jmp	.LBB16_12
.LBB16_12:                              # %for.inc33
