	.text
	.file	"context_ini.c"
	.globl	create_context_memory   # -- Begin function create_context_memory
	.p2align	4, 0x90
	.type	create_context_memory,@function
create_context_memory:                  # @create_context_memory
	.cfi_startproc
# %bb.0:                                # %rand_bb
	pushq	%rbp
	.cfi_def_cfa_offset 16
	.cfi_offset %rbp, -16
	movq	%rsp, %rbp
	.cfi_def_cfa_register %rbp
	callq	get_rand
	cmpl	$0, %eax
	jne	.LBB0_17
# %bb.1:                                # %func_create_context_memory.2
	callq	create_context_memory.2
	popq	%rbp
	.cfi_def_cfa %rsp, 8
	retq
.LBB0_2:                                # %func_create_context_memory.4
	.cfi_def_cfa %rbp, 16
	callq	create_context_memory.4
	popq	%rbp
	.cfi_def_cfa %rsp, 8
	retq
.LBB0_3:                                # %func_create_context_memory.5
	.cfi_def_cfa %rbp, 16
	callq	create_context_memory.5
	popq	%rbp
	.cfi_def_cfa %rsp, 8
	retq
.LBB0_4:                                # %func_create_context_memory.27
	.cfi_def_cfa %rbp, 16
	callq	create_context_memory.27
	popq	%rbp
	.cfi_def_cfa %rsp, 8
	retq
.LBB0_5:                                # %func_create_context_memory.44
	.cfi_def_cfa %rbp, 16
	callq	create_context_memory.44
	popq	%rbp
	.cfi_def_cfa %rsp, 8
	retq
.LBB0_6:                                # %func_create_context_memory.46
	.cfi_def_cfa %rbp, 16
	callq	create_context_memory.46
	popq	%rbp
	.cfi_def_cfa %rsp, 8
	retq
.LBB0_7:                                # %func_create_context_memory.48
	.cfi_def_cfa %rbp, 16
	callq	create_context_memory.48
	popq	%rbp
	.cfi_def_cfa %rsp, 8
	retq
.LBB0_8:                                # %func_create_context_memory.50
	.cfi_def_cfa %rbp, 16
	callq	create_context_memory.50
	popq	%rbp
	.cfi_def_cfa %rsp, 8
	retq
.LBB0_9:                                # %func_create_context_memory.55
	.cfi_def_cfa %rbp, 16
	callq	create_context_memory.55
	popq	%rbp
	.cfi_def_cfa %rsp, 8
	retq
.LBB0_10:                               # %func_create_context_memory.62
	.cfi_def_cfa %rbp, 16
	callq	create_context_memory.62
	popq	%rbp
	.cfi_def_cfa %rsp, 8
	retq
.LBB0_11:                               # %func_create_context_memory.73
	.cfi_def_cfa %rbp, 16
	callq	create_context_memory.73
	popq	%rbp
	.cfi_def_cfa %rsp, 8
	retq
.LBB0_12:                               # %func_create_context_memory.75
	.cfi_def_cfa %rbp, 16
	callq	create_context_memory.75
	popq	%rbp
	.cfi_def_cfa %rsp, 8
	retq
.LBB0_13:                               # %func_create_context_memory.77
	.cfi_def_cfa %rbp, 16
	callq	create_context_memory.77
	popq	%rbp
	.cfi_def_cfa %rsp, 8
	retq
.LBB0_14:                               # %func_create_context_memory.82
	.cfi_def_cfa %rbp, 16
	callq	create_context_memory.82
	popq	%rbp
	.cfi_def_cfa %rsp, 8
	retq
.LBB0_15:                               # %func_create_context_memory.83
	.cfi_def_cfa %rbp, 16
	callq	create_context_memory.83
	popq	%rbp
	.cfi_def_cfa %rsp, 8
	retq
.LBB0_16:                               # %func_create_context_memory.84
	.cfi_def_cfa %rbp, 16
	callq	create_context_memory.84
	popq	%rbp
	.cfi_def_cfa %rsp, 8
	retq
.LBB0_17:                               # %ctrl0
	.cfi_def_cfa %rbp, 16
	cmpl	$1, %eax
	je	.LBB0_2
# %bb.18:                               # %ctrl1
	cmpl	$2, %eax
	je	.LBB0_3
# %bb.19:                               # %ctrl2
	cmpl	$3, %eax
	je	.LBB0_4
# %bb.20:                               # %ctrl3
	cmpl	$4, %eax
	je	.LBB0_5
# %bb.21:                               # %ctrl4
	cmpl	$5, %eax
	je	.LBB0_6
# %bb.22:                               # %ctrl5
	cmpl	$6, %eax
	je	.LBB0_7
# %bb.23:                               # %ctrl6
	cmpl	$7, %eax
	je	.LBB0_8
# %bb.24:                               # %ctrl7
	cmpl	$8, %eax
	je	.LBB0_9
# %bb.25:                               # %ctrl8
	cmpl	$9, %eax
	je	.LBB0_10
# %bb.26:                               # %ctrl9
	cmpl	$10, %eax
	je	.LBB0_11
# %bb.27:                               # %ctrl10
	cmpl	$11, %eax
	je	.LBB0_12
# %bb.28:                               # %ctrl11
	cmpl	$12, %eax
	je	.LBB0_13
# %bb.29:                               # %ctrl12
	cmpl	$13, %eax
	je	.LBB0_14
# %bb.30:                               # %ctrl13
	cmpl	$14, %eax
	je	.LBB0_15
	jmp	.LBB0_16
.Lfunc_end0:
	.size	create_context_memory, .Lfunc_end0-create_context_memory
	.cfi_endproc
                                        # -- End function
	.globl	free_context_memory     # -- Begin function free_context_memory
	.p2align	4, 0x90
	.type	free_context_memory,@function
free_context_memory:                    # @free_context_memory
	.cfi_startproc
# %bb.0:                                # %rand_bb
	pushq	%rbp
	.cfi_def_cfa_offset 16
	.cfi_offset %rbp, -16
	movq	%rsp, %rbp
	.cfi_def_cfa_register %rbp
	callq	get_rand
	cmpl	$0, %eax
	jne	.LBB1_2
# %bb.1:                                # %func_free_context_memory.13
	callq	free_context_memory.13
	popq	%rbp
	.cfi_def_cfa %rsp, 8
	retq
.LBB1_2:                                # %func_free_context_memory.14
	.cfi_def_cfa %rbp, 16
	callq	free_context_memory.14
	popq	%rbp
	.cfi_def_cfa %rsp, 8
	retq
.Lfunc_end1:
	.size	free_context_memory, .Lfunc_end1-free_context_memory
	.cfi_endproc
                                        # -- End function
	.globl	SetCtxModelNumber       # -- Begin function SetCtxModelNumber
	.p2align	4, 0x90
	.type	SetCtxModelNumber,@function
SetCtxModelNumber:                      # @SetCtxModelNumber
	.cfi_startproc
# %bb.0:                                # %rand_bb
	pushq	%rbp
	.cfi_def_cfa_offset 16
	.cfi_offset %rbp, -16
	movq	%rsp, %rbp
	.cfi_def_cfa_register %rbp
	callq	get_rand
	cmpl	$0, %eax
	jne	.LBB2_7
# %bb.1:                                # %func_SetCtxModelNumber.1
	callq	SetCtxModelNumber.1
	popq	%rbp
	.cfi_def_cfa %rsp, 8
	retq
.LBB2_2:                                # %func_SetCtxModelNumber.25
	.cfi_def_cfa %rbp, 16
	callq	SetCtxModelNumber.25
	popq	%rbp
	.cfi_def_cfa %rsp, 8
	retq
.LBB2_3:                                # %func_SetCtxModelNumber.26
	.cfi_def_cfa %rbp, 16
	callq	SetCtxModelNumber.26
	popq	%rbp
	.cfi_def_cfa %rsp, 8
	retq
.LBB2_4:                                # %func_SetCtxModelNumber.33
	.cfi_def_cfa %rbp, 16
	callq	SetCtxModelNumber.33
	popq	%rbp
	.cfi_def_cfa %rsp, 8
	retq
.LBB2_5:                                # %func_SetCtxModelNumber.38
	.cfi_def_cfa %rbp, 16
	callq	SetCtxModelNumber.38
	popq	%rbp
	.cfi_def_cfa %rsp, 8
	retq
.LBB2_6:                                # %func_SetCtxModelNumber.43
	.cfi_def_cfa %rbp, 16
	callq	SetCtxModelNumber.43
	popq	%rbp
	.cfi_def_cfa %rsp, 8
	retq
.LBB2_7:                                # %ctrl0
	.cfi_def_cfa %rbp, 16
	cmpl	$1, %eax
	je	.LBB2_2
# %bb.8:                                # %ctrl1
	cmpl	$2, %eax
	je	.LBB2_3
# %bb.9:                                # %ctrl2
	cmpl	$3, %eax
	je	.LBB2_4
# %bb.10:                               # %ctrl3
	cmpl	$4, %eax
	je	.LBB2_5
	jmp	.LBB2_6
.Lfunc_end2:
	.size	SetCtxModelNumber, .Lfunc_end2-SetCtxModelNumber
	.cfi_endproc
                                        # -- End function
	.globl	init_contexts           # -- Begin function init_contexts
	.p2align	4, 0x90
	.type	init_contexts,@function
init_contexts:                          # @init_contexts
	.cfi_startproc
# %bb.0:                                # %rand_bb
	pushq	%rbp
	.cfi_def_cfa_offset 16
	.cfi_offset %rbp, -16
	movq	%rsp, %rbp
	.cfi_def_cfa_register %rbp
	callq	get_rand
	cmpl	$0, %eax
	jne	.LBB3_17
# %bb.1:                                # %func_init_contexts.6
	callq	init_contexts.6
	popq	%rbp
	.cfi_def_cfa %rsp, 8
	retq
.LBB3_2:                                # %func_init_contexts.12
	.cfi_def_cfa %rbp, 16
	callq	init_contexts.12
	popq	%rbp
	.cfi_def_cfa %rsp, 8
	retq
.LBB3_3:                                # %func_init_contexts.15
	.cfi_def_cfa %rbp, 16
	callq	init_contexts.15
	popq	%rbp
	.cfi_def_cfa %rsp, 8
	retq
.LBB3_4:                                # %func_init_contexts.16
	.cfi_def_cfa %rbp, 16
	callq	init_contexts.16
	popq	%rbp
	.cfi_def_cfa %rsp, 8
	retq
.LBB3_5:                                # %func_init_contexts.29
	.cfi_def_cfa %rbp, 16
	callq	init_contexts.29
	popq	%rbp
	.cfi_def_cfa %rsp, 8
	retq
.LBB3_6:                                # %func_init_contexts.32
	.cfi_def_cfa %rbp, 16
	callq	init_contexts.32
	popq	%rbp
	.cfi_def_cfa %rsp, 8
	retq
.LBB3_7:                                # %func_init_contexts.36
	.cfi_def_cfa %rbp, 16
	callq	init_contexts.36
	popq	%rbp
	.cfi_def_cfa %rsp, 8
	retq
.LBB3_8:                                # %func_init_contexts.40
	.cfi_def_cfa %rbp, 16
	callq	init_contexts.40
	popq	%rbp
	.cfi_def_cfa %rsp, 8
	retq
.LBB3_9:                                # %func_init_contexts.41
	.cfi_def_cfa %rbp, 16
	callq	init_contexts.41
	popq	%rbp
	.cfi_def_cfa %rsp, 8
	retq
.LBB3_10:                               # %func_init_contexts.51
	.cfi_def_cfa %rbp, 16
	callq	init_contexts.51
	popq	%rbp
	.cfi_def_cfa %rsp, 8
	retq
.LBB3_11:                               # %func_init_contexts.52
	.cfi_def_cfa %rbp, 16
	callq	init_contexts.52
	popq	%rbp
	.cfi_def_cfa %rsp, 8
	retq
.LBB3_12:                               # %func_init_contexts.53
	.cfi_def_cfa %rbp, 16
	callq	init_contexts.53
	popq	%rbp
	.cfi_def_cfa %rsp, 8
	retq
.LBB3_13:                               # %func_init_contexts.56
	.cfi_def_cfa %rbp, 16
	callq	init_contexts.56
	popq	%rbp
	.cfi_def_cfa %rsp, 8
	retq
.LBB3_14:                               # %func_init_contexts.57
	.cfi_def_cfa %rbp, 16
	callq	init_contexts.57
	popq	%rbp
	.cfi_def_cfa %rsp, 8
	retq
.LBB3_15:                               # %func_init_contexts.63
	.cfi_def_cfa %rbp, 16
	callq	init_contexts.63
	popq	%rbp
	.cfi_def_cfa %rsp, 8
	retq
.LBB3_16:                               # %func_init_contexts.68
	.cfi_def_cfa %rbp, 16
	callq	init_contexts.68
	popq	%rbp
	.cfi_def_cfa %rsp, 8
	retq
.LBB3_17:                               # %ctrl0
	.cfi_def_cfa %rbp, 16
	cmpl	$1, %eax
	je	.LBB3_2
# %bb.18:                               # %ctrl1
	cmpl	$2, %eax
	je	.LBB3_3
# %bb.19:                               # %ctrl2
	cmpl	$3, %eax
	je	.LBB3_4
# %bb.20:                               # %ctrl3
	cmpl	$4, %eax
	je	.LBB3_5
# %bb.21:                               # %ctrl4
	cmpl	$5, %eax
	je	.LBB3_6
# %bb.22:                               # %ctrl5
	cmpl	$6, %eax
	je	.LBB3_7
# %bb.23:                               # %ctrl6
	cmpl	$7, %eax
	je	.LBB3_8
# %bb.24:                               # %ctrl7
	cmpl	$8, %eax
	je	.LBB3_9
# %bb.25:                               # %ctrl8
	cmpl	$9, %eax
	je	.LBB3_10
# %bb.26:                               # %ctrl9
	cmpl	$10, %eax
	je	.LBB3_11
# %bb.27:                               # %ctrl10
	cmpl	$11, %eax
	je	.LBB3_12
# %bb.28:                               # %ctrl11
	cmpl	$12, %eax
	je	.LBB3_13
# %bb.29:                               # %ctrl12
	cmpl	$13, %eax
	je	.LBB3_14
# %bb.30:                               # %ctrl13
	cmpl	$14, %eax
	je	.LBB3_15
	jmp	.LBB3_16
.Lfunc_end3:
	.size	init_contexts, .Lfunc_end3-init_contexts
	.cfi_endproc
                                        # -- End function
	.globl	XRate                   # -- Begin function XRate
	.p2align	4, 0x90
	.type	XRate,@function
XRate:                                  # @XRate
	.cfi_startproc
# %bb.0:                                # %rand_bb
	pushq	%rbp
	.cfi_def_cfa_offset 16
	.cfi_offset %rbp, -16
	movq	%rsp, %rbp
	.cfi_def_cfa_register %rbp
	pushq	%r14
	pushq	%rbx
	.cfi_offset %rbx, -32
	.cfi_offset %r14, -24
	movq	%rsi, %r14
	movq	%rdi, %rbx
	callq	get_rand
	cmpl	$0, %eax
	jne	.LBB4_17
# %bb.1:                                # %func_XRate.11
	movq	%rbx, %rdi
	movq	%r14, %rsi
	callq	XRate.11
	popq	%rbx
	popq	%r14
	popq	%rbp
	.cfi_def_cfa %rsp, 8
	retq
.LBB4_2:                                # %func_XRate.21
	.cfi_def_cfa %rbp, 16
	movq	%rbx, %rdi
	movq	%r14, %rsi
	callq	XRate.21
	popq	%rbx
	popq	%r14
	popq	%rbp
	.cfi_def_cfa %rsp, 8
	retq
.LBB4_3:                                # %func_XRate.22
	.cfi_def_cfa %rbp, 16
	movq	%rbx, %rdi
	movq	%r14, %rsi
	callq	XRate.22
	popq	%rbx
	popq	%r14
	popq	%rbp
	.cfi_def_cfa %rsp, 8
	retq
.LBB4_4:                                # %func_XRate.23
	.cfi_def_cfa %rbp, 16
	movq	%rbx, %rdi
	movq	%r14, %rsi
	callq	XRate.23
	popq	%rbx
	popq	%r14
	popq	%rbp
	.cfi_def_cfa %rsp, 8
	retq
.LBB4_5:                                # %func_XRate.28
	.cfi_def_cfa %rbp, 16
	movq	%rbx, %rdi
	movq	%r14, %rsi
	callq	XRate.28
	popq	%rbx
	popq	%r14
	popq	%rbp
	.cfi_def_cfa %rsp, 8
	retq
.LBB4_6:                                # %func_XRate.31
	.cfi_def_cfa %rbp, 16
	movq	%rbx, %rdi
	movq	%r14, %rsi
	callq	XRate.31
	popq	%rbx
	popq	%r14
	popq	%rbp
	.cfi_def_cfa %rsp, 8
	retq
.LBB4_7:                                # %func_XRate.34
	.cfi_def_cfa %rbp, 16
	movq	%rbx, %rdi
	movq	%r14, %rsi
	callq	XRate.34
	popq	%rbx
	popq	%r14
	popq	%rbp
	.cfi_def_cfa %rsp, 8
	retq
.LBB4_8:                                # %func_XRate.39
	.cfi_def_cfa %rbp, 16
	movq	%rbx, %rdi
	movq	%r14, %rsi
	callq	XRate.39
	popq	%rbx
	popq	%r14
	popq	%rbp
	.cfi_def_cfa %rsp, 8
	retq
.LBB4_9:                                # %func_XRate.42
	.cfi_def_cfa %rbp, 16
	movq	%rbx, %rdi
	movq	%r14, %rsi
	callq	XRate.42
	popq	%rbx
	popq	%r14
	popq	%rbp
	.cfi_def_cfa %rsp, 8
	retq
.LBB4_10:                               # %func_XRate.47
	.cfi_def_cfa %rbp, 16
	movq	%rbx, %rdi
	movq	%r14, %rsi
	callq	XRate.47
	popq	%rbx
	popq	%r14
	popq	%rbp
	.cfi_def_cfa %rsp, 8
	retq
.LBB4_11:                               # %func_XRate.49
	.cfi_def_cfa %rbp, 16
	movq	%rbx, %rdi
	movq	%r14, %rsi
	callq	XRate.49
	popq	%rbx
	popq	%r14
	popq	%rbp
	.cfi_def_cfa %rsp, 8
	retq
.LBB4_12:                               # %func_XRate.54
	.cfi_def_cfa %rbp, 16
	movq	%rbx, %rdi
	movq	%r14, %rsi
	callq	XRate.54
	popq	%rbx
	popq	%r14
	popq	%rbp
	.cfi_def_cfa %rsp, 8
	retq
.LBB4_13:                               # %func_XRate.64
	.cfi_def_cfa %rbp, 16
	movq	%rbx, %rdi
	movq	%r14, %rsi
	callq	XRate.64
	popq	%rbx
	popq	%r14
	popq	%rbp
	.cfi_def_cfa %rsp, 8
	retq
.LBB4_14:                               # %func_XRate.65
	.cfi_def_cfa %rbp, 16
	movq	%rbx, %rdi
	movq	%r14, %rsi
	callq	XRate.65
	popq	%rbx
	popq	%r14
	popq	%rbp
	.cfi_def_cfa %rsp, 8
	retq
.LBB4_15:                               # %func_XRate.72
	.cfi_def_cfa %rbp, 16
	movq	%rbx, %rdi
	movq	%r14, %rsi
	callq	XRate.72
	popq	%rbx
	popq	%r14
	popq	%rbp
	.cfi_def_cfa %rsp, 8
	retq
.LBB4_16:                               # %func_XRate.79
	.cfi_def_cfa %rbp, 16
	movq	%rbx, %rdi
	movq	%r14, %rsi
	callq	XRate.79
	popq	%rbx
	popq	%r14
	popq	%rbp
	.cfi_def_cfa %rsp, 8
	retq
.LBB4_17:                               # %ctrl0
	.cfi_def_cfa %rbp, 16
	cmpl	$1, %eax
	je	.LBB4_2
# %bb.18:                               # %ctrl1
	cmpl	$2, %eax
	je	.LBB4_3
# %bb.19:                               # %ctrl2
	cmpl	$3, %eax
	je	.LBB4_4
# %bb.20:                               # %ctrl3
	cmpl	$4, %eax
	je	.LBB4_5
# %bb.21:                               # %ctrl4
	cmpl	$5, %eax
	je	.LBB4_6
# %bb.22:                               # %ctrl5
	cmpl	$6, %eax
	je	.LBB4_7
# %bb.23:                               # %ctrl6
	cmpl	$7, %eax
	je	.LBB4_8
# %bb.24:                               # %ctrl7
	cmpl	$8, %eax
	je	.LBB4_9
# %bb.25:                               # %ctrl8
	cmpl	$9, %eax
	je	.LBB4_10
# %bb.26:                               # %ctrl9
	cmpl	$10, %eax
	je	.LBB4_11
# %bb.27:                               # %ctrl10
	cmpl	$11, %eax
	je	.LBB4_12
# %bb.28:                               # %ctrl11
	cmpl	$12, %eax
	je	.LBB4_13
# %bb.29:                               # %ctrl12
	cmpl	$13, %eax
	je	.LBB4_14
# %bb.30:                               # %ctrl13
	cmpl	$14, %eax
	je	.LBB4_15
	jmp	.LBB4_16
.Lfunc_end4:
	.size	XRate, .Lfunc_end4-XRate
	.cfi_endproc
                                        # -- End function
	.globl	GetCtxModelNumber       # -- Begin function GetCtxModelNumber
	.p2align	4, 0x90
	.type	GetCtxModelNumber,@function
GetCtxModelNumber:                      # @GetCtxModelNumber
	.cfi_startproc
# %bb.0:                                # %rand_bb
	pushq	%rbp
	.cfi_def_cfa_offset 16
	.cfi_offset %rbp, -16
	movq	%rsp, %rbp
	.cfi_def_cfa_register %rbp
	pushq	%r15
	pushq	%r14
	pushq	%rbx
	pushq	%rax
	.cfi_offset %rbx, -40
	.cfi_offset %r14, -32
	.cfi_offset %r15, -24
	movq	%rdx, %r14
	movq	%rsi, %r15
	movq	%rdi, %rbx
	callq	get_rand
	cmpl	$0, %eax
	jne	.LBB5_17
# %bb.1:                                # %func_GetCtxModelNumber.9
	movq	%rbx, %rdi
	movq	%r15, %rsi
	movq	%r14, %rdx
	callq	GetCtxModelNumber.9
	addq	$8, %rsp
	popq	%rbx
	popq	%r14
	popq	%r15
	popq	%rbp
	.cfi_def_cfa %rsp, 8
	retq
.LBB5_2:                                # %func_GetCtxModelNumber.45
	.cfi_def_cfa %rbp, 16
	movq	%rbx, %rdi
	movq	%r15, %rsi
	movq	%r14, %rdx
	callq	GetCtxModelNumber.45
	addq	$8, %rsp
	popq	%rbx
	popq	%r14
	popq	%r15
	popq	%rbp
	.cfi_def_cfa %rsp, 8
	retq
.LBB5_3:                                # %func_GetCtxModelNumber.58
	.cfi_def_cfa %rbp, 16
	movq	%rbx, %rdi
	movq	%r15, %rsi
	movq	%r14, %rdx
	callq	GetCtxModelNumber.58
	addq	$8, %rsp
	popq	%rbx
	popq	%r14
	popq	%r15
	popq	%rbp
	.cfi_def_cfa %rsp, 8
	retq
.LBB5_4:                                # %func_GetCtxModelNumber.59
	.cfi_def_cfa %rbp, 16
	movq	%rbx, %rdi
	movq	%r15, %rsi
	movq	%r14, %rdx
	callq	GetCtxModelNumber.59
	addq	$8, %rsp
	popq	%rbx
	popq	%r14
	popq	%r15
	popq	%rbp
	.cfi_def_cfa %rsp, 8
	retq
.LBB5_5:                                # %func_GetCtxModelNumber.60
	.cfi_def_cfa %rbp, 16
	movq	%rbx, %rdi
	movq	%r15, %rsi
	movq	%r14, %rdx
	callq	GetCtxModelNumber.60
	addq	$8, %rsp
	popq	%rbx
	popq	%r14
	popq	%r15
	popq	%rbp
	.cfi_def_cfa %rsp, 8
	retq
.LBB5_6:                                # %func_GetCtxModelNumber.61
	.cfi_def_cfa %rbp, 16
	movq	%rbx, %rdi
	movq	%r15, %rsi
	movq	%r14, %rdx
	callq	GetCtxModelNumber.61
	addq	$8, %rsp
	popq	%rbx
	popq	%r14
	popq	%r15
	popq	%rbp
	.cfi_def_cfa %rsp, 8
	retq
.LBB5_7:                                # %func_GetCtxModelNumber.66
	.cfi_def_cfa %rbp, 16
	movq	%rbx, %rdi
	movq	%r15, %rsi
	movq	%r14, %rdx
	callq	GetCtxModelNumber.66
	addq	$8, %rsp
	popq	%rbx
	popq	%r14
	popq	%r15
	popq	%rbp
	.cfi_def_cfa %rsp, 8
	retq
.LBB5_8:                                # %func_GetCtxModelNumber.67
	.cfi_def_cfa %rbp, 16
	movq	%rbx, %rdi
	movq	%r15, %rsi
	movq	%r14, %rdx
	callq	GetCtxModelNumber.67
	addq	$8, %rsp
	popq	%rbx
	popq	%r14
	popq	%r15
	popq	%rbp
	.cfi_def_cfa %rsp, 8
	retq
.LBB5_9:                                # %func_GetCtxModelNumber.69
	.cfi_def_cfa %rbp, 16
	movq	%rbx, %rdi
	movq	%r15, %rsi
	movq	%r14, %rdx
	callq	GetCtxModelNumber.69
	addq	$8, %rsp
	popq	%rbx
	popq	%r14
	popq	%r15
	popq	%rbp
	.cfi_def_cfa %rsp, 8
	retq
.LBB5_10:                               # %func_GetCtxModelNumber.70
	.cfi_def_cfa %rbp, 16
	movq	%rbx, %rdi
	movq	%r15, %rsi
	movq	%r14, %rdx
	callq	GetCtxModelNumber.70
	addq	$8, %rsp
	popq	%rbx
	popq	%r14
	popq	%r15
	popq	%rbp
	.cfi_def_cfa %rsp, 8
	retq
.LBB5_11:                               # %func_GetCtxModelNumber.71
	.cfi_def_cfa %rbp, 16
	movq	%rbx, %rdi
	movq	%r15, %rsi
	movq	%r14, %rdx
	callq	GetCtxModelNumber.71
	addq	$8, %rsp
	popq	%rbx
	popq	%r14
	popq	%r15
	popq	%rbp
	.cfi_def_cfa %rsp, 8
	retq
.LBB5_12:                               # %func_GetCtxModelNumber.74
	.cfi_def_cfa %rbp, 16
	movq	%rbx, %rdi
	movq	%r15, %rsi
	movq	%r14, %rdx
	callq	GetCtxModelNumber.74
	addq	$8, %rsp
	popq	%rbx
	popq	%r14
	popq	%r15
	popq	%rbp
	.cfi_def_cfa %rsp, 8
	retq
.LBB5_13:                               # %func_GetCtxModelNumber.76
	.cfi_def_cfa %rbp, 16
	movq	%rbx, %rdi
	movq	%r15, %rsi
	movq	%r14, %rdx
	callq	GetCtxModelNumber.76
	addq	$8, %rsp
	popq	%rbx
	popq	%r14
	popq	%r15
	popq	%rbp
	.cfi_def_cfa %rsp, 8
	retq
.LBB5_14:                               # %func_GetCtxModelNumber.78
	.cfi_def_cfa %rbp, 16
	movq	%rbx, %rdi
	movq	%r15, %rsi
	movq	%r14, %rdx
	callq	GetCtxModelNumber.78
	addq	$8, %rsp
	popq	%rbx
	popq	%r14
	popq	%r15
	popq	%rbp
	.cfi_def_cfa %rsp, 8
	retq
.LBB5_15:                               # %func_GetCtxModelNumber.80
	.cfi_def_cfa %rbp, 16
	movq	%rbx, %rdi
	movq	%r15, %rsi
	movq	%r14, %rdx
	callq	GetCtxModelNumber.80
	addq	$8, %rsp
	popq	%rbx
	popq	%r14
	popq	%r15
	popq	%rbp
	.cfi_def_cfa %rsp, 8
	retq
.LBB5_16:                               # %func_GetCtxModelNumber.81
	.cfi_def_cfa %rbp, 16
	movq	%rbx, %rdi
	movq	%r15, %rsi
	movq	%r14, %rdx
	callq	GetCtxModelNumber.81
	addq	$8, %rsp
	popq	%rbx
	popq	%r14
	popq	%r15
	popq	%rbp
	.cfi_def_cfa %rsp, 8
	retq
.LBB5_17:                               # %ctrl0
	.cfi_def_cfa %rbp, 16
	cmpl	$1, %eax
	je	.LBB5_2
# %bb.18:                               # %ctrl1
	cmpl	$2, %eax
	je	.LBB5_3
# %bb.19:                               # %ctrl2
	cmpl	$3, %eax
	je	.LBB5_4
# %bb.20:                               # %ctrl3
	cmpl	$4, %eax
	je	.LBB5_5
# %bb.21:                               # %ctrl4
	cmpl	$5, %eax
	je	.LBB5_6
# %bb.22:                               # %ctrl5
	cmpl	$6, %eax
	je	.LBB5_7
# %bb.23:                               # %ctrl6
	cmpl	$7, %eax
	je	.LBB5_8
# %bb.24:                               # %ctrl7
	cmpl	$8, %eax
	je	.LBB5_9
# %bb.25:                               # %ctrl8
	cmpl	$9, %eax
	je	.LBB5_10
# %bb.26:                               # %ctrl9
	cmpl	$10, %eax
	je	.LBB5_11
# %bb.27:                               # %ctrl10
	cmpl	$11, %eax
	je	.LBB5_12
# %bb.28:                               # %ctrl11
	cmpl	$12, %eax
	je	.LBB5_13
# %bb.29:                               # %ctrl12
	cmpl	$13, %eax
	je	.LBB5_14
# %bb.30:                               # %ctrl13
	cmpl	$14, %eax
	je	.LBB5_15
	jmp	.LBB5_16
.Lfunc_end5:
	.size	GetCtxModelNumber, .Lfunc_end5-GetCtxModelNumber
	.cfi_endproc
                                        # -- End function
	.globl	store_contexts          # -- Begin function store_contexts
	.p2align	4, 0x90
	.type	store_contexts,@function
store_contexts:                         # @store_contexts
	.cfi_startproc
# %bb.0:                                # %rand_bb
	pushq	%rbp
	.cfi_def_cfa_offset 16
	.cfi_offset %rbp, -16
	movq	%rsp, %rbp
	.cfi_def_cfa_register %rbp
	callq	get_rand
	cmpl	$0, %eax
	jne	.LBB6_7
# %bb.1:                                # %func_store_contexts.8
	callq	store_contexts.8
	popq	%rbp
	.cfi_def_cfa %rsp, 8
	retq
.LBB6_2:                                # %func_store_contexts.17
	.cfi_def_cfa %rbp, 16
	callq	store_contexts.17
	popq	%rbp
	.cfi_def_cfa %rsp, 8
	retq
.LBB6_3:                                # %func_store_contexts.19
	.cfi_def_cfa %rbp, 16
	callq	store_contexts.19
	popq	%rbp
	.cfi_def_cfa %rsp, 8
	retq
.LBB6_4:                                # %func_store_contexts.20
	.cfi_def_cfa %rbp, 16
	callq	store_contexts.20
	popq	%rbp
	.cfi_def_cfa %rsp, 8
	retq
.LBB6_5:                                # %func_store_contexts.24
	.cfi_def_cfa %rbp, 16
	callq	store_contexts.24
	popq	%rbp
	.cfi_def_cfa %rsp, 8
	retq
.LBB6_6:                                # %func_store_contexts.37
	.cfi_def_cfa %rbp, 16
	callq	store_contexts.37
	popq	%rbp
	.cfi_def_cfa %rsp, 8
	retq
.LBB6_7:                                # %ctrl0
	.cfi_def_cfa %rbp, 16
	cmpl	$1, %eax
	je	.LBB6_2
# %bb.8:                                # %ctrl1
	cmpl	$2, %eax
	je	.LBB6_3
# %bb.9:                                # %ctrl2
	cmpl	$3, %eax
	je	.LBB6_4
# %bb.10:                               # %ctrl3
	cmpl	$4, %eax
	je	.LBB6_5
	jmp	.LBB6_6
.Lfunc_end6:
	.size	store_contexts, .Lfunc_end6-store_contexts
	.cfi_endproc
                                        # -- End function
	.globl	update_field_frame_contexts # -- Begin function update_field_frame_contexts
	.p2align	4, 0x90
	.type	update_field_frame_contexts,@function
update_field_frame_contexts:            # @update_field_frame_contexts
	.cfi_startproc
# %bb.0:                                # %rand_bb
	pushq	%rbp
	.cfi_def_cfa_offset 16
	.cfi_offset %rbp, -16
	movq	%rsp, %rbp
	.cfi_def_cfa_register %rbp
	pushq	%rbx
	pushq	%rax
	.cfi_offset %rbx, -24
	movl	%edi, %ebx
	callq	get_rand
	cmpl	$0, %eax
	jne	.LBB7_7
# %bb.1:                                # %func_update_field_frame_contexts.3
	movl	%ebx, %edi
	callq	update_field_frame_contexts.3
	addq	$8, %rsp
	popq	%rbx
	popq	%rbp
	.cfi_def_cfa %rsp, 8
	retq
.LBB7_2:                                # %func_update_field_frame_contexts.7
	.cfi_def_cfa %rbp, 16
	movl	%ebx, %edi
	callq	update_field_frame_contexts.7
	addq	$8, %rsp
	popq	%rbx
	popq	%rbp
	.cfi_def_cfa %rsp, 8
	retq
.LBB7_3:                                # %func_update_field_frame_contexts.10
	.cfi_def_cfa %rbp, 16
	movl	%ebx, %edi
	callq	update_field_frame_contexts.10
	addq	$8, %rsp
	popq	%rbx
	popq	%rbp
	.cfi_def_cfa %rsp, 8
	retq
.LBB7_4:                                # %func_update_field_frame_contexts.18
	.cfi_def_cfa %rbp, 16
	movl	%ebx, %edi
	callq	update_field_frame_contexts.18
	addq	$8, %rsp
	popq	%rbx
	popq	%rbp
	.cfi_def_cfa %rsp, 8
	retq
.LBB7_5:                                # %func_update_field_frame_contexts.30
	.cfi_def_cfa %rbp, 16
	movl	%ebx, %edi
	callq	update_field_frame_contexts.30
	addq	$8, %rsp
	popq	%rbx
	popq	%rbp
	.cfi_def_cfa %rsp, 8
	retq
.LBB7_6:                                # %func_update_field_frame_contexts.35
	.cfi_def_cfa %rbp, 16
	movl	%ebx, %edi
	callq	update_field_frame_contexts.35
	addq	$8, %rsp
	popq	%rbx
	popq	%rbp
	.cfi_def_cfa %rsp, 8
	retq
.LBB7_7:                                # %ctrl0
	.cfi_def_cfa %rbp, 16
	cmpl	$1, %eax
	je	.LBB7_2
# %bb.8:                                # %ctrl1
	cmpl	$2, %eax
	je	.LBB7_3
# %bb.9:                                # %ctrl2
	cmpl	$3, %eax
	je	.LBB7_4
# %bb.10:                               # %ctrl3
	cmpl	$4, %eax
	je	.LBB7_5
	jmp	.LBB7_6
.Lfunc_end7:
	.size	update_field_frame_contexts, .Lfunc_end7-update_field_frame_contexts
	.cfi_endproc
                                        # -- End function
	.globl	SetCtxModelNumber.1     # -- Begin function SetCtxModelNumber.1
	.p2align	4, 0x90
	.type	SetCtxModelNumber.1,@function
SetCtxModelNumber.1:                    # @SetCtxModelNumber.1
	.cfi_startproc
# %bb.0:                                # %entry
	pushq	%rbp
	.cfi_def_cfa_offset 16
	.cfi_offset %rbp, -16
	movq	%rsp, %rbp
	.cfi_def_cfa_register %rbp
	subq	$16, %rsp
	movl	$2035322612, -16(%rbp)  # imm = 0x79508EF4
	movq	img, %rax
	movl	72444(%rax), %eax
	movl	%eax, -12(%rbp)
	movq	img, %rax
	movl	24(%rax), %eax
	movl	%eax, -8(%rbp)
	movq	img, %rax
	movq	14160(%rax), %rax
	movl	12(%rax), %eax
	cltd
	idivl	num_mb_per_slice
	movl	%eax, -4(%rbp)
	movq	img, %rax
	cmpl	$2, 24(%rax)
	jne	.LBB8_2
# %bb.1:                                # %if.then
	movq	img, %rax
	movl	$0, 72520(%rax)
	jmp	.LBB8_11
.LBB8_2:                                # %if.end
	movq	input, %rax
	cmpl	$0, 3212(%rax)
	jne	.LBB8_4
# %bb.3:                                # %if.then3
	movq	input, %rax
	movl	3216(%rax), %eax
	movq	img, %rcx
	movl	%eax, 72520(%rcx)
	jmp	.LBB8_11
.LBB8_4:                                # %if.end6
	movq	initialized, %rax
	movslq	-12(%rbp), %rcx
	movq	(%rax,%rcx,8), %rax
	movslq	-8(%rbp), %rcx
	movq	(%rax,%rcx,8), %rax
	movslq	-4(%rbp), %rcx
	cmpl	$0, (%rax,%rcx,4)
	je	.LBB8_6
# %bb.5:                                # %if.then11
	movq	model_number, %rax
	movslq	-12(%rbp), %rcx
	movq	(%rax,%rcx,8), %rax
	movslq	-8(%rbp), %rcx
	movq	(%rax,%rcx,8), %rax
	movslq	-4(%rbp), %rcx
	movl	(%rax,%rcx,4), %eax
	movq	img, %rcx
	movl	%eax, 72520(%rcx)
	jmp	.LBB8_11
.LBB8_6:                                # %if.else
	cmpl	$0, -4(%rbp)
	je	.LBB8_9
# %bb.7:                                # %land.lhs.true
	movq	initialized, %rax
	movslq	-12(%rbp), %rcx
	movq	(%rax,%rcx,8), %rax
	movslq	-8(%rbp), %rcx
	movq	(%rax,%rcx,8), %rax
	movl	-4(%rbp), %ecx
	subl	$1, %ecx
	movslq	%ecx, %rcx
	cmpl	$0, (%rax,%rcx,4)
	je	.LBB8_9
# %bb.8:                                # %if.then27
	movq	model_number, %rax
	movslq	-12(%rbp), %rcx
	movq	(%rax,%rcx,8), %rax
	movslq	-8(%rbp), %rcx
	movq	(%rax,%rcx,8), %rax
	movl	-4(%rbp), %ecx
	subl	$1, %ecx
	movslq	%ecx, %rcx
	movl	(%rax,%rcx,4), %eax
	movq	img, %rcx
	movl	%eax, 72520(%rcx)
	jmp	.LBB8_10
.LBB8_9:                                # %if.else36
	movq	img, %rax
	movl	$0, 72520(%rax)
.LBB8_10:                               # %if.end38
	jmp	.LBB8_11
.LBB8_11:                               # %if.end39
	cmpl	$2035322612, -16(%rbp)  # imm = 0x79508EF4
	jne	.LBB8_13
.LBB8_12:
	addq	$16, %rsp
	popq	%rbp
	.cfi_def_cfa %rsp, 8
	retq
.LBB8_13:                               # %func_exit
	.cfi_def_cfa %rbp, 16
	callq	detect_breach
	jmp	.LBB8_12
.Lfunc_end8:
	.size	SetCtxModelNumber.1, .Lfunc_end8-SetCtxModelNumber.1
	.cfi_endproc
                                        # -- End function
	.section	.rodata.cst8,"aM",@progbits,8
	.p2align	3               # -- Begin function create_context_memory.2
.LCPI9_0:
	.quad	4611686018427387904     # double 2
.LCPI9_1:
	.quad	4607182418800017408     # double 1
	.text
	.globl	create_context_memory.2
	.p2align	4, 0x90
	.type	create_context_memory.2,@function
create_context_memory.2:                # @create_context_memory.2
	.cfi_startproc
# %bb.0:                                # %entry
	pushq	%rbp
	.cfi_def_cfa_offset 16
	.cfi_offset %rbp, -16
	movq	%rsp, %rbp
	.cfi_def_cfa_register %rbp
	subq	$48, %rsp
	movl	$257117807, -20(%rbp)   # imm = 0xF534E6F
	movq	img, %rax
	movl	72488(%rax), %eax
	movl	%eax, -16(%rbp)
	movq	input, %rax
	cmpl	$1, 208(%rax)
	jne	.LBB9_2
# %bb.1:                                # %cond.true
	movq	input, %rax
	movl	212(%rax), %eax
	jmp	.LBB9_3
.LBB9_2:                                # %cond.false
	movl	-16(%rbp), %eax
.LBB9_3:                                # %cond.end
	movl	%eax, num_mb_per_slice
	movl	-16(%rbp), %eax
	addl	num_mb_per_slice, %eax
	subl	$1, %eax
	cltd
	idivl	num_mb_per_slice
	movl	%eax, number_of_slices
	movl	$24, %edi
	callq	malloc
	movq	%rax, initialized
	cmpq	$0, %rax
	jne	.LBB9_5
# %bb.4:                                # %if.then
	movabsq	$.L.str, %rdi
	callq	no_mem_exit
.LBB9_5:                                # %if.end
	movl	$24, %edi
	callq	malloc
	movq	%rax, model_number
	cmpq	$0, %rax
	jne	.LBB9_7
# %bb.6:                                # %if.then4
	movabsq	$.L.str.1, %rdi
	callq	no_mem_exit
.LBB9_7:                                # %if.end5
	movl	$0, -4(%rbp)
.LBB9_8:                                # %for.cond
                                        # =>This Loop Header: Depth=1
                                        #     Child Loop BB9_14 Depth 2
	cmpl	$3, -4(%rbp)
	jge	.LBB9_23
# %bb.9:                                # %for.body
                                        #   in Loop: Header=BB9_8 Depth=1
	movl	$32, %edi
	callq	malloc
	movq	initialized, %rcx
	movslq	-4(%rbp), %rdx
	movq	%rax, (%rcx,%rdx,8)
	cmpq	$0, %rax
	jne	.LBB9_11
# %bb.10:                               # %if.then9
                                        #   in Loop: Header=BB9_8 Depth=1
	movabsq	$.L.str, %rdi
	callq	no_mem_exit
.LBB9_11:                               # %if.end10
                                        #   in Loop: Header=BB9_8 Depth=1
	movl	$32, %edi
	callq	malloc
	movq	model_number, %rcx
	movslq	-4(%rbp), %rdx
	movq	%rax, (%rcx,%rdx,8)
	cmpq	$0, %rax
	jne	.LBB9_13
# %bb.12:                               # %if.then15
                                        #   in Loop: Header=BB9_8 Depth=1
	movabsq	$.L.str.1, %rdi
	callq	no_mem_exit
.LBB9_13:                               # %if.end16
                                        #   in Loop: Header=BB9_8 Depth=1
	movl	$0, -8(%rbp)
.LBB9_14:                               # %for.cond17
                                        #   Parent Loop BB9_8 Depth=1
                                        # =>  This Inner Loop Header: Depth=2
	cmpl	$4, -8(%rbp)
	jge	.LBB9_21
# %bb.15:                               # %for.body19
                                        #   in Loop: Header=BB9_14 Depth=2
	movslq	number_of_slices, %rdi
	shlq	$2, %rdi
	callq	malloc
	movq	initialized, %rcx
	movslq	-4(%rbp), %rdx
	movq	(%rcx,%rdx,8), %rcx
	movslq	-8(%rbp), %rdx
	movq	%rax, (%rcx,%rdx,8)
	cmpq	$0, %rax
	jne	.LBB9_17
# %bb.16:                               # %if.then27
                                        #   in Loop: Header=BB9_14 Depth=2
	movabsq	$.L.str, %rdi
	callq	no_mem_exit
.LBB9_17:                               # %if.end28
                                        #   in Loop: Header=BB9_14 Depth=2
	movslq	number_of_slices, %rdi
	shlq	$2, %rdi
	callq	malloc
	movq	model_number, %rcx
	movslq	-4(%rbp), %rdx
	movq	(%rcx,%rdx,8), %rcx
	movslq	-8(%rbp), %rdx
	movq	%rax, (%rcx,%rdx,8)
	cmpq	$0, %rax
	jne	.LBB9_19
# %bb.18:                               # %if.then38
                                        #   in Loop: Header=BB9_14 Depth=2
	movabsq	$.L.str.1, %rdi
	callq	no_mem_exit
.LBB9_19:                               # %if.end39
                                        #   in Loop: Header=BB9_14 Depth=2
	jmp	.LBB9_20
.LBB9_20:                               # %for.inc
                                        #   in Loop: Header=BB9_14 Depth=2
	movl	-8(%rbp), %eax
	addl	$1, %eax
	movl	%eax, -8(%rbp)
	jmp	.LBB9_14
.LBB9_21:                               # %for.end
                                        #   in Loop: Header=BB9_8 Depth=1
	jmp	.LBB9_22
.LBB9_22:                               # %for.inc40
                                        #   in Loop: Header=BB9_8 Depth=1
	movl	-4(%rbp), %eax
	addl	$1, %eax
	movl	%eax, -4(%rbp)
	jmp	.LBB9_8
.LBB9_23:                               # %for.end42
	movl	$0, -4(%rbp)
.LBB9_24:                               # %for.cond43
                                        # =>This Loop Header: Depth=1
                                        #     Child Loop BB9_26 Depth 2
                                        #       Child Loop BB9_28 Depth 3
	cmpl	$3, -4(%rbp)
	jge	.LBB9_35
# %bb.25:                               # %for.body46
                                        #   in Loop: Header=BB9_24 Depth=1
	movl	$0, -8(%rbp)
.LBB9_26:                               # %for.cond47
                                        #   Parent Loop BB9_24 Depth=1
                                        # =>  This Loop Header: Depth=2
                                        #       Child Loop BB9_28 Depth 3
	cmpl	$4, -8(%rbp)
	jge	.LBB9_33
# %bb.27:                               # %for.body50
                                        #   in Loop: Header=BB9_26 Depth=2
	movl	$0, -12(%rbp)
.LBB9_28:                               # %for.cond51
                                        #   Parent Loop BB9_24 Depth=1
                                        #     Parent Loop BB9_26 Depth=2
                                        # =>    This Inner Loop Header: Depth=3
	movl	-12(%rbp), %eax
	cmpl	number_of_slices, %eax
	jge	.LBB9_31
# %bb.29:                               # %for.body54
                                        #   in Loop: Header=BB9_28 Depth=3
	movq	initialized, %rax
	movslq	-4(%rbp), %rcx
	movq	(%rax,%rcx,8), %rax
	movslq	-8(%rbp), %rcx
	movq	(%rax,%rcx,8), %rax
	movslq	-12(%rbp), %rcx
	movl	$0, (%rax,%rcx,4)
# %bb.30:                               # %for.inc61
                                        #   in Loop: Header=BB9_28 Depth=3
	movl	-12(%rbp), %eax
	addl	$1, %eax
	movl	%eax, -12(%rbp)
	jmp	.LBB9_28
.LBB9_31:                               # %for.end63
                                        #   in Loop: Header=BB9_26 Depth=2
	jmp	.LBB9_32
.LBB9_32:                               # %for.inc64
                                        #   in Loop: Header=BB9_26 Depth=2
	movl	-8(%rbp), %eax
	addl	$1, %eax
	movl	%eax, -8(%rbp)
	jmp	.LBB9_26
.LBB9_33:                               # %for.end66
                                        #   in Loop: Header=BB9_24 Depth=1
	jmp	.LBB9_34
.LBB9_34:                               # %for.inc67
                                        #   in Loop: Header=BB9_24 Depth=1
	movl	-4(%rbp), %eax
	addl	$1, %eax
	movl	%eax, -4(%rbp)
	jmp	.LBB9_24
.LBB9_35:                               # %for.end69
	movl	$0, -4(%rbp)
.LBB9_36:                               # %for.cond70
                                        # =>This Inner Loop Header: Depth=1
	cmpl	$64, -4(%rbp)
	jge	.LBB9_39
# %bb.37:                               # %for.body73
                                        #   in Loop: Header=BB9_36 Depth=1
	vmovsd	.LCPI9_1(%rip), %xmm0   # xmm0 = mem[0],zero
	movl	$127, %eax
	subl	-4(%rbp), %eax
	cltq
	vsubsd	probability(,%rax,8), %xmm0, %xmm0
	movslq	-4(%rbp), %rax
	vmovsd	%xmm0, probability(,%rax,8)
	movslq	-4(%rbp), %rax
	vmovsd	probability(,%rax,8), %xmm0 # xmm0 = mem[0],zero
	callq	log10
	vmovsd	%xmm0, -32(%rbp)        # 8-byte Spill
	vmovsd	.LCPI9_0(%rip), %xmm0   # xmm0 = mem[0],zero
	callq	log10
	vmovsd	-32(%rbp), %xmm1        # 8-byte Reload
                                        # xmm1 = mem[0],zero
	vdivsd	%xmm0, %xmm1, %xmm0
	movslq	-4(%rbp), %rax
	vmovsd	%xmm0, entropy(,%rax,8)
	movl	$127, %eax
	subl	-4(%rbp), %eax
	cltq
	vmovsd	probability(,%rax,8), %xmm0 # xmm0 = mem[0],zero
	callq	log10
	vmovsd	%xmm0, -40(%rbp)        # 8-byte Spill
	vmovsd	.LCPI9_0(%rip), %xmm0   # xmm0 = mem[0],zero
	callq	log10
	vmovsd	-40(%rbp), %xmm1        # 8-byte Reload
                                        # xmm1 = mem[0],zero
	vdivsd	%xmm0, %xmm1, %xmm0
	movl	$127, %eax
	subl	-4(%rbp), %eax
	cltq
	vmovsd	%xmm0, entropy(,%rax,8)
# %bb.38:                               # %for.inc96
                                        #   in Loop: Header=BB9_36 Depth=1
	movl	-4(%rbp), %eax
	addl	$1, %eax
	movl	%eax, -4(%rbp)
	jmp	.LBB9_36
.LBB9_39:                               # %for.end98
	cmpl	$257117807, -20(%rbp)   # imm = 0xF534E6F
	jne	.LBB9_41
.LBB9_40:
	addq	$48, %rsp
	popq	%rbp
	.cfi_def_cfa %rsp, 8
	retq
.LBB9_41:                               # %func_exit
	.cfi_def_cfa %rbp, 16
	callq	detect_breach
	jmp	.LBB9_40
.Lfunc_end9:
	.size	create_context_memory.2, .Lfunc_end9-create_context_memory.2
	.cfi_endproc
                                        # -- End function
	.globl	update_field_frame_contexts.3 # -- Begin function update_field_frame_contexts.3
	.p2align	4, 0x90
	.type	update_field_frame_contexts.3,@function
update_field_frame_contexts.3:          # @update_field_frame_contexts.3
	.cfi_startproc
# %bb.0:                                # %entry
	pushq	%rbp
	.cfi_def_cfa_offset 16
	.cfi_offset %rbp, -16
	movq	%rsp, %rbp
	.cfi_def_cfa_register %rbp
	subq	$16, %rsp
	movl	$1189232600, -16(%rbp)  # imm = 0x46E23FD8
	movl	%edi, -12(%rbp)
	cmpl	$0, -12(%rbp)
	je	.LBB10_10
# %bb.1:                                # %if.then
	movl	$0, -8(%rbp)
.LBB10_2:                               # %for.cond
                                        # =>This Loop Header: Depth=1
                                        #     Child Loop BB10_4 Depth 2
	cmpl	$4, -8(%rbp)
	jge	.LBB10_9
# %bb.3:                                # %for.body
                                        #   in Loop: Header=BB10_2 Depth=1
	movl	$0, -4(%rbp)
.LBB10_4:                               # %for.cond1
                                        #   Parent Loop BB10_2 Depth=1
                                        # =>  This Inner Loop Header: Depth=2
	movl	-4(%rbp), %eax
	cmpl	number_of_slices, %eax
	jge	.LBB10_7
# %bb.5:                                # %for.body3
                                        #   in Loop: Header=BB10_4 Depth=2
	movq	initialized, %rax
	movq	8(%rax), %rax
	movslq	-8(%rbp), %rcx
	movq	(%rax,%rcx,8), %rax
	movl	-4(%rbp), %ecx
	sarl	$1, %ecx
	movslq	%ecx, %rcx
	movl	(%rax,%rcx,4), %eax
	movq	initialized, %rcx
	movq	(%rcx), %rcx
	movslq	-8(%rbp), %rdx
	movq	(%rcx,%rdx,8), %rcx
	movslq	-4(%rbp), %rdx
	movl	%eax, (%rcx,%rdx,4)
	movq	model_number, %rax
	movq	8(%rax), %rax
	movslq	-8(%rbp), %rcx
	movq	(%rax,%rcx,8), %rax
	movl	-4(%rbp), %ecx
	sarl	$1, %ecx
	movslq	%ecx, %rcx
	movl	(%rax,%rcx,4), %eax
	movq	model_number, %rcx
	movq	(%rcx), %rcx
	movslq	-8(%rbp), %rdx
	movq	(%rcx,%rdx,8), %rcx
	movslq	-4(%rbp), %rdx
	movl	%eax, (%rcx,%rdx,4)
# %bb.6:                                # %for.inc
                                        #   in Loop: Header=BB10_4 Depth=2
	movl	-4(%rbp), %eax
	addl	$1, %eax
	movl	%eax, -4(%rbp)
	jmp	.LBB10_4
.LBB10_7:                               # %for.end
                                        #   in Loop: Header=BB10_2 Depth=1
	jmp	.LBB10_8
.LBB10_8:                               # %for.inc23
                                        #   in Loop: Header=BB10_2 Depth=1
	movl	-8(%rbp), %eax
	addl	$1, %eax
	movl	%eax, -8(%rbp)
	jmp	.LBB10_2
.LBB10_9:                               # %for.end25
	jmp	.LBB10_19
.LBB10_10:                              # %if.else
	movl	$0, -8(%rbp)
.LBB10_11:                              # %for.cond26
                                        # =>This Loop Header: Depth=1
                                        #     Child Loop BB10_13 Depth 2
	cmpl	$4, -8(%rbp)
	jge	.LBB10_18
# %bb.12:                               # %for.body28
                                        #   in Loop: Header=BB10_11 Depth=1
	movl	$0, -4(%rbp)
.LBB10_13:                              # %for.cond29
                                        #   Parent Loop BB10_11 Depth=1
                                        # =>  This Inner Loop Header: Depth=2
	movl	-4(%rbp), %eax
	movl	number_of_slices, %ecx
	addl	$1, %ecx
	sarl	$1, %ecx
	cmpl	%ecx, %eax
	jge	.LBB10_16
# %bb.14:                               # %for.body32
                                        #   in Loop: Header=BB10_13 Depth=2
	movq	initialized, %rax
	movq	(%rax), %rax
	movslq	-8(%rbp), %rcx
	movq	(%rax,%rcx,8), %rax
	movl	-4(%rbp), %ecx
	shll	$1, %ecx
	movslq	%ecx, %rcx
	movl	(%rax,%rcx,4), %eax
	movq	initialized, %rcx
	movq	8(%rcx), %rcx
	movslq	-8(%rbp), %rdx
	movq	(%rcx,%rdx,8), %rcx
	movslq	-4(%rbp), %rdx
	movl	%eax, (%rcx,%rdx,4)
	movq	model_number, %rax
	movq	(%rax), %rax
	movslq	-8(%rbp), %rcx
	movq	(%rax,%rcx,8), %rax
	movl	-4(%rbp), %ecx
	shll	$1, %ecx
	movslq	%ecx, %rcx
	movl	(%rax,%rcx,4), %eax
	movq	model_number, %rcx
	movq	8(%rcx), %rcx
	movslq	-8(%rbp), %rdx
	movq	(%rcx,%rdx,8), %rcx
	movslq	-4(%rbp), %rdx
	movl	%eax, (%rcx,%rdx,4)
# %bb.15:                               # %for.inc54
                                        #   in Loop: Header=BB10_13 Depth=2
	movl	-4(%rbp), %eax
	addl	$1, %eax
	movl	%eax, -4(%rbp)
	jmp	.LBB10_13
.LBB10_16:                              # %for.end56
                                        #   in Loop: Header=BB10_11 Depth=1
	jmp	.LBB10_17
.LBB10_17:                              # %for.inc57
                                        #   in Loop: Header=BB10_11 Depth=1
	movl	-8(%rbp), %eax
	addl	$1, %eax
	movl	%eax, -8(%rbp)
	jmp	.LBB10_11
.LBB10_18:                              # %for.end59
	jmp	.LBB10_19
.LBB10_19:                              # %if.end
	cmpl	$1189232600, -16(%rbp)  # imm = 0x46E23FD8
	jne	.LBB10_21
.LBB10_20:
	addq	$16, %rsp
	popq	%rbp
	.cfi_def_cfa %rsp, 8
	retq
.LBB10_21:                              # %func_exit
	.cfi_def_cfa %rbp, 16
	callq	detect_breach
	jmp	.LBB10_20
.Lfunc_end10:
	.size	update_field_frame_contexts.3, .Lfunc_end10-update_field_frame_contexts.3
	.cfi_endproc
                                        # -- End function
	.section	.rodata.cst8,"aM",@progbits,8
	.p2align	3               # -- Begin function create_context_memory.4
.LCPI11_0:
	.quad	4611686018427387904     # double 2
.LCPI11_1:
	.quad	4607182418800017408     # double 1
	.text
	.globl	create_context_memory.4
	.p2align	4, 0x90
	.type	create_context_memory.4,@function
create_context_memory.4:                # @create_context_memory.4
	.cfi_startproc
# %bb.0:                                # %entry
	pushq	%rbp
	.cfi_def_cfa_offset 16
	.cfi_offset %rbp, -16
	movq	%rsp, %rbp
	.cfi_def_cfa_register %rbp
	subq	$48, %rsp
	movl	$683407730, -20(%rbp)   # imm = 0x28BBF972
	movq	img, %rax
	movl	72488(%rax), %eax
	movl	%eax, -16(%rbp)
	movq	input, %rax
	cmpl	$1, 208(%rax)
	jne	.LBB11_2
# %bb.1:                                # %cond.true
	movq	input, %rax
	movl	212(%rax), %eax
	jmp	.LBB11_3
.LBB11_2:                               # %cond.false
	movl	-16(%rbp), %eax
.LBB11_3:                               # %cond.end
	movl	%eax, num_mb_per_slice
	movl	-16(%rbp), %eax
	addl	num_mb_per_slice, %eax
	subl	$1, %eax
	cltd
	idivl	num_mb_per_slice
	movl	%eax, number_of_slices
	movl	$24, %edi
	callq	malloc
	movq	%rax, initialized
	cmpq	$0, %rax
	jne	.LBB11_5
# %bb.4:                                # %if.then
	movabsq	$.L.str, %rdi
	callq	no_mem_exit
.LBB11_5:                               # %if.end
	movl	$24, %edi
	callq	malloc
	movq	%rax, model_number
	cmpq	$0, %rax
	jne	.LBB11_7
# %bb.6:                                # %if.then4
	movabsq	$.L.str.1, %rdi
	callq	no_mem_exit
.LBB11_7:                               # %if.end5
	movl	$0, -4(%rbp)
.LBB11_8:                               # %for.cond
                                        # =>This Loop Header: Depth=1
                                        #     Child Loop BB11_14 Depth 2
	cmpl	$3, -4(%rbp)
	jge	.LBB11_23
# %bb.9:                                # %for.body
                                        #   in Loop: Header=BB11_8 Depth=1
	movl	$32, %edi
	callq	malloc
	movq	initialized, %rcx
	movslq	-4(%rbp), %rdx
	movq	%rax, (%rcx,%rdx,8)
	cmpq	$0, %rax
	jne	.LBB11_11
# %bb.10:                               # %if.then9
                                        #   in Loop: Header=BB11_8 Depth=1
	movabsq	$.L.str, %rdi
	callq	no_mem_exit
.LBB11_11:                              # %if.end10
                                        #   in Loop: Header=BB11_8 Depth=1
	movl	$32, %edi
	callq	malloc
	movq	model_number, %rcx
	movslq	-4(%rbp), %rdx
	movq	%rax, (%rcx,%rdx,8)
	cmpq	$0, %rax
	jne	.LBB11_13
# %bb.12:                               # %if.then15
                                        #   in Loop: Header=BB11_8 Depth=1
	movabsq	$.L.str.1, %rdi
	callq	no_mem_exit
.LBB11_13:                              # %if.end16
                                        #   in Loop: Header=BB11_8 Depth=1
	movl	$0, -8(%rbp)
.LBB11_14:                              # %for.cond17
                                        #   Parent Loop BB11_8 Depth=1
                                        # =>  This Inner Loop Header: Depth=2
	cmpl	$4, -8(%rbp)
	jge	.LBB11_21
# %bb.15:                               # %for.body19
                                        #   in Loop: Header=BB11_14 Depth=2
	movslq	number_of_slices, %rdi
	shlq	$2, %rdi
	callq	malloc
	movq	initialized, %rcx
	movslq	-4(%rbp), %rdx
	movq	(%rcx,%rdx,8), %rcx
	movslq	-8(%rbp), %rdx
	movq	%rax, (%rcx,%rdx,8)
	cmpq	$0, %rax
	jne	.LBB11_17
# %bb.16:                               # %if.then27
                                        #   in Loop: Header=BB11_14 Depth=2
	movabsq	$.L.str, %rdi
	callq	no_mem_exit
.LBB11_17:                              # %if.end28
                                        #   in Loop: Header=BB11_14 Depth=2
	movslq	number_of_slices, %rdi
	shlq	$2, %rdi
	callq	malloc
	movq	model_number, %rcx
	movslq	-4(%rbp), %rdx
	movq	(%rcx,%rdx,8), %rcx
	movslq	-8(%rbp), %rdx
	movq	%rax, (%rcx,%rdx,8)
	cmpq	$0, %rax
	jne	.LBB11_19
# %bb.18:                               # %if.then38
                                        #   in Loop: Header=BB11_14 Depth=2
	movabsq	$.L.str.1, %rdi
	callq	no_mem_exit
.LBB11_19:                              # %if.end39
                                        #   in Loop: Header=BB11_14 Depth=2
	jmp	.LBB11_20
.LBB11_20:                              # %for.inc
                                        #   in Loop: Header=BB11_14 Depth=2
	movl	-8(%rbp), %eax
	addl	$1, %eax
	movl	%eax, -8(%rbp)
	jmp	.LBB11_14
.LBB11_21:                              # %for.end
                                        #   in Loop: Header=BB11_8 Depth=1
	jmp	.LBB11_22
.LBB11_22:                              # %for.inc40
                                        #   in Loop: Header=BB11_8 Depth=1
	movl	-4(%rbp), %eax
	addl	$1, %eax
	movl	%eax, -4(%rbp)
	jmp	.LBB11_8
.LBB11_23:                              # %for.end42
	movl	$0, -4(%rbp)
.LBB11_24:                              # %for.cond43
                                        # =>This Loop Header: Depth=1
                                        #     Child Loop BB11_26 Depth 2
                                        #       Child Loop BB11_28 Depth 3
	cmpl	$3, -4(%rbp)
	jge	.LBB11_35
# %bb.25:                               # %for.body46
                                        #   in Loop: Header=BB11_24 Depth=1
	movl	$0, -8(%rbp)
.LBB11_26:                              # %for.cond47
                                        #   Parent Loop BB11_24 Depth=1
                                        # =>  This Loop Header: Depth=2
                                        #       Child Loop BB11_28 Depth 3
	cmpl	$4, -8(%rbp)
	jge	.LBB11_33
# %bb.27:                               # %for.body50
                                        #   in Loop: Header=BB11_26 Depth=2
	movl	$0, -12(%rbp)
.LBB11_28:                              # %for.cond51
                                        #   Parent Loop BB11_24 Depth=1
                                        #     Parent Loop BB11_26 Depth=2
                                        # =>    This Inner Loop Header: Depth=3
	movl	-12(%rbp), %eax
	cmpl	number_of_slices, %eax
	jge	.LBB11_31
# %bb.29:                               # %for.body54
                                        #   in Loop: Header=BB11_28 Depth=3
	movq	initialized, %rax
	movslq	-4(%rbp), %rcx
	movq	(%rax,%rcx,8), %rax
	movslq	-8(%rbp), %rcx
	movq	(%rax,%rcx,8), %rax
	movslq	-12(%rbp), %rcx
	movl	$0, (%rax,%rcx,4)
# %bb.30:                               # %for.inc61
                                        #   in Loop: Header=BB11_28 Depth=3
	movl	-12(%rbp), %eax
	addl	$1, %eax
	movl	%eax, -12(%rbp)
	jmp	.LBB11_28
.LBB11_31:                              # %for.end63
                                        #   in Loop: Header=BB11_26 Depth=2
	jmp	.LBB11_32
.LBB11_32:                              # %for.inc64
                                        #   in Loop: Header=BB11_26 Depth=2
	movl	-8(%rbp), %eax
	addl	$1, %eax
	movl	%eax, -8(%rbp)
	jmp	.LBB11_26
.LBB11_33:                              # %for.end66
                                        #   in Loop: Header=BB11_24 Depth=1
	jmp	.LBB11_34
.LBB11_34:                              # %for.inc67
                                        #   in Loop: Header=BB11_24 Depth=1
	movl	-4(%rbp), %eax
	addl	$1, %eax
	movl	%eax, -4(%rbp)
	jmp	.LBB11_24
.LBB11_35:                              # %for.end69
	movl	$0, -4(%rbp)
.LBB11_36:                              # %for.cond70
                                        # =>This Inner Loop Header: Depth=1
	cmpl	$64, -4(%rbp)
	jge	.LBB11_39
# %bb.37:                               # %for.body73
                                        #   in Loop: Header=BB11_36 Depth=1
	vmovsd	.LCPI11_1(%rip), %xmm0  # xmm0 = mem[0],zero
	movl	$127, %eax
	subl	-4(%rbp), %eax
	cltq
	vsubsd	probability(,%rax,8), %xmm0, %xmm0
	movslq	-4(%rbp), %rax
	vmovsd	%xmm0, probability(,%rax,8)
	movslq	-4(%rbp), %rax
	vmovsd	probability(,%rax,8), %xmm0 # xmm0 = mem[0],zero
	callq	log10
	vmovsd	%xmm0, -32(%rbp)        # 8-byte Spill
	vmovsd	.LCPI11_0(%rip), %xmm0  # xmm0 = mem[0],zero
	callq	log10
	vmovsd	-32(%rbp), %xmm1        # 8-byte Reload
                                        # xmm1 = mem[0],zero
	vdivsd	%xmm0, %xmm1, %xmm0
	movslq	-4(%rbp), %rax
	vmovsd	%xmm0, entropy(,%rax,8)
	movl	$127, %eax
	subl	-4(%rbp), %eax
	cltq
	vmovsd	probability(,%rax,8), %xmm0 # xmm0 = mem[0],zero
	callq	log10
	vmovsd	%xmm0, -40(%rbp)        # 8-byte Spill
	vmovsd	.LCPI11_0(%rip), %xmm0  # xmm0 = mem[0],zero
	callq	log10
	vmovsd	-40(%rbp), %xmm1        # 8-byte Reload
                                        # xmm1 = mem[0],zero
	vdivsd	%xmm0, %xmm1, %xmm0
	movl	$127, %eax
	subl	-4(%rbp), %eax
	cltq
	vmovsd	%xmm0, entropy(,%rax,8)
# %bb.38:                               # %for.inc96
                                        #   in Loop: Header=BB11_36 Depth=1
	movl	-4(%rbp), %eax
	addl	$1, %eax
	movl	%eax, -4(%rbp)
	jmp	.LBB11_36
.LBB11_39:                              # %for.end98
	cmpl	$683407730, -20(%rbp)   # imm = 0x28BBF972
	jne	.LBB11_41
.LBB11_40:
	addq	$48, %rsp
	popq	%rbp
	.cfi_def_cfa %rsp, 8
	retq
.LBB11_41:                              # %func_exit
	.cfi_def_cfa %rbp, 16
	callq	detect_breach
	jmp	.LBB11_40
.Lfunc_end11:
	.size	create_context_memory.4, .Lfunc_end11-create_context_memory.4
	.cfi_endproc
                                        # -- End function
	.section	.rodata.cst8,"aM",@progbits,8
	.p2align	3               # -- Begin function create_context_memory.5
.LCPI12_0:
	.quad	4611686018427387904     # double 2
.LCPI12_1:
	.quad	4607182418800017408     # double 1
	.text
	.globl	create_context_memory.5
	.p2align	4, 0x90
	.type	create_context_memory.5,@function
create_context_memory.5:                # @create_context_memory.5
	.cfi_startproc
# %bb.0:                                # %entry
	pushq	%rbp
	.cfi_def_cfa_offset 16
	.cfi_offset %rbp, -16
	movq	%rsp, %rbp
	.cfi_def_cfa_register %rbp
	subq	$48, %rsp
	movl	$786258885, -20(%rbp)   # imm = 0x2EDD5BC5
	movq	img, %rax
	movl	72488(%rax), %eax
	movl	%eax, -16(%rbp)
	movq	input, %rax
	cmpl	$1, 208(%rax)
	jne	.LBB12_2
# %bb.1:                                # %cond.true
	movq	input, %rax
	movl	212(%rax), %eax
	jmp	.LBB12_3
.LBB12_2:                               # %cond.false
	movl	-16(%rbp), %eax
.LBB12_3:                               # %cond.end
	movl	%eax, num_mb_per_slice
	movl	-16(%rbp), %eax
	addl	num_mb_per_slice, %eax
	subl	$1, %eax
	cltd
	idivl	num_mb_per_slice
	movl	%eax, number_of_slices
	movl	$24, %edi
	callq	malloc
	movq	%rax, initialized
	cmpq	$0, %rax
	jne	.LBB12_5
# %bb.4:                                # %if.then
	movabsq	$.L.str, %rdi
	callq	no_mem_exit
.LBB12_5:                               # %if.end
	movl	$24, %edi
	callq	malloc
	movq	%rax, model_number
	cmpq	$0, %rax
	jne	.LBB12_7
# %bb.6:                                # %if.then4
	movabsq	$.L.str.1, %rdi
	callq	no_mem_exit
.LBB12_7:                               # %if.end5
	movl	$0, -4(%rbp)
.LBB12_8:                               # %for.cond
                                        # =>This Loop Header: Depth=1
                                        #     Child Loop BB12_14 Depth 2
	cmpl	$3, -4(%rbp)
	jge	.LBB12_23
# %bb.9:                                # %for.body
                                        #   in Loop: Header=BB12_8 Depth=1
	movl	$32, %edi
	callq	malloc
	movq	initialized, %rcx
	movslq	-4(%rbp), %rdx
	movq	%rax, (%rcx,%rdx,8)
	cmpq	$0, %rax
	jne	.LBB12_11
# %bb.10:                               # %if.then9
                                        #   in Loop: Header=BB12_8 Depth=1
	movabsq	$.L.str, %rdi
	callq	no_mem_exit
.LBB12_11:                              # %if.end10
                                        #   in Loop: Header=BB12_8 Depth=1
	movl	$32, %edi
	callq	malloc
	movq	model_number, %rcx
	movslq	-4(%rbp), %rdx
	movq	%rax, (%rcx,%rdx,8)
	cmpq	$0, %rax
	jne	.LBB12_13
# %bb.12:                               # %if.then15
                                        #   in Loop: Header=BB12_8 Depth=1
	movabsq	$.L.str.1, %rdi
	callq	no_mem_exit
.LBB12_13:                              # %if.end16
                                        #   in Loop: Header=BB12_8 Depth=1
	movl	$0, -8(%rbp)
.LBB12_14:                              # %for.cond17
                                        #   Parent Loop BB12_8 Depth=1
                                        # =>  This Inner Loop Header: Depth=2
	cmpl	$4, -8(%rbp)
	jge	.LBB12_21
# %bb.15:                               # %for.body19
                                        #   in Loop: Header=BB12_14 Depth=2
	movslq	number_of_slices, %rdi
	shlq	$2, %rdi
	callq	malloc
	movq	initialized, %rcx
	movslq	-4(%rbp), %rdx
	movq	(%rcx,%rdx,8), %rcx
	movslq	-8(%rbp), %rdx
	movq	%rax, (%rcx,%rdx,8)
	cmpq	$0, %rax
	jne	.LBB12_17
# %bb.16:                               # %if.then27
                                        #   in Loop: Header=BB12_14 Depth=2
	movabsq	$.L.str, %rdi
	callq	no_mem_exit
.LBB12_17:                              # %if.end28
                                        #   in Loop: Header=BB12_14 Depth=2
	movslq	number_of_slices, %rdi
	shlq	$2, %rdi
	callq	malloc
	movq	model_number, %rcx
	movslq	-4(%rbp), %rdx
	movq	(%rcx,%rdx,8), %rcx
	movslq	-8(%rbp), %rdx
	movq	%rax, (%rcx,%rdx,8)
	cmpq	$0, %rax
	jne	.LBB12_19
# %bb.18:                               # %if.then38
                                        #   in Loop: Header=BB12_14 Depth=2
	movabsq	$.L.str.1, %rdi
	callq	no_mem_exit
.LBB12_19:                              # %if.end39
                                        #   in Loop: Header=BB12_14 Depth=2
	jmp	.LBB12_20
.LBB12_20:                              # %for.inc
                                        #   in Loop: Header=BB12_14 Depth=2
	movl	-8(%rbp), %eax
	addl	$1, %eax
	movl	%eax, -8(%rbp)
	jmp	.LBB12_14
.LBB12_21:                              # %for.end
                                        #   in Loop: Header=BB12_8 Depth=1
	jmp	.LBB12_22
.LBB12_22:                              # %for.inc40
                                        #   in Loop: Header=BB12_8 Depth=1
	movl	-4(%rbp), %eax
	addl	$1, %eax
	movl	%eax, -4(%rbp)
	jmp	.LBB12_8
.LBB12_23:                              # %for.end42
	movl	$0, -4(%rbp)
.LBB12_24:                              # %for.cond43
                                        # =>This Loop Header: Depth=1
                                        #     Child Loop BB12_26 Depth 2
                                        #       Child Loop BB12_28 Depth 3
	cmpl	$3, -4(%rbp)
	jge	.LBB12_35
# %bb.25:                               # %for.body46
                                        #   in Loop: Header=BB12_24 Depth=1
	movl	$0, -8(%rbp)
.LBB12_26:                              # %for.cond47
                                        #   Parent Loop BB12_24 Depth=1
                                        # =>  This Loop Header: Depth=2
                                        #       Child Loop BB12_28 Depth 3
	cmpl	$4, -8(%rbp)
	jge	.LBB12_33
# %bb.27:                               # %for.body50
                                        #   in Loop: Header=BB12_26 Depth=2
	movl	$0, -12(%rbp)
.LBB12_28:                              # %for.cond51
                                        #   Parent Loop BB12_24 Depth=1
                                        #     Parent Loop BB12_26 Depth=2
                                        # =>    This Inner Loop Header: Depth=3
	movl	-12(%rbp), %eax
	cmpl	number_of_slices, %eax
	jge	.LBB12_31
# %bb.29:                               # %for.body54
                                        #   in Loop: Header=BB12_28 Depth=3
	movq	initialized, %rax
	movslq	-4(%rbp), %rcx
	movq	(%rax,%rcx,8), %rax
	movslq	-8(%rbp), %rcx
	movq	(%rax,%rcx,8), %rax
	movslq	-12(%rbp), %rcx
	movl	$0, (%rax,%rcx,4)
# %bb.30:                               # %for.inc61
                                        #   in Loop: Header=BB12_28 Depth=3
	movl	-12(%rbp), %eax
	addl	$1, %eax
	movl	%eax, -12(%rbp)
	jmp	.LBB12_28
.LBB12_31:                              # %for.end63
                                        #   in Loop: Header=BB12_26 Depth=2
	jmp	.LBB12_32
.LBB12_32:                              # %for.inc64
                                        #   in Loop: Header=BB12_26 Depth=2
	movl	-8(%rbp), %eax
	addl	$1, %eax
	movl	%eax, -8(%rbp)
	jmp	.LBB12_26
.LBB12_33:                              # %for.end66
                                        #   in Loop: Header=BB12_24 Depth=1
	jmp	.LBB12_34
.LBB12_34:                              # %for.inc67
                                        #   in Loop: Header=BB12_24 Depth=1
	movl	-4(%rbp), %eax
	addl	$1, %eax
	movl	%eax, -4(%rbp)
	jmp	.LBB12_24
.LBB12_35:                              # %for.end69
	movl	$0, -4(%rbp)
.LBB12_36:                              # %for.cond70
                                        # =>This Inner Loop Header: Depth=1
	cmpl	$64, -4(%rbp)
	jge	.LBB12_39
# %bb.37:                               # %for.body73
                                        #   in Loop: Header=BB12_36 Depth=1
	vmovsd	.LCPI12_1(%rip), %xmm0  # xmm0 = mem[0],zero
	movl	$127, %eax
	subl	-4(%rbp), %eax
	cltq
	vsubsd	probability(,%rax,8), %xmm0, %xmm0
	movslq	-4(%rbp), %rax
	vmovsd	%xmm0, probability(,%rax,8)
	movslq	-4(%rbp), %rax
	vmovsd	probability(,%rax,8), %xmm0 # xmm0 = mem[0],zero
	callq	log10
	vmovsd	%xmm0, -32(%rbp)        # 8-byte Spill
	vmovsd	.LCPI12_0(%rip), %xmm0  # xmm0 = mem[0],zero
	callq	log10
	vmovsd	-32(%rbp), %xmm1        # 8-byte Reload
                                        # xmm1 = mem[0],zero
	vdivsd	%xmm0, %xmm1, %xmm0
	movslq	-4(%rbp), %rax
	vmovsd	%xmm0, entropy(,%rax,8)
	movl	$127, %eax
	subl	-4(%rbp), %eax
	cltq
	vmovsd	probability(,%rax,8), %xmm0 # xmm0 = mem[0],zero
	callq	log10
	vmovsd	%xmm0, -40(%rbp)        # 8-byte Spill
	vmovsd	.LCPI12_0(%rip), %xmm0  # xmm0 = mem[0],zero
	callq	log10
	vmovsd	-40(%rbp), %xmm1        # 8-byte Reload
                                        # xmm1 = mem[0],zero
	vdivsd	%xmm0, %xmm1, %xmm0
	movl	$127, %eax
	subl	-4(%rbp), %eax
	cltq
	vmovsd	%xmm0, entropy(,%rax,8)
# %bb.38:                               # %for.inc96
                                        #   in Loop: Header=BB12_36 Depth=1
	movl	-4(%rbp), %eax
	addl	$1, %eax
	movl	%eax, -4(%rbp)
	jmp	.LBB12_36
.LBB12_39:                              # %for.end98
	cmpl	$786258885, -20(%rbp)   # imm = 0x2EDD5BC5
	jne	.LBB12_41
.LBB12_40:
	addq	$48, %rsp
	popq	%rbp
	.cfi_def_cfa %rsp, 8
	retq
.LBB12_41:                              # %func_exit
	.cfi_def_cfa %rbp, 16
	callq	detect_breach
	jmp	.LBB12_40
.Lfunc_end12:
	.size	create_context_memory.5, .Lfunc_end12-create_context_memory.5
	.cfi_endproc
                                        # -- End function
	.globl	init_contexts.6         # -- Begin function init_contexts.6
	.p2align	4, 0x90
	.type	init_contexts.6,@function
init_contexts.6:                        # @init_contexts.6
	.cfi_startproc
# %bb.0:                                # %entry
	pushq	%rbp
	.cfi_def_cfa_offset 16
	.cfi_offset %rbp, -16
	movq	%rsp, %rbp
	.cfi_def_cfa_register %rbp
	subq	$32, %rsp
	movl	$2088986837, -28(%rbp)  # imm = 0x7C8368D5
	movq	img, %rax
	movq	14160(%rax), %rax
	movq	32(%rax), %rax
	movq	%rax, -24(%rbp)
	movq	img, %rax
	movq	14160(%rax), %rax
	movq	40(%rax), %rax
	movq	%rax, -16(%rbp)
	movl	$0, -8(%rbp)
.LBB13_1:                               # %for.cond
                                        # =>This Loop Header: Depth=1
                                        #     Child Loop BB13_3 Depth 2
	cmpl	$3, -8(%rbp)
	jge	.LBB13_11
# %bb.2:                                # %for.body
                                        #   in Loop: Header=BB13_1 Depth=1
	movl	$0, -4(%rbp)
.LBB13_3:                               # %for.cond2
                                        #   Parent Loop BB13_1 Depth=1
                                        # =>  This Inner Loop Header: Depth=2
	cmpl	$11, -4(%rbp)
	jge	.LBB13_9
# %bb.4:                                # %for.body4
                                        #   in Loop: Header=BB13_3 Depth=2
	movq	img, %rax
	cmpl	$2, 24(%rax)
	jne	.LBB13_6
# %bb.5:                                # %if.then
                                        #   in Loop: Header=BB13_3 Depth=2
	movq	-24(%rbp), %rdi
	movslq	-8(%rbp), %rax
	imulq	$176, %rax, %rax
	addq	%rax, %rdi
	movslq	-4(%rbp), %rax
	shlq	$4, %rax
	addq	%rax, %rdi
	movq	img, %rax
	movslq	72520(%rax), %rax
	imulq	$264, %rax, %rax        # imm = 0x108
	movabsq	$INIT_MB_TYPE_I, %rsi
	addq	%rax, %rsi
	movslq	-8(%rbp), %rax
	imulq	$88, %rax, %rax
	addq	%rax, %rsi
	movslq	-4(%rbp), %rax
	shlq	$3, %rax
	addq	%rax, %rsi
	callq	biari_init_context
	jmp	.LBB13_7
.LBB13_6:                               # %if.else
                                        #   in Loop: Header=BB13_3 Depth=2
	movq	-24(%rbp), %rdi
	movslq	-8(%rbp), %rax
	imulq	$176, %rax, %rax
	addq	%rax, %rdi
	movslq	-4(%rbp), %rax
	shlq	$4, %rax
	addq	%rax, %rdi
	movq	img, %rax
	movslq	72520(%rax), %rax
	imulq	$264, %rax, %rax        # imm = 0x108
	movabsq	$INIT_MB_TYPE_P, %rsi
	addq	%rax, %rsi
	movslq	-8(%rbp), %rax
	imulq	$88, %rax, %rax
	addq	%rax, %rsi
	movslq	-4(%rbp), %rax
	shlq	$3, %rax
	addq	%rax, %rsi
	callq	biari_init_context
.LBB13_7:                               # %if.end
                                        #   in Loop: Header=BB13_3 Depth=2
	jmp	.LBB13_8
.LBB13_8:                               # %for.inc
                                        #   in Loop: Header=BB13_3 Depth=2
	movl	-4(%rbp), %eax
	addl	$1, %eax
	movl	%eax, -4(%rbp)
	jmp	.LBB13_3
.LBB13_9:                               # %for.end
                                        #   in Loop: Header=BB13_1 Depth=1
	jmp	.LBB13_10
.LBB13_10:                              # %for.inc28
                                        #   in Loop: Header=BB13_1 Depth=1
	movl	-8(%rbp), %eax
	addl	$1, %eax
	movl	%eax, -8(%rbp)
	jmp	.LBB13_1
.LBB13_11:                              # %for.end30
	movl	$0, -8(%rbp)
.LBB13_12:                              # %for.cond31
                                        # =>This Loop Header: Depth=1
                                        #     Child Loop BB13_14 Depth 2
	cmpl	$2, -8(%rbp)
	jge	.LBB13_22
# %bb.13:                               # %for.body33
                                        #   in Loop: Header=BB13_12 Depth=1
	movl	$0, -4(%rbp)
.LBB13_14:                              # %for.cond34
                                        #   Parent Loop BB13_12 Depth=1
                                        # =>  This Inner Loop Header: Depth=2
	cmpl	$9, -4(%rbp)
	jge	.LBB13_20
# %bb.15:                               # %for.body36
                                        #   in Loop: Header=BB13_14 Depth=2
	movq	img, %rax
	cmpl	$2, 24(%rax)
	jne	.LBB13_17
# %bb.16:                               # %if.then39
                                        #   in Loop: Header=BB13_14 Depth=2
	movq	-24(%rbp), %rdi
	addq	$528, %rdi              # imm = 0x210
	movslq	-8(%rbp), %rax
	imulq	$144, %rax, %rax
	addq	%rax, %rdi
	movslq	-4(%rbp), %rax
	shlq	$4, %rax
	addq	%rax, %rdi
	movq	img, %rax
	movslq	72520(%rax), %rax
	imulq	$144, %rax, %rax
	movabsq	$INIT_B8_TYPE_I, %rsi
	addq	%rax, %rsi
	movslq	-8(%rbp), %rax
	imulq	$72, %rax, %rax
	addq	%rax, %rsi
	movslq	-4(%rbp), %rax
	shlq	$3, %rax
	addq	%rax, %rsi
	callq	biari_init_context
	jmp	.LBB13_18
.LBB13_17:                              # %if.else52
                                        #   in Loop: Header=BB13_14 Depth=2
	movq	-24(%rbp), %rdi
	addq	$528, %rdi              # imm = 0x210
	movslq	-8(%rbp), %rax
	imulq	$144, %rax, %rax
	addq	%rax, %rdi
	movslq	-4(%rbp), %rax
	shlq	$4, %rax
	addq	%rax, %rdi
	movq	img, %rax
	movslq	72520(%rax), %rax
	imulq	$144, %rax, %rax
	movabsq	$INIT_B8_TYPE_P, %rsi
	addq	%rax, %rsi
	movslq	-8(%rbp), %rax
	imulq	$72, %rax, %rax
	addq	%rax, %rsi
	movslq	-4(%rbp), %rax
	shlq	$3, %rax
	addq	%rax, %rsi
	callq	biari_init_context
.LBB13_18:                              # %if.end66
                                        #   in Loop: Header=BB13_14 Depth=2
	jmp	.LBB13_19
.LBB13_19:                              # %for.inc67
                                        #   in Loop: Header=BB13_14 Depth=2
	movl	-4(%rbp), %eax
	addl	$1, %eax
	movl	%eax, -4(%rbp)
	jmp	.LBB13_14
.LBB13_20:                              # %for.end69
                                        #   in Loop: Header=BB13_12 Depth=1
	jmp	.LBB13_21
.LBB13_21:                              # %for.inc70
                                        #   in Loop: Header=BB13_12 Depth=1
	movl	-8(%rbp), %eax
	addl	$1, %eax
	movl	%eax, -8(%rbp)
	jmp	.LBB13_12
.LBB13_22:                              # %for.end72
	movl	$0, -8(%rbp)
.LBB13_23:                              # %for.cond73
                                        # =>This Loop Header: Depth=1
                                        #     Child Loop BB13_25 Depth 2
	cmpl	$2, -8(%rbp)
	jge	.LBB13_33
# %bb.24:                               # %for.body75
                                        #   in Loop: Header=BB13_23 Depth=1
	movl	$0, -4(%rbp)
.LBB13_25:                              # %for.cond76
                                        #   Parent Loop BB13_23 Depth=1
                                        # =>  This Inner Loop Header: Depth=2
	cmpl	$10, -4(%rbp)
	jge	.LBB13_31
# %bb.26:                               # %for.body78
                                        #   in Loop: Header=BB13_25 Depth=2
	movq	img, %rax
	cmpl	$2, 24(%rax)
	jne	.LBB13_28
# %bb.27:                               # %if.then81
                                        #   in Loop: Header=BB13_25 Depth=2
	movq	-24(%rbp), %rdi
	addq	$816, %rdi              # imm = 0x330
	movslq	-8(%rbp), %rax
	imulq	$160, %rax, %rax
	addq	%rax, %rdi
	movslq	-4(%rbp), %rax
	shlq	$4, %rax
	addq	%rax, %rdi
	movq	img, %rax
	movslq	72520(%rax), %rax
	imulq	$160, %rax, %rax
	movabsq	$INIT_MV_RES_I, %rsi
	addq	%rax, %rsi
	movslq	-8(%rbp), %rax
	imulq	$80, %rax, %rax
	addq	%rax, %rsi
	movslq	-4(%rbp), %rax
	shlq	$3, %rax
	addq	%rax, %rsi
	callq	biari_init_context
	jmp	.LBB13_29
.LBB13_28:                              # %if.else94
                                        #   in Loop: Header=BB13_25 Depth=2
	movq	-24(%rbp), %rdi
	addq	$816, %rdi              # imm = 0x330
	movslq	-8(%rbp), %rax
	imulq	$160, %rax, %rax
	addq	%rax, %rdi
	movslq	-4(%rbp), %rax
	shlq	$4, %rax
	addq	%rax, %rdi
	movq	img, %rax
	movslq	72520(%rax), %rax
	imulq	$160, %rax, %rax
	movabsq	$INIT_MV_RES_P, %rsi
	addq	%rax, %rsi
	movslq	-8(%rbp), %rax
	imulq	$80, %rax, %rax
	addq	%rax, %rsi
	movslq	-4(%rbp), %rax
	shlq	$3, %rax
	addq	%rax, %rsi
	callq	biari_init_context
.LBB13_29:                              # %if.end108
                                        #   in Loop: Header=BB13_25 Depth=2
	jmp	.LBB13_30
.LBB13_30:                              # %for.inc109
                                        #   in Loop: Header=BB13_25 Depth=2
	movl	-4(%rbp), %eax
	addl	$1, %eax
	movl	%eax, -4(%rbp)
	jmp	.LBB13_25
.LBB13_31:                              # %for.end111
                                        #   in Loop: Header=BB13_23 Depth=1
	jmp	.LBB13_32
.LBB13_32:                              # %for.inc112
                                        #   in Loop: Header=BB13_23 Depth=1
	movl	-8(%rbp), %eax
	addl	$1, %eax
	movl	%eax, -8(%rbp)
	jmp	.LBB13_23
.LBB13_33:                              # %for.end114
	movl	$0, -8(%rbp)
.LBB13_34:                              # %for.cond115
                                        # =>This Loop Header: Depth=1
                                        #     Child Loop BB13_36 Depth 2
	cmpl	$2, -8(%rbp)
	jge	.LBB13_44
# %bb.35:                               # %for.body117
                                        #   in Loop: Header=BB13_34 Depth=1
	movl	$0, -4(%rbp)
.LBB13_36:                              # %for.cond118
                                        #   Parent Loop BB13_34 Depth=1
                                        # =>  This Inner Loop Header: Depth=2
	cmpl	$6, -4(%rbp)
	jge	.LBB13_42
# %bb.37:                               # %for.body120
                                        #   in Loop: Header=BB13_36 Depth=2
	movq	img, %rax
	cmpl	$2, 24(%rax)
	jne	.LBB13_39
# %bb.38:                               # %if.then123
                                        #   in Loop: Header=BB13_36 Depth=2
	movq	-24(%rbp), %rdi
	addq	$1136, %rdi             # imm = 0x470
	movslq	-8(%rbp), %rax
	imulq	$96, %rax, %rax
	addq	%rax, %rdi
	movslq	-4(%rbp), %rax
	shlq	$4, %rax
	addq	%rax, %rdi
	movq	img, %rax
	movslq	72520(%rax), %rax
	imulq	$96, %rax, %rax
	movabsq	$INIT_REF_NO_I, %rsi
	addq	%rax, %rsi
	movslq	-8(%rbp), %rax
	imulq	$48, %rax, %rax
	addq	%rax, %rsi
	movslq	-4(%rbp), %rax
	shlq	$3, %rax
	addq	%rax, %rsi
	callq	biari_init_context
	jmp	.LBB13_40
.LBB13_39:                              # %if.else136
                                        #   in Loop: Header=BB13_36 Depth=2
	movq	-24(%rbp), %rdi
	addq	$1136, %rdi             # imm = 0x470
	movslq	-8(%rbp), %rax
	imulq	$96, %rax, %rax
	addq	%rax, %rdi
	movslq	-4(%rbp), %rax
	shlq	$4, %rax
	addq	%rax, %rdi
	movq	img, %rax
	movslq	72520(%rax), %rax
	imulq	$96, %rax, %rax
	movabsq	$INIT_REF_NO_P, %rsi
	addq	%rax, %rsi
	movslq	-8(%rbp), %rax
	imulq	$48, %rax, %rax
	addq	%rax, %rsi
	movslq	-4(%rbp), %rax
	shlq	$3, %rax
	addq	%rax, %rsi
	callq	biari_init_context
.LBB13_40:                              # %if.end150
                                        #   in Loop: Header=BB13_36 Depth=2
	jmp	.LBB13_41
.LBB13_41:                              # %for.inc151
                                        #   in Loop: Header=BB13_36 Depth=2
	movl	-4(%rbp), %eax
	addl	$1, %eax
	movl	%eax, -4(%rbp)
	jmp	.LBB13_36
.LBB13_42:                              # %for.end153
                                        #   in Loop: Header=BB13_34 Depth=1
	jmp	.LBB13_43
.LBB13_43:                              # %for.inc154
                                        #   in Loop: Header=BB13_34 Depth=1
	movl	-8(%rbp), %eax
	addl	$1, %eax
	movl	%eax, -8(%rbp)
	jmp	.LBB13_34
.LBB13_44:                              # %for.end156
	movl	$0, -4(%rbp)
.LBB13_45:                              # %for.cond157
                                        # =>This Inner Loop Header: Depth=1
	cmpl	$4, -4(%rbp)
	jge	.LBB13_51
# %bb.46:                               # %for.body159
                                        #   in Loop: Header=BB13_45 Depth=1
	movq	img, %rax
	cmpl	$2, 24(%rax)
	jne	.LBB13_48
# %bb.47:                               # %if.then162
                                        #   in Loop: Header=BB13_45 Depth=1
	movq	-24(%rbp), %rdi
	addq	$1328, %rdi             # imm = 0x530
	movslq	-4(%rbp), %rax
	shlq	$4, %rax
	addq	%rax, %rdi
	movq	img, %rax
	movslq	72520(%rax), %rax
	shlq	$5, %rax
	movabsq	$INIT_DELTA_QP_I, %rsi
	addq	%rax, %rsi
	movslq	-4(%rbp), %rax
	shlq	$3, %rax
	addq	%rax, %rsi
	callq	biari_init_context
	jmp	.LBB13_49
.LBB13_48:                              # %if.else172
                                        #   in Loop: Header=BB13_45 Depth=1
	movq	-24(%rbp), %rdi
	addq	$1328, %rdi             # imm = 0x530
	movslq	-4(%rbp), %rax
	shlq	$4, %rax
	addq	%rax, %rdi
	movq	img, %rax
	movslq	72520(%rax), %rax
	shlq	$5, %rax
	movabsq	$INIT_DELTA_QP_P, %rsi
	addq	%rax, %rsi
	movslq	-4(%rbp), %rax
	shlq	$3, %rax
	addq	%rax, %rsi
	callq	biari_init_context
.LBB13_49:                              # %if.end183
                                        #   in Loop: Header=BB13_45 Depth=1
	jmp	.LBB13_50
.LBB13_50:                              # %for.inc184
                                        #   in Loop: Header=BB13_45 Depth=1
	movl	-4(%rbp), %eax
	addl	$1, %eax
	movl	%eax, -4(%rbp)
	jmp	.LBB13_45
.LBB13_51:                              # %for.end186
	movl	$0, -4(%rbp)
.LBB13_52:                              # %for.cond187
                                        # =>This Inner Loop Header: Depth=1
	cmpl	$4, -4(%rbp)
	jge	.LBB13_58
# %bb.53:                               # %for.body189
                                        #   in Loop: Header=BB13_52 Depth=1
	movq	img, %rax
	cmpl	$2, 24(%rax)
	jne	.LBB13_55
# %bb.54:                               # %if.then192
                                        #   in Loop: Header=BB13_52 Depth=1
	movq	-24(%rbp), %rdi
	addq	$1392, %rdi             # imm = 0x570
	movslq	-4(%rbp), %rax
	shlq	$4, %rax
	addq	%rax, %rdi
	movq	img, %rax
	movslq	72520(%rax), %rax
	shlq	$5, %rax
	movabsq	$INIT_MB_AFF_I, %rsi
	addq	%rax, %rsi
	movslq	-4(%rbp), %rax
	shlq	$3, %rax
	addq	%rax, %rsi
	callq	biari_init_context
	jmp	.LBB13_56
.LBB13_55:                              # %if.else202
                                        #   in Loop: Header=BB13_52 Depth=1
	movq	-24(%rbp), %rdi
	addq	$1392, %rdi             # imm = 0x570
	movslq	-4(%rbp), %rax
	shlq	$4, %rax
	addq	%rax, %rdi
	movq	img, %rax
	movslq	72520(%rax), %rax
	shlq	$5, %rax
	movabsq	$INIT_MB_AFF_P, %rsi
	addq	%rax, %rsi
	movslq	-4(%rbp), %rax
	shlq	$3, %rax
	addq	%rax, %rsi
	callq	biari_init_context
.LBB13_56:                              # %if.end213
                                        #   in Loop: Header=BB13_52 Depth=1
	jmp	.LBB13_57
.LBB13_57:                              # %for.inc214
                                        #   in Loop: Header=BB13_52 Depth=1
	movl	-4(%rbp), %eax
	addl	$1, %eax
	movl	%eax, -4(%rbp)
	jmp	.LBB13_52
.LBB13_58:                              # %for.end216
	movl	$0, -4(%rbp)
.LBB13_59:                              # %for.cond217
                                        # =>This Inner Loop Header: Depth=1
	cmpl	$3, -4(%rbp)
	jge	.LBB13_65
# %bb.60:                               # %for.body219
                                        #   in Loop: Header=BB13_59 Depth=1
	movq	img, %rax
	cmpl	$2, 24(%rax)
	jne	.LBB13_62
# %bb.61:                               # %if.then222
                                        #   in Loop: Header=BB13_59 Depth=1
	movq	-24(%rbp), %rdi
	addq	$1456, %rdi             # imm = 0x5B0
	movslq	-4(%rbp), %rax
	shlq	$4, %rax
	addq	%rax, %rdi
	movq	img, %rax
	movslq	72520(%rax), %rax
	imulq	$24, %rax, %rax
	movabsq	$INIT_TRANSFORM_SIZE_I, %rsi
	addq	%rax, %rsi
	movslq	-4(%rbp), %rax
	shlq	$3, %rax
	addq	%rax, %rsi
	callq	biari_init_context
	jmp	.LBB13_63
.LBB13_62:                              # %if.else232
                                        #   in Loop: Header=BB13_59 Depth=1
	movq	-24(%rbp), %rdi
	addq	$1456, %rdi             # imm = 0x5B0
	movslq	-4(%rbp), %rax
	shlq	$4, %rax
	addq	%rax, %rdi
	movq	img, %rax
	movslq	72520(%rax), %rax
	imulq	$24, %rax, %rax
	movabsq	$INIT_TRANSFORM_SIZE_P, %rsi
	addq	%rax, %rsi
	movslq	-4(%rbp), %rax
	shlq	$3, %rax
	addq	%rax, %rsi
	callq	biari_init_context
.LBB13_63:                              # %if.end243
                                        #   in Loop: Header=BB13_59 Depth=1
	jmp	.LBB13_64
.LBB13_64:                              # %for.inc244
                                        #   in Loop: Header=BB13_59 Depth=1
	movl	-4(%rbp), %eax
	addl	$1, %eax
	movl	%eax, -4(%rbp)
	jmp	.LBB13_59
.LBB13_65:                              # %for.end246
	movl	$0, -4(%rbp)
.LBB13_66:                              # %for.cond247
                                        # =>This Inner Loop Header: Depth=1
	cmpl	$2, -4(%rbp)
	jge	.LBB13_72
# %bb.67:                               # %for.body249
                                        #   in Loop: Header=BB13_66 Depth=1
	movq	img, %rax
	cmpl	$2, 24(%rax)
	jne	.LBB13_69
# %bb.68:                               # %if.then252
                                        #   in Loop: Header=BB13_66 Depth=1
	movq	-16(%rbp), %rdi
	movslq	-4(%rbp), %rax
	shlq	$4, %rax
	addq	%rax, %rdi
	movq	img, %rax
	movslq	72520(%rax), %rax
	shlq	$4, %rax
	movabsq	$INIT_IPR_I, %rsi
	addq	%rax, %rsi
	movslq	-4(%rbp), %rax
	shlq	$3, %rax
	addq	%rax, %rsi
	callq	biari_init_context
	jmp	.LBB13_70
.LBB13_69:                              # %if.else262
                                        #   in Loop: Header=BB13_66 Depth=1
	movq	-16(%rbp), %rdi
	movslq	-4(%rbp), %rax
	shlq	$4, %rax
	addq	%rax, %rdi
	movq	img, %rax
	movslq	72520(%rax), %rax
	shlq	$4, %rax
	movabsq	$INIT_IPR_P, %rsi
	addq	%rax, %rsi
	movslq	-4(%rbp), %rax
	shlq	$3, %rax
	addq	%rax, %rsi
	callq	biari_init_context
.LBB13_70:                              # %if.end273
                                        #   in Loop: Header=BB13_66 Depth=1
	jmp	.LBB13_71
.LBB13_71:                              # %for.inc274
                                        #   in Loop: Header=BB13_66 Depth=1
	movl	-4(%rbp), %eax
	addl	$1, %eax
	movl	%eax, -4(%rbp)
	jmp	.LBB13_66
.LBB13_72:                              # %for.end276
	movl	$0, -4(%rbp)
.LBB13_73:                              # %for.cond277
                                        # =>This Inner Loop Header: Depth=1
	cmpl	$4, -4(%rbp)
	jge	.LBB13_79
# %bb.74:                               # %for.body279
                                        #   in Loop: Header=BB13_73 Depth=1
	movq	img, %rax
	cmpl	$2, 24(%rax)
	jne	.LBB13_76
# %bb.75:                               # %if.then282
                                        #   in Loop: Header=BB13_73 Depth=1
	movq	-16(%rbp), %rdi
	addq	$32, %rdi
	movslq	-4(%rbp), %rax
	shlq	$4, %rax
	addq	%rax, %rdi
	movq	img, %rax
	movslq	72520(%rax), %rax
	shlq	$5, %rax
	movabsq	$INIT_CIPR_I, %rsi
	addq	%rax, %rsi
	movslq	-4(%rbp), %rax
	shlq	$3, %rax
	addq	%rax, %rsi
	callq	biari_init_context
	jmp	.LBB13_77
.LBB13_76:                              # %if.else292
                                        #   in Loop: Header=BB13_73 Depth=1
	movq	-16(%rbp), %rdi
	addq	$32, %rdi
	movslq	-4(%rbp), %rax
	shlq	$4, %rax
	addq	%rax, %rdi
	movq	img, %rax
	movslq	72520(%rax), %rax
	shlq	$5, %rax
	movabsq	$INIT_CIPR_P, %rsi
	addq	%rax, %rsi
	movslq	-4(%rbp), %rax
	shlq	$3, %rax
	addq	%rax, %rsi
	callq	biari_init_context
.LBB13_77:                              # %if.end303
                                        #   in Loop: Header=BB13_73 Depth=1
	jmp	.LBB13_78
.LBB13_78:                              # %for.inc304
                                        #   in Loop: Header=BB13_73 Depth=1
	movl	-4(%rbp), %eax
	addl	$1, %eax
	movl	%eax, -4(%rbp)
	jmp	.LBB13_73
.LBB13_79:                              # %for.end306
	movl	$0, -8(%rbp)
.LBB13_80:                              # %for.cond307
                                        # =>This Loop Header: Depth=1
                                        #     Child Loop BB13_82 Depth 2
	cmpl	$3, -8(%rbp)
	jge	.LBB13_90
# %bb.81:                               # %for.body309
                                        #   in Loop: Header=BB13_80 Depth=1
	movl	$0, -4(%rbp)
.LBB13_82:                              # %for.cond310
                                        #   Parent Loop BB13_80 Depth=1
                                        # =>  This Inner Loop Header: Depth=2
	cmpl	$4, -4(%rbp)
	jge	.LBB13_88
# %bb.83:                               # %for.body312
                                        #   in Loop: Header=BB13_82 Depth=2
	movq	img, %rax
	cmpl	$2, 24(%rax)
	jne	.LBB13_85
# %bb.84:                               # %if.then315
                                        #   in Loop: Header=BB13_82 Depth=2
	movq	-16(%rbp), %rdi
	addq	$96, %rdi
	movslq	-8(%rbp), %rax
	shlq	$6, %rax
	addq	%rax, %rdi
	movslq	-4(%rbp), %rax
	shlq	$4, %rax
	addq	%rax, %rdi
	movq	img, %rax
	movslq	72520(%rax), %rax
	imulq	$96, %rax, %rax
	movabsq	$INIT_CBP_I, %rsi
	addq	%rax, %rsi
	movslq	-8(%rbp), %rax
	shlq	$5, %rax
	addq	%rax, %rsi
	movslq	-4(%rbp), %rax
	shlq	$3, %rax
	addq	%rax, %rsi
	callq	biari_init_context
	jmp	.LBB13_86
.LBB13_85:                              # %if.else328
                                        #   in Loop: Header=BB13_82 Depth=2
	movq	-16(%rbp), %rdi
	addq	$96, %rdi
	movslq	-8(%rbp), %rax
	shlq	$6, %rax
	addq	%rax, %rdi
	movslq	-4(%rbp), %rax
	shlq	$4, %rax
	addq	%rax, %rdi
	movq	img, %rax
	movslq	72520(%rax), %rax
	imulq	$96, %rax, %rax
	movabsq	$INIT_CBP_P, %rsi
	addq	%rax, %rsi
	movslq	-8(%rbp), %rax
	shlq	$5, %rax
	addq	%rax, %rsi
	movslq	-4(%rbp), %rax
	shlq	$3, %rax
	addq	%rax, %rsi
	callq	biari_init_context
.LBB13_86:                              # %if.end342
                                        #   in Loop: Header=BB13_82 Depth=2
	jmp	.LBB13_87
.LBB13_87:                              # %for.inc343
                                        #   in Loop: Header=BB13_82 Depth=2
	movl	-4(%rbp), %eax
	addl	$1, %eax
	movl	%eax, -4(%rbp)
	jmp	.LBB13_82
.LBB13_88:                              # %for.end345
                                        #   in Loop: Header=BB13_80 Depth=1
	jmp	.LBB13_89
.LBB13_89:                              # %for.inc346
                                        #   in Loop: Header=BB13_80 Depth=1
	movl	-8(%rbp), %eax
	addl	$1, %eax
	movl	%eax, -8(%rbp)
	jmp	.LBB13_80
.LBB13_90:                              # %for.end348
	movl	$0, -8(%rbp)
.LBB13_91:                              # %for.cond349
                                        # =>This Loop Header: Depth=1
                                        #     Child Loop BB13_93 Depth 2
	cmpl	$10, -8(%rbp)
	jge	.LBB13_101
# %bb.92:                               # %for.body351
                                        #   in Loop: Header=BB13_91 Depth=1
	movl	$0, -4(%rbp)
.LBB13_93:                              # %for.cond352
                                        #   Parent Loop BB13_91 Depth=1
                                        # =>  This Inner Loop Header: Depth=2
	cmpl	$4, -4(%rbp)
	jge	.LBB13_99
# %bb.94:                               # %for.body354
                                        #   in Loop: Header=BB13_93 Depth=2
	movq	img, %rax
	cmpl	$2, 24(%rax)
	jne	.LBB13_96
# %bb.95:                               # %if.then357
                                        #   in Loop: Header=BB13_93 Depth=2
	movq	-16(%rbp), %rdi
	addq	$288, %rdi              # imm = 0x120
	movslq	-8(%rbp), %rax
	shlq	$6, %rax
	addq	%rax, %rdi
	movslq	-4(%rbp), %rax
	shlq	$4, %rax
	addq	%rax, %rdi
	movq	img, %rax
	movslq	72520(%rax), %rax
	shlq	$8, %rax
	movabsq	$INIT_BCBP_I, %rsi
	addq	%rax, %rsi
	movslq	-8(%rbp), %rax
	shlq	$5, %rax
	addq	%rax, %rsi
	movslq	-4(%rbp), %rax
	shlq	$3, %rax
	addq	%rax, %rsi
	callq	biari_init_context
	jmp	.LBB13_97
.LBB13_96:                              # %if.else370
                                        #   in Loop: Header=BB13_93 Depth=2
	movq	-16(%rbp), %rdi
	addq	$288, %rdi              # imm = 0x120
	movslq	-8(%rbp), %rax
	shlq	$6, %rax
	addq	%rax, %rdi
	movslq	-4(%rbp), %rax
	shlq	$4, %rax
	addq	%rax, %rdi
	movq	img, %rax
	movslq	72520(%rax), %rax
	shlq	$8, %rax
	movabsq	$INIT_BCBP_P, %rsi
	addq	%rax, %rsi
	movslq	-8(%rbp), %rax
	shlq	$5, %rax
	addq	%rax, %rsi
	movslq	-4(%rbp), %rax
	shlq	$3, %rax
	addq	%rax, %rsi
	callq	biari_init_context
.LBB13_97:                              # %if.end384
                                        #   in Loop: Header=BB13_93 Depth=2
	jmp	.LBB13_98
.LBB13_98:                              # %for.inc385
                                        #   in Loop: Header=BB13_93 Depth=2
	movl	-4(%rbp), %eax
	addl	$1, %eax
	movl	%eax, -4(%rbp)
	jmp	.LBB13_93
.LBB13_99:                              # %for.end387
                                        #   in Loop: Header=BB13_91 Depth=1
	jmp	.LBB13_100
.LBB13_100:                             # %for.inc388
                                        #   in Loop: Header=BB13_91 Depth=1
	movl	-8(%rbp), %eax
	addl	$1, %eax
	movl	%eax, -8(%rbp)
	jmp	.LBB13_91
.LBB13_101:                             # %for.end390
	movl	$0, -8(%rbp)
.LBB13_102:                             # %for.cond391
                                        # =>This Loop Header: Depth=1
                                        #     Child Loop BB13_104 Depth 2
	cmpl	$10, -8(%rbp)
	jge	.LBB13_112
# %bb.103:                              # %for.body393
                                        #   in Loop: Header=BB13_102 Depth=1
	movl	$0, -4(%rbp)
.LBB13_104:                             # %for.cond394
                                        #   Parent Loop BB13_102 Depth=1
                                        # =>  This Inner Loop Header: Depth=2
	cmpl	$15, -4(%rbp)
	jge	.LBB13_110
# %bb.105:                              # %for.body396
                                        #   in Loop: Header=BB13_104 Depth=2
	movq	img, %rax
	cmpl	$2, 24(%rax)
	jne	.LBB13_107
# %bb.106:                              # %if.then399
                                        #   in Loop: Header=BB13_104 Depth=2
	movq	-16(%rbp), %rdi
	addq	$928, %rdi              # imm = 0x3A0
	movslq	-8(%rbp), %rax
	imulq	$240, %rax, %rax
	addq	%rax, %rdi
	movslq	-4(%rbp), %rax
	shlq	$4, %rax
	addq	%rax, %rdi
	movq	img, %rax
	movslq	72520(%rax), %rax
	imulq	$960, %rax, %rax        # imm = 0x3C0
	movabsq	$INIT_MAP_I, %rsi
	addq	%rax, %rsi
	movslq	-8(%rbp), %rax
	imulq	$120, %rax, %rax
	addq	%rax, %rsi
	movslq	-4(%rbp), %rax
	shlq	$3, %rax
	addq	%rax, %rsi
	callq	biari_init_context
	jmp	.LBB13_108
.LBB13_107:                             # %if.else412
                                        #   in Loop: Header=BB13_104 Depth=2
	movq	-16(%rbp), %rdi
	addq	$928, %rdi              # imm = 0x3A0
	movslq	-8(%rbp), %rax
	imulq	$240, %rax, %rax
	addq	%rax, %rdi
	movslq	-4(%rbp), %rax
	shlq	$4, %rax
	addq	%rax, %rdi
	movq	img, %rax
	movslq	72520(%rax), %rax
	imulq	$960, %rax, %rax        # imm = 0x3C0
	movabsq	$INIT_MAP_P, %rsi
	addq	%rax, %rsi
	movslq	-8(%rbp), %rax
	imulq	$120, %rax, %rax
	addq	%rax, %rsi
	movslq	-4(%rbp), %rax
	shlq	$3, %rax
	addq	%rax, %rsi
	callq	biari_init_context
.LBB13_108:                             # %if.end426
                                        #   in Loop: Header=BB13_104 Depth=2
	jmp	.LBB13_109
.LBB13_109:                             # %for.inc427
                                        #   in Loop: Header=BB13_104 Depth=2
	movl	-4(%rbp), %eax
	addl	$1, %eax
	movl	%eax, -4(%rbp)
	jmp	.LBB13_104
.LBB13_110:                             # %for.end429
                                        #   in Loop: Header=BB13_102 Depth=1
	jmp	.LBB13_111
.LBB13_111:                             # %for.inc430
                                        #   in Loop: Header=BB13_102 Depth=1
	movl	-8(%rbp), %eax
	addl	$1, %eax
	movl	%eax, -8(%rbp)
	jmp	.LBB13_102
.LBB13_112:                             # %for.end432
	movl	$0, -8(%rbp)
.LBB13_113:                             # %for.cond433
                                        # =>This Loop Header: Depth=1
                                        #     Child Loop BB13_115 Depth 2
	cmpl	$10, -8(%rbp)
	jge	.LBB13_123
# %bb.114:                              # %for.body435
                                        #   in Loop: Header=BB13_113 Depth=1
	movl	$0, -4(%rbp)
.LBB13_115:                             # %for.cond436
                                        #   Parent Loop BB13_113 Depth=1
                                        # =>  This Inner Loop Header: Depth=2
	cmpl	$15, -4(%rbp)
	jge	.LBB13_121
# %bb.116:                              # %for.body438
                                        #   in Loop: Header=BB13_115 Depth=2
	movq	img, %rax
	cmpl	$2, 24(%rax)
	jne	.LBB13_118
# %bb.117:                              # %if.then441
                                        #   in Loop: Header=BB13_115 Depth=2
	movq	-16(%rbp), %rdi
	addq	$3328, %rdi             # imm = 0xD00
	movslq	-8(%rbp), %rax
	imulq	$240, %rax, %rax
	addq	%rax, %rdi
	movslq	-4(%rbp), %rax
	shlq	$4, %rax
	addq	%rax, %rdi
	movq	img, %rax
	movslq	72520(%rax), %rax
	imulq	$960, %rax, %rax        # imm = 0x3C0
	movabsq	$INIT_LAST_I, %rsi
	addq	%rax, %rsi
	movslq	-8(%rbp), %rax
	imulq	$120, %rax, %rax
	addq	%rax, %rsi
	movslq	-4(%rbp), %rax
	shlq	$3, %rax
	addq	%rax, %rsi
	callq	biari_init_context
	jmp	.LBB13_119
.LBB13_118:                             # %if.else454
                                        #   in Loop: Header=BB13_115 Depth=2
	movq	-16(%rbp), %rdi
	addq	$3328, %rdi             # imm = 0xD00
	movslq	-8(%rbp), %rax
	imulq	$240, %rax, %rax
	addq	%rax, %rdi
	movslq	-4(%rbp), %rax
	shlq	$4, %rax
	addq	%rax, %rdi
	movq	img, %rax
	movslq	72520(%rax), %rax
	imulq	$960, %rax, %rax        # imm = 0x3C0
	movabsq	$INIT_LAST_P, %rsi
	addq	%rax, %rsi
	movslq	-8(%rbp), %rax
	imulq	$120, %rax, %rax
	addq	%rax, %rsi
	movslq	-4(%rbp), %rax
	shlq	$3, %rax
	addq	%rax, %rsi
	callq	biari_init_context
.LBB13_119:                             # %if.end468
                                        #   in Loop: Header=BB13_115 Depth=2
	jmp	.LBB13_120
.LBB13_120:                             # %for.inc469
                                        #   in Loop: Header=BB13_115 Depth=2
	movl	-4(%rbp), %eax
	addl	$1, %eax
	movl	%eax, -4(%rbp)
	jmp	.LBB13_115
.LBB13_121:                             # %for.end471
                                        #   in Loop: Header=BB13_113 Depth=1
	jmp	.LBB13_122
.LBB13_122:                             # %for.inc472
                                        #   in Loop: Header=BB13_113 Depth=1
	movl	-8(%rbp), %eax
	addl	$1, %eax
	movl	%eax, -8(%rbp)
	jmp	.LBB13_113
.LBB13_123:                             # %for.end474
	movl	$0, -8(%rbp)
.LBB13_124:                             # %for.cond475
                                        # =>This Loop Header: Depth=1
                                        #     Child Loop BB13_126 Depth 2
	cmpl	$10, -8(%rbp)
	jge	.LBB13_134
# %bb.125:                              # %for.body477
                                        #   in Loop: Header=BB13_124 Depth=1
	movl	$0, -4(%rbp)
.LBB13_126:                             # %for.cond478
                                        #   Parent Loop BB13_124 Depth=1
                                        # =>  This Inner Loop Header: Depth=2
	cmpl	$5, -4(%rbp)
	jge	.LBB13_132
# %bb.127:                              # %for.body480
                                        #   in Loop: Header=BB13_126 Depth=2
	movq	img, %rax
	cmpl	$2, 24(%rax)
	jne	.LBB13_129
# %bb.128:                              # %if.then483
                                        #   in Loop: Header=BB13_126 Depth=2
	movq	-16(%rbp), %rdi
	addq	$5728, %rdi             # imm = 0x1660
	movslq	-8(%rbp), %rax
	imulq	$80, %rax, %rax
	addq	%rax, %rdi
	movslq	-4(%rbp), %rax
	shlq	$4, %rax
	addq	%rax, %rdi
	movq	img, %rax
	movslq	72520(%rax), %rax
	imulq	$320, %rax, %rax        # imm = 0x140
	movabsq	$INIT_ONE_I, %rsi
	addq	%rax, %rsi
	movslq	-8(%rbp), %rax
	imulq	$40, %rax, %rax
	addq	%rax, %rsi
	movslq	-4(%rbp), %rax
	shlq	$3, %rax
	addq	%rax, %rsi
	callq	biari_init_context
	jmp	.LBB13_130
.LBB13_129:                             # %if.else496
                                        #   in Loop: Header=BB13_126 Depth=2
	movq	-16(%rbp), %rdi
	addq	$5728, %rdi             # imm = 0x1660
	movslq	-8(%rbp), %rax
	imulq	$80, %rax, %rax
	addq	%rax, %rdi
	movslq	-4(%rbp), %rax
	shlq	$4, %rax
	addq	%rax, %rdi
	movq	img, %rax
	movslq	72520(%rax), %rax
	imulq	$320, %rax, %rax        # imm = 0x140
	movabsq	$INIT_ONE_P, %rsi
	addq	%rax, %rsi
	movslq	-8(%rbp), %rax
	imulq	$40, %rax, %rax
	addq	%rax, %rsi
	movslq	-4(%rbp), %rax
	shlq	$3, %rax
	addq	%rax, %rsi
	callq	biari_init_context
.LBB13_130:                             # %if.end510
                                        #   in Loop: Header=BB13_126 Depth=2
	jmp	.LBB13_131
.LBB13_131:                             # %for.inc511
                                        #   in Loop: Header=BB13_126 Depth=2
	movl	-4(%rbp), %eax
	addl	$1, %eax
	movl	%eax, -4(%rbp)
	jmp	.LBB13_126
.LBB13_132:                             # %for.end513
                                        #   in Loop: Header=BB13_124 Depth=1
	jmp	.LBB13_133
.LBB13_133:                             # %for.inc514
                                        #   in Loop: Header=BB13_124 Depth=1
	movl	-8(%rbp), %eax
	addl	$1, %eax
	movl	%eax, -8(%rbp)
	jmp	.LBB13_124
.LBB13_134:                             # %for.end516
	movl	$0, -8(%rbp)
.LBB13_135:                             # %for.cond517
                                        # =>This Loop Header: Depth=1
                                        #     Child Loop BB13_137 Depth 2
	cmpl	$10, -8(%rbp)
	jge	.LBB13_145
# %bb.136:                              # %for.body519
                                        #   in Loop: Header=BB13_135 Depth=1
	movl	$0, -4(%rbp)
.LBB13_137:                             # %for.cond520
                                        #   Parent Loop BB13_135 Depth=1
                                        # =>  This Inner Loop Header: Depth=2
	cmpl	$5, -4(%rbp)
	jge	.LBB13_143
# %bb.138:                              # %for.body522
                                        #   in Loop: Header=BB13_137 Depth=2
	movq	img, %rax
	cmpl	$2, 24(%rax)
	jne	.LBB13_140
# %bb.139:                              # %if.then525
                                        #   in Loop: Header=BB13_137 Depth=2
	movq	-16(%rbp), %rdi
	addq	$6528, %rdi             # imm = 0x1980
	movslq	-8(%rbp), %rax
	imulq	$80, %rax, %rax
	addq	%rax, %rdi
	movslq	-4(%rbp), %rax
	shlq	$4, %rax
	addq	%rax, %rdi
	movq	img, %rax
	movslq	72520(%rax), %rax
	imulq	$320, %rax, %rax        # imm = 0x140
	movabsq	$INIT_ABS_I, %rsi
	addq	%rax, %rsi
	movslq	-8(%rbp), %rax
	imulq	$40, %rax, %rax
	addq	%rax, %rsi
	movslq	-4(%rbp), %rax
	shlq	$3, %rax
	addq	%rax, %rsi
	callq	biari_init_context
	jmp	.LBB13_141
.LBB13_140:                             # %if.else538
                                        #   in Loop: Header=BB13_137 Depth=2
	movq	-16(%rbp), %rdi
	addq	$6528, %rdi             # imm = 0x1980
	movslq	-8(%rbp), %rax
	imulq	$80, %rax, %rax
	addq	%rax, %rdi
	movslq	-4(%rbp), %rax
	shlq	$4, %rax
	addq	%rax, %rdi
	movq	img, %rax
	movslq	72520(%rax), %rax
	imulq	$320, %rax, %rax        # imm = 0x140
	movabsq	$INIT_ABS_P, %rsi
	addq	%rax, %rsi
	movslq	-8(%rbp), %rax
	imulq	$40, %rax, %rax
	addq	%rax, %rsi
	movslq	-4(%rbp), %rax
	shlq	$3, %rax
	addq	%rax, %rsi
	callq	biari_init_context
.LBB13_141:                             # %if.end552
                                        #   in Loop: Header=BB13_137 Depth=2
	jmp	.LBB13_142
.LBB13_142:                             # %for.inc553
                                        #   in Loop: Header=BB13_137 Depth=2
	movl	-4(%rbp), %eax
	addl	$1, %eax
	movl	%eax, -4(%rbp)
	jmp	.LBB13_137
.LBB13_143:                             # %for.end555
                                        #   in Loop: Header=BB13_135 Depth=1
	jmp	.LBB13_144
.LBB13_144:                             # %for.inc556
                                        #   in Loop: Header=BB13_135 Depth=1
	movl	-8(%rbp), %eax
	addl	$1, %eax
	movl	%eax, -8(%rbp)
	jmp	.LBB13_135
.LBB13_145:                             # %for.end558
	movl	$0, -8(%rbp)
.LBB13_146:                             # %for.cond559
                                        # =>This Loop Header: Depth=1
                                        #     Child Loop BB13_148 Depth 2
	cmpl	$10, -8(%rbp)
	jge	.LBB13_156
# %bb.147:                              # %for.body561
                                        #   in Loop: Header=BB13_146 Depth=1
	movl	$0, -4(%rbp)
.LBB13_148:                             # %for.cond562
                                        #   Parent Loop BB13_146 Depth=1
                                        # =>  This Inner Loop Header: Depth=2
	cmpl	$15, -4(%rbp)
	jge	.LBB13_154
# %bb.149:                              # %for.body564
                                        #   in Loop: Header=BB13_148 Depth=2
	movq	img, %rax
	cmpl	$2, 24(%rax)
	jne	.LBB13_151
# %bb.150:                              # %if.then567
                                        #   in Loop: Header=BB13_148 Depth=2
	movq	-16(%rbp), %rdi
	addq	$7328, %rdi             # imm = 0x1CA0
	movslq	-8(%rbp), %rax
	imulq	$240, %rax, %rax
	addq	%rax, %rdi
	movslq	-4(%rbp), %rax
	shlq	$4, %rax
	addq	%rax, %rdi
	movq	img, %rax
	movslq	72520(%rax), %rax
	imulq	$960, %rax, %rax        # imm = 0x3C0
	movabsq	$INIT_FLD_MAP_I, %rsi
	addq	%rax, %rsi
	movslq	-8(%rbp), %rax
	imulq	$120, %rax, %rax
	addq	%rax, %rsi
	movslq	-4(%rbp), %rax
	shlq	$3, %rax
	addq	%rax, %rsi
	callq	biari_init_context
	jmp	.LBB13_152
.LBB13_151:                             # %if.else580
                                        #   in Loop: Header=BB13_148 Depth=2
	movq	-16(%rbp), %rdi
	addq	$7328, %rdi             # imm = 0x1CA0
	movslq	-8(%rbp), %rax
	imulq	$240, %rax, %rax
	addq	%rax, %rdi
	movslq	-4(%rbp), %rax
	shlq	$4, %rax
	addq	%rax, %rdi
	movq	img, %rax
	movslq	72520(%rax), %rax
	imulq	$960, %rax, %rax        # imm = 0x3C0
	movabsq	$INIT_FLD_MAP_P, %rsi
	addq	%rax, %rsi
	movslq	-8(%rbp), %rax
	imulq	$120, %rax, %rax
	addq	%rax, %rsi
	movslq	-4(%rbp), %rax
	shlq	$3, %rax
	addq	%rax, %rsi
	callq	biari_init_context
.LBB13_152:                             # %if.end594
                                        #   in Loop: Header=BB13_148 Depth=2
	jmp	.LBB13_153
.LBB13_153:                             # %for.inc595
                                        #   in Loop: Header=BB13_148 Depth=2
	movl	-4(%rbp), %eax
	addl	$1, %eax
	movl	%eax, -4(%rbp)
	jmp	.LBB13_148
.LBB13_154:                             # %for.end597
                                        #   in Loop: Header=BB13_146 Depth=1
	jmp	.LBB13_155
.LBB13_155:                             # %for.inc598
                                        #   in Loop: Header=BB13_146 Depth=1
	movl	-8(%rbp), %eax
	addl	$1, %eax
	movl	%eax, -8(%rbp)
	jmp	.LBB13_146
.LBB13_156:                             # %for.end600
	movl	$0, -8(%rbp)
.LBB13_157:                             # %for.cond601
                                        # =>This Loop Header: Depth=1
                                        #     Child Loop BB13_159 Depth 2
	cmpl	$10, -8(%rbp)
	jge	.LBB13_167
# %bb.158:                              # %for.body603
                                        #   in Loop: Header=BB13_157 Depth=1
	movl	$0, -4(%rbp)
.LBB13_159:                             # %for.cond604
                                        #   Parent Loop BB13_157 Depth=1
                                        # =>  This Inner Loop Header: Depth=2
	cmpl	$15, -4(%rbp)
	jge	.LBB13_165
# %bb.160:                              # %for.body606
                                        #   in Loop: Header=BB13_159 Depth=2
	movq	img, %rax
	cmpl	$2, 24(%rax)
	jne	.LBB13_162
# %bb.161:                              # %if.then609
                                        #   in Loop: Header=BB13_159 Depth=2
	movq	-16(%rbp), %rdi
	addq	$9728, %rdi             # imm = 0x2600
	movslq	-8(%rbp), %rax
	imulq	$240, %rax, %rax
	addq	%rax, %rdi
	movslq	-4(%rbp), %rax
	shlq	$4, %rax
	addq	%rax, %rdi
	movq	img, %rax
	movslq	72520(%rax), %rax
	imulq	$960, %rax, %rax        # imm = 0x3C0
	movabsq	$INIT_FLD_LAST_I, %rsi
	addq	%rax, %rsi
	movslq	-8(%rbp), %rax
	imulq	$120, %rax, %rax
	addq	%rax, %rsi
	movslq	-4(%rbp), %rax
	shlq	$3, %rax
	addq	%rax, %rsi
	callq	biari_init_context
	jmp	.LBB13_163
.LBB13_162:                             # %if.else622
                                        #   in Loop: Header=BB13_159 Depth=2
	movq	-16(%rbp), %rdi
	addq	$9728, %rdi             # imm = 0x2600
	movslq	-8(%rbp), %rax
	imulq	$240, %rax, %rax
	addq	%rax, %rdi
	movslq	-4(%rbp), %rax
	shlq	$4, %rax
	addq	%rax, %rdi
	movq	img, %rax
	movslq	72520(%rax), %rax
	imulq	$960, %rax, %rax        # imm = 0x3C0
	movabsq	$INIT_FLD_LAST_P, %rsi
	addq	%rax, %rsi
	movslq	-8(%rbp), %rax
	imulq	$120, %rax, %rax
	addq	%rax, %rsi
	movslq	-4(%rbp), %rax
	shlq	$3, %rax
	addq	%rax, %rsi
	callq	biari_init_context
.LBB13_163:                             # %if.end636
                                        #   in Loop: Header=BB13_159 Depth=2
	jmp	.LBB13_164
.LBB13_164:                             # %for.inc637
                                        #   in Loop: Header=BB13_159 Depth=2
	movl	-4(%rbp), %eax
	addl	$1, %eax
	movl	%eax, -4(%rbp)
	jmp	.LBB13_159
.LBB13_165:                             # %for.end639
                                        #   in Loop: Header=BB13_157 Depth=1
	jmp	.LBB13_166
.LBB13_166:                             # %for.inc640
                                        #   in Loop: Header=BB13_157 Depth=1
	movl	-8(%rbp), %eax
	addl	$1, %eax
	movl	%eax, -8(%rbp)
	jmp	.LBB13_157
.LBB13_167:                             # %for.end642
	cmpl	$2088986837, -28(%rbp)  # imm = 0x7C8368D5
	jne	.LBB13_169
.LBB13_168:
	addq	$32, %rsp
	popq	%rbp
	.cfi_def_cfa %rsp, 8
	retq
.LBB13_169:                             # %func_exit
	.cfi_def_cfa %rbp, 16
	callq	detect_breach
	jmp	.LBB13_168
.Lfunc_end13:
	.size	init_contexts.6, .Lfunc_end13-init_contexts.6
	.cfi_endproc
                                        # -- End function
	.globl	update_field_frame_contexts.7 # -- Begin function update_field_frame_contexts.7
	.p2align	4, 0x90
	.type	update_field_frame_contexts.7,@function
update_field_frame_contexts.7:          # @update_field_frame_contexts.7
	.cfi_startproc
# %bb.0:                                # %entry
	pushq	%rbp
	.cfi_def_cfa_offset 16
	.cfi_offset %rbp, -16
	movq	%rsp, %rbp
	.cfi_def_cfa_register %rbp
	subq	$16, %rsp
	movl	$304923073, -12(%rbp)   # imm = 0x122CC1C1
	movl	%edi, -16(%rbp)
	cmpl	$0, -16(%rbp)
	je	.LBB14_10
# %bb.1:                                # %if.then
	movl	$0, -4(%rbp)
.LBB14_2:                               # %for.cond
                                        # =>This Loop Header: Depth=1
                                        #     Child Loop BB14_4 Depth 2
	cmpl	$4, -4(%rbp)
	jge	.LBB14_9
# %bb.3:                                # %for.body
                                        #   in Loop: Header=BB14_2 Depth=1
	movl	$0, -8(%rbp)
.LBB14_4:                               # %for.cond1
                                        #   Parent Loop BB14_2 Depth=1
                                        # =>  This Inner Loop Header: Depth=2
	movl	-8(%rbp), %eax
	cmpl	number_of_slices, %eax
	jge	.LBB14_7
# %bb.5:                                # %for.body3
                                        #   in Loop: Header=BB14_4 Depth=2
	movq	initialized, %rax
	movq	8(%rax), %rax
	movslq	-4(%rbp), %rcx
	movq	(%rax,%rcx,8), %rax
	movl	-8(%rbp), %ecx
	sarl	$1, %ecx
	movslq	%ecx, %rcx
	movl	(%rax,%rcx,4), %eax
	movq	initialized, %rcx
	movq	(%rcx), %rcx
	movslq	-4(%rbp), %rdx
	movq	(%rcx,%rdx,8), %rcx
	movslq	-8(%rbp), %rdx
	movl	%eax, (%rcx,%rdx,4)
	movq	model_number, %rax
	movq	8(%rax), %rax
	movslq	-4(%rbp), %rcx
	movq	(%rax,%rcx,8), %rax
	movl	-8(%rbp), %ecx
	sarl	$1, %ecx
	movslq	%ecx, %rcx
	movl	(%rax,%rcx,4), %eax
	movq	model_number, %rcx
	movq	(%rcx), %rcx
	movslq	-4(%rbp), %rdx
	movq	(%rcx,%rdx,8), %rcx
	movslq	-8(%rbp), %rdx
	movl	%eax, (%rcx,%rdx,4)
# %bb.6:                                # %for.inc
                                        #   in Loop: Header=BB14_4 Depth=2
	movl	-8(%rbp), %eax
	addl	$1, %eax
	movl	%eax, -8(%rbp)
	jmp	.LBB14_4
.LBB14_7:                               # %for.end
                                        #   in Loop: Header=BB14_2 Depth=1
	jmp	.LBB14_8
.LBB14_8:                               # %for.inc23
                                        #   in Loop: Header=BB14_2 Depth=1
	movl	-4(%rbp), %eax
	addl	$1, %eax
	movl	%eax, -4(%rbp)
	jmp	.LBB14_2
.LBB14_9:                               # %for.end25
	jmp	.LBB14_19
.LBB14_10:                              # %if.else
	movl	$0, -4(%rbp)
.LBB14_11:                              # %for.cond26
                                        # =>This Loop Header: Depth=1
                                        #     Child Loop BB14_13 Depth 2
	cmpl	$4, -4(%rbp)
	jge	.LBB14_18
# %bb.12:                               # %for.body28
                                        #   in Loop: Header=BB14_11 Depth=1
	movl	$0, -8(%rbp)
.LBB14_13:                              # %for.cond29
                                        #   Parent Loop BB14_11 Depth=1
                                        # =>  This Inner Loop Header: Depth=2
	movl	-8(%rbp), %eax
	movl	number_of_slices, %ecx
	addl	$1, %ecx
	sarl	$1, %ecx
	cmpl	%ecx, %eax
	jge	.LBB14_16
# %bb.14:                               # %for.body32
                                        #   in Loop: Header=BB14_13 Depth=2
	movq	initialized, %rax
	movq	(%rax), %rax
	movslq	-4(%rbp), %rcx
	movq	(%rax,%rcx,8), %rax
	movl	-8(%rbp), %ecx
	shll	$1, %ecx
	movslq	%ecx, %rcx
	movl	(%rax,%rcx,4), %eax
	movq	initialized, %rcx
	movq	8(%rcx), %rcx
	movslq	-4(%rbp), %rdx
	movq	(%rcx,%rdx,8), %rcx
	movslq	-8(%rbp), %rdx
	movl	%eax, (%rcx,%rdx,4)
	movq	model_number, %rax
	movq	(%rax), %rax
	movslq	-4(%rbp), %rcx
	movq	(%rax,%rcx,8), %rax
	movl	-8(%rbp), %ecx
	shll	$1, %ecx
	movslq	%ecx, %rcx
	movl	(%rax,%rcx,4), %eax
	movq	model_number, %rcx
	movq	8(%rcx), %rcx
	movslq	-4(%rbp), %rdx
	movq	(%rcx,%rdx,8), %rcx
	movslq	-8(%rbp), %rdx
	movl	%eax, (%rcx,%rdx,4)
# %bb.15:                               # %for.inc54
                                        #   in Loop: Header=BB14_13 Depth=2
	movl	-8(%rbp), %eax
	addl	$1, %eax
	movl	%eax, -8(%rbp)
	jmp	.LBB14_13
.LBB14_16:                              # %for.end56
                                        #   in Loop: Header=BB14_11 Depth=1
	jmp	.LBB14_17
.LBB14_17:                              # %for.inc57
                                        #   in Loop: Header=BB14_11 Depth=1
	movl	-4(%rbp), %eax
	addl	$1, %eax
	movl	%eax, -4(%rbp)
	jmp	.LBB14_11
.LBB14_18:                              # %for.end59
	jmp	.LBB14_19
.LBB14_19:                              # %if.end
	cmpl	$304923073, -12(%rbp)   # imm = 0x122CC1C1
	jne	.LBB14_21
.LBB14_20:
	addq	$16, %rsp
	popq	%rbp
	.cfi_def_cfa %rsp, 8
	retq
.LBB14_21:                              # %func_exit
	.cfi_def_cfa %rbp, 16
	callq	detect_breach
	jmp	.LBB14_20
.Lfunc_end14:
	.size	update_field_frame_contexts.7, .Lfunc_end14-update_field_frame_contexts.7
	.cfi_endproc
                                        # -- End function
	.globl	store_contexts.8        # -- Begin function store_contexts.8
	.p2align	4, 0x90
	.type	store_contexts.8,@function
store_contexts.8:                       # @store_contexts.8
	.cfi_startproc
# %bb.0:                                # %entry
	pushq	%rbp
	.cfi_def_cfa_offset 16
	.cfi_offset %rbp, -16
	movq	%rsp, %rbp
	.cfi_def_cfa_register %rbp
	subq	$16, %rsp
	movl	$1486423871, -16(%rbp)  # imm = 0x5899073F
	movq	img, %rax
	movl	72444(%rax), %eax
	movl	%eax, -12(%rbp)
	movq	img, %rax
	movl	24(%rax), %eax
	movl	%eax, -4(%rbp)
	movq	img, %rax
	movq	14160(%rax), %rax
	movl	12(%rax), %eax
	cltd
	idivl	num_mb_per_slice
	movl	%eax, -8(%rbp)
	movq	input, %rax
	cmpl	$0, 3212(%rax)
	je	.LBB15_2
# %bb.1:                                # %if.then
	movq	initialized, %rax
	movslq	-12(%rbp), %rcx
	movq	(%rax,%rcx,8), %rax
	movslq	-4(%rbp), %rcx
	movq	(%rax,%rcx,8), %rax
	movslq	-8(%rbp), %rcx
	movl	$1, (%rax,%rcx,4)
	movq	model_number, %rax
	movslq	-12(%rbp), %rcx
	movq	(%rax,%rcx,8), %rax
	movslq	-4(%rbp), %rcx
	movq	(%rax,%rcx,8), %rdi
	movslq	-8(%rbp), %rax
	shlq	$2, %rax
	addq	%rax, %rdi
	movq	img, %rax
	movq	14160(%rax), %rax
	movq	32(%rax), %rsi
	movq	img, %rax
	movq	14160(%rax), %rax
	movq	40(%rax), %rdx
	callq	GetCtxModelNumber
	jmp	.LBB15_3
.LBB15_2:                               # %if.else
	jmp	.LBB15_3
.LBB15_3:                               # %if.end
	cmpl	$1486423871, -16(%rbp)  # imm = 0x5899073F
	jne	.LBB15_5
.LBB15_4:
	addq	$16, %rsp
	popq	%rbp
	.cfi_def_cfa %rsp, 8
	retq
.LBB15_5:                               # %func_exit
	.cfi_def_cfa %rbp, 16
	callq	detect_breach
	jmp	.LBB15_4
.Lfunc_end15:
	.size	store_contexts.8, .Lfunc_end15-store_contexts.8
	.cfi_endproc
                                        # -- End function
	.section	.rodata.cst8,"aM",@progbits,8
	.p2align	3               # -- Begin function GetCtxModelNumber.9
.LCPI16_0:
	.quad	5055640609639927018     # double 1.0E+30
	.text
	.globl	GetCtxModelNumber.9
	.p2align	4, 0x90
	.type	GetCtxModelNumber.9,@function
GetCtxModelNumber.9:                    # @GetCtxModelNumber.9
	.cfi_startproc
# %bb.0:                                # %entry
	pushq	%rbp
	.cfi_def_cfa_offset 16
	.cfi_offset %rbp, -16
	movq	%rsp, %rbp
	.cfi_def_cfa_register %rbp
	subq	$64, %rsp
	vmovsd	.LCPI16_0(%rip), %xmm0  # xmm0 = mem[0],zero
	movl	$1056927863, -44(%rbp)  # imm = 0x3EFF7077
	movq	%rdi, -64(%rbp)
	movq	%rsi, -40(%rbp)
	movq	%rdx, -32(%rbp)
	movq	img, %rax
	movl	24(%rax), %eax
	cmpl	$2, %eax
	movl	$1, %eax
	movl	$3, %ecx
	cmovel	%eax, %ecx
	movl	%ecx, -48(%rbp)
	vmovsd	%xmm0, -56(%rbp)
	movl	$0, -12(%rbp)
.LBB16_1:                               # %for.cond
                                        # =>This Loop Header: Depth=1
                                        #     Child Loop BB16_3 Depth 2
                                        #       Child Loop BB16_5 Depth 3
                                        #     Child Loop BB16_14 Depth 2
                                        #       Child Loop BB16_16 Depth 3
                                        #     Child Loop BB16_25 Depth 2
                                        #       Child Loop BB16_27 Depth 3
                                        #     Child Loop BB16_36 Depth 2
                                        #       Child Loop BB16_38 Depth 3
                                        #     Child Loop BB16_47 Depth 2
                                        #     Child Loop BB16_54 Depth 2
                                        #     Child Loop BB16_61 Depth 2
                                        #     Child Loop BB16_68 Depth 2
                                        #     Child Loop BB16_75 Depth 2
                                        #     Child Loop BB16_82 Depth 2
                                        #       Child Loop BB16_84 Depth 3
                                        #     Child Loop BB16_93 Depth 2
                                        #       Child Loop BB16_95 Depth 3
                                        #     Child Loop BB16_104 Depth 2
                                        #       Child Loop BB16_106 Depth 3
                                        #     Child Loop BB16_115 Depth 2
                                        #       Child Loop BB16_117 Depth 3
                                        #     Child Loop BB16_126 Depth 2
                                        #       Child Loop BB16_128 Depth 3
                                        #     Child Loop BB16_137 Depth 2
                                        #       Child Loop BB16_139 Depth 3
                                        #     Child Loop BB16_148 Depth 2
                                        #       Child Loop BB16_150 Depth 3
                                        #     Child Loop BB16_159 Depth 2
                                        #       Child Loop BB16_161 Depth 3
	movl	-12(%rbp), %eax
	cmpl	-48(%rbp), %eax
	jge	.LBB16_173
# %bb.2:                                # %for.body
                                        #   in Loop: Header=BB16_1 Depth=1
	vxorps	%xmm0, %xmm0, %xmm0
	vmovsd	%xmm0, -24(%rbp)
	movl	$0, -8(%rbp)
.LBB16_3:                               # %for.cond2
                                        #   Parent Loop BB16_1 Depth=1
                                        # =>  This Loop Header: Depth=2
                                        #       Child Loop BB16_5 Depth 3
	cmpl	$3, -8(%rbp)
	jge	.LBB16_13
# %bb.4:                                # %for.body4
                                        #   in Loop: Header=BB16_3 Depth=2
	movl	$0, -4(%rbp)
.LBB16_5:                               # %for.cond5
                                        #   Parent Loop BB16_1 Depth=1
                                        #     Parent Loop BB16_3 Depth=2
                                        # =>    This Inner Loop Header: Depth=3
	cmpl	$11, -4(%rbp)
	jge	.LBB16_11
# %bb.6:                                # %for.body7
                                        #   in Loop: Header=BB16_5 Depth=3
	movq	img, %rax
	cmpl	$2, 24(%rax)
	jne	.LBB16_8
# %bb.7:                                # %if.then
                                        #   in Loop: Header=BB16_5 Depth=3
	movq	-40(%rbp), %rdi
	movslq	-8(%rbp), %rax
	imulq	$176, %rax, %rax
	addq	%rax, %rdi
	movslq	-4(%rbp), %rax
	shlq	$4, %rax
	addq	%rax, %rdi
	movslq	-12(%rbp), %rax
	imulq	$264, %rax, %rax        # imm = 0x108
	movabsq	$INIT_MB_TYPE_I, %rsi
	addq	%rax, %rsi
	movslq	-8(%rbp), %rax
	imulq	$88, %rax, %rax
	addq	%rax, %rsi
	movslq	-4(%rbp), %rax
	shlq	$3, %rax
	addq	%rax, %rsi
	callq	XRate
	vaddsd	-24(%rbp), %xmm0, %xmm0
	vmovsd	%xmm0, -24(%rbp)
	jmp	.LBB16_9
.LBB16_8:                               # %if.else
                                        #   in Loop: Header=BB16_5 Depth=3
	movq	-40(%rbp), %rdi
	movslq	-8(%rbp), %rax
	imulq	$176, %rax, %rax
	addq	%rax, %rdi
	movslq	-4(%rbp), %rax
	shlq	$4, %rax
	addq	%rax, %rdi
	movslq	-12(%rbp), %rax
	imulq	$264, %rax, %rax        # imm = 0x108
	movabsq	$INIT_MB_TYPE_P, %rsi
	addq	%rax, %rsi
	movslq	-8(%rbp), %rax
	imulq	$88, %rax, %rax
	addq	%rax, %rsi
	movslq	-4(%rbp), %rax
	shlq	$3, %rax
	addq	%rax, %rsi
	callq	XRate
	vaddsd	-24(%rbp), %xmm0, %xmm0
	vmovsd	%xmm0, -24(%rbp)
.LBB16_9:                               # %if.end
                                        #   in Loop: Header=BB16_5 Depth=3
	jmp	.LBB16_10
.LBB16_10:                              # %for.inc
                                        #   in Loop: Header=BB16_5 Depth=3
	movl	-4(%rbp), %eax
	addl	$1, %eax
	movl	%eax, -4(%rbp)
	jmp	.LBB16_5
.LBB16_11:                              # %for.end
                                        #   in Loop: Header=BB16_3 Depth=2
	jmp	.LBB16_12
.LBB16_12:                              # %for.inc33
                                        #   in Loop: Header=BB16_3 Depth=2
	movl	-8(%rbp), %eax
	addl	$1, %eax
	movl	%eax, -8(%rbp)
	jmp	.LBB16_3
.LBB16_13:                              # %for.end35
                                        #   in Loop: Header=BB16_1 Depth=1
	movl	$0, -8(%rbp)
.LBB16_14:                              # %for.cond36
                                        #   Parent Loop BB16_1 Depth=1
                                        # =>  This Loop Header: Depth=2
                                        #       Child Loop BB16_16 Depth 3
	cmpl	$2, -8(%rbp)
	jge	.LBB16_24
# %bb.15:                               # %for.body38
                                        #   in Loop: Header=BB16_14 Depth=2
	movl	$0, -4(%rbp)
.LBB16_16:                              # %for.cond39
                                        #   Parent Loop BB16_1 Depth=1
                                        #     Parent Loop BB16_14 Depth=2
                                        # =>    This Inner Loop Header: Depth=3
	cmpl	$9, -4(%rbp)
	jge	.LBB16_22
# %bb.17:                               # %for.body41
                                        #   in Loop: Header=BB16_16 Depth=3
	movq	img, %rax
	cmpl	$2, 24(%rax)
	jne	.LBB16_19
# %bb.18:                               # %if.then44
                                        #   in Loop: Header=BB16_16 Depth=3
	movq	-40(%rbp), %rdi
	addq	$528, %rdi              # imm = 0x210
	movslq	-8(%rbp), %rax
	imulq	$144, %rax, %rax
	addq	%rax, %rdi
	movslq	-4(%rbp), %rax
	shlq	$4, %rax
	addq	%rax, %rdi
	movslq	-12(%rbp), %rax
	imulq	$144, %rax, %rax
	movabsq	$INIT_B8_TYPE_I, %rsi
	addq	%rax, %rsi
	movslq	-8(%rbp), %rax
	imulq	$72, %rax, %rax
	addq	%rax, %rsi
	movslq	-4(%rbp), %rax
	shlq	$3, %rax
	addq	%rax, %rsi
	callq	XRate
	vaddsd	-24(%rbp), %xmm0, %xmm0
	vmovsd	%xmm0, -24(%rbp)
	jmp	.LBB16_20
.LBB16_19:                              # %if.else58
                                        #   in Loop: Header=BB16_16 Depth=3
	movq	-40(%rbp), %rdi
	addq	$528, %rdi              # imm = 0x210
	movslq	-8(%rbp), %rax
	imulq	$144, %rax, %rax
	addq	%rax, %rdi
	movslq	-4(%rbp), %rax
	shlq	$4, %rax
	addq	%rax, %rdi
	movslq	-12(%rbp), %rax
	imulq	$144, %rax, %rax
	movabsq	$INIT_B8_TYPE_P, %rsi
	addq	%rax, %rsi
	movslq	-8(%rbp), %rax
	imulq	$72, %rax, %rax
	addq	%rax, %rsi
	movslq	-4(%rbp), %rax
	shlq	$3, %rax
	addq	%rax, %rsi
	callq	XRate
	vaddsd	-24(%rbp), %xmm0, %xmm0
	vmovsd	%xmm0, -24(%rbp)
.LBB16_20:                              # %if.end73
                                        #   in Loop: Header=BB16_16 Depth=3
	jmp	.LBB16_21
.LBB16_21:                              # %for.inc74
                                        #   in Loop: Header=BB16_16 Depth=3
	movl	-4(%rbp), %eax
	addl	$1, %eax
	movl	%eax, -4(%rbp)
	jmp	.LBB16_16
.LBB16_22:                              # %for.end76
                                        #   in Loop: Header=BB16_14 Depth=2
	jmp	.LBB16_23
.LBB16_23:                              # %for.inc77
                                        #   in Loop: Header=BB16_14 Depth=2
	movl	-8(%rbp), %eax
	addl	$1, %eax
	movl	%eax, -8(%rbp)
	jmp	.LBB16_14
.LBB16_24:                              # %for.end79
                                        #   in Loop: Header=BB16_1 Depth=1
	movl	$0, -8(%rbp)
.LBB16_25:                              # %for.cond80
                                        #   Parent Loop BB16_1 Depth=1
                                        # =>  This Loop Header: Depth=2
                                        #       Child Loop BB16_27 Depth 3
	cmpl	$2, -8(%rbp)
	jge	.LBB16_35
# %bb.26:                               # %for.body82
                                        #   in Loop: Header=BB16_25 Depth=2
	movl	$0, -4(%rbp)
.LBB16_27:                              # %for.cond83
                                        #   Parent Loop BB16_1 Depth=1
                                        #     Parent Loop BB16_25 Depth=2
                                        # =>    This Inner Loop Header: Depth=3
	cmpl	$10, -4(%rbp)
	jge	.LBB16_33
# %bb.28:                               # %for.body85
                                        #   in Loop: Header=BB16_27 Depth=3
	movq	img, %rax
	cmpl	$2, 24(%rax)
	jne	.LBB16_30
# %bb.29:                               # %if.then88
                                        #   in Loop: Header=BB16_27 Depth=3
	movq	-40(%rbp), %rdi
	addq	$816, %rdi              # imm = 0x330
	movslq	-8(%rbp), %rax
	imulq	$160, %rax, %rax
	addq	%rax, %rdi
	movslq	-4(%rbp), %rax
	shlq	$4, %rax
	addq	%rax, %rdi
	movslq	-12(%rbp), %rax
	imulq	$160, %rax, %rax
	movabsq	$INIT_MV_RES_I, %rsi
	addq	%rax, %rsi
	movslq	-8(%rbp), %rax
	imulq	$80, %rax, %rax
	addq	%rax, %rsi
	movslq	-4(%rbp), %rax
	shlq	$3, %rax
	addq	%rax, %rsi
	callq	XRate
	vaddsd	-24(%rbp), %xmm0, %xmm0
	vmovsd	%xmm0, -24(%rbp)
	jmp	.LBB16_31
.LBB16_30:                              # %if.else102
                                        #   in Loop: Header=BB16_27 Depth=3
	movq	-40(%rbp), %rdi
	addq	$816, %rdi              # imm = 0x330
	movslq	-8(%rbp), %rax
	imulq	$160, %rax, %rax
	addq	%rax, %rdi
	movslq	-4(%rbp), %rax
	shlq	$4, %rax
	addq	%rax, %rdi
	movslq	-12(%rbp), %rax
	imulq	$160, %rax, %rax
	movabsq	$INIT_MV_RES_P, %rsi
	addq	%rax, %rsi
	movslq	-8(%rbp), %rax
	imulq	$80, %rax, %rax
	addq	%rax, %rsi
	movslq	-4(%rbp), %rax
	shlq	$3, %rax
	addq	%rax, %rsi
	callq	XRate
	vaddsd	-24(%rbp), %xmm0, %xmm0
	vmovsd	%xmm0, -24(%rbp)
.LBB16_31:                              # %if.end117
                                        #   in Loop: Header=BB16_27 Depth=3
	jmp	.LBB16_32
.LBB16_32:                              # %for.inc118
                                        #   in Loop: Header=BB16_27 Depth=3
	movl	-4(%rbp), %eax
	addl	$1, %eax
	movl	%eax, -4(%rbp)
	jmp	.LBB16_27
.LBB16_33:                              # %for.end120
                                        #   in Loop: Header=BB16_25 Depth=2
	jmp	.LBB16_34
.LBB16_34:                              # %for.inc121
                                        #   in Loop: Header=BB16_25 Depth=2
	movl	-8(%rbp), %eax
	addl	$1, %eax
	movl	%eax, -8(%rbp)
	jmp	.LBB16_25
.LBB16_35:                              # %for.end123
                                        #   in Loop: Header=BB16_1 Depth=1
	movl	$0, -8(%rbp)
.LBB16_36:                              # %for.cond124
                                        #   Parent Loop BB16_1 Depth=1
                                        # =>  This Loop Header: Depth=2
                                        #       Child Loop BB16_38 Depth 3
	cmpl	$2, -8(%rbp)
	jge	.LBB16_46
# %bb.37:                               # %for.body126
                                        #   in Loop: Header=BB16_36 Depth=2
	movl	$0, -4(%rbp)
.LBB16_38:                              # %for.cond127
                                        #   Parent Loop BB16_1 Depth=1
                                        #     Parent Loop BB16_36 Depth=2
                                        # =>    This Inner Loop Header: Depth=3
	cmpl	$6, -4(%rbp)
	jge	.LBB16_44
# %bb.39:                               # %for.body129
                                        #   in Loop: Header=BB16_38 Depth=3
	movq	img, %rax
	cmpl	$2, 24(%rax)
	jne	.LBB16_41
# %bb.40:                               # %if.then132
                                        #   in Loop: Header=BB16_38 Depth=3
	movq	-40(%rbp), %rdi
	addq	$1136, %rdi             # imm = 0x470
	movslq	-8(%rbp), %rax
	imulq	$96, %rax, %rax
	addq	%rax, %rdi
	movslq	-4(%rbp), %rax
	shlq	$4, %rax
	addq	%rax, %rdi
	movslq	-12(%rbp), %rax
	imulq	$96, %rax, %rax
	movabsq	$INIT_REF_NO_I, %rsi
	addq	%rax, %rsi
	movslq	-8(%rbp), %rax
	imulq	$48, %rax, %rax
	addq	%rax, %rsi
	movslq	-4(%rbp), %rax
	shlq	$3, %rax
	addq	%rax, %rsi
	callq	XRate
	vaddsd	-24(%rbp), %xmm0, %xmm0
	vmovsd	%xmm0, -24(%rbp)
	jmp	.LBB16_42
.LBB16_41:                              # %if.else146
                                        #   in Loop: Header=BB16_38 Depth=3
	movq	-40(%rbp), %rdi
	addq	$1136, %rdi             # imm = 0x470
	movslq	-8(%rbp), %rax
	imulq	$96, %rax, %rax
	addq	%rax, %rdi
	movslq	-4(%rbp), %rax
	shlq	$4, %rax
	addq	%rax, %rdi
	movslq	-12(%rbp), %rax
	imulq	$96, %rax, %rax
	movabsq	$INIT_REF_NO_P, %rsi
	addq	%rax, %rsi
	movslq	-8(%rbp), %rax
	imulq	$48, %rax, %rax
	addq	%rax, %rsi
	movslq	-4(%rbp), %rax
	shlq	$3, %rax
	addq	%rax, %rsi
	callq	XRate
	vaddsd	-24(%rbp), %xmm0, %xmm0
	vmovsd	%xmm0, -24(%rbp)
.LBB16_42:                              # %if.end161
                                        #   in Loop: Header=BB16_38 Depth=3
	jmp	.LBB16_43
.LBB16_43:                              # %for.inc162
                                        #   in Loop: Header=BB16_38 Depth=3
	movl	-4(%rbp), %eax
	addl	$1, %eax
	movl	%eax, -4(%rbp)
	jmp	.LBB16_38
.LBB16_44:                              # %for.end164
                                        #   in Loop: Header=BB16_36 Depth=2
	jmp	.LBB16_45
.LBB16_45:                              # %for.inc165
                                        #   in Loop: Header=BB16_36 Depth=2
	movl	-8(%rbp), %eax
	addl	$1, %eax
	movl	%eax, -8(%rbp)
	jmp	.LBB16_36
.LBB16_46:                              # %for.end167
                                        #   in Loop: Header=BB16_1 Depth=1
	movl	$0, -4(%rbp)
.LBB16_47:                              # %for.cond168
                                        #   Parent Loop BB16_1 Depth=1
                                        # =>  This Inner Loop Header: Depth=2
	cmpl	$4, -4(%rbp)
	jge	.LBB16_53
# %bb.48:                               # %for.body170
                                        #   in Loop: Header=BB16_47 Depth=2
	movq	img, %rax
	cmpl	$2, 24(%rax)
	jne	.LBB16_50
# %bb.49:                               # %if.then173
                                        #   in Loop: Header=BB16_47 Depth=2
	movq	-40(%rbp), %rdi
	addq	$1328, %rdi             # imm = 0x530
	movslq	-4(%rbp), %rax
	shlq	$4, %rax
	addq	%rax, %rdi
	movslq	-12(%rbp), %rax
	shlq	$5, %rax
	movabsq	$INIT_DELTA_QP_I, %rsi
	addq	%rax, %rsi
	movslq	-4(%rbp), %rax
	shlq	$3, %rax
	addq	%rax, %rsi
	callq	XRate
	vaddsd	-24(%rbp), %xmm0, %xmm0
	vmovsd	%xmm0, -24(%rbp)
	jmp	.LBB16_51
.LBB16_50:                              # %if.else184
                                        #   in Loop: Header=BB16_47 Depth=2
	movq	-40(%rbp), %rdi
	addq	$1328, %rdi             # imm = 0x530
	movslq	-4(%rbp), %rax
	shlq	$4, %rax
	addq	%rax, %rdi
	movslq	-12(%rbp), %rax
	shlq	$5, %rax
	movabsq	$INIT_DELTA_QP_P, %rsi
	addq	%rax, %rsi
	movslq	-4(%rbp), %rax
	shlq	$3, %rax
	addq	%rax, %rsi
	callq	XRate
	vaddsd	-24(%rbp), %xmm0, %xmm0
	vmovsd	%xmm0, -24(%rbp)
.LBB16_51:                              # %if.end196
                                        #   in Loop: Header=BB16_47 Depth=2
	jmp	.LBB16_52
.LBB16_52:                              # %for.inc197
                                        #   in Loop: Header=BB16_47 Depth=2
	movl	-4(%rbp), %eax
	addl	$1, %eax
	movl	%eax, -4(%rbp)
	jmp	.LBB16_47
.LBB16_53:                              # %for.end199
                                        #   in Loop: Header=BB16_1 Depth=1
	movl	$0, -4(%rbp)
.LBB16_54:                              # %for.cond200
                                        #   Parent Loop BB16_1 Depth=1
                                        # =>  This Inner Loop Header: Depth=2
	cmpl	$4, -4(%rbp)
	jge	.LBB16_60
# %bb.55:                               # %for.body202
                                        #   in Loop: Header=BB16_54 Depth=2
	movq	img, %rax
	cmpl	$2, 24(%rax)
	jne	.LBB16_57
# %bb.56:                               # %if.then205
                                        #   in Loop: Header=BB16_54 Depth=2
	movq	-40(%rbp), %rdi
	addq	$1392, %rdi             # imm = 0x570
	movslq	-4(%rbp), %rax
	shlq	$4, %rax
	addq	%rax, %rdi
	movslq	-12(%rbp), %rax
	shlq	$5, %rax
	movabsq	$INIT_MB_AFF_I, %rsi
	addq	%rax, %rsi
	movslq	-4(%rbp), %rax
	shlq	$3, %rax
	addq	%rax, %rsi
	callq	XRate
	vaddsd	-24(%rbp), %xmm0, %xmm0
	vmovsd	%xmm0, -24(%rbp)
	jmp	.LBB16_58
.LBB16_57:                              # %if.else216
                                        #   in Loop: Header=BB16_54 Depth=2
	movq	-40(%rbp), %rdi
	addq	$1392, %rdi             # imm = 0x570
	movslq	-4(%rbp), %rax
	shlq	$4, %rax
	addq	%rax, %rdi
	movslq	-12(%rbp), %rax
	shlq	$5, %rax
	movabsq	$INIT_MB_AFF_P, %rsi
	addq	%rax, %rsi
	movslq	-4(%rbp), %rax
	shlq	$3, %rax
	addq	%rax, %rsi
	callq	XRate
	vaddsd	-24(%rbp), %xmm0, %xmm0
	vmovsd	%xmm0, -24(%rbp)
.LBB16_58:                              # %if.end228
                                        #   in Loop: Header=BB16_54 Depth=2
	jmp	.LBB16_59
.LBB16_59:                              # %for.inc229
                                        #   in Loop: Header=BB16_54 Depth=2
	movl	-4(%rbp), %eax
	addl	$1, %eax
	movl	%eax, -4(%rbp)
	jmp	.LBB16_54
.LBB16_60:                              # %for.end231
                                        #   in Loop: Header=BB16_1 Depth=1
	movl	$0, -4(%rbp)
.LBB16_61:                              # %for.cond232
                                        #   Parent Loop BB16_1 Depth=1
                                        # =>  This Inner Loop Header: Depth=2
	cmpl	$3, -4(%rbp)
	jge	.LBB16_67
# %bb.62:                               # %for.body234
                                        #   in Loop: Header=BB16_61 Depth=2
	movq	img, %rax
	cmpl	$2, 24(%rax)
	jne	.LBB16_64
# %bb.63:                               # %if.then237
                                        #   in Loop: Header=BB16_61 Depth=2
	movq	-40(%rbp), %rdi
	addq	$1456, %rdi             # imm = 0x5B0
	movslq	-4(%rbp), %rax
	shlq	$4, %rax
	addq	%rax, %rdi
	movslq	-12(%rbp), %rax
	imulq	$24, %rax, %rax
	movabsq	$INIT_TRANSFORM_SIZE_I, %rsi
	addq	%rax, %rsi
	movslq	-4(%rbp), %rax
	shlq	$3, %rax
	addq	%rax, %rsi
	callq	XRate
	vaddsd	-24(%rbp), %xmm0, %xmm0
	vmovsd	%xmm0, -24(%rbp)
	jmp	.LBB16_65
.LBB16_64:                              # %if.else248
                                        #   in Loop: Header=BB16_61 Depth=2
	movq	-40(%rbp), %rdi
	addq	$1456, %rdi             # imm = 0x5B0
	movslq	-4(%rbp), %rax
	shlq	$4, %rax
	addq	%rax, %rdi
	movslq	-12(%rbp), %rax
	imulq	$24, %rax, %rax
	movabsq	$INIT_TRANSFORM_SIZE_P, %rsi
	addq	%rax, %rsi
	movslq	-4(%rbp), %rax
	shlq	$3, %rax
	addq	%rax, %rsi
	callq	XRate
	vaddsd	-24(%rbp), %xmm0, %xmm0
	vmovsd	%xmm0, -24(%rbp)
.LBB16_65:                              # %if.end260
                                        #   in Loop: Header=BB16_61 Depth=2
	jmp	.LBB16_66
.LBB16_66:                              # %for.inc261
                                        #   in Loop: Header=BB16_61 Depth=2
	movl	-4(%rbp), %eax
	addl	$1, %eax
	movl	%eax, -4(%rbp)
	jmp	.LBB16_61
.LBB16_67:                              # %for.end263
                                        #   in Loop: Header=BB16_1 Depth=1
	movl	$0, -4(%rbp)
.LBB16_68:                              # %for.cond264
                                        #   Parent Loop BB16_1 Depth=1
                                        # =>  This Inner Loop Header: Depth=2
	cmpl	$2, -4(%rbp)
	jge	.LBB16_74
# %bb.69:                               # %for.body266
                                        #   in Loop: Header=BB16_68 Depth=2
	movq	img, %rax
	cmpl	$2, 24(%rax)
	jne	.LBB16_71
# %bb.70:                               # %if.then269
                                        #   in Loop: Header=BB16_68 Depth=2
	movq	-32(%rbp), %rdi
	movslq	-4(%rbp), %rax
	shlq	$4, %rax
	addq	%rax, %rdi
	movslq	-12(%rbp), %rax
	shlq	$4, %rax
	movabsq	$INIT_IPR_I, %rsi
	addq	%rax, %rsi
	movslq	-4(%rbp), %rax
	shlq	$3, %rax
	addq	%rax, %rsi
	callq	XRate
	vaddsd	-24(%rbp), %xmm0, %xmm0
	vmovsd	%xmm0, -24(%rbp)
	jmp	.LBB16_72
.LBB16_71:                              # %if.else280
                                        #   in Loop: Header=BB16_68 Depth=2
	movq	-32(%rbp), %rdi
	movslq	-4(%rbp), %rax
	shlq	$4, %rax
	addq	%rax, %rdi
	movslq	-12(%rbp), %rax
	shlq	$4, %rax
	movabsq	$INIT_IPR_P, %rsi
	addq	%rax, %rsi
	movslq	-4(%rbp), %rax
	shlq	$3, %rax
	addq	%rax, %rsi
	callq	XRate
	vaddsd	-24(%rbp), %xmm0, %xmm0
	vmovsd	%xmm0, -24(%rbp)
.LBB16_72:                              # %if.end292
                                        #   in Loop: Header=BB16_68 Depth=2
	jmp	.LBB16_73
.LBB16_73:                              # %for.inc293
                                        #   in Loop: Header=BB16_68 Depth=2
	movl	-4(%rbp), %eax
	addl	$1, %eax
	movl	%eax, -4(%rbp)
	jmp	.LBB16_68
.LBB16_74:                              # %for.end295
                                        #   in Loop: Header=BB16_1 Depth=1
	movl	$0, -4(%rbp)
.LBB16_75:                              # %for.cond296
                                        #   Parent Loop BB16_1 Depth=1
                                        # =>  This Inner Loop Header: Depth=2
	cmpl	$4, -4(%rbp)
	jge	.LBB16_81
# %bb.76:                               # %for.body298
                                        #   in Loop: Header=BB16_75 Depth=2
	movq	img, %rax
	cmpl	$2, 24(%rax)
	jne	.LBB16_78
# %bb.77:                               # %if.then301
                                        #   in Loop: Header=BB16_75 Depth=2
	movq	-32(%rbp), %rdi
	addq	$32, %rdi
	movslq	-4(%rbp), %rax
	shlq	$4, %rax
	addq	%rax, %rdi
	movslq	-12(%rbp), %rax
	shlq	$5, %rax
	movabsq	$INIT_CIPR_I, %rsi
	addq	%rax, %rsi
	movslq	-4(%rbp), %rax
	shlq	$3, %rax
	addq	%rax, %rsi
	callq	XRate
	vaddsd	-24(%rbp), %xmm0, %xmm0
	vmovsd	%xmm0, -24(%rbp)
	jmp	.LBB16_79
.LBB16_78:                              # %if.else312
                                        #   in Loop: Header=BB16_75 Depth=2
	movq	-32(%rbp), %rdi
	addq	$32, %rdi
	movslq	-4(%rbp), %rax
	shlq	$4, %rax
	addq	%rax, %rdi
	movslq	-12(%rbp), %rax
	shlq	$5, %rax
	movabsq	$INIT_CIPR_P, %rsi
	addq	%rax, %rsi
	movslq	-4(%rbp), %rax
	shlq	$3, %rax
	addq	%rax, %rsi
	callq	XRate
	vaddsd	-24(%rbp), %xmm0, %xmm0
	vmovsd	%xmm0, -24(%rbp)
.LBB16_79:                              # %if.end324
                                        #   in Loop: Header=BB16_75 Depth=2
	jmp	.LBB16_80
.LBB16_80:                              # %for.inc325
                                        #   in Loop: Header=BB16_75 Depth=2
	movl	-4(%rbp), %eax
	addl	$1, %eax
	movl	%eax, -4(%rbp)
	jmp	.LBB16_75
.LBB16_81:                              # %for.end327
                                        #   in Loop: Header=BB16_1 Depth=1
	movl	$0, -8(%rbp)
.LBB16_82:                              # %for.cond328
                                        #   Parent Loop BB16_1 Depth=1
                                        # =>  This Loop Header: Depth=2
                                        #       Child Loop BB16_84 Depth 3
	cmpl	$3, -8(%rbp)
	jge	.LBB16_92
# %bb.83:                               # %for.body330
                                        #   in Loop: Header=BB16_82 Depth=2
	movl	$0, -4(%rbp)
.LBB16_84:                              # %for.cond331
                                        #   Parent Loop BB16_1 Depth=1
                                        #     Parent Loop BB16_82 Depth=2
                                        # =>    This Inner Loop Header: Depth=3
	cmpl	$4, -4(%rbp)
	jge	.LBB16_90
# %bb.85:                               # %for.body333
                                        #   in Loop: Header=BB16_84 Depth=3
	movq	img, %rax
	cmpl	$2, 24(%rax)
	jne	.LBB16_87
# %bb.86:                               # %if.then336
                                        #   in Loop: Header=BB16_84 Depth=3
	movq	-32(%rbp), %rdi
	addq	$96, %rdi
	movslq	-8(%rbp), %rax
	shlq	$6, %rax
	addq	%rax, %rdi
	movslq	-4(%rbp), %rax
	shlq	$4, %rax
	addq	%rax, %rdi
	movslq	-12(%rbp), %rax
	imulq	$96, %rax, %rax
	movabsq	$INIT_CBP_I, %rsi
	addq	%rax, %rsi
	movslq	-8(%rbp), %rax
	shlq	$5, %rax
	addq	%rax, %rsi
	movslq	-4(%rbp), %rax
	shlq	$3, %rax
	addq	%rax, %rsi
	callq	XRate
	vaddsd	-24(%rbp), %xmm0, %xmm0
	vmovsd	%xmm0, -24(%rbp)
	jmp	.LBB16_88
.LBB16_87:                              # %if.else350
                                        #   in Loop: Header=BB16_84 Depth=3
	movq	-32(%rbp), %rdi
	addq	$96, %rdi
	movslq	-8(%rbp), %rax
	shlq	$6, %rax
	addq	%rax, %rdi
	movslq	-4(%rbp), %rax
	shlq	$4, %rax
	addq	%rax, %rdi
	movslq	-12(%rbp), %rax
	imulq	$96, %rax, %rax
	movabsq	$INIT_CBP_P, %rsi
	addq	%rax, %rsi
	movslq	-8(%rbp), %rax
	shlq	$5, %rax
	addq	%rax, %rsi
	movslq	-4(%rbp), %rax
	shlq	$3, %rax
	addq	%rax, %rsi
	callq	XRate
	vaddsd	-24(%rbp), %xmm0, %xmm0
	vmovsd	%xmm0, -24(%rbp)
.LBB16_88:                              # %if.end365
                                        #   in Loop: Header=BB16_84 Depth=3
	jmp	.LBB16_89
.LBB16_89:                              # %for.inc366
                                        #   in Loop: Header=BB16_84 Depth=3
	movl	-4(%rbp), %eax
	addl	$1, %eax
	movl	%eax, -4(%rbp)
	jmp	.LBB16_84
.LBB16_90:                              # %for.end368
                                        #   in Loop: Header=BB16_82 Depth=2
	jmp	.LBB16_91
.LBB16_91:                              # %for.inc369
                                        #   in Loop: Header=BB16_82 Depth=2
	movl	-8(%rbp), %eax
	addl	$1, %eax
	movl	%eax, -8(%rbp)
	jmp	.LBB16_82
.LBB16_92:                              # %for.end371
                                        #   in Loop: Header=BB16_1 Depth=1
	movl	$0, -8(%rbp)
.LBB16_93:                              # %for.cond372
                                        #   Parent Loop BB16_1 Depth=1
                                        # =>  This Loop Header: Depth=2
                                        #       Child Loop BB16_95 Depth 3
	cmpl	$10, -8(%rbp)
	jge	.LBB16_103
# %bb.94:                               # %for.body374
                                        #   in Loop: Header=BB16_93 Depth=2
	movl	$0, -4(%rbp)
.LBB16_95:                              # %for.cond375
                                        #   Parent Loop BB16_1 Depth=1
                                        #     Parent Loop BB16_93 Depth=2
                                        # =>    This Inner Loop Header: Depth=3
	cmpl	$4, -4(%rbp)
	jge	.LBB16_101
# %bb.96:                               # %for.body377
                                        #   in Loop: Header=BB16_95 Depth=3
	movq	img, %rax
	cmpl	$2, 24(%rax)
	jne	.LBB16_98
# %bb.97:                               # %if.then380
                                        #   in Loop: Header=BB16_95 Depth=3
	movq	-32(%rbp), %rdi
	addq	$288, %rdi              # imm = 0x120
	movslq	-8(%rbp), %rax
	shlq	$6, %rax
	addq	%rax, %rdi
	movslq	-4(%rbp), %rax
	shlq	$4, %rax
	addq	%rax, %rdi
	movslq	-12(%rbp), %rax
	shlq	$8, %rax
	movabsq	$INIT_BCBP_I, %rsi
	addq	%rax, %rsi
	movslq	-8(%rbp), %rax
	shlq	$5, %rax
	addq	%rax, %rsi
	movslq	-4(%rbp), %rax
	shlq	$3, %rax
	addq	%rax, %rsi
	callq	XRate
	vaddsd	-24(%rbp), %xmm0, %xmm0
	vmovsd	%xmm0, -24(%rbp)
	jmp	.LBB16_99
.LBB16_98:                              # %if.else394
                                        #   in Loop: Header=BB16_95 Depth=3
	movq	-32(%rbp), %rdi
	addq	$288, %rdi              # imm = 0x120
	movslq	-8(%rbp), %rax
	shlq	$6, %rax
	addq	%rax, %rdi
	movslq	-4(%rbp), %rax
	shlq	$4, %rax
	addq	%rax, %rdi
	movslq	-12(%rbp), %rax
	shlq	$8, %rax
	movabsq	$INIT_BCBP_P, %rsi
	addq	%rax, %rsi
	movslq	-8(%rbp), %rax
	shlq	$5, %rax
	addq	%rax, %rsi
	movslq	-4(%rbp), %rax
	shlq	$3, %rax
	addq	%rax, %rsi
	callq	XRate
	vaddsd	-24(%rbp), %xmm0, %xmm0
	vmovsd	%xmm0, -24(%rbp)
.LBB16_99:                              # %if.end409
                                        #   in Loop: Header=BB16_95 Depth=3
	jmp	.LBB16_100
.LBB16_100:                             # %for.inc410
                                        #   in Loop: Header=BB16_95 Depth=3
	movl	-4(%rbp), %eax
	addl	$1, %eax
	movl	%eax, -4(%rbp)
	jmp	.LBB16_95
.LBB16_101:                             # %for.end412
                                        #   in Loop: Header=BB16_93 Depth=2
	jmp	.LBB16_102
.LBB16_102:                             # %for.inc413
                                        #   in Loop: Header=BB16_93 Depth=2
	movl	-8(%rbp), %eax
	addl	$1, %eax
	movl	%eax, -8(%rbp)
	jmp	.LBB16_93
.LBB16_103:                             # %for.end415
                                        #   in Loop: Header=BB16_1 Depth=1
	movl	$0, -8(%rbp)
.LBB16_104:                             # %for.cond416
                                        #   Parent Loop BB16_1 Depth=1
                                        # =>  This Loop Header: Depth=2
                                        #       Child Loop BB16_106 Depth 3
	cmpl	$10, -8(%rbp)
	jge	.LBB16_114
# %bb.105:                              # %for.body418
                                        #   in Loop: Header=BB16_104 Depth=2
	movl	$0, -4(%rbp)
.LBB16_106:                             # %for.cond419
                                        #   Parent Loop BB16_1 Depth=1
                                        #     Parent Loop BB16_104 Depth=2
                                        # =>    This Inner Loop Header: Depth=3
	cmpl	$15, -4(%rbp)
	jge	.LBB16_112
# %bb.107:                              # %for.body421
                                        #   in Loop: Header=BB16_106 Depth=3
	movq	img, %rax
	cmpl	$2, 24(%rax)
	jne	.LBB16_109
# %bb.108:                              # %if.then424
                                        #   in Loop: Header=BB16_106 Depth=3
	movq	-32(%rbp), %rdi
	addq	$928, %rdi              # imm = 0x3A0
	movslq	-8(%rbp), %rax
	imulq	$240, %rax, %rax
	addq	%rax, %rdi
	movslq	-4(%rbp), %rax
	shlq	$4, %rax
	addq	%rax, %rdi
	movslq	-12(%rbp), %rax
	imulq	$960, %rax, %rax        # imm = 0x3C0
	movabsq	$INIT_MAP_I, %rsi
	addq	%rax, %rsi
	movslq	-8(%rbp), %rax
	imulq	$120, %rax, %rax
	addq	%rax, %rsi
	movslq	-4(%rbp), %rax
	shlq	$3, %rax
	addq	%rax, %rsi
	callq	XRate
	vaddsd	-24(%rbp), %xmm0, %xmm0
	vmovsd	%xmm0, -24(%rbp)
	jmp	.LBB16_110
.LBB16_109:                             # %if.else438
                                        #   in Loop: Header=BB16_106 Depth=3
	movq	-32(%rbp), %rdi
	addq	$928, %rdi              # imm = 0x3A0
	movslq	-8(%rbp), %rax
	imulq	$240, %rax, %rax
	addq	%rax, %rdi
	movslq	-4(%rbp), %rax
	shlq	$4, %rax
	addq	%rax, %rdi
	movslq	-12(%rbp), %rax
	imulq	$960, %rax, %rax        # imm = 0x3C0
	movabsq	$INIT_MAP_P, %rsi
	addq	%rax, %rsi
	movslq	-8(%rbp), %rax
	imulq	$120, %rax, %rax
	addq	%rax, %rsi
	movslq	-4(%rbp), %rax
	shlq	$3, %rax
	addq	%rax, %rsi
	callq	XRate
	vaddsd	-24(%rbp), %xmm0, %xmm0
	vmovsd	%xmm0, -24(%rbp)
.LBB16_110:                             # %if.end453
                                        #   in Loop: Header=BB16_106 Depth=3
	jmp	.LBB16_111
.LBB16_111:                             # %for.inc454
                                        #   in Loop: Header=BB16_106 Depth=3
	movl	-4(%rbp), %eax
	addl	$1, %eax
	movl	%eax, -4(%rbp)
	jmp	.LBB16_106
.LBB16_112:                             # %for.end456
                                        #   in Loop: Header=BB16_104 Depth=2
	jmp	.LBB16_113
.LBB16_113:                             # %for.inc457
                                        #   in Loop: Header=BB16_104 Depth=2
	movl	-8(%rbp), %eax
	addl	$1, %eax
	movl	%eax, -8(%rbp)
	jmp	.LBB16_104
.LBB16_114:                             # %for.end459
                                        #   in Loop: Header=BB16_1 Depth=1
	movl	$0, -8(%rbp)
.LBB16_115:                             # %for.cond460
                                        #   Parent Loop BB16_1 Depth=1
                                        # =>  This Loop Header: Depth=2
                                        #       Child Loop BB16_117 Depth 3
	cmpl	$10, -8(%rbp)
	jge	.LBB16_125
# %bb.116:                              # %for.body462
                                        #   in Loop: Header=BB16_115 Depth=2
	movl	$0, -4(%rbp)
.LBB16_117:                             # %for.cond463
                                        #   Parent Loop BB16_1 Depth=1
                                        #     Parent Loop BB16_115 Depth=2
                                        # =>    This Inner Loop Header: Depth=3
	cmpl	$15, -4(%rbp)
	jge	.LBB16_123
# %bb.118:                              # %for.body465
                                        #   in Loop: Header=BB16_117 Depth=3
	movq	img, %rax
	cmpl	$2, 24(%rax)
	jne	.LBB16_120
# %bb.119:                              # %if.then468
                                        #   in Loop: Header=BB16_117 Depth=3
	movq	-32(%rbp), %rdi
	addq	$3328, %rdi             # imm = 0xD00
	movslq	-8(%rbp), %rax
	imulq	$240, %rax, %rax
	addq	%rax, %rdi
	movslq	-4(%rbp), %rax
	shlq	$4, %rax
	addq	%rax, %rdi
	movslq	-12(%rbp), %rax
	imulq	$960, %rax, %rax        # imm = 0x3C0
	movabsq	$INIT_LAST_I, %rsi
	addq	%rax, %rsi
	movslq	-8(%rbp), %rax
	imulq	$120, %rax, %rax
	addq	%rax, %rsi
	movslq	-4(%rbp), %rax
	shlq	$3, %rax
	addq	%rax, %rsi
	callq	XRate
	vaddsd	-24(%rbp), %xmm0, %xmm0
	vmovsd	%xmm0, -24(%rbp)
	jmp	.LBB16_121
.LBB16_120:                             # %if.else482
                                        #   in Loop: Header=BB16_117 Depth=3
	movq	-32(%rbp), %rdi
	addq	$3328, %rdi             # imm = 0xD00
	movslq	-8(%rbp), %rax
	imulq	$240, %rax, %rax
	addq	%rax, %rdi
	movslq	-4(%rbp), %rax
	shlq	$4, %rax
	addq	%rax, %rdi
	movslq	-12(%rbp), %rax
	imulq	$960, %rax, %rax        # imm = 0x3C0
	movabsq	$INIT_LAST_P, %rsi
	addq	%rax, %rsi
	movslq	-8(%rbp), %rax
	imulq	$120, %rax, %rax
	addq	%rax, %rsi
	movslq	-4(%rbp), %rax
	shlq	$3, %rax
	addq	%rax, %rsi
	callq	XRate
	vaddsd	-24(%rbp), %xmm0, %xmm0
	vmovsd	%xmm0, -24(%rbp)
.LBB16_121:                             # %if.end497
                                        #   in Loop: Header=BB16_117 Depth=3
	jmp	.LBB16_122
.LBB16_122:                             # %for.inc498
                                        #   in Loop: Header=BB16_117 Depth=3
	movl	-4(%rbp), %eax
	addl	$1, %eax
	movl	%eax, -4(%rbp)
	jmp	.LBB16_117
.LBB16_123:                             # %for.end500
                                        #   in Loop: Header=BB16_115 Depth=2
	jmp	.LBB16_124
.LBB16_124:                             # %for.inc501
                                        #   in Loop: Header=BB16_115 Depth=2
	movl	-8(%rbp), %eax
	addl	$1, %eax
	movl	%eax, -8(%rbp)
	jmp	.LBB16_115
.LBB16_125:                             # %for.end503
                                        #   in Loop: Header=BB16_1 Depth=1
	movl	$0, -8(%rbp)
.LBB16_126:                             # %for.cond504
                                        #   Parent Loop BB16_1 Depth=1
                                        # =>  This Loop Header: Depth=2
                                        #       Child Loop BB16_128 Depth 3
	cmpl	$10, -8(%rbp)
	jge	.LBB16_136
# %bb.127:                              # %for.body506
                                        #   in Loop: Header=BB16_126 Depth=2
	movl	$0, -4(%rbp)
.LBB16_128:                             # %for.cond507
                                        #   Parent Loop BB16_1 Depth=1
                                        #     Parent Loop BB16_126 Depth=2
                                        # =>    This Inner Loop Header: Depth=3
	cmpl	$5, -4(%rbp)
	jge	.LBB16_134
# %bb.129:                              # %for.body509
                                        #   in Loop: Header=BB16_128 Depth=3
	movq	img, %rax
	cmpl	$2, 24(%rax)
	jne	.LBB16_131
# %bb.130:                              # %if.then512
                                        #   in Loop: Header=BB16_128 Depth=3
	movq	-32(%rbp), %rdi
	addq	$5728, %rdi             # imm = 0x1660
	movslq	-8(%rbp), %rax
	imulq	$80, %rax, %rax
	addq	%rax, %rdi
	movslq	-4(%rbp), %rax
	shlq	$4, %rax
	addq	%rax, %rdi
	movslq	-12(%rbp), %rax
	imulq	$320, %rax, %rax        # imm = 0x140
	movabsq	$INIT_ONE_I, %rsi
	addq	%rax, %rsi
	movslq	-8(%rbp), %rax
	imulq	$40, %rax, %rax
	addq	%rax, %rsi
	movslq	-4(%rbp), %rax
	shlq	$3, %rax
	addq	%rax, %rsi
	callq	XRate
	vaddsd	-24(%rbp), %xmm0, %xmm0
	vmovsd	%xmm0, -24(%rbp)
	jmp	.LBB16_132
.LBB16_131:                             # %if.else526
                                        #   in Loop: Header=BB16_128 Depth=3
	movq	-32(%rbp), %rdi
	addq	$5728, %rdi             # imm = 0x1660
	movslq	-8(%rbp), %rax
	imulq	$80, %rax, %rax
	addq	%rax, %rdi
	movslq	-4(%rbp), %rax
	shlq	$4, %rax
	addq	%rax, %rdi
	movslq	-12(%rbp), %rax
	imulq	$320, %rax, %rax        # imm = 0x140
	movabsq	$INIT_ONE_P, %rsi
	addq	%rax, %rsi
	movslq	-8(%rbp), %rax
	imulq	$40, %rax, %rax
	addq	%rax, %rsi
	movslq	-4(%rbp), %rax
	shlq	$3, %rax
	addq	%rax, %rsi
	callq	XRate
	vaddsd	-24(%rbp), %xmm0, %xmm0
	vmovsd	%xmm0, -24(%rbp)
.LBB16_132:                             # %if.end541
                                        #   in Loop: Header=BB16_128 Depth=3
	jmp	.LBB16_133
.LBB16_133:                             # %for.inc542
                                        #   in Loop: Header=BB16_128 Depth=3
	movl	-4(%rbp), %eax
	addl	$1, %eax
	movl	%eax, -4(%rbp)
	jmp	.LBB16_128
.LBB16_134:                             # %for.end544
                                        #   in Loop: Header=BB16_126 Depth=2
	jmp	.LBB16_135
.LBB16_135:                             # %for.inc545
                                        #   in Loop: Header=BB16_126 Depth=2
	movl	-8(%rbp), %eax
	addl	$1, %eax
	movl	%eax, -8(%rbp)
	jmp	.LBB16_126
.LBB16_136:                             # %for.end547
                                        #   in Loop: Header=BB16_1 Depth=1
	movl	$0, -8(%rbp)
.LBB16_137:                             # %for.cond548
                                        #   Parent Loop BB16_1 Depth=1
                                        # =>  This Loop Header: Depth=2
                                        #       Child Loop BB16_139 Depth 3
	cmpl	$10, -8(%rbp)
	jge	.LBB16_147
# %bb.138:                              # %for.body550
                                        #   in Loop: Header=BB16_137 Depth=2
	movl	$0, -4(%rbp)
.LBB16_139:                             # %for.cond551
                                        #   Parent Loop BB16_1 Depth=1
                                        #     Parent Loop BB16_137 Depth=2
                                        # =>    This Inner Loop Header: Depth=3
	cmpl	$5, -4(%rbp)
	jge	.LBB16_145
# %bb.140:                              # %for.body553
                                        #   in Loop: Header=BB16_139 Depth=3
	movq	img, %rax
	cmpl	$2, 24(%rax)
	jne	.LBB16_142
# %bb.141:                              # %if.then556
                                        #   in Loop: Header=BB16_139 Depth=3
	movq	-32(%rbp), %rdi
	addq	$6528, %rdi             # imm = 0x1980
	movslq	-8(%rbp), %rax
	imulq	$80, %rax, %rax
	addq	%rax, %rdi
	movslq	-4(%rbp), %rax
	shlq	$4, %rax
	addq	%rax, %rdi
	movslq	-12(%rbp), %rax
	imulq	$320, %rax, %rax        # imm = 0x140
	movabsq	$INIT_ABS_I, %rsi
	addq	%rax, %rsi
	movslq	-8(%rbp), %rax
	imulq	$40, %rax, %rax
	addq	%rax, %rsi
	movslq	-4(%rbp), %rax
	shlq	$3, %rax
	addq	%rax, %rsi
	callq	XRate
	vaddsd	-24(%rbp), %xmm0, %xmm0
	vmovsd	%xmm0, -24(%rbp)
	jmp	.LBB16_143
.LBB16_142:                             # %if.else570
                                        #   in Loop: Header=BB16_139 Depth=3
	movq	-32(%rbp), %rdi
	addq	$6528, %rdi             # imm = 0x1980
	movslq	-8(%rbp), %rax
	imulq	$80, %rax, %rax
	addq	%rax, %rdi
	movslq	-4(%rbp), %rax
	shlq	$4, %rax
	addq	%rax, %rdi
	movslq	-12(%rbp), %rax
	imulq	$320, %rax, %rax        # imm = 0x140
	movabsq	$INIT_ABS_P, %rsi
	addq	%rax, %rsi
	movslq	-8(%rbp), %rax
	imulq	$40, %rax, %rax
	addq	%rax, %rsi
	movslq	-4(%rbp), %rax
	shlq	$3, %rax
	addq	%rax, %rsi
	callq	XRate
	vaddsd	-24(%rbp), %xmm0, %xmm0
	vmovsd	%xmm0, -24(%rbp)
.LBB16_143:                             # %if.end585
                                        #   in Loop: Header=BB16_139 Depth=3
	jmp	.LBB16_144
.LBB16_144:                             # %for.inc586
                                        #   in Loop: Header=BB16_139 Depth=3
	movl	-4(%rbp), %eax
	addl	$1, %eax
	movl	%eax, -4(%rbp)
	jmp	.LBB16_139
.LBB16_145:                             # %for.end588
                                        #   in Loop: Header=BB16_137 Depth=2
	jmp	.LBB16_146
.LBB16_146:                             # %for.inc589
                                        #   in Loop: Header=BB16_137 Depth=2
	movl	-8(%rbp), %eax
	addl	$1, %eax
	movl	%eax, -8(%rbp)
	jmp	.LBB16_137
.LBB16_147:                             # %for.end591
                                        #   in Loop: Header=BB16_1 Depth=1
	movl	$0, -8(%rbp)
.LBB16_148:                             # %for.cond592
                                        #   Parent Loop BB16_1 Depth=1
                                        # =>  This Loop Header: Depth=2
                                        #       Child Loop BB16_150 Depth 3
	cmpl	$10, -8(%rbp)
	jge	.LBB16_158
# %bb.149:                              # %for.body594
                                        #   in Loop: Header=BB16_148 Depth=2
	movl	$0, -4(%rbp)
.LBB16_150:                             # %for.cond595
                                        #   Parent Loop BB16_1 Depth=1
                                        #     Parent Loop BB16_148 Depth=2
                                        # =>    This Inner Loop Header: Depth=3
	cmpl	$15, -4(%rbp)
	jge	.LBB16_156
# %bb.151:                              # %for.body597
                                        #   in Loop: Header=BB16_150 Depth=3
	movq	img, %rax
	cmpl	$2, 24(%rax)
	jne	.LBB16_153
# %bb.152:                              # %if.then600
                                        #   in Loop: Header=BB16_150 Depth=3
	movq	-32(%rbp), %rdi
	addq	$7328, %rdi             # imm = 0x1CA0
	movslq	-8(%rbp), %rax
	imulq	$240, %rax, %rax
	addq	%rax, %rdi
	movslq	-4(%rbp), %rax
	shlq	$4, %rax
	addq	%rax, %rdi
	movslq	-12(%rbp), %rax
	imulq	$960, %rax, %rax        # imm = 0x3C0
	movabsq	$INIT_FLD_MAP_I, %rsi
	addq	%rax, %rsi
	movslq	-8(%rbp), %rax
	imulq	$120, %rax, %rax
	addq	%rax, %rsi
	movslq	-4(%rbp), %rax
	shlq	$3, %rax
	addq	%rax, %rsi
	callq	XRate
	vaddsd	-24(%rbp), %xmm0, %xmm0
	vmovsd	%xmm0, -24(%rbp)
	jmp	.LBB16_154
.LBB16_153:                             # %if.else614
                                        #   in Loop: Header=BB16_150 Depth=3
	movq	-32(%rbp), %rdi
	addq	$7328, %rdi             # imm = 0x1CA0
	movslq	-8(%rbp), %rax
	imulq	$240, %rax, %rax
	addq	%rax, %rdi
	movslq	-4(%rbp), %rax
	shlq	$4, %rax
	addq	%rax, %rdi
	movslq	-12(%rbp), %rax
	imulq	$960, %rax, %rax        # imm = 0x3C0
	movabsq	$INIT_FLD_MAP_P, %rsi
	addq	%rax, %rsi
	movslq	-8(%rbp), %rax
	imulq	$120, %rax, %rax
	addq	%rax, %rsi
	movslq	-4(%rbp), %rax
	shlq	$3, %rax
	addq	%rax, %rsi
	callq	XRate
	vaddsd	-24(%rbp), %xmm0, %xmm0
	vmovsd	%xmm0, -24(%rbp)
.LBB16_154:                             # %if.end629
                                        #   in Loop: Header=BB16_150 Depth=3
	jmp	.LBB16_155
.LBB16_155:                             # %for.inc630
                                        #   in Loop: Header=BB16_150 Depth=3
	movl	-4(%rbp), %eax
	addl	$1, %eax
	movl	%eax, -4(%rbp)
	jmp	.LBB16_150
.LBB16_156:                             # %for.end632
                                        #   in Loop: Header=BB16_148 Depth=2
	jmp	.LBB16_157
.LBB16_157:                             # %for.inc633
                                        #   in Loop: Header=BB16_148 Depth=2
	movl	-8(%rbp), %eax
	addl	$1, %eax
	movl	%eax, -8(%rbp)
	jmp	.LBB16_148
.LBB16_158:                             # %for.end635
                                        #   in Loop: Header=BB16_1 Depth=1
	movl	$0, -8(%rbp)
.LBB16_159:                             # %for.cond636
                                        #   Parent Loop BB16_1 Depth=1
                                        # =>  This Loop Header: Depth=2
                                        #       Child Loop BB16_161 Depth 3
	cmpl	$10, -8(%rbp)
	jge	.LBB16_169
# %bb.160:                              # %for.body638
                                        #   in Loop: Header=BB16_159 Depth=2
	movl	$0, -4(%rbp)
.LBB16_161:                             # %for.cond639
                                        #   Parent Loop BB16_1 Depth=1
                                        #     Parent Loop BB16_159 Depth=2
                                        # =>    This Inner Loop Header: Depth=3
	cmpl	$15, -4(%rbp)
	jge	.LBB16_167
# %bb.162:                              # %for.body641
                                        #   in Loop: Header=BB16_161 Depth=3
	movq	img, %rax
	cmpl	$2, 24(%rax)
	jne	.LBB16_164
# %bb.163:                              # %if.then644
                                        #   in Loop: Header=BB16_161 Depth=3
	movq	-32(%rbp), %rdi
	addq	$9728, %rdi             # imm = 0x2600
	movslq	-8(%rbp), %rax
	imulq	$240, %rax, %rax
	addq	%rax, %rdi
	movslq	-4(%rbp), %rax
	shlq	$4, %rax
	addq	%rax, %rdi
	movslq	-12(%rbp), %rax
	imulq	$960, %rax, %rax        # imm = 0x3C0
	movabsq	$INIT_FLD_LAST_I, %rsi
	addq	%rax, %rsi
	movslq	-8(%rbp), %rax
	imulq	$120, %rax, %rax
	addq	%rax, %rsi
	movslq	-4(%rbp), %rax
	shlq	$3, %rax
	addq	%rax, %rsi
	callq	XRate
	vaddsd	-24(%rbp), %xmm0, %xmm0
	vmovsd	%xmm0, -24(%rbp)
	jmp	.LBB16_165
.LBB16_164:                             # %if.else658
                                        #   in Loop: Header=BB16_161 Depth=3
	movq	-32(%rbp), %rdi
	addq	$9728, %rdi             # imm = 0x2600
	movslq	-8(%rbp), %rax
	imulq	$240, %rax, %rax
	addq	%rax, %rdi
	movslq	-4(%rbp), %rax
	shlq	$4, %rax
	addq	%rax, %rdi
	movslq	-12(%rbp), %rax
	imulq	$960, %rax, %rax        # imm = 0x3C0
	movabsq	$INIT_FLD_LAST_P, %rsi
	addq	%rax, %rsi
	movslq	-8(%rbp), %rax
	imulq	$120, %rax, %rax
	addq	%rax, %rsi
	movslq	-4(%rbp), %rax
	shlq	$3, %rax
	addq	%rax, %rsi
	callq	XRate
	vaddsd	-24(%rbp), %xmm0, %xmm0
	vmovsd	%xmm0, -24(%rbp)
.LBB16_165:                             # %if.end673
                                        #   in Loop: Header=BB16_161 Depth=3
	jmp	.LBB16_166
.LBB16_166:                             # %for.inc674
                                        #   in Loop: Header=BB16_161 Depth=3
	movl	-4(%rbp), %eax
	addl	$1, %eax
	movl	%eax, -4(%rbp)
	jmp	.LBB16_161
.LBB16_167:                             # %for.end676
                                        #   in Loop: Header=BB16_159 Depth=2
	jmp	.LBB16_168
.LBB16_168:                             # %for.inc677
                                        #   in Loop: Header=BB16_159 Depth=2
	movl	-8(%rbp), %eax
	addl	$1, %eax
	movl	%eax, -8(%rbp)
	jmp	.LBB16_159
.LBB16_169:                             # %for.end679
                                        #   in Loop: Header=BB16_1 Depth=1
	vmovsd	-24(%rbp), %xmm0        # xmm0 = mem[0],zero
	vmovsd	-56(%rbp), %xmm1        # xmm1 = mem[0],zero
	vucomisd	%xmm0, %xmm1
	jbe	.LBB16_171
# %bb.170:                              # %if.then681
                                        #   in Loop: Header=BB16_1 Depth=1
	vmovsd	-24(%rbp), %xmm0        # xmm0 = mem[0],zero
	vmovsd	%xmm0, -56(%rbp)
	movl	-12(%rbp), %eax
	movq	-64(%rbp), %rcx
	movl	%eax, (%rcx)
.LBB16_171:                             # %if.end682
                                        #   in Loop: Header=BB16_1 Depth=1
	jmp	.LBB16_172
.LBB16_172:                             # %for.inc683
                                        #   in Loop: Header=BB16_1 Depth=1
	movl	-12(%rbp), %eax
	addl	$1, %eax
	movl	%eax, -12(%rbp)
	jmp	.LBB16_1
.LBB16_173:                             # %for.end685
	cmpl	$1056927863, -44(%rbp)  # imm = 0x3EFF7077
	jne	.LBB16_175
.LBB16_174:
	addq	$64, %rsp
	popq	%rbp
	.cfi_def_cfa %rsp, 8
	retq
.LBB16_175:                             # %func_exit
	.cfi_def_cfa %rbp, 16
	callq	detect_breach
	jmp	.LBB16_174
.Lfunc_end16:
	.size	GetCtxModelNumber.9, .Lfunc_end16-GetCtxModelNumber.9
	.cfi_endproc
                                        # -- End function
	.globl	update_field_frame_contexts.10 # -- Begin function update_field_frame_contexts.10
	.p2align	4, 0x90
	.type	update_field_frame_contexts.10,@function
update_field_frame_contexts.10:         # @update_field_frame_contexts.10
	.cfi_startproc
# %bb.0:                                # %entry
	pushq	%rbp
	.cfi_def_cfa_offset 16
	.cfi_offset %rbp, -16
	movq	%rsp, %rbp
	.cfi_def_cfa_register %rbp
	subq	$16, %rsp
	movl	$595636943, -16(%rbp)   # imm = 0x2380B2CF
	movl	%edi, -12(%rbp)
	cmpl	$0, -12(%rbp)
	je	.LBB17_10
# %bb.1:                                # %if.then
	movl	$0, -4(%rbp)
.LBB17_2:                               # %for.cond
                                        # =>This Loop Header: Depth=1
                                        #     Child Loop BB17_4 Depth 2
	cmpl	$4, -4(%rbp)
	jge	.LBB17_9
# %bb.3:                                # %for.body
                                        #   in Loop: Header=BB17_2 Depth=1
	movl	$0, -8(%rbp)
.LBB17_4:                               # %for.cond1
                                        #   Parent Loop BB17_2 Depth=1
                                        # =>  This Inner Loop Header: Depth=2
	movl	-8(%rbp), %eax
	cmpl	number_of_slices, %eax
	jge	.LBB17_7
# %bb.5:                                # %for.body3
                                        #   in Loop: Header=BB17_4 Depth=2
	movq	initialized, %rax
	movq	8(%rax), %rax
	movslq	-4(%rbp), %rcx
	movq	(%rax,%rcx,8), %rax
	movl	-8(%rbp), %ecx
	sarl	$1, %ecx
	movslq	%ecx, %rcx
	movl	(%rax,%rcx,4), %eax
	movq	initialized, %rcx
	movq	(%rcx), %rcx
	movslq	-4(%rbp), %rdx
	movq	(%rcx,%rdx,8), %rcx
	movslq	-8(%rbp), %rdx
	movl	%eax, (%rcx,%rdx,4)
	movq	model_number, %rax
	movq	8(%rax), %rax
	movslq	-4(%rbp), %rcx
	movq	(%rax,%rcx,8), %rax
	movl	-8(%rbp), %ecx
	sarl	$1, %ecx
	movslq	%ecx, %rcx
	movl	(%rax,%rcx,4), %eax
	movq	model_number, %rcx
	movq	(%rcx), %rcx
	movslq	-4(%rbp), %rdx
	movq	(%rcx,%rdx,8), %rcx
	movslq	-8(%rbp), %rdx
	movl	%eax, (%rcx,%rdx,4)
# %bb.6:                                # %for.inc
                                        #   in Loop: Header=BB17_4 Depth=2
	movl	-8(%rbp), %eax
	addl	$1, %eax
	movl	%eax, -8(%rbp)
	jmp	.LBB17_4
.LBB17_7:                               # %for.end
                                        #   in Loop: Header=BB17_2 Depth=1
	jmp	.LBB17_8
.LBB17_8:                               # %for.inc23
                                        #   in Loop: Header=BB17_2 Depth=1
	movl	-4(%rbp), %eax
	addl	$1, %eax
	movl	%eax, -4(%rbp)
	jmp	.LBB17_2
.LBB17_9:                               # %for.end25
	jmp	.LBB17_19
.LBB17_10:                              # %if.else
	movl	$0, -4(%rbp)
.LBB17_11:                              # %for.cond26
                                        # =>This Loop Header: Depth=1
                                        #     Child Loop BB17_13 Depth 2
	cmpl	$4, -4(%rbp)
	jge	.LBB17_18
# %bb.12:                               # %for.body28
                                        #   in Loop: Header=BB17_11 Depth=1
	movl	$0, -8(%rbp)
.LBB17_13:                              # %for.cond29
                                        #   Parent Loop BB17_11 Depth=1
                                        # =>  This Inner Loop Header: Depth=2
	movl	-8(%rbp), %eax
	movl	number_of_slices, %ecx
	addl	$1, %ecx
	sarl	$1, %ecx
	cmpl	%ecx, %eax
	jge	.LBB17_16
# %bb.14:                               # %for.body32
                                        #   in Loop: Header=BB17_13 Depth=2
	movq	initialized, %rax
	movq	(%rax), %rax
	movslq	-4(%rbp), %rcx
	movq	(%rax,%rcx,8), %rax
	movl	-8(%rbp), %ecx
	shll	$1, %ecx
	movslq	%ecx, %rcx
	movl	(%rax,%rcx,4), %eax
	movq	initialized, %rcx
	movq	8(%rcx), %rcx
	movslq	-4(%rbp), %rdx
	movq	(%rcx,%rdx,8), %rcx
	movslq	-8(%rbp), %rdx
	movl	%eax, (%rcx,%rdx,4)
	movq	model_number, %rax
	movq	(%rax), %rax
	movslq	-4(%rbp), %rcx
	movq	(%rax,%rcx,8), %rax
	movl	-8(%rbp), %ecx
	shll	$1, %ecx
	movslq	%ecx, %rcx
	movl	(%rax,%rcx,4), %eax
	movq	model_number, %rcx
	movq	8(%rcx), %rcx
	movslq	-4(%rbp), %rdx
	movq	(%rcx,%rdx,8), %rcx
	movslq	-8(%rbp), %rdx
	movl	%eax, (%rcx,%rdx,4)
# %bb.15:                               # %for.inc54
                                        #   in Loop: Header=BB17_13 Depth=2
	movl	-8(%rbp), %eax
	addl	$1, %eax
	movl	%eax, -8(%rbp)
	jmp	.LBB17_13
.LBB17_16:                              # %for.end56
                                        #   in Loop: Header=BB17_11 Depth=1
	jmp	.LBB17_17
.LBB17_17:                              # %for.inc57
                                        #   in Loop: Header=BB17_11 Depth=1
	movl	-4(%rbp), %eax
	addl	$1, %eax
	movl	%eax, -4(%rbp)
	jmp	.LBB17_11
.LBB17_18:                              # %for.end59
	jmp	.LBB17_19
.LBB17_19:                              # %if.end
	cmpl	$595636943, -16(%rbp)   # imm = 0x2380B2CF
	jne	.LBB17_21
.LBB17_20:
	addq	$16, %rsp
	popq	%rbp
	.cfi_def_cfa %rsp, 8
	retq
.LBB17_21:                              # %func_exit
	.cfi_def_cfa %rbp, 16
	callq	detect_breach
	jmp	.LBB17_20
.Lfunc_end17:
	.size	update_field_frame_contexts.10, .Lfunc_end17-update_field_frame_contexts.10
	.cfi_endproc
                                        # -- End function
	.section	.rodata.cst8,"aM",@progbits,8
	.p2align	3               # -- Begin function XRate.11
.LCPI18_0:
	.quad	4607182418800017408     # double 1
.LCPI18_1:
	.quad	4629700416936869888     # double 32
	.section	.rodata.cst16,"aM",@progbits,16
	.p2align	4
.LCPI18_2:
	.long	1127219200              # 0x43300000
	.long	1160773632              # 0x45300000
	.long	0                       # 0x0
	.long	0                       # 0x0
.LCPI18_3:
	.quad	4841369599423283200     # double 4503599627370496
	.quad	4985484787499139072     # double 1.9342813113834067E+25
	.text
	.globl	XRate.11
	.p2align	4, 0x90
	.type	XRate.11,@function
XRate.11:                               # @XRate.11
	.cfi_startproc
# %bb.0:                                # %entry
	pushq	%rbp
	.cfi_def_cfa_offset 16
	.cfi_offset %rbp, -16
	movq	%rsp, %rbp
	.cfi_def_cfa_register %rbp
	subq	$64, %rsp
	xorl	%eax, %eax
	movl	$2072077811, -32(%rbp)  # imm = 0x7B8165F3
	movq	%rdi, -16(%rbp)
	movq	%rsi, -48(%rbp)
	vxorps	%xmm0, %xmm0, %xmm0
	vmovsd	%xmm0, -24(%rbp)
	movq	img, %rcx
	cmpl	40(%rcx), %eax
	jle	.LBB18_2
# %bb.1:                                # %cond.true
	xorl	%eax, %eax
	jmp	.LBB18_3
.LBB18_2:                               # %cond.false
	movq	img, %rax
	movl	40(%rax), %eax
.LBB18_3:                               # %cond.end
	vmovsd	.LCPI18_0(%rip), %xmm0  # xmm0 = mem[0],zero
	vmovsd	.LCPI18_1(%rip), %xmm1  # xmm1 = mem[0],zero
	movl	%eax, -36(%rbp)
	movq	-16(%rbp), %rax
	vmovq	8(%rax), %xmm2          # xmm2 = mem[0],zero
	vmovdqa	.LCPI18_2(%rip), %xmm3  # xmm3 = [1127219200,1160773632,0,0]
	vpunpckldq	%xmm3, %xmm2, %xmm2 # xmm2 = xmm2[0],xmm3[0],xmm2[1],xmm3[1]
	vmovapd	.LCPI18_3(%rip), %xmm3  # xmm3 = [4.503599627370496E+15,1.9342813113834067E+25]
	vsubpd	%xmm3, %xmm2, %xmm2
	vhaddpd	%xmm2, %xmm2, %xmm2
	vdivsd	%xmm1, %xmm2, %xmm1
	vucomisd	%xmm0, %xmm1
	jbe	.LBB18_5
# %bb.4:                                # %cond.true5
	vmovsd	.LCPI18_0(%rip), %xmm0  # xmm0 = mem[0],zero
	jmp	.LBB18_6
.LBB18_5:                               # %cond.false6
	vmovsd	.LCPI18_1(%rip), %xmm0  # xmm0 = mem[0],zero
	movq	-16(%rbp), %rax
	vmovq	8(%rax), %xmm1          # xmm1 = mem[0],zero
	vmovdqa	.LCPI18_2(%rip), %xmm2  # xmm2 = [1127219200,1160773632,0,0]
	vpunpckldq	%xmm2, %xmm1, %xmm1 # xmm1 = xmm1[0],xmm2[0],xmm1[1],xmm2[1]
	vmovapd	.LCPI18_3(%rip), %xmm2  # xmm2 = [4.503599627370496E+15,1.9342813113834067E+25]
	vsubpd	%xmm2, %xmm1, %xmm1
	vhaddpd	%xmm1, %xmm1, %xmm1
	vdivsd	%xmm0, %xmm1, %xmm0
.LBB18_6:                               # %cond.end10
	xorl	%eax, %eax
	vmovsd	%xmm0, -56(%rbp)
	movq	-48(%rbp), %rcx
	movl	(%rcx), %ecx
	imull	-36(%rbp), %ecx
	sarl	$4, %ecx
	movq	-48(%rbp), %rdx
	addl	4(%rdx), %ecx
	movl	%ecx, -4(%rbp)
	cmpl	-4(%rbp), %eax
	jle	.LBB18_8
# %bb.7:                                # %cond.true15
	xorl	%eax, %eax
	jmp	.LBB18_9
.LBB18_8:                               # %cond.false16
	movl	-4(%rbp), %eax
.LBB18_9:                               # %cond.end17
	cmpl	$127, %eax
	jge	.LBB18_14
# %bb.10:                               # %cond.true21
	xorl	%eax, %eax
	cmpl	-4(%rbp), %eax
	jle	.LBB18_12
# %bb.11:                               # %cond.true24
	xorl	%eax, %eax
	jmp	.LBB18_13
.LBB18_12:                              # %cond.false25
	movl	-4(%rbp), %eax
.LBB18_13:                              # %cond.end26
	jmp	.LBB18_15
.LBB18_14:                              # %cond.false28
	movl	$127, %eax
	jmp	.LBB18_15
.LBB18_15:                              # %cond.end29
	movl	%eax, -4(%rbp)
	movq	-16(%rbp), %rax
	movzbl	2(%rax), %eax
	cmpl	$0, %eax
	je	.LBB18_17
# %bb.16:                               # %cond.true32
	movq	-16(%rbp), %rax
	movzwl	(%rax), %eax
	addl	$64, %eax
	jmp	.LBB18_18
.LBB18_17:                              # %cond.false35
	movq	-16(%rbp), %rax
	movzwl	(%rax), %ecx
	movl	$63, %eax
	subl	%ecx, %eax
.LBB18_18:                              # %cond.end38
	movl	%eax, -28(%rbp)
	vmovsd	-56(%rbp), %xmm0        # xmm0 = mem[0],zero
	movslq	-28(%rbp), %rax
	vmulsd	probability(,%rax,8), %xmm0, %xmm0
	movslq	-4(%rbp), %rax
	vmulsd	entropy(,%rax,8), %xmm0, %xmm0
	vmovsd	-24(%rbp), %xmm1        # xmm1 = mem[0],zero
	vsubsd	%xmm0, %xmm1, %xmm0
	vmovsd	%xmm0, -24(%rbp)
	vmovsd	-56(%rbp), %xmm0        # xmm0 = mem[0],zero
	movl	$127, %eax
	movl	$127, %ecx
	subl	-28(%rbp), %ecx
	movslq	%ecx, %rcx
	vmulsd	probability(,%rcx,8), %xmm0, %xmm0
	subl	-4(%rbp), %eax
	cltq
	vmulsd	entropy(,%rax,8), %xmm0, %xmm0
	vmovsd	-24(%rbp), %xmm1        # xmm1 = mem[0],zero
	vsubsd	%xmm0, %xmm1, %xmm0
	vmovsd	%xmm0, -24(%rbp)
	vmovsd	-24(%rbp), %xmm0        # xmm0 = mem[0],zero
	cmpl	$2072077811, -32(%rbp)  # imm = 0x7B8165F3
	jne	.LBB18_20
.LBB18_19:
	addq	$64, %rsp
	popq	%rbp
	.cfi_def_cfa %rsp, 8
	retq
.LBB18_20:                              # %func_exit
	.cfi_def_cfa %rbp, 16
	vmovsd	%xmm0, -64(%rbp)        # 8-byte Spill
	callq	detect_breach
	vmovsd	-64(%rbp), %xmm0        # 8-byte Reload
                                        # xmm0 = mem[0],zero
	jmp	.LBB18_19
.Lfunc_end18:
	.size	XRate.11, .Lfunc_end18-XRate.11
	.cfi_endproc
                                        # -- End function
	.globl	init_contexts.12        # -- Begin function init_contexts.12
	.p2align	4, 0x90
	.type	init_contexts.12,@function
init_contexts.12:                       # @init_contexts.12
	.cfi_startproc
# %bb.0:                                # %entry
	pushq	%rbp
	.cfi_def_cfa_offset 16
	.cfi_offset %rbp, -16
	movq	%rsp, %rbp
	.cfi_def_cfa_register %rbp
	subq	$32, %rsp
	movl	$498531517, -28(%rbp)   # imm = 0x1DB6FCBD
	movq	img, %rax
	movq	14160(%rax), %rax
	movq	32(%rax), %rax
	movq	%rax, -24(%rbp)
	movq	img, %rax
	movq	14160(%rax), %rax
	movq	40(%rax), %rax
	movq	%rax, -16(%rbp)
	movl	$0, -8(%rbp)
.LBB19_1:                               # %for.cond
                                        # =>This Loop Header: Depth=1
                                        #     Child Loop BB19_3 Depth 2
	cmpl	$3, -8(%rbp)
	jge	.LBB19_11
# %bb.2:                                # %for.body
                                        #   in Loop: Header=BB19_1 Depth=1
	movl	$0, -4(%rbp)
.LBB19_3:                               # %for.cond2
                                        #   Parent Loop BB19_1 Depth=1
                                        # =>  This Inner Loop Header: Depth=2
	cmpl	$11, -4(%rbp)
	jge	.LBB19_9
# %bb.4:                                # %for.body4
                                        #   in Loop: Header=BB19_3 Depth=2
	movq	img, %rax
	cmpl	$2, 24(%rax)
	jne	.LBB19_6
# %bb.5:                                # %if.then
                                        #   in Loop: Header=BB19_3 Depth=2
	movq	-24(%rbp), %rdi
	movslq	-8(%rbp), %rax
	imulq	$176, %rax, %rax
	addq	%rax, %rdi
	movslq	-4(%rbp), %rax
	shlq	$4, %rax
	addq	%rax, %rdi
	movq	img, %rax
	movslq	72520(%rax), %rax
	imulq	$264, %rax, %rax        # imm = 0x108
	movabsq	$INIT_MB_TYPE_I, %rsi
	addq	%rax, %rsi
	movslq	-8(%rbp), %rax
	imulq	$88, %rax, %rax
	addq	%rax, %rsi
	movslq	-4(%rbp), %rax
	shlq	$3, %rax
	addq	%rax, %rsi
	callq	biari_init_context
	jmp	.LBB19_7
.LBB19_6:                               # %if.else
                                        #   in Loop: Header=BB19_3 Depth=2
	movq	-24(%rbp), %rdi
	movslq	-8(%rbp), %rax
	imulq	$176, %rax, %rax
	addq	%rax, %rdi
	movslq	-4(%rbp), %rax
	shlq	$4, %rax
	addq	%rax, %rdi
	movq	img, %rax
	movslq	72520(%rax), %rax
	imulq	$264, %rax, %rax        # imm = 0x108
	movabsq	$INIT_MB_TYPE_P, %rsi
	addq	%rax, %rsi
	movslq	-8(%rbp), %rax
	imulq	$88, %rax, %rax
	addq	%rax, %rsi
	movslq	-4(%rbp), %rax
	shlq	$3, %rax
	addq	%rax, %rsi
	callq	biari_init_context
.LBB19_7:                               # %if.end
                                        #   in Loop: Header=BB19_3 Depth=2
	jmp	.LBB19_8
.LBB19_8:                               # %for.inc
                                        #   in Loop: Header=BB19_3 Depth=2
	movl	-4(%rbp), %eax
	addl	$1, %eax
	movl	%eax, -4(%rbp)
	jmp	.LBB19_3
.LBB19_9:                               # %for.end
                                        #   in Loop: Header=BB19_1 Depth=1
	jmp	.LBB19_10
.LBB19_10:                              # %for.inc28
                                        #   in Loop: Header=BB19_1 Depth=1
	movl	-8(%rbp), %eax
	addl	$1, %eax
	movl	%eax, -8(%rbp)
	jmp	.LBB19_1
.LBB19_11:                              # %for.end30
	movl	$0, -8(%rbp)
.LBB19_12:                              # %for.cond31
                                        # =>This Loop Header: Depth=1
                                        #     Child Loop BB19_14 Depth 2
	cmpl	$2, -8(%rbp)
	jge	.LBB19_22
# %bb.13:                               # %for.body33
                                        #   in Loop: Header=BB19_12 Depth=1
	movl	$0, -4(%rbp)
.LBB19_14:                              # %for.cond34
                                        #   Parent Loop BB19_12 Depth=1
                                        # =>  This Inner Loop Header: Depth=2
	cmpl	$9, -4(%rbp)
	jge	.LBB19_20
# %bb.15:                               # %for.body36
                                        #   in Loop: Header=BB19_14 Depth=2
	movq	img, %rax
	cmpl	$2, 24(%rax)
	jne	.LBB19_17
# %bb.16:                               # %if.then39
                                        #   in Loop: Header=BB19_14 Depth=2
	movq	-24(%rbp), %rdi
	addq	$528, %rdi              # imm = 0x210
	movslq	-8(%rbp), %rax
	imulq	$144, %rax, %rax
	addq	%rax, %rdi
	movslq	-4(%rbp), %rax
	shlq	$4, %rax
	addq	%rax, %rdi
	movq	img, %rax
	movslq	72520(%rax), %rax
	imulq	$144, %rax, %rax
	movabsq	$INIT_B8_TYPE_I, %rsi
	addq	%rax, %rsi
	movslq	-8(%rbp), %rax
	imulq	$72, %rax, %rax
	addq	%rax, %rsi
	movslq	-4(%rbp), %rax
	shlq	$3, %rax
	addq	%rax, %rsi
	callq	biari_init_context
	jmp	.LBB19_18
.LBB19_17:                              # %if.else52
                                        #   in Loop: Header=BB19_14 Depth=2
	movq	-24(%rbp), %rdi
	addq	$528, %rdi              # imm = 0x210
	movslq	-8(%rbp), %rax
	imulq	$144, %rax, %rax
	addq	%rax, %rdi
	movslq	-4(%rbp), %rax
	shlq	$4, %rax
	addq	%rax, %rdi
	movq	img, %rax
	movslq	72520(%rax), %rax
	imulq	$144, %rax, %rax
	movabsq	$INIT_B8_TYPE_P, %rsi
	addq	%rax, %rsi
	movslq	-8(%rbp), %rax
	imulq	$72, %rax, %rax
	addq	%rax, %rsi
	movslq	-4(%rbp), %rax
	shlq	$3, %rax
	addq	%rax, %rsi
	callq	biari_init_context
.LBB19_18:                              # %if.end66
                                        #   in Loop: Header=BB19_14 Depth=2
	jmp	.LBB19_19
.LBB19_19:                              # %for.inc67
                                        #   in Loop: Header=BB19_14 Depth=2
	movl	-4(%rbp), %eax
	addl	$1, %eax
	movl	%eax, -4(%rbp)
	jmp	.LBB19_14
.LBB19_20:                              # %for.end69
                                        #   in Loop: Header=BB19_12 Depth=1
	jmp	.LBB19_21
.LBB19_21:                              # %for.inc70
                                        #   in Loop: Header=BB19_12 Depth=1
	movl	-8(%rbp), %eax
	addl	$1, %eax
	movl	%eax, -8(%rbp)
	jmp	.LBB19_12
.LBB19_22:                              # %for.end72
	movl	$0, -8(%rbp)
.LBB19_23:                              # %for.cond73
                                        # =>This Loop Header: Depth=1
                                        #     Child Loop BB19_25 Depth 2
	cmpl	$2, -8(%rbp)
	jge	.LBB19_33
# %bb.24:                               # %for.body75
                                        #   in Loop: Header=BB19_23 Depth=1
	movl	$0, -4(%rbp)
.LBB19_25:                              # %for.cond76
                                        #   Parent Loop BB19_23 Depth=1
                                        # =>  This Inner Loop Header: Depth=2
	cmpl	$10, -4(%rbp)
	jge	.LBB19_31
# %bb.26:                               # %for.body78
                                        #   in Loop: Header=BB19_25 Depth=2
	movq	img, %rax
	cmpl	$2, 24(%rax)
	jne	.LBB19_28
# %bb.27:                               # %if.then81
                                        #   in Loop: Header=BB19_25 Depth=2
	movq	-24(%rbp), %rdi
	addq	$816, %rdi              # imm = 0x330
	movslq	-8(%rbp), %rax
	imulq	$160, %rax, %rax
	addq	%rax, %rdi
	movslq	-4(%rbp), %rax
	shlq	$4, %rax
	addq	%rax, %rdi
	movq	img, %rax
	movslq	72520(%rax), %rax
	imulq	$160, %rax, %rax
	movabsq	$INIT_MV_RES_I, %rsi
	addq	%rax, %rsi
	movslq	-8(%rbp), %rax
	imulq	$80, %rax, %rax
	addq	%rax, %rsi
	movslq	-4(%rbp), %rax
	shlq	$3, %rax
	addq	%rax, %rsi
	callq	biari_init_context
	jmp	.LBB19_29
.LBB19_28:                              # %if.else94
                                        #   in Loop: Header=BB19_25 Depth=2
	movq	-24(%rbp), %rdi
	addq	$816, %rdi              # imm = 0x330
	movslq	-8(%rbp), %rax
	imulq	$160, %rax, %rax
	addq	%rax, %rdi
	movslq	-4(%rbp), %rax
	shlq	$4, %rax
	addq	%rax, %rdi
	movq	img, %rax
	movslq	72520(%rax), %rax
	imulq	$160, %rax, %rax
	movabsq	$INIT_MV_RES_P, %rsi
	addq	%rax, %rsi
	movslq	-8(%rbp), %rax
	imulq	$80, %rax, %rax
	addq	%rax, %rsi
	movslq	-4(%rbp), %rax
	shlq	$3, %rax
	addq	%rax, %rsi
	callq	biari_init_context
.LBB19_29:                              # %if.end108
                                        #   in Loop: Header=BB19_25 Depth=2
	jmp	.LBB19_30
.LBB19_30:                              # %for.inc109
                                        #   in Loop: Header=BB19_25 Depth=2
	movl	-4(%rbp), %eax
	addl	$1, %eax
	movl	%eax, -4(%rbp)
	jmp	.LBB19_25
.LBB19_31:                              # %for.end111
                                        #   in Loop: Header=BB19_23 Depth=1
	jmp	.LBB19_32
.LBB19_32:                              # %for.inc112
                                        #   in Loop: Header=BB19_23 Depth=1
	movl	-8(%rbp), %eax
	addl	$1, %eax
	movl	%eax, -8(%rbp)
	jmp	.LBB19_23
.LBB19_33:                              # %for.end114
	movl	$0, -8(%rbp)
.LBB19_34:                              # %for.cond115
                                        # =>This Loop Header: Depth=1
                                        #     Child Loop BB19_36 Depth 2
	cmpl	$2, -8(%rbp)
	jge	.LBB19_44
# %bb.35:                               # %for.body117
                                        #   in Loop: Header=BB19_34 Depth=1
	movl	$0, -4(%rbp)
.LBB19_36:                              # %for.cond118
                                        #   Parent Loop BB19_34 Depth=1
                                        # =>  This Inner Loop Header: Depth=2
	cmpl	$6, -4(%rbp)
	jge	.LBB19_42
# %bb.37:                               # %for.body120
                                        #   in Loop: Header=BB19_36 Depth=2
	movq	img, %rax
	cmpl	$2, 24(%rax)
	jne	.LBB19_39
# %bb.38:                               # %if.then123
                                        #   in Loop: Header=BB19_36 Depth=2
	movq	-24(%rbp), %rdi
	addq	$1136, %rdi             # imm = 0x470
	movslq	-8(%rbp), %rax
	imulq	$96, %rax, %rax
	addq	%rax, %rdi
	movslq	-4(%rbp), %rax
	shlq	$4, %rax
	addq	%rax, %rdi
	movq	img, %rax
	movslq	72520(%rax), %rax
	imulq	$96, %rax, %rax
	movabsq	$INIT_REF_NO_I, %rsi
	addq	%rax, %rsi
	movslq	-8(%rbp), %rax
	imulq	$48, %rax, %rax
	addq	%rax, %rsi
	movslq	-4(%rbp), %rax
	shlq	$3, %rax
	addq	%rax, %rsi
	callq	biari_init_context
	jmp	.LBB19_40
.LBB19_39:                              # %if.else136
                                        #   in Loop: Header=BB19_36 Depth=2
	movq	-24(%rbp), %rdi
	addq	$1136, %rdi             # imm = 0x470
	movslq	-8(%rbp), %rax
	imulq	$96, %rax, %rax
	addq	%rax, %rdi
	movslq	-4(%rbp), %rax
	shlq	$4, %rax
	addq	%rax, %rdi
	movq	img, %rax
	movslq	72520(%rax), %rax
	imulq	$96, %rax, %rax
	movabsq	$INIT_REF_NO_P, %rsi
	addq	%rax, %rsi
	movslq	-8(%rbp), %rax
	imulq	$48, %rax, %rax
	addq	%rax, %rsi
	movslq	-4(%rbp), %rax
	shlq	$3, %rax
	addq	%rax, %rsi
	callq	biari_init_context
.LBB19_40:                              # %if.end150
                                        #   in Loop: Header=BB19_36 Depth=2
	jmp	.LBB19_41
.LBB19_41:                              # %for.inc151
                                        #   in Loop: Header=BB19_36 Depth=2
	movl	-4(%rbp), %eax
	addl	$1, %eax
	movl	%eax, -4(%rbp)
	jmp	.LBB19_36
.LBB19_42:                              # %for.end153
                                        #   in Loop: Header=BB19_34 Depth=1
	jmp	.LBB19_43
.LBB19_43:                              # %for.inc154
                                        #   in Loop: Header=BB19_34 Depth=1
	movl	-8(%rbp), %eax
	addl	$1, %eax
	movl	%eax, -8(%rbp)
	jmp	.LBB19_34
.LBB19_44:                              # %for.end156
	movl	$0, -4(%rbp)
.LBB19_45:                              # %for.cond157
                                        # =>This Inner Loop Header: Depth=1
	cmpl	$4, -4(%rbp)
	jge	.LBB19_51
# %bb.46:                               # %for.body159
                                        #   in Loop: Header=BB19_45 Depth=1
	movq	img, %rax
	cmpl	$2, 24(%rax)
	jne	.LBB19_48
# %bb.47:                               # %if.then162
                                        #   in Loop: Header=BB19_45 Depth=1
	movq	-24(%rbp), %rdi
	addq	$1328, %rdi             # imm = 0x530
	movslq	-4(%rbp), %rax
	shlq	$4, %rax
	addq	%rax, %rdi
	movq	img, %rax
	movslq	72520(%rax), %rax
	shlq	$5, %rax
	movabsq	$INIT_DELTA_QP_I, %rsi
	addq	%rax, %rsi
	movslq	-4(%rbp), %rax
	shlq	$3, %rax
	addq	%rax, %rsi
	callq	biari_init_context
	jmp	.LBB19_49
.LBB19_48:                              # %if.else172
                                        #   in Loop: Header=BB19_45 Depth=1
	movq	-24(%rbp), %rdi
	addq	$1328, %rdi             # imm = 0x530
	movslq	-4(%rbp), %rax
	shlq	$4, %rax
	addq	%rax, %rdi
	movq	img, %rax
	movslq	72520(%rax), %rax
	shlq	$5, %rax
	movabsq	$INIT_DELTA_QP_P, %rsi
	addq	%rax, %rsi
	movslq	-4(%rbp), %rax
	shlq	$3, %rax
	addq	%rax, %rsi
	callq	biari_init_context
.LBB19_49:                              # %if.end183
                                        #   in Loop: Header=BB19_45 Depth=1
	jmp	.LBB19_50
.LBB19_50:                              # %for.inc184
                                        #   in Loop: Header=BB19_45 Depth=1
	movl	-4(%rbp), %eax
	addl	$1, %eax
	movl	%eax, -4(%rbp)
	jmp	.LBB19_45
.LBB19_51:                              # %for.end186
	movl	$0, -4(%rbp)
.LBB19_52:                              # %for.cond187
                                        # =>This Inner Loop Header: Depth=1
	cmpl	$4, -4(%rbp)
	jge	.LBB19_58
# %bb.53:                               # %for.body189
                                        #   in Loop: Header=BB19_52 Depth=1
	movq	img, %rax
	cmpl	$2, 24(%rax)
	jne	.LBB19_55
# %bb.54:                               # %if.then192
                                        #   in Loop: Header=BB19_52 Depth=1
	movq	-24(%rbp), %rdi
	addq	$1392, %rdi             # imm = 0x570
	movslq	-4(%rbp), %rax
	shlq	$4, %rax
	addq	%rax, %rdi
	movq	img, %rax
	movslq	72520(%rax), %rax
	shlq	$5, %rax
	movabsq	$INIT_MB_AFF_I, %rsi
	addq	%rax, %rsi
	movslq	-4(%rbp), %rax
	shlq	$3, %rax
	addq	%rax, %rsi
	callq	biari_init_context
	jmp	.LBB19_56
.LBB19_55:                              # %if.else202
                                        #   in Loop: Header=BB19_52 Depth=1
	movq	-24(%rbp), %rdi
	addq	$1392, %rdi             # imm = 0x570
	movslq	-4(%rbp), %rax
	shlq	$4, %rax
	addq	%rax, %rdi
	movq	img, %rax
	movslq	72520(%rax), %rax
	shlq	$5, %rax
	movabsq	$INIT_MB_AFF_P, %rsi
	addq	%rax, %rsi
	movslq	-4(%rbp), %rax
	shlq	$3, %rax
	addq	%rax, %rsi
	callq	biari_init_context
.LBB19_56:                              # %if.end213
                                        #   in Loop: Header=BB19_52 Depth=1
	jmp	.LBB19_57
.LBB19_57:                              # %for.inc214
                                        #   in Loop: Header=BB19_52 Depth=1
	movl	-4(%rbp), %eax
	addl	$1, %eax
	movl	%eax, -4(%rbp)
	jmp	.LBB19_52
.LBB19_58:                              # %for.end216
	movl	$0, -4(%rbp)
.LBB19_59:                              # %for.cond217
                                        # =>This Inner Loop Header: Depth=1
	cmpl	$3, -4(%rbp)
	jge	.LBB19_65
# %bb.60:                               # %for.body219
                                        #   in Loop: Header=BB19_59 Depth=1
	movq	img, %rax
	cmpl	$2, 24(%rax)
	jne	.LBB19_62
# %bb.61:                               # %if.then222
                                        #   in Loop: Header=BB19_59 Depth=1
	movq	-24(%rbp), %rdi
	addq	$1456, %rdi             # imm = 0x5B0
	movslq	-4(%rbp), %rax
	shlq	$4, %rax
	addq	%rax, %rdi
	movq	img, %rax
	movslq	72520(%rax), %rax
	imulq	$24, %rax, %rax
	movabsq	$INIT_TRANSFORM_SIZE_I, %rsi
	addq	%rax, %rsi
	movslq	-4(%rbp), %rax
	shlq	$3, %rax
	addq	%rax, %rsi
	callq	biari_init_context
	jmp	.LBB19_63
.LBB19_62:                              # %if.else232
                                        #   in Loop: Header=BB19_59 Depth=1
	movq	-24(%rbp), %rdi
	addq	$1456, %rdi             # imm = 0x5B0
	movslq	-4(%rbp), %rax
	shlq	$4, %rax
	addq	%rax, %rdi
	movq	img, %rax
	movslq	72520(%rax), %rax
	imulq	$24, %rax, %rax
	movabsq	$INIT_TRANSFORM_SIZE_P, %rsi
	addq	%rax, %rsi
	movslq	-4(%rbp), %rax
	shlq	$3, %rax
	addq	%rax, %rsi
	callq	biari_init_context
.LBB19_63:                              # %if.end243
                                        #   in Loop: Header=BB19_59 Depth=1
	jmp	.LBB19_64
.LBB19_64:                              # %for.inc244
                                        #   in Loop: Header=BB19_59 Depth=1
	movl	-4(%rbp), %eax
	addl	$1, %eax
	movl	%eax, -4(%rbp)
	jmp	.LBB19_59
.LBB19_65:                              # %for.end246
	movl	$0, -4(%rbp)
.LBB19_66:                              # %for.cond247
                                        # =>This Inner Loop Header: Depth=1
	cmpl	$2, -4(%rbp)
	jge	.LBB19_72
# %bb.67:                               # %for.body249
                                        #   in Loop: Header=BB19_66 Depth=1
	movq	img, %rax
	cmpl	$2, 24(%rax)
	jne	.LBB19_69
# %bb.68:                               # %if.then252
                                        #   in Loop: Header=BB19_66 Depth=1
	movq	-16(%rbp), %rdi
	movslq	-4(%rbp), %rax
	shlq	$4, %rax
	addq	%rax, %rdi
	movq	img, %rax
	movslq	72520(%rax), %rax
	shlq	$4, %rax
	movabsq	$INIT_IPR_I, %rsi
	addq	%rax, %rsi
	movslq	-4(%rbp), %rax
	shlq	$3, %rax
	addq	%rax, %rsi
	callq	biari_init_context
	jmp	.LBB19_70
.LBB19_69:                              # %if.else262
                                        #   in Loop: Header=BB19_66 Depth=1
	movq	-16(%rbp), %rdi
	movslq	-4(%rbp), %rax
	shlq	$4, %rax
	addq	%rax, %rdi
	movq	img, %rax
	movslq	72520(%rax), %rax
	shlq	$4, %rax
	movabsq	$INIT_IPR_P, %rsi
	addq	%rax, %rsi
	movslq	-4(%rbp), %rax
	shlq	$3, %rax
	addq	%rax, %rsi
	callq	biari_init_context
.LBB19_70:                              # %if.end273
                                        #   in Loop: Header=BB19_66 Depth=1
	jmp	.LBB19_71
.LBB19_71:                              # %for.inc274
                                        #   in Loop: Header=BB19_66 Depth=1
	movl	-4(%rbp), %eax
	addl	$1, %eax
	movl	%eax, -4(%rbp)
	jmp	.LBB19_66
.LBB19_72:                              # %for.end276
	movl	$0, -4(%rbp)
.LBB19_73:                              # %for.cond277
                                        # =>This Inner Loop Header: Depth=1
	cmpl	$4, -4(%rbp)
	jge	.LBB19_79
# %bb.74:                               # %for.body279
                                        #   in Loop: Header=BB19_73 Depth=1
	movq	img, %rax
	cmpl	$2, 24(%rax)
	jne	.LBB19_76
# %bb.75:                               # %if.then282
                                        #   in Loop: Header=BB19_73 Depth=1
	movq	-16(%rbp), %rdi
	addq	$32, %rdi
	movslq	-4(%rbp), %rax
	shlq	$4, %rax
	addq	%rax, %rdi
	movq	img, %rax
	movslq	72520(%rax), %rax
	shlq	$5, %rax
	movabsq	$INIT_CIPR_I, %rsi
	addq	%rax, %rsi
	movslq	-4(%rbp), %rax
	shlq	$3, %rax
	addq	%rax, %rsi
	callq	biari_init_context
	jmp	.LBB19_77
.LBB19_76:                              # %if.else292
                                        #   in Loop: Header=BB19_73 Depth=1
	movq	-16(%rbp), %rdi
	addq	$32, %rdi
	movslq	-4(%rbp), %rax
	shlq	$4, %rax
	addq	%rax, %rdi
	movq	img, %rax
	movslq	72520(%rax), %rax
	shlq	$5, %rax
	movabsq	$INIT_CIPR_P, %rsi
	addq	%rax, %rsi
	movslq	-4(%rbp), %rax
	shlq	$3, %rax
	addq	%rax, %rsi
	callq	biari_init_context
.LBB19_77:                              # %if.end303
                                        #   in Loop: Header=BB19_73 Depth=1
	jmp	.LBB19_78
.LBB19_78:                              # %for.inc304
                                        #   in Loop: Header=BB19_73 Depth=1
	movl	-4(%rbp), %eax
	addl	$1, %eax
	movl	%eax, -4(%rbp)
	jmp	.LBB19_73
.LBB19_79:                              # %for.end306
	movl	$0, -8(%rbp)
.LBB19_80:                              # %for.cond307
                                        # =>This Loop Header: Depth=1
                                        #     Child Loop BB19_82 Depth 2
	cmpl	$3, -8(%rbp)
	jge	.LBB19_90
# %bb.81:                               # %for.body309
                                        #   in Loop: Header=BB19_80 Depth=1
	movl	$0, -4(%rbp)
.LBB19_82:                              # %for.cond310
                                        #   Parent Loop BB19_80 Depth=1
                                        # =>  This Inner Loop Header: Depth=2
	cmpl	$4, -4(%rbp)
	jge	.LBB19_88
# %bb.83:                               # %for.body312
                                        #   in Loop: Header=BB19_82 Depth=2
	movq	img, %rax
	cmpl	$2, 24(%rax)
	jne	.LBB19_85
# %bb.84:                               # %if.then315
                                        #   in Loop: Header=BB19_82 Depth=2
	movq	-16(%rbp), %rdi
	addq	$96, %rdi
	movslq	-8(%rbp), %rax
	shlq	$6, %rax
	addq	%rax, %rdi
	movslq	-4(%rbp), %rax
	shlq	$4, %rax
	addq	%rax, %rdi
	movq	img, %rax
	movslq	72520(%rax), %rax
	imulq	$96, %rax, %rax
	movabsq	$INIT_CBP_I, %rsi
	addq	%rax, %rsi
	movslq	-8(%rbp), %rax
	shlq	$5, %rax
	addq	%rax, %rsi
	movslq	-4(%rbp), %rax
	shlq	$3, %rax
	addq	%rax, %rsi
	callq	biari_init_context
	jmp	.LBB19_86
.LBB19_85:                              # %if.else328
                                        #   in Loop: Header=BB19_82 Depth=2
	movq	-16(%rbp), %rdi
	addq	$96, %rdi
	movslq	-8(%rbp), %rax
	shlq	$6, %rax
	addq	%rax, %rdi
	movslq	-4(%rbp), %rax
	shlq	$4, %rax
	addq	%rax, %rdi
	movq	img, %rax
	movslq	72520(%rax), %rax
	imulq	$96, %rax, %rax
	movabsq	$INIT_CBP_P, %rsi
	addq	%rax, %rsi
	movslq	-8(%rbp), %rax
	shlq	$5, %rax
	addq	%rax, %rsi
	movslq	-4(%rbp), %rax
	shlq	$3, %rax
	addq	%rax, %rsi
	callq	biari_init_context
.LBB19_86:                              # %if.end342
                                        #   in Loop: Header=BB19_82 Depth=2
	jmp	.LBB19_87
.LBB19_87:                              # %for.inc343
                                        #   in Loop: Header=BB19_82 Depth=2
	movl	-4(%rbp), %eax
	addl	$1, %eax
	movl	%eax, -4(%rbp)
	jmp	.LBB19_82
.LBB19_88:                              # %for.end345
                                        #   in Loop: Header=BB19_80 Depth=1
	jmp	.LBB19_89
.LBB19_89:                              # %for.inc346
                                        #   in Loop: Header=BB19_80 Depth=1
	movl	-8(%rbp), %eax
	addl	$1, %eax
	movl	%eax, -8(%rbp)
	jmp	.LBB19_80
.LBB19_90:                              # %for.end348
	movl	$0, -8(%rbp)
.LBB19_91:                              # %for.cond349
                                        # =>This Loop Header: Depth=1
                                        #     Child Loop BB19_93 Depth 2
	cmpl	$10, -8(%rbp)
	jge	.LBB19_101
# %bb.92:                               # %for.body351
                                        #   in Loop: Header=BB19_91 Depth=1
	movl	$0, -4(%rbp)
.LBB19_93:                              # %for.cond352
                                        #   Parent Loop BB19_91 Depth=1
                                        # =>  This Inner Loop Header: Depth=2
	cmpl	$4, -4(%rbp)
	jge	.LBB19_99
# %bb.94:                               # %for.body354
                                        #   in Loop: Header=BB19_93 Depth=2
	movq	img, %rax
	cmpl	$2, 24(%rax)
	jne	.LBB19_96
# %bb.95:                               # %if.then357
                                        #   in Loop: Header=BB19_93 Depth=2
	movq	-16(%rbp), %rdi
	addq	$288, %rdi              # imm = 0x120
	movslq	-8(%rbp), %rax
	shlq	$6, %rax
	addq	%rax, %rdi
	movslq	-4(%rbp), %rax
	shlq	$4, %rax
	addq	%rax, %rdi
	movq	img, %rax
	movslq	72520(%rax), %rax
	shlq	$8, %rax
	movabsq	$INIT_BCBP_I, %rsi
	addq	%rax, %rsi
	movslq	-8(%rbp), %rax
	shlq	$5, %rax
	addq	%rax, %rsi
	movslq	-4(%rbp), %rax
	shlq	$3, %rax
	addq	%rax, %rsi
	callq	biari_init_context
	jmp	.LBB19_97
.LBB19_96:                              # %if.else370
                                        #   in Loop: Header=BB19_93 Depth=2
	movq	-16(%rbp), %rdi
	addq	$288, %rdi              # imm = 0x120
	movslq	-8(%rbp), %rax
	shlq	$6, %rax
	addq	%rax, %rdi
	movslq	-4(%rbp), %rax
	shlq	$4, %rax
	addq	%rax, %rdi
	movq	img, %rax
	movslq	72520(%rax), %rax
	shlq	$8, %rax
	movabsq	$INIT_BCBP_P, %rsi
	addq	%rax, %rsi
	movslq	-8(%rbp), %rax
	shlq	$5, %rax
	addq	%rax, %rsi
	movslq	-4(%rbp), %rax
	shlq	$3, %rax
	addq	%rax, %rsi
	callq	biari_init_context
.LBB19_97:                              # %if.end384
                                        #   in Loop: Header=BB19_93 Depth=2
	jmp	.LBB19_98
.LBB19_98:                              # %for.inc385
                                        #   in Loop: Header=BB19_93 Depth=2
	movl	-4(%rbp), %eax
	addl	$1, %eax
	movl	%eax, -4(%rbp)
	jmp	.LBB19_93
.LBB19_99:                              # %for.end387
                                        #   in Loop: Header=BB19_91 Depth=1
	jmp	.LBB19_100
.LBB19_100:                             # %for.inc388
                                        #   in Loop: Header=BB19_91 Depth=1
	movl	-8(%rbp), %eax
	addl	$1, %eax
	movl	%eax, -8(%rbp)
	jmp	.LBB19_91
.LBB19_101:                             # %for.end390
	movl	$0, -8(%rbp)
.LBB19_102:                             # %for.cond391
                                        # =>This Loop Header: Depth=1
                                        #     Child Loop BB19_104 Depth 2
	cmpl	$10, -8(%rbp)
	jge	.LBB19_112
# %bb.103:                              # %for.body393
                                        #   in Loop: Header=BB19_102 Depth=1
	movl	$0, -4(%rbp)
.LBB19_104:                             # %for.cond394
                                        #   Parent Loop BB19_102 Depth=1
                                        # =>  This Inner Loop Header: Depth=2
	cmpl	$15, -4(%rbp)
	jge	.LBB19_110
# %bb.105:                              # %for.body396
                                        #   in Loop: Header=BB19_104 Depth=2
	movq	img, %rax
	cmpl	$2, 24(%rax)
	jne	.LBB19_107
# %bb.106:                              # %if.then399
                                        #   in Loop: Header=BB19_104 Depth=2
	movq	-16(%rbp), %rdi
	addq	$928, %rdi              # imm = 0x3A0
	movslq	-8(%rbp), %rax
	imulq	$240, %rax, %rax
	addq	%rax, %rdi
	movslq	-4(%rbp), %rax
	shlq	$4, %rax
	addq	%rax, %rdi
	movq	img, %rax
	movslq	72520(%rax), %rax
	imulq	$960, %rax, %rax        # imm = 0x3C0
	movabsq	$INIT_MAP_I, %rsi
	addq	%rax, %rsi
	movslq	-8(%rbp), %rax
	imulq	$120, %rax, %rax
	addq	%rax, %rsi
	movslq	-4(%rbp), %rax
	shlq	$3, %rax
	addq	%rax, %rsi
	callq	biari_init_context
	jmp	.LBB19_108
.LBB19_107:                             # %if.else412
                                        #   in Loop: Header=BB19_104 Depth=2
	movq	-16(%rbp), %rdi
	addq	$928, %rdi              # imm = 0x3A0
	movslq	-8(%rbp), %rax
	imulq	$240, %rax, %rax
	addq	%rax, %rdi
	movslq	-4(%rbp), %rax
	shlq	$4, %rax
	addq	%rax, %rdi
	movq	img, %rax
	movslq	72520(%rax), %rax
	imulq	$960, %rax, %rax        # imm = 0x3C0
	movabsq	$INIT_MAP_P, %rsi
	addq	%rax, %rsi
	movslq	-8(%rbp), %rax
	imulq	$120, %rax, %rax
	addq	%rax, %rsi
	movslq	-4(%rbp), %rax
	shlq	$3, %rax
	addq	%rax, %rsi
	callq	biari_init_context
.LBB19_108:                             # %if.end426
                                        #   in Loop: Header=BB19_104 Depth=2
	jmp	.LBB19_109
.LBB19_109:                             # %for.inc427
                                        #   in Loop: Header=BB19_104 Depth=2
	movl	-4(%rbp), %eax
	addl	$1, %eax
	movl	%eax, -4(%rbp)
	jmp	.LBB19_104
.LBB19_110:                             # %for.end429
                                        #   in Loop: Header=BB19_102 Depth=1
	jmp	.LBB19_111
.LBB19_111:                             # %for.inc430
                                        #   in Loop: Header=BB19_102 Depth=1
	movl	-8(%rbp), %eax
	addl	$1, %eax
	movl	%eax, -8(%rbp)
	jmp	.LBB19_102
.LBB19_112:                             # %for.end432
	movl	$0, -8(%rbp)
.LBB19_113:                             # %for.cond433
                                        # =>This Loop Header: Depth=1
                                        #     Child Loop BB19_115 Depth 2
	cmpl	$10, -8(%rbp)
	jge	.LBB19_123
# %bb.114:                              # %for.body435
                                        #   in Loop: Header=BB19_113 Depth=1
	movl	$0, -4(%rbp)
.LBB19_115:                             # %for.cond436
                                        #   Parent Loop BB19_113 Depth=1
                                        # =>  This Inner Loop Header: Depth=2
	cmpl	$15, -4(%rbp)
	jge	.LBB19_121
# %bb.116:                              # %for.body438
                                        #   in Loop: Header=BB19_115 Depth=2
	movq	img, %rax
	cmpl	$2, 24(%rax)
	jne	.LBB19_118
# %bb.117:                              # %if.then441
                                        #   in Loop: Header=BB19_115 Depth=2
	movq	-16(%rbp), %rdi
	addq	$3328, %rdi             # imm = 0xD00
	movslq	-8(%rbp), %rax
	imulq	$240, %rax, %rax
	addq	%rax, %rdi
	movslq	-4(%rbp), %rax
	shlq	$4, %rax
	addq	%rax, %rdi
	movq	img, %rax
	movslq	72520(%rax), %rax
	imulq	$960, %rax, %rax        # imm = 0x3C0
	movabsq	$INIT_LAST_I, %rsi
	addq	%rax, %rsi
	movslq	-8(%rbp), %rax
	imulq	$120, %rax, %rax
	addq	%rax, %rsi
	movslq	-4(%rbp), %rax
	shlq	$3, %rax
	addq	%rax, %rsi
	callq	biari_init_context
	jmp	.LBB19_119
.LBB19_118:                             # %if.else454
                                        #   in Loop: Header=BB19_115 Depth=2
	movq	-16(%rbp), %rdi
	addq	$3328, %rdi             # imm = 0xD00
	movslq	-8(%rbp), %rax
	imulq	$240, %rax, %rax
	addq	%rax, %rdi
	movslq	-4(%rbp), %rax
	shlq	$4, %rax
	addq	%rax, %rdi
	movq	img, %rax
	movslq	72520(%rax), %rax
	imulq	$960, %rax, %rax        # imm = 0x3C0
	movabsq	$INIT_LAST_P, %rsi
	addq	%rax, %rsi
	movslq	-8(%rbp), %rax
	imulq	$120, %rax, %rax
	addq	%rax, %rsi
	movslq	-4(%rbp), %rax
	shlq	$3, %rax
	addq	%rax, %rsi
	callq	biari_init_context
.LBB19_119:                             # %if.end468
                                        #   in Loop: Header=BB19_115 Depth=2
	jmp	.LBB19_120
.LBB19_120:                             # %for.inc469
                                        #   in Loop: Header=BB19_115 Depth=2
	movl	-4(%rbp), %eax
	addl	$1, %eax
	movl	%eax, -4(%rbp)
	jmp	.LBB19_115
.LBB19_121:                             # %for.end471
                                        #   in Loop: Header=BB19_113 Depth=1
	jmp	.LBB19_122
.LBB19_122:                             # %for.inc472
                                        #   in Loop: Header=BB19_113 Depth=1
	movl	-8(%rbp), %eax
	addl	$1, %eax
	movl	%eax, -8(%rbp)
	jmp	.LBB19_113
.LBB19_123:                             # %for.end474
	movl	$0, -8(%rbp)
.LBB19_124:                             # %for.cond475
                                        # =>This Loop Header: Depth=1
                                        #     Child Loop BB19_126 Depth 2
	cmpl	$10, -8(%rbp)
	jge	.LBB19_134
# %bb.125:                              # %for.body477
                                        #   in Loop: Header=BB19_124 Depth=1
	movl	$0, -4(%rbp)
.LBB19_126:                             # %for.cond478
                                        #   Parent Loop BB19_124 Depth=1
                                        # =>  This Inner Loop Header: Depth=2
	cmpl	$5, -4(%rbp)
	jge	.LBB19_132
# %bb.127:                              # %for.body480
                                        #   in Loop: Header=BB19_126 Depth=2
	movq	img, %rax
	cmpl	$2, 24(%rax)
	jne	.LBB19_129
# %bb.128:                              # %if.then483
                                        #   in Loop: Header=BB19_126 Depth=2
	movq	-16(%rbp), %rdi
	addq	$5728, %rdi             # imm = 0x1660
	movslq	-8(%rbp), %rax
	imulq	$80, %rax, %rax
	addq	%rax, %rdi
	movslq	-4(%rbp), %rax
	shlq	$4, %rax
	addq	%rax, %rdi
	movq	img, %rax
	movslq	72520(%rax), %rax
	imulq	$320, %rax, %rax        # imm = 0x140
	movabsq	$INIT_ONE_I, %rsi
	addq	%rax, %rsi
	movslq	-8(%rbp), %rax
	imulq	$40, %rax, %rax
	addq	%rax, %rsi
	movslq	-4(%rbp), %rax
	shlq	$3, %rax
	addq	%rax, %rsi
	callq	biari_init_context
	jmp	.LBB19_130
.LBB19_129:                             # %if.else496
                                        #   in Loop: Header=BB19_126 Depth=2
	movq	-16(%rbp), %rdi
	addq	$5728, %rdi             # imm = 0x1660
	movslq	-8(%rbp), %rax
	imulq	$80, %rax, %rax
	addq	%rax, %rdi
	movslq	-4(%rbp), %rax
	shlq	$4, %rax
	addq	%rax, %rdi
	movq	img, %rax
	movslq	72520(%rax), %rax
	imulq	$320, %rax, %rax        # imm = 0x140
	movabsq	$INIT_ONE_P, %rsi
	addq	%rax, %rsi
	movslq	-8(%rbp), %rax
	imulq	$40, %rax, %rax
	addq	%rax, %rsi
	movslq	-4(%rbp), %rax
	shlq	$3, %rax
	addq	%rax, %rsi
	callq	biari_init_context
.LBB19_130:                             # %if.end510
                                        #   in Loop: Header=BB19_126 Depth=2
	jmp	.LBB19_131
.LBB19_131:                             # %for.inc511
                                        #   in Loop: Header=BB19_126 Depth=2
	movl	-4(%rbp), %eax
	addl	$1, %eax
	movl	%eax, -4(%rbp)
	jmp	.LBB19_126
.LBB19_132:                             # %for.end513
                                        #   in Loop: Header=BB19_124 Depth=1
	jmp	.LBB19_133
.LBB19_133:                             # %for.inc514
                                        #   in Loop: Header=BB19_124 Depth=1
	movl	-8(%rbp), %eax
	addl	$1, %eax
	movl	%eax, -8(%rbp)
	jmp	.LBB19_124
.LBB19_134:                             # %for.end516
	movl	$0, -8(%rbp)
.LBB19_135:                             # %for.cond517
                                        # =>This Loop Header: Depth=1
                                        #     Child Loop BB19_137 Depth 2
	cmpl	$10, -8(%rbp)
	jge	.LBB19_145
# %bb.136:                              # %for.body519
                                        #   in Loop: Header=BB19_135 Depth=1
	movl	$0, -4(%rbp)
.LBB19_137:                             # %for.cond520
                                        #   Parent Loop BB19_135 Depth=1
                                        # =>  This Inner Loop Header: Depth=2
	cmpl	$5, -4(%rbp)
	jge	.LBB19_143
# %bb.138:                              # %for.body522
                                        #   in Loop: Header=BB19_137 Depth=2
	movq	img, %rax
	cmpl	$2, 24(%rax)
	jne	.LBB19_140
# %bb.139:                              # %if.then525
                                        #   in Loop: Header=BB19_137 Depth=2
	movq	-16(%rbp), %rdi
	addq	$6528, %rdi             # imm = 0x1980
	movslq	-8(%rbp), %rax
	imulq	$80, %rax, %rax
	addq	%rax, %rdi
	movslq	-4(%rbp), %rax
	shlq	$4, %rax
	addq	%rax, %rdi
	movq	img, %rax
	movslq	72520(%rax), %rax
	imulq	$320, %rax, %rax        # imm = 0x140
	movabsq	$INIT_ABS_I, %rsi
	addq	%rax, %rsi
	movslq	-8(%rbp), %rax
	imulq	$40, %rax, %rax
	addq	%rax, %rsi
	movslq	-4(%rbp), %rax
	shlq	$3, %rax
	addq	%rax, %rsi
	callq	biari_init_context
	jmp	.LBB19_141
.LBB19_140:                             # %if.else538
                                        #   in Loop: Header=BB19_137 Depth=2
	movq	-16(%rbp), %rdi
	addq	$6528, %rdi             # imm = 0x1980
	movslq	-8(%rbp), %rax
	imulq	$80, %rax, %rax
	addq	%rax, %rdi
	movslq	-4(%rbp), %rax
	shlq	$4, %rax
	addq	%rax, %rdi
	movq	img, %rax
	movslq	72520(%rax), %rax
	imulq	$320, %rax, %rax        # imm = 0x140
	movabsq	$INIT_ABS_P, %rsi
	addq	%rax, %rsi
	movslq	-8(%rbp), %rax
	imulq	$40, %rax, %rax
	addq	%rax, %rsi
	movslq	-4(%rbp), %rax
	shlq	$3, %rax
	addq	%rax, %rsi
	callq	biari_init_context
.LBB19_141:                             # %if.end552
                                        #   in Loop: Header=BB19_137 Depth=2
	jmp	.LBB19_142
.LBB19_142:                             # %for.inc553
                                        #   in Loop: Header=BB19_137 Depth=2
	movl	-4(%rbp), %eax
	addl	$1, %eax
	movl	%eax, -4(%rbp)
	jmp	.LBB19_137
.LBB19_143:                             # %for.end555
                                        #   in Loop: Header=BB19_135 Depth=1
	jmp	.LBB19_144
.LBB19_144:                             # %for.inc556
                                        #   in Loop: Header=BB19_135 Depth=1
	movl	-8(%rbp), %eax
	addl	$1, %eax
	movl	%eax, -8(%rbp)
	jmp	.LBB19_135
.LBB19_145:                             # %for.end558
	movl	$0, -8(%rbp)
.LBB19_146:                             # %for.cond559
                                        # =>This Loop Header: Depth=1
                                        #     Child Loop BB19_148 Depth 2
	cmpl	$10, -8(%rbp)
	jge	.LBB19_156
# %bb.147:                              # %for.body561
                                        #   in Loop: Header=BB19_146 Depth=1
	movl	$0, -4(%rbp)
.LBB19_148:                             # %for.cond562
                                        #   Parent Loop BB19_146 Depth=1
                                        # =>  This Inner Loop Header: Depth=2
	cmpl	$15, -4(%rbp)
	jge	.LBB19_154
# %bb.149:                              # %for.body564
                                        #   in Loop: Header=BB19_148 Depth=2
	movq	img, %rax
	cmpl	$2, 24(%rax)
	jne	.LBB19_151
# %bb.150:                              # %if.then567
                                        #   in Loop: Header=BB19_148 Depth=2
	movq	-16(%rbp), %rdi
	addq	$7328, %rdi             # imm = 0x1CA0
	movslq	-8(%rbp), %rax
	imulq	$240, %rax, %rax
	addq	%rax, %rdi
	movslq	-4(%rbp), %rax
	shlq	$4, %rax
	addq	%rax, %rdi
	movq	img, %rax
	movslq	72520(%rax), %rax
	imulq	$960, %rax, %rax        # imm = 0x3C0
	movabsq	$INIT_FLD_MAP_I, %rsi
	addq	%rax, %rsi
	movslq	-8(%rbp), %rax
	imulq	$120, %rax, %rax
	addq	%rax, %rsi
	movslq	-4(%rbp), %rax
	shlq	$3, %rax
	addq	%rax, %rsi
	callq	biari_init_context
	jmp	.LBB19_152
.LBB19_151:                             # %if.else580
                                        #   in Loop: Header=BB19_148 Depth=2
	movq	-16(%rbp), %rdi
	addq	$7328, %rdi             # imm = 0x1CA0
	movslq	-8(%rbp), %rax
	imulq	$240, %rax, %rax
	addq	%rax, %rdi
	movslq	-4(%rbp), %rax
	shlq	$4, %rax
	addq	%rax, %rdi
	movq	img, %rax
	movslq	72520(%rax), %rax
	imulq	$960, %rax, %rax        # imm = 0x3C0
	movabsq	$INIT_FLD_MAP_P, %rsi
	addq	%rax, %rsi
	movslq	-8(%rbp), %rax
	imulq	$120, %rax, %rax
	addq	%rax, %rsi
	movslq	-4(%rbp), %rax
	shlq	$3, %rax
	addq	%rax, %rsi
	callq	biari_init_context
.LBB19_152:                             # %if.end594
                                        #   in Loop: Header=BB19_148 Depth=2
	jmp	.LBB19_153
.LBB19_153:                             # %for.inc595
                                        #   in Loop: Header=BB19_148 Depth=2
	movl	-4(%rbp), %eax
	addl	$1, %eax
	movl	%eax, -4(%rbp)
	jmp	.LBB19_148
.LBB19_154:                             # %for.end597
                                        #   in Loop: Header=BB19_146 Depth=1
	jmp	.LBB19_155
.LBB19_155:                             # %for.inc598
                                        #   in Loop: Header=BB19_146 Depth=1
	movl	-8(%rbp), %eax
	addl	$1, %eax
	movl	%eax, -8(%rbp)
	jmp	.LBB19_146
.LBB19_156:                             # %for.end600
	movl	$0, -8(%rbp)
.LBB19_157:                             # %for.cond601
                                        # =>This Loop Header: Depth=1
                                        #     Child Loop BB19_159 Depth 2
	cmpl	$10, -8(%rbp)
	jge	.LBB19_167
# %bb.158:                              # %for.body603
                                        #   in Loop: Header=BB19_157 Depth=1
	movl	$0, -4(%rbp)
.LBB19_159:                             # %for.cond604
                                        #   Parent Loop BB19_157 Depth=1
                                        # =>  This Inner Loop Header: Depth=2
	cmpl	$15, -4(%rbp)
	jge	.LBB19_165
# %bb.160:                              # %for.body606
                                        #   in Loop: Header=BB19_159 Depth=2
	movq	img, %rax
	cmpl	$2, 24(%rax)
	jne	.LBB19_162
# %bb.161:                              # %if.then609
                                        #   in Loop: Header=BB19_159 Depth=2
	movq	-16(%rbp), %rdi
	addq	$9728, %rdi             # imm = 0x2600
	movslq	-8(%rbp), %rax
	imulq	$240, %rax, %rax
	addq	%rax, %rdi
	movslq	-4(%rbp), %rax
	shlq	$4, %rax
	addq	%rax, %rdi
	movq	img, %rax
	movslq	72520(%rax), %rax
	imulq	$960, %rax, %rax        # imm = 0x3C0
	movabsq	$INIT_FLD_LAST_I, %rsi
	addq	%rax, %rsi
	movslq	-8(%rbp), %rax
	imulq	$120, %rax, %rax
	addq	%rax, %rsi
	movslq	-4(%rbp), %rax
	shlq	$3, %rax
	addq	%rax, %rsi
	callq	biari_init_context
	jmp	.LBB19_163
.LBB19_162:                             # %if.else622
                                        #   in Loop: Header=BB19_159 Depth=2
	movq	-16(%rbp), %rdi
	addq	$9728, %rdi             # imm = 0x2600
	movslq	-8(%rbp), %rax
	imulq	$240, %rax, %rax
	addq	%rax, %rdi
	movslq	-4(%rbp), %rax
	shlq	$4, %rax
	addq	%rax, %rdi
	movq	img, %rax
	movslq	72520(%rax), %rax
	imulq	$960, %rax, %rax        # imm = 0x3C0
	movabsq	$INIT_FLD_LAST_P, %rsi
	addq	%rax, %rsi
	movslq	-8(%rbp), %rax
	imulq	$120, %rax, %rax
	addq	%rax, %rsi
	movslq	-4(%rbp), %rax
	shlq	$3, %rax
	addq	%rax, %rsi
	callq	biari_init_context
.LBB19_163:                             # %if.end636
                                        #   in Loop: Header=BB19_159 Depth=2
	jmp	.LBB19_164
.LBB19_164:                             # %for.inc637
                                        #   in Loop: Header=BB19_159 Depth=2
	movl	-4(%rbp), %eax
	addl	$1, %eax
	movl	%eax, -4(%rbp)
	jmp	.LBB19_159
.LBB19_165:                             # %for.end639
                                        #   in Loop: Header=BB19_157 Depth=1
	jmp	.LBB19_166
.LBB19_166:                             # %for.inc640
                                        #   in Loop: Header=BB19_157 Depth=1
	movl	-8(%rbp), %eax
	addl	$1, %eax
	movl	%eax, -8(%rbp)
	jmp	.LBB19_157
.LBB19_167:                             # %for.end642
	cmpl	$498531517, -28(%rbp)   # imm = 0x1DB6FCBD
	jne	.LBB19_169
.LBB19_168:
	addq	$32, %rsp
	popq	%rbp
	.cfi_def_cfa %rsp, 8
	retq
.LBB19_169:                             # %func_exit
	.cfi_def_cfa %rbp, 16
	callq	detect_breach
	jmp	.LBB19_168
.Lfunc_end19:
	.size	init_contexts.12, .Lfunc_end19-init_contexts.12
	.cfi_endproc
                                        # -- End function
	.globl	free_context_memory.13  # -- Begin function free_context_memory.13
	.p2align	4, 0x90
	.type	free_context_memory.13,@function
free_context_memory.13:                 # @free_context_memory.13
	.cfi_startproc
# %bb.0:                                # %entry
	pushq	%rbp
	.cfi_def_cfa_offset 16
	.cfi_offset %rbp, -16
	movq	%rsp, %rbp
	.cfi_def_cfa_register %rbp
	subq	$16, %rsp
	movl	$1830981747, -12(%rbp)  # imm = 0x6D229073
	movl	$0, -4(%rbp)
.LBB20_1:                               # %for.cond
                                        # =>This Loop Header: Depth=1
                                        #     Child Loop BB20_3 Depth 2
	cmpl	$3, -4(%rbp)
	jge	.LBB20_8
# %bb.2:                                # %for.body
                                        #   in Loop: Header=BB20_1 Depth=1
	movl	$0, -8(%rbp)
.LBB20_3:                               # %for.cond1
                                        #   Parent Loop BB20_1 Depth=1
                                        # =>  This Inner Loop Header: Depth=2
	cmpl	$4, -8(%rbp)
	jge	.LBB20_6
# %bb.4:                                # %for.body3
                                        #   in Loop: Header=BB20_3 Depth=2
	movq	initialized, %rax
	movslq	-4(%rbp), %rcx
	movq	(%rax,%rcx,8), %rax
	movslq	-8(%rbp), %rcx
	movq	(%rax,%rcx,8), %rdi
	callq	free
	movq	model_number, %rax
	movslq	-4(%rbp), %rcx
	movq	(%rax,%rcx,8), %rax
	movslq	-8(%rbp), %rcx
	movq	(%rax,%rcx,8), %rdi
	callq	free
# %bb.5:                                # %for.inc
                                        #   in Loop: Header=BB20_3 Depth=2
	movl	-8(%rbp), %eax
	addl	$1, %eax
	movl	%eax, -8(%rbp)
	jmp	.LBB20_3
.LBB20_6:                               # %for.end
                                        #   in Loop: Header=BB20_1 Depth=1
	movq	initialized, %rax
	movslq	-4(%rbp), %rcx
	movq	(%rax,%rcx,8), %rdi
	callq	free
	movq	model_number, %rax
	movslq	-4(%rbp), %rcx
	movq	(%rax,%rcx,8), %rdi
	callq	free
# %bb.7:                                # %for.inc14
                                        #   in Loop: Header=BB20_1 Depth=1
	movl	-4(%rbp), %eax
	addl	$1, %eax
	movl	%eax, -4(%rbp)
	jmp	.LBB20_1
.LBB20_8:                               # %for.end16
	movq	initialized, %rdi
	callq	free
	movq	model_number, %rdi
	callq	free
	cmpl	$1830981747, -12(%rbp)  # imm = 0x6D229073
	jne	.LBB20_10
.LBB20_9:
	addq	$16, %rsp
	popq	%rbp
	.cfi_def_cfa %rsp, 8
	retq
.LBB20_10:                              # %func_exit
	.cfi_def_cfa %rbp, 16
	callq	detect_breach
	jmp	.LBB20_9
.Lfunc_end20:
	.size	free_context_memory.13, .Lfunc_end20-free_context_memory.13
	.cfi_endproc
                                        # -- End function
	.globl	free_context_memory.14  # -- Begin function free_context_memory.14
	.p2align	4, 0x90
	.type	free_context_memory.14,@function
free_context_memory.14:                 # @free_context_memory.14
	.cfi_startproc
# %bb.0:                                # %entry
	pushq	%rbp
	.cfi_def_cfa_offset 16
	.cfi_offset %rbp, -16
	movq	%rsp, %rbp
	.cfi_def_cfa_register %rbp
	subq	$16, %rsp
	movl	$1594948756, -12(%rbp)  # imm = 0x5F10FC94
	movl	$0, -4(%rbp)
.LBB21_1:                               # %for.cond
                                        # =>This Loop Header: Depth=1
                                        #     Child Loop BB21_3 Depth 2
	cmpl	$3, -4(%rbp)
	jge	.LBB21_8
# %bb.2:                                # %for.body
                                        #   in Loop: Header=BB21_1 Depth=1
	movl	$0, -8(%rbp)
.LBB21_3:                               # %for.cond1
                                        #   Parent Loop BB21_1 Depth=1
                                        # =>  This Inner Loop Header: Depth=2
	cmpl	$4, -8(%rbp)
	jge	.LBB21_6
# %bb.4:                                # %for.body3
                                        #   in Loop: Header=BB21_3 Depth=2
	movq	initialized, %rax
	movslq	-4(%rbp), %rcx
	movq	(%rax,%rcx,8), %rax
	movslq	-8(%rbp), %rcx
	movq	(%rax,%rcx,8), %rdi
	callq	free
	movq	model_number, %rax
	movslq	-4(%rbp), %rcx
	movq	(%rax,%rcx,8), %rax
	movslq	-8(%rbp), %rcx
	movq	(%rax,%rcx,8), %rdi
	callq	free
# %bb.5:                                # %for.inc
                                        #   in Loop: Header=BB21_3 Depth=2
	movl	-8(%rbp), %eax
	addl	$1, %eax
	movl	%eax, -8(%rbp)
	jmp	.LBB21_3
.LBB21_6:                               # %for.end
                                        #   in Loop: Header=BB21_1 Depth=1
	movq	initialized, %rax
	movslq	-4(%rbp), %rcx
	movq	(%rax,%rcx,8), %rdi
	callq	free
	movq	model_number, %rax
	movslq	-4(%rbp), %rcx
	movq	(%rax,%rcx,8), %rdi
	callq	free
# %bb.7:                                # %for.inc14
                                        #   in Loop: Header=BB21_1 Depth=1
	movl	-4(%rbp), %eax
	addl	$1, %eax
	movl	%eax, -4(%rbp)
	jmp	.LBB21_1
.LBB21_8:                               # %for.end16
	movq	initialized, %rdi
	callq	free
	movq	model_number, %rdi
	callq	free
	cmpl	$1594948756, -12(%rbp)  # imm = 0x5F10FC94
	jne	.LBB21_10
.LBB21_9:
	addq	$16, %rsp
	popq	%rbp
	.cfi_def_cfa %rsp, 8
	retq
.LBB21_10:                              # %func_exit
	.cfi_def_cfa %rbp, 16
	callq	detect_breach
	jmp	.LBB21_9
.Lfunc_end21:
	.size	free_context_memory.14, .Lfunc_end21-free_context_memory.14
	.cfi_endproc
                                        # -- End function
	.globl	init_contexts.15        # -- Begin function init_contexts.15
	.p2align	4, 0x90
	.type	init_contexts.15,@function
init_contexts.15:                       # @init_contexts.15
	.cfi_startproc
# %bb.0:                                # %entry
	pushq	%rbp
	.cfi_def_cfa_offset 16
	.cfi_offset %rbp, -16
	movq	%rsp, %rbp
	.cfi_def_cfa_register %rbp
	subq	$32, %rsp
	movl	$71446644, -28(%rbp)    # imm = 0x4423074
	movq	img, %rax
	movq	14160(%rax), %rax
	movq	32(%rax), %rax
	movq	%rax, -24(%rbp)
	movq	img, %rax
	movq	14160(%rax), %rax
	movq	40(%rax), %rax
	movq	%rax, -16(%rbp)
	movl	$0, -8(%rbp)
.LBB22_1:                               # %for.cond
                                        # =>This Loop Header: Depth=1
                                        #     Child Loop BB22_3 Depth 2
	cmpl	$3, -8(%rbp)
	jge	.LBB22_11
# %bb.2:                                # %for.body
                                        #   in Loop: Header=BB22_1 Depth=1
	movl	$0, -4(%rbp)
.LBB22_3:                               # %for.cond2
                                        #   Parent Loop BB22_1 Depth=1
                                        # =>  This Inner Loop Header: Depth=2
	cmpl	$11, -4(%rbp)
	jge	.LBB22_9
# %bb.4:                                # %for.body4
                                        #   in Loop: Header=BB22_3 Depth=2
	movq	img, %rax
	cmpl	$2, 24(%rax)
	jne	.LBB22_6
# %bb.5:                                # %if.then
                                        #   in Loop: Header=BB22_3 Depth=2
	movq	-24(%rbp), %rdi
	movslq	-8(%rbp), %rax
	imulq	$176, %rax, %rax
	addq	%rax, %rdi
	movslq	-4(%rbp), %rax
	shlq	$4, %rax
	addq	%rax, %rdi
	movq	img, %rax
	movslq	72520(%rax), %rax
	imulq	$264, %rax, %rax        # imm = 0x108
	movabsq	$INIT_MB_TYPE_I, %rsi
	addq	%rax, %rsi
	movslq	-8(%rbp), %rax
	imulq	$88, %rax, %rax
	addq	%rax, %rsi
	movslq	-4(%rbp), %rax
	shlq	$3, %rax
	addq	%rax, %rsi
	callq	biari_init_context
	jmp	.LBB22_7
.LBB22_6:                               # %if.else
                                        #   in Loop: Header=BB22_3 Depth=2
	movq	-24(%rbp), %rdi
	movslq	-8(%rbp), %rax
	imulq	$176, %rax, %rax
	addq	%rax, %rdi
	movslq	-4(%rbp), %rax
	shlq	$4, %rax
	addq	%rax, %rdi
	movq	img, %rax
	movslq	72520(%rax), %rax
	imulq	$264, %rax, %rax        # imm = 0x108
	movabsq	$INIT_MB_TYPE_P, %rsi
	addq	%rax, %rsi
	movslq	-8(%rbp), %rax
	imulq	$88, %rax, %rax
	addq	%rax, %rsi
	movslq	-4(%rbp), %rax
	shlq	$3, %rax
	addq	%rax, %rsi
	callq	biari_init_context
.LBB22_7:                               # %if.end
                                        #   in Loop: Header=BB22_3 Depth=2
	jmp	.LBB22_8
.LBB22_8:                               # %for.inc
                                        #   in Loop: Header=BB22_3 Depth=2
	movl	-4(%rbp), %eax
	addl	$1, %eax
	movl	%eax, -4(%rbp)
	jmp	.LBB22_3
.LBB22_9:                               # %for.end
                                        #   in Loop: Header=BB22_1 Depth=1
	jmp	.LBB22_10
.LBB22_10:                              # %for.inc28
                                        #   in Loop: Header=BB22_1 Depth=1
	movl	-8(%rbp), %eax
	addl	$1, %eax
	movl	%eax, -8(%rbp)
	jmp	.LBB22_1
.LBB22_11:                              # %for.end30
	movl	$0, -8(%rbp)
.LBB22_12:                              # %for.cond31
                                        # =>This Loop Header: Depth=1
                                        #     Child Loop BB22_14 Depth 2
	cmpl	$2, -8(%rbp)
	jge	.LBB22_22
# %bb.13:                               # %for.body33
                                        #   in Loop: Header=BB22_12 Depth=1
	movl	$0, -4(%rbp)
.LBB22_14:                              # %for.cond34
                                        #   Parent Loop BB22_12 Depth=1
                                        # =>  This Inner Loop Header: Depth=2
	cmpl	$9, -4(%rbp)
	jge	.LBB22_20
# %bb.15:                               # %for.body36
                                        #   in Loop: Header=BB22_14 Depth=2
	movq	img, %rax
	cmpl	$2, 24(%rax)
	jne	.LBB22_17
# %bb.16:                               # %if.then39
                                        #   in Loop: Header=BB22_14 Depth=2
	movq	-24(%rbp), %rdi
	addq	$528, %rdi              # imm = 0x210
	movslq	-8(%rbp), %rax
	imulq	$144, %rax, %rax
	addq	%rax, %rdi
	movslq	-4(%rbp), %rax
	shlq	$4, %rax
	addq	%rax, %rdi
	movq	img, %rax
	movslq	72520(%rax), %rax
	imulq	$144, %rax, %rax
	movabsq	$INIT_B8_TYPE_I, %rsi
	addq	%rax, %rsi
	movslq	-8(%rbp), %rax
	imulq	$72, %rax, %rax
	addq	%rax, %rsi
	movslq	-4(%rbp), %rax
	shlq	$3, %rax
	addq	%rax, %rsi
	callq	biari_init_context
	jmp	.LBB22_18
.LBB22_17:                              # %if.else52
                                        #   in Loop: Header=BB22_14 Depth=2
	movq	-24(%rbp), %rdi
	addq	$528, %rdi              # imm = 0x210
	movslq	-8(%rbp), %rax
	imulq	$144, %rax, %rax
	addq	%rax, %rdi
	movslq	-4(%rbp), %rax
	shlq	$4, %rax
	addq	%rax, %rdi
	movq	img, %rax
	movslq	72520(%rax), %rax
	imulq	$144, %rax, %rax
	movabsq	$INIT_B8_TYPE_P, %rsi
	addq	%rax, %rsi
	movslq	-8(%rbp), %rax
	imulq	$72, %rax, %rax
	addq	%rax, %rsi
	movslq	-4(%rbp), %rax
	shlq	$3, %rax
	addq	%rax, %rsi
	callq	biari_init_context
.LBB22_18:                              # %if.end66
                                        #   in Loop: Header=BB22_14 Depth=2
	jmp	.LBB22_19
.LBB22_19:                              # %for.inc67
                                        #   in Loop: Header=BB22_14 Depth=2
	movl	-4(%rbp), %eax
	addl	$1, %eax
	movl	%eax, -4(%rbp)
	jmp	.LBB22_14
.LBB22_20:                              # %for.end69
                                        #   in Loop: Header=BB22_12 Depth=1
	jmp	.LBB22_21
.LBB22_21:                              # %for.inc70
                                        #   in Loop: Header=BB22_12 Depth=1
	movl	-8(%rbp), %eax
	addl	$1, %eax
	movl	%eax, -8(%rbp)
	jmp	.LBB22_12
.LBB22_22:                              # %for.end72
	movl	$0, -8(%rbp)
.LBB22_23:                              # %for.cond73
                                        # =>This Loop Header: Depth=1
                                        #     Child Loop BB22_25 Depth 2
	cmpl	$2, -8(%rbp)
	jge	.LBB22_33
# %bb.24:                               # %for.body75
                                        #   in Loop: Header=BB22_23 Depth=1
	movl	$0, -4(%rbp)
.LBB22_25:                              # %for.cond76
                                        #   Parent Loop BB22_23 Depth=1
                                        # =>  This Inner Loop Header: Depth=2
	cmpl	$10, -4(%rbp)
	jge	.LBB22_31
# %bb.26:                               # %for.body78
                                        #   in Loop: Header=BB22_25 Depth=2
	movq	img, %rax
	cmpl	$2, 24(%rax)
	jne	.LBB22_28
# %bb.27:                               # %if.then81
                                        #   in Loop: Header=BB22_25 Depth=2
	movq	-24(%rbp), %rdi
	addq	$816, %rdi              # imm = 0x330
	movslq	-8(%rbp), %rax
	imulq	$160, %rax, %rax
	addq	%rax, %rdi
	movslq	-4(%rbp), %rax
	shlq	$4, %rax
	addq	%rax, %rdi
	movq	img, %rax
	movslq	72520(%rax), %rax
	imulq	$160, %rax, %rax
	movabsq	$INIT_MV_RES_I, %rsi
	addq	%rax, %rsi
	movslq	-8(%rbp), %rax
	imulq	$80, %rax, %rax
	addq	%rax, %rsi
	movslq	-4(%rbp), %rax
	shlq	$3, %rax
	addq	%rax, %rsi
	callq	biari_init_context
	jmp	.LBB22_29
.LBB22_28:                              # %if.else94
                                        #   in Loop: Header=BB22_25 Depth=2
	movq	-24(%rbp), %rdi
	addq	$816, %rdi              # imm = 0x330
	movslq	-8(%rbp), %rax
	imulq	$160, %rax, %rax
	addq	%rax, %rdi
	movslq	-4(%rbp), %rax
	shlq	$4, %rax
	addq	%rax, %rdi
	movq	img, %rax
	movslq	72520(%rax), %rax
	imulq	$160, %rax, %rax
	movabsq	$INIT_MV_RES_P, %rsi
	addq	%rax, %rsi
	movslq	-8(%rbp), %rax
	imulq	$80, %rax, %rax
	addq	%rax, %rsi
	movslq	-4(%rbp), %rax
	shlq	$3, %rax
	addq	%rax, %rsi
	callq	biari_init_context
.LBB22_29:                              # %if.end108
                                        #   in Loop: Header=BB22_25 Depth=2
	jmp	.LBB22_30
.LBB22_30:                              # %for.inc109
                                        #   in Loop: Header=BB22_25 Depth=2
	movl	-4(%rbp), %eax
	addl	$1, %eax
	movl	%eax, -4(%rbp)
	jmp	.LBB22_25
.LBB22_31:                              # %for.end111
                                        #   in Loop: Header=BB22_23 Depth=1
	jmp	.LBB22_32
.LBB22_32:                              # %for.inc112
                                        #   in Loop: Header=BB22_23 Depth=1
	movl	-8(%rbp), %eax
	addl	$1, %eax
	movl	%eax, -8(%rbp)
	jmp	.LBB22_23
.LBB22_33:                              # %for.end114
	movl	$0, -8(%rbp)
.LBB22_34:                              # %for.cond115
                                        # =>This Loop Header: Depth=1
                                        #     Child Loop BB22_36 Depth 2
	cmpl	$2, -8(%rbp)
	jge	.LBB22_44
# %bb.35:                               # %for.body117
                                        #   in Loop: Header=BB22_34 Depth=1
	movl	$0, -4(%rbp)
.LBB22_36:                              # %for.cond118
                                        #   Parent Loop BB22_34 Depth=1
                                        # =>  This Inner Loop Header: Depth=2
	cmpl	$6, -4(%rbp)
	jge	.LBB22_42
# %bb.37:                               # %for.body120
                                        #   in Loop: Header=BB22_36 Depth=2
	movq	img, %rax
	cmpl	$2, 24(%rax)
	jne	.LBB22_39
# %bb.38:                               # %if.then123
                                        #   in Loop: Header=BB22_36 Depth=2
	movq	-24(%rbp), %rdi
	addq	$1136, %rdi             # imm = 0x470
	movslq	-8(%rbp), %rax
	imulq	$96, %rax, %rax
	addq	%rax, %rdi
	movslq	-4(%rbp), %rax
	shlq	$4, %rax
	addq	%rax, %rdi
	movq	img, %rax
	movslq	72520(%rax), %rax
	imulq	$96, %rax, %rax
	movabsq	$INIT_REF_NO_I, %rsi
	addq	%rax, %rsi
	movslq	-8(%rbp), %rax
	imulq	$48, %rax, %rax
	addq	%rax, %rsi
	movslq	-4(%rbp), %rax
	shlq	$3, %rax
	addq	%rax, %rsi
	callq	biari_init_context
	jmp	.LBB22_40
.LBB22_39:                              # %if.else136
                                        #   in Loop: Header=BB22_36 Depth=2
	movq	-24(%rbp), %rdi
	addq	$1136, %rdi             # imm = 0x470
	movslq	-8(%rbp), %rax
	imulq	$96, %rax, %rax
	addq	%rax, %rdi
	movslq	-4(%rbp), %rax
	shlq	$4, %rax
	addq	%rax, %rdi
	movq	img, %rax
	movslq	72520(%rax), %rax
	imulq	$96, %rax, %rax
	movabsq	$INIT_REF_NO_P, %rsi
	addq	%rax, %rsi
	movslq	-8(%rbp), %rax
	imulq	$48, %rax, %rax
	addq	%rax, %rsi
	movslq	-4(%rbp), %rax
	shlq	$3, %rax
	addq	%rax, %rsi
	callq	biari_init_context
.LBB22_40:                              # %if.end150
                                        #   in Loop: Header=BB22_36 Depth=2
	jmp	.LBB22_41
.LBB22_41:                              # %for.inc151
                                        #   in Loop: Header=BB22_36 Depth=2
	movl	-4(%rbp), %eax
	addl	$1, %eax
	movl	%eax, -4(%rbp)
	jmp	.LBB22_36
.LBB22_42:                              # %for.end153
                                        #   in Loop: Header=BB22_34 Depth=1
	jmp	.LBB22_43
.LBB22_43:                              # %for.inc154
                                        #   in Loop: Header=BB22_34 Depth=1
	movl	-8(%rbp), %eax
	addl	$1, %eax
	movl	%eax, -8(%rbp)
	jmp	.LBB22_34
.LBB22_44:                              # %for.end156
	movl	$0, -4(%rbp)
.LBB22_45:                              # %for.cond157
                                        # =>This Inner Loop Header: Depth=1
	cmpl	$4, -4(%rbp)
	jge	.LBB22_51
# %bb.46:                               # %for.body159
                                        #   in Loop: Header=BB22_45 Depth=1
	movq	img, %rax
	cmpl	$2, 24(%rax)
	jne	.LBB22_48
# %bb.47:                               # %if.then162
                                        #   in Loop: Header=BB22_45 Depth=1
	movq	-24(%rbp), %rdi
	addq	$1328, %rdi             # imm = 0x530
	movslq	-4(%rbp), %rax
	shlq	$4, %rax
	addq	%rax, %rdi
	movq	img, %rax
	movslq	72520(%rax), %rax
	shlq	$5, %rax
	movabsq	$INIT_DELTA_QP_I, %rsi
	addq	%rax, %rsi
	movslq	-4(%rbp), %rax
	shlq	$3, %rax
	addq	%rax, %rsi
	callq	biari_init_context
	jmp	.LBB22_49
.LBB22_48:                              # %if.else172
                                        #   in Loop: Header=BB22_45 Depth=1
	movq	-24(%rbp), %rdi
	addq	$1328, %rdi             # imm = 0x530
	movslq	-4(%rbp), %rax
	shlq	$4, %rax
	addq	%rax, %rdi
	movq	img, %rax
	movslq	72520(%rax), %rax
	shlq	$5, %rax
	movabsq	$INIT_DELTA_QP_P, %rsi
	addq	%rax, %rsi
	movslq	-4(%rbp), %rax
	shlq	$3, %rax
	addq	%rax, %rsi
	callq	biari_init_context
.LBB22_49:                              # %if.end183
                                        #   in Loop: Header=BB22_45 Depth=1
	jmp	.LBB22_50
.LBB22_50:                              # %for.inc184
                                        #   in Loop: Header=BB22_45 Depth=1
	movl	-4(%rbp), %eax
	addl	$1, %eax
	movl	%eax, -4(%rbp)
	jmp	.LBB22_45
.LBB22_51:                              # %for.end186
	movl	$0, -4(%rbp)
.LBB22_52:                              # %for.cond187
                                        # =>This Inner Loop Header: Depth=1
	cmpl	$4, -4(%rbp)
	jge	.LBB22_58
# %bb.53:                               # %for.body189
                                        #   in Loop: Header=BB22_52 Depth=1
	movq	img, %rax
	cmpl	$2, 24(%rax)
	jne	.LBB22_55
# %bb.54:                               # %if.then192
                                        #   in Loop: Header=BB22_52 Depth=1
	movq	-24(%rbp), %rdi
	addq	$1392, %rdi             # imm = 0x570
	movslq	-4(%rbp), %rax
	shlq	$4, %rax
	addq	%rax, %rdi
	movq	img, %rax
	movslq	72520(%rax), %rax
	shlq	$5, %rax
	movabsq	$INIT_MB_AFF_I, %rsi
	addq	%rax, %rsi
	movslq	-4(%rbp), %rax
	shlq	$3, %rax
	addq	%rax, %rsi
	callq	biari_init_context
	jmp	.LBB22_56
.LBB22_55:                              # %if.else202
                                        #   in Loop: Header=BB22_52 Depth=1
	movq	-24(%rbp), %rdi
	addq	$1392, %rdi             # imm = 0x570
	movslq	-4(%rbp), %rax
	shlq	$4, %rax
	addq	%rax, %rdi
	movq	img, %rax
	movslq	72520(%rax), %rax
	shlq	$5, %rax
	movabsq	$INIT_MB_AFF_P, %rsi
	addq	%rax, %rsi
	movslq	-4(%rbp), %rax
	shlq	$3, %rax
	addq	%rax, %rsi
	callq	biari_init_context
.LBB22_56:                              # %if.end213
                                        #   in Loop: Header=BB22_52 Depth=1
	jmp	.LBB22_57
.LBB22_57:                              # %for.inc214
                                        #   in Loop: Header=BB22_52 Depth=1
	movl	-4(%rbp), %eax
	addl	$1, %eax
	movl	%eax, -4(%rbp)
	jmp	.LBB22_52
.LBB22_58:                              # %for.end216
	movl	$0, -4(%rbp)
.LBB22_59:                              # %for.cond217
                                        # =>This Inner Loop Header: Depth=1
	cmpl	$3, -4(%rbp)
	jge	.LBB22_65
# %bb.60:                               # %for.body219
                                        #   in Loop: Header=BB22_59 Depth=1
	movq	img, %rax
	cmpl	$2, 24(%rax)
	jne	.LBB22_62
# %bb.61:                               # %if.then222
                                        #   in Loop: Header=BB22_59 Depth=1
	movq	-24(%rbp), %rdi
	addq	$1456, %rdi             # imm = 0x5B0
	movslq	-4(%rbp), %rax
	shlq	$4, %rax
	addq	%rax, %rdi
	movq	img, %rax
	movslq	72520(%rax), %rax
	imulq	$24, %rax, %rax
	movabsq	$INIT_TRANSFORM_SIZE_I, %rsi
	addq	%rax, %rsi
	movslq	-4(%rbp), %rax
	shlq	$3, %rax
	addq	%rax, %rsi
	callq	biari_init_context
	jmp	.LBB22_63
.LBB22_62:                              # %if.else232
                                        #   in Loop: Header=BB22_59 Depth=1
	movq	-24(%rbp), %rdi
	addq	$1456, %rdi             # imm = 0x5B0
	movslq	-4(%rbp), %rax
	shlq	$4, %rax
	addq	%rax, %rdi
	movq	img, %rax
	movslq	72520(%rax), %rax
	imulq	$24, %rax, %rax
	movabsq	$INIT_TRANSFORM_SIZE_P, %rsi
	addq	%rax, %rsi
	movslq	-4(%rbp), %rax
	shlq	$3, %rax
	addq	%rax, %rsi
	callq	biari_init_context
.LBB22_63:                              # %if.end243
                                        #   in Loop: Header=BB22_59 Depth=1
	jmp	.LBB22_64
.LBB22_64:                              # %for.inc244
                                        #   in Loop: Header=BB22_59 Depth=1
	movl	-4(%rbp), %eax
	addl	$1, %eax
	movl	%eax, -4(%rbp)
	jmp	.LBB22_59
.LBB22_65:                              # %for.end246
	movl	$0, -4(%rbp)
.LBB22_66:                              # %for.cond247
                                        # =>This Inner Loop Header: Depth=1
	cmpl	$2, -4(%rbp)
	jge	.LBB22_72
# %bb.67:                               # %for.body249
                                        #   in Loop: Header=BB22_66 Depth=1
	movq	img, %rax
	cmpl	$2, 24(%rax)
	jne	.LBB22_69
# %bb.68:                               # %if.then252
                                        #   in Loop: Header=BB22_66 Depth=1
	movq	-16(%rbp), %rdi
	movslq	-4(%rbp), %rax
	shlq	$4, %rax
	addq	%rax, %rdi
	movq	img, %rax
	movslq	72520(%rax), %rax
	shlq	$4, %rax
	movabsq	$INIT_IPR_I, %rsi
	addq	%rax, %rsi
	movslq	-4(%rbp), %rax
	shlq	$3, %rax
	addq	%rax, %rsi
	callq	biari_init_context
	jmp	.LBB22_70
.LBB22_69:                              # %if.else262
                                        #   in Loop: Header=BB22_66 Depth=1
	movq	-16(%rbp), %rdi
	movslq	-4(%rbp), %rax
	shlq	$4, %rax
	addq	%rax, %rdi
	movq	img, %rax
	movslq	72520(%rax), %rax
	shlq	$4, %rax
	movabsq	$INIT_IPR_P, %rsi
	addq	%rax, %rsi
	movslq	-4(%rbp), %rax
	shlq	$3, %rax
	addq	%rax, %rsi
	callq	biari_init_context
.LBB22_70:                              # %if.end273
                                        #   in Loop: Header=BB22_66 Depth=1
	jmp	.LBB22_71
.LBB22_71:                              # %for.inc274
                                        #   in Loop: Header=BB22_66 Depth=1
	movl	-4(%rbp), %eax
	addl	$1, %eax
	movl	%eax, -4(%rbp)
	jmp	.LBB22_66
.LBB22_72:                              # %for.end276
	movl	$0, -4(%rbp)
.LBB22_73:                              # %for.cond277
                                        # =>This Inner Loop Header: Depth=1
	cmpl	$4, -4(%rbp)
	jge	.LBB22_79
# %bb.74:                               # %for.body279
                                        #   in Loop: Header=BB22_73 Depth=1
	movq	img, %rax
	cmpl	$2, 24(%rax)
	jne	.LBB22_76
# %bb.75:                               # %if.then282
                                        #   in Loop: Header=BB22_73 Depth=1
	movq	-16(%rbp), %rdi
	addq	$32, %rdi
	movslq	-4(%rbp), %rax
	shlq	$4, %rax
	addq	%rax, %rdi
	movq	img, %rax
	movslq	72520(%rax), %rax
	shlq	$5, %rax
	movabsq	$INIT_CIPR_I, %rsi
	addq	%rax, %rsi
	movslq	-4(%rbp), %rax
	shlq	$3, %rax
	addq	%rax, %rsi
	callq	biari_init_context
	jmp	.LBB22_77
.LBB22_76:                              # %if.else292
                                        #   in Loop: Header=BB22_73 Depth=1
	movq	-16(%rbp), %rdi
	addq	$32, %rdi
	movslq	-4(%rbp), %rax
	shlq	$4, %rax
	addq	%rax, %rdi
	movq	img, %rax
	movslq	72520(%rax), %rax
	shlq	$5, %rax
	movabsq	$INIT_CIPR_P, %rsi
	addq	%rax, %rsi
	movslq	-4(%rbp), %rax
	shlq	$3, %rax
	addq	%rax, %rsi
	callq	biari_init_context
.LBB22_77:                              # %if.end303
                                        #   in Loop: Header=BB22_73 Depth=1
	jmp	.LBB22_78
.LBB22_78:                              # %for.inc304
                                        #   in Loop: Header=BB22_73 Depth=1
	movl	-4(%rbp), %eax
	addl	$1, %eax
	movl	%eax, -4(%rbp)
	jmp	.LBB22_73
.LBB22_79:                              # %for.end306
	movl	$0, -8(%rbp)
.LBB22_80:                              # %for.cond307
                                        # =>This Loop Header: Depth=1
                                        #     Child Loop BB22_82 Depth 2
	cmpl	$3, -8(%rbp)
	jge	.LBB22_90
# %bb.81:                               # %for.body309
                                        #   in Loop: Header=BB22_80 Depth=1
	movl	$0, -4(%rbp)
.LBB22_82:                              # %for.cond310
                                        #   Parent Loop BB22_80 Depth=1
                                        # =>  This Inner Loop Header: Depth=2
	cmpl	$4, -4(%rbp)
	jge	.LBB22_88
# %bb.83:                               # %for.body312
                                        #   in Loop: Header=BB22_82 Depth=2
	movq	img, %rax
	cmpl	$2, 24(%rax)
	jne	.LBB22_85
# %bb.84:                               # %if.then315
                                        #   in Loop: Header=BB22_82 Depth=2
	movq	-16(%rbp), %rdi
	addq	$96, %rdi
	movslq	-8(%rbp), %rax
	shlq	$6, %rax
	addq	%rax, %rdi
	movslq	-4(%rbp), %rax
	shlq	$4, %rax
	addq	%rax, %rdi
	movq	img, %rax
	movslq	72520(%rax), %rax
	imulq	$96, %rax, %rax
	movabsq	$INIT_CBP_I, %rsi
	addq	%rax, %rsi
	movslq	-8(%rbp), %rax
	shlq	$5, %rax
	addq	%rax, %rsi
	movslq	-4(%rbp), %rax
	shlq	$3, %rax
	addq	%rax, %rsi
	callq	biari_init_context
	jmp	.LBB22_86
.LBB22_85:                              # %if.else328
                                        #   in Loop: Header=BB22_82 Depth=2
	movq	-16(%rbp), %rdi
	addq	$96, %rdi
	movslq	-8(%rbp), %rax
	shlq	$6, %rax
	addq	%rax, %rdi
	movslq	-4(%rbp), %rax
	shlq	$4, %rax
	addq	%rax, %rdi
	movq	img, %rax
	movslq	72520(%rax), %rax
	imulq	$96, %rax, %rax
	movabsq	$INIT_CBP_P, %rsi
	addq	%rax, %rsi
	movslq	-8(%rbp), %rax
	shlq	$5, %rax
	addq	%rax, %rsi
	movslq	-4(%rbp), %rax
	shlq	$3, %rax
	addq	%rax, %rsi
	callq	biari_init_context
.LBB22_86:                              # %if.end342
                                        #   in Loop: Header=BB22_82 Depth=2
	jmp	.LBB22_87
.LBB22_87:                              # %for.inc343
                                        #   in Loop: Header=BB22_82 Depth=2
	movl	-4(%rbp), %eax
	addl	$1, %eax
	movl	%eax, -4(%rbp)
	jmp	.LBB22_82
.LBB22_88:                              # %for.end345
                                        #   in Loop: Header=BB22_80 Depth=1
	jmp	.LBB22_89
.LBB22_89:                              # %for.inc346
                                        #   in Loop: Header=BB22_80 Depth=1
	movl	-8(%rbp), %eax
	addl	$1, %eax
	movl	%eax, -8(%rbp)
	jmp	.LBB22_80
.LBB22_90:                              # %for.end348
	movl	$0, -8(%rbp)
.LBB22_91:                              # %for.cond349
                                        # =>This Loop Header: Depth=1
                                        #     Child Loop BB22_93 Depth 2
	cmpl	$10, -8(%rbp)
	jge	.LBB22_101
# %bb.92:                               # %for.body351
                                        #   in Loop: Header=BB22_91 Depth=1
	movl	$0, -4(%rbp)
.LBB22_93:                              # %for.cond352
                                        #   Parent Loop BB22_91 Depth=1
                                        # =>  This Inner Loop Header: Depth=2
	cmpl	$4, -4(%rbp)
	jge	.LBB22_99
# %bb.94:                               # %for.body354
                                        #   in Loop: Header=BB22_93 Depth=2
	movq	img, %rax
	cmpl	$2, 24(%rax)
	jne	.LBB22_96
# %bb.95:                               # %if.then357
                                        #   in Loop: Header=BB22_93 Depth=2
	movq	-16(%rbp), %rdi
	addq	$288, %rdi              # imm = 0x120
	movslq	-8(%rbp), %rax
	shlq	$6, %rax
	addq	%rax, %rdi
	movslq	-4(%rbp), %rax
	shlq	$4, %rax
	addq	%rax, %rdi
	movq	img, %rax
	movslq	72520(%rax), %rax
	shlq	$8, %rax
	movabsq	$INIT_BCBP_I, %rsi
	addq	%rax, %rsi
	movslq	-8(%rbp), %rax
	shlq	$5, %rax
	addq	%rax, %rsi
	movslq	-4(%rbp), %rax
	shlq	$3, %rax
	addq	%rax, %rsi
	callq	biari_init_context
	jmp	.LBB22_97
.LBB22_96:                              # %if.else370
                                        #   in Loop: Header=BB22_93 Depth=2
	movq	-16(%rbp), %rdi
	addq	$288, %rdi              # imm = 0x120
	movslq	-8(%rbp), %rax
	shlq	$6, %rax
	addq	%rax, %rdi
	movslq	-4(%rbp), %rax
	shlq	$4, %rax
	addq	%rax, %rdi
	movq	img, %rax
	movslq	72520(%rax), %rax
	shlq	$8, %rax
	movabsq	$INIT_BCBP_P, %rsi
	addq	%rax, %rsi
	movslq	-8(%rbp), %rax
	shlq	$5, %rax
	addq	%rax, %rsi
	movslq	-4(%rbp), %rax
	shlq	$3, %rax
	addq	%rax, %rsi
	callq	biari_init_context
.LBB22_97:                              # %if.end384
                                        #   in Loop: Header=BB22_93 Depth=2
	jmp	.LBB22_98
.LBB22_98:                              # %for.inc385
                                        #   in Loop: Header=BB22_93 Depth=2
	movl	-4(%rbp), %eax
	addl	$1, %eax
	movl	%eax, -4(%rbp)
	jmp	.LBB22_93
.LBB22_99:                              # %for.end387
                                        #   in Loop: Header=BB22_91 Depth=1
	jmp	.LBB22_100
.LBB22_100:                             # %for.inc388
                                        #   in Loop: Header=BB22_91 Depth=1
	movl	-8(%rbp), %eax
	addl	$1, %eax
	movl	%eax, -8(%rbp)
	jmp	.LBB22_91
.LBB22_101:                             # %for.end390
	movl	$0, -8(%rbp)
.LBB22_102:                             # %for.cond391
                                        # =>This Loop Header: Depth=1
                                        #     Child Loop BB22_104 Depth 2
	cmpl	$10, -8(%rbp)
	jge	.LBB22_112
# %bb.103:                              # %for.body393
                                        #   in Loop: Header=BB22_102 Depth=1
	movl	$0, -4(%rbp)
.LBB22_104:                             # %for.cond394
                                        #   Parent Loop BB22_102 Depth=1
                                        # =>  This Inner Loop Header: Depth=2
	cmpl	$15, -4(%rbp)
	jge	.LBB22_110
# %bb.105:                              # %for.body396
                                        #   in Loop: Header=BB22_104 Depth=2
	movq	img, %rax
	cmpl	$2, 24(%rax)
	jne	.LBB22_107
# %bb.106:                              # %if.then399
                                        #   in Loop: Header=BB22_104 Depth=2
	movq	-16(%rbp), %rdi
	addq	$928, %rdi              # imm = 0x3A0
	movslq	-8(%rbp), %rax
	imulq	$240, %rax, %rax
	addq	%rax, %rdi
	movslq	-4(%rbp), %rax
	shlq	$4, %rax
	addq	%rax, %rdi
	movq	img, %rax
	movslq	72520(%rax), %rax
	imulq	$960, %rax, %rax        # imm = 0x3C0
	movabsq	$INIT_MAP_I, %rsi
	addq	%rax, %rsi
	movslq	-8(%rbp), %rax
	imulq	$120, %rax, %rax
	addq	%rax, %rsi
	movslq	-4(%rbp), %rax
	shlq	$3, %rax
	addq	%rax, %rsi
	callq	biari_init_context
	jmp	.LBB22_108
.LBB22_107:                             # %if.else412
                                        #   in Loop: Header=BB22_104 Depth=2
	movq	-16(%rbp), %rdi
	addq	$928, %rdi              # imm = 0x3A0
	movslq	-8(%rbp), %rax
	imulq	$240, %rax, %rax
	addq	%rax, %rdi
	movslq	-4(%rbp), %rax
	shlq	$4, %rax
	addq	%rax, %rdi
	movq	img, %rax
	movslq	72520(%rax), %rax
	imulq	$960, %rax, %rax        # imm = 0x3C0
	movabsq	$INIT_MAP_P, %rsi
	addq	%rax, %rsi
	movslq	-8(%rbp), %rax
	imulq	$120, %rax, %rax
	addq	%rax, %rsi
	movslq	-4(%rbp), %rax
	shlq	$3, %rax
	addq	%rax, %rsi
	callq	biari_init_context
.LBB22_108:                             # %if.end426
                                        #   in Loop: Header=BB22_104 Depth=2
	jmp	.LBB22_109
.LBB22_109:                             # %for.inc427
                                        #   in Loop: Header=BB22_104 Depth=2
	movl	-4(%rbp), %eax
	addl	$1, %eax
	movl	%eax, -4(%rbp)
	jmp	.LBB22_104
.LBB22_110:                             # %for.end429
                                        #   in Loop: Header=BB22_102 Depth=1
	jmp	.LBB22_111
.LBB22_111:                             # %for.inc430
                                        #   in Loop: Header=BB22_102 Depth=1
	movl	-8(%rbp), %eax
	addl	$1, %eax
	movl	%eax, -8(%rbp)
	jmp	.LBB22_102
.LBB22_112:                             # %for.end432
	movl	$0, -8(%rbp)
.LBB22_113:                             # %for.cond433
                                        # =>This Loop Header: Depth=1
                                        #     Child Loop BB22_115 Depth 2
	cmpl	$10, -8(%rbp)
	jge	.LBB22_123
# %bb.114:                              # %for.body435
                                        #   in Loop: Header=BB22_113 Depth=1
	movl	$0, -4(%rbp)
.LBB22_115:                             # %for.cond436
                                        #   Parent Loop BB22_113 Depth=1
                                        # =>  This Inner Loop Header: Depth=2
	cmpl	$15, -4(%rbp)
	jge	.LBB22_121
# %bb.116:                              # %for.body438
                                        #   in Loop: Header=BB22_115 Depth=2
	movq	img, %rax
	cmpl	$2, 24(%rax)
	jne	.LBB22_118
# %bb.117:                              # %if.then441
                                        #   in Loop: Header=BB22_115 Depth=2
	movq	-16(%rbp), %rdi
	addq	$3328, %rdi             # imm = 0xD00
	movslq	-8(%rbp), %rax
	imulq	$240, %rax, %rax
	addq	%rax, %rdi
	movslq	-4(%rbp), %rax
	shlq	$4, %rax
	addq	%rax, %rdi
	movq	img, %rax
	movslq	72520(%rax), %rax
	imulq	$960, %rax, %rax        # imm = 0x3C0
	movabsq	$INIT_LAST_I, %rsi
	addq	%rax, %rsi
	movslq	-8(%rbp), %rax
	imulq	$120, %rax, %rax
	addq	%rax, %rsi
	movslq	-4(%rbp), %rax
	shlq	$3, %rax
	addq	%rax, %rsi
	callq	biari_init_context
	jmp	.LBB22_119
.LBB22_118:                             # %if.else454
                                        #   in Loop: Header=BB22_115 Depth=2
	movq	-16(%rbp), %rdi
	addq	$3328, %rdi             # imm = 0xD00
	movslq	-8(%rbp), %rax
	imulq	$240, %rax, %rax
	addq	%rax, %rdi
	movslq	-4(%rbp), %rax
	shlq	$4, %rax
	addq	%rax, %rdi
	movq	img, %rax
	movslq	72520(%rax), %rax
	imulq	$960, %rax, %rax        # imm = 0x3C0
	movabsq	$INIT_LAST_P, %rsi
	addq	%rax, %rsi
	movslq	-8(%rbp), %rax
	imulq	$120, %rax, %rax
	addq	%rax, %rsi
	movslq	-4(%rbp), %rax
	shlq	$3, %rax
	addq	%rax, %rsi
	callq	biari_init_context
.LBB22_119:                             # %if.end468
                                        #   in Loop: Header=BB22_115 Depth=2
	jmp	.LBB22_120
.LBB22_120:                             # %for.inc469
                                        #   in Loop: Header=BB22_115 Depth=2
	movl	-4(%rbp), %eax
	addl	$1, %eax
	movl	%eax, -4(%rbp)
	jmp	.LBB22_115
.LBB22_121:                             # %for.end471
                                        #   in Loop: Header=BB22_113 Depth=1
	jmp	.LBB22_122
.LBB22_122:                             # %for.inc472
                                        #   in Loop: Header=BB22_113 Depth=1
	movl	-8(%rbp), %eax
	addl	$1, %eax
	movl	%eax, -8(%rbp)
	jmp	.LBB22_113
.LBB22_123:                             # %for.end474
	movl	$0, -8(%rbp)
.LBB22_124:                             # %for.cond475
                                        # =>This Loop Header: Depth=1
                                        #     Child Loop BB22_126 Depth 2
	cmpl	$10, -8(%rbp)
	jge	.LBB22_134
# %bb.125:                              # %for.body477
                                        #   in Loop: Header=BB22_124 Depth=1
	movl	$0, -4(%rbp)
.LBB22_126:                             # %for.cond478
                                        #   Parent Loop BB22_124 Depth=1
                                        # =>  This Inner Loop Header: Depth=2
	cmpl	$5, -4(%rbp)
	jge	.LBB22_132
# %bb.127:                              # %for.body480
                                        #   in Loop: Header=BB22_126 Depth=2
	movq	img, %rax
	cmpl	$2, 24(%rax)
	jne	.LBB22_129
# %bb.128:                              # %if.then483
                                        #   in Loop: Header=BB22_126 Depth=2
	movq	-16(%rbp), %rdi
	addq	$5728, %rdi             # imm = 0x1660
	movslq	-8(%rbp), %rax
	imulq	$80, %rax, %rax
	addq	%rax, %rdi
	movslq	-4(%rbp), %rax
	shlq	$4, %rax
	addq	%rax, %rdi
	movq	img, %rax
	movslq	72520(%rax), %rax
	imulq	$320, %rax, %rax        # imm = 0x140
	movabsq	$INIT_ONE_I, %rsi
	addq	%rax, %rsi
	movslq	-8(%rbp), %rax
	imulq	$40, %rax, %rax
	addq	%rax, %rsi
	movslq	-4(%rbp), %rax
	shlq	$3, %rax
	addq	%rax, %rsi
	callq	biari_init_context
	jmp	.LBB22_130
