	.text
	.file	"context_ini.c"
	.globl	create_context_memory   # -- Begin function create_context_memory
	.p2align	4, 0x90
	.type	create_context_memory,@function
create_context_memory:                  # @create_context_memory
	.cfi_startproc
# %bb.0:                                # %rand_bb
	pushq	%rbp
	.cfi_def_cfa_offset 16
	.cfi_offset %rbp, -16
	movq	%rsp, %rbp
	.cfi_def_cfa_register %rbp
	callq	get_rand
	cmpl	$0, %eax
	jne	.LBB0_17
# %bb.1:                                # %func_create_context_memory.2
	callq	create_context_memory.2
	popq	%rbp
	.cfi_def_cfa %rsp, 8
	retq
.LBB0_2:                                # %func_create_context_memory.6
	.cfi_def_cfa %rbp, 16
	callq	create_context_memory.6
	popq	%rbp
	.cfi_def_cfa %rsp, 8
	retq
.LBB0_3:                                # %func_create_context_memory.30
	.cfi_def_cfa %rbp, 16
	callq	create_context_memory.30
	popq	%rbp
	.cfi_def_cfa %rsp, 8
	retq
.LBB0_4:                                # %func_create_context_memory.32
	.cfi_def_cfa %rbp, 16
	callq	create_context_memory.32
	popq	%rbp
	.cfi_def_cfa %rsp, 8
	retq
.LBB0_5:                                # %func_create_context_memory.33
	.cfi_def_cfa %rbp, 16
	callq	create_context_memory.33
	popq	%rbp
	.cfi_def_cfa %rsp, 8
	retq
.LBB0_6:                                # %func_create_context_memory.39
	.cfi_def_cfa %rbp, 16
	callq	create_context_memory.39
	popq	%rbp
	.cfi_def_cfa %rsp, 8
	retq
.LBB0_7:                                # %func_create_context_memory.40
	.cfi_def_cfa %rbp, 16
	callq	create_context_memory.40
	popq	%rbp
	.cfi_def_cfa %rsp, 8
	retq
.LBB0_8:                                # %func_create_context_memory.45
	.cfi_def_cfa %rbp, 16
	callq	create_context_memory.45
	popq	%rbp
	.cfi_def_cfa %rsp, 8
	retq
.LBB0_9:                                # %func_create_context_memory.57
	.cfi_def_cfa %rbp, 16
	callq	create_context_memory.57
	popq	%rbp
	.cfi_def_cfa %rsp, 8
	retq
.LBB0_10:                               # %func_create_context_memory.63
	.cfi_def_cfa %rbp, 16
	callq	create_context_memory.63
	popq	%rbp
	.cfi_def_cfa %rsp, 8
	retq
.LBB0_11:                               # %func_create_context_memory.64
	.cfi_def_cfa %rbp, 16
	callq	create_context_memory.64
	popq	%rbp
	.cfi_def_cfa %rsp, 8
	retq
.LBB0_12:                               # %func_create_context_memory.65
	.cfi_def_cfa %rbp, 16
	callq	create_context_memory.65
	popq	%rbp
	.cfi_def_cfa %rsp, 8
	retq
.LBB0_13:                               # %func_create_context_memory.72
	.cfi_def_cfa %rbp, 16
	callq	create_context_memory.72
	popq	%rbp
	.cfi_def_cfa %rsp, 8
	retq
.LBB0_14:                               # %func_create_context_memory.73
	.cfi_def_cfa %rbp, 16
	callq	create_context_memory.73
	popq	%rbp
	.cfi_def_cfa %rsp, 8
	retq
.LBB0_15:                               # %func_create_context_memory.74
	.cfi_def_cfa %rbp, 16
	callq	create_context_memory.74
	popq	%rbp
	.cfi_def_cfa %rsp, 8
	retq
.LBB0_16:                               # %func_create_context_memory.75
	.cfi_def_cfa %rbp, 16
	callq	create_context_memory.75
	popq	%rbp
	.cfi_def_cfa %rsp, 8
	retq
.LBB0_17:                               # %ctrl0
	.cfi_def_cfa %rbp, 16
	cmpl	$1, %eax
	je	.LBB0_2
# %bb.18:                               # %ctrl1
	cmpl	$2, %eax
	je	.LBB0_3
# %bb.19:                               # %ctrl2
	cmpl	$3, %eax
	je	.LBB0_4
# %bb.20:                               # %ctrl3
	cmpl	$4, %eax
	je	.LBB0_5
# %bb.21:                               # %ctrl4
	cmpl	$5, %eax
	je	.LBB0_6
# %bb.22:                               # %ctrl5
	cmpl	$6, %eax
	je	.LBB0_7
# %bb.23:                               # %ctrl6
	cmpl	$7, %eax
	je	.LBB0_8
# %bb.24:                               # %ctrl7
	cmpl	$8, %eax
	je	.LBB0_9
# %bb.25:                               # %ctrl8
	cmpl	$9, %eax
	je	.LBB0_10
# %bb.26:                               # %ctrl9
	cmpl	$10, %eax
	je	.LBB0_11
# %bb.27:                               # %ctrl10
	cmpl	$11, %eax
	je	.LBB0_12
# %bb.28:                               # %ctrl11
	cmpl	$12, %eax
	je	.LBB0_13
# %bb.29:                               # %ctrl12
	cmpl	$13, %eax
	je	.LBB0_14
# %bb.30:                               # %ctrl13
	cmpl	$14, %eax
	je	.LBB0_15
	jmp	.LBB0_16
.Lfunc_end0:
	.size	create_context_memory, .Lfunc_end0-create_context_memory
	.cfi_endproc
                                        # -- End function
	.globl	free_context_memory     # -- Begin function free_context_memory
	.p2align	4, 0x90
	.type	free_context_memory,@function
free_context_memory:                    # @free_context_memory
	.cfi_startproc
# %bb.0:                                # %rand_bb
	pushq	%rbp
	.cfi_def_cfa_offset 16
	.cfi_offset %rbp, -16
	movq	%rsp, %rbp
	.cfi_def_cfa_register %rbp
	callq	get_rand
	cmpl	$0, %eax
	jne	.LBB1_2
# %bb.1:                                # %func_free_context_memory.11
	callq	free_context_memory.11
	popq	%rbp
	.cfi_def_cfa %rsp, 8
	retq
.LBB1_2:                                # %func_free_context_memory.21
	.cfi_def_cfa %rbp, 16
	callq	free_context_memory.21
	popq	%rbp
	.cfi_def_cfa %rsp, 8
	retq
.Lfunc_end1:
	.size	free_context_memory, .Lfunc_end1-free_context_memory
	.cfi_endproc
                                        # -- End function
	.globl	SetCtxModelNumber       # -- Begin function SetCtxModelNumber
	.p2align	4, 0x90
	.type	SetCtxModelNumber,@function
SetCtxModelNumber:                      # @SetCtxModelNumber
	.cfi_startproc
# %bb.0:                                # %rand_bb
	pushq	%rbp
	.cfi_def_cfa_offset 16
	.cfi_offset %rbp, -16
	movq	%rsp, %rbp
	.cfi_def_cfa_register %rbp
	callq	get_rand
	cmpl	$0, %eax
	jne	.LBB2_7
# %bb.1:                                # %func_SetCtxModelNumber.22
	callq	SetCtxModelNumber.22
	popq	%rbp
	.cfi_def_cfa %rsp, 8
	retq
.LBB2_2:                                # %func_SetCtxModelNumber.26
	.cfi_def_cfa %rbp, 16
	callq	SetCtxModelNumber.26
	popq	%rbp
	.cfi_def_cfa %rsp, 8
	retq
.LBB2_3:                                # %func_SetCtxModelNumber.27
	.cfi_def_cfa %rbp, 16
	callq	SetCtxModelNumber.27
	popq	%rbp
	.cfi_def_cfa %rsp, 8
	retq
.LBB2_4:                                # %func_SetCtxModelNumber.43
	.cfi_def_cfa %rbp, 16
	callq	SetCtxModelNumber.43
	popq	%rbp
	.cfi_def_cfa %rsp, 8
	retq
.LBB2_5:                                # %func_SetCtxModelNumber.54
	.cfi_def_cfa %rbp, 16
	callq	SetCtxModelNumber.54
	popq	%rbp
	.cfi_def_cfa %rsp, 8
	retq
.LBB2_6:                                # %func_SetCtxModelNumber.56
	.cfi_def_cfa %rbp, 16
	callq	SetCtxModelNumber.56
	popq	%rbp
	.cfi_def_cfa %rsp, 8
	retq
.LBB2_7:                                # %ctrl0
	.cfi_def_cfa %rbp, 16
	cmpl	$1, %eax
	je	.LBB2_2
# %bb.8:                                # %ctrl1
	cmpl	$2, %eax
	je	.LBB2_3
# %bb.9:                                # %ctrl2
	cmpl	$3, %eax
	je	.LBB2_4
# %bb.10:                               # %ctrl3
	cmpl	$4, %eax
	je	.LBB2_5
	jmp	.LBB2_6
.Lfunc_end2:
	.size	SetCtxModelNumber, .Lfunc_end2-SetCtxModelNumber
	.cfi_endproc
                                        # -- End function
	.globl	init_contexts           # -- Begin function init_contexts
	.p2align	4, 0x90
	.type	init_contexts,@function
init_contexts:                          # @init_contexts
	.cfi_startproc
# %bb.0:                                # %rand_bb
	pushq	%rbp
	.cfi_def_cfa_offset 16
	.cfi_offset %rbp, -16
	movq	%rsp, %rbp
	.cfi_def_cfa_register %rbp
	callq	get_rand
	cmpl	$0, %eax
	jne	.LBB3_17
# %bb.1:                                # %func_init_contexts.7
	callq	init_contexts.7
	popq	%rbp
	.cfi_def_cfa %rsp, 8
	retq
.LBB3_2:                                # %func_init_contexts.8
	.cfi_def_cfa %rbp, 16
	callq	init_contexts.8
	popq	%rbp
	.cfi_def_cfa %rsp, 8
	retq
.LBB3_3:                                # %func_init_contexts.9
	.cfi_def_cfa %rbp, 16
	callq	init_contexts.9
	popq	%rbp
	.cfi_def_cfa %rsp, 8
	retq
.LBB3_4:                                # %func_init_contexts.13
	.cfi_def_cfa %rbp, 16
	callq	init_contexts.13
	popq	%rbp
	.cfi_def_cfa %rsp, 8
	retq
.LBB3_5:                                # %func_init_contexts.20
	.cfi_def_cfa %rbp, 16
	callq	init_contexts.20
	popq	%rbp
	.cfi_def_cfa %rsp, 8
	retq
.LBB3_6:                                # %func_init_contexts.25
	.cfi_def_cfa %rbp, 16
	callq	init_contexts.25
	popq	%rbp
	.cfi_def_cfa %rsp, 8
	retq
.LBB3_7:                                # %func_init_contexts.44
	.cfi_def_cfa %rbp, 16
	callq	init_contexts.44
	popq	%rbp
	.cfi_def_cfa %rsp, 8
	retq
.LBB3_8:                                # %func_init_contexts.46
	.cfi_def_cfa %rbp, 16
	callq	init_contexts.46
	popq	%rbp
	.cfi_def_cfa %rsp, 8
	retq
.LBB3_9:                                # %func_init_contexts.66
	.cfi_def_cfa %rbp, 16
	callq	init_contexts.66
	popq	%rbp
	.cfi_def_cfa %rsp, 8
	retq
.LBB3_10:                               # %func_init_contexts.68
	.cfi_def_cfa %rbp, 16
	callq	init_contexts.68
	popq	%rbp
	.cfi_def_cfa %rsp, 8
	retq
.LBB3_11:                               # %func_init_contexts.77
	.cfi_def_cfa %rbp, 16
	callq	init_contexts.77
	popq	%rbp
	.cfi_def_cfa %rsp, 8
	retq
.LBB3_12:                               # %func_init_contexts.80
	.cfi_def_cfa %rbp, 16
	callq	init_contexts.80
	popq	%rbp
	.cfi_def_cfa %rsp, 8
	retq
.LBB3_13:                               # %func_init_contexts.81
	.cfi_def_cfa %rbp, 16
	callq	init_contexts.81
	popq	%rbp
	.cfi_def_cfa %rsp, 8
	retq
.LBB3_14:                               # %func_init_contexts.82
	.cfi_def_cfa %rbp, 16
	callq	init_contexts.82
	popq	%rbp
	.cfi_def_cfa %rsp, 8
	retq
.LBB3_15:                               # %func_init_contexts.83
	.cfi_def_cfa %rbp, 16
	callq	init_contexts.83
	popq	%rbp
	.cfi_def_cfa %rsp, 8
	retq
.LBB3_16:                               # %func_init_contexts.84
	.cfi_def_cfa %rbp, 16
	callq	init_contexts.84
	popq	%rbp
	.cfi_def_cfa %rsp, 8
	retq
.LBB3_17:                               # %ctrl0
	.cfi_def_cfa %rbp, 16
	cmpl	$1, %eax
	je	.LBB3_2
# %bb.18:                               # %ctrl1
	cmpl	$2, %eax
	je	.LBB3_3
# %bb.19:                               # %ctrl2
	cmpl	$3, %eax
	je	.LBB3_4
# %bb.20:                               # %ctrl3
	cmpl	$4, %eax
	je	.LBB3_5
# %bb.21:                               # %ctrl4
	cmpl	$5, %eax
	je	.LBB3_6
# %bb.22:                               # %ctrl5
	cmpl	$6, %eax
	je	.LBB3_7
# %bb.23:                               # %ctrl6
	cmpl	$7, %eax
	je	.LBB3_8
# %bb.24:                               # %ctrl7
	cmpl	$8, %eax
	je	.LBB3_9
# %bb.25:                               # %ctrl8
	cmpl	$9, %eax
	je	.LBB3_10
# %bb.26:                               # %ctrl9
	cmpl	$10, %eax
	je	.LBB3_11
# %bb.27:                               # %ctrl10
	cmpl	$11, %eax
	je	.LBB3_12
# %bb.28:                               # %ctrl11
	cmpl	$12, %eax
	je	.LBB3_13
# %bb.29:                               # %ctrl12
	cmpl	$13, %eax
	je	.LBB3_14
# %bb.30:                               # %ctrl13
	cmpl	$14, %eax
	je	.LBB3_15
	jmp	.LBB3_16
.Lfunc_end3:
	.size	init_contexts, .Lfunc_end3-init_contexts
	.cfi_endproc
                                        # -- End function
	.globl	XRate                   # -- Begin function XRate
	.p2align	4, 0x90
	.type	XRate,@function
XRate:                                  # @XRate
	.cfi_startproc
# %bb.0:                                # %rand_bb
	pushq	%rbp
	.cfi_def_cfa_offset 16
	.cfi_offset %rbp, -16
	movq	%rsp, %rbp
	.cfi_def_cfa_register %rbp
	pushq	%r14
	pushq	%rbx
	.cfi_offset %rbx, -32
	.cfi_offset %r14, -24
	movq	%rsi, %r14
	movq	%rdi, %rbx
	callq	get_rand
	cmpl	$0, %eax
	jne	.LBB4_17
# %bb.1:                                # %func_XRate.1
	movq	%rbx, %rdi
	movq	%r14, %rsi
	callq	XRate.1
	popq	%rbx
	popq	%r14
	popq	%rbp
	.cfi_def_cfa %rsp, 8
	retq
.LBB4_2:                                # %func_XRate.4
	.cfi_def_cfa %rbp, 16
	movq	%rbx, %rdi
	movq	%r14, %rsi
	callq	XRate.4
	popq	%rbx
	popq	%r14
	popq	%rbp
	.cfi_def_cfa %rsp, 8
	retq
.LBB4_3:                                # %func_XRate.15
	.cfi_def_cfa %rbp, 16
	movq	%rbx, %rdi
	movq	%r14, %rsi
	callq	XRate.15
	popq	%rbx
	popq	%r14
	popq	%rbp
	.cfi_def_cfa %rsp, 8
	retq
.LBB4_4:                                # %func_XRate.17
	.cfi_def_cfa %rbp, 16
	movq	%rbx, %rdi
	movq	%r14, %rsi
	callq	XRate.17
	popq	%rbx
	popq	%r14
	popq	%rbp
	.cfi_def_cfa %rsp, 8
	retq
.LBB4_5:                                # %func_XRate.18
	.cfi_def_cfa %rbp, 16
	movq	%rbx, %rdi
	movq	%r14, %rsi
	callq	XRate.18
	popq	%rbx
	popq	%r14
	popq	%rbp
	.cfi_def_cfa %rsp, 8
	retq
.LBB4_6:                                # %func_XRate.19
	.cfi_def_cfa %rbp, 16
	movq	%rbx, %rdi
	movq	%r14, %rsi
	callq	XRate.19
	popq	%rbx
	popq	%r14
	popq	%rbp
	.cfi_def_cfa %rsp, 8
	retq
.LBB4_7:                                # %func_XRate.28
	.cfi_def_cfa %rbp, 16
	movq	%rbx, %rdi
	movq	%r14, %rsi
	callq	XRate.28
	popq	%rbx
	popq	%r14
	popq	%rbp
	.cfi_def_cfa %rsp, 8
	retq
.LBB4_8:                                # %func_XRate.29
	.cfi_def_cfa %rbp, 16
	movq	%rbx, %rdi
	movq	%r14, %rsi
	callq	XRate.29
	popq	%rbx
	popq	%r14
	popq	%rbp
	.cfi_def_cfa %rsp, 8
	retq
.LBB4_9:                                # %func_XRate.34
	.cfi_def_cfa %rbp, 16
	movq	%rbx, %rdi
	movq	%r14, %rsi
	callq	XRate.34
	popq	%rbx
	popq	%r14
	popq	%rbp
	.cfi_def_cfa %rsp, 8
	retq
.LBB4_10:                               # %func_XRate.35
	.cfi_def_cfa %rbp, 16
	movq	%rbx, %rdi
	movq	%r14, %rsi
	callq	XRate.35
	popq	%rbx
	popq	%r14
	popq	%rbp
	.cfi_def_cfa %rsp, 8
	retq
.LBB4_11:                               # %func_XRate.37
	.cfi_def_cfa %rbp, 16
	movq	%rbx, %rdi
	movq	%r14, %rsi
	callq	XRate.37
	popq	%rbx
	popq	%r14
	popq	%rbp
	.cfi_def_cfa %rsp, 8
	retq
.LBB4_12:                               # %func_XRate.47
	.cfi_def_cfa %rbp, 16
	movq	%rbx, %rdi
	movq	%r14, %rsi
	callq	XRate.47
	popq	%rbx
	popq	%r14
	popq	%rbp
	.cfi_def_cfa %rsp, 8
	retq
.LBB4_13:                               # %func_XRate.50
	.cfi_def_cfa %rbp, 16
	movq	%rbx, %rdi
	movq	%r14, %rsi
	callq	XRate.50
	popq	%rbx
	popq	%r14
	popq	%rbp
	.cfi_def_cfa %rsp, 8
	retq
.LBB4_14:                               # %func_XRate.55
	.cfi_def_cfa %rbp, 16
	movq	%rbx, %rdi
	movq	%r14, %rsi
	callq	XRate.55
	popq	%rbx
	popq	%r14
	popq	%rbp
	.cfi_def_cfa %rsp, 8
	retq
.LBB4_15:                               # %func_XRate.62
	.cfi_def_cfa %rbp, 16
	movq	%rbx, %rdi
	movq	%r14, %rsi
	callq	XRate.62
	popq	%rbx
	popq	%r14
	popq	%rbp
	.cfi_def_cfa %rsp, 8
	retq
.LBB4_16:                               # %func_XRate.71
	.cfi_def_cfa %rbp, 16
	movq	%rbx, %rdi
	movq	%r14, %rsi
	callq	XRate.71
	popq	%rbx
	popq	%r14
	popq	%rbp
	.cfi_def_cfa %rsp, 8
	retq
.LBB4_17:                               # %ctrl0
	.cfi_def_cfa %rbp, 16
	cmpl	$1, %eax
	je	.LBB4_2
# %bb.18:                               # %ctrl1
	cmpl	$2, %eax
	je	.LBB4_3
# %bb.19:                               # %ctrl2
	cmpl	$3, %eax
	je	.LBB4_4
# %bb.20:                               # %ctrl3
	cmpl	$4, %eax
	je	.LBB4_5
# %bb.21:                               # %ctrl4
	cmpl	$5, %eax
	je	.LBB4_6
# %bb.22:                               # %ctrl5
	cmpl	$6, %eax
	je	.LBB4_7
# %bb.23:                               # %ctrl6
	cmpl	$7, %eax
	je	.LBB4_8
# %bb.24:                               # %ctrl7
	cmpl	$8, %eax
	je	.LBB4_9
# %bb.25:                               # %ctrl8
	cmpl	$9, %eax
	je	.LBB4_10
# %bb.26:                               # %ctrl9
	cmpl	$10, %eax
	je	.LBB4_11
# %bb.27:                               # %ctrl10
	cmpl	$11, %eax
	je	.LBB4_12
# %bb.28:                               # %ctrl11
	cmpl	$12, %eax
	je	.LBB4_13
# %bb.29:                               # %ctrl12
	cmpl	$13, %eax
	je	.LBB4_14
# %bb.30:                               # %ctrl13
	cmpl	$14, %eax
	je	.LBB4_15
	jmp	.LBB4_16
.Lfunc_end4:
	.size	XRate, .Lfunc_end4-XRate
	.cfi_endproc
                                        # -- End function
	.globl	GetCtxModelNumber       # -- Begin function GetCtxModelNumber
	.p2align	4, 0x90
	.type	GetCtxModelNumber,@function
GetCtxModelNumber:                      # @GetCtxModelNumber
	.cfi_startproc
# %bb.0:                                # %rand_bb
	pushq	%rbp
	.cfi_def_cfa_offset 16
	.cfi_offset %rbp, -16
	movq	%rsp, %rbp
	.cfi_def_cfa_register %rbp
	pushq	%r15
	pushq	%r14
	pushq	%rbx
	pushq	%rax
	.cfi_offset %rbx, -40
	.cfi_offset %r14, -32
	.cfi_offset %r15, -24
	movq	%rdx, %r14
	movq	%rsi, %r15
	movq	%rdi, %rbx
	callq	get_rand
	cmpl	$0, %eax
	jne	.LBB5_17
# %bb.1:                                # %func_GetCtxModelNumber.3
	movq	%rbx, %rdi
	movq	%r15, %rsi
	movq	%r14, %rdx
	callq	GetCtxModelNumber.3
	addq	$8, %rsp
	popq	%rbx
	popq	%r14
	popq	%r15
	popq	%rbp
	.cfi_def_cfa %rsp, 8
	retq
.LBB5_2:                                # %func_GetCtxModelNumber.5
	.cfi_def_cfa %rbp, 16
	movq	%rbx, %rdi
	movq	%r15, %rsi
	movq	%r14, %rdx
	callq	GetCtxModelNumber.5
	addq	$8, %rsp
	popq	%rbx
	popq	%r14
	popq	%r15
	popq	%rbp
	.cfi_def_cfa %rsp, 8
	retq
.LBB5_3:                                # %func_GetCtxModelNumber.14
	.cfi_def_cfa %rbp, 16
	movq	%rbx, %rdi
	movq	%r15, %rsi
	movq	%r14, %rdx
	callq	GetCtxModelNumber.14
	addq	$8, %rsp
	popq	%rbx
	popq	%r14
	popq	%r15
	popq	%rbp
	.cfi_def_cfa %rsp, 8
	retq
.LBB5_4:                                # %func_GetCtxModelNumber.23
	.cfi_def_cfa %rbp, 16
	movq	%rbx, %rdi
	movq	%r15, %rsi
	movq	%r14, %rdx
	callq	GetCtxModelNumber.23
	addq	$8, %rsp
	popq	%rbx
	popq	%r14
	popq	%r15
	popq	%rbp
	.cfi_def_cfa %rsp, 8
	retq
.LBB5_5:                                # %func_GetCtxModelNumber.24
	.cfi_def_cfa %rbp, 16
	movq	%rbx, %rdi
	movq	%r15, %rsi
	movq	%r14, %rdx
	callq	GetCtxModelNumber.24
	addq	$8, %rsp
	popq	%rbx
	popq	%r14
	popq	%r15
	popq	%rbp
	.cfi_def_cfa %rsp, 8
	retq
.LBB5_6:                                # %func_GetCtxModelNumber.36
	.cfi_def_cfa %rbp, 16
	movq	%rbx, %rdi
	movq	%r15, %rsi
	movq	%r14, %rdx
	callq	GetCtxModelNumber.36
	addq	$8, %rsp
	popq	%rbx
	popq	%r14
	popq	%r15
	popq	%rbp
	.cfi_def_cfa %rsp, 8
	retq
.LBB5_7:                                # %func_GetCtxModelNumber.53
	.cfi_def_cfa %rbp, 16
	movq	%rbx, %rdi
	movq	%r15, %rsi
	movq	%r14, %rdx
	callq	GetCtxModelNumber.53
	addq	$8, %rsp
	popq	%rbx
	popq	%r14
	popq	%r15
	popq	%rbp
	.cfi_def_cfa %rsp, 8
	retq
.LBB5_8:                                # %func_GetCtxModelNumber.58
	.cfi_def_cfa %rbp, 16
	movq	%rbx, %rdi
	movq	%r15, %rsi
	movq	%r14, %rdx
	callq	GetCtxModelNumber.58
	addq	$8, %rsp
	popq	%rbx
	popq	%r14
	popq	%r15
	popq	%rbp
	.cfi_def_cfa %rsp, 8
	retq
.LBB5_9:                                # %func_GetCtxModelNumber.60
	.cfi_def_cfa %rbp, 16
	movq	%rbx, %rdi
	movq	%r15, %rsi
	movq	%r14, %rdx
	callq	GetCtxModelNumber.60
	addq	$8, %rsp
	popq	%rbx
	popq	%r14
	popq	%r15
	popq	%rbp
	.cfi_def_cfa %rsp, 8
	retq
.LBB5_10:                               # %func_GetCtxModelNumber.61
	.cfi_def_cfa %rbp, 16
	movq	%rbx, %rdi
	movq	%r15, %rsi
	movq	%r14, %rdx
	callq	GetCtxModelNumber.61
	addq	$8, %rsp
	popq	%rbx
	popq	%r14
	popq	%r15
	popq	%rbp
	.cfi_def_cfa %rsp, 8
	retq
.LBB5_11:                               # %func_GetCtxModelNumber.67
	.cfi_def_cfa %rbp, 16
	movq	%rbx, %rdi
	movq	%r15, %rsi
	movq	%r14, %rdx
	callq	GetCtxModelNumber.67
	addq	$8, %rsp
	popq	%rbx
	popq	%r14
	popq	%r15
	popq	%rbp
	.cfi_def_cfa %rsp, 8
	retq
.LBB5_12:                               # %func_GetCtxModelNumber.69
	.cfi_def_cfa %rbp, 16
	movq	%rbx, %rdi
	movq	%r15, %rsi
	movq	%r14, %rdx
	callq	GetCtxModelNumber.69
	addq	$8, %rsp
	popq	%rbx
	popq	%r14
	popq	%r15
	popq	%rbp
	.cfi_def_cfa %rsp, 8
	retq
.LBB5_13:                               # %func_GetCtxModelNumber.70
	.cfi_def_cfa %rbp, 16
	movq	%rbx, %rdi
	movq	%r15, %rsi
	movq	%r14, %rdx
	callq	GetCtxModelNumber.70
	addq	$8, %rsp
	popq	%rbx
	popq	%r14
	popq	%r15
	popq	%rbp
	.cfi_def_cfa %rsp, 8
	retq
.LBB5_14:                               # %func_GetCtxModelNumber.76
	.cfi_def_cfa %rbp, 16
	movq	%rbx, %rdi
	movq	%r15, %rsi
	movq	%r14, %rdx
	callq	GetCtxModelNumber.76
	addq	$8, %rsp
	popq	%rbx
	popq	%r14
	popq	%r15
	popq	%rbp
	.cfi_def_cfa %rsp, 8
	retq
.LBB5_15:                               # %func_GetCtxModelNumber.78
	.cfi_def_cfa %rbp, 16
	movq	%rbx, %rdi
	movq	%r15, %rsi
	movq	%r14, %rdx
	callq	GetCtxModelNumber.78
	addq	$8, %rsp
	popq	%rbx
	popq	%r14
	popq	%r15
	popq	%rbp
	.cfi_def_cfa %rsp, 8
	retq
.LBB5_16:                               # %func_GetCtxModelNumber.79
	.cfi_def_cfa %rbp, 16
	movq	%rbx, %rdi
	movq	%r15, %rsi
	movq	%r14, %rdx
	callq	GetCtxModelNumber.79
	addq	$8, %rsp
	popq	%rbx
	popq	%r14
	popq	%r15
	popq	%rbp
	.cfi_def_cfa %rsp, 8
	retq
.LBB5_17:                               # %ctrl0
	.cfi_def_cfa %rbp, 16
	cmpl	$1, %eax
	je	.LBB5_2
# %bb.18:                               # %ctrl1
	cmpl	$2, %eax
	je	.LBB5_3
# %bb.19:                               # %ctrl2
	cmpl	$3, %eax
	je	.LBB5_4
# %bb.20:                               # %ctrl3
	cmpl	$4, %eax
	je	.LBB5_5
# %bb.21:                               # %ctrl4
	cmpl	$5, %eax
	je	.LBB5_6
# %bb.22:                               # %ctrl5
	cmpl	$6, %eax
	je	.LBB5_7
# %bb.23:                               # %ctrl6
	cmpl	$7, %eax
	je	.LBB5_8
# %bb.24:                               # %ctrl7
	cmpl	$8, %eax
	je	.LBB5_9
# %bb.25:                               # %ctrl8
	cmpl	$9, %eax
	je	.LBB5_10
# %bb.26:                               # %ctrl9
	cmpl	$10, %eax
	je	.LBB5_11
# %bb.27:                               # %ctrl10
	cmpl	$11, %eax
	je	.LBB5_12
# %bb.28:                               # %ctrl11
	cmpl	$12, %eax
	je	.LBB5_13
# %bb.29:                               # %ctrl12
	cmpl	$13, %eax
	je	.LBB5_14
# %bb.30:                               # %ctrl13
	cmpl	$14, %eax
	je	.LBB5_15
	jmp	.LBB5_16
.Lfunc_end5:
	.size	GetCtxModelNumber, .Lfunc_end5-GetCtxModelNumber
	.cfi_endproc
                                        # -- End function
	.globl	store_contexts          # -- Begin function store_contexts
	.p2align	4, 0x90
	.type	store_contexts,@function
store_contexts:                         # @store_contexts
	.cfi_startproc
# %bb.0:                                # %rand_bb
	pushq	%rbp
	.cfi_def_cfa_offset 16
	.cfi_offset %rbp, -16
	movq	%rsp, %rbp
	.cfi_def_cfa_register %rbp
	callq	get_rand
	cmpl	$0, %eax
	jne	.LBB6_7
# %bb.1:                                # %func_store_contexts.16
	callq	store_contexts.16
	popq	%rbp
	.cfi_def_cfa %rsp, 8
	retq
.LBB6_2:                                # %func_store_contexts.48
	.cfi_def_cfa %rbp, 16
	callq	store_contexts.48
	popq	%rbp
	.cfi_def_cfa %rsp, 8
	retq
.LBB6_3:                                # %func_store_contexts.49
	.cfi_def_cfa %rbp, 16
	callq	store_contexts.49
	popq	%rbp
	.cfi_def_cfa %rsp, 8
	retq
.LBB6_4:                                # %func_store_contexts.51
	.cfi_def_cfa %rbp, 16
	callq	store_contexts.51
	popq	%rbp
	.cfi_def_cfa %rsp, 8
	retq
.LBB6_5:                                # %func_store_contexts.52
	.cfi_def_cfa %rbp, 16
	callq	store_contexts.52
	popq	%rbp
	.cfi_def_cfa %rsp, 8
	retq
.LBB6_6:                                # %func_store_contexts.59
	.cfi_def_cfa %rbp, 16
	callq	store_contexts.59
	popq	%rbp
	.cfi_def_cfa %rsp, 8
	retq
.LBB6_7:                                # %ctrl0
	.cfi_def_cfa %rbp, 16
	cmpl	$1, %eax
	je	.LBB6_2
# %bb.8:                                # %ctrl1
	cmpl	$2, %eax
	je	.LBB6_3
# %bb.9:                                # %ctrl2
	cmpl	$3, %eax
	je	.LBB6_4
# %bb.10:                               # %ctrl3
	cmpl	$4, %eax
	je	.LBB6_5
	jmp	.LBB6_6
.Lfunc_end6:
	.size	store_contexts, .Lfunc_end6-store_contexts
	.cfi_endproc
                                        # -- End function
	.globl	update_field_frame_contexts # -- Begin function update_field_frame_contexts
	.p2align	4, 0x90
	.type	update_field_frame_contexts,@function
update_field_frame_contexts:            # @update_field_frame_contexts
	.cfi_startproc
# %bb.0:                                # %rand_bb
	pushq	%rbp
	.cfi_def_cfa_offset 16
	.cfi_offset %rbp, -16
	movq	%rsp, %rbp
	.cfi_def_cfa_register %rbp
	pushq	%rbx
	pushq	%rax
	.cfi_offset %rbx, -24
	movl	%edi, %ebx
	callq	get_rand
	cmpl	$0, %eax
	jne	.LBB7_7
# %bb.1:                                # %func_update_field_frame_contexts.10
	movl	%ebx, %edi
	callq	update_field_frame_contexts.10
	addq	$8, %rsp
	popq	%rbx
	popq	%rbp
	.cfi_def_cfa %rsp, 8
	retq
.LBB7_2:                                # %func_update_field_frame_contexts.12
	.cfi_def_cfa %rbp, 16
	movl	%ebx, %edi
	callq	update_field_frame_contexts.12
	addq	$8, %rsp
	popq	%rbx
	popq	%rbp
	.cfi_def_cfa %rsp, 8
	retq
.LBB7_3:                                # %func_update_field_frame_contexts.31
	.cfi_def_cfa %rbp, 16
	movl	%ebx, %edi
	callq	update_field_frame_contexts.31
	addq	$8, %rsp
	popq	%rbx
	popq	%rbp
	.cfi_def_cfa %rsp, 8
	retq
.LBB7_4:                                # %func_update_field_frame_contexts.38
	.cfi_def_cfa %rbp, 16
	movl	%ebx, %edi
	callq	update_field_frame_contexts.38
	addq	$8, %rsp
	popq	%rbx
	popq	%rbp
	.cfi_def_cfa %rsp, 8
	retq
.LBB7_5:                                # %func_update_field_frame_contexts.41
	.cfi_def_cfa %rbp, 16
	movl	%ebx, %edi
	callq	update_field_frame_contexts.41
	addq	$8, %rsp
	popq	%rbx
	popq	%rbp
	.cfi_def_cfa %rsp, 8
	retq
.LBB7_6:                                # %func_update_field_frame_contexts.42
	.cfi_def_cfa %rbp, 16
	movl	%ebx, %edi
	callq	update_field_frame_contexts.42
	addq	$8, %rsp
	popq	%rbx
	popq	%rbp
	.cfi_def_cfa %rsp, 8
	retq
.LBB7_7:                                # %ctrl0
	.cfi_def_cfa %rbp, 16
	cmpl	$1, %eax
	je	.LBB7_2
# %bb.8:                                # %ctrl1
	cmpl	$2, %eax
	je	.LBB7_3
# %bb.9:                                # %ctrl2
	cmpl	$3, %eax
	je	.LBB7_4
# %bb.10:                               # %ctrl3
	cmpl	$4, %eax
	je	.LBB7_5
	jmp	.LBB7_6
.Lfunc_end7:
	.size	update_field_frame_contexts, .Lfunc_end7-update_field_frame_contexts
	.cfi_endproc
                                        # -- End function
	.section	.rodata.cst8,"aM",@progbits,8
	.p2align	3               # -- Begin function XRate.1
.LCPI8_0:
	.quad	4607182418800017408     # double 1
.LCPI8_1:
	.quad	4629700416936869888     # double 32
	.section	.rodata.cst16,"aM",@progbits,16
	.p2align	4
.LCPI8_2:
	.long	1127219200              # 0x43300000
	.long	1160773632              # 0x45300000
	.long	0                       # 0x0
	.long	0                       # 0x0
.LCPI8_3:
	.quad	4841369599423283200     # double 4503599627370496
	.quad	4985484787499139072     # double 1.9342813113834067E+25
	.text
	.globl	XRate.1
	.p2align	4, 0x90
	.type	XRate.1,@function
XRate.1:                                # @XRate.1
	.cfi_startproc
# %bb.0:                                # %entry
	pushq	%rbp
	.cfi_def_cfa_offset 16
	.cfi_offset %rbp, -16
	movq	%rsp, %rbp
	.cfi_def_cfa_register %rbp
	subq	$64, %rsp
	xorl	%eax, %eax
	movl	$2003740717, -36(%rbp)  # imm = 0x776EA82D
	movq	%rdi, -24(%rbp)
	movq	%rsi, -48(%rbp)
	vxorps	%xmm0, %xmm0, %xmm0
	vmovsd	%xmm0, -16(%rbp)
	movq	img, %rcx
	cmpl	40(%rcx), %eax
	jle	.LBB8_2
# %bb.1:                                # %cond.true
	xorl	%eax, %eax
	jmp	.LBB8_3
.LBB8_2:                                # %cond.false
	movq	img, %rax
	movl	40(%rax), %eax
.LBB8_3:                                # %cond.end
	vmovsd	.LCPI8_0(%rip), %xmm0   # xmm0 = mem[0],zero
	vmovsd	.LCPI8_1(%rip), %xmm1   # xmm1 = mem[0],zero
	movl	%eax, -32(%rbp)
	movq	-24(%rbp), %rax
	vmovq	8(%rax), %xmm2          # xmm2 = mem[0],zero
	vmovdqa	.LCPI8_2(%rip), %xmm3   # xmm3 = [1127219200,1160773632,0,0]
	vpunpckldq	%xmm3, %xmm2, %xmm2 # xmm2 = xmm2[0],xmm3[0],xmm2[1],xmm3[1]
	vmovapd	.LCPI8_3(%rip), %xmm3   # xmm3 = [4.503599627370496E+15,1.9342813113834067E+25]
	vsubpd	%xmm3, %xmm2, %xmm2
	vhaddpd	%xmm2, %xmm2, %xmm2
	vdivsd	%xmm1, %xmm2, %xmm1
	vucomisd	%xmm0, %xmm1
	jbe	.LBB8_5
# %bb.4:                                # %cond.true5
	vmovsd	.LCPI8_0(%rip), %xmm0   # xmm0 = mem[0],zero
	jmp	.LBB8_6
.LBB8_5:                                # %cond.false6
	vmovsd	.LCPI8_1(%rip), %xmm0   # xmm0 = mem[0],zero
	movq	-24(%rbp), %rax
	vmovq	8(%rax), %xmm1          # xmm1 = mem[0],zero
	vmovdqa	.LCPI8_2(%rip), %xmm2   # xmm2 = [1127219200,1160773632,0,0]
	vpunpckldq	%xmm2, %xmm1, %xmm1 # xmm1 = xmm1[0],xmm2[0],xmm1[1],xmm2[1]
	vmovapd	.LCPI8_3(%rip), %xmm2   # xmm2 = [4.503599627370496E+15,1.9342813113834067E+25]
	vsubpd	%xmm2, %xmm1, %xmm1
	vhaddpd	%xmm1, %xmm1, %xmm1
	vdivsd	%xmm0, %xmm1, %xmm0
.LBB8_6:                                # %cond.end10
	xorl	%eax, %eax
	vmovsd	%xmm0, -56(%rbp)
	movq	-48(%rbp), %rcx
	movl	(%rcx), %ecx
	imull	-32(%rbp), %ecx
	sarl	$4, %ecx
	movq	-48(%rbp), %rdx
	addl	4(%rdx), %ecx
	movl	%ecx, -4(%rbp)
	cmpl	-4(%rbp), %eax
	jle	.LBB8_8
# %bb.7:                                # %cond.true15
	xorl	%eax, %eax
	jmp	.LBB8_9
.LBB8_8:                                # %cond.false16
	movl	-4(%rbp), %eax
.LBB8_9:                                # %cond.end17
	cmpl	$127, %eax
	jge	.LBB8_14
# %bb.10:                               # %cond.true21
	xorl	%eax, %eax
	cmpl	-4(%rbp), %eax
	jle	.LBB8_12
# %bb.11:                               # %cond.true24
	xorl	%eax, %eax
	jmp	.LBB8_13
.LBB8_12:                               # %cond.false25
	movl	-4(%rbp), %eax
.LBB8_13:                               # %cond.end26
	jmp	.LBB8_15
.LBB8_14:                               # %cond.false28
	movl	$127, %eax
	jmp	.LBB8_15
.LBB8_15:                               # %cond.end29
	movl	%eax, -4(%rbp)
	movq	-24(%rbp), %rax
	movzbl	2(%rax), %eax
	cmpl	$0, %eax
	je	.LBB8_17
# %bb.16:                               # %cond.true32
	movq	-24(%rbp), %rax
	movzwl	(%rax), %eax
	addl	$64, %eax
	jmp	.LBB8_18
.LBB8_17:                               # %cond.false35
	movq	-24(%rbp), %rax
	movzwl	(%rax), %ecx
	movl	$63, %eax
	subl	%ecx, %eax
.LBB8_18:                               # %cond.end38
	movl	%eax, -28(%rbp)
	vmovsd	-56(%rbp), %xmm0        # xmm0 = mem[0],zero
	movslq	-28(%rbp), %rax
	vmulsd	probability(,%rax,8), %xmm0, %xmm0
	movslq	-4(%rbp), %rax
	vmulsd	entropy(,%rax,8), %xmm0, %xmm0
	vmovsd	-16(%rbp), %xmm1        # xmm1 = mem[0],zero
	vsubsd	%xmm0, %xmm1, %xmm0
	vmovsd	%xmm0, -16(%rbp)
	vmovsd	-56(%rbp), %xmm0        # xmm0 = mem[0],zero
	movl	$127, %eax
	movl	$127, %ecx
	subl	-28(%rbp), %ecx
	movslq	%ecx, %rcx
	vmulsd	probability(,%rcx,8), %xmm0, %xmm0
	subl	-4(%rbp), %eax
	cltq
	vmulsd	entropy(,%rax,8), %xmm0, %xmm0
	vmovsd	-16(%rbp), %xmm1        # xmm1 = mem[0],zero
	vsubsd	%xmm0, %xmm1, %xmm0
	vmovsd	%xmm0, -16(%rbp)
	vmovsd	-16(%rbp), %xmm0        # xmm0 = mem[0],zero
	cmpl	$2003740717, -36(%rbp)  # imm = 0x776EA82D
	jne	.LBB8_20
.LBB8_19:
	addq	$64, %rsp
	popq	%rbp
	.cfi_def_cfa %rsp, 8
	retq
.LBB8_20:                               # %func_exit
	.cfi_def_cfa %rbp, 16
	vmovsd	%xmm0, -64(%rbp)        # 8-byte Spill
	callq	detect_breach
	vmovsd	-64(%rbp), %xmm0        # 8-byte Reload
                                        # xmm0 = mem[0],zero
	jmp	.LBB8_19
.Lfunc_end8:
	.size	XRate.1, .Lfunc_end8-XRate.1
	.cfi_endproc
                                        # -- End function
	.section	.rodata.cst8,"aM",@progbits,8
	.p2align	3               # -- Begin function create_context_memory.2
.LCPI9_0:
	.quad	4611686018427387904     # double 2
.LCPI9_1:
	.quad	4607182418800017408     # double 1
	.text
	.globl	create_context_memory.2
	.p2align	4, 0x90
	.type	create_context_memory.2,@function
create_context_memory.2:                # @create_context_memory.2
	.cfi_startproc
# %bb.0:                                # %entry
	pushq	%rbp
	.cfi_def_cfa_offset 16
	.cfi_offset %rbp, -16
	movq	%rsp, %rbp
	.cfi_def_cfa_register %rbp
	subq	$48, %rsp
	movl	$1265825229, -20(%rbp)  # imm = 0x4B72F5CD
	movq	img, %rax
	movl	72488(%rax), %eax
	movl	%eax, -16(%rbp)
	movq	input, %rax
	cmpl	$1, 208(%rax)
	jne	.LBB9_2
# %bb.1:                                # %cond.true
	movq	input, %rax
	movl	212(%rax), %eax
	jmp	.LBB9_3
.LBB9_2:                                # %cond.false
	movl	-16(%rbp), %eax
.LBB9_3:                                # %cond.end
	movl	%eax, num_mb_per_slice
	movl	-16(%rbp), %eax
	addl	num_mb_per_slice, %eax
	subl	$1, %eax
	cltd
	idivl	num_mb_per_slice
	movl	%eax, number_of_slices
	movl	$24, %edi
	callq	malloc
	movq	%rax, initialized
	cmpq	$0, %rax
	jne	.LBB9_5
# %bb.4:                                # %if.then
	movabsq	$.L.str, %rdi
	callq	no_mem_exit
.LBB9_5:                                # %if.end
	movl	$24, %edi
	callq	malloc
	movq	%rax, model_number
	cmpq	$0, %rax
	jne	.LBB9_7
# %bb.6:                                # %if.then4
	movabsq	$.L.str.1, %rdi
	callq	no_mem_exit
.LBB9_7:                                # %if.end5
	movl	$0, -4(%rbp)
.LBB9_8:                                # %for.cond
                                        # =>This Loop Header: Depth=1
                                        #     Child Loop BB9_14 Depth 2
	cmpl	$3, -4(%rbp)
	jge	.LBB9_23
# %bb.9:                                # %for.body
                                        #   in Loop: Header=BB9_8 Depth=1
	movl	$32, %edi
	callq	malloc
	movq	initialized, %rcx
	movslq	-4(%rbp), %rdx
	movq	%rax, (%rcx,%rdx,8)
	cmpq	$0, %rax
	jne	.LBB9_11
# %bb.10:                               # %if.then9
                                        #   in Loop: Header=BB9_8 Depth=1
	movabsq	$.L.str, %rdi
	callq	no_mem_exit
.LBB9_11:                               # %if.end10
                                        #   in Loop: Header=BB9_8 Depth=1
	movl	$32, %edi
	callq	malloc
	movq	model_number, %rcx
	movslq	-4(%rbp), %rdx
	movq	%rax, (%rcx,%rdx,8)
	cmpq	$0, %rax
	jne	.LBB9_13
# %bb.12:                               # %if.then15
                                        #   in Loop: Header=BB9_8 Depth=1
	movabsq	$.L.str.1, %rdi
	callq	no_mem_exit
.LBB9_13:                               # %if.end16
                                        #   in Loop: Header=BB9_8 Depth=1
	movl	$0, -8(%rbp)
.LBB9_14:                               # %for.cond17
                                        #   Parent Loop BB9_8 Depth=1
                                        # =>  This Inner Loop Header: Depth=2
	cmpl	$4, -8(%rbp)
	jge	.LBB9_21
# %bb.15:                               # %for.body19
                                        #   in Loop: Header=BB9_14 Depth=2
	movslq	number_of_slices, %rdi
	shlq	$2, %rdi
	callq	malloc
	movq	initialized, %rcx
	movslq	-4(%rbp), %rdx
	movq	(%rcx,%rdx,8), %rcx
	movslq	-8(%rbp), %rdx
	movq	%rax, (%rcx,%rdx,8)
	cmpq	$0, %rax
	jne	.LBB9_17
# %bb.16:                               # %if.then27
                                        #   in Loop: Header=BB9_14 Depth=2
	movabsq	$.L.str, %rdi
	callq	no_mem_exit
.LBB9_17:                               # %if.end28
                                        #   in Loop: Header=BB9_14 Depth=2
	movslq	number_of_slices, %rdi
	shlq	$2, %rdi
	callq	malloc
	movq	model_number, %rcx
	movslq	-4(%rbp), %rdx
	movq	(%rcx,%rdx,8), %rcx
	movslq	-8(%rbp), %rdx
	movq	%rax, (%rcx,%rdx,8)
	cmpq	$0, %rax
	jne	.LBB9_19
# %bb.18:                               # %if.then38
                                        #   in Loop: Header=BB9_14 Depth=2
	movabsq	$.L.str.1, %rdi
	callq	no_mem_exit
.LBB9_19:                               # %if.end39
                                        #   in Loop: Header=BB9_14 Depth=2
	jmp	.LBB9_20
.LBB9_20:                               # %for.inc
                                        #   in Loop: Header=BB9_14 Depth=2
	movl	-8(%rbp), %eax
	addl	$1, %eax
	movl	%eax, -8(%rbp)
	jmp	.LBB9_14
.LBB9_21:                               # %for.end
                                        #   in Loop: Header=BB9_8 Depth=1
	jmp	.LBB9_22
.LBB9_22:                               # %for.inc40
                                        #   in Loop: Header=BB9_8 Depth=1
	movl	-4(%rbp), %eax
	addl	$1, %eax
	movl	%eax, -4(%rbp)
	jmp	.LBB9_8
.LBB9_23:                               # %for.end42
	movl	$0, -4(%rbp)
.LBB9_24:                               # %for.cond43
                                        # =>This Loop Header: Depth=1
                                        #     Child Loop BB9_26 Depth 2
                                        #       Child Loop BB9_28 Depth 3
	cmpl	$3, -4(%rbp)
	jge	.LBB9_35
# %bb.25:                               # %for.body46
                                        #   in Loop: Header=BB9_24 Depth=1
	movl	$0, -8(%rbp)
.LBB9_26:                               # %for.cond47
                                        #   Parent Loop BB9_24 Depth=1
                                        # =>  This Loop Header: Depth=2
                                        #       Child Loop BB9_28 Depth 3
	cmpl	$4, -8(%rbp)
	jge	.LBB9_33
# %bb.27:                               # %for.body50
                                        #   in Loop: Header=BB9_26 Depth=2
	movl	$0, -12(%rbp)
.LBB9_28:                               # %for.cond51
                                        #   Parent Loop BB9_24 Depth=1
                                        #     Parent Loop BB9_26 Depth=2
                                        # =>    This Inner Loop Header: Depth=3
	movl	-12(%rbp), %eax
	cmpl	number_of_slices, %eax
	jge	.LBB9_31
# %bb.29:                               # %for.body54
                                        #   in Loop: Header=BB9_28 Depth=3
	movq	initialized, %rax
	movslq	-4(%rbp), %rcx
	movq	(%rax,%rcx,8), %rax
	movslq	-8(%rbp), %rcx
	movq	(%rax,%rcx,8), %rax
	movslq	-12(%rbp), %rcx
	movl	$0, (%rax,%rcx,4)
# %bb.30:                               # %for.inc61
                                        #   in Loop: Header=BB9_28 Depth=3
	movl	-12(%rbp), %eax
	addl	$1, %eax
	movl	%eax, -12(%rbp)
	jmp	.LBB9_28
.LBB9_31:                               # %for.end63
                                        #   in Loop: Header=BB9_26 Depth=2
	jmp	.LBB9_32
.LBB9_32:                               # %for.inc64
                                        #   in Loop: Header=BB9_26 Depth=2
	movl	-8(%rbp), %eax
	addl	$1, %eax
	movl	%eax, -8(%rbp)
	jmp	.LBB9_26
.LBB9_33:                               # %for.end66
                                        #   in Loop: Header=BB9_24 Depth=1
	jmp	.LBB9_34
.LBB9_34:                               # %for.inc67
                                        #   in Loop: Header=BB9_24 Depth=1
	movl	-4(%rbp), %eax
	addl	$1, %eax
	movl	%eax, -4(%rbp)
	jmp	.LBB9_24
.LBB9_35:                               # %for.end69
	movl	$0, -4(%rbp)
.LBB9_36:                               # %for.cond70
                                        # =>This Inner Loop Header: Depth=1
	cmpl	$64, -4(%rbp)
	jge	.LBB9_39
# %bb.37:                               # %for.body73
                                        #   in Loop: Header=BB9_36 Depth=1
	vmovsd	.LCPI9_1(%rip), %xmm0   # xmm0 = mem[0],zero
	movl	$127, %eax
	subl	-4(%rbp), %eax
	cltq
	vsubsd	probability(,%rax,8), %xmm0, %xmm0
	movslq	-4(%rbp), %rax
	vmovsd	%xmm0, probability(,%rax,8)
	movslq	-4(%rbp), %rax
	vmovsd	probability(,%rax,8), %xmm0 # xmm0 = mem[0],zero
	callq	log10
	vmovsd	%xmm0, -32(%rbp)        # 8-byte Spill
	vmovsd	.LCPI9_0(%rip), %xmm0   # xmm0 = mem[0],zero
	callq	log10
	vmovsd	-32(%rbp), %xmm1        # 8-byte Reload
                                        # xmm1 = mem[0],zero
	vdivsd	%xmm0, %xmm1, %xmm0
	movslq	-4(%rbp), %rax
	vmovsd	%xmm0, entropy(,%rax,8)
	movl	$127, %eax
	subl	-4(%rbp), %eax
	cltq
	vmovsd	probability(,%rax,8), %xmm0 # xmm0 = mem[0],zero
	callq	log10
	vmovsd	%xmm0, -40(%rbp)        # 8-byte Spill
	vmovsd	.LCPI9_0(%rip), %xmm0   # xmm0 = mem[0],zero
	callq	log10
	vmovsd	-40(%rbp), %xmm1        # 8-byte Reload
                                        # xmm1 = mem[0],zero
	vdivsd	%xmm0, %xmm1, %xmm0
	movl	$127, %eax
	subl	-4(%rbp), %eax
	cltq
	vmovsd	%xmm0, entropy(,%rax,8)
# %bb.38:                               # %for.inc96
                                        #   in Loop: Header=BB9_36 Depth=1
	movl	-4(%rbp), %eax
	addl	$1, %eax
	movl	%eax, -4(%rbp)
	jmp	.LBB9_36
.LBB9_39:                               # %for.end98
	cmpl	$1265825229, -20(%rbp)  # imm = 0x4B72F5CD
	jne	.LBB9_41
.LBB9_40:
	addq	$48, %rsp
	popq	%rbp
	.cfi_def_cfa %rsp, 8
	retq
.LBB9_41:                               # %func_exit
	.cfi_def_cfa %rbp, 16
	callq	detect_breach
	jmp	.LBB9_40
.Lfunc_end9:
	.size	create_context_memory.2, .Lfunc_end9-create_context_memory.2
	.cfi_endproc
                                        # -- End function
	.section	.rodata.cst8,"aM",@progbits,8
	.p2align	3               # -- Begin function GetCtxModelNumber.3
.LCPI10_0:
	.quad	5055640609639927018     # double 1.0E+30
	.text
	.globl	GetCtxModelNumber.3
	.p2align	4, 0x90
	.type	GetCtxModelNumber.3,@function
GetCtxModelNumber.3:                    # @GetCtxModelNumber.3
	.cfi_startproc
# %bb.0:                                # %entry
	pushq	%rbp
	.cfi_def_cfa_offset 16
	.cfi_offset %rbp, -16
	movq	%rsp, %rbp
	.cfi_def_cfa_register %rbp
	subq	$64, %rsp
	vmovsd	.LCPI10_0(%rip), %xmm0  # xmm0 = mem[0],zero
	movl	$370601462, -44(%rbp)   # imm = 0x1616EDF6
	movq	%rdi, -64(%rbp)
	movq	%rsi, -40(%rbp)
	movq	%rdx, -32(%rbp)
	movq	img, %rax
	movl	24(%rax), %eax
	cmpl	$2, %eax
	movl	$1, %eax
	movl	$3, %ecx
	cmovel	%eax, %ecx
	movl	%ecx, -48(%rbp)
	vmovsd	%xmm0, -56(%rbp)
	movl	$0, -12(%rbp)
.LBB10_1:                               # %for.cond
                                        # =>This Loop Header: Depth=1
                                        #     Child Loop BB10_3 Depth 2
                                        #       Child Loop BB10_5 Depth 3
                                        #     Child Loop BB10_14 Depth 2
                                        #       Child Loop BB10_16 Depth 3
                                        #     Child Loop BB10_25 Depth 2
                                        #       Child Loop BB10_27 Depth 3
                                        #     Child Loop BB10_36 Depth 2
                                        #       Child Loop BB10_38 Depth 3
                                        #     Child Loop BB10_47 Depth 2
                                        #     Child Loop BB10_54 Depth 2
                                        #     Child Loop BB10_61 Depth 2
                                        #     Child Loop BB10_68 Depth 2
                                        #     Child Loop BB10_75 Depth 2
                                        #     Child Loop BB10_82 Depth 2
                                        #       Child Loop BB10_84 Depth 3
                                        #     Child Loop BB10_93 Depth 2
                                        #       Child Loop BB10_95 Depth 3
                                        #     Child Loop BB10_104 Depth 2
                                        #       Child Loop BB10_106 Depth 3
                                        #     Child Loop BB10_115 Depth 2
                                        #       Child Loop BB10_117 Depth 3
                                        #     Child Loop BB10_126 Depth 2
                                        #       Child Loop BB10_128 Depth 3
                                        #     Child Loop BB10_137 Depth 2
                                        #       Child Loop BB10_139 Depth 3
                                        #     Child Loop BB10_148 Depth 2
                                        #       Child Loop BB10_150 Depth 3
                                        #     Child Loop BB10_159 Depth 2
                                        #       Child Loop BB10_161 Depth 3
	movl	-12(%rbp), %eax
	cmpl	-48(%rbp), %eax
	jge	.LBB10_173
# %bb.2:                                # %for.body
                                        #   in Loop: Header=BB10_1 Depth=1
	vxorps	%xmm0, %xmm0, %xmm0
	vmovsd	%xmm0, -24(%rbp)
	movl	$0, -8(%rbp)
.LBB10_3:                               # %for.cond2
                                        #   Parent Loop BB10_1 Depth=1
                                        # =>  This Loop Header: Depth=2
                                        #       Child Loop BB10_5 Depth 3
	cmpl	$3, -8(%rbp)
	jge	.LBB10_13
# %bb.4:                                # %for.body4
                                        #   in Loop: Header=BB10_3 Depth=2
	movl	$0, -4(%rbp)
.LBB10_5:                               # %for.cond5
                                        #   Parent Loop BB10_1 Depth=1
                                        #     Parent Loop BB10_3 Depth=2
                                        # =>    This Inner Loop Header: Depth=3
	cmpl	$11, -4(%rbp)
	jge	.LBB10_11
# %bb.6:                                # %for.body7
                                        #   in Loop: Header=BB10_5 Depth=3
	movq	img, %rax
	cmpl	$2, 24(%rax)
	jne	.LBB10_8
# %bb.7:                                # %if.then
                                        #   in Loop: Header=BB10_5 Depth=3
	movq	-40(%rbp), %rdi
	movslq	-8(%rbp), %rax
	imulq	$176, %rax, %rax
	addq	%rax, %rdi
	movslq	-4(%rbp), %rax
	shlq	$4, %rax
	addq	%rax, %rdi
	movslq	-12(%rbp), %rax
	imulq	$264, %rax, %rax        # imm = 0x108
	movabsq	$INIT_MB_TYPE_I, %rsi
	addq	%rax, %rsi
	movslq	-8(%rbp), %rax
	imulq	$88, %rax, %rax
	addq	%rax, %rsi
	movslq	-4(%rbp), %rax
	shlq	$3, %rax
	addq	%rax, %rsi
	callq	XRate
	vaddsd	-24(%rbp), %xmm0, %xmm0
	vmovsd	%xmm0, -24(%rbp)
	jmp	.LBB10_9
.LBB10_8:                               # %if.else
                                        #   in Loop: Header=BB10_5 Depth=3
	movq	-40(%rbp), %rdi
	movslq	-8(%rbp), %rax
	imulq	$176, %rax, %rax
	addq	%rax, %rdi
	movslq	-4(%rbp), %rax
	shlq	$4, %rax
	addq	%rax, %rdi
	movslq	-12(%rbp), %rax
	imulq	$264, %rax, %rax        # imm = 0x108
	movabsq	$INIT_MB_TYPE_P, %rsi
	addq	%rax, %rsi
	movslq	-8(%rbp), %rax
	imulq	$88, %rax, %rax
	addq	%rax, %rsi
	movslq	-4(%rbp), %rax
	shlq	$3, %rax
	addq	%rax, %rsi
	callq	XRate
	vaddsd	-24(%rbp), %xmm0, %xmm0
	vmovsd	%xmm0, -24(%rbp)
.LBB10_9:                               # %if.end
                                        #   in Loop: Header=BB10_5 Depth=3
	jmp	.LBB10_10
.LBB10_10:                              # %for.inc
                                        #   in Loop: Header=BB10_5 Depth=3
	movl	-4(%rbp), %eax
	addl	$1, %eax
	movl	%eax, -4(%rbp)
	jmp	.LBB10_5
.LBB10_11:                              # %for.end
                                        #   in Loop: Header=BB10_3 Depth=2
	jmp	.LBB10_12
.LBB10_12:                              # %for.inc33
                                        #   in Loop: Header=BB10_3 Depth=2
	movl	-8(%rbp), %eax
	addl	$1, %eax
	movl	%eax, -8(%rbp)
	jmp	.LBB10_3
.LBB10_13:                              # %for.end35
                                        #   in Loop: Header=BB10_1 Depth=1
	movl	$0, -8(%rbp)
.LBB10_14:                              # %for.cond36
                                        #   Parent Loop BB10_1 Depth=1
                                        # =>  This Loop Header: Depth=2
                                        #       Child Loop BB10_16 Depth 3
	cmpl	$2, -8(%rbp)
	jge	.LBB10_24
# %bb.15:                               # %for.body38
                                        #   in Loop: Header=BB10_14 Depth=2
	movl	$0, -4(%rbp)
.LBB10_16:                              # %for.cond39
                                        #   Parent Loop BB10_1 Depth=1
                                        #     Parent Loop BB10_14 Depth=2
                                        # =>    This Inner Loop Header: Depth=3
	cmpl	$9, -4(%rbp)
	jge	.LBB10_22
# %bb.17:                               # %for.body41
                                        #   in Loop: Header=BB10_16 Depth=3
	movq	img, %rax
	cmpl	$2, 24(%rax)
	jne	.LBB10_19
# %bb.18:                               # %if.then44
                                        #   in Loop: Header=BB10_16 Depth=3
	movq	-40(%rbp), %rdi
	addq	$528, %rdi              # imm = 0x210
	movslq	-8(%rbp), %rax
	imulq	$144, %rax, %rax
	addq	%rax, %rdi
	movslq	-4(%rbp), %rax
	shlq	$4, %rax
	addq	%rax, %rdi
	movslq	-12(%rbp), %rax
	imulq	$144, %rax, %rax
	movabsq	$INIT_B8_TYPE_I, %rsi
	addq	%rax, %rsi
	movslq	-8(%rbp), %rax
	imulq	$72, %rax, %rax
	addq	%rax, %rsi
	movslq	-4(%rbp), %rax
	shlq	$3, %rax
	addq	%rax, %rsi
	callq	XRate
	vaddsd	-24(%rbp), %xmm0, %xmm0
	vmovsd	%xmm0, -24(%rbp)
	jmp	.LBB10_20
.LBB10_19:                              # %if.else58
                                        #   in Loop: Header=BB10_16 Depth=3
	movq	-40(%rbp), %rdi
	addq	$528, %rdi              # imm = 0x210
	movslq	-8(%rbp), %rax
	imulq	$144, %rax, %rax
	addq	%rax, %rdi
	movslq	-4(%rbp), %rax
	shlq	$4, %rax
	addq	%rax, %rdi
	movslq	-12(%rbp), %rax
	imulq	$144, %rax, %rax
	movabsq	$INIT_B8_TYPE_P, %rsi
	addq	%rax, %rsi
	movslq	-8(%rbp), %rax
	imulq	$72, %rax, %rax
	addq	%rax, %rsi
	movslq	-4(%rbp), %rax
	shlq	$3, %rax
	addq	%rax, %rsi
	callq	XRate
	vaddsd	-24(%rbp), %xmm0, %xmm0
	vmovsd	%xmm0, -24(%rbp)
.LBB10_20:                              # %if.end73
                                        #   in Loop: Header=BB10_16 Depth=3
	jmp	.LBB10_21
.LBB10_21:                              # %for.inc74
                                        #   in Loop: Header=BB10_16 Depth=3
	movl	-4(%rbp), %eax
	addl	$1, %eax
	movl	%eax, -4(%rbp)
	jmp	.LBB10_16
.LBB10_22:                              # %for.end76
                                        #   in Loop: Header=BB10_14 Depth=2
	jmp	.LBB10_23
.LBB10_23:                              # %for.inc77
                                        #   in Loop: Header=BB10_14 Depth=2
	movl	-8(%rbp), %eax
	addl	$1, %eax
	movl	%eax, -8(%rbp)
	jmp	.LBB10_14
.LBB10_24:                              # %for.end79
                                        #   in Loop: Header=BB10_1 Depth=1
	movl	$0, -8(%rbp)
.LBB10_25:                              # %for.cond80
                                        #   Parent Loop BB10_1 Depth=1
                                        # =>  This Loop Header: Depth=2
                                        #       Child Loop BB10_27 Depth 3
	cmpl	$2, -8(%rbp)
	jge	.LBB10_35
# %bb.26:                               # %for.body82
                                        #   in Loop: Header=BB10_25 Depth=2
	movl	$0, -4(%rbp)
.LBB10_27:                              # %for.cond83
                                        #   Parent Loop BB10_1 Depth=1
                                        #     Parent Loop BB10_25 Depth=2
                                        # =>    This Inner Loop Header: Depth=3
	cmpl	$10, -4(%rbp)
	jge	.LBB10_33
# %bb.28:                               # %for.body85
                                        #   in Loop: Header=BB10_27 Depth=3
	movq	img, %rax
	cmpl	$2, 24(%rax)
	jne	.LBB10_30
# %bb.29:                               # %if.then88
                                        #   in Loop: Header=BB10_27 Depth=3
	movq	-40(%rbp), %rdi
	addq	$816, %rdi              # imm = 0x330
	movslq	-8(%rbp), %rax
	imulq	$160, %rax, %rax
	addq	%rax, %rdi
	movslq	-4(%rbp), %rax
	shlq	$4, %rax
	addq	%rax, %rdi
	movslq	-12(%rbp), %rax
	imulq	$160, %rax, %rax
	movabsq	$INIT_MV_RES_I, %rsi
	addq	%rax, %rsi
	movslq	-8(%rbp), %rax
	imulq	$80, %rax, %rax
	addq	%rax, %rsi
	movslq	-4(%rbp), %rax
	shlq	$3, %rax
	addq	%rax, %rsi
	callq	XRate
	vaddsd	-24(%rbp), %xmm0, %xmm0
	vmovsd	%xmm0, -24(%rbp)
	jmp	.LBB10_31
.LBB10_30:                              # %if.else102
                                        #   in Loop: Header=BB10_27 Depth=3
	movq	-40(%rbp), %rdi
	addq	$816, %rdi              # imm = 0x330
	movslq	-8(%rbp), %rax
	imulq	$160, %rax, %rax
	addq	%rax, %rdi
	movslq	-4(%rbp), %rax
	shlq	$4, %rax
	addq	%rax, %rdi
	movslq	-12(%rbp), %rax
	imulq	$160, %rax, %rax
	movabsq	$INIT_MV_RES_P, %rsi
	addq	%rax, %rsi
	movslq	-8(%rbp), %rax
	imulq	$80, %rax, %rax
	addq	%rax, %rsi
	movslq	-4(%rbp), %rax
	shlq	$3, %rax
	addq	%rax, %rsi
	callq	XRate
	vaddsd	-24(%rbp), %xmm0, %xmm0
	vmovsd	%xmm0, -24(%rbp)
.LBB10_31:                              # %if.end117
                                        #   in Loop: Header=BB10_27 Depth=3
	jmp	.LBB10_32
.LBB10_32:                              # %for.inc118
                                        #   in Loop: Header=BB10_27 Depth=3
	movl	-4(%rbp), %eax
	addl	$1, %eax
	movl	%eax, -4(%rbp)
	jmp	.LBB10_27
.LBB10_33:                              # %for.end120
                                        #   in Loop: Header=BB10_25 Depth=2
	jmp	.LBB10_34
.LBB10_34:                              # %for.inc121
                                        #   in Loop: Header=BB10_25 Depth=2
	movl	-8(%rbp), %eax
	addl	$1, %eax
	movl	%eax, -8(%rbp)
	jmp	.LBB10_25
.LBB10_35:                              # %for.end123
                                        #   in Loop: Header=BB10_1 Depth=1
	movl	$0, -8(%rbp)
.LBB10_36:                              # %for.cond124
                                        #   Parent Loop BB10_1 Depth=1
                                        # =>  This Loop Header: Depth=2
                                        #       Child Loop BB10_38 Depth 3
	cmpl	$2, -8(%rbp)
	jge	.LBB10_46
# %bb.37:                               # %for.body126
                                        #   in Loop: Header=BB10_36 Depth=2
	movl	$0, -4(%rbp)
.LBB10_38:                              # %for.cond127
                                        #   Parent Loop BB10_1 Depth=1
                                        #     Parent Loop BB10_36 Depth=2
                                        # =>    This Inner Loop Header: Depth=3
	cmpl	$6, -4(%rbp)
	jge	.LBB10_44
# %bb.39:                               # %for.body129
                                        #   in Loop: Header=BB10_38 Depth=3
	movq	img, %rax
	cmpl	$2, 24(%rax)
	jne	.LBB10_41
# %bb.40:                               # %if.then132
                                        #   in Loop: Header=BB10_38 Depth=3
	movq	-40(%rbp), %rdi
	addq	$1136, %rdi             # imm = 0x470
	movslq	-8(%rbp), %rax
	imulq	$96, %rax, %rax
	addq	%rax, %rdi
	movslq	-4(%rbp), %rax
	shlq	$4, %rax
	addq	%rax, %rdi
	movslq	-12(%rbp), %rax
	imulq	$96, %rax, %rax
	movabsq	$INIT_REF_NO_I, %rsi
	addq	%rax, %rsi
	movslq	-8(%rbp), %rax
	imulq	$48, %rax, %rax
	addq	%rax, %rsi
	movslq	-4(%rbp), %rax
	shlq	$3, %rax
	addq	%rax, %rsi
	callq	XRate
	vaddsd	-24(%rbp), %xmm0, %xmm0
	vmovsd	%xmm0, -24(%rbp)
	jmp	.LBB10_42
.LBB10_41:                              # %if.else146
                                        #   in Loop: Header=BB10_38 Depth=3
	movq	-40(%rbp), %rdi
	addq	$1136, %rdi             # imm = 0x470
	movslq	-8(%rbp), %rax
	imulq	$96, %rax, %rax
	addq	%rax, %rdi
	movslq	-4(%rbp), %rax
	shlq	$4, %rax
	addq	%rax, %rdi
	movslq	-12(%rbp), %rax
	imulq	$96, %rax, %rax
	movabsq	$INIT_REF_NO_P, %rsi
	addq	%rax, %rsi
	movslq	-8(%rbp), %rax
	imulq	$48, %rax, %rax
	addq	%rax, %rsi
	movslq	-4(%rbp), %rax
	shlq	$3, %rax
	addq	%rax, %rsi
	callq	XRate
	vaddsd	-24(%rbp), %xmm0, %xmm0
	vmovsd	%xmm0, -24(%rbp)
.LBB10_42:                              # %if.end161
                                        #   in Loop: Header=BB10_38 Depth=3
	jmp	.LBB10_43
.LBB10_43:                              # %for.inc162
                                        #   in Loop: Header=BB10_38 Depth=3
	movl	-4(%rbp), %eax
	addl	$1, %eax
	movl	%eax, -4(%rbp)
	jmp	.LBB10_38
.LBB10_44:                              # %for.end164
                                        #   in Loop: Header=BB10_36 Depth=2
	jmp	.LBB10_45
.LBB10_45:                              # %for.inc165
                                        #   in Loop: Header=BB10_36 Depth=2
	movl	-8(%rbp), %eax
	addl	$1, %eax
	movl	%eax, -8(%rbp)
	jmp	.LBB10_36
.LBB10_46:                              # %for.end167
                                        #   in Loop: Header=BB10_1 Depth=1
	movl	$0, -4(%rbp)
.LBB10_47:                              # %for.cond168
                                        #   Parent Loop BB10_1 Depth=1
                                        # =>  This Inner Loop Header: Depth=2
	cmpl	$4, -4(%rbp)
	jge	.LBB10_53
# %bb.48:                               # %for.body170
                                        #   in Loop: Header=BB10_47 Depth=2
	movq	img, %rax
	cmpl	$2, 24(%rax)
	jne	.LBB10_50
# %bb.49:                               # %if.then173
                                        #   in Loop: Header=BB10_47 Depth=2
	movq	-40(%rbp), %rdi
	addq	$1328, %rdi             # imm = 0x530
	movslq	-4(%rbp), %rax
	shlq	$4, %rax
	addq	%rax, %rdi
	movslq	-12(%rbp), %rax
	shlq	$5, %rax
	movabsq	$INIT_DELTA_QP_I, %rsi
	addq	%rax, %rsi
	movslq	-4(%rbp), %rax
	shlq	$3, %rax
	addq	%rax, %rsi
	callq	XRate
	vaddsd	-24(%rbp), %xmm0, %xmm0
	vmovsd	%xmm0, -24(%rbp)
	jmp	.LBB10_51
.LBB10_50:                              # %if.else184
                                        #   in Loop: Header=BB10_47 Depth=2
	movq	-40(%rbp), %rdi
	addq	$1328, %rdi             # imm = 0x530
	movslq	-4(%rbp), %rax
	shlq	$4, %rax
	addq	%rax, %rdi
	movslq	-12(%rbp), %rax
	shlq	$5, %rax
	movabsq	$INIT_DELTA_QP_P, %rsi
	addq	%rax, %rsi
	movslq	-4(%rbp), %rax
	shlq	$3, %rax
	addq	%rax, %rsi
	callq	XRate
	vaddsd	-24(%rbp), %xmm0, %xmm0
	vmovsd	%xmm0, -24(%rbp)
.LBB10_51:                              # %if.end196
                                        #   in Loop: Header=BB10_47 Depth=2
	jmp	.LBB10_52
.LBB10_52:                              # %for.inc197
                                        #   in Loop: Header=BB10_47 Depth=2
	movl	-4(%rbp), %eax
	addl	$1, %eax
	movl	%eax, -4(%rbp)
	jmp	.LBB10_47
.LBB10_53:                              # %for.end199
                                        #   in Loop: Header=BB10_1 Depth=1
	movl	$0, -4(%rbp)
.LBB10_54:                              # %for.cond200
                                        #   Parent Loop BB10_1 Depth=1
                                        # =>  This Inner Loop Header: Depth=2
	cmpl	$4, -4(%rbp)
	jge	.LBB10_60
# %bb.55:                               # %for.body202
                                        #   in Loop: Header=BB10_54 Depth=2
	movq	img, %rax
	cmpl	$2, 24(%rax)
	jne	.LBB10_57
# %bb.56:                               # %if.then205
                                        #   in Loop: Header=BB10_54 Depth=2
	movq	-40(%rbp), %rdi
	addq	$1392, %rdi             # imm = 0x570
	movslq	-4(%rbp), %rax
	shlq	$4, %rax
	addq	%rax, %rdi
	movslq	-12(%rbp), %rax
	shlq	$5, %rax
	movabsq	$INIT_MB_AFF_I, %rsi
	addq	%rax, %rsi
	movslq	-4(%rbp), %rax
	shlq	$3, %rax
	addq	%rax, %rsi
	callq	XRate
	vaddsd	-24(%rbp), %xmm0, %xmm0
	vmovsd	%xmm0, -24(%rbp)
	jmp	.LBB10_58
.LBB10_57:                              # %if.else216
                                        #   in Loop: Header=BB10_54 Depth=2
	movq	-40(%rbp), %rdi
	addq	$1392, %rdi             # imm = 0x570
	movslq	-4(%rbp), %rax
	shlq	$4, %rax
	addq	%rax, %rdi
	movslq	-12(%rbp), %rax
	shlq	$5, %rax
	movabsq	$INIT_MB_AFF_P, %rsi
	addq	%rax, %rsi
	movslq	-4(%rbp), %rax
	shlq	$3, %rax
	addq	%rax, %rsi
	callq	XRate
	vaddsd	-24(%rbp), %xmm0, %xmm0
	vmovsd	%xmm0, -24(%rbp)
.LBB10_58:                              # %if.end228
                                        #   in Loop: Header=BB10_54 Depth=2
	jmp	.LBB10_59
.LBB10_59:                              # %for.inc229
                                        #   in Loop: Header=BB10_54 Depth=2
	movl	-4(%rbp), %eax
	addl	$1, %eax
	movl	%eax, -4(%rbp)
	jmp	.LBB10_54
.LBB10_60:                              # %for.end231
                                        #   in Loop: Header=BB10_1 Depth=1
	movl	$0, -4(%rbp)
.LBB10_61:                              # %for.cond232
                                        #   Parent Loop BB10_1 Depth=1
                                        # =>  This Inner Loop Header: Depth=2
	cmpl	$3, -4(%rbp)
	jge	.LBB10_67
# %bb.62:                               # %for.body234
                                        #   in Loop: Header=BB10_61 Depth=2
	movq	img, %rax
	cmpl	$2, 24(%rax)
	jne	.LBB10_64
# %bb.63:                               # %if.then237
                                        #   in Loop: Header=BB10_61 Depth=2
	movq	-40(%rbp), %rdi
	addq	$1456, %rdi             # imm = 0x5B0
	movslq	-4(%rbp), %rax
	shlq	$4, %rax
	addq	%rax, %rdi
	movslq	-12(%rbp), %rax
	imulq	$24, %rax, %rax
	movabsq	$INIT_TRANSFORM_SIZE_I, %rsi
	addq	%rax, %rsi
	movslq	-4(%rbp), %rax
	shlq	$3, %rax
	addq	%rax, %rsi
	callq	XRate
	vaddsd	-24(%rbp), %xmm0, %xmm0
	vmovsd	%xmm0, -24(%rbp)
	jmp	.LBB10_65
.LBB10_64:                              # %if.else248
                                        #   in Loop: Header=BB10_61 Depth=2
	movq	-40(%rbp), %rdi
	addq	$1456, %rdi             # imm = 0x5B0
	movslq	-4(%rbp), %rax
	shlq	$4, %rax
	addq	%rax, %rdi
	movslq	-12(%rbp), %rax
	imulq	$24, %rax, %rax
	movabsq	$INIT_TRANSFORM_SIZE_P, %rsi
	addq	%rax, %rsi
	movslq	-4(%rbp), %rax
	shlq	$3, %rax
	addq	%rax, %rsi
	callq	XRate
	vaddsd	-24(%rbp), %xmm0, %xmm0
	vmovsd	%xmm0, -24(%rbp)
.LBB10_65:                              # %if.end260
                                        #   in Loop: Header=BB10_61 Depth=2
	jmp	.LBB10_66
.LBB10_66:                              # %for.inc261
                                        #   in Loop: Header=BB10_61 Depth=2
	movl	-4(%rbp), %eax
	addl	$1, %eax
	movl	%eax, -4(%rbp)
	jmp	.LBB10_61
.LBB10_67:                              # %for.end263
                                        #   in Loop: Header=BB10_1 Depth=1
	movl	$0, -4(%rbp)
.LBB10_68:                              # %for.cond264
                                        #   Parent Loop BB10_1 Depth=1
                                        # =>  This Inner Loop Header: Depth=2
	cmpl	$2, -4(%rbp)
	jge	.LBB10_74
# %bb.69:                               # %for.body266
                                        #   in Loop: Header=BB10_68 Depth=2
	movq	img, %rax
	cmpl	$2, 24(%rax)
	jne	.LBB10_71
# %bb.70:                               # %if.then269
                                        #   in Loop: Header=BB10_68 Depth=2
	movq	-32(%rbp), %rdi
	movslq	-4(%rbp), %rax
	shlq	$4, %rax
	addq	%rax, %rdi
	movslq	-12(%rbp), %rax
	shlq	$4, %rax
	movabsq	$INIT_IPR_I, %rsi
	addq	%rax, %rsi
	movslq	-4(%rbp), %rax
	shlq	$3, %rax
	addq	%rax, %rsi
	callq	XRate
	vaddsd	-24(%rbp), %xmm0, %xmm0
	vmovsd	%xmm0, -24(%rbp)
	jmp	.LBB10_72
.LBB10_71:                              # %if.else280
                                        #   in Loop: Header=BB10_68 Depth=2
	movq	-32(%rbp), %rdi
	movslq	-4(%rbp), %rax
	shlq	$4, %rax
	addq	%rax, %rdi
	movslq	-12(%rbp), %rax
	shlq	$4, %rax
	movabsq	$INIT_IPR_P, %rsi
	addq	%rax, %rsi
	movslq	-4(%rbp), %rax
	shlq	$3, %rax
	addq	%rax, %rsi
	callq	XRate
	vaddsd	-24(%rbp), %xmm0, %xmm0
	vmovsd	%xmm0, -24(%rbp)
.LBB10_72:                              # %if.end292
                                        #   in Loop: Header=BB10_68 Depth=2
	jmp	.LBB10_73
.LBB10_73:                              # %for.inc293
                                        #   in Loop: Header=BB10_68 Depth=2
	movl	-4(%rbp), %eax
	addl	$1, %eax
	movl	%eax, -4(%rbp)
	jmp	.LBB10_68
.LBB10_74:                              # %for.end295
                                        #   in Loop: Header=BB10_1 Depth=1
	movl	$0, -4(%rbp)
.LBB10_75:                              # %for.cond296
                                        #   Parent Loop BB10_1 Depth=1
                                        # =>  This Inner Loop Header: Depth=2
	cmpl	$4, -4(%rbp)
	jge	.LBB10_81
# %bb.76:                               # %for.body298
                                        #   in Loop: Header=BB10_75 Depth=2
	movq	img, %rax
	cmpl	$2, 24(%rax)
	jne	.LBB10_78
# %bb.77:                               # %if.then301
                                        #   in Loop: Header=BB10_75 Depth=2
	movq	-32(%rbp), %rdi
	addq	$32, %rdi
	movslq	-4(%rbp), %rax
	shlq	$4, %rax
	addq	%rax, %rdi
	movslq	-12(%rbp), %rax
	shlq	$5, %rax
	movabsq	$INIT_CIPR_I, %rsi
	addq	%rax, %rsi
	movslq	-4(%rbp), %rax
	shlq	$3, %rax
	addq	%rax, %rsi
	callq	XRate
	vaddsd	-24(%rbp), %xmm0, %xmm0
	vmovsd	%xmm0, -24(%rbp)
	jmp	.LBB10_79
.LBB10_78:                              # %if.else312
                                        #   in Loop: Header=BB10_75 Depth=2
	movq	-32(%rbp), %rdi
	addq	$32, %rdi
	movslq	-4(%rbp), %rax
	shlq	$4, %rax
	addq	%rax, %rdi
	movslq	-12(%rbp), %rax
	shlq	$5, %rax
	movabsq	$INIT_CIPR_P, %rsi
	addq	%rax, %rsi
	movslq	-4(%rbp), %rax
	shlq	$3, %rax
	addq	%rax, %rsi
	callq	XRate
	vaddsd	-24(%rbp), %xmm0, %xmm0
	vmovsd	%xmm0, -24(%rbp)
.LBB10_79:                              # %if.end324
                                        #   in Loop: Header=BB10_75 Depth=2
	jmp	.LBB10_80
.LBB10_80:                              # %for.inc325
                                        #   in Loop: Header=BB10_75 Depth=2
	movl	-4(%rbp), %eax
	addl	$1, %eax
	movl	%eax, -4(%rbp)
	jmp	.LBB10_75
.LBB10_81:                              # %for.end327
                                        #   in Loop: Header=BB10_1 Depth=1
	movl	$0, -8(%rbp)
.LBB10_82:                              # %for.cond328
                                        #   Parent Loop BB10_1 Depth=1
                                        # =>  This Loop Header: Depth=2
                                        #       Child Loop BB10_84 Depth 3
	cmpl	$3, -8(%rbp)
	jge	.LBB10_92
# %bb.83:                               # %for.body330
                                        #   in Loop: Header=BB10_82 Depth=2
	movl	$0, -4(%rbp)
.LBB10_84:                              # %for.cond331
                                        #   Parent Loop BB10_1 Depth=1
                                        #     Parent Loop BB10_82 Depth=2
                                        # =>    This Inner Loop Header: Depth=3
	cmpl	$4, -4(%rbp)
	jge	.LBB10_90
# %bb.85:                               # %for.body333
                                        #   in Loop: Header=BB10_84 Depth=3
	movq	img, %rax
	cmpl	$2, 24(%rax)
	jne	.LBB10_87
# %bb.86:                               # %if.then336
                                        #   in Loop: Header=BB10_84 Depth=3
	movq	-32(%rbp), %rdi
	addq	$96, %rdi
	movslq	-8(%rbp), %rax
	shlq	$6, %rax
	addq	%rax, %rdi
	movslq	-4(%rbp), %rax
	shlq	$4, %rax
	addq	%rax, %rdi
	movslq	-12(%rbp), %rax
	imulq	$96, %rax, %rax
	movabsq	$INIT_CBP_I, %rsi
	addq	%rax, %rsi
	movslq	-8(%rbp), %rax
	shlq	$5, %rax
	addq	%rax, %rsi
	movslq	-4(%rbp), %rax
	shlq	$3, %rax
	addq	%rax, %rsi
	callq	XRate
	vaddsd	-24(%rbp), %xmm0, %xmm0
	vmovsd	%xmm0, -24(%rbp)
	jmp	.LBB10_88
.LBB10_87:                              # %if.else350
                                        #   in Loop: Header=BB10_84 Depth=3
	movq	-32(%rbp), %rdi
	addq	$96, %rdi
	movslq	-8(%rbp), %rax
	shlq	$6, %rax
	addq	%rax, %rdi
	movslq	-4(%rbp), %rax
	shlq	$4, %rax
	addq	%rax, %rdi
	movslq	-12(%rbp), %rax
	imulq	$96, %rax, %rax
	movabsq	$INIT_CBP_P, %rsi
	addq	%rax, %rsi
	movslq	-8(%rbp), %rax
	shlq	$5, %rax
	addq	%rax, %rsi
	movslq	-4(%rbp), %rax
	shlq	$3, %rax
	addq	%rax, %rsi
	callq	XRate
	vaddsd	-24(%rbp), %xmm0, %xmm0
	vmovsd	%xmm0, -24(%rbp)
.LBB10_88:                              # %if.end365
                                        #   in Loop: Header=BB10_84 Depth=3
	jmp	.LBB10_89
.LBB10_89:                              # %for.inc366
                                        #   in Loop: Header=BB10_84 Depth=3
	movl	-4(%rbp), %eax
	addl	$1, %eax
	movl	%eax, -4(%rbp)
	jmp	.LBB10_84
.LBB10_90:                              # %for.end368
                                        #   in Loop: Header=BB10_82 Depth=2
	jmp	.LBB10_91
.LBB10_91:                              # %for.inc369
                                        #   in Loop: Header=BB10_82 Depth=2
	movl	-8(%rbp), %eax
	addl	$1, %eax
	movl	%eax, -8(%rbp)
	jmp	.LBB10_82
.LBB10_92:                              # %for.end371
                                        #   in Loop: Header=BB10_1 Depth=1
	movl	$0, -8(%rbp)
.LBB10_93:                              # %for.cond372
                                        #   Parent Loop BB10_1 Depth=1
                                        # =>  This Loop Header: Depth=2
                                        #       Child Loop BB10_95 Depth 3
	cmpl	$10, -8(%rbp)
	jge	.LBB10_103
# %bb.94:                               # %for.body374
                                        #   in Loop: Header=BB10_93 Depth=2
	movl	$0, -4(%rbp)
.LBB10_95:                              # %for.cond375
                                        #   Parent Loop BB10_1 Depth=1
                                        #     Parent Loop BB10_93 Depth=2
                                        # =>    This Inner Loop Header: Depth=3
	cmpl	$4, -4(%rbp)
	jge	.LBB10_101
# %bb.96:                               # %for.body377
                                        #   in Loop: Header=BB10_95 Depth=3
	movq	img, %rax
	cmpl	$2, 24(%rax)
	jne	.LBB10_98
# %bb.97:                               # %if.then380
                                        #   in Loop: Header=BB10_95 Depth=3
	movq	-32(%rbp), %rdi
	addq	$288, %rdi              # imm = 0x120
	movslq	-8(%rbp), %rax
	shlq	$6, %rax
	addq	%rax, %rdi
	movslq	-4(%rbp), %rax
	shlq	$4, %rax
	addq	%rax, %rdi
	movslq	-12(%rbp), %rax
	shlq	$8, %rax
	movabsq	$INIT_BCBP_I, %rsi
	addq	%rax, %rsi
	movslq	-8(%rbp), %rax
	shlq	$5, %rax
	addq	%rax, %rsi
	movslq	-4(%rbp), %rax
	shlq	$3, %rax
	addq	%rax, %rsi
	callq	XRate
	vaddsd	-24(%rbp), %xmm0, %xmm0
	vmovsd	%xmm0, -24(%rbp)
	jmp	.LBB10_99
.LBB10_98:                              # %if.else394
                                        #   in Loop: Header=BB10_95 Depth=3
	movq	-32(%rbp), %rdi
	addq	$288, %rdi              # imm = 0x120
	movslq	-8(%rbp), %rax
	shlq	$6, %rax
	addq	%rax, %rdi
	movslq	-4(%rbp), %rax
	shlq	$4, %rax
	addq	%rax, %rdi
	movslq	-12(%rbp), %rax
	shlq	$8, %rax
	movabsq	$INIT_BCBP_P, %rsi
	addq	%rax, %rsi
	movslq	-8(%rbp), %rax
	shlq	$5, %rax
	addq	%rax, %rsi
	movslq	-4(%rbp), %rax
	shlq	$3, %rax
	addq	%rax, %rsi
	callq	XRate
	vaddsd	-24(%rbp), %xmm0, %xmm0
	vmovsd	%xmm0, -24(%rbp)
.LBB10_99:                              # %if.end409
                                        #   in Loop: Header=BB10_95 Depth=3
	jmp	.LBB10_100
.LBB10_100:                             # %for.inc410
                                        #   in Loop: Header=BB10_95 Depth=3
	movl	-4(%rbp), %eax
	addl	$1, %eax
	movl	%eax, -4(%rbp)
	jmp	.LBB10_95
.LBB10_101:                             # %for.end412
                                        #   in Loop: Header=BB10_93 Depth=2
	jmp	.LBB10_102
.LBB10_102:                             # %for.inc413
                                        #   in Loop: Header=BB10_93 Depth=2
	movl	-8(%rbp), %eax
	addl	$1, %eax
	movl	%eax, -8(%rbp)
	jmp	.LBB10_93
.LBB10_103:                             # %for.end415
                                        #   in Loop: Header=BB10_1 Depth=1
	movl	$0, -8(%rbp)
.LBB10_104:                             # %for.cond416
                                        #   Parent Loop BB10_1 Depth=1
                                        # =>  This Loop Header: Depth=2
                                        #       Child Loop BB10_106 Depth 3
	cmpl	$10, -8(%rbp)
	jge	.LBB10_114
# %bb.105:                              # %for.body418
                                        #   in Loop: Header=BB10_104 Depth=2
	movl	$0, -4(%rbp)
.LBB10_106:                             # %for.cond419
                                        #   Parent Loop BB10_1 Depth=1
                                        #     Parent Loop BB10_104 Depth=2
                                        # =>    This Inner Loop Header: Depth=3
	cmpl	$15, -4(%rbp)
	jge	.LBB10_112
# %bb.107:                              # %for.body421
                                        #   in Loop: Header=BB10_106 Depth=3
	movq	img, %rax
	cmpl	$2, 24(%rax)
	jne	.LBB10_109
# %bb.108:                              # %if.then424
                                        #   in Loop: Header=BB10_106 Depth=3
	movq	-32(%rbp), %rdi
	addq	$928, %rdi              # imm = 0x3A0
	movslq	-8(%rbp), %rax
	imulq	$240, %rax, %rax
	addq	%rax, %rdi
	movslq	-4(%rbp), %rax
	shlq	$4, %rax
	addq	%rax, %rdi
	movslq	-12(%rbp), %rax
	imulq	$960, %rax, %rax        # imm = 0x3C0
	movabsq	$INIT_MAP_I, %rsi
	addq	%rax, %rsi
	movslq	-8(%rbp), %rax
	imulq	$120, %rax, %rax
	addq	%rax, %rsi
	movslq	-4(%rbp), %rax
	shlq	$3, %rax
	addq	%rax, %rsi
	callq	XRate
	vaddsd	-24(%rbp), %xmm0, %xmm0
	vmovsd	%xmm0, -24(%rbp)
	jmp	.LBB10_110
.LBB10_109:                             # %if.else438
                                        #   in Loop: Header=BB10_106 Depth=3
	movq	-32(%rbp), %rdi
	addq	$928, %rdi              # imm = 0x3A0
	movslq	-8(%rbp), %rax
	imulq	$240, %rax, %rax
	addq	%rax, %rdi
	movslq	-4(%rbp), %rax
	shlq	$4, %rax
	addq	%rax, %rdi
	movslq	-12(%rbp), %rax
	imulq	$960, %rax, %rax        # imm = 0x3C0
	movabsq	$INIT_MAP_P, %rsi
	addq	%rax, %rsi
	movslq	-8(%rbp), %rax
	imulq	$120, %rax, %rax
	addq	%rax, %rsi
	movslq	-4(%rbp), %rax
	shlq	$3, %rax
	addq	%rax, %rsi
	callq	XRate
	vaddsd	-24(%rbp), %xmm0, %xmm0
	vmovsd	%xmm0, -24(%rbp)
.LBB10_110:                             # %if.end453
                                        #   in Loop: Header=BB10_106 Depth=3
	jmp	.LBB10_111
.LBB10_111:                             # %for.inc454
                                        #   in Loop: Header=BB10_106 Depth=3
	movl	-4(%rbp), %eax
	addl	$1, %eax
	movl	%eax, -4(%rbp)
	jmp	.LBB10_106
.LBB10_112:                             # %for.end456
                                        #   in Loop: Header=BB10_104 Depth=2
	jmp	.LBB10_113
.LBB10_113:                             # %for.inc457
                                        #   in Loop: Header=BB10_104 Depth=2
	movl	-8(%rbp), %eax
	addl	$1, %eax
	movl	%eax, -8(%rbp)
	jmp	.LBB10_104
.LBB10_114:                             # %for.end459
                                        #   in Loop: Header=BB10_1 Depth=1
	movl	$0, -8(%rbp)
.LBB10_115:                             # %for.cond460
                                        #   Parent Loop BB10_1 Depth=1
                                        # =>  This Loop Header: Depth=2
                                        #       Child Loop BB10_117 Depth 3
	cmpl	$10, -8(%rbp)
	jge	.LBB10_125
# %bb.116:                              # %for.body462
                                        #   in Loop: Header=BB10_115 Depth=2
	movl	$0, -4(%rbp)
.LBB10_117:                             # %for.cond463
                                        #   Parent Loop BB10_1 Depth=1
                                        #     Parent Loop BB10_115 Depth=2
                                        # =>    This Inner Loop Header: Depth=3
	cmpl	$15, -4(%rbp)
	jge	.LBB10_123
# %bb.118:                              # %for.body465
                                        #   in Loop: Header=BB10_117 Depth=3
	movq	img, %rax
	cmpl	$2, 24(%rax)
	jne	.LBB10_120
# %bb.119:                              # %if.then468
                                        #   in Loop: Header=BB10_117 Depth=3
	movq	-32(%rbp), %rdi
	addq	$3328, %rdi             # imm = 0xD00
	movslq	-8(%rbp), %rax
	imulq	$240, %rax, %rax
	addq	%rax, %rdi
	movslq	-4(%rbp), %rax
	shlq	$4, %rax
	addq	%rax, %rdi
	movslq	-12(%rbp), %rax
	imulq	$960, %rax, %rax        # imm = 0x3C0
	movabsq	$INIT_LAST_I, %rsi
	addq	%rax, %rsi
	movslq	-8(%rbp), %rax
	imulq	$120, %rax, %rax
	addq	%rax, %rsi
	movslq	-4(%rbp), %rax
	shlq	$3, %rax
	addq	%rax, %rsi
	callq	XRate
	vaddsd	-24(%rbp), %xmm0, %xmm0
	vmovsd	%xmm0, -24(%rbp)
	jmp	.LBB10_121
.LBB10_120:                             # %if.else482
                                        #   in Loop: Header=BB10_117 Depth=3
	movq	-32(%rbp), %rdi
	addq	$3328, %rdi             # imm = 0xD00
	movslq	-8(%rbp), %rax
	imulq	$240, %rax, %rax
	addq	%rax, %rdi
	movslq	-4(%rbp), %rax
	shlq	$4, %rax
	addq	%rax, %rdi
	movslq	-12(%rbp), %rax
	imulq	$960, %rax, %rax        # imm = 0x3C0
	movabsq	$INIT_LAST_P, %rsi
	addq	%rax, %rsi
	movslq	-8(%rbp), %rax
	imulq	$120, %rax, %rax
	addq	%rax, %rsi
	movslq	-4(%rbp), %rax
	shlq	$3, %rax
	addq	%rax, %rsi
	callq	XRate
	vaddsd	-24(%rbp), %xmm0, %xmm0
	vmovsd	%xmm0, -24(%rbp)
.LBB10_121:                             # %if.end497
                                        #   in Loop: Header=BB10_117 Depth=3
	jmp	.LBB10_122
.LBB10_122:                             # %for.inc498
                                        #   in Loop: Header=BB10_117 Depth=3
	movl	-4(%rbp), %eax
	addl	$1, %eax
	movl	%eax, -4(%rbp)
	jmp	.LBB10_117
.LBB10_123:                             # %for.end500
                                        #   in Loop: Header=BB10_115 Depth=2
	jmp	.LBB10_124
.LBB10_124:                             # %for.inc501
                                        #   in Loop: Header=BB10_115 Depth=2
	movl	-8(%rbp), %eax
	addl	$1, %eax
	movl	%eax, -8(%rbp)
	jmp	.LBB10_115
.LBB10_125:                             # %for.end503
                                        #   in Loop: Header=BB10_1 Depth=1
	movl	$0, -8(%rbp)
.LBB10_126:                             # %for.cond504
                                        #   Parent Loop BB10_1 Depth=1
                                        # =>  This Loop Header: Depth=2
                                        #       Child Loop BB10_128 Depth 3
	cmpl	$10, -8(%rbp)
	jge	.LBB10_136
# %bb.127:                              # %for.body506
                                        #   in Loop: Header=BB10_126 Depth=2
	movl	$0, -4(%rbp)
.LBB10_128:                             # %for.cond507
                                        #   Parent Loop BB10_1 Depth=1
                                        #     Parent Loop BB10_126 Depth=2
                                        # =>    This Inner Loop Header: Depth=3
	cmpl	$5, -4(%rbp)
	jge	.LBB10_134
# %bb.129:                              # %for.body509
                                        #   in Loop: Header=BB10_128 Depth=3
	movq	img, %rax
	cmpl	$2, 24(%rax)
	jne	.LBB10_131
# %bb.130:                              # %if.then512
                                        #   in Loop: Header=BB10_128 Depth=3
	movq	-32(%rbp), %rdi
	addq	$5728, %rdi             # imm = 0x1660
	movslq	-8(%rbp), %rax
	imulq	$80, %rax, %rax
	addq	%rax, %rdi
	movslq	-4(%rbp), %rax
	shlq	$4, %rax
	addq	%rax, %rdi
	movslq	-12(%rbp), %rax
	imulq	$320, %rax, %rax        # imm = 0x140
	movabsq	$INIT_ONE_I, %rsi
	addq	%rax, %rsi
	movslq	-8(%rbp), %rax
	imulq	$40, %rax, %rax
	addq	%rax, %rsi
	movslq	-4(%rbp), %rax
	shlq	$3, %rax
	addq	%rax, %rsi
	callq	XRate
	vaddsd	-24(%rbp), %xmm0, %xmm0
	vmovsd	%xmm0, -24(%rbp)
	jmp	.LBB10_132
.LBB10_131:                             # %if.else526
                                        #   in Loop: Header=BB10_128 Depth=3
	movq	-32(%rbp), %rdi
	addq	$5728, %rdi             # imm = 0x1660
	movslq	-8(%rbp), %rax
	imulq	$80, %rax, %rax
	addq	%rax, %rdi
	movslq	-4(%rbp), %rax
	shlq	$4, %rax
	addq	%rax, %rdi
	movslq	-12(%rbp), %rax
	imulq	$320, %rax, %rax        # imm = 0x140
	movabsq	$INIT_ONE_P, %rsi
	addq	%rax, %rsi
	movslq	-8(%rbp), %rax
	imulq	$40, %rax, %rax
	addq	%rax, %rsi
	movslq	-4(%rbp), %rax
	shlq	$3, %rax
	addq	%rax, %rsi
	callq	XRate
	vaddsd	-24(%rbp), %xmm0, %xmm0
	vmovsd	%xmm0, -24(%rbp)
.LBB10_132:                             # %if.end541
                                        #   in Loop: Header=BB10_128 Depth=3
	jmp	.LBB10_133
.LBB10_133:                             # %for.inc542
                                        #   in Loop: Header=BB10_128 Depth=3
	movl	-4(%rbp), %eax
	addl	$1, %eax
	movl	%eax, -4(%rbp)
	jmp	.LBB10_128
.LBB10_134:                             # %for.end544
                                        #   in Loop: Header=BB10_126 Depth=2
	jmp	.LBB10_135
.LBB10_135:                             # %for.inc545
                                        #   in Loop: Header=BB10_126 Depth=2
	movl	-8(%rbp), %eax
	addl	$1, %eax
	movl	%eax, -8(%rbp)
	jmp	.LBB10_126
.LBB10_136:                             # %for.end547
                                        #   in Loop: Header=BB10_1 Depth=1
	movl	$0, -8(%rbp)
.LBB10_137:                             # %for.cond548
                                        #   Parent Loop BB10_1 Depth=1
                                        # =>  This Loop Header: Depth=2
                                        #       Child Loop BB10_139 Depth 3
	cmpl	$10, -8(%rbp)
	jge	.LBB10_147
# %bb.138:                              # %for.body550
                                        #   in Loop: Header=BB10_137 Depth=2
	movl	$0, -4(%rbp)
.LBB10_139:                             # %for.cond551
                                        #   Parent Loop BB10_1 Depth=1
                                        #     Parent Loop BB10_137 Depth=2
                                        # =>    This Inner Loop Header: Depth=3
	cmpl	$5, -4(%rbp)
	jge	.LBB10_145
# %bb.140:                              # %for.body553
                                        #   in Loop: Header=BB10_139 Depth=3
	movq	img, %rax
	cmpl	$2, 24(%rax)
	jne	.LBB10_142
# %bb.141:                              # %if.then556
                                        #   in Loop: Header=BB10_139 Depth=3
	movq	-32(%rbp), %rdi
	addq	$6528, %rdi             # imm = 0x1980
	movslq	-8(%rbp), %rax
	imulq	$80, %rax, %rax
	addq	%rax, %rdi
	movslq	-4(%rbp), %rax
	shlq	$4, %rax
	addq	%rax, %rdi
	movslq	-12(%rbp), %rax
	imulq	$320, %rax, %rax        # imm = 0x140
	movabsq	$INIT_ABS_I, %rsi
	addq	%rax, %rsi
	movslq	-8(%rbp), %rax
	imulq	$40, %rax, %rax
	addq	%rax, %rsi
	movslq	-4(%rbp), %rax
	shlq	$3, %rax
	addq	%rax, %rsi
	callq	XRate
	vaddsd	-24(%rbp), %xmm0, %xmm0
	vmovsd	%xmm0, -24(%rbp)
	jmp	.LBB10_143
.LBB10_142:                             # %if.else570
                                        #   in Loop: Header=BB10_139 Depth=3
	movq	-32(%rbp), %rdi
	addq	$6528, %rdi             # imm = 0x1980
	movslq	-8(%rbp), %rax
	imulq	$80, %rax, %rax
	addq	%rax, %rdi
	movslq	-4(%rbp), %rax
	shlq	$4, %rax
	addq	%rax, %rdi
	movslq	-12(%rbp), %rax
	imulq	$320, %rax, %rax        # imm = 0x140
	movabsq	$INIT_ABS_P, %rsi
	addq	%rax, %rsi
	movslq	-8(%rbp), %rax
	imulq	$40, %rax, %rax
	addq	%rax, %rsi
	movslq	-4(%rbp), %rax
	shlq	$3, %rax
	addq	%rax, %rsi
	callq	XRate
	vaddsd	-24(%rbp), %xmm0, %xmm0
	vmovsd	%xmm0, -24(%rbp)
.LBB10_143:                             # %if.end585
                                        #   in Loop: Header=BB10_139 Depth=3
	jmp	.LBB10_144
.LBB10_144:                             # %for.inc586
                                        #   in Loop: Header=BB10_139 Depth=3
	movl	-4(%rbp), %eax
	addl	$1, %eax
	movl	%eax, -4(%rbp)
	jmp	.LBB10_139
.LBB10_145:                             # %for.end588
                                        #   in Loop: Header=BB10_137 Depth=2
	jmp	.LBB10_146
.LBB10_146:                             # %for.inc589
                                        #   in Loop: Header=BB10_137 Depth=2
	movl	-8(%rbp), %eax
	addl	$1, %eax
	movl	%eax, -8(%rbp)
	jmp	.LBB10_137
.LBB10_147:                             # %for.end591
                                        #   in Loop: Header=BB10_1 Depth=1
	movl	$0, -8(%rbp)
.LBB10_148:                             # %for.cond592
                                        #   Parent Loop BB10_1 Depth=1
                                        # =>  This Loop Header: Depth=2
                                        #       Child Loop BB10_150 Depth 3
	cmpl	$10, -8(%rbp)
	jge	.LBB10_158
# %bb.149:                              # %for.body594
                                        #   in Loop: Header=BB10_148 Depth=2
	movl	$0, -4(%rbp)
.LBB10_150:                             # %for.cond595
                                        #   Parent Loop BB10_1 Depth=1
                                        #     Parent Loop BB10_148 Depth=2
                                        # =>    This Inner Loop Header: Depth=3
	cmpl	$15, -4(%rbp)
	jge	.LBB10_156
# %bb.151:                              # %for.body597
                                        #   in Loop: Header=BB10_150 Depth=3
	movq	img, %rax
	cmpl	$2, 24(%rax)
	jne	.LBB10_153
# %bb.152:                              # %if.then600
                                        #   in Loop: Header=BB10_150 Depth=3
	movq	-32(%rbp), %rdi
	addq	$7328, %rdi             # imm = 0x1CA0
	movslq	-8(%rbp), %rax
	imulq	$240, %rax, %rax
	addq	%rax, %rdi
	movslq	-4(%rbp), %rax
	shlq	$4, %rax
	addq	%rax, %rdi
	movslq	-12(%rbp), %rax
	imulq	$960, %rax, %rax        # imm = 0x3C0
	movabsq	$INIT_FLD_MAP_I, %rsi
	addq	%rax, %rsi
	movslq	-8(%rbp), %rax
	imulq	$120, %rax, %rax
	addq	%rax, %rsi
	movslq	-4(%rbp), %rax
	shlq	$3, %rax
	addq	%rax, %rsi
	callq	XRate
	vaddsd	-24(%rbp), %xmm0, %xmm0
	vmovsd	%xmm0, -24(%rbp)
	jmp	.LBB10_154
.LBB10_153:                             # %if.else614
                                        #   in Loop: Header=BB10_150 Depth=3
	movq	-32(%rbp), %rdi
	addq	$7328, %rdi             # imm = 0x1CA0
	movslq	-8(%rbp), %rax
	imulq	$240, %rax, %rax
	addq	%rax, %rdi
	movslq	-4(%rbp), %rax
	shlq	$4, %rax
	addq	%rax, %rdi
	movslq	-12(%rbp), %rax
	imulq	$960, %rax, %rax        # imm = 0x3C0
	movabsq	$INIT_FLD_MAP_P, %rsi
	addq	%rax, %rsi
	movslq	-8(%rbp), %rax
	imulq	$120, %rax, %rax
	addq	%rax, %rsi
	movslq	-4(%rbp), %rax
	shlq	$3, %rax
	addq	%rax, %rsi
	callq	XRate
	vaddsd	-24(%rbp), %xmm0, %xmm0
	vmovsd	%xmm0, -24(%rbp)
.LBB10_154:                             # %if.end629
                                        #   in Loop: Header=BB10_150 Depth=3
	jmp	.LBB10_155
.LBB10_155:                             # %for.inc630
                                        #   in Loop: Header=BB10_150 Depth=3
	movl	-4(%rbp), %eax
	addl	$1, %eax
	movl	%eax, -4(%rbp)
	jmp	.LBB10_150
.LBB10_156:                             # %for.end632
                                        #   in Loop: Header=BB10_148 Depth=2
	jmp	.LBB10_157
.LBB10_157:                             # %for.inc633
                                        #   in Loop: Header=BB10_148 Depth=2
	movl	-8(%rbp), %eax
	addl	$1, %eax
	movl	%eax, -8(%rbp)
	jmp	.LBB10_148
.LBB10_158:                             # %for.end635
                                        #   in Loop: Header=BB10_1 Depth=1
	movl	$0, -8(%rbp)
.LBB10_159:                             # %for.cond636
                                        #   Parent Loop BB10_1 Depth=1
                                        # =>  This Loop Header: Depth=2
                                        #       Child Loop BB10_161 Depth 3
	cmpl	$10, -8(%rbp)
	jge	.LBB10_169
# %bb.160:                              # %for.body638
                                        #   in Loop: Header=BB10_159 Depth=2
	movl	$0, -4(%rbp)
.LBB10_161:                             # %for.cond639
                                        #   Parent Loop BB10_1 Depth=1
                                        #     Parent Loop BB10_159 Depth=2
                                        # =>    This Inner Loop Header: Depth=3
	cmpl	$15, -4(%rbp)
	jge	.LBB10_167
# %bb.162:                              # %for.body641
                                        #   in Loop: Header=BB10_161 Depth=3
	movq	img, %rax
	cmpl	$2, 24(%rax)
	jne	.LBB10_164
# %bb.163:                              # %if.then644
                                        #   in Loop: Header=BB10_161 Depth=3
	movq	-32(%rbp), %rdi
	addq	$9728, %rdi             # imm = 0x2600
	movslq	-8(%rbp), %rax
	imulq	$240, %rax, %rax
	addq	%rax, %rdi
	movslq	-4(%rbp), %rax
	shlq	$4, %rax
	addq	%rax, %rdi
	movslq	-12(%rbp), %rax
	imulq	$960, %rax, %rax        # imm = 0x3C0
	movabsq	$INIT_FLD_LAST_I, %rsi
	addq	%rax, %rsi
	movslq	-8(%rbp), %rax
	imulq	$120, %rax, %rax
	addq	%rax, %rsi
	movslq	-4(%rbp), %rax
	shlq	$3, %rax
	addq	%rax, %rsi
	callq	XRate
	vaddsd	-24(%rbp), %xmm0, %xmm0
	vmovsd	%xmm0, -24(%rbp)
	jmp	.LBB10_165
.LBB10_164:                             # %if.else658
                                        #   in Loop: Header=BB10_161 Depth=3
	movq	-32(%rbp), %rdi
	addq	$9728, %rdi             # imm = 0x2600
	movslq	-8(%rbp), %rax
	imulq	$240, %rax, %rax
	addq	%rax, %rdi
	movslq	-4(%rbp), %rax
	shlq	$4, %rax
	addq	%rax, %rdi
	movslq	-12(%rbp), %rax
	imulq	$960, %rax, %rax        # imm = 0x3C0
	movabsq	$INIT_FLD_LAST_P, %rsi
	addq	%rax, %rsi
	movslq	-8(%rbp), %rax
	imulq	$120, %rax, %rax
	addq	%rax, %rsi
	movslq	-4(%rbp), %rax
	shlq	$3, %rax
	addq	%rax, %rsi
	callq	XRate
	vaddsd	-24(%rbp), %xmm0, %xmm0
	vmovsd	%xmm0, -24(%rbp)
.LBB10_165:                             # %if.end673
                                        #   in Loop: Header=BB10_161 Depth=3
	jmp	.LBB10_166
.LBB10_166:                             # %for.inc674
                                        #   in Loop: Header=BB10_161 Depth=3
	movl	-4(%rbp), %eax
	addl	$1, %eax
	movl	%eax, -4(%rbp)
	jmp	.LBB10_161
.LBB10_167:                             # %for.end676
                                        #   in Loop: Header=BB10_159 Depth=2
	jmp	.LBB10_168
.LBB10_168:                             # %for.inc677
                                        #   in Loop: Header=BB10_159 Depth=2
	movl	-8(%rbp), %eax
	addl	$1, %eax
	movl	%eax, -8(%rbp)
	jmp	.LBB10_159
.LBB10_169:                             # %for.end679
                                        #   in Loop: Header=BB10_1 Depth=1
	vmovsd	-24(%rbp), %xmm0        # xmm0 = mem[0],zero
	vmovsd	-56(%rbp), %xmm1        # xmm1 = mem[0],zero
	vucomisd	%xmm0, %xmm1
	jbe	.LBB10_171
# %bb.170:                              # %if.then681
                                        #   in Loop: Header=BB10_1 Depth=1
	vmovsd	-24(%rbp), %xmm0        # xmm0 = mem[0],zero
	vmovsd	%xmm0, -56(%rbp)
	movl	-12(%rbp), %eax
	movq	-64(%rbp), %rcx
	movl	%eax, (%rcx)
.LBB10_171:                             # %if.end682
                                        #   in Loop: Header=BB10_1 Depth=1
	jmp	.LBB10_172
.LBB10_172:                             # %for.inc683
                                        #   in Loop: Header=BB10_1 Depth=1
	movl	-12(%rbp), %eax
	addl	$1, %eax
	movl	%eax, -12(%rbp)
	jmp	.LBB10_1
.LBB10_173:                             # %for.end685
	cmpl	$370601462, -44(%rbp)   # imm = 0x1616EDF6
	jne	.LBB10_175
.LBB10_174:
	addq	$64, %rsp
	popq	%rbp
	.cfi_def_cfa %rsp, 8
	retq
.LBB10_175:                             # %func_exit
	.cfi_def_cfa %rbp, 16
	callq	detect_breach
	jmp	.LBB10_174
.Lfunc_end10:
	.size	GetCtxModelNumber.3, .Lfunc_end10-GetCtxModelNumber.3
	.cfi_endproc
                                        # -- End function
	.section	.rodata.cst8,"aM",@progbits,8
	.p2align	3               # -- Begin function XRate.4
.LCPI11_0:
	.quad	4607182418800017408     # double 1
.LCPI11_1:
	.quad	4629700416936869888     # double 32
	.section	.rodata.cst16,"aM",@progbits,16
	.p2align	4
.LCPI11_2:
	.long	1127219200              # 0x43300000
	.long	1160773632              # 0x45300000
	.long	0                       # 0x0
	.long	0                       # 0x0
.LCPI11_3:
	.quad	4841369599423283200     # double 4503599627370496
	.quad	4985484787499139072     # double 1.9342813113834067E+25
	.text
	.globl	XRate.4
	.p2align	4, 0x90
	.type	XRate.4,@function
XRate.4:                                # @XRate.4
	.cfi_startproc
# %bb.0:                                # %entry
	pushq	%rbp
	.cfi_def_cfa_offset 16
	.cfi_offset %rbp, -16
	movq	%rsp, %rbp
	.cfi_def_cfa_register %rbp
	subq	$64, %rsp
	xorl	%eax, %eax
	movl	$2125194593, -32(%rbp)  # imm = 0x7EABE561
	movq	%rdi, -24(%rbp)
	movq	%rsi, -48(%rbp)
	vxorps	%xmm0, %xmm0, %xmm0
	vmovsd	%xmm0, -16(%rbp)
	movq	img, %rcx
	cmpl	40(%rcx), %eax
	jle	.LBB11_2
# %bb.1:                                # %cond.true
	xorl	%eax, %eax
	jmp	.LBB11_3
.LBB11_2:                               # %cond.false
	movq	img, %rax
	movl	40(%rax), %eax
.LBB11_3:                               # %cond.end
	vmovsd	.LCPI11_0(%rip), %xmm0  # xmm0 = mem[0],zero
	vmovsd	.LCPI11_1(%rip), %xmm1  # xmm1 = mem[0],zero
	movl	%eax, -36(%rbp)
	movq	-24(%rbp), %rax
	vmovq	8(%rax), %xmm2          # xmm2 = mem[0],zero
	vmovdqa	.LCPI11_2(%rip), %xmm3  # xmm3 = [1127219200,1160773632,0,0]
	vpunpckldq	%xmm3, %xmm2, %xmm2 # xmm2 = xmm2[0],xmm3[0],xmm2[1],xmm3[1]
	vmovapd	.LCPI11_3(%rip), %xmm3  # xmm3 = [4.503599627370496E+15,1.9342813113834067E+25]
	vsubpd	%xmm3, %xmm2, %xmm2
	vhaddpd	%xmm2, %xmm2, %xmm2
	vdivsd	%xmm1, %xmm2, %xmm1
	vucomisd	%xmm0, %xmm1
	jbe	.LBB11_5
# %bb.4:                                # %cond.true5
	vmovsd	.LCPI11_0(%rip), %xmm0  # xmm0 = mem[0],zero
	jmp	.LBB11_6
.LBB11_5:                               # %cond.false6
	vmovsd	.LCPI11_1(%rip), %xmm0  # xmm0 = mem[0],zero
	movq	-24(%rbp), %rax
	vmovq	8(%rax), %xmm1          # xmm1 = mem[0],zero
	vmovdqa	.LCPI11_2(%rip), %xmm2  # xmm2 = [1127219200,1160773632,0,0]
	vpunpckldq	%xmm2, %xmm1, %xmm1 # xmm1 = xmm1[0],xmm2[0],xmm1[1],xmm2[1]
	vmovapd	.LCPI11_3(%rip), %xmm2  # xmm2 = [4.503599627370496E+15,1.9342813113834067E+25]
	vsubpd	%xmm2, %xmm1, %xmm1
	vhaddpd	%xmm1, %xmm1, %xmm1
	vdivsd	%xmm0, %xmm1, %xmm0
.LBB11_6:                               # %cond.end10
	xorl	%eax, %eax
	vmovsd	%xmm0, -56(%rbp)
	movq	-48(%rbp), %rcx
	movl	(%rcx), %ecx
	imull	-36(%rbp), %ecx
	sarl	$4, %ecx
	movq	-48(%rbp), %rdx
	addl	4(%rdx), %ecx
	movl	%ecx, -4(%rbp)
	cmpl	-4(%rbp), %eax
	jle	.LBB11_8
# %bb.7:                                # %cond.true15
	xorl	%eax, %eax
	jmp	.LBB11_9
.LBB11_8:                               # %cond.false16
	movl	-4(%rbp), %eax
.LBB11_9:                               # %cond.end17
	cmpl	$127, %eax
	jge	.LBB11_14
# %bb.10:                               # %cond.true21
	xorl	%eax, %eax
	cmpl	-4(%rbp), %eax
	jle	.LBB11_12
# %bb.11:                               # %cond.true24
	xorl	%eax, %eax
	jmp	.LBB11_13
.LBB11_12:                              # %cond.false25
	movl	-4(%rbp), %eax
.LBB11_13:                              # %cond.end26
	jmp	.LBB11_15
.LBB11_14:                              # %cond.false28
	movl	$127, %eax
	jmp	.LBB11_15
.LBB11_15:                              # %cond.end29
	movl	%eax, -4(%rbp)
	movq	-24(%rbp), %rax
	movzbl	2(%rax), %eax
	cmpl	$0, %eax
	je	.LBB11_17
# %bb.16:                               # %cond.true32
	movq	-24(%rbp), %rax
	movzwl	(%rax), %eax
	addl	$64, %eax
	jmp	.LBB11_18
.LBB11_17:                              # %cond.false35
	movq	-24(%rbp), %rax
	movzwl	(%rax), %ecx
	movl	$63, %eax
	subl	%ecx, %eax
.LBB11_18:                              # %cond.end38
	movl	%eax, -28(%rbp)
	vmovsd	-56(%rbp), %xmm0        # xmm0 = mem[0],zero
	movslq	-28(%rbp), %rax
	vmulsd	probability(,%rax,8), %xmm0, %xmm0
	movslq	-4(%rbp), %rax
	vmulsd	entropy(,%rax,8), %xmm0, %xmm0
	vmovsd	-16(%rbp), %xmm1        # xmm1 = mem[0],zero
	vsubsd	%xmm0, %xmm1, %xmm0
	vmovsd	%xmm0, -16(%rbp)
	vmovsd	-56(%rbp), %xmm0        # xmm0 = mem[0],zero
	movl	$127, %eax
	movl	$127, %ecx
	subl	-28(%rbp), %ecx
	movslq	%ecx, %rcx
	vmulsd	probability(,%rcx,8), %xmm0, %xmm0
	subl	-4(%rbp), %eax
	cltq
	vmulsd	entropy(,%rax,8), %xmm0, %xmm0
	vmovsd	-16(%rbp), %xmm1        # xmm1 = mem[0],zero
	vsubsd	%xmm0, %xmm1, %xmm0
	vmovsd	%xmm0, -16(%rbp)
	vmovsd	-16(%rbp), %xmm0        # xmm0 = mem[0],zero
	cmpl	$2125194593, -32(%rbp)  # imm = 0x7EABE561
	jne	.LBB11_20
.LBB11_19:
	addq	$64, %rsp
	popq	%rbp
	.cfi_def_cfa %rsp, 8
	retq
.LBB11_20:                              # %func_exit
	.cfi_def_cfa %rbp, 16
	vmovsd	%xmm0, -64(%rbp)        # 8-byte Spill
	callq	detect_breach
	vmovsd	-64(%rbp), %xmm0        # 8-byte Reload
                                        # xmm0 = mem[0],zero
	jmp	.LBB11_19
.Lfunc_end11:
	.size	XRate.4, .Lfunc_end11-XRate.4
	.cfi_endproc
                                        # -- End function
	.section	.rodata.cst8,"aM",@progbits,8
	.p2align	3               # -- Begin function GetCtxModelNumber.5
.LCPI12_0:
	.quad	5055640609639927018     # double 1.0E+30
	.text
	.globl	GetCtxModelNumber.5
	.p2align	4, 0x90
	.type	GetCtxModelNumber.5,@function
GetCtxModelNumber.5:                    # @GetCtxModelNumber.5
	.cfi_startproc
# %bb.0:                                # %entry
	pushq	%rbp
	.cfi_def_cfa_offset 16
	.cfi_offset %rbp, -16
	movq	%rsp, %rbp
	.cfi_def_cfa_register %rbp
	subq	$64, %rsp
	vmovsd	.LCPI12_0(%rip), %xmm0  # xmm0 = mem[0],zero
	movl	$1507001130, -44(%rbp)  # imm = 0x59D3032A
	movq	%rdi, -64(%rbp)
	movq	%rsi, -40(%rbp)
	movq	%rdx, -32(%rbp)
	movq	img, %rax
	movl	24(%rax), %eax
	cmpl	$2, %eax
	movl	$1, %eax
	movl	$3, %ecx
	cmovel	%eax, %ecx
	movl	%ecx, -48(%rbp)
	vmovsd	%xmm0, -56(%rbp)
	movl	$0, -12(%rbp)
.LBB12_1:                               # %for.cond
                                        # =>This Loop Header: Depth=1
                                        #     Child Loop BB12_3 Depth 2
                                        #       Child Loop BB12_5 Depth 3
                                        #     Child Loop BB12_14 Depth 2
                                        #       Child Loop BB12_16 Depth 3
                                        #     Child Loop BB12_25 Depth 2
                                        #       Child Loop BB12_27 Depth 3
                                        #     Child Loop BB12_36 Depth 2
                                        #       Child Loop BB12_38 Depth 3
                                        #     Child Loop BB12_47 Depth 2
                                        #     Child Loop BB12_54 Depth 2
                                        #     Child Loop BB12_61 Depth 2
                                        #     Child Loop BB12_68 Depth 2
                                        #     Child Loop BB12_75 Depth 2
                                        #     Child Loop BB12_82 Depth 2
                                        #       Child Loop BB12_84 Depth 3
                                        #     Child Loop BB12_93 Depth 2
                                        #       Child Loop BB12_95 Depth 3
                                        #     Child Loop BB12_104 Depth 2
                                        #       Child Loop BB12_106 Depth 3
                                        #     Child Loop BB12_115 Depth 2
                                        #       Child Loop BB12_117 Depth 3
                                        #     Child Loop BB12_126 Depth 2
                                        #       Child Loop BB12_128 Depth 3
                                        #     Child Loop BB12_137 Depth 2
                                        #       Child Loop BB12_139 Depth 3
                                        #     Child Loop BB12_148 Depth 2
                                        #       Child Loop BB12_150 Depth 3
                                        #     Child Loop BB12_159 Depth 2
                                        #       Child Loop BB12_161 Depth 3
	movl	-12(%rbp), %eax
	cmpl	-48(%rbp), %eax
	jge	.LBB12_173
# %bb.2:                                # %for.body
                                        #   in Loop: Header=BB12_1 Depth=1
	vxorps	%xmm0, %xmm0, %xmm0
	vmovsd	%xmm0, -24(%rbp)
	movl	$0, -8(%rbp)
.LBB12_3:                               # %for.cond2
                                        #   Parent Loop BB12_1 Depth=1
                                        # =>  This Loop Header: Depth=2
                                        #       Child Loop BB12_5 Depth 3
	cmpl	$3, -8(%rbp)
	jge	.LBB12_13
# %bb.4:                                # %for.body4
                                        #   in Loop: Header=BB12_3 Depth=2
	movl	$0, -4(%rbp)
.LBB12_5:                               # %for.cond5
                                        #   Parent Loop BB12_1 Depth=1
                                        #     Parent Loop BB12_3 Depth=2
                                        # =>    This Inner Loop Header: Depth=3
	cmpl	$11, -4(%rbp)
	jge	.LBB12_11
# %bb.6:                                # %for.body7
                                        #   in Loop: Header=BB12_5 Depth=3
	movq	img, %rax
	cmpl	$2, 24(%rax)
	jne	.LBB12_8
# %bb.7:                                # %if.then
                                        #   in Loop: Header=BB12_5 Depth=3
	movq	-40(%rbp), %rdi
	movslq	-8(%rbp), %rax
	imulq	$176, %rax, %rax
	addq	%rax, %rdi
	movslq	-4(%rbp), %rax
	shlq	$4, %rax
	addq	%rax, %rdi
	movslq	-12(%rbp), %rax
	imulq	$264, %rax, %rax        # imm = 0x108
	movabsq	$INIT_MB_TYPE_I, %rsi
	addq	%rax, %rsi
	movslq	-8(%rbp), %rax
	imulq	$88, %rax, %rax
	addq	%rax, %rsi
	movslq	-4(%rbp), %rax
	shlq	$3, %rax
	addq	%rax, %rsi
	callq	XRate
	vaddsd	-24(%rbp), %xmm0, %xmm0
	vmovsd	%xmm0, -24(%rbp)
	jmp	.LBB12_9
.LBB12_8:                               # %if.else
                                        #   in Loop: Header=BB12_5 Depth=3
	movq	-40(%rbp), %rdi
	movslq	-8(%rbp), %rax
	imulq	$176, %rax, %rax
	addq	%rax, %rdi
	movslq	-4(%rbp), %rax
	shlq	$4, %rax
	addq	%rax, %rdi
	movslq	-12(%rbp), %rax
	imulq	$264, %rax, %rax        # imm = 0x108
	movabsq	$INIT_MB_TYPE_P, %rsi
	addq	%rax, %rsi
	movslq	-8(%rbp), %rax
	imulq	$88, %rax, %rax
	addq	%rax, %rsi
	movslq	-4(%rbp), %rax
	shlq	$3, %rax
	addq	%rax, %rsi
	callq	XRate
	vaddsd	-24(%rbp), %xmm0, %xmm0
	vmovsd	%xmm0, -24(%rbp)
.LBB12_9:                               # %if.end
                                        #   in Loop: Header=BB12_5 Depth=3
	jmp	.LBB12_10
.LBB12_10:                              # %for.inc
                                        #   in Loop: Header=BB12_5 Depth=3
	movl	-4(%rbp), %eax
	addl	$1, %eax
	movl	%eax, -4(%rbp)
	jmp	.LBB12_5
.LBB12_11:                              # %for.end
                                        #   in Loop: Header=BB12_3 Depth=2
	jmp	.LBB12_12
.LBB12_12:                              # %for.inc33
                                        #   in Loop: Header=BB12_3 Depth=2
	movl	-8(%rbp), %eax
	addl	$1, %eax
	movl	%eax, -8(%rbp)
	jmp	.LBB12_3
.LBB12_13:                              # %for.end35
                                        #   in Loop: Header=BB12_1 Depth=1
	movl	$0, -8(%rbp)
.LBB12_14:                              # %for.cond36
                                        #   Parent Loop BB12_1 Depth=1
                                        # =>  This Loop Header: Depth=2
                                        #       Child Loop BB12_16 Depth 3
	cmpl	$2, -8(%rbp)
	jge	.LBB12_24
# %bb.15:                               # %for.body38
                                        #   in Loop: Header=BB12_14 Depth=2
	movl	$0, -4(%rbp)
.LBB12_16:                              # %for.cond39
                                        #   Parent Loop BB12_1 Depth=1
                                        #     Parent Loop BB12_14 Depth=2
                                        # =>    This Inner Loop Header: Depth=3
	cmpl	$9, -4(%rbp)
	jge	.LBB12_22
# %bb.17:                               # %for.body41
                                        #   in Loop: Header=BB12_16 Depth=3
	movq	img, %rax
	cmpl	$2, 24(%rax)
	jne	.LBB12_19
# %bb.18:                               # %if.then44
                                        #   in Loop: Header=BB12_16 Depth=3
	movq	-40(%rbp), %rdi
	addq	$528, %rdi              # imm = 0x210
	movslq	-8(%rbp), %rax
	imulq	$144, %rax, %rax
	addq	%rax, %rdi
	movslq	-4(%rbp), %rax
	shlq	$4, %rax
	addq	%rax, %rdi
	movslq	-12(%rbp), %rax
	imulq	$144, %rax, %rax
	movabsq	$INIT_B8_TYPE_I, %rsi
	addq	%rax, %rsi
	movslq	-8(%rbp), %rax
	imulq	$72, %rax, %rax
	addq	%rax, %rsi
	movslq	-4(%rbp), %rax
	shlq	$3, %rax
	addq	%rax, %rsi
	callq	XRate
	vaddsd	-24(%rbp), %xmm0, %xmm0
	vmovsd	%xmm0, -24(%rbp)
	jmp	.LBB12_20
.LBB12_19:                              # %if.else58
                                        #   in Loop: Header=BB12_16 Depth=3
	movq	-40(%rbp), %rdi
	addq	$528, %rdi              # imm = 0x210
	movslq	-8(%rbp), %rax
	imulq	$144, %rax, %rax
	addq	%rax, %rdi
	movslq	-4(%rbp), %rax
	shlq	$4, %rax
	addq	%rax, %rdi
	movslq	-12(%rbp), %rax
	imulq	$144, %rax, %rax
	movabsq	$INIT_B8_TYPE_P, %rsi
	addq	%rax, %rsi
	movslq	-8(%rbp), %rax
	imulq	$72, %rax, %rax
	addq	%rax, %rsi
	movslq	-4(%rbp), %rax
	shlq	$3, %rax
	addq	%rax, %rsi
	callq	XRate
	vaddsd	-24(%rbp), %xmm0, %xmm0
	vmovsd	%xmm0, -24(%rbp)
.LBB12_20:                              # %if.end73
                                        #   in Loop: Header=BB12_16 Depth=3
	jmp	.LBB12_21
.LBB12_21:                              # %for.inc74
                                        #   in Loop: Header=BB12_16 Depth=3
	movl	-4(%rbp), %eax
	addl	$1, %eax
	movl	%eax, -4(%rbp)
	jmp	.LBB12_16
.LBB12_22:                              # %for.end76
                                        #   in Loop: Header=BB12_14 Depth=2
	jmp	.LBB12_23
.LBB12_23:                              # %for.inc77
                                        #   in Loop: Header=BB12_14 Depth=2
	movl	-8(%rbp), %eax
	addl	$1, %eax
	movl	%eax, -8(%rbp)
	jmp	.LBB12_14
.LBB12_24:                              # %for.end79
                                        #   in Loop: Header=BB12_1 Depth=1
	movl	$0, -8(%rbp)
.LBB12_25:                              # %for.cond80
                                        #   Parent Loop BB12_1 Depth=1
                                        # =>  This Loop Header: Depth=2
                                        #       Child Loop BB12_27 Depth 3
	cmpl	$2, -8(%rbp)
	jge	.LBB12_35
# %bb.26:                               # %for.body82
                                        #   in Loop: Header=BB12_25 Depth=2
	movl	$0, -4(%rbp)
.LBB12_27:                              # %for.cond83
                                        #   Parent Loop BB12_1 Depth=1
                                        #     Parent Loop BB12_25 Depth=2
                                        # =>    This Inner Loop Header: Depth=3
	cmpl	$10, -4(%rbp)
	jge	.LBB12_33
# %bb.28:                               # %for.body85
                                        #   in Loop: Header=BB12_27 Depth=3
	movq	img, %rax
	cmpl	$2, 24(%rax)
	jne	.LBB12_30
# %bb.29:                               # %if.then88
                                        #   in Loop: Header=BB12_27 Depth=3
	movq	-40(%rbp), %rdi
	addq	$816, %rdi              # imm = 0x330
	movslq	-8(%rbp), %rax
	imulq	$160, %rax, %rax
	addq	%rax, %rdi
	movslq	-4(%rbp), %rax
	shlq	$4, %rax
	addq	%rax, %rdi
	movslq	-12(%rbp), %rax
	imulq	$160, %rax, %rax
	movabsq	$INIT_MV_RES_I, %rsi
	addq	%rax, %rsi
	movslq	-8(%rbp), %rax
	imulq	$80, %rax, %rax
	addq	%rax, %rsi
	movslq	-4(%rbp), %rax
	shlq	$3, %rax
	addq	%rax, %rsi
	callq	XRate
	vaddsd	-24(%rbp), %xmm0, %xmm0
	vmovsd	%xmm0, -24(%rbp)
	jmp	.LBB12_31
.LBB12_30:                              # %if.else102
                                        #   in Loop: Header=BB12_27 Depth=3
	movq	-40(%rbp), %rdi
	addq	$816, %rdi              # imm = 0x330
	movslq	-8(%rbp), %rax
	imulq	$160, %rax, %rax
	addq	%rax, %rdi
	movslq	-4(%rbp), %rax
	shlq	$4, %rax
	addq	%rax, %rdi
	movslq	-12(%rbp), %rax
	imulq	$160, %rax, %rax
	movabsq	$INIT_MV_RES_P, %rsi
	addq	%rax, %rsi
	movslq	-8(%rbp), %rax
	imulq	$80, %rax, %rax
	addq	%rax, %rsi
	movslq	-4(%rbp), %rax
	shlq	$3, %rax
	addq	%rax, %rsi
	callq	XRate
	vaddsd	-24(%rbp), %xmm0, %xmm0
	vmovsd	%xmm0, -24(%rbp)
.LBB12_31:                              # %if.end117
                                        #   in Loop: Header=BB12_27 Depth=3
	jmp	.LBB12_32
.LBB12_32:                              # %for.inc118
                                        #   in Loop: Header=BB12_27 Depth=3
	movl	-4(%rbp), %eax
	addl	$1, %eax
	movl	%eax, -4(%rbp)
	jmp	.LBB12_27
.LBB12_33:                              # %for.end120
                                        #   in Loop: Header=BB12_25 Depth=2
	jmp	.LBB12_34
.LBB12_34:                              # %for.inc121
                                        #   in Loop: Header=BB12_25 Depth=2
	movl	-8(%rbp), %eax
	addl	$1, %eax
	movl	%eax, -8(%rbp)
	jmp	.LBB12_25
.LBB12_35:                              # %for.end123
                                        #   in Loop: Header=BB12_1 Depth=1
	movl	$0, -8(%rbp)
.LBB12_36:                              # %for.cond124
                                        #   Parent Loop BB12_1 Depth=1
                                        # =>  This Loop Header: Depth=2
                                        #       Child Loop BB12_38 Depth 3
	cmpl	$2, -8(%rbp)
	jge	.LBB12_46
# %bb.37:                               # %for.body126
                                        #   in Loop: Header=BB12_36 Depth=2
	movl	$0, -4(%rbp)
.LBB12_38:                              # %for.cond127
                                        #   Parent Loop BB12_1 Depth=1
                                        #     Parent Loop BB12_36 Depth=2
                                        # =>    This Inner Loop Header: Depth=3
	cmpl	$6, -4(%rbp)
	jge	.LBB12_44
# %bb.39:                               # %for.body129
                                        #   in Loop: Header=BB12_38 Depth=3
	movq	img, %rax
	cmpl	$2, 24(%rax)
	jne	.LBB12_41
# %bb.40:                               # %if.then132
                                        #   in Loop: Header=BB12_38 Depth=3
	movq	-40(%rbp), %rdi
	addq	$1136, %rdi             # imm = 0x470
	movslq	-8(%rbp), %rax
	imulq	$96, %rax, %rax
	addq	%rax, %rdi
	movslq	-4(%rbp), %rax
	shlq	$4, %rax
	addq	%rax, %rdi
	movslq	-12(%rbp), %rax
	imulq	$96, %rax, %rax
	movabsq	$INIT_REF_NO_I, %rsi
	addq	%rax, %rsi
	movslq	-8(%rbp), %rax
	imulq	$48, %rax, %rax
	addq	%rax, %rsi
	movslq	-4(%rbp), %rax
	shlq	$3, %rax
	addq	%rax, %rsi
	callq	XRate
	vaddsd	-24(%rbp), %xmm0, %xmm0
	vmovsd	%xmm0, -24(%rbp)
	jmp	.LBB12_42
.LBB12_41:                              # %if.else146
                                        #   in Loop: Header=BB12_38 Depth=3
	movq	-40(%rbp), %rdi
	addq	$1136, %rdi             # imm = 0x470
	movslq	-8(%rbp), %rax
	imulq	$96, %rax, %rax
	addq	%rax, %rdi
	movslq	-4(%rbp), %rax
	shlq	$4, %rax
	addq	%rax, %rdi
	movslq	-12(%rbp), %rax
	imulq	$96, %rax, %rax
	movabsq	$INIT_REF_NO_P, %rsi
	addq	%rax, %rsi
	movslq	-8(%rbp), %rax
	imulq	$48, %rax, %rax
	addq	%rax, %rsi
	movslq	-4(%rbp), %rax
	shlq	$3, %rax
	addq	%rax, %rsi
	callq	XRate
	vaddsd	-24(%rbp), %xmm0, %xmm0
	vmovsd	%xmm0, -24(%rbp)
.LBB12_42:                              # %if.end161
                                        #   in Loop: Header=BB12_38 Depth=3
	jmp	.LBB12_43
.LBB12_43:                              # %for.inc162
                                        #   in Loop: Header=BB12_38 Depth=3
	movl	-4(%rbp), %eax
	addl	$1, %eax
	movl	%eax, -4(%rbp)
	jmp	.LBB12_38
.LBB12_44:                              # %for.end164
                                        #   in Loop: Header=BB12_36 Depth=2
	jmp	.LBB12_45
.LBB12_45:                              # %for.inc165
                                        #   in Loop: Header=BB12_36 Depth=2
	movl	-8(%rbp), %eax
	addl	$1, %eax
	movl	%eax, -8(%rbp)
	jmp	.LBB12_36
.LBB12_46:                              # %for.end167
                                        #   in Loop: Header=BB12_1 Depth=1
	movl	$0, -4(%rbp)
.LBB12_47:                              # %for.cond168
                                        #   Parent Loop BB12_1 Depth=1
                                        # =>  This Inner Loop Header: Depth=2
	cmpl	$4, -4(%rbp)
	jge	.LBB12_53
# %bb.48:                               # %for.body170
                                        #   in Loop: Header=BB12_47 Depth=2
	movq	img, %rax
	cmpl	$2, 24(%rax)
	jne	.LBB12_50
# %bb.49:                               # %if.then173
                                        #   in Loop: Header=BB12_47 Depth=2
	movq	-40(%rbp), %rdi
	addq	$1328, %rdi             # imm = 0x530
	movslq	-4(%rbp), %rax
	shlq	$4, %rax
	addq	%rax, %rdi
	movslq	-12(%rbp), %rax
	shlq	$5, %rax
	movabsq	$INIT_DELTA_QP_I, %rsi
	addq	%rax, %rsi
	movslq	-4(%rbp), %rax
	shlq	$3, %rax
	addq	%rax, %rsi
	callq	XRate
	vaddsd	-24(%rbp), %xmm0, %xmm0
	vmovsd	%xmm0, -24(%rbp)
	jmp	.LBB12_51
.LBB12_50:                              # %if.else184
                                        #   in Loop: Header=BB12_47 Depth=2
	movq	-40(%rbp), %rdi
	addq	$1328, %rdi             # imm = 0x530
	movslq	-4(%rbp), %rax
	shlq	$4, %rax
	addq	%rax, %rdi
	movslq	-12(%rbp), %rax
	shlq	$5, %rax
	movabsq	$INIT_DELTA_QP_P, %rsi
	addq	%rax, %rsi
	movslq	-4(%rbp), %rax
	shlq	$3, %rax
	addq	%rax, %rsi
	callq	XRate
	vaddsd	-24(%rbp), %xmm0, %xmm0
	vmovsd	%xmm0, -24(%rbp)
.LBB12_51:                              # %if.end196
                                        #   in Loop: Header=BB12_47 Depth=2
	jmp	.LBB12_52
.LBB12_52:                              # %for.inc197
                                        #   in Loop: Header=BB12_47 Depth=2
	movl	-4(%rbp), %eax
	addl	$1, %eax
	movl	%eax, -4(%rbp)
	jmp	.LBB12_47
.LBB12_53:                              # %for.end199
                                        #   in Loop: Header=BB12_1 Depth=1
	movl	$0, -4(%rbp)
.LBB12_54:                              # %for.cond200
                                        #   Parent Loop BB12_1 Depth=1
                                        # =>  This Inner Loop Header: Depth=2
	cmpl	$4, -4(%rbp)
	jge	.LBB12_60
# %bb.55:                               # %for.body202
                                        #   in Loop: Header=BB12_54 Depth=2
	movq	img, %rax
	cmpl	$2, 24(%rax)
	jne	.LBB12_57
# %bb.56:                               # %if.then205
                                        #   in Loop: Header=BB12_54 Depth=2
	movq	-40(%rbp), %rdi
	addq	$1392, %rdi             # imm = 0x570
	movslq	-4(%rbp), %rax
	shlq	$4, %rax
	addq	%rax, %rdi
	movslq	-12(%rbp), %rax
	shlq	$5, %rax
	movabsq	$INIT_MB_AFF_I, %rsi
	addq	%rax, %rsi
	movslq	-4(%rbp), %rax
	shlq	$3, %rax
	addq	%rax, %rsi
	callq	XRate
	vaddsd	-24(%rbp), %xmm0, %xmm0
	vmovsd	%xmm0, -24(%rbp)
	jmp	.LBB12_58
.LBB12_57:                              # %if.else216
                                        #   in Loop: Header=BB12_54 Depth=2
	movq	-40(%rbp), %rdi
	addq	$1392, %rdi             # imm = 0x570
	movslq	-4(%rbp), %rax
	shlq	$4, %rax
	addq	%rax, %rdi
	movslq	-12(%rbp), %rax
	shlq	$5, %rax
	movabsq	$INIT_MB_AFF_P, %rsi
	addq	%rax, %rsi
	movslq	-4(%rbp), %rax
	shlq	$3, %rax
	addq	%rax, %rsi
	callq	XRate
	vaddsd	-24(%rbp), %xmm0, %xmm0
	vmovsd	%xmm0, -24(%rbp)
.LBB12_58:                              # %if.end228
                                        #   in Loop: Header=BB12_54 Depth=2
	jmp	.LBB12_59
.LBB12_59:                              # %for.inc229
                                        #   in Loop: Header=BB12_54 Depth=2
	movl	-4(%rbp), %eax
	addl	$1, %eax
	movl	%eax, -4(%rbp)
	jmp	.LBB12_54
.LBB12_60:                              # %for.end231
                                        #   in Loop: Header=BB12_1 Depth=1
	movl	$0, -4(%rbp)
.LBB12_61:                              # %for.cond232
                                        #   Parent Loop BB12_1 Depth=1
                                        # =>  This Inner Loop Header: Depth=2
	cmpl	$3, -4(%rbp)
	jge	.LBB12_67
# %bb.62:                               # %for.body234
                                        #   in Loop: Header=BB12_61 Depth=2
	movq	img, %rax
	cmpl	$2, 24(%rax)
	jne	.LBB12_64
# %bb.63:                               # %if.then237
                                        #   in Loop: Header=BB12_61 Depth=2
	movq	-40(%rbp), %rdi
	addq	$1456, %rdi             # imm = 0x5B0
	movslq	-4(%rbp), %rax
	shlq	$4, %rax
	addq	%rax, %rdi
	movslq	-12(%rbp), %rax
	imulq	$24, %rax, %rax
	movabsq	$INIT_TRANSFORM_SIZE_I, %rsi
	addq	%rax, %rsi
	movslq	-4(%rbp), %rax
	shlq	$3, %rax
	addq	%rax, %rsi
	callq	XRate
	vaddsd	-24(%rbp), %xmm0, %xmm0
	vmovsd	%xmm0, -24(%rbp)
	jmp	.LBB12_65
.LBB12_64:                              # %if.else248
                                        #   in Loop: Header=BB12_61 Depth=2
	movq	-40(%rbp), %rdi
	addq	$1456, %rdi             # imm = 0x5B0
	movslq	-4(%rbp), %rax
	shlq	$4, %rax
	addq	%rax, %rdi
	movslq	-12(%rbp), %rax
	imulq	$24, %rax, %rax
	movabsq	$INIT_TRANSFORM_SIZE_P, %rsi
	addq	%rax, %rsi
	movslq	-4(%rbp), %rax
	shlq	$3, %rax
	addq	%rax, %rsi
	callq	XRate
	vaddsd	-24(%rbp), %xmm0, %xmm0
	vmovsd	%xmm0, -24(%rbp)
.LBB12_65:                              # %if.end260
                                        #   in Loop: Header=BB12_61 Depth=2
	jmp	.LBB12_66
.LBB12_66:                              # %for.inc261
                                        #   in Loop: Header=BB12_61 Depth=2
	movl	-4(%rbp), %eax
	addl	$1, %eax
	movl	%eax, -4(%rbp)
	jmp	.LBB12_61
.LBB12_67:                              # %for.end263
                                        #   in Loop: Header=BB12_1 Depth=1
	movl	$0, -4(%rbp)
.LBB12_68:                              # %for.cond264
                                        #   Parent Loop BB12_1 Depth=1
                                        # =>  This Inner Loop Header: Depth=2
	cmpl	$2, -4(%rbp)
	jge	.LBB12_74
# %bb.69:                               # %for.body266
                                        #   in Loop: Header=BB12_68 Depth=2
	movq	img, %rax
	cmpl	$2, 24(%rax)
	jne	.LBB12_71
# %bb.70:                               # %if.then269
                                        #   in Loop: Header=BB12_68 Depth=2
	movq	-32(%rbp), %rdi
	movslq	-4(%rbp), %rax
	shlq	$4, %rax
	addq	%rax, %rdi
	movslq	-12(%rbp), %rax
	shlq	$4, %rax
	movabsq	$INIT_IPR_I, %rsi
	addq	%rax, %rsi
	movslq	-4(%rbp), %rax
	shlq	$3, %rax
	addq	%rax, %rsi
	callq	XRate
	vaddsd	-24(%rbp), %xmm0, %xmm0
	vmovsd	%xmm0, -24(%rbp)
	jmp	.LBB12_72
.LBB12_71:                              # %if.else280
                                        #   in Loop: Header=BB12_68 Depth=2
	movq	-32(%rbp), %rdi
	movslq	-4(%rbp), %rax
	shlq	$4, %rax
	addq	%rax, %rdi
	movslq	-12(%rbp), %rax
	shlq	$4, %rax
	movabsq	$INIT_IPR_P, %rsi
	addq	%rax, %rsi
	movslq	-4(%rbp), %rax
	shlq	$3, %rax
	addq	%rax, %rsi
	callq	XRate
	vaddsd	-24(%rbp), %xmm0, %xmm0
	vmovsd	%xmm0, -24(%rbp)
.LBB12_72:                              # %if.end292
                                        #   in Loop: Header=BB12_68 Depth=2
	jmp	.LBB12_73
.LBB12_73:                              # %for.inc293
                                        #   in Loop: Header=BB12_68 Depth=2
	movl	-4(%rbp), %eax
	addl	$1, %eax
	movl	%eax, -4(%rbp)
	jmp	.LBB12_68
.LBB12_74:                              # %for.end295
                                        #   in Loop: Header=BB12_1 Depth=1
	movl	$0, -4(%rbp)
.LBB12_75:                              # %for.cond296
                                        #   Parent Loop BB12_1 Depth=1
                                        # =>  This Inner Loop Header: Depth=2
	cmpl	$4, -4(%rbp)
	jge	.LBB12_81
# %bb.76:                               # %for.body298
                                        #   in Loop: Header=BB12_75 Depth=2
	movq	img, %rax
	cmpl	$2, 24(%rax)
	jne	.LBB12_78
# %bb.77:                               # %if.then301
                                        #   in Loop: Header=BB12_75 Depth=2
	movq	-32(%rbp), %rdi
	addq	$32, %rdi
	movslq	-4(%rbp), %rax
	shlq	$4, %rax
	addq	%rax, %rdi
	movslq	-12(%rbp), %rax
	shlq	$5, %rax
	movabsq	$INIT_CIPR_I, %rsi
	addq	%rax, %rsi
	movslq	-4(%rbp), %rax
	shlq	$3, %rax
	addq	%rax, %rsi
	callq	XRate
	vaddsd	-24(%rbp), %xmm0, %xmm0
	vmovsd	%xmm0, -24(%rbp)
	jmp	.LBB12_79
.LBB12_78:                              # %if.else312
                                        #   in Loop: Header=BB12_75 Depth=2
	movq	-32(%rbp), %rdi
	addq	$32, %rdi
	movslq	-4(%rbp), %rax
	shlq	$4, %rax
	addq	%rax, %rdi
	movslq	-12(%rbp), %rax
	shlq	$5, %rax
	movabsq	$INIT_CIPR_P, %rsi
	addq	%rax, %rsi
	movslq	-4(%rbp), %rax
	shlq	$3, %rax
	addq	%rax, %rsi
	callq	XRate
	vaddsd	-24(%rbp), %xmm0, %xmm0
	vmovsd	%xmm0, -24(%rbp)
.LBB12_79:                              # %if.end324
                                        #   in Loop: Header=BB12_75 Depth=2
	jmp	.LBB12_80
.LBB12_80:                              # %for.inc325
                                        #   in Loop: Header=BB12_75 Depth=2
	movl	-4(%rbp), %eax
	addl	$1, %eax
	movl	%eax, -4(%rbp)
	jmp	.LBB12_75
.LBB12_81:                              # %for.end327
                                        #   in Loop: Header=BB12_1 Depth=1
	movl	$0, -8(%rbp)
.LBB12_82:                              # %for.cond328
                                        #   Parent Loop BB12_1 Depth=1
                                        # =>  This Loop Header: Depth=2
                                        #       Child Loop BB12_84 Depth 3
	cmpl	$3, -8(%rbp)
	jge	.LBB12_92
# %bb.83:                               # %for.body330
                                        #   in Loop: Header=BB12_82 Depth=2
	movl	$0, -4(%rbp)
.LBB12_84:                              # %for.cond331
                                        #   Parent Loop BB12_1 Depth=1
                                        #     Parent Loop BB12_82 Depth=2
                                        # =>    This Inner Loop Header: Depth=3
	cmpl	$4, -4(%rbp)
	jge	.LBB12_90
# %bb.85:                               # %for.body333
                                        #   in Loop: Header=BB12_84 Depth=3
	movq	img, %rax
	cmpl	$2, 24(%rax)
	jne	.LBB12_87
# %bb.86:                               # %if.then336
                                        #   in Loop: Header=BB12_84 Depth=3
	movq	-32(%rbp), %rdi
	addq	$96, %rdi
	movslq	-8(%rbp), %rax
	shlq	$6, %rax
	addq	%rax, %rdi
	movslq	-4(%rbp), %rax
	shlq	$4, %rax
	addq	%rax, %rdi
	movslq	-12(%rbp), %rax
	imulq	$96, %rax, %rax
	movabsq	$INIT_CBP_I, %rsi
	addq	%rax, %rsi
	movslq	-8(%rbp), %rax
	shlq	$5, %rax
	addq	%rax, %rsi
	movslq	-4(%rbp), %rax
	shlq	$3, %rax
	addq	%rax, %rsi
	callq	XRate
	vaddsd	-24(%rbp), %xmm0, %xmm0
	vmovsd	%xmm0, -24(%rbp)
	jmp	.LBB12_88
.LBB12_87:                              # %if.else350
                                        #   in Loop: Header=BB12_84 Depth=3
	movq	-32(%rbp), %rdi
	addq	$96, %rdi
	movslq	-8(%rbp), %rax
	shlq	$6, %rax
	addq	%rax, %rdi
	movslq	-4(%rbp), %rax
	shlq	$4, %rax
	addq	%rax, %rdi
	movslq	-12(%rbp), %rax
	imulq	$96, %rax, %rax
	movabsq	$INIT_CBP_P, %rsi
	addq	%rax, %rsi
	movslq	-8(%rbp), %rax
	shlq	$5, %rax
	addq	%rax, %rsi
	movslq	-4(%rbp), %rax
	shlq	$3, %rax
	addq	%rax, %rsi
	callq	XRate
	vaddsd	-24(%rbp), %xmm0, %xmm0
	vmovsd	%xmm0, -24(%rbp)
.LBB12_88:                              # %if.end365
                                        #   in Loop: Header=BB12_84 Depth=3
	jmp	.LBB12_89
.LBB12_89:                              # %for.inc366
                                        #   in Loop: Header=BB12_84 Depth=3
	movl	-4(%rbp), %eax
	addl	$1, %eax
	movl	%eax, -4(%rbp)
	jmp	.LBB12_84
.LBB12_90:                              # %for.end368
                                        #   in Loop: Header=BB12_82 Depth=2
	jmp	.LBB12_91
.LBB12_91:                              # %for.inc369
                                        #   in Loop: Header=BB12_82 Depth=2
	movl	-8(%rbp), %eax
	addl	$1, %eax
	movl	%eax, -8(%rbp)
	jmp	.LBB12_82
.LBB12_92:                              # %for.end371
                                        #   in Loop: Header=BB12_1 Depth=1
	movl	$0, -8(%rbp)
.LBB12_93:                              # %for.cond372
                                        #   Parent Loop BB12_1 Depth=1
                                        # =>  This Loop Header: Depth=2
                                        #       Child Loop BB12_95 Depth 3
	cmpl	$10, -8(%rbp)
	jge	.LBB12_103
# %bb.94:                               # %for.body374
                                        #   in Loop: Header=BB12_93 Depth=2
	movl	$0, -4(%rbp)
.LBB12_95:                              # %for.cond375
                                        #   Parent Loop BB12_1 Depth=1
                                        #     Parent Loop BB12_93 Depth=2
                                        # =>    This Inner Loop Header: Depth=3
	cmpl	$4, -4(%rbp)
	jge	.LBB12_101
# %bb.96:                               # %for.body377
                                        #   in Loop: Header=BB12_95 Depth=3
	movq	img, %rax
	cmpl	$2, 24(%rax)
	jne	.LBB12_98
# %bb.97:                               # %if.then380
                                        #   in Loop: Header=BB12_95 Depth=3
	movq	-32(%rbp), %rdi
	addq	$288, %rdi              # imm = 0x120
	movslq	-8(%rbp), %rax
	shlq	$6, %rax
	addq	%rax, %rdi
	movslq	-4(%rbp), %rax
	shlq	$4, %rax
	addq	%rax, %rdi
	movslq	-12(%rbp), %rax
	shlq	$8, %rax
	movabsq	$INIT_BCBP_I, %rsi
	addq	%rax, %rsi
	movslq	-8(%rbp), %rax
	shlq	$5, %rax
	addq	%rax, %rsi
	movslq	-4(%rbp), %rax
	shlq	$3, %rax
	addq	%rax, %rsi
	callq	XRate
	vaddsd	-24(%rbp), %xmm0, %xmm0
	vmovsd	%xmm0, -24(%rbp)
	jmp	.LBB12_99
.LBB12_98:                              # %if.else394
                                        #   in Loop: Header=BB12_95 Depth=3
	movq	-32(%rbp), %rdi
	addq	$288, %rdi              # imm = 0x120
	movslq	-8(%rbp), %rax
	shlq	$6, %rax
	addq	%rax, %rdi
	movslq	-4(%rbp), %rax
	shlq	$4, %rax
	addq	%rax, %rdi
	movslq	-12(%rbp), %rax
	shlq	$8, %rax
	movabsq	$INIT_BCBP_P, %rsi
	addq	%rax, %rsi
	movslq	-8(%rbp), %rax
	shlq	$5, %rax
	addq	%rax, %rsi
	movslq	-4(%rbp), %rax
	shlq	$3, %rax
	addq	%rax, %rsi
	callq	XRate
	vaddsd	-24(%rbp), %xmm0, %xmm0
	vmovsd	%xmm0, -24(%rbp)
.LBB12_99:                              # %if.end409
                                        #   in Loop: Header=BB12_95 Depth=3
	jmp	.LBB12_100
.LBB12_100:                             # %for.inc410
                                        #   in Loop: Header=BB12_95 Depth=3
	movl	-4(%rbp), %eax
	addl	$1, %eax
	movl	%eax, -4(%rbp)
	jmp	.LBB12_95
.LBB12_101:                             # %for.end412
                                        #   in Loop: Header=BB12_93 Depth=2
	jmp	.LBB12_102
.LBB12_102:                             # %for.inc413
                                        #   in Loop: Header=BB12_93 Depth=2
	movl	-8(%rbp), %eax
	addl	$1, %eax
	movl	%eax, -8(%rbp)
	jmp	.LBB12_93
.LBB12_103:                             # %for.end415
                                        #   in Loop: Header=BB12_1 Depth=1
	movl	$0, -8(%rbp)
.LBB12_104:                             # %for.cond416
                                        #   Parent Loop BB12_1 Depth=1
                                        # =>  This Loop Header: Depth=2
                                        #       Child Loop BB12_106 Depth 3
	cmpl	$10, -8(%rbp)
	jge	.LBB12_114
# %bb.105:                              # %for.body418
                                        #   in Loop: Header=BB12_104 Depth=2
	movl	$0, -4(%rbp)
.LBB12_106:                             # %for.cond419
                                        #   Parent Loop BB12_1 Depth=1
                                        #     Parent Loop BB12_104 Depth=2
                                        # =>    This Inner Loop Header: Depth=3
	cmpl	$15, -4(%rbp)
	jge	.LBB12_112
# %bb.107:                              # %for.body421
                                        #   in Loop: Header=BB12_106 Depth=3
	movq	img, %rax
	cmpl	$2, 24(%rax)
	jne	.LBB12_109
# %bb.108:                              # %if.then424
                                        #   in Loop: Header=BB12_106 Depth=3
	movq	-32(%rbp), %rdi
	addq	$928, %rdi              # imm = 0x3A0
	movslq	-8(%rbp), %rax
	imulq	$240, %rax, %rax
	addq	%rax, %rdi
	movslq	-4(%rbp), %rax
	shlq	$4, %rax
	addq	%rax, %rdi
	movslq	-12(%rbp), %rax
	imulq	$960, %rax, %rax        # imm = 0x3C0
	movabsq	$INIT_MAP_I, %rsi
	addq	%rax, %rsi
	movslq	-8(%rbp), %rax
	imulq	$120, %rax, %rax
	addq	%rax, %rsi
	movslq	-4(%rbp), %rax
	shlq	$3, %rax
	addq	%rax, %rsi
	callq	XRate
	vaddsd	-24(%rbp), %xmm0, %xmm0
	vmovsd	%xmm0, -24(%rbp)
	jmp	.LBB12_110
.LBB12_109:                             # %if.else438
                                        #   in Loop: Header=BB12_106 Depth=3
	movq	-32(%rbp), %rdi
	addq	$928, %rdi              # imm = 0x3A0
	movslq	-8(%rbp), %rax
	imulq	$240, %rax, %rax
	addq	%rax, %rdi
	movslq	-4(%rbp), %rax
	shlq	$4, %rax
	addq	%rax, %rdi
	movslq	-12(%rbp), %rax
	imulq	$960, %rax, %rax        # imm = 0x3C0
	movabsq	$INIT_MAP_P, %rsi
	addq	%rax, %rsi
	movslq	-8(%rbp), %rax
	imulq	$120, %rax, %rax
	addq	%rax, %rsi
	movslq	-4(%rbp), %rax
	shlq	$3, %rax
	addq	%rax, %rsi
	callq	XRate
	vaddsd	-24(%rbp), %xmm0, %xmm0
	vmovsd	%xmm0, -24(%rbp)
.LBB12_110:                             # %if.end453
                                        #   in Loop: Header=BB12_106 Depth=3
	jmp	.LBB12_111
.LBB12_111:                             # %for.inc454
                                        #   in Loop: Header=BB12_106 Depth=3
	movl	-4(%rbp), %eax
	addl	$1, %eax
	movl	%eax, -4(%rbp)
	jmp	.LBB12_106
.LBB12_112:                             # %for.end456
                                        #   in Loop: Header=BB12_104 Depth=2
	jmp	.LBB12_113
.LBB12_113:                             # %for.inc457
                                        #   in Loop: Header=BB12_104 Depth=2
	movl	-8(%rbp), %eax
	addl	$1, %eax
	movl	%eax, -8(%rbp)
	jmp	.LBB12_104
.LBB12_114:                             # %for.end459
                                        #   in Loop: Header=BB12_1 Depth=1
	movl	$0, -8(%rbp)
.LBB12_115:                             # %for.cond460
                                        #   Parent Loop BB12_1 Depth=1
                                        # =>  This Loop Header: Depth=2
                                        #       Child Loop BB12_117 Depth 3
	cmpl	$10, -8(%rbp)
	jge	.LBB12_125
# %bb.116:                              # %for.body462
                                        #   in Loop: Header=BB12_115 Depth=2
	movl	$0, -4(%rbp)
.LBB12_117:                             # %for.cond463
                                        #   Parent Loop BB12_1 Depth=1
                                        #     Parent Loop BB12_115 Depth=2
                                        # =>    This Inner Loop Header: Depth=3
	cmpl	$15, -4(%rbp)
	jge	.LBB12_123
# %bb.118:                              # %for.body465
                                        #   in Loop: Header=BB12_117 Depth=3
	movq	img, %rax
	cmpl	$2, 24(%rax)
	jne	.LBB12_120
# %bb.119:                              # %if.then468
                                        #   in Loop: Header=BB12_117 Depth=3
	movq	-32(%rbp), %rdi
	addq	$3328, %rdi             # imm = 0xD00
	movslq	-8(%rbp), %rax
	imulq	$240, %rax, %rax
	addq	%rax, %rdi
	movslq	-4(%rbp), %rax
	shlq	$4, %rax
	addq	%rax, %rdi
	movslq	-12(%rbp), %rax
	imulq	$960, %rax, %rax        # imm = 0x3C0
	movabsq	$INIT_LAST_I, %rsi
	addq	%rax, %rsi
	movslq	-8(%rbp), %rax
	imulq	$120, %rax, %rax
	addq	%rax, %rsi
	movslq	-4(%rbp), %rax
	shlq	$3, %rax
	addq	%rax, %rsi
	callq	XRate
	vaddsd	-24(%rbp), %xmm0, %xmm0
	vmovsd	%xmm0, -24(%rbp)
	jmp	.LBB12_121
.LBB12_120:                             # %if.else482
                                        #   in Loop: Header=BB12_117 Depth=3
	movq	-32(%rbp), %rdi
	addq	$3328, %rdi             # imm = 0xD00
	movslq	-8(%rbp), %rax
	imulq	$240, %rax, %rax
	addq	%rax, %rdi
	movslq	-4(%rbp), %rax
	shlq	$4, %rax
	addq	%rax, %rdi
	movslq	-12(%rbp), %rax
	imulq	$960, %rax, %rax        # imm = 0x3C0
	movabsq	$INIT_LAST_P, %rsi
	addq	%rax, %rsi
	movslq	-8(%rbp), %rax
	imulq	$120, %rax, %rax
	addq	%rax, %rsi
	movslq	-4(%rbp), %rax
	shlq	$3, %rax
	addq	%rax, %rsi
	callq	XRate
	vaddsd	-24(%rbp), %xmm0, %xmm0
	vmovsd	%xmm0, -24(%rbp)
.LBB12_121:                             # %if.end497
                                        #   in Loop: Header=BB12_117 Depth=3
	jmp	.LBB12_122
.LBB12_122:                             # %for.inc498
                                        #   in Loop: Header=BB12_117 Depth=3
	movl	-4(%rbp), %eax
	addl	$1, %eax
	movl	%eax, -4(%rbp)
	jmp	.LBB12_117
.LBB12_123:                             # %for.end500
                                        #   in Loop: Header=BB12_115 Depth=2
	jmp	.LBB12_124
.LBB12_124:                             # %for.inc501
                                        #   in Loop: Header=BB12_115 Depth=2
	movl	-8(%rbp), %eax
	addl	$1, %eax
	movl	%eax, -8(%rbp)
	jmp	.LBB12_115
.LBB12_125:                             # %for.end503
                                        #   in Loop: Header=BB12_1 Depth=1
	movl	$0, -8(%rbp)
.LBB12_126:                             # %for.cond504
                                        #   Parent Loop BB12_1 Depth=1
                                        # =>  This Loop Header: Depth=2
                                        #       Child Loop BB12_128 Depth 3
	cmpl	$10, -8(%rbp)
	jge	.LBB12_136
# %bb.127:                              # %for.body506
                                        #   in Loop: Header=BB12_126 Depth=2
	movl	$0, -4(%rbp)
.LBB12_128:                             # %for.cond507
                                        #   Parent Loop BB12_1 Depth=1
                                        #     Parent Loop BB12_126 Depth=2
                                        # =>    This Inner Loop Header: Depth=3
	cmpl	$5, -4(%rbp)
	jge	.LBB12_134
# %bb.129:                              # %for.body509
                                        #   in Loop: Header=BB12_128 Depth=3
	movq	img, %rax
	cmpl	$2, 24(%rax)
	jne	.LBB12_131
# %bb.130:                              # %if.then512
                                        #   in Loop: Header=BB12_128 Depth=3
	movq	-32(%rbp), %rdi
	addq	$5728, %rdi             # imm = 0x1660
	movslq	-8(%rbp), %rax
	imulq	$80, %rax, %rax
	addq	%rax, %rdi
	movslq	-4(%rbp), %rax
	shlq	$4, %rax
	addq	%rax, %rdi
	movslq	-12(%rbp), %rax
	imulq	$320, %rax, %rax        # imm = 0x140
	movabsq	$INIT_ONE_I, %rsi
	addq	%rax, %rsi
	movslq	-8(%rbp), %rax
	imulq	$40, %rax, %rax
	addq	%rax, %rsi
	movslq	-4(%rbp), %rax
	shlq	$3, %rax
	addq	%rax, %rsi
	callq	XRate
	vaddsd	-24(%rbp), %xmm0, %xmm0
	vmovsd	%xmm0, -24(%rbp)
	jmp	.LBB12_132
.LBB12_131:                             # %if.else526
                                        #   in Loop: Header=BB12_128 Depth=3
	movq	-32(%rbp), %rdi
	addq	$5728, %rdi             # imm = 0x1660
	movslq	-8(%rbp), %rax
	imulq	$80, %rax, %rax
	addq	%rax, %rdi
	movslq	-4(%rbp), %rax
	shlq	$4, %rax
	addq	%rax, %rdi
	movslq	-12(%rbp), %rax
	imulq	$320, %rax, %rax        # imm = 0x140
	movabsq	$INIT_ONE_P, %rsi
	addq	%rax, %rsi
	movslq	-8(%rbp), %rax
	imulq	$40, %rax, %rax
	addq	%rax, %rsi
	movslq	-4(%rbp), %rax
	shlq	$3, %rax
	addq	%rax, %rsi
	callq	XRate
	vaddsd	-24(%rbp), %xmm0, %xmm0
	vmovsd	%xmm0, -24(%rbp)
.LBB12_132:                             # %if.end541
                                        #   in Loop: Header=BB12_128 Depth=3
	jmp	.LBB12_133
.LBB12_133:                             # %for.inc542
                                        #   in Loop: Header=BB12_128 Depth=3
	movl	-4(%rbp), %eax
	addl	$1, %eax
	movl	%eax, -4(%rbp)
	jmp	.LBB12_128
.LBB12_134:                             # %for.end544
                                        #   in Loop: Header=BB12_126 Depth=2
	jmp	.LBB12_135
.LBB12_135:                             # %for.inc545
                                        #   in Loop: Header=BB12_126 Depth=2
	movl	-8(%rbp), %eax
	addl	$1, %eax
	movl	%eax, -8(%rbp)
	jmp	.LBB12_126
.LBB12_136:                             # %for.end547
                                        #   in Loop: Header=BB12_1 Depth=1
	movl	$0, -8(%rbp)
.LBB12_137:                             # %for.cond548
                                        #   Parent Loop BB12_1 Depth=1
                                        # =>  This Loop Header: Depth=2
                                        #       Child Loop BB12_139 Depth 3
	cmpl	$10, -8(%rbp)
	jge	.LBB12_147
# %bb.138:                              # %for.body550
                                        #   in Loop: Header=BB12_137 Depth=2
	movl	$0, -4(%rbp)
.LBB12_139:                             # %for.cond551
                                        #   Parent Loop BB12_1 Depth=1
                                        #     Parent Loop BB12_137 Depth=2
                                        # =>    This Inner Loop Header: Depth=3
	cmpl	$5, -4(%rbp)
	jge	.LBB12_145
# %bb.140:                              # %for.body553
                                        #   in Loop: Header=BB12_139 Depth=3
	movq	img, %rax
	cmpl	$2, 24(%rax)
	jne	.LBB12_142
# %bb.141:                              # %if.then556
                                        #   in Loop: Header=BB12_139 Depth=3
	movq	-32(%rbp), %rdi
	addq	$6528, %rdi             # imm = 0x1980
	movslq	-8(%rbp), %rax
	imulq	$80, %rax, %rax
	addq	%rax, %rdi
	movslq	-4(%rbp), %rax
	shlq	$4, %rax
	addq	%rax, %rdi
	movslq	-12(%rbp), %rax
	imulq	$320, %rax, %rax        # imm = 0x140
	movabsq	$INIT_ABS_I, %rsi
	addq	%rax, %rsi
	movslq	-8(%rbp), %rax
	imulq	$40, %rax, %rax
	addq	%rax, %rsi
	movslq	-4(%rbp), %rax
	shlq	$3, %rax
	addq	%rax, %rsi
	callq	XRate
	vaddsd	-24(%rbp), %xmm0, %xmm0
	vmovsd	%xmm0, -24(%rbp)
	jmp	.LBB12_143
.LBB12_142:                             # %if.else570
                                        #   in Loop: Header=BB12_139 Depth=3
	movq	-32(%rbp), %rdi
	addq	$6528, %rdi             # imm = 0x1980
	movslq	-8(%rbp), %rax
	imulq	$80, %rax, %rax
	addq	%rax, %rdi
	movslq	-4(%rbp), %rax
	shlq	$4, %rax
	addq	%rax, %rdi
	movslq	-12(%rbp), %rax
	imulq	$320, %rax, %rax        # imm = 0x140
	movabsq	$INIT_ABS_P, %rsi
	addq	%rax, %rsi
	movslq	-8(%rbp), %rax
	imulq	$40, %rax, %rax
	addq	%rax, %rsi
	movslq	-4(%rbp), %rax
	shlq	$3, %rax
	addq	%rax, %rsi
	callq	XRate
	vaddsd	-24(%rbp), %xmm0, %xmm0
	vmovsd	%xmm0, -24(%rbp)
.LBB12_143:                             # %if.end585
                                        #   in Loop: Header=BB12_139 Depth=3
	jmp	.LBB12_144
.LBB12_144:                             # %for.inc586
                                        #   in Loop: Header=BB12_139 Depth=3
	movl	-4(%rbp), %eax
	addl	$1, %eax
	movl	%eax, -4(%rbp)
	jmp	.LBB12_139
.LBB12_145:                             # %for.end588
                                        #   in Loop: Header=BB12_137 Depth=2
	jmp	.LBB12_146
.LBB12_146:                             # %for.inc589
                                        #   in Loop: Header=BB12_137 Depth=2
	movl	-8(%rbp), %eax
	addl	$1, %eax
	movl	%eax, -8(%rbp)
	jmp	.LBB12_137
.LBB12_147:                             # %for.end591
                                        #   in Loop: Header=BB12_1 Depth=1
	movl	$0, -8(%rbp)
.LBB12_148:                             # %for.cond592
                                        #   Parent Loop BB12_1 Depth=1
                                        # =>  This Loop Header: Depth=2
                                        #       Child Loop BB12_150 Depth 3
	cmpl	$10, -8(%rbp)
	jge	.LBB12_158
# %bb.149:                              # %for.body594
                                        #   in Loop: Header=BB12_148 Depth=2
	movl	$0, -4(%rbp)
.LBB12_150:                             # %for.cond595
                                        #   Parent Loop BB12_1 Depth=1
                                        #     Parent Loop BB12_148 Depth=2
                                        # =>    This Inner Loop Header: Depth=3
	cmpl	$15, -4(%rbp)
	jge	.LBB12_156
# %bb.151:                              # %for.body597
                                        #   in Loop: Header=BB12_150 Depth=3
	movq	img, %rax
	cmpl	$2, 24(%rax)
	jne	.LBB12_153
# %bb.152:                              # %if.then600
                                        #   in Loop: Header=BB12_150 Depth=3
	movq	-32(%rbp), %rdi
	addq	$7328, %rdi             # imm = 0x1CA0
	movslq	-8(%rbp), %rax
	imulq	$240, %rax, %rax
	addq	%rax, %rdi
	movslq	-4(%rbp), %rax
	shlq	$4, %rax
	addq	%rax, %rdi
	movslq	-12(%rbp), %rax
	imulq	$960, %rax, %rax        # imm = 0x3C0
	movabsq	$INIT_FLD_MAP_I, %rsi
	addq	%rax, %rsi
	movslq	-8(%rbp), %rax
	imulq	$120, %rax, %rax
	addq	%rax, %rsi
	movslq	-4(%rbp), %rax
	shlq	$3, %rax
	addq	%rax, %rsi
	callq	XRate
	vaddsd	-24(%rbp), %xmm0, %xmm0
	vmovsd	%xmm0, -24(%rbp)
	jmp	.LBB12_154
.LBB12_153:                             # %if.else614
                                        #   in Loop: Header=BB12_150 Depth=3
	movq	-32(%rbp), %rdi
	addq	$7328, %rdi             # imm = 0x1CA0
	movslq	-8(%rbp), %rax
	imulq	$240, %rax, %rax
	addq	%rax, %rdi
	movslq	-4(%rbp), %rax
	shlq	$4, %rax
	addq	%rax, %rdi
	movslq	-12(%rbp), %rax
	imulq	$960, %rax, %rax        # imm = 0x3C0
	movabsq	$INIT_FLD_MAP_P, %rsi
	addq	%rax, %rsi
	movslq	-8(%rbp), %rax
	imulq	$120, %rax, %rax
	addq	%rax, %rsi
	movslq	-4(%rbp), %rax
	shlq	$3, %rax
	addq	%rax, %rsi
	callq	XRate
	vaddsd	-24(%rbp), %xmm0, %xmm0
	vmovsd	%xmm0, -24(%rbp)
.LBB12_154:                             # %if.end629
                                        #   in Loop: Header=BB12_150 Depth=3
	jmp	.LBB12_155
.LBB12_155:                             # %for.inc630
                                        #   in Loop: Header=BB12_150 Depth=3
	movl	-4(%rbp), %eax
	addl	$1, %eax
	movl	%eax, -4(%rbp)
	jmp	.LBB12_150
.LBB12_156:                             # %for.end632
                                        #   in Loop: Header=BB12_148 Depth=2
	jmp	.LBB12_157
.LBB12_157:                             # %for.inc633
                                        #   in Loop: Header=BB12_148 Depth=2
	movl	-8(%rbp), %eax
	addl	$1, %eax
	movl	%eax, -8(%rbp)
	jmp	.LBB12_148
.LBB12_158:                             # %for.end635
                                        #   in Loop: Header=BB12_1 Depth=1
	movl	$0, -8(%rbp)
.LBB12_159:                             # %for.cond636
                                        #   Parent Loop BB12_1 Depth=1
                                        # =>  This Loop Header: Depth=2
                                        #       Child Loop BB12_161 Depth 3
	cmpl	$10, -8(%rbp)
	jge	.LBB12_169
# %bb.160:                              # %for.body638
                                        #   in Loop: Header=BB12_159 Depth=2
	movl	$0, -4(%rbp)
.LBB12_161:                             # %for.cond639
                                        #   Parent Loop BB12_1 Depth=1
                                        #     Parent Loop BB12_159 Depth=2
                                        # =>    This Inner Loop Header: Depth=3
	cmpl	$15, -4(%rbp)
	jge	.LBB12_167
# %bb.162:                              # %for.body641
                                        #   in Loop: Header=BB12_161 Depth=3
	movq	img, %rax
	cmpl	$2, 24(%rax)
	jne	.LBB12_164
# %bb.163:                              # %if.then644
                                        #   in Loop: Header=BB12_161 Depth=3
	movq	-32(%rbp), %rdi
	addq	$9728, %rdi             # imm = 0x2600
	movslq	-8(%rbp), %rax
	imulq	$240, %rax, %rax
	addq	%rax, %rdi
	movslq	-4(%rbp), %rax
	shlq	$4, %rax
	addq	%rax, %rdi
	movslq	-12(%rbp), %rax
	imulq	$960, %rax, %rax        # imm = 0x3C0
	movabsq	$INIT_FLD_LAST_I, %rsi
	addq	%rax, %rsi
	movslq	-8(%rbp), %rax
	imulq	$120, %rax, %rax
	addq	%rax, %rsi
	movslq	-4(%rbp), %rax
	shlq	$3, %rax
	addq	%rax, %rsi
	callq	XRate
	vaddsd	-24(%rbp), %xmm0, %xmm0
	vmovsd	%xmm0, -24(%rbp)
	jmp	.LBB12_165
.LBB12_164:                             # %if.else658
                                        #   in Loop: Header=BB12_161 Depth=3
	movq	-32(%rbp), %rdi
	addq	$9728, %rdi             # imm = 0x2600
	movslq	-8(%rbp), %rax
	imulq	$240, %rax, %rax
	addq	%rax, %rdi
	movslq	-4(%rbp), %rax
	shlq	$4, %rax
	addq	%rax, %rdi
	movslq	-12(%rbp), %rax
	imulq	$960, %rax, %rax        # imm = 0x3C0
	movabsq	$INIT_FLD_LAST_P, %rsi
	addq	%rax, %rsi
	movslq	-8(%rbp), %rax
	imulq	$120, %rax, %rax
	addq	%rax, %rsi
	movslq	-4(%rbp), %rax
	shlq	$3, %rax
	addq	%rax, %rsi
	callq	XRate
	vaddsd	-24(%rbp), %xmm0, %xmm0
	vmovsd	%xmm0, -24(%rbp)
.LBB12_165:                             # %if.end673
                                        #   in Loop: Header=BB12_161 Depth=3
	jmp	.LBB12_166
.LBB12_166:                             # %for.inc674
                                        #   in Loop: Header=BB12_161 Depth=3
	movl	-4(%rbp), %eax
	addl	$1, %eax
	movl	%eax, -4(%rbp)
	jmp	.LBB12_161
.LBB12_167:                             # %for.end676
                                        #   in Loop: Header=BB12_159 Depth=2
	jmp	.LBB12_168
.LBB12_168:                             # %for.inc677
                                        #   in Loop: Header=BB12_159 Depth=2
	movl	-8(%rbp), %eax
	addl	$1, %eax
	movl	%eax, -8(%rbp)
	jmp	.LBB12_159
.LBB12_169:                             # %for.end679
                                        #   in Loop: Header=BB12_1 Depth=1
	vmovsd	-24(%rbp), %xmm0        # xmm0 = mem[0],zero
	vmovsd	-56(%rbp), %xmm1        # xmm1 = mem[0],zero
	vucomisd	%xmm0, %xmm1
	jbe	.LBB12_171
# %bb.170:                              # %if.then681
                                        #   in Loop: Header=BB12_1 Depth=1
	vmovsd	-24(%rbp), %xmm0        # xmm0 = mem[0],zero
	vmovsd	%xmm0, -56(%rbp)
	movl	-12(%rbp), %eax
	movq	-64(%rbp), %rcx
	movl	%eax, (%rcx)
.LBB12_171:                             # %if.end682
                                        #   in Loop: Header=BB12_1 Depth=1
	jmp	.LBB12_172
.LBB12_172:                             # %for.inc683
                                        #   in Loop: Header=BB12_1 Depth=1
	movl	-12(%rbp), %eax
	addl	$1, %eax
	movl	%eax, -12(%rbp)
	jmp	.LBB12_1
.LBB12_173:                             # %for.end685
	cmpl	$1507001130, -44(%rbp)  # imm = 0x59D3032A
	jne	.LBB12_175
.LBB12_174:
	addq	$64, %rsp
	popq	%rbp
	.cfi_def_cfa %rsp, 8
	retq
.LBB12_175:                             # %func_exit
	.cfi_def_cfa %rbp, 16
	callq	detect_breach
	jmp	.LBB12_174
.Lfunc_end12:
	.size	GetCtxModelNumber.5, .Lfunc_end12-GetCtxModelNumber.5
	.cfi_endproc
                                        # -- End function
	.section	.rodata.cst8,"aM",@progbits,8
	.p2align	3               # -- Begin function create_context_memory.6
.LCPI13_0:
	.quad	4611686018427387904     # double 2
.LCPI13_1:
	.quad	4607182418800017408     # double 1
	.text
	.globl	create_context_memory.6
	.p2align	4, 0x90
	.type	create_context_memory.6,@function
create_context_memory.6:                # @create_context_memory.6
	.cfi_startproc
# %bb.0:                                # %entry
	pushq	%rbp
	.cfi_def_cfa_offset 16
	.cfi_offset %rbp, -16
	movq	%rsp, %rbp
	.cfi_def_cfa_register %rbp
	subq	$48, %rsp
	movl	$1749613970, -20(%rbp)  # imm = 0x6848FD92
	movq	img, %rax
	movl	72488(%rax), %eax
	movl	%eax, -16(%rbp)
	movq	input, %rax
	cmpl	$1, 208(%rax)
	jne	.LBB13_2
# %bb.1:                                # %cond.true
	movq	input, %rax
	movl	212(%rax), %eax
	jmp	.LBB13_3
.LBB13_2:                               # %cond.false
	movl	-16(%rbp), %eax
.LBB13_3:                               # %cond.end
	movl	%eax, num_mb_per_slice
	movl	-16(%rbp), %eax
	addl	num_mb_per_slice, %eax
	subl	$1, %eax
	cltd
	idivl	num_mb_per_slice
	movl	%eax, number_of_slices
	movl	$24, %edi
	callq	malloc
	movq	%rax, initialized
	cmpq	$0, %rax
	jne	.LBB13_5
# %bb.4:                                # %if.then
	movabsq	$.L.str, %rdi
	callq	no_mem_exit
.LBB13_5:                               # %if.end
	movl	$24, %edi
	callq	malloc
	movq	%rax, model_number
	cmpq	$0, %rax
	jne	.LBB13_7
# %bb.6:                                # %if.then4
	movabsq	$.L.str.1, %rdi
	callq	no_mem_exit
.LBB13_7:                               # %if.end5
	movl	$0, -4(%rbp)
.LBB13_8:                               # %for.cond
                                        # =>This Loop Header: Depth=1
                                        #     Child Loop BB13_14 Depth 2
	cmpl	$3, -4(%rbp)
	jge	.LBB13_23
# %bb.9:                                # %for.body
                                        #   in Loop: Header=BB13_8 Depth=1
	movl	$32, %edi
	callq	malloc
	movq	initialized, %rcx
	movslq	-4(%rbp), %rdx
	movq	%rax, (%rcx,%rdx,8)
	cmpq	$0, %rax
	jne	.LBB13_11
# %bb.10:                               # %if.then9
                                        #   in Loop: Header=BB13_8 Depth=1
	movabsq	$.L.str, %rdi
	callq	no_mem_exit
.LBB13_11:                              # %if.end10
                                        #   in Loop: Header=BB13_8 Depth=1
	movl	$32, %edi
	callq	malloc
	movq	model_number, %rcx
	movslq	-4(%rbp), %rdx
	movq	%rax, (%rcx,%rdx,8)
	cmpq	$0, %rax
	jne	.LBB13_13
# %bb.12:                               # %if.then15
                                        #   in Loop: Header=BB13_8 Depth=1
	movabsq	$.L.str.1, %rdi
	callq	no_mem_exit
.LBB13_13:                              # %if.end16
                                        #   in Loop: Header=BB13_8 Depth=1
	movl	$0, -8(%rbp)
.LBB13_14:                              # %for.cond17
                                        #   Parent Loop BB13_8 Depth=1
                                        # =>  This Inner Loop Header: Depth=2
	cmpl	$4, -8(%rbp)
	jge	.LBB13_21
# %bb.15:                               # %for.body19
                                        #   in Loop: Header=BB13_14 Depth=2
	movslq	number_of_slices, %rdi
	shlq	$2, %rdi
	callq	malloc
	movq	initialized, %rcx
	movslq	-4(%rbp), %rdx
	movq	(%rcx,%rdx,8), %rcx
	movslq	-8(%rbp), %rdx
	movq	%rax, (%rcx,%rdx,8)
	cmpq	$0, %rax
	jne	.LBB13_17
# %bb.16:                               # %if.then27
                                        #   in Loop: Header=BB13_14 Depth=2
	movabsq	$.L.str, %rdi
	callq	no_mem_exit
.LBB13_17:                              # %if.end28
                                        #   in Loop: Header=BB13_14 Depth=2
	movslq	number_of_slices, %rdi
	shlq	$2, %rdi
	callq	malloc
	movq	model_number, %rcx
	movslq	-4(%rbp), %rdx
	movq	(%rcx,%rdx,8), %rcx
	movslq	-8(%rbp), %rdx
	movq	%rax, (%rcx,%rdx,8)
	cmpq	$0, %rax
	jne	.LBB13_19
# %bb.18:                               # %if.then38
                                        #   in Loop: Header=BB13_14 Depth=2
	movabsq	$.L.str.1, %rdi
	callq	no_mem_exit
.LBB13_19:                              # %if.end39
                                        #   in Loop: Header=BB13_14 Depth=2
	jmp	.LBB13_20
.LBB13_20:                              # %for.inc
                                        #   in Loop: Header=BB13_14 Depth=2
	movl	-8(%rbp), %eax
	addl	$1, %eax
	movl	%eax, -8(%rbp)
	jmp	.LBB13_14
.LBB13_21:                              # %for.end
                                        #   in Loop: Header=BB13_8 Depth=1
	jmp	.LBB13_22
.LBB13_22:                              # %for.inc40
                                        #   in Loop: Header=BB13_8 Depth=1
	movl	-4(%rbp), %eax
	addl	$1, %eax
	movl	%eax, -4(%rbp)
	jmp	.LBB13_8
.LBB13_23:                              # %for.end42
	movl	$0, -4(%rbp)
.LBB13_24:                              # %for.cond43
                                        # =>This Loop Header: Depth=1
                                        #     Child Loop BB13_26 Depth 2
                                        #       Child Loop BB13_28 Depth 3
	cmpl	$3, -4(%rbp)
	jge	.LBB13_35
# %bb.25:                               # %for.body46
                                        #   in Loop: Header=BB13_24 Depth=1
	movl	$0, -8(%rbp)
.LBB13_26:                              # %for.cond47
                                        #   Parent Loop BB13_24 Depth=1
                                        # =>  This Loop Header: Depth=2
                                        #       Child Loop BB13_28 Depth 3
	cmpl	$4, -8(%rbp)
	jge	.LBB13_33
# %bb.27:                               # %for.body50
                                        #   in Loop: Header=BB13_26 Depth=2
	movl	$0, -12(%rbp)
.LBB13_28:                              # %for.cond51
                                        #   Parent Loop BB13_24 Depth=1
                                        #     Parent Loop BB13_26 Depth=2
                                        # =>    This Inner Loop Header: Depth=3
	movl	-12(%rbp), %eax
	cmpl	number_of_slices, %eax
	jge	.LBB13_31
# %bb.29:                               # %for.body54
                                        #   in Loop: Header=BB13_28 Depth=3
	movq	initialized, %rax
	movslq	-4(%rbp), %rcx
	movq	(%rax,%rcx,8), %rax
	movslq	-8(%rbp), %rcx
	movq	(%rax,%rcx,8), %rax
	movslq	-12(%rbp), %rcx
	movl	$0, (%rax,%rcx,4)
# %bb.30:                               # %for.inc61
                                        #   in Loop: Header=BB13_28 Depth=3
	movl	-12(%rbp), %eax
	addl	$1, %eax
	movl	%eax, -12(%rbp)
	jmp	.LBB13_28
.LBB13_31:                              # %for.end63
                                        #   in Loop: Header=BB13_26 Depth=2
	jmp	.LBB13_32
.LBB13_32:                              # %for.inc64
                                        #   in Loop: Header=BB13_26 Depth=2
	movl	-8(%rbp), %eax
	addl	$1, %eax
	movl	%eax, -8(%rbp)
	jmp	.LBB13_26
.LBB13_33:                              # %for.end66
                                        #   in Loop: Header=BB13_24 Depth=1
	jmp	.LBB13_34
.LBB13_34:                              # %for.inc67
                                        #   in Loop: Header=BB13_24 Depth=1
	movl	-4(%rbp), %eax
	addl	$1, %eax
	movl	%eax, -4(%rbp)
	jmp	.LBB13_24
.LBB13_35:                              # %for.end69
	movl	$0, -4(%rbp)
.LBB13_36:                              # %for.cond70
                                        # =>This Inner Loop Header: Depth=1
	cmpl	$64, -4(%rbp)
	jge	.LBB13_39
# %bb.37:                               # %for.body73
                                        #   in Loop: Header=BB13_36 Depth=1
	vmovsd	.LCPI13_1(%rip), %xmm0  # xmm0 = mem[0],zero
	movl	$127, %eax
	subl	-4(%rbp), %eax
	cltq
	vsubsd	probability(,%rax,8), %xmm0, %xmm0
	movslq	-4(%rbp), %rax
	vmovsd	%xmm0, probability(,%rax,8)
	movslq	-4(%rbp), %rax
	vmovsd	probability(,%rax,8), %xmm0 # xmm0 = mem[0],zero
	callq	log10
	vmovsd	%xmm0, -32(%rbp)        # 8-byte Spill
	vmovsd	.LCPI13_0(%rip), %xmm0  # xmm0 = mem[0],zero
	callq	log10
	vmovsd	-32(%rbp), %xmm1        # 8-byte Reload
                                        # xmm1 = mem[0],zero
	vdivsd	%xmm0, %xmm1, %xmm0
	movslq	-4(%rbp), %rax
	vmovsd	%xmm0, entropy(,%rax,8)
	movl	$127, %eax
	subl	-4(%rbp), %eax
	cltq
	vmovsd	probability(,%rax,8), %xmm0 # xmm0 = mem[0],zero
	callq	log10
	vmovsd	%xmm0, -40(%rbp)        # 8-byte Spill
	vmovsd	.LCPI13_0(%rip), %xmm0  # xmm0 = mem[0],zero
	callq	log10
	vmovsd	-40(%rbp), %xmm1        # 8-byte Reload
                                        # xmm1 = mem[0],zero
	vdivsd	%xmm0, %xmm1, %xmm0
	movl	$127, %eax
	subl	-4(%rbp), %eax
	cltq
	vmovsd	%xmm0, entropy(,%rax,8)
# %bb.38:                               # %for.inc96
                                        #   in Loop: Header=BB13_36 Depth=1
	movl	-4(%rbp), %eax
	addl	$1, %eax
	movl	%eax, -4(%rbp)
	jmp	.LBB13_36
.LBB13_39:                              # %for.end98
	cmpl	$1749613970, -20(%rbp)  # imm = 0x6848FD92
	jne	.LBB13_41
.LBB13_40:
	addq	$48, %rsp
	popq	%rbp
	.cfi_def_cfa %rsp, 8
	retq
.LBB13_41:                              # %func_exit
	.cfi_def_cfa %rbp, 16
	callq	detect_breach
	jmp	.LBB13_40
.Lfunc_end13:
	.size	create_context_memory.6, .Lfunc_end13-create_context_memory.6
	.cfi_endproc
                                        # -- End function
	.globl	init_contexts.7         # -- Begin function init_contexts.7
	.p2align	4, 0x90
	.type	init_contexts.7,@function
init_contexts.7:                        # @init_contexts.7
	.cfi_startproc
# %bb.0:                                # %entry
	pushq	%rbp
	.cfi_def_cfa_offset 16
	.cfi_offset %rbp, -16
	movq	%rsp, %rbp
	.cfi_def_cfa_register %rbp
	subq	$32, %rsp
	movl	$1500156411, -28(%rbp)  # imm = 0x596A91FB
	movq	img, %rax
	movq	14160(%rax), %rax
	movq	32(%rax), %rax
	movq	%rax, -24(%rbp)
	movq	img, %rax
	movq	14160(%rax), %rax
	movq	40(%rax), %rax
	movq	%rax, -16(%rbp)
	movl	$0, -8(%rbp)
.LBB14_1:                               # %for.cond
                                        # =>This Loop Header: Depth=1
                                        #     Child Loop BB14_3 Depth 2
	cmpl	$3, -8(%rbp)
	jge	.LBB14_11
# %bb.2:                                # %for.body
                                        #   in Loop: Header=BB14_1 Depth=1
	movl	$0, -4(%rbp)
.LBB14_3:                               # %for.cond2
                                        #   Parent Loop BB14_1 Depth=1
                                        # =>  This Inner Loop Header: Depth=2
	cmpl	$11, -4(%rbp)
	jge	.LBB14_9
# %bb.4:                                # %for.body4
                                        #   in Loop: Header=BB14_3 Depth=2
	movq	img, %rax
	cmpl	$2, 24(%rax)
	jne	.LBB14_6
# %bb.5:                                # %if.then
                                        #   in Loop: Header=BB14_3 Depth=2
	movq	-24(%rbp), %rdi
	movslq	-8(%rbp), %rax
	imulq	$176, %rax, %rax
	addq	%rax, %rdi
	movslq	-4(%rbp), %rax
	shlq	$4, %rax
	addq	%rax, %rdi
	movq	img, %rax
	movslq	72520(%rax), %rax
	imulq	$264, %rax, %rax        # imm = 0x108
	movabsq	$INIT_MB_TYPE_I, %rsi
	addq	%rax, %rsi
	movslq	-8(%rbp), %rax
	imulq	$88, %rax, %rax
	addq	%rax, %rsi
	movslq	-4(%rbp), %rax
	shlq	$3, %rax
	addq	%rax, %rsi
	callq	biari_init_context
	jmp	.LBB14_7
.LBB14_6:                               # %if.else
                                        #   in Loop: Header=BB14_3 Depth=2
	movq	-24(%rbp), %rdi
	movslq	-8(%rbp), %rax
	imulq	$176, %rax, %rax
	addq	%rax, %rdi
	movslq	-4(%rbp), %rax
	shlq	$4, %rax
	addq	%rax, %rdi
	movq	img, %rax
	movslq	72520(%rax), %rax
	imulq	$264, %rax, %rax        # imm = 0x108
	movabsq	$INIT_MB_TYPE_P, %rsi
	addq	%rax, %rsi
	movslq	-8(%rbp), %rax
	imulq	$88, %rax, %rax
	addq	%rax, %rsi
	movslq	-4(%rbp), %rax
	shlq	$3, %rax
	addq	%rax, %rsi
	callq	biari_init_context
.LBB14_7:                               # %if.end
                                        #   in Loop: Header=BB14_3 Depth=2
	jmp	.LBB14_8
.LBB14_8:                               # %for.inc
                                        #   in Loop: Header=BB14_3 Depth=2
	movl	-4(%rbp), %eax
	addl	$1, %eax
	movl	%eax, -4(%rbp)
	jmp	.LBB14_3
.LBB14_9:                               # %for.end
                                        #   in Loop: Header=BB14_1 Depth=1
	jmp	.LBB14_10
.LBB14_10:                              # %for.inc28
                                        #   in Loop: Header=BB14_1 Depth=1
	movl	-8(%rbp), %eax
	addl	$1, %eax
	movl	%eax, -8(%rbp)
	jmp	.LBB14_1
.LBB14_11:                              # %for.end30
	movl	$0, -8(%rbp)
.LBB14_12:                              # %for.cond31
                                        # =>This Loop Header: Depth=1
                                        #     Child Loop BB14_14 Depth 2
	cmpl	$2, -8(%rbp)
	jge	.LBB14_22
# %bb.13:                               # %for.body33
                                        #   in Loop: Header=BB14_12 Depth=1
	movl	$0, -4(%rbp)
.LBB14_14:                              # %for.cond34
                                        #   Parent Loop BB14_12 Depth=1
                                        # =>  This Inner Loop Header: Depth=2
	cmpl	$9, -4(%rbp)
	jge	.LBB14_20
# %bb.15:                               # %for.body36
                                        #   in Loop: Header=BB14_14 Depth=2
	movq	img, %rax
	cmpl	$2, 24(%rax)
	jne	.LBB14_17
# %bb.16:                               # %if.then39
                                        #   in Loop: Header=BB14_14 Depth=2
	movq	-24(%rbp), %rdi
	addq	$528, %rdi              # imm = 0x210
	movslq	-8(%rbp), %rax
	imulq	$144, %rax, %rax
	addq	%rax, %rdi
	movslq	-4(%rbp), %rax
	shlq	$4, %rax
	addq	%rax, %rdi
	movq	img, %rax
	movslq	72520(%rax), %rax
	imulq	$144, %rax, %rax
	movabsq	$INIT_B8_TYPE_I, %rsi
	addq	%rax, %rsi
	movslq	-8(%rbp), %rax
	imulq	$72, %rax, %rax
	addq	%rax, %rsi
	movslq	-4(%rbp), %rax
	shlq	$3, %rax
	addq	%rax, %rsi
	callq	biari_init_context
	jmp	.LBB14_18
.LBB14_17:                              # %if.else52
                                        #   in Loop: Header=BB14_14 Depth=2
	movq	-24(%rbp), %rdi
	addq	$528, %rdi              # imm = 0x210
	movslq	-8(%rbp), %rax
	imulq	$144, %rax, %rax
	addq	%rax, %rdi
	movslq	-4(%rbp), %rax
	shlq	$4, %rax
	addq	%rax, %rdi
	movq	img, %rax
	movslq	72520(%rax), %rax
	imulq	$144, %rax, %rax
	movabsq	$INIT_B8_TYPE_P, %rsi
	addq	%rax, %rsi
	movslq	-8(%rbp), %rax
	imulq	$72, %rax, %rax
	addq	%rax, %rsi
	movslq	-4(%rbp), %rax
	shlq	$3, %rax
	addq	%rax, %rsi
	callq	biari_init_context
.LBB14_18:                              # %if.end66
                                        #   in Loop: Header=BB14_14 Depth=2
	jmp	.LBB14_19
.LBB14_19:                              # %for.inc67
                                        #   in Loop: Header=BB14_14 Depth=2
	movl	-4(%rbp), %eax
	addl	$1, %eax
	movl	%eax, -4(%rbp)
	jmp	.LBB14_14
.LBB14_20:                              # %for.end69
                                        #   in Loop: Header=BB14_12 Depth=1
	jmp	.LBB14_21
.LBB14_21:                              # %for.inc70
                                        #   in Loop: Header=BB14_12 Depth=1
	movl	-8(%rbp), %eax
	addl	$1, %eax
	movl	%eax, -8(%rbp)
	jmp	.LBB14_12
.LBB14_22:                              # %for.end72
	movl	$0, -8(%rbp)
.LBB14_23:                              # %for.cond73
                                        # =>This Loop Header: Depth=1
                                        #     Child Loop BB14_25 Depth 2
	cmpl	$2, -8(%rbp)
	jge	.LBB14_33
# %bb.24:                               # %for.body75
                                        #   in Loop: Header=BB14_23 Depth=1
	movl	$0, -4(%rbp)
.LBB14_25:                              # %for.cond76
                                        #   Parent Loop BB14_23 Depth=1
                                        # =>  This Inner Loop Header: Depth=2
	cmpl	$10, -4(%rbp)
	jge	.LBB14_31
# %bb.26:                               # %for.body78
                                        #   in Loop: Header=BB14_25 Depth=2
	movq	img, %rax
	cmpl	$2, 24(%rax)
	jne	.LBB14_28
# %bb.27:                               # %if.then81
                                        #   in Loop: Header=BB14_25 Depth=2
	movq	-24(%rbp), %rdi
	addq	$816, %rdi              # imm = 0x330
	movslq	-8(%rbp), %rax
	imulq	$160, %rax, %rax
	addq	%rax, %rdi
	movslq	-4(%rbp), %rax
	shlq	$4, %rax
	addq	%rax, %rdi
	movq	img, %rax
	movslq	72520(%rax), %rax
	imulq	$160, %rax, %rax
	movabsq	$INIT_MV_RES_I, %rsi
	addq	%rax, %rsi
	movslq	-8(%rbp), %rax
	imulq	$80, %rax, %rax
	addq	%rax, %rsi
	movslq	-4(%rbp), %rax
	shlq	$3, %rax
	addq	%rax, %rsi
	callq	biari_init_context
	jmp	.LBB14_29
.LBB14_28:                              # %if.else94
                                        #   in Loop: Header=BB14_25 Depth=2
	movq	-24(%rbp), %rdi
	addq	$816, %rdi              # imm = 0x330
	movslq	-8(%rbp), %rax
	imulq	$160, %rax, %rax
	addq	%rax, %rdi
	movslq	-4(%rbp), %rax
	shlq	$4, %rax
	addq	%rax, %rdi
	movq	img, %rax
	movslq	72520(%rax), %rax
	imulq	$160, %rax, %rax
	movabsq	$INIT_MV_RES_P, %rsi
	addq	%rax, %rsi
	movslq	-8(%rbp), %rax
	imulq	$80, %rax, %rax
	addq	%rax, %rsi
	movslq	-4(%rbp), %rax
	shlq	$3, %rax
	addq	%rax, %rsi
	callq	biari_init_context
.LBB14_29:                              # %if.end108
                                        #   in Loop: Header=BB14_25 Depth=2
	jmp	.LBB14_30
.LBB14_30:                              # %for.inc109
                                        #   in Loop: Header=BB14_25 Depth=2
	movl	-4(%rbp), %eax
	addl	$1, %eax
	movl	%eax, -4(%rbp)
	jmp	.LBB14_25
.LBB14_31:                              # %for.end111
                                        #   in Loop: Header=BB14_23 Depth=1
	jmp	.LBB14_32
.LBB14_32:                              # %for.inc112
                                        #   in Loop: Header=BB14_23 Depth=1
	movl	-8(%rbp), %eax
	addl	$1, %eax
	movl	%eax, -8(%rbp)
	jmp	.LBB14_23
.LBB14_33:                              # %for.end114
	movl	$0, -8(%rbp)
.LBB14_34:                              # %for.cond115
                                        # =>This Loop Header: Depth=1
                                        #     Child Loop BB14_36 Depth 2
	cmpl	$2, -8(%rbp)
	jge	.LBB14_44
# %bb.35:                               # %for.body117
                                        #   in Loop: Header=BB14_34 Depth=1
	movl	$0, -4(%rbp)
.LBB14_36:                              # %for.cond118
                                        #   Parent Loop BB14_34 Depth=1
                                        # =>  This Inner Loop Header: Depth=2
	cmpl	$6, -4(%rbp)
	jge	.LBB14_42
# %bb.37:                               # %for.body120
                                        #   in Loop: Header=BB14_36 Depth=2
	movq	img, %rax
	cmpl	$2, 24(%rax)
	jne	.LBB14_39
# %bb.38:                               # %if.then123
                                        #   in Loop: Header=BB14_36 Depth=2
	movq	-24(%rbp), %rdi
	addq	$1136, %rdi             # imm = 0x470
	movslq	-8(%rbp), %rax
	imulq	$96, %rax, %rax
	addq	%rax, %rdi
	movslq	-4(%rbp), %rax
	shlq	$4, %rax
	addq	%rax, %rdi
	movq	img, %rax
	movslq	72520(%rax), %rax
	imulq	$96, %rax, %rax
	movabsq	$INIT_REF_NO_I, %rsi
	addq	%rax, %rsi
	movslq	-8(%rbp), %rax
	imulq	$48, %rax, %rax
	addq	%rax, %rsi
	movslq	-4(%rbp), %rax
	shlq	$3, %rax
	addq	%rax, %rsi
	callq	biari_init_context
	jmp	.LBB14_40
.LBB14_39:                              # %if.else136
                                        #   in Loop: Header=BB14_36 Depth=2
	movq	-24(%rbp), %rdi
	addq	$1136, %rdi             # imm = 0x470
	movslq	-8(%rbp), %rax
	imulq	$96, %rax, %rax
	addq	%rax, %rdi
	movslq	-4(%rbp), %rax
	shlq	$4, %rax
	addq	%rax, %rdi
	movq	img, %rax
	movslq	72520(%rax), %rax
	imulq	$96, %rax, %rax
	movabsq	$INIT_REF_NO_P, %rsi
	addq	%rax, %rsi
	movslq	-8(%rbp), %rax
	imulq	$48, %rax, %rax
	addq	%rax, %rsi
	movslq	-4(%rbp), %rax
	shlq	$3, %rax
	addq	%rax, %rsi
	callq	biari_init_context
.LBB14_40:                              # %if.end150
                                        #   in Loop: Header=BB14_36 Depth=2
	jmp	.LBB14_41
.LBB14_41:                              # %for.inc151
                                        #   in Loop: Header=BB14_36 Depth=2
	movl	-4(%rbp), %eax
	addl	$1, %eax
	movl	%eax, -4(%rbp)
	jmp	.LBB14_36
.LBB14_42:                              # %for.end153
                                        #   in Loop: Header=BB14_34 Depth=1
	jmp	.LBB14_43
.LBB14_43:                              # %for.inc154
                                        #   in Loop: Header=BB14_34 Depth=1
	movl	-8(%rbp), %eax
	addl	$1, %eax
	movl	%eax, -8(%rbp)
	jmp	.LBB14_34
.LBB14_44:                              # %for.end156
	movl	$0, -4(%rbp)
.LBB14_45:                              # %for.cond157
                                        # =>This Inner Loop Header: Depth=1
	cmpl	$4, -4(%rbp)
	jge	.LBB14_51
# %bb.46:                               # %for.body159
                                        #   in Loop: Header=BB14_45 Depth=1
	movq	img, %rax
	cmpl	$2, 24(%rax)
	jne	.LBB14_48
# %bb.47:                               # %if.then162
                                        #   in Loop: Header=BB14_45 Depth=1
	movq	-24(%rbp), %rdi
	addq	$1328, %rdi             # imm = 0x530
	movslq	-4(%rbp), %rax
	shlq	$4, %rax
	addq	%rax, %rdi
	movq	img, %rax
	movslq	72520(%rax), %rax
	shlq	$5, %rax
	movabsq	$INIT_DELTA_QP_I, %rsi
	addq	%rax, %rsi
	movslq	-4(%rbp), %rax
	shlq	$3, %rax
	addq	%rax, %rsi
	callq	biari_init_context
	jmp	.LBB14_49
.LBB14_48:                              # %if.else172
                                        #   in Loop: Header=BB14_45 Depth=1
	movq	-24(%rbp), %rdi
	addq	$1328, %rdi             # imm = 0x530
	movslq	-4(%rbp), %rax
	shlq	$4, %rax
	addq	%rax, %rdi
	movq	img, %rax
	movslq	72520(%rax), %rax
	shlq	$5, %rax
	movabsq	$INIT_DELTA_QP_P, %rsi
	addq	%rax, %rsi
	movslq	-4(%rbp), %rax
	shlq	$3, %rax
	addq	%rax, %rsi
	callq	biari_init_context
.LBB14_49:                              # %if.end183
                                        #   in Loop: Header=BB14_45 Depth=1
	jmp	.LBB14_50
.LBB14_50:                              # %for.inc184
                                        #   in Loop: Header=BB14_45 Depth=1
	movl	-4(%rbp), %eax
	addl	$1, %eax
	movl	%eax, -4(%rbp)
	jmp	.LBB14_45
.LBB14_51:                              # %for.end186
	movl	$0, -4(%rbp)
.LBB14_52:                              # %for.cond187
                                        # =>This Inner Loop Header: Depth=1
	cmpl	$4, -4(%rbp)
	jge	.LBB14_58
# %bb.53:                               # %for.body189
                                        #   in Loop: Header=BB14_52 Depth=1
	movq	img, %rax
	cmpl	$2, 24(%rax)
	jne	.LBB14_55
# %bb.54:                               # %if.then192
                                        #   in Loop: Header=BB14_52 Depth=1
	movq	-24(%rbp), %rdi
	addq	$1392, %rdi             # imm = 0x570
	movslq	-4(%rbp), %rax
	shlq	$4, %rax
	addq	%rax, %rdi
	movq	img, %rax
	movslq	72520(%rax), %rax
	shlq	$5, %rax
	movabsq	$INIT_MB_AFF_I, %rsi
	addq	%rax, %rsi
	movslq	-4(%rbp), %rax
	shlq	$3, %rax
	addq	%rax, %rsi
	callq	biari_init_context
	jmp	.LBB14_56
.LBB14_55:                              # %if.else202
                                        #   in Loop: Header=BB14_52 Depth=1
	movq	-24(%rbp), %rdi
	addq	$1392, %rdi             # imm = 0x570
	movslq	-4(%rbp), %rax
	shlq	$4, %rax
	addq	%rax, %rdi
	movq	img, %rax
	movslq	72520(%rax), %rax
	shlq	$5, %rax
	movabsq	$INIT_MB_AFF_P, %rsi
	addq	%rax, %rsi
	movslq	-4(%rbp), %rax
	shlq	$3, %rax
	addq	%rax, %rsi
	callq	biari_init_context
.LBB14_56:                              # %if.end213
                                        #   in Loop: Header=BB14_52 Depth=1
	jmp	.LBB14_57
.LBB14_57:                              # %for.inc214
                                        #   in Loop: Header=BB14_52 Depth=1
	movl	-4(%rbp), %eax
	addl	$1, %eax
	movl	%eax, -4(%rbp)
	jmp	.LBB14_52
.LBB14_58:                              # %for.end216
	movl	$0, -4(%rbp)
.LBB14_59:                              # %for.cond217
                                        # =>This Inner Loop Header: Depth=1
	cmpl	$3, -4(%rbp)
	jge	.LBB14_65
# %bb.60:                               # %for.body219
                                        #   in Loop: Header=BB14_59 Depth=1
	movq	img, %rax
	cmpl	$2, 24(%rax)
	jne	.LBB14_62
# %bb.61:                               # %if.then222
                                        #   in Loop: Header=BB14_59 Depth=1
	movq	-24(%rbp), %rdi
	addq	$1456, %rdi             # imm = 0x5B0
	movslq	-4(%rbp), %rax
	shlq	$4, %rax
	addq	%rax, %rdi
	movq	img, %rax
	movslq	72520(%rax), %rax
	imulq	$24, %rax, %rax
	movabsq	$INIT_TRANSFORM_SIZE_I, %rsi
	addq	%rax, %rsi
	movslq	-4(%rbp), %rax
	shlq	$3, %rax
	addq	%rax, %rsi
	callq	biari_init_context
	jmp	.LBB14_63
.LBB14_62:                              # %if.else232
                                        #   in Loop: Header=BB14_59 Depth=1
	movq	-24(%rbp), %rdi
	addq	$1456, %rdi             # imm = 0x5B0
	movslq	-4(%rbp), %rax
	shlq	$4, %rax
	addq	%rax, %rdi
	movq	img, %rax
	movslq	72520(%rax), %rax
	imulq	$24, %rax, %rax
	movabsq	$INIT_TRANSFORM_SIZE_P, %rsi
	addq	%rax, %rsi
	movslq	-4(%rbp), %rax
	shlq	$3, %rax
	addq	%rax, %rsi
	callq	biari_init_context
.LBB14_63:                              # %if.end243
                                        #   in Loop: Header=BB14_59 Depth=1
	jmp	.LBB14_64
.LBB14_64:                              # %for.inc244
                                        #   in Loop: Header=BB14_59 Depth=1
	movl	-4(%rbp), %eax
	addl	$1, %eax
	movl	%eax, -4(%rbp)
	jmp	.LBB14_59
.LBB14_65:                              # %for.end246
	movl	$0, -4(%rbp)
.LBB14_66:                              # %for.cond247
                                        # =>This Inner Loop Header: Depth=1
	cmpl	$2, -4(%rbp)
	jge	.LBB14_72
# %bb.67:                               # %for.body249
                                        #   in Loop: Header=BB14_66 Depth=1
	movq	img, %rax
	cmpl	$2, 24(%rax)
	jne	.LBB14_69
# %bb.68:                               # %if.then252
                                        #   in Loop: Header=BB14_66 Depth=1
	movq	-16(%rbp), %rdi
	movslq	-4(%rbp), %rax
	shlq	$4, %rax
	addq	%rax, %rdi
	movq	img, %rax
	movslq	72520(%rax), %rax
	shlq	$4, %rax
	movabsq	$INIT_IPR_I, %rsi
	addq	%rax, %rsi
	movslq	-4(%rbp), %rax
	shlq	$3, %rax
	addq	%rax, %rsi
	callq	biari_init_context
	jmp	.LBB14_70
.LBB14_69:                              # %if.else262
                                        #   in Loop: Header=BB14_66 Depth=1
	movq	-16(%rbp), %rdi
	movslq	-4(%rbp), %rax
	shlq	$4, %rax
	addq	%rax, %rdi
	movq	img, %rax
	movslq	72520(%rax), %rax
	shlq	$4, %rax
	movabsq	$INIT_IPR_P, %rsi
	addq	%rax, %rsi
	movslq	-4(%rbp), %rax
	shlq	$3, %rax
	addq	%rax, %rsi
	callq	biari_init_context
.LBB14_70:                              # %if.end273
                                        #   in Loop: Header=BB14_66 Depth=1
	jmp	.LBB14_71
.LBB14_71:                              # %for.inc274
                                        #   in Loop: Header=BB14_66 Depth=1
	movl	-4(%rbp), %eax
	addl	$1, %eax
	movl	%eax, -4(%rbp)
	jmp	.LBB14_66
.LBB14_72:                              # %for.end276
	movl	$0, -4(%rbp)
.LBB14_73:                              # %for.cond277
                                        # =>This Inner Loop Header: Depth=1
	cmpl	$4, -4(%rbp)
	jge	.LBB14_79
# %bb.74:                               # %for.body279
                                        #   in Loop: Header=BB14_73 Depth=1
	movq	img, %rax
	cmpl	$2, 24(%rax)
	jne	.LBB14_76
# %bb.75:                               # %if.then282
                                        #   in Loop: Header=BB14_73 Depth=1
	movq	-16(%rbp), %rdi
	addq	$32, %rdi
	movslq	-4(%rbp), %rax
	shlq	$4, %rax
	addq	%rax, %rdi
	movq	img, %rax
	movslq	72520(%rax), %rax
	shlq	$5, %rax
	movabsq	$INIT_CIPR_I, %rsi
	addq	%rax, %rsi
	movslq	-4(%rbp), %rax
	shlq	$3, %rax
	addq	%rax, %rsi
	callq	biari_init_context
	jmp	.LBB14_77
.LBB14_76:                              # %if.else292
                                        #   in Loop: Header=BB14_73 Depth=1
	movq	-16(%rbp), %rdi
	addq	$32, %rdi
	movslq	-4(%rbp), %rax
	shlq	$4, %rax
	addq	%rax, %rdi
	movq	img, %rax
	movslq	72520(%rax), %rax
	shlq	$5, %rax
	movabsq	$INIT_CIPR_P, %rsi
	addq	%rax, %rsi
	movslq	-4(%rbp), %rax
	shlq	$3, %rax
	addq	%rax, %rsi
	callq	biari_init_context
.LBB14_77:                              # %if.end303
                                        #   in Loop: Header=BB14_73 Depth=1
	jmp	.LBB14_78
.LBB14_78:                              # %for.inc304
                                        #   in Loop: Header=BB14_73 Depth=1
	movl	-4(%rbp), %eax
	addl	$1, %eax
	movl	%eax, -4(%rbp)
	jmp	.LBB14_73
.LBB14_79:                              # %for.end306
	movl	$0, -8(%rbp)
.LBB14_80:                              # %for.cond307
                                        # =>This Loop Header: Depth=1
                                        #     Child Loop BB14_82 Depth 2
	cmpl	$3, -8(%rbp)
	jge	.LBB14_90
# %bb.81:                               # %for.body309
                                        #   in Loop: Header=BB14_80 Depth=1
	movl	$0, -4(%rbp)
.LBB14_82:                              # %for.cond310
                                        #   Parent Loop BB14_80 Depth=1
                                        # =>  This Inner Loop Header: Depth=2
	cmpl	$4, -4(%rbp)
	jge	.LBB14_88
# %bb.83:                               # %for.body312
                                        #   in Loop: Header=BB14_82 Depth=2
	movq	img, %rax
	cmpl	$2, 24(%rax)
	jne	.LBB14_85
# %bb.84:                               # %if.then315
                                        #   in Loop: Header=BB14_82 Depth=2
	movq	-16(%rbp), %rdi
	addq	$96, %rdi
	movslq	-8(%rbp), %rax
	shlq	$6, %rax
	addq	%rax, %rdi
	movslq	-4(%rbp), %rax
	shlq	$4, %rax
	addq	%rax, %rdi
	movq	img, %rax
	movslq	72520(%rax), %rax
	imulq	$96, %rax, %rax
	movabsq	$INIT_CBP_I, %rsi
	addq	%rax, %rsi
	movslq	-8(%rbp), %rax
	shlq	$5, %rax
	addq	%rax, %rsi
	movslq	-4(%rbp), %rax
	shlq	$3, %rax
	addq	%rax, %rsi
	callq	biari_init_context
	jmp	.LBB14_86
.LBB14_85:                              # %if.else328
                                        #   in Loop: Header=BB14_82 Depth=2
	movq	-16(%rbp), %rdi
	addq	$96, %rdi
	movslq	-8(%rbp), %rax
	shlq	$6, %rax
	addq	%rax, %rdi
	movslq	-4(%rbp), %rax
	shlq	$4, %rax
	addq	%rax, %rdi
	movq	img, %rax
	movslq	72520(%rax), %rax
	imulq	$96, %rax, %rax
	movabsq	$INIT_CBP_P, %rsi
	addq	%rax, %rsi
	movslq	-8(%rbp), %rax
	shlq	$5, %rax
	addq	%rax, %rsi
	movslq	-4(%rbp), %rax
	shlq	$3, %rax
	addq	%rax, %rsi
	callq	biari_init_context
.LBB14_86:                              # %if.end342
                                        #   in Loop: Header=BB14_82 Depth=2
	jmp	.LBB14_87
.LBB14_87:                              # %for.inc343
                                        #   in Loop: Header=BB14_82 Depth=2
	movl	-4(%rbp), %eax
	addl	$1, %eax
	movl	%eax, -4(%rbp)
	jmp	.LBB14_82
.LBB14_88:                              # %for.end345
                                        #   in Loop: Header=BB14_80 Depth=1
	jmp	.LBB14_89
.LBB14_89:                              # %for.inc346
                                        #   in Loop: Header=BB14_80 Depth=1
	movl	-8(%rbp), %eax
	addl	$1, %eax
	movl	%eax, -8(%rbp)
	jmp	.LBB14_80
.LBB14_90:                              # %for.end348
	movl	$0, -8(%rbp)
.LBB14_91:                              # %for.cond349
                                        # =>This Loop Header: Depth=1
                                        #     Child Loop BB14_93 Depth 2
	cmpl	$10, -8(%rbp)
	jge	.LBB14_101
# %bb.92:                               # %for.body351
                                        #   in Loop: Header=BB14_91 Depth=1
	movl	$0, -4(%rbp)
.LBB14_93:                              # %for.cond352
                                        #   Parent Loop BB14_91 Depth=1
                                        # =>  This Inner Loop Header: Depth=2
	cmpl	$4, -4(%rbp)
	jge	.LBB14_99
# %bb.94:                               # %for.body354
                                        #   in Loop: Header=BB14_93 Depth=2
	movq	img, %rax
	cmpl	$2, 24(%rax)
	jne	.LBB14_96
# %bb.95:                               # %if.then357
                                        #   in Loop: Header=BB14_93 Depth=2
	movq	-16(%rbp), %rdi
	addq	$288, %rdi              # imm = 0x120
	movslq	-8(%rbp), %rax
	shlq	$6, %rax
	addq	%rax, %rdi
	movslq	-4(%rbp), %rax
	shlq	$4, %rax
	addq	%rax, %rdi
	movq	img, %rax
	movslq	72520(%rax), %rax
	shlq	$8, %rax
	movabsq	$INIT_BCBP_I, %rsi
	addq	%rax, %rsi
	movslq	-8(%rbp), %rax
	shlq	$5, %rax
	addq	%rax, %rsi
	movslq	-4(%rbp), %rax
	shlq	$3, %rax
	addq	%rax, %rsi
	callq	biari_init_context
	jmp	.LBB14_97
.LBB14_96:                              # %if.else370
                                        #   in Loop: Header=BB14_93 Depth=2
	movq	-16(%rbp), %rdi
	addq	$288, %rdi              # imm = 0x120
	movslq	-8(%rbp), %rax
	shlq	$6, %rax
	addq	%rax, %rdi
	movslq	-4(%rbp), %rax
	shlq	$4, %rax
	addq	%rax, %rdi
	movq	img, %rax
	movslq	72520(%rax), %rax
	shlq	$8, %rax
	movabsq	$INIT_BCBP_P, %rsi
	addq	%rax, %rsi
	movslq	-8(%rbp), %rax
	shlq	$5, %rax
	addq	%rax, %rsi
	movslq	-4(%rbp), %rax
	shlq	$3, %rax
	addq	%rax, %rsi
	callq	biari_init_context
.LBB14_97:                              # %if.end384
                                        #   in Loop: Header=BB14_93 Depth=2
	jmp	.LBB14_98
.LBB14_98:                              # %for.inc385
                                        #   in Loop: Header=BB14_93 Depth=2
	movl	-4(%rbp), %eax
	addl	$1, %eax
	movl	%eax, -4(%rbp)
	jmp	.LBB14_93
.LBB14_99:                              # %for.end387
                                        #   in Loop: Header=BB14_91 Depth=1
	jmp	.LBB14_100
.LBB14_100:                             # %for.inc388
                                        #   in Loop: Header=BB14_91 Depth=1
	movl	-8(%rbp), %eax
	addl	$1, %eax
	movl	%eax, -8(%rbp)
	jmp	.LBB14_91
.LBB14_101:                             # %for.end390
	movl	$0, -8(%rbp)
.LBB14_102:                             # %for.cond391
                                        # =>This Loop Header: Depth=1
                                        #     Child Loop BB14_104 Depth 2
	cmpl	$10, -8(%rbp)
	jge	.LBB14_112
# %bb.103:                              # %for.body393
                                        #   in Loop: Header=BB14_102 Depth=1
	movl	$0, -4(%rbp)
.LBB14_104:                             # %for.cond394
                                        #   Parent Loop BB14_102 Depth=1
                                        # =>  This Inner Loop Header: Depth=2
	cmpl	$15, -4(%rbp)
	jge	.LBB14_110
# %bb.105:                              # %for.body396
                                        #   in Loop: Header=BB14_104 Depth=2
	movq	img, %rax
	cmpl	$2, 24(%rax)
	jne	.LBB14_107
# %bb.106:                              # %if.then399
                                        #   in Loop: Header=BB14_104 Depth=2
	movq	-16(%rbp), %rdi
	addq	$928, %rdi              # imm = 0x3A0
	movslq	-8(%rbp), %rax
	imulq	$240, %rax, %rax
	addq	%rax, %rdi
	movslq	-4(%rbp), %rax
	shlq	$4, %rax
	addq	%rax, %rdi
	movq	img, %rax
	movslq	72520(%rax), %rax
	imulq	$960, %rax, %rax        # imm = 0x3C0
	movabsq	$INIT_MAP_I, %rsi
	addq	%rax, %rsi
	movslq	-8(%rbp), %rax
	imulq	$120, %rax, %rax
	addq	%rax, %rsi
	movslq	-4(%rbp), %rax
	shlq	$3, %rax
	addq	%rax, %rsi
	callq	biari_init_context
	jmp	.LBB14_108
.LBB14_107:                             # %if.else412
                                        #   in Loop: Header=BB14_104 Depth=2
	movq	-16(%rbp), %rdi
	addq	$928, %rdi              # imm = 0x3A0
	movslq	-8(%rbp), %rax
	imulq	$240, %rax, %rax
	addq	%rax, %rdi
	movslq	-4(%rbp), %rax
	shlq	$4, %rax
	addq	%rax, %rdi
	movq	img, %rax
	movslq	72520(%rax), %rax
	imulq	$960, %rax, %rax        # imm = 0x3C0
	movabsq	$INIT_MAP_P, %rsi
	addq	%rax, %rsi
	movslq	-8(%rbp), %rax
	imulq	$120, %rax, %rax
	addq	%rax, %rsi
	movslq	-4(%rbp), %rax
	shlq	$3, %rax
	addq	%rax, %rsi
	callq	biari_init_context
.LBB14_108:                             # %if.end426
                                        #   in Loop: Header=BB14_104 Depth=2
	jmp	.LBB14_109
.LBB14_109:                             # %for.inc427
                                        #   in Loop: Header=BB14_104 Depth=2
	movl	-4(%rbp), %eax
	addl	$1, %eax
	movl	%eax, -4(%rbp)
	jmp	.LBB14_104
.LBB14_110:                             # %for.end429
                                        #   in Loop: Header=BB14_102 Depth=1
	jmp	.LBB14_111
.LBB14_111:                             # %for.inc430
                                        #   in Loop: Header=BB14_102 Depth=1
	movl	-8(%rbp), %eax
	addl	$1, %eax
	movl	%eax, -8(%rbp)
	jmp	.LBB14_102
.LBB14_112:                             # %for.end432
	movl	$0, -8(%rbp)
.LBB14_113:                             # %for.cond433
                                        # =>This Loop Header: Depth=1
                                        #     Child Loop BB14_115 Depth 2
	cmpl	$10, -8(%rbp)
	jge	.LBB14_123
# %bb.114:                              # %for.body435
                                        #   in Loop: Header=BB14_113 Depth=1
	movl	$0, -4(%rbp)
.LBB14_115:                             # %for.cond436
                                        #   Parent Loop BB14_113 Depth=1
                                        # =>  This Inner Loop Header: Depth=2
	cmpl	$15, -4(%rbp)
	jge	.LBB14_121
# %bb.116:                              # %for.body438
                                        #   in Loop: Header=BB14_115 Depth=2
	movq	img, %rax
	cmpl	$2, 24(%rax)
	jne	.LBB14_118
# %bb.117:                              # %if.then441
                                        #   in Loop: Header=BB14_115 Depth=2
	movq	-16(%rbp), %rdi
	addq	$3328, %rdi             # imm = 0xD00
	movslq	-8(%rbp), %rax
	imulq	$240, %rax, %rax
	addq	%rax, %rdi
	movslq	-4(%rbp), %rax
	shlq	$4, %rax
	addq	%rax, %rdi
	movq	img, %rax
	movslq	72520(%rax), %rax
	imulq	$960, %rax, %rax        # imm = 0x3C0
	movabsq	$INIT_LAST_I, %rsi
	addq	%rax, %rsi
	movslq	-8(%rbp), %rax
	imulq	$120, %rax, %rax
	addq	%rax, %rsi
	movslq	-4(%rbp), %rax
	shlq	$3, %rax
	addq	%rax, %rsi
	callq	biari_init_context
	jmp	.LBB14_119
.LBB14_118:                             # %if.else454
                                        #   in Loop: Header=BB14_115 Depth=2
	movq	-16(%rbp), %rdi
	addq	$3328, %rdi             # imm = 0xD00
	movslq	-8(%rbp), %rax
	imulq	$240, %rax, %rax
	addq	%rax, %rdi
	movslq	-4(%rbp), %rax
	shlq	$4, %rax
	addq	%rax, %rdi
	movq	img, %rax
	movslq	72520(%rax), %rax
	imulq	$960, %rax, %rax        # imm = 0x3C0
	movabsq	$INIT_LAST_P, %rsi
	addq	%rax, %rsi
	movslq	-8(%rbp), %rax
	imulq	$120, %rax, %rax
	addq	%rax, %rsi
	movslq	-4(%rbp), %rax
	shlq	$3, %rax
	addq	%rax, %rsi
	callq	biari_init_context
.LBB14_119:                             # %if.end468
                                        #   in Loop: Header=BB14_115 Depth=2
	jmp	.LBB14_120
.LBB14_120:                             # %for.inc469
                                        #   in Loop: Header=BB14_115 Depth=2
	movl	-4(%rbp), %eax
	addl	$1, %eax
	movl	%eax, -4(%rbp)
	jmp	.LBB14_115
.LBB14_121:                             # %for.end471
                                        #   in Loop: Header=BB14_113 Depth=1
	jmp	.LBB14_122
.LBB14_122:                             # %for.inc472
                                        #   in Loop: Header=BB14_113 Depth=1
	movl	-8(%rbp), %eax
	addl	$1, %eax
	movl	%eax, -8(%rbp)
	jmp	.LBB14_113
.LBB14_123:                             # %for.end474
	movl	$0, -8(%rbp)
.LBB14_124:                             # %for.cond475
                                        # =>This Loop Header: Depth=1
                                        #     Child Loop BB14_126 Depth 2
	cmpl	$10, -8(%rbp)
	jge	.LBB14_134
# %bb.125:                              # %for.body477
                                        #   in Loop: Header=BB14_124 Depth=1
	movl	$0, -4(%rbp)
.LBB14_126:                             # %for.cond478
                                        #   Parent Loop BB14_124 Depth=1
                                        # =>  This Inner Loop Header: Depth=2
	cmpl	$5, -4(%rbp)
	jge	.LBB14_132
# %bb.127:                              # %for.body480
                                        #   in Loop: Header=BB14_126 Depth=2
	movq	img, %rax
	cmpl	$2, 24(%rax)
	jne	.LBB14_129
# %bb.128:                              # %if.then483
                                        #   in Loop: Header=BB14_126 Depth=2
	movq	-16(%rbp), %rdi
	addq	$5728, %rdi             # imm = 0x1660
	movslq	-8(%rbp), %rax
	imulq	$80, %rax, %rax
	addq	%rax, %rdi
	movslq	-4(%rbp), %rax
	shlq	$4, %rax
	addq	%rax, %rdi
	movq	img, %rax
	movslq	72520(%rax), %rax
	imulq	$320, %rax, %rax        # imm = 0x140
	movabsq	$INIT_ONE_I, %rsi
	addq	%rax, %rsi
	movslq	-8(%rbp), %rax
	imulq	$40, %rax, %rax
	addq	%rax, %rsi
	movslq	-4(%rbp), %rax
	shlq	$3, %rax
	addq	%rax, %rsi
	callq	biari_init_context
	jmp	.LBB14_130
.LBB14_129:                             # %if.else496
                                        #   in Loop: Header=BB14_126 Depth=2
	movq	-16(%rbp), %rdi
	addq	$5728, %rdi             # imm = 0x1660
	movslq	-8(%rbp), %rax
	imulq	$80, %rax, %rax
	addq	%rax, %rdi
	movslq	-4(%rbp), %rax
	shlq	$4, %rax
	addq	%rax, %rdi
	movq	img, %rax
	movslq	72520(%rax), %rax
	imulq	$320, %rax, %rax        # imm = 0x140
	movabsq	$INIT_ONE_P, %rsi
	addq	%rax, %rsi
	movslq	-8(%rbp), %rax
	imulq	$40, %rax, %rax
	addq	%rax, %rsi
	movslq	-4(%rbp), %rax
	shlq	$3, %rax
	addq	%rax, %rsi
	callq	biari_init_context
.LBB14_130:                             # %if.end510
                                        #   in Loop: Header=BB14_126 Depth=2
	jmp	.LBB14_131
.LBB14_131:                             # %for.inc511
                                        #   in Loop: Header=BB14_126 Depth=2
	movl	-4(%rbp), %eax
	addl	$1, %eax
	movl	%eax, -4(%rbp)
	jmp	.LBB14_126
.LBB14_132:                             # %for.end513
                                        #   in Loop: Header=BB14_124 Depth=1
	jmp	.LBB14_133
.LBB14_133:                             # %for.inc514
                                        #   in Loop: Header=BB14_124 Depth=1
	movl	-8(%rbp), %eax
	addl	$1, %eax
	movl	%eax, -8(%rbp)
	jmp	.LBB14_124
.LBB14_134:                             # %for.end516
	movl	$0, -8(%rbp)
.LBB14_135:                             # %for.cond517
                                        # =>This Loop Header: Depth=1
                                        #     Child Loop BB14_137 Depth 2
	cmpl	$10, -8(%rbp)
	jge	.LBB14_145
# %bb.136:                              # %for.body519
                                        #   in Loop: Header=BB14_135 Depth=1
	movl	$0, -4(%rbp)
.LBB14_137:                             # %for.cond520
                                        #   Parent Loop BB14_135 Depth=1
                                        # =>  This Inner Loop Header: Depth=2
	cmpl	$5, -4(%rbp)
	jge	.LBB14_143
# %bb.138:                              # %for.body522
                                        #   in Loop: Header=BB14_137 Depth=2
	movq	img, %rax
	cmpl	$2, 24(%rax)
	jne	.LBB14_140
# %bb.139:                              # %if.then525
                                        #   in Loop: Header=BB14_137 Depth=2
	movq	-16(%rbp), %rdi
	addq	$6528, %rdi             # imm = 0x1980
	movslq	-8(%rbp), %rax
	imulq	$80, %rax, %rax
	addq	%rax, %rdi
	movslq	-4(%rbp), %rax
	shlq	$4, %rax
	addq	%rax, %rdi
	movq	img, %rax
	movslq	72520(%rax), %rax
	imulq	$320, %rax, %rax        # imm = 0x140
	movabsq	$INIT_ABS_I, %rsi
	addq	%rax, %rsi
	movslq	-8(%rbp), %rax
	imulq	$40, %rax, %rax
	addq	%rax, %rsi
	movslq	-4(%rbp), %rax
	shlq	$3, %rax
	addq	%rax, %rsi
	callq	biari_init_context
	jmp	.LBB14_141
.LBB14_140:                             # %if.else538
                                        #   in Loop: Header=BB14_137 Depth=2
	movq	-16(%rbp), %rdi
	addq	$6528, %rdi             # imm = 0x1980
	movslq	-8(%rbp), %rax
	imulq	$80, %rax, %rax
	addq	%rax, %rdi
	movslq	-4(%rbp), %rax
	shlq	$4, %rax
	addq	%rax, %rdi
	movq	img, %rax
	movslq	72520(%rax), %rax
	imulq	$320, %rax, %rax        # imm = 0x140
	movabsq	$INIT_ABS_P, %rsi
	addq	%rax, %rsi
	movslq	-8(%rbp), %rax
	imulq	$40, %rax, %rax
	addq	%rax, %rsi
	movslq	-4(%rbp), %rax
	shlq	$3, %rax
	addq	%rax, %rsi
	callq	biari_init_context
.LBB14_141:                             # %if.end552
                                        #   in Loop: Header=BB14_137 Depth=2
	jmp	.LBB14_142
.LBB14_142:                             # %for.inc553
                                        #   in Loop: Header=BB14_137 Depth=2
	movl	-4(%rbp), %eax
	addl	$1, %eax
	movl	%eax, -4(%rbp)
	jmp	.LBB14_137
.LBB14_143:                             # %for.end555
                                        #   in Loop: Header=BB14_135 Depth=1
	jmp	.LBB14_144
.LBB14_144:                             # %for.inc556
                                        #   in Loop: Header=BB14_135 Depth=1
	movl	-8(%rbp), %eax
	addl	$1, %eax
	movl	%eax, -8(%rbp)
	jmp	.LBB14_135
.LBB14_145:                             # %for.end558
	movl	$0, -8(%rbp)
.LBB14_146:                             # %for.cond559
                                        # =>This Loop Header: Depth=1
                                        #     Child Loop BB14_148 Depth 2
	cmpl	$10, -8(%rbp)
	jge	.LBB14_156
# %bb.147:                              # %for.body561
                                        #   in Loop: Header=BB14_146 Depth=1
	movl	$0, -4(%rbp)
.LBB14_148:                             # %for.cond562
                                        #   Parent Loop BB14_146 Depth=1
                                        # =>  This Inner Loop Header: Depth=2
	cmpl	$15, -4(%rbp)
	jge	.LBB14_154
# %bb.149:                              # %for.body564
                                        #   in Loop: Header=BB14_148 Depth=2
	movq	img, %rax
	cmpl	$2, 24(%rax)
	jne	.LBB14_151
# %bb.150:                              # %if.then567
                                        #   in Loop: Header=BB14_148 Depth=2
	movq	-16(%rbp), %rdi
	addq	$7328, %rdi             # imm = 0x1CA0
	movslq	-8(%rbp), %rax
	imulq	$240, %rax, %rax
	addq	%rax, %rdi
	movslq	-4(%rbp), %rax
	shlq	$4, %rax
	addq	%rax, %rdi
	movq	img, %rax
	movslq	72520(%rax), %rax
	imulq	$960, %rax, %rax        # imm = 0x3C0
	movabsq	$INIT_FLD_MAP_I, %rsi
	addq	%rax, %rsi
	movslq	-8(%rbp), %rax
	imulq	$120, %rax, %rax
	addq	%rax, %rsi
	movslq	-4(%rbp), %rax
	shlq	$3, %rax
	addq	%rax, %rsi
	callq	biari_init_context
	jmp	.LBB14_152
.LBB14_151:                             # %if.else580
                                        #   in Loop: Header=BB14_148 Depth=2
	movq	-16(%rbp), %rdi
	addq	$7328, %rdi             # imm = 0x1CA0
	movslq	-8(%rbp), %rax
	imulq	$240, %rax, %rax
	addq	%rax, %rdi
	movslq	-4(%rbp), %rax
	shlq	$4, %rax
	addq	%rax, %rdi
	movq	img, %rax
	movslq	72520(%rax), %rax
	imulq	$960, %rax, %rax        # imm = 0x3C0
	movabsq	$INIT_FLD_MAP_P, %rsi
	addq	%rax, %rsi
	movslq	-8(%rbp), %rax
	imulq	$120, %rax, %rax
	addq	%rax, %rsi
	movslq	-4(%rbp), %rax
	shlq	$3, %rax
	addq	%rax, %rsi
	callq	biari_init_context
.LBB14_152:                             # %if.end594
                                        #   in Loop: Header=BB14_148 Depth=2
	jmp	.LBB14_153
.LBB14_153:                             # %for.inc595
                                        #   in Loop: Header=BB14_148 Depth=2
	movl	-4(%rbp), %eax
	addl	$1, %eax
	movl	%eax, -4(%rbp)
	jmp	.LBB14_148
.LBB14_154:                             # %for.end597
                                        #   in Loop: Header=BB14_146 Depth=1
	jmp	.LBB14_155
.LBB14_155:                             # %for.inc598
                                        #   in Loop: Header=BB14_146 Depth=1
	movl	-8(%rbp), %eax
	addl	$1, %eax
	movl	%eax, -8(%rbp)
	jmp	.LBB14_146
.LBB14_156:                             # %for.end600
	movl	$0, -8(%rbp)
.LBB14_157:                             # %for.cond601
                                        # =>This Loop Header: Depth=1
                                        #     Child Loop BB14_159 Depth 2
	cmpl	$10, -8(%rbp)
	jge	.LBB14_167
# %bb.158:                              # %for.body603
                                        #   in Loop: Header=BB14_157 Depth=1
	movl	$0, -4(%rbp)
.LBB14_159:                             # %for.cond604
                                        #   Parent Loop BB14_157 Depth=1
                                        # =>  This Inner Loop Header: Depth=2
	cmpl	$15, -4(%rbp)
	jge	.LBB14_165
# %bb.160:                              # %for.body606
                                        #   in Loop: Header=BB14_159 Depth=2
	movq	img, %rax
	cmpl	$2, 24(%rax)
	jne	.LBB14_162
# %bb.161:                              # %if.then609
                                        #   in Loop: Header=BB14_159 Depth=2
	movq	-16(%rbp), %rdi
	addq	$9728, %rdi             # imm = 0x2600
	movslq	-8(%rbp), %rax
	imulq	$240, %rax, %rax
	addq	%rax, %rdi
	movslq	-4(%rbp), %rax
	shlq	$4, %rax
	addq	%rax, %rdi
	movq	img, %rax
	movslq	72520(%rax), %rax
	imulq	$960, %rax, %rax        # imm = 0x3C0
	movabsq	$INIT_FLD_LAST_I, %rsi
	addq	%rax, %rsi
	movslq	-8(%rbp), %rax
	imulq	$120, %rax, %rax
	addq	%rax, %rsi
	movslq	-4(%rbp), %rax
	shlq	$3, %rax
	addq	%rax, %rsi
	callq	biari_init_context
	jmp	.LBB14_163
.LBB14_162:                             # %if.else622
                                        #   in Loop: Header=BB14_159 Depth=2
	movq	-16(%rbp), %rdi
	addq	$9728, %rdi             # imm = 0x2600
	movslq	-8(%rbp), %rax
	imulq	$240, %rax, %rax
	addq	%rax, %rdi
	movslq	-4(%rbp), %rax
	shlq	$4, %rax
	addq	%rax, %rdi
	movq	img, %rax
	movslq	72520(%rax), %rax
	imulq	$960, %rax, %rax        # imm = 0x3C0
	movabsq	$INIT_FLD_LAST_P, %rsi
	addq	%rax, %rsi
	movslq	-8(%rbp), %rax
	imulq	$120, %rax, %rax
	addq	%rax, %rsi
	movslq	-4(%rbp), %rax
	shlq	$3, %rax
	addq	%rax, %rsi
	callq	biari_init_context
.LBB14_163:                             # %if.end636
                                        #   in Loop: Header=BB14_159 Depth=2
	jmp	.LBB14_164
.LBB14_164:                             # %for.inc637
                                        #   in Loop: Header=BB14_159 Depth=2
	movl	-4(%rbp), %eax
	addl	$1, %eax
	movl	%eax, -4(%rbp)
	jmp	.LBB14_159
.LBB14_165:                             # %for.end639
                                        #   in Loop: Header=BB14_157 Depth=1
	jmp	.LBB14_166
.LBB14_166:                             # %for.inc640
                                        #   in Loop: Header=BB14_157 Depth=1
	movl	-8(%rbp), %eax
	addl	$1, %eax
	movl	%eax, -8(%rbp)
	jmp	.LBB14_157
.LBB14_167:                             # %for.end642
	cmpl	$1500156411, -28(%rbp)  # imm = 0x596A91FB
	jne	.LBB14_169
.LBB14_168:
	addq	$32, %rsp
	popq	%rbp
	.cfi_def_cfa %rsp, 8
	retq
.LBB14_169:                             # %func_exit
	.cfi_def_cfa %rbp, 16
	callq	detect_breach
	jmp	.LBB14_168
.Lfunc_end14:
	.size	init_contexts.7, .Lfunc_end14-init_contexts.7
	.cfi_endproc
                                        # -- End function
	.globl	init_contexts.8         # -- Begin function init_contexts.8
	.p2align	4, 0x90
	.type	init_contexts.8,@function
init_contexts.8:                        # @init_contexts.8
	.cfi_startproc
# %bb.0:                                # %entry
	pushq	%rbp
	.cfi_def_cfa_offset 16
	.cfi_offset %rbp, -16
	movq	%rsp, %rbp
	.cfi_def_cfa_register %rbp
	subq	$32, %rsp
	movl	$157877458, -28(%rbp)   # imm = 0x96904D2
	movq	img, %rax
	movq	14160(%rax), %rax
	movq	32(%rax), %rax
	movq	%rax, -24(%rbp)
	movq	img, %rax
	movq	14160(%rax), %rax
	movq	40(%rax), %rax
	movq	%rax, -16(%rbp)
	movl	$0, -8(%rbp)
.LBB15_1:                               # %for.cond
                                        # =>This Loop Header: Depth=1
                                        #     Child Loop BB15_3 Depth 2
	cmpl	$3, -8(%rbp)
	jge	.LBB15_11
# %bb.2:                                # %for.body
                                        #   in Loop: Header=BB15_1 Depth=1
	movl	$0, -4(%rbp)
.LBB15_3:                               # %for.cond2
                                        #   Parent Loop BB15_1 Depth=1
                                        # =>  This Inner Loop Header: Depth=2
	cmpl	$11, -4(%rbp)
	jge	.LBB15_9
# %bb.4:                                # %for.body4
                                        #   in Loop: Header=BB15_3 Depth=2
	movq	img, %rax
	cmpl	$2, 24(%rax)
	jne	.LBB15_6
# %bb.5:                                # %if.then
                                        #   in Loop: Header=BB15_3 Depth=2
	movq	-24(%rbp), %rdi
	movslq	-8(%rbp), %rax
	imulq	$176, %rax, %rax
	addq	%rax, %rdi
	movslq	-4(%rbp), %rax
	shlq	$4, %rax
	addq	%rax, %rdi
	movq	img, %rax
	movslq	72520(%rax), %rax
	imulq	$264, %rax, %rax        # imm = 0x108
	movabsq	$INIT_MB_TYPE_I, %rsi
	addq	%rax, %rsi
	movslq	-8(%rbp), %rax
	imulq	$88, %rax, %rax
	addq	%rax, %rsi
	movslq	-4(%rbp), %rax
	shlq	$3, %rax
	addq	%rax, %rsi
	callq	biari_init_context
	jmp	.LBB15_7
.LBB15_6:                               # %if.else
                                        #   in Loop: Header=BB15_3 Depth=2
	movq	-24(%rbp), %rdi
	movslq	-8(%rbp), %rax
	imulq	$176, %rax, %rax
	addq	%rax, %rdi
	movslq	-4(%rbp), %rax
	shlq	$4, %rax
	addq	%rax, %rdi
	movq	img, %rax
	movslq	72520(%rax), %rax
	imulq	$264, %rax, %rax        # imm = 0x108
	movabsq	$INIT_MB_TYPE_P, %rsi
	addq	%rax, %rsi
	movslq	-8(%rbp), %rax
	imulq	$88, %rax, %rax
	addq	%rax, %rsi
	movslq	-4(%rbp), %rax
	shlq	$3, %rax
	addq	%rax, %rsi
	callq	biari_init_context
.LBB15_7:                               # %if.end
                                        #   in Loop: Header=BB15_3 Depth=2
	jmp	.LBB15_8
.LBB15_8:                               # %for.inc
                                        #   in Loop: Header=BB15_3 Depth=2
	movl	-4(%rbp), %eax
	addl	$1, %eax
	movl	%eax, -4(%rbp)
	jmp	.LBB15_3
.LBB15_9:                               # %for.end
                                        #   in Loop: Header=BB15_1 Depth=1
	jmp	.LBB15_10
.LBB15_10:                              # %for.inc28
                                        #   in Loop: Header=BB15_1 Depth=1
	movl	-8(%rbp), %eax
	addl	$1, %eax
	movl	%eax, -8(%rbp)
	jmp	.LBB15_1
.LBB15_11:                              # %for.end30
	movl	$0, -8(%rbp)
.LBB15_12:                              # %for.cond31
                                        # =>This Loop Header: Depth=1
                                        #     Child Loop BB15_14 Depth 2
	cmpl	$2, -8(%rbp)
	jge	.LBB15_22
# %bb.13:                               # %for.body33
                                        #   in Loop: Header=BB15_12 Depth=1
	movl	$0, -4(%rbp)
.LBB15_14:                              # %for.cond34
                                        #   Parent Loop BB15_12 Depth=1
                                        # =>  This Inner Loop Header: Depth=2
	cmpl	$9, -4(%rbp)
	jge	.LBB15_20
# %bb.15:                               # %for.body36
                                        #   in Loop: Header=BB15_14 Depth=2
	movq	img, %rax
	cmpl	$2, 24(%rax)
	jne	.LBB15_17
# %bb.16:                               # %if.then39
                                        #   in Loop: Header=BB15_14 Depth=2
	movq	-24(%rbp), %rdi
	addq	$528, %rdi              # imm = 0x210
	movslq	-8(%rbp), %rax
	imulq	$144, %rax, %rax
	addq	%rax, %rdi
	movslq	-4(%rbp), %rax
	shlq	$4, %rax
	addq	%rax, %rdi
	movq	img, %rax
	movslq	72520(%rax), %rax
	imulq	$144, %rax, %rax
	movabsq	$INIT_B8_TYPE_I, %rsi
	addq	%rax, %rsi
	movslq	-8(%rbp), %rax
	imulq	$72, %rax, %rax
	addq	%rax, %rsi
	movslq	-4(%rbp), %rax
	shlq	$3, %rax
	addq	%rax, %rsi
	callq	biari_init_context
	jmp	.LBB15_18
.LBB15_17:                              # %if.else52
                                        #   in Loop: Header=BB15_14 Depth=2
	movq	-24(%rbp), %rdi
	addq	$528, %rdi              # imm = 0x210
	movslq	-8(%rbp), %rax
	imulq	$144, %rax, %rax
	addq	%rax, %rdi
	movslq	-4(%rbp), %rax
	shlq	$4, %rax
	addq	%rax, %rdi
	movq	img, %rax
	movslq	72520(%rax), %rax
	imulq	$144, %rax, %rax
	movabsq	$INIT_B8_TYPE_P, %rsi
	addq	%rax, %rsi
	movslq	-8(%rbp), %rax
	imulq	$72, %rax, %rax
	addq	%rax, %rsi
	movslq	-4(%rbp), %rax
	shlq	$3, %rax
	addq	%rax, %rsi
	callq	biari_init_context
.LBB15_18:                              # %if.end66
                                        #   in Loop: Header=BB15_14 Depth=2
	jmp	.LBB15_19
.LBB15_19:                              # %for.inc67
                                        #   in Loop: Header=BB15_14 Depth=2
	movl	-4(%rbp), %eax
	addl	$1, %eax
	movl	%eax, -4(%rbp)
	jmp	.LBB15_14
.LBB15_20:                              # %for.end69
                                        #   in Loop: Header=BB15_12 Depth=1
	jmp	.LBB15_21
.LBB15_21:                              # %for.inc70
                                        #   in Loop: Header=BB15_12 Depth=1
	movl	-8(%rbp), %eax
	addl	$1, %eax
	movl	%eax, -8(%rbp)
	jmp	.LBB15_12
.LBB15_22:                              # %for.end72
	movl	$0, -8(%rbp)
.LBB15_23:                              # %for.cond73
                                        # =>This Loop Header: Depth=1
                                        #     Child Loop BB15_25 Depth 2
	cmpl	$2, -8(%rbp)
	jge	.LBB15_33
# %bb.24:                               # %for.body75
                                        #   in Loop: Header=BB15_23 Depth=1
	movl	$0, -4(%rbp)
.LBB15_25:                              # %for.cond76
                                        #   Parent Loop BB15_23 Depth=1
                                        # =>  This Inner Loop Header: Depth=2
	cmpl	$10, -4(%rbp)
	jge	.LBB15_31
# %bb.26:                               # %for.body78
                                        #   in Loop: Header=BB15_25 Depth=2
	movq	img, %rax
	cmpl	$2, 24(%rax)
	jne	.LBB15_28
# %bb.27:                               # %if.then81
                                        #   in Loop: Header=BB15_25 Depth=2
	movq	-24(%rbp), %rdi
	addq	$816, %rdi              # imm = 0x330
	movslq	-8(%rbp), %rax
	imulq	$160, %rax, %rax
	addq	%rax, %rdi
	movslq	-4(%rbp), %rax
	shlq	$4, %rax
	addq	%rax, %rdi
	movq	img, %rax
	movslq	72520(%rax), %rax
	imulq	$160, %rax, %rax
	movabsq	$INIT_MV_RES_I, %rsi
	addq	%rax, %rsi
	movslq	-8(%rbp), %rax
	imulq	$80, %rax, %rax
	addq	%rax, %rsi
	movslq	-4(%rbp), %rax
	shlq	$3, %rax
	addq	%rax, %rsi
	callq	biari_init_context
	jmp	.LBB15_29
.LBB15_28:                              # %if.else94
                                        #   in Loop: Header=BB15_25 Depth=2
	movq	-24(%rbp), %rdi
	addq	$816, %rdi              # imm = 0x330
	movslq	-8(%rbp), %rax
	imulq	$160, %rax, %rax
	addq	%rax, %rdi
	movslq	-4(%rbp), %rax
	shlq	$4, %rax
	addq	%rax, %rdi
	movq	img, %rax
	movslq	72520(%rax), %rax
	imulq	$160, %rax, %rax
	movabsq	$INIT_MV_RES_P, %rsi
	addq	%rax, %rsi
	movslq	-8(%rbp), %rax
	imulq	$80, %rax, %rax
	addq	%rax, %rsi
	movslq	-4(%rbp), %rax
	shlq	$3, %rax
	addq	%rax, %rsi
	callq	biari_init_context
.LBB15_29:                              # %if.end108
                                        #   in Loop: Header=BB15_25 Depth=2
	jmp	.LBB15_30
.LBB15_30:                              # %for.inc109
                                        #   in Loop: Header=BB15_25 Depth=2
	movl	-4(%rbp), %eax
	addl	$1, %eax
	movl	%eax, -4(%rbp)
	jmp	.LBB15_25
.LBB15_31:                              # %for.end111
                                        #   in Loop: Header=BB15_23 Depth=1
	jmp	.LBB15_32
.LBB15_32:                              # %for.inc112
                                        #   in Loop: Header=BB15_23 Depth=1
	movl	-8(%rbp), %eax
	addl	$1, %eax
	movl	%eax, -8(%rbp)
	jmp	.LBB15_23
.LBB15_33:                              # %for.end114
	movl	$0, -8(%rbp)
.LBB15_34:                              # %for.cond115
                                        # =>This Loop Header: Depth=1
                                        #     Child Loop BB15_36 Depth 2
	cmpl	$2, -8(%rbp)
	jge	.LBB15_44
# %bb.35:                               # %for.body117
                                        #   in Loop: Header=BB15_34 Depth=1
	movl	$0, -4(%rbp)
.LBB15_36:                              # %for.cond118
                                        #   Parent Loop BB15_34 Depth=1
                                        # =>  This Inner Loop Header: Depth=2
	cmpl	$6, -4(%rbp)
	jge	.LBB15_42
# %bb.37:                               # %for.body120
                                        #   in Loop: Header=BB15_36 Depth=2
	movq	img, %rax
	cmpl	$2, 24(%rax)
	jne	.LBB15_39
# %bb.38:                               # %if.then123
                                        #   in Loop: Header=BB15_36 Depth=2
	movq	-24(%rbp), %rdi
	addq	$1136, %rdi             # imm = 0x470
	movslq	-8(%rbp), %rax
	imulq	$96, %rax, %rax
	addq	%rax, %rdi
	movslq	-4(%rbp), %rax
	shlq	$4, %rax
	addq	%rax, %rdi
	movq	img, %rax
	movslq	72520(%rax), %rax
	imulq	$96, %rax, %rax
	movabsq	$INIT_REF_NO_I, %rsi
	addq	%rax, %rsi
	movslq	-8(%rbp), %rax
	imulq	$48, %rax, %rax
	addq	%rax, %rsi
	movslq	-4(%rbp), %rax
	shlq	$3, %rax
	addq	%rax, %rsi
	callq	biari_init_context
	jmp	.LBB15_40
.LBB15_39:                              # %if.else136
                                        #   in Loop: Header=BB15_36 Depth=2
	movq	-24(%rbp), %rdi
	addq	$1136, %rdi             # imm = 0x470
	movslq	-8(%rbp), %rax
	imulq	$96, %rax, %rax
	addq	%rax, %rdi
	movslq	-4(%rbp), %rax
	shlq	$4, %rax
	addq	%rax, %rdi
	movq	img, %rax
	movslq	72520(%rax), %rax
	imulq	$96, %rax, %rax
	movabsq	$INIT_REF_NO_P, %rsi
	addq	%rax, %rsi
	movslq	-8(%rbp), %rax
	imulq	$48, %rax, %rax
	addq	%rax, %rsi
	movslq	-4(%rbp), %rax
	shlq	$3, %rax
	addq	%rax, %rsi
	callq	biari_init_context
.LBB15_40:                              # %if.end150
                                        #   in Loop: Header=BB15_36 Depth=2
	jmp	.LBB15_41
.LBB15_41:                              # %for.inc151
                                        #   in Loop: Header=BB15_36 Depth=2
	movl	-4(%rbp), %eax
	addl	$1, %eax
	movl	%eax, -4(%rbp)
	jmp	.LBB15_36
.LBB15_42:                              # %for.end153
                                        #   in Loop: Header=BB15_34 Depth=1
	jmp	.LBB15_43
.LBB15_43:                              # %for.inc154
                                        #   in Loop: Header=BB15_34 Depth=1
	movl	-8(%rbp), %eax
	addl	$1, %eax
	movl	%eax, -8(%rbp)
	jmp	.LBB15_34
.LBB15_44:                              # %for.end156
	movl	$0, -4(%rbp)
.LBB15_45:                              # %for.cond157
                                        # =>This Inner Loop Header: Depth=1
	cmpl	$4, -4(%rbp)
	jge	.LBB15_51
# %bb.46:                               # %for.body159
                                        #   in Loop: Header=BB15_45 Depth=1
	movq	img, %rax
	cmpl	$2, 24(%rax)
	jne	.LBB15_48
# %bb.47:                               # %if.then162
                                        #   in Loop: Header=BB15_45 Depth=1
	movq	-24(%rbp), %rdi
	addq	$1328, %rdi             # imm = 0x530
	movslq	-4(%rbp), %rax
	shlq	$4, %rax
	addq	%rax, %rdi
	movq	img, %rax
	movslq	72520(%rax), %rax
	shlq	$5, %rax
	movabsq	$INIT_DELTA_QP_I, %rsi
	addq	%rax, %rsi
	movslq	-4(%rbp), %rax
	shlq	$3, %rax
	addq	%rax, %rsi
	callq	biari_init_context
	jmp	.LBB15_49
.LBB15_48:                              # %if.else172
                                        #   in Loop: Header=BB15_45 Depth=1
	movq	-24(%rbp), %rdi
	addq	$1328, %rdi             # imm = 0x530
	movslq	-4(%rbp), %rax
	shlq	$4, %rax
	addq	%rax, %rdi
	movq	img, %rax
	movslq	72520(%rax), %rax
	shlq	$5, %rax
	movabsq	$INIT_DELTA_QP_P, %rsi
	addq	%rax, %rsi
	movslq	-4(%rbp), %rax
	shlq	$3, %rax
	addq	%rax, %rsi
	callq	biari_init_context
.LBB15_49:                              # %if.end183
                                        #   in Loop: Header=BB15_45 Depth=1
	jmp	.LBB15_50
.LBB15_50:                              # %for.inc184
                                        #   in Loop: Header=BB15_45 Depth=1
	movl	-4(%rbp), %eax
	addl	$1, %eax
	movl	%eax, -4(%rbp)
	jmp	.LBB15_45
.LBB15_51:                              # %for.end186
	movl	$0, -4(%rbp)
.LBB15_52:                              # %for.cond187
                                        # =>This Inner Loop Header: Depth=1
	cmpl	$4, -4(%rbp)
	jge	.LBB15_58
# %bb.53:                               # %for.body189
                                        #   in Loop: Header=BB15_52 Depth=1
	movq	img, %rax
	cmpl	$2, 24(%rax)
	jne	.LBB15_55
# %bb.54:                               # %if.then192
                                        #   in Loop: Header=BB15_52 Depth=1
	movq	-24(%rbp), %rdi
	addq	$1392, %rdi             # imm = 0x570
	movslq	-4(%rbp), %rax
	shlq	$4, %rax
	addq	%rax, %rdi
	movq	img, %rax
	movslq	72520(%rax), %rax
	shlq	$5, %rax
	movabsq	$INIT_MB_AFF_I, %rsi
	addq	%rax, %rsi
	movslq	-4(%rbp), %rax
	shlq	$3, %rax
	addq	%rax, %rsi
	callq	biari_init_context
	jmp	.LBB15_56
.LBB15_55:                              # %if.else202
                                        #   in Loop: Header=BB15_52 Depth=1
	movq	-24(%rbp), %rdi
	addq	$1392, %rdi             # imm = 0x570
	movslq	-4(%rbp), %rax
	shlq	$4, %rax
	addq	%rax, %rdi
	movq	img, %rax
	movslq	72520(%rax), %rax
	shlq	$5, %rax
	movabsq	$INIT_MB_AFF_P, %rsi
	addq	%rax, %rsi
	movslq	-4(%rbp), %rax
	shlq	$3, %rax
	addq	%rax, %rsi
	callq	biari_init_context
.LBB15_56:                              # %if.end213
                                        #   in Loop: Header=BB15_52 Depth=1
	jmp	.LBB15_57
.LBB15_57:                              # %for.inc214
                                        #   in Loop: Header=BB15_52 Depth=1
	movl	-4(%rbp), %eax
	addl	$1, %eax
	movl	%eax, -4(%rbp)
	jmp	.LBB15_52
.LBB15_58:                              # %for.end216
	movl	$0, -4(%rbp)
.LBB15_59:                              # %for.cond217
                                        # =>This Inner Loop Header: Depth=1
	cmpl	$3, -4(%rbp)
	jge	.LBB15_65
# %bb.60:                               # %for.body219
                                        #   in Loop: Header=BB15_59 Depth=1
	movq	img, %rax
	cmpl	$2, 24(%rax)
	jne	.LBB15_62
# %bb.61:                               # %if.then222
                                        #   in Loop: Header=BB15_59 Depth=1
	movq	-24(%rbp), %rdi
	addq	$1456, %rdi             # imm = 0x5B0
	movslq	-4(%rbp), %rax
	shlq	$4, %rax
	addq	%rax, %rdi
	movq	img, %rax
	movslq	72520(%rax), %rax
	imulq	$24, %rax, %rax
	movabsq	$INIT_TRANSFORM_SIZE_I, %rsi
	addq	%rax, %rsi
	movslq	-4(%rbp), %rax
	shlq	$3, %rax
	addq	%rax, %rsi
	callq	biari_init_context
	jmp	.LBB15_63
.LBB15_62:                              # %if.else232
                                        #   in Loop: Header=BB15_59 Depth=1
	movq	-24(%rbp), %rdi
	addq	$1456, %rdi             # imm = 0x5B0
	movslq	-4(%rbp), %rax
	shlq	$4, %rax
	addq	%rax, %rdi
	movq	img, %rax
	movslq	72520(%rax), %rax
	imulq	$24, %rax, %rax
	movabsq	$INIT_TRANSFORM_SIZE_P, %rsi
	addq	%rax, %rsi
	movslq	-4(%rbp), %rax
	shlq	$3, %rax
	addq	%rax, %rsi
	callq	biari_init_context
.LBB15_63:                              # %if.end243
                                        #   in Loop: Header=BB15_59 Depth=1
	jmp	.LBB15_64
.LBB15_64:                              # %for.inc244
                                        #   in Loop: Header=BB15_59 Depth=1
	movl	-4(%rbp), %eax
	addl	$1, %eax
	movl	%eax, -4(%rbp)
	jmp	.LBB15_59
.LBB15_65:                              # %for.end246
	movl	$0, -4(%rbp)
.LBB15_66:                              # %for.cond247
                                        # =>This Inner Loop Header: Depth=1
	cmpl	$2, -4(%rbp)
	jge	.LBB15_72
# %bb.67:                               # %for.body249
                                        #   in Loop: Header=BB15_66 Depth=1
	movq	img, %rax
	cmpl	$2, 24(%rax)
	jne	.LBB15_69
# %bb.68:                               # %if.then252
                                        #   in Loop: Header=BB15_66 Depth=1
	movq	-16(%rbp), %rdi
	movslq	-4(%rbp), %rax
	shlq	$4, %rax
	addq	%rax, %rdi
	movq	img, %rax
	movslq	72520(%rax), %rax
	shlq	$4, %rax
	movabsq	$INIT_IPR_I, %rsi
	addq	%rax, %rsi
	movslq	-4(%rbp), %rax
	shlq	$3, %rax
	addq	%rax, %rsi
	callq	biari_init_context
	jmp	.LBB15_70
.LBB15_69:                              # %if.else262
                                        #   in Loop: Header=BB15_66 Depth=1
	movq	-16(%rbp), %rdi
	movslq	-4(%rbp), %rax
	shlq	$4, %rax
	addq	%rax, %rdi
	movq	img, %rax
	movslq	72520(%rax), %rax
	shlq	$4, %rax
	movabsq	$INIT_IPR_P, %rsi
	addq	%rax, %rsi
	movslq	-4(%rbp), %rax
	shlq	$3, %rax
	addq	%rax, %rsi
	callq	biari_init_context
.LBB15_70:                              # %if.end273
                                        #   in Loop: Header=BB15_66 Depth=1
	jmp	.LBB15_71
.LBB15_71:                              # %for.inc274
                                        #   in Loop: Header=BB15_66 Depth=1
	movl	-4(%rbp), %eax
	addl	$1, %eax
	movl	%eax, -4(%rbp)
	jmp	.LBB15_66
.LBB15_72:                              # %for.end276
	movl	$0, -4(%rbp)
.LBB15_73:                              # %for.cond277
                                        # =>This Inner Loop Header: Depth=1
	cmpl	$4, -4(%rbp)
	jge	.LBB15_79
# %bb.74:                               # %for.body279
                                        #   in Loop: Header=BB15_73 Depth=1
	movq	img, %rax
	cmpl	$2, 24(%rax)
	jne	.LBB15_76
# %bb.75:                               # %if.then282
                                        #   in Loop: Header=BB15_73 Depth=1
	movq	-16(%rbp), %rdi
	addq	$32, %rdi
	movslq	-4(%rbp), %rax
	shlq	$4, %rax
	addq	%rax, %rdi
	movq	img, %rax
	movslq	72520(%rax), %rax
	shlq	$5, %rax
	movabsq	$INIT_CIPR_I, %rsi
	addq	%rax, %rsi
	movslq	-4(%rbp), %rax
	shlq	$3, %rax
	addq	%rax, %rsi
	callq	biari_init_context
	jmp	.LBB15_77
.LBB15_76:                              # %if.else292
                                        #   in Loop: Header=BB15_73 Depth=1
	movq	-16(%rbp), %rdi
	addq	$32, %rdi
	movslq	-4(%rbp), %rax
	shlq	$4, %rax
	addq	%rax, %rdi
	movq	img, %rax
	movslq	72520(%rax), %rax
	shlq	$5, %rax
	movabsq	$INIT_CIPR_P, %rsi
	addq	%rax, %rsi
	movslq	-4(%rbp), %rax
	shlq	$3, %rax
	addq	%rax, %rsi
	callq	biari_init_context
.LBB15_77:                              # %if.end303
                                        #   in Loop: Header=BB15_73 Depth=1
	jmp	.LBB15_78
.LBB15_78:                              # %for.inc304
                                        #   in Loop: Header=BB15_73 Depth=1
	movl	-4(%rbp), %eax
	addl	$1, %eax
	movl	%eax, -4(%rbp)
	jmp	.LBB15_73
.LBB15_79:                              # %for.end306
	movl	$0, -8(%rbp)
.LBB15_80:                              # %for.cond307
                                        # =>This Loop Header: Depth=1
                                        #     Child Loop BB15_82 Depth 2
	cmpl	$3, -8(%rbp)
	jge	.LBB15_90
# %bb.81:                               # %for.body309
                                        #   in Loop: Header=BB15_80 Depth=1
	movl	$0, -4(%rbp)
.LBB15_82:                              # %for.cond310
                                        #   Parent Loop BB15_80 Depth=1
                                        # =>  This Inner Loop Header: Depth=2
	cmpl	$4, -4(%rbp)
	jge	.LBB15_88
# %bb.83:                               # %for.body312
                                        #   in Loop: Header=BB15_82 Depth=2
	movq	img, %rax
	cmpl	$2, 24(%rax)
	jne	.LBB15_85
# %bb.84:                               # %if.then315
                                        #   in Loop: Header=BB15_82 Depth=2
	movq	-16(%rbp), %rdi
	addq	$96, %rdi
	movslq	-8(%rbp), %rax
	shlq	$6, %rax
	addq	%rax, %rdi
	movslq	-4(%rbp), %rax
	shlq	$4, %rax
	addq	%rax, %rdi
	movq	img, %rax
	movslq	72520(%rax), %rax
	imulq	$96, %rax, %rax
	movabsq	$INIT_CBP_I, %rsi
	addq	%rax, %rsi
	movslq	-8(%rbp), %rax
	shlq	$5, %rax
	addq	%rax, %rsi
	movslq	-4(%rbp), %rax
	shlq	$3, %rax
	addq	%rax, %rsi
	callq	biari_init_context
	jmp	.LBB15_86
.LBB15_85:                              # %if.else328
                                        #   in Loop: Header=BB15_82 Depth=2
	movq	-16(%rbp), %rdi
	addq	$96, %rdi
	movslq	-8(%rbp), %rax
	shlq	$6, %rax
	addq	%rax, %rdi
	movslq	-4(%rbp), %rax
	shlq	$4, %rax
	addq	%rax, %rdi
	movq	img, %rax
	movslq	72520(%rax), %rax
	imulq	$96, %rax, %rax
	movabsq	$INIT_CBP_P, %rsi
	addq	%rax, %rsi
	movslq	-8(%rbp), %rax
	shlq	$5, %rax
	addq	%rax, %rsi
	movslq	-4(%rbp), %rax
	shlq	$3, %rax
	addq	%rax, %rsi
	callq	biari_init_context
.LBB15_86:                              # %if.end342
                                        #   in Loop: Header=BB15_82 Depth=2
	jmp	.LBB15_87
.LBB15_87:                              # %for.inc343
                                        #   in Loop: Header=BB15_82 Depth=2
	movl	-4(%rbp), %eax
	addl	$1, %eax
	movl	%eax, -4(%rbp)
	jmp	.LBB15_82
.LBB15_88:                              # %for.end345
                                        #   in Loop: Header=BB15_80 Depth=1
	jmp	.LBB15_89
.LBB15_89:                              # %for.inc346
                                        #   in Loop: Header=BB15_80 Depth=1
	movl	-8(%rbp), %eax
	addl	$1, %eax
	movl	%eax, -8(%rbp)
	jmp	.LBB15_80
.LBB15_90:                              # %for.end348
	movl	$0, -8(%rbp)
.LBB15_91:                              # %for.cond349
                                        # =>This Loop Header: Depth=1
                                        #     Child Loop BB15_93 Depth 2
	cmpl	$10, -8(%rbp)
	jge	.LBB15_101
# %bb.92:                               # %for.body351
                                        #   in Loop: Header=BB15_91 Depth=1
	movl	$0, -4(%rbp)
.LBB15_93:                              # %for.cond352
                                        #   Parent Loop BB15_91 Depth=1
                                        # =>  This Inner Loop Header: Depth=2
	cmpl	$4, -4(%rbp)
	jge	.LBB15_99
# %bb.94:                               # %for.body354
                                        #   in Loop: Header=BB15_93 Depth=2
	movq	img, %rax
	cmpl	$2, 24(%rax)
	jne	.LBB15_96
# %bb.95:                               # %if.then357
                                        #   in Loop: Header=BB15_93 Depth=2
	movq	-16(%rbp), %rdi
	addq	$288, %rdi              # imm = 0x120
	movslq	-8(%rbp), %rax
	shlq	$6, %rax
	addq	%rax, %rdi
	movslq	-4(%rbp), %rax
	shlq	$4, %rax
	addq	%rax, %rdi
	movq	img, %rax
	movslq	72520(%rax), %rax
	shlq	$8, %rax
	movabsq	$INIT_BCBP_I, %rsi
	addq	%rax, %rsi
	movslq	-8(%rbp), %rax
	shlq	$5, %rax
	addq	%rax, %rsi
	movslq	-4(%rbp), %rax
	shlq	$3, %rax
	addq	%rax, %rsi
	callq	biari_init_context
	jmp	.LBB15_97
.LBB15_96:                              # %if.else370
                                        #   in Loop: Header=BB15_93 Depth=2
	movq	-16(%rbp), %rdi
	addq	$288, %rdi              # imm = 0x120
	movslq	-8(%rbp), %rax
	shlq	$6, %rax
	addq	%rax, %rdi
	movslq	-4(%rbp), %rax
	shlq	$4, %rax
	addq	%rax, %rdi
	movq	img, %rax
	movslq	72520(%rax), %rax
	shlq	$8, %rax
	movabsq	$INIT_BCBP_P, %rsi
	addq	%rax, %rsi
	movslq	-8(%rbp), %rax
	shlq	$5, %rax
	addq	%rax, %rsi
	movslq	-4(%rbp), %rax
	shlq	$3, %rax
	addq	%rax, %rsi
	callq	biari_init_context
.LBB15_97:                              # %if.end384
                                        #   in Loop: Header=BB15_93 Depth=2
	jmp	.LBB15_98
.LBB15_98:                              # %for.inc385
                                        #   in Loop: Header=BB15_93 Depth=2
	movl	-4(%rbp), %eax
	addl	$1, %eax
	movl	%eax, -4(%rbp)
	jmp	.LBB15_93
.LBB15_99:                              # %for.end387
                                        #   in Loop: Header=BB15_91 Depth=1
	jmp	.LBB15_100
.LBB15_100:                             # %for.inc388
                                        #   in Loop: Header=BB15_91 Depth=1
	movl	-8(%rbp), %eax
	addl	$1, %eax
	movl	%eax, -8(%rbp)
	jmp	.LBB15_91
.LBB15_101:                             # %for.end390
	movl	$0, -8(%rbp)
.LBB15_102:                             # %for.cond391
                                        # =>This Loop Header: Depth=1
                                        #     Child Loop BB15_104 Depth 2
	cmpl	$10, -8(%rbp)
	jge	.LBB15_112
# %bb.103:                              # %for.body393
                                        #   in Loop: Header=BB15_102 Depth=1
	movl	$0, -4(%rbp)
.LBB15_104:                             # %for.cond394
                                        #   Parent Loop BB15_102 Depth=1
                                        # =>  This Inner Loop Header: Depth=2
	cmpl	$15, -4(%rbp)
	jge	.LBB15_110
# %bb.105:                              # %for.body396
                                        #   in Loop: Header=BB15_104 Depth=2
	movq	img, %rax
	cmpl	$2, 24(%rax)
	jne	.LBB15_107
# %bb.106:                              # %if.then399
                                        #   in Loop: Header=BB15_104 Depth=2
	movq	-16(%rbp), %rdi
	addq	$928, %rdi              # imm = 0x3A0
	movslq	-8(%rbp), %rax
	imulq	$240, %rax, %rax
	addq	%rax, %rdi
	movslq	-4(%rbp), %rax
	shlq	$4, %rax
	addq	%rax, %rdi
	movq	img, %rax
	movslq	72520(%rax), %rax
	imulq	$960, %rax, %rax        # imm = 0x3C0
	movabsq	$INIT_MAP_I, %rsi
	addq	%rax, %rsi
	movslq	-8(%rbp), %rax
	imulq	$120, %rax, %rax
	addq	%rax, %rsi
	movslq	-4(%rbp), %rax
	shlq	$3, %rax
	addq	%rax, %rsi
	callq	biari_init_context
	jmp	.LBB15_108
.LBB15_107:                             # %if.else412
                                        #   in Loop: Header=BB15_104 Depth=2
	movq	-16(%rbp), %rdi
	addq	$928, %rdi              # imm = 0x3A0
	movslq	-8(%rbp), %rax
	imulq	$240, %rax, %rax
	addq	%rax, %rdi
	movslq	-4(%rbp), %rax
	shlq	$4, %rax
	addq	%rax, %rdi
	movq	img, %rax
	movslq	72520(%rax), %rax
	imulq	$960, %rax, %rax        # imm = 0x3C0
	movabsq	$INIT_MAP_P, %rsi
	addq	%rax, %rsi
	movslq	-8(%rbp), %rax
	imulq	$120, %rax, %rax
	addq	%rax, %rsi
	movslq	-4(%rbp), %rax
	shlq	$3, %rax
	addq	%rax, %rsi
	callq	biari_init_context
.LBB15_108:                             # %if.end426
                                        #   in Loop: Header=BB15_104 Depth=2
	jmp	.LBB15_109
.LBB15_109:                             # %for.inc427
                                        #   in Loop: Header=BB15_104 Depth=2
	movl	-4(%rbp), %eax
	addl	$1, %eax
	movl	%eax, -4(%rbp)
	jmp	.LBB15_104
.LBB15_110:                             # %for.end429
                                        #   in Loop: Header=BB15_102 Depth=1
	jmp	.LBB15_111
.LBB15_111:                             # %for.inc430
                                        #   in Loop: Header=BB15_102 Depth=1
	movl	-8(%rbp), %eax
	addl	$1, %eax
	movl	%eax, -8(%rbp)
	jmp	.LBB15_102
.LBB15_112:                             # %for.end432
	movl	$0, -8(%rbp)
.LBB15_113:                             # %for.cond433
                                        # =>This Loop Header: Depth=1
                                        #     Child Loop BB15_115 Depth 2
	cmpl	$10, -8(%rbp)
	jge	.LBB15_123
# %bb.114:                              # %for.body435
                                        #   in Loop: Header=BB15_113 Depth=1
	movl	$0, -4(%rbp)
.LBB15_115:                             # %for.cond436
                                        #   Parent Loop BB15_113 Depth=1
                                        # =>  This Inner Loop Header: Depth=2
	cmpl	$15, -4(%rbp)
	jge	.LBB15_121
# %bb.116:                              # %for.body438
                                        #   in Loop: Header=BB15_115 Depth=2
	movq	img, %rax
	cmpl	$2, 24(%rax)
	jne	.LBB15_118
# %bb.117:                              # %if.then441
                                        #   in Loop: Header=BB15_115 Depth=2
	movq	-16(%rbp), %rdi
	addq	$3328, %rdi             # imm = 0xD00
	movslq	-8(%rbp), %rax
	imulq	$240, %rax, %rax
	addq	%rax, %rdi
	movslq	-4(%rbp), %rax
	shlq	$4, %rax
	addq	%rax, %rdi
	movq	img, %rax
	movslq	72520(%rax), %rax
	imulq	$960, %rax, %rax        # imm = 0x3C0
	movabsq	$INIT_LAST_I, %rsi
	addq	%rax, %rsi
	movslq	-8(%rbp), %rax
	imulq	$120, %rax, %rax
	addq	%rax, %rsi
	movslq	-4(%rbp), %rax
	shlq	$3, %rax
	addq	%rax, %rsi
	callq	biari_init_context
	jmp	.LBB15_119
.LBB15_118:                             # %if.else454
                                        #   in Loop: Header=BB15_115 Depth=2
	movq	-16(%rbp), %rdi
	addq	$3328, %rdi             # imm = 0xD00
	movslq	-8(%rbp), %rax
	imulq	$240, %rax, %rax
	addq	%rax, %rdi
	movslq	-4(%rbp), %rax
	shlq	$4, %rax
	addq	%rax, %rdi
	movq	img, %rax
	movslq	72520(%rax), %rax
	imulq	$960, %rax, %rax        # imm = 0x3C0
	movabsq	$INIT_LAST_P, %rsi
	addq	%rax, %rsi
	movslq	-8(%rbp), %rax
	imulq	$120, %rax, %rax
	addq	%rax, %rsi
	movslq	-4(%rbp), %rax
	shlq	$3, %rax
	addq	%rax, %rsi
	callq	biari_init_context
.LBB15_119:                             # %if.end468
                                        #   in Loop: Header=BB15_115 Depth=2
	jmp	.LBB15_120
.LBB15_120:                             # %for.inc469
                                        #   in Loop: Header=BB15_115 Depth=2
	movl	-4(%rbp), %eax
	addl	$1, %eax
	movl	%eax, -4(%rbp)
	jmp	.LBB15_115
.LBB15_121:                             # %for.end471
                                        #   in Loop: Header=BB15_113 Depth=1
	jmp	.LBB15_122
.LBB15_122:                             # %for.inc472
                                        #   in Loop: Header=BB15_113 Depth=1
	movl	-8(%rbp), %eax
	addl	$1, %eax
	movl	%eax, -8(%rbp)
	jmp	.LBB15_113
.LBB15_123:                             # %for.end474
	movl	$0, -8(%rbp)
.LBB15_124:                             # %for.cond475
                                        # =>This Loop Header: Depth=1
                                        #     Child Loop BB15_126 Depth 2
	cmpl	$10, -8(%rbp)
	jge	.LBB15_134
# %bb.125:                              # %for.body477
                                        #   in Loop: Header=BB15_124 Depth=1
	movl	$0, -4(%rbp)
.LBB15_126:                             # %for.cond478
                                        #   Parent Loop BB15_124 Depth=1
                                        # =>  This Inner Loop Header: Depth=2
	cmpl	$5, -4(%rbp)
	jge	.LBB15_132
# %bb.127:                              # %for.body480
                                        #   in Loop: Header=BB15_126 Depth=2
	movq	img, %rax
	cmpl	$2, 24(%rax)
	jne	.LBB15_129
# %bb.128:                              # %if.then483
                                        #   in Loop: Header=BB15_126 Depth=2
	movq	-16(%rbp), %rdi
	addq	$5728, %rdi             # imm = 0x1660
	movslq	-8(%rbp), %rax
	imulq	$80, %rax, %rax
	addq	%rax, %rdi
	movslq	-4(%rbp), %rax
	shlq	$4, %rax
	addq	%rax, %rdi
	movq	img, %rax
	movslq	72520(%rax), %rax
	imulq	$320, %rax, %rax        # imm = 0x140
	movabsq	$INIT_ONE_I, %rsi
	addq	%rax, %rsi
	movslq	-8(%rbp), %rax
	imulq	$40, %rax, %rax
	addq	%rax, %rsi
	movslq	-4(%rbp), %rax
	shlq	$3, %rax
	addq	%rax, %rsi
	callq	biari_init_context
	jmp	.LBB15_130
.LBB15_129:                             # %if.else496
                                        #   in Loop: Header=BB15_126 Depth=2
	movq	-16(%rbp), %rdi
	addq	$5728, %rdi             # imm = 0x1660
	movslq	-8(%rbp), %rax
	imulq	$80, %rax, %rax
	addq	%rax, %rdi
	movslq	-4(%rbp), %rax
	shlq	$4, %rax
	addq	%rax, %rdi
	movq	img, %rax
	movslq	72520(%rax), %rax
	imulq	$320, %rax, %rax        # imm = 0x140
	movabsq	$INIT_ONE_P, %rsi
	addq	%rax, %rsi
	movslq	-8(%rbp), %rax
	imulq	$40, %rax, %rax
	addq	%rax, %rsi
	movslq	-4(%rbp), %rax
	shlq	$3, %rax
	addq	%rax, %rsi
	callq	biari_init_context
.LBB15_130:                             # %if.end510
                                        #   in Loop: Header=BB15_126 Depth=2
	jmp	.LBB15_131
.LBB15_131:                             # %for.inc511
                                        #   in Loop: Header=BB15_126 Depth=2
	movl	-4(%rbp), %eax
	addl	$1, %eax
	movl	%eax, -4(%rbp)
	jmp	.LBB15_126
.LBB15_132:                             # %for.end513
                                        #   in Loop: Header=BB15_124 Depth=1
	jmp	.LBB15_133
.LBB15_133:                             # %for.inc514
                                        #   in Loop: Header=BB15_124 Depth=1
	movl	-8(%rbp), %eax
	addl	$1, %eax
	movl	%eax, -8(%rbp)
	jmp	.LBB15_124
.LBB15_134:                             # %for.end516
	movl	$0, -8(%rbp)
.LBB15_135:                             # %for.cond517
                                        # =>This Loop Header: Depth=1
                                        #     Child Loop BB15_137 Depth 2
	cmpl	$10, -8(%rbp)
	jge	.LBB15_145
# %bb.136:                              # %for.body519
                                        #   in Loop: Header=BB15_135 Depth=1
	movl	$0, -4(%rbp)
.LBB15_137:                             # %for.cond520
                                        #   Parent Loop BB15_135 Depth=1
                                        # =>  This Inner Loop Header: Depth=2
	cmpl	$5, -4(%rbp)
	jge	.LBB15_143
# %bb.138:                              # %for.body522
                                        #   in Loop: Header=BB15_137 Depth=2
	movq	img, %rax
	cmpl	$2, 24(%rax)
	jne	.LBB15_140
# %bb.139:                              # %if.then525
                                        #   in Loop: Header=BB15_137 Depth=2
	movq	-16(%rbp), %rdi
	addq	$6528, %rdi             # imm = 0x1980
	movslq	-8(%rbp), %rax
	imulq	$80, %rax, %rax
	addq	%rax, %rdi
	movslq	-4(%rbp), %rax
	shlq	$4, %rax
	addq	%rax, %rdi
	movq	img, %rax
	movslq	72520(%rax), %rax
	imulq	$320, %rax, %rax        # imm = 0x140
	movabsq	$INIT_ABS_I, %rsi
	addq	%rax, %rsi
	movslq	-8(%rbp), %rax
	imulq	$40, %rax, %rax
	addq	%rax, %rsi
	movslq	-4(%rbp), %rax
	shlq	$3, %rax
	addq	%rax, %rsi
	callq	biari_init_context
	jmp	.LBB15_141
.LBB15_140:                             # %if.else538
                                        #   in Loop: Header=BB15_137 Depth=2
	movq	-16(%rbp), %rdi
	addq	$6528, %rdi             # imm = 0x1980
	movslq	-8(%rbp), %rax
	imulq	$80, %rax, %rax
	addq	%rax, %rdi
	movslq	-4(%rbp), %rax
	shlq	$4, %rax
	addq	%rax, %rdi
	movq	img, %rax
	movslq	72520(%rax), %rax
	imulq	$320, %rax, %rax        # imm = 0x140
	movabsq	$INIT_ABS_P, %rsi
	addq	%rax, %rsi
	movslq	-8(%rbp), %rax
	imulq	$40, %rax, %rax
	addq	%rax, %rsi
	movslq	-4(%rbp), %rax
	shlq	$3, %rax
	addq	%rax, %rsi
	callq	biari_init_context
.LBB15_141:                             # %if.end552
                                        #   in Loop: Header=BB15_137 Depth=2
	jmp	.LBB15_142
.LBB15_142:                             # %for.inc553
                                        #   in Loop: Header=BB15_137 Depth=2
	movl	-4(%rbp), %eax
	addl	$1, %eax
	movl	%eax, -4(%rbp)
	jmp	.LBB15_137
.LBB15_143:                             # %for.end555
                                        #   in Loop: Header=BB15_135 Depth=1
	jmp	.LBB15_144
.LBB15_144:                             # %for.inc556
                                        #   in Loop: Header=BB15_135 Depth=1
	movl	-8(%rbp), %eax
	addl	$1, %eax
	movl	%eax, -8(%rbp)
	jmp	.LBB15_135
.LBB15_145:                             # %for.end558
	movl	$0, -8(%rbp)
.LBB15_146:                             # %for.cond559
                                        # =>This Loop Header: Depth=1
                                        #     Child Loop BB15_148 Depth 2
	cmpl	$10, -8(%rbp)
	jge	.LBB15_156
# %bb.147:                              # %for.body561
                                        #   in Loop: Header=BB15_146 Depth=1
	movl	$0, -4(%rbp)
.LBB15_148:                             # %for.cond562
                                        #   Parent Loop BB15_146 Depth=1
                                        # =>  This Inner Loop Header: Depth=2
	cmpl	$15, -4(%rbp)
	jge	.LBB15_154
# %bb.149:                              # %for.body564
                                        #   in Loop: Header=BB15_148 Depth=2
	movq	img, %rax
	cmpl	$2, 24(%rax)
	jne	.LBB15_151
# %bb.150:                              # %if.then567
                                        #   in Loop: Header=BB15_148 Depth=2
	movq	-16(%rbp), %rdi
	addq	$7328, %rdi             # imm = 0x1CA0
	movslq	-8(%rbp), %rax
	imulq	$240, %rax, %rax
	addq	%rax, %rdi
	movslq	-4(%rbp), %rax
	shlq	$4, %rax
	addq	%rax, %rdi
	movq	img, %rax
	movslq	72520(%rax), %rax
	imulq	$960, %rax, %rax        # imm = 0x3C0
	movabsq	$INIT_FLD_MAP_I, %rsi
	addq	%rax, %rsi
	movslq	-8(%rbp), %rax
	imulq	$120, %rax, %rax
	addq	%rax, %rsi
	movslq	-4(%rbp), %rax
	shlq	$3, %rax
	addq	%rax, %rsi
	callq	biari_init_context
	jmp	.LBB15_152
.LBB15_151:                             # %if.else580
                                        #   in Loop: Header=BB15_148 Depth=2
	movq	-16(%rbp), %rdi
	addq	$7328, %rdi             # imm = 0x1CA0
	movslq	-8(%rbp), %rax
	imulq	$240, %rax, %rax
	addq	%rax, %rdi
	movslq	-4(%rbp), %rax
	shlq	$4, %rax
	addq	%rax, %rdi
	movq	img, %rax
	movslq	72520(%rax), %rax
	imulq	$960, %rax, %rax        # imm = 0x3C0
	movabsq	$INIT_FLD_MAP_P, %rsi
	addq	%rax, %rsi
	movslq	-8(%rbp), %rax
	imulq	$120, %rax, %rax
	addq	%rax, %rsi
	movslq	-4(%rbp), %rax
	shlq	$3, %rax
	addq	%rax, %rsi
	callq	biari_init_context
.LBB15_152:                             # %if.end594
                                        #   in Loop: Header=BB15_148 Depth=2
	jmp	.LBB15_153
.LBB15_153:                             # %for.inc595
                                        #   in Loop: Header=BB15_148 Depth=2
	movl	-4(%rbp), %eax
	addl	$1, %eax
	movl	%eax, -4(%rbp)
	jmp	.LBB15_148
.LBB15_154:                             # %for.end597
                                        #   in Loop: Header=BB15_146 Depth=1
	jmp	.LBB15_155
.LBB15_155:                             # %for.inc598
                                        #   in Loop: Header=BB15_146 Depth=1
	movl	-8(%rbp), %eax
	addl	$1, %eax
	movl	%eax, -8(%rbp)
	jmp	.LBB15_146
.LBB15_156:                             # %for.end600
	movl	$0, -8(%rbp)
.LBB15_157:                             # %for.cond601
                                        # =>This Loop Header: Depth=1
                                        #     Child Loop BB15_159 Depth 2
	cmpl	$10, -8(%rbp)
	jge	.LBB15_167
# %bb.158:                              # %for.body603
                                        #   in Loop: Header=BB15_157 Depth=1
	movl	$0, -4(%rbp)
.LBB15_159:                             # %for.cond604
                                        #   Parent Loop BB15_157 Depth=1
                                        # =>  This Inner Loop Header: Depth=2
	cmpl	$15, -4(%rbp)
	jge	.LBB15_165
# %bb.160:                              # %for.body606
                                        #   in Loop: Header=BB15_159 Depth=2
	movq	img, %rax
	cmpl	$2, 24(%rax)
	jne	.LBB15_162
# %bb.161:                              # %if.then609
                                        #   in Loop: Header=BB15_159 Depth=2
	movq	-16(%rbp), %rdi
	addq	$9728, %rdi             # imm = 0x2600
	movslq	-8(%rbp), %rax
	imulq	$240, %rax, %rax
	addq	%rax, %rdi
	movslq	-4(%rbp), %rax
	shlq	$4, %rax
	addq	%rax, %rdi
	movq	img, %rax
	movslq	72520(%rax), %rax
	imulq	$960, %rax, %rax        # imm = 0x3C0
	movabsq	$INIT_FLD_LAST_I, %rsi
	addq	%rax, %rsi
	movslq	-8(%rbp), %rax
	imulq	$120, %rax, %rax
	addq	%rax, %rsi
	movslq	-4(%rbp), %rax
	shlq	$3, %rax
	addq	%rax, %rsi
	callq	biari_init_context
	jmp	.LBB15_163
.LBB15_162:                             # %if.else622
                                        #   in Loop: Header=BB15_159 Depth=2
	movq	-16(%rbp), %rdi
	addq	$9728, %rdi             # imm = 0x2600
	movslq	-8(%rbp), %rax
	imulq	$240, %rax, %rax
	addq	%rax, %rdi
	movslq	-4(%rbp), %rax
	shlq	$4, %rax
	addq	%rax, %rdi
	movq	img, %rax
	movslq	72520(%rax), %rax
	imulq	$960, %rax, %rax        # imm = 0x3C0
	movabsq	$INIT_FLD_LAST_P, %rsi
	addq	%rax, %rsi
	movslq	-8(%rbp), %rax
	imulq	$120, %rax, %rax
	addq	%rax, %rsi
	movslq	-4(%rbp), %rax
	shlq	$3, %rax
	addq	%rax, %rsi
	callq	biari_init_context
.LBB15_163:                             # %if.end636
                                        #   in Loop: Header=BB15_159 Depth=2
	jmp	.LBB15_164
.LBB15_164:                             # %for.inc637
                                        #   in Loop: Header=BB15_159 Depth=2
	movl	-4(%rbp), %eax
	addl	$1, %eax
	movl	%eax, -4(%rbp)
	jmp	.LBB15_159
.LBB15_165:                             # %for.end639
                                        #   in Loop: Header=BB15_157 Depth=1
	jmp	.LBB15_166
.LBB15_166:                             # %for.inc640
                                        #   in Loop: Header=BB15_157 Depth=1
	movl	-8(%rbp), %eax
	addl	$1, %eax
	movl	%eax, -8(%rbp)
	jmp	.LBB15_157
.LBB15_167:                             # %for.end642
	cmpl	$157877458, -28(%rbp)   # imm = 0x96904D2
	jne	.LBB15_169
.LBB15_168:
	addq	$32, %rsp
	popq	%rbp
	.cfi_def_cfa %rsp, 8
	retq
.LBB15_169:                             # %func_exit
	.cfi_def_cfa %rbp, 16
	callq	detect_breach
	jmp	.LBB15_168
.Lfunc_end15:
	.size	init_contexts.8, .Lfunc_end15-init_contexts.8
	.cfi_endproc
                                        # -- End function
	.globl	init_contexts.9         # -- Begin function init_contexts.9
	.p2align	4, 0x90
	.type	init_contexts.9,@function
init_contexts.9:                        # @init_contexts.9
	.cfi_startproc
# %bb.0:                                # %entry
	pushq	%rbp
	.cfi_def_cfa_offset 16
	.cfi_offset %rbp, -16
	movq	%rsp, %rbp
	.cfi_def_cfa_register %rbp
	subq	$32, %rsp
	movl	$74927498, -28(%rbp)    # imm = 0x4774D8A
	movq	img, %rax
	movq	14160(%rax), %rax
	movq	32(%rax), %rax
	movq	%rax, -24(%rbp)
	movq	img, %rax
	movq	14160(%rax), %rax
	movq	40(%rax), %rax
	movq	%rax, -16(%rbp)
	movl	$0, -8(%rbp)
.LBB16_1:                               # %for.cond
                                        # =>This Loop Header: Depth=1
                                        #     Child Loop BB16_3 Depth 2
	cmpl	$3, -8(%rbp)
	jge	.LBB16_11
# %bb.2:                                # %for.body
                                        #   in Loop: Header=BB16_1 Depth=1
	movl	$0, -4(%rbp)
.LBB16_3:                               # %for.cond2
                                        #   Parent Loop BB16_1 Depth=1
                                        # =>  This Inner Loop Header: Depth=2
	cmpl	$11, -4(%rbp)
	jge	.LBB16_9
# %bb.4:                                # %for.body4
                                        #   in Loop: Header=BB16_3 Depth=2
	movq	img, %rax
	cmpl	$2, 24(%rax)
	jne	.LBB16_6
# %bb.5:                                # %if.then
                                        #   in Loop: Header=BB16_3 Depth=2
	movq	-24(%rbp), %rdi
	movslq	-8(%rbp), %rax
	imulq	$176, %rax, %rax
	addq	%rax, %rdi
	movslq	-4(%rbp), %rax
	shlq	$4, %rax
	addq	%rax, %rdi
	movq	img, %rax
	movslq	72520(%rax), %rax
	imulq	$264, %rax, %rax        # imm = 0x108
	movabsq	$INIT_MB_TYPE_I, %rsi
	addq	%rax, %rsi
	movslq	-8(%rbp), %rax
	imulq	$88, %rax, %rax
	addq	%rax, %rsi
	movslq	-4(%rbp), %rax
	shlq	$3, %rax
	addq	%rax, %rsi
	callq	biari_init_context
	jmp	.LBB16_7
.LBB16_6:                               # %if.else
                                        #   in Loop: Header=BB16_3 Depth=2
	movq	-24(%rbp), %rdi
	movslq	-8(%rbp), %rax
	imulq	$176, %rax, %rax
	addq	%rax, %rdi
	movslq	-4(%rbp), %rax
	shlq	$4, %rax
	addq	%rax, %rdi
	movq	img, %rax
	movslq	72520(%rax), %rax
	imulq	$264, %rax, %rax        # imm = 0x108
	movabsq	$INIT_MB_TYPE_P, %rsi
	addq	%rax, %rsi
	movslq	-8(%rbp), %rax
	imulq	$88, %rax, %rax
	addq	%rax, %rsi
	movslq	-4(%rbp), %rax
	shlq	$3, %rax
	addq	%rax, %rsi
	callq	biari_init_context
.LBB16_7:                               # %if.end
                                        #   in Loop: Header=BB16_3 Depth=2
	jmp	.LBB16_8
.LBB16_8:                               # %for.inc
                                        #   in Loop: Header=BB16_3 Depth=2
	movl	-4(%rbp), %eax
	addl	$1, %eax
	movl	%eax, -4(%rbp)
	jmp	.LBB16_3
.LBB16_9:                               # %for.end
                                        #   in Loop: Header=BB16_1 Depth=1
	jmp	.LBB16_10
.LBB16_10:                              # %for.inc28
                                        #   in Loop: Header=BB16_1 Depth=1
	movl	-8(%rbp), %eax
	addl	$1, %eax
	movl	%eax, -8(%rbp)
	jmp	.LBB16_1
.LBB16_11:                              # %for.end30
	movl	$0, -8(%rbp)
.LBB16_12:                              # %for.cond31
                                        # =>This Loop Header: Depth=1
                                        #     Child Loop BB16_14 Depth 2
	cmpl	$2, -8(%rbp)
	jge	.LBB16_22
# %bb.13:                               # %for.body33
                                        #   in Loop: Header=BB16_12 Depth=1
	movl	$0, -4(%rbp)
.LBB16_14:                              # %for.cond34
                                        #   Parent Loop BB16_12 Depth=1
                                        # =>  This Inner Loop Header: Depth=2
	cmpl	$9, -4(%rbp)
	jge	.LBB16_20
# %bb.15:                               # %for.body36
                                        #   in Loop: Header=BB16_14 Depth=2
	movq	img, %rax
	cmpl	$2, 24(%rax)
	jne	.LBB16_17
# %bb.16:                               # %if.then39
                                        #   in Loop: Header=BB16_14 Depth=2
	movq	-24(%rbp), %rdi
	addq	$528, %rdi              # imm = 0x210
	movslq	-8(%rbp), %rax
	imulq	$144, %rax, %rax
	addq	%rax, %rdi
	movslq	-4(%rbp), %rax
	shlq	$4, %rax
	addq	%rax, %rdi
	movq	img, %rax
	movslq	72520(%rax), %rax
	imulq	$144, %rax, %rax
	movabsq	$INIT_B8_TYPE_I, %rsi
	addq	%rax, %rsi
	movslq	-8(%rbp), %rax
	imulq	$72, %rax, %rax
	addq	%rax, %rsi
	movslq	-4(%rbp), %rax
	shlq	$3, %rax
	addq	%rax, %rsi
	callq	biari_init_context
	jmp	.LBB16_18
.LBB16_17:                              # %if.else52
                                        #   in Loop: Header=BB16_14 Depth=2
	movq	-24(%rbp), %rdi
	addq	$528, %rdi              # imm = 0x210
	movslq	-8(%rbp), %rax
	imulq	$144, %rax, %rax
	addq	%rax, %rdi
	movslq	-4(%rbp), %rax
	shlq	$4, %rax
	addq	%rax, %rdi
	movq	img, %rax
	movslq	72520(%rax), %rax
	imulq	$144, %rax, %rax
	movabsq	$INIT_B8_TYPE_P, %rsi
	addq	%rax, %rsi
	movslq	-8(%rbp), %rax
	imulq	$72, %rax, %rax
	addq	%rax, %rsi
	movslq	-4(%rbp), %rax
	shlq	$3, %rax
	addq	%rax, %rsi
	callq	biari_init_context
.LBB16_18:                              # %if.end66
                                        #   in Loop: Header=BB16_14 Depth=2
	jmp	.LBB16_19
.LBB16_19:                              # %for.inc67
                                        #   in Loop: Header=BB16_14 Depth=2
	movl	-4(%rbp), %eax
	addl	$1, %eax
	movl	%eax, -4(%rbp)
	jmp	.LBB16_14
.LBB16_20:                              # %for.end69
                                        #   in Loop: Header=BB16_12 Depth=1
	jmp	.LBB16_21
.LBB16_21:                              # %for.inc70
                                        #   in Loop: Header=BB16_12 Depth=1
	movl	-8(%rbp), %eax
	addl	$1, %eax
	movl	%eax, -8(%rbp)
	jmp	.LBB16_12
.LBB16_22:                              # %for.end72
	movl	$0, -8(%rbp)
.LBB16_23:                              # %for.cond73
                                        # =>This Loop Header: Depth=1
                                        #     Child Loop BB16_25 Depth 2
	cmpl	$2, -8(%rbp)
	jge	.LBB16_33
# %bb.24:                               # %for.body75
                                        #   in Loop: Header=BB16_23 Depth=1
	movl	$0, -4(%rbp)
.LBB16_25:                              # %for.cond76
                                        #   Parent Loop BB16_23 Depth=1
                                        # =>  This Inner Loop Header: Depth=2
	cmpl	$10, -4(%rbp)
	jge	.LBB16_31
# %bb.26:                               # %for.body78
                                        #   in Loop: Header=BB16_25 Depth=2
	movq	img, %rax
	cmpl	$2, 24(%rax)
	jne	.LBB16_28
# %bb.27:                               # %if.then81
                                        #   in Loop: Header=BB16_25 Depth=2
	movq	-24(%rbp), %rdi
	addq	$816, %rdi              # imm = 0x330
	movslq	-8(%rbp), %rax
	imulq	$160, %rax, %rax
	addq	%rax, %rdi
	movslq	-4(%rbp), %rax
	shlq	$4, %rax
	addq	%rax, %rdi
	movq	img, %rax
	movslq	72520(%rax), %rax
	imulq	$160, %rax, %rax
	movabsq	$INIT_MV_RES_I, %rsi
	addq	%rax, %rsi
	movslq	-8(%rbp), %rax
	imulq	$80, %rax, %rax
	addq	%rax, %rsi
	movslq	-4(%rbp), %rax
	shlq	$3, %rax
	addq	%rax, %rsi
	callq	biari_init_context
	jmp	.LBB16_29
.LBB16_28:                              # %if.else94
                                        #   in Loop: Header=BB16_25 Depth=2
	movq	-24(%rbp), %rdi
	addq	$816, %rdi              # imm = 0x330
	movslq	-8(%rbp), %rax
	imulq	$160, %rax, %rax
	addq	%rax, %rdi
	movslq	-4(%rbp), %rax
	shlq	$4, %rax
	addq	%rax, %rdi
	movq	img, %rax
	movslq	72520(%rax), %rax
	imulq	$160, %rax, %rax
	movabsq	$INIT_MV_RES_P, %rsi
	addq	%rax, %rsi
	movslq	-8(%rbp), %rax
	imulq	$80, %rax, %rax
	addq	%rax, %rsi
	movslq	-4(%rbp), %rax
	shlq	$3, %rax
	addq	%rax, %rsi
	callq	biari_init_context
.LBB16_29:                              # %if.end108
                                        #   in Loop: Header=BB16_25 Depth=2
	jmp	.LBB16_30
.LBB16_30:                              # %for.inc109
                                        #   in Loop: Header=BB16_25 Depth=2
	movl	-4(%rbp), %eax
	addl	$1, %eax
	movl	%eax, -4(%rbp)
	jmp	.LBB16_25
.LBB16_31:                              # %for.end111
                                        #   in Loop: Header=BB16_23 Depth=1
	jmp	.LBB16_32
.LBB16_32:                              # %for.inc112
                                        #   in Loop: Header=BB16_23 Depth=1
	movl	-8(%rbp), %eax
	addl	$1, %eax
	movl	%eax, -8(%rbp)
	jmp	.LBB16_23
.LBB16_33:                              # %for.end114
	movl	$0, -8(%rbp)
.LBB16_34:                              # %for.cond115
                                        # =>This Loop Header: Depth=1
                                        #     Child Loop BB16_36 Depth 2
	cmpl	$2, -8(%rbp)
	jge	.LBB16_44
# %bb.35:                               # %for.body117
                                        #   in Loop: Header=BB16_34 Depth=1
	movl	$0, -4(%rbp)
.LBB16_36:                              # %for.cond118
                                        #   Parent Loop BB16_34 Depth=1
                                        # =>  This Inner Loop Header: Depth=2
	cmpl	$6, -4(%rbp)
	jge	.LBB16_42
# %bb.37:                               # %for.body120
                                        #   in Loop: Header=BB16_36 Depth=2
	movq	img, %rax
	cmpl	$2, 24(%rax)
	jne	.LBB16_39
# %bb.38:                               # %if.then123
                                        #   in Loop: Header=BB16_36 Depth=2
	movq	-24(%rbp), %rdi
	addq	$1136, %rdi             # imm = 0x470
	movslq	-8(%rbp), %rax
	imulq	$96, %rax, %rax
	addq	%rax, %rdi
	movslq	-4(%rbp), %rax
	shlq	$4, %rax
	addq	%rax, %rdi
	movq	img, %rax
	movslq	72520(%rax), %rax
	imulq	$96, %rax, %rax
	movabsq	$INIT_REF_NO_I, %rsi
	addq	%rax, %rsi
	movslq	-8(%rbp), %rax
	imulq	$48, %rax, %rax
	addq	%rax, %rsi
	movslq	-4(%rbp), %rax
	shlq	$3, %rax
	addq	%rax, %rsi
	callq	biari_init_context
	jmp	.LBB16_40
.LBB16_39:                              # %if.else136
                                        #   in Loop: Header=BB16_36 Depth=2
	movq	-24(%rbp), %rdi
	addq	$1136, %rdi             # imm = 0x470
	movslq	-8(%rbp), %rax
	imulq	$96, %rax, %rax
	addq	%rax, %rdi
	movslq	-4(%rbp), %rax
	shlq	$4, %rax
	addq	%rax, %rdi
	movq	img, %rax
	movslq	72520(%rax), %rax
	imulq	$96, %rax, %rax
	movabsq	$INIT_REF_NO_P, %rsi
	addq	%rax, %rsi
	movslq	-8(%rbp), %rax
	imulq	$48, %rax, %rax
	addq	%rax, %rsi
	movslq	-4(%rbp), %rax
	shlq	$3, %rax
	addq	%rax, %rsi
	callq	biari_init_context
.LBB16_40:                              # %if.end150
                                        #   in Loop: Header=BB16_36 Depth=2
	jmp	.LBB16_41
.LBB16_41:                              # %for.inc151
                                        #   in Loop: Header=BB16_36 Depth=2
	movl	-4(%rbp), %eax
	addl	$1, %eax
	movl	%eax, -4(%rbp)
	jmp	.LBB16_36
.LBB16_42:                              # %for.end153
                                        #   in Loop: Header=BB16_34 Depth=1
	jmp	.LBB16_43
.LBB16_43:                              # %for.inc154
                                        #   in Loop: Header=BB16_34 Depth=1
	movl	-8(%rbp), %eax
	addl	$1, %eax
	movl	%eax, -8(%rbp)
	jmp	.LBB16_34
.LBB16_44:                              # %for.end156
	movl	$0, -4(%rbp)
.LBB16_45:                              # %for.cond157
                                        # =>This Inner Loop Header: Depth=1
	cmpl	$4, -4(%rbp)
	jge	.LBB16_51
# %bb.46:                               # %for.body159
                                        #   in Loop: Header=BB16_45 Depth=1
	movq	img, %rax
	cmpl	$2, 24(%rax)
	jne	.LBB16_48
