	.text
	.file	"context_ini.c"
	.globl	create_context_memory   # -- Begin function create_context_memory
	.p2align	4, 0x90
	.type	create_context_memory,@function
create_context_memory:                  # @create_context_memory
	.cfi_startproc
# %bb.0:                                # %rand_bb
	pushq	%rbp
	.cfi_def_cfa_offset 16
	.cfi_offset %rbp, -16
	movq	%rsp, %rbp
	.cfi_def_cfa_register %rbp
	callq	get_urand
	cmpl	$0, %eax
	jne	.LBB0_9
# %bb.1:                                # %func_create_context_memory.17
	callq	create_context_memory.17
	popq	%rbp
	.cfi_def_cfa %rsp, 8
	retq
.LBB0_2:                                # %func_create_context_memory.21
	.cfi_def_cfa %rbp, 16
	callq	create_context_memory.21
	popq	%rbp
	.cfi_def_cfa %rsp, 8
	retq
.LBB0_3:                                # %func_create_context_memory.28
	.cfi_def_cfa %rbp, 16
	callq	create_context_memory.28
	popq	%rbp
	.cfi_def_cfa %rsp, 8
	retq
.LBB0_4:                                # %func_create_context_memory.41
	.cfi_def_cfa %rbp, 16
	callq	create_context_memory.41
	popq	%rbp
	.cfi_def_cfa %rsp, 8
	retq
.LBB0_5:                                # %func_create_context_memory.44
	.cfi_def_cfa %rbp, 16
	callq	create_context_memory.44
	popq	%rbp
	.cfi_def_cfa %rsp, 8
	retq
.LBB0_6:                                # %func_create_context_memory.49
	.cfi_def_cfa %rbp, 16
	callq	create_context_memory.49
	popq	%rbp
	.cfi_def_cfa %rsp, 8
	retq
.LBB0_7:                                # %func_create_context_memory.50
	.cfi_def_cfa %rbp, 16
	callq	create_context_memory.50
	popq	%rbp
	.cfi_def_cfa %rsp, 8
	retq
.LBB0_8:                                # %func_create_context_memory.52
	.cfi_def_cfa %rbp, 16
	callq	create_context_memory.52
	popq	%rbp
	.cfi_def_cfa %rsp, 8
	retq
.LBB0_9:                                # %ctrl0
	.cfi_def_cfa %rbp, 16
	cmpl	$1, %eax
	je	.LBB0_2
# %bb.10:                               # %ctrl1
	cmpl	$2, %eax
	je	.LBB0_3
# %bb.11:                               # %ctrl2
	cmpl	$3, %eax
	je	.LBB0_4
# %bb.12:                               # %ctrl3
	cmpl	$4, %eax
	je	.LBB0_5
# %bb.13:                               # %ctrl4
	cmpl	$5, %eax
	je	.LBB0_6
# %bb.14:                               # %ctrl5
	cmpl	$6, %eax
	je	.LBB0_7
	jmp	.LBB0_8
.Lfunc_end0:
	.size	create_context_memory, .Lfunc_end0-create_context_memory
	.cfi_endproc
                                        # -- End function
	.globl	free_context_memory     # -- Begin function free_context_memory
	.p2align	4, 0x90
	.type	free_context_memory,@function
free_context_memory:                    # @free_context_memory
	.cfi_startproc
# %bb.0:                                # %rand_bb
	pushq	%rbp
	.cfi_def_cfa_offset 16
	.cfi_offset %rbp, -16
	movq	%rsp, %rbp
	.cfi_def_cfa_register %rbp
	callq	get_urand
	cmpl	$0, %eax
	jne	.LBB1_2
# %bb.1:                                # %func_free_context_memory.33
	callq	free_context_memory.33
	popq	%rbp
	.cfi_def_cfa %rsp, 8
	retq
.LBB1_2:                                # %func_free_context_memory.39
	.cfi_def_cfa %rbp, 16
	callq	free_context_memory.39
	popq	%rbp
	.cfi_def_cfa %rsp, 8
	retq
.Lfunc_end1:
	.size	free_context_memory, .Lfunc_end1-free_context_memory
	.cfi_endproc
                                        # -- End function
	.globl	SetCtxModelNumber       # -- Begin function SetCtxModelNumber
	.p2align	4, 0x90
	.type	SetCtxModelNumber,@function
SetCtxModelNumber:                      # @SetCtxModelNumber
	.cfi_startproc
# %bb.0:                                # %rand_bb
	pushq	%rbp
	.cfi_def_cfa_offset 16
	.cfi_offset %rbp, -16
	movq	%rsp, %rbp
	.cfi_def_cfa_register %rbp
	callq	get_urand
	cmpl	$0, %eax
	jne	.LBB2_7
# %bb.1:                                # %func_SetCtxModelNumber.8
	callq	SetCtxModelNumber.8
	popq	%rbp
	.cfi_def_cfa %rsp, 8
	retq
.LBB2_2:                                # %func_SetCtxModelNumber.11
	.cfi_def_cfa %rbp, 16
	callq	SetCtxModelNumber.11
	popq	%rbp
	.cfi_def_cfa %rsp, 8
	retq
.LBB2_3:                                # %func_SetCtxModelNumber.22
	.cfi_def_cfa %rbp, 16
	callq	SetCtxModelNumber.22
	popq	%rbp
	.cfi_def_cfa %rsp, 8
	retq
.LBB2_4:                                # %func_SetCtxModelNumber.25
	.cfi_def_cfa %rbp, 16
	callq	SetCtxModelNumber.25
	popq	%rbp
	.cfi_def_cfa %rsp, 8
	retq
.LBB2_5:                                # %func_SetCtxModelNumber.32
	.cfi_def_cfa %rbp, 16
	callq	SetCtxModelNumber.32
	popq	%rbp
	.cfi_def_cfa %rsp, 8
	retq
.LBB2_6:                                # %func_SetCtxModelNumber.36
	.cfi_def_cfa %rbp, 16
	callq	SetCtxModelNumber.36
	popq	%rbp
	.cfi_def_cfa %rsp, 8
	retq
.LBB2_7:                                # %ctrl0
	.cfi_def_cfa %rbp, 16
	cmpl	$1, %eax
	je	.LBB2_2
# %bb.8:                                # %ctrl1
	cmpl	$2, %eax
	je	.LBB2_3
# %bb.9:                                # %ctrl2
	cmpl	$3, %eax
	je	.LBB2_4
# %bb.10:                               # %ctrl3
	cmpl	$4, %eax
	je	.LBB2_5
	jmp	.LBB2_6
.Lfunc_end2:
	.size	SetCtxModelNumber, .Lfunc_end2-SetCtxModelNumber
	.cfi_endproc
                                        # -- End function
	.globl	init_contexts           # -- Begin function init_contexts
	.p2align	4, 0x90
	.type	init_contexts,@function
init_contexts:                          # @init_contexts
	.cfi_startproc
# %bb.0:                                # %rand_bb
	pushq	%rbp
	.cfi_def_cfa_offset 16
	.cfi_offset %rbp, -16
	movq	%rsp, %rbp
	.cfi_def_cfa_register %rbp
	callq	get_urand
	cmpl	$0, %eax
	jne	.LBB3_9
# %bb.1:                                # %func_init_contexts.7
	callq	init_contexts.7
	popq	%rbp
	.cfi_def_cfa %rsp, 8
	retq
.LBB3_2:                                # %func_init_contexts.16
	.cfi_def_cfa %rbp, 16
	callq	init_contexts.16
	popq	%rbp
	.cfi_def_cfa %rsp, 8
	retq
.LBB3_3:                                # %func_init_contexts.35
	.cfi_def_cfa %rbp, 16
	callq	init_contexts.35
	popq	%rbp
	.cfi_def_cfa %rsp, 8
	retq
.LBB3_4:                                # %func_init_contexts.37
	.cfi_def_cfa %rbp, 16
	callq	init_contexts.37
	popq	%rbp
	.cfi_def_cfa %rsp, 8
	retq
.LBB3_5:                                # %func_init_contexts.38
	.cfi_def_cfa %rbp, 16
	callq	init_contexts.38
	popq	%rbp
	.cfi_def_cfa %rsp, 8
	retq
.LBB3_6:                                # %func_init_contexts.42
	.cfi_def_cfa %rbp, 16
	callq	init_contexts.42
	popq	%rbp
	.cfi_def_cfa %rsp, 8
	retq
.LBB3_7:                                # %func_init_contexts.43
	.cfi_def_cfa %rbp, 16
	callq	init_contexts.43
	popq	%rbp
	.cfi_def_cfa %rsp, 8
	retq
.LBB3_8:                                # %func_init_contexts.45
	.cfi_def_cfa %rbp, 16
	callq	init_contexts.45
	popq	%rbp
	.cfi_def_cfa %rsp, 8
	retq
.LBB3_9:                                # %ctrl0
	.cfi_def_cfa %rbp, 16
	cmpl	$1, %eax
	je	.LBB3_2
# %bb.10:                               # %ctrl1
	cmpl	$2, %eax
	je	.LBB3_3
# %bb.11:                               # %ctrl2
	cmpl	$3, %eax
	je	.LBB3_4
# %bb.12:                               # %ctrl3
	cmpl	$4, %eax
	je	.LBB3_5
# %bb.13:                               # %ctrl4
	cmpl	$5, %eax
	je	.LBB3_6
# %bb.14:                               # %ctrl5
	cmpl	$6, %eax
	je	.LBB3_7
	jmp	.LBB3_8
.Lfunc_end3:
	.size	init_contexts, .Lfunc_end3-init_contexts
	.cfi_endproc
                                        # -- End function
	.globl	XRate                   # -- Begin function XRate
	.p2align	4, 0x90
	.type	XRate,@function
XRate:                                  # @XRate
	.cfi_startproc
# %bb.0:                                # %rand_bb
	pushq	%rbp
	.cfi_def_cfa_offset 16
	.cfi_offset %rbp, -16
	movq	%rsp, %rbp
	.cfi_def_cfa_register %rbp
	pushq	%r14
	pushq	%rbx
	.cfi_offset %rbx, -32
	.cfi_offset %r14, -24
	movq	%rsi, %r14
	movq	%rdi, %rbx
	callq	get_urand
	cmpl	$0, %eax
	jne	.LBB4_9
# %bb.1:                                # %func_XRate.10
	movq	%rbx, %rdi
	movq	%r14, %rsi
	callq	XRate.10
	popq	%rbx
	popq	%r14
	popq	%rbp
	.cfi_def_cfa %rsp, 8
	retq
.LBB4_2:                                # %func_XRate.13
	.cfi_def_cfa %rbp, 16
	movq	%rbx, %rdi
	movq	%r14, %rsi
	callq	XRate.13
	popq	%rbx
	popq	%r14
	popq	%rbp
	.cfi_def_cfa %rsp, 8
	retq
.LBB4_3:                                # %func_XRate.31
	.cfi_def_cfa %rbp, 16
	movq	%rbx, %rdi
	movq	%r14, %rsi
	callq	XRate.31
	popq	%rbx
	popq	%r14
	popq	%rbp
	.cfi_def_cfa %rsp, 8
	retq
.LBB4_4:                                # %func_XRate.40
	.cfi_def_cfa %rbp, 16
	movq	%rbx, %rdi
	movq	%r14, %rsi
	callq	XRate.40
	popq	%rbx
	popq	%r14
	popq	%rbp
	.cfi_def_cfa %rsp, 8
	retq
.LBB4_5:                                # %func_XRate.46
	.cfi_def_cfa %rbp, 16
	movq	%rbx, %rdi
	movq	%r14, %rsi
	callq	XRate.46
	popq	%rbx
	popq	%r14
	popq	%rbp
	.cfi_def_cfa %rsp, 8
	retq
.LBB4_6:                                # %func_XRate.47
	.cfi_def_cfa %rbp, 16
	movq	%rbx, %rdi
	movq	%r14, %rsi
	callq	XRate.47
	popq	%rbx
	popq	%r14
	popq	%rbp
	.cfi_def_cfa %rsp, 8
	retq
.LBB4_7:                                # %func_XRate.48
	.cfi_def_cfa %rbp, 16
	movq	%rbx, %rdi
	movq	%r14, %rsi
	callq	XRate.48
	popq	%rbx
	popq	%r14
	popq	%rbp
	.cfi_def_cfa %rsp, 8
	retq
.LBB4_8:                                # %func_XRate.51
	.cfi_def_cfa %rbp, 16
	movq	%rbx, %rdi
	movq	%r14, %rsi
	callq	XRate.51
	popq	%rbx
	popq	%r14
	popq	%rbp
	.cfi_def_cfa %rsp, 8
	retq
.LBB4_9:                                # %ctrl0
	.cfi_def_cfa %rbp, 16
	cmpl	$1, %eax
	je	.LBB4_2
# %bb.10:                               # %ctrl1
	cmpl	$2, %eax
	je	.LBB4_3
# %bb.11:                               # %ctrl2
	cmpl	$3, %eax
	je	.LBB4_4
# %bb.12:                               # %ctrl3
	cmpl	$4, %eax
	je	.LBB4_5
# %bb.13:                               # %ctrl4
	cmpl	$5, %eax
	je	.LBB4_6
# %bb.14:                               # %ctrl5
	cmpl	$6, %eax
	je	.LBB4_7
	jmp	.LBB4_8
.Lfunc_end4:
	.size	XRate, .Lfunc_end4-XRate
	.cfi_endproc
                                        # -- End function
	.globl	GetCtxModelNumber       # -- Begin function GetCtxModelNumber
	.p2align	4, 0x90
	.type	GetCtxModelNumber,@function
GetCtxModelNumber:                      # @GetCtxModelNumber
	.cfi_startproc
# %bb.0:                                # %rand_bb
	pushq	%rbp
	.cfi_def_cfa_offset 16
	.cfi_offset %rbp, -16
	movq	%rsp, %rbp
	.cfi_def_cfa_register %rbp
	pushq	%r15
	pushq	%r14
	pushq	%rbx
	pushq	%rax
	.cfi_offset %rbx, -40
	.cfi_offset %r14, -32
	.cfi_offset %r15, -24
	movq	%rdx, %r14
	movq	%rsi, %r15
	movq	%rdi, %rbx
	callq	get_urand
	cmpl	$0, %eax
	jne	.LBB5_9
# %bb.1:                                # %func_GetCtxModelNumber.1
	movq	%rbx, %rdi
	movq	%r15, %rsi
	movq	%r14, %rdx
	callq	GetCtxModelNumber.1
	addq	$8, %rsp
	popq	%rbx
	popq	%r14
	popq	%r15
	popq	%rbp
	.cfi_def_cfa %rsp, 8
	retq
.LBB5_2:                                # %func_GetCtxModelNumber.3
	.cfi_def_cfa %rbp, 16
	movq	%rbx, %rdi
	movq	%r15, %rsi
	movq	%r14, %rdx
	callq	GetCtxModelNumber.3
	addq	$8, %rsp
	popq	%rbx
	popq	%r14
	popq	%r15
	popq	%rbp
	.cfi_def_cfa %rsp, 8
	retq
.LBB5_3:                                # %func_GetCtxModelNumber.4
	.cfi_def_cfa %rbp, 16
	movq	%rbx, %rdi
	movq	%r15, %rsi
	movq	%r14, %rdx
	callq	GetCtxModelNumber.4
	addq	$8, %rsp
	popq	%rbx
	popq	%r14
	popq	%r15
	popq	%rbp
	.cfi_def_cfa %rsp, 8
	retq
.LBB5_4:                                # %func_GetCtxModelNumber.18
	.cfi_def_cfa %rbp, 16
	movq	%rbx, %rdi
	movq	%r15, %rsi
	movq	%r14, %rdx
	callq	GetCtxModelNumber.18
	addq	$8, %rsp
	popq	%rbx
	popq	%r14
	popq	%r15
	popq	%rbp
	.cfi_def_cfa %rsp, 8
	retq
.LBB5_5:                                # %func_GetCtxModelNumber.20
	.cfi_def_cfa %rbp, 16
	movq	%rbx, %rdi
	movq	%r15, %rsi
	movq	%r14, %rdx
	callq	GetCtxModelNumber.20
	addq	$8, %rsp
	popq	%rbx
	popq	%r14
	popq	%r15
	popq	%rbp
	.cfi_def_cfa %rsp, 8
	retq
.LBB5_6:                                # %func_GetCtxModelNumber.26
	.cfi_def_cfa %rbp, 16
	movq	%rbx, %rdi
	movq	%r15, %rsi
	movq	%r14, %rdx
	callq	GetCtxModelNumber.26
	addq	$8, %rsp
	popq	%rbx
	popq	%r14
	popq	%r15
	popq	%rbp
	.cfi_def_cfa %rsp, 8
	retq
.LBB5_7:                                # %func_GetCtxModelNumber.27
	.cfi_def_cfa %rbp, 16
	movq	%rbx, %rdi
	movq	%r15, %rsi
	movq	%r14, %rdx
	callq	GetCtxModelNumber.27
	addq	$8, %rsp
	popq	%rbx
	popq	%r14
	popq	%r15
	popq	%rbp
	.cfi_def_cfa %rsp, 8
	retq
.LBB5_8:                                # %func_GetCtxModelNumber.29
	.cfi_def_cfa %rbp, 16
	movq	%rbx, %rdi
	movq	%r15, %rsi
	movq	%r14, %rdx
	callq	GetCtxModelNumber.29
	addq	$8, %rsp
	popq	%rbx
	popq	%r14
	popq	%r15
	popq	%rbp
	.cfi_def_cfa %rsp, 8
	retq
.LBB5_9:                                # %ctrl0
	.cfi_def_cfa %rbp, 16
	cmpl	$1, %eax
	je	.LBB5_2
# %bb.10:                               # %ctrl1
	cmpl	$2, %eax
	je	.LBB5_3
# %bb.11:                               # %ctrl2
	cmpl	$3, %eax
	je	.LBB5_4
# %bb.12:                               # %ctrl3
	cmpl	$4, %eax
	je	.LBB5_5
# %bb.13:                               # %ctrl4
	cmpl	$5, %eax
	je	.LBB5_6
# %bb.14:                               # %ctrl5
	cmpl	$6, %eax
	je	.LBB5_7
	jmp	.LBB5_8
.Lfunc_end5:
	.size	GetCtxModelNumber, .Lfunc_end5-GetCtxModelNumber
	.cfi_endproc
                                        # -- End function
	.globl	store_contexts          # -- Begin function store_contexts
	.p2align	4, 0x90
	.type	store_contexts,@function
store_contexts:                         # @store_contexts
	.cfi_startproc
# %bb.0:                                # %rand_bb
	pushq	%rbp
	.cfi_def_cfa_offset 16
	.cfi_offset %rbp, -16
	movq	%rsp, %rbp
	.cfi_def_cfa_register %rbp
	callq	get_urand
	cmpl	$0, %eax
	jne	.LBB6_7
# %bb.1:                                # %func_store_contexts.2
	callq	store_contexts.2
	popq	%rbp
	.cfi_def_cfa %rsp, 8
	retq
.LBB6_2:                                # %func_store_contexts.6
	.cfi_def_cfa %rbp, 16
	callq	store_contexts.6
	popq	%rbp
	.cfi_def_cfa %rsp, 8
	retq
.LBB6_3:                                # %func_store_contexts.9
	.cfi_def_cfa %rbp, 16
	callq	store_contexts.9
	popq	%rbp
	.cfi_def_cfa %rsp, 8
	retq
.LBB6_4:                                # %func_store_contexts.12
	.cfi_def_cfa %rbp, 16
	callq	store_contexts.12
	popq	%rbp
	.cfi_def_cfa %rsp, 8
	retq
.LBB6_5:                                # %func_store_contexts.19
	.cfi_def_cfa %rbp, 16
	callq	store_contexts.19
	popq	%rbp
	.cfi_def_cfa %rsp, 8
	retq
.LBB6_6:                                # %func_store_contexts.24
	.cfi_def_cfa %rbp, 16
	callq	store_contexts.24
	popq	%rbp
	.cfi_def_cfa %rsp, 8
	retq
.LBB6_7:                                # %ctrl0
	.cfi_def_cfa %rbp, 16
	cmpl	$1, %eax
	je	.LBB6_2
# %bb.8:                                # %ctrl1
	cmpl	$2, %eax
	je	.LBB6_3
# %bb.9:                                # %ctrl2
	cmpl	$3, %eax
	je	.LBB6_4
# %bb.10:                               # %ctrl3
	cmpl	$4, %eax
	je	.LBB6_5
	jmp	.LBB6_6
.Lfunc_end6:
	.size	store_contexts, .Lfunc_end6-store_contexts
	.cfi_endproc
                                        # -- End function
	.globl	update_field_frame_contexts # -- Begin function update_field_frame_contexts
	.p2align	4, 0x90
	.type	update_field_frame_contexts,@function
update_field_frame_contexts:            # @update_field_frame_contexts
	.cfi_startproc
# %bb.0:                                # %rand_bb
	pushq	%rbp
	.cfi_def_cfa_offset 16
	.cfi_offset %rbp, -16
	movq	%rsp, %rbp
	.cfi_def_cfa_register %rbp
	pushq	%rbx
	pushq	%rax
	.cfi_offset %rbx, -24
	movl	%edi, %ebx
	callq	get_urand
	cmpl	$0, %eax
	jne	.LBB7_7
# %bb.1:                                # %func_update_field_frame_contexts.5
	movl	%ebx, %edi
	callq	update_field_frame_contexts.5
	addq	$8, %rsp
	popq	%rbx
	popq	%rbp
	.cfi_def_cfa %rsp, 8
	retq
.LBB7_2:                                # %func_update_field_frame_contexts.14
	.cfi_def_cfa %rbp, 16
	movl	%ebx, %edi
	callq	update_field_frame_contexts.14
	addq	$8, %rsp
	popq	%rbx
	popq	%rbp
	.cfi_def_cfa %rsp, 8
	retq
.LBB7_3:                                # %func_update_field_frame_contexts.15
	.cfi_def_cfa %rbp, 16
	movl	%ebx, %edi
	callq	update_field_frame_contexts.15
	addq	$8, %rsp
	popq	%rbx
	popq	%rbp
	.cfi_def_cfa %rsp, 8
	retq
.LBB7_4:                                # %func_update_field_frame_contexts.23
	.cfi_def_cfa %rbp, 16
	movl	%ebx, %edi
	callq	update_field_frame_contexts.23
	addq	$8, %rsp
	popq	%rbx
	popq	%rbp
	.cfi_def_cfa %rsp, 8
	retq
.LBB7_5:                                # %func_update_field_frame_contexts.30
	.cfi_def_cfa %rbp, 16
	movl	%ebx, %edi
	callq	update_field_frame_contexts.30
	addq	$8, %rsp
	popq	%rbx
	popq	%rbp
	.cfi_def_cfa %rsp, 8
	retq
.LBB7_6:                                # %func_update_field_frame_contexts.34
	.cfi_def_cfa %rbp, 16
	movl	%ebx, %edi
	callq	update_field_frame_contexts.34
	addq	$8, %rsp
	popq	%rbx
	popq	%rbp
	.cfi_def_cfa %rsp, 8
	retq
.LBB7_7:                                # %ctrl0
	.cfi_def_cfa %rbp, 16
	cmpl	$1, %eax
	je	.LBB7_2
# %bb.8:                                # %ctrl1
	cmpl	$2, %eax
	je	.LBB7_3
# %bb.9:                                # %ctrl2
	cmpl	$3, %eax
	je	.LBB7_4
# %bb.10:                               # %ctrl3
	cmpl	$4, %eax
	je	.LBB7_5
	jmp	.LBB7_6
.Lfunc_end7:
	.size	update_field_frame_contexts, .Lfunc_end7-update_field_frame_contexts
	.cfi_endproc
                                        # -- End function
	.section	.rodata.cst8,"aM",@progbits,8
	.p2align	3               # -- Begin function GetCtxModelNumber.1
.LCPI8_0:
	.quad	5055640609639927018     # double 1.0E+30
	.text
	.globl	GetCtxModelNumber.1
	.p2align	4, 0x90
	.type	GetCtxModelNumber.1,@function
GetCtxModelNumber.1:                    # @GetCtxModelNumber.1
	.cfi_startproc
# %bb.0:                                # %entry
	pushq	%rbp
	.cfi_def_cfa_offset 16
	.cfi_offset %rbp, -16
	movq	%rsp, %rbp
	.cfi_def_cfa_register %rbp
	subq	$64, %rsp
	vmovsd	.LCPI8_0(%rip), %xmm0   # xmm0 = mem[0],zero
	movl	$852251534, -48(%rbp)   # imm = 0x32CC538E
	movq	%rdi, -64(%rbp)
	movq	%rsi, -40(%rbp)
	movq	%rdx, -32(%rbp)
	movq	img, %rax
	movl	24(%rax), %eax
	cmpl	$2, %eax
	movl	$1, %eax
	movl	$3, %ecx
	cmovel	%eax, %ecx
	movl	%ecx, -44(%rbp)
	vmovsd	%xmm0, -56(%rbp)
	movl	$0, -12(%rbp)
.LBB8_1:                                # %for.cond
                                        # =>This Loop Header: Depth=1
                                        #     Child Loop BB8_3 Depth 2
                                        #       Child Loop BB8_5 Depth 3
                                        #     Child Loop BB8_14 Depth 2
                                        #       Child Loop BB8_16 Depth 3
                                        #     Child Loop BB8_25 Depth 2
                                        #       Child Loop BB8_27 Depth 3
                                        #     Child Loop BB8_36 Depth 2
                                        #       Child Loop BB8_38 Depth 3
                                        #     Child Loop BB8_47 Depth 2
                                        #     Child Loop BB8_54 Depth 2
                                        #     Child Loop BB8_61 Depth 2
                                        #     Child Loop BB8_68 Depth 2
                                        #     Child Loop BB8_75 Depth 2
                                        #     Child Loop BB8_82 Depth 2
                                        #       Child Loop BB8_84 Depth 3
                                        #     Child Loop BB8_93 Depth 2
                                        #       Child Loop BB8_95 Depth 3
                                        #     Child Loop BB8_104 Depth 2
                                        #       Child Loop BB8_106 Depth 3
                                        #     Child Loop BB8_115 Depth 2
                                        #       Child Loop BB8_117 Depth 3
                                        #     Child Loop BB8_126 Depth 2
                                        #       Child Loop BB8_128 Depth 3
                                        #     Child Loop BB8_137 Depth 2
                                        #       Child Loop BB8_139 Depth 3
                                        #     Child Loop BB8_148 Depth 2
                                        #       Child Loop BB8_150 Depth 3
                                        #     Child Loop BB8_159 Depth 2
                                        #       Child Loop BB8_161 Depth 3
	movl	-12(%rbp), %eax
	cmpl	-44(%rbp), %eax
	jge	.LBB8_173
# %bb.2:                                # %for.body
                                        #   in Loop: Header=BB8_1 Depth=1
	vxorps	%xmm0, %xmm0, %xmm0
	vmovsd	%xmm0, -24(%rbp)
	movl	$0, -8(%rbp)
.LBB8_3:                                # %for.cond2
                                        #   Parent Loop BB8_1 Depth=1
                                        # =>  This Loop Header: Depth=2
                                        #       Child Loop BB8_5 Depth 3
	cmpl	$3, -8(%rbp)
	jge	.LBB8_13
# %bb.4:                                # %for.body4
                                        #   in Loop: Header=BB8_3 Depth=2
	movl	$0, -4(%rbp)
.LBB8_5:                                # %for.cond5
                                        #   Parent Loop BB8_1 Depth=1
                                        #     Parent Loop BB8_3 Depth=2
                                        # =>    This Inner Loop Header: Depth=3
	cmpl	$11, -4(%rbp)
	jge	.LBB8_11
# %bb.6:                                # %for.body7
                                        #   in Loop: Header=BB8_5 Depth=3
	movq	img, %rax
	cmpl	$2, 24(%rax)
	jne	.LBB8_8
# %bb.7:                                # %if.then
                                        #   in Loop: Header=BB8_5 Depth=3
	movq	-40(%rbp), %rdi
	movslq	-8(%rbp), %rax
	imulq	$176, %rax, %rax
	addq	%rax, %rdi
	movslq	-4(%rbp), %rax
	shlq	$4, %rax
	addq	%rax, %rdi
	movslq	-12(%rbp), %rax
	imulq	$264, %rax, %rax        # imm = 0x108
	movabsq	$INIT_MB_TYPE_I, %rsi
	addq	%rax, %rsi
	movslq	-8(%rbp), %rax
	imulq	$88, %rax, %rax
	addq	%rax, %rsi
	movslq	-4(%rbp), %rax
	shlq	$3, %rax
	addq	%rax, %rsi
	callq	XRate
	vaddsd	-24(%rbp), %xmm0, %xmm0
	vmovsd	%xmm0, -24(%rbp)
	jmp	.LBB8_9
.LBB8_8:                                # %if.else
                                        #   in Loop: Header=BB8_5 Depth=3
	movq	-40(%rbp), %rdi
	movslq	-8(%rbp), %rax
	imulq	$176, %rax, %rax
	addq	%rax, %rdi
	movslq	-4(%rbp), %rax
	shlq	$4, %rax
	addq	%rax, %rdi
	movslq	-12(%rbp), %rax
	imulq	$264, %rax, %rax        # imm = 0x108
	movabsq	$INIT_MB_TYPE_P, %rsi
	addq	%rax, %rsi
	movslq	-8(%rbp), %rax
	imulq	$88, %rax, %rax
	addq	%rax, %rsi
	movslq	-4(%rbp), %rax
	shlq	$3, %rax
	addq	%rax, %rsi
	callq	XRate
	vaddsd	-24(%rbp), %xmm0, %xmm0
	vmovsd	%xmm0, -24(%rbp)
.LBB8_9:                                # %if.end
                                        #   in Loop: Header=BB8_5 Depth=3
	jmp	.LBB8_10
.LBB8_10:                               # %for.inc
                                        #   in Loop: Header=BB8_5 Depth=3
	movl	-4(%rbp), %eax
	addl	$1, %eax
	movl	%eax, -4(%rbp)
	jmp	.LBB8_5
.LBB8_11:                               # %for.end
                                        #   in Loop: Header=BB8_3 Depth=2
	jmp	.LBB8_12
.LBB8_12:                               # %for.inc33
                                        #   in Loop: Header=BB8_3 Depth=2
	movl	-8(%rbp), %eax
	addl	$1, %eax
	movl	%eax, -8(%rbp)
	jmp	.LBB8_3
.LBB8_13:                               # %for.end35
                                        #   in Loop: Header=BB8_1 Depth=1
	movl	$0, -8(%rbp)
.LBB8_14:                               # %for.cond36
                                        #   Parent Loop BB8_1 Depth=1
                                        # =>  This Loop Header: Depth=2
                                        #       Child Loop BB8_16 Depth 3
	cmpl	$2, -8(%rbp)
	jge	.LBB8_24
# %bb.15:                               # %for.body38
                                        #   in Loop: Header=BB8_14 Depth=2
	movl	$0, -4(%rbp)
.LBB8_16:                               # %for.cond39
                                        #   Parent Loop BB8_1 Depth=1
                                        #     Parent Loop BB8_14 Depth=2
                                        # =>    This Inner Loop Header: Depth=3
	cmpl	$9, -4(%rbp)
	jge	.LBB8_22
# %bb.17:                               # %for.body41
                                        #   in Loop: Header=BB8_16 Depth=3
	movq	img, %rax
	cmpl	$2, 24(%rax)
	jne	.LBB8_19
# %bb.18:                               # %if.then44
                                        #   in Loop: Header=BB8_16 Depth=3
	movq	-40(%rbp), %rdi
	addq	$528, %rdi              # imm = 0x210
	movslq	-8(%rbp), %rax
	imulq	$144, %rax, %rax
	addq	%rax, %rdi
	movslq	-4(%rbp), %rax
	shlq	$4, %rax
	addq	%rax, %rdi
	movslq	-12(%rbp), %rax
	imulq	$144, %rax, %rax
	movabsq	$INIT_B8_TYPE_I, %rsi
	addq	%rax, %rsi
	movslq	-8(%rbp), %rax
	imulq	$72, %rax, %rax
	addq	%rax, %rsi
	movslq	-4(%rbp), %rax
	shlq	$3, %rax
	addq	%rax, %rsi
	callq	XRate
	vaddsd	-24(%rbp), %xmm0, %xmm0
	vmovsd	%xmm0, -24(%rbp)
	jmp	.LBB8_20
.LBB8_19:                               # %if.else58
                                        #   in Loop: Header=BB8_16 Depth=3
	movq	-40(%rbp), %rdi
	addq	$528, %rdi              # imm = 0x210
	movslq	-8(%rbp), %rax
	imulq	$144, %rax, %rax
	addq	%rax, %rdi
	movslq	-4(%rbp), %rax
	shlq	$4, %rax
	addq	%rax, %rdi
	movslq	-12(%rbp), %rax
	imulq	$144, %rax, %rax
	movabsq	$INIT_B8_TYPE_P, %rsi
	addq	%rax, %rsi
	movslq	-8(%rbp), %rax
	imulq	$72, %rax, %rax
	addq	%rax, %rsi
	movslq	-4(%rbp), %rax
	shlq	$3, %rax
	addq	%rax, %rsi
	callq	XRate
	vaddsd	-24(%rbp), %xmm0, %xmm0
	vmovsd	%xmm0, -24(%rbp)
.LBB8_20:                               # %if.end73
                                        #   in Loop: Header=BB8_16 Depth=3
	jmp	.LBB8_21
.LBB8_21:                               # %for.inc74
                                        #   in Loop: Header=BB8_16 Depth=3
	movl	-4(%rbp), %eax
	addl	$1, %eax
	movl	%eax, -4(%rbp)
	jmp	.LBB8_16
.LBB8_22:                               # %for.end76
                                        #   in Loop: Header=BB8_14 Depth=2
	jmp	.LBB8_23
.LBB8_23:                               # %for.inc77
                                        #   in Loop: Header=BB8_14 Depth=2
	movl	-8(%rbp), %eax
	addl	$1, %eax
	movl	%eax, -8(%rbp)
	jmp	.LBB8_14
.LBB8_24:                               # %for.end79
                                        #   in Loop: Header=BB8_1 Depth=1
	movl	$0, -8(%rbp)
.LBB8_25:                               # %for.cond80
                                        #   Parent Loop BB8_1 Depth=1
                                        # =>  This Loop Header: Depth=2
                                        #       Child Loop BB8_27 Depth 3
	cmpl	$2, -8(%rbp)
	jge	.LBB8_35
# %bb.26:                               # %for.body82
                                        #   in Loop: Header=BB8_25 Depth=2
	movl	$0, -4(%rbp)
.LBB8_27:                               # %for.cond83
                                        #   Parent Loop BB8_1 Depth=1
                                        #     Parent Loop BB8_25 Depth=2
                                        # =>    This Inner Loop Header: Depth=3
	cmpl	$10, -4(%rbp)
	jge	.LBB8_33
# %bb.28:                               # %for.body85
                                        #   in Loop: Header=BB8_27 Depth=3
	movq	img, %rax
	cmpl	$2, 24(%rax)
	jne	.LBB8_30
# %bb.29:                               # %if.then88
                                        #   in Loop: Header=BB8_27 Depth=3
	movq	-40(%rbp), %rdi
	addq	$816, %rdi              # imm = 0x330
	movslq	-8(%rbp), %rax
	imulq	$160, %rax, %rax
	addq	%rax, %rdi
	movslq	-4(%rbp), %rax
	shlq	$4, %rax
	addq	%rax, %rdi
	movslq	-12(%rbp), %rax
	imulq	$160, %rax, %rax
	movabsq	$INIT_MV_RES_I, %rsi
	addq	%rax, %rsi
	movslq	-8(%rbp), %rax
	imulq	$80, %rax, %rax
	addq	%rax, %rsi
	movslq	-4(%rbp), %rax
	shlq	$3, %rax
	addq	%rax, %rsi
	callq	XRate
	vaddsd	-24(%rbp), %xmm0, %xmm0
	vmovsd	%xmm0, -24(%rbp)
	jmp	.LBB8_31
.LBB8_30:                               # %if.else102
                                        #   in Loop: Header=BB8_27 Depth=3
	movq	-40(%rbp), %rdi
	addq	$816, %rdi              # imm = 0x330
	movslq	-8(%rbp), %rax
	imulq	$160, %rax, %rax
	addq	%rax, %rdi
	movslq	-4(%rbp), %rax
	shlq	$4, %rax
	addq	%rax, %rdi
	movslq	-12(%rbp), %rax
	imulq	$160, %rax, %rax
	movabsq	$INIT_MV_RES_P, %rsi
	addq	%rax, %rsi
	movslq	-8(%rbp), %rax
	imulq	$80, %rax, %rax
	addq	%rax, %rsi
	movslq	-4(%rbp), %rax
	shlq	$3, %rax
	addq	%rax, %rsi
	callq	XRate
	vaddsd	-24(%rbp), %xmm0, %xmm0
	vmovsd	%xmm0, -24(%rbp)
.LBB8_31:                               # %if.end117
                                        #   in Loop: Header=BB8_27 Depth=3
	jmp	.LBB8_32
.LBB8_32:                               # %for.inc118
                                        #   in Loop: Header=BB8_27 Depth=3
	movl	-4(%rbp), %eax
	addl	$1, %eax
	movl	%eax, -4(%rbp)
	jmp	.LBB8_27
.LBB8_33:                               # %for.end120
                                        #   in Loop: Header=BB8_25 Depth=2
	jmp	.LBB8_34
.LBB8_34:                               # %for.inc121
                                        #   in Loop: Header=BB8_25 Depth=2
	movl	-8(%rbp), %eax
	addl	$1, %eax
	movl	%eax, -8(%rbp)
	jmp	.LBB8_25
.LBB8_35:                               # %for.end123
                                        #   in Loop: Header=BB8_1 Depth=1
	movl	$0, -8(%rbp)
.LBB8_36:                               # %for.cond124
                                        #   Parent Loop BB8_1 Depth=1
                                        # =>  This Loop Header: Depth=2
                                        #       Child Loop BB8_38 Depth 3
	cmpl	$2, -8(%rbp)
	jge	.LBB8_46
# %bb.37:                               # %for.body126
                                        #   in Loop: Header=BB8_36 Depth=2
	movl	$0, -4(%rbp)
.LBB8_38:                               # %for.cond127
                                        #   Parent Loop BB8_1 Depth=1
                                        #     Parent Loop BB8_36 Depth=2
                                        # =>    This Inner Loop Header: Depth=3
	cmpl	$6, -4(%rbp)
	jge	.LBB8_44
# %bb.39:                               # %for.body129
                                        #   in Loop: Header=BB8_38 Depth=3
	movq	img, %rax
	cmpl	$2, 24(%rax)
	jne	.LBB8_41
# %bb.40:                               # %if.then132
                                        #   in Loop: Header=BB8_38 Depth=3
	movq	-40(%rbp), %rdi
	addq	$1136, %rdi             # imm = 0x470
	movslq	-8(%rbp), %rax
	imulq	$96, %rax, %rax
	addq	%rax, %rdi
	movslq	-4(%rbp), %rax
	shlq	$4, %rax
	addq	%rax, %rdi
	movslq	-12(%rbp), %rax
	imulq	$96, %rax, %rax
	movabsq	$INIT_REF_NO_I, %rsi
	addq	%rax, %rsi
	movslq	-8(%rbp), %rax
	imulq	$48, %rax, %rax
	addq	%rax, %rsi
	movslq	-4(%rbp), %rax
	shlq	$3, %rax
	addq	%rax, %rsi
	callq	XRate
	vaddsd	-24(%rbp), %xmm0, %xmm0
	vmovsd	%xmm0, -24(%rbp)
	jmp	.LBB8_42
.LBB8_41:                               # %if.else146
                                        #   in Loop: Header=BB8_38 Depth=3
	movq	-40(%rbp), %rdi
	addq	$1136, %rdi             # imm = 0x470
	movslq	-8(%rbp), %rax
	imulq	$96, %rax, %rax
	addq	%rax, %rdi
	movslq	-4(%rbp), %rax
	shlq	$4, %rax
	addq	%rax, %rdi
	movslq	-12(%rbp), %rax
	imulq	$96, %rax, %rax
	movabsq	$INIT_REF_NO_P, %rsi
	addq	%rax, %rsi
	movslq	-8(%rbp), %rax
	imulq	$48, %rax, %rax
	addq	%rax, %rsi
	movslq	-4(%rbp), %rax
	shlq	$3, %rax
	addq	%rax, %rsi
	callq	XRate
	vaddsd	-24(%rbp), %xmm0, %xmm0
	vmovsd	%xmm0, -24(%rbp)
.LBB8_42:                               # %if.end161
                                        #   in Loop: Header=BB8_38 Depth=3
	jmp	.LBB8_43
.LBB8_43:                               # %for.inc162
                                        #   in Loop: Header=BB8_38 Depth=3
	movl	-4(%rbp), %eax
	addl	$1, %eax
	movl	%eax, -4(%rbp)
	jmp	.LBB8_38
.LBB8_44:                               # %for.end164
                                        #   in Loop: Header=BB8_36 Depth=2
	jmp	.LBB8_45
.LBB8_45:                               # %for.inc165
                                        #   in Loop: Header=BB8_36 Depth=2
	movl	-8(%rbp), %eax
	addl	$1, %eax
	movl	%eax, -8(%rbp)
	jmp	.LBB8_36
.LBB8_46:                               # %for.end167
                                        #   in Loop: Header=BB8_1 Depth=1
	movl	$0, -4(%rbp)
.LBB8_47:                               # %for.cond168
                                        #   Parent Loop BB8_1 Depth=1
                                        # =>  This Inner Loop Header: Depth=2
	cmpl	$4, -4(%rbp)
	jge	.LBB8_53
# %bb.48:                               # %for.body170
                                        #   in Loop: Header=BB8_47 Depth=2
	movq	img, %rax
	cmpl	$2, 24(%rax)
	jne	.LBB8_50
# %bb.49:                               # %if.then173
                                        #   in Loop: Header=BB8_47 Depth=2
	movq	-40(%rbp), %rdi
	addq	$1328, %rdi             # imm = 0x530
	movslq	-4(%rbp), %rax
	shlq	$4, %rax
	addq	%rax, %rdi
	movslq	-12(%rbp), %rax
	shlq	$5, %rax
	movabsq	$INIT_DELTA_QP_I, %rsi
	addq	%rax, %rsi
	movslq	-4(%rbp), %rax
	shlq	$3, %rax
	addq	%rax, %rsi
	callq	XRate
	vaddsd	-24(%rbp), %xmm0, %xmm0
	vmovsd	%xmm0, -24(%rbp)
	jmp	.LBB8_51
.LBB8_50:                               # %if.else184
                                        #   in Loop: Header=BB8_47 Depth=2
	movq	-40(%rbp), %rdi
	addq	$1328, %rdi             # imm = 0x530
	movslq	-4(%rbp), %rax
	shlq	$4, %rax
	addq	%rax, %rdi
	movslq	-12(%rbp), %rax
	shlq	$5, %rax
	movabsq	$INIT_DELTA_QP_P, %rsi
	addq	%rax, %rsi
	movslq	-4(%rbp), %rax
	shlq	$3, %rax
	addq	%rax, %rsi
	callq	XRate
	vaddsd	-24(%rbp), %xmm0, %xmm0
	vmovsd	%xmm0, -24(%rbp)
.LBB8_51:                               # %if.end196
                                        #   in Loop: Header=BB8_47 Depth=2
	jmp	.LBB8_52
.LBB8_52:                               # %for.inc197
                                        #   in Loop: Header=BB8_47 Depth=2
	movl	-4(%rbp), %eax
	addl	$1, %eax
	movl	%eax, -4(%rbp)
	jmp	.LBB8_47
.LBB8_53:                               # %for.end199
                                        #   in Loop: Header=BB8_1 Depth=1
	movl	$0, -4(%rbp)
.LBB8_54:                               # %for.cond200
                                        #   Parent Loop BB8_1 Depth=1
                                        # =>  This Inner Loop Header: Depth=2
	cmpl	$4, -4(%rbp)
	jge	.LBB8_60
# %bb.55:                               # %for.body202
                                        #   in Loop: Header=BB8_54 Depth=2
	movq	img, %rax
	cmpl	$2, 24(%rax)
	jne	.LBB8_57
# %bb.56:                               # %if.then205
                                        #   in Loop: Header=BB8_54 Depth=2
	movq	-40(%rbp), %rdi
	addq	$1392, %rdi             # imm = 0x570
	movslq	-4(%rbp), %rax
	shlq	$4, %rax
	addq	%rax, %rdi
	movslq	-12(%rbp), %rax
	shlq	$5, %rax
	movabsq	$INIT_MB_AFF_I, %rsi
	addq	%rax, %rsi
	movslq	-4(%rbp), %rax
	shlq	$3, %rax
	addq	%rax, %rsi
	callq	XRate
	vaddsd	-24(%rbp), %xmm0, %xmm0
	vmovsd	%xmm0, -24(%rbp)
	jmp	.LBB8_58
.LBB8_57:                               # %if.else216
                                        #   in Loop: Header=BB8_54 Depth=2
	movq	-40(%rbp), %rdi
	addq	$1392, %rdi             # imm = 0x570
	movslq	-4(%rbp), %rax
	shlq	$4, %rax
	addq	%rax, %rdi
	movslq	-12(%rbp), %rax
	shlq	$5, %rax
	movabsq	$INIT_MB_AFF_P, %rsi
	addq	%rax, %rsi
	movslq	-4(%rbp), %rax
	shlq	$3, %rax
	addq	%rax, %rsi
	callq	XRate
	vaddsd	-24(%rbp), %xmm0, %xmm0
	vmovsd	%xmm0, -24(%rbp)
.LBB8_58:                               # %if.end228
                                        #   in Loop: Header=BB8_54 Depth=2
	jmp	.LBB8_59
.LBB8_59:                               # %for.inc229
                                        #   in Loop: Header=BB8_54 Depth=2
	movl	-4(%rbp), %eax
	addl	$1, %eax
	movl	%eax, -4(%rbp)
	jmp	.LBB8_54
.LBB8_60:                               # %for.end231
                                        #   in Loop: Header=BB8_1 Depth=1
	movl	$0, -4(%rbp)
.LBB8_61:                               # %for.cond232
                                        #   Parent Loop BB8_1 Depth=1
                                        # =>  This Inner Loop Header: Depth=2
	cmpl	$3, -4(%rbp)
	jge	.LBB8_67
# %bb.62:                               # %for.body234
                                        #   in Loop: Header=BB8_61 Depth=2
	movq	img, %rax
	cmpl	$2, 24(%rax)
	jne	.LBB8_64
# %bb.63:                               # %if.then237
                                        #   in Loop: Header=BB8_61 Depth=2
	movq	-40(%rbp), %rdi
	addq	$1456, %rdi             # imm = 0x5B0
	movslq	-4(%rbp), %rax
	shlq	$4, %rax
	addq	%rax, %rdi
	movslq	-12(%rbp), %rax
	imulq	$24, %rax, %rax
	movabsq	$INIT_TRANSFORM_SIZE_I, %rsi
	addq	%rax, %rsi
	movslq	-4(%rbp), %rax
	shlq	$3, %rax
	addq	%rax, %rsi
	callq	XRate
	vaddsd	-24(%rbp), %xmm0, %xmm0
	vmovsd	%xmm0, -24(%rbp)
	jmp	.LBB8_65
.LBB8_64:                               # %if.else248
                                        #   in Loop: Header=BB8_61 Depth=2
	movq	-40(%rbp), %rdi
	addq	$1456, %rdi             # imm = 0x5B0
	movslq	-4(%rbp), %rax
	shlq	$4, %rax
	addq	%rax, %rdi
	movslq	-12(%rbp), %rax
	imulq	$24, %rax, %rax
	movabsq	$INIT_TRANSFORM_SIZE_P, %rsi
	addq	%rax, %rsi
	movslq	-4(%rbp), %rax
	shlq	$3, %rax
	addq	%rax, %rsi
	callq	XRate
	vaddsd	-24(%rbp), %xmm0, %xmm0
	vmovsd	%xmm0, -24(%rbp)
.LBB8_65:                               # %if.end260
                                        #   in Loop: Header=BB8_61 Depth=2
	jmp	.LBB8_66
.LBB8_66:                               # %for.inc261
                                        #   in Loop: Header=BB8_61 Depth=2
	movl	-4(%rbp), %eax
	addl	$1, %eax
	movl	%eax, -4(%rbp)
	jmp	.LBB8_61
.LBB8_67:                               # %for.end263
                                        #   in Loop: Header=BB8_1 Depth=1
	movl	$0, -4(%rbp)
.LBB8_68:                               # %for.cond264
                                        #   Parent Loop BB8_1 Depth=1
                                        # =>  This Inner Loop Header: Depth=2
	cmpl	$2, -4(%rbp)
	jge	.LBB8_74
# %bb.69:                               # %for.body266
                                        #   in Loop: Header=BB8_68 Depth=2
	movq	img, %rax
	cmpl	$2, 24(%rax)
	jne	.LBB8_71
# %bb.70:                               # %if.then269
                                        #   in Loop: Header=BB8_68 Depth=2
	movq	-32(%rbp), %rdi
	movslq	-4(%rbp), %rax
	shlq	$4, %rax
	addq	%rax, %rdi
	movslq	-12(%rbp), %rax
	shlq	$4, %rax
	movabsq	$INIT_IPR_I, %rsi
	addq	%rax, %rsi
	movslq	-4(%rbp), %rax
	shlq	$3, %rax
	addq	%rax, %rsi
	callq	XRate
	vaddsd	-24(%rbp), %xmm0, %xmm0
	vmovsd	%xmm0, -24(%rbp)
	jmp	.LBB8_72
.LBB8_71:                               # %if.else280
                                        #   in Loop: Header=BB8_68 Depth=2
	movq	-32(%rbp), %rdi
	movslq	-4(%rbp), %rax
	shlq	$4, %rax
	addq	%rax, %rdi
	movslq	-12(%rbp), %rax
	shlq	$4, %rax
	movabsq	$INIT_IPR_P, %rsi
	addq	%rax, %rsi
	movslq	-4(%rbp), %rax
	shlq	$3, %rax
	addq	%rax, %rsi
	callq	XRate
	vaddsd	-24(%rbp), %xmm0, %xmm0
	vmovsd	%xmm0, -24(%rbp)
.LBB8_72:                               # %if.end292
                                        #   in Loop: Header=BB8_68 Depth=2
	jmp	.LBB8_73
.LBB8_73:                               # %for.inc293
                                        #   in Loop: Header=BB8_68 Depth=2
	movl	-4(%rbp), %eax
	addl	$1, %eax
	movl	%eax, -4(%rbp)
	jmp	.LBB8_68
.LBB8_74:                               # %for.end295
                                        #   in Loop: Header=BB8_1 Depth=1
	movl	$0, -4(%rbp)
.LBB8_75:                               # %for.cond296
                                        #   Parent Loop BB8_1 Depth=1
                                        # =>  This Inner Loop Header: Depth=2
	cmpl	$4, -4(%rbp)
	jge	.LBB8_81
# %bb.76:                               # %for.body298
                                        #   in Loop: Header=BB8_75 Depth=2
	movq	img, %rax
	cmpl	$2, 24(%rax)
	jne	.LBB8_78
# %bb.77:                               # %if.then301
                                        #   in Loop: Header=BB8_75 Depth=2
	movq	-32(%rbp), %rdi
	addq	$32, %rdi
	movslq	-4(%rbp), %rax
	shlq	$4, %rax
	addq	%rax, %rdi
	movslq	-12(%rbp), %rax
	shlq	$5, %rax
	movabsq	$INIT_CIPR_I, %rsi
	addq	%rax, %rsi
	movslq	-4(%rbp), %rax
	shlq	$3, %rax
	addq	%rax, %rsi
	callq	XRate
	vaddsd	-24(%rbp), %xmm0, %xmm0
	vmovsd	%xmm0, -24(%rbp)
	jmp	.LBB8_79
.LBB8_78:                               # %if.else312
                                        #   in Loop: Header=BB8_75 Depth=2
	movq	-32(%rbp), %rdi
	addq	$32, %rdi
	movslq	-4(%rbp), %rax
	shlq	$4, %rax
	addq	%rax, %rdi
	movslq	-12(%rbp), %rax
	shlq	$5, %rax
	movabsq	$INIT_CIPR_P, %rsi
	addq	%rax, %rsi
	movslq	-4(%rbp), %rax
	shlq	$3, %rax
	addq	%rax, %rsi
	callq	XRate
	vaddsd	-24(%rbp), %xmm0, %xmm0
	vmovsd	%xmm0, -24(%rbp)
.LBB8_79:                               # %if.end324
                                        #   in Loop: Header=BB8_75 Depth=2
	jmp	.LBB8_80
.LBB8_80:                               # %for.inc325
                                        #   in Loop: Header=BB8_75 Depth=2
	movl	-4(%rbp), %eax
	addl	$1, %eax
	movl	%eax, -4(%rbp)
	jmp	.LBB8_75
.LBB8_81:                               # %for.end327
                                        #   in Loop: Header=BB8_1 Depth=1
	movl	$0, -8(%rbp)
.LBB8_82:                               # %for.cond328
                                        #   Parent Loop BB8_1 Depth=1
                                        # =>  This Loop Header: Depth=2
                                        #       Child Loop BB8_84 Depth 3
	cmpl	$3, -8(%rbp)
	jge	.LBB8_92
# %bb.83:                               # %for.body330
                                        #   in Loop: Header=BB8_82 Depth=2
	movl	$0, -4(%rbp)
.LBB8_84:                               # %for.cond331
                                        #   Parent Loop BB8_1 Depth=1
                                        #     Parent Loop BB8_82 Depth=2
                                        # =>    This Inner Loop Header: Depth=3
	cmpl	$4, -4(%rbp)
	jge	.LBB8_90
# %bb.85:                               # %for.body333
                                        #   in Loop: Header=BB8_84 Depth=3
	movq	img, %rax
	cmpl	$2, 24(%rax)
	jne	.LBB8_87
# %bb.86:                               # %if.then336
                                        #   in Loop: Header=BB8_84 Depth=3
	movq	-32(%rbp), %rdi
	addq	$96, %rdi
	movslq	-8(%rbp), %rax
	shlq	$6, %rax
	addq	%rax, %rdi
	movslq	-4(%rbp), %rax
	shlq	$4, %rax
	addq	%rax, %rdi
	movslq	-12(%rbp), %rax
	imulq	$96, %rax, %rax
	movabsq	$INIT_CBP_I, %rsi
	addq	%rax, %rsi
	movslq	-8(%rbp), %rax
	shlq	$5, %rax
	addq	%rax, %rsi
	movslq	-4(%rbp), %rax
	shlq	$3, %rax
	addq	%rax, %rsi
	callq	XRate
	vaddsd	-24(%rbp), %xmm0, %xmm0
	vmovsd	%xmm0, -24(%rbp)
	jmp	.LBB8_88
.LBB8_87:                               # %if.else350
                                        #   in Loop: Header=BB8_84 Depth=3
	movq	-32(%rbp), %rdi
	addq	$96, %rdi
	movslq	-8(%rbp), %rax
	shlq	$6, %rax
	addq	%rax, %rdi
	movslq	-4(%rbp), %rax
	shlq	$4, %rax
	addq	%rax, %rdi
	movslq	-12(%rbp), %rax
	imulq	$96, %rax, %rax
	movabsq	$INIT_CBP_P, %rsi
	addq	%rax, %rsi
	movslq	-8(%rbp), %rax
	shlq	$5, %rax
	addq	%rax, %rsi
	movslq	-4(%rbp), %rax
	shlq	$3, %rax
	addq	%rax, %rsi
	callq	XRate
	vaddsd	-24(%rbp), %xmm0, %xmm0
	vmovsd	%xmm0, -24(%rbp)
.LBB8_88:                               # %if.end365
                                        #   in Loop: Header=BB8_84 Depth=3
	jmp	.LBB8_89
.LBB8_89:                               # %for.inc366
                                        #   in Loop: Header=BB8_84 Depth=3
	movl	-4(%rbp), %eax
	addl	$1, %eax
	movl	%eax, -4(%rbp)
	jmp	.LBB8_84
.LBB8_90:                               # %for.end368
                                        #   in Loop: Header=BB8_82 Depth=2
	jmp	.LBB8_91
.LBB8_91:                               # %for.inc369
                                        #   in Loop: Header=BB8_82 Depth=2
	movl	-8(%rbp), %eax
	addl	$1, %eax
	movl	%eax, -8(%rbp)
	jmp	.LBB8_82
.LBB8_92:                               # %for.end371
                                        #   in Loop: Header=BB8_1 Depth=1
	movl	$0, -8(%rbp)
.LBB8_93:                               # %for.cond372
                                        #   Parent Loop BB8_1 Depth=1
                                        # =>  This Loop Header: Depth=2
                                        #       Child Loop BB8_95 Depth 3
	cmpl	$10, -8(%rbp)
	jge	.LBB8_103
# %bb.94:                               # %for.body374
                                        #   in Loop: Header=BB8_93 Depth=2
	movl	$0, -4(%rbp)
.LBB8_95:                               # %for.cond375
                                        #   Parent Loop BB8_1 Depth=1
                                        #     Parent Loop BB8_93 Depth=2
                                        # =>    This Inner Loop Header: Depth=3
	cmpl	$4, -4(%rbp)
	jge	.LBB8_101
# %bb.96:                               # %for.body377
                                        #   in Loop: Header=BB8_95 Depth=3
	movq	img, %rax
	cmpl	$2, 24(%rax)
	jne	.LBB8_98
# %bb.97:                               # %if.then380
                                        #   in Loop: Header=BB8_95 Depth=3
	movq	-32(%rbp), %rdi
	addq	$288, %rdi              # imm = 0x120
	movslq	-8(%rbp), %rax
	shlq	$6, %rax
	addq	%rax, %rdi
	movslq	-4(%rbp), %rax
	shlq	$4, %rax
	addq	%rax, %rdi
	movslq	-12(%rbp), %rax
	shlq	$8, %rax
	movabsq	$INIT_BCBP_I, %rsi
	addq	%rax, %rsi
	movslq	-8(%rbp), %rax
	shlq	$5, %rax
	addq	%rax, %rsi
	movslq	-4(%rbp), %rax
	shlq	$3, %rax
	addq	%rax, %rsi
	callq	XRate
	vaddsd	-24(%rbp), %xmm0, %xmm0
	vmovsd	%xmm0, -24(%rbp)
	jmp	.LBB8_99
.LBB8_98:                               # %if.else394
                                        #   in Loop: Header=BB8_95 Depth=3
	movq	-32(%rbp), %rdi
	addq	$288, %rdi              # imm = 0x120
	movslq	-8(%rbp), %rax
	shlq	$6, %rax
	addq	%rax, %rdi
	movslq	-4(%rbp), %rax
	shlq	$4, %rax
	addq	%rax, %rdi
	movslq	-12(%rbp), %rax
	shlq	$8, %rax
	movabsq	$INIT_BCBP_P, %rsi
	addq	%rax, %rsi
	movslq	-8(%rbp), %rax
	shlq	$5, %rax
	addq	%rax, %rsi
	movslq	-4(%rbp), %rax
	shlq	$3, %rax
	addq	%rax, %rsi
	callq	XRate
	vaddsd	-24(%rbp), %xmm0, %xmm0
	vmovsd	%xmm0, -24(%rbp)
.LBB8_99:                               # %if.end409
                                        #   in Loop: Header=BB8_95 Depth=3
	jmp	.LBB8_100
.LBB8_100:                              # %for.inc410
                                        #   in Loop: Header=BB8_95 Depth=3
	movl	-4(%rbp), %eax
	addl	$1, %eax
	movl	%eax, -4(%rbp)
	jmp	.LBB8_95
.LBB8_101:                              # %for.end412
                                        #   in Loop: Header=BB8_93 Depth=2
	jmp	.LBB8_102
.LBB8_102:                              # %for.inc413
                                        #   in Loop: Header=BB8_93 Depth=2
	movl	-8(%rbp), %eax
	addl	$1, %eax
	movl	%eax, -8(%rbp)
	jmp	.LBB8_93
.LBB8_103:                              # %for.end415
                                        #   in Loop: Header=BB8_1 Depth=1
	movl	$0, -8(%rbp)
.LBB8_104:                              # %for.cond416
                                        #   Parent Loop BB8_1 Depth=1
                                        # =>  This Loop Header: Depth=2
                                        #       Child Loop BB8_106 Depth 3
	cmpl	$10, -8(%rbp)
	jge	.LBB8_114
# %bb.105:                              # %for.body418
                                        #   in Loop: Header=BB8_104 Depth=2
	movl	$0, -4(%rbp)
.LBB8_106:                              # %for.cond419
                                        #   Parent Loop BB8_1 Depth=1
                                        #     Parent Loop BB8_104 Depth=2
                                        # =>    This Inner Loop Header: Depth=3
	cmpl	$15, -4(%rbp)
	jge	.LBB8_112
# %bb.107:                              # %for.body421
                                        #   in Loop: Header=BB8_106 Depth=3
	movq	img, %rax
	cmpl	$2, 24(%rax)
	jne	.LBB8_109
# %bb.108:                              # %if.then424
                                        #   in Loop: Header=BB8_106 Depth=3
	movq	-32(%rbp), %rdi
	addq	$928, %rdi              # imm = 0x3A0
	movslq	-8(%rbp), %rax
	imulq	$240, %rax, %rax
	addq	%rax, %rdi
	movslq	-4(%rbp), %rax
	shlq	$4, %rax
	addq	%rax, %rdi
	movslq	-12(%rbp), %rax
	imulq	$960, %rax, %rax        # imm = 0x3C0
	movabsq	$INIT_MAP_I, %rsi
	addq	%rax, %rsi
	movslq	-8(%rbp), %rax
	imulq	$120, %rax, %rax
	addq	%rax, %rsi
	movslq	-4(%rbp), %rax
	shlq	$3, %rax
	addq	%rax, %rsi
	callq	XRate
	vaddsd	-24(%rbp), %xmm0, %xmm0
	vmovsd	%xmm0, -24(%rbp)
	jmp	.LBB8_110
.LBB8_109:                              # %if.else438
                                        #   in Loop: Header=BB8_106 Depth=3
	movq	-32(%rbp), %rdi
	addq	$928, %rdi              # imm = 0x3A0
	movslq	-8(%rbp), %rax
	imulq	$240, %rax, %rax
	addq	%rax, %rdi
	movslq	-4(%rbp), %rax
	shlq	$4, %rax
	addq	%rax, %rdi
	movslq	-12(%rbp), %rax
	imulq	$960, %rax, %rax        # imm = 0x3C0
	movabsq	$INIT_MAP_P, %rsi
	addq	%rax, %rsi
	movslq	-8(%rbp), %rax
	imulq	$120, %rax, %rax
	addq	%rax, %rsi
	movslq	-4(%rbp), %rax
	shlq	$3, %rax
	addq	%rax, %rsi
	callq	XRate
	vaddsd	-24(%rbp), %xmm0, %xmm0
	vmovsd	%xmm0, -24(%rbp)
.LBB8_110:                              # %if.end453
                                        #   in Loop: Header=BB8_106 Depth=3
	jmp	.LBB8_111
.LBB8_111:                              # %for.inc454
                                        #   in Loop: Header=BB8_106 Depth=3
	movl	-4(%rbp), %eax
	addl	$1, %eax
	movl	%eax, -4(%rbp)
	jmp	.LBB8_106
.LBB8_112:                              # %for.end456
                                        #   in Loop: Header=BB8_104 Depth=2
	jmp	.LBB8_113
.LBB8_113:                              # %for.inc457
                                        #   in Loop: Header=BB8_104 Depth=2
	movl	-8(%rbp), %eax
	addl	$1, %eax
	movl	%eax, -8(%rbp)
	jmp	.LBB8_104
.LBB8_114:                              # %for.end459
                                        #   in Loop: Header=BB8_1 Depth=1
	movl	$0, -8(%rbp)
.LBB8_115:                              # %for.cond460
                                        #   Parent Loop BB8_1 Depth=1
                                        # =>  This Loop Header: Depth=2
                                        #       Child Loop BB8_117 Depth 3
	cmpl	$10, -8(%rbp)
	jge	.LBB8_125
# %bb.116:                              # %for.body462
                                        #   in Loop: Header=BB8_115 Depth=2
	movl	$0, -4(%rbp)
.LBB8_117:                              # %for.cond463
                                        #   Parent Loop BB8_1 Depth=1
                                        #     Parent Loop BB8_115 Depth=2
                                        # =>    This Inner Loop Header: Depth=3
	cmpl	$15, -4(%rbp)
	jge	.LBB8_123
# %bb.118:                              # %for.body465
                                        #   in Loop: Header=BB8_117 Depth=3
	movq	img, %rax
	cmpl	$2, 24(%rax)
	jne	.LBB8_120
# %bb.119:                              # %if.then468
                                        #   in Loop: Header=BB8_117 Depth=3
	movq	-32(%rbp), %rdi
	addq	$3328, %rdi             # imm = 0xD00
	movslq	-8(%rbp), %rax
	imulq	$240, %rax, %rax
	addq	%rax, %rdi
	movslq	-4(%rbp), %rax
	shlq	$4, %rax
	addq	%rax, %rdi
	movslq	-12(%rbp), %rax
	imulq	$960, %rax, %rax        # imm = 0x3C0
	movabsq	$INIT_LAST_I, %rsi
	addq	%rax, %rsi
	movslq	-8(%rbp), %rax
	imulq	$120, %rax, %rax
	addq	%rax, %rsi
	movslq	-4(%rbp), %rax
	shlq	$3, %rax
	addq	%rax, %rsi
	callq	XRate
	vaddsd	-24(%rbp), %xmm0, %xmm0
	vmovsd	%xmm0, -24(%rbp)
	jmp	.LBB8_121
.LBB8_120:                              # %if.else482
                                        #   in Loop: Header=BB8_117 Depth=3
	movq	-32(%rbp), %rdi
	addq	$3328, %rdi             # imm = 0xD00
	movslq	-8(%rbp), %rax
	imulq	$240, %rax, %rax
	addq	%rax, %rdi
	movslq	-4(%rbp), %rax
	shlq	$4, %rax
	addq	%rax, %rdi
	movslq	-12(%rbp), %rax
	imulq	$960, %rax, %rax        # imm = 0x3C0
	movabsq	$INIT_LAST_P, %rsi
	addq	%rax, %rsi
	movslq	-8(%rbp), %rax
	imulq	$120, %rax, %rax
	addq	%rax, %rsi
	movslq	-4(%rbp), %rax
	shlq	$3, %rax
	addq	%rax, %rsi
	callq	XRate
	vaddsd	-24(%rbp), %xmm0, %xmm0
	vmovsd	%xmm0, -24(%rbp)
.LBB8_121:                              # %if.end497
                                        #   in Loop: Header=BB8_117 Depth=3
	jmp	.LBB8_122
.LBB8_122:                              # %for.inc498
                                        #   in Loop: Header=BB8_117 Depth=3
	movl	-4(%rbp), %eax
	addl	$1, %eax
	movl	%eax, -4(%rbp)
	jmp	.LBB8_117
.LBB8_123:                              # %for.end500
                                        #   in Loop: Header=BB8_115 Depth=2
	jmp	.LBB8_124
.LBB8_124:                              # %for.inc501
                                        #   in Loop: Header=BB8_115 Depth=2
	movl	-8(%rbp), %eax
	addl	$1, %eax
	movl	%eax, -8(%rbp)
	jmp	.LBB8_115
.LBB8_125:                              # %for.end503
                                        #   in Loop: Header=BB8_1 Depth=1
	movl	$0, -8(%rbp)
.LBB8_126:                              # %for.cond504
                                        #   Parent Loop BB8_1 Depth=1
                                        # =>  This Loop Header: Depth=2
                                        #       Child Loop BB8_128 Depth 3
	cmpl	$10, -8(%rbp)
	jge	.LBB8_136
# %bb.127:                              # %for.body506
                                        #   in Loop: Header=BB8_126 Depth=2
	movl	$0, -4(%rbp)
.LBB8_128:                              # %for.cond507
                                        #   Parent Loop BB8_1 Depth=1
                                        #     Parent Loop BB8_126 Depth=2
                                        # =>    This Inner Loop Header: Depth=3
	cmpl	$5, -4(%rbp)
	jge	.LBB8_134
# %bb.129:                              # %for.body509
                                        #   in Loop: Header=BB8_128 Depth=3
	movq	img, %rax
	cmpl	$2, 24(%rax)
	jne	.LBB8_131
# %bb.130:                              # %if.then512
                                        #   in Loop: Header=BB8_128 Depth=3
	movq	-32(%rbp), %rdi
	addq	$5728, %rdi             # imm = 0x1660
	movslq	-8(%rbp), %rax
	imulq	$80, %rax, %rax
	addq	%rax, %rdi
	movslq	-4(%rbp), %rax
	shlq	$4, %rax
	addq	%rax, %rdi
	movslq	-12(%rbp), %rax
	imulq	$320, %rax, %rax        # imm = 0x140
	movabsq	$INIT_ONE_I, %rsi
	addq	%rax, %rsi
	movslq	-8(%rbp), %rax
	imulq	$40, %rax, %rax
	addq	%rax, %rsi
	movslq	-4(%rbp), %rax
	shlq	$3, %rax
	addq	%rax, %rsi
	callq	XRate
	vaddsd	-24(%rbp), %xmm0, %xmm0
	vmovsd	%xmm0, -24(%rbp)
	jmp	.LBB8_132
.LBB8_131:                              # %if.else526
                                        #   in Loop: Header=BB8_128 Depth=3
	movq	-32(%rbp), %rdi
	addq	$5728, %rdi             # imm = 0x1660
	movslq	-8(%rbp), %rax
	imulq	$80, %rax, %rax
	addq	%rax, %rdi
	movslq	-4(%rbp), %rax
	shlq	$4, %rax
	addq	%rax, %rdi
	movslq	-12(%rbp), %rax
	imulq	$320, %rax, %rax        # imm = 0x140
	movabsq	$INIT_ONE_P, %rsi
	addq	%rax, %rsi
	movslq	-8(%rbp), %rax
	imulq	$40, %rax, %rax
	addq	%rax, %rsi
	movslq	-4(%rbp), %rax
	shlq	$3, %rax
	addq	%rax, %rsi
	callq	XRate
	vaddsd	-24(%rbp), %xmm0, %xmm0
	vmovsd	%xmm0, -24(%rbp)
.LBB8_132:                              # %if.end541
                                        #   in Loop: Header=BB8_128 Depth=3
	jmp	.LBB8_133
.LBB8_133:                              # %for.inc542
                                        #   in Loop: Header=BB8_128 Depth=3
	movl	-4(%rbp), %eax
	addl	$1, %eax
	movl	%eax, -4(%rbp)
	jmp	.LBB8_128
.LBB8_134:                              # %for.end544
                                        #   in Loop: Header=BB8_126 Depth=2
	jmp	.LBB8_135
.LBB8_135:                              # %for.inc545
                                        #   in Loop: Header=BB8_126 Depth=2
	movl	-8(%rbp), %eax
	addl	$1, %eax
	movl	%eax, -8(%rbp)
	jmp	.LBB8_126
.LBB8_136:                              # %for.end547
                                        #   in Loop: Header=BB8_1 Depth=1
	movl	$0, -8(%rbp)
.LBB8_137:                              # %for.cond548
                                        #   Parent Loop BB8_1 Depth=1
                                        # =>  This Loop Header: Depth=2
                                        #       Child Loop BB8_139 Depth 3
	cmpl	$10, -8(%rbp)
	jge	.LBB8_147
# %bb.138:                              # %for.body550
                                        #   in Loop: Header=BB8_137 Depth=2
	movl	$0, -4(%rbp)
.LBB8_139:                              # %for.cond551
                                        #   Parent Loop BB8_1 Depth=1
                                        #     Parent Loop BB8_137 Depth=2
                                        # =>    This Inner Loop Header: Depth=3
	cmpl	$5, -4(%rbp)
	jge	.LBB8_145
# %bb.140:                              # %for.body553
                                        #   in Loop: Header=BB8_139 Depth=3
	movq	img, %rax
	cmpl	$2, 24(%rax)
	jne	.LBB8_142
# %bb.141:                              # %if.then556
                                        #   in Loop: Header=BB8_139 Depth=3
	movq	-32(%rbp), %rdi
	addq	$6528, %rdi             # imm = 0x1980
	movslq	-8(%rbp), %rax
	imulq	$80, %rax, %rax
	addq	%rax, %rdi
	movslq	-4(%rbp), %rax
	shlq	$4, %rax
	addq	%rax, %rdi
	movslq	-12(%rbp), %rax
	imulq	$320, %rax, %rax        # imm = 0x140
	movabsq	$INIT_ABS_I, %rsi
	addq	%rax, %rsi
	movslq	-8(%rbp), %rax
	imulq	$40, %rax, %rax
	addq	%rax, %rsi
	movslq	-4(%rbp), %rax
	shlq	$3, %rax
	addq	%rax, %rsi
	callq	XRate
	vaddsd	-24(%rbp), %xmm0, %xmm0
	vmovsd	%xmm0, -24(%rbp)
	jmp	.LBB8_143
.LBB8_142:                              # %if.else570
                                        #   in Loop: Header=BB8_139 Depth=3
	movq	-32(%rbp), %rdi
	addq	$6528, %rdi             # imm = 0x1980
	movslq	-8(%rbp), %rax
	imulq	$80, %rax, %rax
	addq	%rax, %rdi
	movslq	-4(%rbp), %rax
	shlq	$4, %rax
	addq	%rax, %rdi
	movslq	-12(%rbp), %rax
	imulq	$320, %rax, %rax        # imm = 0x140
	movabsq	$INIT_ABS_P, %rsi
	addq	%rax, %rsi
	movslq	-8(%rbp), %rax
	imulq	$40, %rax, %rax
	addq	%rax, %rsi
	movslq	-4(%rbp), %rax
	shlq	$3, %rax
	addq	%rax, %rsi
	callq	XRate
	vaddsd	-24(%rbp), %xmm0, %xmm0
	vmovsd	%xmm0, -24(%rbp)
.LBB8_143:                              # %if.end585
                                        #   in Loop: Header=BB8_139 Depth=3
	jmp	.LBB8_144
.LBB8_144:                              # %for.inc586
                                        #   in Loop: Header=BB8_139 Depth=3
	movl	-4(%rbp), %eax
	addl	$1, %eax
	movl	%eax, -4(%rbp)
	jmp	.LBB8_139
.LBB8_145:                              # %for.end588
                                        #   in Loop: Header=BB8_137 Depth=2
	jmp	.LBB8_146
.LBB8_146:                              # %for.inc589
                                        #   in Loop: Header=BB8_137 Depth=2
	movl	-8(%rbp), %eax
	addl	$1, %eax
	movl	%eax, -8(%rbp)
	jmp	.LBB8_137
.LBB8_147:                              # %for.end591
                                        #   in Loop: Header=BB8_1 Depth=1
	movl	$0, -8(%rbp)
.LBB8_148:                              # %for.cond592
                                        #   Parent Loop BB8_1 Depth=1
                                        # =>  This Loop Header: Depth=2
                                        #       Child Loop BB8_150 Depth 3
	cmpl	$10, -8(%rbp)
	jge	.LBB8_158
# %bb.149:                              # %for.body594
                                        #   in Loop: Header=BB8_148 Depth=2
	movl	$0, -4(%rbp)
.LBB8_150:                              # %for.cond595
                                        #   Parent Loop BB8_1 Depth=1
                                        #     Parent Loop BB8_148 Depth=2
                                        # =>    This Inner Loop Header: Depth=3
	cmpl	$15, -4(%rbp)
	jge	.LBB8_156
# %bb.151:                              # %for.body597
                                        #   in Loop: Header=BB8_150 Depth=3
	movq	img, %rax
	cmpl	$2, 24(%rax)
	jne	.LBB8_153
# %bb.152:                              # %if.then600
                                        #   in Loop: Header=BB8_150 Depth=3
	movq	-32(%rbp), %rdi
	addq	$7328, %rdi             # imm = 0x1CA0
	movslq	-8(%rbp), %rax
	imulq	$240, %rax, %rax
	addq	%rax, %rdi
	movslq	-4(%rbp), %rax
	shlq	$4, %rax
	addq	%rax, %rdi
	movslq	-12(%rbp), %rax
	imulq	$960, %rax, %rax        # imm = 0x3C0
	movabsq	$INIT_FLD_MAP_I, %rsi
	addq	%rax, %rsi
	movslq	-8(%rbp), %rax
	imulq	$120, %rax, %rax
	addq	%rax, %rsi
	movslq	-4(%rbp), %rax
	shlq	$3, %rax
	addq	%rax, %rsi
	callq	XRate
	vaddsd	-24(%rbp), %xmm0, %xmm0
	vmovsd	%xmm0, -24(%rbp)
	jmp	.LBB8_154
.LBB8_153:                              # %if.else614
                                        #   in Loop: Header=BB8_150 Depth=3
	movq	-32(%rbp), %rdi
	addq	$7328, %rdi             # imm = 0x1CA0
	movslq	-8(%rbp), %rax
	imulq	$240, %rax, %rax
	addq	%rax, %rdi
	movslq	-4(%rbp), %rax
	shlq	$4, %rax
	addq	%rax, %rdi
	movslq	-12(%rbp), %rax
	imulq	$960, %rax, %rax        # imm = 0x3C0
	movabsq	$INIT_FLD_MAP_P, %rsi
	addq	%rax, %rsi
	movslq	-8(%rbp), %rax
	imulq	$120, %rax, %rax
	addq	%rax, %rsi
	movslq	-4(%rbp), %rax
	shlq	$3, %rax
	addq	%rax, %rsi
	callq	XRate
	vaddsd	-24(%rbp), %xmm0, %xmm0
	vmovsd	%xmm0, -24(%rbp)
.LBB8_154:                              # %if.end629
                                        #   in Loop: Header=BB8_150 Depth=3
	jmp	.LBB8_155
.LBB8_155:                              # %for.inc630
                                        #   in Loop: Header=BB8_150 Depth=3
	movl	-4(%rbp), %eax
	addl	$1, %eax
	movl	%eax, -4(%rbp)
	jmp	.LBB8_150
.LBB8_156:                              # %for.end632
                                        #   in Loop: Header=BB8_148 Depth=2
	jmp	.LBB8_157
.LBB8_157:                              # %for.inc633
                                        #   in Loop: Header=BB8_148 Depth=2
	movl	-8(%rbp), %eax
	addl	$1, %eax
	movl	%eax, -8(%rbp)
	jmp	.LBB8_148
.LBB8_158:                              # %for.end635
                                        #   in Loop: Header=BB8_1 Depth=1
	movl	$0, -8(%rbp)
.LBB8_159:                              # %for.cond636
                                        #   Parent Loop BB8_1 Depth=1
                                        # =>  This Loop Header: Depth=2
                                        #       Child Loop BB8_161 Depth 3
	cmpl	$10, -8(%rbp)
	jge	.LBB8_169
# %bb.160:                              # %for.body638
                                        #   in Loop: Header=BB8_159 Depth=2
	movl	$0, -4(%rbp)
.LBB8_161:                              # %for.cond639
                                        #   Parent Loop BB8_1 Depth=1
                                        #     Parent Loop BB8_159 Depth=2
                                        # =>    This Inner Loop Header: Depth=3
	cmpl	$15, -4(%rbp)
	jge	.LBB8_167
# %bb.162:                              # %for.body641
                                        #   in Loop: Header=BB8_161 Depth=3
	movq	img, %rax
	cmpl	$2, 24(%rax)
	jne	.LBB8_164
# %bb.163:                              # %if.then644
                                        #   in Loop: Header=BB8_161 Depth=3
	movq	-32(%rbp), %rdi
	addq	$9728, %rdi             # imm = 0x2600
	movslq	-8(%rbp), %rax
	imulq	$240, %rax, %rax
	addq	%rax, %rdi
	movslq	-4(%rbp), %rax
	shlq	$4, %rax
	addq	%rax, %rdi
	movslq	-12(%rbp), %rax
	imulq	$960, %rax, %rax        # imm = 0x3C0
	movabsq	$INIT_FLD_LAST_I, %rsi
	addq	%rax, %rsi
	movslq	-8(%rbp), %rax
	imulq	$120, %rax, %rax
	addq	%rax, %rsi
	movslq	-4(%rbp), %rax
	shlq	$3, %rax
	addq	%rax, %rsi
	callq	XRate
	vaddsd	-24(%rbp), %xmm0, %xmm0
	vmovsd	%xmm0, -24(%rbp)
	jmp	.LBB8_165
.LBB8_164:                              # %if.else658
                                        #   in Loop: Header=BB8_161 Depth=3
	movq	-32(%rbp), %rdi
	addq	$9728, %rdi             # imm = 0x2600
	movslq	-8(%rbp), %rax
	imulq	$240, %rax, %rax
	addq	%rax, %rdi
	movslq	-4(%rbp), %rax
	shlq	$4, %rax
	addq	%rax, %rdi
	movslq	-12(%rbp), %rax
	imulq	$960, %rax, %rax        # imm = 0x3C0
	movabsq	$INIT_FLD_LAST_P, %rsi
	addq	%rax, %rsi
	movslq	-8(%rbp), %rax
	imulq	$120, %rax, %rax
	addq	%rax, %rsi
	movslq	-4(%rbp), %rax
	shlq	$3, %rax
	addq	%rax, %rsi
	callq	XRate
	vaddsd	-24(%rbp), %xmm0, %xmm0
	vmovsd	%xmm0, -24(%rbp)
.LBB8_165:                              # %if.end673
                                        #   in Loop: Header=BB8_161 Depth=3
	jmp	.LBB8_166
.LBB8_166:                              # %for.inc674
                                        #   in Loop: Header=BB8_161 Depth=3
	movl	-4(%rbp), %eax
	addl	$1, %eax
	movl	%eax, -4(%rbp)
	jmp	.LBB8_161
.LBB8_167:                              # %for.end676
                                        #   in Loop: Header=BB8_159 Depth=2
	jmp	.LBB8_168
.LBB8_168:                              # %for.inc677
                                        #   in Loop: Header=BB8_159 Depth=2
	movl	-8(%rbp), %eax
	addl	$1, %eax
	movl	%eax, -8(%rbp)
	jmp	.LBB8_159
.LBB8_169:                              # %for.end679
                                        #   in Loop: Header=BB8_1 Depth=1
	vmovsd	-24(%rbp), %xmm0        # xmm0 = mem[0],zero
	vmovsd	-56(%rbp), %xmm1        # xmm1 = mem[0],zero
	vucomisd	%xmm0, %xmm1
	jbe	.LBB8_171
# %bb.170:                              # %if.then681
                                        #   in Loop: Header=BB8_1 Depth=1
	vmovsd	-24(%rbp), %xmm0        # xmm0 = mem[0],zero
	vmovsd	%xmm0, -56(%rbp)
	movl	-12(%rbp), %eax
	movq	-64(%rbp), %rcx
	movl	%eax, (%rcx)
.LBB8_171:                              # %if.end682
                                        #   in Loop: Header=BB8_1 Depth=1
	jmp	.LBB8_172
.LBB8_172:                              # %for.inc683
                                        #   in Loop: Header=BB8_1 Depth=1
	movl	-12(%rbp), %eax
	addl	$1, %eax
	movl	%eax, -12(%rbp)
	jmp	.LBB8_1
.LBB8_173:                              # %for.end685
	cmpl	$852251534, -48(%rbp)   # imm = 0x32CC538E
	jne	.LBB8_175
.LBB8_174:
	addq	$64, %rsp
	popq	%rbp
	.cfi_def_cfa %rsp, 8
	retq
.LBB8_175:                              # %func_exit
	.cfi_def_cfa %rbp, 16
	callq	detect_breach
	jmp	.LBB8_174
.Lfunc_end8:
	.size	GetCtxModelNumber.1, .Lfunc_end8-GetCtxModelNumber.1
	.cfi_endproc
                                        # -- End function
	.globl	store_contexts.2        # -- Begin function store_contexts.2
	.p2align	4, 0x90
	.type	store_contexts.2,@function
store_contexts.2:                       # @store_contexts.2
	.cfi_startproc
# %bb.0:                                # %entry
	pushq	%rbp
	.cfi_def_cfa_offset 16
	.cfi_offset %rbp, -16
	movq	%rsp, %rbp
	.cfi_def_cfa_register %rbp
	subq	$16, %rsp
	movl	$1866541453, -16(%rbp)  # imm = 0x6F41298D
	movq	img, %rax
	movl	72444(%rax), %eax
	movl	%eax, -4(%rbp)
	movq	img, %rax
	movl	24(%rax), %eax
	movl	%eax, -12(%rbp)
	movq	img, %rax
	movq	14160(%rax), %rax
	movl	12(%rax), %eax
	cltd
	idivl	num_mb_per_slice
	movl	%eax, -8(%rbp)
	movq	input, %rax
	cmpl	$0, 3212(%rax)
	je	.LBB9_2
# %bb.1:                                # %if.then
	movq	initialized, %rax
	movslq	-4(%rbp), %rcx
	movq	(%rax,%rcx,8), %rax
	movslq	-12(%rbp), %rcx
	movq	(%rax,%rcx,8), %rax
	movslq	-8(%rbp), %rcx
	movl	$1, (%rax,%rcx,4)
	movq	model_number, %rax
	movslq	-4(%rbp), %rcx
	movq	(%rax,%rcx,8), %rax
	movslq	-12(%rbp), %rcx
	movq	(%rax,%rcx,8), %rdi
	movslq	-8(%rbp), %rax
	shlq	$2, %rax
	addq	%rax, %rdi
	movq	img, %rax
	movq	14160(%rax), %rax
	movq	32(%rax), %rsi
	movq	img, %rax
	movq	14160(%rax), %rax
	movq	40(%rax), %rdx
	callq	GetCtxModelNumber
	jmp	.LBB9_3
.LBB9_2:                                # %if.else
	jmp	.LBB9_3
.LBB9_3:                                # %if.end
	cmpl	$1866541453, -16(%rbp)  # imm = 0x6F41298D
	jne	.LBB9_5
.LBB9_4:
	addq	$16, %rsp
	popq	%rbp
	.cfi_def_cfa %rsp, 8
	retq
.LBB9_5:                                # %func_exit
	.cfi_def_cfa %rbp, 16
	callq	detect_breach
	jmp	.LBB9_4
.Lfunc_end9:
	.size	store_contexts.2, .Lfunc_end9-store_contexts.2
	.cfi_endproc
                                        # -- End function
	.section	.rodata.cst8,"aM",@progbits,8
	.p2align	3               # -- Begin function GetCtxModelNumber.3
.LCPI10_0:
	.quad	5055640609639927018     # double 1.0E+30
	.text
	.globl	GetCtxModelNumber.3
	.p2align	4, 0x90
	.type	GetCtxModelNumber.3,@function
GetCtxModelNumber.3:                    # @GetCtxModelNumber.3
	.cfi_startproc
# %bb.0:                                # %entry
	pushq	%rbp
	.cfi_def_cfa_offset 16
	.cfi_offset %rbp, -16
	movq	%rsp, %rbp
	.cfi_def_cfa_register %rbp
	subq	$64, %rsp
	vmovsd	.LCPI10_0(%rip), %xmm0  # xmm0 = mem[0],zero
	movl	$1619176124, -48(%rbp)  # imm = 0x6082AABC
	movq	%rdi, -64(%rbp)
	movq	%rsi, -40(%rbp)
	movq	%rdx, -32(%rbp)
	movq	img, %rax
	movl	24(%rax), %eax
	cmpl	$2, %eax
	movl	$1, %eax
	movl	$3, %ecx
	cmovel	%eax, %ecx
	movl	%ecx, -44(%rbp)
	vmovsd	%xmm0, -56(%rbp)
	movl	$0, -12(%rbp)
.LBB10_1:                               # %for.cond
                                        # =>This Loop Header: Depth=1
                                        #     Child Loop BB10_3 Depth 2
                                        #       Child Loop BB10_5 Depth 3
                                        #     Child Loop BB10_14 Depth 2
                                        #       Child Loop BB10_16 Depth 3
                                        #     Child Loop BB10_25 Depth 2
                                        #       Child Loop BB10_27 Depth 3
                                        #     Child Loop BB10_36 Depth 2
                                        #       Child Loop BB10_38 Depth 3
                                        #     Child Loop BB10_47 Depth 2
                                        #     Child Loop BB10_54 Depth 2
                                        #     Child Loop BB10_61 Depth 2
                                        #     Child Loop BB10_68 Depth 2
                                        #     Child Loop BB10_75 Depth 2
                                        #     Child Loop BB10_82 Depth 2
                                        #       Child Loop BB10_84 Depth 3
                                        #     Child Loop BB10_93 Depth 2
                                        #       Child Loop BB10_95 Depth 3
                                        #     Child Loop BB10_104 Depth 2
                                        #       Child Loop BB10_106 Depth 3
                                        #     Child Loop BB10_115 Depth 2
                                        #       Child Loop BB10_117 Depth 3
                                        #     Child Loop BB10_126 Depth 2
                                        #       Child Loop BB10_128 Depth 3
                                        #     Child Loop BB10_137 Depth 2
                                        #       Child Loop BB10_139 Depth 3
                                        #     Child Loop BB10_148 Depth 2
                                        #       Child Loop BB10_150 Depth 3
                                        #     Child Loop BB10_159 Depth 2
                                        #       Child Loop BB10_161 Depth 3
	movl	-12(%rbp), %eax
	cmpl	-44(%rbp), %eax
	jge	.LBB10_173
# %bb.2:                                # %for.body
                                        #   in Loop: Header=BB10_1 Depth=1
	vxorps	%xmm0, %xmm0, %xmm0
	vmovsd	%xmm0, -24(%rbp)
	movl	$0, -8(%rbp)
.LBB10_3:                               # %for.cond2
                                        #   Parent Loop BB10_1 Depth=1
                                        # =>  This Loop Header: Depth=2
                                        #       Child Loop BB10_5 Depth 3
	cmpl	$3, -8(%rbp)
	jge	.LBB10_13
# %bb.4:                                # %for.body4
                                        #   in Loop: Header=BB10_3 Depth=2
	movl	$0, -4(%rbp)
.LBB10_5:                               # %for.cond5
                                        #   Parent Loop BB10_1 Depth=1
                                        #     Parent Loop BB10_3 Depth=2
                                        # =>    This Inner Loop Header: Depth=3
	cmpl	$11, -4(%rbp)
	jge	.LBB10_11
# %bb.6:                                # %for.body7
                                        #   in Loop: Header=BB10_5 Depth=3
	movq	img, %rax
	cmpl	$2, 24(%rax)
	jne	.LBB10_8
# %bb.7:                                # %if.then
                                        #   in Loop: Header=BB10_5 Depth=3
	movq	-40(%rbp), %rdi
	movslq	-8(%rbp), %rax
	imulq	$176, %rax, %rax
	addq	%rax, %rdi
	movslq	-4(%rbp), %rax
	shlq	$4, %rax
	addq	%rax, %rdi
	movslq	-12(%rbp), %rax
	imulq	$264, %rax, %rax        # imm = 0x108
	movabsq	$INIT_MB_TYPE_I, %rsi
	addq	%rax, %rsi
	movslq	-8(%rbp), %rax
	imulq	$88, %rax, %rax
	addq	%rax, %rsi
	movslq	-4(%rbp), %rax
	shlq	$3, %rax
	addq	%rax, %rsi
	callq	XRate
	vaddsd	-24(%rbp), %xmm0, %xmm0
	vmovsd	%xmm0, -24(%rbp)
	jmp	.LBB10_9
.LBB10_8:                               # %if.else
                                        #   in Loop: Header=BB10_5 Depth=3
	movq	-40(%rbp), %rdi
	movslq	-8(%rbp), %rax
	imulq	$176, %rax, %rax
	addq	%rax, %rdi
	movslq	-4(%rbp), %rax
	shlq	$4, %rax
	addq	%rax, %rdi
	movslq	-12(%rbp), %rax
	imulq	$264, %rax, %rax        # imm = 0x108
	movabsq	$INIT_MB_TYPE_P, %rsi
	addq	%rax, %rsi
	movslq	-8(%rbp), %rax
	imulq	$88, %rax, %rax
	addq	%rax, %rsi
	movslq	-4(%rbp), %rax
	shlq	$3, %rax
	addq	%rax, %rsi
	callq	XRate
	vaddsd	-24(%rbp), %xmm0, %xmm0
	vmovsd	%xmm0, -24(%rbp)
.LBB10_9:                               # %if.end
                                        #   in Loop: Header=BB10_5 Depth=3
	jmp	.LBB10_10
.LBB10_10:                              # %for.inc
                                        #   in Loop: Header=BB10_5 Depth=3
	movl	-4(%rbp), %eax
	addl	$1, %eax
	movl	%eax, -4(%rbp)
	jmp	.LBB10_5
.LBB10_11:                              # %for.end
                                        #   in Loop: Header=BB10_3 Depth=2
	jmp	.LBB10_12
.LBB10_12:                              # %for.inc33
                                        #   in Loop: Header=BB10_3 Depth=2
	movl	-8(%rbp), %eax
	addl	$1, %eax
	movl	%eax, -8(%rbp)
	jmp	.LBB10_3
.LBB10_13:                              # %for.end35
                                        #   in Loop: Header=BB10_1 Depth=1
	movl	$0, -8(%rbp)
.LBB10_14:                              # %for.cond36
                                        #   Parent Loop BB10_1 Depth=1
                                        # =>  This Loop Header: Depth=2
                                        #       Child Loop BB10_16 Depth 3
	cmpl	$2, -8(%rbp)
	jge	.LBB10_24
# %bb.15:                               # %for.body38
                                        #   in Loop: Header=BB10_14 Depth=2
	movl	$0, -4(%rbp)
.LBB10_16:                              # %for.cond39
                                        #   Parent Loop BB10_1 Depth=1
                                        #     Parent Loop BB10_14 Depth=2
                                        # =>    This Inner Loop Header: Depth=3
	cmpl	$9, -4(%rbp)
	jge	.LBB10_22
# %bb.17:                               # %for.body41
                                        #   in Loop: Header=BB10_16 Depth=3
	movq	img, %rax
	cmpl	$2, 24(%rax)
	jne	.LBB10_19
# %bb.18:                               # %if.then44
                                        #   in Loop: Header=BB10_16 Depth=3
	movq	-40(%rbp), %rdi
	addq	$528, %rdi              # imm = 0x210
	movslq	-8(%rbp), %rax
	imulq	$144, %rax, %rax
	addq	%rax, %rdi
	movslq	-4(%rbp), %rax
	shlq	$4, %rax
	addq	%rax, %rdi
	movslq	-12(%rbp), %rax
	imulq	$144, %rax, %rax
	movabsq	$INIT_B8_TYPE_I, %rsi
	addq	%rax, %rsi
	movslq	-8(%rbp), %rax
	imulq	$72, %rax, %rax
	addq	%rax, %rsi
	movslq	-4(%rbp), %rax
	shlq	$3, %rax
	addq	%rax, %rsi
	callq	XRate
	vaddsd	-24(%rbp), %xmm0, %xmm0
	vmovsd	%xmm0, -24(%rbp)
	jmp	.LBB10_20
.LBB10_19:                              # %if.else58
                                        #   in Loop: Header=BB10_16 Depth=3
	movq	-40(%rbp), %rdi
	addq	$528, %rdi              # imm = 0x210
	movslq	-8(%rbp), %rax
	imulq	$144, %rax, %rax
	addq	%rax, %rdi
	movslq	-4(%rbp), %rax
	shlq	$4, %rax
	addq	%rax, %rdi
	movslq	-12(%rbp), %rax
	imulq	$144, %rax, %rax
	movabsq	$INIT_B8_TYPE_P, %rsi
	addq	%rax, %rsi
	movslq	-8(%rbp), %rax
	imulq	$72, %rax, %rax
	addq	%rax, %rsi
	movslq	-4(%rbp), %rax
	shlq	$3, %rax
	addq	%rax, %rsi
	callq	XRate
	vaddsd	-24(%rbp), %xmm0, %xmm0
	vmovsd	%xmm0, -24(%rbp)
.LBB10_20:                              # %if.end73
                                        #   in Loop: Header=BB10_16 Depth=3
	jmp	.LBB10_21
.LBB10_21:                              # %for.inc74
                                        #   in Loop: Header=BB10_16 Depth=3
	movl	-4(%rbp), %eax
	addl	$1, %eax
	movl	%eax, -4(%rbp)
	jmp	.LBB10_16
.LBB10_22:                              # %for.end76
                                        #   in Loop: Header=BB10_14 Depth=2
	jmp	.LBB10_23
.LBB10_23:                              # %for.inc77
                                        #   in Loop: Header=BB10_14 Depth=2
	movl	-8(%rbp), %eax
	addl	$1, %eax
	movl	%eax, -8(%rbp)
	jmp	.LBB10_14
.LBB10_24:                              # %for.end79
                                        #   in Loop: Header=BB10_1 Depth=1
	movl	$0, -8(%rbp)
.LBB10_25:                              # %for.cond80
                                        #   Parent Loop BB10_1 Depth=1
                                        # =>  This Loop Header: Depth=2
                                        #       Child Loop BB10_27 Depth 3
	cmpl	$2, -8(%rbp)
	jge	.LBB10_35
# %bb.26:                               # %for.body82
                                        #   in Loop: Header=BB10_25 Depth=2
	movl	$0, -4(%rbp)
.LBB10_27:                              # %for.cond83
                                        #   Parent Loop BB10_1 Depth=1
                                        #     Parent Loop BB10_25 Depth=2
                                        # =>    This Inner Loop Header: Depth=3
	cmpl	$10, -4(%rbp)
	jge	.LBB10_33
# %bb.28:                               # %for.body85
                                        #   in Loop: Header=BB10_27 Depth=3
	movq	img, %rax
	cmpl	$2, 24(%rax)
	jne	.LBB10_30
# %bb.29:                               # %if.then88
                                        #   in Loop: Header=BB10_27 Depth=3
	movq	-40(%rbp), %rdi
	addq	$816, %rdi              # imm = 0x330
	movslq	-8(%rbp), %rax
	imulq	$160, %rax, %rax
	addq	%rax, %rdi
	movslq	-4(%rbp), %rax
	shlq	$4, %rax
	addq	%rax, %rdi
	movslq	-12(%rbp), %rax
	imulq	$160, %rax, %rax
	movabsq	$INIT_MV_RES_I, %rsi
	addq	%rax, %rsi
	movslq	-8(%rbp), %rax
	imulq	$80, %rax, %rax
	addq	%rax, %rsi
	movslq	-4(%rbp), %rax
	shlq	$3, %rax
	addq	%rax, %rsi
	callq	XRate
	vaddsd	-24(%rbp), %xmm0, %xmm0
	vmovsd	%xmm0, -24(%rbp)
	jmp	.LBB10_31
.LBB10_30:                              # %if.else102
                                        #   in Loop: Header=BB10_27 Depth=3
	movq	-40(%rbp), %rdi
	addq	$816, %rdi              # imm = 0x330
	movslq	-8(%rbp), %rax
	imulq	$160, %rax, %rax
	addq	%rax, %rdi
	movslq	-4(%rbp), %rax
	shlq	$4, %rax
	addq	%rax, %rdi
	movslq	-12(%rbp), %rax
	imulq	$160, %rax, %rax
	movabsq	$INIT_MV_RES_P, %rsi
	addq	%rax, %rsi
	movslq	-8(%rbp), %rax
	imulq	$80, %rax, %rax
	addq	%rax, %rsi
	movslq	-4(%rbp), %rax
	shlq	$3, %rax
	addq	%rax, %rsi
	callq	XRate
	vaddsd	-24(%rbp), %xmm0, %xmm0
	vmovsd	%xmm0, -24(%rbp)
.LBB10_31:                              # %if.end117
                                        #   in Loop: Header=BB10_27 Depth=3
	jmp	.LBB10_32
.LBB10_32:                              # %for.inc118
                                        #   in Loop: Header=BB10_27 Depth=3
	movl	-4(%rbp), %eax
	addl	$1, %eax
	movl	%eax, -4(%rbp)
	jmp	.LBB10_27
.LBB10_33:                              # %for.end120
                                        #   in Loop: Header=BB10_25 Depth=2
	jmp	.LBB10_34
.LBB10_34:                              # %for.inc121
                                        #   in Loop: Header=BB10_25 Depth=2
	movl	-8(%rbp), %eax
	addl	$1, %eax
	movl	%eax, -8(%rbp)
	jmp	.LBB10_25
.LBB10_35:                              # %for.end123
                                        #   in Loop: Header=BB10_1 Depth=1
	movl	$0, -8(%rbp)
.LBB10_36:                              # %for.cond124
                                        #   Parent Loop BB10_1 Depth=1
                                        # =>  This Loop Header: Depth=2
                                        #       Child Loop BB10_38 Depth 3
	cmpl	$2, -8(%rbp)
	jge	.LBB10_46
# %bb.37:                               # %for.body126
                                        #   in Loop: Header=BB10_36 Depth=2
	movl	$0, -4(%rbp)
.LBB10_38:                              # %for.cond127
                                        #   Parent Loop BB10_1 Depth=1
                                        #     Parent Loop BB10_36 Depth=2
                                        # =>    This Inner Loop Header: Depth=3
	cmpl	$6, -4(%rbp)
	jge	.LBB10_44
# %bb.39:                               # %for.body129
                                        #   in Loop: Header=BB10_38 Depth=3
	movq	img, %rax
	cmpl	$2, 24(%rax)
	jne	.LBB10_41
# %bb.40:                               # %if.then132
                                        #   in Loop: Header=BB10_38 Depth=3
	movq	-40(%rbp), %rdi
	addq	$1136, %rdi             # imm = 0x470
	movslq	-8(%rbp), %rax
	imulq	$96, %rax, %rax
	addq	%rax, %rdi
	movslq	-4(%rbp), %rax
	shlq	$4, %rax
	addq	%rax, %rdi
	movslq	-12(%rbp), %rax
	imulq	$96, %rax, %rax
	movabsq	$INIT_REF_NO_I, %rsi
	addq	%rax, %rsi
	movslq	-8(%rbp), %rax
	imulq	$48, %rax, %rax
	addq	%rax, %rsi
	movslq	-4(%rbp), %rax
	shlq	$3, %rax
	addq	%rax, %rsi
	callq	XRate
	vaddsd	-24(%rbp), %xmm0, %xmm0
	vmovsd	%xmm0, -24(%rbp)
	jmp	.LBB10_42
.LBB10_41:                              # %if.else146
                                        #   in Loop: Header=BB10_38 Depth=3
	movq	-40(%rbp), %rdi
	addq	$1136, %rdi             # imm = 0x470
	movslq	-8(%rbp), %rax
	imulq	$96, %rax, %rax
	addq	%rax, %rdi
	movslq	-4(%rbp), %rax
	shlq	$4, %rax
	addq	%rax, %rdi
	movslq	-12(%rbp), %rax
	imulq	$96, %rax, %rax
	movabsq	$INIT_REF_NO_P, %rsi
	addq	%rax, %rsi
	movslq	-8(%rbp), %rax
	imulq	$48, %rax, %rax
	addq	%rax, %rsi
	movslq	-4(%rbp), %rax
	shlq	$3, %rax
	addq	%rax, %rsi
	callq	XRate
	vaddsd	-24(%rbp), %xmm0, %xmm0
	vmovsd	%xmm0, -24(%rbp)
.LBB10_42:                              # %if.end161
                                        #   in Loop: Header=BB10_38 Depth=3
	jmp	.LBB10_43
.LBB10_43:                              # %for.inc162
                                        #   in Loop: Header=BB10_38 Depth=3
	movl	-4(%rbp), %eax
	addl	$1, %eax
	movl	%eax, -4(%rbp)
	jmp	.LBB10_38
.LBB10_44:                              # %for.end164
                                        #   in Loop: Header=BB10_36 Depth=2
	jmp	.LBB10_45
.LBB10_45:                              # %for.inc165
                                        #   in Loop: Header=BB10_36 Depth=2
	movl	-8(%rbp), %eax
	addl	$1, %eax
	movl	%eax, -8(%rbp)
	jmp	.LBB10_36
.LBB10_46:                              # %for.end167
                                        #   in Loop: Header=BB10_1 Depth=1
	movl	$0, -4(%rbp)
.LBB10_47:                              # %for.cond168
                                        #   Parent Loop BB10_1 Depth=1
                                        # =>  This Inner Loop Header: Depth=2
	cmpl	$4, -4(%rbp)
	jge	.LBB10_53
# %bb.48:                               # %for.body170
                                        #   in Loop: Header=BB10_47 Depth=2
	movq	img, %rax
	cmpl	$2, 24(%rax)
	jne	.LBB10_50
# %bb.49:                               # %if.then173
                                        #   in Loop: Header=BB10_47 Depth=2
	movq	-40(%rbp), %rdi
	addq	$1328, %rdi             # imm = 0x530
	movslq	-4(%rbp), %rax
	shlq	$4, %rax
	addq	%rax, %rdi
	movslq	-12(%rbp), %rax
	shlq	$5, %rax
	movabsq	$INIT_DELTA_QP_I, %rsi
	addq	%rax, %rsi
	movslq	-4(%rbp), %rax
	shlq	$3, %rax
	addq	%rax, %rsi
	callq	XRate
	vaddsd	-24(%rbp), %xmm0, %xmm0
	vmovsd	%xmm0, -24(%rbp)
	jmp	.LBB10_51
.LBB10_50:                              # %if.else184
                                        #   in Loop: Header=BB10_47 Depth=2
	movq	-40(%rbp), %rdi
	addq	$1328, %rdi             # imm = 0x530
	movslq	-4(%rbp), %rax
	shlq	$4, %rax
	addq	%rax, %rdi
	movslq	-12(%rbp), %rax
	shlq	$5, %rax
	movabsq	$INIT_DELTA_QP_P, %rsi
	addq	%rax, %rsi
	movslq	-4(%rbp), %rax
	shlq	$3, %rax
	addq	%rax, %rsi
	callq	XRate
	vaddsd	-24(%rbp), %xmm0, %xmm0
	vmovsd	%xmm0, -24(%rbp)
.LBB10_51:                              # %if.end196
                                        #   in Loop: Header=BB10_47 Depth=2
	jmp	.LBB10_52
.LBB10_52:                              # %for.inc197
                                        #   in Loop: Header=BB10_47 Depth=2
	movl	-4(%rbp), %eax
	addl	$1, %eax
	movl	%eax, -4(%rbp)
	jmp	.LBB10_47
.LBB10_53:                              # %for.end199
                                        #   in Loop: Header=BB10_1 Depth=1
	movl	$0, -4(%rbp)
.LBB10_54:                              # %for.cond200
                                        #   Parent Loop BB10_1 Depth=1
                                        # =>  This Inner Loop Header: Depth=2
	cmpl	$4, -4(%rbp)
	jge	.LBB10_60
# %bb.55:                               # %for.body202
                                        #   in Loop: Header=BB10_54 Depth=2
	movq	img, %rax
	cmpl	$2, 24(%rax)
	jne	.LBB10_57
# %bb.56:                               # %if.then205
                                        #   in Loop: Header=BB10_54 Depth=2
	movq	-40(%rbp), %rdi
	addq	$1392, %rdi             # imm = 0x570
	movslq	-4(%rbp), %rax
	shlq	$4, %rax
	addq	%rax, %rdi
	movslq	-12(%rbp), %rax
	shlq	$5, %rax
	movabsq	$INIT_MB_AFF_I, %rsi
	addq	%rax, %rsi
	movslq	-4(%rbp), %rax
	shlq	$3, %rax
	addq	%rax, %rsi
	callq	XRate
	vaddsd	-24(%rbp), %xmm0, %xmm0
	vmovsd	%xmm0, -24(%rbp)
	jmp	.LBB10_58
.LBB10_57:                              # %if.else216
                                        #   in Loop: Header=BB10_54 Depth=2
	movq	-40(%rbp), %rdi
	addq	$1392, %rdi             # imm = 0x570
	movslq	-4(%rbp), %rax
	shlq	$4, %rax
	addq	%rax, %rdi
	movslq	-12(%rbp), %rax
	shlq	$5, %rax
	movabsq	$INIT_MB_AFF_P, %rsi
	addq	%rax, %rsi
	movslq	-4(%rbp), %rax
	shlq	$3, %rax
	addq	%rax, %rsi
	callq	XRate
	vaddsd	-24(%rbp), %xmm0, %xmm0
	vmovsd	%xmm0, -24(%rbp)
.LBB10_58:                              # %if.end228
                                        #   in Loop: Header=BB10_54 Depth=2
	jmp	.LBB10_59
.LBB10_59:                              # %for.inc229
                                        #   in Loop: Header=BB10_54 Depth=2
	movl	-4(%rbp), %eax
	addl	$1, %eax
	movl	%eax, -4(%rbp)
	jmp	.LBB10_54
.LBB10_60:                              # %for.end231
                                        #   in Loop: Header=BB10_1 Depth=1
	movl	$0, -4(%rbp)
.LBB10_61:                              # %for.cond232
                                        #   Parent Loop BB10_1 Depth=1
                                        # =>  This Inner Loop Header: Depth=2
	cmpl	$3, -4(%rbp)
	jge	.LBB10_67
# %bb.62:                               # %for.body234
                                        #   in Loop: Header=BB10_61 Depth=2
	movq	img, %rax
	cmpl	$2, 24(%rax)
	jne	.LBB10_64
# %bb.63:                               # %if.then237
                                        #   in Loop: Header=BB10_61 Depth=2
	movq	-40(%rbp), %rdi
	addq	$1456, %rdi             # imm = 0x5B0
	movslq	-4(%rbp), %rax
	shlq	$4, %rax
	addq	%rax, %rdi
	movslq	-12(%rbp), %rax
	imulq	$24, %rax, %rax
	movabsq	$INIT_TRANSFORM_SIZE_I, %rsi
	addq	%rax, %rsi
	movslq	-4(%rbp), %rax
	shlq	$3, %rax
	addq	%rax, %rsi
	callq	XRate
	vaddsd	-24(%rbp), %xmm0, %xmm0
	vmovsd	%xmm0, -24(%rbp)
	jmp	.LBB10_65
.LBB10_64:                              # %if.else248
                                        #   in Loop: Header=BB10_61 Depth=2
	movq	-40(%rbp), %rdi
	addq	$1456, %rdi             # imm = 0x5B0
	movslq	-4(%rbp), %rax
	shlq	$4, %rax
	addq	%rax, %rdi
	movslq	-12(%rbp), %rax
	imulq	$24, %rax, %rax
	movabsq	$INIT_TRANSFORM_SIZE_P, %rsi
	addq	%rax, %rsi
	movslq	-4(%rbp), %rax
	shlq	$3, %rax
	addq	%rax, %rsi
	callq	XRate
	vaddsd	-24(%rbp), %xmm0, %xmm0
	vmovsd	%xmm0, -24(%rbp)
.LBB10_65:                              # %if.end260
                                        #   in Loop: Header=BB10_61 Depth=2
	jmp	.LBB10_66
.LBB10_66:                              # %for.inc261
                                        #   in Loop: Header=BB10_61 Depth=2
	movl	-4(%rbp), %eax
	addl	$1, %eax
	movl	%eax, -4(%rbp)
	jmp	.LBB10_61
.LBB10_67:                              # %for.end263
                                        #   in Loop: Header=BB10_1 Depth=1
	movl	$0, -4(%rbp)
.LBB10_68:                              # %for.cond264
                                        #   Parent Loop BB10_1 Depth=1
                                        # =>  This Inner Loop Header: Depth=2
	cmpl	$2, -4(%rbp)
	jge	.LBB10_74
# %bb.69:                               # %for.body266
                                        #   in Loop: Header=BB10_68 Depth=2
	movq	img, %rax
	cmpl	$2, 24(%rax)
	jne	.LBB10_71
# %bb.70:                               # %if.then269
                                        #   in Loop: Header=BB10_68 Depth=2
	movq	-32(%rbp), %rdi
	movslq	-4(%rbp), %rax
	shlq	$4, %rax
	addq	%rax, %rdi
	movslq	-12(%rbp), %rax
	shlq	$4, %rax
	movabsq	$INIT_IPR_I, %rsi
	addq	%rax, %rsi
	movslq	-4(%rbp), %rax
	shlq	$3, %rax
	addq	%rax, %rsi
	callq	XRate
	vaddsd	-24(%rbp), %xmm0, %xmm0
	vmovsd	%xmm0, -24(%rbp)
	jmp	.LBB10_72
.LBB10_71:                              # %if.else280
                                        #   in Loop: Header=BB10_68 Depth=2
	movq	-32(%rbp), %rdi
	movslq	-4(%rbp), %rax
	shlq	$4, %rax
	addq	%rax, %rdi
	movslq	-12(%rbp), %rax
	shlq	$4, %rax
	movabsq	$INIT_IPR_P, %rsi
	addq	%rax, %rsi
	movslq	-4(%rbp), %rax
	shlq	$3, %rax
	addq	%rax, %rsi
	callq	XRate
	vaddsd	-24(%rbp), %xmm0, %xmm0
	vmovsd	%xmm0, -24(%rbp)
.LBB10_72:                              # %if.end292
                                        #   in Loop: Header=BB10_68 Depth=2
	jmp	.LBB10_73
.LBB10_73:                              # %for.inc293
                                        #   in Loop: Header=BB10_68 Depth=2
	movl	-4(%rbp), %eax
	addl	$1, %eax
	movl	%eax, -4(%rbp)
	jmp	.LBB10_68
.LBB10_74:                              # %for.end295
                                        #   in Loop: Header=BB10_1 Depth=1
	movl	$0, -4(%rbp)
.LBB10_75:                              # %for.cond296
                                        #   Parent Loop BB10_1 Depth=1
                                        # =>  This Inner Loop Header: Depth=2
	cmpl	$4, -4(%rbp)
	jge	.LBB10_81
# %bb.76:                               # %for.body298
                                        #   in Loop: Header=BB10_75 Depth=2
	movq	img, %rax
	cmpl	$2, 24(%rax)
	jne	.LBB10_78
# %bb.77:                               # %if.then301
                                        #   in Loop: Header=BB10_75 Depth=2
	movq	-32(%rbp), %rdi
	addq	$32, %rdi
	movslq	-4(%rbp), %rax
	shlq	$4, %rax
	addq	%rax, %rdi
	movslq	-12(%rbp), %rax
	shlq	$5, %rax
	movabsq	$INIT_CIPR_I, %rsi
	addq	%rax, %rsi
	movslq	-4(%rbp), %rax
	shlq	$3, %rax
	addq	%rax, %rsi
	callq	XRate
	vaddsd	-24(%rbp), %xmm0, %xmm0
	vmovsd	%xmm0, -24(%rbp)
	jmp	.LBB10_79
.LBB10_78:                              # %if.else312
                                        #   in Loop: Header=BB10_75 Depth=2
	movq	-32(%rbp), %rdi
	addq	$32, %rdi
	movslq	-4(%rbp), %rax
	shlq	$4, %rax
	addq	%rax, %rdi
	movslq	-12(%rbp), %rax
	shlq	$5, %rax
	movabsq	$INIT_CIPR_P, %rsi
	addq	%rax, %rsi
	movslq	-4(%rbp), %rax
	shlq	$3, %rax
	addq	%rax, %rsi
	callq	XRate
	vaddsd	-24(%rbp), %xmm0, %xmm0
	vmovsd	%xmm0, -24(%rbp)
.LBB10_79:                              # %if.end324
                                        #   in Loop: Header=BB10_75 Depth=2
	jmp	.LBB10_80
.LBB10_80:                              # %for.inc325
                                        #   in Loop: Header=BB10_75 Depth=2
	movl	-4(%rbp), %eax
	addl	$1, %eax
	movl	%eax, -4(%rbp)
	jmp	.LBB10_75
.LBB10_81:                              # %for.end327
                                        #   in Loop: Header=BB10_1 Depth=1
	movl	$0, -8(%rbp)
.LBB10_82:                              # %for.cond328
                                        #   Parent Loop BB10_1 Depth=1
                                        # =>  This Loop Header: Depth=2
                                        #       Child Loop BB10_84 Depth 3
	cmpl	$3, -8(%rbp)
	jge	.LBB10_92
# %bb.83:                               # %for.body330
                                        #   in Loop: Header=BB10_82 Depth=2
	movl	$0, -4(%rbp)
.LBB10_84:                              # %for.cond331
                                        #   Parent Loop BB10_1 Depth=1
                                        #     Parent Loop BB10_82 Depth=2
                                        # =>    This Inner Loop Header: Depth=3
	cmpl	$4, -4(%rbp)
	jge	.LBB10_90
# %bb.85:                               # %for.body333
                                        #   in Loop: Header=BB10_84 Depth=3
	movq	img, %rax
	cmpl	$2, 24(%rax)
	jne	.LBB10_87
# %bb.86:                               # %if.then336
                                        #   in Loop: Header=BB10_84 Depth=3
	movq	-32(%rbp), %rdi
	addq	$96, %rdi
	movslq	-8(%rbp), %rax
	shlq	$6, %rax
	addq	%rax, %rdi
	movslq	-4(%rbp), %rax
	shlq	$4, %rax
	addq	%rax, %rdi
	movslq	-12(%rbp), %rax
	imulq	$96, %rax, %rax
	movabsq	$INIT_CBP_I, %rsi
	addq	%rax, %rsi
	movslq	-8(%rbp), %rax
	shlq	$5, %rax
	addq	%rax, %rsi
	movslq	-4(%rbp), %rax
	shlq	$3, %rax
	addq	%rax, %rsi
	callq	XRate
	vaddsd	-24(%rbp), %xmm0, %xmm0
	vmovsd	%xmm0, -24(%rbp)
	jmp	.LBB10_88
.LBB10_87:                              # %if.else350
                                        #   in Loop: Header=BB10_84 Depth=3
	movq	-32(%rbp), %rdi
	addq	$96, %rdi
	movslq	-8(%rbp), %rax
	shlq	$6, %rax
	addq	%rax, %rdi
	movslq	-4(%rbp), %rax
	shlq	$4, %rax
	addq	%rax, %rdi
	movslq	-12(%rbp), %rax
	imulq	$96, %rax, %rax
	movabsq	$INIT_CBP_P, %rsi
	addq	%rax, %rsi
	movslq	-8(%rbp), %rax
	shlq	$5, %rax
	addq	%rax, %rsi
	movslq	-4(%rbp), %rax
	shlq	$3, %rax
	addq	%rax, %rsi
	callq	XRate
	vaddsd	-24(%rbp), %xmm0, %xmm0
	vmovsd	%xmm0, -24(%rbp)
.LBB10_88:                              # %if.end365
                                        #   in Loop: Header=BB10_84 Depth=3
	jmp	.LBB10_89
.LBB10_89:                              # %for.inc366
                                        #   in Loop: Header=BB10_84 Depth=3
	movl	-4(%rbp), %eax
	addl	$1, %eax
	movl	%eax, -4(%rbp)
	jmp	.LBB10_84
.LBB10_90:                              # %for.end368
                                        #   in Loop: Header=BB10_82 Depth=2
	jmp	.LBB10_91
.LBB10_91:                              # %for.inc369
                                        #   in Loop: Header=BB10_82 Depth=2
	movl	-8(%rbp), %eax
	addl	$1, %eax
	movl	%eax, -8(%rbp)
	jmp	.LBB10_82
.LBB10_92:                              # %for.end371
                                        #   in Loop: Header=BB10_1 Depth=1
	movl	$0, -8(%rbp)
.LBB10_93:                              # %for.cond372
                                        #   Parent Loop BB10_1 Depth=1
                                        # =>  This Loop Header: Depth=2
                                        #       Child Loop BB10_95 Depth 3
	cmpl	$10, -8(%rbp)
	jge	.LBB10_103
# %bb.94:                               # %for.body374
                                        #   in Loop: Header=BB10_93 Depth=2
	movl	$0, -4(%rbp)
.LBB10_95:                              # %for.cond375
                                        #   Parent Loop BB10_1 Depth=1
                                        #     Parent Loop BB10_93 Depth=2
                                        # =>    This Inner Loop Header: Depth=3
	cmpl	$4, -4(%rbp)
	jge	.LBB10_101
# %bb.96:                               # %for.body377
                                        #   in Loop: Header=BB10_95 Depth=3
	movq	img, %rax
	cmpl	$2, 24(%rax)
	jne	.LBB10_98
# %bb.97:                               # %if.then380
                                        #   in Loop: Header=BB10_95 Depth=3
	movq	-32(%rbp), %rdi
	addq	$288, %rdi              # imm = 0x120
	movslq	-8(%rbp), %rax
	shlq	$6, %rax
	addq	%rax, %rdi
	movslq	-4(%rbp), %rax
	shlq	$4, %rax
	addq	%rax, %rdi
	movslq	-12(%rbp), %rax
	shlq	$8, %rax
	movabsq	$INIT_BCBP_I, %rsi
	addq	%rax, %rsi
	movslq	-8(%rbp), %rax
	shlq	$5, %rax
	addq	%rax, %rsi
	movslq	-4(%rbp), %rax
	shlq	$3, %rax
	addq	%rax, %rsi
	callq	XRate
	vaddsd	-24(%rbp), %xmm0, %xmm0
	vmovsd	%xmm0, -24(%rbp)
	jmp	.LBB10_99
.LBB10_98:                              # %if.else394
                                        #   in Loop: Header=BB10_95 Depth=3
	movq	-32(%rbp), %rdi
	addq	$288, %rdi              # imm = 0x120
	movslq	-8(%rbp), %rax
	shlq	$6, %rax
	addq	%rax, %rdi
	movslq	-4(%rbp), %rax
	shlq	$4, %rax
	addq	%rax, %rdi
	movslq	-12(%rbp), %rax
	shlq	$8, %rax
	movabsq	$INIT_BCBP_P, %rsi
	addq	%rax, %rsi
	movslq	-8(%rbp), %rax
	shlq	$5, %rax
	addq	%rax, %rsi
	movslq	-4(%rbp), %rax
	shlq	$3, %rax
	addq	%rax, %rsi
	callq	XRate
	vaddsd	-24(%rbp), %xmm0, %xmm0
	vmovsd	%xmm0, -24(%rbp)
.LBB10_99:                              # %if.end409
                                        #   in Loop: Header=BB10_95 Depth=3
	jmp	.LBB10_100
.LBB10_100:                             # %for.inc410
                                        #   in Loop: Header=BB10_95 Depth=3
	movl	-4(%rbp), %eax
	addl	$1, %eax
	movl	%eax, -4(%rbp)
	jmp	.LBB10_95
.LBB10_101:                             # %for.end412
                                        #   in Loop: Header=BB10_93 Depth=2
	jmp	.LBB10_102
.LBB10_102:                             # %for.inc413
                                        #   in Loop: Header=BB10_93 Depth=2
	movl	-8(%rbp), %eax
	addl	$1, %eax
	movl	%eax, -8(%rbp)
	jmp	.LBB10_93
.LBB10_103:                             # %for.end415
                                        #   in Loop: Header=BB10_1 Depth=1
	movl	$0, -8(%rbp)
.LBB10_104:                             # %for.cond416
                                        #   Parent Loop BB10_1 Depth=1
                                        # =>  This Loop Header: Depth=2
                                        #       Child Loop BB10_106 Depth 3
	cmpl	$10, -8(%rbp)
	jge	.LBB10_114
# %bb.105:                              # %for.body418
                                        #   in Loop: Header=BB10_104 Depth=2
	movl	$0, -4(%rbp)
.LBB10_106:                             # %for.cond419
                                        #   Parent Loop BB10_1 Depth=1
                                        #     Parent Loop BB10_104 Depth=2
                                        # =>    This Inner Loop Header: Depth=3
	cmpl	$15, -4(%rbp)
	jge	.LBB10_112
# %bb.107:                              # %for.body421
                                        #   in Loop: Header=BB10_106 Depth=3
	movq	img, %rax
	cmpl	$2, 24(%rax)
	jne	.LBB10_109
# %bb.108:                              # %if.then424
                                        #   in Loop: Header=BB10_106 Depth=3
	movq	-32(%rbp), %rdi
	addq	$928, %rdi              # imm = 0x3A0
	movslq	-8(%rbp), %rax
	imulq	$240, %rax, %rax
	addq	%rax, %rdi
	movslq	-4(%rbp), %rax
	shlq	$4, %rax
	addq	%rax, %rdi
	movslq	-12(%rbp), %rax
	imulq	$960, %rax, %rax        # imm = 0x3C0
	movabsq	$INIT_MAP_I, %rsi
	addq	%rax, %rsi
	movslq	-8(%rbp), %rax
	imulq	$120, %rax, %rax
	addq	%rax, %rsi
	movslq	-4(%rbp), %rax
	shlq	$3, %rax
	addq	%rax, %rsi
	callq	XRate
	vaddsd	-24(%rbp), %xmm0, %xmm0
	vmovsd	%xmm0, -24(%rbp)
	jmp	.LBB10_110
.LBB10_109:                             # %if.else438
                                        #   in Loop: Header=BB10_106 Depth=3
	movq	-32(%rbp), %rdi
	addq	$928, %rdi              # imm = 0x3A0
	movslq	-8(%rbp), %rax
	imulq	$240, %rax, %rax
	addq	%rax, %rdi
	movslq	-4(%rbp), %rax
	shlq	$4, %rax
	addq	%rax, %rdi
	movslq	-12(%rbp), %rax
	imulq	$960, %rax, %rax        # imm = 0x3C0
	movabsq	$INIT_MAP_P, %rsi
	addq	%rax, %rsi
	movslq	-8(%rbp), %rax
	imulq	$120, %rax, %rax
	addq	%rax, %rsi
	movslq	-4(%rbp), %rax
	shlq	$3, %rax
	addq	%rax, %rsi
	callq	XRate
	vaddsd	-24(%rbp), %xmm0, %xmm0
	vmovsd	%xmm0, -24(%rbp)
.LBB10_110:                             # %if.end453
                                        #   in Loop: Header=BB10_106 Depth=3
	jmp	.LBB10_111
.LBB10_111:                             # %for.inc454
                                        #   in Loop: Header=BB10_106 Depth=3
	movl	-4(%rbp), %eax
	addl	$1, %eax
	movl	%eax, -4(%rbp)
	jmp	.LBB10_106
.LBB10_112:                             # %for.end456
                                        #   in Loop: Header=BB10_104 Depth=2
	jmp	.LBB10_113
.LBB10_113:                             # %for.inc457
                                        #   in Loop: Header=BB10_104 Depth=2
	movl	-8(%rbp), %eax
	addl	$1, %eax
	movl	%eax, -8(%rbp)
	jmp	.LBB10_104
.LBB10_114:                             # %for.end459
                                        #   in Loop: Header=BB10_1 Depth=1
	movl	$0, -8(%rbp)
.LBB10_115:                             # %for.cond460
                                        #   Parent Loop BB10_1 Depth=1
                                        # =>  This Loop Header: Depth=2
                                        #       Child Loop BB10_117 Depth 3
	cmpl	$10, -8(%rbp)
	jge	.LBB10_125
# %bb.116:                              # %for.body462
                                        #   in Loop: Header=BB10_115 Depth=2
	movl	$0, -4(%rbp)
.LBB10_117:                             # %for.cond463
                                        #   Parent Loop BB10_1 Depth=1
                                        #     Parent Loop BB10_115 Depth=2
                                        # =>    This Inner Loop Header: Depth=3
	cmpl	$15, -4(%rbp)
	jge	.LBB10_123
# %bb.118:                              # %for.body465
                                        #   in Loop: Header=BB10_117 Depth=3
	movq	img, %rax
	cmpl	$2, 24(%rax)
	jne	.LBB10_120
# %bb.119:                              # %if.then468
                                        #   in Loop: Header=BB10_117 Depth=3
	movq	-32(%rbp), %rdi
	addq	$3328, %rdi             # imm = 0xD00
	movslq	-8(%rbp), %rax
	imulq	$240, %rax, %rax
	addq	%rax, %rdi
	movslq	-4(%rbp), %rax
	shlq	$4, %rax
	addq	%rax, %rdi
	movslq	-12(%rbp), %rax
	imulq	$960, %rax, %rax        # imm = 0x3C0
	movabsq	$INIT_LAST_I, %rsi
	addq	%rax, %rsi
	movslq	-8(%rbp), %rax
	imulq	$120, %rax, %rax
	addq	%rax, %rsi
	movslq	-4(%rbp), %rax
	shlq	$3, %rax
	addq	%rax, %rsi
	callq	XRate
	vaddsd	-24(%rbp), %xmm0, %xmm0
	vmovsd	%xmm0, -24(%rbp)
	jmp	.LBB10_121
.LBB10_120:                             # %if.else482
                                        #   in Loop: Header=BB10_117 Depth=3
	movq	-32(%rbp), %rdi
	addq	$3328, %rdi             # imm = 0xD00
	movslq	-8(%rbp), %rax
	imulq	$240, %rax, %rax
	addq	%rax, %rdi
	movslq	-4(%rbp), %rax
	shlq	$4, %rax
	addq	%rax, %rdi
	movslq	-12(%rbp), %rax
	imulq	$960, %rax, %rax        # imm = 0x3C0
	movabsq	$INIT_LAST_P, %rsi
	addq	%rax, %rsi
	movslq	-8(%rbp), %rax
	imulq	$120, %rax, %rax
	addq	%rax, %rsi
	movslq	-4(%rbp), %rax
	shlq	$3, %rax
	addq	%rax, %rsi
	callq	XRate
	vaddsd	-24(%rbp), %xmm0, %xmm0
	vmovsd	%xmm0, -24(%rbp)
.LBB10_121:                             # %if.end497
                                        #   in Loop: Header=BB10_117 Depth=3
	jmp	.LBB10_122
.LBB10_122:                             # %for.inc498
                                        #   in Loop: Header=BB10_117 Depth=3
	movl	-4(%rbp), %eax
	addl	$1, %eax
	movl	%eax, -4(%rbp)
	jmp	.LBB10_117
.LBB10_123:                             # %for.end500
                                        #   in Loop: Header=BB10_115 Depth=2
	jmp	.LBB10_124
.LBB10_124:                             # %for.inc501
                                        #   in Loop: Header=BB10_115 Depth=2
	movl	-8(%rbp), %eax
	addl	$1, %eax
	movl	%eax, -8(%rbp)
	jmp	.LBB10_115
.LBB10_125:                             # %for.end503
                                        #   in Loop: Header=BB10_1 Depth=1
	movl	$0, -8(%rbp)
.LBB10_126:                             # %for.cond504
                                        #   Parent Loop BB10_1 Depth=1
                                        # =>  This Loop Header: Depth=2
                                        #       Child Loop BB10_128 Depth 3
	cmpl	$10, -8(%rbp)
	jge	.LBB10_136
# %bb.127:                              # %for.body506
                                        #   in Loop: Header=BB10_126 Depth=2
	movl	$0, -4(%rbp)
.LBB10_128:                             # %for.cond507
                                        #   Parent Loop BB10_1 Depth=1
                                        #     Parent Loop BB10_126 Depth=2
                                        # =>    This Inner Loop Header: Depth=3
	cmpl	$5, -4(%rbp)
	jge	.LBB10_134
# %bb.129:                              # %for.body509
                                        #   in Loop: Header=BB10_128 Depth=3
	movq	img, %rax
	cmpl	$2, 24(%rax)
	jne	.LBB10_131
# %bb.130:                              # %if.then512
                                        #   in Loop: Header=BB10_128 Depth=3
	movq	-32(%rbp), %rdi
	addq	$5728, %rdi             # imm = 0x1660
	movslq	-8(%rbp), %rax
	imulq	$80, %rax, %rax
	addq	%rax, %rdi
	movslq	-4(%rbp), %rax
	shlq	$4, %rax
	addq	%rax, %rdi
	movslq	-12(%rbp), %rax
	imulq	$320, %rax, %rax        # imm = 0x140
	movabsq	$INIT_ONE_I, %rsi
	addq	%rax, %rsi
	movslq	-8(%rbp), %rax
	imulq	$40, %rax, %rax
	addq	%rax, %rsi
	movslq	-4(%rbp), %rax
	shlq	$3, %rax
	addq	%rax, %rsi
	callq	XRate
	vaddsd	-24(%rbp), %xmm0, %xmm0
	vmovsd	%xmm0, -24(%rbp)
	jmp	.LBB10_132
.LBB10_131:                             # %if.else526
                                        #   in Loop: Header=BB10_128 Depth=3
	movq	-32(%rbp), %rdi
	addq	$5728, %rdi             # imm = 0x1660
	movslq	-8(%rbp), %rax
	imulq	$80, %rax, %rax
	addq	%rax, %rdi
	movslq	-4(%rbp), %rax
	shlq	$4, %rax
	addq	%rax, %rdi
	movslq	-12(%rbp), %rax
	imulq	$320, %rax, %rax        # imm = 0x140
	movabsq	$INIT_ONE_P, %rsi
	addq	%rax, %rsi
	movslq	-8(%rbp), %rax
	imulq	$40, %rax, %rax
	addq	%rax, %rsi
	movslq	-4(%rbp), %rax
	shlq	$3, %rax
	addq	%rax, %rsi
	callq	XRate
	vaddsd	-24(%rbp), %xmm0, %xmm0
	vmovsd	%xmm0, -24(%rbp)
.LBB10_132:                             # %if.end541
                                        #   in Loop: Header=BB10_128 Depth=3
	jmp	.LBB10_133
.LBB10_133:                             # %for.inc542
                                        #   in Loop: Header=BB10_128 Depth=3
	movl	-4(%rbp), %eax
	addl	$1, %eax
	movl	%eax, -4(%rbp)
	jmp	.LBB10_128
.LBB10_134:                             # %for.end544
                                        #   in Loop: Header=BB10_126 Depth=2
	jmp	.LBB10_135
.LBB10_135:                             # %for.inc545
                                        #   in Loop: Header=BB10_126 Depth=2
	movl	-8(%rbp), %eax
	addl	$1, %eax
	movl	%eax, -8(%rbp)
	jmp	.LBB10_126
.LBB10_136:                             # %for.end547
                                        #   in Loop: Header=BB10_1 Depth=1
	movl	$0, -8(%rbp)
.LBB10_137:                             # %for.cond548
                                        #   Parent Loop BB10_1 Depth=1
                                        # =>  This Loop Header: Depth=2
                                        #       Child Loop BB10_139 Depth 3
	cmpl	$10, -8(%rbp)
	jge	.LBB10_147
# %bb.138:                              # %for.body550
                                        #   in Loop: Header=BB10_137 Depth=2
	movl	$0, -4(%rbp)
.LBB10_139:                             # %for.cond551
                                        #   Parent Loop BB10_1 Depth=1
                                        #     Parent Loop BB10_137 Depth=2
                                        # =>    This Inner Loop Header: Depth=3
	cmpl	$5, -4(%rbp)
	jge	.LBB10_145
# %bb.140:                              # %for.body553
                                        #   in Loop: Header=BB10_139 Depth=3
	movq	img, %rax
	cmpl	$2, 24(%rax)
	jne	.LBB10_142
# %bb.141:                              # %if.then556
                                        #   in Loop: Header=BB10_139 Depth=3
	movq	-32(%rbp), %rdi
	addq	$6528, %rdi             # imm = 0x1980
	movslq	-8(%rbp), %rax
	imulq	$80, %rax, %rax
	addq	%rax, %rdi
	movslq	-4(%rbp), %rax
	shlq	$4, %rax
	addq	%rax, %rdi
	movslq	-12(%rbp), %rax
	imulq	$320, %rax, %rax        # imm = 0x140
	movabsq	$INIT_ABS_I, %rsi
	addq	%rax, %rsi
	movslq	-8(%rbp), %rax
	imulq	$40, %rax, %rax
	addq	%rax, %rsi
	movslq	-4(%rbp), %rax
	shlq	$3, %rax
	addq	%rax, %rsi
	callq	XRate
	vaddsd	-24(%rbp), %xmm0, %xmm0
	vmovsd	%xmm0, -24(%rbp)
	jmp	.LBB10_143
.LBB10_142:                             # %if.else570
                                        #   in Loop: Header=BB10_139 Depth=3
	movq	-32(%rbp), %rdi
	addq	$6528, %rdi             # imm = 0x1980
	movslq	-8(%rbp), %rax
	imulq	$80, %rax, %rax
	addq	%rax, %rdi
	movslq	-4(%rbp), %rax
	shlq	$4, %rax
	addq	%rax, %rdi
	movslq	-12(%rbp), %rax
	imulq	$320, %rax, %rax        # imm = 0x140
	movabsq	$INIT_ABS_P, %rsi
	addq	%rax, %rsi
	movslq	-8(%rbp), %rax
	imulq	$40, %rax, %rax
	addq	%rax, %rsi
	movslq	-4(%rbp), %rax
	shlq	$3, %rax
	addq	%rax, %rsi
	callq	XRate
	vaddsd	-24(%rbp), %xmm0, %xmm0
	vmovsd	%xmm0, -24(%rbp)
.LBB10_143:                             # %if.end585
                                        #   in Loop: Header=BB10_139 Depth=3
	jmp	.LBB10_144
.LBB10_144:                             # %for.inc586
                                        #   in Loop: Header=BB10_139 Depth=3
	movl	-4(%rbp), %eax
	addl	$1, %eax
	movl	%eax, -4(%rbp)
	jmp	.LBB10_139
.LBB10_145:                             # %for.end588
                                        #   in Loop: Header=BB10_137 Depth=2
	jmp	.LBB10_146
.LBB10_146:                             # %for.inc589
                                        #   in Loop: Header=BB10_137 Depth=2
	movl	-8(%rbp), %eax
	addl	$1, %eax
	movl	%eax, -8(%rbp)
	jmp	.LBB10_137
.LBB10_147:                             # %for.end591
                                        #   in Loop: Header=BB10_1 Depth=1
	movl	$0, -8(%rbp)
.LBB10_148:                             # %for.cond592
                                        #   Parent Loop BB10_1 Depth=1
                                        # =>  This Loop Header: Depth=2
                                        #       Child Loop BB10_150 Depth 3
	cmpl	$10, -8(%rbp)
	jge	.LBB10_158
# %bb.149:                              # %for.body594
                                        #   in Loop: Header=BB10_148 Depth=2
	movl	$0, -4(%rbp)
.LBB10_150:                             # %for.cond595
                                        #   Parent Loop BB10_1 Depth=1
                                        #     Parent Loop BB10_148 Depth=2
                                        # =>    This Inner Loop Header: Depth=3
	cmpl	$15, -4(%rbp)
	jge	.LBB10_156
# %bb.151:                              # %for.body597
                                        #   in Loop: Header=BB10_150 Depth=3
	movq	img, %rax
	cmpl	$2, 24(%rax)
	jne	.LBB10_153
# %bb.152:                              # %if.then600
                                        #   in Loop: Header=BB10_150 Depth=3
	movq	-32(%rbp), %rdi
	addq	$7328, %rdi             # imm = 0x1CA0
	movslq	-8(%rbp), %rax
	imulq	$240, %rax, %rax
	addq	%rax, %rdi
	movslq	-4(%rbp), %rax
	shlq	$4, %rax
	addq	%rax, %rdi
	movslq	-12(%rbp), %rax
	imulq	$960, %rax, %rax        # imm = 0x3C0
	movabsq	$INIT_FLD_MAP_I, %rsi
	addq	%rax, %rsi
	movslq	-8(%rbp), %rax
	imulq	$120, %rax, %rax
	addq	%rax, %rsi
	movslq	-4(%rbp), %rax
	shlq	$3, %rax
	addq	%rax, %rsi
	callq	XRate
	vaddsd	-24(%rbp), %xmm0, %xmm0
	vmovsd	%xmm0, -24(%rbp)
	jmp	.LBB10_154
.LBB10_153:                             # %if.else614
                                        #   in Loop: Header=BB10_150 Depth=3
	movq	-32(%rbp), %rdi
	addq	$7328, %rdi             # imm = 0x1CA0
	movslq	-8(%rbp), %rax
	imulq	$240, %rax, %rax
	addq	%rax, %rdi
	movslq	-4(%rbp), %rax
	shlq	$4, %rax
	addq	%rax, %rdi
	movslq	-12(%rbp), %rax
	imulq	$960, %rax, %rax        # imm = 0x3C0
	movabsq	$INIT_FLD_MAP_P, %rsi
	addq	%rax, %rsi
	movslq	-8(%rbp), %rax
	imulq	$120, %rax, %rax
	addq	%rax, %rsi
	movslq	-4(%rbp), %rax
	shlq	$3, %rax
	addq	%rax, %rsi
	callq	XRate
	vaddsd	-24(%rbp), %xmm0, %xmm0
	vmovsd	%xmm0, -24(%rbp)
.LBB10_154:                             # %if.end629
                                        #   in Loop: Header=BB10_150 Depth=3
	jmp	.LBB10_155
.LBB10_155:                             # %for.inc630
                                        #   in Loop: Header=BB10_150 Depth=3
	movl	-4(%rbp), %eax
	addl	$1, %eax
	movl	%eax, -4(%rbp)
	jmp	.LBB10_150
.LBB10_156:                             # %for.end632
                                        #   in Loop: Header=BB10_148 Depth=2
	jmp	.LBB10_157
.LBB10_157:                             # %for.inc633
                                        #   in Loop: Header=BB10_148 Depth=2
	movl	-8(%rbp), %eax
	addl	$1, %eax
	movl	%eax, -8(%rbp)
	jmp	.LBB10_148
.LBB10_158:                             # %for.end635
                                        #   in Loop: Header=BB10_1 Depth=1
	movl	$0, -8(%rbp)
.LBB10_159:                             # %for.cond636
                                        #   Parent Loop BB10_1 Depth=1
                                        # =>  This Loop Header: Depth=2
                                        #       Child Loop BB10_161 Depth 3
	cmpl	$10, -8(%rbp)
	jge	.LBB10_169
# %bb.160:                              # %for.body638
                                        #   in Loop: Header=BB10_159 Depth=2
	movl	$0, -4(%rbp)
.LBB10_161:                             # %for.cond639
                                        #   Parent Loop BB10_1 Depth=1
                                        #     Parent Loop BB10_159 Depth=2
                                        # =>    This Inner Loop Header: Depth=3
	cmpl	$15, -4(%rbp)
	jge	.LBB10_167
# %bb.162:                              # %for.body641
                                        #   in Loop: Header=BB10_161 Depth=3
	movq	img, %rax
	cmpl	$2, 24(%rax)
	jne	.LBB10_164
# %bb.163:                              # %if.then644
                                        #   in Loop: Header=BB10_161 Depth=3
	movq	-32(%rbp), %rdi
	addq	$9728, %rdi             # imm = 0x2600
	movslq	-8(%rbp), %rax
	imulq	$240, %rax, %rax
	addq	%rax, %rdi
	movslq	-4(%rbp), %rax
	shlq	$4, %rax
	addq	%rax, %rdi
	movslq	-12(%rbp), %rax
	imulq	$960, %rax, %rax        # imm = 0x3C0
	movabsq	$INIT_FLD_LAST_I, %rsi
	addq	%rax, %rsi
	movslq	-8(%rbp), %rax
	imulq	$120, %rax, %rax
	addq	%rax, %rsi
	movslq	-4(%rbp), %rax
	shlq	$3, %rax
	addq	%rax, %rsi
	callq	XRate
	vaddsd	-24(%rbp), %xmm0, %xmm0
	vmovsd	%xmm0, -24(%rbp)
	jmp	.LBB10_165
.LBB10_164:                             # %if.else658
                                        #   in Loop: Header=BB10_161 Depth=3
	movq	-32(%rbp), %rdi
	addq	$9728, %rdi             # imm = 0x2600
	movslq	-8(%rbp), %rax
	imulq	$240, %rax, %rax
	addq	%rax, %rdi
	movslq	-4(%rbp), %rax
	shlq	$4, %rax
	addq	%rax, %rdi
	movslq	-12(%rbp), %rax
	imulq	$960, %rax, %rax        # imm = 0x3C0
	movabsq	$INIT_FLD_LAST_P, %rsi
	addq	%rax, %rsi
	movslq	-8(%rbp), %rax
	imulq	$120, %rax, %rax
	addq	%rax, %rsi
	movslq	-4(%rbp), %rax
	shlq	$3, %rax
	addq	%rax, %rsi
	callq	XRate
	vaddsd	-24(%rbp), %xmm0, %xmm0
	vmovsd	%xmm0, -24(%rbp)
.LBB10_165:                             # %if.end673
                                        #   in Loop: Header=BB10_161 Depth=3
	jmp	.LBB10_166
.LBB10_166:                             # %for.inc674
                                        #   in Loop: Header=BB10_161 Depth=3
	movl	-4(%rbp), %eax
	addl	$1, %eax
	movl	%eax, -4(%rbp)
	jmp	.LBB10_161
.LBB10_167:                             # %for.end676
                                        #   in Loop: Header=BB10_159 Depth=2
	jmp	.LBB10_168
.LBB10_168:                             # %for.inc677
                                        #   in Loop: Header=BB10_159 Depth=2
	movl	-8(%rbp), %eax
	addl	$1, %eax
	movl	%eax, -8(%rbp)
	jmp	.LBB10_159
.LBB10_169:                             # %for.end679
                                        #   in Loop: Header=BB10_1 Depth=1
	vmovsd	-24(%rbp), %xmm0        # xmm0 = mem[0],zero
	vmovsd	-56(%rbp), %xmm1        # xmm1 = mem[0],zero
	vucomisd	%xmm0, %xmm1
	jbe	.LBB10_171
# %bb.170:                              # %if.then681
                                        #   in Loop: Header=BB10_1 Depth=1
	vmovsd	-24(%rbp), %xmm0        # xmm0 = mem[0],zero
	vmovsd	%xmm0, -56(%rbp)
	movl	-12(%rbp), %eax
	movq	-64(%rbp), %rcx
	movl	%eax, (%rcx)
.LBB10_171:                             # %if.end682
                                        #   in Loop: Header=BB10_1 Depth=1
	jmp	.LBB10_172
.LBB10_172:                             # %for.inc683
                                        #   in Loop: Header=BB10_1 Depth=1
	movl	-12(%rbp), %eax
	addl	$1, %eax
	movl	%eax, -12(%rbp)
	jmp	.LBB10_1
.LBB10_173:                             # %for.end685
	cmpl	$1619176124, -48(%rbp)  # imm = 0x6082AABC
	jne	.LBB10_175
.LBB10_174:
	addq	$64, %rsp
	popq	%rbp
	.cfi_def_cfa %rsp, 8
	retq
.LBB10_175:                             # %func_exit
	.cfi_def_cfa %rbp, 16
	callq	detect_breach
	jmp	.LBB10_174
.Lfunc_end10:
	.size	GetCtxModelNumber.3, .Lfunc_end10-GetCtxModelNumber.3
	.cfi_endproc
                                        # -- End function
	.section	.rodata.cst8,"aM",@progbits,8
	.p2align	3               # -- Begin function GetCtxModelNumber.4
.LCPI11_0:
	.quad	5055640609639927018     # double 1.0E+30
	.text
	.globl	GetCtxModelNumber.4
	.p2align	4, 0x90
	.type	GetCtxModelNumber.4,@function
GetCtxModelNumber.4:                    # @GetCtxModelNumber.4
	.cfi_startproc
# %bb.0:                                # %entry
	pushq	%rbp
	.cfi_def_cfa_offset 16
	.cfi_offset %rbp, -16
	movq	%rsp, %rbp
	.cfi_def_cfa_register %rbp
	subq	$64, %rsp
	vmovsd	.LCPI11_0(%rip), %xmm0  # xmm0 = mem[0],zero
	movl	$960193186, -44(%rbp)   # imm = 0x393B62A2
	movq	%rdi, -64(%rbp)
	movq	%rsi, -40(%rbp)
	movq	%rdx, -32(%rbp)
	movq	img, %rax
	movl	24(%rax), %eax
	cmpl	$2, %eax
	movl	$1, %eax
	movl	$3, %ecx
	cmovel	%eax, %ecx
	movl	%ecx, -48(%rbp)
	vmovsd	%xmm0, -56(%rbp)
	movl	$0, -12(%rbp)
.LBB11_1:                               # %for.cond
                                        # =>This Loop Header: Depth=1
                                        #     Child Loop BB11_3 Depth 2
                                        #       Child Loop BB11_5 Depth 3
                                        #     Child Loop BB11_14 Depth 2
                                        #       Child Loop BB11_16 Depth 3
                                        #     Child Loop BB11_25 Depth 2
                                        #       Child Loop BB11_27 Depth 3
                                        #     Child Loop BB11_36 Depth 2
                                        #       Child Loop BB11_38 Depth 3
                                        #     Child Loop BB11_47 Depth 2
                                        #     Child Loop BB11_54 Depth 2
                                        #     Child Loop BB11_61 Depth 2
                                        #     Child Loop BB11_68 Depth 2
                                        #     Child Loop BB11_75 Depth 2
                                        #     Child Loop BB11_82 Depth 2
                                        #       Child Loop BB11_84 Depth 3
                                        #     Child Loop BB11_93 Depth 2
                                        #       Child Loop BB11_95 Depth 3
                                        #     Child Loop BB11_104 Depth 2
                                        #       Child Loop BB11_106 Depth 3
                                        #     Child Loop BB11_115 Depth 2
                                        #       Child Loop BB11_117 Depth 3
                                        #     Child Loop BB11_126 Depth 2
                                        #       Child Loop BB11_128 Depth 3
                                        #     Child Loop BB11_137 Depth 2
                                        #       Child Loop BB11_139 Depth 3
                                        #     Child Loop BB11_148 Depth 2
                                        #       Child Loop BB11_150 Depth 3
                                        #     Child Loop BB11_159 Depth 2
                                        #       Child Loop BB11_161 Depth 3
	movl	-12(%rbp), %eax
	cmpl	-48(%rbp), %eax
	jge	.LBB11_173
# %bb.2:                                # %for.body
                                        #   in Loop: Header=BB11_1 Depth=1
	vxorps	%xmm0, %xmm0, %xmm0
	vmovsd	%xmm0, -24(%rbp)
	movl	$0, -8(%rbp)
.LBB11_3:                               # %for.cond2
                                        #   Parent Loop BB11_1 Depth=1
                                        # =>  This Loop Header: Depth=2
                                        #       Child Loop BB11_5 Depth 3
	cmpl	$3, -8(%rbp)
	jge	.LBB11_13
# %bb.4:                                # %for.body4
                                        #   in Loop: Header=BB11_3 Depth=2
	movl	$0, -4(%rbp)
.LBB11_5:                               # %for.cond5
                                        #   Parent Loop BB11_1 Depth=1
                                        #     Parent Loop BB11_3 Depth=2
                                        # =>    This Inner Loop Header: Depth=3
	cmpl	$11, -4(%rbp)
	jge	.LBB11_11
# %bb.6:                                # %for.body7
                                        #   in Loop: Header=BB11_5 Depth=3
	movq	img, %rax
	cmpl	$2, 24(%rax)
	jne	.LBB11_8
# %bb.7:                                # %if.then
                                        #   in Loop: Header=BB11_5 Depth=3
	movq	-40(%rbp), %rdi
	movslq	-8(%rbp), %rax
	imulq	$176, %rax, %rax
	addq	%rax, %rdi
	movslq	-4(%rbp), %rax
	shlq	$4, %rax
	addq	%rax, %rdi
	movslq	-12(%rbp), %rax
	imulq	$264, %rax, %rax        # imm = 0x108
	movabsq	$INIT_MB_TYPE_I, %rsi
	addq	%rax, %rsi
	movslq	-8(%rbp), %rax
	imulq	$88, %rax, %rax
	addq	%rax, %rsi
	movslq	-4(%rbp), %rax
	shlq	$3, %rax
	addq	%rax, %rsi
	callq	XRate
	vaddsd	-24(%rbp), %xmm0, %xmm0
	vmovsd	%xmm0, -24(%rbp)
	jmp	.LBB11_9
.LBB11_8:                               # %if.else
                                        #   in Loop: Header=BB11_5 Depth=3
	movq	-40(%rbp), %rdi
	movslq	-8(%rbp), %rax
	imulq	$176, %rax, %rax
	addq	%rax, %rdi
	movslq	-4(%rbp), %rax
	shlq	$4, %rax
	addq	%rax, %rdi
	movslq	-12(%rbp), %rax
	imulq	$264, %rax, %rax        # imm = 0x108
	movabsq	$INIT_MB_TYPE_P, %rsi
	addq	%rax, %rsi
	movslq	-8(%rbp), %rax
	imulq	$88, %rax, %rax
	addq	%rax, %rsi
	movslq	-4(%rbp), %rax
	shlq	$3, %rax
	addq	%rax, %rsi
	callq	XRate
	vaddsd	-24(%rbp), %xmm0, %xmm0
	vmovsd	%xmm0, -24(%rbp)
.LBB11_9:                               # %if.end
                                        #   in Loop: Header=BB11_5 Depth=3
	jmp	.LBB11_10
.LBB11_10:                              # %for.inc
                                        #   in Loop: Header=BB11_5 Depth=3
	movl	-4(%rbp), %eax
	addl	$1, %eax
	movl	%eax, -4(%rbp)
	jmp	.LBB11_5
.LBB11_11:                              # %for.end
                                        #   in Loop: Header=BB11_3 Depth=2
	jmp	.LBB11_12
.LBB11_12:                              # %for.inc33
                                        #   in Loop: Header=BB11_3 Depth=2
	movl	-8(%rbp), %eax
	addl	$1, %eax
	movl	%eax, -8(%rbp)
	jmp	.LBB11_3
.LBB11_13:                              # %for.end35
                                        #   in Loop: Header=BB11_1 Depth=1
	movl	$0, -8(%rbp)
.LBB11_14:                              # %for.cond36
                                        #   Parent Loop BB11_1 Depth=1
                                        # =>  This Loop Header: Depth=2
                                        #       Child Loop BB11_16 Depth 3
	cmpl	$2, -8(%rbp)
	jge	.LBB11_24
# %bb.15:                               # %for.body38
                                        #   in Loop: Header=BB11_14 Depth=2
	movl	$0, -4(%rbp)
.LBB11_16:                              # %for.cond39
                                        #   Parent Loop BB11_1 Depth=1
                                        #     Parent Loop BB11_14 Depth=2
                                        # =>    This Inner Loop Header: Depth=3
	cmpl	$9, -4(%rbp)
	jge	.LBB11_22
# %bb.17:                               # %for.body41
                                        #   in Loop: Header=BB11_16 Depth=3
	movq	img, %rax
	cmpl	$2, 24(%rax)
	jne	.LBB11_19
# %bb.18:                               # %if.then44
                                        #   in Loop: Header=BB11_16 Depth=3
	movq	-40(%rbp), %rdi
	addq	$528, %rdi              # imm = 0x210
	movslq	-8(%rbp), %rax
	imulq	$144, %rax, %rax
	addq	%rax, %rdi
	movslq	-4(%rbp), %rax
	shlq	$4, %rax
	addq	%rax, %rdi
	movslq	-12(%rbp), %rax
	imulq	$144, %rax, %rax
	movabsq	$INIT_B8_TYPE_I, %rsi
	addq	%rax, %rsi
	movslq	-8(%rbp), %rax
	imulq	$72, %rax, %rax
	addq	%rax, %rsi
	movslq	-4(%rbp), %rax
	shlq	$3, %rax
	addq	%rax, %rsi
	callq	XRate
	vaddsd	-24(%rbp), %xmm0, %xmm0
	vmovsd	%xmm0, -24(%rbp)
	jmp	.LBB11_20
.LBB11_19:                              # %if.else58
                                        #   in Loop: Header=BB11_16 Depth=3
	movq	-40(%rbp), %rdi
	addq	$528, %rdi              # imm = 0x210
	movslq	-8(%rbp), %rax
	imulq	$144, %rax, %rax
	addq	%rax, %rdi
	movslq	-4(%rbp), %rax
	shlq	$4, %rax
	addq	%rax, %rdi
	movslq	-12(%rbp), %rax
	imulq	$144, %rax, %rax
	movabsq	$INIT_B8_TYPE_P, %rsi
	addq	%rax, %rsi
	movslq	-8(%rbp), %rax
	imulq	$72, %rax, %rax
	addq	%rax, %rsi
	movslq	-4(%rbp), %rax
	shlq	$3, %rax
	addq	%rax, %rsi
	callq	XRate
	vaddsd	-24(%rbp), %xmm0, %xmm0
	vmovsd	%xmm0, -24(%rbp)
.LBB11_20:                              # %if.end73
                                        #   in Loop: Header=BB11_16 Depth=3
	jmp	.LBB11_21
.LBB11_21:                              # %for.inc74
                                        #   in Loop: Header=BB11_16 Depth=3
	movl	-4(%rbp), %eax
	addl	$1, %eax
	movl	%eax, -4(%rbp)
	jmp	.LBB11_16
.LBB11_22:                              # %for.end76
                                        #   in Loop: Header=BB11_14 Depth=2
	jmp	.LBB11_23
.LBB11_23:                              # %for.inc77
                                        #   in Loop: Header=BB11_14 Depth=2
	movl	-8(%rbp), %eax
	addl	$1, %eax
	movl	%eax, -8(%rbp)
	jmp	.LBB11_14
.LBB11_24:                              # %for.end79
                                        #   in Loop: Header=BB11_1 Depth=1
	movl	$0, -8(%rbp)
.LBB11_25:                              # %for.cond80
                                        #   Parent Loop BB11_1 Depth=1
                                        # =>  This Loop Header: Depth=2
                                        #       Child Loop BB11_27 Depth 3
	cmpl	$2, -8(%rbp)
	jge	.LBB11_35
# %bb.26:                               # %for.body82
                                        #   in Loop: Header=BB11_25 Depth=2
	movl	$0, -4(%rbp)
.LBB11_27:                              # %for.cond83
                                        #   Parent Loop BB11_1 Depth=1
                                        #     Parent Loop BB11_25 Depth=2
                                        # =>    This Inner Loop Header: Depth=3
	cmpl	$10, -4(%rbp)
	jge	.LBB11_33
# %bb.28:                               # %for.body85
                                        #   in Loop: Header=BB11_27 Depth=3
	movq	img, %rax
	cmpl	$2, 24(%rax)
	jne	.LBB11_30
# %bb.29:                               # %if.then88
                                        #   in Loop: Header=BB11_27 Depth=3
	movq	-40(%rbp), %rdi
	addq	$816, %rdi              # imm = 0x330
	movslq	-8(%rbp), %rax
	imulq	$160, %rax, %rax
	addq	%rax, %rdi
	movslq	-4(%rbp), %rax
	shlq	$4, %rax
	addq	%rax, %rdi
	movslq	-12(%rbp), %rax
	imulq	$160, %rax, %rax
	movabsq	$INIT_MV_RES_I, %rsi
	addq	%rax, %rsi
	movslq	-8(%rbp), %rax
	imulq	$80, %rax, %rax
	addq	%rax, %rsi
	movslq	-4(%rbp), %rax
	shlq	$3, %rax
	addq	%rax, %rsi
	callq	XRate
	vaddsd	-24(%rbp), %xmm0, %xmm0
	vmovsd	%xmm0, -24(%rbp)
	jmp	.LBB11_31
.LBB11_30:                              # %if.else102
                                        #   in Loop: Header=BB11_27 Depth=3
	movq	-40(%rbp), %rdi
	addq	$816, %rdi              # imm = 0x330
	movslq	-8(%rbp), %rax
	imulq	$160, %rax, %rax
	addq	%rax, %rdi
	movslq	-4(%rbp), %rax
	shlq	$4, %rax
	addq	%rax, %rdi
	movslq	-12(%rbp), %rax
	imulq	$160, %rax, %rax
	movabsq	$INIT_MV_RES_P, %rsi
	addq	%rax, %rsi
	movslq	-8(%rbp), %rax
	imulq	$80, %rax, %rax
	addq	%rax, %rsi
	movslq	-4(%rbp), %rax
	shlq	$3, %rax
	addq	%rax, %rsi
	callq	XRate
	vaddsd	-24(%rbp), %xmm0, %xmm0
	vmovsd	%xmm0, -24(%rbp)
.LBB11_31:                              # %if.end117
                                        #   in Loop: Header=BB11_27 Depth=3
	jmp	.LBB11_32
.LBB11_32:                              # %for.inc118
                                        #   in Loop: Header=BB11_27 Depth=3
	movl	-4(%rbp), %eax
	addl	$1, %eax
	movl	%eax, -4(%rbp)
	jmp	.LBB11_27
.LBB11_33:                              # %for.end120
                                        #   in Loop: Header=BB11_25 Depth=2
	jmp	.LBB11_34
.LBB11_34:                              # %for.inc121
                                        #   in Loop: Header=BB11_25 Depth=2
	movl	-8(%rbp), %eax
	addl	$1, %eax
	movl	%eax, -8(%rbp)
	jmp	.LBB11_25
.LBB11_35:                              # %for.end123
                                        #   in Loop: Header=BB11_1 Depth=1
	movl	$0, -8(%rbp)
.LBB11_36:                              # %for.cond124
                                        #   Parent Loop BB11_1 Depth=1
                                        # =>  This Loop Header: Depth=2
                                        #       Child Loop BB11_38 Depth 3
	cmpl	$2, -8(%rbp)
	jge	.LBB11_46
# %bb.37:                               # %for.body126
                                        #   in Loop: Header=BB11_36 Depth=2
	movl	$0, -4(%rbp)
.LBB11_38:                              # %for.cond127
                                        #   Parent Loop BB11_1 Depth=1
                                        #     Parent Loop BB11_36 Depth=2
                                        # =>    This Inner Loop Header: Depth=3
	cmpl	$6, -4(%rbp)
	jge	.LBB11_44
# %bb.39:                               # %for.body129
                                        #   in Loop: Header=BB11_38 Depth=3
	movq	img, %rax
	cmpl	$2, 24(%rax)
	jne	.LBB11_41
# %bb.40:                               # %if.then132
                                        #   in Loop: Header=BB11_38 Depth=3
	movq	-40(%rbp), %rdi
	addq	$1136, %rdi             # imm = 0x470
	movslq	-8(%rbp), %rax
	imulq	$96, %rax, %rax
	addq	%rax, %rdi
	movslq	-4(%rbp), %rax
	shlq	$4, %rax
	addq	%rax, %rdi
	movslq	-12(%rbp), %rax
	imulq	$96, %rax, %rax
	movabsq	$INIT_REF_NO_I, %rsi
	addq	%rax, %rsi
	movslq	-8(%rbp), %rax
	imulq	$48, %rax, %rax
	addq	%rax, %rsi
	movslq	-4(%rbp), %rax
	shlq	$3, %rax
	addq	%rax, %rsi
	callq	XRate
	vaddsd	-24(%rbp), %xmm0, %xmm0
	vmovsd	%xmm0, -24(%rbp)
	jmp	.LBB11_42
.LBB11_41:                              # %if.else146
                                        #   in Loop: Header=BB11_38 Depth=3
	movq	-40(%rbp), %rdi
	addq	$1136, %rdi             # imm = 0x470
	movslq	-8(%rbp), %rax
	imulq	$96, %rax, %rax
	addq	%rax, %rdi
	movslq	-4(%rbp), %rax
	shlq	$4, %rax
	addq	%rax, %rdi
	movslq	-12(%rbp), %rax
	imulq	$96, %rax, %rax
	movabsq	$INIT_REF_NO_P, %rsi
	addq	%rax, %rsi
	movslq	-8(%rbp), %rax
	imulq	$48, %rax, %rax
	addq	%rax, %rsi
	movslq	-4(%rbp), %rax
	shlq	$3, %rax
	addq	%rax, %rsi
	callq	XRate
	vaddsd	-24(%rbp), %xmm0, %xmm0
	vmovsd	%xmm0, -24(%rbp)
.LBB11_42:                              # %if.end161
                                        #   in Loop: Header=BB11_38 Depth=3
	jmp	.LBB11_43
.LBB11_43:                              # %for.inc162
                                        #   in Loop: Header=BB11_38 Depth=3
	movl	-4(%rbp), %eax
	addl	$1, %eax
	movl	%eax, -4(%rbp)
	jmp	.LBB11_38
.LBB11_44:                              # %for.end164
                                        #   in Loop: Header=BB11_36 Depth=2
	jmp	.LBB11_45
.LBB11_45:                              # %for.inc165
                                        #   in Loop: Header=BB11_36 Depth=2
	movl	-8(%rbp), %eax
	addl	$1, %eax
	movl	%eax, -8(%rbp)
	jmp	.LBB11_36
.LBB11_46:                              # %for.end167
                                        #   in Loop: Header=BB11_1 Depth=1
	movl	$0, -4(%rbp)
.LBB11_47:                              # %for.cond168
                                        #   Parent Loop BB11_1 Depth=1
                                        # =>  This Inner Loop Header: Depth=2
	cmpl	$4, -4(%rbp)
	jge	.LBB11_53
# %bb.48:                               # %for.body170
                                        #   in Loop: Header=BB11_47 Depth=2
	movq	img, %rax
	cmpl	$2, 24(%rax)
	jne	.LBB11_50
# %bb.49:                               # %if.then173
                                        #   in Loop: Header=BB11_47 Depth=2
	movq	-40(%rbp), %rdi
	addq	$1328, %rdi             # imm = 0x530
	movslq	-4(%rbp), %rax
	shlq	$4, %rax
	addq	%rax, %rdi
	movslq	-12(%rbp), %rax
	shlq	$5, %rax
	movabsq	$INIT_DELTA_QP_I, %rsi
	addq	%rax, %rsi
	movslq	-4(%rbp), %rax
	shlq	$3, %rax
	addq	%rax, %rsi
	callq	XRate
	vaddsd	-24(%rbp), %xmm0, %xmm0
	vmovsd	%xmm0, -24(%rbp)
	jmp	.LBB11_51
.LBB11_50:                              # %if.else184
                                        #   in Loop: Header=BB11_47 Depth=2
	movq	-40(%rbp), %rdi
	addq	$1328, %rdi             # imm = 0x530
	movslq	-4(%rbp), %rax
	shlq	$4, %rax
	addq	%rax, %rdi
	movslq	-12(%rbp), %rax
	shlq	$5, %rax
	movabsq	$INIT_DELTA_QP_P, %rsi
	addq	%rax, %rsi
	movslq	-4(%rbp), %rax
	shlq	$3, %rax
	addq	%rax, %rsi
	callq	XRate
	vaddsd	-24(%rbp), %xmm0, %xmm0
	vmovsd	%xmm0, -24(%rbp)
.LBB11_51:                              # %if.end196
                                        #   in Loop: Header=BB11_47 Depth=2
	jmp	.LBB11_52
.LBB11_52:                              # %for.inc197
                                        #   in Loop: Header=BB11_47 Depth=2
	movl	-4(%rbp), %eax
	addl	$1, %eax
	movl	%eax, -4(%rbp)
	jmp	.LBB11_47
.LBB11_53:                              # %for.end199
                                        #   in Loop: Header=BB11_1 Depth=1
	movl	$0, -4(%rbp)
.LBB11_54:                              # %for.cond200
                                        #   Parent Loop BB11_1 Depth=1
                                        # =>  This Inner Loop Header: Depth=2
	cmpl	$4, -4(%rbp)
	jge	.LBB11_60
# %bb.55:                               # %for.body202
                                        #   in Loop: Header=BB11_54 Depth=2
	movq	img, %rax
	cmpl	$2, 24(%rax)
	jne	.LBB11_57
# %bb.56:                               # %if.then205
                                        #   in Loop: Header=BB11_54 Depth=2
	movq	-40(%rbp), %rdi
	addq	$1392, %rdi             # imm = 0x570
	movslq	-4(%rbp), %rax
	shlq	$4, %rax
	addq	%rax, %rdi
	movslq	-12(%rbp), %rax
	shlq	$5, %rax
	movabsq	$INIT_MB_AFF_I, %rsi
	addq	%rax, %rsi
	movslq	-4(%rbp), %rax
	shlq	$3, %rax
	addq	%rax, %rsi
	callq	XRate
	vaddsd	-24(%rbp), %xmm0, %xmm0
	vmovsd	%xmm0, -24(%rbp)
	jmp	.LBB11_58
.LBB11_57:                              # %if.else216
                                        #   in Loop: Header=BB11_54 Depth=2
	movq	-40(%rbp), %rdi
	addq	$1392, %rdi             # imm = 0x570
	movslq	-4(%rbp), %rax
	shlq	$4, %rax
	addq	%rax, %rdi
	movslq	-12(%rbp), %rax
	shlq	$5, %rax
	movabsq	$INIT_MB_AFF_P, %rsi
	addq	%rax, %rsi
	movslq	-4(%rbp), %rax
	shlq	$3, %rax
	addq	%rax, %rsi
	callq	XRate
	vaddsd	-24(%rbp), %xmm0, %xmm0
	vmovsd	%xmm0, -24(%rbp)
.LBB11_58:                              # %if.end228
                                        #   in Loop: Header=BB11_54 Depth=2
	jmp	.LBB11_59
.LBB11_59:                              # %for.inc229
                                        #   in Loop: Header=BB11_54 Depth=2
	movl	-4(%rbp), %eax
	addl	$1, %eax
	movl	%eax, -4(%rbp)
	jmp	.LBB11_54
.LBB11_60:                              # %for.end231
                                        #   in Loop: Header=BB11_1 Depth=1
	movl	$0, -4(%rbp)
.LBB11_61:                              # %for.cond232
                                        #   Parent Loop BB11_1 Depth=1
                                        # =>  This Inner Loop Header: Depth=2
	cmpl	$3, -4(%rbp)
	jge	.LBB11_67
# %bb.62:                               # %for.body234
                                        #   in Loop: Header=BB11_61 Depth=2
	movq	img, %rax
	cmpl	$2, 24(%rax)
	jne	.LBB11_64
# %bb.63:                               # %if.then237
                                        #   in Loop: Header=BB11_61 Depth=2
	movq	-40(%rbp), %rdi
	addq	$1456, %rdi             # imm = 0x5B0
	movslq	-4(%rbp), %rax
	shlq	$4, %rax
	addq	%rax, %rdi
	movslq	-12(%rbp), %rax
	imulq	$24, %rax, %rax
	movabsq	$INIT_TRANSFORM_SIZE_I, %rsi
	addq	%rax, %rsi
	movslq	-4(%rbp), %rax
	shlq	$3, %rax
	addq	%rax, %rsi
	callq	XRate
	vaddsd	-24(%rbp), %xmm0, %xmm0
	vmovsd	%xmm0, -24(%rbp)
	jmp	.LBB11_65
.LBB11_64:                              # %if.else248
                                        #   in Loop: Header=BB11_61 Depth=2
	movq	-40(%rbp), %rdi
	addq	$1456, %rdi             # imm = 0x5B0
	movslq	-4(%rbp), %rax
	shlq	$4, %rax
	addq	%rax, %rdi
	movslq	-12(%rbp), %rax
	imulq	$24, %rax, %rax
	movabsq	$INIT_TRANSFORM_SIZE_P, %rsi
	addq	%rax, %rsi
	movslq	-4(%rbp), %rax
	shlq	$3, %rax
	addq	%rax, %rsi
	callq	XRate
	vaddsd	-24(%rbp), %xmm0, %xmm0
	vmovsd	%xmm0, -24(%rbp)
.LBB11_65:                              # %if.end260
                                        #   in Loop: Header=BB11_61 Depth=2
	jmp	.LBB11_66
.LBB11_66:                              # %for.inc261
                                        #   in Loop: Header=BB11_61 Depth=2
	movl	-4(%rbp), %eax
	addl	$1, %eax
	movl	%eax, -4(%rbp)
	jmp	.LBB11_61
.LBB11_67:                              # %for.end263
                                        #   in Loop: Header=BB11_1 Depth=1
	movl	$0, -4(%rbp)
.LBB11_68:                              # %for.cond264
                                        #   Parent Loop BB11_1 Depth=1
                                        # =>  This Inner Loop Header: Depth=2
	cmpl	$2, -4(%rbp)
	jge	.LBB11_74
# %bb.69:                               # %for.body266
                                        #   in Loop: Header=BB11_68 Depth=2
	movq	img, %rax
	cmpl	$2, 24(%rax)
	jne	.LBB11_71
# %bb.70:                               # %if.then269
                                        #   in Loop: Header=BB11_68 Depth=2
	movq	-32(%rbp), %rdi
	movslq	-4(%rbp), %rax
	shlq	$4, %rax
	addq	%rax, %rdi
	movslq	-12(%rbp), %rax
	shlq	$4, %rax
	movabsq	$INIT_IPR_I, %rsi
	addq	%rax, %rsi
	movslq	-4(%rbp), %rax
	shlq	$3, %rax
	addq	%rax, %rsi
	callq	XRate
	vaddsd	-24(%rbp), %xmm0, %xmm0
	vmovsd	%xmm0, -24(%rbp)
	jmp	.LBB11_72
.LBB11_71:                              # %if.else280
                                        #   in Loop: Header=BB11_68 Depth=2
	movq	-32(%rbp), %rdi
	movslq	-4(%rbp), %rax
	shlq	$4, %rax
	addq	%rax, %rdi
	movslq	-12(%rbp), %rax
	shlq	$4, %rax
	movabsq	$INIT_IPR_P, %rsi
	addq	%rax, %rsi
	movslq	-4(%rbp), %rax
	shlq	$3, %rax
	addq	%rax, %rsi
	callq	XRate
	vaddsd	-24(%rbp), %xmm0, %xmm0
	vmovsd	%xmm0, -24(%rbp)
.LBB11_72:                              # %if.end292
                                        #   in Loop: Header=BB11_68 Depth=2
	jmp	.LBB11_73
.LBB11_73:                              # %for.inc293
                                        #   in Loop: Header=BB11_68 Depth=2
	movl	-4(%rbp), %eax
	addl	$1, %eax
	movl	%eax, -4(%rbp)
	jmp	.LBB11_68
.LBB11_74:                              # %for.end295
                                        #   in Loop: Header=BB11_1 Depth=1
	movl	$0, -4(%rbp)
.LBB11_75:                              # %for.cond296
                                        #   Parent Loop BB11_1 Depth=1
                                        # =>  This Inner Loop Header: Depth=2
	cmpl	$4, -4(%rbp)
	jge	.LBB11_81
# %bb.76:                               # %for.body298
                                        #   in Loop: Header=BB11_75 Depth=2
	movq	img, %rax
	cmpl	$2, 24(%rax)
	jne	.LBB11_78
# %bb.77:                               # %if.then301
                                        #   in Loop: Header=BB11_75 Depth=2
	movq	-32(%rbp), %rdi
	addq	$32, %rdi
	movslq	-4(%rbp), %rax
	shlq	$4, %rax
	addq	%rax, %rdi
	movslq	-12(%rbp), %rax
	shlq	$5, %rax
	movabsq	$INIT_CIPR_I, %rsi
	addq	%rax, %rsi
	movslq	-4(%rbp), %rax
	shlq	$3, %rax
	addq	%rax, %rsi
	callq	XRate
	vaddsd	-24(%rbp), %xmm0, %xmm0
	vmovsd	%xmm0, -24(%rbp)
	jmp	.LBB11_79
.LBB11_78:                              # %if.else312
                                        #   in Loop: Header=BB11_75 Depth=2
	movq	-32(%rbp), %rdi
	addq	$32, %rdi
	movslq	-4(%rbp), %rax
	shlq	$4, %rax
	addq	%rax, %rdi
	movslq	-12(%rbp), %rax
	shlq	$5, %rax
	movabsq	$INIT_CIPR_P, %rsi
	addq	%rax, %rsi
	movslq	-4(%rbp), %rax
	shlq	$3, %rax
	addq	%rax, %rsi
	callq	XRate
	vaddsd	-24(%rbp), %xmm0, %xmm0
	vmovsd	%xmm0, -24(%rbp)
.LBB11_79:                              # %if.end324
                                        #   in Loop: Header=BB11_75 Depth=2
	jmp	.LBB11_80
.LBB11_80:                              # %for.inc325
                                        #   in Loop: Header=BB11_75 Depth=2
	movl	-4(%rbp), %eax
	addl	$1, %eax
	movl	%eax, -4(%rbp)
	jmp	.LBB11_75
.LBB11_81:                              # %for.end327
                                        #   in Loop: Header=BB11_1 Depth=1
	movl	$0, -8(%rbp)
.LBB11_82:                              # %for.cond328
                                        #   Parent Loop BB11_1 Depth=1
                                        # =>  This Loop Header: Depth=2
                                        #       Child Loop BB11_84 Depth 3
	cmpl	$3, -8(%rbp)
	jge	.LBB11_92
# %bb.83:                               # %for.body330
                                        #   in Loop: Header=BB11_82 Depth=2
	movl	$0, -4(%rbp)
.LBB11_84:                              # %for.cond331
                                        #   Parent Loop BB11_1 Depth=1
                                        #     Parent Loop BB11_82 Depth=2
                                        # =>    This Inner Loop Header: Depth=3
	cmpl	$4, -4(%rbp)
	jge	.LBB11_90
# %bb.85:                               # %for.body333
                                        #   in Loop: Header=BB11_84 Depth=3
	movq	img, %rax
	cmpl	$2, 24(%rax)
	jne	.LBB11_87
# %bb.86:                               # %if.then336
                                        #   in Loop: Header=BB11_84 Depth=3
	movq	-32(%rbp), %rdi
	addq	$96, %rdi
	movslq	-8(%rbp), %rax
	shlq	$6, %rax
	addq	%rax, %rdi
	movslq	-4(%rbp), %rax
	shlq	$4, %rax
	addq	%rax, %rdi
	movslq	-12(%rbp), %rax
	imulq	$96, %rax, %rax
	movabsq	$INIT_CBP_I, %rsi
	addq	%rax, %rsi
	movslq	-8(%rbp), %rax
	shlq	$5, %rax
	addq	%rax, %rsi
	movslq	-4(%rbp), %rax
	shlq	$3, %rax
	addq	%rax, %rsi
	callq	XRate
	vaddsd	-24(%rbp), %xmm0, %xmm0
	vmovsd	%xmm0, -24(%rbp)
	jmp	.LBB11_88
.LBB11_87:                              # %if.else350
                                        #   in Loop: Header=BB11_84 Depth=3
	movq	-32(%rbp), %rdi
	addq	$96, %rdi
	movslq	-8(%rbp), %rax
	shlq	$6, %rax
	addq	%rax, %rdi
	movslq	-4(%rbp), %rax
	shlq	$4, %rax
	addq	%rax, %rdi
	movslq	-12(%rbp), %rax
	imulq	$96, %rax, %rax
	movabsq	$INIT_CBP_P, %rsi
	addq	%rax, %rsi
	movslq	-8(%rbp), %rax
	shlq	$5, %rax
	addq	%rax, %rsi
	movslq	-4(%rbp), %rax
	shlq	$3, %rax
	addq	%rax, %rsi
	callq	XRate
	vaddsd	-24(%rbp), %xmm0, %xmm0
	vmovsd	%xmm0, -24(%rbp)
.LBB11_88:                              # %if.end365
                                        #   in Loop: Header=BB11_84 Depth=3
	jmp	.LBB11_89
.LBB11_89:                              # %for.inc366
                                        #   in Loop: Header=BB11_84 Depth=3
	movl	-4(%rbp), %eax
	addl	$1, %eax
	movl	%eax, -4(%rbp)
	jmp	.LBB11_84
.LBB11_90:                              # %for.end368
                                        #   in Loop: Header=BB11_82 Depth=2
	jmp	.LBB11_91
.LBB11_91:                              # %for.inc369
                                        #   in Loop: Header=BB11_82 Depth=2
	movl	-8(%rbp), %eax
	addl	$1, %eax
	movl	%eax, -8(%rbp)
	jmp	.LBB11_82
.LBB11_92:                              # %for.end371
                                        #   in Loop: Header=BB11_1 Depth=1
	movl	$0, -8(%rbp)
.LBB11_93:                              # %for.cond372
                                        #   Parent Loop BB11_1 Depth=1
                                        # =>  This Loop Header: Depth=2
                                        #       Child Loop BB11_95 Depth 3
	cmpl	$10, -8(%rbp)
	jge	.LBB11_103
# %bb.94:                               # %for.body374
                                        #   in Loop: Header=BB11_93 Depth=2
	movl	$0, -4(%rbp)
.LBB11_95:                              # %for.cond375
                                        #   Parent Loop BB11_1 Depth=1
                                        #     Parent Loop BB11_93 Depth=2
                                        # =>    This Inner Loop Header: Depth=3
	cmpl	$4, -4(%rbp)
	jge	.LBB11_101
# %bb.96:                               # %for.body377
                                        #   in Loop: Header=BB11_95 Depth=3
	movq	img, %rax
	cmpl	$2, 24(%rax)
	jne	.LBB11_98
# %bb.97:                               # %if.then380
                                        #   in Loop: Header=BB11_95 Depth=3
	movq	-32(%rbp), %rdi
	addq	$288, %rdi              # imm = 0x120
	movslq	-8(%rbp), %rax
	shlq	$6, %rax
	addq	%rax, %rdi
	movslq	-4(%rbp), %rax
	shlq	$4, %rax
	addq	%rax, %rdi
	movslq	-12(%rbp), %rax
	shlq	$8, %rax
	movabsq	$INIT_BCBP_I, %rsi
	addq	%rax, %rsi
	movslq	-8(%rbp), %rax
	shlq	$5, %rax
	addq	%rax, %rsi
	movslq	-4(%rbp), %rax
	shlq	$3, %rax
	addq	%rax, %rsi
	callq	XRate
	vaddsd	-24(%rbp), %xmm0, %xmm0
	vmovsd	%xmm0, -24(%rbp)
	jmp	.LBB11_99
.LBB11_98:                              # %if.else394
                                        #   in Loop: Header=BB11_95 Depth=3
	movq	-32(%rbp), %rdi
	addq	$288, %rdi              # imm = 0x120
	movslq	-8(%rbp), %rax
	shlq	$6, %rax
	addq	%rax, %rdi
	movslq	-4(%rbp), %rax
	shlq	$4, %rax
	addq	%rax, %rdi
	movslq	-12(%rbp), %rax
	shlq	$8, %rax
	movabsq	$INIT_BCBP_P, %rsi
	addq	%rax, %rsi
	movslq	-8(%rbp), %rax
	shlq	$5, %rax
	addq	%rax, %rsi
	movslq	-4(%rbp), %rax
	shlq	$3, %rax
	addq	%rax, %rsi
	callq	XRate
	vaddsd	-24(%rbp), %xmm0, %xmm0
	vmovsd	%xmm0, -24(%rbp)
.LBB11_99:                              # %if.end409
                                        #   in Loop: Header=BB11_95 Depth=3
	jmp	.LBB11_100
.LBB11_100:                             # %for.inc410
                                        #   in Loop: Header=BB11_95 Depth=3
	movl	-4(%rbp), %eax
	addl	$1, %eax
	movl	%eax, -4(%rbp)
	jmp	.LBB11_95
.LBB11_101:                             # %for.end412
                                        #   in Loop: Header=BB11_93 Depth=2
	jmp	.LBB11_102
.LBB11_102:                             # %for.inc413
                                        #   in Loop: Header=BB11_93 Depth=2
	movl	-8(%rbp), %eax
	addl	$1, %eax
	movl	%eax, -8(%rbp)
	jmp	.LBB11_93
.LBB11_103:                             # %for.end415
                                        #   in Loop: Header=BB11_1 Depth=1
	movl	$0, -8(%rbp)
.LBB11_104:                             # %for.cond416
                                        #   Parent Loop BB11_1 Depth=1
                                        # =>  This Loop Header: Depth=2
                                        #       Child Loop BB11_106 Depth 3
	cmpl	$10, -8(%rbp)
	jge	.LBB11_114
# %bb.105:                              # %for.body418
                                        #   in Loop: Header=BB11_104 Depth=2
	movl	$0, -4(%rbp)
.LBB11_106:                             # %for.cond419
                                        #   Parent Loop BB11_1 Depth=1
                                        #     Parent Loop BB11_104 Depth=2
                                        # =>    This Inner Loop Header: Depth=3
	cmpl	$15, -4(%rbp)
	jge	.LBB11_112
# %bb.107:                              # %for.body421
                                        #   in Loop: Header=BB11_106 Depth=3
	movq	img, %rax
	cmpl	$2, 24(%rax)
	jne	.LBB11_109
# %bb.108:                              # %if.then424
                                        #   in Loop: Header=BB11_106 Depth=3
	movq	-32(%rbp), %rdi
	addq	$928, %rdi              # imm = 0x3A0
	movslq	-8(%rbp), %rax
	imulq	$240, %rax, %rax
	addq	%rax, %rdi
	movslq	-4(%rbp), %rax
	shlq	$4, %rax
	addq	%rax, %rdi
	movslq	-12(%rbp), %rax
	imulq	$960, %rax, %rax        # imm = 0x3C0
	movabsq	$INIT_MAP_I, %rsi
	addq	%rax, %rsi
	movslq	-8(%rbp), %rax
	imulq	$120, %rax, %rax
	addq	%rax, %rsi
	movslq	-4(%rbp), %rax
	shlq	$3, %rax
	addq	%rax, %rsi
	callq	XRate
	vaddsd	-24(%rbp), %xmm0, %xmm0
	vmovsd	%xmm0, -24(%rbp)
	jmp	.LBB11_110
.LBB11_109:                             # %if.else438
                                        #   in Loop: Header=BB11_106 Depth=3
	movq	-32(%rbp), %rdi
	addq	$928, %rdi              # imm = 0x3A0
	movslq	-8(%rbp), %rax
	imulq	$240, %rax, %rax
	addq	%rax, %rdi
	movslq	-4(%rbp), %rax
	shlq	$4, %rax
	addq	%rax, %rdi
	movslq	-12(%rbp), %rax
	imulq	$960, %rax, %rax        # imm = 0x3C0
	movabsq	$INIT_MAP_P, %rsi
	addq	%rax, %rsi
	movslq	-8(%rbp), %rax
	imulq	$120, %rax, %rax
	addq	%rax, %rsi
	movslq	-4(%rbp), %rax
	shlq	$3, %rax
	addq	%rax, %rsi
	callq	XRate
	vaddsd	-24(%rbp), %xmm0, %xmm0
	vmovsd	%xmm0, -24(%rbp)
.LBB11_110:                             # %if.end453
                                        #   in Loop: Header=BB11_106 Depth=3
	jmp	.LBB11_111
.LBB11_111:                             # %for.inc454
                                        #   in Loop: Header=BB11_106 Depth=3
	movl	-4(%rbp), %eax
	addl	$1, %eax
	movl	%eax, -4(%rbp)
	jmp	.LBB11_106
.LBB11_112:                             # %for.end456
                                        #   in Loop: Header=BB11_104 Depth=2
	jmp	.LBB11_113
.LBB11_113:                             # %for.inc457
                                        #   in Loop: Header=BB11_104 Depth=2
	movl	-8(%rbp), %eax
	addl	$1, %eax
	movl	%eax, -8(%rbp)
	jmp	.LBB11_104
.LBB11_114:                             # %for.end459
                                        #   in Loop: Header=BB11_1 Depth=1
	movl	$0, -8(%rbp)
.LBB11_115:                             # %for.cond460
                                        #   Parent Loop BB11_1 Depth=1
                                        # =>  This Loop Header: Depth=2
                                        #       Child Loop BB11_117 Depth 3
	cmpl	$10, -8(%rbp)
	jge	.LBB11_125
# %bb.116:                              # %for.body462
                                        #   in Loop: Header=BB11_115 Depth=2
	movl	$0, -4(%rbp)
.LBB11_117:                             # %for.cond463
                                        #   Parent Loop BB11_1 Depth=1
                                        #     Parent Loop BB11_115 Depth=2
                                        # =>    This Inner Loop Header: Depth=3
	cmpl	$15, -4(%rbp)
	jge	.LBB11_123
# %bb.118:                              # %for.body465
                                        #   in Loop: Header=BB11_117 Depth=3
	movq	img, %rax
	cmpl	$2, 24(%rax)
	jne	.LBB11_120
# %bb.119:                              # %if.then468
                                        #   in Loop: Header=BB11_117 Depth=3
	movq	-32(%rbp), %rdi
	addq	$3328, %rdi             # imm = 0xD00
	movslq	-8(%rbp), %rax
	imulq	$240, %rax, %rax
	addq	%rax, %rdi
	movslq	-4(%rbp), %rax
	shlq	$4, %rax
	addq	%rax, %rdi
	movslq	-12(%rbp), %rax
	imulq	$960, %rax, %rax        # imm = 0x3C0
	movabsq	$INIT_LAST_I, %rsi
	addq	%rax, %rsi
	movslq	-8(%rbp), %rax
	imulq	$120, %rax, %rax
	addq	%rax, %rsi
	movslq	-4(%rbp), %rax
	shlq	$3, %rax
	addq	%rax, %rsi
	callq	XRate
	vaddsd	-24(%rbp), %xmm0, %xmm0
	vmovsd	%xmm0, -24(%rbp)
	jmp	.LBB11_121
.LBB11_120:                             # %if.else482
                                        #   in Loop: Header=BB11_117 Depth=3
	movq	-32(%rbp), %rdi
	addq	$3328, %rdi             # imm = 0xD00
	movslq	-8(%rbp), %rax
	imulq	$240, %rax, %rax
	addq	%rax, %rdi
	movslq	-4(%rbp), %rax
	shlq	$4, %rax
	addq	%rax, %rdi
	movslq	-12(%rbp), %rax
	imulq	$960, %rax, %rax        # imm = 0x3C0
	movabsq	$INIT_LAST_P, %rsi
	addq	%rax, %rsi
	movslq	-8(%rbp), %rax
	imulq	$120, %rax, %rax
	addq	%rax, %rsi
	movslq	-4(%rbp), %rax
	shlq	$3, %rax
	addq	%rax, %rsi
	callq	XRate
	vaddsd	-24(%rbp), %xmm0, %xmm0
	vmovsd	%xmm0, -24(%rbp)
.LBB11_121:                             # %if.end497
                                        #   in Loop: Header=BB11_117 Depth=3
	jmp	.LBB11_122
.LBB11_122:                             # %for.inc498
                                        #   in Loop: Header=BB11_117 Depth=3
	movl	-4(%rbp), %eax
	addl	$1, %eax
	movl	%eax, -4(%rbp)
	jmp	.LBB11_117
.LBB11_123:                             # %for.end500
                                        #   in Loop: Header=BB11_115 Depth=2
	jmp	.LBB11_124
.LBB11_124:                             # %for.inc501
                                        #   in Loop: Header=BB11_115 Depth=2
	movl	-8(%rbp), %eax
	addl	$1, %eax
	movl	%eax, -8(%rbp)
	jmp	.LBB11_115
.LBB11_125:                             # %for.end503
                                        #   in Loop: Header=BB11_1 Depth=1
	movl	$0, -8(%rbp)
.LBB11_126:                             # %for.cond504
                                        #   Parent Loop BB11_1 Depth=1
                                        # =>  This Loop Header: Depth=2
                                        #       Child Loop BB11_128 Depth 3
	cmpl	$10, -8(%rbp)
	jge	.LBB11_136
# %bb.127:                              # %for.body506
                                        #   in Loop: Header=BB11_126 Depth=2
	movl	$0, -4(%rbp)
.LBB11_128:                             # %for.cond507
                                        #   Parent Loop BB11_1 Depth=1
                                        #     Parent Loop BB11_126 Depth=2
                                        # =>    This Inner Loop Header: Depth=3
	cmpl	$5, -4(%rbp)
	jge	.LBB11_134
# %bb.129:                              # %for.body509
                                        #   in Loop: Header=BB11_128 Depth=3
	movq	img, %rax
	cmpl	$2, 24(%rax)
	jne	.LBB11_131
# %bb.130:                              # %if.then512
                                        #   in Loop: Header=BB11_128 Depth=3
	movq	-32(%rbp), %rdi
	addq	$5728, %rdi             # imm = 0x1660
	movslq	-8(%rbp), %rax
	imulq	$80, %rax, %rax
	addq	%rax, %rdi
	movslq	-4(%rbp), %rax
	shlq	$4, %rax
	addq	%rax, %rdi
	movslq	-12(%rbp), %rax
	imulq	$320, %rax, %rax        # imm = 0x140
	movabsq	$INIT_ONE_I, %rsi
	addq	%rax, %rsi
	movslq	-8(%rbp), %rax
	imulq	$40, %rax, %rax
	addq	%rax, %rsi
	movslq	-4(%rbp), %rax
	shlq	$3, %rax
	addq	%rax, %rsi
	callq	XRate
	vaddsd	-24(%rbp), %xmm0, %xmm0
	vmovsd	%xmm0, -24(%rbp)
	jmp	.LBB11_132
.LBB11_131:                             # %if.else526
                                        #   in Loop: Header=BB11_128 Depth=3
	movq	-32(%rbp), %rdi
	addq	$5728, %rdi             # imm = 0x1660
	movslq	-8(%rbp), %rax
	imulq	$80, %rax, %rax
	addq	%rax, %rdi
	movslq	-4(%rbp), %rax
	shlq	$4, %rax
	addq	%rax, %rdi
	movslq	-12(%rbp), %rax
	imulq	$320, %rax, %rax        # imm = 0x140
	movabsq	$INIT_ONE_P, %rsi
	addq	%rax, %rsi
	movslq	-8(%rbp), %rax
	imulq	$40, %rax, %rax
	addq	%rax, %rsi
	movslq	-4(%rbp), %rax
	shlq	$3, %rax
	addq	%rax, %rsi
	callq	XRate
	vaddsd	-24(%rbp), %xmm0, %xmm0
	vmovsd	%xmm0, -24(%rbp)
.LBB11_132:                             # %if.end541
                                        #   in Loop: Header=BB11_128 Depth=3
	jmp	.LBB11_133
.LBB11_133:                             # %for.inc542
                                        #   in Loop: Header=BB11_128 Depth=3
	movl	-4(%rbp), %eax
	addl	$1, %eax
	movl	%eax, -4(%rbp)
	jmp	.LBB11_128
.LBB11_134:                             # %for.end544
                                        #   in Loop: Header=BB11_126 Depth=2
	jmp	.LBB11_135
.LBB11_135:                             # %for.inc545
                                        #   in Loop: Header=BB11_126 Depth=2
	movl	-8(%rbp), %eax
	addl	$1, %eax
	movl	%eax, -8(%rbp)
	jmp	.LBB11_126
.LBB11_136:                             # %for.end547
                                        #   in Loop: Header=BB11_1 Depth=1
	movl	$0, -8(%rbp)
.LBB11_137:                             # %for.cond548
                                        #   Parent Loop BB11_1 Depth=1
                                        # =>  This Loop Header: Depth=2
                                        #       Child Loop BB11_139 Depth 3
	cmpl	$10, -8(%rbp)
	jge	.LBB11_147
# %bb.138:                              # %for.body550
                                        #   in Loop: Header=BB11_137 Depth=2
	movl	$0, -4(%rbp)
.LBB11_139:                             # %for.cond551
                                        #   Parent Loop BB11_1 Depth=1
                                        #     Parent Loop BB11_137 Depth=2
                                        # =>    This Inner Loop Header: Depth=3
	cmpl	$5, -4(%rbp)
	jge	.LBB11_145
# %bb.140:                              # %for.body553
                                        #   in Loop: Header=BB11_139 Depth=3
	movq	img, %rax
	cmpl	$2, 24(%rax)
	jne	.LBB11_142
# %bb.141:                              # %if.then556
                                        #   in Loop: Header=BB11_139 Depth=3
	movq	-32(%rbp), %rdi
	addq	$6528, %rdi             # imm = 0x1980
	movslq	-8(%rbp), %rax
	imulq	$80, %rax, %rax
	addq	%rax, %rdi
	movslq	-4(%rbp), %rax
	shlq	$4, %rax
	addq	%rax, %rdi
	movslq	-12(%rbp), %rax
	imulq	$320, %rax, %rax        # imm = 0x140
	movabsq	$INIT_ABS_I, %rsi
	addq	%rax, %rsi
	movslq	-8(%rbp), %rax
	imulq	$40, %rax, %rax
	addq	%rax, %rsi
	movslq	-4(%rbp), %rax
	shlq	$3, %rax
	addq	%rax, %rsi
	callq	XRate
	vaddsd	-24(%rbp), %xmm0, %xmm0
	vmovsd	%xmm0, -24(%rbp)
	jmp	.LBB11_143
.LBB11_142:                             # %if.else570
                                        #   in Loop: Header=BB11_139 Depth=3
	movq	-32(%rbp), %rdi
	addq	$6528, %rdi             # imm = 0x1980
	movslq	-8(%rbp), %rax
	imulq	$80, %rax, %rax
	addq	%rax, %rdi
	movslq	-4(%rbp), %rax
	shlq	$4, %rax
	addq	%rax, %rdi
	movslq	-12(%rbp), %rax
	imulq	$320, %rax, %rax        # imm = 0x140
	movabsq	$INIT_ABS_P, %rsi
	addq	%rax, %rsi
	movslq	-8(%rbp), %rax
	imulq	$40, %rax, %rax
	addq	%rax, %rsi
	movslq	-4(%rbp), %rax
	shlq	$3, %rax
	addq	%rax, %rsi
	callq	XRate
	vaddsd	-24(%rbp), %xmm0, %xmm0
	vmovsd	%xmm0, -24(%rbp)
.LBB11_143:                             # %if.end585
                                        #   in Loop: Header=BB11_139 Depth=3
	jmp	.LBB11_144
.LBB11_144:                             # %for.inc586
                                        #   in Loop: Header=BB11_139 Depth=3
	movl	-4(%rbp), %eax
	addl	$1, %eax
	movl	%eax, -4(%rbp)
	jmp	.LBB11_139
.LBB11_145:                             # %for.end588
                                        #   in Loop: Header=BB11_137 Depth=2
	jmp	.LBB11_146
.LBB11_146:                             # %for.inc589
                                        #   in Loop: Header=BB11_137 Depth=2
	movl	-8(%rbp), %eax
	addl	$1, %eax
	movl	%eax, -8(%rbp)
	jmp	.LBB11_137
.LBB11_147:                             # %for.end591
                                        #   in Loop: Header=BB11_1 Depth=1
	movl	$0, -8(%rbp)
.LBB11_148:                             # %for.cond592
                                        #   Parent Loop BB11_1 Depth=1
                                        # =>  This Loop Header: Depth=2
                                        #       Child Loop BB11_150 Depth 3
	cmpl	$10, -8(%rbp)
	jge	.LBB11_158
# %bb.149:                              # %for.body594
                                        #   in Loop: Header=BB11_148 Depth=2
	movl	$0, -4(%rbp)
.LBB11_150:                             # %for.cond595
                                        #   Parent Loop BB11_1 Depth=1
                                        #     Parent Loop BB11_148 Depth=2
                                        # =>    This Inner Loop Header: Depth=3
	cmpl	$15, -4(%rbp)
	jge	.LBB11_156
# %bb.151:                              # %for.body597
                                        #   in Loop: Header=BB11_150 Depth=3
	movq	img, %rax
	cmpl	$2, 24(%rax)
	jne	.LBB11_153
# %bb.152:                              # %if.then600
                                        #   in Loop: Header=BB11_150 Depth=3
	movq	-32(%rbp), %rdi
	addq	$7328, %rdi             # imm = 0x1CA0
	movslq	-8(%rbp), %rax
	imulq	$240, %rax, %rax
	addq	%rax, %rdi
	movslq	-4(%rbp), %rax
	shlq	$4, %rax
	addq	%rax, %rdi
	movslq	-12(%rbp), %rax
	imulq	$960, %rax, %rax        # imm = 0x3C0
	movabsq	$INIT_FLD_MAP_I, %rsi
	addq	%rax, %rsi
	movslq	-8(%rbp), %rax
	imulq	$120, %rax, %rax
	addq	%rax, %rsi
	movslq	-4(%rbp), %rax
	shlq	$3, %rax
	addq	%rax, %rsi
	callq	XRate
	vaddsd	-24(%rbp), %xmm0, %xmm0
	vmovsd	%xmm0, -24(%rbp)
	jmp	.LBB11_154
.LBB11_153:                             # %if.else614
                                        #   in Loop: Header=BB11_150 Depth=3
	movq	-32(%rbp), %rdi
	addq	$7328, %rdi             # imm = 0x1CA0
	movslq	-8(%rbp), %rax
	imulq	$240, %rax, %rax
	addq	%rax, %rdi
	movslq	-4(%rbp), %rax
	shlq	$4, %rax
	addq	%rax, %rdi
	movslq	-12(%rbp), %rax
	imulq	$960, %rax, %rax        # imm = 0x3C0
	movabsq	$INIT_FLD_MAP_P, %rsi
	addq	%rax, %rsi
	movslq	-8(%rbp), %rax
	imulq	$120, %rax, %rax
	addq	%rax, %rsi
	movslq	-4(%rbp), %rax
	shlq	$3, %rax
	addq	%rax, %rsi
	callq	XRate
	vaddsd	-24(%rbp), %xmm0, %xmm0
	vmovsd	%xmm0, -24(%rbp)
.LBB11_154:                             # %if.end629
                                        #   in Loop: Header=BB11_150 Depth=3
	jmp	.LBB11_155
.LBB11_155:                             # %for.inc630
                                        #   in Loop: Header=BB11_150 Depth=3
	movl	-4(%rbp), %eax
	addl	$1, %eax
	movl	%eax, -4(%rbp)
	jmp	.LBB11_150
.LBB11_156:                             # %for.end632
                                        #   in Loop: Header=BB11_148 Depth=2
	jmp	.LBB11_157
.LBB11_157:                             # %for.inc633
                                        #   in Loop: Header=BB11_148 Depth=2
	movl	-8(%rbp), %eax
	addl	$1, %eax
	movl	%eax, -8(%rbp)
	jmp	.LBB11_148
.LBB11_158:                             # %for.end635
                                        #   in Loop: Header=BB11_1 Depth=1
	movl	$0, -8(%rbp)
.LBB11_159:                             # %for.cond636
                                        #   Parent Loop BB11_1 Depth=1
                                        # =>  This Loop Header: Depth=2
                                        #       Child Loop BB11_161 Depth 3
	cmpl	$10, -8(%rbp)
	jge	.LBB11_169
# %bb.160:                              # %for.body638
                                        #   in Loop: Header=BB11_159 Depth=2
	movl	$0, -4(%rbp)
.LBB11_161:                             # %for.cond639
                                        #   Parent Loop BB11_1 Depth=1
                                        #     Parent Loop BB11_159 Depth=2
                                        # =>    This Inner Loop Header: Depth=3
	cmpl	$15, -4(%rbp)
	jge	.LBB11_167
# %bb.162:                              # %for.body641
                                        #   in Loop: Header=BB11_161 Depth=3
	movq	img, %rax
	cmpl	$2, 24(%rax)
	jne	.LBB11_164
# %bb.163:                              # %if.then644
                                        #   in Loop: Header=BB11_161 Depth=3
	movq	-32(%rbp), %rdi
	addq	$9728, %rdi             # imm = 0x2600
	movslq	-8(%rbp), %rax
	imulq	$240, %rax, %rax
	addq	%rax, %rdi
	movslq	-4(%rbp), %rax
	shlq	$4, %rax
	addq	%rax, %rdi
	movslq	-12(%rbp), %rax
	imulq	$960, %rax, %rax        # imm = 0x3C0
	movabsq	$INIT_FLD_LAST_I, %rsi
	addq	%rax, %rsi
	movslq	-8(%rbp), %rax
	imulq	$120, %rax, %rax
	addq	%rax, %rsi
	movslq	-4(%rbp), %rax
	shlq	$3, %rax
	addq	%rax, %rsi
	callq	XRate
	vaddsd	-24(%rbp), %xmm0, %xmm0
	vmovsd	%xmm0, -24(%rbp)
	jmp	.LBB11_165
.LBB11_164:                             # %if.else658
                                        #   in Loop: Header=BB11_161 Depth=3
	movq	-32(%rbp), %rdi
	addq	$9728, %rdi             # imm = 0x2600
	movslq	-8(%rbp), %rax
	imulq	$240, %rax, %rax
	addq	%rax, %rdi
	movslq	-4(%rbp), %rax
	shlq	$4, %rax
	addq	%rax, %rdi
	movslq	-12(%rbp), %rax
	imulq	$960, %rax, %rax        # imm = 0x3C0
	movabsq	$INIT_FLD_LAST_P, %rsi
	addq	%rax, %rsi
	movslq	-8(%rbp), %rax
	imulq	$120, %rax, %rax
	addq	%rax, %rsi
	movslq	-4(%rbp), %rax
	shlq	$3, %rax
	addq	%rax, %rsi
	callq	XRate
	vaddsd	-24(%rbp), %xmm0, %xmm0
	vmovsd	%xmm0, -24(%rbp)
.LBB11_165:                             # %if.end673
                                        #   in Loop: Header=BB11_161 Depth=3
	jmp	.LBB11_166
.LBB11_166:                             # %for.inc674
                                        #   in Loop: Header=BB11_161 Depth=3
	movl	-4(%rbp), %eax
	addl	$1, %eax
	movl	%eax, -4(%rbp)
	jmp	.LBB11_161
.LBB11_167:                             # %for.end676
                                        #   in Loop: Header=BB11_159 Depth=2
	jmp	.LBB11_168
.LBB11_168:                             # %for.inc677
                                        #   in Loop: Header=BB11_159 Depth=2
	movl	-8(%rbp), %eax
	addl	$1, %eax
	movl	%eax, -8(%rbp)
	jmp	.LBB11_159
.LBB11_169:                             # %for.end679
                                        #   in Loop: Header=BB11_1 Depth=1
	vmovsd	-24(%rbp), %xmm0        # xmm0 = mem[0],zero
	vmovsd	-56(%rbp), %xmm1        # xmm1 = mem[0],zero
	vucomisd	%xmm0, %xmm1
	jbe	.LBB11_171
# %bb.170:                              # %if.then681
                                        #   in Loop: Header=BB11_1 Depth=1
	vmovsd	-24(%rbp), %xmm0        # xmm0 = mem[0],zero
	vmovsd	%xmm0, -56(%rbp)
	movl	-12(%rbp), %eax
	movq	-64(%rbp), %rcx
	movl	%eax, (%rcx)
.LBB11_171:                             # %if.end682
                                        #   in Loop: Header=BB11_1 Depth=1
	jmp	.LBB11_172
.LBB11_172:                             # %for.inc683
                                        #   in Loop: Header=BB11_1 Depth=1
	movl	-12(%rbp), %eax
	addl	$1, %eax
	movl	%eax, -12(%rbp)
	jmp	.LBB11_1
.LBB11_173:                             # %for.end685
	cmpl	$960193186, -44(%rbp)   # imm = 0x393B62A2
	jne	.LBB11_175
.LBB11_174:
	addq	$64, %rsp
	popq	%rbp
	.cfi_def_cfa %rsp, 8
	retq
.LBB11_175:                             # %func_exit
	.cfi_def_cfa %rbp, 16
	callq	detect_breach
	jmp	.LBB11_174
.Lfunc_end11:
	.size	GetCtxModelNumber.4, .Lfunc_end11-GetCtxModelNumber.4
	.cfi_endproc
                                        # -- End function
	.globl	update_field_frame_contexts.5 # -- Begin function update_field_frame_contexts.5
	.p2align	4, 0x90
	.type	update_field_frame_contexts.5,@function
update_field_frame_contexts.5:          # @update_field_frame_contexts.5
	.cfi_startproc
# %bb.0:                                # %entry
	pushq	%rbp
	.cfi_def_cfa_offset 16
	.cfi_offset %rbp, -16
	movq	%rsp, %rbp
	.cfi_def_cfa_register %rbp
	subq	$16, %rsp
	movl	$975271555, -16(%rbp)   # imm = 0x3A217683
	movl	%edi, -12(%rbp)
	cmpl	$0, -12(%rbp)
	je	.LBB12_10
# %bb.1:                                # %if.then
	movl	$0, -8(%rbp)
.LBB12_2:                               # %for.cond
                                        # =>This Loop Header: Depth=1
                                        #     Child Loop BB12_4 Depth 2
	cmpl	$4, -8(%rbp)
	jge	.LBB12_9
# %bb.3:                                # %for.body
                                        #   in Loop: Header=BB12_2 Depth=1
	movl	$0, -4(%rbp)
.LBB12_4:                               # %for.cond1
                                        #   Parent Loop BB12_2 Depth=1
                                        # =>  This Inner Loop Header: Depth=2
	movl	-4(%rbp), %eax
	cmpl	number_of_slices, %eax
	jge	.LBB12_7
# %bb.5:                                # %for.body3
                                        #   in Loop: Header=BB12_4 Depth=2
	movq	initialized, %rax
	movq	8(%rax), %rax
	movslq	-8(%rbp), %rcx
	movq	(%rax,%rcx,8), %rax
	movl	-4(%rbp), %ecx
	sarl	$1, %ecx
	movslq	%ecx, %rcx
	movl	(%rax,%rcx,4), %eax
	movq	initialized, %rcx
	movq	(%rcx), %rcx
	movslq	-8(%rbp), %rdx
	movq	(%rcx,%rdx,8), %rcx
	movslq	-4(%rbp), %rdx
	movl	%eax, (%rcx,%rdx,4)
	movq	model_number, %rax
	movq	8(%rax), %rax
	movslq	-8(%rbp), %rcx
	movq	(%rax,%rcx,8), %rax
	movl	-4(%rbp), %ecx
	sarl	$1, %ecx
	movslq	%ecx, %rcx
	movl	(%rax,%rcx,4), %eax
	movq	model_number, %rcx
	movq	(%rcx), %rcx
	movslq	-8(%rbp), %rdx
	movq	(%rcx,%rdx,8), %rcx
	movslq	-4(%rbp), %rdx
	movl	%eax, (%rcx,%rdx,4)
# %bb.6:                                # %for.inc
                                        #   in Loop: Header=BB12_4 Depth=2
	movl	-4(%rbp), %eax
	addl	$1, %eax
	movl	%eax, -4(%rbp)
	jmp	.LBB12_4
.LBB12_7:                               # %for.end
                                        #   in Loop: Header=BB12_2 Depth=1
	jmp	.LBB12_8
.LBB12_8:                               # %for.inc23
                                        #   in Loop: Header=BB12_2 Depth=1
	movl	-8(%rbp), %eax
	addl	$1, %eax
	movl	%eax, -8(%rbp)
	jmp	.LBB12_2
.LBB12_9:                               # %for.end25
	jmp	.LBB12_19
.LBB12_10:                              # %if.else
	movl	$0, -8(%rbp)
.LBB12_11:                              # %for.cond26
                                        # =>This Loop Header: Depth=1
                                        #     Child Loop BB12_13 Depth 2
	cmpl	$4, -8(%rbp)
	jge	.LBB12_18
# %bb.12:                               # %for.body28
                                        #   in Loop: Header=BB12_11 Depth=1
	movl	$0, -4(%rbp)
.LBB12_13:                              # %for.cond29
                                        #   Parent Loop BB12_11 Depth=1
                                        # =>  This Inner Loop Header: Depth=2
	movl	-4(%rbp), %eax
	movl	number_of_slices, %ecx
	addl	$1, %ecx
	sarl	$1, %ecx
	cmpl	%ecx, %eax
	jge	.LBB12_16
# %bb.14:                               # %for.body32
                                        #   in Loop: Header=BB12_13 Depth=2
	movq	initialized, %rax
	movq	(%rax), %rax
	movslq	-8(%rbp), %rcx
	movq	(%rax,%rcx,8), %rax
	movl	-4(%rbp), %ecx
	shll	$1, %ecx
	movslq	%ecx, %rcx
	movl	(%rax,%rcx,4), %eax
	movq	initialized, %rcx
	movq	8(%rcx), %rcx
	movslq	-8(%rbp), %rdx
	movq	(%rcx,%rdx,8), %rcx
	movslq	-4(%rbp), %rdx
	movl	%eax, (%rcx,%rdx,4)
	movq	model_number, %rax
	movq	(%rax), %rax
	movslq	-8(%rbp), %rcx
	movq	(%rax,%rcx,8), %rax
	movl	-4(%rbp), %ecx
	shll	$1, %ecx
	movslq	%ecx, %rcx
	movl	(%rax,%rcx,4), %eax
	movq	model_number, %rcx
	movq	8(%rcx), %rcx
	movslq	-8(%rbp), %rdx
	movq	(%rcx,%rdx,8), %rcx
	movslq	-4(%rbp), %rdx
	movl	%eax, (%rcx,%rdx,4)
# %bb.15:                               # %for.inc54
                                        #   in Loop: Header=BB12_13 Depth=2
	movl	-4(%rbp), %eax
	addl	$1, %eax
	movl	%eax, -4(%rbp)
	jmp	.LBB12_13
.LBB12_16:                              # %for.end56
                                        #   in Loop: Header=BB12_11 Depth=1
	jmp	.LBB12_17
.LBB12_17:                              # %for.inc57
                                        #   in Loop: Header=BB12_11 Depth=1
	movl	-8(%rbp), %eax
	addl	$1, %eax
	movl	%eax, -8(%rbp)
	jmp	.LBB12_11
.LBB12_18:                              # %for.end59
	jmp	.LBB12_19
.LBB12_19:                              # %if.end
	cmpl	$975271555, -16(%rbp)   # imm = 0x3A217683
	jne	.LBB12_21
.LBB12_20:
	addq	$16, %rsp
	popq	%rbp
	.cfi_def_cfa %rsp, 8
	retq
.LBB12_21:                              # %func_exit
	.cfi_def_cfa %rbp, 16
	callq	detect_breach
	jmp	.LBB12_20
.Lfunc_end12:
	.size	update_field_frame_contexts.5, .Lfunc_end12-update_field_frame_contexts.5
	.cfi_endproc
                                        # -- End function
	.globl	store_contexts.6        # -- Begin function store_contexts.6
	.p2align	4, 0x90
	.type	store_contexts.6,@function
store_contexts.6:                       # @store_contexts.6
	.cfi_startproc
# %bb.0:                                # %entry
	pushq	%rbp
	.cfi_def_cfa_offset 16
	.cfi_offset %rbp, -16
	movq	%rsp, %rbp
	.cfi_def_cfa_register %rbp
	subq	$16, %rsp
	movl	$36893470, -16(%rbp)    # imm = 0x232F31E
	movq	img, %rax
	movl	72444(%rax), %eax
	movl	%eax, -8(%rbp)
	movq	img, %rax
	movl	24(%rax), %eax
	movl	%eax, -4(%rbp)
	movq	img, %rax
	movq	14160(%rax), %rax
	movl	12(%rax), %eax
	cltd
	idivl	num_mb_per_slice
	movl	%eax, -12(%rbp)
	movq	input, %rax
	cmpl	$0, 3212(%rax)
	je	.LBB13_2
# %bb.1:                                # %if.then
	movq	initialized, %rax
	movslq	-8(%rbp), %rcx
	movq	(%rax,%rcx,8), %rax
	movslq	-4(%rbp), %rcx
	movq	(%rax,%rcx,8), %rax
	movslq	-12(%rbp), %rcx
	movl	$1, (%rax,%rcx,4)
	movq	model_number, %rax
	movslq	-8(%rbp), %rcx
	movq	(%rax,%rcx,8), %rax
	movslq	-4(%rbp), %rcx
	movq	(%rax,%rcx,8), %rdi
	movslq	-12(%rbp), %rax
	shlq	$2, %rax
	addq	%rax, %rdi
	movq	img, %rax
	movq	14160(%rax), %rax
	movq	32(%rax), %rsi
	movq	img, %rax
	movq	14160(%rax), %rax
	movq	40(%rax), %rdx
	callq	GetCtxModelNumber
	jmp	.LBB13_3
.LBB13_2:                               # %if.else
	jmp	.LBB13_3
.LBB13_3:                               # %if.end
	cmpl	$36893470, -16(%rbp)    # imm = 0x232F31E
	jne	.LBB13_5
.LBB13_4:
	addq	$16, %rsp
	popq	%rbp
	.cfi_def_cfa %rsp, 8
	retq
.LBB13_5:                               # %func_exit
	.cfi_def_cfa %rbp, 16
	callq	detect_breach
	jmp	.LBB13_4
.Lfunc_end13:
	.size	store_contexts.6, .Lfunc_end13-store_contexts.6
	.cfi_endproc
                                        # -- End function
	.globl	init_contexts.7         # -- Begin function init_contexts.7
	.p2align	4, 0x90
	.type	init_contexts.7,@function
init_contexts.7:                        # @init_contexts.7
	.cfi_startproc
# %bb.0:                                # %entry
	pushq	%rbp
	.cfi_def_cfa_offset 16
	.cfi_offset %rbp, -16
	movq	%rsp, %rbp
	.cfi_def_cfa_register %rbp
	subq	$32, %rsp
	movl	$658220792, -28(%rbp)   # imm = 0x273BA6F8
	movq	img, %rax
	movq	14160(%rax), %rax
	movq	32(%rax), %rax
	movq	%rax, -24(%rbp)
	movq	img, %rax
	movq	14160(%rax), %rax
	movq	40(%rax), %rax
	movq	%rax, -16(%rbp)
	movl	$0, -8(%rbp)
.LBB14_1:                               # %for.cond
                                        # =>This Loop Header: Depth=1
                                        #     Child Loop BB14_3 Depth 2
	cmpl	$3, -8(%rbp)
	jge	.LBB14_11
# %bb.2:                                # %for.body
                                        #   in Loop: Header=BB14_1 Depth=1
	movl	$0, -4(%rbp)
.LBB14_3:                               # %for.cond2
                                        #   Parent Loop BB14_1 Depth=1
                                        # =>  This Inner Loop Header: Depth=2
	cmpl	$11, -4(%rbp)
	jge	.LBB14_9
# %bb.4:                                # %for.body4
                                        #   in Loop: Header=BB14_3 Depth=2
	movq	img, %rax
	cmpl	$2, 24(%rax)
	jne	.LBB14_6
# %bb.5:                                # %if.then
                                        #   in Loop: Header=BB14_3 Depth=2
	movq	-24(%rbp), %rdi
	movslq	-8(%rbp), %rax
	imulq	$176, %rax, %rax
	addq	%rax, %rdi
	movslq	-4(%rbp), %rax
	shlq	$4, %rax
	addq	%rax, %rdi
	movq	img, %rax
	movslq	72520(%rax), %rax
	imulq	$264, %rax, %rax        # imm = 0x108
	movabsq	$INIT_MB_TYPE_I, %rsi
	addq	%rax, %rsi
	movslq	-8(%rbp), %rax
	imulq	$88, %rax, %rax
	addq	%rax, %rsi
	movslq	-4(%rbp), %rax
	shlq	$3, %rax
	addq	%rax, %rsi
	callq	biari_init_context
	jmp	.LBB14_7
.LBB14_6:                               # %if.else
                                        #   in Loop: Header=BB14_3 Depth=2
	movq	-24(%rbp), %rdi
	movslq	-8(%rbp), %rax
	imulq	$176, %rax, %rax
	addq	%rax, %rdi
	movslq	-4(%rbp), %rax
	shlq	$4, %rax
	addq	%rax, %rdi
	movq	img, %rax
	movslq	72520(%rax), %rax
	imulq	$264, %rax, %rax        # imm = 0x108
	movabsq	$INIT_MB_TYPE_P, %rsi
	addq	%rax, %rsi
	movslq	-8(%rbp), %rax
	imulq	$88, %rax, %rax
	addq	%rax, %rsi
	movslq	-4(%rbp), %rax
	shlq	$3, %rax
	addq	%rax, %rsi
	callq	biari_init_context
.LBB14_7:                               # %if.end
                                        #   in Loop: Header=BB14_3 Depth=2
	jmp	.LBB14_8
.LBB14_8:                               # %for.inc
                                        #   in Loop: Header=BB14_3 Depth=2
	movl	-4(%rbp), %eax
	addl	$1, %eax
	movl	%eax, -4(%rbp)
	jmp	.LBB14_3
.LBB14_9:                               # %for.end
                                        #   in Loop: Header=BB14_1 Depth=1
	jmp	.LBB14_10
.LBB14_10:                              # %for.inc28
                                        #   in Loop: Header=BB14_1 Depth=1
	movl	-8(%rbp), %eax
	addl	$1, %eax
	movl	%eax, -8(%rbp)
	jmp	.LBB14_1
.LBB14_11:                              # %for.end30
	movl	$0, -8(%rbp)
.LBB14_12:                              # %for.cond31
                                        # =>This Loop Header: Depth=1
                                        #     Child Loop BB14_14 Depth 2
	cmpl	$2, -8(%rbp)
	jge	.LBB14_22
# %bb.13:                               # %for.body33
                                        #   in Loop: Header=BB14_12 Depth=1
	movl	$0, -4(%rbp)
.LBB14_14:                              # %for.cond34
                                        #   Parent Loop BB14_12 Depth=1
                                        # =>  This Inner Loop Header: Depth=2
	cmpl	$9, -4(%rbp)
	jge	.LBB14_20
# %bb.15:                               # %for.body36
                                        #   in Loop: Header=BB14_14 Depth=2
	movq	img, %rax
	cmpl	$2, 24(%rax)
	jne	.LBB14_17
# %bb.16:                               # %if.then39
                                        #   in Loop: Header=BB14_14 Depth=2
	movq	-24(%rbp), %rdi
	addq	$528, %rdi              # imm = 0x210
	movslq	-8(%rbp), %rax
	imulq	$144, %rax, %rax
	addq	%rax, %rdi
	movslq	-4(%rbp), %rax
	shlq	$4, %rax
	addq	%rax, %rdi
	movq	img, %rax
	movslq	72520(%rax), %rax
	imulq	$144, %rax, %rax
	movabsq	$INIT_B8_TYPE_I, %rsi
	addq	%rax, %rsi
	movslq	-8(%rbp), %rax
	imulq	$72, %rax, %rax
	addq	%rax, %rsi
	movslq	-4(%rbp), %rax
	shlq	$3, %rax
	addq	%rax, %rsi
	callq	biari_init_context
	jmp	.LBB14_18
.LBB14_17:                              # %if.else52
                                        #   in Loop: Header=BB14_14 Depth=2
	movq	-24(%rbp), %rdi
	addq	$528, %rdi              # imm = 0x210
	movslq	-8(%rbp), %rax
	imulq	$144, %rax, %rax
	addq	%rax, %rdi
	movslq	-4(%rbp), %rax
	shlq	$4, %rax
	addq	%rax, %rdi
	movq	img, %rax
	movslq	72520(%rax), %rax
	imulq	$144, %rax, %rax
	movabsq	$INIT_B8_TYPE_P, %rsi
	addq	%rax, %rsi
	movslq	-8(%rbp), %rax
	imulq	$72, %rax, %rax
	addq	%rax, %rsi
	movslq	-4(%rbp), %rax
	shlq	$3, %rax
	addq	%rax, %rsi
	callq	biari_init_context
.LBB14_18:                              # %if.end66
                                        #   in Loop: Header=BB14_14 Depth=2
	jmp	.LBB14_19
.LBB14_19:                              # %for.inc67
                                        #   in Loop: Header=BB14_14 Depth=2
	movl	-4(%rbp), %eax
	addl	$1, %eax
	movl	%eax, -4(%rbp)
	jmp	.LBB14_14
.LBB14_20:                              # %for.end69
                                        #   in Loop: Header=BB14_12 Depth=1
	jmp	.LBB14_21
.LBB14_21:                              # %for.inc70
                                        #   in Loop: Header=BB14_12 Depth=1
	movl	-8(%rbp), %eax
	addl	$1, %eax
	movl	%eax, -8(%rbp)
	jmp	.LBB14_12
.LBB14_22:                              # %for.end72
	movl	$0, -8(%rbp)
.LBB14_23:                              # %for.cond73
                                        # =>This Loop Header: Depth=1
                                        #     Child Loop BB14_25 Depth 2
	cmpl	$2, -8(%rbp)
	jge	.LBB14_33
# %bb.24:                               # %for.body75
                                        #   in Loop: Header=BB14_23 Depth=1
	movl	$0, -4(%rbp)
.LBB14_25:                              # %for.cond76
                                        #   Parent Loop BB14_23 Depth=1
                                        # =>  This Inner Loop Header: Depth=2
	cmpl	$10, -4(%rbp)
	jge	.LBB14_31
# %bb.26:                               # %for.body78
                                        #   in Loop: Header=BB14_25 Depth=2
	movq	img, %rax
	cmpl	$2, 24(%rax)
	jne	.LBB14_28
# %bb.27:                               # %if.then81
                                        #   in Loop: Header=BB14_25 Depth=2
	movq	-24(%rbp), %rdi
	addq	$816, %rdi              # imm = 0x330
	movslq	-8(%rbp), %rax
	imulq	$160, %rax, %rax
	addq	%rax, %rdi
	movslq	-4(%rbp), %rax
	shlq	$4, %rax
	addq	%rax, %rdi
	movq	img, %rax
	movslq	72520(%rax), %rax
	imulq	$160, %rax, %rax
	movabsq	$INIT_MV_RES_I, %rsi
	addq	%rax, %rsi
	movslq	-8(%rbp), %rax
	imulq	$80, %rax, %rax
	addq	%rax, %rsi
	movslq	-4(%rbp), %rax
	shlq	$3, %rax
	addq	%rax, %rsi
	callq	biari_init_context
	jmp	.LBB14_29
.LBB14_28:                              # %if.else94
                                        #   in Loop: Header=BB14_25 Depth=2
	movq	-24(%rbp), %rdi
	addq	$816, %rdi              # imm = 0x330
	movslq	-8(%rbp), %rax
	imulq	$160, %rax, %rax
	addq	%rax, %rdi
	movslq	-4(%rbp), %rax
	shlq	$4, %rax
	addq	%rax, %rdi
	movq	img, %rax
	movslq	72520(%rax), %rax
	imulq	$160, %rax, %rax
	movabsq	$INIT_MV_RES_P, %rsi
	addq	%rax, %rsi
	movslq	-8(%rbp), %rax
	imulq	$80, %rax, %rax
	addq	%rax, %rsi
	movslq	-4(%rbp), %rax
	shlq	$3, %rax
	addq	%rax, %rsi
	callq	biari_init_context
.LBB14_29:                              # %if.end108
                                        #   in Loop: Header=BB14_25 Depth=2
	jmp	.LBB14_30
.LBB14_30:                              # %for.inc109
                                        #   in Loop: Header=BB14_25 Depth=2
	movl	-4(%rbp), %eax
	addl	$1, %eax
	movl	%eax, -4(%rbp)
	jmp	.LBB14_25
.LBB14_31:                              # %for.end111
                                        #   in Loop: Header=BB14_23 Depth=1
	jmp	.LBB14_32
.LBB14_32:                              # %for.inc112
                                        #   in Loop: Header=BB14_23 Depth=1
	movl	-8(%rbp), %eax
	addl	$1, %eax
	movl	%eax, -8(%rbp)
	jmp	.LBB14_23
.LBB14_33:                              # %for.end114
	movl	$0, -8(%rbp)
.LBB14_34:                              # %for.cond115
                                        # =>This Loop Header: Depth=1
                                        #     Child Loop BB14_36 Depth 2
	cmpl	$2, -8(%rbp)
	jge	.LBB14_44
# %bb.35:                               # %for.body117
                                        #   in Loop: Header=BB14_34 Depth=1
	movl	$0, -4(%rbp)
.LBB14_36:                              # %for.cond118
                                        #   Parent Loop BB14_34 Depth=1
                                        # =>  This Inner Loop Header: Depth=2
	cmpl	$6, -4(%rbp)
	jge	.LBB14_42
# %bb.37:                               # %for.body120
                                        #   in Loop: Header=BB14_36 Depth=2
	movq	img, %rax
	cmpl	$2, 24(%rax)
	jne	.LBB14_39
# %bb.38:                               # %if.then123
                                        #   in Loop: Header=BB14_36 Depth=2
	movq	-24(%rbp), %rdi
	addq	$1136, %rdi             # imm = 0x470
	movslq	-8(%rbp), %rax
	imulq	$96, %rax, %rax
	addq	%rax, %rdi
	movslq	-4(%rbp), %rax
	shlq	$4, %rax
	addq	%rax, %rdi
	movq	img, %rax
	movslq	72520(%rax), %rax
	imulq	$96, %rax, %rax
	movabsq	$INIT_REF_NO_I, %rsi
	addq	%rax, %rsi
	movslq	-8(%rbp), %rax
	imulq	$48, %rax, %rax
	addq	%rax, %rsi
	movslq	-4(%rbp), %rax
	shlq	$3, %rax
	addq	%rax, %rsi
	callq	biari_init_context
	jmp	.LBB14_40
.LBB14_39:                              # %if.else136
                                        #   in Loop: Header=BB14_36 Depth=2
	movq	-24(%rbp), %rdi
	addq	$1136, %rdi             # imm = 0x470
	movslq	-8(%rbp), %rax
	imulq	$96, %rax, %rax
	addq	%rax, %rdi
	movslq	-4(%rbp), %rax
	shlq	$4, %rax
	addq	%rax, %rdi
	movq	img, %rax
	movslq	72520(%rax), %rax
	imulq	$96, %rax, %rax
	movabsq	$INIT_REF_NO_P, %rsi
	addq	%rax, %rsi
	movslq	-8(%rbp), %rax
	imulq	$48, %rax, %rax
	addq	%rax, %rsi
	movslq	-4(%rbp), %rax
	shlq	$3, %rax
	addq	%rax, %rsi
	callq	biari_init_context
.LBB14_40:                              # %if.end150
                                        #   in Loop: Header=BB14_36 Depth=2
	jmp	.LBB14_41
.LBB14_41:                              # %for.inc151
                                        #   in Loop: Header=BB14_36 Depth=2
	movl	-4(%rbp), %eax
	addl	$1, %eax
	movl	%eax, -4(%rbp)
	jmp	.LBB14_36
.LBB14_42:                              # %for.end153
                                        #   in Loop: Header=BB14_34 Depth=1
	jmp	.LBB14_43
.LBB14_43:                              # %for.inc154
                                        #   in Loop: Header=BB14_34 Depth=1
	movl	-8(%rbp), %eax
	addl	$1, %eax
	movl	%eax, -8(%rbp)
	jmp	.LBB14_34
.LBB14_44:                              # %for.end156
	movl	$0, -4(%rbp)
.LBB14_45:                              # %for.cond157
                                        # =>This Inner Loop Header: Depth=1
	cmpl	$4, -4(%rbp)
	jge	.LBB14_51
# %bb.46:                               # %for.body159
                                        #   in Loop: Header=BB14_45 Depth=1
	movq	img, %rax
	cmpl	$2, 24(%rax)
	jne	.LBB14_48
# %bb.47:                               # %if.then162
                                        #   in Loop: Header=BB14_45 Depth=1
	movq	-24(%rbp), %rdi
	addq	$1328, %rdi             # imm = 0x530
	movslq	-4(%rbp), %rax
	shlq	$4, %rax
	addq	%rax, %rdi
	movq	img, %rax
	movslq	72520(%rax), %rax
	shlq	$5, %rax
	movabsq	$INIT_DELTA_QP_I, %rsi
	addq	%rax, %rsi
	movslq	-4(%rbp), %rax
	shlq	$3, %rax
	addq	%rax, %rsi
	callq	biari_init_context
	jmp	.LBB14_49
.LBB14_48:                              # %if.else172
                                        #   in Loop: Header=BB14_45 Depth=1
	movq	-24(%rbp), %rdi
	addq	$1328, %rdi             # imm = 0x530
	movslq	-4(%rbp), %rax
	shlq	$4, %rax
	addq	%rax, %rdi
	movq	img, %rax
	movslq	72520(%rax), %rax
	shlq	$5, %rax
	movabsq	$INIT_DELTA_QP_P, %rsi
	addq	%rax, %rsi
	movslq	-4(%rbp), %rax
	shlq	$3, %rax
	addq	%rax, %rsi
	callq	biari_init_context
.LBB14_49:                              # %if.end183
                                        #   in Loop: Header=BB14_45 Depth=1
	jmp	.LBB14_50
.LBB14_50:                              # %for.inc184
                                        #   in Loop: Header=BB14_45 Depth=1
	movl	-4(%rbp), %eax
	addl	$1, %eax
	movl	%eax, -4(%rbp)
	jmp	.LBB14_45
.LBB14_51:                              # %for.end186
	movl	$0, -4(%rbp)
.LBB14_52:                              # %for.cond187
                                        # =>This Inner Loop Header: Depth=1
	cmpl	$4, -4(%rbp)
	jge	.LBB14_58
# %bb.53:                               # %for.body189
                                        #   in Loop: Header=BB14_52 Depth=1
	movq	img, %rax
	cmpl	$2, 24(%rax)
	jne	.LBB14_55
# %bb.54:                               # %if.then192
                                        #   in Loop: Header=BB14_52 Depth=1
	movq	-24(%rbp), %rdi
	addq	$1392, %rdi             # imm = 0x570
	movslq	-4(%rbp), %rax
	shlq	$4, %rax
	addq	%rax, %rdi
	movq	img, %rax
	movslq	72520(%rax), %rax
	shlq	$5, %rax
	movabsq	$INIT_MB_AFF_I, %rsi
	addq	%rax, %rsi
	movslq	-4(%rbp), %rax
	shlq	$3, %rax
	addq	%rax, %rsi
	callq	biari_init_context
	jmp	.LBB14_56
.LBB14_55:                              # %if.else202
                                        #   in Loop: Header=BB14_52 Depth=1
	movq	-24(%rbp), %rdi
	addq	$1392, %rdi             # imm = 0x570
	movslq	-4(%rbp), %rax
	shlq	$4, %rax
	addq	%rax, %rdi
	movq	img, %rax
	movslq	72520(%rax), %rax
	shlq	$5, %rax
	movabsq	$INIT_MB_AFF_P, %rsi
	addq	%rax, %rsi
	movslq	-4(%rbp), %rax
	shlq	$3, %rax
	addq	%rax, %rsi
	callq	biari_init_context
.LBB14_56:                              # %if.end213
                                        #   in Loop: Header=BB14_52 Depth=1
	jmp	.LBB14_57
.LBB14_57:                              # %for.inc214
                                        #   in Loop: Header=BB14_52 Depth=1
	movl	-4(%rbp), %eax
	addl	$1, %eax
	movl	%eax, -4(%rbp)
	jmp	.LBB14_52
.LBB14_58:                              # %for.end216
	movl	$0, -4(%rbp)
.LBB14_59:                              # %for.cond217
                                        # =>This Inner Loop Header: Depth=1
	cmpl	$3, -4(%rbp)
	jge	.LBB14_65
# %bb.60:                               # %for.body219
                                        #   in Loop: Header=BB14_59 Depth=1
	movq	img, %rax
	cmpl	$2, 24(%rax)
	jne	.LBB14_62
# %bb.61:                               # %if.then222
                                        #   in Loop: Header=BB14_59 Depth=1
	movq	-24(%rbp), %rdi
	addq	$1456, %rdi             # imm = 0x5B0
	movslq	-4(%rbp), %rax
	shlq	$4, %rax
	addq	%rax, %rdi
	movq	img, %rax
	movslq	72520(%rax), %rax
	imulq	$24, %rax, %rax
	movabsq	$INIT_TRANSFORM_SIZE_I, %rsi
	addq	%rax, %rsi
	movslq	-4(%rbp), %rax
	shlq	$3, %rax
	addq	%rax, %rsi
	callq	biari_init_context
	jmp	.LBB14_63
.LBB14_62:                              # %if.else232
                                        #   in Loop: Header=BB14_59 Depth=1
	movq	-24(%rbp), %rdi
	addq	$1456, %rdi             # imm = 0x5B0
	movslq	-4(%rbp), %rax
	shlq	$4, %rax
	addq	%rax, %rdi
	movq	img, %rax
	movslq	72520(%rax), %rax
	imulq	$24, %rax, %rax
	movabsq	$INIT_TRANSFORM_SIZE_P, %rsi
	addq	%rax, %rsi
	movslq	-4(%rbp), %rax
	shlq	$3, %rax
	addq	%rax, %rsi
	callq	biari_init_context
.LBB14_63:                              # %if.end243
                                        #   in Loop: Header=BB14_59 Depth=1
	jmp	.LBB14_64
.LBB14_64:                              # %for.inc244
                                        #   in Loop: Header=BB14_59 Depth=1
	movl	-4(%rbp), %eax
	addl	$1, %eax
	movl	%eax, -4(%rbp)
	jmp	.LBB14_59
.LBB14_65:                              # %for.end246
	movl	$0, -4(%rbp)
.LBB14_66:                              # %for.cond247
                                        # =>This Inner Loop Header: Depth=1
	cmpl	$2, -4(%rbp)
	jge	.LBB14_72
# %bb.67:                               # %for.body249
                                        #   in Loop: Header=BB14_66 Depth=1
	movq	img, %rax
	cmpl	$2, 24(%rax)
	jne	.LBB14_69
# %bb.68:                               # %if.then252
                                        #   in Loop: Header=BB14_66 Depth=1
	movq	-16(%rbp), %rdi
	movslq	-4(%rbp), %rax
	shlq	$4, %rax
	addq	%rax, %rdi
	movq	img, %rax
	movslq	72520(%rax), %rax
	shlq	$4, %rax
	movabsq	$INIT_IPR_I, %rsi
	addq	%rax, %rsi
	movslq	-4(%rbp), %rax
	shlq	$3, %rax
	addq	%rax, %rsi
	callq	biari_init_context
	jmp	.LBB14_70
.LBB14_69:                              # %if.else262
                                        #   in Loop: Header=BB14_66 Depth=1
	movq	-16(%rbp), %rdi
	movslq	-4(%rbp), %rax
	shlq	$4, %rax
	addq	%rax, %rdi
	movq	img, %rax
	movslq	72520(%rax), %rax
	shlq	$4, %rax
	movabsq	$INIT_IPR_P, %rsi
	addq	%rax, %rsi
	movslq	-4(%rbp), %rax
	shlq	$3, %rax
	addq	%rax, %rsi
	callq	biari_init_context
.LBB14_70:                              # %if.end273
                                        #   in Loop: Header=BB14_66 Depth=1
	jmp	.LBB14_71
.LBB14_71:                              # %for.inc274
                                        #   in Loop: Header=BB14_66 Depth=1
	movl	-4(%rbp), %eax
	addl	$1, %eax
	movl	%eax, -4(%rbp)
	jmp	.LBB14_66
.LBB14_72:                              # %for.end276
	movl	$0, -4(%rbp)
.LBB14_73:                              # %for.cond277
                                        # =>This Inner Loop Header: Depth=1
	cmpl	$4, -4(%rbp)
	jge	.LBB14_79
# %bb.74:                               # %for.body279
                                        #   in Loop: Header=BB14_73 Depth=1
	movq	img, %rax
	cmpl	$2, 24(%rax)
	jne	.LBB14_76
# %bb.75:                               # %if.then282
                                        #   in Loop: Header=BB14_73 Depth=1
	movq	-16(%rbp), %rdi
	addq	$32, %rdi
	movslq	-4(%rbp), %rax
	shlq	$4, %rax
	addq	%rax, %rdi
	movq	img, %rax
	movslq	72520(%rax), %rax
	shlq	$5, %rax
	movabsq	$INIT_CIPR_I, %rsi
	addq	%rax, %rsi
	movslq	-4(%rbp), %rax
	shlq	$3, %rax
	addq	%rax, %rsi
	callq	biari_init_context
	jmp	.LBB14_77
.LBB14_76:                              # %if.else292
                                        #   in Loop: Header=BB14_73 Depth=1
	movq	-16(%rbp), %rdi
	addq	$32, %rdi
	movslq	-4(%rbp), %rax
	shlq	$4, %rax
	addq	%rax, %rdi
	movq	img, %rax
	movslq	72520(%rax), %rax
	shlq	$5, %rax
	movabsq	$INIT_CIPR_P, %rsi
	addq	%rax, %rsi
	movslq	-4(%rbp), %rax
	shlq	$3, %rax
	addq	%rax, %rsi
	callq	biari_init_context
.LBB14_77:                              # %if.end303
                                        #   in Loop: Header=BB14_73 Depth=1
	jmp	.LBB14_78
.LBB14_78:                              # %for.inc304
                                        #   in Loop: Header=BB14_73 Depth=1
	movl	-4(%rbp), %eax
	addl	$1, %eax
	movl	%eax, -4(%rbp)
	jmp	.LBB14_73
.LBB14_79:                              # %for.end306
	movl	$0, -8(%rbp)
.LBB14_80:                              # %for.cond307
                                        # =>This Loop Header: Depth=1
                                        #     Child Loop BB14_82 Depth 2
	cmpl	$3, -8(%rbp)
	jge	.LBB14_90
# %bb.81:                               # %for.body309
                                        #   in Loop: Header=BB14_80 Depth=1
	movl	$0, -4(%rbp)
.LBB14_82:                              # %for.cond310
                                        #   Parent Loop BB14_80 Depth=1
                                        # =>  This Inner Loop Header: Depth=2
	cmpl	$4, -4(%rbp)
	jge	.LBB14_88
# %bb.83:                               # %for.body312
                                        #   in Loop: Header=BB14_82 Depth=2
	movq	img, %rax
	cmpl	$2, 24(%rax)
	jne	.LBB14_85
# %bb.84:                               # %if.then315
                                        #   in Loop: Header=BB14_82 Depth=2
	movq	-16(%rbp), %rdi
	addq	$96, %rdi
	movslq	-8(%rbp), %rax
	shlq	$6, %rax
	addq	%rax, %rdi
	movslq	-4(%rbp), %rax
	shlq	$4, %rax
	addq	%rax, %rdi
	movq	img, %rax
	movslq	72520(%rax), %rax
	imulq	$96, %rax, %rax
	movabsq	$INIT_CBP_I, %rsi
	addq	%rax, %rsi
	movslq	-8(%rbp), %rax
	shlq	$5, %rax
	addq	%rax, %rsi
	movslq	-4(%rbp), %rax
	shlq	$3, %rax
	addq	%rax, %rsi
	callq	biari_init_context
	jmp	.LBB14_86
.LBB14_85:                              # %if.else328
                                        #   in Loop: Header=BB14_82 Depth=2
	movq	-16(%rbp), %rdi
	addq	$96, %rdi
	movslq	-8(%rbp), %rax
	shlq	$6, %rax
	addq	%rax, %rdi
	movslq	-4(%rbp), %rax
	shlq	$4, %rax
	addq	%rax, %rdi
	movq	img, %rax
	movslq	72520(%rax), %rax
	imulq	$96, %rax, %rax
	movabsq	$INIT_CBP_P, %rsi
	addq	%rax, %rsi
	movslq	-8(%rbp), %rax
	shlq	$5, %rax
	addq	%rax, %rsi
	movslq	-4(%rbp), %rax
	shlq	$3, %rax
	addq	%rax, %rsi
	callq	biari_init_context
.LBB14_86:                              # %if.end342
                                        #   in Loop: Header=BB14_82 Depth=2
	jmp	.LBB14_87
.LBB14_87:                              # %for.inc343
                                        #   in Loop: Header=BB14_82 Depth=2
	movl	-4(%rbp), %eax
	addl	$1, %eax
	movl	%eax, -4(%rbp)
	jmp	.LBB14_82
.LBB14_88:                              # %for.end345
                                        #   in Loop: Header=BB14_80 Depth=1
	jmp	.LBB14_89
.LBB14_89:                              # %for.inc346
                                        #   in Loop: Header=BB14_80 Depth=1
	movl	-8(%rbp), %eax
	addl	$1, %eax
	movl	%eax, -8(%rbp)
	jmp	.LBB14_80
.LBB14_90:                              # %for.end348
	movl	$0, -8(%rbp)
.LBB14_91:                              # %for.cond349
                                        # =>This Loop Header: Depth=1
                                        #     Child Loop BB14_93 Depth 2
	cmpl	$10, -8(%rbp)
	jge	.LBB14_101
# %bb.92:                               # %for.body351
                                        #   in Loop: Header=BB14_91 Depth=1
	movl	$0, -4(%rbp)
.LBB14_93:                              # %for.cond352
                                        #   Parent Loop BB14_91 Depth=1
                                        # =>  This Inner Loop Header: Depth=2
	cmpl	$4, -4(%rbp)
	jge	.LBB14_99
# %bb.94:                               # %for.body354
                                        #   in Loop: Header=BB14_93 Depth=2
	movq	img, %rax
	cmpl	$2, 24(%rax)
	jne	.LBB14_96
# %bb.95:                               # %if.then357
                                        #   in Loop: Header=BB14_93 Depth=2
	movq	-16(%rbp), %rdi
	addq	$288, %rdi              # imm = 0x120
	movslq	-8(%rbp), %rax
	shlq	$6, %rax
	addq	%rax, %rdi
	movslq	-4(%rbp), %rax
	shlq	$4, %rax
	addq	%rax, %rdi
	movq	img, %rax
	movslq	72520(%rax), %rax
	shlq	$8, %rax
	movabsq	$INIT_BCBP_I, %rsi
	addq	%rax, %rsi
	movslq	-8(%rbp), %rax
	shlq	$5, %rax
	addq	%rax, %rsi
	movslq	-4(%rbp), %rax
	shlq	$3, %rax
	addq	%rax, %rsi
	callq	biari_init_context
	jmp	.LBB14_97
.LBB14_96:                              # %if.else370
                                        #   in Loop: Header=BB14_93 Depth=2
	movq	-16(%rbp), %rdi
	addq	$288, %rdi              # imm = 0x120
	movslq	-8(%rbp), %rax
	shlq	$6, %rax
	addq	%rax, %rdi
	movslq	-4(%rbp), %rax
	shlq	$4, %rax
	addq	%rax, %rdi
	movq	img, %rax
	movslq	72520(%rax), %rax
	shlq	$8, %rax
	movabsq	$INIT_BCBP_P, %rsi
	addq	%rax, %rsi
	movslq	-8(%rbp), %rax
	shlq	$5, %rax
	addq	%rax, %rsi
	movslq	-4(%rbp), %rax
	shlq	$3, %rax
	addq	%rax, %rsi
	callq	biari_init_context
.LBB14_97:                              # %if.end384
                                        #   in Loop: Header=BB14_93 Depth=2
	jmp	.LBB14_98
.LBB14_98:                              # %for.inc385
                                        #   in Loop: Header=BB14_93 Depth=2
	movl	-4(%rbp), %eax
	addl	$1, %eax
	movl	%eax, -4(%rbp)
	jmp	.LBB14_93
.LBB14_99:                              # %for.end387
                                        #   in Loop: Header=BB14_91 Depth=1
	jmp	.LBB14_100
.LBB14_100:                             # %for.inc388
                                        #   in Loop: Header=BB14_91 Depth=1
	movl	-8(%rbp), %eax
	addl	$1, %eax
	movl	%eax, -8(%rbp)
	jmp	.LBB14_91
.LBB14_101:                             # %for.end390
	movl	$0, -8(%rbp)
.LBB14_102:                             # %for.cond391
                                        # =>This Loop Header: Depth=1
                                        #     Child Loop BB14_104 Depth 2
	cmpl	$10, -8(%rbp)
	jge	.LBB14_112
# %bb.103:                              # %for.body393
                                        #   in Loop: Header=BB14_102 Depth=1
	movl	$0, -4(%rbp)
.LBB14_104:                             # %for.cond394
                                        #   Parent Loop BB14_102 Depth=1
                                        # =>  This Inner Loop Header: Depth=2
	cmpl	$15, -4(%rbp)
	jge	.LBB14_110
# %bb.105:                              # %for.body396
                                        #   in Loop: Header=BB14_104 Depth=2
	movq	img, %rax
	cmpl	$2, 24(%rax)
	jne	.LBB14_107
# %bb.106:                              # %if.then399
                                        #   in Loop: Header=BB14_104 Depth=2
	movq	-16(%rbp), %rdi
	addq	$928, %rdi              # imm = 0x3A0
	movslq	-8(%rbp), %rax
	imulq	$240, %rax, %rax
	addq	%rax, %rdi
	movslq	-4(%rbp), %rax
	shlq	$4, %rax
	addq	%rax, %rdi
	movq	img, %rax
	movslq	72520(%rax), %rax
	imulq	$960, %rax, %rax        # imm = 0x3C0
	movabsq	$INIT_MAP_I, %rsi
	addq	%rax, %rsi
	movslq	-8(%rbp), %rax
	imulq	$120, %rax, %rax
	addq	%rax, %rsi
	movslq	-4(%rbp), %rax
	shlq	$3, %rax
	addq	%rax, %rsi
	callq	biari_init_context
	jmp	.LBB14_108
.LBB14_107:                             # %if.else412
                                        #   in Loop: Header=BB14_104 Depth=2
	movq	-16(%rbp), %rdi
	addq	$928, %rdi              # imm = 0x3A0
	movslq	-8(%rbp), %rax
	imulq	$240, %rax, %rax
	addq	%rax, %rdi
	movslq	-4(%rbp), %rax
	shlq	$4, %rax
	addq	%rax, %rdi
	movq	img, %rax
	movslq	72520(%rax), %rax
	imulq	$960, %rax, %rax        # imm = 0x3C0
	movabsq	$INIT_MAP_P, %rsi
	addq	%rax, %rsi
	movslq	-8(%rbp), %rax
	imulq	$120, %rax, %rax
	addq	%rax, %rsi
	movslq	-4(%rbp), %rax
	shlq	$3, %rax
	addq	%rax, %rsi
	callq	biari_init_context
.LBB14_108:                             # %if.end426
                                        #   in Loop: Header=BB14_104 Depth=2
	jmp	.LBB14_109
.LBB14_109:                             # %for.inc427
                                        #   in Loop: Header=BB14_104 Depth=2
	movl	-4(%rbp), %eax
	addl	$1, %eax
	movl	%eax, -4(%rbp)
	jmp	.LBB14_104
.LBB14_110:                             # %for.end429
                                        #   in Loop: Header=BB14_102 Depth=1
	jmp	.LBB14_111
.LBB14_111:                             # %for.inc430
                                        #   in Loop: Header=BB14_102 Depth=1
	movl	-8(%rbp), %eax
	addl	$1, %eax
	movl	%eax, -8(%rbp)
	jmp	.LBB14_102
.LBB14_112:                             # %for.end432
	movl	$0, -8(%rbp)
.LBB14_113:                             # %for.cond433
                                        # =>This Loop Header: Depth=1
                                        #     Child Loop BB14_115 Depth 2
	cmpl	$10, -8(%rbp)
	jge	.LBB14_123
# %bb.114:                              # %for.body435
                                        #   in Loop: Header=BB14_113 Depth=1
	movl	$0, -4(%rbp)
.LBB14_115:                             # %for.cond436
                                        #   Parent Loop BB14_113 Depth=1
                                        # =>  This Inner Loop Header: Depth=2
	cmpl	$15, -4(%rbp)
	jge	.LBB14_121
# %bb.116:                              # %for.body438
                                        #   in Loop: Header=BB14_115 Depth=2
	movq	img, %rax
	cmpl	$2, 24(%rax)
	jne	.LBB14_118
# %bb.117:                              # %if.then441
                                        #   in Loop: Header=BB14_115 Depth=2
	movq	-16(%rbp), %rdi
	addq	$3328, %rdi             # imm = 0xD00
	movslq	-8(%rbp), %rax
	imulq	$240, %rax, %rax
	addq	%rax, %rdi
	movslq	-4(%rbp), %rax
	shlq	$4, %rax
	addq	%rax, %rdi
	movq	img, %rax
	movslq	72520(%rax), %rax
	imulq	$960, %rax, %rax        # imm = 0x3C0
	movabsq	$INIT_LAST_I, %rsi
	addq	%rax, %rsi
	movslq	-8(%rbp), %rax
	imulq	$120, %rax, %rax
	addq	%rax, %rsi
	movslq	-4(%rbp), %rax
	shlq	$3, %rax
	addq	%rax, %rsi
	callq	biari_init_context
	jmp	.LBB14_119
.LBB14_118:                             # %if.else454
                                        #   in Loop: Header=BB14_115 Depth=2
	movq	-16(%rbp), %rdi
	addq	$3328, %rdi             # imm = 0xD00
	movslq	-8(%rbp), %rax
	imulq	$240, %rax, %rax
	addq	%rax, %rdi
	movslq	-4(%rbp), %rax
	shlq	$4, %rax
	addq	%rax, %rdi
	movq	img, %rax
	movslq	72520(%rax), %rax
	imulq	$960, %rax, %rax        # imm = 0x3C0
	movabsq	$INIT_LAST_P, %rsi
	addq	%rax, %rsi
	movslq	-8(%rbp), %rax
	imulq	$120, %rax, %rax
	addq	%rax, %rsi
	movslq	-4(%rbp), %rax
	shlq	$3, %rax
	addq	%rax, %rsi
	callq	biari_init_context
.LBB14_119:                             # %if.end468
                                        #   in Loop: Header=BB14_115 Depth=2
	jmp	.LBB14_120
.LBB14_120:                             # %for.inc469
                                        #   in Loop: Header=BB14_115 Depth=2
	movl	-4(%rbp), %eax
	addl	$1, %eax
	movl	%eax, -4(%rbp)
	jmp	.LBB14_115
.LBB14_121:                             # %for.end471
                                        #   in Loop: Header=BB14_113 Depth=1
	jmp	.LBB14_122
.LBB14_122:                             # %for.inc472
                                        #   in Loop: Header=BB14_113 Depth=1
	movl	-8(%rbp), %eax
	addl	$1, %eax
	movl	%eax, -8(%rbp)
	jmp	.LBB14_113
.LBB14_123:                             # %for.end474
	movl	$0, -8(%rbp)
.LBB14_124:                             # %for.cond475
                                        # =>This Loop Header: Depth=1
                                        #     Child Loop BB14_126 Depth 2
	cmpl	$10, -8(%rbp)
	jge	.LBB14_134
# %bb.125:                              # %for.body477
                                        #   in Loop: Header=BB14_124 Depth=1
	movl	$0, -4(%rbp)
.LBB14_126:                             # %for.cond478
                                        #   Parent Loop BB14_124 Depth=1
                                        # =>  This Inner Loop Header: Depth=2
	cmpl	$5, -4(%rbp)
	jge	.LBB14_132
# %bb.127:                              # %for.body480
                                        #   in Loop: Header=BB14_126 Depth=2
	movq	img, %rax
	cmpl	$2, 24(%rax)
	jne	.LBB14_129
# %bb.128:                              # %if.then483
                                        #   in Loop: Header=BB14_126 Depth=2
	movq	-16(%rbp), %rdi
	addq	$5728, %rdi             # imm = 0x1660
	movslq	-8(%rbp), %rax
	imulq	$80, %rax, %rax
	addq	%rax, %rdi
	movslq	-4(%rbp), %rax
	shlq	$4, %rax
	addq	%rax, %rdi
	movq	img, %rax
	movslq	72520(%rax), %rax
	imulq	$320, %rax, %rax        # imm = 0x140
	movabsq	$INIT_ONE_I, %rsi
	addq	%rax, %rsi
	movslq	-8(%rbp), %rax
	imulq	$40, %rax, %rax
	addq	%rax, %rsi
	movslq	-4(%rbp), %rax
	shlq	$3, %rax
	addq	%rax, %rsi
	callq	biari_init_context
	jmp	.LBB14_130
.LBB14_129:                             # %if.else496
                                        #   in Loop: Header=BB14_126 Depth=2
	movq	-16(%rbp), %rdi
	addq	$5728, %rdi             # imm = 0x1660
	movslq	-8(%rbp), %rax
	imulq	$80, %rax, %rax
	addq	%rax, %rdi
	movslq	-4(%rbp), %rax
	shlq	$4, %rax
	addq	%rax, %rdi
	movq	img, %rax
	movslq	72520(%rax), %rax
	imulq	$320, %rax, %rax        # imm = 0x140
	movabsq	$INIT_ONE_P, %rsi
	addq	%rax, %rsi
	movslq	-8(%rbp), %rax
	imulq	$40, %rax, %rax
	addq	%rax, %rsi
	movslq	-4(%rbp), %rax
	shlq	$3, %rax
	addq	%rax, %rsi
	callq	biari_init_context
.LBB14_130:                             # %if.end510
                                        #   in Loop: Header=BB14_126 Depth=2
	jmp	.LBB14_131
.LBB14_131:                             # %for.inc511
                                        #   in Loop: Header=BB14_126 Depth=2
	movl	-4(%rbp), %eax
	addl	$1, %eax
	movl	%eax, -4(%rbp)
	jmp	.LBB14_126
.LBB14_132:                             # %for.end513
                                        #   in Loop: Header=BB14_124 Depth=1
	jmp	.LBB14_133
.LBB14_133:                             # %for.inc514
                                        #   in Loop: Header=BB14_124 Depth=1
	movl	-8(%rbp), %eax
	addl	$1, %eax
	movl	%eax, -8(%rbp)
	jmp	.LBB14_124
.LBB14_134:                             # %for.end516
	movl	$0, -8(%rbp)
.LBB14_135:                             # %for.cond517
                                        # =>This Loop Header: Depth=1
                                        #     Child Loop BB14_137 Depth 2
	cmpl	$10, -8(%rbp)
	jge	.LBB14_145
# %bb.136:                              # %for.body519
                                        #   in Loop: Header=BB14_135 Depth=1
	movl	$0, -4(%rbp)
.LBB14_137:                             # %for.cond520
                                        #   Parent Loop BB14_135 Depth=1
                                        # =>  This Inner Loop Header: Depth=2
	cmpl	$5, -4(%rbp)
	jge	.LBB14_143
# %bb.138:                              # %for.body522
                                        #   in Loop: Header=BB14_137 Depth=2
	movq	img, %rax
	cmpl	$2, 24(%rax)
	jne	.LBB14_140
# %bb.139:                              # %if.then525
                                        #   in Loop: Header=BB14_137 Depth=2
	movq	-16(%rbp), %rdi
	addq	$6528, %rdi             # imm = 0x1980
	movslq	-8(%rbp), %rax
	imulq	$80, %rax, %rax
	addq	%rax, %rdi
	movslq	-4(%rbp), %rax
	shlq	$4, %rax
	addq	%rax, %rdi
	movq	img, %rax
	movslq	72520(%rax), %rax
	imulq	$320, %rax, %rax        # imm = 0x140
	movabsq	$INIT_ABS_I, %rsi
	addq	%rax, %rsi
	movslq	-8(%rbp), %rax
	imulq	$40, %rax, %rax
	addq	%rax, %rsi
	movslq	-4(%rbp), %rax
	shlq	$3, %rax
	addq	%rax, %rsi
	callq	biari_init_context
	jmp	.LBB14_141
.LBB14_140:                             # %if.else538
                                        #   in Loop: Header=BB14_137 Depth=2
	movq	-16(%rbp), %rdi
	addq	$6528, %rdi             # imm = 0x1980
	movslq	-8(%rbp), %rax
	imulq	$80, %rax, %rax
	addq	%rax, %rdi
	movslq	-4(%rbp), %rax
	shlq	$4, %rax
	addq	%rax, %rdi
	movq	img, %rax
	movslq	72520(%rax), %rax
	imulq	$320, %rax, %rax        # imm = 0x140
	movabsq	$INIT_ABS_P, %rsi
	addq	%rax, %rsi
	movslq	-8(%rbp), %rax
	imulq	$40, %rax, %rax
	addq	%rax, %rsi
	movslq	-4(%rbp), %rax
	shlq	$3, %rax
	addq	%rax, %rsi
	callq	biari_init_context
.LBB14_141:                             # %if.end552
                                        #   in Loop: Header=BB14_137 Depth=2
	jmp	.LBB14_142
.LBB14_142:                             # %for.inc553
                                        #   in Loop: Header=BB14_137 Depth=2
	movl	-4(%rbp), %eax
	addl	$1, %eax
	movl	%eax, -4(%rbp)
	jmp	.LBB14_137
.LBB14_143:                             # %for.end555
                                        #   in Loop: Header=BB14_135 Depth=1
	jmp	.LBB14_144
.LBB14_144:                             # %for.inc556
                                        #   in Loop: Header=BB14_135 Depth=1
	movl	-8(%rbp), %eax
	addl	$1, %eax
	movl	%eax, -8(%rbp)
	jmp	.LBB14_135
.LBB14_145:                             # %for.end558
	movl	$0, -8(%rbp)
.LBB14_146:                             # %for.cond559
                                        # =>This Loop Header: Depth=1
                                        #     Child Loop BB14_148 Depth 2
	cmpl	$10, -8(%rbp)
	jge	.LBB14_156
# %bb.147:                              # %for.body561
                                        #   in Loop: Header=BB14_146 Depth=1
	movl	$0, -4(%rbp)
.LBB14_148:                             # %for.cond562
                                        #   Parent Loop BB14_146 Depth=1
                                        # =>  This Inner Loop Header: Depth=2
	cmpl	$15, -4(%rbp)
	jge	.LBB14_154
# %bb.149:                              # %for.body564
                                        #   in Loop: Header=BB14_148 Depth=2
	movq	img, %rax
	cmpl	$2, 24(%rax)
	jne	.LBB14_151
# %bb.150:                              # %if.then567
                                        #   in Loop: Header=BB14_148 Depth=2
	movq	-16(%rbp), %rdi
	addq	$7328, %rdi             # imm = 0x1CA0
	movslq	-8(%rbp), %rax
	imulq	$240, %rax, %rax
	addq	%rax, %rdi
	movslq	-4(%rbp), %rax
	shlq	$4, %rax
	addq	%rax, %rdi
	movq	img, %rax
	movslq	72520(%rax), %rax
	imulq	$960, %rax, %rax        # imm = 0x3C0
	movabsq	$INIT_FLD_MAP_I, %rsi
	addq	%rax, %rsi
	movslq	-8(%rbp), %rax
	imulq	$120, %rax, %rax
	addq	%rax, %rsi
	movslq	-4(%rbp), %rax
	shlq	$3, %rax
	addq	%rax, %rsi
	callq	biari_init_context
	jmp	.LBB14_152
.LBB14_151:                             # %if.else580
                                        #   in Loop: Header=BB14_148 Depth=2
	movq	-16(%rbp), %rdi
	addq	$7328, %rdi             # imm = 0x1CA0
	movslq	-8(%rbp), %rax
	imulq	$240, %rax, %rax
	addq	%rax, %rdi
	movslq	-4(%rbp), %rax
	shlq	$4, %rax
	addq	%rax, %rdi
	movq	img, %rax
	movslq	72520(%rax), %rax
	imulq	$960, %rax, %rax        # imm = 0x3C0
	movabsq	$INIT_FLD_MAP_P, %rsi
	addq	%rax, %rsi
	movslq	-8(%rbp), %rax
	imulq	$120, %rax, %rax
	addq	%rax, %rsi
	movslq	-4(%rbp), %rax
	shlq	$3, %rax
	addq	%rax, %rsi
	callq	biari_init_context
.LBB14_152:                             # %if.end594
                                        #   in Loop: Header=BB14_148 Depth=2
	jmp	.LBB14_153
.LBB14_153:                             # %for.inc595
                                        #   in Loop: Header=BB14_148 Depth=2
	movl	-4(%rbp), %eax
	addl	$1, %eax
	movl	%eax, -4(%rbp)
	jmp	.LBB14_148
.LBB14_154:                             # %for.end597
                                        #   in Loop: Header=BB14_146 Depth=1
	jmp	.LBB14_155
.LBB14_155:                             # %for.inc598
                                        #   in Loop: Header=BB14_146 Depth=1
	movl	-8(%rbp), %eax
	addl	$1, %eax
	movl	%eax, -8(%rbp)
	jmp	.LBB14_146
.LBB14_156:                             # %for.end600
	movl	$0, -8(%rbp)
.LBB14_157:                             # %for.cond601
                                        # =>This Loop Header: Depth=1
                                        #     Child Loop BB14_159 Depth 2
	cmpl	$10, -8(%rbp)
	jge	.LBB14_167
# %bb.158:                              # %for.body603
                                        #   in Loop: Header=BB14_157 Depth=1
	movl	$0, -4(%rbp)
.LBB14_159:                             # %for.cond604
                                        #   Parent Loop BB14_157 Depth=1
                                        # =>  This Inner Loop Header: Depth=2
	cmpl	$15, -4(%rbp)
	jge	.LBB14_165
# %bb.160:                              # %for.body606
                                        #   in Loop: Header=BB14_159 Depth=2
	movq	img, %rax
	cmpl	$2, 24(%rax)
	jne	.LBB14_162
# %bb.161:                              # %if.then609
                                        #   in Loop: Header=BB14_159 Depth=2
	movq	-16(%rbp), %rdi
	addq	$9728, %rdi             # imm = 0x2600
	movslq	-8(%rbp), %rax
	imulq	$240, %rax, %rax
	addq	%rax, %rdi
	movslq	-4(%rbp), %rax
	shlq	$4, %rax
	addq	%rax, %rdi
	movq	img, %rax
	movslq	72520(%rax), %rax
	imulq	$960, %rax, %rax        # imm = 0x3C0
	movabsq	$INIT_FLD_LAST_I, %rsi
	addq	%rax, %rsi
	movslq	-8(%rbp), %rax
	imulq	$120, %rax, %rax
	addq	%rax, %rsi
	movslq	-4(%rbp), %rax
	shlq	$3, %rax
	addq	%rax, %rsi
	callq	biari_init_context
	jmp	.LBB14_163
.LBB14_162:                             # %if.else622
                                        #   in Loop: Header=BB14_159 Depth=2
	movq	-16(%rbp), %rdi
	addq	$9728, %rdi             # imm = 0x2600
	movslq	-8(%rbp), %rax
	imulq	$240, %rax, %rax
	addq	%rax, %rdi
	movslq	-4(%rbp), %rax
	shlq	$4, %rax
	addq	%rax, %rdi
	movq	img, %rax
	movslq	72520(%rax), %rax
	imulq	$960, %rax, %rax        # imm = 0x3C0
	movabsq	$INIT_FLD_LAST_P, %rsi
	addq	%rax, %rsi
	movslq	-8(%rbp), %rax
	imulq	$120, %rax, %rax
	addq	%rax, %rsi
	movslq	-4(%rbp), %rax
	shlq	$3, %rax
	addq	%rax, %rsi
	callq	biari_init_context
.LBB14_163:                             # %if.end636
                                        #   in Loop: Header=BB14_159 Depth=2
	jmp	.LBB14_164
.LBB14_164:                             # %for.inc637
                                        #   in Loop: Header=BB14_159 Depth=2
	movl	-4(%rbp), %eax
	addl	$1, %eax
	movl	%eax, -4(%rbp)
	jmp	.LBB14_159
.LBB14_165:                             # %for.end639
                                        #   in Loop: Header=BB14_157 Depth=1
	jmp	.LBB14_166
.LBB14_166:                             # %for.inc640
                                        #   in Loop: Header=BB14_157 Depth=1
	movl	-8(%rbp), %eax
	addl	$1, %eax
	movl	%eax, -8(%rbp)
	jmp	.LBB14_157
.LBB14_167:                             # %for.end642
	cmpl	$658220792, -28(%rbp)   # imm = 0x273BA6F8
	jne	.LBB14_169
.LBB14_168:
	addq	$32, %rsp
	popq	%rbp
	.cfi_def_cfa %rsp, 8
	retq
.LBB14_169:                             # %func_exit
	.cfi_def_cfa %rbp, 16
	callq	detect_breach
	jmp	.LBB14_168
.Lfunc_end14:
	.size	init_contexts.7, .Lfunc_end14-init_contexts.7
	.cfi_endproc
                                        # -- End function
	.globl	SetCtxModelNumber.8     # -- Begin function SetCtxModelNumber.8
	.p2align	4, 0x90
	.type	SetCtxModelNumber.8,@function
SetCtxModelNumber.8:                    # @SetCtxModelNumber.8
	.cfi_startproc
# %bb.0:                                # %entry
	pushq	%rbp
	.cfi_def_cfa_offset 16
	.cfi_offset %rbp, -16
	movq	%rsp, %rbp
	.cfi_def_cfa_register %rbp
	subq	$16, %rsp
	movl	$407925234, -16(%rbp)   # imm = 0x185071F2
	movq	img, %rax
	movl	72444(%rax), %eax
	movl	%eax, -8(%rbp)
	movq	img, %rax
	movl	24(%rax), %eax
	movl	%eax, -12(%rbp)
	movq	img, %rax
	movq	14160(%rax), %rax
	movl	12(%rax), %eax
	cltd
	idivl	num_mb_per_slice
	movl	%eax, -4(%rbp)
	movq	img, %rax
	cmpl	$2, 24(%rax)
	jne	.LBB15_2
# %bb.1:                                # %if.then
	movq	img, %rax
	movl	$0, 72520(%rax)
	jmp	.LBB15_11
.LBB15_2:                               # %if.end
	movq	input, %rax
	cmpl	$0, 3212(%rax)
	jne	.LBB15_4
# %bb.3:                                # %if.then3
	movq	input, %rax
	movl	3216(%rax), %eax
	movq	img, %rcx
	movl	%eax, 72520(%rcx)
	jmp	.LBB15_11
.LBB15_4:                               # %if.end6
	movq	initialized, %rax
	movslq	-8(%rbp), %rcx
	movq	(%rax,%rcx,8), %rax
	movslq	-12(%rbp), %rcx
	movq	(%rax,%rcx,8), %rax
	movslq	-4(%rbp), %rcx
	cmpl	$0, (%rax,%rcx,4)
	je	.LBB15_6
# %bb.5:                                # %if.then11
	movq	model_number, %rax
	movslq	-8(%rbp), %rcx
	movq	(%rax,%rcx,8), %rax
	movslq	-12(%rbp), %rcx
	movq	(%rax,%rcx,8), %rax
	movslq	-4(%rbp), %rcx
	movl	(%rax,%rcx,4), %eax
	movq	img, %rcx
	movl	%eax, 72520(%rcx)
	jmp	.LBB15_11
.LBB15_6:                               # %if.else
	cmpl	$0, -4(%rbp)
	je	.LBB15_9
# %bb.7:                                # %land.lhs.true
	movq	initialized, %rax
	movslq	-8(%rbp), %rcx
	movq	(%rax,%rcx,8), %rax
	movslq	-12(%rbp), %rcx
	movq	(%rax,%rcx,8), %rax
	movl	-4(%rbp), %ecx
	subl	$1, %ecx
	movslq	%ecx, %rcx
	cmpl	$0, (%rax,%rcx,4)
	je	.LBB15_9
# %bb.8:                                # %if.then27
	movq	model_number, %rax
	movslq	-8(%rbp), %rcx
	movq	(%rax,%rcx,8), %rax
	movslq	-12(%rbp), %rcx
	movq	(%rax,%rcx,8), %rax
	movl	-4(%rbp), %ecx
	subl	$1, %ecx
	movslq	%ecx, %rcx
	movl	(%rax,%rcx,4), %eax
	movq	img, %rcx
	movl	%eax, 72520(%rcx)
	jmp	.LBB15_10
.LBB15_9:                               # %if.else36
	movq	img, %rax
	movl	$0, 72520(%rax)
.LBB15_10:                              # %if.end38
	jmp	.LBB15_11
.LBB15_11:                              # %if.end39
	cmpl	$407925234, -16(%rbp)   # imm = 0x185071F2
	jne	.LBB15_13
.LBB15_12:
	addq	$16, %rsp
	popq	%rbp
	.cfi_def_cfa %rsp, 8
	retq
.LBB15_13:                              # %func_exit
	.cfi_def_cfa %rbp, 16
	callq	detect_breach
	jmp	.LBB15_12
.Lfunc_end15:
	.size	SetCtxModelNumber.8, .Lfunc_end15-SetCtxModelNumber.8
	.cfi_endproc
                                        # -- End function
	.globl	store_contexts.9        # -- Begin function store_contexts.9
	.p2align	4, 0x90
	.type	store_contexts.9,@function
store_contexts.9:                       # @store_contexts.9
	.cfi_startproc
# %bb.0:                                # %entry
	pushq	%rbp
	.cfi_def_cfa_offset 16
	.cfi_offset %rbp, -16
	movq	%rsp, %rbp
	.cfi_def_cfa_register %rbp
	subq	$16, %rsp
	movl	$2041728672, -16(%rbp)  # imm = 0x79B24EA0
	movq	img, %rax
	movl	72444(%rax), %eax
	movl	%eax, -8(%rbp)
	movq	img, %rax
	movl	24(%rax), %eax
	movl	%eax, -12(%rbp)
	movq	img, %rax
	movq	14160(%rax), %rax
	movl	12(%rax), %eax
	cltd
	idivl	num_mb_per_slice
	movl	%eax, -4(%rbp)
	movq	input, %rax
	cmpl	$0, 3212(%rax)
	je	.LBB16_2
# %bb.1:                                # %if.then
	movq	initialized, %rax
	movslq	-8(%rbp), %rcx
	movq	(%rax,%rcx,8), %rax
	movslq	-12(%rbp), %rcx
	movq	(%rax,%rcx,8), %rax
	movslq	-4(%rbp), %rcx
	movl	$1, (%rax,%rcx,4)
	movq	model_number, %rax
	movslq	-8(%rbp), %rcx
	movq	(%rax,%rcx,8), %rax
	movslq	-12(%rbp), %rcx
	movq	(%rax,%rcx,8), %rdi
	movslq	-4(%rbp), %rax
	shlq	$2, %rax
	addq	%rax, %rdi
	movq	img, %rax
	movq	14160(%rax), %rax
	movq	32(%rax), %rsi
	movq	img, %rax
	movq	14160(%rax), %rax
	movq	40(%rax), %rdx
	callq	GetCtxModelNumber
	jmp	.LBB16_3
.LBB16_2:                               # %if.else
	jmp	.LBB16_3
.LBB16_3:                               # %if.end
	cmpl	$2041728672, -16(%rbp)  # imm = 0x79B24EA0
	jne	.LBB16_5
.LBB16_4:
	addq	$16, %rsp
	popq	%rbp
	.cfi_def_cfa %rsp, 8
	retq
.LBB16_5:                               # %func_exit
	.cfi_def_cfa %rbp, 16
	callq	detect_breach
	jmp	.LBB16_4
.Lfunc_end16:
	.size	store_contexts.9, .Lfunc_end16-store_contexts.9
	.cfi_endproc
                                        # -- End function
	.section	.rodata.cst8,"aM",@progbits,8
	.p2align	3               # -- Begin function XRate.10
.LCPI17_0:
	.quad	4607182418800017408     # double 1
.LCPI17_1:
	.quad	4629700416936869888     # double 32
	.section	.rodata.cst16,"aM",@progbits,16
	.p2align	4
.LCPI17_2:
	.long	1127219200              # 0x43300000
	.long	1160773632              # 0x45300000
	.long	0                       # 0x0
	.long	0                       # 0x0
.LCPI17_3:
	.quad	4841369599423283200     # double 4503599627370496
	.quad	4985484787499139072     # double 1.9342813113834067E+25
	.text
	.globl	XRate.10
	.p2align	4, 0x90
	.type	XRate.10,@function
XRate.10:                               # @XRate.10
	.cfi_startproc
# %bb.0:                                # %entry
	pushq	%rbp
	.cfi_def_cfa_offset 16
	.cfi_offset %rbp, -16
	movq	%rsp, %rbp
	.cfi_def_cfa_register %rbp
	subq	$64, %rsp
	xorl	%eax, %eax
	movl	$153011841, -36(%rbp)   # imm = 0x91EC681
	movq	%rdi, -16(%rbp)
	movq	%rsi, -56(%rbp)
	vxorps	%xmm0, %xmm0, %xmm0
	vmovsd	%xmm0, -24(%rbp)
	movq	img, %rcx
	cmpl	40(%rcx), %eax
	jle	.LBB17_2
# %bb.1:                                # %cond.true
	xorl	%eax, %eax
	jmp	.LBB17_3
.LBB17_2:                               # %cond.false
	movq	img, %rax
	movl	40(%rax), %eax
.LBB17_3:                               # %cond.end
	vmovsd	.LCPI17_0(%rip), %xmm0  # xmm0 = mem[0],zero
	vmovsd	.LCPI17_1(%rip), %xmm1  # xmm1 = mem[0],zero
	movl	%eax, -32(%rbp)
	movq	-16(%rbp), %rax
	vmovq	8(%rax), %xmm2          # xmm2 = mem[0],zero
	vmovdqa	.LCPI17_2(%rip), %xmm3  # xmm3 = [1127219200,1160773632,0,0]
	vpunpckldq	%xmm3, %xmm2, %xmm2 # xmm2 = xmm2[0],xmm3[0],xmm2[1],xmm3[1]
	vmovapd	.LCPI17_3(%rip), %xmm3  # xmm3 = [4.503599627370496E+15,1.9342813113834067E+25]
	vsubpd	%xmm3, %xmm2, %xmm2
	vhaddpd	%xmm2, %xmm2, %xmm2
	vdivsd	%xmm1, %xmm2, %xmm1
	vucomisd	%xmm0, %xmm1
	jbe	.LBB17_5
# %bb.4:                                # %cond.true5
	vmovsd	.LCPI17_0(%rip), %xmm0  # xmm0 = mem[0],zero
	jmp	.LBB17_6
.LBB17_5:                               # %cond.false6
	vmovsd	.LCPI17_1(%rip), %xmm0  # xmm0 = mem[0],zero
	movq	-16(%rbp), %rax
	vmovq	8(%rax), %xmm1          # xmm1 = mem[0],zero
	vmovdqa	.LCPI17_2(%rip), %xmm2  # xmm2 = [1127219200,1160773632,0,0]
	vpunpckldq	%xmm2, %xmm1, %xmm1 # xmm1 = xmm1[0],xmm2[0],xmm1[1],xmm2[1]
	vmovapd	.LCPI17_3(%rip), %xmm2  # xmm2 = [4.503599627370496E+15,1.9342813113834067E+25]
	vsubpd	%xmm2, %xmm1, %xmm1
	vhaddpd	%xmm1, %xmm1, %xmm1
	vdivsd	%xmm0, %xmm1, %xmm0
.LBB17_6:                               # %cond.end10
	xorl	%eax, %eax
	vmovsd	%xmm0, -48(%rbp)
	movq	-56(%rbp), %rcx
	movl	(%rcx), %ecx
	imull	-32(%rbp), %ecx
	sarl	$4, %ecx
	movq	-56(%rbp), %rdx
	addl	4(%rdx), %ecx
	movl	%ecx, -4(%rbp)
	cmpl	-4(%rbp), %eax
	jle	.LBB17_8
# %bb.7:                                # %cond.true15
	xorl	%eax, %eax
	jmp	.LBB17_9
.LBB17_8:                               # %cond.false16
	movl	-4(%rbp), %eax
.LBB17_9:                               # %cond.end17
	cmpl	$127, %eax
	jge	.LBB17_14
# %bb.10:                               # %cond.true21
	xorl	%eax, %eax
	cmpl	-4(%rbp), %eax
	jle	.LBB17_12
# %bb.11:                               # %cond.true24
	xorl	%eax, %eax
	jmp	.LBB17_13
.LBB17_12:                              # %cond.false25
	movl	-4(%rbp), %eax
.LBB17_13:                              # %cond.end26
	jmp	.LBB17_15
.LBB17_14:                              # %cond.false28
	movl	$127, %eax
	jmp	.LBB17_15
.LBB17_15:                              # %cond.end29
	movl	%eax, -4(%rbp)
	movq	-16(%rbp), %rax
	movzbl	2(%rax), %eax
	cmpl	$0, %eax
	je	.LBB17_17
# %bb.16:                               # %cond.true32
	movq	-16(%rbp), %rax
	movzwl	(%rax), %eax
	addl	$64, %eax
	jmp	.LBB17_18
.LBB17_17:                              # %cond.false35
	movq	-16(%rbp), %rax
	movzwl	(%rax), %ecx
	movl	$63, %eax
	subl	%ecx, %eax
.LBB17_18:                              # %cond.end38
	movl	%eax, -28(%rbp)
	vmovsd	-48(%rbp), %xmm0        # xmm0 = mem[0],zero
	movslq	-28(%rbp), %rax
	vmulsd	probability(,%rax,8), %xmm0, %xmm0
	movslq	-4(%rbp), %rax
	vmulsd	entropy(,%rax,8), %xmm0, %xmm0
	vmovsd	-24(%rbp), %xmm1        # xmm1 = mem[0],zero
	vsubsd	%xmm0, %xmm1, %xmm0
	vmovsd	%xmm0, -24(%rbp)
	vmovsd	-48(%rbp), %xmm0        # xmm0 = mem[0],zero
	movl	$127, %eax
	movl	$127, %ecx
	subl	-28(%rbp), %ecx
	movslq	%ecx, %rcx
	vmulsd	probability(,%rcx,8), %xmm0, %xmm0
	subl	-4(%rbp), %eax
	cltq
	vmulsd	entropy(,%rax,8), %xmm0, %xmm0
	vmovsd	-24(%rbp), %xmm1        # xmm1 = mem[0],zero
	vsubsd	%xmm0, %xmm1, %xmm0
	vmovsd	%xmm0, -24(%rbp)
	vmovsd	-24(%rbp), %xmm0        # xmm0 = mem[0],zero
	cmpl	$153011841, -36(%rbp)   # imm = 0x91EC681
	jne	.LBB17_20
.LBB17_19:
	addq	$64, %rsp
	popq	%rbp
	.cfi_def_cfa %rsp, 8
	retq
.LBB17_20:                              # %func_exit
	.cfi_def_cfa %rbp, 16
	vmovsd	%xmm0, -64(%rbp)        # 8-byte Spill
	callq	detect_breach
	vmovsd	-64(%rbp), %xmm0        # 8-byte Reload
                                        # xmm0 = mem[0],zero
	jmp	.LBB17_19
.Lfunc_end17:
	.size	XRate.10, .Lfunc_end17-XRate.10
	.cfi_endproc
                                        # -- End function
	.globl	SetCtxModelNumber.11    # -- Begin function SetCtxModelNumber.11
	.p2align	4, 0x90
	.type	SetCtxModelNumber.11,@function
SetCtxModelNumber.11:                   # @SetCtxModelNumber.11
	.cfi_startproc
# %bb.0:                                # %entry
	pushq	%rbp
	.cfi_def_cfa_offset 16
	.cfi_offset %rbp, -16
	movq	%rsp, %rbp
	.cfi_def_cfa_register %rbp
	subq	$16, %rsp
	movl	$1630553370, -16(%rbp)  # imm = 0x6130451A
	movq	img, %rax
	movl	72444(%rax), %eax
	movl	%eax, -12(%rbp)
	movq	img, %rax
	movl	24(%rax), %eax
	movl	%eax, -8(%rbp)
	movq	img, %rax
	movq	14160(%rax), %rax
	movl	12(%rax), %eax
	cltd
	idivl	num_mb_per_slice
	movl	%eax, -4(%rbp)
	movq	img, %rax
	cmpl	$2, 24(%rax)
	jne	.LBB18_2
# %bb.1:                                # %if.then
	movq	img, %rax
	movl	$0, 72520(%rax)
	jmp	.LBB18_11
.LBB18_2:                               # %if.end
	movq	input, %rax
	cmpl	$0, 3212(%rax)
	jne	.LBB18_4
# %bb.3:                                # %if.then3
	movq	input, %rax
	movl	3216(%rax), %eax
	movq	img, %rcx
	movl	%eax, 72520(%rcx)
	jmp	.LBB18_11
.LBB18_4:                               # %if.end6
	movq	initialized, %rax
	movslq	-12(%rbp), %rcx
	movq	(%rax,%rcx,8), %rax
	movslq	-8(%rbp), %rcx
	movq	(%rax,%rcx,8), %rax
	movslq	-4(%rbp), %rcx
	cmpl	$0, (%rax,%rcx,4)
	je	.LBB18_6
# %bb.5:                                # %if.then11
	movq	model_number, %rax
	movslq	-12(%rbp), %rcx
	movq	(%rax,%rcx,8), %rax
	movslq	-8(%rbp), %rcx
	movq	(%rax,%rcx,8), %rax
	movslq	-4(%rbp), %rcx
	movl	(%rax,%rcx,4), %eax
	movq	img, %rcx
	movl	%eax, 72520(%rcx)
	jmp	.LBB18_11
.LBB18_6:                               # %if.else
	cmpl	$0, -4(%rbp)
	je	.LBB18_9
# %bb.7:                                # %land.lhs.true
	movq	initialized, %rax
	movslq	-12(%rbp), %rcx
	movq	(%rax,%rcx,8), %rax
	movslq	-8(%rbp), %rcx
	movq	(%rax,%rcx,8), %rax
	movl	-4(%rbp), %ecx
	subl	$1, %ecx
	movslq	%ecx, %rcx
	cmpl	$0, (%rax,%rcx,4)
	je	.LBB18_9
# %bb.8:                                # %if.then27
	movq	model_number, %rax
	movslq	-12(%rbp), %rcx
	movq	(%rax,%rcx,8), %rax
	movslq	-8(%rbp), %rcx
	movq	(%rax,%rcx,8), %rax
	movl	-4(%rbp), %ecx
	subl	$1, %ecx
	movslq	%ecx, %rcx
	movl	(%rax,%rcx,4), %eax
	movq	img, %rcx
	movl	%eax, 72520(%rcx)
	jmp	.LBB18_10
.LBB18_9:                               # %if.else36
	movq	img, %rax
	movl	$0, 72520(%rax)
.LBB18_10:                              # %if.end38
	jmp	.LBB18_11
.LBB18_11:                              # %if.end39
	cmpl	$1630553370, -16(%rbp)  # imm = 0x6130451A
	jne	.LBB18_13
.LBB18_12:
	addq	$16, %rsp
	popq	%rbp
	.cfi_def_cfa %rsp, 8
	retq
.LBB18_13:                              # %func_exit
	.cfi_def_cfa %rbp, 16
	callq	detect_breach
	jmp	.LBB18_12
.Lfunc_end18:
	.size	SetCtxModelNumber.11, .Lfunc_end18-SetCtxModelNumber.11
	.cfi_endproc
                                        # -- End function
	.globl	store_contexts.12       # -- Begin function store_contexts.12
	.p2align	4, 0x90
	.type	store_contexts.12,@function
store_contexts.12:                      # @store_contexts.12
	.cfi_startproc
# %bb.0:                                # %entry
	pushq	%rbp
	.cfi_def_cfa_offset 16
	.cfi_offset %rbp, -16
	movq	%rsp, %rbp
	.cfi_def_cfa_register %rbp
	subq	$16, %rsp
	movl	$326302319, -16(%rbp)   # imm = 0x1372FA6F
	movq	img, %rax
	movl	72444(%rax), %eax
	movl	%eax, -12(%rbp)
	movq	img, %rax
	movl	24(%rax), %eax
	movl	%eax, -8(%rbp)
	movq	img, %rax
	movq	14160(%rax), %rax
	movl	12(%rax), %eax
	cltd
	idivl	num_mb_per_slice
	movl	%eax, -4(%rbp)
	movq	input, %rax
	cmpl	$0, 3212(%rax)
	je	.LBB19_2
# %bb.1:                                # %if.then
	movq	initialized, %rax
	movslq	-12(%rbp), %rcx
	movq	(%rax,%rcx,8), %rax
	movslq	-8(%rbp), %rcx
	movq	(%rax,%rcx,8), %rax
	movslq	-4(%rbp), %rcx
	movl	$1, (%rax,%rcx,4)
	movq	model_number, %rax
	movslq	-12(%rbp), %rcx
	movq	(%rax,%rcx,8), %rax
	movslq	-8(%rbp), %rcx
	movq	(%rax,%rcx,8), %rdi
	movslq	-4(%rbp), %rax
	shlq	$2, %rax
	addq	%rax, %rdi
	movq	img, %rax
	movq	14160(%rax), %rax
	movq	32(%rax), %rsi
	movq	img, %rax
	movq	14160(%rax), %rax
	movq	40(%rax), %rdx
	callq	GetCtxModelNumber
	jmp	.LBB19_3
.LBB19_2:                               # %if.else
	jmp	.LBB19_3
.LBB19_3:                               # %if.end
	cmpl	$326302319, -16(%rbp)   # imm = 0x1372FA6F
	jne	.LBB19_5
.LBB19_4:
	addq	$16, %rsp
	popq	%rbp
	.cfi_def_cfa %rsp, 8
	retq
.LBB19_5:                               # %func_exit
	.cfi_def_cfa %rbp, 16
	callq	detect_breach
	jmp	.LBB19_4
.Lfunc_end19:
	.size	store_contexts.12, .Lfunc_end19-store_contexts.12
	.cfi_endproc
                                        # -- End function
	.section	.rodata.cst8,"aM",@progbits,8
	.p2align	3               # -- Begin function XRate.13
.LCPI20_0:
	.quad	4607182418800017408     # double 1
.LCPI20_1:
	.quad	4629700416936869888     # double 32
	.section	.rodata.cst16,"aM",@progbits,16
	.p2align	4
.LCPI20_2:
	.long	1127219200              # 0x43300000
	.long	1160773632              # 0x45300000
	.long	0                       # 0x0
	.long	0                       # 0x0
.LCPI20_3:
	.quad	4841369599423283200     # double 4503599627370496
	.quad	4985484787499139072     # double 1.9342813113834067E+25
	.text
	.globl	XRate.13
	.p2align	4, 0x90
	.type	XRate.13,@function
XRate.13:                               # @XRate.13
	.cfi_startproc
# %bb.0:                                # %entry
	pushq	%rbp
	.cfi_def_cfa_offset 16
	.cfi_offset %rbp, -16
	movq	%rsp, %rbp
	.cfi_def_cfa_register %rbp
	subq	$64, %rsp
	xorl	%eax, %eax
	movl	$655748108, -36(%rbp)   # imm = 0x2715EC0C
	movq	%rdi, -24(%rbp)
	movq	%rsi, -56(%rbp)
	vxorps	%xmm0, %xmm0, %xmm0
	vmovsd	%xmm0, -16(%rbp)
	movq	img, %rcx
	cmpl	40(%rcx), %eax
	jle	.LBB20_2
# %bb.1:                                # %cond.true
	xorl	%eax, %eax
	jmp	.LBB20_3
.LBB20_2:                               # %cond.false
	movq	img, %rax
	movl	40(%rax), %eax
.LBB20_3:                               # %cond.end
	vmovsd	.LCPI20_0(%rip), %xmm0  # xmm0 = mem[0],zero
	vmovsd	.LCPI20_1(%rip), %xmm1  # xmm1 = mem[0],zero
	movl	%eax, -32(%rbp)
	movq	-24(%rbp), %rax
	vmovq	8(%rax), %xmm2          # xmm2 = mem[0],zero
	vmovdqa	.LCPI20_2(%rip), %xmm3  # xmm3 = [1127219200,1160773632,0,0]
	vpunpckldq	%xmm3, %xmm2, %xmm2 # xmm2 = xmm2[0],xmm3[0],xmm2[1],xmm3[1]
	vmovapd	.LCPI20_3(%rip), %xmm3  # xmm3 = [4.503599627370496E+15,1.9342813113834067E+25]
	vsubpd	%xmm3, %xmm2, %xmm2
	vhaddpd	%xmm2, %xmm2, %xmm2
	vdivsd	%xmm1, %xmm2, %xmm1
	vucomisd	%xmm0, %xmm1
	jbe	.LBB20_5
# %bb.4:                                # %cond.true5
	vmovsd	.LCPI20_0(%rip), %xmm0  # xmm0 = mem[0],zero
	jmp	.LBB20_6
.LBB20_5:                               # %cond.false6
	vmovsd	.LCPI20_1(%rip), %xmm0  # xmm0 = mem[0],zero
	movq	-24(%rbp), %rax
	vmovq	8(%rax), %xmm1          # xmm1 = mem[0],zero
	vmovdqa	.LCPI20_2(%rip), %xmm2  # xmm2 = [1127219200,1160773632,0,0]
	vpunpckldq	%xmm2, %xmm1, %xmm1 # xmm1 = xmm1[0],xmm2[0],xmm1[1],xmm2[1]
	vmovapd	.LCPI20_3(%rip), %xmm2  # xmm2 = [4.503599627370496E+15,1.9342813113834067E+25]
	vsubpd	%xmm2, %xmm1, %xmm1
	vhaddpd	%xmm1, %xmm1, %xmm1
	vdivsd	%xmm0, %xmm1, %xmm0
.LBB20_6:                               # %cond.end10
	xorl	%eax, %eax
	vmovsd	%xmm0, -48(%rbp)
	movq	-56(%rbp), %rcx
	movl	(%rcx), %ecx
	imull	-32(%rbp), %ecx
	sarl	$4, %ecx
	movq	-56(%rbp), %rdx
	addl	4(%rdx), %ecx
	movl	%ecx, -4(%rbp)
	cmpl	-4(%rbp), %eax
	jle	.LBB20_8
# %bb.7:                                # %cond.true15
	xorl	%eax, %eax
	jmp	.LBB20_9
.LBB20_8:                               # %cond.false16
	movl	-4(%rbp), %eax
.LBB20_9:                               # %cond.end17
	cmpl	$127, %eax
	jge	.LBB20_14
# %bb.10:                               # %cond.true21
	xorl	%eax, %eax
	cmpl	-4(%rbp), %eax
	jle	.LBB20_12
# %bb.11:                               # %cond.true24
	xorl	%eax, %eax
	jmp	.LBB20_13
.LBB20_12:                              # %cond.false25
	movl	-4(%rbp), %eax
.LBB20_13:                              # %cond.end26
	jmp	.LBB20_15
.LBB20_14:                              # %cond.false28
	movl	$127, %eax
	jmp	.LBB20_15
.LBB20_15:                              # %cond.end29
	movl	%eax, -4(%rbp)
	movq	-24(%rbp), %rax
	movzbl	2(%rax), %eax
	cmpl	$0, %eax
	je	.LBB20_17
# %bb.16:                               # %cond.true32
	movq	-24(%rbp), %rax
	movzwl	(%rax), %eax
	addl	$64, %eax
	jmp	.LBB20_18
.LBB20_17:                              # %cond.false35
	movq	-24(%rbp), %rax
	movzwl	(%rax), %ecx
	movl	$63, %eax
	subl	%ecx, %eax
.LBB20_18:                              # %cond.end38
	movl	%eax, -28(%rbp)
	vmovsd	-48(%rbp), %xmm0        # xmm0 = mem[0],zero
	movslq	-28(%rbp), %rax
	vmulsd	probability(,%rax,8), %xmm0, %xmm0
	movslq	-4(%rbp), %rax
	vmulsd	entropy(,%rax,8), %xmm0, %xmm0
	vmovsd	-16(%rbp), %xmm1        # xmm1 = mem[0],zero
	vsubsd	%xmm0, %xmm1, %xmm0
	vmovsd	%xmm0, -16(%rbp)
	vmovsd	-48(%rbp), %xmm0        # xmm0 = mem[0],zero
	movl	$127, %eax
	movl	$127, %ecx
	subl	-28(%rbp), %ecx
	movslq	%ecx, %rcx
	vmulsd	probability(,%rcx,8), %xmm0, %xmm0
	subl	-4(%rbp), %eax
	cltq
	vmulsd	entropy(,%rax,8), %xmm0, %xmm0
	vmovsd	-16(%rbp), %xmm1        # xmm1 = mem[0],zero
	vsubsd	%xmm0, %xmm1, %xmm0
	vmovsd	%xmm0, -16(%rbp)
	vmovsd	-16(%rbp), %xmm0        # xmm0 = mem[0],zero
	cmpl	$655748108, -36(%rbp)   # imm = 0x2715EC0C
	jne	.LBB20_20
.LBB20_19:
	addq	$64, %rsp
	popq	%rbp
	.cfi_def_cfa %rsp, 8
	retq
.LBB20_20:                              # %func_exit
	.cfi_def_cfa %rbp, 16
	vmovsd	%xmm0, -64(%rbp)        # 8-byte Spill
	callq	detect_breach
	vmovsd	-64(%rbp), %xmm0        # 8-byte Reload
                                        # xmm0 = mem[0],zero
	jmp	.LBB20_19
.Lfunc_end20:
	.size	XRate.13, .Lfunc_end20-XRate.13
	.cfi_endproc
                                        # -- End function
	.globl	update_field_frame_contexts.14 # -- Begin function update_field_frame_contexts.14
	.p2align	4, 0x90
	.type	update_field_frame_contexts.14,@function
update_field_frame_contexts.14:         # @update_field_frame_contexts.14
	.cfi_startproc
# %bb.0:                                # %entry
	pushq	%rbp
	.cfi_def_cfa_offset 16
	.cfi_offset %rbp, -16
	movq	%rsp, %rbp
	.cfi_def_cfa_register %rbp
	subq	$16, %rsp
	movl	$63614755, -12(%rbp)    # imm = 0x3CAAF23
	movl	%edi, -16(%rbp)
	cmpl	$0, -16(%rbp)
	je	.LBB21_10
# %bb.1:                                # %if.then
	movl	$0, -4(%rbp)
.LBB21_2:                               # %for.cond
                                        # =>This Loop Header: Depth=1
                                        #     Child Loop BB21_4 Depth 2
	cmpl	$4, -4(%rbp)
	jge	.LBB21_9
# %bb.3:                                # %for.body
                                        #   in Loop: Header=BB21_2 Depth=1
	movl	$0, -8(%rbp)
.LBB21_4:                               # %for.cond1
                                        #   Parent Loop BB21_2 Depth=1
                                        # =>  This Inner Loop Header: Depth=2
	movl	-8(%rbp), %eax
	cmpl	number_of_slices, %eax
	jge	.LBB21_7
# %bb.5:                                # %for.body3
                                        #   in Loop: Header=BB21_4 Depth=2
	movq	initialized, %rax
	movq	8(%rax), %rax
	movslq	-4(%rbp), %rcx
	movq	(%rax,%rcx,8), %rax
	movl	-8(%rbp), %ecx
	sarl	$1, %ecx
	movslq	%ecx, %rcx
	movl	(%rax,%rcx,4), %eax
	movq	initialized, %rcx
	movq	(%rcx), %rcx
	movslq	-4(%rbp), %rdx
	movq	(%rcx,%rdx,8), %rcx
	movslq	-8(%rbp), %rdx
	movl	%eax, (%rcx,%rdx,4)
	movq	model_number, %rax
	movq	8(%rax), %rax
	movslq	-4(%rbp), %rcx
	movq	(%rax,%rcx,8), %rax
	movl	-8(%rbp), %ecx
	sarl	$1, %ecx
	movslq	%ecx, %rcx
	movl	(%rax,%rcx,4), %eax
	movq	model_number, %rcx
	movq	(%rcx), %rcx
	movslq	-4(%rbp), %rdx
	movq	(%rcx,%rdx,8), %rcx
	movslq	-8(%rbp), %rdx
	movl	%eax, (%rcx,%rdx,4)
# %bb.6:                                # %for.inc
                                        #   in Loop: Header=BB21_4 Depth=2
	movl	-8(%rbp), %eax
	addl	$1, %eax
	movl	%eax, -8(%rbp)
	jmp	.LBB21_4
.LBB21_7:                               # %for.end
                                        #   in Loop: Header=BB21_2 Depth=1
	jmp	.LBB21_8
.LBB21_8:                               # %for.inc23
                                        #   in Loop: Header=BB21_2 Depth=1
	movl	-4(%rbp), %eax
	addl	$1, %eax
	movl	%eax, -4(%rbp)
	jmp	.LBB21_2
.LBB21_9:                               # %for.end25
	jmp	.LBB21_19
.LBB21_10:                              # %if.else
	movl	$0, -4(%rbp)
.LBB21_11:                              # %for.cond26
                                        # =>This Loop Header: Depth=1
                                        #     Child Loop BB21_13 Depth 2
	cmpl	$4, -4(%rbp)
	jge	.LBB21_18
# %bb.12:                               # %for.body28
                                        #   in Loop: Header=BB21_11 Depth=1
	movl	$0, -8(%rbp)
.LBB21_13:                              # %for.cond29
                                        #   Parent Loop BB21_11 Depth=1
                                        # =>  This Inner Loop Header: Depth=2
	movl	-8(%rbp), %eax
	movl	number_of_slices, %ecx
	addl	$1, %ecx
	sarl	$1, %ecx
	cmpl	%ecx, %eax
	jge	.LBB21_16
# %bb.14:                               # %for.body32
                                        #   in Loop: Header=BB21_13 Depth=2
	movq	initialized, %rax
	movq	(%rax), %rax
	movslq	-4(%rbp), %rcx
	movq	(%rax,%rcx,8), %rax
	movl	-8(%rbp), %ecx
	shll	$1, %ecx
	movslq	%ecx, %rcx
	movl	(%rax,%rcx,4), %eax
	movq	initialized, %rcx
	movq	8(%rcx), %rcx
	movslq	-4(%rbp), %rdx
	movq	(%rcx,%rdx,8), %rcx
	movslq	-8(%rbp), %rdx
	movl	%eax, (%rcx,%rdx,4)
	movq	model_number, %rax
	movq	(%rax), %rax
	movslq	-4(%rbp), %rcx
	movq	(%rax,%rcx,8), %rax
	movl	-8(%rbp), %ecx
	shll	$1, %ecx
	movslq	%ecx, %rcx
	movl	(%rax,%rcx,4), %eax
	movq	model_number, %rcx
	movq	8(%rcx), %rcx
	movslq	-4(%rbp), %rdx
	movq	(%rcx,%rdx,8), %rcx
	movslq	-8(%rbp), %rdx
	movl	%eax, (%rcx,%rdx,4)
# %bb.15:                               # %for.inc54
                                        #   in Loop: Header=BB21_13 Depth=2
	movl	-8(%rbp), %eax
	addl	$1, %eax
	movl	%eax, -8(%rbp)
	jmp	.LBB21_13
.LBB21_16:                              # %for.end56
                                        #   in Loop: Header=BB21_11 Depth=1
	jmp	.LBB21_17
.LBB21_17:                              # %for.inc57
                                        #   in Loop: Header=BB21_11 Depth=1
	movl	-4(%rbp), %eax
	addl	$1, %eax
	movl	%eax, -4(%rbp)
	jmp	.LBB21_11
.LBB21_18:                              # %for.end59
	jmp	.LBB21_19
.LBB21_19:                              # %if.end
	cmpl	$63614755, -12(%rbp)    # imm = 0x3CAAF23
	jne	.LBB21_21
.LBB21_20:
	addq	$16, %rsp
	popq	%rbp
	.cfi_def_cfa %rsp, 8
	retq
.LBB21_21:                              # %func_exit
	.cfi_def_cfa %rbp, 16
	callq	detect_breach
	jmp	.LBB21_20
.Lfunc_end21:
	.size	update_field_frame_contexts.14, .Lfunc_end21-update_field_frame_contexts.14
	.cfi_endproc
                                        # -- End function
	.globl	update_field_frame_contexts.15 # -- Begin function update_field_frame_contexts.15
	.p2align	4, 0x90
	.type	update_field_frame_contexts.15,@function
update_field_frame_contexts.15:         # @update_field_frame_contexts.15
	.cfi_startproc
# %bb.0:                                # %entry
	pushq	%rbp
	.cfi_def_cfa_offset 16
	.cfi_offset %rbp, -16
	movq	%rsp, %rbp
	.cfi_def_cfa_register %rbp
	subq	$16, %rsp
	movl	$2024816673, -16(%rbp)  # imm = 0x78B04021
	movl	%edi, -12(%rbp)
	cmpl	$0, -12(%rbp)
	je	.LBB22_10
# %bb.1:                                # %if.then
	movl	$0, -8(%rbp)
.LBB22_2:                               # %for.cond
                                        # =>This Loop Header: Depth=1
                                        #     Child Loop BB22_4 Depth 2
	cmpl	$4, -8(%rbp)
	jge	.LBB22_9
# %bb.3:                                # %for.body
                                        #   in Loop: Header=BB22_2 Depth=1
	movl	$0, -4(%rbp)
.LBB22_4:                               # %for.cond1
                                        #   Parent Loop BB22_2 Depth=1
                                        # =>  This Inner Loop Header: Depth=2
	movl	-4(%rbp), %eax
	cmpl	number_of_slices, %eax
	jge	.LBB22_7
# %bb.5:                                # %for.body3
                                        #   in Loop: Header=BB22_4 Depth=2
	movq	initialized, %rax
	movq	8(%rax), %rax
	movslq	-8(%rbp), %rcx
	movq	(%rax,%rcx,8), %rax
	movl	-4(%rbp), %ecx
	sarl	$1, %ecx
	movslq	%ecx, %rcx
	movl	(%rax,%rcx,4), %eax
	movq	initialized, %rcx
	movq	(%rcx), %rcx
	movslq	-8(%rbp), %rdx
	movq	(%rcx,%rdx,8), %rcx
	movslq	-4(%rbp), %rdx
	movl	%eax, (%rcx,%rdx,4)
	movq	model_number, %rax
	movq	8(%rax), %rax
	movslq	-8(%rbp), %rcx
	movq	(%rax,%rcx,8), %rax
	movl	-4(%rbp), %ecx
	sarl	$1, %ecx
	movslq	%ecx, %rcx
	movl	(%rax,%rcx,4), %eax
	movq	model_number, %rcx
	movq	(%rcx), %rcx
	movslq	-8(%rbp), %rdx
	movq	(%rcx,%rdx,8), %rcx
	movslq	-4(%rbp), %rdx
	movl	%eax, (%rcx,%rdx,4)
# %bb.6:                                # %for.inc
                                        #   in Loop: Header=BB22_4 Depth=2
	movl	-4(%rbp), %eax
	addl	$1, %eax
	movl	%eax, -4(%rbp)
	jmp	.LBB22_4
.LBB22_7:                               # %for.end
                                        #   in Loop: Header=BB22_2 Depth=1
	jmp	.LBB22_8
.LBB22_8:                               # %for.inc23
                                        #   in Loop: Header=BB22_2 Depth=1
	movl	-8(%rbp), %eax
	addl	$1, %eax
	movl	%eax, -8(%rbp)
	jmp	.LBB22_2
.LBB22_9:                               # %for.end25
	jmp	.LBB22_19
.LBB22_10:                              # %if.else
	movl	$0, -8(%rbp)
.LBB22_11:                              # %for.cond26
                                        # =>This Loop Header: Depth=1
                                        #     Child Loop BB22_13 Depth 2
	cmpl	$4, -8(%rbp)
	jge	.LBB22_18
# %bb.12:                               # %for.body28
                                        #   in Loop: Header=BB22_11 Depth=1
	movl	$0, -4(%rbp)
.LBB22_13:                              # %for.cond29
                                        #   Parent Loop BB22_11 Depth=1
                                        # =>  This Inner Loop Header: Depth=2
	movl	-4(%rbp), %eax
	movl	number_of_slices, %ecx
	addl	$1, %ecx
	sarl	$1, %ecx
	cmpl	%ecx, %eax
	jge	.LBB22_16
# %bb.14:                               # %for.body32
                                        #   in Loop: Header=BB22_13 Depth=2
	movq	initialized, %rax
	movq	(%rax), %rax
	movslq	-8(%rbp), %rcx
	movq	(%rax,%rcx,8), %rax
	movl	-4(%rbp), %ecx
	shll	$1, %ecx
	movslq	%ecx, %rcx
	movl	(%rax,%rcx,4), %eax
	movq	initialized, %rcx
	movq	8(%rcx), %rcx
	movslq	-8(%rbp), %rdx
	movq	(%rcx,%rdx,8), %rcx
	movslq	-4(%rbp), %rdx
	movl	%eax, (%rcx,%rdx,4)
	movq	model_number, %rax
	movq	(%rax), %rax
	movslq	-8(%rbp), %rcx
	movq	(%rax,%rcx,8), %rax
	movl	-4(%rbp), %ecx
	shll	$1, %ecx
	movslq	%ecx, %rcx
	movl	(%rax,%rcx,4), %eax
	movq	model_number, %rcx
	movq	8(%rcx), %rcx
	movslq	-8(%rbp), %rdx
	movq	(%rcx,%rdx,8), %rcx
	movslq	-4(%rbp), %rdx
	movl	%eax, (%rcx,%rdx,4)
# %bb.15:                               # %for.inc54
                                        #   in Loop: Header=BB22_13 Depth=2
	movl	-4(%rbp), %eax
	addl	$1, %eax
	movl	%eax, -4(%rbp)
	jmp	.LBB22_13
.LBB22_16:                              # %for.end56
                                        #   in Loop: Header=BB22_11 Depth=1
	jmp	.LBB22_17
.LBB22_17:                              # %for.inc57
                                        #   in Loop: Header=BB22_11 Depth=1
	movl	-8(%rbp), %eax
	addl	$1, %eax
	movl	%eax, -8(%rbp)
	jmp	.LBB22_11
.LBB22_18:                              # %for.end59
	jmp	.LBB22_19
.LBB22_19:                              # %if.end
	cmpl	$2024816673, -16(%rbp)  # imm = 0x78B04021
	jne	.LBB22_21
.LBB22_20:
	addq	$16, %rsp
	popq	%rbp
	.cfi_def_cfa %rsp, 8
	retq
.LBB22_21:                              # %func_exit
	.cfi_def_cfa %rbp, 16
	callq	detect_breach
	jmp	.LBB22_20
.Lfunc_end22:
	.size	update_field_frame_contexts.15, .Lfunc_end22-update_field_frame_contexts.15
	.cfi_endproc
                                        # -- End function
	.globl	init_contexts.16        # -- Begin function init_contexts.16
	.p2align	4, 0x90
	.type	init_contexts.16,@function
init_contexts.16:                       # @init_contexts.16
	.cfi_startproc
# %bb.0:                                # %entry
	pushq	%rbp
	.cfi_def_cfa_offset 16
	.cfi_offset %rbp, -16
	movq	%rsp, %rbp
	.cfi_def_cfa_register %rbp
	subq	$32, %rsp
	movl	$2028728253, -28(%rbp)  # imm = 0x78EBEFBD
	movq	img, %rax
	movq	14160(%rax), %rax
	movq	32(%rax), %rax
	movq	%rax, -24(%rbp)
	movq	img, %rax
	movq	14160(%rax), %rax
	movq	40(%rax), %rax
	movq	%rax, -16(%rbp)
	movl	$0, -8(%rbp)
.LBB23_1:                               # %for.cond
                                        # =>This Loop Header: Depth=1
                                        #     Child Loop BB23_3 Depth 2
	cmpl	$3, -8(%rbp)
	jge	.LBB23_11
# %bb.2:                                # %for.body
                                        #   in Loop: Header=BB23_1 Depth=1
	movl	$0, -4(%rbp)
.LBB23_3:                               # %for.cond2
                                        #   Parent Loop BB23_1 Depth=1
                                        # =>  This Inner Loop Header: Depth=2
	cmpl	$11, -4(%rbp)
	jge	.LBB23_9
# %bb.4:                                # %for.body4
                                        #   in Loop: Header=BB23_3 Depth=2
	movq	img, %rax
	cmpl	$2, 24(%rax)
	jne	.LBB23_6
# %bb.5:                                # %if.then
                                        #   in Loop: Header=BB23_3 Depth=2
	movq	-24(%rbp), %rdi
	movslq	-8(%rbp), %rax
	imulq	$176, %rax, %rax
	addq	%rax, %rdi
	movslq	-4(%rbp), %rax
	shlq	$4, %rax
	addq	%rax, %rdi
	movq	img, %rax
	movslq	72520(%rax), %rax
	imulq	$264, %rax, %rax        # imm = 0x108
	movabsq	$INIT_MB_TYPE_I, %rsi
	addq	%rax, %rsi
	movslq	-8(%rbp), %rax
	imulq	$88, %rax, %rax
	addq	%rax, %rsi
	movslq	-4(%rbp), %rax
	shlq	$3, %rax
	addq	%rax, %rsi
	callq	biari_init_context
	jmp	.LBB23_7
.LBB23_6:                               # %if.else
                                        #   in Loop: Header=BB23_3 Depth=2
	movq	-24(%rbp), %rdi
	movslq	-8(%rbp), %rax
	imulq	$176, %rax, %rax
	addq	%rax, %rdi
	movslq	-4(%rbp), %rax
	shlq	$4, %rax
	addq	%rax, %rdi
	movq	img, %rax
	movslq	72520(%rax), %rax
	imulq	$264, %rax, %rax        # imm = 0x108
	movabsq	$INIT_MB_TYPE_P, %rsi
	addq	%rax, %rsi
	movslq	-8(%rbp), %rax
	imulq	$88, %rax, %rax
	addq	%rax, %rsi
	movslq	-4(%rbp), %rax
	shlq	$3, %rax
	addq	%rax, %rsi
	callq	biari_init_context
.LBB23_7:                               # %if.end
                                        #   in Loop: Header=BB23_3 Depth=2
	jmp	.LBB23_8
.LBB23_8:                               # %for.inc
                                        #   in Loop: Header=BB23_3 Depth=2
	movl	-4(%rbp), %eax
	addl	$1, %eax
	movl	%eax, -4(%rbp)
	jmp	.LBB23_3
.LBB23_9:                               # %for.end
                                        #   in Loop: Header=BB23_1 Depth=1
	jmp	.LBB23_10
.LBB23_10:                              # %for.inc28
                                        #   in Loop: Header=BB23_1 Depth=1
	movl	-8(%rbp), %eax
	addl	$1, %eax
