	.text
	.file	"decoder.c"
	.globl	decode_one_b8block      # -- Begin function decode_one_b8block
	.p2align	4, 0x90
	.type	decode_one_b8block,@function
decode_one_b8block:                     # @decode_one_b8block
	.cfi_startproc
# %bb.0:                                # %rand_bb
	pushq	%rbp
	.cfi_def_cfa_offset 16
	.cfi_offset %rbp, -16
	movq	%rsp, %rbp
	.cfi_def_cfa_register %rbp
	pushq	%r15
	pushq	%r14
	pushq	%r13
	pushq	%r12
	pushq	%rbx
	pushq	%rax
	.cfi_offset %rbx, -56
	.cfi_offset %r12, -48
	.cfi_offset %r13, -40
	.cfi_offset %r14, -32
	.cfi_offset %r15, -24
	movl	%r8d, %r14d
	movl	%ecx, %r15d
	movl	%edx, %r12d
	movl	%esi, %r13d
	movl	%edi, %ebx
	callq	get_urand
	cmpl	$0, %eax
	jne	.LBB0_17
# %bb.1:                                # %func_decode_one_b8block.8
	movl	%ebx, %edi
	movl	%r13d, %esi
	movl	%r12d, %edx
	movl	%r15d, %ecx
	movl	%r14d, %r8d
	callq	decode_one_b8block.8
	addq	$8, %rsp
	popq	%rbx
	popq	%r12
	popq	%r13
	popq	%r14
	popq	%r15
	popq	%rbp
	.cfi_def_cfa %rsp, 8
	retq
.LBB0_2:                                # %func_decode_one_b8block.24
	.cfi_def_cfa %rbp, 16
	movl	%ebx, %edi
	movl	%r13d, %esi
	movl	%r12d, %edx
	movl	%r15d, %ecx
	movl	%r14d, %r8d
	callq	decode_one_b8block.24
	addq	$8, %rsp
	popq	%rbx
	popq	%r12
	popq	%r13
	popq	%r14
	popq	%r15
	popq	%rbp
	.cfi_def_cfa %rsp, 8
	retq
.LBB0_3:                                # %func_decode_one_b8block.28
	.cfi_def_cfa %rbp, 16
	movl	%ebx, %edi
	movl	%r13d, %esi
	movl	%r12d, %edx
	movl	%r15d, %ecx
	movl	%r14d, %r8d
	callq	decode_one_b8block.28
	addq	$8, %rsp
	popq	%rbx
	popq	%r12
	popq	%r13
	popq	%r14
	popq	%r15
	popq	%rbp
	.cfi_def_cfa %rsp, 8
	retq
.LBB0_4:                                # %func_decode_one_b8block.43
	.cfi_def_cfa %rbp, 16
	movl	%ebx, %edi
	movl	%r13d, %esi
	movl	%r12d, %edx
	movl	%r15d, %ecx
	movl	%r14d, %r8d
	callq	decode_one_b8block.43
	addq	$8, %rsp
	popq	%rbx
	popq	%r12
	popq	%r13
	popq	%r14
	popq	%r15
	popq	%rbp
	.cfi_def_cfa %rsp, 8
	retq
.LBB0_5:                                # %func_decode_one_b8block.45
	.cfi_def_cfa %rbp, 16
	movl	%ebx, %edi
	movl	%r13d, %esi
	movl	%r12d, %edx
	movl	%r15d, %ecx
	movl	%r14d, %r8d
	callq	decode_one_b8block.45
	addq	$8, %rsp
	popq	%rbx
	popq	%r12
	popq	%r13
	popq	%r14
	popq	%r15
	popq	%rbp
	.cfi_def_cfa %rsp, 8
	retq
.LBB0_6:                                # %func_decode_one_b8block.53
	.cfi_def_cfa %rbp, 16
	movl	%ebx, %edi
	movl	%r13d, %esi
	movl	%r12d, %edx
	movl	%r15d, %ecx
	movl	%r14d, %r8d
	callq	decode_one_b8block.53
	addq	$8, %rsp
	popq	%rbx
	popq	%r12
	popq	%r13
	popq	%r14
	popq	%r15
	popq	%rbp
	.cfi_def_cfa %rsp, 8
	retq
.LBB0_7:                                # %func_decode_one_b8block.59
	.cfi_def_cfa %rbp, 16
	movl	%ebx, %edi
	movl	%r13d, %esi
	movl	%r12d, %edx
	movl	%r15d, %ecx
	movl	%r14d, %r8d
	callq	decode_one_b8block.59
	addq	$8, %rsp
	popq	%rbx
	popq	%r12
	popq	%r13
	popq	%r14
	popq	%r15
	popq	%rbp
	.cfi_def_cfa %rsp, 8
	retq
.LBB0_8:                                # %func_decode_one_b8block.66
	.cfi_def_cfa %rbp, 16
	movl	%ebx, %edi
	movl	%r13d, %esi
	movl	%r12d, %edx
	movl	%r15d, %ecx
	movl	%r14d, %r8d
	callq	decode_one_b8block.66
	addq	$8, %rsp
	popq	%rbx
	popq	%r12
	popq	%r13
	popq	%r14
	popq	%r15
	popq	%rbp
	.cfi_def_cfa %rsp, 8
	retq
.LBB0_9:                                # %func_decode_one_b8block.73
	.cfi_def_cfa %rbp, 16
	movl	%ebx, %edi
	movl	%r13d, %esi
	movl	%r12d, %edx
	movl	%r15d, %ecx
	movl	%r14d, %r8d
	callq	decode_one_b8block.73
	addq	$8, %rsp
	popq	%rbx
	popq	%r12
	popq	%r13
	popq	%r14
	popq	%r15
	popq	%rbp
	.cfi_def_cfa %rsp, 8
	retq
.LBB0_10:                               # %func_decode_one_b8block.75
	.cfi_def_cfa %rbp, 16
	movl	%ebx, %edi
	movl	%r13d, %esi
	movl	%r12d, %edx
	movl	%r15d, %ecx
	movl	%r14d, %r8d
	callq	decode_one_b8block.75
	addq	$8, %rsp
	popq	%rbx
	popq	%r12
	popq	%r13
	popq	%r14
	popq	%r15
	popq	%rbp
	.cfi_def_cfa %rsp, 8
	retq
.LBB0_11:                               # %func_decode_one_b8block.79
	.cfi_def_cfa %rbp, 16
	movl	%ebx, %edi
	movl	%r13d, %esi
	movl	%r12d, %edx
	movl	%r15d, %ecx
	movl	%r14d, %r8d
	callq	decode_one_b8block.79
	addq	$8, %rsp
	popq	%rbx
	popq	%r12
	popq	%r13
	popq	%r14
	popq	%r15
	popq	%rbp
	.cfi_def_cfa %rsp, 8
	retq
.LBB0_12:                               # %func_decode_one_b8block.82
	.cfi_def_cfa %rbp, 16
	movl	%ebx, %edi
	movl	%r13d, %esi
	movl	%r12d, %edx
	movl	%r15d, %ecx
	movl	%r14d, %r8d
	callq	decode_one_b8block.82
	addq	$8, %rsp
	popq	%rbx
	popq	%r12
	popq	%r13
	popq	%r14
	popq	%r15
	popq	%rbp
	.cfi_def_cfa %rsp, 8
	retq
.LBB0_13:                               # %func_decode_one_b8block.84
	.cfi_def_cfa %rbp, 16
	movl	%ebx, %edi
	movl	%r13d, %esi
	movl	%r12d, %edx
	movl	%r15d, %ecx
	movl	%r14d, %r8d
	callq	decode_one_b8block.84
	addq	$8, %rsp
	popq	%rbx
	popq	%r12
	popq	%r13
	popq	%r14
	popq	%r15
	popq	%rbp
	.cfi_def_cfa %rsp, 8
	retq
.LBB0_14:                               # %func_decode_one_b8block.86
	.cfi_def_cfa %rbp, 16
	movl	%ebx, %edi
	movl	%r13d, %esi
	movl	%r12d, %edx
	movl	%r15d, %ecx
	movl	%r14d, %r8d
	callq	decode_one_b8block.86
	addq	$8, %rsp
	popq	%rbx
	popq	%r12
	popq	%r13
	popq	%r14
	popq	%r15
	popq	%rbp
	.cfi_def_cfa %rsp, 8
	retq
.LBB0_15:                               # %func_decode_one_b8block.87
	.cfi_def_cfa %rbp, 16
	movl	%ebx, %edi
	movl	%r13d, %esi
	movl	%r12d, %edx
	movl	%r15d, %ecx
	movl	%r14d, %r8d
	callq	decode_one_b8block.87
	addq	$8, %rsp
	popq	%rbx
	popq	%r12
	popq	%r13
	popq	%r14
	popq	%r15
	popq	%rbp
	.cfi_def_cfa %rsp, 8
	retq
.LBB0_16:                               # %func_decode_one_b8block.98
	.cfi_def_cfa %rbp, 16
	movl	%ebx, %edi
	movl	%r13d, %esi
	movl	%r12d, %edx
	movl	%r15d, %ecx
	movl	%r14d, %r8d
	callq	decode_one_b8block.98
	addq	$8, %rsp
	popq	%rbx
	popq	%r12
	popq	%r13
	popq	%r14
	popq	%r15
	popq	%rbp
	.cfi_def_cfa %rsp, 8
	retq
.LBB0_17:                               # %ctrl0
	.cfi_def_cfa %rbp, 16
	cmpl	$1, %eax
	je	.LBB0_2
# %bb.18:                               # %ctrl1
	cmpl	$2, %eax
	je	.LBB0_3
# %bb.19:                               # %ctrl2
	cmpl	$3, %eax
	je	.LBB0_4
# %bb.20:                               # %ctrl3
	cmpl	$4, %eax
	je	.LBB0_5
# %bb.21:                               # %ctrl4
	cmpl	$5, %eax
	je	.LBB0_6
# %bb.22:                               # %ctrl5
	cmpl	$6, %eax
	je	.LBB0_7
# %bb.23:                               # %ctrl6
	cmpl	$7, %eax
	je	.LBB0_8
# %bb.24:                               # %ctrl7
	cmpl	$8, %eax
	je	.LBB0_9
# %bb.25:                               # %ctrl8
	cmpl	$9, %eax
	je	.LBB0_10
# %bb.26:                               # %ctrl9
	cmpl	$10, %eax
	je	.LBB0_11
# %bb.27:                               # %ctrl10
	cmpl	$11, %eax
	je	.LBB0_12
# %bb.28:                               # %ctrl11
	cmpl	$12, %eax
	je	.LBB0_13
# %bb.29:                               # %ctrl12
	cmpl	$13, %eax
	je	.LBB0_14
# %bb.30:                               # %ctrl13
	cmpl	$14, %eax
	je	.LBB0_15
	jmp	.LBB0_16
.Lfunc_end0:
	.size	decode_one_b8block, .Lfunc_end0-decode_one_b8block
	.cfi_endproc
                                        # -- End function
	.globl	Get_Reference_Block     # -- Begin function Get_Reference_Block
	.p2align	4, 0x90
	.type	Get_Reference_Block,@function
Get_Reference_Block:                    # @Get_Reference_Block
	.cfi_startproc
# %bb.0:                                # %rand_bb
	pushq	%rbp
	.cfi_def_cfa_offset 16
	.cfi_offset %rbp, -16
	movq	%rsp, %rbp
	.cfi_def_cfa_register %rbp
	pushq	%r15
	pushq	%r14
	pushq	%r13
	pushq	%r12
	pushq	%rbx
	pushq	%rax
	.cfi_offset %rbx, -56
	.cfi_offset %r12, -48
	.cfi_offset %r13, -40
	.cfi_offset %r14, -32
	.cfi_offset %r15, -24
	movq	%r9, -48(%rbp)          # 8-byte Spill
	movl	%r8d, %r12d
	movl	%ecx, %r13d
	movl	%edx, %ebx
	movl	%esi, %r14d
	movq	%rdi, %r15
	callq	get_urand
	cmpl	$0, %eax
	jne	.LBB1_17
# %bb.1:                                # %func_Get_Reference_Block.5
	movq	%r15, %rdi
	movl	%r14d, %esi
	movl	%ebx, %edx
	movl	%r13d, %ecx
	movl	%r12d, %r8d
	movq	-48(%rbp), %r9          # 8-byte Reload
	callq	Get_Reference_Block.5
	addq	$8, %rsp
	popq	%rbx
	popq	%r12
	popq	%r13
	popq	%r14
	popq	%r15
	popq	%rbp
	.cfi_def_cfa %rsp, 8
	retq
.LBB1_2:                                # %func_Get_Reference_Block.32
	.cfi_def_cfa %rbp, 16
	movl	%r13d, %ecx
	movl	%r11d, %r8d
	movq	%r10, %r9
	callq	Get_Reference_Block.32
	addq	$8, %rsp
	popq	%rbx
	popq	%r12
	popq	%r13
	popq	%r14
	popq	%r15
	popq	%rbp
	.cfi_def_cfa %rsp, 8
	retq
.LBB1_3:                                # %func_Get_Reference_Block.38
	.cfi_def_cfa %rbp, 16
	movq	%rbx, %rdi
	movl	%r14d, %esi
	movl	%r12d, %edx
	movl	%r15d, %ecx
	callq	Get_Reference_Block.38
	addq	$8, %rsp
	popq	%rbx
	popq	%r12
	popq	%r13
	popq	%r14
	popq	%r15
	popq	%rbp
	.cfi_def_cfa %rsp, 8
	retq
.LBB1_4:                                # %func_Get_Reference_Block.40
	.cfi_def_cfa %rbp, 16
	movq	%rbx, %rdi
	movl	%r14d, %esi
	movl	%r12d, %edx
	movl	%r15d, %ecx
	callq	Get_Reference_Block.40
	addq	$8, %rsp
	popq	%rbx
	popq	%r12
	popq	%r13
	popq	%r14
	popq	%r15
	popq	%rbp
	.cfi_def_cfa %rsp, 8
	retq
.LBB1_5:                                # %func_Get_Reference_Block.41
	.cfi_def_cfa %rbp, 16
	movq	%rbx, %rdi
	movl	%r14d, %esi
	movl	%r12d, %edx
	movl	%r15d, %ecx
	callq	Get_Reference_Block.41
	addq	$8, %rsp
	popq	%rbx
	popq	%r12
	popq	%r13
	popq	%r14
	popq	%r15
	popq	%rbp
	.cfi_def_cfa %rsp, 8
	retq
.LBB1_6:                                # %func_Get_Reference_Block.60
	.cfi_def_cfa %rbp, 16
	movq	%rbx, %rdi
	movl	%r14d, %esi
	movl	%r12d, %edx
	movl	%r15d, %ecx
	callq	Get_Reference_Block.60
	addq	$8, %rsp
	popq	%rbx
	popq	%r12
	popq	%r13
	popq	%r14
	popq	%r15
	popq	%rbp
	.cfi_def_cfa %rsp, 8
	retq
.LBB1_7:                                # %func_Get_Reference_Block.61
	.cfi_def_cfa %rbp, 16
	movq	%rbx, %rdi
	movl	%r14d, %esi
	movl	%r12d, %edx
	movl	%r15d, %ecx
	callq	Get_Reference_Block.61
	addq	$8, %rsp
	popq	%rbx
	popq	%r12
	popq	%r13
	popq	%r14
	popq	%r15
	popq	%rbp
	.cfi_def_cfa %rsp, 8
	retq
.LBB1_8:                                # %func_Get_Reference_Block.76
	.cfi_def_cfa %rbp, 16
	movq	%rbx, %rdi
	movl	%r14d, %esi
	movl	%r12d, %edx
	movl	%r15d, %ecx
	callq	Get_Reference_Block.76
	addq	$8, %rsp
	popq	%rbx
	popq	%r12
	popq	%r13
	popq	%r14
	popq	%r15
	popq	%rbp
	.cfi_def_cfa %rsp, 8
	retq
.LBB1_9:                                # %func_Get_Reference_Block.80
	.cfi_def_cfa %rbp, 16
	movq	%rbx, %rdi
	movl	%r14d, %esi
	movl	%r12d, %edx
	movl	%r15d, %ecx
	callq	Get_Reference_Block.80
	addq	$8, %rsp
	popq	%rbx
	popq	%r12
	popq	%r13
	popq	%r14
	popq	%r15
	popq	%rbp
	.cfi_def_cfa %rsp, 8
	retq
.LBB1_10:                               # %func_Get_Reference_Block.90
	.cfi_def_cfa %rbp, 16
	movq	%rbx, %rdi
	movl	%r14d, %esi
	movl	%r12d, %edx
	movl	%r15d, %ecx
	callq	Get_Reference_Block.90
	addq	$8, %rsp
	popq	%rbx
	popq	%r12
	popq	%r13
	popq	%r14
	popq	%r15
	popq	%rbp
	.cfi_def_cfa %rsp, 8
	retq
.LBB1_11:                               # %func_Get_Reference_Block.101
	.cfi_def_cfa %rbp, 16
	movq	%rbx, %rdi
	movl	%r14d, %esi
	movl	%r12d, %edx
	movl	%r15d, %ecx
	callq	Get_Reference_Block.101
	addq	$8, %rsp
	popq	%rbx
	popq	%r12
	popq	%r13
	popq	%r14
	popq	%r15
	popq	%rbp
	.cfi_def_cfa %rsp, 8
	retq
.LBB1_12:                               # %func_Get_Reference_Block.104
	.cfi_def_cfa %rbp, 16
	movq	%rbx, %rdi
	movl	%r14d, %esi
	movl	%r12d, %edx
	movl	%r15d, %ecx
	callq	Get_Reference_Block.104
	addq	$8, %rsp
	popq	%rbx
	popq	%r12
	popq	%r13
	popq	%r14
	popq	%r15
	popq	%rbp
	.cfi_def_cfa %rsp, 8
	retq
.LBB1_13:                               # %func_Get_Reference_Block.108
	.cfi_def_cfa %rbp, 16
	movq	%rbx, %rdi
	movl	%r14d, %esi
	movl	%r12d, %edx
	movl	%r15d, %ecx
	callq	Get_Reference_Block.108
	addq	$8, %rsp
	popq	%rbx
	popq	%r12
	popq	%r13
	popq	%r14
	popq	%r15
	popq	%rbp
	.cfi_def_cfa %rsp, 8
	retq
.LBB1_14:                               # %func_Get_Reference_Block.109
	.cfi_def_cfa %rbp, 16
	movq	%rbx, %rdi
	movl	%r14d, %esi
	movl	%r12d, %edx
	movl	%r15d, %ecx
	callq	Get_Reference_Block.109
	addq	$8, %rsp
	popq	%rbx
	popq	%r12
	popq	%r13
	popq	%r14
	popq	%r15
	popq	%rbp
	.cfi_def_cfa %rsp, 8
	retq
.LBB1_15:                               # %func_Get_Reference_Block.112
	.cfi_def_cfa %rbp, 16
	movl	%r13d, %ecx
	movl	%r11d, %r8d
	movq	%r10, %r9
	callq	Get_Reference_Block.112
	addq	$8, %rsp
	popq	%rbx
	popq	%r12
	popq	%r13
	popq	%r14
	popq	%r15
	popq	%rbp
	.cfi_def_cfa %rsp, 8
	retq
.LBB1_16:                               # %func_Get_Reference_Block.119
	.cfi_def_cfa %rbp, 16
	movl	%r13d, %ecx
	movl	%r11d, %r8d
	movq	%r10, %r9
	callq	Get_Reference_Block.119
	addq	$8, %rsp
	popq	%rbx
	popq	%r12
	popq	%r13
	popq	%r14
	popq	%r15
	popq	%rbp
	.cfi_def_cfa %rsp, 8
	retq
.LBB1_17:                               # %ctrl0
	.cfi_def_cfa %rbp, 16
	movq	%r15, %rdi
	movl	%r14d, %esi
	movl	%ebx, %edx
	movl	%r12d, %r11d
	movq	-48(%rbp), %r10         # 8-byte Reload
	cmpl	$1, %eax
	je	.LBB1_2
# %bb.18:                               # %ctrl1
	cmpl	$2, %eax
	movq	%r10, %r9
	movl	%r11d, %r8d
	movl	%r13d, %r15d
	movl	%edx, %r12d
	movl	%esi, %r14d
	movq	%rdi, %rbx
	je	.LBB1_3
# %bb.19:                               # %ctrl2
	cmpl	$3, %eax
	je	.LBB1_4
# %bb.20:                               # %ctrl3
	cmpl	$4, %eax
	je	.LBB1_5
# %bb.21:                               # %ctrl4
	cmpl	$5, %eax
	je	.LBB1_6
# %bb.22:                               # %ctrl5
	cmpl	$6, %eax
	je	.LBB1_7
# %bb.23:                               # %ctrl6
	cmpl	$7, %eax
	je	.LBB1_8
# %bb.24:                               # %ctrl7
	cmpl	$8, %eax
	je	.LBB1_9
# %bb.25:                               # %ctrl8
	cmpl	$9, %eax
	je	.LBB1_10
# %bb.26:                               # %ctrl9
	cmpl	$10, %eax
	je	.LBB1_11
# %bb.27:                               # %ctrl10
	cmpl	$11, %eax
	je	.LBB1_12
# %bb.28:                               # %ctrl11
	cmpl	$12, %eax
	je	.LBB1_13
# %bb.29:                               # %ctrl12
	cmpl	$13, %eax
	je	.LBB1_14
# %bb.30:                               # %ctrl13
	cmpl	$14, %eax
	je	.LBB1_15
	jmp	.LBB1_16
.Lfunc_end1:
	.size	Get_Reference_Block, .Lfunc_end1-Get_Reference_Block
	.cfi_endproc
                                        # -- End function
	.globl	decode_one_mb           # -- Begin function decode_one_mb
	.p2align	4, 0x90
	.type	decode_one_mb,@function
decode_one_mb:                          # @decode_one_mb
	.cfi_startproc
# %bb.0:                                # %rand_bb
	pushq	%rbp
	.cfi_def_cfa_offset 16
	.cfi_offset %rbp, -16
	movq	%rsp, %rbp
	.cfi_def_cfa_register %rbp
	pushq	%r14
	pushq	%rbx
	.cfi_offset %rbx, -32
	.cfi_offset %r14, -24
	movq	%rsi, %r14
	movl	%edi, %ebx
	callq	get_urand
	cmpl	$0, %eax
	jne	.LBB2_2
# %bb.1:                                # %func_decode_one_mb.10
	movl	%ebx, %edi
	movq	%r14, %rsi
	callq	decode_one_mb.10
	popq	%rbx
	popq	%r14
	popq	%rbp
	.cfi_def_cfa %rsp, 8
	retq
.LBB2_2:                                # %func_decode_one_mb.15
	.cfi_def_cfa %rbp, 16
	movl	%ebx, %edi
	movq	%r14, %rsi
	callq	decode_one_mb.15
	popq	%rbx
	popq	%r14
	popq	%rbp
	.cfi_def_cfa %rsp, 8
	retq
.Lfunc_end2:
	.size	decode_one_mb, .Lfunc_end2-decode_one_mb
	.cfi_endproc
                                        # -- End function
	.globl	Get_Reference_Pixel     # -- Begin function Get_Reference_Pixel
	.p2align	4, 0x90
	.type	Get_Reference_Pixel,@function
Get_Reference_Pixel:                    # @Get_Reference_Pixel
	.cfi_startproc
# %bb.0:                                # %rand_bb
	pushq	%rbp
	.cfi_def_cfa_offset 16
	.cfi_offset %rbp, -16
	movq	%rsp, %rbp
	.cfi_def_cfa_register %rbp
	pushq	%r15
	pushq	%r14
	pushq	%rbx
	pushq	%rax
	.cfi_offset %rbx, -40
	.cfi_offset %r14, -32
	.cfi_offset %r15, -24
	movl	%edx, %r14d
	movl	%esi, %r15d
	movq	%rdi, %rbx
	callq	get_urand
	cmpl	$0, %eax
	jne	.LBB3_17
# %bb.1:                                # %func_Get_Reference_Pixel.3
	movq	%rbx, %rdi
	movl	%r15d, %esi
	movl	%r14d, %edx
	callq	Get_Reference_Pixel.3
	movzbl	%al, %eax
	addq	$8, %rsp
	popq	%rbx
	popq	%r14
	popq	%r15
	popq	%rbp
	.cfi_def_cfa %rsp, 8
	retq
.LBB3_2:                                # %func_Get_Reference_Pixel.4
	.cfi_def_cfa %rbp, 16
	movq	%rbx, %rdi
	movl	%r15d, %esi
	movl	%r14d, %edx
	callq	Get_Reference_Pixel.4
	movzbl	%al, %eax
	addq	$8, %rsp
	popq	%rbx
	popq	%r14
	popq	%r15
	popq	%rbp
	.cfi_def_cfa %rsp, 8
	retq
.LBB3_3:                                # %func_Get_Reference_Pixel.30
	.cfi_def_cfa %rbp, 16
	movq	%rbx, %rdi
	movl	%r15d, %esi
	movl	%r14d, %edx
	callq	Get_Reference_Pixel.30
	movzbl	%al, %eax
	addq	$8, %rsp
	popq	%rbx
	popq	%r14
	popq	%r15
	popq	%rbp
	.cfi_def_cfa %rsp, 8
	retq
.LBB3_4:                                # %func_Get_Reference_Pixel.37
	.cfi_def_cfa %rbp, 16
	movq	%rbx, %rdi
	movl	%r15d, %esi
	movl	%r14d, %edx
	callq	Get_Reference_Pixel.37
	movzbl	%al, %eax
	addq	$8, %rsp
	popq	%rbx
	popq	%r14
	popq	%r15
	popq	%rbp
	.cfi_def_cfa %rsp, 8
	retq
.LBB3_5:                                # %func_Get_Reference_Pixel.39
	.cfi_def_cfa %rbp, 16
	movq	%rbx, %rdi
	movl	%r15d, %esi
	movl	%r14d, %edx
	callq	Get_Reference_Pixel.39
	movzbl	%al, %eax
	addq	$8, %rsp
	popq	%rbx
	popq	%r14
	popq	%r15
	popq	%rbp
	.cfi_def_cfa %rsp, 8
	retq
.LBB3_6:                                # %func_Get_Reference_Pixel.51
	.cfi_def_cfa %rbp, 16
	movq	%rbx, %rdi
	movl	%r15d, %esi
	movl	%r14d, %edx
	callq	Get_Reference_Pixel.51
	movzbl	%al, %eax
	addq	$8, %rsp
	popq	%rbx
	popq	%r14
	popq	%r15
	popq	%rbp
	.cfi_def_cfa %rsp, 8
	retq
.LBB3_7:                                # %func_Get_Reference_Pixel.64
	.cfi_def_cfa %rbp, 16
	movq	%rbx, %rdi
	movl	%r15d, %esi
	movl	%r14d, %edx
	callq	Get_Reference_Pixel.64
	movzbl	%al, %eax
	addq	$8, %rsp
	popq	%rbx
	popq	%r14
	popq	%r15
	popq	%rbp
	.cfi_def_cfa %rsp, 8
	retq
.LBB3_8:                                # %func_Get_Reference_Pixel.69
	.cfi_def_cfa %rbp, 16
	movq	%rbx, %rdi
	movl	%r15d, %esi
	movl	%r14d, %edx
	callq	Get_Reference_Pixel.69
	movzbl	%al, %eax
	addq	$8, %rsp
	popq	%rbx
	popq	%r14
	popq	%r15
	popq	%rbp
	.cfi_def_cfa %rsp, 8
	retq
.LBB3_9:                                # %func_Get_Reference_Pixel.72
	.cfi_def_cfa %rbp, 16
	movq	%rbx, %rdi
	movl	%r15d, %esi
	movl	%r14d, %edx
	callq	Get_Reference_Pixel.72
	movzbl	%al, %eax
	addq	$8, %rsp
	popq	%rbx
	popq	%r14
	popq	%r15
	popq	%rbp
	.cfi_def_cfa %rsp, 8
	retq
.LBB3_10:                               # %func_Get_Reference_Pixel.97
	.cfi_def_cfa %rbp, 16
	movq	%rbx, %rdi
	movl	%r15d, %esi
	movl	%r14d, %edx
	callq	Get_Reference_Pixel.97
	movzbl	%al, %eax
	addq	$8, %rsp
	popq	%rbx
	popq	%r14
	popq	%r15
	popq	%rbp
	.cfi_def_cfa %rsp, 8
	retq
.LBB3_11:                               # %func_Get_Reference_Pixel.105
	.cfi_def_cfa %rbp, 16
	movq	%rbx, %rdi
	movl	%r15d, %esi
	movl	%r14d, %edx
	callq	Get_Reference_Pixel.105
	movzbl	%al, %eax
	addq	$8, %rsp
	popq	%rbx
	popq	%r14
	popq	%r15
	popq	%rbp
	.cfi_def_cfa %rsp, 8
	retq
.LBB3_12:                               # %func_Get_Reference_Pixel.121
	.cfi_def_cfa %rbp, 16
	movq	%rbx, %rdi
	movl	%r15d, %esi
	movl	%r14d, %edx
	callq	Get_Reference_Pixel.121
	movzbl	%al, %eax
	addq	$8, %rsp
	popq	%rbx
	popq	%r14
	popq	%r15
	popq	%rbp
	.cfi_def_cfa %rsp, 8
	retq
.LBB3_13:                               # %func_Get_Reference_Pixel.124
	.cfi_def_cfa %rbp, 16
	movq	%rbx, %rdi
	movl	%r15d, %esi
	movl	%r14d, %edx
	callq	Get_Reference_Pixel.124
	movzbl	%al, %eax
	addq	$8, %rsp
	popq	%rbx
	popq	%r14
	popq	%r15
	popq	%rbp
	.cfi_def_cfa %rsp, 8
	retq
.LBB3_14:                               # %func_Get_Reference_Pixel.127
	.cfi_def_cfa %rbp, 16
	movq	%rbx, %rdi
	movl	%r15d, %esi
	movl	%r14d, %edx
	callq	Get_Reference_Pixel.127
	movzbl	%al, %eax
	addq	$8, %rsp
	popq	%rbx
	popq	%r14
	popq	%r15
	popq	%rbp
	.cfi_def_cfa %rsp, 8
	retq
.LBB3_15:                               # %func_Get_Reference_Pixel.128
	.cfi_def_cfa %rbp, 16
	movq	%rbx, %rdi
	movl	%r15d, %esi
	movl	%r14d, %edx
	callq	Get_Reference_Pixel.128
	movzbl	%al, %eax
	addq	$8, %rsp
	popq	%rbx
	popq	%r14
	popq	%r15
	popq	%rbp
	.cfi_def_cfa %rsp, 8
	retq
.LBB3_16:                               # %func_Get_Reference_Pixel.130
	.cfi_def_cfa %rbp, 16
	movq	%rbx, %rdi
	movl	%r15d, %esi
	movl	%r14d, %edx
	callq	Get_Reference_Pixel.130
	movzbl	%al, %eax
	addq	$8, %rsp
	popq	%rbx
	popq	%r14
	popq	%r15
	popq	%rbp
	.cfi_def_cfa %rsp, 8
	retq
.LBB3_17:                               # %ctrl0
	.cfi_def_cfa %rbp, 16
	cmpl	$1, %eax
	je	.LBB3_2
# %bb.18:                               # %ctrl1
	cmpl	$2, %eax
	je	.LBB3_3
# %bb.19:                               # %ctrl2
	cmpl	$3, %eax
	je	.LBB3_4
# %bb.20:                               # %ctrl3
	cmpl	$4, %eax
	je	.LBB3_5
# %bb.21:                               # %ctrl4
	cmpl	$5, %eax
	je	.LBB3_6
# %bb.22:                               # %ctrl5
	cmpl	$6, %eax
	je	.LBB3_7
# %bb.23:                               # %ctrl6
	cmpl	$7, %eax
	je	.LBB3_8
# %bb.24:                               # %ctrl7
	cmpl	$8, %eax
	je	.LBB3_9
# %bb.25:                               # %ctrl8
	cmpl	$9, %eax
	je	.LBB3_10
# %bb.26:                               # %ctrl9
	cmpl	$10, %eax
	je	.LBB3_11
# %bb.27:                               # %ctrl10
	cmpl	$11, %eax
	je	.LBB3_12
# %bb.28:                               # %ctrl11
	cmpl	$12, %eax
	je	.LBB3_13
# %bb.29:                               # %ctrl12
	cmpl	$13, %eax
	je	.LBB3_14
# %bb.30:                               # %ctrl13
	cmpl	$14, %eax
	je	.LBB3_15
	jmp	.LBB3_16
.Lfunc_end3:
	.size	Get_Reference_Pixel, .Lfunc_end3-Get_Reference_Pixel
	.cfi_endproc
                                        # -- End function
	.globl	UpdateDecoders          # -- Begin function UpdateDecoders
	.p2align	4, 0x90
	.type	UpdateDecoders,@function
UpdateDecoders:                         # @UpdateDecoders
	.cfi_startproc
# %bb.0:                                # %entry
	pushq	%rbp
	.cfi_def_cfa_offset 16
	.cfi_offset %rbp, -16
	movq	%rsp, %rbp
	.cfi_def_cfa_register %rbp
	subq	$16, %rsp
	movl	$0, -4(%rbp)
.LBB4_1:                                # %for.cond
                                        # =>This Inner Loop Header: Depth=1
	movl	-4(%rbp), %eax
	movq	input, %rcx
	cmpl	2904(%rcx), %eax
	jge	.LBB4_4
# %bb.2:                                # %for.body
                                        #   in Loop: Header=BB4_1 Depth=1
	movq	decs, %rax
	movq	40(%rax), %rdi
	callq	Build_Status_Map
	movq	decs, %rax
	movq	24(%rax), %rax
	movslq	-4(%rbp), %rcx
	movq	(%rax,%rcx,8), %rdi
	movq	decs, %rax
	movq	40(%rax), %rsi
	movq	decs, %rax
	movq	16(%rax), %rax
	movslq	-4(%rbp), %rcx
	movq	(%rax,%rcx,8), %rdx
	callq	Error_Concealment
	movq	decs, %rax
	movq	24(%rax), %rax
	movslq	-4(%rbp), %rcx
	movq	(%rax,%rcx,8), %rdi
	movq	decs, %rax
	movq	16(%rax), %rax
	movslq	-4(%rbp), %rcx
	movq	(%rax,%rcx,8), %rsi
	callq	DecOneForthPix
# %bb.3:                                # %for.inc
                                        #   in Loop: Header=BB4_1 Depth=1
	movl	-4(%rbp), %eax
	addl	$1, %eax
	movl	%eax, -4(%rbp)
	jmp	.LBB4_1
.LBB4_4:                                # %for.end
	addq	$16, %rsp
	popq	%rbp
	.cfi_def_cfa %rsp, 8
	retq
.Lfunc_end4:
	.size	UpdateDecoders, .Lfunc_end4-UpdateDecoders
	.cfi_endproc
                                        # -- End function
	.globl	Build_Status_Map        # -- Begin function Build_Status_Map
	.p2align	4, 0x90
	.type	Build_Status_Map,@function
Build_Status_Map:                       # @Build_Status_Map
	.cfi_startproc
# %bb.0:                                # %rand_bb
	pushq	%rbp
	.cfi_def_cfa_offset 16
	.cfi_offset %rbp, -16
	movq	%rsp, %rbp
	.cfi_def_cfa_register %rbp
	pushq	%rbx
	pushq	%rax
	.cfi_offset %rbx, -24
	movq	%rdi, %rbx
	callq	get_urand
	cmpl	$0, %eax
	jne	.LBB5_17
# %bb.1:                                # %func_Build_Status_Map.2
	movq	%rbx, %rdi
	callq	Build_Status_Map.2
	addq	$8, %rsp
	popq	%rbx
	popq	%rbp
	.cfi_def_cfa %rsp, 8
	retq
.LBB5_2:                                # %func_Build_Status_Map.9
	.cfi_def_cfa %rbp, 16
	movq	%rbx, %rdi
	callq	Build_Status_Map.9
	addq	$8, %rsp
	popq	%rbx
	popq	%rbp
	.cfi_def_cfa %rsp, 8
	retq
.LBB5_3:                                # %func_Build_Status_Map.13
	.cfi_def_cfa %rbp, 16
	movq	%rbx, %rdi
	callq	Build_Status_Map.13
	addq	$8, %rsp
	popq	%rbx
	popq	%rbp
	.cfi_def_cfa %rsp, 8
	retq
.LBB5_4:                                # %func_Build_Status_Map.20
	.cfi_def_cfa %rbp, 16
	movq	%rbx, %rdi
	callq	Build_Status_Map.20
	addq	$8, %rsp
	popq	%rbx
	popq	%rbp
	.cfi_def_cfa %rsp, 8
	retq
.LBB5_5:                                # %func_Build_Status_Map.35
	.cfi_def_cfa %rbp, 16
	movq	%rbx, %rdi
	callq	Build_Status_Map.35
	addq	$8, %rsp
	popq	%rbx
	popq	%rbp
	.cfi_def_cfa %rsp, 8
	retq
.LBB5_6:                                # %func_Build_Status_Map.44
	.cfi_def_cfa %rbp, 16
	movq	%rbx, %rdi
	callq	Build_Status_Map.44
	addq	$8, %rsp
	popq	%rbx
	popq	%rbp
	.cfi_def_cfa %rsp, 8
	retq
.LBB5_7:                                # %func_Build_Status_Map.57
	.cfi_def_cfa %rbp, 16
	movq	%rbx, %rdi
	callq	Build_Status_Map.57
	addq	$8, %rsp
	popq	%rbx
	popq	%rbp
	.cfi_def_cfa %rsp, 8
	retq
.LBB5_8:                                # %func_Build_Status_Map.67
	.cfi_def_cfa %rbp, 16
	movq	%rbx, %rdi
	callq	Build_Status_Map.67
	addq	$8, %rsp
	popq	%rbx
	popq	%rbp
	.cfi_def_cfa %rsp, 8
	retq
.LBB5_9:                                # %func_Build_Status_Map.81
	.cfi_def_cfa %rbp, 16
	movq	%rbx, %rdi
	callq	Build_Status_Map.81
	addq	$8, %rsp
	popq	%rbx
	popq	%rbp
	.cfi_def_cfa %rsp, 8
	retq
.LBB5_10:                               # %func_Build_Status_Map.91
	.cfi_def_cfa %rbp, 16
	movq	%rbx, %rdi
	callq	Build_Status_Map.91
	addq	$8, %rsp
	popq	%rbx
	popq	%rbp
	.cfi_def_cfa %rsp, 8
	retq
.LBB5_11:                               # %func_Build_Status_Map.93
	.cfi_def_cfa %rbp, 16
	movq	%rbx, %rdi
	callq	Build_Status_Map.93
	addq	$8, %rsp
	popq	%rbx
	popq	%rbp
	.cfi_def_cfa %rsp, 8
	retq
.LBB5_12:                               # %func_Build_Status_Map.115
	.cfi_def_cfa %rbp, 16
	movq	%rbx, %rdi
	callq	Build_Status_Map.115
	addq	$8, %rsp
	popq	%rbx
	popq	%rbp
	.cfi_def_cfa %rsp, 8
	retq
.LBB5_13:                               # %func_Build_Status_Map.116
	.cfi_def_cfa %rbp, 16
	movq	%rbx, %rdi
	callq	Build_Status_Map.116
	addq	$8, %rsp
	popq	%rbx
	popq	%rbp
	.cfi_def_cfa %rsp, 8
	retq
.LBB5_14:                               # %func_Build_Status_Map.117
	.cfi_def_cfa %rbp, 16
	movq	%rbx, %rdi
	callq	Build_Status_Map.117
	addq	$8, %rsp
	popq	%rbx
	popq	%rbp
	.cfi_def_cfa %rsp, 8
	retq
.LBB5_15:                               # %func_Build_Status_Map.118
	.cfi_def_cfa %rbp, 16
	movq	%rbx, %rdi
	callq	Build_Status_Map.118
	addq	$8, %rsp
	popq	%rbx
	popq	%rbp
	.cfi_def_cfa %rsp, 8
	retq
.LBB5_16:                               # %func_Build_Status_Map.123
	.cfi_def_cfa %rbp, 16
	movq	%rbx, %rdi
	callq	Build_Status_Map.123
	addq	$8, %rsp
	popq	%rbx
	popq	%rbp
	.cfi_def_cfa %rsp, 8
	retq
.LBB5_17:                               # %ctrl0
	.cfi_def_cfa %rbp, 16
	cmpl	$1, %eax
	je	.LBB5_2
# %bb.18:                               # %ctrl1
	cmpl	$2, %eax
	je	.LBB5_3
# %bb.19:                               # %ctrl2
	cmpl	$3, %eax
	je	.LBB5_4
# %bb.20:                               # %ctrl3
	cmpl	$4, %eax
	je	.LBB5_5
# %bb.21:                               # %ctrl4
	cmpl	$5, %eax
	je	.LBB5_6
# %bb.22:                               # %ctrl5
	cmpl	$6, %eax
	je	.LBB5_7
# %bb.23:                               # %ctrl6
	cmpl	$7, %eax
	je	.LBB5_8
# %bb.24:                               # %ctrl7
	cmpl	$8, %eax
	je	.LBB5_9
# %bb.25:                               # %ctrl8
	cmpl	$9, %eax
	je	.LBB5_10
# %bb.26:                               # %ctrl9
	cmpl	$10, %eax
	je	.LBB5_11
# %bb.27:                               # %ctrl10
	cmpl	$11, %eax
	je	.LBB5_12
# %bb.28:                               # %ctrl11
	cmpl	$12, %eax
	je	.LBB5_13
# %bb.29:                               # %ctrl12
	cmpl	$13, %eax
	je	.LBB5_14
# %bb.30:                               # %ctrl13
	cmpl	$14, %eax
	je	.LBB5_15
	jmp	.LBB5_16
.Lfunc_end5:
	.size	Build_Status_Map, .Lfunc_end5-Build_Status_Map
	.cfi_endproc
                                        # -- End function
	.globl	Error_Concealment       # -- Begin function Error_Concealment
	.p2align	4, 0x90
	.type	Error_Concealment,@function
Error_Concealment:                      # @Error_Concealment
	.cfi_startproc
# %bb.0:                                # %rand_bb
	pushq	%rbp
	.cfi_def_cfa_offset 16
	.cfi_offset %rbp, -16
	movq	%rsp, %rbp
	.cfi_def_cfa_register %rbp
	pushq	%r15
	pushq	%r14
	pushq	%rbx
	pushq	%rax
	.cfi_offset %rbx, -40
	.cfi_offset %r14, -32
	.cfi_offset %r15, -24
	movq	%rdx, %r14
	movq	%rsi, %r15
	movq	%rdi, %rbx
	callq	get_urand
	cmpl	$0, %eax
	jne	.LBB6_17
# %bb.1:                                # %func_Error_Concealment.11
	movq	%rbx, %rdi
	movq	%r15, %rsi
	movq	%r14, %rdx
	callq	Error_Concealment.11
	addq	$8, %rsp
	popq	%rbx
	popq	%r14
	popq	%r15
	popq	%rbp
	.cfi_def_cfa %rsp, 8
	retq
.LBB6_2:                                # %func_Error_Concealment.19
	.cfi_def_cfa %rbp, 16
	movq	%rbx, %rdi
	movq	%r15, %rsi
	movq	%r14, %rdx
	callq	Error_Concealment.19
	addq	$8, %rsp
	popq	%rbx
	popq	%r14
	popq	%r15
	popq	%rbp
	.cfi_def_cfa %rsp, 8
	retq
.LBB6_3:                                # %func_Error_Concealment.65
	.cfi_def_cfa %rbp, 16
	movq	%rbx, %rdi
	movq	%r15, %rsi
	movq	%r14, %rdx
	callq	Error_Concealment.65
	addq	$8, %rsp
	popq	%rbx
	popq	%r14
	popq	%r15
	popq	%rbp
	.cfi_def_cfa %rsp, 8
	retq
.LBB6_4:                                # %func_Error_Concealment.70
	.cfi_def_cfa %rbp, 16
	movq	%rbx, %rdi
	movq	%r15, %rsi
	movq	%r14, %rdx
	callq	Error_Concealment.70
	addq	$8, %rsp
	popq	%rbx
	popq	%r14
	popq	%r15
	popq	%rbp
	.cfi_def_cfa %rsp, 8
	retq
.LBB6_5:                                # %func_Error_Concealment.83
	.cfi_def_cfa %rbp, 16
	movq	%rbx, %rdi
	movq	%r15, %rsi
	movq	%r14, %rdx
	callq	Error_Concealment.83
	addq	$8, %rsp
	popq	%rbx
	popq	%r14
	popq	%r15
	popq	%rbp
	.cfi_def_cfa %rsp, 8
	retq
.LBB6_6:                                # %func_Error_Concealment.102
	.cfi_def_cfa %rbp, 16
	movq	%rbx, %rdi
	movq	%r15, %rsi
	movq	%r14, %rdx
	callq	Error_Concealment.102
	addq	$8, %rsp
	popq	%rbx
	popq	%r14
	popq	%r15
	popq	%rbp
	.cfi_def_cfa %rsp, 8
	retq
.LBB6_7:                                # %func_Error_Concealment.103
	.cfi_def_cfa %rbp, 16
	movq	%rbx, %rdi
	movq	%r15, %rsi
	movq	%r14, %rdx
	callq	Error_Concealment.103
	addq	$8, %rsp
	popq	%rbx
	popq	%r14
	popq	%r15
	popq	%rbp
	.cfi_def_cfa %rsp, 8
	retq
.LBB6_8:                                # %func_Error_Concealment.106
	.cfi_def_cfa %rbp, 16
	movq	%rbx, %rdi
	movq	%r15, %rsi
	movq	%r14, %rdx
	callq	Error_Concealment.106
	addq	$8, %rsp
	popq	%rbx
	popq	%r14
	popq	%r15
	popq	%rbp
	.cfi_def_cfa %rsp, 8
	retq
.LBB6_9:                                # %func_Error_Concealment.111
	.cfi_def_cfa %rbp, 16
	movq	%rbx, %rdi
	movq	%r15, %rsi
	movq	%r14, %rdx
	callq	Error_Concealment.111
	addq	$8, %rsp
	popq	%rbx
	popq	%r14
	popq	%r15
	popq	%rbp
	.cfi_def_cfa %rsp, 8
	retq
.LBB6_10:                               # %func_Error_Concealment.113
	.cfi_def_cfa %rbp, 16
	movq	%rbx, %rdi
	movq	%r15, %rsi
	movq	%r14, %rdx
	callq	Error_Concealment.113
	addq	$8, %rsp
	popq	%rbx
	popq	%r14
	popq	%r15
	popq	%rbp
	.cfi_def_cfa %rsp, 8
	retq
.LBB6_11:                               # %func_Error_Concealment.114
	.cfi_def_cfa %rbp, 16
	movq	%rbx, %rdi
	movq	%r15, %rsi
	movq	%r14, %rdx
	callq	Error_Concealment.114
	addq	$8, %rsp
	popq	%rbx
	popq	%r14
	popq	%r15
	popq	%rbp
	.cfi_def_cfa %rsp, 8
	retq
.LBB6_12:                               # %func_Error_Concealment.120
	.cfi_def_cfa %rbp, 16
	movq	%rbx, %rdi
	movq	%r15, %rsi
	movq	%r14, %rdx
	callq	Error_Concealment.120
	addq	$8, %rsp
	popq	%rbx
	popq	%r14
	popq	%r15
	popq	%rbp
	.cfi_def_cfa %rsp, 8
	retq
.LBB6_13:                               # %func_Error_Concealment.122
	.cfi_def_cfa %rbp, 16
	movq	%rbx, %rdi
	movq	%r15, %rsi
	movq	%r14, %rdx
	callq	Error_Concealment.122
	addq	$8, %rsp
	popq	%rbx
	popq	%r14
	popq	%r15
	popq	%rbp
	.cfi_def_cfa %rsp, 8
	retq
.LBB6_14:                               # %func_Error_Concealment.125
	.cfi_def_cfa %rbp, 16
	movq	%rbx, %rdi
	movq	%r15, %rsi
	movq	%r14, %rdx
	callq	Error_Concealment.125
	addq	$8, %rsp
	popq	%rbx
	popq	%r14
	popq	%r15
	popq	%rbp
	.cfi_def_cfa %rsp, 8
	retq
.LBB6_15:                               # %func_Error_Concealment.126
	.cfi_def_cfa %rbp, 16
	movq	%rbx, %rdi
	movq	%r15, %rsi
	movq	%r14, %rdx
	callq	Error_Concealment.126
	addq	$8, %rsp
	popq	%rbx
	popq	%r14
	popq	%r15
	popq	%rbp
	.cfi_def_cfa %rsp, 8
	retq
.LBB6_16:                               # %func_Error_Concealment.129
	.cfi_def_cfa %rbp, 16
	movq	%rbx, %rdi
	movq	%r15, %rsi
	movq	%r14, %rdx
	callq	Error_Concealment.129
	addq	$8, %rsp
	popq	%rbx
	popq	%r14
	popq	%r15
	popq	%rbp
	.cfi_def_cfa %rsp, 8
	retq
.LBB6_17:                               # %ctrl0
	.cfi_def_cfa %rbp, 16
	cmpl	$1, %eax
	je	.LBB6_2
# %bb.18:                               # %ctrl1
	cmpl	$2, %eax
	je	.LBB6_3
# %bb.19:                               # %ctrl2
	cmpl	$3, %eax
	je	.LBB6_4
# %bb.20:                               # %ctrl3
	cmpl	$4, %eax
	je	.LBB6_5
# %bb.21:                               # %ctrl4
	cmpl	$5, %eax
	je	.LBB6_6
# %bb.22:                               # %ctrl5
	cmpl	$6, %eax
	je	.LBB6_7
# %bb.23:                               # %ctrl6
	cmpl	$7, %eax
	je	.LBB6_8
# %bb.24:                               # %ctrl7
	cmpl	$8, %eax
	je	.LBB6_9
# %bb.25:                               # %ctrl8
	cmpl	$9, %eax
	je	.LBB6_10
# %bb.26:                               # %ctrl9
	cmpl	$10, %eax
	je	.LBB6_11
# %bb.27:                               # %ctrl10
	cmpl	$11, %eax
	je	.LBB6_12
# %bb.28:                               # %ctrl11
	cmpl	$12, %eax
	je	.LBB6_13
# %bb.29:                               # %ctrl12
	cmpl	$13, %eax
	je	.LBB6_14
# %bb.30:                               # %ctrl13
	cmpl	$14, %eax
	je	.LBB6_15
	jmp	.LBB6_16
.Lfunc_end6:
	.size	Error_Concealment, .Lfunc_end6-Error_Concealment
	.cfi_endproc
                                        # -- End function
	.globl	DecOneForthPix          # -- Begin function DecOneForthPix
	.p2align	4, 0x90
	.type	DecOneForthPix,@function
DecOneForthPix:                         # @DecOneForthPix
	.cfi_startproc
# %bb.0:                                # %rand_bb
	pushq	%rbp
	.cfi_def_cfa_offset 16
	.cfi_offset %rbp, -16
	movq	%rsp, %rbp
	.cfi_def_cfa_register %rbp
	pushq	%r14
	pushq	%rbx
	.cfi_offset %rbx, -32
	.cfi_offset %r14, -24
	movq	%rsi, %r14
	movq	%rdi, %rbx
	callq	get_urand
	cmpl	$0, %eax
	jne	.LBB7_17
# %bb.1:                                # %func_DecOneForthPix.7
	movq	%rbx, %rdi
	movq	%r14, %rsi
	callq	DecOneForthPix.7
	popq	%rbx
	popq	%r14
	popq	%rbp
	.cfi_def_cfa %rsp, 8
	retq
.LBB7_2:                                # %func_DecOneForthPix.12
	.cfi_def_cfa %rbp, 16
	movq	%rbx, %rdi
	movq	%r14, %rsi
	callq	DecOneForthPix.12
	popq	%rbx
	popq	%r14
	popq	%rbp
	.cfi_def_cfa %rsp, 8
	retq
.LBB7_3:                                # %func_DecOneForthPix.23
	.cfi_def_cfa %rbp, 16
	movq	%rbx, %rdi
	movq	%r14, %rsi
	callq	DecOneForthPix.23
	popq	%rbx
	popq	%r14
	popq	%rbp
	.cfi_def_cfa %rsp, 8
	retq
.LBB7_4:                                # %func_DecOneForthPix.48
	.cfi_def_cfa %rbp, 16
	movq	%rbx, %rdi
	movq	%r14, %rsi
	callq	DecOneForthPix.48
	popq	%rbx
	popq	%r14
	popq	%rbp
	.cfi_def_cfa %rsp, 8
	retq
.LBB7_5:                                # %func_DecOneForthPix.52
	.cfi_def_cfa %rbp, 16
	movq	%rbx, %rdi
	movq	%r14, %rsi
	callq	DecOneForthPix.52
	popq	%rbx
	popq	%r14
	popq	%rbp
	.cfi_def_cfa %rsp, 8
	retq
.LBB7_6:                                # %func_DecOneForthPix.54
	.cfi_def_cfa %rbp, 16
	movq	%rbx, %rdi
	movq	%r14, %rsi
	callq	DecOneForthPix.54
	popq	%rbx
	popq	%r14
	popq	%rbp
	.cfi_def_cfa %rsp, 8
	retq
.LBB7_7:                                # %func_DecOneForthPix.62
	.cfi_def_cfa %rbp, 16
	movq	%rbx, %rdi
	movq	%r14, %rsi
	callq	DecOneForthPix.62
	popq	%rbx
	popq	%r14
	popq	%rbp
	.cfi_def_cfa %rsp, 8
	retq
.LBB7_8:                                # %func_DecOneForthPix.68
	.cfi_def_cfa %rbp, 16
	movq	%rbx, %rdi
	movq	%r14, %rsi
	callq	DecOneForthPix.68
	popq	%rbx
	popq	%r14
	popq	%rbp
	.cfi_def_cfa %rsp, 8
	retq
.LBB7_9:                                # %func_DecOneForthPix.77
	.cfi_def_cfa %rbp, 16
	movq	%rbx, %rdi
	movq	%r14, %rsi
	callq	DecOneForthPix.77
	popq	%rbx
	popq	%r14
	popq	%rbp
	.cfi_def_cfa %rsp, 8
	retq
.LBB7_10:                               # %func_DecOneForthPix.78
	.cfi_def_cfa %rbp, 16
	movq	%rbx, %rdi
	movq	%r14, %rsi
	callq	DecOneForthPix.78
	popq	%rbx
	popq	%r14
	popq	%rbp
	.cfi_def_cfa %rsp, 8
	retq
.LBB7_11:                               # %func_DecOneForthPix.88
	.cfi_def_cfa %rbp, 16
	movq	%rbx, %rdi
	movq	%r14, %rsi
	callq	DecOneForthPix.88
	popq	%rbx
	popq	%r14
	popq	%rbp
	.cfi_def_cfa %rsp, 8
	retq
.LBB7_12:                               # %func_DecOneForthPix.92
	.cfi_def_cfa %rbp, 16
	movq	%rbx, %rdi
	movq	%r14, %rsi
	callq	DecOneForthPix.92
	popq	%rbx
	popq	%r14
	popq	%rbp
	.cfi_def_cfa %rsp, 8
	retq
.LBB7_13:                               # %func_DecOneForthPix.95
	.cfi_def_cfa %rbp, 16
	movq	%rbx, %rdi
	movq	%r14, %rsi
	callq	DecOneForthPix.95
	popq	%rbx
	popq	%r14
	popq	%rbp
	.cfi_def_cfa %rsp, 8
	retq
.LBB7_14:                               # %func_DecOneForthPix.96
	.cfi_def_cfa %rbp, 16
	movq	%rbx, %rdi
	movq	%r14, %rsi
	callq	DecOneForthPix.96
	popq	%rbx
	popq	%r14
	popq	%rbp
	.cfi_def_cfa %rsp, 8
	retq
.LBB7_15:                               # %func_DecOneForthPix.99
	.cfi_def_cfa %rbp, 16
	movq	%rbx, %rdi
	movq	%r14, %rsi
	callq	DecOneForthPix.99
	popq	%rbx
	popq	%r14
	popq	%rbp
	.cfi_def_cfa %rsp, 8
	retq
.LBB7_16:                               # %func_DecOneForthPix.100
	.cfi_def_cfa %rbp, 16
	movq	%rbx, %rdi
	movq	%r14, %rsi
	callq	DecOneForthPix.100
	popq	%rbx
	popq	%r14
	popq	%rbp
	.cfi_def_cfa %rsp, 8
	retq
.LBB7_17:                               # %ctrl0
	.cfi_def_cfa %rbp, 16
	cmpl	$1, %eax
	je	.LBB7_2
# %bb.18:                               # %ctrl1
	cmpl	$2, %eax
	je	.LBB7_3
# %bb.19:                               # %ctrl2
	cmpl	$3, %eax
	je	.LBB7_4
# %bb.20:                               # %ctrl3
	cmpl	$4, %eax
	je	.LBB7_5
# %bb.21:                               # %ctrl4
	cmpl	$5, %eax
	je	.LBB7_6
# %bb.22:                               # %ctrl5
	cmpl	$6, %eax
	je	.LBB7_7
# %bb.23:                               # %ctrl6
	cmpl	$7, %eax
	je	.LBB7_8
# %bb.24:                               # %ctrl7
	cmpl	$8, %eax
	je	.LBB7_9
# %bb.25:                               # %ctrl8
	cmpl	$9, %eax
	je	.LBB7_10
# %bb.26:                               # %ctrl9
	cmpl	$10, %eax
	je	.LBB7_11
# %bb.27:                               # %ctrl10
	cmpl	$11, %eax
	je	.LBB7_12
# %bb.28:                               # %ctrl11
	cmpl	$12, %eax
	je	.LBB7_13
# %bb.29:                               # %ctrl12
	cmpl	$13, %eax
	je	.LBB7_14
# %bb.30:                               # %ctrl13
	cmpl	$14, %eax
	je	.LBB7_15
	jmp	.LBB7_16
.Lfunc_end7:
	.size	DecOneForthPix, .Lfunc_end7-DecOneForthPix
	.cfi_endproc
                                        # -- End function
	.globl	compute_residue_b8block # -- Begin function compute_residue_b8block
	.p2align	4, 0x90
	.type	compute_residue_b8block,@function
compute_residue_b8block:                # @compute_residue_b8block
	.cfi_startproc
# %bb.0:                                # %rand_bb
	pushq	%rbp
	.cfi_def_cfa_offset 16
	.cfi_offset %rbp, -16
	movq	%rsp, %rbp
	.cfi_def_cfa_register %rbp
	pushq	%r14
	pushq	%rbx
	.cfi_offset %rbx, -32
	.cfi_offset %r14, -24
	movl	%esi, %r14d
	movl	%edi, %ebx
	callq	get_urand
	cmpl	$0, %eax
	jne	.LBB8_17
# %bb.1:                                # %func_compute_residue_b8block.1
	movl	%ebx, %edi
	movl	%r14d, %esi
	callq	compute_residue_b8block.1
	popq	%rbx
	popq	%r14
	popq	%rbp
	.cfi_def_cfa %rsp, 8
	retq
.LBB8_2:                                # %func_compute_residue_b8block.6
	.cfi_def_cfa %rbp, 16
	movl	%ebx, %edi
	movl	%r14d, %esi
	callq	compute_residue_b8block.6
	popq	%rbx
	popq	%r14
	popq	%rbp
	.cfi_def_cfa %rsp, 8
	retq
.LBB8_3:                                # %func_compute_residue_b8block.16
	.cfi_def_cfa %rbp, 16
	movl	%ebx, %edi
	movl	%r14d, %esi
	callq	compute_residue_b8block.16
	popq	%rbx
	popq	%r14
	popq	%rbp
	.cfi_def_cfa %rsp, 8
	retq
.LBB8_4:                                # %func_compute_residue_b8block.17
	.cfi_def_cfa %rbp, 16
	movl	%ebx, %edi
	movl	%r14d, %esi
	callq	compute_residue_b8block.17
	popq	%rbx
	popq	%r14
	popq	%rbp
	.cfi_def_cfa %rsp, 8
	retq
.LBB8_5:                                # %func_compute_residue_b8block.21
	.cfi_def_cfa %rbp, 16
	movl	%ebx, %edi
	movl	%r14d, %esi
	callq	compute_residue_b8block.21
	popq	%rbx
	popq	%r14
	popq	%rbp
	.cfi_def_cfa %rsp, 8
	retq
.LBB8_6:                                # %func_compute_residue_b8block.22
	.cfi_def_cfa %rbp, 16
	movl	%ebx, %edi
	movl	%r14d, %esi
	callq	compute_residue_b8block.22
	popq	%rbx
	popq	%r14
	popq	%rbp
	.cfi_def_cfa %rsp, 8
	retq
.LBB8_7:                                # %func_compute_residue_b8block.25
	.cfi_def_cfa %rbp, 16
	movl	%ebx, %edi
	movl	%r14d, %esi
	callq	compute_residue_b8block.25
	popq	%rbx
	popq	%r14
	popq	%rbp
	.cfi_def_cfa %rsp, 8
	retq
.LBB8_8:                                # %func_compute_residue_b8block.27
	.cfi_def_cfa %rbp, 16
	movl	%ebx, %edi
	movl	%r14d, %esi
	callq	compute_residue_b8block.27
	popq	%rbx
	popq	%r14
	popq	%rbp
	.cfi_def_cfa %rsp, 8
	retq
.LBB8_9:                                # %func_compute_residue_b8block.29
	.cfi_def_cfa %rbp, 16
	movl	%ebx, %edi
	movl	%r14d, %esi
	callq	compute_residue_b8block.29
	popq	%rbx
	popq	%r14
	popq	%rbp
	.cfi_def_cfa %rsp, 8
	retq
.LBB8_10:                               # %func_compute_residue_b8block.34
	.cfi_def_cfa %rbp, 16
	movl	%ebx, %edi
	movl	%r14d, %esi
	callq	compute_residue_b8block.34
	popq	%rbx
	popq	%r14
	popq	%rbp
	.cfi_def_cfa %rsp, 8
	retq
.LBB8_11:                               # %func_compute_residue_b8block.42
	.cfi_def_cfa %rbp, 16
	movl	%ebx, %edi
	movl	%r14d, %esi
	callq	compute_residue_b8block.42
	popq	%rbx
	popq	%r14
	popq	%rbp
	.cfi_def_cfa %rsp, 8
	retq
.LBB8_12:                               # %func_compute_residue_b8block.47
	.cfi_def_cfa %rbp, 16
	movl	%ebx, %edi
	movl	%r14d, %esi
	callq	compute_residue_b8block.47
	popq	%rbx
	popq	%r14
	popq	%rbp
	.cfi_def_cfa %rsp, 8
	retq
.LBB8_13:                               # %func_compute_residue_b8block.50
	.cfi_def_cfa %rbp, 16
	movl	%ebx, %edi
	movl	%r14d, %esi
	callq	compute_residue_b8block.50
	popq	%rbx
	popq	%r14
	popq	%rbp
	.cfi_def_cfa %rsp, 8
	retq
.LBB8_14:                               # %func_compute_residue_b8block.55
	.cfi_def_cfa %rbp, 16
	movl	%ebx, %edi
	movl	%r14d, %esi
	callq	compute_residue_b8block.55
	popq	%rbx
	popq	%r14
	popq	%rbp
	.cfi_def_cfa %rsp, 8
	retq
.LBB8_15:                               # %func_compute_residue_b8block.56
	.cfi_def_cfa %rbp, 16
	movl	%ebx, %edi
	movl	%r14d, %esi
	callq	compute_residue_b8block.56
	popq	%rbx
	popq	%r14
	popq	%rbp
	.cfi_def_cfa %rsp, 8
	retq
.LBB8_16:                               # %func_compute_residue_b8block.94
	.cfi_def_cfa %rbp, 16
	movl	%ebx, %edi
	movl	%r14d, %esi
	callq	compute_residue_b8block.94
	popq	%rbx
	popq	%r14
	popq	%rbp
	.cfi_def_cfa %rsp, 8
	retq
.LBB8_17:                               # %ctrl0
	.cfi_def_cfa %rbp, 16
	cmpl	$1, %eax
	je	.LBB8_2
# %bb.18:                               # %ctrl1
	cmpl	$2, %eax
	je	.LBB8_3
# %bb.19:                               # %ctrl2
	cmpl	$3, %eax
	je	.LBB8_4
# %bb.20:                               # %ctrl3
	cmpl	$4, %eax
	je	.LBB8_5
# %bb.21:                               # %ctrl4
	cmpl	$5, %eax
	je	.LBB8_6
# %bb.22:                               # %ctrl5
	cmpl	$6, %eax
	je	.LBB8_7
# %bb.23:                               # %ctrl6
	cmpl	$7, %eax
	je	.LBB8_8
# %bb.24:                               # %ctrl7
	cmpl	$8, %eax
	je	.LBB8_9
# %bb.25:                               # %ctrl8
	cmpl	$9, %eax
	je	.LBB8_10
# %bb.26:                               # %ctrl9
	cmpl	$10, %eax
	je	.LBB8_11
# %bb.27:                               # %ctrl10
	cmpl	$11, %eax
	je	.LBB8_12
# %bb.28:                               # %ctrl11
	cmpl	$12, %eax
	je	.LBB8_13
# %bb.29:                               # %ctrl12
	cmpl	$13, %eax
	je	.LBB8_14
# %bb.30:                               # %ctrl13
	cmpl	$14, %eax
	je	.LBB8_15
	jmp	.LBB8_16
.Lfunc_end8:
	.size	compute_residue_b8block, .Lfunc_end8-compute_residue_b8block
	.cfi_endproc
                                        # -- End function
	.globl	compute_residue_mb      # -- Begin function compute_residue_mb
	.p2align	4, 0x90
	.type	compute_residue_mb,@function
compute_residue_mb:                     # @compute_residue_mb
	.cfi_startproc
# %bb.0:                                # %entry
	pushq	%rbp
	.cfi_def_cfa_offset 16
	.cfi_offset %rbp, -16
	movq	%rsp, %rbp
	.cfi_def_cfa_register %rbp
	subq	$16, %rsp
	movl	%edi, -4(%rbp)
	movl	-4(%rbp), %esi
	xorl	%edi, %edi
	callq	compute_residue_b8block
	movl	-4(%rbp), %esi
	movl	$1, %edi
	callq	compute_residue_b8block
	movl	-4(%rbp), %esi
	movl	$2, %edi
	callq	compute_residue_b8block
	movl	-4(%rbp), %esi
	movl	$3, %edi
	callq	compute_residue_b8block
	addq	$16, %rsp
	popq	%rbp
	.cfi_def_cfa %rsp, 8
	retq
.Lfunc_end9:
	.size	compute_residue_mb, .Lfunc_end9-compute_residue_mb
	.cfi_endproc
                                        # -- End function
	.globl	Conceal_Error           # -- Begin function Conceal_Error
	.p2align	4, 0x90
	.type	Conceal_Error,@function
Conceal_Error:                          # @Conceal_Error
	.cfi_startproc
# %bb.0:                                # %rand_bb
	pushq	%rbp
	.cfi_def_cfa_offset 16
	.cfi_offset %rbp, -16
	movq	%rsp, %rbp
	.cfi_def_cfa_register %rbp
	pushq	%r15
	pushq	%r14
	pushq	%r13
	pushq	%r12
	pushq	%rbx
	pushq	%rax
	.cfi_offset %rbx, -56
	.cfi_offset %r12, -48
	.cfi_offset %r13, -40
	.cfi_offset %r14, -32
	.cfi_offset %r15, -24
	movq	%r8, %r14
	movq	%rcx, %r15
	movl	%edx, %r12d
	movl	%esi, %r13d
	movq	%rdi, %rbx
	callq	get_urand
	cmpl	$0, %eax
	jne	.LBB10_17
# %bb.1:                                # %func_Conceal_Error.14
	movq	%rbx, %rdi
	movl	%r13d, %esi
	movl	%r12d, %edx
	movq	%r15, %rcx
	movq	%r14, %r8
	callq	Conceal_Error.14
	addq	$8, %rsp
	popq	%rbx
	popq	%r12
	popq	%r13
	popq	%r14
	popq	%r15
	popq	%rbp
	.cfi_def_cfa %rsp, 8
	retq
.LBB10_2:                               # %func_Conceal_Error.18
	.cfi_def_cfa %rbp, 16
	movq	%rbx, %rdi
	movl	%r13d, %esi
	movl	%r12d, %edx
	movq	%r15, %rcx
	movq	%r14, %r8
	callq	Conceal_Error.18
	addq	$8, %rsp
	popq	%rbx
	popq	%r12
	popq	%r13
	popq	%r14
	popq	%r15
	popq	%rbp
	.cfi_def_cfa %rsp, 8
	retq
.LBB10_3:                               # %func_Conceal_Error.26
	.cfi_def_cfa %rbp, 16
	movq	%rbx, %rdi
	movl	%r13d, %esi
	movl	%r12d, %edx
	movq	%r15, %rcx
	movq	%r14, %r8
	callq	Conceal_Error.26
	addq	$8, %rsp
	popq	%rbx
	popq	%r12
	popq	%r13
	popq	%r14
	popq	%r15
	popq	%rbp
	.cfi_def_cfa %rsp, 8
	retq
.LBB10_4:                               # %func_Conceal_Error.31
	.cfi_def_cfa %rbp, 16
	movq	%rbx, %rdi
	movl	%r13d, %esi
	movl	%r12d, %edx
	movq	%r15, %rcx
	movq	%r14, %r8
	callq	Conceal_Error.31
	addq	$8, %rsp
	popq	%rbx
	popq	%r12
	popq	%r13
	popq	%r14
	popq	%r15
	popq	%rbp
	.cfi_def_cfa %rsp, 8
	retq
.LBB10_5:                               # %func_Conceal_Error.33
	.cfi_def_cfa %rbp, 16
	movq	%rbx, %rdi
	movl	%r13d, %esi
	movl	%r12d, %edx
	movq	%r15, %rcx
	movq	%r14, %r8
	callq	Conceal_Error.33
	addq	$8, %rsp
	popq	%rbx
	popq	%r12
	popq	%r13
	popq	%r14
	popq	%r15
	popq	%rbp
	.cfi_def_cfa %rsp, 8
	retq
.LBB10_6:                               # %func_Conceal_Error.36
	.cfi_def_cfa %rbp, 16
	movq	%rbx, %rdi
	movl	%r13d, %esi
	movl	%r12d, %edx
	movq	%r15, %rcx
	movq	%r14, %r8
	callq	Conceal_Error.36
	addq	$8, %rsp
	popq	%rbx
	popq	%r12
	popq	%r13
	popq	%r14
	popq	%r15
	popq	%rbp
	.cfi_def_cfa %rsp, 8
	retq
.LBB10_7:                               # %func_Conceal_Error.46
	.cfi_def_cfa %rbp, 16
	movq	%rbx, %rdi
	movl	%r13d, %esi
	movl	%r12d, %edx
	movq	%r15, %rcx
	movq	%r14, %r8
	callq	Conceal_Error.46
	addq	$8, %rsp
	popq	%rbx
	popq	%r12
	popq	%r13
	popq	%r14
	popq	%r15
	popq	%rbp
	.cfi_def_cfa %rsp, 8
	retq
.LBB10_8:                               # %func_Conceal_Error.49
	.cfi_def_cfa %rbp, 16
	movq	%rbx, %rdi
	movl	%r13d, %esi
	movl	%r12d, %edx
	movq	%r15, %rcx
	movq	%r14, %r8
	callq	Conceal_Error.49
	addq	$8, %rsp
	popq	%rbx
	popq	%r12
	popq	%r13
	popq	%r14
	popq	%r15
	popq	%rbp
	.cfi_def_cfa %rsp, 8
	retq
.LBB10_9:                               # %func_Conceal_Error.58
	.cfi_def_cfa %rbp, 16
	movq	%rbx, %rdi
	movl	%r13d, %esi
	movl	%r12d, %edx
	movq	%r15, %rcx
	movq	%r14, %r8
	callq	Conceal_Error.58
	addq	$8, %rsp
	popq	%rbx
	popq	%r12
	popq	%r13
	popq	%r14
	popq	%r15
	popq	%rbp
	.cfi_def_cfa %rsp, 8
	retq
.LBB10_10:                              # %func_Conceal_Error.63
	.cfi_def_cfa %rbp, 16
	movq	%rbx, %rdi
	movl	%r13d, %esi
	movl	%r12d, %edx
	movq	%r15, %rcx
	movq	%r14, %r8
	callq	Conceal_Error.63
	addq	$8, %rsp
	popq	%rbx
	popq	%r12
	popq	%r13
	popq	%r14
	popq	%r15
	popq	%rbp
	.cfi_def_cfa %rsp, 8
	retq
.LBB10_11:                              # %func_Conceal_Error.71
	.cfi_def_cfa %rbp, 16
	movq	%rbx, %rdi
	movl	%r13d, %esi
	movl	%r12d, %edx
	movq	%r15, %rcx
	movq	%r14, %r8
	callq	Conceal_Error.71
	addq	$8, %rsp
	popq	%rbx
	popq	%r12
	popq	%r13
	popq	%r14
	popq	%r15
	popq	%rbp
	.cfi_def_cfa %rsp, 8
	retq
.LBB10_12:                              # %func_Conceal_Error.74
	.cfi_def_cfa %rbp, 16
	movq	%rbx, %rdi
	movl	%r13d, %esi
	movl	%r12d, %edx
	movq	%r15, %rcx
	movq	%r14, %r8
	callq	Conceal_Error.74
	addq	$8, %rsp
	popq	%rbx
	popq	%r12
	popq	%r13
	popq	%r14
	popq	%r15
	popq	%rbp
	.cfi_def_cfa %rsp, 8
	retq
.LBB10_13:                              # %func_Conceal_Error.85
	.cfi_def_cfa %rbp, 16
	movq	%rbx, %rdi
	movl	%r13d, %esi
	movl	%r12d, %edx
	movq	%r15, %rcx
	movq	%r14, %r8
	callq	Conceal_Error.85
	addq	$8, %rsp
	popq	%rbx
	popq	%r12
	popq	%r13
	popq	%r14
	popq	%r15
	popq	%rbp
	.cfi_def_cfa %rsp, 8
	retq
.LBB10_14:                              # %func_Conceal_Error.89
	.cfi_def_cfa %rbp, 16
	movq	%rbx, %rdi
	movl	%r13d, %esi
	movl	%r12d, %edx
	movq	%r15, %rcx
	movq	%r14, %r8
	callq	Conceal_Error.89
	addq	$8, %rsp
	popq	%rbx
	popq	%r12
	popq	%r13
	popq	%r14
	popq	%r15
	popq	%rbp
	.cfi_def_cfa %rsp, 8
	retq
.LBB10_15:                              # %func_Conceal_Error.107
	.cfi_def_cfa %rbp, 16
	movq	%rbx, %rdi
	movl	%r13d, %esi
	movl	%r12d, %edx
	movq	%r15, %rcx
	movq	%r14, %r8
	callq	Conceal_Error.107
	addq	$8, %rsp
	popq	%rbx
	popq	%r12
	popq	%r13
	popq	%r14
	popq	%r15
	popq	%rbp
	.cfi_def_cfa %rsp, 8
	retq
.LBB10_16:                              # %func_Conceal_Error.110
	.cfi_def_cfa %rbp, 16
	movq	%rbx, %rdi
	movl	%r13d, %esi
	movl	%r12d, %edx
	movq	%r15, %rcx
	movq	%r14, %r8
	callq	Conceal_Error.110
	addq	$8, %rsp
	popq	%rbx
	popq	%r12
	popq	%r13
	popq	%r14
	popq	%r15
	popq	%rbp
	.cfi_def_cfa %rsp, 8
	retq
.LBB10_17:                              # %ctrl0
	.cfi_def_cfa %rbp, 16
	cmpl	$1, %eax
	je	.LBB10_2
# %bb.18:                               # %ctrl1
	cmpl	$2, %eax
	je	.LBB10_3
# %bb.19:                               # %ctrl2
	cmpl	$3, %eax
	je	.LBB10_4
# %bb.20:                               # %ctrl3
	cmpl	$4, %eax
	je	.LBB10_5
# %bb.21:                               # %ctrl4
	cmpl	$5, %eax
	je	.LBB10_6
# %bb.22:                               # %ctrl5
	cmpl	$6, %eax
	je	.LBB10_7
# %bb.23:                               # %ctrl6
	cmpl	$7, %eax
	je	.LBB10_8
# %bb.24:                               # %ctrl7
	cmpl	$8, %eax
	je	.LBB10_9
# %bb.25:                               # %ctrl8
	cmpl	$9, %eax
	je	.LBB10_10
# %bb.26:                               # %ctrl9
	cmpl	$10, %eax
	je	.LBB10_11
# %bb.27:                               # %ctrl10
	cmpl	$11, %eax
	je	.LBB10_12
# %bb.28:                               # %ctrl11
	cmpl	$12, %eax
	je	.LBB10_13
# %bb.29:                               # %ctrl12
	cmpl	$13, %eax
	je	.LBB10_14
# %bb.30:                               # %ctrl13
	cmpl	$14, %eax
	je	.LBB10_15
	jmp	.LBB10_16
.Lfunc_end10:
	.size	Conceal_Error, .Lfunc_end10-Conceal_Error
	.cfi_endproc
                                        # -- End function
	.globl	compute_residue_b8block.1 # -- Begin function compute_residue_b8block.1
	.p2align	4, 0x90
	.type	compute_residue_b8block.1,@function
compute_residue_b8block.1:              # @compute_residue_b8block.1
	.cfi_startproc
# %bb.0:                                # %entry
	pushq	%rbp
	.cfi_def_cfa_offset 16
	.cfi_offset %rbp, -16
	movq	%rsp, %rbp
	.cfi_def_cfa_register %rbp
	subq	$48, %rsp
	movl	$137400620, -36(%rbp)   # imm = 0x830912C
	movl	%edi, -24(%rbp)
	movl	%esi, -28(%rbp)
	movl	-24(%rbp), %eax
	cltd
	movl	$2, %ecx
	idivl	%ecx
	shll	$3, %edx
	movl	%edx, -12(%rbp)
	movl	-12(%rbp), %eax
	addl	$8, %eax
	movl	%eax, -20(%rbp)
	movl	-24(%rbp), %eax
	cltd
	idivl	%ecx
	shll	$3, %eax
	movl	%eax, -16(%rbp)
	movl	-16(%rbp), %eax
	addl	$8, %eax
	movl	%eax, -32(%rbp)
	cmpl	$0, -28(%rbp)
	jl	.LBB11_10
# %bb.1:                                # %if.then
	movl	-12(%rbp), %eax
	movl	%eax, -4(%rbp)
.LBB11_2:                               # %for.cond
                                        # =>This Loop Header: Depth=1
                                        #     Child Loop BB11_4 Depth 2
	movl	-4(%rbp), %eax
	cmpl	-20(%rbp), %eax
	jge	.LBB11_9
# %bb.3:                                # %for.body
                                        #   in Loop: Header=BB11_2 Depth=1
	movl	-16(%rbp), %eax
	movl	%eax, -8(%rbp)
.LBB11_4:                               # %for.cond4
                                        #   Parent Loop BB11_2 Depth=1
                                        # =>  This Inner Loop Header: Depth=2
	movl	-8(%rbp), %eax
	cmpl	-32(%rbp), %eax
	jge	.LBB11_7
# %bb.5:                                # %for.body6
                                        #   in Loop: Header=BB11_4 Depth=2
	movq	enc_picture, %rax
	movq	6424(%rax), %rax
	movq	img, %rcx
	movl	156(%rcx), %ecx
	addl	-8(%rbp), %ecx
	movslq	%ecx, %rcx
	movq	(%rax,%rcx,8), %rax
	movq	img, %rcx
	movl	152(%rcx), %ecx
	addl	-4(%rbp), %ecx
	movslq	%ecx, %rcx
	movzwl	(%rax,%rcx,2), %eax
	movq	img, %rcx
	addq	$4792, %rcx             # imm = 0x12B8
	movslq	-28(%rbp), %rdx
	shlq	$9, %rdx
	addq	%rdx, %rcx
	movslq	-8(%rbp), %rdx
	shlq	$5, %rdx
	addq	%rdx, %rcx
	movslq	-4(%rbp), %rdx
	movzwl	(%rcx,%rdx,2), %ecx
	subl	%ecx, %eax
	movq	decs, %rcx
	movq	(%rcx), %rcx
	movslq	-8(%rbp), %rdx
	movq	(%rcx,%rdx,8), %rcx
	movslq	-4(%rbp), %rdx
	movl	%eax, (%rcx,%rdx,4)
# %bb.6:                                # %for.inc
                                        #   in Loop: Header=BB11_4 Depth=2
	movl	-8(%rbp), %eax
	addl	$1, %eax
	movl	%eax, -8(%rbp)
	jmp	.LBB11_4
.LBB11_7:                               # %for.end
                                        #   in Loop: Header=BB11_2 Depth=1
	jmp	.LBB11_8
.LBB11_8:                               # %for.inc22
                                        #   in Loop: Header=BB11_2 Depth=1
	movl	-4(%rbp), %eax
	addl	$1, %eax
	movl	%eax, -4(%rbp)
	jmp	.LBB11_2
.LBB11_9:                               # %for.end24
	jmp	.LBB11_19
.LBB11_10:                              # %if.else
	movl	-12(%rbp), %eax
	movl	%eax, -4(%rbp)
.LBB11_11:                              # %for.cond25
                                        # =>This Loop Header: Depth=1
                                        #     Child Loop BB11_13 Depth 2
	movl	-4(%rbp), %eax
	cmpl	-20(%rbp), %eax
	jge	.LBB11_18
# %bb.12:                               # %for.body28
                                        #   in Loop: Header=BB11_11 Depth=1
	movl	-16(%rbp), %eax
	movl	%eax, -8(%rbp)
.LBB11_13:                              # %for.cond29
                                        #   Parent Loop BB11_11 Depth=1
                                        # =>  This Inner Loop Header: Depth=2
	movl	-8(%rbp), %eax
	cmpl	-32(%rbp), %eax
	jge	.LBB11_16
# %bb.14:                               # %for.body32
                                        #   in Loop: Header=BB11_13 Depth=2
	movq	enc_picture, %rax
	movq	6424(%rax), %rax
	movq	img, %rcx
	movl	156(%rcx), %ecx
	addl	-8(%rbp), %ecx
	movslq	%ecx, %rcx
	movq	(%rax,%rcx,8), %rax
	movq	img, %rcx
	movl	152(%rcx), %ecx
	addl	-4(%rbp), %ecx
	movslq	%ecx, %rcx
	movzwl	(%rax,%rcx,2), %eax
	movq	img, %rcx
	addq	$12600, %rcx            # imm = 0x3138
	movslq	-4(%rbp), %rdx
	shlq	$5, %rdx
	addq	%rdx, %rcx
	movslq	-8(%rbp), %rdx
	movzwl	(%rcx,%rdx,2), %ecx
	subl	%ecx, %eax
	movq	decs, %rcx
	movq	(%rcx), %rcx
	movslq	-8(%rbp), %rdx
	movq	(%rcx,%rdx,8), %rcx
	movslq	-4(%rbp), %rdx
	movl	%eax, (%rcx,%rdx,4)
# %bb.15:                               # %for.inc54
                                        #   in Loop: Header=BB11_13 Depth=2
	movl	-8(%rbp), %eax
	addl	$1, %eax
	movl	%eax, -8(%rbp)
	jmp	.LBB11_13
.LBB11_16:                              # %for.end56
                                        #   in Loop: Header=BB11_11 Depth=1
	jmp	.LBB11_17
.LBB11_17:                              # %for.inc57
                                        #   in Loop: Header=BB11_11 Depth=1
	movl	-4(%rbp), %eax
	addl	$1, %eax
	movl	%eax, -4(%rbp)
	jmp	.LBB11_11
.LBB11_18:                              # %for.end59
	jmp	.LBB11_19
.LBB11_19:                              # %if.end
	cmpl	$137400620, -36(%rbp)   # imm = 0x830912C
	jne	.LBB11_21
.LBB11_20:
	addq	$48, %rsp
	popq	%rbp
	.cfi_def_cfa %rsp, 8
	retq
.LBB11_21:                              # %func_exit
	.cfi_def_cfa %rbp, 16
	callq	detect_breach
	jmp	.LBB11_20
.Lfunc_end11:
	.size	compute_residue_b8block.1, .Lfunc_end11-compute_residue_b8block.1
	.cfi_endproc
                                        # -- End function
	.section	.rodata.cst8,"aM",@progbits,8
	.p2align	3               # -- Begin function Build_Status_Map.2
.LCPI12_0:
	.quad	4636737291354636288     # double 100
.LCPI12_1:
	.quad	4746794007244308480     # double 2147483647
	.text
	.globl	Build_Status_Map.2
	.p2align	4, 0x90
	.type	Build_Status_Map.2,@function
Build_Status_Map.2:                     # @Build_Status_Map.2
	.cfi_startproc
# %bb.0:                                # %entry
	pushq	%rbp
	.cfi_def_cfa_offset 16
	.cfi_offset %rbp, -16
	movq	%rsp, %rbp
	.cfi_def_cfa_register %rbp
	subq	$48, %rsp
	movl	$486742650, -40(%rbp)   # imm = 0x1D031A7A
	movq	%rdi, -32(%rbp)
	movl	$-1, -16(%rbp)
	movl	$0, -20(%rbp)
	movl	$0, -4(%rbp)
	movq	img, %rax
	movl	60(%rax), %eax
	cltd
	movl	$16, %ecx
	idivl	%ecx
	movl	%eax, -36(%rbp)
	movq	img, %rax
	movl	52(%rax), %eax
	cltd
	idivl	%ecx
	movl	%eax, -44(%rbp)
	movl	$0, -12(%rbp)
.LBB12_1:                               # %for.cond
                                        # =>This Loop Header: Depth=1
                                        #     Child Loop BB12_3 Depth 2
	movl	-12(%rbp), %eax
	cmpl	-36(%rbp), %eax
	jge	.LBB12_22
# %bb.2:                                # %for.body
                                        #   in Loop: Header=BB12_1 Depth=1
	movl	$0, -8(%rbp)
.LBB12_3:                               # %for.cond2
                                        #   Parent Loop BB12_1 Depth=1
                                        # =>  This Inner Loop Header: Depth=2
	movl	-8(%rbp), %eax
	cmpl	-44(%rbp), %eax
	jge	.LBB12_20
# %bb.4:                                # %for.body4
                                        #   in Loop: Header=BB12_3 Depth=2
	movq	input, %rax
	cmpl	$0, 208(%rax)
	je	.LBB12_6
# %bb.5:                                # %lor.lhs.false
                                        #   in Loop: Header=BB12_3 Depth=2
	movq	img, %rax
	movq	14168(%rax), %rax
	movslq	-20(%rbp), %rcx
	imulq	$632, %rcx, %rcx        # imm = 0x278
	addq	%rcx, %rax
	movl	4(%rax), %eax
	cmpl	-16(%rbp), %eax
	je	.LBB12_13
.LBB12_6:                               # %if.then
                                        #   in Loop: Header=BB12_3 Depth=2
	movl	$0, -4(%rbp)
	callq	rand
	vmovsd	.LCPI12_0(%rip), %xmm0  # xmm0 = mem[0],zero
	vmovsd	.LCPI12_1(%rip), %xmm1  # xmm1 = mem[0],zero
	vcvtsi2sd	%eax, %xmm0, %xmm2
	vdivsd	%xmm1, %xmm2, %xmm1
	vmulsd	%xmm0, %xmm1, %xmm0
	movq	input, %rax
	vcvtsi2sdl	2900(%rax), %xmm0, %xmm1
	vucomisd	%xmm0, %xmm1
	jbe	.LBB12_8
# %bb.7:                                # %if.then10
                                        #   in Loop: Header=BB12_3 Depth=2
	movl	-4(%rbp), %eax
	addl	$3, %eax
	movl	%eax, -4(%rbp)
.LBB12_8:                               # %if.end
                                        #   in Loop: Header=BB12_3 Depth=2
	callq	rand
	vmovsd	.LCPI12_0(%rip), %xmm0  # xmm0 = mem[0],zero
	vmovsd	.LCPI12_1(%rip), %xmm1  # xmm1 = mem[0],zero
	vcvtsi2sd	%eax, %xmm0, %xmm2
	vdivsd	%xmm1, %xmm2, %xmm1
	vmulsd	%xmm0, %xmm1, %xmm0
	movq	input, %rax
	vcvtsi2sdl	2896(%rax), %xmm0, %xmm1
	vucomisd	%xmm0, %xmm1
	jbe	.LBB12_10
# %bb.9:                                # %if.then18
                                        #   in Loop: Header=BB12_3 Depth=2
	movl	-4(%rbp), %eax
	addl	$2, %eax
	movl	%eax, -4(%rbp)
.LBB12_10:                              # %if.end20
                                        #   in Loop: Header=BB12_3 Depth=2
	callq	rand
	vmovsd	.LCPI12_0(%rip), %xmm0  # xmm0 = mem[0],zero
	vmovsd	.LCPI12_1(%rip), %xmm1  # xmm1 = mem[0],zero
	vcvtsi2sd	%eax, %xmm0, %xmm2
	vdivsd	%xmm1, %xmm2, %xmm1
	vmulsd	%xmm0, %xmm1, %xmm0
	movq	input, %rax
	vcvtsi2sdl	2892(%rax), %xmm0, %xmm1
	vucomisd	%xmm0, %xmm1
	jbe	.LBB12_12
# %bb.11:                               # %if.then28
                                        #   in Loop: Header=BB12_3 Depth=2
	movl	$1, -4(%rbp)
.LBB12_12:                              # %if.end29
                                        #   in Loop: Header=BB12_3 Depth=2
	movl	-16(%rbp), %eax
	addl	$1, %eax
	movl	%eax, -16(%rbp)
.LBB12_13:                              # %if.end30
                                        #   in Loop: Header=BB12_3 Depth=2
	cmpl	$0, -4(%rbp)
	jne	.LBB12_15
# %bb.14:                               # %if.then32
                                        #   in Loop: Header=BB12_3 Depth=2
	movq	-32(%rbp), %rax
	movslq	-12(%rbp), %rcx
	movq	(%rax,%rcx,8), %rax
	movslq	-8(%rbp), %rcx
	movb	$0, (%rax,%rcx)
	jmp	.LBB12_18
.LBB12_15:                              # %if.else
                                        #   in Loop: Header=BB12_3 Depth=2
	movl	-4(%rbp), %eax
	movq	-32(%rbp), %rcx
	movslq	-12(%rbp), %rdx
	movq	(%rcx,%rdx,8), %rcx
	movslq	-8(%rbp), %rdx
	movb	%al, (%rcx,%rdx)
	movq	input, %rax
	cmpl	$0, 2364(%rax)
	jne	.LBB12_17
# %bb.16:                               # %if.then44
                                        #   in Loop: Header=BB12_3 Depth=2
	movq	-32(%rbp), %rax
	movslq	-12(%rbp), %rcx
	movq	(%rax,%rcx,8), %rax
	movslq	-8(%rbp), %rcx
	movb	$1, (%rax,%rcx)
.LBB12_17:                              # %if.end49
                                        #   in Loop: Header=BB12_3 Depth=2
	jmp	.LBB12_18
.LBB12_18:                              # %if.end50
                                        #   in Loop: Header=BB12_3 Depth=2
	movl	-20(%rbp), %eax
	addl	$1, %eax
	movl	%eax, -20(%rbp)
# %bb.19:                               # %for.inc
                                        #   in Loop: Header=BB12_3 Depth=2
	movl	-8(%rbp), %eax
	addl	$1, %eax
	movl	%eax, -8(%rbp)
	jmp	.LBB12_3
.LBB12_20:                              # %for.end
                                        #   in Loop: Header=BB12_1 Depth=1
	jmp	.LBB12_21
.LBB12_21:                              # %for.inc53
                                        #   in Loop: Header=BB12_1 Depth=1
	movl	-12(%rbp), %eax
	addl	$1, %eax
	movl	%eax, -12(%rbp)
	jmp	.LBB12_1
.LBB12_22:                              # %for.end55
	cmpl	$486742650, -40(%rbp)   # imm = 0x1D031A7A
	jne	.LBB12_24
.LBB12_23:
	addq	$48, %rsp
	popq	%rbp
	.cfi_def_cfa %rsp, 8
	retq
.LBB12_24:                              # %func_exit
	.cfi_def_cfa %rbp, 16
	callq	detect_breach
	jmp	.LBB12_23
.Lfunc_end12:
	.size	Build_Status_Map.2, .Lfunc_end12-Build_Status_Map.2
	.cfi_endproc
                                        # -- End function
	.globl	Get_Reference_Pixel.3   # -- Begin function Get_Reference_Pixel.3
	.p2align	4, 0x90
	.type	Get_Reference_Pixel.3,@function
Get_Reference_Pixel.3:                  # @Get_Reference_Pixel.3
	.cfi_startproc
# %bb.0:                                # %entry
	pushq	%rbp
	.cfi_def_cfa_offset 16
	.cfi_offset %rbp, -16
	movq	%rsp, %rbp
	.cfi_def_cfa_register %rbp
	pushq	%rbx
	subq	$104, %rsp
	.cfi_offset %rbx, -24
	movl	$1523886076, -104(%rbp) # imm = 0x5AD4A7FC
	movq	%rdi, -64(%rbp)
	movl	%esi, -24(%rbp)
	movl	%edx, -28(%rbp)
	movl	$0, -12(%rbp)
	movl	-28(%rbp), %eax
	andl	$3, %eax
	movl	%eax, -52(%rbp)
	movl	-24(%rbp), %eax
	andl	$3, %eax
	movl	%eax, -48(%rbp)
	movl	-28(%rbp), %eax
	subl	-52(%rbp), %eax
	cltd
	movl	$4, %ecx
	idivl	%ecx
	movl	%eax, -28(%rbp)
	movl	-24(%rbp), %eax
	subl	-48(%rbp), %eax
	cltd
	idivl	%ecx
	movl	%eax, -24(%rbp)
	movq	img, %rax
	movl	52(%rax), %eax
	subl	$1, %eax
	movl	%eax, -32(%rbp)
	movq	img, %rax
	movl	60(%rax), %eax
	subl	$1, %eax
	movl	%eax, -36(%rbp)
	cmpl	$0, -52(%rbp)
	jne	.LBB13_21
# %bb.1:                                # %land.lhs.true
	cmpl	$0, -48(%rbp)
	jne	.LBB13_21
# %bb.2:                                # %if.then
	movq	-64(%rbp), %rax
	movl	-36(%rbp), %ecx
	cmpl	-24(%rbp), %ecx
	jge	.LBB13_4
# %bb.3:                                # %cond.true
	movl	-36(%rbp), %ecx
	jmp	.LBB13_5
.LBB13_4:                               # %cond.false
	movl	-24(%rbp), %ecx
.LBB13_5:                               # %cond.end
	xorl	%edx, %edx
	cmpl	%ecx, %edx
	jle	.LBB13_7
# %bb.6:                                # %cond.true9
	xorl	%ecx, %ecx
	jmp	.LBB13_11
.LBB13_7:                               # %cond.false10
	movl	-36(%rbp), %ecx
	cmpl	-24(%rbp), %ecx
	jge	.LBB13_9
# %bb.8:                                # %cond.true12
	movl	-36(%rbp), %ecx
	jmp	.LBB13_10
.LBB13_9:                               # %cond.false13
	movl	-24(%rbp), %ecx
.LBB13_10:                              # %cond.end14
.LBB13_11:                              # %cond.end16
	movslq	%ecx, %rcx
	movq	(%rax,%rcx,8), %rax
	movl	-32(%rbp), %ecx
	cmpl	-28(%rbp), %ecx
	jge	.LBB13_13
# %bb.12:                               # %cond.true19
	movl	-32(%rbp), %ecx
	jmp	.LBB13_14
.LBB13_13:                              # %cond.false20
	movl	-28(%rbp), %ecx
.LBB13_14:                              # %cond.end21
	xorl	%edx, %edx
	cmpl	%ecx, %edx
	jle	.LBB13_16
# %bb.15:                               # %cond.true24
	xorl	%ecx, %ecx
	jmp	.LBB13_20
.LBB13_16:                              # %cond.false25
	movl	-32(%rbp), %ecx
	cmpl	-28(%rbp), %ecx
	jge	.LBB13_18
# %bb.17:                               # %cond.true27
	movl	-32(%rbp), %ecx
	jmp	.LBB13_19
.LBB13_18:                              # %cond.false28
	movl	-28(%rbp), %ecx
.LBB13_19:                              # %cond.end29
.LBB13_20:                              # %cond.end31
	movslq	%ecx, %rcx
	movzwl	(%rax,%rcx,2), %eax
	movl	%eax, -12(%rbp)
	jmp	.LBB13_332
.LBB13_21:                              # %if.else
	cmpl	$0, -48(%rbp)
	jne	.LBB13_77
# %bb.22:                               # %if.then37
	movl	-36(%rbp), %eax
	cmpl	-24(%rbp), %eax
	jge	.LBB13_24
# %bb.23:                               # %cond.true40
	movl	-36(%rbp), %eax
	jmp	.LBB13_25
.LBB13_24:                              # %cond.false41
	movl	-24(%rbp), %eax
.LBB13_25:                              # %cond.end42
	xorl	%ecx, %ecx
	cmpl	%eax, %ecx
	jle	.LBB13_27
# %bb.26:                               # %cond.true46
	xorl	%eax, %eax
	jmp	.LBB13_31
.LBB13_27:                              # %cond.false47
	movl	-36(%rbp), %eax
	cmpl	-24(%rbp), %eax
	jge	.LBB13_29
# %bb.28:                               # %cond.true50
	movl	-36(%rbp), %eax
	jmp	.LBB13_30
.LBB13_29:                              # %cond.false51
	movl	-24(%rbp), %eax
.LBB13_30:                              # %cond.end52
.LBB13_31:                              # %cond.end54
	movl	%eax, -40(%rbp)
	movl	$-2, -20(%rbp)
.LBB13_32:                              # %for.cond
                                        # =>This Inner Loop Header: Depth=1
	cmpl	$4, -20(%rbp)
	jge	.LBB13_44
# %bb.33:                               # %for.body
                                        #   in Loop: Header=BB13_32 Depth=1
	movl	-32(%rbp), %eax
	movl	-28(%rbp), %ecx
	addl	-20(%rbp), %ecx
	cmpl	%ecx, %eax
	jge	.LBB13_35
# %bb.34:                               # %cond.true60
                                        #   in Loop: Header=BB13_32 Depth=1
	movl	-32(%rbp), %eax
	jmp	.LBB13_36
.LBB13_35:                              # %cond.false61
                                        #   in Loop: Header=BB13_32 Depth=1
	movl	-28(%rbp), %eax
	addl	-20(%rbp), %eax
.LBB13_36:                              # %cond.end63
                                        #   in Loop: Header=BB13_32 Depth=1
	xorl	%ecx, %ecx
	cmpl	%eax, %ecx
	jle	.LBB13_38
# %bb.37:                               # %cond.true67
                                        #   in Loop: Header=BB13_32 Depth=1
	xorl	%eax, %eax
	jmp	.LBB13_42
.LBB13_38:                              # %cond.false68
                                        #   in Loop: Header=BB13_32 Depth=1
	movl	-32(%rbp), %eax
	movl	-28(%rbp), %ecx
	addl	-20(%rbp), %ecx
	cmpl	%ecx, %eax
	jge	.LBB13_40
# %bb.39:                               # %cond.true72
                                        #   in Loop: Header=BB13_32 Depth=1
	movl	-32(%rbp), %eax
	jmp	.LBB13_41
.LBB13_40:                              # %cond.false73
                                        #   in Loop: Header=BB13_32 Depth=1
	movl	-28(%rbp), %eax
	addl	-20(%rbp), %eax
.LBB13_41:                              # %cond.end75
                                        #   in Loop: Header=BB13_32 Depth=1
.LBB13_42:                              # %cond.end77
                                        #   in Loop: Header=BB13_32 Depth=1
	movl	%eax, -44(%rbp)
	movq	-64(%rbp), %rax
	movslq	-40(%rbp), %rcx
	movq	(%rax,%rcx,8), %rax
	movslq	-44(%rbp), %rcx
	movzwl	(%rax,%rcx,2), %eax
	movl	-20(%rbp), %ecx
	addl	$2, %ecx
	movslq	%ecx, %rcx
	imull	Get_Reference_Pixel.COEF(,%rcx,4), %eax
	addl	-12(%rbp), %eax
	movl	%eax, -12(%rbp)
# %bb.43:                               # %for.inc
                                        #   in Loop: Header=BB13_32 Depth=1
	movl	-20(%rbp), %eax
	addl	$1, %eax
	movl	%eax, -20(%rbp)
	jmp	.LBB13_32
.LBB13_44:                              # %for.end
	movq	img, %rax
	movl	72684(%rax), %ecx
	movl	-12(%rbp), %eax
	addl	$16, %eax
	cltd
	movl	$32, %esi
	idivl	%esi
	cmpl	%eax, %ecx
	jge	.LBB13_46
# %bb.45:                               # %cond.true92
	movq	img, %rax
	movl	72684(%rax), %eax
	jmp	.LBB13_47
.LBB13_46:                              # %cond.false94
	movl	-12(%rbp), %eax
	addl	$16, %eax
	cltd
	movl	$32, %ecx
	idivl	%ecx
.LBB13_47:                              # %cond.end97
	xorl	%ecx, %ecx
	cmpl	%eax, %ecx
	jle	.LBB13_49
# %bb.48:                               # %cond.true101
	xorl	%eax, %eax
	jmp	.LBB13_53
.LBB13_49:                              # %cond.false102
	movq	img, %rax
	movl	72684(%rax), %ecx
	movl	-12(%rbp), %eax
	addl	$16, %eax
	cltd
	movl	$32, %esi
	idivl	%esi
	cmpl	%eax, %ecx
	jge	.LBB13_51
# %bb.50:                               # %cond.true108
	movq	img, %rax
	movl	72684(%rax), %eax
	jmp	.LBB13_52
.LBB13_51:                              # %cond.false110
	movl	-12(%rbp), %eax
	addl	$16, %eax
	cltd
	movl	$32, %ecx
	idivl	%ecx
.LBB13_52:                              # %cond.end113
.LBB13_53:                              # %cond.end115
	movl	%eax, -12(%rbp)
	cmpl	$1, -52(%rbp)
	jne	.LBB13_64
# %bb.54:                               # %if.then119
	movl	-12(%rbp), %eax
	movq	-64(%rbp), %rcx
	movslq	-40(%rbp), %rdx
	movq	(%rcx,%rdx,8), %rcx
	movl	-32(%rbp), %edx
	cmpl	-28(%rbp), %edx
	jge	.LBB13_56
# %bb.55:                               # %cond.true124
	movl	-32(%rbp), %edx
	jmp	.LBB13_57
.LBB13_56:                              # %cond.false125
	movl	-28(%rbp), %edx
.LBB13_57:                              # %cond.end126
	xorl	%esi, %esi
	cmpl	%edx, %esi
	jle	.LBB13_59
# %bb.58:                               # %cond.true130
	xorl	%edx, %edx
	jmp	.LBB13_63
.LBB13_59:                              # %cond.false131
	movl	-32(%rbp), %edx
	cmpl	-28(%rbp), %edx
	jge	.LBB13_61
# %bb.60:                               # %cond.true134
	movl	-32(%rbp), %edx
	jmp	.LBB13_62
.LBB13_61:                              # %cond.false135
	movl	-28(%rbp), %edx
.LBB13_62:                              # %cond.end136
.LBB13_63:                              # %cond.end138
	movslq	%edx, %rdx
	movzwl	(%rcx,%rdx,2), %ecx
	addl	%ecx, %eax
	cltd
	movl	$2, %ecx
	idivl	%ecx
	movl	%eax, -12(%rbp)
	jmp	.LBB13_76
.LBB13_64:                              # %if.else145
	cmpl	$3, -52(%rbp)
	jne	.LBB13_75
# %bb.65:                               # %if.then148
	movl	-12(%rbp), %eax
	movq	-64(%rbp), %rcx
	movslq	-40(%rbp), %rdx
	movq	(%rcx,%rdx,8), %rcx
	movl	-32(%rbp), %edx
	movl	-28(%rbp), %esi
	addl	$1, %esi
	cmpl	%esi, %edx
	jge	.LBB13_67
# %bb.66:                               # %cond.true154
	movl	-32(%rbp), %edx
	jmp	.LBB13_68
.LBB13_67:                              # %cond.false155
	movl	-28(%rbp), %edx
	addl	$1, %edx
.LBB13_68:                              # %cond.end157
	xorl	%esi, %esi
	cmpl	%edx, %esi
	jle	.LBB13_70
# %bb.69:                               # %cond.true161
	xorl	%edx, %edx
	jmp	.LBB13_74
.LBB13_70:                              # %cond.false162
	movl	-32(%rbp), %edx
	movl	-28(%rbp), %esi
	addl	$1, %esi
	cmpl	%esi, %edx
	jge	.LBB13_72
# %bb.71:                               # %cond.true166
	movl	-32(%rbp), %edx
	jmp	.LBB13_73
.LBB13_72:                              # %cond.false167
	movl	-28(%rbp), %edx
	addl	$1, %edx
.LBB13_73:                              # %cond.end169
.LBB13_74:                              # %cond.end171
	movslq	%edx, %rdx
	movzwl	(%rcx,%rdx,2), %ecx
	addl	%ecx, %eax
	cltd
	movl	$2, %ecx
	idivl	%ecx
	movl	%eax, -12(%rbp)
.LBB13_75:                              # %if.end
	jmp	.LBB13_76
.LBB13_76:                              # %if.end178
	jmp	.LBB13_331
.LBB13_77:                              # %if.else179
	cmpl	$0, -52(%rbp)
	jne	.LBB13_133
# %bb.78:                               # %if.then182
	movl	-32(%rbp), %eax
	cmpl	-28(%rbp), %eax
	jge	.LBB13_80
# %bb.79:                               # %cond.true185
	movl	-32(%rbp), %eax
	jmp	.LBB13_81
.LBB13_80:                              # %cond.false186
	movl	-28(%rbp), %eax
.LBB13_81:                              # %cond.end187
	xorl	%ecx, %ecx
	cmpl	%eax, %ecx
	jle	.LBB13_83
# %bb.82:                               # %cond.true191
	xorl	%eax, %eax
	jmp	.LBB13_87
.LBB13_83:                              # %cond.false192
	movl	-32(%rbp), %eax
	cmpl	-28(%rbp), %eax
	jge	.LBB13_85
# %bb.84:                               # %cond.true195
	movl	-32(%rbp), %eax
	jmp	.LBB13_86
.LBB13_85:                              # %cond.false196
	movl	-28(%rbp), %eax
.LBB13_86:                              # %cond.end197
.LBB13_87:                              # %cond.end199
	movl	%eax, -44(%rbp)
	movl	$-2, -16(%rbp)
.LBB13_88:                              # %for.cond201
                                        # =>This Inner Loop Header: Depth=1
	cmpl	$4, -16(%rbp)
	jge	.LBB13_100
# %bb.89:                               # %for.body204
                                        #   in Loop: Header=BB13_88 Depth=1
	movl	-36(%rbp), %eax
	movl	-24(%rbp), %ecx
	addl	-16(%rbp), %ecx
	cmpl	%ecx, %eax
	jge	.LBB13_91
# %bb.90:                               # %cond.true208
                                        #   in Loop: Header=BB13_88 Depth=1
	movl	-36(%rbp), %eax
	jmp	.LBB13_92
.LBB13_91:                              # %cond.false209
                                        #   in Loop: Header=BB13_88 Depth=1
	movl	-24(%rbp), %eax
	addl	-16(%rbp), %eax
.LBB13_92:                              # %cond.end211
                                        #   in Loop: Header=BB13_88 Depth=1
	xorl	%ecx, %ecx
	cmpl	%eax, %ecx
	jle	.LBB13_94
# %bb.93:                               # %cond.true215
                                        #   in Loop: Header=BB13_88 Depth=1
	xorl	%eax, %eax
	jmp	.LBB13_98
.LBB13_94:                              # %cond.false216
                                        #   in Loop: Header=BB13_88 Depth=1
	movl	-36(%rbp), %eax
	movl	-24(%rbp), %ecx
	addl	-16(%rbp), %ecx
	cmpl	%ecx, %eax
	jge	.LBB13_96
# %bb.95:                               # %cond.true220
                                        #   in Loop: Header=BB13_88 Depth=1
	movl	-36(%rbp), %eax
	jmp	.LBB13_97
.LBB13_96:                              # %cond.false221
                                        #   in Loop: Header=BB13_88 Depth=1
	movl	-24(%rbp), %eax
	addl	-16(%rbp), %eax
.LBB13_97:                              # %cond.end223
                                        #   in Loop: Header=BB13_88 Depth=1
.LBB13_98:                              # %cond.end225
                                        #   in Loop: Header=BB13_88 Depth=1
	movl	%eax, -40(%rbp)
	movq	-64(%rbp), %rax
	movslq	-40(%rbp), %rcx
	movq	(%rax,%rcx,8), %rax
	movslq	-44(%rbp), %rcx
	movzwl	(%rax,%rcx,2), %eax
	movl	-16(%rbp), %ecx
	addl	$2, %ecx
	movslq	%ecx, %rcx
	imull	Get_Reference_Pixel.COEF(,%rcx,4), %eax
	addl	-12(%rbp), %eax
	movl	%eax, -12(%rbp)
# %bb.99:                               # %for.inc237
                                        #   in Loop: Header=BB13_88 Depth=1
	movl	-16(%rbp), %eax
	addl	$1, %eax
	movl	%eax, -16(%rbp)
	jmp	.LBB13_88
.LBB13_100:                             # %for.end239
	movq	img, %rax
	movl	72684(%rax), %ecx
	movl	-12(%rbp), %eax
	addl	$16, %eax
	cltd
	movl	$32, %esi
	idivl	%esi
	cmpl	%eax, %ecx
	jge	.LBB13_102
# %bb.101:                              # %cond.true245
	movq	img, %rax
	movl	72684(%rax), %eax
	jmp	.LBB13_103
.LBB13_102:                             # %cond.false247
	movl	-12(%rbp), %eax
	addl	$16, %eax
	cltd
	movl	$32, %ecx
	idivl	%ecx
.LBB13_103:                             # %cond.end250
	xorl	%ecx, %ecx
	cmpl	%eax, %ecx
	jle	.LBB13_105
# %bb.104:                              # %cond.true254
	xorl	%eax, %eax
	jmp	.LBB13_109
.LBB13_105:                             # %cond.false255
	movq	img, %rax
	movl	72684(%rax), %ecx
	movl	-12(%rbp), %eax
	addl	$16, %eax
	cltd
	movl	$32, %esi
	idivl	%esi
	cmpl	%eax, %ecx
	jge	.LBB13_107
# %bb.106:                              # %cond.true261
	movq	img, %rax
	movl	72684(%rax), %eax
	jmp	.LBB13_108
.LBB13_107:                             # %cond.false263
	movl	-12(%rbp), %eax
	addl	$16, %eax
	cltd
	movl	$32, %ecx
	idivl	%ecx
.LBB13_108:                             # %cond.end266
.LBB13_109:                             # %cond.end268
	movl	%eax, -12(%rbp)
	cmpl	$1, -48(%rbp)
	jne	.LBB13_120
# %bb.110:                              # %if.then272
	movl	-12(%rbp), %eax
	movq	-64(%rbp), %rcx
	movl	-36(%rbp), %edx
	cmpl	-24(%rbp), %edx
	jge	.LBB13_112
# %bb.111:                              # %cond.true275
	movl	-36(%rbp), %edx
	jmp	.LBB13_113
.LBB13_112:                             # %cond.false276
	movl	-24(%rbp), %edx
.LBB13_113:                             # %cond.end277
	xorl	%esi, %esi
	cmpl	%edx, %esi
	jle	.LBB13_115
# %bb.114:                              # %cond.true281
	xorl	%edx, %edx
	jmp	.LBB13_119
.LBB13_115:                             # %cond.false282
	movl	-36(%rbp), %edx
	cmpl	-24(%rbp), %edx
	jge	.LBB13_117
# %bb.116:                              # %cond.true285
	movl	-36(%rbp), %edx
	jmp	.LBB13_118
.LBB13_117:                             # %cond.false286
	movl	-24(%rbp), %edx
.LBB13_118:                             # %cond.end287
.LBB13_119:                             # %cond.end289
	movslq	%edx, %rdx
	movq	(%rcx,%rdx,8), %rcx
	movslq	-44(%rbp), %rdx
	movzwl	(%rcx,%rdx,2), %ecx
	addl	%ecx, %eax
	cltd
	movl	$2, %ecx
	idivl	%ecx
	movl	%eax, -12(%rbp)
	jmp	.LBB13_132
.LBB13_120:                             # %if.else298
	cmpl	$3, -48(%rbp)
	jne	.LBB13_131
# %bb.121:                              # %if.then301
	movl	-12(%rbp), %eax
	movq	-64(%rbp), %rcx
	movl	-36(%rbp), %edx
	movl	-24(%rbp), %esi
	addl	$1, %esi
	cmpl	%esi, %edx
	jge	.LBB13_123
# %bb.122:                              # %cond.true305
	movl	-36(%rbp), %edx
	jmp	.LBB13_124
.LBB13_123:                             # %cond.false306
	movl	-24(%rbp), %edx
	addl	$1, %edx
.LBB13_124:                             # %cond.end308
	xorl	%esi, %esi
	cmpl	%edx, %esi
	jle	.LBB13_126
# %bb.125:                              # %cond.true312
	xorl	%edx, %edx
	jmp	.LBB13_130
.LBB13_126:                             # %cond.false313
	movl	-36(%rbp), %edx
	movl	-24(%rbp), %esi
	addl	$1, %esi
	cmpl	%esi, %edx
	jge	.LBB13_128
# %bb.127:                              # %cond.true317
	movl	-36(%rbp), %edx
	jmp	.LBB13_129
.LBB13_128:                             # %cond.false318
	movl	-24(%rbp), %edx
	addl	$1, %edx
.LBB13_129:                             # %cond.end320
.LBB13_130:                             # %cond.end322
	movslq	%edx, %rdx
	movq	(%rcx,%rdx,8), %rcx
	movslq	-44(%rbp), %rdx
	movzwl	(%rcx,%rdx,2), %ecx
	addl	%ecx, %eax
	cltd
	movl	$2, %ecx
	idivl	%ecx
	movl	%eax, -12(%rbp)
.LBB13_131:                             # %if.end331
	jmp	.LBB13_132
.LBB13_132:                             # %if.end332
	jmp	.LBB13_330
.LBB13_133:                             # %if.else333
	cmpl	$2, -52(%rbp)
	jne	.LBB13_197
# %bb.134:                              # %if.then336
	movl	$-2, -16(%rbp)
.LBB13_135:                             # %for.cond337
                                        # =>This Loop Header: Depth=1
                                        #     Child Loop BB13_146 Depth 2
	cmpl	$4, -16(%rbp)
	jge	.LBB13_160
# %bb.136:                              # %for.body340
                                        #   in Loop: Header=BB13_135 Depth=1
	movl	$0, -12(%rbp)
	movl	-36(%rbp), %eax
	movl	-24(%rbp), %ecx
	addl	-16(%rbp), %ecx
	cmpl	%ecx, %eax
	jge	.LBB13_138
# %bb.137:                              # %cond.true344
                                        #   in Loop: Header=BB13_135 Depth=1
	movl	-36(%rbp), %eax
	jmp	.LBB13_139
.LBB13_138:                             # %cond.false345
                                        #   in Loop: Header=BB13_135 Depth=1
	movl	-24(%rbp), %eax
	addl	-16(%rbp), %eax
.LBB13_139:                             # %cond.end347
                                        #   in Loop: Header=BB13_135 Depth=1
	xorl	%ecx, %ecx
	cmpl	%eax, %ecx
	jle	.LBB13_141
# %bb.140:                              # %cond.true351
                                        #   in Loop: Header=BB13_135 Depth=1
	xorl	%eax, %eax
	jmp	.LBB13_145
.LBB13_141:                             # %cond.false352
                                        #   in Loop: Header=BB13_135 Depth=1
	movl	-36(%rbp), %eax
	movl	-24(%rbp), %ecx
	addl	-16(%rbp), %ecx
	cmpl	%ecx, %eax
	jge	.LBB13_143
# %bb.142:                              # %cond.true356
                                        #   in Loop: Header=BB13_135 Depth=1
	movl	-36(%rbp), %eax
	jmp	.LBB13_144
.LBB13_143:                             # %cond.false357
                                        #   in Loop: Header=BB13_135 Depth=1
	movl	-24(%rbp), %eax
	addl	-16(%rbp), %eax
.LBB13_144:                             # %cond.end359
                                        #   in Loop: Header=BB13_135 Depth=1
.LBB13_145:                             # %cond.end361
                                        #   in Loop: Header=BB13_135 Depth=1
	movl	%eax, -40(%rbp)
	movl	$-2, -20(%rbp)
.LBB13_146:                             # %for.cond363
                                        #   Parent Loop BB13_135 Depth=1
                                        # =>  This Inner Loop Header: Depth=2
	cmpl	$4, -20(%rbp)
	jge	.LBB13_158
# %bb.147:                              # %for.body366
                                        #   in Loop: Header=BB13_146 Depth=2
	movl	-32(%rbp), %eax
	movl	-28(%rbp), %ecx
	addl	-20(%rbp), %ecx
	cmpl	%ecx, %eax
	jge	.LBB13_149
# %bb.148:                              # %cond.true370
                                        #   in Loop: Header=BB13_146 Depth=2
	movl	-32(%rbp), %eax
	jmp	.LBB13_150
.LBB13_149:                             # %cond.false371
                                        #   in Loop: Header=BB13_146 Depth=2
	movl	-28(%rbp), %eax
	addl	-20(%rbp), %eax
.LBB13_150:                             # %cond.end373
                                        #   in Loop: Header=BB13_146 Depth=2
	xorl	%ecx, %ecx
	cmpl	%eax, %ecx
	jle	.LBB13_152
# %bb.151:                              # %cond.true377
                                        #   in Loop: Header=BB13_146 Depth=2
	xorl	%eax, %eax
	jmp	.LBB13_156
.LBB13_152:                             # %cond.false378
                                        #   in Loop: Header=BB13_146 Depth=2
	movl	-32(%rbp), %eax
	movl	-28(%rbp), %ecx
	addl	-20(%rbp), %ecx
	cmpl	%ecx, %eax
	jge	.LBB13_154
# %bb.153:                              # %cond.true382
                                        #   in Loop: Header=BB13_146 Depth=2
	movl	-32(%rbp), %eax
	jmp	.LBB13_155
.LBB13_154:                             # %cond.false383
                                        #   in Loop: Header=BB13_146 Depth=2
	movl	-28(%rbp), %eax
	addl	-20(%rbp), %eax
.LBB13_155:                             # %cond.end385
                                        #   in Loop: Header=BB13_146 Depth=2
.LBB13_156:                             # %cond.end387
                                        #   in Loop: Header=BB13_146 Depth=2
	movl	%eax, -44(%rbp)
	movq	-64(%rbp), %rax
	movslq	-40(%rbp), %rcx
	movq	(%rax,%rcx,8), %rax
	movslq	-44(%rbp), %rcx
	movzwl	(%rax,%rcx,2), %eax
	movl	-20(%rbp), %ecx
	addl	$2, %ecx
	movslq	%ecx, %rcx
	imull	Get_Reference_Pixel.COEF(,%rcx,4), %eax
	addl	-12(%rbp), %eax
	movl	%eax, -12(%rbp)
# %bb.157:                              # %for.inc399
                                        #   in Loop: Header=BB13_146 Depth=2
	movl	-20(%rbp), %eax
	addl	$1, %eax
	movl	%eax, -20(%rbp)
	jmp	.LBB13_146
.LBB13_158:                             # %for.end401
                                        #   in Loop: Header=BB13_135 Depth=1
	movl	-12(%rbp), %eax
	movl	-16(%rbp), %ecx
	addl	$2, %ecx
	movslq	%ecx, %rcx
	movl	%eax, -96(%rbp,%rcx,4)
# %bb.159:                              # %for.inc405
                                        #   in Loop: Header=BB13_135 Depth=1
	movl	-16(%rbp), %eax
	addl	$1, %eax
	movl	%eax, -16(%rbp)
	jmp	.LBB13_135
.LBB13_160:                             # %for.end407
	movl	$0, -12(%rbp)
	movl	$-2, -16(%rbp)
.LBB13_161:                             # %for.cond408
                                        # =>This Inner Loop Header: Depth=1
	cmpl	$4, -16(%rbp)
	jge	.LBB13_164
# %bb.162:                              # %for.body411
                                        #   in Loop: Header=BB13_161 Depth=1
	movl	-16(%rbp), %eax
	addl	$2, %eax
	cltq
	movl	-96(%rbp,%rax,4), %eax
	movl	-16(%rbp), %ecx
	addl	$2, %ecx
	movslq	%ecx, %rcx
	imull	Get_Reference_Pixel.COEF(,%rcx,4), %eax
	addl	-12(%rbp), %eax
	movl	%eax, -12(%rbp)
# %bb.163:                              # %for.inc420
                                        #   in Loop: Header=BB13_161 Depth=1
	movl	-16(%rbp), %eax
	addl	$1, %eax
	movl	%eax, -16(%rbp)
	jmp	.LBB13_161
.LBB13_164:                             # %for.end422
	movq	img, %rax
	movl	72684(%rax), %ecx
	movl	-12(%rbp), %eax
	addl	$512, %eax              # imm = 0x200
	cltd
	movl	$1024, %esi             # imm = 0x400
	idivl	%esi
	cmpl	%eax, %ecx
	jge	.LBB13_166
# %bb.165:                              # %cond.true428
	movq	img, %rax
	movl	72684(%rax), %eax
	jmp	.LBB13_167
.LBB13_166:                             # %cond.false430
	movl	-12(%rbp), %eax
	addl	$512, %eax              # imm = 0x200
	cltd
	movl	$1024, %ecx             # imm = 0x400
	idivl	%ecx
.LBB13_167:                             # %cond.end433
	xorl	%ecx, %ecx
	cmpl	%eax, %ecx
	jle	.LBB13_169
# %bb.168:                              # %cond.true437
	xorl	%eax, %eax
	jmp	.LBB13_173
.LBB13_169:                             # %cond.false438
	movq	img, %rax
	movl	72684(%rax), %ecx
	movl	-12(%rbp), %eax
	addl	$512, %eax              # imm = 0x200
	cltd
	movl	$1024, %esi             # imm = 0x400
	idivl	%esi
	cmpl	%eax, %ecx
	jge	.LBB13_171
# %bb.170:                              # %cond.true444
	movq	img, %rax
	movl	72684(%rax), %eax
	jmp	.LBB13_172
.LBB13_171:                             # %cond.false446
	movl	-12(%rbp), %eax
	addl	$512, %eax              # imm = 0x200
	cltd
	movl	$1024, %ecx             # imm = 0x400
	idivl	%ecx
.LBB13_172:                             # %cond.end449
.LBB13_173:                             # %cond.end451
	movl	%eax, -12(%rbp)
	cmpl	$1, -48(%rbp)
	jne	.LBB13_184
# %bb.174:                              # %if.then455
	movl	-12(%rbp), %ecx
	movq	img, %rax
	movl	72684(%rax), %esi
	movl	-88(%rbp), %eax
	addl	$16, %eax
	cltd
	movl	$32, %edi
	idivl	%edi
	cmpl	%eax, %esi
	jge	.LBB13_176
# %bb.175:                              # %cond.true462
	movq	img, %rax
	movl	72684(%rax), %eax
	jmp	.LBB13_177
.LBB13_176:                             # %cond.false464
	movl	-88(%rbp), %eax
	addl	$16, %eax
	cltd
	movl	$32, %esi
	idivl	%esi
.LBB13_177:                             # %cond.end468
	xorl	%edx, %edx
	cmpl	%eax, %edx
	jle	.LBB13_179
# %bb.178:                              # %cond.true472
	xorl	%eax, %eax
	jmp	.LBB13_183
.LBB13_179:                             # %cond.false473
	movq	img, %rax
	movl	72684(%rax), %esi
	movl	-88(%rbp), %eax
	addl	$16, %eax
	cltd
	movl	$32, %edi
	idivl	%edi
	cmpl	%eax, %esi
	jge	.LBB13_181
# %bb.180:                              # %cond.true480
	movq	img, %rax
	movl	72684(%rax), %eax
	jmp	.LBB13_182
.LBB13_181:                             # %cond.false482
	movl	-88(%rbp), %eax
	addl	$16, %eax
	cltd
	movl	$32, %esi
	idivl	%esi
.LBB13_182:                             # %cond.end486
.LBB13_183:                             # %cond.end488
	addl	%eax, %ecx
	movl	%ecx, %eax
	cltd
	movl	$2, %ecx
	idivl	%ecx
	movl	%eax, -12(%rbp)
	jmp	.LBB13_196
.LBB13_184:                             # %if.else492
	cmpl	$3, -48(%rbp)
	jne	.LBB13_195
# %bb.185:                              # %if.then495
	movl	-12(%rbp), %ecx
	movq	img, %rax
	movl	72684(%rax), %esi
	movl	-84(%rbp), %eax
	addl	$16, %eax
	cltd
	movl	$32, %edi
	idivl	%edi
	cmpl	%eax, %esi
	jge	.LBB13_187
# %bb.186:                              # %cond.true502
	movq	img, %rax
	movl	72684(%rax), %eax
	jmp	.LBB13_188
.LBB13_187:                             # %cond.false504
	movl	-84(%rbp), %eax
	addl	$16, %eax
	cltd
	movl	$32, %esi
	idivl	%esi
.LBB13_188:                             # %cond.end508
	xorl	%edx, %edx
	cmpl	%eax, %edx
	jle	.LBB13_190
# %bb.189:                              # %cond.true512
	xorl	%eax, %eax
	jmp	.LBB13_194
.LBB13_190:                             # %cond.false513
	movq	img, %rax
	movl	72684(%rax), %esi
	movl	-84(%rbp), %eax
	addl	$16, %eax
	cltd
	movl	$32, %edi
	idivl	%edi
	cmpl	%eax, %esi
	jge	.LBB13_192
# %bb.191:                              # %cond.true520
	movq	img, %rax
	movl	72684(%rax), %eax
	jmp	.LBB13_193
.LBB13_192:                             # %cond.false522
	movl	-84(%rbp), %eax
	addl	$16, %eax
	cltd
	movl	$32, %esi
	idivl	%esi
.LBB13_193:                             # %cond.end526
.LBB13_194:                             # %cond.end528
	addl	%eax, %ecx
	movl	%ecx, %eax
	cltd
	movl	$2, %ecx
	idivl	%ecx
	movl	%eax, -12(%rbp)
.LBB13_195:                             # %if.end532
	jmp	.LBB13_196
.LBB13_196:                             # %if.end533
	jmp	.LBB13_329
.LBB13_197:                             # %if.else534
	cmpl	$2, -48(%rbp)
	jne	.LBB13_259
# %bb.198:                              # %if.then537
	movl	$-2, -20(%rbp)
.LBB13_199:                             # %for.cond538
                                        # =>This Loop Header: Depth=1
                                        #     Child Loop BB13_210 Depth 2
	cmpl	$4, -20(%rbp)
	jge	.LBB13_224
# %bb.200:                              # %for.body541
                                        #   in Loop: Header=BB13_199 Depth=1
	movl	$0, -12(%rbp)
	movl	-32(%rbp), %eax
	movl	-28(%rbp), %ecx
	addl	-20(%rbp), %ecx
	cmpl	%ecx, %eax
	jge	.LBB13_202
# %bb.201:                              # %cond.true545
                                        #   in Loop: Header=BB13_199 Depth=1
	movl	-32(%rbp), %eax
	jmp	.LBB13_203
.LBB13_202:                             # %cond.false546
                                        #   in Loop: Header=BB13_199 Depth=1
	movl	-28(%rbp), %eax
	addl	-20(%rbp), %eax
.LBB13_203:                             # %cond.end548
                                        #   in Loop: Header=BB13_199 Depth=1
	xorl	%ecx, %ecx
	cmpl	%eax, %ecx
	jle	.LBB13_205
# %bb.204:                              # %cond.true552
                                        #   in Loop: Header=BB13_199 Depth=1
	xorl	%eax, %eax
	jmp	.LBB13_209
.LBB13_205:                             # %cond.false553
                                        #   in Loop: Header=BB13_199 Depth=1
	movl	-32(%rbp), %eax
	movl	-28(%rbp), %ecx
	addl	-20(%rbp), %ecx
	cmpl	%ecx, %eax
	jge	.LBB13_207
# %bb.206:                              # %cond.true557
                                        #   in Loop: Header=BB13_199 Depth=1
	movl	-32(%rbp), %eax
	jmp	.LBB13_208
.LBB13_207:                             # %cond.false558
                                        #   in Loop: Header=BB13_199 Depth=1
	movl	-28(%rbp), %eax
	addl	-20(%rbp), %eax
.LBB13_208:                             # %cond.end560
                                        #   in Loop: Header=BB13_199 Depth=1
.LBB13_209:                             # %cond.end562
                                        #   in Loop: Header=BB13_199 Depth=1
	movl	%eax, -44(%rbp)
	movl	$-2, -16(%rbp)
.LBB13_210:                             # %for.cond564
                                        #   Parent Loop BB13_199 Depth=1
                                        # =>  This Inner Loop Header: Depth=2
	cmpl	$4, -16(%rbp)
	jge	.LBB13_222
# %bb.211:                              # %for.body567
                                        #   in Loop: Header=BB13_210 Depth=2
	movl	-36(%rbp), %eax
	movl	-24(%rbp), %ecx
	addl	-16(%rbp), %ecx
	cmpl	%ecx, %eax
	jge	.LBB13_213
# %bb.212:                              # %cond.true571
                                        #   in Loop: Header=BB13_210 Depth=2
	movl	-36(%rbp), %eax
	jmp	.LBB13_214
.LBB13_213:                             # %cond.false572
                                        #   in Loop: Header=BB13_210 Depth=2
	movl	-24(%rbp), %eax
	addl	-16(%rbp), %eax
.LBB13_214:                             # %cond.end574
                                        #   in Loop: Header=BB13_210 Depth=2
	xorl	%ecx, %ecx
	cmpl	%eax, %ecx
	jle	.LBB13_216
# %bb.215:                              # %cond.true578
                                        #   in Loop: Header=BB13_210 Depth=2
	xorl	%eax, %eax
	jmp	.LBB13_220
.LBB13_216:                             # %cond.false579
                                        #   in Loop: Header=BB13_210 Depth=2
	movl	-36(%rbp), %eax
	movl	-24(%rbp), %ecx
	addl	-16(%rbp), %ecx
	cmpl	%ecx, %eax
	jge	.LBB13_218
# %bb.217:                              # %cond.true583
                                        #   in Loop: Header=BB13_210 Depth=2
	movl	-36(%rbp), %eax
	jmp	.LBB13_219
.LBB13_218:                             # %cond.false584
                                        #   in Loop: Header=BB13_210 Depth=2
	movl	-24(%rbp), %eax
	addl	-16(%rbp), %eax
.LBB13_219:                             # %cond.end586
                                        #   in Loop: Header=BB13_210 Depth=2
.LBB13_220:                             # %cond.end588
                                        #   in Loop: Header=BB13_210 Depth=2
	movl	%eax, -40(%rbp)
	movq	-64(%rbp), %rax
	movslq	-40(%rbp), %rcx
	movq	(%rax,%rcx,8), %rax
	movslq	-44(%rbp), %rcx
	movzwl	(%rax,%rcx,2), %eax
	movl	-16(%rbp), %ecx
	addl	$2, %ecx
	movslq	%ecx, %rcx
	imull	Get_Reference_Pixel.COEF(,%rcx,4), %eax
	addl	-12(%rbp), %eax
	movl	%eax, -12(%rbp)
# %bb.221:                              # %for.inc600
                                        #   in Loop: Header=BB13_210 Depth=2
	movl	-16(%rbp), %eax
	addl	$1, %eax
	movl	%eax, -16(%rbp)
	jmp	.LBB13_210
.LBB13_222:                             # %for.end602
                                        #   in Loop: Header=BB13_199 Depth=1
	movl	-12(%rbp), %eax
	movl	-20(%rbp), %ecx
	addl	$2, %ecx
	movslq	%ecx, %rcx
	movl	%eax, -96(%rbp,%rcx,4)
# %bb.223:                              # %for.inc606
                                        #   in Loop: Header=BB13_199 Depth=1
	movl	-20(%rbp), %eax
	addl	$1, %eax
	movl	%eax, -20(%rbp)
	jmp	.LBB13_199
.LBB13_224:                             # %for.end608
	movl	$0, -12(%rbp)
	movl	$-2, -20(%rbp)
.LBB13_225:                             # %for.cond609
                                        # =>This Inner Loop Header: Depth=1
	cmpl	$4, -20(%rbp)
	jge	.LBB13_228
# %bb.226:                              # %for.body612
                                        #   in Loop: Header=BB13_225 Depth=1
	movl	-20(%rbp), %eax
	addl	$2, %eax
	cltq
	movl	-96(%rbp,%rax,4), %eax
	movl	-20(%rbp), %ecx
	addl	$2, %ecx
	movslq	%ecx, %rcx
	imull	Get_Reference_Pixel.COEF(,%rcx,4), %eax
	addl	-12(%rbp), %eax
	movl	%eax, -12(%rbp)
# %bb.227:                              # %for.inc621
                                        #   in Loop: Header=BB13_225 Depth=1
	movl	-20(%rbp), %eax
	addl	$1, %eax
	movl	%eax, -20(%rbp)
	jmp	.LBB13_225
.LBB13_228:                             # %for.end623
	movq	img, %rax
	movl	72684(%rax), %ecx
	movl	-12(%rbp), %eax
	addl	$512, %eax              # imm = 0x200
	cltd
	movl	$1024, %esi             # imm = 0x400
	idivl	%esi
	cmpl	%eax, %ecx
	jge	.LBB13_230
# %bb.229:                              # %cond.true629
	movq	img, %rax
	movl	72684(%rax), %eax
	jmp	.LBB13_231
.LBB13_230:                             # %cond.false631
	movl	-12(%rbp), %eax
	addl	$512, %eax              # imm = 0x200
	cltd
	movl	$1024, %ecx             # imm = 0x400
	idivl	%ecx
.LBB13_231:                             # %cond.end634
	xorl	%ecx, %ecx
	cmpl	%eax, %ecx
	jle	.LBB13_233
# %bb.232:                              # %cond.true638
	xorl	%eax, %eax
	jmp	.LBB13_237
.LBB13_233:                             # %cond.false639
	movq	img, %rax
	movl	72684(%rax), %ecx
	movl	-12(%rbp), %eax
	addl	$512, %eax              # imm = 0x200
	cltd
	movl	$1024, %esi             # imm = 0x400
	idivl	%esi
	cmpl	%eax, %ecx
	jge	.LBB13_235
# %bb.234:                              # %cond.true645
	movq	img, %rax
	movl	72684(%rax), %eax
	jmp	.LBB13_236
.LBB13_235:                             # %cond.false647
	movl	-12(%rbp), %eax
	addl	$512, %eax              # imm = 0x200
	cltd
	movl	$1024, %ecx             # imm = 0x400
	idivl	%ecx
.LBB13_236:                             # %cond.end650
.LBB13_237:                             # %cond.end652
	movl	%eax, -12(%rbp)
	cmpl	$1, -52(%rbp)
	jne	.LBB13_248
# %bb.238:                              # %if.then656
	movl	-12(%rbp), %ecx
	movq	img, %rax
	movl	72684(%rax), %esi
	movl	-88(%rbp), %eax
	addl	$16, %eax
	cltd
	movl	$32, %edi
	idivl	%edi
	cmpl	%eax, %esi
	jge	.LBB13_240
# %bb.239:                              # %cond.true663
	movq	img, %rax
	movl	72684(%rax), %eax
	jmp	.LBB13_241
.LBB13_240:                             # %cond.false665
	movl	-88(%rbp), %eax
	addl	$16, %eax
	cltd
	movl	$32, %esi
	idivl	%esi
.LBB13_241:                             # %cond.end669
	xorl	%edx, %edx
	cmpl	%eax, %edx
	jle	.LBB13_243
# %bb.242:                              # %cond.true673
	xorl	%eax, %eax
	jmp	.LBB13_247
.LBB13_243:                             # %cond.false674
	movq	img, %rax
	movl	72684(%rax), %esi
	movl	-88(%rbp), %eax
	addl	$16, %eax
	cltd
	movl	$32, %edi
	idivl	%edi
	cmpl	%eax, %esi
	jge	.LBB13_245
# %bb.244:                              # %cond.true681
	movq	img, %rax
	movl	72684(%rax), %eax
	jmp	.LBB13_246
.LBB13_245:                             # %cond.false683
	movl	-88(%rbp), %eax
	addl	$16, %eax
	cltd
	movl	$32, %esi
	idivl	%esi
.LBB13_246:                             # %cond.end687
.LBB13_247:                             # %cond.end689
	addl	%eax, %ecx
	movl	%ecx, %eax
	cltd
	movl	$2, %ecx
	idivl	%ecx
	movl	%eax, -12(%rbp)
	jmp	.LBB13_258
.LBB13_248:                             # %if.else693
	movl	-12(%rbp), %ecx
	movq	img, %rax
	movl	72684(%rax), %esi
	movl	-84(%rbp), %eax
	addl	$16, %eax
	cltd
	movl	$32, %edi
	idivl	%edi
	cmpl	%eax, %esi
	jge	.LBB13_250
# %bb.249:                              # %cond.true700
	movq	img, %rax
	movl	72684(%rax), %eax
	jmp	.LBB13_251
.LBB13_250:                             # %cond.false702
	movl	-84(%rbp), %eax
	addl	$16, %eax
	cltd
	movl	$32, %esi
	idivl	%esi
.LBB13_251:                             # %cond.end706
	xorl	%edx, %edx
	cmpl	%eax, %edx
	jle	.LBB13_253
# %bb.252:                              # %cond.true710
	xorl	%eax, %eax
	jmp	.LBB13_257
.LBB13_253:                             # %cond.false711
	movq	img, %rax
	movl	72684(%rax), %esi
	movl	-84(%rbp), %eax
	addl	$16, %eax
	cltd
	movl	$32, %edi
	idivl	%edi
	cmpl	%eax, %esi
	jge	.LBB13_255
# %bb.254:                              # %cond.true718
	movq	img, %rax
	movl	72684(%rax), %eax
	jmp	.LBB13_256
.LBB13_255:                             # %cond.false720
	movl	-84(%rbp), %eax
	addl	$16, %eax
	cltd
	movl	$32, %esi
	idivl	%esi
.LBB13_256:                             # %cond.end724
.LBB13_257:                             # %cond.end726
	addl	%eax, %ecx
	movl	%ecx, %eax
	cltd
	movl	$2, %ecx
	idivl	%ecx
	movl	%eax, -12(%rbp)
.LBB13_258:                             # %if.end730
	jmp	.LBB13_328
.LBB13_259:                             # %if.else731
	movl	$0, -12(%rbp)
	cmpl	$1, -48(%rbp)
	jne	.LBB13_261
# %bb.260:                              # %cond.true734
	movl	-24(%rbp), %eax
	jmp	.LBB13_262
.LBB13_261:                             # %cond.false735
	movl	-24(%rbp), %eax
	addl	$1, %eax
.LBB13_262:                             # %cond.end737
	movl	%eax, -40(%rbp)
	movl	-36(%rbp), %eax
	cmpl	-40(%rbp), %eax
	jge	.LBB13_264
# %bb.263:                              # %cond.true741
	movl	-36(%rbp), %eax
	jmp	.LBB13_265
.LBB13_264:                             # %cond.false742
	movl	-40(%rbp), %eax
.LBB13_265:                             # %cond.end743
	xorl	%ecx, %ecx
	cmpl	%eax, %ecx
	jle	.LBB13_267
# %bb.266:                              # %cond.true747
	xorl	%eax, %eax
	jmp	.LBB13_271
.LBB13_267:                             # %cond.false748
	movl	-36(%rbp), %eax
	cmpl	-40(%rbp), %eax
	jge	.LBB13_269
# %bb.268:                              # %cond.true751
	movl	-36(%rbp), %eax
	jmp	.LBB13_270
.LBB13_269:                             # %cond.false752
	movl	-40(%rbp), %eax
.LBB13_270:                             # %cond.end753
.LBB13_271:                             # %cond.end755
	movl	%eax, -40(%rbp)
	movl	$-2, -20(%rbp)
.LBB13_272:                             # %for.cond757
                                        # =>This Inner Loop Header: Depth=1
	cmpl	$4, -20(%rbp)
	jge	.LBB13_284
# %bb.273:                              # %for.body760
                                        #   in Loop: Header=BB13_272 Depth=1
	movl	-32(%rbp), %eax
	movl	-28(%rbp), %ecx
	addl	-20(%rbp), %ecx
	cmpl	%ecx, %eax
	jge	.LBB13_275
# %bb.274:                              # %cond.true764
                                        #   in Loop: Header=BB13_272 Depth=1
	movl	-32(%rbp), %eax
	jmp	.LBB13_276
.LBB13_275:                             # %cond.false765
                                        #   in Loop: Header=BB13_272 Depth=1
	movl	-28(%rbp), %eax
	addl	-20(%rbp), %eax
.LBB13_276:                             # %cond.end767
                                        #   in Loop: Header=BB13_272 Depth=1
	xorl	%ecx, %ecx
	cmpl	%eax, %ecx
	jle	.LBB13_278
# %bb.277:                              # %cond.true771
                                        #   in Loop: Header=BB13_272 Depth=1
	xorl	%eax, %eax
	jmp	.LBB13_282
.LBB13_278:                             # %cond.false772
                                        #   in Loop: Header=BB13_272 Depth=1
	movl	-32(%rbp), %eax
	movl	-28(%rbp), %ecx
	addl	-20(%rbp), %ecx
	cmpl	%ecx, %eax
	jge	.LBB13_280
# %bb.279:                              # %cond.true776
                                        #   in Loop: Header=BB13_272 Depth=1
	movl	-32(%rbp), %eax
	jmp	.LBB13_281
.LBB13_280:                             # %cond.false777
                                        #   in Loop: Header=BB13_272 Depth=1
	movl	-28(%rbp), %eax
	addl	-20(%rbp), %eax
.LBB13_281:                             # %cond.end779
                                        #   in Loop: Header=BB13_272 Depth=1
.LBB13_282:                             # %cond.end781
                                        #   in Loop: Header=BB13_272 Depth=1
	movl	%eax, -44(%rbp)
	movq	-64(%rbp), %rax
	movslq	-40(%rbp), %rcx
	movq	(%rax,%rcx,8), %rax
	movslq	-44(%rbp), %rcx
	movzwl	(%rax,%rcx,2), %eax
	movl	-20(%rbp), %ecx
	addl	$2, %ecx
	movslq	%ecx, %rcx
	imull	Get_Reference_Pixel.COEF(,%rcx,4), %eax
	addl	-12(%rbp), %eax
	movl	%eax, -12(%rbp)
# %bb.283:                              # %for.inc793
                                        #   in Loop: Header=BB13_272 Depth=1
	movl	-20(%rbp), %eax
	addl	$1, %eax
	movl	%eax, -20(%rbp)
	jmp	.LBB13_272
.LBB13_284:                             # %for.end795
	movq	img, %rax
	movl	72684(%rax), %ecx
	movl	-12(%rbp), %eax
	addl	$16, %eax
	cltd
	movl	$32, %esi
	idivl	%esi
	cmpl	%eax, %ecx
	jge	.LBB13_286
# %bb.285:                              # %cond.true801
	movq	img, %rax
	movl	72684(%rax), %eax
	jmp	.LBB13_287
.LBB13_286:                             # %cond.false803
	movl	-12(%rbp), %eax
	addl	$16, %eax
	cltd
	movl	$32, %ecx
	idivl	%ecx
.LBB13_287:                             # %cond.end806
	xorl	%ecx, %ecx
	cmpl	%eax, %ecx
	jle	.LBB13_289
# %bb.288:                              # %cond.true810
	xorl	%eax, %eax
	jmp	.LBB13_293
.LBB13_289:                             # %cond.false811
	movq	img, %rax
	movl	72684(%rax), %ecx
	movl	-12(%rbp), %eax
	addl	$16, %eax
	cltd
	movl	$32, %esi
	idivl	%esi
	cmpl	%eax, %ecx
	jge	.LBB13_291
# %bb.290:                              # %cond.true817
	movq	img, %rax
	movl	72684(%rax), %eax
	jmp	.LBB13_292
.LBB13_291:                             # %cond.false819
	movl	-12(%rbp), %eax
	addl	$16, %eax
	cltd
	movl	$32, %ecx
	idivl	%ecx
.LBB13_292:                             # %cond.end822
.LBB13_293:                             # %cond.end824
	movl	%eax, -108(%rbp)
	movl	$0, -12(%rbp)
	cmpl	$1, -52(%rbp)
	jne	.LBB13_295
# %bb.294:                              # %cond.true828
	movl	-28(%rbp), %eax
	jmp	.LBB13_296
.LBB13_295:                             # %cond.false829
	movl	-28(%rbp), %eax
	addl	$1, %eax
.LBB13_296:                             # %cond.end831
	movl	%eax, -44(%rbp)
	movl	-32(%rbp), %eax
	cmpl	-44(%rbp), %eax
	jge	.LBB13_298
# %bb.297:                              # %cond.true835
	movl	-32(%rbp), %eax
	jmp	.LBB13_299
.LBB13_298:                             # %cond.false836
	movl	-44(%rbp), %eax
.LBB13_299:                             # %cond.end837
	xorl	%ecx, %ecx
	cmpl	%eax, %ecx
	jle	.LBB13_301
# %bb.300:                              # %cond.true841
	xorl	%eax, %eax
	jmp	.LBB13_305
.LBB13_301:                             # %cond.false842
	movl	-32(%rbp), %eax
	cmpl	-44(%rbp), %eax
	jge	.LBB13_303
# %bb.302:                              # %cond.true845
	movl	-32(%rbp), %eax
	jmp	.LBB13_304
.LBB13_303:                             # %cond.false846
	movl	-44(%rbp), %eax
.LBB13_304:                             # %cond.end847
.LBB13_305:                             # %cond.end849
	movl	%eax, -44(%rbp)
	movl	$-2, -16(%rbp)
.LBB13_306:                             # %for.cond851
                                        # =>This Inner Loop Header: Depth=1
	cmpl	$4, -16(%rbp)
	jge	.LBB13_318
# %bb.307:                              # %for.body854
                                        #   in Loop: Header=BB13_306 Depth=1
	movl	-36(%rbp), %eax
	movl	-24(%rbp), %ecx
	addl	-16(%rbp), %ecx
	cmpl	%ecx, %eax
	jge	.LBB13_309
# %bb.308:                              # %cond.true858
                                        #   in Loop: Header=BB13_306 Depth=1
	movl	-36(%rbp), %eax
	jmp	.LBB13_310
.LBB13_309:                             # %cond.false859
                                        #   in Loop: Header=BB13_306 Depth=1
	movl	-24(%rbp), %eax
	addl	-16(%rbp), %eax
.LBB13_310:                             # %cond.end861
                                        #   in Loop: Header=BB13_306 Depth=1
	xorl	%ecx, %ecx
	cmpl	%eax, %ecx
	jle	.LBB13_312
# %bb.311:                              # %cond.true865
                                        #   in Loop: Header=BB13_306 Depth=1
	xorl	%eax, %eax
	jmp	.LBB13_316
.LBB13_312:                             # %cond.false866
                                        #   in Loop: Header=BB13_306 Depth=1
	movl	-36(%rbp), %eax
	movl	-24(%rbp), %ecx
	addl	-16(%rbp), %ecx
	cmpl	%ecx, %eax
	jge	.LBB13_314
# %bb.313:                              # %cond.true870
                                        #   in Loop: Header=BB13_306 Depth=1
	movl	-36(%rbp), %eax
	jmp	.LBB13_315
.LBB13_314:                             # %cond.false871
                                        #   in Loop: Header=BB13_306 Depth=1
	movl	-24(%rbp), %eax
	addl	-16(%rbp), %eax
.LBB13_315:                             # %cond.end873
                                        #   in Loop: Header=BB13_306 Depth=1
.LBB13_316:                             # %cond.end875
                                        #   in Loop: Header=BB13_306 Depth=1
	movl	%eax, -40(%rbp)
	movq	-64(%rbp), %rax
	movslq	-40(%rbp), %rcx
	movq	(%rax,%rcx,8), %rax
	movslq	-44(%rbp), %rcx
	movzwl	(%rax,%rcx,2), %eax
	movl	-16(%rbp), %ecx
	addl	$2, %ecx
	movslq	%ecx, %rcx
	imull	Get_Reference_Pixel.COEF(,%rcx,4), %eax
	addl	-12(%rbp), %eax
	movl	%eax, -12(%rbp)
# %bb.317:                              # %for.inc887
                                        #   in Loop: Header=BB13_306 Depth=1
	movl	-16(%rbp), %eax
	addl	$1, %eax
	movl	%eax, -16(%rbp)
	jmp	.LBB13_306
.LBB13_318:                             # %for.end889
	movq	img, %rax
	movl	72684(%rax), %ecx
	movl	-12(%rbp), %eax
	addl	$16, %eax
	cltd
	movl	$32, %esi
	idivl	%esi
	cmpl	%eax, %ecx
	jge	.LBB13_320
# %bb.319:                              # %cond.true895
	movq	img, %rax
	movl	72684(%rax), %eax
	jmp	.LBB13_321
.LBB13_320:                             # %cond.false897
	movl	-12(%rbp), %eax
	addl	$16, %eax
	cltd
	movl	$32, %ecx
	idivl	%ecx
.LBB13_321:                             # %cond.end900
	xorl	%ecx, %ecx
	cmpl	%eax, %ecx
	jle	.LBB13_323
# %bb.322:                              # %cond.true904
	xorl	%eax, %eax
	jmp	.LBB13_327
.LBB13_323:                             # %cond.false905
	movq	img, %rax
	movl	72684(%rax), %ecx
	movl	-12(%rbp), %eax
	addl	$16, %eax
	cltd
	movl	$32, %esi
	idivl	%esi
	cmpl	%eax, %ecx
	jge	.LBB13_325
# %bb.324:                              # %cond.true911
	movq	img, %rax
	movl	72684(%rax), %eax
	jmp	.LBB13_326
.LBB13_325:                             # %cond.false913
	movl	-12(%rbp), %eax
	addl	$16, %eax
	cltd
	movl	$32, %ecx
	idivl	%ecx
.LBB13_326:                             # %cond.end916
.LBB13_327:                             # %cond.end918
	movl	%eax, -100(%rbp)
	movl	-108(%rbp), %eax
	addl	-100(%rbp), %eax
	cltd
	movl	$2, %ecx
	idivl	%ecx
	movl	%eax, -12(%rbp)
.LBB13_328:                             # %if.end922
	jmp	.LBB13_329
.LBB13_329:                             # %if.end923
	jmp	.LBB13_330
.LBB13_330:                             # %if.end924
	jmp	.LBB13_331
.LBB13_331:                             # %if.end925
	jmp	.LBB13_332
.LBB13_332:                             # %if.end926
	movl	-12(%rbp), %ebx
	cmpl	$1523886076, -104(%rbp) # imm = 0x5AD4A7FC
	jne	.LBB13_334
.LBB13_333:
	movzbl	%bl, %eax
	addq	$104, %rsp
	popq	%rbx
	popq	%rbp
	.cfi_def_cfa %rsp, 8
	retq
.LBB13_334:                             # %func_exit
	.cfi_def_cfa %rbp, 16
	callq	detect_breach
	jmp	.LBB13_333
.Lfunc_end13:
	.size	Get_Reference_Pixel.3, .Lfunc_end13-Get_Reference_Pixel.3
	.cfi_endproc
                                        # -- End function
	.globl	Get_Reference_Pixel.4   # -- Begin function Get_Reference_Pixel.4
	.p2align	4, 0x90
	.type	Get_Reference_Pixel.4,@function
Get_Reference_Pixel.4:                  # @Get_Reference_Pixel.4
	.cfi_startproc
# %bb.0:                                # %entry
	pushq	%rbp
	.cfi_def_cfa_offset 16
	.cfi_offset %rbp, -16
	movq	%rsp, %rbp
	.cfi_def_cfa_register %rbp
	pushq	%rbx
	subq	$104, %rsp
	.cfi_offset %rbx, -24
	movl	$1620304501, -108(%rbp) # imm = 0x6093E275
	movq	%rdi, -64(%rbp)
	movl	%esi, -24(%rbp)
	movl	%edx, -28(%rbp)
	movl	$0, -12(%rbp)
	movl	-28(%rbp), %eax
	andl	$3, %eax
	movl	%eax, -52(%rbp)
	movl	-24(%rbp), %eax
	andl	$3, %eax
	movl	%eax, -48(%rbp)
	movl	-28(%rbp), %eax
	subl	-52(%rbp), %eax
	cltd
	movl	$4, %ecx
	idivl	%ecx
	movl	%eax, -28(%rbp)
	movl	-24(%rbp), %eax
	subl	-48(%rbp), %eax
	cltd
	idivl	%ecx
	movl	%eax, -24(%rbp)
	movq	img, %rax
	movl	52(%rax), %eax
	subl	$1, %eax
	movl	%eax, -32(%rbp)
	movq	img, %rax
	movl	60(%rax), %eax
	subl	$1, %eax
	movl	%eax, -36(%rbp)
	cmpl	$0, -52(%rbp)
	jne	.LBB14_21
# %bb.1:                                # %land.lhs.true
	cmpl	$0, -48(%rbp)
	jne	.LBB14_21
# %bb.2:                                # %if.then
	movq	-64(%rbp), %rax
	movl	-36(%rbp), %ecx
	cmpl	-24(%rbp), %ecx
	jge	.LBB14_4
# %bb.3:                                # %cond.true
	movl	-36(%rbp), %ecx
	jmp	.LBB14_5
.LBB14_4:                               # %cond.false
	movl	-24(%rbp), %ecx
.LBB14_5:                               # %cond.end
	xorl	%edx, %edx
	cmpl	%ecx, %edx
	jle	.LBB14_7
# %bb.6:                                # %cond.true9
	xorl	%ecx, %ecx
	jmp	.LBB14_11
.LBB14_7:                               # %cond.false10
	movl	-36(%rbp), %ecx
	cmpl	-24(%rbp), %ecx
	jge	.LBB14_9
# %bb.8:                                # %cond.true12
	movl	-36(%rbp), %ecx
	jmp	.LBB14_10
.LBB14_9:                               # %cond.false13
	movl	-24(%rbp), %ecx
.LBB14_10:                              # %cond.end14
.LBB14_11:                              # %cond.end16
	movslq	%ecx, %rcx
	movq	(%rax,%rcx,8), %rax
	movl	-32(%rbp), %ecx
	cmpl	-28(%rbp), %ecx
	jge	.LBB14_13
# %bb.12:                               # %cond.true19
	movl	-32(%rbp), %ecx
	jmp	.LBB14_14
.LBB14_13:                              # %cond.false20
	movl	-28(%rbp), %ecx
.LBB14_14:                              # %cond.end21
	xorl	%edx, %edx
	cmpl	%ecx, %edx
	jle	.LBB14_16
# %bb.15:                               # %cond.true24
	xorl	%ecx, %ecx
	jmp	.LBB14_20
.LBB14_16:                              # %cond.false25
	movl	-32(%rbp), %ecx
	cmpl	-28(%rbp), %ecx
	jge	.LBB14_18
# %bb.17:                               # %cond.true27
	movl	-32(%rbp), %ecx
	jmp	.LBB14_19
.LBB14_18:                              # %cond.false28
	movl	-28(%rbp), %ecx
.LBB14_19:                              # %cond.end29
.LBB14_20:                              # %cond.end31
	movslq	%ecx, %rcx
	movzwl	(%rax,%rcx,2), %eax
	movl	%eax, -12(%rbp)
	jmp	.LBB14_332
.LBB14_21:                              # %if.else
	cmpl	$0, -48(%rbp)
	jne	.LBB14_77
# %bb.22:                               # %if.then37
	movl	-36(%rbp), %eax
	cmpl	-24(%rbp), %eax
	jge	.LBB14_24
# %bb.23:                               # %cond.true40
	movl	-36(%rbp), %eax
	jmp	.LBB14_25
.LBB14_24:                              # %cond.false41
	movl	-24(%rbp), %eax
.LBB14_25:                              # %cond.end42
	xorl	%ecx, %ecx
	cmpl	%eax, %ecx
	jle	.LBB14_27
# %bb.26:                               # %cond.true46
	xorl	%eax, %eax
	jmp	.LBB14_31
.LBB14_27:                              # %cond.false47
	movl	-36(%rbp), %eax
	cmpl	-24(%rbp), %eax
	jge	.LBB14_29
# %bb.28:                               # %cond.true50
	movl	-36(%rbp), %eax
	jmp	.LBB14_30
.LBB14_29:                              # %cond.false51
	movl	-24(%rbp), %eax
.LBB14_30:                              # %cond.end52
.LBB14_31:                              # %cond.end54
	movl	%eax, -44(%rbp)
	movl	$-2, -20(%rbp)
.LBB14_32:                              # %for.cond
                                        # =>This Inner Loop Header: Depth=1
	cmpl	$4, -20(%rbp)
	jge	.LBB14_44
# %bb.33:                               # %for.body
                                        #   in Loop: Header=BB14_32 Depth=1
	movl	-32(%rbp), %eax
	movl	-28(%rbp), %ecx
	addl	-20(%rbp), %ecx
	cmpl	%ecx, %eax
	jge	.LBB14_35
# %bb.34:                               # %cond.true60
                                        #   in Loop: Header=BB14_32 Depth=1
	movl	-32(%rbp), %eax
	jmp	.LBB14_36
.LBB14_35:                              # %cond.false61
                                        #   in Loop: Header=BB14_32 Depth=1
	movl	-28(%rbp), %eax
	addl	-20(%rbp), %eax
.LBB14_36:                              # %cond.end63
                                        #   in Loop: Header=BB14_32 Depth=1
	xorl	%ecx, %ecx
	cmpl	%eax, %ecx
	jle	.LBB14_38
# %bb.37:                               # %cond.true67
                                        #   in Loop: Header=BB14_32 Depth=1
	xorl	%eax, %eax
	jmp	.LBB14_42
.LBB14_38:                              # %cond.false68
                                        #   in Loop: Header=BB14_32 Depth=1
	movl	-32(%rbp), %eax
	movl	-28(%rbp), %ecx
	addl	-20(%rbp), %ecx
	cmpl	%ecx, %eax
	jge	.LBB14_40
# %bb.39:                               # %cond.true72
                                        #   in Loop: Header=BB14_32 Depth=1
	movl	-32(%rbp), %eax
	jmp	.LBB14_41
.LBB14_40:                              # %cond.false73
                                        #   in Loop: Header=BB14_32 Depth=1
	movl	-28(%rbp), %eax
	addl	-20(%rbp), %eax
.LBB14_41:                              # %cond.end75
                                        #   in Loop: Header=BB14_32 Depth=1
.LBB14_42:                              # %cond.end77
                                        #   in Loop: Header=BB14_32 Depth=1
	movl	%eax, -40(%rbp)
	movq	-64(%rbp), %rax
	movslq	-44(%rbp), %rcx
	movq	(%rax,%rcx,8), %rax
	movslq	-40(%rbp), %rcx
	movzwl	(%rax,%rcx,2), %eax
	movl	-20(%rbp), %ecx
	addl	$2, %ecx
	movslq	%ecx, %rcx
	imull	Get_Reference_Pixel.COEF(,%rcx,4), %eax
	addl	-12(%rbp), %eax
	movl	%eax, -12(%rbp)
# %bb.43:                               # %for.inc
                                        #   in Loop: Header=BB14_32 Depth=1
	movl	-20(%rbp), %eax
	addl	$1, %eax
	movl	%eax, -20(%rbp)
	jmp	.LBB14_32
.LBB14_44:                              # %for.end
	movq	img, %rax
	movl	72684(%rax), %ecx
	movl	-12(%rbp), %eax
	addl	$16, %eax
	cltd
	movl	$32, %esi
	idivl	%esi
	cmpl	%eax, %ecx
	jge	.LBB14_46
# %bb.45:                               # %cond.true92
	movq	img, %rax
	movl	72684(%rax), %eax
	jmp	.LBB14_47
.LBB14_46:                              # %cond.false94
	movl	-12(%rbp), %eax
	addl	$16, %eax
	cltd
	movl	$32, %ecx
	idivl	%ecx
.LBB14_47:                              # %cond.end97
	xorl	%ecx, %ecx
	cmpl	%eax, %ecx
	jle	.LBB14_49
# %bb.48:                               # %cond.true101
	xorl	%eax, %eax
	jmp	.LBB14_53
.LBB14_49:                              # %cond.false102
	movq	img, %rax
	movl	72684(%rax), %ecx
	movl	-12(%rbp), %eax
	addl	$16, %eax
	cltd
	movl	$32, %esi
	idivl	%esi
	cmpl	%eax, %ecx
	jge	.LBB14_51
# %bb.50:                               # %cond.true108
	movq	img, %rax
	movl	72684(%rax), %eax
	jmp	.LBB14_52
.LBB14_51:                              # %cond.false110
	movl	-12(%rbp), %eax
	addl	$16, %eax
	cltd
	movl	$32, %ecx
	idivl	%ecx
.LBB14_52:                              # %cond.end113
.LBB14_53:                              # %cond.end115
	movl	%eax, -12(%rbp)
	cmpl	$1, -52(%rbp)
	jne	.LBB14_64
# %bb.54:                               # %if.then119
	movl	-12(%rbp), %eax
	movq	-64(%rbp), %rcx
	movslq	-44(%rbp), %rdx
	movq	(%rcx,%rdx,8), %rcx
	movl	-32(%rbp), %edx
	cmpl	-28(%rbp), %edx
	jge	.LBB14_56
# %bb.55:                               # %cond.true124
	movl	-32(%rbp), %edx
	jmp	.LBB14_57
.LBB14_56:                              # %cond.false125
	movl	-28(%rbp), %edx
.LBB14_57:                              # %cond.end126
	xorl	%esi, %esi
	cmpl	%edx, %esi
	jle	.LBB14_59
# %bb.58:                               # %cond.true130
	xorl	%edx, %edx
	jmp	.LBB14_63
.LBB14_59:                              # %cond.false131
	movl	-32(%rbp), %edx
	cmpl	-28(%rbp), %edx
	jge	.LBB14_61
# %bb.60:                               # %cond.true134
	movl	-32(%rbp), %edx
	jmp	.LBB14_62
.LBB14_61:                              # %cond.false135
	movl	-28(%rbp), %edx
.LBB14_62:                              # %cond.end136
.LBB14_63:                              # %cond.end138
	movslq	%edx, %rdx
	movzwl	(%rcx,%rdx,2), %ecx
	addl	%ecx, %eax
	cltd
	movl	$2, %ecx
	idivl	%ecx
	movl	%eax, -12(%rbp)
	jmp	.LBB14_76
.LBB14_64:                              # %if.else145
	cmpl	$3, -52(%rbp)
	jne	.LBB14_75
# %bb.65:                               # %if.then148
	movl	-12(%rbp), %eax
	movq	-64(%rbp), %rcx
	movslq	-44(%rbp), %rdx
	movq	(%rcx,%rdx,8), %rcx
	movl	-32(%rbp), %edx
	movl	-28(%rbp), %esi
	addl	$1, %esi
	cmpl	%esi, %edx
	jge	.LBB14_67
# %bb.66:                               # %cond.true154
	movl	-32(%rbp), %edx
	jmp	.LBB14_68
.LBB14_67:                              # %cond.false155
	movl	-28(%rbp), %edx
	addl	$1, %edx
.LBB14_68:                              # %cond.end157
	xorl	%esi, %esi
	cmpl	%edx, %esi
	jle	.LBB14_70
# %bb.69:                               # %cond.true161
	xorl	%edx, %edx
	jmp	.LBB14_74
.LBB14_70:                              # %cond.false162
	movl	-32(%rbp), %edx
	movl	-28(%rbp), %esi
	addl	$1, %esi
	cmpl	%esi, %edx
	jge	.LBB14_72
# %bb.71:                               # %cond.true166
	movl	-32(%rbp), %edx
	jmp	.LBB14_73
.LBB14_72:                              # %cond.false167
	movl	-28(%rbp), %edx
	addl	$1, %edx
.LBB14_73:                              # %cond.end169
.LBB14_74:                              # %cond.end171
	movslq	%edx, %rdx
	movzwl	(%rcx,%rdx,2), %ecx
	addl	%ecx, %eax
	cltd
	movl	$2, %ecx
	idivl	%ecx
	movl	%eax, -12(%rbp)
.LBB14_75:                              # %if.end
	jmp	.LBB14_76
.LBB14_76:                              # %if.end178
	jmp	.LBB14_331
.LBB14_77:                              # %if.else179
	cmpl	$0, -52(%rbp)
	jne	.LBB14_133
# %bb.78:                               # %if.then182
	movl	-32(%rbp), %eax
	cmpl	-28(%rbp), %eax
	jge	.LBB14_80
# %bb.79:                               # %cond.true185
	movl	-32(%rbp), %eax
	jmp	.LBB14_81
.LBB14_80:                              # %cond.false186
	movl	-28(%rbp), %eax
.LBB14_81:                              # %cond.end187
	xorl	%ecx, %ecx
	cmpl	%eax, %ecx
	jle	.LBB14_83
# %bb.82:                               # %cond.true191
	xorl	%eax, %eax
	jmp	.LBB14_87
.LBB14_83:                              # %cond.false192
	movl	-32(%rbp), %eax
	cmpl	-28(%rbp), %eax
	jge	.LBB14_85
# %bb.84:                               # %cond.true195
	movl	-32(%rbp), %eax
	jmp	.LBB14_86
.LBB14_85:                              # %cond.false196
	movl	-28(%rbp), %eax
.LBB14_86:                              # %cond.end197
.LBB14_87:                              # %cond.end199
	movl	%eax, -40(%rbp)
	movl	$-2, -16(%rbp)
.LBB14_88:                              # %for.cond201
                                        # =>This Inner Loop Header: Depth=1
	cmpl	$4, -16(%rbp)
	jge	.LBB14_100
# %bb.89:                               # %for.body204
                                        #   in Loop: Header=BB14_88 Depth=1
	movl	-36(%rbp), %eax
	movl	-24(%rbp), %ecx
	addl	-16(%rbp), %ecx
	cmpl	%ecx, %eax
	jge	.LBB14_91
# %bb.90:                               # %cond.true208
                                        #   in Loop: Header=BB14_88 Depth=1
	movl	-36(%rbp), %eax
	jmp	.LBB14_92
.LBB14_91:                              # %cond.false209
                                        #   in Loop: Header=BB14_88 Depth=1
	movl	-24(%rbp), %eax
	addl	-16(%rbp), %eax
.LBB14_92:                              # %cond.end211
                                        #   in Loop: Header=BB14_88 Depth=1
	xorl	%ecx, %ecx
	cmpl	%eax, %ecx
	jle	.LBB14_94
# %bb.93:                               # %cond.true215
                                        #   in Loop: Header=BB14_88 Depth=1
	xorl	%eax, %eax
	jmp	.LBB14_98
.LBB14_94:                              # %cond.false216
                                        #   in Loop: Header=BB14_88 Depth=1
	movl	-36(%rbp), %eax
	movl	-24(%rbp), %ecx
	addl	-16(%rbp), %ecx
	cmpl	%ecx, %eax
	jge	.LBB14_96
# %bb.95:                               # %cond.true220
                                        #   in Loop: Header=BB14_88 Depth=1
	movl	-36(%rbp), %eax
	jmp	.LBB14_97
.LBB14_96:                              # %cond.false221
                                        #   in Loop: Header=BB14_88 Depth=1
	movl	-24(%rbp), %eax
	addl	-16(%rbp), %eax
.LBB14_97:                              # %cond.end223
                                        #   in Loop: Header=BB14_88 Depth=1
.LBB14_98:                              # %cond.end225
                                        #   in Loop: Header=BB14_88 Depth=1
	movl	%eax, -44(%rbp)
	movq	-64(%rbp), %rax
	movslq	-44(%rbp), %rcx
	movq	(%rax,%rcx,8), %rax
	movslq	-40(%rbp), %rcx
	movzwl	(%rax,%rcx,2), %eax
	movl	-16(%rbp), %ecx
	addl	$2, %ecx
	movslq	%ecx, %rcx
	imull	Get_Reference_Pixel.COEF(,%rcx,4), %eax
	addl	-12(%rbp), %eax
	movl	%eax, -12(%rbp)
# %bb.99:                               # %for.inc237
                                        #   in Loop: Header=BB14_88 Depth=1
	movl	-16(%rbp), %eax
	addl	$1, %eax
	movl	%eax, -16(%rbp)
	jmp	.LBB14_88
.LBB14_100:                             # %for.end239
	movq	img, %rax
	movl	72684(%rax), %ecx
	movl	-12(%rbp), %eax
	addl	$16, %eax
	cltd
	movl	$32, %esi
	idivl	%esi
	cmpl	%eax, %ecx
	jge	.LBB14_102
# %bb.101:                              # %cond.true245
	movq	img, %rax
	movl	72684(%rax), %eax
	jmp	.LBB14_103
.LBB14_102:                             # %cond.false247
	movl	-12(%rbp), %eax
	addl	$16, %eax
	cltd
	movl	$32, %ecx
	idivl	%ecx
.LBB14_103:                             # %cond.end250
	xorl	%ecx, %ecx
	cmpl	%eax, %ecx
	jle	.LBB14_105
# %bb.104:                              # %cond.true254
	xorl	%eax, %eax
	jmp	.LBB14_109
.LBB14_105:                             # %cond.false255
	movq	img, %rax
	movl	72684(%rax), %ecx
	movl	-12(%rbp), %eax
	addl	$16, %eax
	cltd
	movl	$32, %esi
	idivl	%esi
	cmpl	%eax, %ecx
	jge	.LBB14_107
# %bb.106:                              # %cond.true261
	movq	img, %rax
	movl	72684(%rax), %eax
	jmp	.LBB14_108
.LBB14_107:                             # %cond.false263
	movl	-12(%rbp), %eax
	addl	$16, %eax
	cltd
	movl	$32, %ecx
	idivl	%ecx
.LBB14_108:                             # %cond.end266
.LBB14_109:                             # %cond.end268
	movl	%eax, -12(%rbp)
	cmpl	$1, -48(%rbp)
	jne	.LBB14_120
# %bb.110:                              # %if.then272
	movl	-12(%rbp), %eax
	movq	-64(%rbp), %rcx
	movl	-36(%rbp), %edx
	cmpl	-24(%rbp), %edx
	jge	.LBB14_112
# %bb.111:                              # %cond.true275
	movl	-36(%rbp), %edx
	jmp	.LBB14_113
.LBB14_112:                             # %cond.false276
	movl	-24(%rbp), %edx
.LBB14_113:                             # %cond.end277
	xorl	%esi, %esi
	cmpl	%edx, %esi
	jle	.LBB14_115
# %bb.114:                              # %cond.true281
	xorl	%edx, %edx
	jmp	.LBB14_119
.LBB14_115:                             # %cond.false282
	movl	-36(%rbp), %edx
	cmpl	-24(%rbp), %edx
	jge	.LBB14_117
# %bb.116:                              # %cond.true285
	movl	-36(%rbp), %edx
	jmp	.LBB14_118
.LBB14_117:                             # %cond.false286
	movl	-24(%rbp), %edx
.LBB14_118:                             # %cond.end287
.LBB14_119:                             # %cond.end289
	movslq	%edx, %rdx
	movq	(%rcx,%rdx,8), %rcx
	movslq	-40(%rbp), %rdx
	movzwl	(%rcx,%rdx,2), %ecx
	addl	%ecx, %eax
	cltd
	movl	$2, %ecx
	idivl	%ecx
	movl	%eax, -12(%rbp)
	jmp	.LBB14_132
.LBB14_120:                             # %if.else298
	cmpl	$3, -48(%rbp)
	jne	.LBB14_131
# %bb.121:                              # %if.then301
	movl	-12(%rbp), %eax
	movq	-64(%rbp), %rcx
	movl	-36(%rbp), %edx
	movl	-24(%rbp), %esi
	addl	$1, %esi
	cmpl	%esi, %edx
	jge	.LBB14_123
# %bb.122:                              # %cond.true305
	movl	-36(%rbp), %edx
	jmp	.LBB14_124
.LBB14_123:                             # %cond.false306
	movl	-24(%rbp), %edx
	addl	$1, %edx
.LBB14_124:                             # %cond.end308
	xorl	%esi, %esi
	cmpl	%edx, %esi
	jle	.LBB14_126
# %bb.125:                              # %cond.true312
	xorl	%edx, %edx
	jmp	.LBB14_130
.LBB14_126:                             # %cond.false313
	movl	-36(%rbp), %edx
	movl	-24(%rbp), %esi
	addl	$1, %esi
	cmpl	%esi, %edx
	jge	.LBB14_128
# %bb.127:                              # %cond.true317
	movl	-36(%rbp), %edx
	jmp	.LBB14_129
.LBB14_128:                             # %cond.false318
	movl	-24(%rbp), %edx
	addl	$1, %edx
.LBB14_129:                             # %cond.end320
.LBB14_130:                             # %cond.end322
	movslq	%edx, %rdx
	movq	(%rcx,%rdx,8), %rcx
	movslq	-40(%rbp), %rdx
	movzwl	(%rcx,%rdx,2), %ecx
	addl	%ecx, %eax
	cltd
	movl	$2, %ecx
	idivl	%ecx
	movl	%eax, -12(%rbp)
.LBB14_131:                             # %if.end331
	jmp	.LBB14_132
.LBB14_132:                             # %if.end332
	jmp	.LBB14_330
.LBB14_133:                             # %if.else333
	cmpl	$2, -52(%rbp)
	jne	.LBB14_197
# %bb.134:                              # %if.then336
	movl	$-2, -16(%rbp)
.LBB14_135:                             # %for.cond337
                                        # =>This Loop Header: Depth=1
                                        #     Child Loop BB14_146 Depth 2
	cmpl	$4, -16(%rbp)
	jge	.LBB14_160
# %bb.136:                              # %for.body340
                                        #   in Loop: Header=BB14_135 Depth=1
	movl	$0, -12(%rbp)
	movl	-36(%rbp), %eax
	movl	-24(%rbp), %ecx
	addl	-16(%rbp), %ecx
	cmpl	%ecx, %eax
	jge	.LBB14_138
# %bb.137:                              # %cond.true344
                                        #   in Loop: Header=BB14_135 Depth=1
	movl	-36(%rbp), %eax
	jmp	.LBB14_139
.LBB14_138:                             # %cond.false345
                                        #   in Loop: Header=BB14_135 Depth=1
	movl	-24(%rbp), %eax
	addl	-16(%rbp), %eax
.LBB14_139:                             # %cond.end347
                                        #   in Loop: Header=BB14_135 Depth=1
	xorl	%ecx, %ecx
	cmpl	%eax, %ecx
	jle	.LBB14_141
# %bb.140:                              # %cond.true351
                                        #   in Loop: Header=BB14_135 Depth=1
	xorl	%eax, %eax
	jmp	.LBB14_145
.LBB14_141:                             # %cond.false352
                                        #   in Loop: Header=BB14_135 Depth=1
	movl	-36(%rbp), %eax
	movl	-24(%rbp), %ecx
	addl	-16(%rbp), %ecx
	cmpl	%ecx, %eax
	jge	.LBB14_143
# %bb.142:                              # %cond.true356
                                        #   in Loop: Header=BB14_135 Depth=1
	movl	-36(%rbp), %eax
	jmp	.LBB14_144
.LBB14_143:                             # %cond.false357
                                        #   in Loop: Header=BB14_135 Depth=1
	movl	-24(%rbp), %eax
	addl	-16(%rbp), %eax
.LBB14_144:                             # %cond.end359
                                        #   in Loop: Header=BB14_135 Depth=1
.LBB14_145:                             # %cond.end361
                                        #   in Loop: Header=BB14_135 Depth=1
	movl	%eax, -44(%rbp)
	movl	$-2, -20(%rbp)
.LBB14_146:                             # %for.cond363
                                        #   Parent Loop BB14_135 Depth=1
                                        # =>  This Inner Loop Header: Depth=2
	cmpl	$4, -20(%rbp)
	jge	.LBB14_158
# %bb.147:                              # %for.body366
                                        #   in Loop: Header=BB14_146 Depth=2
	movl	-32(%rbp), %eax
	movl	-28(%rbp), %ecx
	addl	-20(%rbp), %ecx
	cmpl	%ecx, %eax
	jge	.LBB14_149
# %bb.148:                              # %cond.true370
                                        #   in Loop: Header=BB14_146 Depth=2
	movl	-32(%rbp), %eax
	jmp	.LBB14_150
.LBB14_149:                             # %cond.false371
                                        #   in Loop: Header=BB14_146 Depth=2
	movl	-28(%rbp), %eax
	addl	-20(%rbp), %eax
.LBB14_150:                             # %cond.end373
                                        #   in Loop: Header=BB14_146 Depth=2
	xorl	%ecx, %ecx
	cmpl	%eax, %ecx
	jle	.LBB14_152
# %bb.151:                              # %cond.true377
                                        #   in Loop: Header=BB14_146 Depth=2
	xorl	%eax, %eax
	jmp	.LBB14_156
.LBB14_152:                             # %cond.false378
                                        #   in Loop: Header=BB14_146 Depth=2
	movl	-32(%rbp), %eax
	movl	-28(%rbp), %ecx
	addl	-20(%rbp), %ecx
	cmpl	%ecx, %eax
	jge	.LBB14_154
# %bb.153:                              # %cond.true382
                                        #   in Loop: Header=BB14_146 Depth=2
	movl	-32(%rbp), %eax
	jmp	.LBB14_155
.LBB14_154:                             # %cond.false383
                                        #   in Loop: Header=BB14_146 Depth=2
	movl	-28(%rbp), %eax
	addl	-20(%rbp), %eax
.LBB14_155:                             # %cond.end385
                                        #   in Loop: Header=BB14_146 Depth=2
.LBB14_156:                             # %cond.end387
                                        #   in Loop: Header=BB14_146 Depth=2
	movl	%eax, -40(%rbp)
	movq	-64(%rbp), %rax
	movslq	-44(%rbp), %rcx
	movq	(%rax,%rcx,8), %rax
	movslq	-40(%rbp), %rcx
	movzwl	(%rax,%rcx,2), %eax
	movl	-20(%rbp), %ecx
	addl	$2, %ecx
	movslq	%ecx, %rcx
	imull	Get_Reference_Pixel.COEF(,%rcx,4), %eax
	addl	-12(%rbp), %eax
	movl	%eax, -12(%rbp)
# %bb.157:                              # %for.inc399
                                        #   in Loop: Header=BB14_146 Depth=2
	movl	-20(%rbp), %eax
	addl	$1, %eax
	movl	%eax, -20(%rbp)
	jmp	.LBB14_146
.LBB14_158:                             # %for.end401
                                        #   in Loop: Header=BB14_135 Depth=1
	movl	-12(%rbp), %eax
	movl	-16(%rbp), %ecx
	addl	$2, %ecx
	movslq	%ecx, %rcx
	movl	%eax, -96(%rbp,%rcx,4)
# %bb.159:                              # %for.inc405
                                        #   in Loop: Header=BB14_135 Depth=1
	movl	-16(%rbp), %eax
	addl	$1, %eax
	movl	%eax, -16(%rbp)
	jmp	.LBB14_135
.LBB14_160:                             # %for.end407
	movl	$0, -12(%rbp)
	movl	$-2, -16(%rbp)
.LBB14_161:                             # %for.cond408
                                        # =>This Inner Loop Header: Depth=1
	cmpl	$4, -16(%rbp)
	jge	.LBB14_164
# %bb.162:                              # %for.body411
                                        #   in Loop: Header=BB14_161 Depth=1
	movl	-16(%rbp), %eax
	addl	$2, %eax
	cltq
	movl	-96(%rbp,%rax,4), %eax
	movl	-16(%rbp), %ecx
	addl	$2, %ecx
	movslq	%ecx, %rcx
	imull	Get_Reference_Pixel.COEF(,%rcx,4), %eax
	addl	-12(%rbp), %eax
	movl	%eax, -12(%rbp)
# %bb.163:                              # %for.inc420
                                        #   in Loop: Header=BB14_161 Depth=1
	movl	-16(%rbp), %eax
	addl	$1, %eax
	movl	%eax, -16(%rbp)
	jmp	.LBB14_161
.LBB14_164:                             # %for.end422
	movq	img, %rax
	movl	72684(%rax), %ecx
	movl	-12(%rbp), %eax
	addl	$512, %eax              # imm = 0x200
	cltd
	movl	$1024, %esi             # imm = 0x400
	idivl	%esi
	cmpl	%eax, %ecx
	jge	.LBB14_166
# %bb.165:                              # %cond.true428
	movq	img, %rax
	movl	72684(%rax), %eax
	jmp	.LBB14_167
.LBB14_166:                             # %cond.false430
	movl	-12(%rbp), %eax
	addl	$512, %eax              # imm = 0x200
	cltd
	movl	$1024, %ecx             # imm = 0x400
	idivl	%ecx
.LBB14_167:                             # %cond.end433
	xorl	%ecx, %ecx
	cmpl	%eax, %ecx
	jle	.LBB14_169
# %bb.168:                              # %cond.true437
	xorl	%eax, %eax
	jmp	.LBB14_173
.LBB14_169:                             # %cond.false438
	movq	img, %rax
	movl	72684(%rax), %ecx
	movl	-12(%rbp), %eax
	addl	$512, %eax              # imm = 0x200
	cltd
	movl	$1024, %esi             # imm = 0x400
	idivl	%esi
	cmpl	%eax, %ecx
	jge	.LBB14_171
# %bb.170:                              # %cond.true444
	movq	img, %rax
	movl	72684(%rax), %eax
	jmp	.LBB14_172
.LBB14_171:                             # %cond.false446
	movl	-12(%rbp), %eax
	addl	$512, %eax              # imm = 0x200
	cltd
	movl	$1024, %ecx             # imm = 0x400
	idivl	%ecx
.LBB14_172:                             # %cond.end449
.LBB14_173:                             # %cond.end451
	movl	%eax, -12(%rbp)
	cmpl	$1, -48(%rbp)
	jne	.LBB14_184
# %bb.174:                              # %if.then455
	movl	-12(%rbp), %ecx
	movq	img, %rax
	movl	72684(%rax), %esi
	movl	-88(%rbp), %eax
	addl	$16, %eax
	cltd
	movl	$32, %edi
	idivl	%edi
	cmpl	%eax, %esi
	jge	.LBB14_176
# %bb.175:                              # %cond.true462
	movq	img, %rax
	movl	72684(%rax), %eax
	jmp	.LBB14_177
.LBB14_176:                             # %cond.false464
	movl	-88(%rbp), %eax
	addl	$16, %eax
	cltd
	movl	$32, %esi
	idivl	%esi
.LBB14_177:                             # %cond.end468
	xorl	%edx, %edx
	cmpl	%eax, %edx
	jle	.LBB14_179
# %bb.178:                              # %cond.true472
	xorl	%eax, %eax
	jmp	.LBB14_183
.LBB14_179:                             # %cond.false473
	movq	img, %rax
	movl	72684(%rax), %esi
	movl	-88(%rbp), %eax
	addl	$16, %eax
	cltd
	movl	$32, %edi
	idivl	%edi
	cmpl	%eax, %esi
	jge	.LBB14_181
# %bb.180:                              # %cond.true480
	movq	img, %rax
	movl	72684(%rax), %eax
	jmp	.LBB14_182
.LBB14_181:                             # %cond.false482
	movl	-88(%rbp), %eax
	addl	$16, %eax
	cltd
	movl	$32, %esi
	idivl	%esi
.LBB14_182:                             # %cond.end486
.LBB14_183:                             # %cond.end488
	addl	%eax, %ecx
	movl	%ecx, %eax
	cltd
	movl	$2, %ecx
	idivl	%ecx
	movl	%eax, -12(%rbp)
	jmp	.LBB14_196
.LBB14_184:                             # %if.else492
	cmpl	$3, -48(%rbp)
	jne	.LBB14_195
# %bb.185:                              # %if.then495
	movl	-12(%rbp), %ecx
	movq	img, %rax
	movl	72684(%rax), %esi
	movl	-84(%rbp), %eax
	addl	$16, %eax
	cltd
	movl	$32, %edi
	idivl	%edi
	cmpl	%eax, %esi
	jge	.LBB14_187
# %bb.186:                              # %cond.true502
	movq	img, %rax
	movl	72684(%rax), %eax
	jmp	.LBB14_188
.LBB14_187:                             # %cond.false504
	movl	-84(%rbp), %eax
	addl	$16, %eax
	cltd
	movl	$32, %esi
	idivl	%esi
.LBB14_188:                             # %cond.end508
	xorl	%edx, %edx
	cmpl	%eax, %edx
	jle	.LBB14_190
# %bb.189:                              # %cond.true512
	xorl	%eax, %eax
	jmp	.LBB14_194
.LBB14_190:                             # %cond.false513
	movq	img, %rax
	movl	72684(%rax), %esi
	movl	-84(%rbp), %eax
	addl	$16, %eax
	cltd
	movl	$32, %edi
	idivl	%edi
	cmpl	%eax, %esi
	jge	.LBB14_192
# %bb.191:                              # %cond.true520
	movq	img, %rax
	movl	72684(%rax), %eax
	jmp	.LBB14_193
.LBB14_192:                             # %cond.false522
	movl	-84(%rbp), %eax
	addl	$16, %eax
	cltd
	movl	$32, %esi
	idivl	%esi
.LBB14_193:                             # %cond.end526
.LBB14_194:                             # %cond.end528
	addl	%eax, %ecx
	movl	%ecx, %eax
	cltd
	movl	$2, %ecx
	idivl	%ecx
	movl	%eax, -12(%rbp)
.LBB14_195:                             # %if.end532
	jmp	.LBB14_196
.LBB14_196:                             # %if.end533
	jmp	.LBB14_329
.LBB14_197:                             # %if.else534
	cmpl	$2, -48(%rbp)
	jne	.LBB14_259
# %bb.198:                              # %if.then537
	movl	$-2, -20(%rbp)
.LBB14_199:                             # %for.cond538
                                        # =>This Loop Header: Depth=1
                                        #     Child Loop BB14_210 Depth 2
	cmpl	$4, -20(%rbp)
	jge	.LBB14_224
# %bb.200:                              # %for.body541
                                        #   in Loop: Header=BB14_199 Depth=1
	movl	$0, -12(%rbp)
	movl	-32(%rbp), %eax
	movl	-28(%rbp), %ecx
	addl	-20(%rbp), %ecx
	cmpl	%ecx, %eax
	jge	.LBB14_202
# %bb.201:                              # %cond.true545
                                        #   in Loop: Header=BB14_199 Depth=1
	movl	-32(%rbp), %eax
	jmp	.LBB14_203
.LBB14_202:                             # %cond.false546
                                        #   in Loop: Header=BB14_199 Depth=1
	movl	-28(%rbp), %eax
	addl	-20(%rbp), %eax
.LBB14_203:                             # %cond.end548
                                        #   in Loop: Header=BB14_199 Depth=1
	xorl	%ecx, %ecx
	cmpl	%eax, %ecx
	jle	.LBB14_205
# %bb.204:                              # %cond.true552
                                        #   in Loop: Header=BB14_199 Depth=1
	xorl	%eax, %eax
	jmp	.LBB14_209
.LBB14_205:                             # %cond.false553
                                        #   in Loop: Header=BB14_199 Depth=1
	movl	-32(%rbp), %eax
	movl	-28(%rbp), %ecx
	addl	-20(%rbp), %ecx
	cmpl	%ecx, %eax
	jge	.LBB14_207
# %bb.206:                              # %cond.true557
                                        #   in Loop: Header=BB14_199 Depth=1
	movl	-32(%rbp), %eax
	jmp	.LBB14_208
.LBB14_207:                             # %cond.false558
                                        #   in Loop: Header=BB14_199 Depth=1
	movl	-28(%rbp), %eax
	addl	-20(%rbp), %eax
.LBB14_208:                             # %cond.end560
                                        #   in Loop: Header=BB14_199 Depth=1
.LBB14_209:                             # %cond.end562
                                        #   in Loop: Header=BB14_199 Depth=1
	movl	%eax, -40(%rbp)
	movl	$-2, -16(%rbp)
.LBB14_210:                             # %for.cond564
                                        #   Parent Loop BB14_199 Depth=1
                                        # =>  This Inner Loop Header: Depth=2
	cmpl	$4, -16(%rbp)
	jge	.LBB14_222
# %bb.211:                              # %for.body567
                                        #   in Loop: Header=BB14_210 Depth=2
	movl	-36(%rbp), %eax
	movl	-24(%rbp), %ecx
	addl	-16(%rbp), %ecx
	cmpl	%ecx, %eax
	jge	.LBB14_213
# %bb.212:                              # %cond.true571
                                        #   in Loop: Header=BB14_210 Depth=2
	movl	-36(%rbp), %eax
	jmp	.LBB14_214
.LBB14_213:                             # %cond.false572
                                        #   in Loop: Header=BB14_210 Depth=2
	movl	-24(%rbp), %eax
	addl	-16(%rbp), %eax
.LBB14_214:                             # %cond.end574
                                        #   in Loop: Header=BB14_210 Depth=2
	xorl	%ecx, %ecx
	cmpl	%eax, %ecx
	jle	.LBB14_216
# %bb.215:                              # %cond.true578
                                        #   in Loop: Header=BB14_210 Depth=2
	xorl	%eax, %eax
	jmp	.LBB14_220
.LBB14_216:                             # %cond.false579
                                        #   in Loop: Header=BB14_210 Depth=2
	movl	-36(%rbp), %eax
	movl	-24(%rbp), %ecx
	addl	-16(%rbp), %ecx
	cmpl	%ecx, %eax
	jge	.LBB14_218
# %bb.217:                              # %cond.true583
                                        #   in Loop: Header=BB14_210 Depth=2
	movl	-36(%rbp), %eax
	jmp	.LBB14_219
.LBB14_218:                             # %cond.false584
                                        #   in Loop: Header=BB14_210 Depth=2
	movl	-24(%rbp), %eax
	addl	-16(%rbp), %eax
.LBB14_219:                             # %cond.end586
                                        #   in Loop: Header=BB14_210 Depth=2
.LBB14_220:                             # %cond.end588
                                        #   in Loop: Header=BB14_210 Depth=2
	movl	%eax, -44(%rbp)
	movq	-64(%rbp), %rax
	movslq	-44(%rbp), %rcx
	movq	(%rax,%rcx,8), %rax
	movslq	-40(%rbp), %rcx
	movzwl	(%rax,%rcx,2), %eax
	movl	-16(%rbp), %ecx
	addl	$2, %ecx
	movslq	%ecx, %rcx
	imull	Get_Reference_Pixel.COEF(,%rcx,4), %eax
	addl	-12(%rbp), %eax
	movl	%eax, -12(%rbp)
# %bb.221:                              # %for.inc600
                                        #   in Loop: Header=BB14_210 Depth=2
	movl	-16(%rbp), %eax
	addl	$1, %eax
	movl	%eax, -16(%rbp)
	jmp	.LBB14_210
.LBB14_222:                             # %for.end602
                                        #   in Loop: Header=BB14_199 Depth=1
	movl	-12(%rbp), %eax
	movl	-20(%rbp), %ecx
	addl	$2, %ecx
	movslq	%ecx, %rcx
	movl	%eax, -96(%rbp,%rcx,4)
# %bb.223:                              # %for.inc606
                                        #   in Loop: Header=BB14_199 Depth=1
	movl	-20(%rbp), %eax
	addl	$1, %eax
	movl	%eax, -20(%rbp)
	jmp	.LBB14_199
.LBB14_224:                             # %for.end608
	movl	$0, -12(%rbp)
	movl	$-2, -20(%rbp)
.LBB14_225:                             # %for.cond609
                                        # =>This Inner Loop Header: Depth=1
	cmpl	$4, -20(%rbp)
	jge	.LBB14_228
# %bb.226:                              # %for.body612
                                        #   in Loop: Header=BB14_225 Depth=1
	movl	-20(%rbp), %eax
	addl	$2, %eax
	cltq
	movl	-96(%rbp,%rax,4), %eax
	movl	-20(%rbp), %ecx
	addl	$2, %ecx
	movslq	%ecx, %rcx
	imull	Get_Reference_Pixel.COEF(,%rcx,4), %eax
	addl	-12(%rbp), %eax
	movl	%eax, -12(%rbp)
# %bb.227:                              # %for.inc621
                                        #   in Loop: Header=BB14_225 Depth=1
	movl	-20(%rbp), %eax
	addl	$1, %eax
	movl	%eax, -20(%rbp)
	jmp	.LBB14_225
.LBB14_228:                             # %for.end623
	movq	img, %rax
	movl	72684(%rax), %ecx
	movl	-12(%rbp), %eax
	addl	$512, %eax              # imm = 0x200
	cltd
	movl	$1024, %esi             # imm = 0x400
	idivl	%esi
	cmpl	%eax, %ecx
	jge	.LBB14_230
# %bb.229:                              # %cond.true629
	movq	img, %rax
	movl	72684(%rax), %eax
	jmp	.LBB14_231
.LBB14_230:                             # %cond.false631
	movl	-12(%rbp), %eax
	addl	$512, %eax              # imm = 0x200
	cltd
	movl	$1024, %ecx             # imm = 0x400
	idivl	%ecx
.LBB14_231:                             # %cond.end634
	xorl	%ecx, %ecx
	cmpl	%eax, %ecx
	jle	.LBB14_233
# %bb.232:                              # %cond.true638
	xorl	%eax, %eax
	jmp	.LBB14_237
.LBB14_233:                             # %cond.false639
	movq	img, %rax
	movl	72684(%rax), %ecx
	movl	-12(%rbp), %eax
	addl	$512, %eax              # imm = 0x200
	cltd
	movl	$1024, %esi             # imm = 0x400
	idivl	%esi
	cmpl	%eax, %ecx
	jge	.LBB14_235
# %bb.234:                              # %cond.true645
	movq	img, %rax
	movl	72684(%rax), %eax
	jmp	.LBB14_236
.LBB14_235:                             # %cond.false647
	movl	-12(%rbp), %eax
	addl	$512, %eax              # imm = 0x200
	cltd
	movl	$1024, %ecx             # imm = 0x400
	idivl	%ecx
.LBB14_236:                             # %cond.end650
.LBB14_237:                             # %cond.end652
	movl	%eax, -12(%rbp)
	cmpl	$1, -52(%rbp)
	jne	.LBB14_248
# %bb.238:                              # %if.then656
	movl	-12(%rbp), %ecx
	movq	img, %rax
	movl	72684(%rax), %esi
	movl	-88(%rbp), %eax
	addl	$16, %eax
	cltd
	movl	$32, %edi
	idivl	%edi
	cmpl	%eax, %esi
	jge	.LBB14_240
# %bb.239:                              # %cond.true663
	movq	img, %rax
	movl	72684(%rax), %eax
	jmp	.LBB14_241
.LBB14_240:                             # %cond.false665
	movl	-88(%rbp), %eax
	addl	$16, %eax
	cltd
	movl	$32, %esi
	idivl	%esi
.LBB14_241:                             # %cond.end669
	xorl	%edx, %edx
	cmpl	%eax, %edx
	jle	.LBB14_243
# %bb.242:                              # %cond.true673
	xorl	%eax, %eax
	jmp	.LBB14_247
.LBB14_243:                             # %cond.false674
	movq	img, %rax
	movl	72684(%rax), %esi
	movl	-88(%rbp), %eax
	addl	$16, %eax
	cltd
	movl	$32, %edi
	idivl	%edi
	cmpl	%eax, %esi
	jge	.LBB14_245
# %bb.244:                              # %cond.true681
	movq	img, %rax
	movl	72684(%rax), %eax
	jmp	.LBB14_246
.LBB14_245:                             # %cond.false683
	movl	-88(%rbp), %eax
	addl	$16, %eax
	cltd
	movl	$32, %esi
	idivl	%esi
.LBB14_246:                             # %cond.end687
.LBB14_247:                             # %cond.end689
	addl	%eax, %ecx
	movl	%ecx, %eax
	cltd
	movl	$2, %ecx
	idivl	%ecx
	movl	%eax, -12(%rbp)
	jmp	.LBB14_258
.LBB14_248:                             # %if.else693
	movl	-12(%rbp), %ecx
	movq	img, %rax
	movl	72684(%rax), %esi
	movl	-84(%rbp), %eax
	addl	$16, %eax
	cltd
	movl	$32, %edi
	idivl	%edi
	cmpl	%eax, %esi
	jge	.LBB14_250
# %bb.249:                              # %cond.true700
	movq	img, %rax
	movl	72684(%rax), %eax
	jmp	.LBB14_251
.LBB14_250:                             # %cond.false702
	movl	-84(%rbp), %eax
	addl	$16, %eax
	cltd
	movl	$32, %esi
	idivl	%esi
.LBB14_251:                             # %cond.end706
	xorl	%edx, %edx
	cmpl	%eax, %edx
	jle	.LBB14_253
# %bb.252:                              # %cond.true710
	xorl	%eax, %eax
	jmp	.LBB14_257
.LBB14_253:                             # %cond.false711
	movq	img, %rax
	movl	72684(%rax), %esi
	movl	-84(%rbp), %eax
	addl	$16, %eax
	cltd
	movl	$32, %edi
	idivl	%edi
	cmpl	%eax, %esi
	jge	.LBB14_255
# %bb.254:                              # %cond.true718
	movq	img, %rax
	movl	72684(%rax), %eax
	jmp	.LBB14_256
.LBB14_255:                             # %cond.false720
	movl	-84(%rbp), %eax
	addl	$16, %eax
	cltd
	movl	$32, %esi
	idivl	%esi
.LBB14_256:                             # %cond.end724
.LBB14_257:                             # %cond.end726
	addl	%eax, %ecx
	movl	%ecx, %eax
	cltd
	movl	$2, %ecx
	idivl	%ecx
	movl	%eax, -12(%rbp)
.LBB14_258:                             # %if.end730
	jmp	.LBB14_328
.LBB14_259:                             # %if.else731
	movl	$0, -12(%rbp)
	cmpl	$1, -48(%rbp)
	jne	.LBB14_261
# %bb.260:                              # %cond.true734
	movl	-24(%rbp), %eax
	jmp	.LBB14_262
.LBB14_261:                             # %cond.false735
	movl	-24(%rbp), %eax
	addl	$1, %eax
.LBB14_262:                             # %cond.end737
	movl	%eax, -44(%rbp)
	movl	-36(%rbp), %eax
	cmpl	-44(%rbp), %eax
	jge	.LBB14_264
# %bb.263:                              # %cond.true741
	movl	-36(%rbp), %eax
	jmp	.LBB14_265
.LBB14_264:                             # %cond.false742
	movl	-44(%rbp), %eax
.LBB14_265:                             # %cond.end743
	xorl	%ecx, %ecx
	cmpl	%eax, %ecx
	jle	.LBB14_267
# %bb.266:                              # %cond.true747
	xorl	%eax, %eax
	jmp	.LBB14_271
.LBB14_267:                             # %cond.false748
	movl	-36(%rbp), %eax
	cmpl	-44(%rbp), %eax
	jge	.LBB14_269
# %bb.268:                              # %cond.true751
	movl	-36(%rbp), %eax
	jmp	.LBB14_270
.LBB14_269:                             # %cond.false752
	movl	-44(%rbp), %eax
.LBB14_270:                             # %cond.end753
.LBB14_271:                             # %cond.end755
	movl	%eax, -44(%rbp)
	movl	$-2, -20(%rbp)
.LBB14_272:                             # %for.cond757
                                        # =>This Inner Loop Header: Depth=1
	cmpl	$4, -20(%rbp)
	jge	.LBB14_284
# %bb.273:                              # %for.body760
                                        #   in Loop: Header=BB14_272 Depth=1
	movl	-32(%rbp), %eax
	movl	-28(%rbp), %ecx
	addl	-20(%rbp), %ecx
	cmpl	%ecx, %eax
	jge	.LBB14_275
# %bb.274:                              # %cond.true764
                                        #   in Loop: Header=BB14_272 Depth=1
	movl	-32(%rbp), %eax
	jmp	.LBB14_276
.LBB14_275:                             # %cond.false765
                                        #   in Loop: Header=BB14_272 Depth=1
	movl	-28(%rbp), %eax
	addl	-20(%rbp), %eax
.LBB14_276:                             # %cond.end767
                                        #   in Loop: Header=BB14_272 Depth=1
	xorl	%ecx, %ecx
	cmpl	%eax, %ecx
	jle	.LBB14_278
# %bb.277:                              # %cond.true771
                                        #   in Loop: Header=BB14_272 Depth=1
	xorl	%eax, %eax
	jmp	.LBB14_282
.LBB14_278:                             # %cond.false772
                                        #   in Loop: Header=BB14_272 Depth=1
	movl	-32(%rbp), %eax
	movl	-28(%rbp), %ecx
	addl	-20(%rbp), %ecx
	cmpl	%ecx, %eax
	jge	.LBB14_280
# %bb.279:                              # %cond.true776
                                        #   in Loop: Header=BB14_272 Depth=1
	movl	-32(%rbp), %eax
	jmp	.LBB14_281
.LBB14_280:                             # %cond.false777
                                        #   in Loop: Header=BB14_272 Depth=1
	movl	-28(%rbp), %eax
	addl	-20(%rbp), %eax
.LBB14_281:                             # %cond.end779
                                        #   in Loop: Header=BB14_272 Depth=1
.LBB14_282:                             # %cond.end781
                                        #   in Loop: Header=BB14_272 Depth=1
	movl	%eax, -40(%rbp)
	movq	-64(%rbp), %rax
	movslq	-44(%rbp), %rcx
	movq	(%rax,%rcx,8), %rax
	movslq	-40(%rbp), %rcx
	movzwl	(%rax,%rcx,2), %eax
	movl	-20(%rbp), %ecx
	addl	$2, %ecx
	movslq	%ecx, %rcx
	imull	Get_Reference_Pixel.COEF(,%rcx,4), %eax
	addl	-12(%rbp), %eax
	movl	%eax, -12(%rbp)
# %bb.283:                              # %for.inc793
                                        #   in Loop: Header=BB14_272 Depth=1
	movl	-20(%rbp), %eax
	addl	$1, %eax
	movl	%eax, -20(%rbp)
	jmp	.LBB14_272
.LBB14_284:                             # %for.end795
	movq	img, %rax
	movl	72684(%rax), %ecx
	movl	-12(%rbp), %eax
	addl	$16, %eax
	cltd
	movl	$32, %esi
	idivl	%esi
	cmpl	%eax, %ecx
	jge	.LBB14_286
# %bb.285:                              # %cond.true801
	movq	img, %rax
	movl	72684(%rax), %eax
	jmp	.LBB14_287
.LBB14_286:                             # %cond.false803
	movl	-12(%rbp), %eax
	addl	$16, %eax
	cltd
	movl	$32, %ecx
	idivl	%ecx
.LBB14_287:                             # %cond.end806
	xorl	%ecx, %ecx
	cmpl	%eax, %ecx
	jle	.LBB14_289
# %bb.288:                              # %cond.true810
	xorl	%eax, %eax
	jmp	.LBB14_293
.LBB14_289:                             # %cond.false811
	movq	img, %rax
	movl	72684(%rax), %ecx
	movl	-12(%rbp), %eax
	addl	$16, %eax
	cltd
	movl	$32, %esi
	idivl	%esi
	cmpl	%eax, %ecx
	jge	.LBB14_291
# %bb.290:                              # %cond.true817
	movq	img, %rax
	movl	72684(%rax), %eax
	jmp	.LBB14_292
.LBB14_291:                             # %cond.false819
	movl	-12(%rbp), %eax
	addl	$16, %eax
	cltd
	movl	$32, %ecx
	idivl	%ecx
.LBB14_292:                             # %cond.end822
.LBB14_293:                             # %cond.end824
	movl	%eax, -104(%rbp)
	movl	$0, -12(%rbp)
	cmpl	$1, -52(%rbp)
	jne	.LBB14_295
# %bb.294:                              # %cond.true828
	movl	-28(%rbp), %eax
	jmp	.LBB14_296
.LBB14_295:                             # %cond.false829
	movl	-28(%rbp), %eax
	addl	$1, %eax
.LBB14_296:                             # %cond.end831
	movl	%eax, -40(%rbp)
	movl	-32(%rbp), %eax
	cmpl	-40(%rbp), %eax
	jge	.LBB14_298
# %bb.297:                              # %cond.true835
	movl	-32(%rbp), %eax
	jmp	.LBB14_299
.LBB14_298:                             # %cond.false836
	movl	-40(%rbp), %eax
.LBB14_299:                             # %cond.end837
	xorl	%ecx, %ecx
	cmpl	%eax, %ecx
	jle	.LBB14_301
# %bb.300:                              # %cond.true841
	xorl	%eax, %eax
	jmp	.LBB14_305
.LBB14_301:                             # %cond.false842
	movl	-32(%rbp), %eax
	cmpl	-40(%rbp), %eax
	jge	.LBB14_303
# %bb.302:                              # %cond.true845
	movl	-32(%rbp), %eax
	jmp	.LBB14_304
.LBB14_303:                             # %cond.false846
	movl	-40(%rbp), %eax
.LBB14_304:                             # %cond.end847
.LBB14_305:                             # %cond.end849
	movl	%eax, -40(%rbp)
	movl	$-2, -16(%rbp)
.LBB14_306:                             # %for.cond851
                                        # =>This Inner Loop Header: Depth=1
	cmpl	$4, -16(%rbp)
	jge	.LBB14_318
# %bb.307:                              # %for.body854
                                        #   in Loop: Header=BB14_306 Depth=1
	movl	-36(%rbp), %eax
	movl	-24(%rbp), %ecx
	addl	-16(%rbp), %ecx
	cmpl	%ecx, %eax
	jge	.LBB14_309
# %bb.308:                              # %cond.true858
                                        #   in Loop: Header=BB14_306 Depth=1
	movl	-36(%rbp), %eax
	jmp	.LBB14_310
.LBB14_309:                             # %cond.false859
                                        #   in Loop: Header=BB14_306 Depth=1
	movl	-24(%rbp), %eax
	addl	-16(%rbp), %eax
.LBB14_310:                             # %cond.end861
                                        #   in Loop: Header=BB14_306 Depth=1
	xorl	%ecx, %ecx
	cmpl	%eax, %ecx
	jle	.LBB14_312
# %bb.311:                              # %cond.true865
                                        #   in Loop: Header=BB14_306 Depth=1
	xorl	%eax, %eax
	jmp	.LBB14_316
.LBB14_312:                             # %cond.false866
                                        #   in Loop: Header=BB14_306 Depth=1
	movl	-36(%rbp), %eax
	movl	-24(%rbp), %ecx
	addl	-16(%rbp), %ecx
	cmpl	%ecx, %eax
	jge	.LBB14_314
# %bb.313:                              # %cond.true870
                                        #   in Loop: Header=BB14_306 Depth=1
	movl	-36(%rbp), %eax
	jmp	.LBB14_315
.LBB14_314:                             # %cond.false871
                                        #   in Loop: Header=BB14_306 Depth=1
	movl	-24(%rbp), %eax
	addl	-16(%rbp), %eax
.LBB14_315:                             # %cond.end873
                                        #   in Loop: Header=BB14_306 Depth=1
.LBB14_316:                             # %cond.end875
                                        #   in Loop: Header=BB14_306 Depth=1
	movl	%eax, -44(%rbp)
	movq	-64(%rbp), %rax
	movslq	-44(%rbp), %rcx
	movq	(%rax,%rcx,8), %rax
	movslq	-40(%rbp), %rcx
	movzwl	(%rax,%rcx,2), %eax
	movl	-16(%rbp), %ecx
	addl	$2, %ecx
	movslq	%ecx, %rcx
	imull	Get_Reference_Pixel.COEF(,%rcx,4), %eax
	addl	-12(%rbp), %eax
	movl	%eax, -12(%rbp)
# %bb.317:                              # %for.inc887
                                        #   in Loop: Header=BB14_306 Depth=1
	movl	-16(%rbp), %eax
	addl	$1, %eax
	movl	%eax, -16(%rbp)
	jmp	.LBB14_306
.LBB14_318:                             # %for.end889
	movq	img, %rax
	movl	72684(%rax), %ecx
	movl	-12(%rbp), %eax
	addl	$16, %eax
	cltd
	movl	$32, %esi
	idivl	%esi
	cmpl	%eax, %ecx
	jge	.LBB14_320
# %bb.319:                              # %cond.true895
	movq	img, %rax
	movl	72684(%rax), %eax
	jmp	.LBB14_321
.LBB14_320:                             # %cond.false897
	movl	-12(%rbp), %eax
	addl	$16, %eax
	cltd
	movl	$32, %ecx
	idivl	%ecx
.LBB14_321:                             # %cond.end900
	xorl	%ecx, %ecx
	cmpl	%eax, %ecx
	jle	.LBB14_323
# %bb.322:                              # %cond.true904
	xorl	%eax, %eax
	jmp	.LBB14_327
.LBB14_323:                             # %cond.false905
	movq	img, %rax
	movl	72684(%rax), %ecx
	movl	-12(%rbp), %eax
	addl	$16, %eax
	cltd
	movl	$32, %esi
	idivl	%esi
	cmpl	%eax, %ecx
	jge	.LBB14_325
# %bb.324:                              # %cond.true911
	movq	img, %rax
	movl	72684(%rax), %eax
	jmp	.LBB14_326
.LBB14_325:                             # %cond.false913
	movl	-12(%rbp), %eax
	addl	$16, %eax
	cltd
	movl	$32, %ecx
	idivl	%ecx
.LBB14_326:                             # %cond.end916
.LBB14_327:                             # %cond.end918
	movl	%eax, -100(%rbp)
	movl	-104(%rbp), %eax
	addl	-100(%rbp), %eax
	cltd
	movl	$2, %ecx
	idivl	%ecx
	movl	%eax, -12(%rbp)
.LBB14_328:                             # %if.end922
	jmp	.LBB14_329
.LBB14_329:                             # %if.end923
	jmp	.LBB14_330
.LBB14_330:                             # %if.end924
	jmp	.LBB14_331
.LBB14_331:                             # %if.end925
	jmp	.LBB14_332
.LBB14_332:                             # %if.end926
	movl	-12(%rbp), %ebx
	cmpl	$1620304501, -108(%rbp) # imm = 0x6093E275
	jne	.LBB14_334
.LBB14_333:
	movzbl	%bl, %eax
	addq	$104, %rsp
	popq	%rbx
	popq	%rbp
	.cfi_def_cfa %rsp, 8
	retq
.LBB14_334:                             # %func_exit
	.cfi_def_cfa %rbp, 16
	callq	detect_breach
	jmp	.LBB14_333
.Lfunc_end14:
	.size	Get_Reference_Pixel.4, .Lfunc_end14-Get_Reference_Pixel.4
	.cfi_endproc
                                        # -- End function
	.globl	Get_Reference_Block.5   # -- Begin function Get_Reference_Block.5
	.p2align	4, 0x90
	.type	Get_Reference_Block.5,@function
Get_Reference_Block.5:                  # @Get_Reference_Block.5
	.cfi_startproc
# %bb.0:                                # %entry
	pushq	%rbp
	.cfi_def_cfa_offset 16
	.cfi_offset %rbp, -16
	movq	%rsp, %rbp
	.cfi_def_cfa_register %rbp
	subq	$64, %rsp
	movl	$1340828873, -28(%rbp)  # imm = 0x4FEB6CC9
	movq	%rdi, -48(%rbp)
	movl	%esi, -16(%rbp)
	movl	%edx, -32(%rbp)
	movl	%ecx, -24(%rbp)
	movl	%r8d, -36(%rbp)
	movq	%r9, -56(%rbp)
	movl	-16(%rbp), %eax
	shll	$2, %eax
	shll	$2, %eax
	addl	-36(%rbp), %eax
	movl	%eax, -20(%rbp)
	movl	-32(%rbp), %eax
	shll	$2, %eax
	shll	$2, %eax
	addl	-24(%rbp), %eax
	movl	%eax, -12(%rbp)
	movl	$0, -8(%rbp)
.LBB15_1:                               # %for.cond
                                        # =>This Loop Header: Depth=1
                                        #     Child Loop BB15_3 Depth 2
	cmpl	$4, -8(%rbp)
	jge	.LBB15_8
# %bb.2:                                # %for.body
                                        #   in Loop: Header=BB15_1 Depth=1
	movl	$0, -4(%rbp)
.LBB15_3:                               # %for.cond5
                                        #   Parent Loop BB15_1 Depth=1
                                        # =>  This Inner Loop Header: Depth=2
	cmpl	$4, -4(%rbp)
	jge	.LBB15_6
# %bb.4:                                # %for.body7
                                        #   in Loop: Header=BB15_3 Depth=2
	movq	-48(%rbp), %rdi
	movl	-20(%rbp), %esi
	movl	-8(%rbp), %eax
	shll	$2, %eax
	addl	%eax, %esi
	movl	-12(%rbp), %edx
	movl	-4(%rbp), %eax
	shll	$2, %eax
	addl	%eax, %edx
	callq	Get_Reference_Pixel
	movzbl	%al, %eax
	movq	-56(%rbp), %rcx
	movslq	-8(%rbp), %rdx
	movq	(%rcx,%rdx,8), %rcx
	movslq	-4(%rbp), %rdx
	movw	%ax, (%rcx,%rdx,2)
# %bb.5:                                # %for.inc
                                        #   in Loop: Header=BB15_3 Depth=2
	movl	-4(%rbp), %eax
	addl	$1, %eax
	movl	%eax, -4(%rbp)
	jmp	.LBB15_3
.LBB15_6:                               # %for.end
                                        #   in Loop: Header=BB15_1 Depth=1
	jmp	.LBB15_7
.LBB15_7:                               # %for.inc14
                                        #   in Loop: Header=BB15_1 Depth=1
	movl	-8(%rbp), %eax
	addl	$1, %eax
	movl	%eax, -8(%rbp)
	jmp	.LBB15_1
.LBB15_8:                               # %for.end16
	cmpl	$1340828873, -28(%rbp)  # imm = 0x4FEB6CC9
	jne	.LBB15_10
.LBB15_9:
	addq	$64, %rsp
	popq	%rbp
	.cfi_def_cfa %rsp, 8
	retq
.LBB15_10:                              # %func_exit
	.cfi_def_cfa %rbp, 16
	callq	detect_breach
	jmp	.LBB15_9
.Lfunc_end15:
	.size	Get_Reference_Block.5, .Lfunc_end15-Get_Reference_Block.5
	.cfi_endproc
                                        # -- End function
	.globl	compute_residue_b8block.6 # -- Begin function compute_residue_b8block.6
	.p2align	4, 0x90
	.type	compute_residue_b8block.6,@function
compute_residue_b8block.6:              # @compute_residue_b8block.6
	.cfi_startproc
# %bb.0:                                # %entry
	pushq	%rbp
	.cfi_def_cfa_offset 16
	.cfi_offset %rbp, -16
	movq	%rsp, %rbp
	.cfi_def_cfa_register %rbp
	subq	$48, %rsp
	movl	$1775605890, -36(%rbp)  # imm = 0x69D59882
	movl	%edi, -24(%rbp)
	movl	%esi, -32(%rbp)
	movl	-24(%rbp), %eax
	cltd
	movl	$2, %ecx
	idivl	%ecx
	shll	$3, %edx
	movl	%edx, -12(%rbp)
	movl	-12(%rbp), %eax
	addl	$8, %eax
	movl	%eax, -20(%rbp)
	movl	-24(%rbp), %eax
	cltd
	idivl	%ecx
	shll	$3, %eax
	movl	%eax, -16(%rbp)
	movl	-16(%rbp), %eax
	addl	$8, %eax
	movl	%eax, -28(%rbp)
	cmpl	$0, -32(%rbp)
	jl	.LBB16_10
# %bb.1:                                # %if.then
	movl	-12(%rbp), %eax
	movl	%eax, -8(%rbp)
.LBB16_2:                               # %for.cond
                                        # =>This Loop Header: Depth=1
                                        #     Child Loop BB16_4 Depth 2
	movl	-8(%rbp), %eax
	cmpl	-20(%rbp), %eax
	jge	.LBB16_9
# %bb.3:                                # %for.body
                                        #   in Loop: Header=BB16_2 Depth=1
	movl	-16(%rbp), %eax
	movl	%eax, -4(%rbp)
.LBB16_4:                               # %for.cond4
                                        #   Parent Loop BB16_2 Depth=1
                                        # =>  This Inner Loop Header: Depth=2
	movl	-4(%rbp), %eax
	cmpl	-28(%rbp), %eax
	jge	.LBB16_7
# %bb.5:                                # %for.body6
                                        #   in Loop: Header=BB16_4 Depth=2
	movq	enc_picture, %rax
	movq	6424(%rax), %rax
	movq	img, %rcx
	movl	156(%rcx), %ecx
	addl	-4(%rbp), %ecx
	movslq	%ecx, %rcx
	movq	(%rax,%rcx,8), %rax
	movq	img, %rcx
	movl	152(%rcx), %ecx
	addl	-8(%rbp), %ecx
	movslq	%ecx, %rcx
	movzwl	(%rax,%rcx,2), %eax
	movq	img, %rcx
	addq	$4792, %rcx             # imm = 0x12B8
	movslq	-32(%rbp), %rdx
	shlq	$9, %rdx
	addq	%rdx, %rcx
	movslq	-4(%rbp), %rdx
	shlq	$5, %rdx
	addq	%rdx, %rcx
	movslq	-8(%rbp), %rdx
	movzwl	(%rcx,%rdx,2), %ecx
	subl	%ecx, %eax
	movq	decs, %rcx
	movq	(%rcx), %rcx
	movslq	-4(%rbp), %rdx
	movq	(%rcx,%rdx,8), %rcx
	movslq	-8(%rbp), %rdx
	movl	%eax, (%rcx,%rdx,4)
# %bb.6:                                # %for.inc
                                        #   in Loop: Header=BB16_4 Depth=2
	movl	-4(%rbp), %eax
	addl	$1, %eax
	movl	%eax, -4(%rbp)
	jmp	.LBB16_4
.LBB16_7:                               # %for.end
                                        #   in Loop: Header=BB16_2 Depth=1
	jmp	.LBB16_8
.LBB16_8:                               # %for.inc22
                                        #   in Loop: Header=BB16_2 Depth=1
	movl	-8(%rbp), %eax
	addl	$1, %eax
	movl	%eax, -8(%rbp)
	jmp	.LBB16_2
.LBB16_9:                               # %for.end24
	jmp	.LBB16_19
.LBB16_10:                              # %if.else
	movl	-12(%rbp), %eax
	movl	%eax, -8(%rbp)
.LBB16_11:                              # %for.cond25
                                        # =>This Loop Header: Depth=1
                                        #     Child Loop BB16_13 Depth 2
	movl	-8(%rbp), %eax
	cmpl	-20(%rbp), %eax
	jge	.LBB16_18
# %bb.12:                               # %for.body28
                                        #   in Loop: Header=BB16_11 Depth=1
	movl	-16(%rbp), %eax
	movl	%eax, -4(%rbp)
.LBB16_13:                              # %for.cond29
                                        #   Parent Loop BB16_11 Depth=1
                                        # =>  This Inner Loop Header: Depth=2
	movl	-4(%rbp), %eax
	cmpl	-28(%rbp), %eax
	jge	.LBB16_16
# %bb.14:                               # %for.body32
                                        #   in Loop: Header=BB16_13 Depth=2
	movq	enc_picture, %rax
	movq	6424(%rax), %rax
	movq	img, %rcx
	movl	156(%rcx), %ecx
	addl	-4(%rbp), %ecx
	movslq	%ecx, %rcx
	movq	(%rax,%rcx,8), %rax
	movq	img, %rcx
	movl	152(%rcx), %ecx
	addl	-8(%rbp), %ecx
	movslq	%ecx, %rcx
	movzwl	(%rax,%rcx,2), %eax
	movq	img, %rcx
	addq	$12600, %rcx            # imm = 0x3138
	movslq	-8(%rbp), %rdx
	shlq	$5, %rdx
	addq	%rdx, %rcx
	movslq	-4(%rbp), %rdx
	movzwl	(%rcx,%rdx,2), %ecx
	subl	%ecx, %eax
	movq	decs, %rcx
	movq	(%rcx), %rcx
	movslq	-4(%rbp), %rdx
	movq	(%rcx,%rdx,8), %rcx
	movslq	-8(%rbp), %rdx
	movl	%eax, (%rcx,%rdx,4)
# %bb.15:                               # %for.inc54
                                        #   in Loop: Header=BB16_13 Depth=2
	movl	-4(%rbp), %eax
	addl	$1, %eax
	movl	%eax, -4(%rbp)
	jmp	.LBB16_13
.LBB16_16:                              # %for.end56
                                        #   in Loop: Header=BB16_11 Depth=1
	jmp	.LBB16_17
.LBB16_17:                              # %for.inc57
                                        #   in Loop: Header=BB16_11 Depth=1
	movl	-8(%rbp), %eax
	addl	$1, %eax
	movl	%eax, -8(%rbp)
	jmp	.LBB16_11
.LBB16_18:                              # %for.end59
	jmp	.LBB16_19
.LBB16_19:                              # %if.end
	cmpl	$1775605890, -36(%rbp)  # imm = 0x69D59882
	jne	.LBB16_21
.LBB16_20:
	addq	$48, %rsp
	popq	%rbp
	.cfi_def_cfa %rsp, 8
	retq
.LBB16_21:                              # %func_exit
	.cfi_def_cfa %rbp, 16
	callq	detect_breach
	jmp	.LBB16_20
.Lfunc_end16:
	.size	compute_residue_b8block.6, .Lfunc_end16-compute_residue_b8block.6
	.cfi_endproc
                                        # -- End function
	.globl	DecOneForthPix.7        # -- Begin function DecOneForthPix.7
	.p2align	4, 0x90
	.type	DecOneForthPix.7,@function
DecOneForthPix.7:                       # @DecOneForthPix.7
	.cfi_startproc
# %bb.0:                                # %entry
	pushq	%rbp
	.cfi_def_cfa_offset 16
	.cfi_offset %rbp, -16
	movq	%rsp, %rbp
	.cfi_def_cfa_register %rbp
	subq	$32, %rsp
	movl	$1191452428, -12(%rbp)  # imm = 0x47041F0C
	movq	%rdi, -32(%rbp)
	movq	%rsi, -24(%rbp)
	movq	img, %rax
	movl	(%rax), %eax
	subl	start_frame_no_in_this_IGOP, %eax
	movq	img, %rcx
	cltd
	idivl	72376(%rcx)
	movl	%edx, -8(%rbp)
	movl	$0, -4(%rbp)
.LBB17_1:                               # %for.cond
                                        # =>This Inner Loop Header: Depth=1
	movl	-4(%rbp), %eax
	movq	img, %rcx
	cmpl	60(%rcx), %eax
	jge	.LBB17_4
# %bb.2:                                # %for.body
                                        #   in Loop: Header=BB17_1 Depth=1
	movq	-24(%rbp), %rax
	movslq	-8(%rbp), %rcx
	movq	(%rax,%rcx,8), %rax
	movslq	-4(%rbp), %rcx
	movq	(%rax,%rcx,8), %rdi
	movq	-32(%rbp), %rax
	movslq	-4(%rbp), %rcx
	movq	(%rax,%rcx,8), %rsi
	movq	img, %rax
	movslq	52(%rax), %rdx
	shlq	$1, %rdx
	callq	memcpy
# %bb.3:                                # %for.inc
                                        #   in Loop: Header=BB17_1 Depth=1
	movl	-4(%rbp), %eax
	addl	$1, %eax
	movl	%eax, -4(%rbp)
	jmp	.LBB17_1
.LBB17_4:                               # %for.end
	cmpl	$1191452428, -12(%rbp)  # imm = 0x47041F0C
	jne	.LBB17_6
.LBB17_5:
	addq	$32, %rsp
	popq	%rbp
	.cfi_def_cfa %rsp, 8
	retq
.LBB17_6:                               # %func_exit
	.cfi_def_cfa %rbp, 16
	callq	detect_breach
	jmp	.LBB17_5
.Lfunc_end17:
	.size	DecOneForthPix.7, .Lfunc_end17-DecOneForthPix.7
	.cfi_endproc
                                        # -- End function
	.globl	decode_one_b8block.8    # -- Begin function decode_one_b8block.8
	.p2align	4, 0x90
	.type	decode_one_b8block.8,@function
decode_one_b8block.8:                   # @decode_one_b8block.8
	.cfi_startproc
# %bb.0:                                # %entry
	pushq	%rbp
	.cfi_def_cfa_offset 16
	.cfi_offset %rbp, -16
	movq	%rsp, %rbp
	.cfi_def_cfa_register %rbp
	subq	$1248, %rsp             # imm = 0x4E0
	movl	$1713303257, -84(%rbp)  # imm = 0x661EEED9
	movl	%edi, -40(%rbp)
	movl	%esi, -68(%rbp)
	movl	%edx, -76(%rbp)
	movl	%ecx, -24(%rbp)
	movl	%r8d, -60(%rbp)
	movq	img, %rax
	movl	(%rax), %eax
	subl	start_frame_no_in_this_IGOP, %eax
	subl	$1, %eax
	movq	img, %rcx
	cltd
	idivl	32(%rcx)
	movl	%edx, -72(%rbp)
	movl	-76(%rbp), %eax
	cltd
	movl	$2, %ecx
	idivl	%ecx
	shll	$3, %edx
	movl	%edx, -20(%rbp)
	movl	-20(%rbp), %eax
	addl	$8, %eax
	movl	%eax, -48(%rbp)
	movl	-20(%rbp), %eax
	sarl	$2, %eax
	movl	%eax, -32(%rbp)
	movl	-32(%rbp), %eax
	addl	$2, %eax
	movl	%eax, -56(%rbp)
	movl	-76(%rbp), %eax
	cltd
	idivl	%ecx
	shll	$3, %eax
	movl	%eax, -28(%rbp)
	movl	-28(%rbp), %eax
	addl	$8, %eax
	movl	%eax, -52(%rbp)
	movl	-28(%rbp), %eax
	sarl	$2, %eax
	movl	%eax, -36(%rbp)
	movl	-36(%rbp), %eax
	addl	$2, %eax
	movl	%eax, -44(%rbp)
	movq	img, %rax
	cmpl	$2, 24(%rax)
	jne	.LBB18_10
# %bb.1:                                # %if.then
	movl	-20(%rbp), %eax
	movl	%eax, -4(%rbp)
.LBB18_2:                               # %for.cond
                                        # =>This Loop Header: Depth=1
                                        #     Child Loop BB18_4 Depth 2
	movl	-4(%rbp), %eax
	cmpl	-48(%rbp), %eax
	jge	.LBB18_9
# %bb.3:                                # %for.body
                                        #   in Loop: Header=BB18_2 Depth=1
	movl	-28(%rbp), %eax
	movl	%eax, -8(%rbp)
.LBB18_4:                               # %for.cond9
                                        #   Parent Loop BB18_2 Depth=1
                                        # =>  This Inner Loop Header: Depth=2
	movl	-8(%rbp), %eax
	cmpl	-52(%rbp), %eax
	jge	.LBB18_7
# %bb.5:                                # %for.body11
                                        #   in Loop: Header=BB18_4 Depth=2
	movq	enc_picture, %rax
	movq	6424(%rax), %rax
	movq	img, %rcx
	movl	156(%rcx), %ecx
	addl	-8(%rbp), %ecx
	movslq	%ecx, %rcx
	movq	(%rax,%rcx,8), %rax
	movq	img, %rcx
	movl	152(%rcx), %ecx
	addl	-4(%rbp), %ecx
	movslq	%ecx, %rcx
	movw	(%rax,%rcx,2), %ax
	movq	decs, %rcx
	movq	8(%rcx), %rcx
	movslq	-40(%rbp), %rdx
	movq	(%rcx,%rdx,8), %rcx
	movq	img, %rdx
	movl	156(%rdx), %edx
	addl	-8(%rbp), %edx
	movslq	%edx, %rdx
	movq	(%rcx,%rdx,8), %rcx
	movq	img, %rdx
	movl	152(%rdx), %edx
	addl	-4(%rbp), %edx
	movslq	%edx, %rdx
	movw	%ax, (%rcx,%rdx,2)
# %bb.6:                                # %for.inc
                                        #   in Loop: Header=BB18_4 Depth=2
	movl	-8(%rbp), %eax
	addl	$1, %eax
	movl	%eax, -8(%rbp)
	jmp	.LBB18_4
.LBB18_7:                               # %for.end
                                        #   in Loop: Header=BB18_2 Depth=1
	jmp	.LBB18_8
.LBB18_8:                               # %for.inc26
                                        #   in Loop: Header=BB18_2 Depth=1
	movl	-4(%rbp), %eax
	addl	$1, %eax
	movl	%eax, -4(%rbp)
	jmp	.LBB18_2
.LBB18_9:                               # %for.end28
	jmp	.LBB18_96
.LBB18_10:                              # %if.else
	cmpl	$0, -68(%rbp)
	jne	.LBB18_31
# %bb.11:                               # %land.lhs.true
	movq	img, %rax
	cmpl	$0, 24(%rax)
	je	.LBB18_14
# %bb.12:                               # %lor.lhs.false
	movq	img, %rax
	cmpl	$1, 24(%rax)
	jne	.LBB18_31
# %bb.13:                               # %land.lhs.true34
	movq	img, %rax
	cmpl	$0, 72496(%rax)
	jle	.LBB18_31
.LBB18_14:                              # %if.then36
	movl	-20(%rbp), %eax
	movl	%eax, -4(%rbp)
.LBB18_15:                              # %for.cond37
                                        # =>This Loop Header: Depth=1
                                        #     Child Loop BB18_17 Depth 2
	movl	-4(%rbp), %eax
	cmpl	-48(%rbp), %eax
	jge	.LBB18_22
# %bb.16:                               # %for.body39
                                        #   in Loop: Header=BB18_15 Depth=1
	movl	-28(%rbp), %eax
	movl	%eax, -8(%rbp)
.LBB18_17:                              # %for.cond40
                                        #   Parent Loop BB18_15 Depth=1
                                        # =>  This Inner Loop Header: Depth=2
	movl	-8(%rbp), %eax
	cmpl	-52(%rbp), %eax
	jge	.LBB18_20
# %bb.18:                               # %for.body42
                                        #   in Loop: Header=BB18_17 Depth=2
	movslq	-8(%rbp), %rax
	shlq	$6, %rax
	leaq	-1248(%rbp), %rcx
	addq	%rax, %rcx
	movslq	-4(%rbp), %rax
	movl	$0, (%rcx,%rax,4)
# %bb.19:                               # %for.inc47
                                        #   in Loop: Header=BB18_17 Depth=2
	movl	-8(%rbp), %eax
	addl	$1, %eax
	movl	%eax, -8(%rbp)
	jmp	.LBB18_17
.LBB18_20:                              # %for.end49
                                        #   in Loop: Header=BB18_15 Depth=1
	jmp	.LBB18_21
.LBB18_21:                              # %for.inc50
                                        #   in Loop: Header=BB18_15 Depth=1
	movl	-4(%rbp), %eax
	addl	$1, %eax
	movl	%eax, -4(%rbp)
	jmp	.LBB18_15
.LBB18_22:                              # %for.end52
	movl	-36(%rbp), %eax
	movl	%eax, -16(%rbp)
.LBB18_23:                              # %for.cond53
                                        # =>This Loop Header: Depth=1
                                        #     Child Loop BB18_25 Depth 2
	movl	-16(%rbp), %eax
	cmpl	-44(%rbp), %eax
	jge	.LBB18_30
# %bb.24:                               # %for.body55
                                        #   in Loop: Header=BB18_23 Depth=1
	movl	-32(%rbp), %eax
	movl	%eax, -12(%rbp)
.LBB18_25:                              # %for.cond56
                                        #   Parent Loop BB18_23 Depth=1
                                        # =>  This Inner Loop Header: Depth=2
	movl	-12(%rbp), %eax
	cmpl	-56(%rbp), %eax
	jge	.LBB18_28
# %bb.26:                               # %for.body58
                                        #   in Loop: Header=BB18_25 Depth=2
	leaq	-224(%rbp), %rax
	movq	%rax, %rcx
	addq	$64, %rcx
	movslq	-16(%rbp), %rdx
	shlq	$4, %rdx
	addq	%rdx, %rcx
	movslq	-12(%rbp), %rdx
	movl	$0, (%rcx,%rdx,4)
	movslq	-16(%rbp), %rcx
	shlq	$4, %rcx
	addq	%rcx, %rax
	movslq	-12(%rbp), %rcx
	movl	$0, (%rax,%rcx,4)
# %bb.27:                               # %for.inc69
                                        #   in Loop: Header=BB18_25 Depth=2
	movl	-12(%rbp), %eax
	addl	$1, %eax
	movl	%eax, -12(%rbp)
	jmp	.LBB18_25
.LBB18_28:                              # %for.end71
                                        #   in Loop: Header=BB18_23 Depth=1
	jmp	.LBB18_29
.LBB18_29:                              # %for.inc72
                                        #   in Loop: Header=BB18_23 Depth=1
	movl	-16(%rbp), %eax
	addl	$1, %eax
	movl	%eax, -16(%rbp)
	jmp	.LBB18_23
.LBB18_30:                              # %for.end74
	jmp	.LBB18_60
.LBB18_31:                              # %if.else75
	cmpl	$1, -24(%rbp)
	jl	.LBB18_42
# %bb.32:                               # %land.lhs.true77
	cmpl	$7, -24(%rbp)
	jg	.LBB18_42
# %bb.33:                               # %if.then79
	movl	-36(%rbp), %eax
	movl	%eax, -16(%rbp)
.LBB18_34:                              # %for.cond80
                                        # =>This Loop Header: Depth=1
                                        #     Child Loop BB18_36 Depth 2
	movl	-16(%rbp), %eax
	cmpl	-44(%rbp), %eax
	jge	.LBB18_41
# %bb.35:                               # %for.body82
                                        #   in Loop: Header=BB18_34 Depth=1
	movl	-32(%rbp), %eax
	movl	%eax, -12(%rbp)
.LBB18_36:                              # %for.cond83
                                        #   Parent Loop BB18_34 Depth=1
                                        # =>  This Inner Loop Header: Depth=2
	movl	-12(%rbp), %eax
	cmpl	-56(%rbp), %eax
	jge	.LBB18_39
# %bb.37:                               # %for.body85
                                        #   in Loop: Header=BB18_36 Depth=2
	leaq	-224(%rbp), %rax
	movq	img, %rcx
	movq	71928(%rcx), %rcx
	movslq	-12(%rbp), %rdx
	movq	(%rcx,%rdx,8), %rcx
	movslq	-16(%rbp), %rdx
	movq	(%rcx,%rdx,8), %rcx
	movq	(%rcx), %rcx
	movslq	-60(%rbp), %rdx
	movq	(%rcx,%rdx,8), %rcx
	movslq	-24(%rbp), %rdx
	movq	(%rcx,%rdx,8), %rcx
	movswl	(%rcx), %ecx
	movslq	-16(%rbp), %rdx
	shlq	$4, %rdx
	movq	%rax, %rsi
	addq	%rdx, %rsi
	movslq	-12(%rbp), %rdx
	movl	%ecx, (%rsi,%rdx,4)
	movq	img, %rcx
	movq	71928(%rcx), %rcx
	movslq	-12(%rbp), %rdx
	movq	(%rcx,%rdx,8), %rcx
	movslq	-16(%rbp), %rdx
	movq	(%rcx,%rdx,8), %rcx
	movq	(%rcx), %rcx
	movslq	-60(%rbp), %rdx
	movq	(%rcx,%rdx,8), %rcx
	movslq	-24(%rbp), %rdx
	movq	(%rcx,%rdx,8), %rcx
	movswl	2(%rcx), %ecx
	addq	$64, %rax
	movslq	-16(%rbp), %rdx
	shlq	$4, %rdx
	addq	%rdx, %rax
	movslq	-12(%rbp), %rdx
	movl	%ecx, (%rax,%rdx,4)
# %bb.38:                               # %for.inc118
                                        #   in Loop: Header=BB18_36 Depth=2
	movl	-12(%rbp), %eax
	addl	$1, %eax
	movl	%eax, -12(%rbp)
	jmp	.LBB18_36
.LBB18_39:                              # %for.end120
                                        #   in Loop: Header=BB18_34 Depth=1
	jmp	.LBB18_40
.LBB18_40:                              # %for.inc121
                                        #   in Loop: Header=BB18_34 Depth=1
	movl	-16(%rbp), %eax
	addl	$1, %eax
	movl	%eax, -16(%rbp)
	jmp	.LBB18_34
.LBB18_41:                              # %for.end123
	jmp	.LBB18_51
.LBB18_42:                              # %if.else124
	movl	-36(%rbp), %eax
	movl	%eax, -16(%rbp)
.LBB18_43:                              # %for.cond125
                                        # =>This Loop Header: Depth=1
                                        #     Child Loop BB18_45 Depth 2
	movl	-16(%rbp), %eax
	cmpl	-44(%rbp), %eax
	jge	.LBB18_50
# %bb.44:                               # %for.body128
                                        #   in Loop: Header=BB18_43 Depth=1
	movl	-32(%rbp), %eax
	movl	%eax, -12(%rbp)
.LBB18_45:                              # %for.cond129
                                        #   Parent Loop BB18_43 Depth=1
                                        # =>  This Inner Loop Header: Depth=2
	movl	-12(%rbp), %eax
	cmpl	-56(%rbp), %eax
	jge	.LBB18_48
# %bb.46:                               # %for.body132
                                        #   in Loop: Header=BB18_45 Depth=2
	leaq	-224(%rbp), %rax
	movq	%rax, %rcx
	addq	$64, %rcx
	movslq	-16(%rbp), %rdx
	shlq	$4, %rdx
	addq	%rdx, %rcx
	movslq	-12(%rbp), %rdx
	movl	$0, (%rcx,%rdx,4)
	movslq	-16(%rbp), %rcx
	shlq	$4, %rcx
	addq	%rcx, %rax
	movslq	-12(%rbp), %rcx
	movl	$0, (%rax,%rcx,4)
# %bb.47:                               # %for.inc143
                                        #   in Loop: Header=BB18_45 Depth=2
	movl	-12(%rbp), %eax
	addl	$1, %eax
	movl	%eax, -12(%rbp)
	jmp	.LBB18_45
.LBB18_48:                              # %for.end145
                                        #   in Loop: Header=BB18_43 Depth=1
	jmp	.LBB18_49
.LBB18_49:                              # %for.inc146
                                        #   in Loop: Header=BB18_43 Depth=1
	movl	-16(%rbp), %eax
	addl	$1, %eax
	movl	%eax, -16(%rbp)
	jmp	.LBB18_43
.LBB18_50:                              # %for.end148
	jmp	.LBB18_51
.LBB18_51:                              # %if.end
	movl	-20(%rbp), %eax
	movl	%eax, -4(%rbp)
.LBB18_52:                              # %for.cond149
                                        # =>This Loop Header: Depth=1
                                        #     Child Loop BB18_54 Depth 2
	movl	-4(%rbp), %eax
	cmpl	-48(%rbp), %eax
	jge	.LBB18_59
# %bb.53:                               # %for.body152
                                        #   in Loop: Header=BB18_52 Depth=1
	movl	-28(%rbp), %eax
	movl	%eax, -8(%rbp)
.LBB18_54:                              # %for.cond153
                                        #   Parent Loop BB18_52 Depth=1
                                        # =>  This Inner Loop Header: Depth=2
	movl	-8(%rbp), %eax
	cmpl	-52(%rbp), %eax
	jge	.LBB18_57
# %bb.55:                               # %for.body156
                                        #   in Loop: Header=BB18_54 Depth=2
	movq	decs, %rax
	movq	(%rax), %rax
	movslq	-8(%rbp), %rcx
	movq	(%rax,%rcx,8), %rax
	movslq	-4(%rbp), %rcx
	movl	(%rax,%rcx,4), %eax
	movslq	-8(%rbp), %rcx
	shlq	$6, %rcx
	leaq	-1248(%rbp), %rdx
	addq	%rcx, %rdx
	movslq	-4(%rbp), %rcx
	movl	%eax, (%rdx,%rcx,4)
# %bb.56:                               # %for.inc165
                                        #   in Loop: Header=BB18_54 Depth=2
	movl	-8(%rbp), %eax
	addl	$1, %eax
	movl	%eax, -8(%rbp)
	jmp	.LBB18_54
.LBB18_57:                              # %for.end167
                                        #   in Loop: Header=BB18_52 Depth=1
	jmp	.LBB18_58
.LBB18_58:                              # %for.inc168
                                        #   in Loop: Header=BB18_52 Depth=1
	movl	-4(%rbp), %eax
	addl	$1, %eax
	movl	%eax, -4(%rbp)
	jmp	.LBB18_52
.LBB18_59:                              # %for.end170
	jmp	.LBB18_60
.LBB18_60:                              # %if.end171
	cmpl	$1, -24(%rbp)
	jl	.LBB18_62
# %bb.61:                               # %land.lhs.true174
	cmpl	$7, -24(%rbp)
	jle	.LBB18_66
.LBB18_62:                              # %lor.lhs.false177
	cmpl	$0, -68(%rbp)
	jne	.LBB18_86
# %bb.63:                               # %land.lhs.true180
	movq	img, %rax
	cmpl	$0, 24(%rax)
	je	.LBB18_66
# %bb.64:                               # %lor.lhs.false184
	movq	img, %rax
	cmpl	$1, 24(%rax)
	jne	.LBB18_86
# %bb.65:                               # %land.lhs.true188
	movq	img, %rax
	cmpl	$0, 72496(%rax)
	jle	.LBB18_86
.LBB18_66:                              # %if.then192
	movl	-36(%rbp), %eax
	movl	%eax, -16(%rbp)
.LBB18_67:                              # %for.cond193
                                        # =>This Loop Header: Depth=1
                                        #     Child Loop BB18_69 Depth 2
                                        #       Child Loop BB18_74 Depth 3
                                        #         Child Loop BB18_76 Depth 4
	movl	-16(%rbp), %eax
	cmpl	-44(%rbp), %eax
	jge	.LBB18_85
# %bb.68:                               # %for.body196
                                        #   in Loop: Header=BB18_67 Depth=1
	movl	-32(%rbp), %eax
	movl	%eax, -12(%rbp)
.LBB18_69:                              # %for.cond197
                                        #   Parent Loop BB18_67 Depth=1
                                        # =>  This Loop Header: Depth=2
                                        #       Child Loop BB18_74 Depth 3
                                        #         Child Loop BB18_76 Depth 4
	movl	-12(%rbp), %eax
	cmpl	-56(%rbp), %eax
	jge	.LBB18_83
# %bb.70:                               # %for.body200
                                        #   in Loop: Header=BB18_69 Depth=2
	movq	img, %rax
	movl	144(%rax), %eax
	addl	-12(%rbp), %eax
	movl	%eax, -64(%rbp)
	movq	img, %rax
	movl	148(%rax), %eax
	addl	-16(%rbp), %eax
	movl	%eax, -80(%rbp)
	movq	img, %rax
	cmpl	$1, 24(%rax)
	jne	.LBB18_73
# %bb.71:                               # %land.lhs.true208
                                        #   in Loop: Header=BB18_69 Depth=2
	movq	enc_picture, %rax
	cmpq	enc_frame_picture, %rax
	je	.LBB18_73
# %bb.72:                               # %if.then211
                                        #   in Loop: Header=BB18_69 Depth=2
	movq	img, %rax
	movl	(%rax), %eax
	subl	start_frame_no_in_this_IGOP, %eax
	subl	-60(%rbp), %eax
	subl	$2, %eax
	movq	img, %rcx
	cltd
	idivl	32(%rcx)
	movl	%edx, -72(%rbp)
.LBB18_73:                              # %if.end218
                                        #   in Loop: Header=BB18_69 Depth=2
	leaq	-224(%rbp), %r8
	movq	decs, %rcx
	movq	16(%rcx), %rcx
	movslq	-40(%rbp), %rdx
	movq	(%rcx,%rdx,8), %rcx
	movslq	-72(%rbp), %rdx
	movq	(%rcx,%rdx,8), %rdi
	movl	-80(%rbp), %esi
	movl	-64(%rbp), %edx
	movslq	-16(%rbp), %rcx
	shlq	$4, %rcx
	movq	%r8, %rax
	addq	%rcx, %rax
	movslq	-12(%rbp), %rcx
	movl	(%rax,%rcx,4), %ecx
	addq	$64, %r8
	movslq	-16(%rbp), %rax
	shlq	$4, %rax
	addq	%rax, %r8
	movslq	-12(%rbp), %rax
	movl	(%r8,%rax,4), %r8d
	movq	decs, %rax
	movq	32(%rax), %r9
	callq	Get_Reference_Block
	movl	$0, -8(%rbp)
.LBB18_74:                              # %for.cond233
                                        #   Parent Loop BB18_67 Depth=1
                                        #     Parent Loop BB18_69 Depth=2
                                        # =>    This Loop Header: Depth=3
                                        #         Child Loop BB18_76 Depth 4
	cmpl	$4, -8(%rbp)
	jge	.LBB18_81
# %bb.75:                               # %for.body236
                                        #   in Loop: Header=BB18_74 Depth=3
	movl	$0, -4(%rbp)
.LBB18_76:                              # %for.cond237
                                        #   Parent Loop BB18_67 Depth=1
                                        #     Parent Loop BB18_69 Depth=2
                                        #       Parent Loop BB18_74 Depth=3
                                        # =>      This Inner Loop Header: Depth=4
	cmpl	$4, -4(%rbp)
	jge	.LBB18_79
# %bb.77:                               # %for.body240
                                        #   in Loop: Header=BB18_76 Depth=4
	movl	-16(%rbp), %eax
	shll	$2, %eax
	addl	-8(%rbp), %eax
	cltq
	shlq	$6, %rax
	leaq	-1248(%rbp), %rcx
	addq	%rax, %rcx
	movl	-12(%rbp), %eax
	shll	$2, %eax
	addl	-4(%rbp), %eax
	cltq
	movl	(%rcx,%rax,4), %eax
	movq	decs, %rcx
	movq	32(%rcx), %rcx
	movslq	-8(%rbp), %rdx
	movq	(%rcx,%rdx,8), %rcx
	movslq	-4(%rbp), %rdx
	movzwl	(%rcx,%rdx,2), %ecx
	addl	%ecx, %eax
	movq	decs, %rcx
	movq	8(%rcx), %rcx
	movslq	-40(%rbp), %rdx
	movq	(%rcx,%rdx,8), %rcx
	movl	-80(%rbp), %edx
	shll	$2, %edx
	addl	-8(%rbp), %edx
	movslq	%edx, %rdx
	movq	(%rcx,%rdx,8), %rcx
	movl	-64(%rbp), %edx
	shll	$2, %edx
	addl	-4(%rbp), %edx
	movslq	%edx, %rdx
	movw	%ax, (%rcx,%rdx,2)
# %bb.78:                               # %for.inc267
                                        #   in Loop: Header=BB18_76 Depth=4
	movl	-4(%rbp), %eax
	addl	$1, %eax
	movl	%eax, -4(%rbp)
	jmp	.LBB18_76
.LBB18_79:                              # %for.end269
                                        #   in Loop: Header=BB18_74 Depth=3
	jmp	.LBB18_80
.LBB18_80:                              # %for.inc270
                                        #   in Loop: Header=BB18_74 Depth=3
	movl	-8(%rbp), %eax
	addl	$1, %eax
	movl	%eax, -8(%rbp)
	jmp	.LBB18_74
.LBB18_81:                              # %for.end272
                                        #   in Loop: Header=BB18_69 Depth=2
	jmp	.LBB18_82
.LBB18_82:                              # %for.inc273
                                        #   in Loop: Header=BB18_69 Depth=2
	movl	-12(%rbp), %eax
	addl	$1, %eax
	movl	%eax, -12(%rbp)
	jmp	.LBB18_69
.LBB18_83:                              # %for.end275
                                        #   in Loop: Header=BB18_67 Depth=1
	jmp	.LBB18_84
.LBB18_84:                              # %for.inc276
                                        #   in Loop: Header=BB18_67 Depth=1
	movl	-16(%rbp), %eax
	addl	$1, %eax
	movl	%eax, -16(%rbp)
	jmp	.LBB18_67
.LBB18_85:                              # %for.end278
	jmp	.LBB18_95
.LBB18_86:                              # %if.else279
	movl	-20(%rbp), %eax
	movl	%eax, -4(%rbp)
.LBB18_87:                              # %for.cond280
                                        # =>This Loop Header: Depth=1
                                        #     Child Loop BB18_89 Depth 2
	movl	-4(%rbp), %eax
	cmpl	-48(%rbp), %eax
	jge	.LBB18_94
# %bb.88:                               # %for.body283
                                        #   in Loop: Header=BB18_87 Depth=1
	movl	-28(%rbp), %eax
	movl	%eax, -8(%rbp)
.LBB18_89:                              # %for.cond284
                                        #   Parent Loop BB18_87 Depth=1
                                        # =>  This Inner Loop Header: Depth=2
	movl	-8(%rbp), %eax
	cmpl	-52(%rbp), %eax
	jge	.LBB18_92
# %bb.90:                               # %for.body287
                                        #   in Loop: Header=BB18_89 Depth=2
	movq	enc_picture, %rax
	movq	6424(%rax), %rax
	movq	img, %rcx
	movl	156(%rcx), %ecx
	addl	-8(%rbp), %ecx
	movslq	%ecx, %rcx
	movq	(%rax,%rcx,8), %rax
	movq	img, %rcx
	movl	152(%rcx), %ecx
	addl	-4(%rbp), %ecx
	movslq	%ecx, %rcx
	movw	(%rax,%rcx,2), %ax
	movq	decs, %rcx
	movq	8(%rcx), %rcx
	movslq	-40(%rbp), %rdx
	movq	(%rcx,%rdx,8), %rcx
	movq	img, %rdx
	movl	156(%rdx), %edx
	addl	-8(%rbp), %edx
	movslq	%edx, %rdx
	movq	(%rcx,%rdx,8), %rcx
	movq	img, %rdx
	movl	152(%rdx), %edx
	addl	-4(%rbp), %edx
	movslq	%edx, %rdx
	movw	%ax, (%rcx,%rdx,2)
# %bb.91:                               # %for.inc308
                                        #   in Loop: Header=BB18_89 Depth=2
	movl	-8(%rbp), %eax
	addl	$1, %eax
	movl	%eax, -8(%rbp)
	jmp	.LBB18_89
.LBB18_92:                              # %for.end310
                                        #   in Loop: Header=BB18_87 Depth=1
	jmp	.LBB18_93
.LBB18_93:                              # %for.inc311
                                        #   in Loop: Header=BB18_87 Depth=1
	movl	-4(%rbp), %eax
	addl	$1, %eax
	movl	%eax, -4(%rbp)
	jmp	.LBB18_87
.LBB18_94:                              # %for.end313
	jmp	.LBB18_95
.LBB18_95:                              # %if.end314
	jmp	.LBB18_96
.LBB18_96:                              # %if.end315
	cmpl	$1713303257, -84(%rbp)  # imm = 0x661EEED9
	jne	.LBB18_98
.LBB18_97:
	addq	$1248, %rsp             # imm = 0x4E0
	popq	%rbp
	.cfi_def_cfa %rsp, 8
	retq
.LBB18_98:                              # %func_exit
	.cfi_def_cfa %rbp, 16
	callq	detect_breach
	jmp	.LBB18_97
.Lfunc_end18:
	.size	decode_one_b8block.8, .Lfunc_end18-decode_one_b8block.8
	.cfi_endproc
                                        # -- End function
	.section	.rodata.cst8,"aM",@progbits,8
	.p2align	3               # -- Begin function Build_Status_Map.9
.LCPI19_0:
	.quad	4636737291354636288     # double 100
.LCPI19_1:
	.quad	4746794007244308480     # double 2147483647
	.text
	.globl	Build_Status_Map.9
	.p2align	4, 0x90
	.type	Build_Status_Map.9,@function
Build_Status_Map.9:                     # @Build_Status_Map.9
	.cfi_startproc
# %bb.0:                                # %entry
	pushq	%rbp
	.cfi_def_cfa_offset 16
	.cfi_offset %rbp, -16
	movq	%rsp, %rbp
	.cfi_def_cfa_register %rbp
	subq	$48, %rsp
	movl	$891071141, -40(%rbp)   # imm = 0x351CAAA5
	movq	%rdi, -32(%rbp)
	movl	$-1, -16(%rbp)
	movl	$0, -20(%rbp)
	movl	$0, -4(%rbp)
	movq	img, %rax
	movl	60(%rax), %eax
	cltd
	movl	$16, %ecx
	idivl	%ecx
	movl	%eax, -36(%rbp)
	movq	img, %rax
	movl	52(%rax), %eax
	cltd
	idivl	%ecx
	movl	%eax, -44(%rbp)
	movl	$0, -8(%rbp)
.LBB19_1:                               # %for.cond
                                        # =>This Loop Header: Depth=1
                                        #     Child Loop BB19_3 Depth 2
	movl	-8(%rbp), %eax
	cmpl	-36(%rbp), %eax
	jge	.LBB19_22
# %bb.2:                                # %for.body
                                        #   in Loop: Header=BB19_1 Depth=1
	movl	$0, -12(%rbp)
.LBB19_3:                               # %for.cond2
                                        #   Parent Loop BB19_1 Depth=1
                                        # =>  This Inner Loop Header: Depth=2
	movl	-12(%rbp), %eax
	cmpl	-44(%rbp), %eax
	jge	.LBB19_20
# %bb.4:                                # %for.body4
                                        #   in Loop: Header=BB19_3 Depth=2
	movq	input, %rax
	cmpl	$0, 208(%rax)
	je	.LBB19_6
# %bb.5:                                # %lor.lhs.false
                                        #   in Loop: Header=BB19_3 Depth=2
	movq	img, %rax
	movq	14168(%rax), %rax
	movslq	-20(%rbp), %rcx
	imulq	$632, %rcx, %rcx        # imm = 0x278
	addq	%rcx, %rax
	movl	4(%rax), %eax
	cmpl	-16(%rbp), %eax
	je	.LBB19_13
.LBB19_6:                               # %if.then
                                        #   in Loop: Header=BB19_3 Depth=2
	movl	$0, -4(%rbp)
	callq	rand
	vmovsd	.LCPI19_0(%rip), %xmm0  # xmm0 = mem[0],zero
	vmovsd	.LCPI19_1(%rip), %xmm1  # xmm1 = mem[0],zero
	vcvtsi2sd	%eax, %xmm0, %xmm2
	vdivsd	%xmm1, %xmm2, %xmm1
	vmulsd	%xmm0, %xmm1, %xmm0
	movq	input, %rax
	vcvtsi2sdl	2900(%rax), %xmm0, %xmm1
	vucomisd	%xmm0, %xmm1
	jbe	.LBB19_8
# %bb.7:                                # %if.then10
                                        #   in Loop: Header=BB19_3 Depth=2
	movl	-4(%rbp), %eax
	addl	$3, %eax
	movl	%eax, -4(%rbp)
.LBB19_8:                               # %if.end
                                        #   in Loop: Header=BB19_3 Depth=2
	callq	rand
	vmovsd	.LCPI19_0(%rip), %xmm0  # xmm0 = mem[0],zero
	vmovsd	.LCPI19_1(%rip), %xmm1  # xmm1 = mem[0],zero
	vcvtsi2sd	%eax, %xmm0, %xmm2
	vdivsd	%xmm1, %xmm2, %xmm1
	vmulsd	%xmm0, %xmm1, %xmm0
	movq	input, %rax
	vcvtsi2sdl	2896(%rax), %xmm0, %xmm1
	vucomisd	%xmm0, %xmm1
	jbe	.LBB19_10
# %bb.9:                                # %if.then18
                                        #   in Loop: Header=BB19_3 Depth=2
	movl	-4(%rbp), %eax
	addl	$2, %eax
	movl	%eax, -4(%rbp)
.LBB19_10:                              # %if.end20
                                        #   in Loop: Header=BB19_3 Depth=2
	callq	rand
	vmovsd	.LCPI19_0(%rip), %xmm0  # xmm0 = mem[0],zero
	vmovsd	.LCPI19_1(%rip), %xmm1  # xmm1 = mem[0],zero
	vcvtsi2sd	%eax, %xmm0, %xmm2
	vdivsd	%xmm1, %xmm2, %xmm1
	vmulsd	%xmm0, %xmm1, %xmm0
	movq	input, %rax
	vcvtsi2sdl	2892(%rax), %xmm0, %xmm1
	vucomisd	%xmm0, %xmm1
	jbe	.LBB19_12
# %bb.11:                               # %if.then28
                                        #   in Loop: Header=BB19_3 Depth=2
	movl	$1, -4(%rbp)
.LBB19_12:                              # %if.end29
                                        #   in Loop: Header=BB19_3 Depth=2
	movl	-16(%rbp), %eax
	addl	$1, %eax
	movl	%eax, -16(%rbp)
.LBB19_13:                              # %if.end30
                                        #   in Loop: Header=BB19_3 Depth=2
	cmpl	$0, -4(%rbp)
	jne	.LBB19_15
# %bb.14:                               # %if.then32
                                        #   in Loop: Header=BB19_3 Depth=2
	movq	-32(%rbp), %rax
	movslq	-8(%rbp), %rcx
	movq	(%rax,%rcx,8), %rax
	movslq	-12(%rbp), %rcx
	movb	$0, (%rax,%rcx)
	jmp	.LBB19_18
.LBB19_15:                              # %if.else
                                        #   in Loop: Header=BB19_3 Depth=2
	movl	-4(%rbp), %eax
	movq	-32(%rbp), %rcx
	movslq	-8(%rbp), %rdx
	movq	(%rcx,%rdx,8), %rcx
	movslq	-12(%rbp), %rdx
	movb	%al, (%rcx,%rdx)
	movq	input, %rax
	cmpl	$0, 2364(%rax)
	jne	.LBB19_17
# %bb.16:                               # %if.then44
                                        #   in Loop: Header=BB19_3 Depth=2
	movq	-32(%rbp), %rax
	movslq	-8(%rbp), %rcx
	movq	(%rax,%rcx,8), %rax
	movslq	-12(%rbp), %rcx
	movb	$1, (%rax,%rcx)
.LBB19_17:                              # %if.end49
                                        #   in Loop: Header=BB19_3 Depth=2
	jmp	.LBB19_18
.LBB19_18:                              # %if.end50
                                        #   in Loop: Header=BB19_3 Depth=2
	movl	-20(%rbp), %eax
	addl	$1, %eax
	movl	%eax, -20(%rbp)
# %bb.19:                               # %for.inc
                                        #   in Loop: Header=BB19_3 Depth=2
	movl	-12(%rbp), %eax
	addl	$1, %eax
	movl	%eax, -12(%rbp)
	jmp	.LBB19_3
.LBB19_20:                              # %for.end
                                        #   in Loop: Header=BB19_1 Depth=1
	jmp	.LBB19_21
.LBB19_21:                              # %for.inc53
                                        #   in Loop: Header=BB19_1 Depth=1
	movl	-8(%rbp), %eax
	addl	$1, %eax
	movl	%eax, -8(%rbp)
	jmp	.LBB19_1
.LBB19_22:                              # %for.end55
	cmpl	$891071141, -40(%rbp)   # imm = 0x351CAAA5
	jne	.LBB19_24
.LBB19_23:
	addq	$48, %rsp
	popq	%rbp
	.cfi_def_cfa %rsp, 8
	retq
.LBB19_24:                              # %func_exit
	.cfi_def_cfa %rbp, 16
	callq	detect_breach
	jmp	.LBB19_23
.Lfunc_end19:
	.size	Build_Status_Map.9, .Lfunc_end19-Build_Status_Map.9
	.cfi_endproc
                                        # -- End function
	.globl	decode_one_mb.10        # -- Begin function decode_one_mb.10
	.p2align	4, 0x90
	.type	decode_one_mb.10,@function
decode_one_mb.10:                       # @decode_one_mb.10
	.cfi_startproc
# %bb.0:                                # %entry
	pushq	%rbp
	.cfi_def_cfa_offset 16
	.cfi_offset %rbp, -16
	movq	%rsp, %rbp
	.cfi_def_cfa_register %rbp
	subq	$16, %rsp
	movl	$299855989, -4(%rbp)    # imm = 0x11DF7075
	movl	%edi, -8(%rbp)
	movq	%rsi, -16(%rbp)
	cmpl	$299855989, -4(%rbp)    # imm = 0x11DF7075
	jne	.LBB20_2
.LBB20_1:
	addq	$16, %rsp
	popq	%rbp
	.cfi_def_cfa %rsp, 8
	retq
.LBB20_2:                               # %func_exit
	.cfi_def_cfa %rbp, 16
	callq	detect_breach
	jmp	.LBB20_1
.Lfunc_end20:
	.size	decode_one_mb.10, .Lfunc_end20-decode_one_mb.10
	.cfi_endproc
                                        # -- End function
	.globl	Error_Concealment.11    # -- Begin function Error_Concealment.11
	.p2align	4, 0x90
	.type	Error_Concealment.11,@function
Error_Concealment.11:                   # @Error_Concealment.11
	.cfi_startproc
# %bb.0:                                # %entry
	pushq	%rbp
	.cfi_def_cfa_offset 16
	.cfi_offset %rbp, -16
	movq	%rsp, %rbp
	.cfi_def_cfa_register %rbp
	subq	$48, %rsp
	movl	$719587846, -20(%rbp)   # imm = 0x2AE40A06
	movq	%rdi, -40(%rbp)
	movq	%rsi, -32(%rbp)
	movq	%rdx, -48(%rbp)
	movq	img, %rax
	movl	60(%rax), %eax
	cltd
	movl	$16, %ecx
	idivl	%ecx
	movl	%eax, -12(%rbp)
	movq	img, %rax
	movl	52(%rax), %eax
	cltd
	idivl	%ecx
	movl	%eax, -16(%rbp)
	movl	$0, -4(%rbp)
.LBB21_1:                               # %for.cond
                                        # =>This Loop Header: Depth=1
                                        #     Child Loop BB21_3 Depth 2
	movl	-4(%rbp), %eax
	cmpl	-12(%rbp), %eax
	jge	.LBB21_10
# %bb.2:                                # %for.body
                                        #   in Loop: Header=BB21_1 Depth=1
	movl	$0, -8(%rbp)
.LBB21_3:                               # %for.cond2
                                        #   Parent Loop BB21_1 Depth=1
                                        # =>  This Inner Loop Header: Depth=2
	movl	-8(%rbp), %eax
	cmpl	-16(%rbp), %eax
	jge	.LBB21_8
# %bb.4:                                # %for.body4
                                        #   in Loop: Header=BB21_3 Depth=2
	movq	-32(%rbp), %rax
	movslq	-4(%rbp), %rcx
	movq	(%rax,%rcx,8), %rax
	movslq	-8(%rbp), %rcx
	cmpb	$0, (%rax,%rcx)
	je	.LBB21_6
# %bb.5:                                # %if.then
                                        #   in Loop: Header=BB21_3 Depth=2
	movq	-40(%rbp), %rdi
	movl	-4(%rbp), %esi
	movl	-8(%rbp), %edx
	movq	-48(%rbp), %rcx
	movq	-32(%rbp), %r8
	callq	Conceal_Error
.LBB21_6:                               # %if.end
                                        #   in Loop: Header=BB21_3 Depth=2
	jmp	.LBB21_7
.LBB21_7:                               # %for.inc
                                        #   in Loop: Header=BB21_3 Depth=2
	movl	-8(%rbp), %eax
	addl	$1, %eax
	movl	%eax, -8(%rbp)
	jmp	.LBB21_3
.LBB21_8:                               # %for.end
                                        #   in Loop: Header=BB21_1 Depth=1
	jmp	.LBB21_9
.LBB21_9:                               # %for.inc7
                                        #   in Loop: Header=BB21_1 Depth=1
	movl	-4(%rbp), %eax
	addl	$1, %eax
	movl	%eax, -4(%rbp)
	jmp	.LBB21_1
.LBB21_10:                              # %for.end9
	cmpl	$719587846, -20(%rbp)   # imm = 0x2AE40A06
	jne	.LBB21_12
.LBB21_11:
	addq	$48, %rsp
	popq	%rbp
	.cfi_def_cfa %rsp, 8
	retq
.LBB21_12:                              # %func_exit
	.cfi_def_cfa %rbp, 16
	callq	detect_breach
	jmp	.LBB21_11
.Lfunc_end21:
	.size	Error_Concealment.11, .Lfunc_end21-Error_Concealment.11
	.cfi_endproc
                                        # -- End function
	.globl	DecOneForthPix.12       # -- Begin function DecOneForthPix.12
	.p2align	4, 0x90
	.type	DecOneForthPix.12,@function
DecOneForthPix.12:                      # @DecOneForthPix.12
	.cfi_startproc
# %bb.0:                                # %entry
	pushq	%rbp
	.cfi_def_cfa_offset 16
	.cfi_offset %rbp, -16
	movq	%rsp, %rbp
	.cfi_def_cfa_register %rbp
	subq	$32, %rsp
	movl	$1420285051, -8(%rbp)   # imm = 0x54A7D47B
	movq	%rdi, -32(%rbp)
	movq	%rsi, -24(%rbp)
	movq	img, %rax
	movl	(%rax), %eax
	subl	start_frame_no_in_this_IGOP, %eax
	movq	img, %rcx
	cltd
	idivl	72376(%rcx)
	movl	%edx, -12(%rbp)
	movl	$0, -4(%rbp)
.LBB22_1:                               # %for.cond
                                        # =>This Inner Loop Header: Depth=1
	movl	-4(%rbp), %eax
	movq	img, %rcx
	cmpl	60(%rcx), %eax
	jge	.LBB22_4
# %bb.2:                                # %for.body
                                        #   in Loop: Header=BB22_1 Depth=1
	movq	-24(%rbp), %rax
	movslq	-12(%rbp), %rcx
	movq	(%rax,%rcx,8), %rax
	movslq	-4(%rbp), %rcx
	movq	(%rax,%rcx,8), %rdi
	movq	-32(%rbp), %rax
	movslq	-4(%rbp), %rcx
	movq	(%rax,%rcx,8), %rsi
	movq	img, %rax
	movslq	52(%rax), %rdx
	shlq	$1, %rdx
	callq	memcpy
# %bb.3:                                # %for.inc
                                        #   in Loop: Header=BB22_1 Depth=1
	movl	-4(%rbp), %eax
	addl	$1, %eax
	movl	%eax, -4(%rbp)
	jmp	.LBB22_1
.LBB22_4:                               # %for.end
	cmpl	$1420285051, -8(%rbp)   # imm = 0x54A7D47B
	jne	.LBB22_6
.LBB22_5:
	addq	$32, %rsp
	popq	%rbp
	.cfi_def_cfa %rsp, 8
	retq
.LBB22_6:                               # %func_exit
	.cfi_def_cfa %rbp, 16
	callq	detect_breach
	jmp	.LBB22_5
.Lfunc_end22:
	.size	DecOneForthPix.12, .Lfunc_end22-DecOneForthPix.12
	.cfi_endproc
                                        # -- End function
	.section	.rodata.cst8,"aM",@progbits,8
	.p2align	3               # -- Begin function Build_Status_Map.13
.LCPI23_0:
	.quad	4636737291354636288     # double 100
.LCPI23_1:
	.quad	4746794007244308480     # double 2147483647
	.text
	.globl	Build_Status_Map.13
	.p2align	4, 0x90
	.type	Build_Status_Map.13,@function
Build_Status_Map.13:                    # @Build_Status_Map.13
	.cfi_startproc
# %bb.0:                                # %entry
	pushq	%rbp
	.cfi_def_cfa_offset 16
	.cfi_offset %rbp, -16
	movq	%rsp, %rbp
	.cfi_def_cfa_register %rbp
	subq	$48, %rsp
	movl	$1445535352, -40(%rbp)  # imm = 0x56291E78
	movq	%rdi, -32(%rbp)
	movl	$-1, -20(%rbp)
	movl	$0, -16(%rbp)
	movl	$0, -4(%rbp)
	movq	img, %rax
	movl	60(%rax), %eax
	cltd
	movl	$16, %ecx
	idivl	%ecx
	movl	%eax, -44(%rbp)
	movq	img, %rax
	movl	52(%rax), %eax
	cltd
	idivl	%ecx
	movl	%eax, -36(%rbp)
	movl	$0, -8(%rbp)
.LBB23_1:                               # %for.cond
                                        # =>This Loop Header: Depth=1
                                        #     Child Loop BB23_3 Depth 2
	movl	-8(%rbp), %eax
	cmpl	-44(%rbp), %eax
	jge	.LBB23_22
# %bb.2:                                # %for.body
                                        #   in Loop: Header=BB23_1 Depth=1
	movl	$0, -12(%rbp)
.LBB23_3:                               # %for.cond2
                                        #   Parent Loop BB23_1 Depth=1
                                        # =>  This Inner Loop Header: Depth=2
	movl	-12(%rbp), %eax
	cmpl	-36(%rbp), %eax
	jge	.LBB23_20
# %bb.4:                                # %for.body4
                                        #   in Loop: Header=BB23_3 Depth=2
	movq	input, %rax
	cmpl	$0, 208(%rax)
	je	.LBB23_6
# %bb.5:                                # %lor.lhs.false
                                        #   in Loop: Header=BB23_3 Depth=2
	movq	img, %rax
	movq	14168(%rax), %rax
	movslq	-16(%rbp), %rcx
	imulq	$632, %rcx, %rcx        # imm = 0x278
	addq	%rcx, %rax
	movl	4(%rax), %eax
	cmpl	-20(%rbp), %eax
	je	.LBB23_13
.LBB23_6:                               # %if.then
                                        #   in Loop: Header=BB23_3 Depth=2
	movl	$0, -4(%rbp)
	callq	rand
	vmovsd	.LCPI23_0(%rip), %xmm0  # xmm0 = mem[0],zero
	vmovsd	.LCPI23_1(%rip), %xmm1  # xmm1 = mem[0],zero
	vcvtsi2sd	%eax, %xmm0, %xmm2
	vdivsd	%xmm1, %xmm2, %xmm1
	vmulsd	%xmm0, %xmm1, %xmm0
	movq	input, %rax
	vcvtsi2sdl	2900(%rax), %xmm0, %xmm1
	vucomisd	%xmm0, %xmm1
	jbe	.LBB23_8
# %bb.7:                                # %if.then10
                                        #   in Loop: Header=BB23_3 Depth=2
	movl	-4(%rbp), %eax
	addl	$3, %eax
	movl	%eax, -4(%rbp)
.LBB23_8:                               # %if.end
                                        #   in Loop: Header=BB23_3 Depth=2
	callq	rand
	vmovsd	.LCPI23_0(%rip), %xmm0  # xmm0 = mem[0],zero
	vmovsd	.LCPI23_1(%rip), %xmm1  # xmm1 = mem[0],zero
	vcvtsi2sd	%eax, %xmm0, %xmm2
	vdivsd	%xmm1, %xmm2, %xmm1
	vmulsd	%xmm0, %xmm1, %xmm0
	movq	input, %rax
	vcvtsi2sdl	2896(%rax), %xmm0, %xmm1
	vucomisd	%xmm0, %xmm1
	jbe	.LBB23_10
# %bb.9:                                # %if.then18
                                        #   in Loop: Header=BB23_3 Depth=2
	movl	-4(%rbp), %eax
	addl	$2, %eax
	movl	%eax, -4(%rbp)
.LBB23_10:                              # %if.end20
                                        #   in Loop: Header=BB23_3 Depth=2
	callq	rand
	vmovsd	.LCPI23_0(%rip), %xmm0  # xmm0 = mem[0],zero
	vmovsd	.LCPI23_1(%rip), %xmm1  # xmm1 = mem[0],zero
	vcvtsi2sd	%eax, %xmm0, %xmm2
	vdivsd	%xmm1, %xmm2, %xmm1
	vmulsd	%xmm0, %xmm1, %xmm0
	movq	input, %rax
	vcvtsi2sdl	2892(%rax), %xmm0, %xmm1
	vucomisd	%xmm0, %xmm1
	jbe	.LBB23_12
# %bb.11:                               # %if.then28
                                        #   in Loop: Header=BB23_3 Depth=2
	movl	$1, -4(%rbp)
.LBB23_12:                              # %if.end29
                                        #   in Loop: Header=BB23_3 Depth=2
	movl	-20(%rbp), %eax
	addl	$1, %eax
	movl	%eax, -20(%rbp)
.LBB23_13:                              # %if.end30
                                        #   in Loop: Header=BB23_3 Depth=2
	cmpl	$0, -4(%rbp)
	jne	.LBB23_15
# %bb.14:                               # %if.then32
                                        #   in Loop: Header=BB23_3 Depth=2
	movq	-32(%rbp), %rax
	movslq	-8(%rbp), %rcx
	movq	(%rax,%rcx,8), %rax
	movslq	-12(%rbp), %rcx
	movb	$0, (%rax,%rcx)
	jmp	.LBB23_18
.LBB23_15:                              # %if.else
                                        #   in Loop: Header=BB23_3 Depth=2
	movl	-4(%rbp), %eax
	movq	-32(%rbp), %rcx
	movslq	-8(%rbp), %rdx
	movq	(%rcx,%rdx,8), %rcx
	movslq	-12(%rbp), %rdx
	movb	%al, (%rcx,%rdx)
	movq	input, %rax
	cmpl	$0, 2364(%rax)
	jne	.LBB23_17
# %bb.16:                               # %if.then44
                                        #   in Loop: Header=BB23_3 Depth=2
	movq	-32(%rbp), %rax
	movslq	-8(%rbp), %rcx
	movq	(%rax,%rcx,8), %rax
	movslq	-12(%rbp), %rcx
	movb	$1, (%rax,%rcx)
.LBB23_17:                              # %if.end49
                                        #   in Loop: Header=BB23_3 Depth=2
	jmp	.LBB23_18
.LBB23_18:                              # %if.end50
                                        #   in Loop: Header=BB23_3 Depth=2
	movl	-16(%rbp), %eax
	addl	$1, %eax
	movl	%eax, -16(%rbp)
# %bb.19:                               # %for.inc
                                        #   in Loop: Header=BB23_3 Depth=2
	movl	-12(%rbp), %eax
	addl	$1, %eax
	movl	%eax, -12(%rbp)
	jmp	.LBB23_3
.LBB23_20:                              # %for.end
                                        #   in Loop: Header=BB23_1 Depth=1
	jmp	.LBB23_21
.LBB23_21:                              # %for.inc53
                                        #   in Loop: Header=BB23_1 Depth=1
	movl	-8(%rbp), %eax
	addl	$1, %eax
	movl	%eax, -8(%rbp)
	jmp	.LBB23_1
.LBB23_22:                              # %for.end55
	cmpl	$1445535352, -40(%rbp)  # imm = 0x56291E78
	jne	.LBB23_24
.LBB23_23:
	addq	$48, %rsp
	popq	%rbp
	.cfi_def_cfa %rsp, 8
	retq
.LBB23_24:                              # %func_exit
	.cfi_def_cfa %rbp, 16
	callq	detect_breach
	jmp	.LBB23_23
.Lfunc_end23:
	.size	Build_Status_Map.13, .Lfunc_end23-Build_Status_Map.13
	.cfi_endproc
                                        # -- End function
	.globl	Conceal_Error.14        # -- Begin function Conceal_Error.14
	.p2align	4, 0x90
	.type	Conceal_Error.14,@function
Conceal_Error.14:                       # @Conceal_Error.14
	.cfi_startproc
# %bb.0:                                # %entry
	pushq	%rbp
	.cfi_def_cfa_offset 16
	.cfi_offset %rbp, -16
	movq	%rsp, %rbp
	.cfi_def_cfa_register %rbp
	subq	$1248, %rsp             # imm = 0x4E0
	xorl	%r9d, %r9d
	movl	$159495435, -68(%rbp)   # imm = 0x981B50B
	movq	%rdi, -48(%rbp)
	movl	%esi, -20(%rbp)
	movl	%edx, -24(%rbp)
	movq	%rcx, -56(%rbp)
	movq	%r8, -88(%rbp)
	movq	img, %rax
	movl	(%rax), %eax
	subl	start_frame_no_in_this_IGOP, %eax
	subl	$1, %eax
	movq	img, %rcx
	cltd
	idivl	32(%rcx)
	movl	%edx, -36(%rbp)
	movl	-20(%rbp), %eax
	shll	$4, %eax
	movl	%eax, -32(%rbp)
	movl	-24(%rbp), %eax
	shll	$4, %eax
	movl	%eax, -28(%rbp)
	movq	decs, %rax
	movq	48(%rax), %rax
	movslq	-24(%rbp), %rcx
	movq	(%rax,%rcx,8), %rax
	movslq	-20(%rbp), %rcx
	movzbl	(%rax,%rcx), %eax
	cmpl	$0, %eax
	jne	.LBB24_6
# %bb.1:                                # %land.rhs
	movq	img, %rax
	cmpl	$0, 24(%rax)
	movb	$1, %r9b
	je	.LBB24_5
# %bb.2:                                # %lor.rhs
	xorl	%r9d, %r9d
	movq	img, %rax
	cmpl	$1, 24(%rax)
	jne	.LBB24_4
# %bb.3:                                # %land.rhs11
	movq	img, %rax
	cmpl	$0, 72496(%rax)
	setg	%r9b
.LBB24_4:                               # %land.end
.LBB24_5:                               # %lor.end
.LBB24_6:                               # %land.end14
	andb	$1, %r9b
	movzbl	%r9b, %eax
	movl	%eax, -64(%rbp)
	movq	decs, %rax
	movq	48(%rax), %rax
	movslq	-24(%rbp), %rcx
	movq	(%rax,%rcx,8), %rax
	movslq	-20(%rbp), %rcx
	movzbl	(%rax,%rcx), %eax
	cmpl	$1, %eax
	jl	.LBB24_8
# %bb.7:                                # %land.lhs.true
	movq	decs, %rax
	movq	48(%rax), %rax
	movslq	-24(%rbp), %rcx
	movq	(%rax,%rcx,8), %rax
	movslq	-20(%rbp), %rcx
	movzbl	(%rax,%rcx), %eax
	cmpl	$3, %eax
	jle	.LBB24_9
.LBB24_8:                               # %lor.lhs.false
	xorl	%eax, %eax
	movq	decs, %rcx
	movq	48(%rcx), %rcx
	movslq	-24(%rbp), %rdx
	movq	(%rcx,%rdx,8), %rcx
	movslq	-20(%rbp), %rdx
	movzbl	(%rcx,%rdx), %ecx
	cmpl	$8, %ecx
	jne	.LBB24_14
.LBB24_9:                               # %land.rhs39
	movq	img, %rax
	cmpl	$0, 24(%rax)
	movb	$1, %al
	je	.LBB24_13
# %bb.10:                               # %lor.rhs43
	xorl	%eax, %eax
	movq	img, %rcx
	cmpl	$1, 24(%rcx)
	jne	.LBB24_12
# %bb.11:                               # %land.rhs47
	movq	img, %rax
	cmpl	$0, 72496(%rax)
	setg	%al
.LBB24_12:                              # %land.end51
.LBB24_13:                              # %lor.end53
.LBB24_14:                              # %land.end54
	movzbl	%al, %eax
	andl	$1, %eax
	movl	%eax, -60(%rbp)
	movq	enc_picture(%rip), %rax
	movq	6504(%rax), %rax
	movq	(%rax), %rax
	movq	%rax, -80(%rbp)
	movq	-88(%rbp), %rax
	movslq	-20(%rbp), %rcx
	movq	(%rax,%rcx,8), %rax
	movslq	-24(%rbp), %rcx
	movzbl	(%rax,%rcx), %eax
	addl	$-1, %eax
	movl	%eax, %ecx
	subl	$4, %ecx
	ja	.LBB24_180
# %bb.15:                               # %land.end54
	movq	.LJTI24_0(,%rax,8), %rax
	jmpq	*%rax
.LBB24_16:                              # %sw.bb
	movq	img, %rax
	cmpl	$2, 24(%rax)
	je	.LBB24_26
# %bb.17:                               # %if.then
	movl	$0, -8(%rbp)
.LBB24_18:                              # %for.cond
                                        # =>This Loop Header: Depth=1
                                        #     Child Loop BB24_20 Depth 2
	cmpl	$16, -8(%rbp)
	jge	.LBB24_25
# %bb.19:                               # %for.body
                                        #   in Loop: Header=BB24_18 Depth=1
	movl	$0, -4(%rbp)
.LBB24_20:                              # %for.cond68
                                        #   Parent Loop BB24_18 Depth=1
                                        # =>  This Inner Loop Header: Depth=2
	cmpl	$16, -4(%rbp)
	jge	.LBB24_23
# %bb.21:                               # %for.body71
                                        #   in Loop: Header=BB24_20 Depth=2
	movq	-56(%rbp), %rax
	movslq	-36(%rbp), %rcx
	movq	(%rax,%rcx,8), %rax
	movl	-32(%rbp), %ecx
	addl	-8(%rbp), %ecx
	movslq	%ecx, %rcx
	movq	(%rax,%rcx,8), %rax
	movl	-28(%rbp), %ecx
	addl	-4(%rbp), %ecx
	movslq	%ecx, %rcx
	movw	(%rax,%rcx,2), %ax
	movq	-48(%rbp), %rcx
	movl	-32(%rbp), %edx
	addl	-8(%rbp), %edx
	movslq	%edx, %rdx
	movq	(%rcx,%rdx,8), %rcx
	movl	-28(%rbp), %edx
	addl	-4(%rbp), %edx
	movslq	%edx, %rdx
	movw	%ax, (%rcx,%rdx,2)
# %bb.22:                               # %for.inc
                                        #   in Loop: Header=BB24_20 Depth=2
	movl	-4(%rbp), %eax
	addl	$1, %eax
	movl	%eax, -4(%rbp)
	jmp	.LBB24_20
.LBB24_23:                              # %for.end
                                        #   in Loop: Header=BB24_18 Depth=1
	jmp	.LBB24_24
.LBB24_24:                              # %for.inc85
                                        #   in Loop: Header=BB24_18 Depth=1
	movl	-8(%rbp), %eax
	addl	$1, %eax
	movl	%eax, -8(%rbp)
	jmp	.LBB24_18
.LBB24_25:                              # %for.end87
	jmp	.LBB24_35
.LBB24_26:                              # %if.else
	movl	$0, -8(%rbp)
.LBB24_27:                              # %for.cond88
                                        # =>This Loop Header: Depth=1
                                        #     Child Loop BB24_29 Depth 2
	cmpl	$16, -8(%rbp)
	jge	.LBB24_34
# %bb.28:                               # %for.body91
                                        #   in Loop: Header=BB24_27 Depth=1
	movl	$0, -4(%rbp)
.LBB24_29:                              # %for.cond92
                                        #   Parent Loop BB24_27 Depth=1
                                        # =>  This Inner Loop Header: Depth=2
	cmpl	$16, -4(%rbp)
	jge	.LBB24_32
# %bb.30:                               # %for.body95
                                        #   in Loop: Header=BB24_29 Depth=2
	movq	-48(%rbp), %rax
	movl	-32(%rbp), %ecx
	addl	-8(%rbp), %ecx
	movslq	%ecx, %rcx
	movq	(%rax,%rcx,8), %rax
	movl	-28(%rbp), %ecx
	addl	-4(%rbp), %ecx
	movslq	%ecx, %rcx
	movw	$127, (%rax,%rcx,2)
# %bb.31:                               # %for.inc102
                                        #   in Loop: Header=BB24_29 Depth=2
	movl	-4(%rbp), %eax
	addl	$1, %eax
	movl	%eax, -4(%rbp)
	jmp	.LBB24_29
.LBB24_32:                              # %for.end104
                                        #   in Loop: Header=BB24_27 Depth=1
	jmp	.LBB24_33
.LBB24_33:                              # %for.inc105
                                        #   in Loop: Header=BB24_27 Depth=1
	movl	-8(%rbp), %eax
	addl	$1, %eax
	movl	%eax, -8(%rbp)
	jmp	.LBB24_27
.LBB24_34:                              # %for.end107
	jmp	.LBB24_35
.LBB24_35:                              # %if.end
	jmp	.LBB24_180
.LBB24_36:                              # %sw.bb108
	movl	$0, -12(%rbp)
.LBB24_37:                              # %for.cond109
                                        # =>This Loop Header: Depth=1
                                        #     Child Loop BB24_39 Depth 2
                                        #       Child Loop BB24_41 Depth 3
	cmpl	$4, -12(%rbp)
	jge	.LBB24_48
# %bb.38:                               # %for.body112
                                        #   in Loop: Header=BB24_37 Depth=1
	movl	$0, -16(%rbp)
.LBB24_39:                              # %for.cond113
                                        #   Parent Loop BB24_37 Depth=1
                                        # =>  This Loop Header: Depth=2
                                        #       Child Loop BB24_41 Depth 3
	cmpl	$4, -16(%rbp)
	jge	.LBB24_46
# %bb.40:                               # %for.body116
                                        #   in Loop: Header=BB24_39 Depth=2
	movl	$0, -4(%rbp)
.LBB24_41:                              # %for.cond117
                                        #   Parent Loop BB24_37 Depth=1
                                        #     Parent Loop BB24_39 Depth=2
                                        # =>    This Inner Loop Header: Depth=3
	cmpl	$2, -4(%rbp)
	jge	.LBB24_44
# %bb.42:                               # %for.body120
                                        #   in Loop: Header=BB24_41 Depth=3
	movq	-80(%rbp), %rax
	movl	-24(%rbp), %ecx
	shll	$2, %ecx
	addl	-16(%rbp), %ecx
	addl	$4, %ecx
	movslq	%ecx, %rcx
	movq	(%rax,%rcx,8), %rax
	movl	-20(%rbp), %ecx
	shll	$2, %ecx
	addl	-12(%rbp), %ecx
	movslq	%ecx, %rcx
	movq	(%rax,%rcx,8), %rax
	movslq	-4(%rbp), %rcx
	movswl	(%rax,%rcx,2), %eax
	movslq	-4(%rbp), %rcx
	shlq	$6, %rcx
	leaq	-224(%rbp), %rdx
	addq	%rcx, %rdx
	movslq	-12(%rbp), %rcx
	shlq	$4, %rcx
	addq	%rcx, %rdx
	movslq	-16(%rbp), %rcx
	movl	%eax, (%rdx,%rcx,4)
# %bb.43:                               # %for.inc139
                                        #   in Loop: Header=BB24_41 Depth=3
	movl	-4(%rbp), %eax
	addl	$1, %eax
	movl	%eax, -4(%rbp)
	jmp	.LBB24_41
.LBB24_44:                              # %for.end141
                                        #   in Loop: Header=BB24_39 Depth=2
	jmp	.LBB24_45
.LBB24_45:                              # %for.inc142
                                        #   in Loop: Header=BB24_39 Depth=2
	movl	-16(%rbp), %eax
	addl	$1, %eax
	movl	%eax, -16(%rbp)
	jmp	.LBB24_39
.LBB24_46:                              # %for.end144
                                        #   in Loop: Header=BB24_37 Depth=1
	jmp	.LBB24_47
.LBB24_47:                              # %for.inc145
                                        #   in Loop: Header=BB24_37 Depth=1
	movl	-12(%rbp), %eax
	addl	$1, %eax
	movl	%eax, -12(%rbp)
	jmp	.LBB24_37
.LBB24_48:                              # %for.end147
	movl	$0, -4(%rbp)
.LBB24_49:                              # %for.cond148
                                        # =>This Loop Header: Depth=1
                                        #     Child Loop BB24_51 Depth 2
	cmpl	$16, -4(%rbp)
	jge	.LBB24_56
# %bb.50:                               # %for.body151
                                        #   in Loop: Header=BB24_49 Depth=1
	movl	$0, -8(%rbp)
.LBB24_51:                              # %for.cond152
                                        #   Parent Loop BB24_49 Depth=1
                                        # =>  This Inner Loop Header: Depth=2
	cmpl	$16, -8(%rbp)
	jge	.LBB24_54
# %bb.52:                               # %for.body155
                                        #   in Loop: Header=BB24_51 Depth=2
	movslq	-8(%rbp), %rax
	shlq	$6, %rax
	leaq	-1248(%rbp), %rcx
	addq	%rax, %rcx
	movslq	-4(%rbp), %rax
	movl	$0, (%rcx,%rax,4)
# %bb.53:                               # %for.inc160
                                        #   in Loop: Header=BB24_51 Depth=2
	movl	-8(%rbp), %eax
	addl	$1, %eax
	movl	%eax, -8(%rbp)
	jmp	.LBB24_51
.LBB24_54:                              # %for.end162
                                        #   in Loop: Header=BB24_49 Depth=1
	jmp	.LBB24_55
.LBB24_55:                              # %for.inc163
                                        #   in Loop: Header=BB24_49 Depth=1
	movl	-4(%rbp), %eax
	addl	$1, %eax
	movl	%eax, -4(%rbp)
	jmp	.LBB24_49
.LBB24_56:                              # %for.end165
	movq	img, %rax
	cmpl	$2, 24(%rax)
	je	.LBB24_96
# %bb.57:                               # %if.then169
	cmpl	$0, -64(%rbp)
	je	.LBB24_67
# %bb.58:                               # %if.then170
	movl	$0, -8(%rbp)
.LBB24_59:                              # %for.cond171
                                        # =>This Loop Header: Depth=1
                                        #     Child Loop BB24_61 Depth 2
	cmpl	$16, -8(%rbp)
	jge	.LBB24_66
# %bb.60:                               # %for.body174
                                        #   in Loop: Header=BB24_59 Depth=1
	movl	$0, -4(%rbp)
.LBB24_61:                              # %for.cond175
                                        #   Parent Loop BB24_59 Depth=1
                                        # =>  This Inner Loop Header: Depth=2
	cmpl	$16, -4(%rbp)
	jge	.LBB24_64
# %bb.62:                               # %for.body178
                                        #   in Loop: Header=BB24_61 Depth=2
	movq	-56(%rbp), %rax
	movslq	-36(%rbp), %rcx
	movq	(%rax,%rcx,8), %rax
	movl	-32(%rbp), %ecx
	addl	-8(%rbp), %ecx
	movslq	%ecx, %rcx
	movq	(%rax,%rcx,8), %rax
	movl	-28(%rbp), %ecx
	addl	-4(%rbp), %ecx
	movslq	%ecx, %rcx
	movw	(%rax,%rcx,2), %ax
	movq	-48(%rbp), %rcx
	movl	-32(%rbp), %edx
	addl	-8(%rbp), %edx
	movslq	%edx, %rdx
	movq	(%rcx,%rdx,8), %rcx
	movl	-28(%rbp), %edx
	addl	-4(%rbp), %edx
	movslq	%edx, %rdx
	movw	%ax, (%rcx,%rdx,2)
# %bb.63:                               # %for.inc193
                                        #   in Loop: Header=BB24_61 Depth=2
	movl	-4(%rbp), %eax
	addl	$1, %eax
	movl	%eax, -4(%rbp)
	jmp	.LBB24_61
.LBB24_64:                              # %for.end195
                                        #   in Loop: Header=BB24_59 Depth=1
	jmp	.LBB24_65
.LBB24_65:                              # %for.inc196
                                        #   in Loop: Header=BB24_59 Depth=1
	movl	-8(%rbp), %eax
	addl	$1, %eax
	movl	%eax, -8(%rbp)
	jmp	.LBB24_59
.LBB24_66:                              # %for.end198
	jmp	.LBB24_95
.LBB24_67:                              # %if.else199
	cmpl	$0, -60(%rbp)
	je	.LBB24_85
# %bb.68:                               # %if.then201
	movl	-20(%rbp), %eax
	shll	$2, %eax
	movl	%eax, -12(%rbp)
.LBB24_69:                              # %for.cond203
                                        # =>This Loop Header: Depth=1
                                        #     Child Loop BB24_71 Depth 2
                                        #       Child Loop BB24_73 Depth 3
                                        #         Child Loop BB24_75 Depth 4
	movl	-12(%rbp), %eax
	movl	-20(%rbp), %ecx
	shll	$2, %ecx
	addl	$4, %ecx
	cmpl	%ecx, %eax
	jge	.LBB24_84
# %bb.70:                               # %for.body208
                                        #   in Loop: Header=BB24_69 Depth=1
	movl	-24(%rbp), %eax
	shll	$2, %eax
	movl	%eax, -16(%rbp)
.LBB24_71:                              # %for.cond210
                                        #   Parent Loop BB24_69 Depth=1
                                        # =>  This Loop Header: Depth=2
                                        #       Child Loop BB24_73 Depth 3
                                        #         Child Loop BB24_75 Depth 4
	movl	-16(%rbp), %eax
	movl	-24(%rbp), %ecx
	shll	$2, %ecx
	addl	$4, %ecx
	cmpl	%ecx, %eax
	jge	.LBB24_82
# %bb.72:                               # %for.body215
                                        #   in Loop: Header=BB24_71 Depth=2
	leaq	-224(%rbp), %r8
	movq	-56(%rbp), %rcx
	movslq	-36(%rbp), %rdx
	movq	(%rcx,%rdx,8), %rdi
	movl	-12(%rbp), %esi
	movl	-16(%rbp), %edx
	movl	-12(%rbp), %ecx
	movl	-20(%rbp), %eax
	shll	$2, %eax
	subl	%eax, %ecx
	movslq	%ecx, %rax
	shlq	$4, %rax
	movq	%r8, %r9
	addq	%rax, %r9
	movl	-16(%rbp), %eax
	movl	-24(%rbp), %ecx
	shll	$2, %ecx
	subl	%ecx, %eax
	cltq
	movl	(%r9,%rax,4), %ecx
	addq	$64, %r8
	movl	-12(%rbp), %r9d
	movl	-20(%rbp), %eax
	shll	$2, %eax
	subl	%eax, %r9d
	movslq	%r9d, %rax
	shlq	$4, %rax
	addq	%rax, %r8
	movl	-16(%rbp), %r9d
	movl	-24(%rbp), %eax
	shll	$2, %eax
	subl	%eax, %r9d
	movslq	%r9d, %rax
	movl	(%r8,%rax,4), %r8d
	movq	decs, %rax
	movq	32(%rax), %r9
	callq	Get_Reference_Block
	movl	$0, -8(%rbp)
.LBB24_73:                              # %for.cond236
                                        #   Parent Loop BB24_69 Depth=1
                                        #     Parent Loop BB24_71 Depth=2
                                        # =>    This Loop Header: Depth=3
                                        #         Child Loop BB24_75 Depth 4
	cmpl	$4, -8(%rbp)
	jge	.LBB24_80
# %bb.74:                               # %for.body239
                                        #   in Loop: Header=BB24_73 Depth=3
	movl	$0, -4(%rbp)
.LBB24_75:                              # %for.cond240
                                        #   Parent Loop BB24_69 Depth=1
                                        #     Parent Loop BB24_71 Depth=2
                                        #       Parent Loop BB24_73 Depth=3
                                        # =>      This Inner Loop Header: Depth=4
	cmpl	$4, -4(%rbp)
	jge	.LBB24_78
# %bb.76:                               # %for.body243
                                        #   in Loop: Header=BB24_75 Depth=4
	movq	decs, %rax
	movq	32(%rax), %rax
	movslq	-8(%rbp), %rcx
	movq	(%rax,%rcx,8), %rax
	movslq	-4(%rbp), %rcx
	movw	(%rax,%rcx,2), %ax
	movq	-48(%rbp), %rcx
	movl	-12(%rbp), %edx
	shll	$2, %edx
	addl	-8(%rbp), %edx
	movslq	%edx, %rdx
	movq	(%rcx,%rdx,8), %rcx
	movl	-16(%rbp), %edx
	shll	$2, %edx
	addl	-4(%rbp), %edx
	movslq	%edx, %rdx
	movw	%ax, (%rcx,%rdx,2)
# %bb.77:                               # %for.inc257
                                        #   in Loop: Header=BB24_75 Depth=4
	movl	-4(%rbp), %eax
	addl	$1, %eax
	movl	%eax, -4(%rbp)
	jmp	.LBB24_75
.LBB24_78:                              # %for.end259
                                        #   in Loop: Header=BB24_73 Depth=3
	jmp	.LBB24_79
.LBB24_79:                              # %for.inc260
                                        #   in Loop: Header=BB24_73 Depth=3
	movl	-8(%rbp), %eax
	addl	$1, %eax
	movl	%eax, -8(%rbp)
	jmp	.LBB24_73
.LBB24_80:                              # %for.end262
                                        #   in Loop: Header=BB24_71 Depth=2
	jmp	.LBB24_81
.LBB24_81:                              # %for.inc263
                                        #   in Loop: Header=BB24_71 Depth=2
	movl	-16(%rbp), %eax
	addl	$1, %eax
	movl	%eax, -16(%rbp)
	jmp	.LBB24_71
.LBB24_82:                              # %for.end265
                                        #   in Loop: Header=BB24_69 Depth=1
	jmp	.LBB24_83
.LBB24_83:                              # %for.inc266
                                        #   in Loop: Header=BB24_69 Depth=1
	movl	-12(%rbp), %eax
	addl	$1, %eax
	movl	%eax, -12(%rbp)
	jmp	.LBB24_69
.LBB24_84:                              # %for.end268
	jmp	.LBB24_94
.LBB24_85:                              # %if.else269
	movl	$0, -8(%rbp)
.LBB24_86:                              # %for.cond270
                                        # =>This Loop Header: Depth=1
                                        #     Child Loop BB24_88 Depth 2
	cmpl	$16, -8(%rbp)
	jge	.LBB24_93
# %bb.87:                               # %for.body273
                                        #   in Loop: Header=BB24_86 Depth=1
	movl	$0, -4(%rbp)
.LBB24_88:                              # %for.cond274
                                        #   Parent Loop BB24_86 Depth=1
                                        # =>  This Inner Loop Header: Depth=2
	cmpl	$16, -4(%rbp)
	jge	.LBB24_91
# %bb.89:                               # %for.body277
                                        #   in Loop: Header=BB24_88 Depth=2
	movq	-56(%rbp), %rax
	movslq	-36(%rbp), %rcx
	movq	(%rax,%rcx,8), %rax
	movl	-32(%rbp), %ecx
	addl	-8(%rbp), %ecx
	movslq	%ecx, %rcx
	movq	(%rax,%rcx,8), %rax
	movl	-28(%rbp), %ecx
	addl	-4(%rbp), %ecx
	movslq	%ecx, %rcx
	movw	(%rax,%rcx,2), %ax
	movq	-48(%rbp), %rcx
	movl	-32(%rbp), %edx
	addl	-8(%rbp), %edx
	movslq	%edx, %rdx
	movq	(%rcx,%rdx,8), %rcx
	movl	-28(%rbp), %edx
	addl	-4(%rbp), %edx
	movslq	%edx, %rdx
	movw	%ax, (%rcx,%rdx,2)
# %bb.90:                               # %for.inc292
                                        #   in Loop: Header=BB24_88 Depth=2
	movl	-4(%rbp), %eax
	addl	$1, %eax
	movl	%eax, -4(%rbp)
	jmp	.LBB24_88
.LBB24_91:                              # %for.end294
                                        #   in Loop: Header=BB24_86 Depth=1
	jmp	.LBB24_92
.LBB24_92:                              # %for.inc295
                                        #   in Loop: Header=BB24_86 Depth=1
	movl	-8(%rbp), %eax
	addl	$1, %eax
	movl	%eax, -8(%rbp)
	jmp	.LBB24_86
.LBB24_93:                              # %for.end297
	jmp	.LBB24_94
.LBB24_94:                              # %if.end298
	jmp	.LBB24_95
.LBB24_95:                              # %if.end299
	jmp	.LBB24_105
.LBB24_96:                              # %if.else300
	movl	$0, -8(%rbp)
.LBB24_97:                              # %for.cond301
                                        # =>This Loop Header: Depth=1
                                        #     Child Loop BB24_99 Depth 2
	cmpl	$16, -8(%rbp)
	jge	.LBB24_104
# %bb.98:                               # %for.body304
                                        #   in Loop: Header=BB24_97 Depth=1
	movl	$0, -4(%rbp)
.LBB24_99:                              # %for.cond305
                                        #   Parent Loop BB24_97 Depth=1
                                        # =>  This Inner Loop Header: Depth=2
	cmpl	$16, -4(%rbp)
	jge	.LBB24_102
# %bb.100:                              # %for.body308
                                        #   in Loop: Header=BB24_99 Depth=2
	movq	-48(%rbp), %rax
	movl	-32(%rbp), %ecx
	addl	-8(%rbp), %ecx
	movslq	%ecx, %rcx
	movq	(%rax,%rcx,8), %rax
	movl	-28(%rbp), %ecx
	addl	-4(%rbp), %ecx
	movslq	%ecx, %rcx
	movw	$127, (%rax,%rcx,2)
# %bb.101:                              # %for.inc315
                                        #   in Loop: Header=BB24_99 Depth=2
	movl	-4(%rbp), %eax
	addl	$1, %eax
	movl	%eax, -4(%rbp)
	jmp	.LBB24_99
.LBB24_102:                             # %for.end317
                                        #   in Loop: Header=BB24_97 Depth=1
	jmp	.LBB24_103
.LBB24_103:                             # %for.inc318
                                        #   in Loop: Header=BB24_97 Depth=1
	movl	-8(%rbp), %eax
	addl	$1, %eax
	movl	%eax, -8(%rbp)
	jmp	.LBB24_97
.LBB24_104:                             # %for.end320
	jmp	.LBB24_105
.LBB24_105:                             # %if.end321
	jmp	.LBB24_180
.LBB24_106:                             # %sw.bb322
	movq	img, %rax
	cmpl	$2, 24(%rax)
	je	.LBB24_157
# %bb.107:                              # %if.then326
	movl	$0, -12(%rbp)
.LBB24_108:                             # %for.cond327
                                        # =>This Loop Header: Depth=1
                                        #     Child Loop BB24_110 Depth 2
                                        #       Child Loop BB24_112 Depth 3
	cmpl	$4, -12(%rbp)
	jge	.LBB24_119
# %bb.109:                              # %for.body330
                                        #   in Loop: Header=BB24_108 Depth=1
	movl	$0, -16(%rbp)
.LBB24_110:                             # %for.cond331
                                        #   Parent Loop BB24_108 Depth=1
                                        # =>  This Loop Header: Depth=2
                                        #       Child Loop BB24_112 Depth 3
	cmpl	$4, -16(%rbp)
	jge	.LBB24_117
# %bb.111:                              # %for.body334
                                        #   in Loop: Header=BB24_110 Depth=2
	movl	$0, -4(%rbp)
.LBB24_112:                             # %for.cond335
                                        #   Parent Loop BB24_108 Depth=1
                                        #     Parent Loop BB24_110 Depth=2
                                        # =>    This Inner Loop Header: Depth=3
	cmpl	$2, -4(%rbp)
	jge	.LBB24_115
# %bb.113:                              # %for.body338
                                        #   in Loop: Header=BB24_112 Depth=3
	movq	-80(%rbp), %rax
	movl	-24(%rbp), %ecx
	shll	$2, %ecx
	addl	-16(%rbp), %ecx
	addl	$4, %ecx
	movslq	%ecx, %rcx
	movq	(%rax,%rcx,8), %rax
	movl	-20(%rbp), %ecx
	shll	$2, %ecx
	addl	-12(%rbp), %ecx
	movslq	%ecx, %rcx
	movq	(%rax,%rcx,8), %rax
	movslq	-4(%rbp), %rcx
	movswl	(%rax,%rcx,2), %eax
	movslq	-4(%rbp), %rcx
	shlq	$6, %rcx
	leaq	-224(%rbp), %rdx
	addq	%rcx, %rdx
	movslq	-12(%rbp), %rcx
	shlq	$4, %rcx
	addq	%rcx, %rdx
	movslq	-16(%rbp), %rcx
	movl	%eax, (%rdx,%rcx,4)
# %bb.114:                              # %for.inc357
                                        #   in Loop: Header=BB24_112 Depth=3
	movl	-4(%rbp), %eax
	addl	$1, %eax
	movl	%eax, -4(%rbp)
	jmp	.LBB24_112
.LBB24_115:                             # %for.end359
                                        #   in Loop: Header=BB24_110 Depth=2
	jmp	.LBB24_116
.LBB24_116:                             # %for.inc360
                                        #   in Loop: Header=BB24_110 Depth=2
	movl	-16(%rbp), %eax
	addl	$1, %eax
	movl	%eax, -16(%rbp)
	jmp	.LBB24_110
.LBB24_117:                             # %for.end362
                                        #   in Loop: Header=BB24_108 Depth=1
	jmp	.LBB24_118
.LBB24_118:                             # %for.inc363
                                        #   in Loop: Header=BB24_108 Depth=1
	movl	-12(%rbp), %eax
	addl	$1, %eax
	movl	%eax, -12(%rbp)
	jmp	.LBB24_108
.LBB24_119:                             # %for.end365
	movl	$0, -4(%rbp)
.LBB24_120:                             # %for.cond366
                                        # =>This Loop Header: Depth=1
                                        #     Child Loop BB24_122 Depth 2
	cmpl	$16, -4(%rbp)
	jge	.LBB24_127
# %bb.121:                              # %for.body369
                                        #   in Loop: Header=BB24_120 Depth=1
	movl	$0, -8(%rbp)
.LBB24_122:                             # %for.cond370
                                        #   Parent Loop BB24_120 Depth=1
                                        # =>  This Inner Loop Header: Depth=2
	cmpl	$16, -8(%rbp)
	jge	.LBB24_125
# %bb.123:                              # %for.body373
                                        #   in Loop: Header=BB24_122 Depth=2
	movslq	-8(%rbp), %rax
	shlq	$6, %rax
	leaq	-1248(%rbp), %rcx
	addq	%rax, %rcx
	movslq	-4(%rbp), %rax
	movl	$0, (%rcx,%rax,4)
# %bb.124:                              # %for.inc378
                                        #   in Loop: Header=BB24_122 Depth=2
	movl	-8(%rbp), %eax
	addl	$1, %eax
	movl	%eax, -8(%rbp)
	jmp	.LBB24_122
.LBB24_125:                             # %for.end380
                                        #   in Loop: Header=BB24_120 Depth=1
	jmp	.LBB24_126
.LBB24_126:                             # %for.inc381
                                        #   in Loop: Header=BB24_120 Depth=1
	movl	-4(%rbp), %eax
	addl	$1, %eax
	movl	%eax, -4(%rbp)
	jmp	.LBB24_120
.LBB24_127:                             # %for.end383
	cmpl	$0, -64(%rbp)
	je	.LBB24_137
# %bb.128:                              # %if.then385
	movl	$0, -8(%rbp)
.LBB24_129:                             # %for.cond386
                                        # =>This Loop Header: Depth=1
                                        #     Child Loop BB24_131 Depth 2
	cmpl	$16, -8(%rbp)
	jge	.LBB24_136
# %bb.130:                              # %for.body389
                                        #   in Loop: Header=BB24_129 Depth=1
	movl	$0, -4(%rbp)
.LBB24_131:                             # %for.cond390
                                        #   Parent Loop BB24_129 Depth=1
                                        # =>  This Inner Loop Header: Depth=2
	cmpl	$16, -4(%rbp)
	jge	.LBB24_134
# %bb.132:                              # %for.body393
                                        #   in Loop: Header=BB24_131 Depth=2
	movq	-56(%rbp), %rax
	movslq	-36(%rbp), %rcx
	movq	(%rax,%rcx,8), %rax
	movl	-32(%rbp), %ecx
	addl	-8(%rbp), %ecx
	movslq	%ecx, %rcx
	movq	(%rax,%rcx,8), %rax
	movl	-28(%rbp), %ecx
	addl	-4(%rbp), %ecx
	movslq	%ecx, %rcx
	movw	(%rax,%rcx,2), %ax
	movq	-48(%rbp), %rcx
	movl	-32(%rbp), %edx
	addl	-8(%rbp), %edx
	movslq	%edx, %rdx
	movq	(%rcx,%rdx,8), %rcx
	movl	-28(%rbp), %edx
	addl	-4(%rbp), %edx
	movslq	%edx, %rdx
	movw	%ax, (%rcx,%rdx,2)
# %bb.133:                              # %for.inc408
                                        #   in Loop: Header=BB24_131 Depth=2
	movl	-4(%rbp), %eax
	addl	$1, %eax
	movl	%eax, -4(%rbp)
	jmp	.LBB24_131
.LBB24_134:                             # %for.end410
                                        #   in Loop: Header=BB24_129 Depth=1
	jmp	.LBB24_135
.LBB24_135:                             # %for.inc411
                                        #   in Loop: Header=BB24_129 Depth=1
	movl	-8(%rbp), %eax
	addl	$1, %eax
	movl	%eax, -8(%rbp)
	jmp	.LBB24_129
.LBB24_136:                             # %for.end413
	jmp	.LBB24_156
.LBB24_137:                             # %if.else414
	cmpl	$0, -60(%rbp)
	je	.LBB24_155
# %bb.138:                              # %if.then416
	movl	-20(%rbp), %eax
	shll	$2, %eax
	movl	%eax, -12(%rbp)
.LBB24_139:                             # %for.cond418
                                        # =>This Loop Header: Depth=1
                                        #     Child Loop BB24_141 Depth 2
                                        #       Child Loop BB24_143 Depth 3
                                        #         Child Loop BB24_145 Depth 4
	movl	-12(%rbp), %eax
	movl	-20(%rbp), %ecx
	shll	$2, %ecx
	addl	$4, %ecx
	cmpl	%ecx, %eax
	jge	.LBB24_154
# %bb.140:                              # %for.body423
                                        #   in Loop: Header=BB24_139 Depth=1
	movl	-24(%rbp), %eax
	shll	$2, %eax
	movl	%eax, -16(%rbp)
.LBB24_141:                             # %for.cond425
                                        #   Parent Loop BB24_139 Depth=1
                                        # =>  This Loop Header: Depth=2
                                        #       Child Loop BB24_143 Depth 3
                                        #         Child Loop BB24_145 Depth 4
	movl	-16(%rbp), %eax
	movl	-24(%rbp), %ecx
	shll	$2, %ecx
	addl	$4, %ecx
	cmpl	%ecx, %eax
	jge	.LBB24_152
# %bb.142:                              # %for.body430
                                        #   in Loop: Header=BB24_141 Depth=2
	leaq	-224(%rbp), %r8
	movq	-56(%rbp), %rcx
	movslq	-36(%rbp), %rdx
	movq	(%rcx,%rdx,8), %rdi
	movl	-12(%rbp), %esi
	movl	-16(%rbp), %edx
	movl	-12(%rbp), %ecx
	movl	-20(%rbp), %eax
	shll	$2, %eax
	subl	%eax, %ecx
	movslq	%ecx, %rax
	shlq	$4, %rax
	movq	%r8, %r9
	addq	%rax, %r9
	movl	-16(%rbp), %eax
	movl	-24(%rbp), %ecx
	shll	$2, %ecx
	subl	%ecx, %eax
	cltq
	movl	(%r9,%rax,4), %ecx
	addq	$64, %r8
	movl	-12(%rbp), %r9d
	movl	-20(%rbp), %eax
	shll	$2, %eax
	subl	%eax, %r9d
	movslq	%r9d, %rax
	shlq	$4, %rax
	addq	%rax, %r8
	movl	-16(%rbp), %r9d
	movl	-24(%rbp), %eax
	shll	$2, %eax
	subl	%eax, %r9d
	movslq	%r9d, %rax
	movl	(%r8,%rax,4), %r8d
	movq	decs, %rax
	movq	32(%rax), %r9
	callq	Get_Reference_Block
	movl	$0, -8(%rbp)
.LBB24_143:                             # %for.cond452
                                        #   Parent Loop BB24_139 Depth=1
                                        #     Parent Loop BB24_141 Depth=2
                                        # =>    This Loop Header: Depth=3
                                        #         Child Loop BB24_145 Depth 4
	cmpl	$4, -8(%rbp)
	jge	.LBB24_150
# %bb.144:                              # %for.body455
                                        #   in Loop: Header=BB24_143 Depth=3
	movl	$0, -4(%rbp)
.LBB24_145:                             # %for.cond456
                                        #   Parent Loop BB24_139 Depth=1
                                        #     Parent Loop BB24_141 Depth=2
                                        #       Parent Loop BB24_143 Depth=3
                                        # =>      This Inner Loop Header: Depth=4
	cmpl	$4, -4(%rbp)
	jge	.LBB24_148
# %bb.146:                              # %for.body459
                                        #   in Loop: Header=BB24_145 Depth=4
	movq	decs, %rax
	movq	32(%rax), %rax
	movslq	-8(%rbp), %rcx
	movq	(%rax,%rcx,8), %rax
	movslq	-4(%rbp), %rcx
	movw	(%rax,%rcx,2), %ax
	movq	-48(%rbp), %rcx
	movl	-12(%rbp), %edx
	shll	$2, %edx
	addl	-8(%rbp), %edx
	movslq	%edx, %rdx
	movq	(%rcx,%rdx,8), %rcx
	movl	-16(%rbp), %edx
	shll	$2, %edx
	addl	-4(%rbp), %edx
	movslq	%edx, %rdx
	movw	%ax, (%rcx,%rdx,2)
# %bb.147:                              # %for.inc473
                                        #   in Loop: Header=BB24_145 Depth=4
	movl	-4(%rbp), %eax
	addl	$1, %eax
	movl	%eax, -4(%rbp)
	jmp	.LBB24_145
.LBB24_148:                             # %for.end475
                                        #   in Loop: Header=BB24_143 Depth=3
	jmp	.LBB24_149
.LBB24_149:                             # %for.inc476
                                        #   in Loop: Header=BB24_143 Depth=3
	movl	-8(%rbp), %eax
	addl	$1, %eax
	movl	%eax, -8(%rbp)
	jmp	.LBB24_143
.LBB24_150:                             # %for.end478
                                        #   in Loop: Header=BB24_141 Depth=2
	jmp	.LBB24_151
.LBB24_151:                             # %for.inc479
                                        #   in Loop: Header=BB24_141 Depth=2
	movl	-16(%rbp), %eax
	addl	$1, %eax
	movl	%eax, -16(%rbp)
	jmp	.LBB24_141
.LBB24_152:                             # %for.end481
                                        #   in Loop: Header=BB24_139 Depth=1
	jmp	.LBB24_153
.LBB24_153:                             # %for.inc482
                                        #   in Loop: Header=BB24_139 Depth=1
	movl	-12(%rbp), %eax
	addl	$1, %eax
	movl	%eax, -12(%rbp)
	jmp	.LBB24_139
.LBB24_154:                             # %for.end484
	jmp	.LBB24_155
.LBB24_155:                             # %if.end485
	jmp	.LBB24_156
.LBB24_156:                             # %if.end486
	jmp	.LBB24_157
.LBB24_157:                             # %if.end487
	jmp	.LBB24_180
.LBB24_158:                             # %sw.bb488
	movq	img, %rax
	cmpl	$2, 24(%rax)
	je	.LBB24_170
# %bb.159:                              # %if.then492
	cmpl	$0, -60(%rbp)
	jne	.LBB24_169
# %bb.160:                              # %if.then494
	movl	$0, -8(%rbp)
.LBB24_161:                             # %for.cond495
                                        # =>This Loop Header: Depth=1
                                        #     Child Loop BB24_163 Depth 2
	cmpl	$16, -8(%rbp)
	jge	.LBB24_168
# %bb.162:                              # %for.body498
                                        #   in Loop: Header=BB24_161 Depth=1
	movl	$0, -4(%rbp)
.LBB24_163:                             # %for.cond499
                                        #   Parent Loop BB24_161 Depth=1
                                        # =>  This Inner Loop Header: Depth=2
	cmpl	$16, -4(%rbp)
	jge	.LBB24_166
# %bb.164:                              # %for.body502
                                        #   in Loop: Header=BB24_163 Depth=2
	movq	-56(%rbp), %rax
	movslq	-36(%rbp), %rcx
	movq	(%rax,%rcx,8), %rax
	movl	-32(%rbp), %ecx
	addl	-8(%rbp), %ecx
	movslq	%ecx, %rcx
	movq	(%rax,%rcx,8), %rax
	movl	-28(%rbp), %ecx
	addl	-4(%rbp), %ecx
	movslq	%ecx, %rcx
	movw	(%rax,%rcx,2), %ax
	movq	-48(%rbp), %rcx
	movl	-32(%rbp), %edx
	addl	-8(%rbp), %edx
	movslq	%edx, %rdx
	movq	(%rcx,%rdx,8), %rcx
	movl	-28(%rbp), %edx
	addl	-4(%rbp), %edx
	movslq	%edx, %rdx
	movw	%ax, (%rcx,%rdx,2)
# %bb.165:                              # %for.inc517
                                        #   in Loop: Header=BB24_163 Depth=2
	movl	-4(%rbp), %eax
	addl	$1, %eax
	movl	%eax, -4(%rbp)
	jmp	.LBB24_163
.LBB24_166:                             # %for.end519
                                        #   in Loop: Header=BB24_161 Depth=1
	jmp	.LBB24_167
.LBB24_167:                             # %for.inc520
                                        #   in Loop: Header=BB24_161 Depth=1
	movl	-8(%rbp), %eax
	addl	$1, %eax
	movl	%eax, -8(%rbp)
	jmp	.LBB24_161
.LBB24_168:                             # %for.end522
	jmp	.LBB24_169
.LBB24_169:                             # %if.end523
	jmp	.LBB24_179
.LBB24_170:                             # %if.else524
	movl	$0, -8(%rbp)
.LBB24_171:                             # %for.cond525
                                        # =>This Loop Header: Depth=1
                                        #     Child Loop BB24_173 Depth 2
	cmpl	$16, -8(%rbp)
	jge	.LBB24_178
# %bb.172:                              # %for.body528
                                        #   in Loop: Header=BB24_171 Depth=1
	movl	$0, -4(%rbp)
.LBB24_173:                             # %for.cond529
                                        #   Parent Loop BB24_171 Depth=1
                                        # =>  This Inner Loop Header: Depth=2
	cmpl	$16, -4(%rbp)
	jge	.LBB24_176
# %bb.174:                              # %for.body532
                                        #   in Loop: Header=BB24_173 Depth=2
	movq	-48(%rbp), %rax
	movl	-32(%rbp), %ecx
	addl	-8(%rbp), %ecx
	movslq	%ecx, %rcx
	movq	(%rax,%rcx,8), %rax
	movl	-28(%rbp), %ecx
	addl	-4(%rbp), %ecx
	movslq	%ecx, %rcx
	movw	$127, (%rax,%rcx,2)
# %bb.175:                              # %for.inc539
                                        #   in Loop: Header=BB24_173 Depth=2
	movl	-4(%rbp), %eax
	addl	$1, %eax
	movl	%eax, -4(%rbp)
	jmp	.LBB24_173
.LBB24_176:                             # %for.end541
                                        #   in Loop: Header=BB24_171 Depth=1
	jmp	.LBB24_177
.LBB24_177:                             # %for.inc542
                                        #   in Loop: Header=BB24_171 Depth=1
	movl	-8(%rbp), %eax
	addl	$1, %eax
	movl	%eax, -8(%rbp)
	jmp	.LBB24_171
.LBB24_178:                             # %for.end544
	jmp	.LBB24_179
.LBB24_179:                             # %if.end545
	jmp	.LBB24_180
.LBB24_180:                             # %sw.epilog
	cmpl	$159495435, -68(%rbp)   # imm = 0x981B50B
	jne	.LBB24_182
.LBB24_181:
	addq	$1248, %rsp             # imm = 0x4E0
	popq	%rbp
	.cfi_def_cfa %rsp, 8
	retq
.LBB24_182:                             # %func_exit
	.cfi_def_cfa %rbp, 16
	callq	detect_breach
	jmp	.LBB24_181
.Lfunc_end24:
	.size	Conceal_Error.14, .Lfunc_end24-Conceal_Error.14
	.cfi_endproc
	.section	.rodata,"a",@progbits
	.p2align	3
.LJTI24_0:
	.quad	.LBB24_16
	.quad	.LBB24_158
	.quad	.LBB24_106
	.quad	.LBB24_180
	.quad	.LBB24_36
                                        # -- End function
	.text
	.globl	decode_one_mb.15        # -- Begin function decode_one_mb.15
	.p2align	4, 0x90
	.type	decode_one_mb.15,@function
decode_one_mb.15:                       # @decode_one_mb.15
	.cfi_startproc
# %bb.0:                                # %entry
	pushq	%rbp
	.cfi_def_cfa_offset 16
	.cfi_offset %rbp, -16
	movq	%rsp, %rbp
	.cfi_def_cfa_register %rbp
	subq	$16, %rsp
	movl	$1723911750, -4(%rbp)   # imm = 0x66C0CE46
	movl	%edi, -8(%rbp)
	movq	%rsi, -16(%rbp)
	cmpl	$1723911750, -4(%rbp)   # imm = 0x66C0CE46
	jne	.LBB25_2
.LBB25_1:
	addq	$16, %rsp
	popq	%rbp
	.cfi_def_cfa %rsp, 8
	retq
.LBB25_2:                               # %func_exit
	.cfi_def_cfa %rbp, 16
	callq	detect_breach
	jmp	.LBB25_1
.Lfunc_end25:
