	.text
	.file	"decoder.c"
	.globl	decode_one_b8block      # -- Begin function decode_one_b8block
	.p2align	4, 0x90
	.type	decode_one_b8block,@function
decode_one_b8block:                     # @decode_one_b8block
	.cfi_startproc
# %bb.0:                                # %rand_bb
	pushq	%rbp
	.cfi_def_cfa_offset 16
	.cfi_offset %rbp, -16
	movq	%rsp, %rbp
	.cfi_def_cfa_register %rbp
	pushq	%r15
	pushq	%r14
	pushq	%r13
	pushq	%r12
	pushq	%rbx
	pushq	%rax
	.cfi_offset %rbx, -56
	.cfi_offset %r12, -48
	.cfi_offset %r13, -40
	.cfi_offset %r14, -32
	.cfi_offset %r15, -24
	movl	%r8d, %r14d
	movl	%ecx, %r15d
	movl	%edx, %r12d
	movl	%esi, %r13d
	movl	%edi, %ebx
	callq	get_urand
	cmpl	$0, %eax
	jne	.LBB0_9
# %bb.1:                                # %func_decode_one_b8block.3
	movl	%ebx, %edi
	movl	%r13d, %esi
	movl	%r12d, %edx
	movl	%r15d, %ecx
	movl	%r14d, %r8d
	callq	decode_one_b8block.3
	addq	$8, %rsp
	popq	%rbx
	popq	%r12
	popq	%r13
	popq	%r14
	popq	%r15
	popq	%rbp
	.cfi_def_cfa %rsp, 8
	retq
.LBB0_2:                                # %func_decode_one_b8block.10
	.cfi_def_cfa %rbp, 16
	movl	%ebx, %edi
	movl	%r13d, %esi
	movl	%r12d, %edx
	movl	%r15d, %ecx
	movl	%r14d, %r8d
	callq	decode_one_b8block.10
	addq	$8, %rsp
	popq	%rbx
	popq	%r12
	popq	%r13
	popq	%r14
	popq	%r15
	popq	%rbp
	.cfi_def_cfa %rsp, 8
	retq
.LBB0_3:                                # %func_decode_one_b8block.21
	.cfi_def_cfa %rbp, 16
	movl	%ebx, %edi
	movl	%r13d, %esi
	movl	%r12d, %edx
	movl	%r15d, %ecx
	movl	%r14d, %r8d
	callq	decode_one_b8block.21
	addq	$8, %rsp
	popq	%rbx
	popq	%r12
	popq	%r13
	popq	%r14
	popq	%r15
	popq	%rbp
	.cfi_def_cfa %rsp, 8
	retq
.LBB0_4:                                # %func_decode_one_b8block.22
	.cfi_def_cfa %rbp, 16
	movl	%ebx, %edi
	movl	%r13d, %esi
	movl	%r12d, %edx
	movl	%r15d, %ecx
	movl	%r14d, %r8d
	callq	decode_one_b8block.22
	addq	$8, %rsp
	popq	%rbx
	popq	%r12
	popq	%r13
	popq	%r14
	popq	%r15
	popq	%rbp
	.cfi_def_cfa %rsp, 8
	retq
.LBB0_5:                                # %func_decode_one_b8block.24
	.cfi_def_cfa %rbp, 16
	movl	%ebx, %edi
	movl	%r13d, %esi
	movl	%r12d, %edx
	movl	%r15d, %ecx
	movl	%r14d, %r8d
	callq	decode_one_b8block.24
	addq	$8, %rsp
	popq	%rbx
	popq	%r12
	popq	%r13
	popq	%r14
	popq	%r15
	popq	%rbp
	.cfi_def_cfa %rsp, 8
	retq
.LBB0_6:                                # %func_decode_one_b8block.26
	.cfi_def_cfa %rbp, 16
	movl	%ebx, %edi
	movl	%r13d, %esi
	movl	%r12d, %edx
	movl	%r15d, %ecx
	movl	%r14d, %r8d
	callq	decode_one_b8block.26
	addq	$8, %rsp
	popq	%rbx
	popq	%r12
	popq	%r13
	popq	%r14
	popq	%r15
	popq	%rbp
	.cfi_def_cfa %rsp, 8
	retq
.LBB0_7:                                # %func_decode_one_b8block.38
	.cfi_def_cfa %rbp, 16
	movl	%ebx, %edi
	movl	%r13d, %esi
	movl	%r12d, %edx
	movl	%r15d, %ecx
	movl	%r14d, %r8d
	callq	decode_one_b8block.38
	addq	$8, %rsp
	popq	%rbx
	popq	%r12
	popq	%r13
	popq	%r14
	popq	%r15
	popq	%rbp
	.cfi_def_cfa %rsp, 8
	retq
.LBB0_8:                                # %func_decode_one_b8block.48
	.cfi_def_cfa %rbp, 16
	movl	%ebx, %edi
	movl	%r13d, %esi
	movl	%r12d, %edx
	movl	%r15d, %ecx
	movl	%r14d, %r8d
	callq	decode_one_b8block.48
	addq	$8, %rsp
	popq	%rbx
	popq	%r12
	popq	%r13
	popq	%r14
	popq	%r15
	popq	%rbp
	.cfi_def_cfa %rsp, 8
	retq
.LBB0_9:                                # %ctrl0
	.cfi_def_cfa %rbp, 16
	cmpl	$1, %eax
	je	.LBB0_2
# %bb.10:                               # %ctrl1
	cmpl	$2, %eax
	je	.LBB0_3
# %bb.11:                               # %ctrl2
	cmpl	$3, %eax
	je	.LBB0_4
# %bb.12:                               # %ctrl3
	cmpl	$4, %eax
	je	.LBB0_5
# %bb.13:                               # %ctrl4
	cmpl	$5, %eax
	je	.LBB0_6
# %bb.14:                               # %ctrl5
	cmpl	$6, %eax
	je	.LBB0_7
	jmp	.LBB0_8
.Lfunc_end0:
	.size	decode_one_b8block, .Lfunc_end0-decode_one_b8block
	.cfi_endproc
                                        # -- End function
	.globl	Get_Reference_Block     # -- Begin function Get_Reference_Block
	.p2align	4, 0x90
	.type	Get_Reference_Block,@function
Get_Reference_Block:                    # @Get_Reference_Block
	.cfi_startproc
# %bb.0:                                # %rand_bb
	pushq	%rbp
	.cfi_def_cfa_offset 16
	.cfi_offset %rbp, -16
	movq	%rsp, %rbp
	.cfi_def_cfa_register %rbp
	pushq	%r15
	pushq	%r14
	pushq	%r13
	pushq	%r12
	pushq	%rbx
	pushq	%rax
	.cfi_offset %rbx, -56
	.cfi_offset %r12, -48
	.cfi_offset %r13, -40
	.cfi_offset %r14, -32
	.cfi_offset %r15, -24
	movq	%r9, -48(%rbp)          # 8-byte Spill
	movl	%r8d, %r12d
	movl	%ecx, %r13d
	movl	%edx, %ebx
	movl	%esi, %r14d
	movq	%rdi, %r15
	callq	get_urand
	cmpl	$0, %eax
	jne	.LBB1_9
# %bb.1:                                # %func_Get_Reference_Block.2
	movq	%r15, %rdi
	movl	%r14d, %esi
	movl	%ebx, %edx
	movl	%r13d, %ecx
	movl	%r12d, %r8d
	movq	-48(%rbp), %r9          # 8-byte Reload
	callq	Get_Reference_Block.2
	addq	$8, %rsp
	popq	%rbx
	popq	%r12
	popq	%r13
	popq	%r14
	popq	%r15
	popq	%rbp
	.cfi_def_cfa %rsp, 8
	retq
.LBB1_2:                                # %func_Get_Reference_Block.4
	.cfi_def_cfa %rbp, 16
	movq	%r15, %rdi
	movl	%r14d, %esi
	movl	%ebx, %edx
	movl	%r13d, %ecx
	movl	%r12d, %r8d
	callq	Get_Reference_Block.4
	addq	$8, %rsp
	popq	%rbx
	popq	%r12
	popq	%r13
	popq	%r14
	popq	%r15
	popq	%rbp
	.cfi_def_cfa %rsp, 8
	retq
.LBB1_3:                                # %func_Get_Reference_Block.8
	.cfi_def_cfa %rbp, 16
	movq	%r15, %rdi
	movl	%r14d, %esi
	movl	%ebx, %edx
	movl	%r13d, %ecx
	movl	%r12d, %r8d
	callq	Get_Reference_Block.8
	addq	$8, %rsp
	popq	%rbx
	popq	%r12
	popq	%r13
	popq	%r14
	popq	%r15
	popq	%rbp
	.cfi_def_cfa %rsp, 8
	retq
.LBB1_4:                                # %func_Get_Reference_Block.11
	.cfi_def_cfa %rbp, 16
	movq	%r15, %rdi
	movl	%r14d, %esi
	movl	%ebx, %edx
	movl	%r13d, %ecx
	movl	%r12d, %r8d
	callq	Get_Reference_Block.11
	addq	$8, %rsp
	popq	%rbx
	popq	%r12
	popq	%r13
	popq	%r14
	popq	%r15
	popq	%rbp
	.cfi_def_cfa %rsp, 8
	retq
.LBB1_5:                                # %func_Get_Reference_Block.14
	.cfi_def_cfa %rbp, 16
	movq	%r15, %rdi
	movl	%r14d, %esi
	movl	%ebx, %edx
	movl	%r13d, %ecx
	movl	%r12d, %r8d
	callq	Get_Reference_Block.14
	addq	$8, %rsp
	popq	%rbx
	popq	%r12
	popq	%r13
	popq	%r14
	popq	%r15
	popq	%rbp
	.cfi_def_cfa %rsp, 8
	retq
.LBB1_6:                                # %func_Get_Reference_Block.23
	.cfi_def_cfa %rbp, 16
	movq	%r15, %rdi
	movl	%r14d, %esi
	movl	%ebx, %edx
	movl	%r13d, %ecx
	movl	%r12d, %r8d
	callq	Get_Reference_Block.23
	addq	$8, %rsp
	popq	%rbx
	popq	%r12
	popq	%r13
	popq	%r14
	popq	%r15
	popq	%rbp
	.cfi_def_cfa %rsp, 8
	retq
.LBB1_7:                                # %func_Get_Reference_Block.27
	.cfi_def_cfa %rbp, 16
	callq	Get_Reference_Block.27
	addq	$8, %rsp
	popq	%rbx
	popq	%r12
	popq	%r13
	popq	%r14
	popq	%r15
	popq	%rbp
	.cfi_def_cfa %rsp, 8
	retq
.LBB1_8:                                # %func_Get_Reference_Block.31
	.cfi_def_cfa %rbp, 16
	callq	Get_Reference_Block.31
	addq	$8, %rsp
	popq	%rbx
	popq	%r12
	popq	%r13
	popq	%r14
	popq	%r15
	popq	%rbp
	.cfi_def_cfa %rsp, 8
	retq
.LBB1_9:                                # %ctrl0
	.cfi_def_cfa %rbp, 16
	movq	-48(%rbp), %r9          # 8-byte Reload
	cmpl	$1, %eax
	je	.LBB1_2
# %bb.10:                               # %ctrl1
	cmpl	$2, %eax
	je	.LBB1_3
# %bb.11:                               # %ctrl2
	cmpl	$3, %eax
	je	.LBB1_4
# %bb.12:                               # %ctrl3
	cmpl	$4, %eax
	je	.LBB1_5
# %bb.13:                               # %ctrl4
	cmpl	$5, %eax
	je	.LBB1_6
# %bb.14:                               # %ctrl5
	cmpl	$6, %eax
	movl	%r12d, %r8d
	movl	%r13d, %ecx
	movl	%ebx, %edx
	movl	%r14d, %esi
	movq	%r15, %rdi
	je	.LBB1_7
	jmp	.LBB1_8
.Lfunc_end1:
	.size	Get_Reference_Block, .Lfunc_end1-Get_Reference_Block
	.cfi_endproc
                                        # -- End function
	.globl	decode_one_mb           # -- Begin function decode_one_mb
	.p2align	4, 0x90
	.type	decode_one_mb,@function
decode_one_mb:                          # @decode_one_mb
	.cfi_startproc
# %bb.0:                                # %rand_bb
	pushq	%rbp
	.cfi_def_cfa_offset 16
	.cfi_offset %rbp, -16
	movq	%rsp, %rbp
	.cfi_def_cfa_register %rbp
	pushq	%r14
	pushq	%rbx
	.cfi_offset %rbx, -32
	.cfi_offset %r14, -24
	movq	%rsi, %r14
	movl	%edi, %ebx
	callq	get_urand
	cmpl	$0, %eax
	jne	.LBB2_2
# %bb.1:                                # %func_decode_one_mb.39
	movl	%ebx, %edi
	movq	%r14, %rsi
	callq	decode_one_mb.39
	popq	%rbx
	popq	%r14
	popq	%rbp
	.cfi_def_cfa %rsp, 8
	retq
.LBB2_2:                                # %func_decode_one_mb.46
	.cfi_def_cfa %rbp, 16
	movl	%ebx, %edi
	movq	%r14, %rsi
	callq	decode_one_mb.46
	popq	%rbx
	popq	%r14
	popq	%rbp
	.cfi_def_cfa %rsp, 8
	retq
.Lfunc_end2:
	.size	decode_one_mb, .Lfunc_end2-decode_one_mb
	.cfi_endproc
                                        # -- End function
	.globl	Get_Reference_Pixel     # -- Begin function Get_Reference_Pixel
	.p2align	4, 0x90
	.type	Get_Reference_Pixel,@function
Get_Reference_Pixel:                    # @Get_Reference_Pixel
	.cfi_startproc
# %bb.0:                                # %rand_bb
	pushq	%rbp
	.cfi_def_cfa_offset 16
	.cfi_offset %rbp, -16
	movq	%rsp, %rbp
	.cfi_def_cfa_register %rbp
	pushq	%r15
	pushq	%r14
	pushq	%rbx
	pushq	%rax
	.cfi_offset %rbx, -40
	.cfi_offset %r14, -32
	.cfi_offset %r15, -24
	movl	%edx, %r14d
	movl	%esi, %r15d
	movq	%rdi, %rbx
	callq	get_urand
	cmpl	$0, %eax
	jne	.LBB3_9
# %bb.1:                                # %func_Get_Reference_Pixel.13
	movq	%rbx, %rdi
	movl	%r15d, %esi
	movl	%r14d, %edx
	callq	Get_Reference_Pixel.13
	movzbl	%al, %eax
	addq	$8, %rsp
	popq	%rbx
	popq	%r14
	popq	%r15
	popq	%rbp
	.cfi_def_cfa %rsp, 8
	retq
.LBB3_2:                                # %func_Get_Reference_Pixel.18
	.cfi_def_cfa %rbp, 16
	movq	%rbx, %rdi
	movl	%r15d, %esi
	movl	%r14d, %edx
	callq	Get_Reference_Pixel.18
	movzbl	%al, %eax
	addq	$8, %rsp
	popq	%rbx
	popq	%r14
	popq	%r15
	popq	%rbp
	.cfi_def_cfa %rsp, 8
	retq
.LBB3_3:                                # %func_Get_Reference_Pixel.30
	.cfi_def_cfa %rbp, 16
	movq	%rbx, %rdi
	movl	%r15d, %esi
	movl	%r14d, %edx
	callq	Get_Reference_Pixel.30
	movzbl	%al, %eax
	addq	$8, %rsp
	popq	%rbx
	popq	%r14
	popq	%r15
	popq	%rbp
	.cfi_def_cfa %rsp, 8
	retq
.LBB3_4:                                # %func_Get_Reference_Pixel.33
	.cfi_def_cfa %rbp, 16
	movq	%rbx, %rdi
	movl	%r15d, %esi
	movl	%r14d, %edx
	callq	Get_Reference_Pixel.33
	movzbl	%al, %eax
	addq	$8, %rsp
	popq	%rbx
	popq	%r14
	popq	%r15
	popq	%rbp
	.cfi_def_cfa %rsp, 8
	retq
.LBB3_5:                                # %func_Get_Reference_Pixel.41
	.cfi_def_cfa %rbp, 16
	movq	%rbx, %rdi
	movl	%r15d, %esi
	movl	%r14d, %edx
	callq	Get_Reference_Pixel.41
	movzbl	%al, %eax
	addq	$8, %rsp
	popq	%rbx
	popq	%r14
	popq	%r15
	popq	%rbp
	.cfi_def_cfa %rsp, 8
	retq
.LBB3_6:                                # %func_Get_Reference_Pixel.42
	.cfi_def_cfa %rbp, 16
	movq	%rbx, %rdi
	movl	%r15d, %esi
	movl	%r14d, %edx
	callq	Get_Reference_Pixel.42
	movzbl	%al, %eax
	addq	$8, %rsp
	popq	%rbx
	popq	%r14
	popq	%r15
	popq	%rbp
	.cfi_def_cfa %rsp, 8
	retq
.LBB3_7:                                # %func_Get_Reference_Pixel.56
	.cfi_def_cfa %rbp, 16
	movq	%rbx, %rdi
	movl	%r15d, %esi
	movl	%r14d, %edx
	callq	Get_Reference_Pixel.56
	movzbl	%al, %eax
	addq	$8, %rsp
	popq	%rbx
	popq	%r14
	popq	%r15
	popq	%rbp
	.cfi_def_cfa %rsp, 8
	retq
.LBB3_8:                                # %func_Get_Reference_Pixel.61
	.cfi_def_cfa %rbp, 16
	movq	%rbx, %rdi
	movl	%r15d, %esi
	movl	%r14d, %edx
	callq	Get_Reference_Pixel.61
	movzbl	%al, %eax
	addq	$8, %rsp
	popq	%rbx
	popq	%r14
	popq	%r15
	popq	%rbp
	.cfi_def_cfa %rsp, 8
	retq
.LBB3_9:                                # %ctrl0
	.cfi_def_cfa %rbp, 16
	cmpl	$1, %eax
	je	.LBB3_2
# %bb.10:                               # %ctrl1
	cmpl	$2, %eax
	je	.LBB3_3
# %bb.11:                               # %ctrl2
	cmpl	$3, %eax
	je	.LBB3_4
# %bb.12:                               # %ctrl3
	cmpl	$4, %eax
	je	.LBB3_5
# %bb.13:                               # %ctrl4
	cmpl	$5, %eax
	je	.LBB3_6
# %bb.14:                               # %ctrl5
	cmpl	$6, %eax
	je	.LBB3_7
	jmp	.LBB3_8
.Lfunc_end3:
	.size	Get_Reference_Pixel, .Lfunc_end3-Get_Reference_Pixel
	.cfi_endproc
                                        # -- End function
	.globl	UpdateDecoders          # -- Begin function UpdateDecoders
	.p2align	4, 0x90
	.type	UpdateDecoders,@function
UpdateDecoders:                         # @UpdateDecoders
	.cfi_startproc
# %bb.0:                                # %entry
	pushq	%rbp
	.cfi_def_cfa_offset 16
	.cfi_offset %rbp, -16
	movq	%rsp, %rbp
	.cfi_def_cfa_register %rbp
	subq	$16, %rsp
	movl	$0, -4(%rbp)
.LBB4_1:                                # %for.cond
                                        # =>This Inner Loop Header: Depth=1
	movl	-4(%rbp), %eax
	movq	input, %rcx
	cmpl	2904(%rcx), %eax
	jge	.LBB4_4
# %bb.2:                                # %for.body
                                        #   in Loop: Header=BB4_1 Depth=1
	movq	decs, %rax
	movq	40(%rax), %rdi
	callq	Build_Status_Map
	movq	decs, %rax
	movq	24(%rax), %rax
	movslq	-4(%rbp), %rcx
	movq	(%rax,%rcx,8), %rdi
	movq	decs, %rax
	movq	40(%rax), %rsi
	movq	decs, %rax
	movq	16(%rax), %rax
	movslq	-4(%rbp), %rcx
	movq	(%rax,%rcx,8), %rdx
	callq	Error_Concealment
	movq	decs, %rax
	movq	24(%rax), %rax
	movslq	-4(%rbp), %rcx
	movq	(%rax,%rcx,8), %rdi
	movq	decs, %rax
	movq	16(%rax), %rax
	movslq	-4(%rbp), %rcx
	movq	(%rax,%rcx,8), %rsi
	callq	DecOneForthPix
# %bb.3:                                # %for.inc
                                        #   in Loop: Header=BB4_1 Depth=1
	movl	-4(%rbp), %eax
	addl	$1, %eax
	movl	%eax, -4(%rbp)
	jmp	.LBB4_1
.LBB4_4:                                # %for.end
	addq	$16, %rsp
	popq	%rbp
	.cfi_def_cfa %rsp, 8
	retq
.Lfunc_end4:
	.size	UpdateDecoders, .Lfunc_end4-UpdateDecoders
	.cfi_endproc
                                        # -- End function
	.globl	Build_Status_Map        # -- Begin function Build_Status_Map
	.p2align	4, 0x90
	.type	Build_Status_Map,@function
Build_Status_Map:                       # @Build_Status_Map
	.cfi_startproc
# %bb.0:                                # %rand_bb
	pushq	%rbp
	.cfi_def_cfa_offset 16
	.cfi_offset %rbp, -16
	movq	%rsp, %rbp
	.cfi_def_cfa_register %rbp
	pushq	%rbx
	pushq	%rax
	.cfi_offset %rbx, -24
	movq	%rdi, %rbx
	callq	get_urand
	cmpl	$0, %eax
	jne	.LBB5_9
# %bb.1:                                # %func_Build_Status_Map.16
	movq	%rbx, %rdi
	callq	Build_Status_Map.16
	addq	$8, %rsp
	popq	%rbx
	popq	%rbp
	.cfi_def_cfa %rsp, 8
	retq
.LBB5_2:                                # %func_Build_Status_Map.17
	.cfi_def_cfa %rbp, 16
	movq	%rbx, %rdi
	callq	Build_Status_Map.17
	addq	$8, %rsp
	popq	%rbx
	popq	%rbp
	.cfi_def_cfa %rsp, 8
	retq
.LBB5_3:                                # %func_Build_Status_Map.45
	.cfi_def_cfa %rbp, 16
	movq	%rbx, %rdi
	callq	Build_Status_Map.45
	addq	$8, %rsp
	popq	%rbx
	popq	%rbp
	.cfi_def_cfa %rsp, 8
	retq
.LBB5_4:                                # %func_Build_Status_Map.47
	.cfi_def_cfa %rbp, 16
	movq	%rbx, %rdi
	callq	Build_Status_Map.47
	addq	$8, %rsp
	popq	%rbx
	popq	%rbp
	.cfi_def_cfa %rsp, 8
	retq
.LBB5_5:                                # %func_Build_Status_Map.58
	.cfi_def_cfa %rbp, 16
	movq	%rbx, %rdi
	callq	Build_Status_Map.58
	addq	$8, %rsp
	popq	%rbx
	popq	%rbp
	.cfi_def_cfa %rsp, 8
	retq
.LBB5_6:                                # %func_Build_Status_Map.63
	.cfi_def_cfa %rbp, 16
	movq	%rbx, %rdi
	callq	Build_Status_Map.63
	addq	$8, %rsp
	popq	%rbx
	popq	%rbp
	.cfi_def_cfa %rsp, 8
	retq
.LBB5_7:                                # %func_Build_Status_Map.65
	.cfi_def_cfa %rbp, 16
	movq	%rbx, %rdi
	callq	Build_Status_Map.65
	addq	$8, %rsp
	popq	%rbx
	popq	%rbp
	.cfi_def_cfa %rsp, 8
	retq
.LBB5_8:                                # %func_Build_Status_Map.66
	.cfi_def_cfa %rbp, 16
	movq	%rbx, %rdi
	callq	Build_Status_Map.66
	addq	$8, %rsp
	popq	%rbx
	popq	%rbp
	.cfi_def_cfa %rsp, 8
	retq
.LBB5_9:                                # %ctrl0
	.cfi_def_cfa %rbp, 16
	cmpl	$1, %eax
	je	.LBB5_2
# %bb.10:                               # %ctrl1
	cmpl	$2, %eax
	je	.LBB5_3
# %bb.11:                               # %ctrl2
	cmpl	$3, %eax
	je	.LBB5_4
# %bb.12:                               # %ctrl3
	cmpl	$4, %eax
	je	.LBB5_5
# %bb.13:                               # %ctrl4
	cmpl	$5, %eax
	je	.LBB5_6
# %bb.14:                               # %ctrl5
	cmpl	$6, %eax
	je	.LBB5_7
	jmp	.LBB5_8
.Lfunc_end5:
	.size	Build_Status_Map, .Lfunc_end5-Build_Status_Map
	.cfi_endproc
                                        # -- End function
	.globl	Error_Concealment       # -- Begin function Error_Concealment
	.p2align	4, 0x90
	.type	Error_Concealment,@function
Error_Concealment:                      # @Error_Concealment
	.cfi_startproc
# %bb.0:                                # %rand_bb
	pushq	%rbp
	.cfi_def_cfa_offset 16
	.cfi_offset %rbp, -16
	movq	%rsp, %rbp
	.cfi_def_cfa_register %rbp
	pushq	%r15
	pushq	%r14
	pushq	%rbx
	pushq	%rax
	.cfi_offset %rbx, -40
	.cfi_offset %r14, -32
	.cfi_offset %r15, -24
	movq	%rdx, %r14
	movq	%rsi, %r15
	movq	%rdi, %rbx
	callq	get_urand
	cmpl	$0, %eax
	jne	.LBB6_9
# %bb.1:                                # %func_Error_Concealment.5
	movq	%rbx, %rdi
	movq	%r15, %rsi
	movq	%r14, %rdx
	callq	Error_Concealment.5
	addq	$8, %rsp
	popq	%rbx
	popq	%r14
	popq	%r15
	popq	%rbp
	.cfi_def_cfa %rsp, 8
	retq
.LBB6_2:                                # %func_Error_Concealment.9
	.cfi_def_cfa %rbp, 16
	movq	%rbx, %rdi
	movq	%r15, %rsi
	movq	%r14, %rdx
	callq	Error_Concealment.9
	addq	$8, %rsp
	popq	%rbx
	popq	%r14
	popq	%r15
	popq	%rbp
	.cfi_def_cfa %rsp, 8
	retq
.LBB6_3:                                # %func_Error_Concealment.15
	.cfi_def_cfa %rbp, 16
	movq	%rbx, %rdi
	movq	%r15, %rsi
	movq	%r14, %rdx
	callq	Error_Concealment.15
	addq	$8, %rsp
	popq	%rbx
	popq	%r14
	popq	%r15
	popq	%rbp
	.cfi_def_cfa %rsp, 8
	retq
.LBB6_4:                                # %func_Error_Concealment.37
	.cfi_def_cfa %rbp, 16
	movq	%rbx, %rdi
	movq	%r15, %rsi
	movq	%r14, %rdx
	callq	Error_Concealment.37
	addq	$8, %rsp
	popq	%rbx
	popq	%r14
	popq	%r15
	popq	%rbp
	.cfi_def_cfa %rsp, 8
	retq
.LBB6_5:                                # %func_Error_Concealment.44
	.cfi_def_cfa %rbp, 16
	movq	%rbx, %rdi
	movq	%r15, %rsi
	movq	%r14, %rdx
	callq	Error_Concealment.44
	addq	$8, %rsp
	popq	%rbx
	popq	%r14
	popq	%r15
	popq	%rbp
	.cfi_def_cfa %rsp, 8
	retq
.LBB6_6:                                # %func_Error_Concealment.50
	.cfi_def_cfa %rbp, 16
	movq	%rbx, %rdi
	movq	%r15, %rsi
	movq	%r14, %rdx
	callq	Error_Concealment.50
	addq	$8, %rsp
	popq	%rbx
	popq	%r14
	popq	%r15
	popq	%rbp
	.cfi_def_cfa %rsp, 8
	retq
.LBB6_7:                                # %func_Error_Concealment.54
	.cfi_def_cfa %rbp, 16
	movq	%rbx, %rdi
	movq	%r15, %rsi
	movq	%r14, %rdx
	callq	Error_Concealment.54
	addq	$8, %rsp
	popq	%rbx
	popq	%r14
	popq	%r15
	popq	%rbp
	.cfi_def_cfa %rsp, 8
	retq
.LBB6_8:                                # %func_Error_Concealment.55
	.cfi_def_cfa %rbp, 16
	movq	%rbx, %rdi
	movq	%r15, %rsi
	movq	%r14, %rdx
	callq	Error_Concealment.55
	addq	$8, %rsp
	popq	%rbx
	popq	%r14
	popq	%r15
	popq	%rbp
	.cfi_def_cfa %rsp, 8
	retq
.LBB6_9:                                # %ctrl0
	.cfi_def_cfa %rbp, 16
	cmpl	$1, %eax
	je	.LBB6_2
# %bb.10:                               # %ctrl1
	cmpl	$2, %eax
	je	.LBB6_3
# %bb.11:                               # %ctrl2
	cmpl	$3, %eax
	je	.LBB6_4
# %bb.12:                               # %ctrl3
	cmpl	$4, %eax
	je	.LBB6_5
# %bb.13:                               # %ctrl4
	cmpl	$5, %eax
	je	.LBB6_6
# %bb.14:                               # %ctrl5
	cmpl	$6, %eax
	je	.LBB6_7
	jmp	.LBB6_8
.Lfunc_end6:
	.size	Error_Concealment, .Lfunc_end6-Error_Concealment
	.cfi_endproc
                                        # -- End function
	.globl	DecOneForthPix          # -- Begin function DecOneForthPix
	.p2align	4, 0x90
	.type	DecOneForthPix,@function
DecOneForthPix:                         # @DecOneForthPix
	.cfi_startproc
# %bb.0:                                # %rand_bb
	pushq	%rbp
	.cfi_def_cfa_offset 16
	.cfi_offset %rbp, -16
	movq	%rsp, %rbp
	.cfi_def_cfa_register %rbp
	pushq	%r14
	pushq	%rbx
	.cfi_offset %rbx, -32
	.cfi_offset %r14, -24
	movq	%rsi, %r14
	movq	%rdi, %rbx
	callq	get_urand
	cmpl	$0, %eax
	jne	.LBB7_9
# %bb.1:                                # %func_DecOneForthPix.6
	movq	%rbx, %rdi
	movq	%r14, %rsi
	callq	DecOneForthPix.6
	popq	%rbx
	popq	%r14
	popq	%rbp
	.cfi_def_cfa %rsp, 8
	retq
.LBB7_2:                                # %func_DecOneForthPix.7
	.cfi_def_cfa %rbp, 16
	movq	%rbx, %rdi
	movq	%r14, %rsi
	callq	DecOneForthPix.7
	popq	%rbx
	popq	%r14
	popq	%rbp
	.cfi_def_cfa %rsp, 8
	retq
.LBB7_3:                                # %func_DecOneForthPix.19
	.cfi_def_cfa %rbp, 16
	movq	%rbx, %rdi
	movq	%r14, %rsi
	callq	DecOneForthPix.19
	popq	%rbx
	popq	%r14
	popq	%rbp
	.cfi_def_cfa %rsp, 8
	retq
.LBB7_4:                                # %func_DecOneForthPix.20
	.cfi_def_cfa %rbp, 16
	movq	%rbx, %rdi
	movq	%r14, %rsi
	callq	DecOneForthPix.20
	popq	%rbx
	popq	%r14
	popq	%rbp
	.cfi_def_cfa %rsp, 8
	retq
.LBB7_5:                                # %func_DecOneForthPix.35
	.cfi_def_cfa %rbp, 16
	movq	%rbx, %rdi
	movq	%r14, %rsi
	callq	DecOneForthPix.35
	popq	%rbx
	popq	%r14
	popq	%rbp
	.cfi_def_cfa %rsp, 8
	retq
.LBB7_6:                                # %func_DecOneForthPix.51
	.cfi_def_cfa %rbp, 16
	movq	%rbx, %rdi
	movq	%r14, %rsi
	callq	DecOneForthPix.51
	popq	%rbx
	popq	%r14
	popq	%rbp
	.cfi_def_cfa %rsp, 8
	retq
.LBB7_7:                                # %func_DecOneForthPix.57
	.cfi_def_cfa %rbp, 16
	movq	%rbx, %rdi
	movq	%r14, %rsi
	callq	DecOneForthPix.57
	popq	%rbx
	popq	%r14
	popq	%rbp
	.cfi_def_cfa %rsp, 8
	retq
.LBB7_8:                                # %func_DecOneForthPix.59
	.cfi_def_cfa %rbp, 16
	movq	%rbx, %rdi
	movq	%r14, %rsi
	callq	DecOneForthPix.59
	popq	%rbx
	popq	%r14
	popq	%rbp
	.cfi_def_cfa %rsp, 8
	retq
.LBB7_9:                                # %ctrl0
	.cfi_def_cfa %rbp, 16
	cmpl	$1, %eax
	je	.LBB7_2
# %bb.10:                               # %ctrl1
	cmpl	$2, %eax
	je	.LBB7_3
# %bb.11:                               # %ctrl2
	cmpl	$3, %eax
	je	.LBB7_4
# %bb.12:                               # %ctrl3
	cmpl	$4, %eax
	je	.LBB7_5
# %bb.13:                               # %ctrl4
	cmpl	$5, %eax
	je	.LBB7_6
# %bb.14:                               # %ctrl5
	cmpl	$6, %eax
	je	.LBB7_7
	jmp	.LBB7_8
.Lfunc_end7:
	.size	DecOneForthPix, .Lfunc_end7-DecOneForthPix
	.cfi_endproc
                                        # -- End function
	.globl	compute_residue_b8block # -- Begin function compute_residue_b8block
	.p2align	4, 0x90
	.type	compute_residue_b8block,@function
compute_residue_b8block:                # @compute_residue_b8block
	.cfi_startproc
# %bb.0:                                # %rand_bb
	pushq	%rbp
	.cfi_def_cfa_offset 16
	.cfi_offset %rbp, -16
	movq	%rsp, %rbp
	.cfi_def_cfa_register %rbp
	pushq	%r14
	pushq	%rbx
	.cfi_offset %rbx, -32
	.cfi_offset %r14, -24
	movl	%esi, %r14d
	movl	%edi, %ebx
	callq	get_urand
	cmpl	$0, %eax
	jne	.LBB8_9
# %bb.1:                                # %func_compute_residue_b8block.1
	movl	%ebx, %edi
	movl	%r14d, %esi
	callq	compute_residue_b8block.1
	popq	%rbx
	popq	%r14
	popq	%rbp
	.cfi_def_cfa %rsp, 8
	retq
.LBB8_2:                                # %func_compute_residue_b8block.12
	.cfi_def_cfa %rbp, 16
	movl	%ebx, %edi
	movl	%r14d, %esi
	callq	compute_residue_b8block.12
	popq	%rbx
	popq	%r14
	popq	%rbp
	.cfi_def_cfa %rsp, 8
	retq
.LBB8_3:                                # %func_compute_residue_b8block.25
	.cfi_def_cfa %rbp, 16
	movl	%ebx, %edi
	movl	%r14d, %esi
	callq	compute_residue_b8block.25
	popq	%rbx
	popq	%r14
	popq	%rbp
	.cfi_def_cfa %rsp, 8
	retq
.LBB8_4:                                # %func_compute_residue_b8block.28
	.cfi_def_cfa %rbp, 16
	movl	%ebx, %edi
	movl	%r14d, %esi
	callq	compute_residue_b8block.28
	popq	%rbx
	popq	%r14
	popq	%rbp
	.cfi_def_cfa %rsp, 8
	retq
.LBB8_5:                                # %func_compute_residue_b8block.32
	.cfi_def_cfa %rbp, 16
	movl	%ebx, %edi
	movl	%r14d, %esi
	callq	compute_residue_b8block.32
	popq	%rbx
	popq	%r14
	popq	%rbp
	.cfi_def_cfa %rsp, 8
	retq
.LBB8_6:                                # %func_compute_residue_b8block.43
	.cfi_def_cfa %rbp, 16
	movl	%ebx, %edi
	movl	%r14d, %esi
	callq	compute_residue_b8block.43
	popq	%rbx
	popq	%r14
	popq	%rbp
	.cfi_def_cfa %rsp, 8
	retq
.LBB8_7:                                # %func_compute_residue_b8block.49
	.cfi_def_cfa %rbp, 16
	movl	%ebx, %edi
	movl	%r14d, %esi
	callq	compute_residue_b8block.49
	popq	%rbx
	popq	%r14
	popq	%rbp
	.cfi_def_cfa %rsp, 8
	retq
.LBB8_8:                                # %func_compute_residue_b8block.52
	.cfi_def_cfa %rbp, 16
	movl	%ebx, %edi
	movl	%r14d, %esi
	callq	compute_residue_b8block.52
	popq	%rbx
	popq	%r14
	popq	%rbp
	.cfi_def_cfa %rsp, 8
	retq
.LBB8_9:                                # %ctrl0
	.cfi_def_cfa %rbp, 16
	cmpl	$1, %eax
	je	.LBB8_2
# %bb.10:                               # %ctrl1
	cmpl	$2, %eax
	je	.LBB8_3
# %bb.11:                               # %ctrl2
	cmpl	$3, %eax
	je	.LBB8_4
# %bb.12:                               # %ctrl3
	cmpl	$4, %eax
	je	.LBB8_5
# %bb.13:                               # %ctrl4
	cmpl	$5, %eax
	je	.LBB8_6
# %bb.14:                               # %ctrl5
	cmpl	$6, %eax
	je	.LBB8_7
	jmp	.LBB8_8
.Lfunc_end8:
	.size	compute_residue_b8block, .Lfunc_end8-compute_residue_b8block
	.cfi_endproc
                                        # -- End function
	.globl	compute_residue_mb      # -- Begin function compute_residue_mb
	.p2align	4, 0x90
	.type	compute_residue_mb,@function
compute_residue_mb:                     # @compute_residue_mb
	.cfi_startproc
# %bb.0:                                # %entry
	pushq	%rbp
	.cfi_def_cfa_offset 16
	.cfi_offset %rbp, -16
	movq	%rsp, %rbp
	.cfi_def_cfa_register %rbp
	subq	$16, %rsp
	movl	%edi, -4(%rbp)
	movl	-4(%rbp), %esi
	xorl	%edi, %edi
	callq	compute_residue_b8block
	movl	-4(%rbp), %esi
	movl	$1, %edi
	callq	compute_residue_b8block
	movl	-4(%rbp), %esi
	movl	$2, %edi
	callq	compute_residue_b8block
	movl	-4(%rbp), %esi
	movl	$3, %edi
	callq	compute_residue_b8block
	addq	$16, %rsp
	popq	%rbp
	.cfi_def_cfa %rsp, 8
	retq
.Lfunc_end9:
	.size	compute_residue_mb, .Lfunc_end9-compute_residue_mb
	.cfi_endproc
                                        # -- End function
	.globl	Conceal_Error           # -- Begin function Conceal_Error
	.p2align	4, 0x90
	.type	Conceal_Error,@function
Conceal_Error:                          # @Conceal_Error
	.cfi_startproc
# %bb.0:                                # %rand_bb
	pushq	%rbp
	.cfi_def_cfa_offset 16
	.cfi_offset %rbp, -16
	movq	%rsp, %rbp
	.cfi_def_cfa_register %rbp
	pushq	%r15
	pushq	%r14
	pushq	%r13
	pushq	%r12
	pushq	%rbx
	pushq	%rax
	.cfi_offset %rbx, -56
	.cfi_offset %r12, -48
	.cfi_offset %r13, -40
	.cfi_offset %r14, -32
	.cfi_offset %r15, -24
	movq	%r8, %r14
	movq	%rcx, %r15
	movl	%edx, %r12d
	movl	%esi, %r13d
	movq	%rdi, %rbx
	callq	get_urand
	cmpl	$0, %eax
	jne	.LBB10_9
# %bb.1:                                # %func_Conceal_Error.29
	movq	%rbx, %rdi
	movl	%r13d, %esi
	movl	%r12d, %edx
	movq	%r15, %rcx
	movq	%r14, %r8
	callq	Conceal_Error.29
	addq	$8, %rsp
	popq	%rbx
	popq	%r12
	popq	%r13
	popq	%r14
	popq	%r15
	popq	%rbp
	.cfi_def_cfa %rsp, 8
	retq
.LBB10_2:                               # %func_Conceal_Error.34
	.cfi_def_cfa %rbp, 16
	movq	%rbx, %rdi
	movl	%r13d, %esi
	movl	%r12d, %edx
	movq	%r15, %rcx
	movq	%r14, %r8
	callq	Conceal_Error.34
	addq	$8, %rsp
	popq	%rbx
	popq	%r12
	popq	%r13
	popq	%r14
	popq	%r15
	popq	%rbp
	.cfi_def_cfa %rsp, 8
	retq
.LBB10_3:                               # %func_Conceal_Error.36
	.cfi_def_cfa %rbp, 16
	movq	%rbx, %rdi
	movl	%r13d, %esi
	movl	%r12d, %edx
	movq	%r15, %rcx
	movq	%r14, %r8
	callq	Conceal_Error.36
	addq	$8, %rsp
	popq	%rbx
	popq	%r12
	popq	%r13
	popq	%r14
	popq	%r15
	popq	%rbp
	.cfi_def_cfa %rsp, 8
	retq
.LBB10_4:                               # %func_Conceal_Error.40
	.cfi_def_cfa %rbp, 16
	movq	%rbx, %rdi
	movl	%r13d, %esi
	movl	%r12d, %edx
	movq	%r15, %rcx
	movq	%r14, %r8
	callq	Conceal_Error.40
	addq	$8, %rsp
	popq	%rbx
	popq	%r12
	popq	%r13
	popq	%r14
	popq	%r15
	popq	%rbp
	.cfi_def_cfa %rsp, 8
	retq
.LBB10_5:                               # %func_Conceal_Error.53
	.cfi_def_cfa %rbp, 16
	movq	%rbx, %rdi
	movl	%r13d, %esi
	movl	%r12d, %edx
	movq	%r15, %rcx
	movq	%r14, %r8
	callq	Conceal_Error.53
	addq	$8, %rsp
	popq	%rbx
	popq	%r12
	popq	%r13
	popq	%r14
	popq	%r15
	popq	%rbp
	.cfi_def_cfa %rsp, 8
	retq
.LBB10_6:                               # %func_Conceal_Error.60
	.cfi_def_cfa %rbp, 16
	movq	%rbx, %rdi
	movl	%r13d, %esi
	movl	%r12d, %edx
	movq	%r15, %rcx
	movq	%r14, %r8
	callq	Conceal_Error.60
	addq	$8, %rsp
	popq	%rbx
	popq	%r12
	popq	%r13
	popq	%r14
	popq	%r15
	popq	%rbp
	.cfi_def_cfa %rsp, 8
	retq
.LBB10_7:                               # %func_Conceal_Error.62
	.cfi_def_cfa %rbp, 16
	movq	%rbx, %rdi
	movl	%r13d, %esi
	movl	%r12d, %edx
	movq	%r15, %rcx
	movq	%r14, %r8
	callq	Conceal_Error.62
	addq	$8, %rsp
	popq	%rbx
	popq	%r12
	popq	%r13
	popq	%r14
	popq	%r15
	popq	%rbp
	.cfi_def_cfa %rsp, 8
	retq
.LBB10_8:                               # %func_Conceal_Error.64
	.cfi_def_cfa %rbp, 16
	movq	%rbx, %rdi
	movl	%r13d, %esi
	movl	%r12d, %edx
	movq	%r15, %rcx
	movq	%r14, %r8
	callq	Conceal_Error.64
	addq	$8, %rsp
	popq	%rbx
	popq	%r12
	popq	%r13
	popq	%r14
	popq	%r15
	popq	%rbp
	.cfi_def_cfa %rsp, 8
	retq
.LBB10_9:                               # %ctrl0
	.cfi_def_cfa %rbp, 16
	cmpl	$1, %eax
	je	.LBB10_2
# %bb.10:                               # %ctrl1
	cmpl	$2, %eax
	je	.LBB10_3
# %bb.11:                               # %ctrl2
	cmpl	$3, %eax
	je	.LBB10_4
# %bb.12:                               # %ctrl3
	cmpl	$4, %eax
	je	.LBB10_5
# %bb.13:                               # %ctrl4
	cmpl	$5, %eax
	je	.LBB10_6
# %bb.14:                               # %ctrl5
	cmpl	$6, %eax
	je	.LBB10_7
	jmp	.LBB10_8
.Lfunc_end10:
	.size	Conceal_Error, .Lfunc_end10-Conceal_Error
	.cfi_endproc
                                        # -- End function
	.globl	compute_residue_b8block.1 # -- Begin function compute_residue_b8block.1
	.p2align	4, 0x90
	.type	compute_residue_b8block.1,@function
compute_residue_b8block.1:              # @compute_residue_b8block.1
	.cfi_startproc
# %bb.0:                                # %entry
	pushq	%rbp
	.cfi_def_cfa_offset 16
	.cfi_offset %rbp, -16
	movq	%rsp, %rbp
	.cfi_def_cfa_register %rbp
	subq	$48, %rsp
	movl	$1776622070, -36(%rbp)  # imm = 0x69E519F6
	movl	%edi, -24(%rbp)
	movl	%esi, -20(%rbp)
	movl	-24(%rbp), %eax
	cltd
	movl	$2, %ecx
	idivl	%ecx
	shll	$3, %edx
	movl	%edx, -12(%rbp)
	movl	-12(%rbp), %eax
	addl	$8, %eax
	movl	%eax, -32(%rbp)
	movl	-24(%rbp), %eax
	cltd
	idivl	%ecx
	shll	$3, %eax
	movl	%eax, -16(%rbp)
	movl	-16(%rbp), %eax
	addl	$8, %eax
	movl	%eax, -28(%rbp)
	cmpl	$0, -20(%rbp)
	jl	.LBB11_10
# %bb.1:                                # %if.then
	movl	-12(%rbp), %eax
	movl	%eax, -8(%rbp)
.LBB11_2:                               # %for.cond
                                        # =>This Loop Header: Depth=1
                                        #     Child Loop BB11_4 Depth 2
	movl	-8(%rbp), %eax
	cmpl	-32(%rbp), %eax
	jge	.LBB11_9
# %bb.3:                                # %for.body
                                        #   in Loop: Header=BB11_2 Depth=1
	movl	-16(%rbp), %eax
	movl	%eax, -4(%rbp)
.LBB11_4:                               # %for.cond4
                                        #   Parent Loop BB11_2 Depth=1
                                        # =>  This Inner Loop Header: Depth=2
	movl	-4(%rbp), %eax
	cmpl	-28(%rbp), %eax
	jge	.LBB11_7
# %bb.5:                                # %for.body6
                                        #   in Loop: Header=BB11_4 Depth=2
	movq	enc_picture, %rax
	movq	6424(%rax), %rax
	movq	img, %rcx
	movl	156(%rcx), %ecx
	addl	-4(%rbp), %ecx
	movslq	%ecx, %rcx
	movq	(%rax,%rcx,8), %rax
	movq	img, %rcx
	movl	152(%rcx), %ecx
	addl	-8(%rbp), %ecx
	movslq	%ecx, %rcx
	movzwl	(%rax,%rcx,2), %eax
	movq	img, %rcx
	addq	$4792, %rcx             # imm = 0x12B8
	movslq	-20(%rbp), %rdx
	shlq	$9, %rdx
	addq	%rdx, %rcx
	movslq	-4(%rbp), %rdx
	shlq	$5, %rdx
	addq	%rdx, %rcx
	movslq	-8(%rbp), %rdx
	movzwl	(%rcx,%rdx,2), %ecx
	subl	%ecx, %eax
	movq	decs, %rcx
	movq	(%rcx), %rcx
	movslq	-4(%rbp), %rdx
	movq	(%rcx,%rdx,8), %rcx
	movslq	-8(%rbp), %rdx
	movl	%eax, (%rcx,%rdx,4)
# %bb.6:                                # %for.inc
                                        #   in Loop: Header=BB11_4 Depth=2
	movl	-4(%rbp), %eax
	addl	$1, %eax
	movl	%eax, -4(%rbp)
	jmp	.LBB11_4
.LBB11_7:                               # %for.end
                                        #   in Loop: Header=BB11_2 Depth=1
	jmp	.LBB11_8
.LBB11_8:                               # %for.inc22
                                        #   in Loop: Header=BB11_2 Depth=1
	movl	-8(%rbp), %eax
	addl	$1, %eax
	movl	%eax, -8(%rbp)
	jmp	.LBB11_2
.LBB11_9:                               # %for.end24
	jmp	.LBB11_19
.LBB11_10:                              # %if.else
	movl	-12(%rbp), %eax
	movl	%eax, -8(%rbp)
.LBB11_11:                              # %for.cond25
                                        # =>This Loop Header: Depth=1
                                        #     Child Loop BB11_13 Depth 2
	movl	-8(%rbp), %eax
	cmpl	-32(%rbp), %eax
	jge	.LBB11_18
# %bb.12:                               # %for.body28
                                        #   in Loop: Header=BB11_11 Depth=1
	movl	-16(%rbp), %eax
	movl	%eax, -4(%rbp)
.LBB11_13:                              # %for.cond29
                                        #   Parent Loop BB11_11 Depth=1
                                        # =>  This Inner Loop Header: Depth=2
	movl	-4(%rbp), %eax
	cmpl	-28(%rbp), %eax
	jge	.LBB11_16
# %bb.14:                               # %for.body32
                                        #   in Loop: Header=BB11_13 Depth=2
	movq	enc_picture, %rax
	movq	6424(%rax), %rax
	movq	img, %rcx
	movl	156(%rcx), %ecx
	addl	-4(%rbp), %ecx
	movslq	%ecx, %rcx
	movq	(%rax,%rcx,8), %rax
	movq	img, %rcx
	movl	152(%rcx), %ecx
	addl	-8(%rbp), %ecx
	movslq	%ecx, %rcx
	movzwl	(%rax,%rcx,2), %eax
	movq	img, %rcx
	addq	$12600, %rcx            # imm = 0x3138
	movslq	-8(%rbp), %rdx
	shlq	$5, %rdx
	addq	%rdx, %rcx
	movslq	-4(%rbp), %rdx
	movzwl	(%rcx,%rdx,2), %ecx
	subl	%ecx, %eax
	movq	decs, %rcx
	movq	(%rcx), %rcx
	movslq	-4(%rbp), %rdx
	movq	(%rcx,%rdx,8), %rcx
	movslq	-8(%rbp), %rdx
	movl	%eax, (%rcx,%rdx,4)
# %bb.15:                               # %for.inc54
                                        #   in Loop: Header=BB11_13 Depth=2
	movl	-4(%rbp), %eax
	addl	$1, %eax
	movl	%eax, -4(%rbp)
	jmp	.LBB11_13
.LBB11_16:                              # %for.end56
                                        #   in Loop: Header=BB11_11 Depth=1
	jmp	.LBB11_17
.LBB11_17:                              # %for.inc57
                                        #   in Loop: Header=BB11_11 Depth=1
	movl	-8(%rbp), %eax
	addl	$1, %eax
	movl	%eax, -8(%rbp)
	jmp	.LBB11_11
.LBB11_18:                              # %for.end59
	jmp	.LBB11_19
.LBB11_19:                              # %if.end
	cmpl	$1776622070, -36(%rbp)  # imm = 0x69E519F6
	jne	.LBB11_21
.LBB11_20:
	addq	$48, %rsp
	popq	%rbp
	.cfi_def_cfa %rsp, 8
	retq
.LBB11_21:                              # %func_exit
	.cfi_def_cfa %rbp, 16
	callq	detect_breach
	jmp	.LBB11_20
.Lfunc_end11:
	.size	compute_residue_b8block.1, .Lfunc_end11-compute_residue_b8block.1
	.cfi_endproc
                                        # -- End function
	.globl	Get_Reference_Block.2   # -- Begin function Get_Reference_Block.2
	.p2align	4, 0x90
	.type	Get_Reference_Block.2,@function
Get_Reference_Block.2:                  # @Get_Reference_Block.2
	.cfi_startproc
# %bb.0:                                # %entry
	pushq	%rbp
	.cfi_def_cfa_offset 16
	.cfi_offset %rbp, -16
	movq	%rsp, %rbp
	.cfi_def_cfa_register %rbp
	subq	$64, %rsp
	movl	$1434756337, -32(%rbp)  # imm = 0x5584A4F1
	movq	%rdi, -48(%rbp)
	movl	%esi, -16(%rbp)
	movl	%edx, -12(%rbp)
	movl	%ecx, -36(%rbp)
	movl	%r8d, -28(%rbp)
	movq	%r9, -56(%rbp)
	movl	-16(%rbp), %eax
	shll	$2, %eax
	shll	$2, %eax
	addl	-28(%rbp), %eax
	movl	%eax, -24(%rbp)
	movl	-12(%rbp), %eax
	shll	$2, %eax
	shll	$2, %eax
	addl	-36(%rbp), %eax
	movl	%eax, -20(%rbp)
	movl	$0, -8(%rbp)
.LBB12_1:                               # %for.cond
                                        # =>This Loop Header: Depth=1
                                        #     Child Loop BB12_3 Depth 2
	cmpl	$4, -8(%rbp)
	jge	.LBB12_8
# %bb.2:                                # %for.body
                                        #   in Loop: Header=BB12_1 Depth=1
	movl	$0, -4(%rbp)
.LBB12_3:                               # %for.cond5
                                        #   Parent Loop BB12_1 Depth=1
                                        # =>  This Inner Loop Header: Depth=2
	cmpl	$4, -4(%rbp)
	jge	.LBB12_6
# %bb.4:                                # %for.body7
                                        #   in Loop: Header=BB12_3 Depth=2
	movq	-48(%rbp), %rdi
	movl	-24(%rbp), %esi
	movl	-8(%rbp), %eax
	shll	$2, %eax
	addl	%eax, %esi
	movl	-20(%rbp), %edx
	movl	-4(%rbp), %eax
	shll	$2, %eax
	addl	%eax, %edx
	callq	Get_Reference_Pixel
	movzbl	%al, %eax
	movq	-56(%rbp), %rcx
	movslq	-8(%rbp), %rdx
	movq	(%rcx,%rdx,8), %rcx
	movslq	-4(%rbp), %rdx
	movw	%ax, (%rcx,%rdx,2)
# %bb.5:                                # %for.inc
                                        #   in Loop: Header=BB12_3 Depth=2
	movl	-4(%rbp), %eax
	addl	$1, %eax
	movl	%eax, -4(%rbp)
	jmp	.LBB12_3
.LBB12_6:                               # %for.end
                                        #   in Loop: Header=BB12_1 Depth=1
	jmp	.LBB12_7
.LBB12_7:                               # %for.inc14
                                        #   in Loop: Header=BB12_1 Depth=1
	movl	-8(%rbp), %eax
	addl	$1, %eax
	movl	%eax, -8(%rbp)
	jmp	.LBB12_1
.LBB12_8:                               # %for.end16
	cmpl	$1434756337, -32(%rbp)  # imm = 0x5584A4F1
	jne	.LBB12_10
.LBB12_9:
	addq	$64, %rsp
	popq	%rbp
	.cfi_def_cfa %rsp, 8
	retq
.LBB12_10:                              # %func_exit
	.cfi_def_cfa %rbp, 16
	callq	detect_breach
	jmp	.LBB12_9
.Lfunc_end12:
	.size	Get_Reference_Block.2, .Lfunc_end12-Get_Reference_Block.2
	.cfi_endproc
                                        # -- End function
	.globl	decode_one_b8block.3    # -- Begin function decode_one_b8block.3
	.p2align	4, 0x90
	.type	decode_one_b8block.3,@function
decode_one_b8block.3:                   # @decode_one_b8block.3
	.cfi_startproc
# %bb.0:                                # %entry
	pushq	%rbp
	.cfi_def_cfa_offset 16
	.cfi_offset %rbp, -16
	movq	%rsp, %rbp
	.cfi_def_cfa_register %rbp
	subq	$1248, %rsp             # imm = 0x4E0
	movl	$1269314114, -84(%rbp)  # imm = 0x4BA83242
	movl	%edi, -56(%rbp)
	movl	%esi, -80(%rbp)
	movl	%edx, -72(%rbp)
	movl	%ecx, -24(%rbp)
	movl	%r8d, -60(%rbp)
	movq	img, %rax
	movl	(%rax), %eax
	subl	start_frame_no_in_this_IGOP, %eax
	subl	$1, %eax
	movq	img, %rcx
	cltd
	idivl	32(%rcx)
	movl	%edx, -64(%rbp)
	movl	-72(%rbp), %eax
	cltd
	movl	$2, %ecx
	idivl	%ecx
	shll	$3, %edx
	movl	%edx, -20(%rbp)
	movl	-20(%rbp), %eax
	addl	$8, %eax
	movl	%eax, -40(%rbp)
	movl	-20(%rbp), %eax
	sarl	$2, %eax
	movl	%eax, -36(%rbp)
	movl	-36(%rbp), %eax
	addl	$2, %eax
	movl	%eax, -52(%rbp)
	movl	-72(%rbp), %eax
	cltd
	idivl	%ecx
	shll	$3, %eax
	movl	%eax, -28(%rbp)
	movl	-28(%rbp), %eax
	addl	$8, %eax
	movl	%eax, -48(%rbp)
	movl	-28(%rbp), %eax
	sarl	$2, %eax
	movl	%eax, -32(%rbp)
	movl	-32(%rbp), %eax
	addl	$2, %eax
	movl	%eax, -44(%rbp)
	movq	img, %rax
	cmpl	$2, 24(%rax)
	jne	.LBB13_10
# %bb.1:                                # %if.then
	movl	-20(%rbp), %eax
	movl	%eax, -4(%rbp)
.LBB13_2:                               # %for.cond
                                        # =>This Loop Header: Depth=1
                                        #     Child Loop BB13_4 Depth 2
	movl	-4(%rbp), %eax
	cmpl	-40(%rbp), %eax
	jge	.LBB13_9
# %bb.3:                                # %for.body
                                        #   in Loop: Header=BB13_2 Depth=1
	movl	-28(%rbp), %eax
	movl	%eax, -8(%rbp)
.LBB13_4:                               # %for.cond9
                                        #   Parent Loop BB13_2 Depth=1
                                        # =>  This Inner Loop Header: Depth=2
	movl	-8(%rbp), %eax
	cmpl	-48(%rbp), %eax
	jge	.LBB13_7
# %bb.5:                                # %for.body11
                                        #   in Loop: Header=BB13_4 Depth=2
	movq	enc_picture, %rax
	movq	6424(%rax), %rax
	movq	img, %rcx
	movl	156(%rcx), %ecx
	addl	-8(%rbp), %ecx
	movslq	%ecx, %rcx
	movq	(%rax,%rcx,8), %rax
	movq	img, %rcx
	movl	152(%rcx), %ecx
	addl	-4(%rbp), %ecx
	movslq	%ecx, %rcx
	movw	(%rax,%rcx,2), %ax
	movq	decs, %rcx
	movq	8(%rcx), %rcx
	movslq	-56(%rbp), %rdx
	movq	(%rcx,%rdx,8), %rcx
	movq	img, %rdx
	movl	156(%rdx), %edx
	addl	-8(%rbp), %edx
	movslq	%edx, %rdx
	movq	(%rcx,%rdx,8), %rcx
	movq	img, %rdx
	movl	152(%rdx), %edx
	addl	-4(%rbp), %edx
	movslq	%edx, %rdx
	movw	%ax, (%rcx,%rdx,2)
# %bb.6:                                # %for.inc
                                        #   in Loop: Header=BB13_4 Depth=2
	movl	-8(%rbp), %eax
	addl	$1, %eax
	movl	%eax, -8(%rbp)
	jmp	.LBB13_4
.LBB13_7:                               # %for.end
                                        #   in Loop: Header=BB13_2 Depth=1
	jmp	.LBB13_8
.LBB13_8:                               # %for.inc26
                                        #   in Loop: Header=BB13_2 Depth=1
	movl	-4(%rbp), %eax
	addl	$1, %eax
	movl	%eax, -4(%rbp)
	jmp	.LBB13_2
.LBB13_9:                               # %for.end28
	jmp	.LBB13_96
.LBB13_10:                              # %if.else
	cmpl	$0, -80(%rbp)
	jne	.LBB13_31
# %bb.11:                               # %land.lhs.true
	movq	img, %rax
	cmpl	$0, 24(%rax)
	je	.LBB13_14
# %bb.12:                               # %lor.lhs.false
	movq	img, %rax
	cmpl	$1, 24(%rax)
	jne	.LBB13_31
# %bb.13:                               # %land.lhs.true34
	movq	img, %rax
	cmpl	$0, 72496(%rax)
	jle	.LBB13_31
.LBB13_14:                              # %if.then36
	movl	-20(%rbp), %eax
	movl	%eax, -4(%rbp)
.LBB13_15:                              # %for.cond37
                                        # =>This Loop Header: Depth=1
                                        #     Child Loop BB13_17 Depth 2
	movl	-4(%rbp), %eax
	cmpl	-40(%rbp), %eax
	jge	.LBB13_22
# %bb.16:                               # %for.body39
                                        #   in Loop: Header=BB13_15 Depth=1
	movl	-28(%rbp), %eax
	movl	%eax, -8(%rbp)
.LBB13_17:                              # %for.cond40
                                        #   Parent Loop BB13_15 Depth=1
                                        # =>  This Inner Loop Header: Depth=2
	movl	-8(%rbp), %eax
	cmpl	-48(%rbp), %eax
	jge	.LBB13_20
# %bb.18:                               # %for.body42
                                        #   in Loop: Header=BB13_17 Depth=2
	movslq	-8(%rbp), %rax
	shlq	$6, %rax
	leaq	-1248(%rbp), %rcx
	addq	%rax, %rcx
	movslq	-4(%rbp), %rax
	movl	$0, (%rcx,%rax,4)
# %bb.19:                               # %for.inc47
                                        #   in Loop: Header=BB13_17 Depth=2
	movl	-8(%rbp), %eax
	addl	$1, %eax
	movl	%eax, -8(%rbp)
	jmp	.LBB13_17
.LBB13_20:                              # %for.end49
                                        #   in Loop: Header=BB13_15 Depth=1
	jmp	.LBB13_21
.LBB13_21:                              # %for.inc50
                                        #   in Loop: Header=BB13_15 Depth=1
	movl	-4(%rbp), %eax
	addl	$1, %eax
	movl	%eax, -4(%rbp)
	jmp	.LBB13_15
.LBB13_22:                              # %for.end52
	movl	-32(%rbp), %eax
	movl	%eax, -16(%rbp)
.LBB13_23:                              # %for.cond53
                                        # =>This Loop Header: Depth=1
                                        #     Child Loop BB13_25 Depth 2
	movl	-16(%rbp), %eax
	cmpl	-44(%rbp), %eax
	jge	.LBB13_30
# %bb.24:                               # %for.body55
                                        #   in Loop: Header=BB13_23 Depth=1
	movl	-36(%rbp), %eax
	movl	%eax, -12(%rbp)
.LBB13_25:                              # %for.cond56
                                        #   Parent Loop BB13_23 Depth=1
                                        # =>  This Inner Loop Header: Depth=2
	movl	-12(%rbp), %eax
	cmpl	-52(%rbp), %eax
	jge	.LBB13_28
# %bb.26:                               # %for.body58
                                        #   in Loop: Header=BB13_25 Depth=2
	leaq	-224(%rbp), %rax
	movq	%rax, %rcx
	addq	$64, %rcx
	movslq	-16(%rbp), %rdx
	shlq	$4, %rdx
	addq	%rdx, %rcx
	movslq	-12(%rbp), %rdx
	movl	$0, (%rcx,%rdx,4)
	movslq	-16(%rbp), %rcx
	shlq	$4, %rcx
	addq	%rcx, %rax
	movslq	-12(%rbp), %rcx
	movl	$0, (%rax,%rcx,4)
# %bb.27:                               # %for.inc69
                                        #   in Loop: Header=BB13_25 Depth=2
	movl	-12(%rbp), %eax
	addl	$1, %eax
	movl	%eax, -12(%rbp)
	jmp	.LBB13_25
.LBB13_28:                              # %for.end71
                                        #   in Loop: Header=BB13_23 Depth=1
	jmp	.LBB13_29
.LBB13_29:                              # %for.inc72
                                        #   in Loop: Header=BB13_23 Depth=1
	movl	-16(%rbp), %eax
	addl	$1, %eax
	movl	%eax, -16(%rbp)
	jmp	.LBB13_23
.LBB13_30:                              # %for.end74
	jmp	.LBB13_60
.LBB13_31:                              # %if.else75
	cmpl	$1, -24(%rbp)
	jl	.LBB13_42
# %bb.32:                               # %land.lhs.true77
	cmpl	$7, -24(%rbp)
	jg	.LBB13_42
# %bb.33:                               # %if.then79
	movl	-32(%rbp), %eax
	movl	%eax, -16(%rbp)
.LBB13_34:                              # %for.cond80
                                        # =>This Loop Header: Depth=1
                                        #     Child Loop BB13_36 Depth 2
	movl	-16(%rbp), %eax
	cmpl	-44(%rbp), %eax
	jge	.LBB13_41
# %bb.35:                               # %for.body82
                                        #   in Loop: Header=BB13_34 Depth=1
	movl	-36(%rbp), %eax
	movl	%eax, -12(%rbp)
.LBB13_36:                              # %for.cond83
                                        #   Parent Loop BB13_34 Depth=1
                                        # =>  This Inner Loop Header: Depth=2
	movl	-12(%rbp), %eax
	cmpl	-52(%rbp), %eax
	jge	.LBB13_39
# %bb.37:                               # %for.body85
                                        #   in Loop: Header=BB13_36 Depth=2
	leaq	-224(%rbp), %rax
	movq	img, %rcx
	movq	71928(%rcx), %rcx
	movslq	-12(%rbp), %rdx
	movq	(%rcx,%rdx,8), %rcx
	movslq	-16(%rbp), %rdx
	movq	(%rcx,%rdx,8), %rcx
	movq	(%rcx), %rcx
	movslq	-60(%rbp), %rdx
	movq	(%rcx,%rdx,8), %rcx
	movslq	-24(%rbp), %rdx
	movq	(%rcx,%rdx,8), %rcx
	movswl	(%rcx), %ecx
	movslq	-16(%rbp), %rdx
	shlq	$4, %rdx
	movq	%rax, %rsi
	addq	%rdx, %rsi
	movslq	-12(%rbp), %rdx
	movl	%ecx, (%rsi,%rdx,4)
	movq	img, %rcx
	movq	71928(%rcx), %rcx
	movslq	-12(%rbp), %rdx
	movq	(%rcx,%rdx,8), %rcx
	movslq	-16(%rbp), %rdx
	movq	(%rcx,%rdx,8), %rcx
	movq	(%rcx), %rcx
	movslq	-60(%rbp), %rdx
	movq	(%rcx,%rdx,8), %rcx
	movslq	-24(%rbp), %rdx
	movq	(%rcx,%rdx,8), %rcx
	movswl	2(%rcx), %ecx
	addq	$64, %rax
	movslq	-16(%rbp), %rdx
	shlq	$4, %rdx
	addq	%rdx, %rax
	movslq	-12(%rbp), %rdx
	movl	%ecx, (%rax,%rdx,4)
# %bb.38:                               # %for.inc118
                                        #   in Loop: Header=BB13_36 Depth=2
	movl	-12(%rbp), %eax
	addl	$1, %eax
	movl	%eax, -12(%rbp)
	jmp	.LBB13_36
.LBB13_39:                              # %for.end120
                                        #   in Loop: Header=BB13_34 Depth=1
	jmp	.LBB13_40
.LBB13_40:                              # %for.inc121
                                        #   in Loop: Header=BB13_34 Depth=1
	movl	-16(%rbp), %eax
	addl	$1, %eax
	movl	%eax, -16(%rbp)
	jmp	.LBB13_34
.LBB13_41:                              # %for.end123
	jmp	.LBB13_51
.LBB13_42:                              # %if.else124
	movl	-32(%rbp), %eax
	movl	%eax, -16(%rbp)
.LBB13_43:                              # %for.cond125
                                        # =>This Loop Header: Depth=1
                                        #     Child Loop BB13_45 Depth 2
	movl	-16(%rbp), %eax
	cmpl	-44(%rbp), %eax
	jge	.LBB13_50
# %bb.44:                               # %for.body128
                                        #   in Loop: Header=BB13_43 Depth=1
	movl	-36(%rbp), %eax
	movl	%eax, -12(%rbp)
.LBB13_45:                              # %for.cond129
                                        #   Parent Loop BB13_43 Depth=1
                                        # =>  This Inner Loop Header: Depth=2
	movl	-12(%rbp), %eax
	cmpl	-52(%rbp), %eax
	jge	.LBB13_48
# %bb.46:                               # %for.body132
                                        #   in Loop: Header=BB13_45 Depth=2
	leaq	-224(%rbp), %rax
	movq	%rax, %rcx
	addq	$64, %rcx
	movslq	-16(%rbp), %rdx
	shlq	$4, %rdx
	addq	%rdx, %rcx
	movslq	-12(%rbp), %rdx
	movl	$0, (%rcx,%rdx,4)
	movslq	-16(%rbp), %rcx
	shlq	$4, %rcx
	addq	%rcx, %rax
	movslq	-12(%rbp), %rcx
	movl	$0, (%rax,%rcx,4)
# %bb.47:                               # %for.inc143
                                        #   in Loop: Header=BB13_45 Depth=2
	movl	-12(%rbp), %eax
	addl	$1, %eax
	movl	%eax, -12(%rbp)
	jmp	.LBB13_45
.LBB13_48:                              # %for.end145
                                        #   in Loop: Header=BB13_43 Depth=1
	jmp	.LBB13_49
.LBB13_49:                              # %for.inc146
                                        #   in Loop: Header=BB13_43 Depth=1
	movl	-16(%rbp), %eax
	addl	$1, %eax
	movl	%eax, -16(%rbp)
	jmp	.LBB13_43
.LBB13_50:                              # %for.end148
	jmp	.LBB13_51
.LBB13_51:                              # %if.end
	movl	-20(%rbp), %eax
	movl	%eax, -4(%rbp)
.LBB13_52:                              # %for.cond149
                                        # =>This Loop Header: Depth=1
                                        #     Child Loop BB13_54 Depth 2
	movl	-4(%rbp), %eax
	cmpl	-40(%rbp), %eax
	jge	.LBB13_59
# %bb.53:                               # %for.body152
                                        #   in Loop: Header=BB13_52 Depth=1
	movl	-28(%rbp), %eax
	movl	%eax, -8(%rbp)
.LBB13_54:                              # %for.cond153
                                        #   Parent Loop BB13_52 Depth=1
                                        # =>  This Inner Loop Header: Depth=2
	movl	-8(%rbp), %eax
	cmpl	-48(%rbp), %eax
	jge	.LBB13_57
# %bb.55:                               # %for.body156
                                        #   in Loop: Header=BB13_54 Depth=2
	movq	decs, %rax
	movq	(%rax), %rax
	movslq	-8(%rbp), %rcx
	movq	(%rax,%rcx,8), %rax
	movslq	-4(%rbp), %rcx
	movl	(%rax,%rcx,4), %eax
	movslq	-8(%rbp), %rcx
	shlq	$6, %rcx
	leaq	-1248(%rbp), %rdx
	addq	%rcx, %rdx
	movslq	-4(%rbp), %rcx
	movl	%eax, (%rdx,%rcx,4)
# %bb.56:                               # %for.inc165
                                        #   in Loop: Header=BB13_54 Depth=2
	movl	-8(%rbp), %eax
	addl	$1, %eax
	movl	%eax, -8(%rbp)
	jmp	.LBB13_54
.LBB13_57:                              # %for.end167
                                        #   in Loop: Header=BB13_52 Depth=1
	jmp	.LBB13_58
.LBB13_58:                              # %for.inc168
                                        #   in Loop: Header=BB13_52 Depth=1
	movl	-4(%rbp), %eax
	addl	$1, %eax
	movl	%eax, -4(%rbp)
	jmp	.LBB13_52
.LBB13_59:                              # %for.end170
	jmp	.LBB13_60
.LBB13_60:                              # %if.end171
	cmpl	$1, -24(%rbp)
	jl	.LBB13_62
# %bb.61:                               # %land.lhs.true174
	cmpl	$7, -24(%rbp)
	jle	.LBB13_66
.LBB13_62:                              # %lor.lhs.false177
	cmpl	$0, -80(%rbp)
	jne	.LBB13_86
# %bb.63:                               # %land.lhs.true180
	movq	img, %rax
	cmpl	$0, 24(%rax)
	je	.LBB13_66
# %bb.64:                               # %lor.lhs.false184
	movq	img, %rax
	cmpl	$1, 24(%rax)
	jne	.LBB13_86
# %bb.65:                               # %land.lhs.true188
	movq	img, %rax
	cmpl	$0, 72496(%rax)
	jle	.LBB13_86
.LBB13_66:                              # %if.then192
	movl	-32(%rbp), %eax
	movl	%eax, -16(%rbp)
.LBB13_67:                              # %for.cond193
                                        # =>This Loop Header: Depth=1
                                        #     Child Loop BB13_69 Depth 2
                                        #       Child Loop BB13_74 Depth 3
                                        #         Child Loop BB13_76 Depth 4
	movl	-16(%rbp), %eax
	cmpl	-44(%rbp), %eax
	jge	.LBB13_85
# %bb.68:                               # %for.body196
                                        #   in Loop: Header=BB13_67 Depth=1
	movl	-36(%rbp), %eax
	movl	%eax, -12(%rbp)
.LBB13_69:                              # %for.cond197
                                        #   Parent Loop BB13_67 Depth=1
                                        # =>  This Loop Header: Depth=2
                                        #       Child Loop BB13_74 Depth 3
                                        #         Child Loop BB13_76 Depth 4
	movl	-12(%rbp), %eax
	cmpl	-52(%rbp), %eax
	jge	.LBB13_83
# %bb.70:                               # %for.body200
                                        #   in Loop: Header=BB13_69 Depth=2
	movq	img, %rax
	movl	144(%rax), %eax
	addl	-12(%rbp), %eax
	movl	%eax, -76(%rbp)
	movq	img, %rax
	movl	148(%rax), %eax
	addl	-16(%rbp), %eax
	movl	%eax, -68(%rbp)
	movq	img, %rax
	cmpl	$1, 24(%rax)
	jne	.LBB13_73
# %bb.71:                               # %land.lhs.true208
                                        #   in Loop: Header=BB13_69 Depth=2
	movq	enc_picture, %rax
	cmpq	enc_frame_picture, %rax
	je	.LBB13_73
# %bb.72:                               # %if.then211
                                        #   in Loop: Header=BB13_69 Depth=2
	movq	img, %rax
	movl	(%rax), %eax
	subl	start_frame_no_in_this_IGOP, %eax
	subl	-60(%rbp), %eax
	subl	$2, %eax
	movq	img, %rcx
	cltd
	idivl	32(%rcx)
	movl	%edx, -64(%rbp)
.LBB13_73:                              # %if.end218
                                        #   in Loop: Header=BB13_69 Depth=2
	leaq	-224(%rbp), %r8
	movq	decs, %rcx
	movq	16(%rcx), %rcx
	movslq	-56(%rbp), %rdx
	movq	(%rcx,%rdx,8), %rcx
	movslq	-64(%rbp), %rdx
	movq	(%rcx,%rdx,8), %rdi
	movl	-68(%rbp), %esi
	movl	-76(%rbp), %edx
	movslq	-16(%rbp), %rcx
	shlq	$4, %rcx
	movq	%r8, %rax
	addq	%rcx, %rax
	movslq	-12(%rbp), %rcx
	movl	(%rax,%rcx,4), %ecx
	addq	$64, %r8
	movslq	-16(%rbp), %rax
	shlq	$4, %rax
	addq	%rax, %r8
	movslq	-12(%rbp), %rax
	movl	(%r8,%rax,4), %r8d
	movq	decs, %rax
	movq	32(%rax), %r9
	callq	Get_Reference_Block
	movl	$0, -8(%rbp)
.LBB13_74:                              # %for.cond233
                                        #   Parent Loop BB13_67 Depth=1
                                        #     Parent Loop BB13_69 Depth=2
                                        # =>    This Loop Header: Depth=3
                                        #         Child Loop BB13_76 Depth 4
	cmpl	$4, -8(%rbp)
	jge	.LBB13_81
# %bb.75:                               # %for.body236
                                        #   in Loop: Header=BB13_74 Depth=3
	movl	$0, -4(%rbp)
.LBB13_76:                              # %for.cond237
                                        #   Parent Loop BB13_67 Depth=1
                                        #     Parent Loop BB13_69 Depth=2
                                        #       Parent Loop BB13_74 Depth=3
                                        # =>      This Inner Loop Header: Depth=4
	cmpl	$4, -4(%rbp)
	jge	.LBB13_79
# %bb.77:                               # %for.body240
                                        #   in Loop: Header=BB13_76 Depth=4
	movl	-16(%rbp), %eax
	shll	$2, %eax
	addl	-8(%rbp), %eax
	cltq
	shlq	$6, %rax
	leaq	-1248(%rbp), %rcx
	addq	%rax, %rcx
	movl	-12(%rbp), %eax
	shll	$2, %eax
	addl	-4(%rbp), %eax
	cltq
	movl	(%rcx,%rax,4), %eax
	movq	decs, %rcx
	movq	32(%rcx), %rcx
	movslq	-8(%rbp), %rdx
	movq	(%rcx,%rdx,8), %rcx
	movslq	-4(%rbp), %rdx
	movzwl	(%rcx,%rdx,2), %ecx
	addl	%ecx, %eax
	movq	decs, %rcx
	movq	8(%rcx), %rcx
	movslq	-56(%rbp), %rdx
	movq	(%rcx,%rdx,8), %rcx
	movl	-68(%rbp), %edx
	shll	$2, %edx
	addl	-8(%rbp), %edx
	movslq	%edx, %rdx
	movq	(%rcx,%rdx,8), %rcx
	movl	-76(%rbp), %edx
	shll	$2, %edx
	addl	-4(%rbp), %edx
	movslq	%edx, %rdx
	movw	%ax, (%rcx,%rdx,2)
# %bb.78:                               # %for.inc267
                                        #   in Loop: Header=BB13_76 Depth=4
	movl	-4(%rbp), %eax
	addl	$1, %eax
	movl	%eax, -4(%rbp)
	jmp	.LBB13_76
.LBB13_79:                              # %for.end269
                                        #   in Loop: Header=BB13_74 Depth=3
	jmp	.LBB13_80
.LBB13_80:                              # %for.inc270
                                        #   in Loop: Header=BB13_74 Depth=3
	movl	-8(%rbp), %eax
	addl	$1, %eax
	movl	%eax, -8(%rbp)
	jmp	.LBB13_74
.LBB13_81:                              # %for.end272
                                        #   in Loop: Header=BB13_69 Depth=2
	jmp	.LBB13_82
.LBB13_82:                              # %for.inc273
                                        #   in Loop: Header=BB13_69 Depth=2
	movl	-12(%rbp), %eax
	addl	$1, %eax
	movl	%eax, -12(%rbp)
	jmp	.LBB13_69
.LBB13_83:                              # %for.end275
                                        #   in Loop: Header=BB13_67 Depth=1
	jmp	.LBB13_84
.LBB13_84:                              # %for.inc276
                                        #   in Loop: Header=BB13_67 Depth=1
	movl	-16(%rbp), %eax
	addl	$1, %eax
	movl	%eax, -16(%rbp)
	jmp	.LBB13_67
.LBB13_85:                              # %for.end278
	jmp	.LBB13_95
.LBB13_86:                              # %if.else279
	movl	-20(%rbp), %eax
	movl	%eax, -4(%rbp)
.LBB13_87:                              # %for.cond280
                                        # =>This Loop Header: Depth=1
                                        #     Child Loop BB13_89 Depth 2
	movl	-4(%rbp), %eax
	cmpl	-40(%rbp), %eax
	jge	.LBB13_94
# %bb.88:                               # %for.body283
                                        #   in Loop: Header=BB13_87 Depth=1
	movl	-28(%rbp), %eax
	movl	%eax, -8(%rbp)
.LBB13_89:                              # %for.cond284
                                        #   Parent Loop BB13_87 Depth=1
                                        # =>  This Inner Loop Header: Depth=2
	movl	-8(%rbp), %eax
	cmpl	-48(%rbp), %eax
	jge	.LBB13_92
# %bb.90:                               # %for.body287
                                        #   in Loop: Header=BB13_89 Depth=2
	movq	enc_picture, %rax
	movq	6424(%rax), %rax
	movq	img, %rcx
	movl	156(%rcx), %ecx
	addl	-8(%rbp), %ecx
	movslq	%ecx, %rcx
	movq	(%rax,%rcx,8), %rax
	movq	img, %rcx
	movl	152(%rcx), %ecx
	addl	-4(%rbp), %ecx
	movslq	%ecx, %rcx
	movw	(%rax,%rcx,2), %ax
	movq	decs, %rcx
	movq	8(%rcx), %rcx
	movslq	-56(%rbp), %rdx
	movq	(%rcx,%rdx,8), %rcx
	movq	img, %rdx
	movl	156(%rdx), %edx
	addl	-8(%rbp), %edx
	movslq	%edx, %rdx
	movq	(%rcx,%rdx,8), %rcx
	movq	img, %rdx
	movl	152(%rdx), %edx
	addl	-4(%rbp), %edx
	movslq	%edx, %rdx
	movw	%ax, (%rcx,%rdx,2)
# %bb.91:                               # %for.inc308
                                        #   in Loop: Header=BB13_89 Depth=2
	movl	-8(%rbp), %eax
	addl	$1, %eax
	movl	%eax, -8(%rbp)
	jmp	.LBB13_89
.LBB13_92:                              # %for.end310
                                        #   in Loop: Header=BB13_87 Depth=1
	jmp	.LBB13_93
.LBB13_93:                              # %for.inc311
                                        #   in Loop: Header=BB13_87 Depth=1
	movl	-4(%rbp), %eax
	addl	$1, %eax
	movl	%eax, -4(%rbp)
	jmp	.LBB13_87
.LBB13_94:                              # %for.end313
	jmp	.LBB13_95
.LBB13_95:                              # %if.end314
	jmp	.LBB13_96
.LBB13_96:                              # %if.end315
	cmpl	$1269314114, -84(%rbp)  # imm = 0x4BA83242
	jne	.LBB13_98
.LBB13_97:
	addq	$1248, %rsp             # imm = 0x4E0
	popq	%rbp
	.cfi_def_cfa %rsp, 8
	retq
.LBB13_98:                              # %func_exit
	.cfi_def_cfa %rbp, 16
	callq	detect_breach
	jmp	.LBB13_97
.Lfunc_end13:
	.size	decode_one_b8block.3, .Lfunc_end13-decode_one_b8block.3
	.cfi_endproc
                                        # -- End function
	.globl	Get_Reference_Block.4   # -- Begin function Get_Reference_Block.4
	.p2align	4, 0x90
	.type	Get_Reference_Block.4,@function
Get_Reference_Block.4:                  # @Get_Reference_Block.4
	.cfi_startproc
# %bb.0:                                # %entry
	pushq	%rbp
	.cfi_def_cfa_offset 16
	.cfi_offset %rbp, -16
	movq	%rsp, %rbp
	.cfi_def_cfa_register %rbp
	subq	$64, %rsp
	movl	$1928530774, -32(%rbp)  # imm = 0x72F30B56
	movq	%rdi, -48(%rbp)
	movl	%esi, -20(%rbp)
	movl	%edx, -12(%rbp)
	movl	%ecx, -16(%rbp)
	movl	%r8d, -36(%rbp)
	movq	%r9, -56(%rbp)
	movl	-20(%rbp), %eax
	shll	$2, %eax
	shll	$2, %eax
	addl	-36(%rbp), %eax
	movl	%eax, -24(%rbp)
	movl	-12(%rbp), %eax
	shll	$2, %eax
	shll	$2, %eax
	addl	-16(%rbp), %eax
	movl	%eax, -28(%rbp)
	movl	$0, -4(%rbp)
.LBB14_1:                               # %for.cond
                                        # =>This Loop Header: Depth=1
                                        #     Child Loop BB14_3 Depth 2
	cmpl	$4, -4(%rbp)
	jge	.LBB14_8
# %bb.2:                                # %for.body
                                        #   in Loop: Header=BB14_1 Depth=1
	movl	$0, -8(%rbp)
.LBB14_3:                               # %for.cond5
                                        #   Parent Loop BB14_1 Depth=1
                                        # =>  This Inner Loop Header: Depth=2
	cmpl	$4, -8(%rbp)
	jge	.LBB14_6
# %bb.4:                                # %for.body7
                                        #   in Loop: Header=BB14_3 Depth=2
	movq	-48(%rbp), %rdi
	movl	-24(%rbp), %esi
	movl	-4(%rbp), %eax
	shll	$2, %eax
	addl	%eax, %esi
	movl	-28(%rbp), %edx
	movl	-8(%rbp), %eax
	shll	$2, %eax
	addl	%eax, %edx
	callq	Get_Reference_Pixel
	movzbl	%al, %eax
	movq	-56(%rbp), %rcx
	movslq	-4(%rbp), %rdx
	movq	(%rcx,%rdx,8), %rcx
	movslq	-8(%rbp), %rdx
	movw	%ax, (%rcx,%rdx,2)
# %bb.5:                                # %for.inc
                                        #   in Loop: Header=BB14_3 Depth=2
	movl	-8(%rbp), %eax
	addl	$1, %eax
	movl	%eax, -8(%rbp)
	jmp	.LBB14_3
.LBB14_6:                               # %for.end
                                        #   in Loop: Header=BB14_1 Depth=1
	jmp	.LBB14_7
.LBB14_7:                               # %for.inc14
                                        #   in Loop: Header=BB14_1 Depth=1
	movl	-4(%rbp), %eax
	addl	$1, %eax
	movl	%eax, -4(%rbp)
	jmp	.LBB14_1
.LBB14_8:                               # %for.end16
	cmpl	$1928530774, -32(%rbp)  # imm = 0x72F30B56
	jne	.LBB14_10
.LBB14_9:
	addq	$64, %rsp
	popq	%rbp
	.cfi_def_cfa %rsp, 8
	retq
.LBB14_10:                              # %func_exit
	.cfi_def_cfa %rbp, 16
	callq	detect_breach
	jmp	.LBB14_9
.Lfunc_end14:
	.size	Get_Reference_Block.4, .Lfunc_end14-Get_Reference_Block.4
	.cfi_endproc
                                        # -- End function
	.globl	Error_Concealment.5     # -- Begin function Error_Concealment.5
	.p2align	4, 0x90
	.type	Error_Concealment.5,@function
Error_Concealment.5:                    # @Error_Concealment.5
	.cfi_startproc
# %bb.0:                                # %entry
	pushq	%rbp
	.cfi_def_cfa_offset 16
	.cfi_offset %rbp, -16
	movq	%rsp, %rbp
	.cfi_def_cfa_register %rbp
	subq	$48, %rsp
	movl	$1879566475, -20(%rbp)  # imm = 0x7007E88B
	movq	%rdi, -40(%rbp)
	movq	%rsi, -32(%rbp)
	movq	%rdx, -48(%rbp)
	movq	img, %rax
	movl	60(%rax), %eax
	cltd
	movl	$16, %ecx
	idivl	%ecx
	movl	%eax, -16(%rbp)
	movq	img, %rax
	movl	52(%rax), %eax
	cltd
	idivl	%ecx
	movl	%eax, -12(%rbp)
	movl	$0, -4(%rbp)
.LBB15_1:                               # %for.cond
                                        # =>This Loop Header: Depth=1
                                        #     Child Loop BB15_3 Depth 2
	movl	-4(%rbp), %eax
	cmpl	-16(%rbp), %eax
	jge	.LBB15_10
# %bb.2:                                # %for.body
                                        #   in Loop: Header=BB15_1 Depth=1
	movl	$0, -8(%rbp)
.LBB15_3:                               # %for.cond2
                                        #   Parent Loop BB15_1 Depth=1
                                        # =>  This Inner Loop Header: Depth=2
	movl	-8(%rbp), %eax
	cmpl	-12(%rbp), %eax
	jge	.LBB15_8
# %bb.4:                                # %for.body4
                                        #   in Loop: Header=BB15_3 Depth=2
	movq	-32(%rbp), %rax
	movslq	-4(%rbp), %rcx
	movq	(%rax,%rcx,8), %rax
	movslq	-8(%rbp), %rcx
	cmpb	$0, (%rax,%rcx)
	je	.LBB15_6
# %bb.5:                                # %if.then
                                        #   in Loop: Header=BB15_3 Depth=2
	movq	-40(%rbp), %rdi
	movl	-4(%rbp), %esi
	movl	-8(%rbp), %edx
	movq	-48(%rbp), %rcx
	movq	-32(%rbp), %r8
	callq	Conceal_Error
.LBB15_6:                               # %if.end
                                        #   in Loop: Header=BB15_3 Depth=2
	jmp	.LBB15_7
.LBB15_7:                               # %for.inc
                                        #   in Loop: Header=BB15_3 Depth=2
	movl	-8(%rbp), %eax
	addl	$1, %eax
	movl	%eax, -8(%rbp)
	jmp	.LBB15_3
.LBB15_8:                               # %for.end
                                        #   in Loop: Header=BB15_1 Depth=1
	jmp	.LBB15_9
.LBB15_9:                               # %for.inc7
                                        #   in Loop: Header=BB15_1 Depth=1
	movl	-4(%rbp), %eax
	addl	$1, %eax
	movl	%eax, -4(%rbp)
	jmp	.LBB15_1
.LBB15_10:                              # %for.end9
	cmpl	$1879566475, -20(%rbp)  # imm = 0x7007E88B
	jne	.LBB15_12
.LBB15_11:
	addq	$48, %rsp
	popq	%rbp
	.cfi_def_cfa %rsp, 8
	retq
.LBB15_12:                              # %func_exit
	.cfi_def_cfa %rbp, 16
	callq	detect_breach
	jmp	.LBB15_11
.Lfunc_end15:
	.size	Error_Concealment.5, .Lfunc_end15-Error_Concealment.5
	.cfi_endproc
                                        # -- End function
	.globl	DecOneForthPix.6        # -- Begin function DecOneForthPix.6
	.p2align	4, 0x90
	.type	DecOneForthPix.6,@function
DecOneForthPix.6:                       # @DecOneForthPix.6
	.cfi_startproc
# %bb.0:                                # %entry
	pushq	%rbp
	.cfi_def_cfa_offset 16
	.cfi_offset %rbp, -16
	movq	%rsp, %rbp
	.cfi_def_cfa_register %rbp
	subq	$32, %rsp
	movl	$678512510, -12(%rbp)   # imm = 0x2871477E
	movq	%rdi, -32(%rbp)
	movq	%rsi, -24(%rbp)
	movq	img, %rax
	movl	(%rax), %eax
	subl	start_frame_no_in_this_IGOP, %eax
	movq	img, %rcx
	cltd
	idivl	72376(%rcx)
	movl	%edx, -8(%rbp)
	movl	$0, -4(%rbp)
.LBB16_1:                               # %for.cond
                                        # =>This Inner Loop Header: Depth=1
	movl	-4(%rbp), %eax
	movq	img, %rcx
	cmpl	60(%rcx), %eax
	jge	.LBB16_4
# %bb.2:                                # %for.body
                                        #   in Loop: Header=BB16_1 Depth=1
	movq	-24(%rbp), %rax
	movslq	-8(%rbp), %rcx
	movq	(%rax,%rcx,8), %rax
	movslq	-4(%rbp), %rcx
	movq	(%rax,%rcx,8), %rdi
	movq	-32(%rbp), %rax
	movslq	-4(%rbp), %rcx
	movq	(%rax,%rcx,8), %rsi
	movq	img, %rax
	movslq	52(%rax), %rdx
	shlq	$1, %rdx
	callq	memcpy
# %bb.3:                                # %for.inc
                                        #   in Loop: Header=BB16_1 Depth=1
	movl	-4(%rbp), %eax
	addl	$1, %eax
	movl	%eax, -4(%rbp)
	jmp	.LBB16_1
.LBB16_4:                               # %for.end
	cmpl	$678512510, -12(%rbp)   # imm = 0x2871477E
	jne	.LBB16_6
.LBB16_5:
	addq	$32, %rsp
	popq	%rbp
	.cfi_def_cfa %rsp, 8
	retq
.LBB16_6:                               # %func_exit
	.cfi_def_cfa %rbp, 16
	callq	detect_breach
	jmp	.LBB16_5
.Lfunc_end16:
	.size	DecOneForthPix.6, .Lfunc_end16-DecOneForthPix.6
	.cfi_endproc
                                        # -- End function
	.globl	DecOneForthPix.7        # -- Begin function DecOneForthPix.7
	.p2align	4, 0x90
	.type	DecOneForthPix.7,@function
DecOneForthPix.7:                       # @DecOneForthPix.7
	.cfi_startproc
# %bb.0:                                # %entry
	pushq	%rbp
	.cfi_def_cfa_offset 16
	.cfi_offset %rbp, -16
	movq	%rsp, %rbp
	.cfi_def_cfa_register %rbp
	subq	$32, %rsp
	movl	$1467882678, -8(%rbp)   # imm = 0x577E1CB6
	movq	%rdi, -32(%rbp)
	movq	%rsi, -24(%rbp)
	movq	img, %rax
	movl	(%rax), %eax
	subl	start_frame_no_in_this_IGOP, %eax
	movq	img, %rcx
	cltd
	idivl	72376(%rcx)
	movl	%edx, -12(%rbp)
	movl	$0, -4(%rbp)
.LBB17_1:                               # %for.cond
                                        # =>This Inner Loop Header: Depth=1
	movl	-4(%rbp), %eax
	movq	img, %rcx
	cmpl	60(%rcx), %eax
	jge	.LBB17_4
# %bb.2:                                # %for.body
                                        #   in Loop: Header=BB17_1 Depth=1
	movq	-24(%rbp), %rax
	movslq	-12(%rbp), %rcx
	movq	(%rax,%rcx,8), %rax
	movslq	-4(%rbp), %rcx
	movq	(%rax,%rcx,8), %rdi
	movq	-32(%rbp), %rax
	movslq	-4(%rbp), %rcx
	movq	(%rax,%rcx,8), %rsi
	movq	img, %rax
	movslq	52(%rax), %rdx
	shlq	$1, %rdx
	callq	memcpy
# %bb.3:                                # %for.inc
                                        #   in Loop: Header=BB17_1 Depth=1
	movl	-4(%rbp), %eax
	addl	$1, %eax
	movl	%eax, -4(%rbp)
	jmp	.LBB17_1
.LBB17_4:                               # %for.end
	cmpl	$1467882678, -8(%rbp)   # imm = 0x577E1CB6
	jne	.LBB17_6
.LBB17_5:
	addq	$32, %rsp
	popq	%rbp
	.cfi_def_cfa %rsp, 8
	retq
.LBB17_6:                               # %func_exit
	.cfi_def_cfa %rbp, 16
	callq	detect_breach
	jmp	.LBB17_5
.Lfunc_end17:
	.size	DecOneForthPix.7, .Lfunc_end17-DecOneForthPix.7
	.cfi_endproc
                                        # -- End function
	.globl	Get_Reference_Block.8   # -- Begin function Get_Reference_Block.8
	.p2align	4, 0x90
	.type	Get_Reference_Block.8,@function
Get_Reference_Block.8:                  # @Get_Reference_Block.8
	.cfi_startproc
# %bb.0:                                # %entry
	pushq	%rbp
	.cfi_def_cfa_offset 16
	.cfi_offset %rbp, -16
	movq	%rsp, %rbp
	.cfi_def_cfa_register %rbp
	subq	$64, %rsp
	movl	$1769290663, -28(%rbp)  # imm = 0x69753BA7
	movq	%rdi, -56(%rbp)
	movl	%esi, -20(%rbp)
	movl	%edx, -24(%rbp)
	movl	%ecx, -32(%rbp)
	movl	%r8d, -36(%rbp)
	movq	%r9, -48(%rbp)
	movl	-20(%rbp), %eax
	shll	$2, %eax
	shll	$2, %eax
	addl	-36(%rbp), %eax
	movl	%eax, -16(%rbp)
	movl	-24(%rbp), %eax
	shll	$2, %eax
	shll	$2, %eax
	addl	-32(%rbp), %eax
	movl	%eax, -12(%rbp)
	movl	$0, -8(%rbp)
.LBB18_1:                               # %for.cond
                                        # =>This Loop Header: Depth=1
                                        #     Child Loop BB18_3 Depth 2
	cmpl	$4, -8(%rbp)
	jge	.LBB18_8
# %bb.2:                                # %for.body
                                        #   in Loop: Header=BB18_1 Depth=1
	movl	$0, -4(%rbp)
.LBB18_3:                               # %for.cond5
                                        #   Parent Loop BB18_1 Depth=1
                                        # =>  This Inner Loop Header: Depth=2
	cmpl	$4, -4(%rbp)
	jge	.LBB18_6
# %bb.4:                                # %for.body7
                                        #   in Loop: Header=BB18_3 Depth=2
	movq	-56(%rbp), %rdi
	movl	-16(%rbp), %esi
	movl	-8(%rbp), %eax
	shll	$2, %eax
	addl	%eax, %esi
	movl	-12(%rbp), %edx
	movl	-4(%rbp), %eax
	shll	$2, %eax
	addl	%eax, %edx
	callq	Get_Reference_Pixel
	movzbl	%al, %eax
	movq	-48(%rbp), %rcx
	movslq	-8(%rbp), %rdx
	movq	(%rcx,%rdx,8), %rcx
	movslq	-4(%rbp), %rdx
	movw	%ax, (%rcx,%rdx,2)
# %bb.5:                                # %for.inc
                                        #   in Loop: Header=BB18_3 Depth=2
	movl	-4(%rbp), %eax
	addl	$1, %eax
	movl	%eax, -4(%rbp)
	jmp	.LBB18_3
.LBB18_6:                               # %for.end
                                        #   in Loop: Header=BB18_1 Depth=1
	jmp	.LBB18_7
.LBB18_7:                               # %for.inc14
                                        #   in Loop: Header=BB18_1 Depth=1
	movl	-8(%rbp), %eax
	addl	$1, %eax
	movl	%eax, -8(%rbp)
	jmp	.LBB18_1
.LBB18_8:                               # %for.end16
	cmpl	$1769290663, -28(%rbp)  # imm = 0x69753BA7
	jne	.LBB18_10
.LBB18_9:
	addq	$64, %rsp
	popq	%rbp
	.cfi_def_cfa %rsp, 8
	retq
.LBB18_10:                              # %func_exit
	.cfi_def_cfa %rbp, 16
	callq	detect_breach
	jmp	.LBB18_9
.Lfunc_end18:
	.size	Get_Reference_Block.8, .Lfunc_end18-Get_Reference_Block.8
	.cfi_endproc
                                        # -- End function
	.globl	Error_Concealment.9     # -- Begin function Error_Concealment.9
	.p2align	4, 0x90
	.type	Error_Concealment.9,@function
Error_Concealment.9:                    # @Error_Concealment.9
	.cfi_startproc
# %bb.0:                                # %entry
	pushq	%rbp
	.cfi_def_cfa_offset 16
	.cfi_offset %rbp, -16
	movq	%rsp, %rbp
	.cfi_def_cfa_register %rbp
	subq	$48, %rsp
	movl	$1107648469, -20(%rbp)  # imm = 0x42055FD5
	movq	%rdi, -40(%rbp)
	movq	%rsi, -32(%rbp)
	movq	%rdx, -48(%rbp)
	movq	img, %rax
	movl	60(%rax), %eax
	cltd
	movl	$16, %ecx
	idivl	%ecx
	movl	%eax, -16(%rbp)
	movq	img, %rax
	movl	52(%rax), %eax
	cltd
	idivl	%ecx
	movl	%eax, -12(%rbp)
	movl	$0, -8(%rbp)
.LBB19_1:                               # %for.cond
                                        # =>This Loop Header: Depth=1
                                        #     Child Loop BB19_3 Depth 2
	movl	-8(%rbp), %eax
	cmpl	-16(%rbp), %eax
	jge	.LBB19_10
# %bb.2:                                # %for.body
                                        #   in Loop: Header=BB19_1 Depth=1
	movl	$0, -4(%rbp)
.LBB19_3:                               # %for.cond2
                                        #   Parent Loop BB19_1 Depth=1
                                        # =>  This Inner Loop Header: Depth=2
	movl	-4(%rbp), %eax
	cmpl	-12(%rbp), %eax
	jge	.LBB19_8
# %bb.4:                                # %for.body4
                                        #   in Loop: Header=BB19_3 Depth=2
	movq	-32(%rbp), %rax
	movslq	-8(%rbp), %rcx
	movq	(%rax,%rcx,8), %rax
	movslq	-4(%rbp), %rcx
	cmpb	$0, (%rax,%rcx)
	je	.LBB19_6
# %bb.5:                                # %if.then
                                        #   in Loop: Header=BB19_3 Depth=2
	movq	-40(%rbp), %rdi
	movl	-8(%rbp), %esi
	movl	-4(%rbp), %edx
	movq	-48(%rbp), %rcx
	movq	-32(%rbp), %r8
	callq	Conceal_Error
.LBB19_6:                               # %if.end
                                        #   in Loop: Header=BB19_3 Depth=2
	jmp	.LBB19_7
.LBB19_7:                               # %for.inc
                                        #   in Loop: Header=BB19_3 Depth=2
	movl	-4(%rbp), %eax
	addl	$1, %eax
	movl	%eax, -4(%rbp)
	jmp	.LBB19_3
.LBB19_8:                               # %for.end
                                        #   in Loop: Header=BB19_1 Depth=1
	jmp	.LBB19_9
.LBB19_9:                               # %for.inc7
                                        #   in Loop: Header=BB19_1 Depth=1
	movl	-8(%rbp), %eax
	addl	$1, %eax
	movl	%eax, -8(%rbp)
	jmp	.LBB19_1
.LBB19_10:                              # %for.end9
	cmpl	$1107648469, -20(%rbp)  # imm = 0x42055FD5
	jne	.LBB19_12
.LBB19_11:
	addq	$48, %rsp
	popq	%rbp
	.cfi_def_cfa %rsp, 8
	retq
.LBB19_12:                              # %func_exit
	.cfi_def_cfa %rbp, 16
	callq	detect_breach
	jmp	.LBB19_11
.Lfunc_end19:
	.size	Error_Concealment.9, .Lfunc_end19-Error_Concealment.9
	.cfi_endproc
                                        # -- End function
	.globl	decode_one_b8block.10   # -- Begin function decode_one_b8block.10
	.p2align	4, 0x90
	.type	decode_one_b8block.10,@function
decode_one_b8block.10:                  # @decode_one_b8block.10
	.cfi_startproc
# %bb.0:                                # %entry
	pushq	%rbp
	.cfi_def_cfa_offset 16
	.cfi_offset %rbp, -16
	movq	%rsp, %rbp
	.cfi_def_cfa_register %rbp
	subq	$1248, %rsp             # imm = 0x4E0
	movl	$782782865, -84(%rbp)   # imm = 0x2EA85191
	movl	%edi, -56(%rbp)
	movl	%esi, -72(%rbp)
	movl	%edx, -80(%rbp)
	movl	%ecx, -28(%rbp)
	movl	%r8d, -60(%rbp)
	movq	img, %rax
	movl	(%rax), %eax
	subl	start_frame_no_in_this_IGOP, %eax
	subl	$1, %eax
	movq	img, %rcx
	cltd
	idivl	32(%rcx)
	movl	%edx, -68(%rbp)
	movl	-80(%rbp), %eax
	cltd
	movl	$2, %ecx
	idivl	%ecx
	shll	$3, %edx
	movl	%edx, -24(%rbp)
	movl	-24(%rbp), %eax
	addl	$8, %eax
	movl	%eax, -52(%rbp)
	movl	-24(%rbp), %eax
	sarl	$2, %eax
	movl	%eax, -32(%rbp)
	movl	-32(%rbp), %eax
	addl	$2, %eax
	movl	%eax, -48(%rbp)
	movl	-80(%rbp), %eax
	cltd
	idivl	%ecx
	shll	$3, %eax
	movl	%eax, -20(%rbp)
	movl	-20(%rbp), %eax
	addl	$8, %eax
	movl	%eax, -40(%rbp)
	movl	-20(%rbp), %eax
	sarl	$2, %eax
	movl	%eax, -36(%rbp)
	movl	-36(%rbp), %eax
	addl	$2, %eax
	movl	%eax, -44(%rbp)
	movq	img, %rax
	cmpl	$2, 24(%rax)
	jne	.LBB20_10
# %bb.1:                                # %if.then
	movl	-24(%rbp), %eax
	movl	%eax, -8(%rbp)
.LBB20_2:                               # %for.cond
                                        # =>This Loop Header: Depth=1
                                        #     Child Loop BB20_4 Depth 2
	movl	-8(%rbp), %eax
	cmpl	-52(%rbp), %eax
	jge	.LBB20_9
# %bb.3:                                # %for.body
                                        #   in Loop: Header=BB20_2 Depth=1
	movl	-20(%rbp), %eax
	movl	%eax, -4(%rbp)
.LBB20_4:                               # %for.cond9
                                        #   Parent Loop BB20_2 Depth=1
                                        # =>  This Inner Loop Header: Depth=2
	movl	-4(%rbp), %eax
	cmpl	-40(%rbp), %eax
	jge	.LBB20_7
# %bb.5:                                # %for.body11
                                        #   in Loop: Header=BB20_4 Depth=2
	movq	enc_picture, %rax
	movq	6424(%rax), %rax
	movq	img, %rcx
	movl	156(%rcx), %ecx
	addl	-4(%rbp), %ecx
	movslq	%ecx, %rcx
	movq	(%rax,%rcx,8), %rax
	movq	img, %rcx
	movl	152(%rcx), %ecx
	addl	-8(%rbp), %ecx
	movslq	%ecx, %rcx
	movw	(%rax,%rcx,2), %ax
	movq	decs, %rcx
	movq	8(%rcx), %rcx
	movslq	-56(%rbp), %rdx
	movq	(%rcx,%rdx,8), %rcx
	movq	img, %rdx
	movl	156(%rdx), %edx
	addl	-4(%rbp), %edx
	movslq	%edx, %rdx
	movq	(%rcx,%rdx,8), %rcx
	movq	img, %rdx
	movl	152(%rdx), %edx
	addl	-8(%rbp), %edx
	movslq	%edx, %rdx
	movw	%ax, (%rcx,%rdx,2)
# %bb.6:                                # %for.inc
                                        #   in Loop: Header=BB20_4 Depth=2
	movl	-4(%rbp), %eax
	addl	$1, %eax
	movl	%eax, -4(%rbp)
	jmp	.LBB20_4
.LBB20_7:                               # %for.end
                                        #   in Loop: Header=BB20_2 Depth=1
	jmp	.LBB20_8
.LBB20_8:                               # %for.inc26
                                        #   in Loop: Header=BB20_2 Depth=1
	movl	-8(%rbp), %eax
	addl	$1, %eax
	movl	%eax, -8(%rbp)
	jmp	.LBB20_2
.LBB20_9:                               # %for.end28
	jmp	.LBB20_96
.LBB20_10:                              # %if.else
	cmpl	$0, -72(%rbp)
	jne	.LBB20_31
# %bb.11:                               # %land.lhs.true
	movq	img, %rax
	cmpl	$0, 24(%rax)
	je	.LBB20_14
# %bb.12:                               # %lor.lhs.false
	movq	img, %rax
	cmpl	$1, 24(%rax)
	jne	.LBB20_31
# %bb.13:                               # %land.lhs.true34
	movq	img, %rax
	cmpl	$0, 72496(%rax)
	jle	.LBB20_31
.LBB20_14:                              # %if.then36
	movl	-24(%rbp), %eax
	movl	%eax, -8(%rbp)
.LBB20_15:                              # %for.cond37
                                        # =>This Loop Header: Depth=1
                                        #     Child Loop BB20_17 Depth 2
	movl	-8(%rbp), %eax
	cmpl	-52(%rbp), %eax
	jge	.LBB20_22
# %bb.16:                               # %for.body39
                                        #   in Loop: Header=BB20_15 Depth=1
	movl	-20(%rbp), %eax
	movl	%eax, -4(%rbp)
.LBB20_17:                              # %for.cond40
                                        #   Parent Loop BB20_15 Depth=1
                                        # =>  This Inner Loop Header: Depth=2
	movl	-4(%rbp), %eax
	cmpl	-40(%rbp), %eax
	jge	.LBB20_20
# %bb.18:                               # %for.body42
                                        #   in Loop: Header=BB20_17 Depth=2
	movslq	-4(%rbp), %rax
	shlq	$6, %rax
	leaq	-1248(%rbp), %rcx
	addq	%rax, %rcx
	movslq	-8(%rbp), %rax
	movl	$0, (%rcx,%rax,4)
# %bb.19:                               # %for.inc47
                                        #   in Loop: Header=BB20_17 Depth=2
	movl	-4(%rbp), %eax
	addl	$1, %eax
	movl	%eax, -4(%rbp)
	jmp	.LBB20_17
.LBB20_20:                              # %for.end49
                                        #   in Loop: Header=BB20_15 Depth=1
	jmp	.LBB20_21
.LBB20_21:                              # %for.inc50
                                        #   in Loop: Header=BB20_15 Depth=1
	movl	-8(%rbp), %eax
	addl	$1, %eax
	movl	%eax, -8(%rbp)
	jmp	.LBB20_15
.LBB20_22:                              # %for.end52
	movl	-36(%rbp), %eax
	movl	%eax, -16(%rbp)
.LBB20_23:                              # %for.cond53
                                        # =>This Loop Header: Depth=1
                                        #     Child Loop BB20_25 Depth 2
	movl	-16(%rbp), %eax
	cmpl	-44(%rbp), %eax
	jge	.LBB20_30
# %bb.24:                               # %for.body55
                                        #   in Loop: Header=BB20_23 Depth=1
	movl	-32(%rbp), %eax
	movl	%eax, -12(%rbp)
.LBB20_25:                              # %for.cond56
                                        #   Parent Loop BB20_23 Depth=1
                                        # =>  This Inner Loop Header: Depth=2
	movl	-12(%rbp), %eax
	cmpl	-48(%rbp), %eax
	jge	.LBB20_28
# %bb.26:                               # %for.body58
                                        #   in Loop: Header=BB20_25 Depth=2
	leaq	-224(%rbp), %rax
	movq	%rax, %rcx
	addq	$64, %rcx
	movslq	-16(%rbp), %rdx
	shlq	$4, %rdx
	addq	%rdx, %rcx
	movslq	-12(%rbp), %rdx
	movl	$0, (%rcx,%rdx,4)
	movslq	-16(%rbp), %rcx
	shlq	$4, %rcx
	addq	%rcx, %rax
	movslq	-12(%rbp), %rcx
	movl	$0, (%rax,%rcx,4)
# %bb.27:                               # %for.inc69
                                        #   in Loop: Header=BB20_25 Depth=2
	movl	-12(%rbp), %eax
	addl	$1, %eax
	movl	%eax, -12(%rbp)
	jmp	.LBB20_25
.LBB20_28:                              # %for.end71
                                        #   in Loop: Header=BB20_23 Depth=1
	jmp	.LBB20_29
.LBB20_29:                              # %for.inc72
                                        #   in Loop: Header=BB20_23 Depth=1
	movl	-16(%rbp), %eax
	addl	$1, %eax
	movl	%eax, -16(%rbp)
	jmp	.LBB20_23
.LBB20_30:                              # %for.end74
	jmp	.LBB20_60
.LBB20_31:                              # %if.else75
	cmpl	$1, -28(%rbp)
	jl	.LBB20_42
# %bb.32:                               # %land.lhs.true77
	cmpl	$7, -28(%rbp)
	jg	.LBB20_42
# %bb.33:                               # %if.then79
	movl	-36(%rbp), %eax
	movl	%eax, -16(%rbp)
.LBB20_34:                              # %for.cond80
                                        # =>This Loop Header: Depth=1
                                        #     Child Loop BB20_36 Depth 2
	movl	-16(%rbp), %eax
	cmpl	-44(%rbp), %eax
	jge	.LBB20_41
# %bb.35:                               # %for.body82
                                        #   in Loop: Header=BB20_34 Depth=1
	movl	-32(%rbp), %eax
	movl	%eax, -12(%rbp)
.LBB20_36:                              # %for.cond83
                                        #   Parent Loop BB20_34 Depth=1
                                        # =>  This Inner Loop Header: Depth=2
	movl	-12(%rbp), %eax
	cmpl	-48(%rbp), %eax
	jge	.LBB20_39
# %bb.37:                               # %for.body85
                                        #   in Loop: Header=BB20_36 Depth=2
	leaq	-224(%rbp), %rax
	movq	img, %rcx
	movq	71928(%rcx), %rcx
	movslq	-12(%rbp), %rdx
	movq	(%rcx,%rdx,8), %rcx
	movslq	-16(%rbp), %rdx
	movq	(%rcx,%rdx,8), %rcx
	movq	(%rcx), %rcx
	movslq	-60(%rbp), %rdx
	movq	(%rcx,%rdx,8), %rcx
	movslq	-28(%rbp), %rdx
	movq	(%rcx,%rdx,8), %rcx
	movswl	(%rcx), %ecx
	movslq	-16(%rbp), %rdx
	shlq	$4, %rdx
	movq	%rax, %rsi
	addq	%rdx, %rsi
	movslq	-12(%rbp), %rdx
	movl	%ecx, (%rsi,%rdx,4)
	movq	img, %rcx
	movq	71928(%rcx), %rcx
	movslq	-12(%rbp), %rdx
	movq	(%rcx,%rdx,8), %rcx
	movslq	-16(%rbp), %rdx
	movq	(%rcx,%rdx,8), %rcx
	movq	(%rcx), %rcx
	movslq	-60(%rbp), %rdx
	movq	(%rcx,%rdx,8), %rcx
	movslq	-28(%rbp), %rdx
	movq	(%rcx,%rdx,8), %rcx
	movswl	2(%rcx), %ecx
	addq	$64, %rax
	movslq	-16(%rbp), %rdx
	shlq	$4, %rdx
	addq	%rdx, %rax
	movslq	-12(%rbp), %rdx
	movl	%ecx, (%rax,%rdx,4)
# %bb.38:                               # %for.inc118
                                        #   in Loop: Header=BB20_36 Depth=2
	movl	-12(%rbp), %eax
	addl	$1, %eax
	movl	%eax, -12(%rbp)
	jmp	.LBB20_36
.LBB20_39:                              # %for.end120
                                        #   in Loop: Header=BB20_34 Depth=1
	jmp	.LBB20_40
.LBB20_40:                              # %for.inc121
                                        #   in Loop: Header=BB20_34 Depth=1
	movl	-16(%rbp), %eax
	addl	$1, %eax
	movl	%eax, -16(%rbp)
	jmp	.LBB20_34
.LBB20_41:                              # %for.end123
	jmp	.LBB20_51
.LBB20_42:                              # %if.else124
	movl	-36(%rbp), %eax
	movl	%eax, -16(%rbp)
.LBB20_43:                              # %for.cond125
                                        # =>This Loop Header: Depth=1
                                        #     Child Loop BB20_45 Depth 2
	movl	-16(%rbp), %eax
	cmpl	-44(%rbp), %eax
	jge	.LBB20_50
# %bb.44:                               # %for.body128
                                        #   in Loop: Header=BB20_43 Depth=1
	movl	-32(%rbp), %eax
	movl	%eax, -12(%rbp)
.LBB20_45:                              # %for.cond129
                                        #   Parent Loop BB20_43 Depth=1
                                        # =>  This Inner Loop Header: Depth=2
	movl	-12(%rbp), %eax
	cmpl	-48(%rbp), %eax
	jge	.LBB20_48
# %bb.46:                               # %for.body132
                                        #   in Loop: Header=BB20_45 Depth=2
	leaq	-224(%rbp), %rax
	movq	%rax, %rcx
	addq	$64, %rcx
	movslq	-16(%rbp), %rdx
	shlq	$4, %rdx
	addq	%rdx, %rcx
	movslq	-12(%rbp), %rdx
	movl	$0, (%rcx,%rdx,4)
	movslq	-16(%rbp), %rcx
	shlq	$4, %rcx
	addq	%rcx, %rax
	movslq	-12(%rbp), %rcx
	movl	$0, (%rax,%rcx,4)
# %bb.47:                               # %for.inc143
                                        #   in Loop: Header=BB20_45 Depth=2
	movl	-12(%rbp), %eax
	addl	$1, %eax
	movl	%eax, -12(%rbp)
	jmp	.LBB20_45
.LBB20_48:                              # %for.end145
                                        #   in Loop: Header=BB20_43 Depth=1
	jmp	.LBB20_49
.LBB20_49:                              # %for.inc146
                                        #   in Loop: Header=BB20_43 Depth=1
	movl	-16(%rbp), %eax
	addl	$1, %eax
	movl	%eax, -16(%rbp)
	jmp	.LBB20_43
.LBB20_50:                              # %for.end148
	jmp	.LBB20_51
.LBB20_51:                              # %if.end
	movl	-24(%rbp), %eax
	movl	%eax, -8(%rbp)
.LBB20_52:                              # %for.cond149
                                        # =>This Loop Header: Depth=1
                                        #     Child Loop BB20_54 Depth 2
	movl	-8(%rbp), %eax
	cmpl	-52(%rbp), %eax
	jge	.LBB20_59
# %bb.53:                               # %for.body152
                                        #   in Loop: Header=BB20_52 Depth=1
	movl	-20(%rbp), %eax
	movl	%eax, -4(%rbp)
.LBB20_54:                              # %for.cond153
                                        #   Parent Loop BB20_52 Depth=1
                                        # =>  This Inner Loop Header: Depth=2
	movl	-4(%rbp), %eax
	cmpl	-40(%rbp), %eax
	jge	.LBB20_57
# %bb.55:                               # %for.body156
                                        #   in Loop: Header=BB20_54 Depth=2
	movq	decs, %rax
	movq	(%rax), %rax
	movslq	-4(%rbp), %rcx
	movq	(%rax,%rcx,8), %rax
	movslq	-8(%rbp), %rcx
	movl	(%rax,%rcx,4), %eax
	movslq	-4(%rbp), %rcx
	shlq	$6, %rcx
	leaq	-1248(%rbp), %rdx
	addq	%rcx, %rdx
	movslq	-8(%rbp), %rcx
	movl	%eax, (%rdx,%rcx,4)
# %bb.56:                               # %for.inc165
                                        #   in Loop: Header=BB20_54 Depth=2
	movl	-4(%rbp), %eax
	addl	$1, %eax
	movl	%eax, -4(%rbp)
	jmp	.LBB20_54
.LBB20_57:                              # %for.end167
                                        #   in Loop: Header=BB20_52 Depth=1
	jmp	.LBB20_58
.LBB20_58:                              # %for.inc168
                                        #   in Loop: Header=BB20_52 Depth=1
	movl	-8(%rbp), %eax
	addl	$1, %eax
	movl	%eax, -8(%rbp)
	jmp	.LBB20_52
.LBB20_59:                              # %for.end170
	jmp	.LBB20_60
.LBB20_60:                              # %if.end171
	cmpl	$1, -28(%rbp)
	jl	.LBB20_62
# %bb.61:                               # %land.lhs.true174
	cmpl	$7, -28(%rbp)
	jle	.LBB20_66
.LBB20_62:                              # %lor.lhs.false177
	cmpl	$0, -72(%rbp)
	jne	.LBB20_86
# %bb.63:                               # %land.lhs.true180
	movq	img, %rax
	cmpl	$0, 24(%rax)
	je	.LBB20_66
# %bb.64:                               # %lor.lhs.false184
	movq	img, %rax
	cmpl	$1, 24(%rax)
	jne	.LBB20_86
# %bb.65:                               # %land.lhs.true188
	movq	img, %rax
	cmpl	$0, 72496(%rax)
	jle	.LBB20_86
.LBB20_66:                              # %if.then192
	movl	-36(%rbp), %eax
	movl	%eax, -16(%rbp)
.LBB20_67:                              # %for.cond193
                                        # =>This Loop Header: Depth=1
                                        #     Child Loop BB20_69 Depth 2
                                        #       Child Loop BB20_74 Depth 3
                                        #         Child Loop BB20_76 Depth 4
	movl	-16(%rbp), %eax
	cmpl	-44(%rbp), %eax
	jge	.LBB20_85
# %bb.68:                               # %for.body196
                                        #   in Loop: Header=BB20_67 Depth=1
	movl	-32(%rbp), %eax
	movl	%eax, -12(%rbp)
.LBB20_69:                              # %for.cond197
                                        #   Parent Loop BB20_67 Depth=1
                                        # =>  This Loop Header: Depth=2
                                        #       Child Loop BB20_74 Depth 3
                                        #         Child Loop BB20_76 Depth 4
	movl	-12(%rbp), %eax
	cmpl	-48(%rbp), %eax
	jge	.LBB20_83
# %bb.70:                               # %for.body200
                                        #   in Loop: Header=BB20_69 Depth=2
	movq	img, %rax
	movl	144(%rax), %eax
	addl	-12(%rbp), %eax
	movl	%eax, -64(%rbp)
	movq	img, %rax
	movl	148(%rax), %eax
	addl	-16(%rbp), %eax
	movl	%eax, -76(%rbp)
	movq	img, %rax
	cmpl	$1, 24(%rax)
	jne	.LBB20_73
# %bb.71:                               # %land.lhs.true208
                                        #   in Loop: Header=BB20_69 Depth=2
	movq	enc_picture, %rax
	cmpq	enc_frame_picture, %rax
	je	.LBB20_73
# %bb.72:                               # %if.then211
                                        #   in Loop: Header=BB20_69 Depth=2
	movq	img, %rax
	movl	(%rax), %eax
	subl	start_frame_no_in_this_IGOP, %eax
	subl	-60(%rbp), %eax
	subl	$2, %eax
	movq	img, %rcx
	cltd
	idivl	32(%rcx)
	movl	%edx, -68(%rbp)
.LBB20_73:                              # %if.end218
                                        #   in Loop: Header=BB20_69 Depth=2
	leaq	-224(%rbp), %r8
	movq	decs, %rcx
	movq	16(%rcx), %rcx
	movslq	-56(%rbp), %rdx
	movq	(%rcx,%rdx,8), %rcx
	movslq	-68(%rbp), %rdx
	movq	(%rcx,%rdx,8), %rdi
	movl	-76(%rbp), %esi
	movl	-64(%rbp), %edx
	movslq	-16(%rbp), %rcx
	shlq	$4, %rcx
	movq	%r8, %rax
	addq	%rcx, %rax
	movslq	-12(%rbp), %rcx
	movl	(%rax,%rcx,4), %ecx
	addq	$64, %r8
	movslq	-16(%rbp), %rax
	shlq	$4, %rax
	addq	%rax, %r8
	movslq	-12(%rbp), %rax
	movl	(%r8,%rax,4), %r8d
	movq	decs, %rax
	movq	32(%rax), %r9
	callq	Get_Reference_Block
	movl	$0, -4(%rbp)
.LBB20_74:                              # %for.cond233
                                        #   Parent Loop BB20_67 Depth=1
                                        #     Parent Loop BB20_69 Depth=2
                                        # =>    This Loop Header: Depth=3
                                        #         Child Loop BB20_76 Depth 4
	cmpl	$4, -4(%rbp)
	jge	.LBB20_81
# %bb.75:                               # %for.body236
                                        #   in Loop: Header=BB20_74 Depth=3
	movl	$0, -8(%rbp)
.LBB20_76:                              # %for.cond237
                                        #   Parent Loop BB20_67 Depth=1
                                        #     Parent Loop BB20_69 Depth=2
                                        #       Parent Loop BB20_74 Depth=3
                                        # =>      This Inner Loop Header: Depth=4
	cmpl	$4, -8(%rbp)
	jge	.LBB20_79
# %bb.77:                               # %for.body240
                                        #   in Loop: Header=BB20_76 Depth=4
	movl	-16(%rbp), %eax
	shll	$2, %eax
	addl	-4(%rbp), %eax
	cltq
	shlq	$6, %rax
	leaq	-1248(%rbp), %rcx
	addq	%rax, %rcx
	movl	-12(%rbp), %eax
	shll	$2, %eax
	addl	-8(%rbp), %eax
	cltq
	movl	(%rcx,%rax,4), %eax
	movq	decs, %rcx
	movq	32(%rcx), %rcx
	movslq	-4(%rbp), %rdx
	movq	(%rcx,%rdx,8), %rcx
	movslq	-8(%rbp), %rdx
	movzwl	(%rcx,%rdx,2), %ecx
	addl	%ecx, %eax
	movq	decs, %rcx
	movq	8(%rcx), %rcx
	movslq	-56(%rbp), %rdx
	movq	(%rcx,%rdx,8), %rcx
	movl	-76(%rbp), %edx
	shll	$2, %edx
	addl	-4(%rbp), %edx
	movslq	%edx, %rdx
	movq	(%rcx,%rdx,8), %rcx
	movl	-64(%rbp), %edx
	shll	$2, %edx
	addl	-8(%rbp), %edx
	movslq	%edx, %rdx
	movw	%ax, (%rcx,%rdx,2)
# %bb.78:                               # %for.inc267
                                        #   in Loop: Header=BB20_76 Depth=4
	movl	-8(%rbp), %eax
	addl	$1, %eax
	movl	%eax, -8(%rbp)
	jmp	.LBB20_76
.LBB20_79:                              # %for.end269
                                        #   in Loop: Header=BB20_74 Depth=3
	jmp	.LBB20_80
.LBB20_80:                              # %for.inc270
                                        #   in Loop: Header=BB20_74 Depth=3
	movl	-4(%rbp), %eax
	addl	$1, %eax
	movl	%eax, -4(%rbp)
	jmp	.LBB20_74
.LBB20_81:                              # %for.end272
                                        #   in Loop: Header=BB20_69 Depth=2
	jmp	.LBB20_82
.LBB20_82:                              # %for.inc273
                                        #   in Loop: Header=BB20_69 Depth=2
	movl	-12(%rbp), %eax
	addl	$1, %eax
	movl	%eax, -12(%rbp)
	jmp	.LBB20_69
.LBB20_83:                              # %for.end275
                                        #   in Loop: Header=BB20_67 Depth=1
	jmp	.LBB20_84
.LBB20_84:                              # %for.inc276
                                        #   in Loop: Header=BB20_67 Depth=1
	movl	-16(%rbp), %eax
	addl	$1, %eax
	movl	%eax, -16(%rbp)
	jmp	.LBB20_67
.LBB20_85:                              # %for.end278
	jmp	.LBB20_95
.LBB20_86:                              # %if.else279
	movl	-24(%rbp), %eax
	movl	%eax, -8(%rbp)
.LBB20_87:                              # %for.cond280
                                        # =>This Loop Header: Depth=1
                                        #     Child Loop BB20_89 Depth 2
	movl	-8(%rbp), %eax
	cmpl	-52(%rbp), %eax
	jge	.LBB20_94
# %bb.88:                               # %for.body283
                                        #   in Loop: Header=BB20_87 Depth=1
	movl	-20(%rbp), %eax
	movl	%eax, -4(%rbp)
.LBB20_89:                              # %for.cond284
                                        #   Parent Loop BB20_87 Depth=1
                                        # =>  This Inner Loop Header: Depth=2
	movl	-4(%rbp), %eax
	cmpl	-40(%rbp), %eax
	jge	.LBB20_92
# %bb.90:                               # %for.body287
                                        #   in Loop: Header=BB20_89 Depth=2
	movq	enc_picture, %rax
	movq	6424(%rax), %rax
	movq	img, %rcx
	movl	156(%rcx), %ecx
	addl	-4(%rbp), %ecx
	movslq	%ecx, %rcx
	movq	(%rax,%rcx,8), %rax
	movq	img, %rcx
	movl	152(%rcx), %ecx
	addl	-8(%rbp), %ecx
	movslq	%ecx, %rcx
	movw	(%rax,%rcx,2), %ax
	movq	decs, %rcx
	movq	8(%rcx), %rcx
	movslq	-56(%rbp), %rdx
	movq	(%rcx,%rdx,8), %rcx
	movq	img, %rdx
	movl	156(%rdx), %edx
	addl	-4(%rbp), %edx
	movslq	%edx, %rdx
	movq	(%rcx,%rdx,8), %rcx
	movq	img, %rdx
	movl	152(%rdx), %edx
	addl	-8(%rbp), %edx
	movslq	%edx, %rdx
	movw	%ax, (%rcx,%rdx,2)
# %bb.91:                               # %for.inc308
                                        #   in Loop: Header=BB20_89 Depth=2
	movl	-4(%rbp), %eax
	addl	$1, %eax
	movl	%eax, -4(%rbp)
	jmp	.LBB20_89
.LBB20_92:                              # %for.end310
                                        #   in Loop: Header=BB20_87 Depth=1
	jmp	.LBB20_93
.LBB20_93:                              # %for.inc311
                                        #   in Loop: Header=BB20_87 Depth=1
	movl	-8(%rbp), %eax
	addl	$1, %eax
	movl	%eax, -8(%rbp)
	jmp	.LBB20_87
.LBB20_94:                              # %for.end313
	jmp	.LBB20_95
.LBB20_95:                              # %if.end314
	jmp	.LBB20_96
.LBB20_96:                              # %if.end315
	cmpl	$782782865, -84(%rbp)   # imm = 0x2EA85191
	jne	.LBB20_98
.LBB20_97:
	addq	$1248, %rsp             # imm = 0x4E0
	popq	%rbp
	.cfi_def_cfa %rsp, 8
	retq
.LBB20_98:                              # %func_exit
	.cfi_def_cfa %rbp, 16
	callq	detect_breach
	jmp	.LBB20_97
.Lfunc_end20:
	.size	decode_one_b8block.10, .Lfunc_end20-decode_one_b8block.10
	.cfi_endproc
                                        # -- End function
	.globl	Get_Reference_Block.11  # -- Begin function Get_Reference_Block.11
	.p2align	4, 0x90
	.type	Get_Reference_Block.11,@function
Get_Reference_Block.11:                 # @Get_Reference_Block.11
	.cfi_startproc
# %bb.0:                                # %entry
	pushq	%rbp
	.cfi_def_cfa_offset 16
	.cfi_offset %rbp, -16
	movq	%rsp, %rbp
	.cfi_def_cfa_register %rbp
	subq	$64, %rsp
	movl	$1674184766, -36(%rbp)  # imm = 0x63CA083E
	movq	%rdi, -56(%rbp)
	movl	%esi, -16(%rbp)
	movl	%edx, -32(%rbp)
	movl	%ecx, -24(%rbp)
	movl	%r8d, -28(%rbp)
	movq	%r9, -48(%rbp)
	movl	-16(%rbp), %eax
	shll	$2, %eax
	shll	$2, %eax
	addl	-28(%rbp), %eax
	movl	%eax, -12(%rbp)
	movl	-32(%rbp), %eax
	shll	$2, %eax
	shll	$2, %eax
	addl	-24(%rbp), %eax
	movl	%eax, -20(%rbp)
	movl	$0, -8(%rbp)
.LBB21_1:                               # %for.cond
                                        # =>This Loop Header: Depth=1
                                        #     Child Loop BB21_3 Depth 2
	cmpl	$4, -8(%rbp)
	jge	.LBB21_8
# %bb.2:                                # %for.body
                                        #   in Loop: Header=BB21_1 Depth=1
	movl	$0, -4(%rbp)
.LBB21_3:                               # %for.cond5
                                        #   Parent Loop BB21_1 Depth=1
                                        # =>  This Inner Loop Header: Depth=2
	cmpl	$4, -4(%rbp)
	jge	.LBB21_6
# %bb.4:                                # %for.body7
                                        #   in Loop: Header=BB21_3 Depth=2
	movq	-56(%rbp), %rdi
	movl	-12(%rbp), %esi
	movl	-8(%rbp), %eax
	shll	$2, %eax
	addl	%eax, %esi
	movl	-20(%rbp), %edx
	movl	-4(%rbp), %eax
	shll	$2, %eax
	addl	%eax, %edx
	callq	Get_Reference_Pixel
	movzbl	%al, %eax
	movq	-48(%rbp), %rcx
	movslq	-8(%rbp), %rdx
	movq	(%rcx,%rdx,8), %rcx
	movslq	-4(%rbp), %rdx
	movw	%ax, (%rcx,%rdx,2)
# %bb.5:                                # %for.inc
                                        #   in Loop: Header=BB21_3 Depth=2
	movl	-4(%rbp), %eax
	addl	$1, %eax
	movl	%eax, -4(%rbp)
	jmp	.LBB21_3
.LBB21_6:                               # %for.end
                                        #   in Loop: Header=BB21_1 Depth=1
	jmp	.LBB21_7
.LBB21_7:                               # %for.inc14
                                        #   in Loop: Header=BB21_1 Depth=1
	movl	-8(%rbp), %eax
	addl	$1, %eax
	movl	%eax, -8(%rbp)
	jmp	.LBB21_1
.LBB21_8:                               # %for.end16
	cmpl	$1674184766, -36(%rbp)  # imm = 0x63CA083E
	jne	.LBB21_10
.LBB21_9:
	addq	$64, %rsp
	popq	%rbp
	.cfi_def_cfa %rsp, 8
	retq
.LBB21_10:                              # %func_exit
	.cfi_def_cfa %rbp, 16
	callq	detect_breach
	jmp	.LBB21_9
.Lfunc_end21:
	.size	Get_Reference_Block.11, .Lfunc_end21-Get_Reference_Block.11
	.cfi_endproc
                                        # -- End function
	.globl	compute_residue_b8block.12 # -- Begin function compute_residue_b8block.12
	.p2align	4, 0x90
	.type	compute_residue_b8block.12,@function
compute_residue_b8block.12:             # @compute_residue_b8block.12
	.cfi_startproc
# %bb.0:                                # %entry
	pushq	%rbp
	.cfi_def_cfa_offset 16
	.cfi_offset %rbp, -16
	movq	%rsp, %rbp
	.cfi_def_cfa_register %rbp
	subq	$48, %rsp
	movl	$1879730247, -36(%rbp)  # imm = 0x700A6847
	movl	%edi, -24(%rbp)
	movl	%esi, -20(%rbp)
	movl	-24(%rbp), %eax
	cltd
	movl	$2, %ecx
	idivl	%ecx
	shll	$3, %edx
	movl	%edx, -16(%rbp)
	movl	-16(%rbp), %eax
	addl	$8, %eax
	movl	%eax, -32(%rbp)
	movl	-24(%rbp), %eax
	cltd
	idivl	%ecx
	shll	$3, %eax
	movl	%eax, -12(%rbp)
	movl	-12(%rbp), %eax
	addl	$8, %eax
	movl	%eax, -28(%rbp)
	cmpl	$0, -20(%rbp)
	jl	.LBB22_10
# %bb.1:                                # %if.then
	movl	-16(%rbp), %eax
	movl	%eax, -4(%rbp)
.LBB22_2:                               # %for.cond
                                        # =>This Loop Header: Depth=1
                                        #     Child Loop BB22_4 Depth 2
	movl	-4(%rbp), %eax
	cmpl	-32(%rbp), %eax
	jge	.LBB22_9
# %bb.3:                                # %for.body
                                        #   in Loop: Header=BB22_2 Depth=1
	movl	-12(%rbp), %eax
	movl	%eax, -8(%rbp)
.LBB22_4:                               # %for.cond4
                                        #   Parent Loop BB22_2 Depth=1
                                        # =>  This Inner Loop Header: Depth=2
	movl	-8(%rbp), %eax
	cmpl	-28(%rbp), %eax
	jge	.LBB22_7
# %bb.5:                                # %for.body6
                                        #   in Loop: Header=BB22_4 Depth=2
	movq	enc_picture, %rax
	movq	6424(%rax), %rax
	movq	img, %rcx
	movl	156(%rcx), %ecx
	addl	-8(%rbp), %ecx
	movslq	%ecx, %rcx
	movq	(%rax,%rcx,8), %rax
	movq	img, %rcx
	movl	152(%rcx), %ecx
	addl	-4(%rbp), %ecx
	movslq	%ecx, %rcx
	movzwl	(%rax,%rcx,2), %eax
	movq	img, %rcx
	addq	$4792, %rcx             # imm = 0x12B8
	movslq	-20(%rbp), %rdx
	shlq	$9, %rdx
	addq	%rdx, %rcx
	movslq	-8(%rbp), %rdx
	shlq	$5, %rdx
	addq	%rdx, %rcx
	movslq	-4(%rbp), %rdx
	movzwl	(%rcx,%rdx,2), %ecx
	subl	%ecx, %eax
	movq	decs, %rcx
	movq	(%rcx), %rcx
	movslq	-8(%rbp), %rdx
	movq	(%rcx,%rdx,8), %rcx
	movslq	-4(%rbp), %rdx
	movl	%eax, (%rcx,%rdx,4)
# %bb.6:                                # %for.inc
                                        #   in Loop: Header=BB22_4 Depth=2
	movl	-8(%rbp), %eax
	addl	$1, %eax
	movl	%eax, -8(%rbp)
	jmp	.LBB22_4
.LBB22_7:                               # %for.end
                                        #   in Loop: Header=BB22_2 Depth=1
	jmp	.LBB22_8
.LBB22_8:                               # %for.inc22
                                        #   in Loop: Header=BB22_2 Depth=1
	movl	-4(%rbp), %eax
	addl	$1, %eax
	movl	%eax, -4(%rbp)
	jmp	.LBB22_2
.LBB22_9:                               # %for.end24
	jmp	.LBB22_19
.LBB22_10:                              # %if.else
	movl	-16(%rbp), %eax
	movl	%eax, -4(%rbp)
.LBB22_11:                              # %for.cond25
                                        # =>This Loop Header: Depth=1
                                        #     Child Loop BB22_13 Depth 2
	movl	-4(%rbp), %eax
	cmpl	-32(%rbp), %eax
	jge	.LBB22_18
# %bb.12:                               # %for.body28
                                        #   in Loop: Header=BB22_11 Depth=1
	movl	-12(%rbp), %eax
	movl	%eax, -8(%rbp)
.LBB22_13:                              # %for.cond29
                                        #   Parent Loop BB22_11 Depth=1
                                        # =>  This Inner Loop Header: Depth=2
	movl	-8(%rbp), %eax
	cmpl	-28(%rbp), %eax
	jge	.LBB22_16
# %bb.14:                               # %for.body32
                                        #   in Loop: Header=BB22_13 Depth=2
	movq	enc_picture, %rax
	movq	6424(%rax), %rax
	movq	img, %rcx
	movl	156(%rcx), %ecx
	addl	-8(%rbp), %ecx
	movslq	%ecx, %rcx
	movq	(%rax,%rcx,8), %rax
	movq	img, %rcx
	movl	152(%rcx), %ecx
	addl	-4(%rbp), %ecx
	movslq	%ecx, %rcx
	movzwl	(%rax,%rcx,2), %eax
	movq	img, %rcx
	addq	$12600, %rcx            # imm = 0x3138
	movslq	-4(%rbp), %rdx
	shlq	$5, %rdx
	addq	%rdx, %rcx
	movslq	-8(%rbp), %rdx
	movzwl	(%rcx,%rdx,2), %ecx
	subl	%ecx, %eax
	movq	decs, %rcx
	movq	(%rcx), %rcx
	movslq	-8(%rbp), %rdx
	movq	(%rcx,%rdx,8), %rcx
	movslq	-4(%rbp), %rdx
	movl	%eax, (%rcx,%rdx,4)
# %bb.15:                               # %for.inc54
                                        #   in Loop: Header=BB22_13 Depth=2
	movl	-8(%rbp), %eax
	addl	$1, %eax
	movl	%eax, -8(%rbp)
	jmp	.LBB22_13
.LBB22_16:                              # %for.end56
                                        #   in Loop: Header=BB22_11 Depth=1
	jmp	.LBB22_17
.LBB22_17:                              # %for.inc57
                                        #   in Loop: Header=BB22_11 Depth=1
	movl	-4(%rbp), %eax
	addl	$1, %eax
	movl	%eax, -4(%rbp)
	jmp	.LBB22_11
.LBB22_18:                              # %for.end59
	jmp	.LBB22_19
.LBB22_19:                              # %if.end
	cmpl	$1879730247, -36(%rbp)  # imm = 0x700A6847
	jne	.LBB22_21
.LBB22_20:
	addq	$48, %rsp
	popq	%rbp
	.cfi_def_cfa %rsp, 8
	retq
.LBB22_21:                              # %func_exit
	.cfi_def_cfa %rbp, 16
	callq	detect_breach
	jmp	.LBB22_20
.Lfunc_end22:
	.size	compute_residue_b8block.12, .Lfunc_end22-compute_residue_b8block.12
	.cfi_endproc
                                        # -- End function
	.globl	Get_Reference_Pixel.13  # -- Begin function Get_Reference_Pixel.13
	.p2align	4, 0x90
	.type	Get_Reference_Pixel.13,@function
Get_Reference_Pixel.13:                 # @Get_Reference_Pixel.13
	.cfi_startproc
# %bb.0:                                # %entry
	pushq	%rbp
	.cfi_def_cfa_offset 16
	.cfi_offset %rbp, -16
	movq	%rsp, %rbp
	.cfi_def_cfa_register %rbp
	pushq	%rbx
	subq	$104, %rsp
	.cfi_offset %rbx, -24
	movl	$832450314, -104(%rbp)  # imm = 0x319E2F0A
	movq	%rdi, -64(%rbp)
	movl	%esi, -28(%rbp)
	movl	%edx, -24(%rbp)
	movl	$0, -12(%rbp)
	movl	-24(%rbp), %eax
	andl	$3, %eax
	movl	%eax, -52(%rbp)
	movl	-28(%rbp), %eax
	andl	$3, %eax
	movl	%eax, -48(%rbp)
	movl	-24(%rbp), %eax
	subl	-52(%rbp), %eax
	cltd
	movl	$4, %ecx
	idivl	%ecx
	movl	%eax, -24(%rbp)
	movl	-28(%rbp), %eax
	subl	-48(%rbp), %eax
	cltd
	idivl	%ecx
	movl	%eax, -28(%rbp)
	movq	img, %rax
	movl	52(%rax), %eax
	subl	$1, %eax
	movl	%eax, -32(%rbp)
	movq	img, %rax
	movl	60(%rax), %eax
	subl	$1, %eax
	movl	%eax, -36(%rbp)
	cmpl	$0, -52(%rbp)
	jne	.LBB23_21
# %bb.1:                                # %land.lhs.true
	cmpl	$0, -48(%rbp)
	jne	.LBB23_21
# %bb.2:                                # %if.then
	movq	-64(%rbp), %rax
	movl	-36(%rbp), %ecx
	cmpl	-28(%rbp), %ecx
	jge	.LBB23_4
# %bb.3:                                # %cond.true
	movl	-36(%rbp), %ecx
	jmp	.LBB23_5
.LBB23_4:                               # %cond.false
	movl	-28(%rbp), %ecx
.LBB23_5:                               # %cond.end
	xorl	%edx, %edx
	cmpl	%ecx, %edx
	jle	.LBB23_7
# %bb.6:                                # %cond.true9
	xorl	%ecx, %ecx
	jmp	.LBB23_11
.LBB23_7:                               # %cond.false10
	movl	-36(%rbp), %ecx
	cmpl	-28(%rbp), %ecx
	jge	.LBB23_9
# %bb.8:                                # %cond.true12
	movl	-36(%rbp), %ecx
	jmp	.LBB23_10
.LBB23_9:                               # %cond.false13
	movl	-28(%rbp), %ecx
.LBB23_10:                              # %cond.end14
.LBB23_11:                              # %cond.end16
	movslq	%ecx, %rcx
	movq	(%rax,%rcx,8), %rax
	movl	-32(%rbp), %ecx
	cmpl	-24(%rbp), %ecx
	jge	.LBB23_13
# %bb.12:                               # %cond.true19
	movl	-32(%rbp), %ecx
	jmp	.LBB23_14
.LBB23_13:                              # %cond.false20
	movl	-24(%rbp), %ecx
.LBB23_14:                              # %cond.end21
	xorl	%edx, %edx
	cmpl	%ecx, %edx
	jle	.LBB23_16
# %bb.15:                               # %cond.true24
	xorl	%ecx, %ecx
	jmp	.LBB23_20
.LBB23_16:                              # %cond.false25
	movl	-32(%rbp), %ecx
	cmpl	-24(%rbp), %ecx
	jge	.LBB23_18
# %bb.17:                               # %cond.true27
	movl	-32(%rbp), %ecx
	jmp	.LBB23_19
.LBB23_18:                              # %cond.false28
	movl	-24(%rbp), %ecx
.LBB23_19:                              # %cond.end29
.LBB23_20:                              # %cond.end31
	movslq	%ecx, %rcx
	movzwl	(%rax,%rcx,2), %eax
	movl	%eax, -12(%rbp)
	jmp	.LBB23_332
.LBB23_21:                              # %if.else
	cmpl	$0, -48(%rbp)
	jne	.LBB23_77
# %bb.22:                               # %if.then37
	movl	-36(%rbp), %eax
	cmpl	-28(%rbp), %eax
	jge	.LBB23_24
# %bb.23:                               # %cond.true40
	movl	-36(%rbp), %eax
	jmp	.LBB23_25
.LBB23_24:                              # %cond.false41
	movl	-28(%rbp), %eax
.LBB23_25:                              # %cond.end42
	xorl	%ecx, %ecx
	cmpl	%eax, %ecx
	jle	.LBB23_27
# %bb.26:                               # %cond.true46
	xorl	%eax, %eax
	jmp	.LBB23_31
.LBB23_27:                              # %cond.false47
	movl	-36(%rbp), %eax
	cmpl	-28(%rbp), %eax
	jge	.LBB23_29
# %bb.28:                               # %cond.true50
	movl	-36(%rbp), %eax
	jmp	.LBB23_30
.LBB23_29:                              # %cond.false51
	movl	-28(%rbp), %eax
.LBB23_30:                              # %cond.end52
.LBB23_31:                              # %cond.end54
	movl	%eax, -44(%rbp)
	movl	$-2, -16(%rbp)
.LBB23_32:                              # %for.cond
                                        # =>This Inner Loop Header: Depth=1
	cmpl	$4, -16(%rbp)
	jge	.LBB23_44
# %bb.33:                               # %for.body
                                        #   in Loop: Header=BB23_32 Depth=1
	movl	-32(%rbp), %eax
	movl	-24(%rbp), %ecx
	addl	-16(%rbp), %ecx
	cmpl	%ecx, %eax
	jge	.LBB23_35
# %bb.34:                               # %cond.true60
                                        #   in Loop: Header=BB23_32 Depth=1
	movl	-32(%rbp), %eax
	jmp	.LBB23_36
.LBB23_35:                              # %cond.false61
                                        #   in Loop: Header=BB23_32 Depth=1
	movl	-24(%rbp), %eax
	addl	-16(%rbp), %eax
.LBB23_36:                              # %cond.end63
                                        #   in Loop: Header=BB23_32 Depth=1
	xorl	%ecx, %ecx
	cmpl	%eax, %ecx
	jle	.LBB23_38
# %bb.37:                               # %cond.true67
                                        #   in Loop: Header=BB23_32 Depth=1
	xorl	%eax, %eax
	jmp	.LBB23_42
.LBB23_38:                              # %cond.false68
                                        #   in Loop: Header=BB23_32 Depth=1
	movl	-32(%rbp), %eax
	movl	-24(%rbp), %ecx
	addl	-16(%rbp), %ecx
	cmpl	%ecx, %eax
	jge	.LBB23_40
# %bb.39:                               # %cond.true72
                                        #   in Loop: Header=BB23_32 Depth=1
	movl	-32(%rbp), %eax
	jmp	.LBB23_41
.LBB23_40:                              # %cond.false73
                                        #   in Loop: Header=BB23_32 Depth=1
	movl	-24(%rbp), %eax
	addl	-16(%rbp), %eax
.LBB23_41:                              # %cond.end75
                                        #   in Loop: Header=BB23_32 Depth=1
.LBB23_42:                              # %cond.end77
                                        #   in Loop: Header=BB23_32 Depth=1
	movl	%eax, -40(%rbp)
	movq	-64(%rbp), %rax
	movslq	-44(%rbp), %rcx
	movq	(%rax,%rcx,8), %rax
	movslq	-40(%rbp), %rcx
	movzwl	(%rax,%rcx,2), %eax
	movl	-16(%rbp), %ecx
	addl	$2, %ecx
	movslq	%ecx, %rcx
	imull	Get_Reference_Pixel.COEF(,%rcx,4), %eax
	addl	-12(%rbp), %eax
	movl	%eax, -12(%rbp)
# %bb.43:                               # %for.inc
                                        #   in Loop: Header=BB23_32 Depth=1
	movl	-16(%rbp), %eax
	addl	$1, %eax
	movl	%eax, -16(%rbp)
	jmp	.LBB23_32
.LBB23_44:                              # %for.end
	movq	img, %rax
	movl	72684(%rax), %ecx
	movl	-12(%rbp), %eax
	addl	$16, %eax
	cltd
	movl	$32, %esi
	idivl	%esi
	cmpl	%eax, %ecx
	jge	.LBB23_46
# %bb.45:                               # %cond.true92
	movq	img, %rax
	movl	72684(%rax), %eax
	jmp	.LBB23_47
.LBB23_46:                              # %cond.false94
	movl	-12(%rbp), %eax
	addl	$16, %eax
	cltd
	movl	$32, %ecx
	idivl	%ecx
.LBB23_47:                              # %cond.end97
	xorl	%ecx, %ecx
	cmpl	%eax, %ecx
	jle	.LBB23_49
# %bb.48:                               # %cond.true101
	xorl	%eax, %eax
	jmp	.LBB23_53
.LBB23_49:                              # %cond.false102
	movq	img, %rax
	movl	72684(%rax), %ecx
	movl	-12(%rbp), %eax
	addl	$16, %eax
	cltd
	movl	$32, %esi
	idivl	%esi
	cmpl	%eax, %ecx
	jge	.LBB23_51
# %bb.50:                               # %cond.true108
	movq	img, %rax
	movl	72684(%rax), %eax
	jmp	.LBB23_52
.LBB23_51:                              # %cond.false110
	movl	-12(%rbp), %eax
	addl	$16, %eax
	cltd
	movl	$32, %ecx
	idivl	%ecx
.LBB23_52:                              # %cond.end113
.LBB23_53:                              # %cond.end115
	movl	%eax, -12(%rbp)
	cmpl	$1, -52(%rbp)
	jne	.LBB23_64
# %bb.54:                               # %if.then119
	movl	-12(%rbp), %eax
	movq	-64(%rbp), %rcx
	movslq	-44(%rbp), %rdx
	movq	(%rcx,%rdx,8), %rcx
	movl	-32(%rbp), %edx
	cmpl	-24(%rbp), %edx
	jge	.LBB23_56
# %bb.55:                               # %cond.true124
	movl	-32(%rbp), %edx
	jmp	.LBB23_57
.LBB23_56:                              # %cond.false125
	movl	-24(%rbp), %edx
.LBB23_57:                              # %cond.end126
	xorl	%esi, %esi
	cmpl	%edx, %esi
	jle	.LBB23_59
# %bb.58:                               # %cond.true130
	xorl	%edx, %edx
	jmp	.LBB23_63
.LBB23_59:                              # %cond.false131
	movl	-32(%rbp), %edx
	cmpl	-24(%rbp), %edx
	jge	.LBB23_61
# %bb.60:                               # %cond.true134
	movl	-32(%rbp), %edx
	jmp	.LBB23_62
.LBB23_61:                              # %cond.false135
	movl	-24(%rbp), %edx
.LBB23_62:                              # %cond.end136
.LBB23_63:                              # %cond.end138
	movslq	%edx, %rdx
	movzwl	(%rcx,%rdx,2), %ecx
	addl	%ecx, %eax
	cltd
	movl	$2, %ecx
	idivl	%ecx
	movl	%eax, -12(%rbp)
	jmp	.LBB23_76
.LBB23_64:                              # %if.else145
	cmpl	$3, -52(%rbp)
	jne	.LBB23_75
# %bb.65:                               # %if.then148
	movl	-12(%rbp), %eax
	movq	-64(%rbp), %rcx
	movslq	-44(%rbp), %rdx
	movq	(%rcx,%rdx,8), %rcx
	movl	-32(%rbp), %edx
	movl	-24(%rbp), %esi
	addl	$1, %esi
	cmpl	%esi, %edx
	jge	.LBB23_67
# %bb.66:                               # %cond.true154
	movl	-32(%rbp), %edx
	jmp	.LBB23_68
.LBB23_67:                              # %cond.false155
	movl	-24(%rbp), %edx
	addl	$1, %edx
.LBB23_68:                              # %cond.end157
	xorl	%esi, %esi
	cmpl	%edx, %esi
	jle	.LBB23_70
# %bb.69:                               # %cond.true161
	xorl	%edx, %edx
	jmp	.LBB23_74
.LBB23_70:                              # %cond.false162
	movl	-32(%rbp), %edx
	movl	-24(%rbp), %esi
	addl	$1, %esi
	cmpl	%esi, %edx
	jge	.LBB23_72
# %bb.71:                               # %cond.true166
	movl	-32(%rbp), %edx
	jmp	.LBB23_73
.LBB23_72:                              # %cond.false167
	movl	-24(%rbp), %edx
	addl	$1, %edx
.LBB23_73:                              # %cond.end169
.LBB23_74:                              # %cond.end171
	movslq	%edx, %rdx
	movzwl	(%rcx,%rdx,2), %ecx
	addl	%ecx, %eax
	cltd
	movl	$2, %ecx
	idivl	%ecx
	movl	%eax, -12(%rbp)
.LBB23_75:                              # %if.end
	jmp	.LBB23_76
.LBB23_76:                              # %if.end178
	jmp	.LBB23_331
.LBB23_77:                              # %if.else179
	cmpl	$0, -52(%rbp)
	jne	.LBB23_133
# %bb.78:                               # %if.then182
	movl	-32(%rbp), %eax
	cmpl	-24(%rbp), %eax
	jge	.LBB23_80
# %bb.79:                               # %cond.true185
	movl	-32(%rbp), %eax
	jmp	.LBB23_81
.LBB23_80:                              # %cond.false186
	movl	-24(%rbp), %eax
.LBB23_81:                              # %cond.end187
	xorl	%ecx, %ecx
	cmpl	%eax, %ecx
	jle	.LBB23_83
# %bb.82:                               # %cond.true191
	xorl	%eax, %eax
	jmp	.LBB23_87
.LBB23_83:                              # %cond.false192
	movl	-32(%rbp), %eax
	cmpl	-24(%rbp), %eax
	jge	.LBB23_85
# %bb.84:                               # %cond.true195
	movl	-32(%rbp), %eax
	jmp	.LBB23_86
.LBB23_85:                              # %cond.false196
	movl	-24(%rbp), %eax
.LBB23_86:                              # %cond.end197
.LBB23_87:                              # %cond.end199
	movl	%eax, -40(%rbp)
	movl	$-2, -20(%rbp)
.LBB23_88:                              # %for.cond201
                                        # =>This Inner Loop Header: Depth=1
	cmpl	$4, -20(%rbp)
	jge	.LBB23_100
# %bb.89:                               # %for.body204
                                        #   in Loop: Header=BB23_88 Depth=1
	movl	-36(%rbp), %eax
	movl	-28(%rbp), %ecx
	addl	-20(%rbp), %ecx
	cmpl	%ecx, %eax
	jge	.LBB23_91
# %bb.90:                               # %cond.true208
                                        #   in Loop: Header=BB23_88 Depth=1
	movl	-36(%rbp), %eax
	jmp	.LBB23_92
.LBB23_91:                              # %cond.false209
                                        #   in Loop: Header=BB23_88 Depth=1
	movl	-28(%rbp), %eax
	addl	-20(%rbp), %eax
.LBB23_92:                              # %cond.end211
                                        #   in Loop: Header=BB23_88 Depth=1
	xorl	%ecx, %ecx
	cmpl	%eax, %ecx
	jle	.LBB23_94
# %bb.93:                               # %cond.true215
                                        #   in Loop: Header=BB23_88 Depth=1
	xorl	%eax, %eax
	jmp	.LBB23_98
.LBB23_94:                              # %cond.false216
                                        #   in Loop: Header=BB23_88 Depth=1
	movl	-36(%rbp), %eax
	movl	-28(%rbp), %ecx
	addl	-20(%rbp), %ecx
	cmpl	%ecx, %eax
	jge	.LBB23_96
# %bb.95:                               # %cond.true220
                                        #   in Loop: Header=BB23_88 Depth=1
	movl	-36(%rbp), %eax
	jmp	.LBB23_97
.LBB23_96:                              # %cond.false221
                                        #   in Loop: Header=BB23_88 Depth=1
	movl	-28(%rbp), %eax
	addl	-20(%rbp), %eax
.LBB23_97:                              # %cond.end223
                                        #   in Loop: Header=BB23_88 Depth=1
.LBB23_98:                              # %cond.end225
                                        #   in Loop: Header=BB23_88 Depth=1
	movl	%eax, -44(%rbp)
	movq	-64(%rbp), %rax
	movslq	-44(%rbp), %rcx
	movq	(%rax,%rcx,8), %rax
	movslq	-40(%rbp), %rcx
	movzwl	(%rax,%rcx,2), %eax
	movl	-20(%rbp), %ecx
	addl	$2, %ecx
	movslq	%ecx, %rcx
	imull	Get_Reference_Pixel.COEF(,%rcx,4), %eax
	addl	-12(%rbp), %eax
	movl	%eax, -12(%rbp)
# %bb.99:                               # %for.inc237
                                        #   in Loop: Header=BB23_88 Depth=1
	movl	-20(%rbp), %eax
	addl	$1, %eax
	movl	%eax, -20(%rbp)
	jmp	.LBB23_88
.LBB23_100:                             # %for.end239
	movq	img, %rax
	movl	72684(%rax), %ecx
	movl	-12(%rbp), %eax
	addl	$16, %eax
	cltd
	movl	$32, %esi
	idivl	%esi
	cmpl	%eax, %ecx
	jge	.LBB23_102
# %bb.101:                              # %cond.true245
	movq	img, %rax
	movl	72684(%rax), %eax
	jmp	.LBB23_103
.LBB23_102:                             # %cond.false247
	movl	-12(%rbp), %eax
	addl	$16, %eax
	cltd
	movl	$32, %ecx
	idivl	%ecx
.LBB23_103:                             # %cond.end250
	xorl	%ecx, %ecx
	cmpl	%eax, %ecx
	jle	.LBB23_105
# %bb.104:                              # %cond.true254
	xorl	%eax, %eax
	jmp	.LBB23_109
.LBB23_105:                             # %cond.false255
	movq	img, %rax
	movl	72684(%rax), %ecx
	movl	-12(%rbp), %eax
	addl	$16, %eax
	cltd
	movl	$32, %esi
	idivl	%esi
	cmpl	%eax, %ecx
	jge	.LBB23_107
# %bb.106:                              # %cond.true261
	movq	img, %rax
	movl	72684(%rax), %eax
	jmp	.LBB23_108
.LBB23_107:                             # %cond.false263
	movl	-12(%rbp), %eax
	addl	$16, %eax
	cltd
	movl	$32, %ecx
	idivl	%ecx
.LBB23_108:                             # %cond.end266
.LBB23_109:                             # %cond.end268
	movl	%eax, -12(%rbp)
	cmpl	$1, -48(%rbp)
	jne	.LBB23_120
# %bb.110:                              # %if.then272
	movl	-12(%rbp), %eax
	movq	-64(%rbp), %rcx
	movl	-36(%rbp), %edx
	cmpl	-28(%rbp), %edx
	jge	.LBB23_112
# %bb.111:                              # %cond.true275
	movl	-36(%rbp), %edx
	jmp	.LBB23_113
.LBB23_112:                             # %cond.false276
	movl	-28(%rbp), %edx
.LBB23_113:                             # %cond.end277
	xorl	%esi, %esi
	cmpl	%edx, %esi
	jle	.LBB23_115
# %bb.114:                              # %cond.true281
	xorl	%edx, %edx
	jmp	.LBB23_119
.LBB23_115:                             # %cond.false282
	movl	-36(%rbp), %edx
	cmpl	-28(%rbp), %edx
	jge	.LBB23_117
# %bb.116:                              # %cond.true285
	movl	-36(%rbp), %edx
	jmp	.LBB23_118
.LBB23_117:                             # %cond.false286
	movl	-28(%rbp), %edx
.LBB23_118:                             # %cond.end287
.LBB23_119:                             # %cond.end289
	movslq	%edx, %rdx
	movq	(%rcx,%rdx,8), %rcx
	movslq	-40(%rbp), %rdx
	movzwl	(%rcx,%rdx,2), %ecx
	addl	%ecx, %eax
	cltd
	movl	$2, %ecx
	idivl	%ecx
	movl	%eax, -12(%rbp)
	jmp	.LBB23_132
.LBB23_120:                             # %if.else298
	cmpl	$3, -48(%rbp)
	jne	.LBB23_131
# %bb.121:                              # %if.then301
	movl	-12(%rbp), %eax
	movq	-64(%rbp), %rcx
	movl	-36(%rbp), %edx
	movl	-28(%rbp), %esi
	addl	$1, %esi
	cmpl	%esi, %edx
	jge	.LBB23_123
# %bb.122:                              # %cond.true305
	movl	-36(%rbp), %edx
	jmp	.LBB23_124
.LBB23_123:                             # %cond.false306
	movl	-28(%rbp), %edx
	addl	$1, %edx
.LBB23_124:                             # %cond.end308
	xorl	%esi, %esi
	cmpl	%edx, %esi
	jle	.LBB23_126
# %bb.125:                              # %cond.true312
	xorl	%edx, %edx
	jmp	.LBB23_130
.LBB23_126:                             # %cond.false313
	movl	-36(%rbp), %edx
	movl	-28(%rbp), %esi
	addl	$1, %esi
	cmpl	%esi, %edx
	jge	.LBB23_128
# %bb.127:                              # %cond.true317
	movl	-36(%rbp), %edx
	jmp	.LBB23_129
.LBB23_128:                             # %cond.false318
	movl	-28(%rbp), %edx
	addl	$1, %edx
.LBB23_129:                             # %cond.end320
.LBB23_130:                             # %cond.end322
	movslq	%edx, %rdx
	movq	(%rcx,%rdx,8), %rcx
	movslq	-40(%rbp), %rdx
	movzwl	(%rcx,%rdx,2), %ecx
	addl	%ecx, %eax
	cltd
	movl	$2, %ecx
	idivl	%ecx
	movl	%eax, -12(%rbp)
.LBB23_131:                             # %if.end331
	jmp	.LBB23_132
.LBB23_132:                             # %if.end332
	jmp	.LBB23_330
.LBB23_133:                             # %if.else333
	cmpl	$2, -52(%rbp)
	jne	.LBB23_197
# %bb.134:                              # %if.then336
	movl	$-2, -20(%rbp)
.LBB23_135:                             # %for.cond337
                                        # =>This Loop Header: Depth=1
                                        #     Child Loop BB23_146 Depth 2
	cmpl	$4, -20(%rbp)
	jge	.LBB23_160
# %bb.136:                              # %for.body340
                                        #   in Loop: Header=BB23_135 Depth=1
	movl	$0, -12(%rbp)
	movl	-36(%rbp), %eax
	movl	-28(%rbp), %ecx
	addl	-20(%rbp), %ecx
	cmpl	%ecx, %eax
	jge	.LBB23_138
# %bb.137:                              # %cond.true344
                                        #   in Loop: Header=BB23_135 Depth=1
	movl	-36(%rbp), %eax
	jmp	.LBB23_139
.LBB23_138:                             # %cond.false345
                                        #   in Loop: Header=BB23_135 Depth=1
	movl	-28(%rbp), %eax
	addl	-20(%rbp), %eax
.LBB23_139:                             # %cond.end347
                                        #   in Loop: Header=BB23_135 Depth=1
	xorl	%ecx, %ecx
	cmpl	%eax, %ecx
	jle	.LBB23_141
# %bb.140:                              # %cond.true351
                                        #   in Loop: Header=BB23_135 Depth=1
	xorl	%eax, %eax
	jmp	.LBB23_145
.LBB23_141:                             # %cond.false352
                                        #   in Loop: Header=BB23_135 Depth=1
	movl	-36(%rbp), %eax
	movl	-28(%rbp), %ecx
	addl	-20(%rbp), %ecx
	cmpl	%ecx, %eax
	jge	.LBB23_143
# %bb.142:                              # %cond.true356
                                        #   in Loop: Header=BB23_135 Depth=1
	movl	-36(%rbp), %eax
	jmp	.LBB23_144
.LBB23_143:                             # %cond.false357
                                        #   in Loop: Header=BB23_135 Depth=1
	movl	-28(%rbp), %eax
	addl	-20(%rbp), %eax
.LBB23_144:                             # %cond.end359
                                        #   in Loop: Header=BB23_135 Depth=1
.LBB23_145:                             # %cond.end361
                                        #   in Loop: Header=BB23_135 Depth=1
	movl	%eax, -44(%rbp)
	movl	$-2, -16(%rbp)
.LBB23_146:                             # %for.cond363
                                        #   Parent Loop BB23_135 Depth=1
                                        # =>  This Inner Loop Header: Depth=2
	cmpl	$4, -16(%rbp)
	jge	.LBB23_158
# %bb.147:                              # %for.body366
                                        #   in Loop: Header=BB23_146 Depth=2
	movl	-32(%rbp), %eax
	movl	-24(%rbp), %ecx
	addl	-16(%rbp), %ecx
	cmpl	%ecx, %eax
	jge	.LBB23_149
# %bb.148:                              # %cond.true370
                                        #   in Loop: Header=BB23_146 Depth=2
	movl	-32(%rbp), %eax
	jmp	.LBB23_150
.LBB23_149:                             # %cond.false371
                                        #   in Loop: Header=BB23_146 Depth=2
	movl	-24(%rbp), %eax
	addl	-16(%rbp), %eax
.LBB23_150:                             # %cond.end373
                                        #   in Loop: Header=BB23_146 Depth=2
	xorl	%ecx, %ecx
	cmpl	%eax, %ecx
	jle	.LBB23_152
# %bb.151:                              # %cond.true377
                                        #   in Loop: Header=BB23_146 Depth=2
	xorl	%eax, %eax
	jmp	.LBB23_156
.LBB23_152:                             # %cond.false378
                                        #   in Loop: Header=BB23_146 Depth=2
	movl	-32(%rbp), %eax
	movl	-24(%rbp), %ecx
	addl	-16(%rbp), %ecx
	cmpl	%ecx, %eax
	jge	.LBB23_154
# %bb.153:                              # %cond.true382
                                        #   in Loop: Header=BB23_146 Depth=2
	movl	-32(%rbp), %eax
	jmp	.LBB23_155
.LBB23_154:                             # %cond.false383
                                        #   in Loop: Header=BB23_146 Depth=2
	movl	-24(%rbp), %eax
	addl	-16(%rbp), %eax
.LBB23_155:                             # %cond.end385
                                        #   in Loop: Header=BB23_146 Depth=2
.LBB23_156:                             # %cond.end387
                                        #   in Loop: Header=BB23_146 Depth=2
	movl	%eax, -40(%rbp)
	movq	-64(%rbp), %rax
	movslq	-44(%rbp), %rcx
	movq	(%rax,%rcx,8), %rax
	movslq	-40(%rbp), %rcx
	movzwl	(%rax,%rcx,2), %eax
	movl	-16(%rbp), %ecx
	addl	$2, %ecx
	movslq	%ecx, %rcx
	imull	Get_Reference_Pixel.COEF(,%rcx,4), %eax
	addl	-12(%rbp), %eax
	movl	%eax, -12(%rbp)
# %bb.157:                              # %for.inc399
                                        #   in Loop: Header=BB23_146 Depth=2
	movl	-16(%rbp), %eax
	addl	$1, %eax
	movl	%eax, -16(%rbp)
	jmp	.LBB23_146
.LBB23_158:                             # %for.end401
                                        #   in Loop: Header=BB23_135 Depth=1
	movl	-12(%rbp), %eax
	movl	-20(%rbp), %ecx
	addl	$2, %ecx
	movslq	%ecx, %rcx
	movl	%eax, -96(%rbp,%rcx,4)
# %bb.159:                              # %for.inc405
                                        #   in Loop: Header=BB23_135 Depth=1
	movl	-20(%rbp), %eax
	addl	$1, %eax
	movl	%eax, -20(%rbp)
	jmp	.LBB23_135
.LBB23_160:                             # %for.end407
	movl	$0, -12(%rbp)
	movl	$-2, -20(%rbp)
.LBB23_161:                             # %for.cond408
                                        # =>This Inner Loop Header: Depth=1
	cmpl	$4, -20(%rbp)
	jge	.LBB23_164
# %bb.162:                              # %for.body411
                                        #   in Loop: Header=BB23_161 Depth=1
	movl	-20(%rbp), %eax
	addl	$2, %eax
	cltq
	movl	-96(%rbp,%rax,4), %eax
	movl	-20(%rbp), %ecx
	addl	$2, %ecx
	movslq	%ecx, %rcx
	imull	Get_Reference_Pixel.COEF(,%rcx,4), %eax
	addl	-12(%rbp), %eax
	movl	%eax, -12(%rbp)
# %bb.163:                              # %for.inc420
                                        #   in Loop: Header=BB23_161 Depth=1
	movl	-20(%rbp), %eax
	addl	$1, %eax
	movl	%eax, -20(%rbp)
	jmp	.LBB23_161
.LBB23_164:                             # %for.end422
	movq	img, %rax
	movl	72684(%rax), %ecx
	movl	-12(%rbp), %eax
	addl	$512, %eax              # imm = 0x200
	cltd
	movl	$1024, %esi             # imm = 0x400
	idivl	%esi
	cmpl	%eax, %ecx
	jge	.LBB23_166
# %bb.165:                              # %cond.true428
	movq	img, %rax
	movl	72684(%rax), %eax
	jmp	.LBB23_167
.LBB23_166:                             # %cond.false430
	movl	-12(%rbp), %eax
	addl	$512, %eax              # imm = 0x200
	cltd
	movl	$1024, %ecx             # imm = 0x400
	idivl	%ecx
.LBB23_167:                             # %cond.end433
	xorl	%ecx, %ecx
	cmpl	%eax, %ecx
	jle	.LBB23_169
# %bb.168:                              # %cond.true437
	xorl	%eax, %eax
	jmp	.LBB23_173
.LBB23_169:                             # %cond.false438
	movq	img, %rax
	movl	72684(%rax), %ecx
	movl	-12(%rbp), %eax
	addl	$512, %eax              # imm = 0x200
	cltd
	movl	$1024, %esi             # imm = 0x400
	idivl	%esi
	cmpl	%eax, %ecx
	jge	.LBB23_171
# %bb.170:                              # %cond.true444
	movq	img, %rax
	movl	72684(%rax), %eax
	jmp	.LBB23_172
.LBB23_171:                             # %cond.false446
	movl	-12(%rbp), %eax
	addl	$512, %eax              # imm = 0x200
	cltd
	movl	$1024, %ecx             # imm = 0x400
	idivl	%ecx
.LBB23_172:                             # %cond.end449
.LBB23_173:                             # %cond.end451
	movl	%eax, -12(%rbp)
	cmpl	$1, -48(%rbp)
	jne	.LBB23_184
# %bb.174:                              # %if.then455
	movl	-12(%rbp), %ecx
	movq	img, %rax
	movl	72684(%rax), %esi
	movl	-88(%rbp), %eax
	addl	$16, %eax
	cltd
	movl	$32, %edi
	idivl	%edi
	cmpl	%eax, %esi
	jge	.LBB23_176
# %bb.175:                              # %cond.true462
	movq	img, %rax
	movl	72684(%rax), %eax
	jmp	.LBB23_177
.LBB23_176:                             # %cond.false464
	movl	-88(%rbp), %eax
	addl	$16, %eax
	cltd
	movl	$32, %esi
	idivl	%esi
.LBB23_177:                             # %cond.end468
	xorl	%edx, %edx
	cmpl	%eax, %edx
	jle	.LBB23_179
# %bb.178:                              # %cond.true472
	xorl	%eax, %eax
	jmp	.LBB23_183
.LBB23_179:                             # %cond.false473
	movq	img, %rax
	movl	72684(%rax), %esi
	movl	-88(%rbp), %eax
	addl	$16, %eax
	cltd
	movl	$32, %edi
	idivl	%edi
	cmpl	%eax, %esi
	jge	.LBB23_181
# %bb.180:                              # %cond.true480
	movq	img, %rax
	movl	72684(%rax), %eax
	jmp	.LBB23_182
.LBB23_181:                             # %cond.false482
	movl	-88(%rbp), %eax
	addl	$16, %eax
	cltd
	movl	$32, %esi
	idivl	%esi
.LBB23_182:                             # %cond.end486
.LBB23_183:                             # %cond.end488
	addl	%eax, %ecx
	movl	%ecx, %eax
	cltd
	movl	$2, %ecx
	idivl	%ecx
	movl	%eax, -12(%rbp)
	jmp	.LBB23_196
.LBB23_184:                             # %if.else492
	cmpl	$3, -48(%rbp)
	jne	.LBB23_195
# %bb.185:                              # %if.then495
	movl	-12(%rbp), %ecx
	movq	img, %rax
	movl	72684(%rax), %esi
	movl	-84(%rbp), %eax
	addl	$16, %eax
	cltd
	movl	$32, %edi
	idivl	%edi
	cmpl	%eax, %esi
	jge	.LBB23_187
# %bb.186:                              # %cond.true502
	movq	img, %rax
	movl	72684(%rax), %eax
	jmp	.LBB23_188
.LBB23_187:                             # %cond.false504
	movl	-84(%rbp), %eax
	addl	$16, %eax
	cltd
	movl	$32, %esi
	idivl	%esi
.LBB23_188:                             # %cond.end508
	xorl	%edx, %edx
	cmpl	%eax, %edx
	jle	.LBB23_190
# %bb.189:                              # %cond.true512
	xorl	%eax, %eax
	jmp	.LBB23_194
.LBB23_190:                             # %cond.false513
	movq	img, %rax
	movl	72684(%rax), %esi
	movl	-84(%rbp), %eax
	addl	$16, %eax
	cltd
	movl	$32, %edi
	idivl	%edi
	cmpl	%eax, %esi
	jge	.LBB23_192
# %bb.191:                              # %cond.true520
	movq	img, %rax
	movl	72684(%rax), %eax
	jmp	.LBB23_193
.LBB23_192:                             # %cond.false522
	movl	-84(%rbp), %eax
	addl	$16, %eax
	cltd
	movl	$32, %esi
	idivl	%esi
.LBB23_193:                             # %cond.end526
.LBB23_194:                             # %cond.end528
	addl	%eax, %ecx
	movl	%ecx, %eax
	cltd
	movl	$2, %ecx
	idivl	%ecx
	movl	%eax, -12(%rbp)
.LBB23_195:                             # %if.end532
	jmp	.LBB23_196
.LBB23_196:                             # %if.end533
	jmp	.LBB23_329
.LBB23_197:                             # %if.else534
	cmpl	$2, -48(%rbp)
	jne	.LBB23_259
# %bb.198:                              # %if.then537
	movl	$-2, -16(%rbp)
.LBB23_199:                             # %for.cond538
                                        # =>This Loop Header: Depth=1
                                        #     Child Loop BB23_210 Depth 2
	cmpl	$4, -16(%rbp)
	jge	.LBB23_224
# %bb.200:                              # %for.body541
                                        #   in Loop: Header=BB23_199 Depth=1
	movl	$0, -12(%rbp)
	movl	-32(%rbp), %eax
	movl	-24(%rbp), %ecx
	addl	-16(%rbp), %ecx
	cmpl	%ecx, %eax
	jge	.LBB23_202
# %bb.201:                              # %cond.true545
                                        #   in Loop: Header=BB23_199 Depth=1
	movl	-32(%rbp), %eax
	jmp	.LBB23_203
.LBB23_202:                             # %cond.false546
                                        #   in Loop: Header=BB23_199 Depth=1
	movl	-24(%rbp), %eax
	addl	-16(%rbp), %eax
.LBB23_203:                             # %cond.end548
                                        #   in Loop: Header=BB23_199 Depth=1
	xorl	%ecx, %ecx
	cmpl	%eax, %ecx
	jle	.LBB23_205
# %bb.204:                              # %cond.true552
                                        #   in Loop: Header=BB23_199 Depth=1
	xorl	%eax, %eax
	jmp	.LBB23_209
.LBB23_205:                             # %cond.false553
                                        #   in Loop: Header=BB23_199 Depth=1
	movl	-32(%rbp), %eax
	movl	-24(%rbp), %ecx
	addl	-16(%rbp), %ecx
	cmpl	%ecx, %eax
	jge	.LBB23_207
# %bb.206:                              # %cond.true557
                                        #   in Loop: Header=BB23_199 Depth=1
	movl	-32(%rbp), %eax
	jmp	.LBB23_208
.LBB23_207:                             # %cond.false558
                                        #   in Loop: Header=BB23_199 Depth=1
	movl	-24(%rbp), %eax
	addl	-16(%rbp), %eax
.LBB23_208:                             # %cond.end560
                                        #   in Loop: Header=BB23_199 Depth=1
.LBB23_209:                             # %cond.end562
                                        #   in Loop: Header=BB23_199 Depth=1
	movl	%eax, -40(%rbp)
	movl	$-2, -20(%rbp)
.LBB23_210:                             # %for.cond564
                                        #   Parent Loop BB23_199 Depth=1
                                        # =>  This Inner Loop Header: Depth=2
	cmpl	$4, -20(%rbp)
	jge	.LBB23_222
# %bb.211:                              # %for.body567
                                        #   in Loop: Header=BB23_210 Depth=2
	movl	-36(%rbp), %eax
	movl	-28(%rbp), %ecx
	addl	-20(%rbp), %ecx
	cmpl	%ecx, %eax
	jge	.LBB23_213
# %bb.212:                              # %cond.true571
                                        #   in Loop: Header=BB23_210 Depth=2
	movl	-36(%rbp), %eax
	jmp	.LBB23_214
.LBB23_213:                             # %cond.false572
                                        #   in Loop: Header=BB23_210 Depth=2
	movl	-28(%rbp), %eax
	addl	-20(%rbp), %eax
.LBB23_214:                             # %cond.end574
                                        #   in Loop: Header=BB23_210 Depth=2
	xorl	%ecx, %ecx
	cmpl	%eax, %ecx
	jle	.LBB23_216
# %bb.215:                              # %cond.true578
                                        #   in Loop: Header=BB23_210 Depth=2
	xorl	%eax, %eax
	jmp	.LBB23_220
.LBB23_216:                             # %cond.false579
                                        #   in Loop: Header=BB23_210 Depth=2
	movl	-36(%rbp), %eax
	movl	-28(%rbp), %ecx
	addl	-20(%rbp), %ecx
	cmpl	%ecx, %eax
	jge	.LBB23_218
# %bb.217:                              # %cond.true583
                                        #   in Loop: Header=BB23_210 Depth=2
	movl	-36(%rbp), %eax
	jmp	.LBB23_219
.LBB23_218:                             # %cond.false584
                                        #   in Loop: Header=BB23_210 Depth=2
	movl	-28(%rbp), %eax
	addl	-20(%rbp), %eax
.LBB23_219:                             # %cond.end586
                                        #   in Loop: Header=BB23_210 Depth=2
.LBB23_220:                             # %cond.end588
                                        #   in Loop: Header=BB23_210 Depth=2
	movl	%eax, -44(%rbp)
	movq	-64(%rbp), %rax
	movslq	-44(%rbp), %rcx
	movq	(%rax,%rcx,8), %rax
	movslq	-40(%rbp), %rcx
	movzwl	(%rax,%rcx,2), %eax
	movl	-20(%rbp), %ecx
	addl	$2, %ecx
	movslq	%ecx, %rcx
	imull	Get_Reference_Pixel.COEF(,%rcx,4), %eax
	addl	-12(%rbp), %eax
	movl	%eax, -12(%rbp)
# %bb.221:                              # %for.inc600
                                        #   in Loop: Header=BB23_210 Depth=2
	movl	-20(%rbp), %eax
	addl	$1, %eax
	movl	%eax, -20(%rbp)
	jmp	.LBB23_210
.LBB23_222:                             # %for.end602
                                        #   in Loop: Header=BB23_199 Depth=1
	movl	-12(%rbp), %eax
	movl	-16(%rbp), %ecx
	addl	$2, %ecx
	movslq	%ecx, %rcx
	movl	%eax, -96(%rbp,%rcx,4)
# %bb.223:                              # %for.inc606
                                        #   in Loop: Header=BB23_199 Depth=1
	movl	-16(%rbp), %eax
	addl	$1, %eax
	movl	%eax, -16(%rbp)
	jmp	.LBB23_199
.LBB23_224:                             # %for.end608
	movl	$0, -12(%rbp)
	movl	$-2, -16(%rbp)
.LBB23_225:                             # %for.cond609
                                        # =>This Inner Loop Header: Depth=1
	cmpl	$4, -16(%rbp)
	jge	.LBB23_228
# %bb.226:                              # %for.body612
                                        #   in Loop: Header=BB23_225 Depth=1
	movl	-16(%rbp), %eax
	addl	$2, %eax
	cltq
	movl	-96(%rbp,%rax,4), %eax
	movl	-16(%rbp), %ecx
	addl	$2, %ecx
	movslq	%ecx, %rcx
	imull	Get_Reference_Pixel.COEF(,%rcx,4), %eax
	addl	-12(%rbp), %eax
	movl	%eax, -12(%rbp)
# %bb.227:                              # %for.inc621
                                        #   in Loop: Header=BB23_225 Depth=1
	movl	-16(%rbp), %eax
	addl	$1, %eax
	movl	%eax, -16(%rbp)
	jmp	.LBB23_225
.LBB23_228:                             # %for.end623
	movq	img, %rax
	movl	72684(%rax), %ecx
	movl	-12(%rbp), %eax
	addl	$512, %eax              # imm = 0x200
	cltd
	movl	$1024, %esi             # imm = 0x400
	idivl	%esi
	cmpl	%eax, %ecx
	jge	.LBB23_230
# %bb.229:                              # %cond.true629
	movq	img, %rax
	movl	72684(%rax), %eax
	jmp	.LBB23_231
.LBB23_230:                             # %cond.false631
	movl	-12(%rbp), %eax
	addl	$512, %eax              # imm = 0x200
	cltd
	movl	$1024, %ecx             # imm = 0x400
	idivl	%ecx
.LBB23_231:                             # %cond.end634
	xorl	%ecx, %ecx
	cmpl	%eax, %ecx
	jle	.LBB23_233
# %bb.232:                              # %cond.true638
	xorl	%eax, %eax
	jmp	.LBB23_237
.LBB23_233:                             # %cond.false639
	movq	img, %rax
	movl	72684(%rax), %ecx
	movl	-12(%rbp), %eax
	addl	$512, %eax              # imm = 0x200
	cltd
	movl	$1024, %esi             # imm = 0x400
	idivl	%esi
	cmpl	%eax, %ecx
	jge	.LBB23_235
# %bb.234:                              # %cond.true645
	movq	img, %rax
	movl	72684(%rax), %eax
	jmp	.LBB23_236
.LBB23_235:                             # %cond.false647
	movl	-12(%rbp), %eax
	addl	$512, %eax              # imm = 0x200
	cltd
	movl	$1024, %ecx             # imm = 0x400
	idivl	%ecx
.LBB23_236:                             # %cond.end650
.LBB23_237:                             # %cond.end652
	movl	%eax, -12(%rbp)
	cmpl	$1, -52(%rbp)
	jne	.LBB23_248
# %bb.238:                              # %if.then656
	movl	-12(%rbp), %ecx
	movq	img, %rax
	movl	72684(%rax), %esi
	movl	-88(%rbp), %eax
	addl	$16, %eax
	cltd
	movl	$32, %edi
	idivl	%edi
	cmpl	%eax, %esi
	jge	.LBB23_240
# %bb.239:                              # %cond.true663
	movq	img, %rax
	movl	72684(%rax), %eax
	jmp	.LBB23_241
.LBB23_240:                             # %cond.false665
	movl	-88(%rbp), %eax
	addl	$16, %eax
	cltd
	movl	$32, %esi
	idivl	%esi
.LBB23_241:                             # %cond.end669
	xorl	%edx, %edx
	cmpl	%eax, %edx
	jle	.LBB23_243
# %bb.242:                              # %cond.true673
	xorl	%eax, %eax
	jmp	.LBB23_247
.LBB23_243:                             # %cond.false674
	movq	img, %rax
	movl	72684(%rax), %esi
	movl	-88(%rbp), %eax
	addl	$16, %eax
	cltd
	movl	$32, %edi
	idivl	%edi
	cmpl	%eax, %esi
	jge	.LBB23_245
# %bb.244:                              # %cond.true681
	movq	img, %rax
	movl	72684(%rax), %eax
	jmp	.LBB23_246
.LBB23_245:                             # %cond.false683
	movl	-88(%rbp), %eax
	addl	$16, %eax
	cltd
	movl	$32, %esi
	idivl	%esi
.LBB23_246:                             # %cond.end687
.LBB23_247:                             # %cond.end689
	addl	%eax, %ecx
	movl	%ecx, %eax
	cltd
	movl	$2, %ecx
	idivl	%ecx
	movl	%eax, -12(%rbp)
	jmp	.LBB23_258
.LBB23_248:                             # %if.else693
	movl	-12(%rbp), %ecx
	movq	img, %rax
	movl	72684(%rax), %esi
	movl	-84(%rbp), %eax
	addl	$16, %eax
	cltd
	movl	$32, %edi
	idivl	%edi
	cmpl	%eax, %esi
	jge	.LBB23_250
# %bb.249:                              # %cond.true700
	movq	img, %rax
	movl	72684(%rax), %eax
	jmp	.LBB23_251
.LBB23_250:                             # %cond.false702
	movl	-84(%rbp), %eax
	addl	$16, %eax
	cltd
	movl	$32, %esi
	idivl	%esi
.LBB23_251:                             # %cond.end706
	xorl	%edx, %edx
	cmpl	%eax, %edx
	jle	.LBB23_253
# %bb.252:                              # %cond.true710
	xorl	%eax, %eax
	jmp	.LBB23_257
.LBB23_253:                             # %cond.false711
	movq	img, %rax
	movl	72684(%rax), %esi
	movl	-84(%rbp), %eax
	addl	$16, %eax
	cltd
	movl	$32, %edi
	idivl	%edi
	cmpl	%eax, %esi
	jge	.LBB23_255
# %bb.254:                              # %cond.true718
	movq	img, %rax
	movl	72684(%rax), %eax
	jmp	.LBB23_256
.LBB23_255:                             # %cond.false720
	movl	-84(%rbp), %eax
	addl	$16, %eax
	cltd
	movl	$32, %esi
	idivl	%esi
.LBB23_256:                             # %cond.end724
.LBB23_257:                             # %cond.end726
	addl	%eax, %ecx
	movl	%ecx, %eax
	cltd
	movl	$2, %ecx
	idivl	%ecx
	movl	%eax, -12(%rbp)
.LBB23_258:                             # %if.end730
	jmp	.LBB23_328
.LBB23_259:                             # %if.else731
	movl	$0, -12(%rbp)
	cmpl	$1, -48(%rbp)
	jne	.LBB23_261
# %bb.260:                              # %cond.true734
	movl	-28(%rbp), %eax
	jmp	.LBB23_262
.LBB23_261:                             # %cond.false735
	movl	-28(%rbp), %eax
	addl	$1, %eax
.LBB23_262:                             # %cond.end737
	movl	%eax, -44(%rbp)
	movl	-36(%rbp), %eax
	cmpl	-44(%rbp), %eax
	jge	.LBB23_264
# %bb.263:                              # %cond.true741
	movl	-36(%rbp), %eax
	jmp	.LBB23_265
.LBB23_264:                             # %cond.false742
	movl	-44(%rbp), %eax
.LBB23_265:                             # %cond.end743
	xorl	%ecx, %ecx
	cmpl	%eax, %ecx
	jle	.LBB23_267
# %bb.266:                              # %cond.true747
	xorl	%eax, %eax
	jmp	.LBB23_271
.LBB23_267:                             # %cond.false748
	movl	-36(%rbp), %eax
	cmpl	-44(%rbp), %eax
	jge	.LBB23_269
# %bb.268:                              # %cond.true751
	movl	-36(%rbp), %eax
	jmp	.LBB23_270
.LBB23_269:                             # %cond.false752
	movl	-44(%rbp), %eax
.LBB23_270:                             # %cond.end753
.LBB23_271:                             # %cond.end755
	movl	%eax, -44(%rbp)
	movl	$-2, -16(%rbp)
.LBB23_272:                             # %for.cond757
                                        # =>This Inner Loop Header: Depth=1
	cmpl	$4, -16(%rbp)
	jge	.LBB23_284
# %bb.273:                              # %for.body760
                                        #   in Loop: Header=BB23_272 Depth=1
	movl	-32(%rbp), %eax
	movl	-24(%rbp), %ecx
	addl	-16(%rbp), %ecx
	cmpl	%ecx, %eax
	jge	.LBB23_275
# %bb.274:                              # %cond.true764
                                        #   in Loop: Header=BB23_272 Depth=1
	movl	-32(%rbp), %eax
	jmp	.LBB23_276
.LBB23_275:                             # %cond.false765
                                        #   in Loop: Header=BB23_272 Depth=1
	movl	-24(%rbp), %eax
	addl	-16(%rbp), %eax
.LBB23_276:                             # %cond.end767
                                        #   in Loop: Header=BB23_272 Depth=1
	xorl	%ecx, %ecx
	cmpl	%eax, %ecx
	jle	.LBB23_278
# %bb.277:                              # %cond.true771
                                        #   in Loop: Header=BB23_272 Depth=1
	xorl	%eax, %eax
	jmp	.LBB23_282
.LBB23_278:                             # %cond.false772
                                        #   in Loop: Header=BB23_272 Depth=1
	movl	-32(%rbp), %eax
	movl	-24(%rbp), %ecx
	addl	-16(%rbp), %ecx
	cmpl	%ecx, %eax
	jge	.LBB23_280
# %bb.279:                              # %cond.true776
                                        #   in Loop: Header=BB23_272 Depth=1
	movl	-32(%rbp), %eax
	jmp	.LBB23_281
.LBB23_280:                             # %cond.false777
                                        #   in Loop: Header=BB23_272 Depth=1
	movl	-24(%rbp), %eax
	addl	-16(%rbp), %eax
.LBB23_281:                             # %cond.end779
                                        #   in Loop: Header=BB23_272 Depth=1
.LBB23_282:                             # %cond.end781
                                        #   in Loop: Header=BB23_272 Depth=1
	movl	%eax, -40(%rbp)
	movq	-64(%rbp), %rax
	movslq	-44(%rbp), %rcx
	movq	(%rax,%rcx,8), %rax
	movslq	-40(%rbp), %rcx
	movzwl	(%rax,%rcx,2), %eax
	movl	-16(%rbp), %ecx
	addl	$2, %ecx
	movslq	%ecx, %rcx
	imull	Get_Reference_Pixel.COEF(,%rcx,4), %eax
	addl	-12(%rbp), %eax
	movl	%eax, -12(%rbp)
# %bb.283:                              # %for.inc793
                                        #   in Loop: Header=BB23_272 Depth=1
	movl	-16(%rbp), %eax
	addl	$1, %eax
	movl	%eax, -16(%rbp)
	jmp	.LBB23_272
.LBB23_284:                             # %for.end795
	movq	img, %rax
	movl	72684(%rax), %ecx
	movl	-12(%rbp), %eax
	addl	$16, %eax
	cltd
	movl	$32, %esi
	idivl	%esi
	cmpl	%eax, %ecx
	jge	.LBB23_286
# %bb.285:                              # %cond.true801
	movq	img, %rax
	movl	72684(%rax), %eax
	jmp	.LBB23_287
.LBB23_286:                             # %cond.false803
	movl	-12(%rbp), %eax
	addl	$16, %eax
	cltd
	movl	$32, %ecx
	idivl	%ecx
.LBB23_287:                             # %cond.end806
	xorl	%ecx, %ecx
	cmpl	%eax, %ecx
	jle	.LBB23_289
# %bb.288:                              # %cond.true810
	xorl	%eax, %eax
	jmp	.LBB23_293
.LBB23_289:                             # %cond.false811
	movq	img, %rax
	movl	72684(%rax), %ecx
	movl	-12(%rbp), %eax
	addl	$16, %eax
	cltd
	movl	$32, %esi
	idivl	%esi
	cmpl	%eax, %ecx
	jge	.LBB23_291
# %bb.290:                              # %cond.true817
	movq	img, %rax
	movl	72684(%rax), %eax
	jmp	.LBB23_292
.LBB23_291:                             # %cond.false819
	movl	-12(%rbp), %eax
	addl	$16, %eax
	cltd
	movl	$32, %ecx
	idivl	%ecx
.LBB23_292:                             # %cond.end822
.LBB23_293:                             # %cond.end824
	movl	%eax, -108(%rbp)
	movl	$0, -12(%rbp)
	cmpl	$1, -52(%rbp)
	jne	.LBB23_295
# %bb.294:                              # %cond.true828
	movl	-24(%rbp), %eax
	jmp	.LBB23_296
.LBB23_295:                             # %cond.false829
	movl	-24(%rbp), %eax
	addl	$1, %eax
.LBB23_296:                             # %cond.end831
	movl	%eax, -40(%rbp)
	movl	-32(%rbp), %eax
	cmpl	-40(%rbp), %eax
	jge	.LBB23_298
# %bb.297:                              # %cond.true835
	movl	-32(%rbp), %eax
	jmp	.LBB23_299
.LBB23_298:                             # %cond.false836
	movl	-40(%rbp), %eax
.LBB23_299:                             # %cond.end837
	xorl	%ecx, %ecx
	cmpl	%eax, %ecx
	jle	.LBB23_301
# %bb.300:                              # %cond.true841
	xorl	%eax, %eax
	jmp	.LBB23_305
.LBB23_301:                             # %cond.false842
	movl	-32(%rbp), %eax
	cmpl	-40(%rbp), %eax
	jge	.LBB23_303
# %bb.302:                              # %cond.true845
	movl	-32(%rbp), %eax
	jmp	.LBB23_304
.LBB23_303:                             # %cond.false846
	movl	-40(%rbp), %eax
.LBB23_304:                             # %cond.end847
.LBB23_305:                             # %cond.end849
	movl	%eax, -40(%rbp)
	movl	$-2, -20(%rbp)
.LBB23_306:                             # %for.cond851
                                        # =>This Inner Loop Header: Depth=1
	cmpl	$4, -20(%rbp)
	jge	.LBB23_318
# %bb.307:                              # %for.body854
                                        #   in Loop: Header=BB23_306 Depth=1
	movl	-36(%rbp), %eax
	movl	-28(%rbp), %ecx
	addl	-20(%rbp), %ecx
	cmpl	%ecx, %eax
	jge	.LBB23_309
# %bb.308:                              # %cond.true858
                                        #   in Loop: Header=BB23_306 Depth=1
	movl	-36(%rbp), %eax
	jmp	.LBB23_310
.LBB23_309:                             # %cond.false859
                                        #   in Loop: Header=BB23_306 Depth=1
	movl	-28(%rbp), %eax
	addl	-20(%rbp), %eax
.LBB23_310:                             # %cond.end861
                                        #   in Loop: Header=BB23_306 Depth=1
	xorl	%ecx, %ecx
	cmpl	%eax, %ecx
	jle	.LBB23_312
# %bb.311:                              # %cond.true865
                                        #   in Loop: Header=BB23_306 Depth=1
	xorl	%eax, %eax
	jmp	.LBB23_316
.LBB23_312:                             # %cond.false866
                                        #   in Loop: Header=BB23_306 Depth=1
	movl	-36(%rbp), %eax
	movl	-28(%rbp), %ecx
	addl	-20(%rbp), %ecx
	cmpl	%ecx, %eax
	jge	.LBB23_314
# %bb.313:                              # %cond.true870
                                        #   in Loop: Header=BB23_306 Depth=1
	movl	-36(%rbp), %eax
	jmp	.LBB23_315
.LBB23_314:                             # %cond.false871
                                        #   in Loop: Header=BB23_306 Depth=1
	movl	-28(%rbp), %eax
	addl	-20(%rbp), %eax
.LBB23_315:                             # %cond.end873
                                        #   in Loop: Header=BB23_306 Depth=1
.LBB23_316:                             # %cond.end875
                                        #   in Loop: Header=BB23_306 Depth=1
	movl	%eax, -44(%rbp)
	movq	-64(%rbp), %rax
	movslq	-44(%rbp), %rcx
	movq	(%rax,%rcx,8), %rax
	movslq	-40(%rbp), %rcx
	movzwl	(%rax,%rcx,2), %eax
	movl	-20(%rbp), %ecx
	addl	$2, %ecx
	movslq	%ecx, %rcx
	imull	Get_Reference_Pixel.COEF(,%rcx,4), %eax
	addl	-12(%rbp), %eax
	movl	%eax, -12(%rbp)
# %bb.317:                              # %for.inc887
                                        #   in Loop: Header=BB23_306 Depth=1
	movl	-20(%rbp), %eax
	addl	$1, %eax
	movl	%eax, -20(%rbp)
	jmp	.LBB23_306
.LBB23_318:                             # %for.end889
	movq	img, %rax
	movl	72684(%rax), %ecx
	movl	-12(%rbp), %eax
	addl	$16, %eax
	cltd
	movl	$32, %esi
	idivl	%esi
	cmpl	%eax, %ecx
	jge	.LBB23_320
# %bb.319:                              # %cond.true895
	movq	img, %rax
	movl	72684(%rax), %eax
	jmp	.LBB23_321
.LBB23_320:                             # %cond.false897
	movl	-12(%rbp), %eax
	addl	$16, %eax
	cltd
	movl	$32, %ecx
	idivl	%ecx
.LBB23_321:                             # %cond.end900
	xorl	%ecx, %ecx
	cmpl	%eax, %ecx
	jle	.LBB23_323
# %bb.322:                              # %cond.true904
	xorl	%eax, %eax
	jmp	.LBB23_327
.LBB23_323:                             # %cond.false905
	movq	img, %rax
	movl	72684(%rax), %ecx
	movl	-12(%rbp), %eax
	addl	$16, %eax
	cltd
	movl	$32, %esi
	idivl	%esi
	cmpl	%eax, %ecx
	jge	.LBB23_325
# %bb.324:                              # %cond.true911
	movq	img, %rax
	movl	72684(%rax), %eax
	jmp	.LBB23_326
.LBB23_325:                             # %cond.false913
	movl	-12(%rbp), %eax
	addl	$16, %eax
	cltd
	movl	$32, %ecx
	idivl	%ecx
.LBB23_326:                             # %cond.end916
.LBB23_327:                             # %cond.end918
	movl	%eax, -100(%rbp)
	movl	-108(%rbp), %eax
	addl	-100(%rbp), %eax
	cltd
	movl	$2, %ecx
	idivl	%ecx
	movl	%eax, -12(%rbp)
.LBB23_328:                             # %if.end922
	jmp	.LBB23_329
.LBB23_329:                             # %if.end923
	jmp	.LBB23_330
.LBB23_330:                             # %if.end924
	jmp	.LBB23_331
.LBB23_331:                             # %if.end925
	jmp	.LBB23_332
.LBB23_332:                             # %if.end926
	movl	-12(%rbp), %ebx
	cmpl	$832450314, -104(%rbp)  # imm = 0x319E2F0A
	jne	.LBB23_334
.LBB23_333:
	movzbl	%bl, %eax
	addq	$104, %rsp
	popq	%rbx
	popq	%rbp
	.cfi_def_cfa %rsp, 8
	retq
.LBB23_334:                             # %func_exit
	.cfi_def_cfa %rbp, 16
	callq	detect_breach
	jmp	.LBB23_333
.Lfunc_end23:
	.size	Get_Reference_Pixel.13, .Lfunc_end23-Get_Reference_Pixel.13
	.cfi_endproc
                                        # -- End function
	.globl	Get_Reference_Block.14  # -- Begin function Get_Reference_Block.14
	.p2align	4, 0x90
	.type	Get_Reference_Block.14,@function
Get_Reference_Block.14:                 # @Get_Reference_Block.14
	.cfi_startproc
# %bb.0:                                # %entry
	pushq	%rbp
	.cfi_def_cfa_offset 16
	.cfi_offset %rbp, -16
	movq	%rsp, %rbp
	.cfi_def_cfa_register %rbp
	subq	$64, %rsp
	movl	$973764121, -16(%rbp)   # imm = 0x3A0A7619
	movq	%rdi, -48(%rbp)
	movl	%esi, -32(%rbp)
	movl	%edx, -12(%rbp)
	movl	%ecx, -28(%rbp)
	movl	%r8d, -20(%rbp)
	movq	%r9, -56(%rbp)
	movl	-32(%rbp), %eax
	shll	$2, %eax
	shll	$2, %eax
	addl	-20(%rbp), %eax
	movl	%eax, -36(%rbp)
	movl	-12(%rbp), %eax
	shll	$2, %eax
	shll	$2, %eax
	addl	-28(%rbp), %eax
	movl	%eax, -24(%rbp)
	movl	$0, -8(%rbp)
.LBB24_1:                               # %for.cond
                                        # =>This Loop Header: Depth=1
                                        #     Child Loop BB24_3 Depth 2
	cmpl	$4, -8(%rbp)
	jge	.LBB24_8
# %bb.2:                                # %for.body
                                        #   in Loop: Header=BB24_1 Depth=1
	movl	$0, -4(%rbp)
.LBB24_3:                               # %for.cond5
                                        #   Parent Loop BB24_1 Depth=1
                                        # =>  This Inner Loop Header: Depth=2
	cmpl	$4, -4(%rbp)
	jge	.LBB24_6
# %bb.4:                                # %for.body7
                                        #   in Loop: Header=BB24_3 Depth=2
	movq	-48(%rbp), %rdi
	movl	-36(%rbp), %esi
	movl	-8(%rbp), %eax
	shll	$2, %eax
	addl	%eax, %esi
	movl	-24(%rbp), %edx
	movl	-4(%rbp), %eax
	shll	$2, %eax
	addl	%eax, %edx
	callq	Get_Reference_Pixel
	movzbl	%al, %eax
	movq	-56(%rbp), %rcx
	movslq	-8(%rbp), %rdx
	movq	(%rcx,%rdx,8), %rcx
	movslq	-4(%rbp), %rdx
	movw	%ax, (%rcx,%rdx,2)
# %bb.5:                                # %for.inc
                                        #   in Loop: Header=BB24_3 Depth=2
	movl	-4(%rbp), %eax
	addl	$1, %eax
	movl	%eax, -4(%rbp)
	jmp	.LBB24_3
.LBB24_6:                               # %for.end
                                        #   in Loop: Header=BB24_1 Depth=1
	jmp	.LBB24_7
.LBB24_7:                               # %for.inc14
                                        #   in Loop: Header=BB24_1 Depth=1
	movl	-8(%rbp), %eax
	addl	$1, %eax
	movl	%eax, -8(%rbp)
	jmp	.LBB24_1
.LBB24_8:                               # %for.end16
	cmpl	$973764121, -16(%rbp)   # imm = 0x3A0A7619
	jne	.LBB24_10
.LBB24_9:
	addq	$64, %rsp
	popq	%rbp
	.cfi_def_cfa %rsp, 8
	retq
.LBB24_10:                              # %func_exit
	.cfi_def_cfa %rbp, 16
	callq	detect_breach
	jmp	.LBB24_9
.Lfunc_end24:
	.size	Get_Reference_Block.14, .Lfunc_end24-Get_Reference_Block.14
	.cfi_endproc
                                        # -- End function
	.globl	Error_Concealment.15    # -- Begin function Error_Concealment.15
	.p2align	4, 0x90
	.type	Error_Concealment.15,@function
Error_Concealment.15:                   # @Error_Concealment.15
	.cfi_startproc
# %bb.0:                                # %entry
	pushq	%rbp
	.cfi_def_cfa_offset 16
	.cfi_offset %rbp, -16
	movq	%rsp, %rbp
	.cfi_def_cfa_register %rbp
	subq	$48, %rsp
	movl	$223515053, -16(%rbp)   # imm = 0xD5291AD
	movq	%rdi, -48(%rbp)
	movq	%rsi, -32(%rbp)
	movq	%rdx, -40(%rbp)
	movq	img, %rax
	movl	60(%rax), %eax
	cltd
	movl	$16, %ecx
	idivl	%ecx
	movl	%eax, -20(%rbp)
	movq	img, %rax
	movl	52(%rax), %eax
	cltd
	idivl	%ecx
	movl	%eax, -12(%rbp)
	movl	$0, -8(%rbp)
.LBB25_1:                               # %for.cond
                                        # =>This Loop Header: Depth=1
                                        #     Child Loop BB25_3 Depth 2
	movl	-8(%rbp), %eax
	cmpl	-20(%rbp), %eax
	jge	.LBB25_10
# %bb.2:                                # %for.body
                                        #   in Loop: Header=BB25_1 Depth=1
	movl	$0, -4(%rbp)
.LBB25_3:                               # %for.cond2
                                        #   Parent Loop BB25_1 Depth=1
                                        # =>  This Inner Loop Header: Depth=2
	movl	-4(%rbp), %eax
	cmpl	-12(%rbp), %eax
	jge	.LBB25_8
# %bb.4:                                # %for.body4
                                        #   in Loop: Header=BB25_3 Depth=2
	movq	-32(%rbp), %rax
	movslq	-8(%rbp), %rcx
	movq	(%rax,%rcx,8), %rax
	movslq	-4(%rbp), %rcx
	cmpb	$0, (%rax,%rcx)
	je	.LBB25_6
# %bb.5:                                # %if.then
                                        #   in Loop: Header=BB25_3 Depth=2
	movq	-48(%rbp), %rdi
	movl	-8(%rbp), %esi
	movl	-4(%rbp), %edx
	movq	-40(%rbp), %rcx
	movq	-32(%rbp), %r8
	callq	Conceal_Error
.LBB25_6:                               # %if.end
                                        #   in Loop: Header=BB25_3 Depth=2
	jmp	.LBB25_7
.LBB25_7:                               # %for.inc
                                        #   in Loop: Header=BB25_3 Depth=2
	movl	-4(%rbp), %eax
	addl	$1, %eax
	movl	%eax, -4(%rbp)
	jmp	.LBB25_3
.LBB25_8:                               # %for.end
                                        #   in Loop: Header=BB25_1 Depth=1
	jmp	.LBB25_9
.LBB25_9:                               # %for.inc7
                                        #   in Loop: Header=BB25_1 Depth=1
	movl	-8(%rbp), %eax
	addl	$1, %eax
	movl	%eax, -8(%rbp)
	jmp	.LBB25_1
.LBB25_10:                              # %for.end9
	cmpl	$223515053, -16(%rbp)   # imm = 0xD5291AD
	jne	.LBB25_12
.LBB25_11:
	addq	$48, %rsp
	popq	%rbp
	.cfi_def_cfa %rsp, 8
	retq
.LBB25_12:                              # %func_exit
	.cfi_def_cfa %rbp, 16
	callq	detect_breach
	jmp	.LBB25_11
.Lfunc_end25:
	.size	Error_Concealment.15, .Lfunc_end25-Error_Concealment.15
	.cfi_endproc
                                        # -- End function
	.section	.rodata.cst8,"aM",@progbits,8
	.p2align	3               # -- Begin function Build_Status_Map.16
.LCPI26_0:
	.quad	4636737291354636288     # double 100
.LCPI26_1:
	.quad	4746794007244308480     # double 2147483647
	.text
	.globl	Build_Status_Map.16
	.p2align	4, 0x90
	.type	Build_Status_Map.16,@function
Build_Status_Map.16:                    # @Build_Status_Map.16
	.cfi_startproc
# %bb.0:                                # %entry
	pushq	%rbp
	.cfi_def_cfa_offset 16
	.cfi_offset %rbp, -16
	movq	%rsp, %rbp
	.cfi_def_cfa_register %rbp
	subq	$48, %rsp
	movl	$724089604, -40(%rbp)   # imm = 0x2B28BB04
	movq	%rdi, -32(%rbp)
	movl	$-1, -20(%rbp)
	movl	$0, -16(%rbp)
	movl	$0, -4(%rbp)
	movq	img, %rax
	movl	60(%rax), %eax
	cltd
	movl	$16, %ecx
	idivl	%ecx
	movl	%eax, -36(%rbp)
	movq	img, %rax
	movl	52(%rax), %eax
	cltd
	idivl	%ecx
	movl	%eax, -44(%rbp)
	movl	$0, -12(%rbp)
.LBB26_1:                               # %for.cond
                                        # =>This Loop Header: Depth=1
                                        #     Child Loop BB26_3 Depth 2
	movl	-12(%rbp), %eax
	cmpl	-36(%rbp), %eax
	jge	.LBB26_22
# %bb.2:                                # %for.body
                                        #   in Loop: Header=BB26_1 Depth=1
	movl	$0, -8(%rbp)
.LBB26_3:                               # %for.cond2
                                        #   Parent Loop BB26_1 Depth=1
                                        # =>  This Inner Loop Header: Depth=2
	movl	-8(%rbp), %eax
	cmpl	-44(%rbp), %eax
	jge	.LBB26_20
# %bb.4:                                # %for.body4
                                        #   in Loop: Header=BB26_3 Depth=2
	movq	input, %rax
	cmpl	$0, 208(%rax)
	je	.LBB26_6
# %bb.5:                                # %lor.lhs.false
                                        #   in Loop: Header=BB26_3 Depth=2
	movq	img, %rax
	movq	14168(%rax), %rax
	movslq	-16(%rbp), %rcx
	imulq	$632, %rcx, %rcx        # imm = 0x278
	addq	%rcx, %rax
	movl	4(%rax), %eax
	cmpl	-20(%rbp), %eax
	je	.LBB26_13
.LBB26_6:                               # %if.then
                                        #   in Loop: Header=BB26_3 Depth=2
	movl	$0, -4(%rbp)
	callq	rand
	vmovsd	.LCPI26_0(%rip), %xmm0  # xmm0 = mem[0],zero
	vmovsd	.LCPI26_1(%rip), %xmm1  # xmm1 = mem[0],zero
	vcvtsi2sd	%eax, %xmm0, %xmm2
	vdivsd	%xmm1, %xmm2, %xmm1
	vmulsd	%xmm0, %xmm1, %xmm0
	movq	input, %rax
	vcvtsi2sdl	2900(%rax), %xmm0, %xmm1
	vucomisd	%xmm0, %xmm1
	jbe	.LBB26_8
# %bb.7:                                # %if.then10
                                        #   in Loop: Header=BB26_3 Depth=2
	movl	-4(%rbp), %eax
	addl	$3, %eax
	movl	%eax, -4(%rbp)
.LBB26_8:                               # %if.end
                                        #   in Loop: Header=BB26_3 Depth=2
	callq	rand
	vmovsd	.LCPI26_0(%rip), %xmm0  # xmm0 = mem[0],zero
	vmovsd	.LCPI26_1(%rip), %xmm1  # xmm1 = mem[0],zero
	vcvtsi2sd	%eax, %xmm0, %xmm2
	vdivsd	%xmm1, %xmm2, %xmm1
	vmulsd	%xmm0, %xmm1, %xmm0
	movq	input, %rax
	vcvtsi2sdl	2896(%rax), %xmm0, %xmm1
	vucomisd	%xmm0, %xmm1
	jbe	.LBB26_10
# %bb.9:                                # %if.then18
                                        #   in Loop: Header=BB26_3 Depth=2
	movl	-4(%rbp), %eax
	addl	$2, %eax
	movl	%eax, -4(%rbp)
.LBB26_10:                              # %if.end20
                                        #   in Loop: Header=BB26_3 Depth=2
	callq	rand
	vmovsd	.LCPI26_0(%rip), %xmm0  # xmm0 = mem[0],zero
	vmovsd	.LCPI26_1(%rip), %xmm1  # xmm1 = mem[0],zero
	vcvtsi2sd	%eax, %xmm0, %xmm2
	vdivsd	%xmm1, %xmm2, %xmm1
	vmulsd	%xmm0, %xmm1, %xmm0
	movq	input, %rax
	vcvtsi2sdl	2892(%rax), %xmm0, %xmm1
	vucomisd	%xmm0, %xmm1
	jbe	.LBB26_12
# %bb.11:                               # %if.then28
                                        #   in Loop: Header=BB26_3 Depth=2
	movl	$1, -4(%rbp)
.LBB26_12:                              # %if.end29
                                        #   in Loop: Header=BB26_3 Depth=2
	movl	-20(%rbp), %eax
	addl	$1, %eax
	movl	%eax, -20(%rbp)
.LBB26_13:                              # %if.end30
                                        #   in Loop: Header=BB26_3 Depth=2
	cmpl	$0, -4(%rbp)
	jne	.LBB26_15
# %bb.14:                               # %if.then32
                                        #   in Loop: Header=BB26_3 Depth=2
	movq	-32(%rbp), %rax
	movslq	-12(%rbp), %rcx
	movq	(%rax,%rcx,8), %rax
	movslq	-8(%rbp), %rcx
	movb	$0, (%rax,%rcx)
	jmp	.LBB26_18
.LBB26_15:                              # %if.else
                                        #   in Loop: Header=BB26_3 Depth=2
	movl	-4(%rbp), %eax
	movq	-32(%rbp), %rcx
	movslq	-12(%rbp), %rdx
	movq	(%rcx,%rdx,8), %rcx
	movslq	-8(%rbp), %rdx
	movb	%al, (%rcx,%rdx)
	movq	input, %rax
	cmpl	$0, 2364(%rax)
	jne	.LBB26_17
# %bb.16:                               # %if.then44
                                        #   in Loop: Header=BB26_3 Depth=2
	movq	-32(%rbp), %rax
	movslq	-12(%rbp), %rcx
	movq	(%rax,%rcx,8), %rax
	movslq	-8(%rbp), %rcx
	movb	$1, (%rax,%rcx)
.LBB26_17:                              # %if.end49
                                        #   in Loop: Header=BB26_3 Depth=2
	jmp	.LBB26_18
.LBB26_18:                              # %if.end50
                                        #   in Loop: Header=BB26_3 Depth=2
	movl	-16(%rbp), %eax
	addl	$1, %eax
	movl	%eax, -16(%rbp)
# %bb.19:                               # %for.inc
                                        #   in Loop: Header=BB26_3 Depth=2
	movl	-8(%rbp), %eax
	addl	$1, %eax
	movl	%eax, -8(%rbp)
	jmp	.LBB26_3
.LBB26_20:                              # %for.end
                                        #   in Loop: Header=BB26_1 Depth=1
	jmp	.LBB26_21
.LBB26_21:                              # %for.inc53
                                        #   in Loop: Header=BB26_1 Depth=1
	movl	-12(%rbp), %eax
	addl	$1, %eax
	movl	%eax, -12(%rbp)
	jmp	.LBB26_1
.LBB26_22:                              # %for.end55
	cmpl	$724089604, -40(%rbp)   # imm = 0x2B28BB04
	jne	.LBB26_24
.LBB26_23:
	addq	$48, %rsp
	popq	%rbp
	.cfi_def_cfa %rsp, 8
	retq
.LBB26_24:                              # %func_exit
	.cfi_def_cfa %rbp, 16
	callq	detect_breach
	jmp	.LBB26_23
.Lfunc_end26:
	.size	Build_Status_Map.16, .Lfunc_end26-Build_Status_Map.16
	.cfi_endproc
                                        # -- End function
	.section	.rodata.cst8,"aM",@progbits,8
	.p2align	3               # -- Begin function Build_Status_Map.17
.LCPI27_0:
	.quad	4636737291354636288     # double 100
.LCPI27_1:
	.quad	4746794007244308480     # double 2147483647
	.text
	.globl	Build_Status_Map.17
	.p2align	4, 0x90
	.type	Build_Status_Map.17,@function
Build_Status_Map.17:                    # @Build_Status_Map.17
	.cfi_startproc
# %bb.0:                                # %entry
	pushq	%rbp
	.cfi_def_cfa_offset 16
	.cfi_offset %rbp, -16
	movq	%rsp, %rbp
	.cfi_def_cfa_register %rbp
	subq	$48, %rsp
	movl	$974792523, -40(%rbp)   # imm = 0x3A1A274B
	movq	%rdi, -32(%rbp)
	movl	$-1, -20(%rbp)
	movl	$0, -16(%rbp)
	movl	$0, -4(%rbp)
	movq	img, %rax
	movl	60(%rax), %eax
	cltd
	movl	$16, %ecx
	idivl	%ecx
	movl	%eax, -44(%rbp)
	movq	img, %rax
	movl	52(%rax), %eax
	cltd
	idivl	%ecx
	movl	%eax, -36(%rbp)
	movl	$0, -8(%rbp)
.LBB27_1:                               # %for.cond
                                        # =>This Loop Header: Depth=1
                                        #     Child Loop BB27_3 Depth 2
	movl	-8(%rbp), %eax
	cmpl	-44(%rbp), %eax
	jge	.LBB27_22
# %bb.2:                                # %for.body
                                        #   in Loop: Header=BB27_1 Depth=1
	movl	$0, -12(%rbp)
.LBB27_3:                               # %for.cond2
                                        #   Parent Loop BB27_1 Depth=1
                                        # =>  This Inner Loop Header: Depth=2
	movl	-12(%rbp), %eax
	cmpl	-36(%rbp), %eax
	jge	.LBB27_20
# %bb.4:                                # %for.body4
                                        #   in Loop: Header=BB27_3 Depth=2
	movq	input, %rax
	cmpl	$0, 208(%rax)
	je	.LBB27_6
# %bb.5:                                # %lor.lhs.false
                                        #   in Loop: Header=BB27_3 Depth=2
	movq	img, %rax
	movq	14168(%rax), %rax
	movslq	-16(%rbp), %rcx
	imulq	$632, %rcx, %rcx        # imm = 0x278
	addq	%rcx, %rax
	movl	4(%rax), %eax
	cmpl	-20(%rbp), %eax
	je	.LBB27_13
.LBB27_6:                               # %if.then
                                        #   in Loop: Header=BB27_3 Depth=2
	movl	$0, -4(%rbp)
	callq	rand
	vmovsd	.LCPI27_0(%rip), %xmm0  # xmm0 = mem[0],zero
	vmovsd	.LCPI27_1(%rip), %xmm1  # xmm1 = mem[0],zero
	vcvtsi2sd	%eax, %xmm0, %xmm2
	vdivsd	%xmm1, %xmm2, %xmm1
	vmulsd	%xmm0, %xmm1, %xmm0
	movq	input, %rax
	vcvtsi2sdl	2900(%rax), %xmm0, %xmm1
	vucomisd	%xmm0, %xmm1
	jbe	.LBB27_8
# %bb.7:                                # %if.then10
                                        #   in Loop: Header=BB27_3 Depth=2
	movl	-4(%rbp), %eax
	addl	$3, %eax
	movl	%eax, -4(%rbp)
.LBB27_8:                               # %if.end
                                        #   in Loop: Header=BB27_3 Depth=2
	callq	rand
	vmovsd	.LCPI27_0(%rip), %xmm0  # xmm0 = mem[0],zero
	vmovsd	.LCPI27_1(%rip), %xmm1  # xmm1 = mem[0],zero
	vcvtsi2sd	%eax, %xmm0, %xmm2
	vdivsd	%xmm1, %xmm2, %xmm1
	vmulsd	%xmm0, %xmm1, %xmm0
	movq	input, %rax
	vcvtsi2sdl	2896(%rax), %xmm0, %xmm1
	vucomisd	%xmm0, %xmm1
	jbe	.LBB27_10
# %bb.9:                                # %if.then18
                                        #   in Loop: Header=BB27_3 Depth=2
	movl	-4(%rbp), %eax
	addl	$2, %eax
	movl	%eax, -4(%rbp)
.LBB27_10:                              # %if.end20
                                        #   in Loop: Header=BB27_3 Depth=2
	callq	rand
	vmovsd	.LCPI27_0(%rip), %xmm0  # xmm0 = mem[0],zero
	vmovsd	.LCPI27_1(%rip), %xmm1  # xmm1 = mem[0],zero
	vcvtsi2sd	%eax, %xmm0, %xmm2
	vdivsd	%xmm1, %xmm2, %xmm1
	vmulsd	%xmm0, %xmm1, %xmm0
	movq	input, %rax
	vcvtsi2sdl	2892(%rax), %xmm0, %xmm1
	vucomisd	%xmm0, %xmm1
	jbe	.LBB27_12
# %bb.11:                               # %if.then28
                                        #   in Loop: Header=BB27_3 Depth=2
	movl	$1, -4(%rbp)
.LBB27_12:                              # %if.end29
                                        #   in Loop: Header=BB27_3 Depth=2
	movl	-20(%rbp), %eax
	addl	$1, %eax
	movl	%eax, -20(%rbp)
.LBB27_13:                              # %if.end30
                                        #   in Loop: Header=BB27_3 Depth=2
	cmpl	$0, -4(%rbp)
	jne	.LBB27_15
# %bb.14:                               # %if.then32
                                        #   in Loop: Header=BB27_3 Depth=2
	movq	-32(%rbp), %rax
	movslq	-8(%rbp), %rcx
	movq	(%rax,%rcx,8), %rax
	movslq	-12(%rbp), %rcx
	movb	$0, (%rax,%rcx)
	jmp	.LBB27_18
.LBB27_15:                              # %if.else
                                        #   in Loop: Header=BB27_3 Depth=2
	movl	-4(%rbp), %eax
	movq	-32(%rbp), %rcx
	movslq	-8(%rbp), %rdx
	movq	(%rcx,%rdx,8), %rcx
	movslq	-12(%rbp), %rdx
	movb	%al, (%rcx,%rdx)
	movq	input, %rax
	cmpl	$0, 2364(%rax)
	jne	.LBB27_17
# %bb.16:                               # %if.then44
                                        #   in Loop: Header=BB27_3 Depth=2
	movq	-32(%rbp), %rax
	movslq	-8(%rbp), %rcx
	movq	(%rax,%rcx,8), %rax
	movslq	-12(%rbp), %rcx
	movb	$1, (%rax,%rcx)
.LBB27_17:                              # %if.end49
                                        #   in Loop: Header=BB27_3 Depth=2
	jmp	.LBB27_18
.LBB27_18:                              # %if.end50
                                        #   in Loop: Header=BB27_3 Depth=2
	movl	-16(%rbp), %eax
	addl	$1, %eax
	movl	%eax, -16(%rbp)
# %bb.19:                               # %for.inc
                                        #   in Loop: Header=BB27_3 Depth=2
	movl	-12(%rbp), %eax
	addl	$1, %eax
	movl	%eax, -12(%rbp)
	jmp	.LBB27_3
.LBB27_20:                              # %for.end
                                        #   in Loop: Header=BB27_1 Depth=1
	jmp	.LBB27_21
.LBB27_21:                              # %for.inc53
                                        #   in Loop: Header=BB27_1 Depth=1
	movl	-8(%rbp), %eax
	addl	$1, %eax
	movl	%eax, -8(%rbp)
	jmp	.LBB27_1
.LBB27_22:                              # %for.end55
	cmpl	$974792523, -40(%rbp)   # imm = 0x3A1A274B
	jne	.LBB27_24
.LBB27_23:
	addq	$48, %rsp
	popq	%rbp
	.cfi_def_cfa %rsp, 8
	retq
.LBB27_24:                              # %func_exit
	.cfi_def_cfa %rbp, 16
	callq	detect_breach
	jmp	.LBB27_23
.Lfunc_end27:
	.size	Build_Status_Map.17, .Lfunc_end27-Build_Status_Map.17
	.cfi_endproc
                                        # -- End function
	.globl	Get_Reference_Pixel.18  # -- Begin function Get_Reference_Pixel.18
	.p2align	4, 0x90
	.type	Get_Reference_Pixel.18,@function
Get_Reference_Pixel.18:                 # @Get_Reference_Pixel.18
	.cfi_startproc
# %bb.0:                                # %entry
	pushq	%rbp
	.cfi_def_cfa_offset 16
	.cfi_offset %rbp, -16
	movq	%rsp, %rbp
	.cfi_def_cfa_register %rbp
	pushq	%rbx
	subq	$104, %rsp
	.cfi_offset %rbx, -24
	movl	$880756962, -100(%rbp)  # imm = 0x347F48E2
	movq	%rdi, -64(%rbp)
	movl	%esi, -24(%rbp)
	movl	%edx, -28(%rbp)
	movl	$0, -12(%rbp)
	movl	-28(%rbp), %eax
	andl	$3, %eax
	movl	%eax, -52(%rbp)
	movl	-24(%rbp), %eax
	andl	$3, %eax
	movl	%eax, -48(%rbp)
	movl	-28(%rbp), %eax
	subl	-52(%rbp), %eax
	cltd
	movl	$4, %ecx
	idivl	%ecx
	movl	%eax, -28(%rbp)
	movl	-24(%rbp), %eax
	subl	-48(%rbp), %eax
	cltd
	idivl	%ecx
	movl	%eax, -24(%rbp)
	movq	img, %rax
	movl	52(%rax), %eax
	subl	$1, %eax
	movl	%eax, -32(%rbp)
	movq	img, %rax
	movl	60(%rax), %eax
	subl	$1, %eax
	movl	%eax, -36(%rbp)
	cmpl	$0, -52(%rbp)
	jne	.LBB28_21
# %bb.1:                                # %land.lhs.true
	cmpl	$0, -48(%rbp)
	jne	.LBB28_21
# %bb.2:                                # %if.then
	movq	-64(%rbp), %rax
	movl	-36(%rbp), %ecx
	cmpl	-24(%rbp), %ecx
	jge	.LBB28_4
# %bb.3:                                # %cond.true
	movl	-36(%rbp), %ecx
	jmp	.LBB28_5
.LBB28_4:                               # %cond.false
	movl	-24(%rbp), %ecx
.LBB28_5:                               # %cond.end
	xorl	%edx, %edx
	cmpl	%ecx, %edx
	jle	.LBB28_7
# %bb.6:                                # %cond.true9
	xorl	%ecx, %ecx
	jmp	.LBB28_11
.LBB28_7:                               # %cond.false10
	movl	-36(%rbp), %ecx
	cmpl	-24(%rbp), %ecx
	jge	.LBB28_9
# %bb.8:                                # %cond.true12
	movl	-36(%rbp), %ecx
	jmp	.LBB28_10
.LBB28_9:                               # %cond.false13
	movl	-24(%rbp), %ecx
.LBB28_10:                              # %cond.end14
.LBB28_11:                              # %cond.end16
	movslq	%ecx, %rcx
	movq	(%rax,%rcx,8), %rax
	movl	-32(%rbp), %ecx
	cmpl	-28(%rbp), %ecx
	jge	.LBB28_13
# %bb.12:                               # %cond.true19
	movl	-32(%rbp), %ecx
	jmp	.LBB28_14
.LBB28_13:                              # %cond.false20
	movl	-28(%rbp), %ecx
.LBB28_14:                              # %cond.end21
	xorl	%edx, %edx
	cmpl	%ecx, %edx
	jle	.LBB28_16
# %bb.15:                               # %cond.true24
	xorl	%ecx, %ecx
	jmp	.LBB28_20
.LBB28_16:                              # %cond.false25
	movl	-32(%rbp), %ecx
	cmpl	-28(%rbp), %ecx
	jge	.LBB28_18
# %bb.17:                               # %cond.true27
	movl	-32(%rbp), %ecx
	jmp	.LBB28_19
.LBB28_18:                              # %cond.false28
	movl	-28(%rbp), %ecx
.LBB28_19:                              # %cond.end29
.LBB28_20:                              # %cond.end31
	movslq	%ecx, %rcx
	movzwl	(%rax,%rcx,2), %eax
	movl	%eax, -12(%rbp)
	jmp	.LBB28_332
.LBB28_21:                              # %if.else
	cmpl	$0, -48(%rbp)
	jne	.LBB28_77
# %bb.22:                               # %if.then37
	movl	-36(%rbp), %eax
	cmpl	-24(%rbp), %eax
	jge	.LBB28_24
# %bb.23:                               # %cond.true40
	movl	-36(%rbp), %eax
	jmp	.LBB28_25
.LBB28_24:                              # %cond.false41
	movl	-24(%rbp), %eax
.LBB28_25:                              # %cond.end42
	xorl	%ecx, %ecx
	cmpl	%eax, %ecx
	jle	.LBB28_27
# %bb.26:                               # %cond.true46
	xorl	%eax, %eax
	jmp	.LBB28_31
.LBB28_27:                              # %cond.false47
	movl	-36(%rbp), %eax
	cmpl	-24(%rbp), %eax
	jge	.LBB28_29
# %bb.28:                               # %cond.true50
	movl	-36(%rbp), %eax
	jmp	.LBB28_30
.LBB28_29:                              # %cond.false51
	movl	-24(%rbp), %eax
.LBB28_30:                              # %cond.end52
.LBB28_31:                              # %cond.end54
	movl	%eax, -44(%rbp)
	movl	$-2, -16(%rbp)
.LBB28_32:                              # %for.cond
                                        # =>This Inner Loop Header: Depth=1
	cmpl	$4, -16(%rbp)
	jge	.LBB28_44
# %bb.33:                               # %for.body
                                        #   in Loop: Header=BB28_32 Depth=1
	movl	-32(%rbp), %eax
	movl	-28(%rbp), %ecx
	addl	-16(%rbp), %ecx
	cmpl	%ecx, %eax
	jge	.LBB28_35
# %bb.34:                               # %cond.true60
                                        #   in Loop: Header=BB28_32 Depth=1
	movl	-32(%rbp), %eax
	jmp	.LBB28_36
.LBB28_35:                              # %cond.false61
                                        #   in Loop: Header=BB28_32 Depth=1
	movl	-28(%rbp), %eax
	addl	-16(%rbp), %eax
.LBB28_36:                              # %cond.end63
                                        #   in Loop: Header=BB28_32 Depth=1
	xorl	%ecx, %ecx
	cmpl	%eax, %ecx
	jle	.LBB28_38
# %bb.37:                               # %cond.true67
                                        #   in Loop: Header=BB28_32 Depth=1
	xorl	%eax, %eax
	jmp	.LBB28_42
.LBB28_38:                              # %cond.false68
                                        #   in Loop: Header=BB28_32 Depth=1
	movl	-32(%rbp), %eax
	movl	-28(%rbp), %ecx
	addl	-16(%rbp), %ecx
	cmpl	%ecx, %eax
	jge	.LBB28_40
# %bb.39:                               # %cond.true72
                                        #   in Loop: Header=BB28_32 Depth=1
	movl	-32(%rbp), %eax
	jmp	.LBB28_41
.LBB28_40:                              # %cond.false73
                                        #   in Loop: Header=BB28_32 Depth=1
	movl	-28(%rbp), %eax
	addl	-16(%rbp), %eax
.LBB28_41:                              # %cond.end75
                                        #   in Loop: Header=BB28_32 Depth=1
.LBB28_42:                              # %cond.end77
                                        #   in Loop: Header=BB28_32 Depth=1
	movl	%eax, -40(%rbp)
	movq	-64(%rbp), %rax
	movslq	-44(%rbp), %rcx
	movq	(%rax,%rcx,8), %rax
	movslq	-40(%rbp), %rcx
	movzwl	(%rax,%rcx,2), %eax
	movl	-16(%rbp), %ecx
	addl	$2, %ecx
	movslq	%ecx, %rcx
	imull	Get_Reference_Pixel.COEF(,%rcx,4), %eax
	addl	-12(%rbp), %eax
	movl	%eax, -12(%rbp)
# %bb.43:                               # %for.inc
                                        #   in Loop: Header=BB28_32 Depth=1
	movl	-16(%rbp), %eax
	addl	$1, %eax
	movl	%eax, -16(%rbp)
	jmp	.LBB28_32
.LBB28_44:                              # %for.end
	movq	img, %rax
	movl	72684(%rax), %ecx
	movl	-12(%rbp), %eax
	addl	$16, %eax
	cltd
	movl	$32, %esi
	idivl	%esi
	cmpl	%eax, %ecx
	jge	.LBB28_46
# %bb.45:                               # %cond.true92
	movq	img, %rax
	movl	72684(%rax), %eax
	jmp	.LBB28_47
.LBB28_46:                              # %cond.false94
	movl	-12(%rbp), %eax
	addl	$16, %eax
	cltd
	movl	$32, %ecx
	idivl	%ecx
.LBB28_47:                              # %cond.end97
	xorl	%ecx, %ecx
	cmpl	%eax, %ecx
	jle	.LBB28_49
# %bb.48:                               # %cond.true101
	xorl	%eax, %eax
	jmp	.LBB28_53
.LBB28_49:                              # %cond.false102
	movq	img, %rax
	movl	72684(%rax), %ecx
	movl	-12(%rbp), %eax
	addl	$16, %eax
	cltd
	movl	$32, %esi
	idivl	%esi
	cmpl	%eax, %ecx
	jge	.LBB28_51
# %bb.50:                               # %cond.true108
	movq	img, %rax
	movl	72684(%rax), %eax
	jmp	.LBB28_52
.LBB28_51:                              # %cond.false110
	movl	-12(%rbp), %eax
	addl	$16, %eax
	cltd
	movl	$32, %ecx
	idivl	%ecx
.LBB28_52:                              # %cond.end113
.LBB28_53:                              # %cond.end115
	movl	%eax, -12(%rbp)
	cmpl	$1, -52(%rbp)
	jne	.LBB28_64
# %bb.54:                               # %if.then119
	movl	-12(%rbp), %eax
	movq	-64(%rbp), %rcx
	movslq	-44(%rbp), %rdx
	movq	(%rcx,%rdx,8), %rcx
	movl	-32(%rbp), %edx
	cmpl	-28(%rbp), %edx
	jge	.LBB28_56
# %bb.55:                               # %cond.true124
	movl	-32(%rbp), %edx
	jmp	.LBB28_57
.LBB28_56:                              # %cond.false125
	movl	-28(%rbp), %edx
.LBB28_57:                              # %cond.end126
	xorl	%esi, %esi
	cmpl	%edx, %esi
	jle	.LBB28_59
# %bb.58:                               # %cond.true130
	xorl	%edx, %edx
	jmp	.LBB28_63
.LBB28_59:                              # %cond.false131
	movl	-32(%rbp), %edx
	cmpl	-28(%rbp), %edx
	jge	.LBB28_61
# %bb.60:                               # %cond.true134
	movl	-32(%rbp), %edx
	jmp	.LBB28_62
.LBB28_61:                              # %cond.false135
	movl	-28(%rbp), %edx
.LBB28_62:                              # %cond.end136
.LBB28_63:                              # %cond.end138
	movslq	%edx, %rdx
	movzwl	(%rcx,%rdx,2), %ecx
	addl	%ecx, %eax
	cltd
	movl	$2, %ecx
	idivl	%ecx
	movl	%eax, -12(%rbp)
	jmp	.LBB28_76
.LBB28_64:                              # %if.else145
	cmpl	$3, -52(%rbp)
	jne	.LBB28_75
# %bb.65:                               # %if.then148
	movl	-12(%rbp), %eax
	movq	-64(%rbp), %rcx
	movslq	-44(%rbp), %rdx
	movq	(%rcx,%rdx,8), %rcx
	movl	-32(%rbp), %edx
	movl	-28(%rbp), %esi
	addl	$1, %esi
	cmpl	%esi, %edx
	jge	.LBB28_67
# %bb.66:                               # %cond.true154
	movl	-32(%rbp), %edx
	jmp	.LBB28_68
.LBB28_67:                              # %cond.false155
	movl	-28(%rbp), %edx
	addl	$1, %edx
.LBB28_68:                              # %cond.end157
	xorl	%esi, %esi
	cmpl	%edx, %esi
	jle	.LBB28_70
# %bb.69:                               # %cond.true161
	xorl	%edx, %edx
	jmp	.LBB28_74
.LBB28_70:                              # %cond.false162
	movl	-32(%rbp), %edx
	movl	-28(%rbp), %esi
	addl	$1, %esi
	cmpl	%esi, %edx
	jge	.LBB28_72
# %bb.71:                               # %cond.true166
	movl	-32(%rbp), %edx
	jmp	.LBB28_73
.LBB28_72:                              # %cond.false167
	movl	-28(%rbp), %edx
	addl	$1, %edx
.LBB28_73:                              # %cond.end169
.LBB28_74:                              # %cond.end171
	movslq	%edx, %rdx
	movzwl	(%rcx,%rdx,2), %ecx
	addl	%ecx, %eax
	cltd
	movl	$2, %ecx
	idivl	%ecx
	movl	%eax, -12(%rbp)
.LBB28_75:                              # %if.end
	jmp	.LBB28_76
.LBB28_76:                              # %if.end178
	jmp	.LBB28_331
.LBB28_77:                              # %if.else179
	cmpl	$0, -52(%rbp)
	jne	.LBB28_133
# %bb.78:                               # %if.then182
	movl	-32(%rbp), %eax
	cmpl	-28(%rbp), %eax
	jge	.LBB28_80
# %bb.79:                               # %cond.true185
	movl	-32(%rbp), %eax
	jmp	.LBB28_81
.LBB28_80:                              # %cond.false186
	movl	-28(%rbp), %eax
.LBB28_81:                              # %cond.end187
	xorl	%ecx, %ecx
	cmpl	%eax, %ecx
	jle	.LBB28_83
# %bb.82:                               # %cond.true191
	xorl	%eax, %eax
	jmp	.LBB28_87
.LBB28_83:                              # %cond.false192
	movl	-32(%rbp), %eax
	cmpl	-28(%rbp), %eax
	jge	.LBB28_85
# %bb.84:                               # %cond.true195
	movl	-32(%rbp), %eax
	jmp	.LBB28_86
.LBB28_85:                              # %cond.false196
	movl	-28(%rbp), %eax
.LBB28_86:                              # %cond.end197
.LBB28_87:                              # %cond.end199
	movl	%eax, -40(%rbp)
	movl	$-2, -20(%rbp)
.LBB28_88:                              # %for.cond201
                                        # =>This Inner Loop Header: Depth=1
	cmpl	$4, -20(%rbp)
	jge	.LBB28_100
# %bb.89:                               # %for.body204
                                        #   in Loop: Header=BB28_88 Depth=1
	movl	-36(%rbp), %eax
	movl	-24(%rbp), %ecx
	addl	-20(%rbp), %ecx
	cmpl	%ecx, %eax
	jge	.LBB28_91
# %bb.90:                               # %cond.true208
                                        #   in Loop: Header=BB28_88 Depth=1
	movl	-36(%rbp), %eax
	jmp	.LBB28_92
.LBB28_91:                              # %cond.false209
                                        #   in Loop: Header=BB28_88 Depth=1
	movl	-24(%rbp), %eax
	addl	-20(%rbp), %eax
.LBB28_92:                              # %cond.end211
                                        #   in Loop: Header=BB28_88 Depth=1
	xorl	%ecx, %ecx
	cmpl	%eax, %ecx
	jle	.LBB28_94
# %bb.93:                               # %cond.true215
                                        #   in Loop: Header=BB28_88 Depth=1
	xorl	%eax, %eax
	jmp	.LBB28_98
.LBB28_94:                              # %cond.false216
                                        #   in Loop: Header=BB28_88 Depth=1
	movl	-36(%rbp), %eax
	movl	-24(%rbp), %ecx
	addl	-20(%rbp), %ecx
	cmpl	%ecx, %eax
	jge	.LBB28_96
# %bb.95:                               # %cond.true220
                                        #   in Loop: Header=BB28_88 Depth=1
	movl	-36(%rbp), %eax
	jmp	.LBB28_97
.LBB28_96:                              # %cond.false221
                                        #   in Loop: Header=BB28_88 Depth=1
	movl	-24(%rbp), %eax
	addl	-20(%rbp), %eax
.LBB28_97:                              # %cond.end223
                                        #   in Loop: Header=BB28_88 Depth=1
.LBB28_98:                              # %cond.end225
                                        #   in Loop: Header=BB28_88 Depth=1
	movl	%eax, -44(%rbp)
	movq	-64(%rbp), %rax
	movslq	-44(%rbp), %rcx
	movq	(%rax,%rcx,8), %rax
	movslq	-40(%rbp), %rcx
	movzwl	(%rax,%rcx,2), %eax
	movl	-20(%rbp), %ecx
	addl	$2, %ecx
	movslq	%ecx, %rcx
	imull	Get_Reference_Pixel.COEF(,%rcx,4), %eax
	addl	-12(%rbp), %eax
	movl	%eax, -12(%rbp)
# %bb.99:                               # %for.inc237
                                        #   in Loop: Header=BB28_88 Depth=1
	movl	-20(%rbp), %eax
	addl	$1, %eax
	movl	%eax, -20(%rbp)
	jmp	.LBB28_88
.LBB28_100:                             # %for.end239
	movq	img, %rax
	movl	72684(%rax), %ecx
	movl	-12(%rbp), %eax
	addl	$16, %eax
	cltd
	movl	$32, %esi
	idivl	%esi
	cmpl	%eax, %ecx
	jge	.LBB28_102
# %bb.101:                              # %cond.true245
	movq	img, %rax
	movl	72684(%rax), %eax
	jmp	.LBB28_103
.LBB28_102:                             # %cond.false247
	movl	-12(%rbp), %eax
	addl	$16, %eax
	cltd
	movl	$32, %ecx
	idivl	%ecx
.LBB28_103:                             # %cond.end250
	xorl	%ecx, %ecx
	cmpl	%eax, %ecx
	jle	.LBB28_105
# %bb.104:                              # %cond.true254
	xorl	%eax, %eax
	jmp	.LBB28_109
.LBB28_105:                             # %cond.false255
	movq	img, %rax
	movl	72684(%rax), %ecx
	movl	-12(%rbp), %eax
	addl	$16, %eax
	cltd
	movl	$32, %esi
	idivl	%esi
	cmpl	%eax, %ecx
	jge	.LBB28_107
# %bb.106:                              # %cond.true261
	movq	img, %rax
	movl	72684(%rax), %eax
	jmp	.LBB28_108
.LBB28_107:                             # %cond.false263
	movl	-12(%rbp), %eax
	addl	$16, %eax
	cltd
	movl	$32, %ecx
	idivl	%ecx
.LBB28_108:                             # %cond.end266
.LBB28_109:                             # %cond.end268
	movl	%eax, -12(%rbp)
	cmpl	$1, -48(%rbp)
	jne	.LBB28_120
# %bb.110:                              # %if.then272
	movl	-12(%rbp), %eax
	movq	-64(%rbp), %rcx
	movl	-36(%rbp), %edx
	cmpl	-24(%rbp), %edx
	jge	.LBB28_112
# %bb.111:                              # %cond.true275
	movl	-36(%rbp), %edx
	jmp	.LBB28_113
.LBB28_112:                             # %cond.false276
	movl	-24(%rbp), %edx
.LBB28_113:                             # %cond.end277
	xorl	%esi, %esi
	cmpl	%edx, %esi
	jle	.LBB28_115
# %bb.114:                              # %cond.true281
	xorl	%edx, %edx
	jmp	.LBB28_119
.LBB28_115:                             # %cond.false282
	movl	-36(%rbp), %edx
	cmpl	-24(%rbp), %edx
	jge	.LBB28_117
# %bb.116:                              # %cond.true285
	movl	-36(%rbp), %edx
	jmp	.LBB28_118
.LBB28_117:                             # %cond.false286
	movl	-24(%rbp), %edx
.LBB28_118:                             # %cond.end287
.LBB28_119:                             # %cond.end289
	movslq	%edx, %rdx
	movq	(%rcx,%rdx,8), %rcx
	movslq	-40(%rbp), %rdx
	movzwl	(%rcx,%rdx,2), %ecx
	addl	%ecx, %eax
	cltd
	movl	$2, %ecx
	idivl	%ecx
	movl	%eax, -12(%rbp)
	jmp	.LBB28_132
.LBB28_120:                             # %if.else298
	cmpl	$3, -48(%rbp)
	jne	.LBB28_131
# %bb.121:                              # %if.then301
	movl	-12(%rbp), %eax
	movq	-64(%rbp), %rcx
	movl	-36(%rbp), %edx
	movl	-24(%rbp), %esi
	addl	$1, %esi
	cmpl	%esi, %edx
	jge	.LBB28_123
# %bb.122:                              # %cond.true305
	movl	-36(%rbp), %edx
	jmp	.LBB28_124
.LBB28_123:                             # %cond.false306
	movl	-24(%rbp), %edx
	addl	$1, %edx
.LBB28_124:                             # %cond.end308
	xorl	%esi, %esi
	cmpl	%edx, %esi
	jle	.LBB28_126
# %bb.125:                              # %cond.true312
	xorl	%edx, %edx
	jmp	.LBB28_130
.LBB28_126:                             # %cond.false313
	movl	-36(%rbp), %edx
	movl	-24(%rbp), %esi
	addl	$1, %esi
	cmpl	%esi, %edx
	jge	.LBB28_128
# %bb.127:                              # %cond.true317
	movl	-36(%rbp), %edx
	jmp	.LBB28_129
.LBB28_128:                             # %cond.false318
	movl	-24(%rbp), %edx
	addl	$1, %edx
.LBB28_129:                             # %cond.end320
.LBB28_130:                             # %cond.end322
	movslq	%edx, %rdx
	movq	(%rcx,%rdx,8), %rcx
	movslq	-40(%rbp), %rdx
	movzwl	(%rcx,%rdx,2), %ecx
	addl	%ecx, %eax
	cltd
	movl	$2, %ecx
	idivl	%ecx
	movl	%eax, -12(%rbp)
.LBB28_131:                             # %if.end331
	jmp	.LBB28_132
.LBB28_132:                             # %if.end332
	jmp	.LBB28_330
.LBB28_133:                             # %if.else333
	cmpl	$2, -52(%rbp)
	jne	.LBB28_197
# %bb.134:                              # %if.then336
	movl	$-2, -20(%rbp)
.LBB28_135:                             # %for.cond337
                                        # =>This Loop Header: Depth=1
                                        #     Child Loop BB28_146 Depth 2
	cmpl	$4, -20(%rbp)
	jge	.LBB28_160
# %bb.136:                              # %for.body340
                                        #   in Loop: Header=BB28_135 Depth=1
	movl	$0, -12(%rbp)
	movl	-36(%rbp), %eax
	movl	-24(%rbp), %ecx
	addl	-20(%rbp), %ecx
	cmpl	%ecx, %eax
	jge	.LBB28_138
# %bb.137:                              # %cond.true344
                                        #   in Loop: Header=BB28_135 Depth=1
	movl	-36(%rbp), %eax
	jmp	.LBB28_139
.LBB28_138:                             # %cond.false345
                                        #   in Loop: Header=BB28_135 Depth=1
	movl	-24(%rbp), %eax
	addl	-20(%rbp), %eax
.LBB28_139:                             # %cond.end347
                                        #   in Loop: Header=BB28_135 Depth=1
	xorl	%ecx, %ecx
	cmpl	%eax, %ecx
	jle	.LBB28_141
# %bb.140:                              # %cond.true351
                                        #   in Loop: Header=BB28_135 Depth=1
	xorl	%eax, %eax
	jmp	.LBB28_145
.LBB28_141:                             # %cond.false352
                                        #   in Loop: Header=BB28_135 Depth=1
	movl	-36(%rbp), %eax
	movl	-24(%rbp), %ecx
	addl	-20(%rbp), %ecx
	cmpl	%ecx, %eax
	jge	.LBB28_143
# %bb.142:                              # %cond.true356
                                        #   in Loop: Header=BB28_135 Depth=1
	movl	-36(%rbp), %eax
	jmp	.LBB28_144
.LBB28_143:                             # %cond.false357
                                        #   in Loop: Header=BB28_135 Depth=1
	movl	-24(%rbp), %eax
	addl	-20(%rbp), %eax
.LBB28_144:                             # %cond.end359
                                        #   in Loop: Header=BB28_135 Depth=1
.LBB28_145:                             # %cond.end361
                                        #   in Loop: Header=BB28_135 Depth=1
	movl	%eax, -44(%rbp)
	movl	$-2, -16(%rbp)
.LBB28_146:                             # %for.cond363
                                        #   Parent Loop BB28_135 Depth=1
                                        # =>  This Inner Loop Header: Depth=2
	cmpl	$4, -16(%rbp)
	jge	.LBB28_158
# %bb.147:                              # %for.body366
                                        #   in Loop: Header=BB28_146 Depth=2
	movl	-32(%rbp), %eax
	movl	-28(%rbp), %ecx
	addl	-16(%rbp), %ecx
	cmpl	%ecx, %eax
	jge	.LBB28_149
# %bb.148:                              # %cond.true370
                                        #   in Loop: Header=BB28_146 Depth=2
	movl	-32(%rbp), %eax
	jmp	.LBB28_150
.LBB28_149:                             # %cond.false371
                                        #   in Loop: Header=BB28_146 Depth=2
	movl	-28(%rbp), %eax
	addl	-16(%rbp), %eax
.LBB28_150:                             # %cond.end373
                                        #   in Loop: Header=BB28_146 Depth=2
	xorl	%ecx, %ecx
	cmpl	%eax, %ecx
	jle	.LBB28_152
# %bb.151:                              # %cond.true377
                                        #   in Loop: Header=BB28_146 Depth=2
	xorl	%eax, %eax
	jmp	.LBB28_156
.LBB28_152:                             # %cond.false378
                                        #   in Loop: Header=BB28_146 Depth=2
	movl	-32(%rbp), %eax
	movl	-28(%rbp), %ecx
	addl	-16(%rbp), %ecx
	cmpl	%ecx, %eax
	jge	.LBB28_154
# %bb.153:                              # %cond.true382
                                        #   in Loop: Header=BB28_146 Depth=2
	movl	-32(%rbp), %eax
	jmp	.LBB28_155
.LBB28_154:                             # %cond.false383
                                        #   in Loop: Header=BB28_146 Depth=2
	movl	-28(%rbp), %eax
	addl	-16(%rbp), %eax
.LBB28_155:                             # %cond.end385
                                        #   in Loop: Header=BB28_146 Depth=2
.LBB28_156:                             # %cond.end387
                                        #   in Loop: Header=BB28_146 Depth=2
	movl	%eax, -40(%rbp)
	movq	-64(%rbp), %rax
	movslq	-44(%rbp), %rcx
	movq	(%rax,%rcx,8), %rax
	movslq	-40(%rbp), %rcx
	movzwl	(%rax,%rcx,2), %eax
	movl	-16(%rbp), %ecx
	addl	$2, %ecx
	movslq	%ecx, %rcx
	imull	Get_Reference_Pixel.COEF(,%rcx,4), %eax
	addl	-12(%rbp), %eax
	movl	%eax, -12(%rbp)
# %bb.157:                              # %for.inc399
                                        #   in Loop: Header=BB28_146 Depth=2
	movl	-16(%rbp), %eax
	addl	$1, %eax
	movl	%eax, -16(%rbp)
	jmp	.LBB28_146
.LBB28_158:                             # %for.end401
                                        #   in Loop: Header=BB28_135 Depth=1
	movl	-12(%rbp), %eax
	movl	-20(%rbp), %ecx
	addl	$2, %ecx
	movslq	%ecx, %rcx
	movl	%eax, -96(%rbp,%rcx,4)
# %bb.159:                              # %for.inc405
                                        #   in Loop: Header=BB28_135 Depth=1
	movl	-20(%rbp), %eax
	addl	$1, %eax
	movl	%eax, -20(%rbp)
	jmp	.LBB28_135
.LBB28_160:                             # %for.end407
	movl	$0, -12(%rbp)
	movl	$-2, -20(%rbp)
.LBB28_161:                             # %for.cond408
                                        # =>This Inner Loop Header: Depth=1
	cmpl	$4, -20(%rbp)
	jge	.LBB28_164
# %bb.162:                              # %for.body411
                                        #   in Loop: Header=BB28_161 Depth=1
	movl	-20(%rbp), %eax
	addl	$2, %eax
	cltq
	movl	-96(%rbp,%rax,4), %eax
	movl	-20(%rbp), %ecx
	addl	$2, %ecx
	movslq	%ecx, %rcx
	imull	Get_Reference_Pixel.COEF(,%rcx,4), %eax
	addl	-12(%rbp), %eax
	movl	%eax, -12(%rbp)
# %bb.163:                              # %for.inc420
                                        #   in Loop: Header=BB28_161 Depth=1
	movl	-20(%rbp), %eax
	addl	$1, %eax
	movl	%eax, -20(%rbp)
	jmp	.LBB28_161
.LBB28_164:                             # %for.end422
	movq	img, %rax
	movl	72684(%rax), %ecx
	movl	-12(%rbp), %eax
	addl	$512, %eax              # imm = 0x200
	cltd
	movl	$1024, %esi             # imm = 0x400
	idivl	%esi
	cmpl	%eax, %ecx
	jge	.LBB28_166
# %bb.165:                              # %cond.true428
	movq	img, %rax
	movl	72684(%rax), %eax
	jmp	.LBB28_167
.LBB28_166:                             # %cond.false430
	movl	-12(%rbp), %eax
	addl	$512, %eax              # imm = 0x200
	cltd
	movl	$1024, %ecx             # imm = 0x400
	idivl	%ecx
.LBB28_167:                             # %cond.end433
	xorl	%ecx, %ecx
	cmpl	%eax, %ecx
	jle	.LBB28_169
# %bb.168:                              # %cond.true437
	xorl	%eax, %eax
	jmp	.LBB28_173
.LBB28_169:                             # %cond.false438
	movq	img, %rax
	movl	72684(%rax), %ecx
	movl	-12(%rbp), %eax
	addl	$512, %eax              # imm = 0x200
	cltd
	movl	$1024, %esi             # imm = 0x400
	idivl	%esi
	cmpl	%eax, %ecx
	jge	.LBB28_171
# %bb.170:                              # %cond.true444
	movq	img, %rax
	movl	72684(%rax), %eax
	jmp	.LBB28_172
.LBB28_171:                             # %cond.false446
	movl	-12(%rbp), %eax
	addl	$512, %eax              # imm = 0x200
	cltd
	movl	$1024, %ecx             # imm = 0x400
	idivl	%ecx
.LBB28_172:                             # %cond.end449
.LBB28_173:                             # %cond.end451
	movl	%eax, -12(%rbp)
	cmpl	$1, -48(%rbp)
	jne	.LBB28_184
# %bb.174:                              # %if.then455
	movl	-12(%rbp), %ecx
	movq	img, %rax
	movl	72684(%rax), %esi
	movl	-88(%rbp), %eax
	addl	$16, %eax
	cltd
	movl	$32, %edi
	idivl	%edi
	cmpl	%eax, %esi
	jge	.LBB28_176
# %bb.175:                              # %cond.true462
	movq	img, %rax
	movl	72684(%rax), %eax
	jmp	.LBB28_177
.LBB28_176:                             # %cond.false464
	movl	-88(%rbp), %eax
	addl	$16, %eax
	cltd
	movl	$32, %esi
	idivl	%esi
.LBB28_177:                             # %cond.end468
	xorl	%edx, %edx
	cmpl	%eax, %edx
	jle	.LBB28_179
# %bb.178:                              # %cond.true472
	xorl	%eax, %eax
	jmp	.LBB28_183
.LBB28_179:                             # %cond.false473
	movq	img, %rax
	movl	72684(%rax), %esi
	movl	-88(%rbp), %eax
	addl	$16, %eax
	cltd
	movl	$32, %edi
	idivl	%edi
	cmpl	%eax, %esi
	jge	.LBB28_181
# %bb.180:                              # %cond.true480
	movq	img, %rax
	movl	72684(%rax), %eax
	jmp	.LBB28_182
.LBB28_181:                             # %cond.false482
	movl	-88(%rbp), %eax
	addl	$16, %eax
	cltd
	movl	$32, %esi
	idivl	%esi
.LBB28_182:                             # %cond.end486
.LBB28_183:                             # %cond.end488
	addl	%eax, %ecx
	movl	%ecx, %eax
	cltd
	movl	$2, %ecx
	idivl	%ecx
	movl	%eax, -12(%rbp)
	jmp	.LBB28_196
.LBB28_184:                             # %if.else492
	cmpl	$3, -48(%rbp)
	jne	.LBB28_195
# %bb.185:                              # %if.then495
	movl	-12(%rbp), %ecx
	movq	img, %rax
	movl	72684(%rax), %esi
	movl	-84(%rbp), %eax
	addl	$16, %eax
	cltd
	movl	$32, %edi
	idivl	%edi
	cmpl	%eax, %esi
	jge	.LBB28_187
# %bb.186:                              # %cond.true502
	movq	img, %rax
	movl	72684(%rax), %eax
	jmp	.LBB28_188
.LBB28_187:                             # %cond.false504
	movl	-84(%rbp), %eax
	addl	$16, %eax
	cltd
	movl	$32, %esi
	idivl	%esi
.LBB28_188:                             # %cond.end508
	xorl	%edx, %edx
	cmpl	%eax, %edx
	jle	.LBB28_190
# %bb.189:                              # %cond.true512
	xorl	%eax, %eax
	jmp	.LBB28_194
.LBB28_190:                             # %cond.false513
	movq	img, %rax
	movl	72684(%rax), %esi
	movl	-84(%rbp), %eax
	addl	$16, %eax
	cltd
	movl	$32, %edi
	idivl	%edi
	cmpl	%eax, %esi
	jge	.LBB28_192
# %bb.191:                              # %cond.true520
	movq	img, %rax
	movl	72684(%rax), %eax
	jmp	.LBB28_193
.LBB28_192:                             # %cond.false522
	movl	-84(%rbp), %eax
	addl	$16, %eax
	cltd
	movl	$32, %esi
	idivl	%esi
.LBB28_193:                             # %cond.end526
.LBB28_194:                             # %cond.end528
	addl	%eax, %ecx
	movl	%ecx, %eax
	cltd
	movl	$2, %ecx
	idivl	%ecx
	movl	%eax, -12(%rbp)
.LBB28_195:                             # %if.end532
	jmp	.LBB28_196
.LBB28_196:                             # %if.end533
	jmp	.LBB28_329
.LBB28_197:                             # %if.else534
	cmpl	$2, -48(%rbp)
	jne	.LBB28_259
# %bb.198:                              # %if.then537
	movl	$-2, -16(%rbp)
.LBB28_199:                             # %for.cond538
                                        # =>This Loop Header: Depth=1
                                        #     Child Loop BB28_210 Depth 2
	cmpl	$4, -16(%rbp)
	jge	.LBB28_224
# %bb.200:                              # %for.body541
                                        #   in Loop: Header=BB28_199 Depth=1
	movl	$0, -12(%rbp)
	movl	-32(%rbp), %eax
	movl	-28(%rbp), %ecx
	addl	-16(%rbp), %ecx
	cmpl	%ecx, %eax
	jge	.LBB28_202
# %bb.201:                              # %cond.true545
                                        #   in Loop: Header=BB28_199 Depth=1
	movl	-32(%rbp), %eax
	jmp	.LBB28_203
.LBB28_202:                             # %cond.false546
                                        #   in Loop: Header=BB28_199 Depth=1
	movl	-28(%rbp), %eax
	addl	-16(%rbp), %eax
.LBB28_203:                             # %cond.end548
                                        #   in Loop: Header=BB28_199 Depth=1
	xorl	%ecx, %ecx
	cmpl	%eax, %ecx
	jle	.LBB28_205
# %bb.204:                              # %cond.true552
                                        #   in Loop: Header=BB28_199 Depth=1
	xorl	%eax, %eax
	jmp	.LBB28_209
.LBB28_205:                             # %cond.false553
                                        #   in Loop: Header=BB28_199 Depth=1
	movl	-32(%rbp), %eax
	movl	-28(%rbp), %ecx
	addl	-16(%rbp), %ecx
	cmpl	%ecx, %eax
	jge	.LBB28_207
# %bb.206:                              # %cond.true557
                                        #   in Loop: Header=BB28_199 Depth=1
	movl	-32(%rbp), %eax
	jmp	.LBB28_208
.LBB28_207:                             # %cond.false558
                                        #   in Loop: Header=BB28_199 Depth=1
	movl	-28(%rbp), %eax
	addl	-16(%rbp), %eax
.LBB28_208:                             # %cond.end560
                                        #   in Loop: Header=BB28_199 Depth=1
.LBB28_209:                             # %cond.end562
                                        #   in Loop: Header=BB28_199 Depth=1
	movl	%eax, -40(%rbp)
	movl	$-2, -20(%rbp)
.LBB28_210:                             # %for.cond564
                                        #   Parent Loop BB28_199 Depth=1
                                        # =>  This Inner Loop Header: Depth=2
	cmpl	$4, -20(%rbp)
	jge	.LBB28_222
# %bb.211:                              # %for.body567
                                        #   in Loop: Header=BB28_210 Depth=2
	movl	-36(%rbp), %eax
	movl	-24(%rbp), %ecx
	addl	-20(%rbp), %ecx
	cmpl	%ecx, %eax
	jge	.LBB28_213
# %bb.212:                              # %cond.true571
                                        #   in Loop: Header=BB28_210 Depth=2
	movl	-36(%rbp), %eax
	jmp	.LBB28_214
.LBB28_213:                             # %cond.false572
                                        #   in Loop: Header=BB28_210 Depth=2
	movl	-24(%rbp), %eax
	addl	-20(%rbp), %eax
.LBB28_214:                             # %cond.end574
                                        #   in Loop: Header=BB28_210 Depth=2
	xorl	%ecx, %ecx
	cmpl	%eax, %ecx
	jle	.LBB28_216
# %bb.215:                              # %cond.true578
                                        #   in Loop: Header=BB28_210 Depth=2
	xorl	%eax, %eax
	jmp	.LBB28_220
.LBB28_216:                             # %cond.false579
                                        #   in Loop: Header=BB28_210 Depth=2
	movl	-36(%rbp), %eax
	movl	-24(%rbp), %ecx
	addl	-20(%rbp), %ecx
	cmpl	%ecx, %eax
	jge	.LBB28_218
# %bb.217:                              # %cond.true583
                                        #   in Loop: Header=BB28_210 Depth=2
	movl	-36(%rbp), %eax
	jmp	.LBB28_219
.LBB28_218:                             # %cond.false584
                                        #   in Loop: Header=BB28_210 Depth=2
	movl	-24(%rbp), %eax
	addl	-20(%rbp), %eax
.LBB28_219:                             # %cond.end586
                                        #   in Loop: Header=BB28_210 Depth=2
.LBB28_220:                             # %cond.end588
                                        #   in Loop: Header=BB28_210 Depth=2
	movl	%eax, -44(%rbp)
	movq	-64(%rbp), %rax
	movslq	-44(%rbp), %rcx
	movq	(%rax,%rcx,8), %rax
	movslq	-40(%rbp), %rcx
	movzwl	(%rax,%rcx,2), %eax
	movl	-20(%rbp), %ecx
	addl	$2, %ecx
	movslq	%ecx, %rcx
	imull	Get_Reference_Pixel.COEF(,%rcx,4), %eax
	addl	-12(%rbp), %eax
	movl	%eax, -12(%rbp)
# %bb.221:                              # %for.inc600
                                        #   in Loop: Header=BB28_210 Depth=2
	movl	-20(%rbp), %eax
	addl	$1, %eax
	movl	%eax, -20(%rbp)
	jmp	.LBB28_210
.LBB28_222:                             # %for.end602
                                        #   in Loop: Header=BB28_199 Depth=1
	movl	-12(%rbp), %eax
	movl	-16(%rbp), %ecx
	addl	$2, %ecx
	movslq	%ecx, %rcx
	movl	%eax, -96(%rbp,%rcx,4)
# %bb.223:                              # %for.inc606
                                        #   in Loop: Header=BB28_199 Depth=1
	movl	-16(%rbp), %eax
	addl	$1, %eax
	movl	%eax, -16(%rbp)
	jmp	.LBB28_199
.LBB28_224:                             # %for.end608
	movl	$0, -12(%rbp)
	movl	$-2, -16(%rbp)
.LBB28_225:                             # %for.cond609
                                        # =>This Inner Loop Header: Depth=1
	cmpl	$4, -16(%rbp)
	jge	.LBB28_228
# %bb.226:                              # %for.body612
                                        #   in Loop: Header=BB28_225 Depth=1
	movl	-16(%rbp), %eax
	addl	$2, %eax
	cltq
	movl	-96(%rbp,%rax,4), %eax
	movl	-16(%rbp), %ecx
	addl	$2, %ecx
	movslq	%ecx, %rcx
	imull	Get_Reference_Pixel.COEF(,%rcx,4), %eax
	addl	-12(%rbp), %eax
	movl	%eax, -12(%rbp)
# %bb.227:                              # %for.inc621
                                        #   in Loop: Header=BB28_225 Depth=1
	movl	-16(%rbp), %eax
	addl	$1, %eax
	movl	%eax, -16(%rbp)
	jmp	.LBB28_225
.LBB28_228:                             # %for.end623
	movq	img, %rax
	movl	72684(%rax), %ecx
	movl	-12(%rbp), %eax
	addl	$512, %eax              # imm = 0x200
	cltd
	movl	$1024, %esi             # imm = 0x400
	idivl	%esi
	cmpl	%eax, %ecx
	jge	.LBB28_230
# %bb.229:                              # %cond.true629
	movq	img, %rax
	movl	72684(%rax), %eax
	jmp	.LBB28_231
.LBB28_230:                             # %cond.false631
	movl	-12(%rbp), %eax
	addl	$512, %eax              # imm = 0x200
	cltd
	movl	$1024, %ecx             # imm = 0x400
	idivl	%ecx
.LBB28_231:                             # %cond.end634
	xorl	%ecx, %ecx
	cmpl	%eax, %ecx
	jle	.LBB28_233
# %bb.232:                              # %cond.true638
	xorl	%eax, %eax
	jmp	.LBB28_237
.LBB28_233:                             # %cond.false639
	movq	img, %rax
	movl	72684(%rax), %ecx
	movl	-12(%rbp), %eax
	addl	$512, %eax              # imm = 0x200
	cltd
	movl	$1024, %esi             # imm = 0x400
	idivl	%esi
	cmpl	%eax, %ecx
	jge	.LBB28_235
# %bb.234:                              # %cond.true645
	movq	img, %rax
	movl	72684(%rax), %eax
	jmp	.LBB28_236
.LBB28_235:                             # %cond.false647
	movl	-12(%rbp), %eax
	addl	$512, %eax              # imm = 0x200
	cltd
	movl	$1024, %ecx             # imm = 0x400
	idivl	%ecx
.LBB28_236:                             # %cond.end650
.LBB28_237:                             # %cond.end652
	movl	%eax, -12(%rbp)
	cmpl	$1, -52(%rbp)
	jne	.LBB28_248
# %bb.238:                              # %if.then656
	movl	-12(%rbp), %ecx
	movq	img, %rax
	movl	72684(%rax), %esi
	movl	-88(%rbp), %eax
	addl	$16, %eax
	cltd
	movl	$32, %edi
	idivl	%edi
	cmpl	%eax, %esi
	jge	.LBB28_240
# %bb.239:                              # %cond.true663
	movq	img, %rax
	movl	72684(%rax), %eax
	jmp	.LBB28_241
.LBB28_240:                             # %cond.false665
	movl	-88(%rbp), %eax
	addl	$16, %eax
	cltd
	movl	$32, %esi
	idivl	%esi
.LBB28_241:                             # %cond.end669
	xorl	%edx, %edx
	cmpl	%eax, %edx
	jle	.LBB28_243
# %bb.242:                              # %cond.true673
	xorl	%eax, %eax
	jmp	.LBB28_247
.LBB28_243:                             # %cond.false674
	movq	img, %rax
	movl	72684(%rax), %esi
	movl	-88(%rbp), %eax
	addl	$16, %eax
	cltd
	movl	$32, %edi
	idivl	%edi
	cmpl	%eax, %esi
	jge	.LBB28_245
# %bb.244:                              # %cond.true681
	movq	img, %rax
	movl	72684(%rax), %eax
	jmp	.LBB28_246
.LBB28_245:                             # %cond.false683
	movl	-88(%rbp), %eax
	addl	$16, %eax
	cltd
	movl	$32, %esi
	idivl	%esi
.LBB28_246:                             # %cond.end687
.LBB28_247:                             # %cond.end689
	addl	%eax, %ecx
	movl	%ecx, %eax
	cltd
	movl	$2, %ecx
	idivl	%ecx
	movl	%eax, -12(%rbp)
	jmp	.LBB28_258
.LBB28_248:                             # %if.else693
	movl	-12(%rbp), %ecx
	movq	img, %rax
	movl	72684(%rax), %esi
	movl	-84(%rbp), %eax
	addl	$16, %eax
	cltd
	movl	$32, %edi
	idivl	%edi
	cmpl	%eax, %esi
	jge	.LBB28_250
# %bb.249:                              # %cond.true700
	movq	img, %rax
	movl	72684(%rax), %eax
	jmp	.LBB28_251
.LBB28_250:                             # %cond.false702
	movl	-84(%rbp), %eax
	addl	$16, %eax
	cltd
	movl	$32, %esi
	idivl	%esi
.LBB28_251:                             # %cond.end706
	xorl	%edx, %edx
	cmpl	%eax, %edx
	jle	.LBB28_253
# %bb.252:                              # %cond.true710
	xorl	%eax, %eax
	jmp	.LBB28_257
.LBB28_253:                             # %cond.false711
	movq	img, %rax
	movl	72684(%rax), %esi
	movl	-84(%rbp), %eax
	addl	$16, %eax
	cltd
	movl	$32, %edi
	idivl	%edi
	cmpl	%eax, %esi
	jge	.LBB28_255
# %bb.254:                              # %cond.true718
	movq	img, %rax
	movl	72684(%rax), %eax
	jmp	.LBB28_256
.LBB28_255:                             # %cond.false720
	movl	-84(%rbp), %eax
	addl	$16, %eax
	cltd
	movl	$32, %esi
	idivl	%esi
.LBB28_256:                             # %cond.end724
.LBB28_257:                             # %cond.end726
	addl	%eax, %ecx
	movl	%ecx, %eax
	cltd
	movl	$2, %ecx
	idivl	%ecx
	movl	%eax, -12(%rbp)
.LBB28_258:                             # %if.end730
	jmp	.LBB28_328
.LBB28_259:                             # %if.else731
	movl	$0, -12(%rbp)
	cmpl	$1, -48(%rbp)
	jne	.LBB28_261
# %bb.260:                              # %cond.true734
	movl	-24(%rbp), %eax
	jmp	.LBB28_262
.LBB28_261:                             # %cond.false735
	movl	-24(%rbp), %eax
	addl	$1, %eax
.LBB28_262:                             # %cond.end737
	movl	%eax, -44(%rbp)
	movl	-36(%rbp), %eax
	cmpl	-44(%rbp), %eax
	jge	.LBB28_264
# %bb.263:                              # %cond.true741
	movl	-36(%rbp), %eax
	jmp	.LBB28_265
.LBB28_264:                             # %cond.false742
	movl	-44(%rbp), %eax
.LBB28_265:                             # %cond.end743
	xorl	%ecx, %ecx
	cmpl	%eax, %ecx
	jle	.LBB28_267
# %bb.266:                              # %cond.true747
	xorl	%eax, %eax
	jmp	.LBB28_271
.LBB28_267:                             # %cond.false748
	movl	-36(%rbp), %eax
	cmpl	-44(%rbp), %eax
	jge	.LBB28_269
# %bb.268:                              # %cond.true751
	movl	-36(%rbp), %eax
	jmp	.LBB28_270
.LBB28_269:                             # %cond.false752
	movl	-44(%rbp), %eax
.LBB28_270:                             # %cond.end753
.LBB28_271:                             # %cond.end755
	movl	%eax, -44(%rbp)
	movl	$-2, -16(%rbp)
.LBB28_272:                             # %for.cond757
                                        # =>This Inner Loop Header: Depth=1
	cmpl	$4, -16(%rbp)
	jge	.LBB28_284
# %bb.273:                              # %for.body760
                                        #   in Loop: Header=BB28_272 Depth=1
	movl	-32(%rbp), %eax
	movl	-28(%rbp), %ecx
	addl	-16(%rbp), %ecx
	cmpl	%ecx, %eax
	jge	.LBB28_275
# %bb.274:                              # %cond.true764
                                        #   in Loop: Header=BB28_272 Depth=1
	movl	-32(%rbp), %eax
	jmp	.LBB28_276
.LBB28_275:                             # %cond.false765
                                        #   in Loop: Header=BB28_272 Depth=1
	movl	-28(%rbp), %eax
	addl	-16(%rbp), %eax
.LBB28_276:                             # %cond.end767
                                        #   in Loop: Header=BB28_272 Depth=1
	xorl	%ecx, %ecx
	cmpl	%eax, %ecx
	jle	.LBB28_278
# %bb.277:                              # %cond.true771
                                        #   in Loop: Header=BB28_272 Depth=1
	xorl	%eax, %eax
	jmp	.LBB28_282
.LBB28_278:                             # %cond.false772
                                        #   in Loop: Header=BB28_272 Depth=1
	movl	-32(%rbp), %eax
	movl	-28(%rbp), %ecx
	addl	-16(%rbp), %ecx
	cmpl	%ecx, %eax
	jge	.LBB28_280
# %bb.279:                              # %cond.true776
                                        #   in Loop: Header=BB28_272 Depth=1
	movl	-32(%rbp), %eax
	jmp	.LBB28_281
.LBB28_280:                             # %cond.false777
                                        #   in Loop: Header=BB28_272 Depth=1
	movl	-28(%rbp), %eax
	addl	-16(%rbp), %eax
.LBB28_281:                             # %cond.end779
                                        #   in Loop: Header=BB28_272 Depth=1
.LBB28_282:                             # %cond.end781
                                        #   in Loop: Header=BB28_272 Depth=1
	movl	%eax, -40(%rbp)
	movq	-64(%rbp), %rax
	movslq	-44(%rbp), %rcx
	movq	(%rax,%rcx,8), %rax
	movslq	-40(%rbp), %rcx
	movzwl	(%rax,%rcx,2), %eax
	movl	-16(%rbp), %ecx
	addl	$2, %ecx
	movslq	%ecx, %rcx
	imull	Get_Reference_Pixel.COEF(,%rcx,4), %eax
	addl	-12(%rbp), %eax
	movl	%eax, -12(%rbp)
# %bb.283:                              # %for.inc793
                                        #   in Loop: Header=BB28_272 Depth=1
	movl	-16(%rbp), %eax
	addl	$1, %eax
	movl	%eax, -16(%rbp)
	jmp	.LBB28_272
.LBB28_284:                             # %for.end795
	movq	img, %rax
	movl	72684(%rax), %ecx
	movl	-12(%rbp), %eax
	addl	$16, %eax
	cltd
	movl	$32, %esi
	idivl	%esi
	cmpl	%eax, %ecx
	jge	.LBB28_286
# %bb.285:                              # %cond.true801
	movq	img, %rax
	movl	72684(%rax), %eax
	jmp	.LBB28_287
.LBB28_286:                             # %cond.false803
	movl	-12(%rbp), %eax
	addl	$16, %eax
	cltd
	movl	$32, %ecx
	idivl	%ecx
.LBB28_287:                             # %cond.end806
	xorl	%ecx, %ecx
	cmpl	%eax, %ecx
	jle	.LBB28_289
# %bb.288:                              # %cond.true810
	xorl	%eax, %eax
	jmp	.LBB28_293
.LBB28_289:                             # %cond.false811
	movq	img, %rax
	movl	72684(%rax), %ecx
	movl	-12(%rbp), %eax
	addl	$16, %eax
	cltd
	movl	$32, %esi
	idivl	%esi
	cmpl	%eax, %ecx
	jge	.LBB28_291
# %bb.290:                              # %cond.true817
	movq	img, %rax
	movl	72684(%rax), %eax
	jmp	.LBB28_292
.LBB28_291:                             # %cond.false819
	movl	-12(%rbp), %eax
	addl	$16, %eax
	cltd
	movl	$32, %ecx
	idivl	%ecx
.LBB28_292:                             # %cond.end822
.LBB28_293:                             # %cond.end824
	movl	%eax, -108(%rbp)
	movl	$0, -12(%rbp)
	cmpl	$1, -52(%rbp)
	jne	.LBB28_295
# %bb.294:                              # %cond.true828
	movl	-28(%rbp), %eax
	jmp	.LBB28_296
.LBB28_295:                             # %cond.false829
	movl	-28(%rbp), %eax
	addl	$1, %eax
.LBB28_296:                             # %cond.end831
	movl	%eax, -40(%rbp)
	movl	-32(%rbp), %eax
	cmpl	-40(%rbp), %eax
	jge	.LBB28_298
# %bb.297:                              # %cond.true835
	movl	-32(%rbp), %eax
	jmp	.LBB28_299
.LBB28_298:                             # %cond.false836
	movl	-40(%rbp), %eax
.LBB28_299:                             # %cond.end837
	xorl	%ecx, %ecx
	cmpl	%eax, %ecx
	jle	.LBB28_301
# %bb.300:                              # %cond.true841
	xorl	%eax, %eax
	jmp	.LBB28_305
.LBB28_301:                             # %cond.false842
	movl	-32(%rbp), %eax
	cmpl	-40(%rbp), %eax
	jge	.LBB28_303
# %bb.302:                              # %cond.true845
	movl	-32(%rbp), %eax
	jmp	.LBB28_304
.LBB28_303:                             # %cond.false846
	movl	-40(%rbp), %eax
.LBB28_304:                             # %cond.end847
.LBB28_305:                             # %cond.end849
	movl	%eax, -40(%rbp)
	movl	$-2, -20(%rbp)
.LBB28_306:                             # %for.cond851
                                        # =>This Inner Loop Header: Depth=1
	cmpl	$4, -20(%rbp)
	jge	.LBB28_318
# %bb.307:                              # %for.body854
                                        #   in Loop: Header=BB28_306 Depth=1
	movl	-36(%rbp), %eax
	movl	-24(%rbp), %ecx
	addl	-20(%rbp), %ecx
	cmpl	%ecx, %eax
	jge	.LBB28_309
# %bb.308:                              # %cond.true858
                                        #   in Loop: Header=BB28_306 Depth=1
	movl	-36(%rbp), %eax
	jmp	.LBB28_310
.LBB28_309:                             # %cond.false859
                                        #   in Loop: Header=BB28_306 Depth=1
	movl	-24(%rbp), %eax
	addl	-20(%rbp), %eax
.LBB28_310:                             # %cond.end861
                                        #   in Loop: Header=BB28_306 Depth=1
	xorl	%ecx, %ecx
	cmpl	%eax, %ecx
	jle	.LBB28_312
# %bb.311:                              # %cond.true865
                                        #   in Loop: Header=BB28_306 Depth=1
	xorl	%eax, %eax
	jmp	.LBB28_316
.LBB28_312:                             # %cond.false866
                                        #   in Loop: Header=BB28_306 Depth=1
	movl	-36(%rbp), %eax
	movl	-24(%rbp), %ecx
	addl	-20(%rbp), %ecx
	cmpl	%ecx, %eax
	jge	.LBB28_314
# %bb.313:                              # %cond.true870
                                        #   in Loop: Header=BB28_306 Depth=1
	movl	-36(%rbp), %eax
	jmp	.LBB28_315
.LBB28_314:                             # %cond.false871
                                        #   in Loop: Header=BB28_306 Depth=1
	movl	-24(%rbp), %eax
	addl	-20(%rbp), %eax
.LBB28_315:                             # %cond.end873
                                        #   in Loop: Header=BB28_306 Depth=1
.LBB28_316:                             # %cond.end875
                                        #   in Loop: Header=BB28_306 Depth=1
	movl	%eax, -44(%rbp)
	movq	-64(%rbp), %rax
	movslq	-44(%rbp), %rcx
	movq	(%rax,%rcx,8), %rax
	movslq	-40(%rbp), %rcx
	movzwl	(%rax,%rcx,2), %eax
	movl	-20(%rbp), %ecx
	addl	$2, %ecx
	movslq	%ecx, %rcx
	imull	Get_Reference_Pixel.COEF(,%rcx,4), %eax
	addl	-12(%rbp), %eax
	movl	%eax, -12(%rbp)
# %bb.317:                              # %for.inc887
                                        #   in Loop: Header=BB28_306 Depth=1
	movl	-20(%rbp), %eax
	addl	$1, %eax
	movl	%eax, -20(%rbp)
	jmp	.LBB28_306
.LBB28_318:                             # %for.end889
	movq	img, %rax
	movl	72684(%rax), %ecx
	movl	-12(%rbp), %eax
	addl	$16, %eax
	cltd
	movl	$32, %esi
	idivl	%esi
	cmpl	%eax, %ecx
	jge	.LBB28_320
# %bb.319:                              # %cond.true895
	movq	img, %rax
	movl	72684(%rax), %eax
	jmp	.LBB28_321
.LBB28_320:                             # %cond.false897
	movl	-12(%rbp), %eax
	addl	$16, %eax
	cltd
	movl	$32, %ecx
	idivl	%ecx
.LBB28_321:                             # %cond.end900
	xorl	%ecx, %ecx
	cmpl	%eax, %ecx
	jle	.LBB28_323
# %bb.322:                              # %cond.true904
	xorl	%eax, %eax
	jmp	.LBB28_327
.LBB28_323:                             # %cond.false905
	movq	img, %rax
	movl	72684(%rax), %ecx
	movl	-12(%rbp), %eax
	addl	$16, %eax
	cltd
	movl	$32, %esi
	idivl	%esi
	cmpl	%eax, %ecx
	jge	.LBB28_325
# %bb.324:                              # %cond.true911
	movq	img, %rax
	movl	72684(%rax), %eax
	jmp	.LBB28_326
.LBB28_325:                             # %cond.false913
	movl	-12(%rbp), %eax
	addl	$16, %eax
	cltd
	movl	$32, %ecx
	idivl	%ecx
.LBB28_326:                             # %cond.end916
.LBB28_327:                             # %cond.end918
	movl	%eax, -104(%rbp)
	movl	-108(%rbp), %eax
	addl	-104(%rbp), %eax
	cltd
	movl	$2, %ecx
	idivl	%ecx
	movl	%eax, -12(%rbp)
.LBB28_328:                             # %if.end922
	jmp	.LBB28_329
.LBB28_329:                             # %if.end923
	jmp	.LBB28_330
.LBB28_330:                             # %if.end924
	jmp	.LBB28_331
.LBB28_331:                             # %if.end925
	jmp	.LBB28_332
.LBB28_332:                             # %if.end926
	movl	-12(%rbp), %ebx
	cmpl	$880756962, -100(%rbp)  # imm = 0x347F48E2
	jne	.LBB28_334
.LBB28_333:
	movzbl	%bl, %eax
	addq	$104, %rsp
	popq	%rbx
	popq	%rbp
	.cfi_def_cfa %rsp, 8
	retq
.LBB28_334:                             # %func_exit
	.cfi_def_cfa %rbp, 16
	callq	detect_breach
	jmp	.LBB28_333
.Lfunc_end28:
	.size	Get_Reference_Pixel.18, .Lfunc_end28-Get_Reference_Pixel.18
	.cfi_endproc
                                        # -- End function
	.globl	DecOneForthPix.19       # -- Begin function DecOneForthPix.19
	.p2align	4, 0x90
	.type	DecOneForthPix.19,@function
DecOneForthPix.19:                      # @DecOneForthPix.19
	.cfi_startproc
# %bb.0:                                # %entry
	pushq	%rbp
	.cfi_def_cfa_offset 16
	.cfi_offset %rbp, -16
	movq	%rsp, %rbp
	.cfi_def_cfa_register %rbp
	subq	$32, %rsp
	movl	$1172805931, -8(%rbp)   # imm = 0x45E7992B
	movq	%rdi, -32(%rbp)
	movq	%rsi, -24(%rbp)
	movq	img, %rax
	movl	(%rax), %eax
	subl	start_frame_no_in_this_IGOP, %eax
	movq	img, %rcx
	cltd
	idivl	72376(%rcx)
	movl	%edx, -12(%rbp)
	movl	$0, -4(%rbp)
.LBB29_1:                               # %for.cond
                                        # =>This Inner Loop Header: Depth=1
	movl	-4(%rbp), %eax
	movq	img, %rcx
	cmpl	60(%rcx), %eax
	jge	.LBB29_4
# %bb.2:                                # %for.body
                                        #   in Loop: Header=BB29_1 Depth=1
	movq	-24(%rbp), %rax
	movslq	-12(%rbp), %rcx
	movq	(%rax,%rcx,8), %rax
	movslq	-4(%rbp), %rcx
	movq	(%rax,%rcx,8), %rdi
	movq	-32(%rbp), %rax
	movslq	-4(%rbp), %rcx
	movq	(%rax,%rcx,8), %rsi
	movq	img, %rax
	movslq	52(%rax), %rdx
	shlq	$1, %rdx
	callq	memcpy
# %bb.3:                                # %for.inc
                                        #   in Loop: Header=BB29_1 Depth=1
	movl	-4(%rbp), %eax
	addl	$1, %eax
	movl	%eax, -4(%rbp)
	jmp	.LBB29_1
.LBB29_4:                               # %for.end
	cmpl	$1172805931, -8(%rbp)   # imm = 0x45E7992B
	jne	.LBB29_6
.LBB29_5:
	addq	$32, %rsp
	popq	%rbp
	.cfi_def_cfa %rsp, 8
	retq
.LBB29_6:                               # %func_exit
	.cfi_def_cfa %rbp, 16
	callq	detect_breach
	jmp	.LBB29_5
.Lfunc_end29:
	.size	DecOneForthPix.19, .Lfunc_end29-DecOneForthPix.19
	.cfi_endproc
                                        # -- End function
	.globl	DecOneForthPix.20       # -- Begin function DecOneForthPix.20
	.p2align	4, 0x90
	.type	DecOneForthPix.20,@function
DecOneForthPix.20:                      # @DecOneForthPix.20
	.cfi_startproc
# %bb.0:                                # %entry
	pushq	%rbp
	.cfi_def_cfa_offset 16
	.cfi_offset %rbp, -16
	movq	%rsp, %rbp
	.cfi_def_cfa_register %rbp
	subq	$32, %rsp
	movl	$1625423945, -8(%rbp)   # imm = 0x60E20049
	movq	%rdi, -32(%rbp)
	movq	%rsi, -24(%rbp)
	movq	img, %rax
	movl	(%rax), %eax
	subl	start_frame_no_in_this_IGOP, %eax
	movq	img, %rcx
	cltd
	idivl	72376(%rcx)
	movl	%edx, -12(%rbp)
	movl	$0, -4(%rbp)
.LBB30_1:                               # %for.cond
                                        # =>This Inner Loop Header: Depth=1
	movl	-4(%rbp), %eax
	movq	img, %rcx
	cmpl	60(%rcx), %eax
	jge	.LBB30_4
# %bb.2:                                # %for.body
                                        #   in Loop: Header=BB30_1 Depth=1
	movq	-24(%rbp), %rax
	movslq	-12(%rbp), %rcx
	movq	(%rax,%rcx,8), %rax
	movslq	-4(%rbp), %rcx
	movq	(%rax,%rcx,8), %rdi
	movq	-32(%rbp), %rax
	movslq	-4(%rbp), %rcx
	movq	(%rax,%rcx,8), %rsi
	movq	img, %rax
	movslq	52(%rax), %rdx
	shlq	$1, %rdx
	callq	memcpy
# %bb.3:                                # %for.inc
                                        #   in Loop: Header=BB30_1 Depth=1
	movl	-4(%rbp), %eax
	addl	$1, %eax
	movl	%eax, -4(%rbp)
	jmp	.LBB30_1
.LBB30_4:                               # %for.end
	cmpl	$1625423945, -8(%rbp)   # imm = 0x60E20049
	jne	.LBB30_6
.LBB30_5:
	addq	$32, %rsp
	popq	%rbp
	.cfi_def_cfa %rsp, 8
	retq
.LBB30_6:                               # %func_exit
	.cfi_def_cfa %rbp, 16
	callq	detect_breach
	jmp	.LBB30_5
.Lfunc_end30:
	.size	DecOneForthPix.20, .Lfunc_end30-DecOneForthPix.20
	.cfi_endproc
                                        # -- End function
	.globl	decode_one_b8block.21   # -- Begin function decode_one_b8block.21
	.p2align	4, 0x90
	.type	decode_one_b8block.21,@function
decode_one_b8block.21:                  # @decode_one_b8block.21
	.cfi_startproc
# %bb.0:                                # %entry
	pushq	%rbp
	.cfi_def_cfa_offset 16
	.cfi_offset %rbp, -16
	movq	%rsp, %rbp
	.cfi_def_cfa_register %rbp
	subq	$1248, %rsp             # imm = 0x4E0
	movl	$604015724, -84(%rbp)   # imm = 0x24008C6C
	movl	%edi, -56(%rbp)
	movl	%esi, -64(%rbp)
	movl	%edx, -72(%rbp)
	movl	%ecx, -24(%rbp)
	movl	%r8d, -60(%rbp)
	movq	img, %rax
	movl	(%rax), %eax
	subl	start_frame_no_in_this_IGOP, %eax
	subl	$1, %eax
	movq	img, %rcx
	cltd
	idivl	32(%rcx)
	movl	%edx, -76(%rbp)
	movl	-72(%rbp), %eax
	cltd
	movl	$2, %ecx
	idivl	%ecx
	shll	$3, %edx
	movl	%edx, -20(%rbp)
	movl	-20(%rbp), %eax
	addl	$8, %eax
	movl	%eax, -44(%rbp)
	movl	-20(%rbp), %eax
	sarl	$2, %eax
	movl	%eax, -32(%rbp)
	movl	-32(%rbp), %eax
	addl	$2, %eax
	movl	%eax, -52(%rbp)
	movl	-72(%rbp), %eax
	cltd
	idivl	%ecx
	shll	$3, %eax
	movl	%eax, -28(%rbp)
	movl	-28(%rbp), %eax
	addl	$8, %eax
	movl	%eax, -40(%rbp)
	movl	-28(%rbp), %eax
	sarl	$2, %eax
	movl	%eax, -36(%rbp)
	movl	-36(%rbp), %eax
	addl	$2, %eax
	movl	%eax, -48(%rbp)
	movq	img, %rax
	cmpl	$2, 24(%rax)
	jne	.LBB31_10
# %bb.1:                                # %if.then
	movl	-20(%rbp), %eax
	movl	%eax, -4(%rbp)
.LBB31_2:                               # %for.cond
                                        # =>This Loop Header: Depth=1
                                        #     Child Loop BB31_4 Depth 2
	movl	-4(%rbp), %eax
	cmpl	-44(%rbp), %eax
	jge	.LBB31_9
# %bb.3:                                # %for.body
                                        #   in Loop: Header=BB31_2 Depth=1
	movl	-28(%rbp), %eax
	movl	%eax, -8(%rbp)
.LBB31_4:                               # %for.cond9
                                        #   Parent Loop BB31_2 Depth=1
                                        # =>  This Inner Loop Header: Depth=2
	movl	-8(%rbp), %eax
	cmpl	-40(%rbp), %eax
	jge	.LBB31_7
# %bb.5:                                # %for.body11
                                        #   in Loop: Header=BB31_4 Depth=2
	movq	enc_picture, %rax
	movq	6424(%rax), %rax
	movq	img, %rcx
	movl	156(%rcx), %ecx
	addl	-8(%rbp), %ecx
	movslq	%ecx, %rcx
	movq	(%rax,%rcx,8), %rax
	movq	img, %rcx
	movl	152(%rcx), %ecx
	addl	-4(%rbp), %ecx
	movslq	%ecx, %rcx
	movw	(%rax,%rcx,2), %ax
	movq	decs, %rcx
	movq	8(%rcx), %rcx
	movslq	-56(%rbp), %rdx
	movq	(%rcx,%rdx,8), %rcx
	movq	img, %rdx
	movl	156(%rdx), %edx
	addl	-8(%rbp), %edx
	movslq	%edx, %rdx
	movq	(%rcx,%rdx,8), %rcx
	movq	img, %rdx
	movl	152(%rdx), %edx
	addl	-4(%rbp), %edx
	movslq	%edx, %rdx
	movw	%ax, (%rcx,%rdx,2)
# %bb.6:                                # %for.inc
                                        #   in Loop: Header=BB31_4 Depth=2
	movl	-8(%rbp), %eax
	addl	$1, %eax
	movl	%eax, -8(%rbp)
	jmp	.LBB31_4
.LBB31_7:                               # %for.end
                                        #   in Loop: Header=BB31_2 Depth=1
	jmp	.LBB31_8
.LBB31_8:                               # %for.inc26
                                        #   in Loop: Header=BB31_2 Depth=1
	movl	-4(%rbp), %eax
	addl	$1, %eax
	movl	%eax, -4(%rbp)
	jmp	.LBB31_2
.LBB31_9:                               # %for.end28
	jmp	.LBB31_96
.LBB31_10:                              # %if.else
	cmpl	$0, -64(%rbp)
	jne	.LBB31_31
# %bb.11:                               # %land.lhs.true
	movq	img, %rax
	cmpl	$0, 24(%rax)
	je	.LBB31_14
# %bb.12:                               # %lor.lhs.false
	movq	img, %rax
	cmpl	$1, 24(%rax)
	jne	.LBB31_31
# %bb.13:                               # %land.lhs.true34
	movq	img, %rax
	cmpl	$0, 72496(%rax)
	jle	.LBB31_31
.LBB31_14:                              # %if.then36
	movl	-20(%rbp), %eax
	movl	%eax, -4(%rbp)
.LBB31_15:                              # %for.cond37
                                        # =>This Loop Header: Depth=1
                                        #     Child Loop BB31_17 Depth 2
	movl	-4(%rbp), %eax
	cmpl	-44(%rbp), %eax
	jge	.LBB31_22
# %bb.16:                               # %for.body39
                                        #   in Loop: Header=BB31_15 Depth=1
	movl	-28(%rbp), %eax
	movl	%eax, -8(%rbp)
.LBB31_17:                              # %for.cond40
                                        #   Parent Loop BB31_15 Depth=1
                                        # =>  This Inner Loop Header: Depth=2
	movl	-8(%rbp), %eax
	cmpl	-40(%rbp), %eax
	jge	.LBB31_20
# %bb.18:                               # %for.body42
                                        #   in Loop: Header=BB31_17 Depth=2
	movslq	-8(%rbp), %rax
	shlq	$6, %rax
	leaq	-1248(%rbp), %rcx
	addq	%rax, %rcx
	movslq	-4(%rbp), %rax
	movl	$0, (%rcx,%rax,4)
# %bb.19:                               # %for.inc47
                                        #   in Loop: Header=BB31_17 Depth=2
	movl	-8(%rbp), %eax
	addl	$1, %eax
	movl	%eax, -8(%rbp)
	jmp	.LBB31_17
.LBB31_20:                              # %for.end49
                                        #   in Loop: Header=BB31_15 Depth=1
	jmp	.LBB31_21
.LBB31_21:                              # %for.inc50
                                        #   in Loop: Header=BB31_15 Depth=1
	movl	-4(%rbp), %eax
	addl	$1, %eax
	movl	%eax, -4(%rbp)
	jmp	.LBB31_15
.LBB31_22:                              # %for.end52
	movl	-36(%rbp), %eax
	movl	%eax, -12(%rbp)
.LBB31_23:                              # %for.cond53
                                        # =>This Loop Header: Depth=1
                                        #     Child Loop BB31_25 Depth 2
	movl	-12(%rbp), %eax
	cmpl	-48(%rbp), %eax
	jge	.LBB31_30
# %bb.24:                               # %for.body55
                                        #   in Loop: Header=BB31_23 Depth=1
	movl	-32(%rbp), %eax
	movl	%eax, -16(%rbp)
.LBB31_25:                              # %for.cond56
                                        #   Parent Loop BB31_23 Depth=1
                                        # =>  This Inner Loop Header: Depth=2
	movl	-16(%rbp), %eax
	cmpl	-52(%rbp), %eax
	jge	.LBB31_28
# %bb.26:                               # %for.body58
                                        #   in Loop: Header=BB31_25 Depth=2
	leaq	-224(%rbp), %rax
	movq	%rax, %rcx
	addq	$64, %rcx
	movslq	-12(%rbp), %rdx
	shlq	$4, %rdx
	addq	%rdx, %rcx
	movslq	-16(%rbp), %rdx
	movl	$0, (%rcx,%rdx,4)
	movslq	-12(%rbp), %rcx
	shlq	$4, %rcx
	addq	%rcx, %rax
	movslq	-16(%rbp), %rcx
	movl	$0, (%rax,%rcx,4)
# %bb.27:                               # %for.inc69
                                        #   in Loop: Header=BB31_25 Depth=2
	movl	-16(%rbp), %eax
	addl	$1, %eax
	movl	%eax, -16(%rbp)
	jmp	.LBB31_25
.LBB31_28:                              # %for.end71
                                        #   in Loop: Header=BB31_23 Depth=1
	jmp	.LBB31_29
.LBB31_29:                              # %for.inc72
                                        #   in Loop: Header=BB31_23 Depth=1
	movl	-12(%rbp), %eax
	addl	$1, %eax
	movl	%eax, -12(%rbp)
	jmp	.LBB31_23
.LBB31_30:                              # %for.end74
	jmp	.LBB31_60
.LBB31_31:                              # %if.else75
	cmpl	$1, -24(%rbp)
	jl	.LBB31_42
# %bb.32:                               # %land.lhs.true77
	cmpl	$7, -24(%rbp)
	jg	.LBB31_42
# %bb.33:                               # %if.then79
	movl	-36(%rbp), %eax
	movl	%eax, -12(%rbp)
.LBB31_34:                              # %for.cond80
                                        # =>This Loop Header: Depth=1
                                        #     Child Loop BB31_36 Depth 2
	movl	-12(%rbp), %eax
	cmpl	-48(%rbp), %eax
	jge	.LBB31_41
# %bb.35:                               # %for.body82
                                        #   in Loop: Header=BB31_34 Depth=1
	movl	-32(%rbp), %eax
	movl	%eax, -16(%rbp)
.LBB31_36:                              # %for.cond83
                                        #   Parent Loop BB31_34 Depth=1
                                        # =>  This Inner Loop Header: Depth=2
	movl	-16(%rbp), %eax
	cmpl	-52(%rbp), %eax
	jge	.LBB31_39
# %bb.37:                               # %for.body85
                                        #   in Loop: Header=BB31_36 Depth=2
	leaq	-224(%rbp), %rax
	movq	img, %rcx
	movq	71928(%rcx), %rcx
	movslq	-16(%rbp), %rdx
	movq	(%rcx,%rdx,8), %rcx
	movslq	-12(%rbp), %rdx
	movq	(%rcx,%rdx,8), %rcx
	movq	(%rcx), %rcx
	movslq	-60(%rbp), %rdx
	movq	(%rcx,%rdx,8), %rcx
	movslq	-24(%rbp), %rdx
	movq	(%rcx,%rdx,8), %rcx
	movswl	(%rcx), %ecx
	movslq	-12(%rbp), %rdx
	shlq	$4, %rdx
	movq	%rax, %rsi
	addq	%rdx, %rsi
	movslq	-16(%rbp), %rdx
	movl	%ecx, (%rsi,%rdx,4)
	movq	img, %rcx
	movq	71928(%rcx), %rcx
	movslq	-16(%rbp), %rdx
	movq	(%rcx,%rdx,8), %rcx
	movslq	-12(%rbp), %rdx
	movq	(%rcx,%rdx,8), %rcx
	movq	(%rcx), %rcx
	movslq	-60(%rbp), %rdx
	movq	(%rcx,%rdx,8), %rcx
	movslq	-24(%rbp), %rdx
	movq	(%rcx,%rdx,8), %rcx
	movswl	2(%rcx), %ecx
	addq	$64, %rax
	movslq	-12(%rbp), %rdx
	shlq	$4, %rdx
	addq	%rdx, %rax
	movslq	-16(%rbp), %rdx
	movl	%ecx, (%rax,%rdx,4)
# %bb.38:                               # %for.inc118
                                        #   in Loop: Header=BB31_36 Depth=2
	movl	-16(%rbp), %eax
	addl	$1, %eax
	movl	%eax, -16(%rbp)
	jmp	.LBB31_36
.LBB31_39:                              # %for.end120
                                        #   in Loop: Header=BB31_34 Depth=1
	jmp	.LBB31_40
.LBB31_40:                              # %for.inc121
                                        #   in Loop: Header=BB31_34 Depth=1
	movl	-12(%rbp), %eax
	addl	$1, %eax
	movl	%eax, -12(%rbp)
	jmp	.LBB31_34
.LBB31_41:                              # %for.end123
	jmp	.LBB31_51
.LBB31_42:                              # %if.else124
	movl	-36(%rbp), %eax
	movl	%eax, -12(%rbp)
.LBB31_43:                              # %for.cond125
                                        # =>This Loop Header: Depth=1
                                        #     Child Loop BB31_45 Depth 2
	movl	-12(%rbp), %eax
	cmpl	-48(%rbp), %eax
	jge	.LBB31_50
# %bb.44:                               # %for.body128
                                        #   in Loop: Header=BB31_43 Depth=1
	movl	-32(%rbp), %eax
	movl	%eax, -16(%rbp)
.LBB31_45:                              # %for.cond129
                                        #   Parent Loop BB31_43 Depth=1
                                        # =>  This Inner Loop Header: Depth=2
	movl	-16(%rbp), %eax
	cmpl	-52(%rbp), %eax
	jge	.LBB31_48
# %bb.46:                               # %for.body132
                                        #   in Loop: Header=BB31_45 Depth=2
	leaq	-224(%rbp), %rax
	movq	%rax, %rcx
	addq	$64, %rcx
	movslq	-12(%rbp), %rdx
	shlq	$4, %rdx
	addq	%rdx, %rcx
	movslq	-16(%rbp), %rdx
	movl	$0, (%rcx,%rdx,4)
	movslq	-12(%rbp), %rcx
	shlq	$4, %rcx
	addq	%rcx, %rax
	movslq	-16(%rbp), %rcx
	movl	$0, (%rax,%rcx,4)
# %bb.47:                               # %for.inc143
                                        #   in Loop: Header=BB31_45 Depth=2
	movl	-16(%rbp), %eax
	addl	$1, %eax
	movl	%eax, -16(%rbp)
	jmp	.LBB31_45
.LBB31_48:                              # %for.end145
                                        #   in Loop: Header=BB31_43 Depth=1
	jmp	.LBB31_49
.LBB31_49:                              # %for.inc146
                                        #   in Loop: Header=BB31_43 Depth=1
	movl	-12(%rbp), %eax
	addl	$1, %eax
	movl	%eax, -12(%rbp)
	jmp	.LBB31_43
.LBB31_50:                              # %for.end148
	jmp	.LBB31_51
.LBB31_51:                              # %if.end
	movl	-20(%rbp), %eax
	movl	%eax, -4(%rbp)
.LBB31_52:                              # %for.cond149
                                        # =>This Loop Header: Depth=1
                                        #     Child Loop BB31_54 Depth 2
	movl	-4(%rbp), %eax
	cmpl	-44(%rbp), %eax
	jge	.LBB31_59
# %bb.53:                               # %for.body152
                                        #   in Loop: Header=BB31_52 Depth=1
	movl	-28(%rbp), %eax
	movl	%eax, -8(%rbp)
.LBB31_54:                              # %for.cond153
                                        #   Parent Loop BB31_52 Depth=1
                                        # =>  This Inner Loop Header: Depth=2
	movl	-8(%rbp), %eax
	cmpl	-40(%rbp), %eax
	jge	.LBB31_57
# %bb.55:                               # %for.body156
                                        #   in Loop: Header=BB31_54 Depth=2
	movq	decs, %rax
	movq	(%rax), %rax
	movslq	-8(%rbp), %rcx
	movq	(%rax,%rcx,8), %rax
	movslq	-4(%rbp), %rcx
	movl	(%rax,%rcx,4), %eax
	movslq	-8(%rbp), %rcx
	shlq	$6, %rcx
	leaq	-1248(%rbp), %rdx
	addq	%rcx, %rdx
	movslq	-4(%rbp), %rcx
	movl	%eax, (%rdx,%rcx,4)
# %bb.56:                               # %for.inc165
                                        #   in Loop: Header=BB31_54 Depth=2
	movl	-8(%rbp), %eax
	addl	$1, %eax
	movl	%eax, -8(%rbp)
	jmp	.LBB31_54
.LBB31_57:                              # %for.end167
                                        #   in Loop: Header=BB31_52 Depth=1
	jmp	.LBB31_58
.LBB31_58:                              # %for.inc168
                                        #   in Loop: Header=BB31_52 Depth=1
	movl	-4(%rbp), %eax
	addl	$1, %eax
	movl	%eax, -4(%rbp)
	jmp	.LBB31_52
.LBB31_59:                              # %for.end170
	jmp	.LBB31_60
.LBB31_60:                              # %if.end171
	cmpl	$1, -24(%rbp)
	jl	.LBB31_62
# %bb.61:                               # %land.lhs.true174
	cmpl	$7, -24(%rbp)
	jle	.LBB31_66
.LBB31_62:                              # %lor.lhs.false177
	cmpl	$0, -64(%rbp)
	jne	.LBB31_86
# %bb.63:                               # %land.lhs.true180
	movq	img, %rax
	cmpl	$0, 24(%rax)
	je	.LBB31_66
# %bb.64:                               # %lor.lhs.false184
	movq	img, %rax
	cmpl	$1, 24(%rax)
	jne	.LBB31_86
# %bb.65:                               # %land.lhs.true188
	movq	img, %rax
	cmpl	$0, 72496(%rax)
	jle	.LBB31_86
.LBB31_66:                              # %if.then192
	movl	-36(%rbp), %eax
	movl	%eax, -12(%rbp)
.LBB31_67:                              # %for.cond193
                                        # =>This Loop Header: Depth=1
                                        #     Child Loop BB31_69 Depth 2
                                        #       Child Loop BB31_74 Depth 3
                                        #         Child Loop BB31_76 Depth 4
	movl	-12(%rbp), %eax
	cmpl	-48(%rbp), %eax
	jge	.LBB31_85
# %bb.68:                               # %for.body196
                                        #   in Loop: Header=BB31_67 Depth=1
	movl	-32(%rbp), %eax
	movl	%eax, -16(%rbp)
.LBB31_69:                              # %for.cond197
                                        #   Parent Loop BB31_67 Depth=1
                                        # =>  This Loop Header: Depth=2
                                        #       Child Loop BB31_74 Depth 3
                                        #         Child Loop BB31_76 Depth 4
	movl	-16(%rbp), %eax
	cmpl	-52(%rbp), %eax
	jge	.LBB31_83
# %bb.70:                               # %for.body200
                                        #   in Loop: Header=BB31_69 Depth=2
	movq	img, %rax
	movl	144(%rax), %eax
	addl	-16(%rbp), %eax
	movl	%eax, -68(%rbp)
	movq	img, %rax
	movl	148(%rax), %eax
	addl	-12(%rbp), %eax
	movl	%eax, -80(%rbp)
	movq	img, %rax
	cmpl	$1, 24(%rax)
	jne	.LBB31_73
# %bb.71:                               # %land.lhs.true208
                                        #   in Loop: Header=BB31_69 Depth=2
	movq	enc_picture, %rax
	cmpq	enc_frame_picture, %rax
	je	.LBB31_73
# %bb.72:                               # %if.then211
                                        #   in Loop: Header=BB31_69 Depth=2
	movq	img, %rax
	movl	(%rax), %eax
	subl	start_frame_no_in_this_IGOP, %eax
	subl	-60(%rbp), %eax
	subl	$2, %eax
	movq	img, %rcx
	cltd
	idivl	32(%rcx)
	movl	%edx, -76(%rbp)
.LBB31_73:                              # %if.end218
                                        #   in Loop: Header=BB31_69 Depth=2
	leaq	-224(%rbp), %r8
	movq	decs, %rcx
	movq	16(%rcx), %rcx
	movslq	-56(%rbp), %rdx
	movq	(%rcx,%rdx,8), %rcx
	movslq	-76(%rbp), %rdx
	movq	(%rcx,%rdx,8), %rdi
	movl	-80(%rbp), %esi
	movl	-68(%rbp), %edx
	movslq	-12(%rbp), %rcx
	shlq	$4, %rcx
	movq	%r8, %rax
	addq	%rcx, %rax
	movslq	-16(%rbp), %rcx
	movl	(%rax,%rcx,4), %ecx
	addq	$64, %r8
	movslq	-12(%rbp), %rax
	shlq	$4, %rax
	addq	%rax, %r8
	movslq	-16(%rbp), %rax
	movl	(%r8,%rax,4), %r8d
	movq	decs, %rax
	movq	32(%rax), %r9
	callq	Get_Reference_Block
	movl	$0, -8(%rbp)
.LBB31_74:                              # %for.cond233
                                        #   Parent Loop BB31_67 Depth=1
                                        #     Parent Loop BB31_69 Depth=2
                                        # =>    This Loop Header: Depth=3
                                        #         Child Loop BB31_76 Depth 4
	cmpl	$4, -8(%rbp)
	jge	.LBB31_81
# %bb.75:                               # %for.body236
                                        #   in Loop: Header=BB31_74 Depth=3
	movl	$0, -4(%rbp)
.LBB31_76:                              # %for.cond237
                                        #   Parent Loop BB31_67 Depth=1
                                        #     Parent Loop BB31_69 Depth=2
                                        #       Parent Loop BB31_74 Depth=3
                                        # =>      This Inner Loop Header: Depth=4
	cmpl	$4, -4(%rbp)
	jge	.LBB31_79
# %bb.77:                               # %for.body240
                                        #   in Loop: Header=BB31_76 Depth=4
	movl	-12(%rbp), %eax
	shll	$2, %eax
	addl	-8(%rbp), %eax
	cltq
	shlq	$6, %rax
	leaq	-1248(%rbp), %rcx
	addq	%rax, %rcx
	movl	-16(%rbp), %eax
	shll	$2, %eax
	addl	-4(%rbp), %eax
	cltq
	movl	(%rcx,%rax,4), %eax
	movq	decs, %rcx
	movq	32(%rcx), %rcx
	movslq	-8(%rbp), %rdx
	movq	(%rcx,%rdx,8), %rcx
	movslq	-4(%rbp), %rdx
	movzwl	(%rcx,%rdx,2), %ecx
	addl	%ecx, %eax
	movq	decs, %rcx
	movq	8(%rcx), %rcx
	movslq	-56(%rbp), %rdx
	movq	(%rcx,%rdx,8), %rcx
	movl	-80(%rbp), %edx
	shll	$2, %edx
	addl	-8(%rbp), %edx
	movslq	%edx, %rdx
	movq	(%rcx,%rdx,8), %rcx
	movl	-68(%rbp), %edx
	shll	$2, %edx
	addl	-4(%rbp), %edx
	movslq	%edx, %rdx
	movw	%ax, (%rcx,%rdx,2)
# %bb.78:                               # %for.inc267
                                        #   in Loop: Header=BB31_76 Depth=4
	movl	-4(%rbp), %eax
	addl	$1, %eax
	movl	%eax, -4(%rbp)
	jmp	.LBB31_76
.LBB31_79:                              # %for.end269
                                        #   in Loop: Header=BB31_74 Depth=3
	jmp	.LBB31_80
.LBB31_80:                              # %for.inc270
                                        #   in Loop: Header=BB31_74 Depth=3
	movl	-8(%rbp), %eax
	addl	$1, %eax
	movl	%eax, -8(%rbp)
	jmp	.LBB31_74
.LBB31_81:                              # %for.end272
                                        #   in Loop: Header=BB31_69 Depth=2
	jmp	.LBB31_82
.LBB31_82:                              # %for.inc273
                                        #   in Loop: Header=BB31_69 Depth=2
	movl	-16(%rbp), %eax
	addl	$1, %eax
	movl	%eax, -16(%rbp)
	jmp	.LBB31_69
.LBB31_83:                              # %for.end275
                                        #   in Loop: Header=BB31_67 Depth=1
	jmp	.LBB31_84
.LBB31_84:                              # %for.inc276
                                        #   in Loop: Header=BB31_67 Depth=1
	movl	-12(%rbp), %eax
	addl	$1, %eax
	movl	%eax, -12(%rbp)
	jmp	.LBB31_67
.LBB31_85:                              # %for.end278
	jmp	.LBB31_95
.LBB31_86:                              # %if.else279
	movl	-20(%rbp), %eax
	movl	%eax, -4(%rbp)
.LBB31_87:                              # %for.cond280
                                        # =>This Loop Header: Depth=1
                                        #     Child Loop BB31_89 Depth 2
	movl	-4(%rbp), %eax
	cmpl	-44(%rbp), %eax
	jge	.LBB31_94
# %bb.88:                               # %for.body283
                                        #   in Loop: Header=BB31_87 Depth=1
	movl	-28(%rbp), %eax
	movl	%eax, -8(%rbp)
.LBB31_89:                              # %for.cond284
                                        #   Parent Loop BB31_87 Depth=1
                                        # =>  This Inner Loop Header: Depth=2
	movl	-8(%rbp), %eax
	cmpl	-40(%rbp), %eax
	jge	.LBB31_92
# %bb.90:                               # %for.body287
                                        #   in Loop: Header=BB31_89 Depth=2
	movq	enc_picture, %rax
	movq	6424(%rax), %rax
	movq	img, %rcx
	movl	156(%rcx), %ecx
	addl	-8(%rbp), %ecx
	movslq	%ecx, %rcx
	movq	(%rax,%rcx,8), %rax
	movq	img, %rcx
	movl	152(%rcx), %ecx
	addl	-4(%rbp), %ecx
	movslq	%ecx, %rcx
	movw	(%rax,%rcx,2), %ax
	movq	decs, %rcx
	movq	8(%rcx), %rcx
	movslq	-56(%rbp), %rdx
	movq	(%rcx,%rdx,8), %rcx
	movq	img, %rdx
	movl	156(%rdx), %edx
	addl	-8(%rbp), %edx
	movslq	%edx, %rdx
	movq	(%rcx,%rdx,8), %rcx
	movq	img, %rdx
	movl	152(%rdx), %edx
	addl	-4(%rbp), %edx
	movslq	%edx, %rdx
	movw	%ax, (%rcx,%rdx,2)
# %bb.91:                               # %for.inc308
                                        #   in Loop: Header=BB31_89 Depth=2
	movl	-8(%rbp), %eax
	addl	$1, %eax
	movl	%eax, -8(%rbp)
	jmp	.LBB31_89
.LBB31_92:                              # %for.end310
                                        #   in Loop: Header=BB31_87 Depth=1
	jmp	.LBB31_93
.LBB31_93:                              # %for.inc311
                                        #   in Loop: Header=BB31_87 Depth=1
	movl	-4(%rbp), %eax
	addl	$1, %eax
	movl	%eax, -4(%rbp)
	jmp	.LBB31_87
.LBB31_94:                              # %for.end313
	jmp	.LBB31_95
.LBB31_95:                              # %if.end314
	jmp	.LBB31_96
.LBB31_96:                              # %if.end315
	cmpl	$604015724, -84(%rbp)   # imm = 0x24008C6C
	jne	.LBB31_98
.LBB31_97:
	addq	$1248, %rsp             # imm = 0x4E0
	popq	%rbp
	.cfi_def_cfa %rsp, 8
	retq
.LBB31_98:                              # %func_exit
	.cfi_def_cfa %rbp, 16
	callq	detect_breach
	jmp	.LBB31_97
.Lfunc_end31:
	.size	decode_one_b8block.21, .Lfunc_end31-decode_one_b8block.21
	.cfi_endproc
                                        # -- End function
	.globl	decode_one_b8block.22   # -- Begin function decode_one_b8block.22
	.p2align	4, 0x90
	.type	decode_one_b8block.22,@function
decode_one_b8block.22:                  # @decode_one_b8block.22
	.cfi_startproc
# %bb.0:                                # %entry
	pushq	%rbp
	.cfi_def_cfa_offset 16
	.cfi_offset %rbp, -16
	movq	%rsp, %rbp
	.cfi_def_cfa_register %rbp
	subq	$1248, %rsp             # imm = 0x4E0
	movl	$1751547241, -84(%rbp)  # imm = 0x68667D69
	movl	%edi, -56(%rbp)
	movl	%esi, -76(%rbp)
	movl	%edx, -64(%rbp)
	movl	%ecx, -20(%rbp)
	movl	%r8d, -60(%rbp)
	movq	img, %rax
	movl	(%rax), %eax
	subl	start_frame_no_in_this_IGOP, %eax
	subl	$1, %eax
	movq	img, %rcx
	cltd
	idivl	32(%rcx)
	movl	%edx, -80(%rbp)
	movl	-64(%rbp), %eax
	cltd
	movl	$2, %ecx
	idivl	%ecx
	shll	$3, %edx
	movl	%edx, -24(%rbp)
	movl	-24(%rbp), %eax
	addl	$8, %eax
	movl	%eax, -52(%rbp)
	movl	-24(%rbp), %eax
	sarl	$2, %eax
	movl	%eax, -32(%rbp)
	movl	-32(%rbp), %eax
	addl	$2, %eax
	movl	%eax, -48(%rbp)
	movl	-64(%rbp), %eax
	cltd
	idivl	%ecx
	shll	$3, %eax
	movl	%eax, -28(%rbp)
	movl	-28(%rbp), %eax
	addl	$8, %eax
	movl	%eax, -44(%rbp)
	movl	-28(%rbp), %eax
	sarl	$2, %eax
	movl	%eax, -36(%rbp)
	movl	-36(%rbp), %eax
	addl	$2, %eax
	movl	%eax, -40(%rbp)
	movq	img, %rax
	cmpl	$2, 24(%rax)
	jne	.LBB32_10
# %bb.1:                                # %if.then
	movl	-24(%rbp), %eax
	movl	%eax, -4(%rbp)
.LBB32_2:                               # %for.cond
                                        # =>This Loop Header: Depth=1
                                        #     Child Loop BB32_4 Depth 2
	movl	-4(%rbp), %eax
	cmpl	-52(%rbp), %eax
	jge	.LBB32_9
# %bb.3:                                # %for.body
                                        #   in Loop: Header=BB32_2 Depth=1
	movl	-28(%rbp), %eax
	movl	%eax, -8(%rbp)
.LBB32_4:                               # %for.cond9
                                        #   Parent Loop BB32_2 Depth=1
                                        # =>  This Inner Loop Header: Depth=2
	movl	-8(%rbp), %eax
	cmpl	-44(%rbp), %eax
	jge	.LBB32_7
# %bb.5:                                # %for.body11
                                        #   in Loop: Header=BB32_4 Depth=2
	movq	enc_picture, %rax
	movq	6424(%rax), %rax
	movq	img, %rcx
	movl	156(%rcx), %ecx
	addl	-8(%rbp), %ecx
	movslq	%ecx, %rcx
	movq	(%rax,%rcx,8), %rax
	movq	img, %rcx
	movl	152(%rcx), %ecx
	addl	-4(%rbp), %ecx
	movslq	%ecx, %rcx
	movw	(%rax,%rcx,2), %ax
	movq	decs, %rcx
	movq	8(%rcx), %rcx
	movslq	-56(%rbp), %rdx
	movq	(%rcx,%rdx,8), %rcx
	movq	img, %rdx
	movl	156(%rdx), %edx
