	.text
	.file	"decoder.c"
	.globl	decode_one_b8block      # -- Begin function decode_one_b8block
	.p2align	4, 0x90
	.type	decode_one_b8block,@function
decode_one_b8block:                     # @decode_one_b8block
	.cfi_startproc
# %bb.0:                                # %rand_bb
	pushq	%rbp
	.cfi_def_cfa_offset 16
	.cfi_offset %rbp, -16
	movq	%rsp, %rbp
	.cfi_def_cfa_register %rbp
	pushq	%r15
	pushq	%r14
	pushq	%r13
	pushq	%r12
	pushq	%rbx
	pushq	%rax
	.cfi_offset %rbx, -56
	.cfi_offset %r12, -48
	.cfi_offset %r13, -40
	.cfi_offset %r14, -32
	.cfi_offset %r15, -24
	movl	%r8d, %r14d
	movl	%ecx, %r15d
	movl	%edx, %r12d
	movl	%esi, %r13d
	movl	%edi, %ebx
	callq	get_urand
	cmpl	$0, %eax
	jne	.LBB0_5
# %bb.1:                                # %func_decode_one_b8block.11
	movl	%ebx, %edi
	movl	%r13d, %esi
	movl	%r12d, %edx
	movl	%r15d, %ecx
	movl	%r14d, %r8d
	callq	decode_one_b8block.11
	addq	$8, %rsp
	popq	%rbx
	popq	%r12
	popq	%r13
	popq	%r14
	popq	%r15
	popq	%rbp
	.cfi_def_cfa %rsp, 8
	retq
.LBB0_2:                                # %func_decode_one_b8block.14
	.cfi_def_cfa %rbp, 16
	movl	%ebx, %edi
	movl	%r13d, %esi
	movl	%r12d, %edx
	movl	%r15d, %ecx
	movl	%r14d, %r8d
	callq	decode_one_b8block.14
	addq	$8, %rsp
	popq	%rbx
	popq	%r12
	popq	%r13
	popq	%r14
	popq	%r15
	popq	%rbp
	.cfi_def_cfa %rsp, 8
	retq
.LBB0_3:                                # %func_decode_one_b8block.26
	.cfi_def_cfa %rbp, 16
	movl	%ebx, %edi
	movl	%r13d, %esi
	movl	%r12d, %edx
	movl	%r15d, %ecx
	movl	%r14d, %r8d
	callq	decode_one_b8block.26
	addq	$8, %rsp
	popq	%rbx
	popq	%r12
	popq	%r13
	popq	%r14
	popq	%r15
	popq	%rbp
	.cfi_def_cfa %rsp, 8
	retq
.LBB0_4:                                # %func_decode_one_b8block.34
	.cfi_def_cfa %rbp, 16
	movl	%ebx, %edi
	movl	%r13d, %esi
	movl	%r12d, %edx
	movl	%r15d, %ecx
	movl	%r14d, %r8d
	callq	decode_one_b8block.34
	addq	$8, %rsp
	popq	%rbx
	popq	%r12
	popq	%r13
	popq	%r14
	popq	%r15
	popq	%rbp
	.cfi_def_cfa %rsp, 8
	retq
.LBB0_5:                                # %ctrl0
	.cfi_def_cfa %rbp, 16
	cmpl	$1, %eax
	je	.LBB0_2
# %bb.6:                                # %ctrl1
	cmpl	$2, %eax
	je	.LBB0_3
	jmp	.LBB0_4
.Lfunc_end0:
	.size	decode_one_b8block, .Lfunc_end0-decode_one_b8block
	.cfi_endproc
                                        # -- End function
	.globl	Get_Reference_Block     # -- Begin function Get_Reference_Block
	.p2align	4, 0x90
	.type	Get_Reference_Block,@function
Get_Reference_Block:                    # @Get_Reference_Block
	.cfi_startproc
# %bb.0:                                # %rand_bb
	pushq	%rbp
	.cfi_def_cfa_offset 16
	.cfi_offset %rbp, -16
	movq	%rsp, %rbp
	.cfi_def_cfa_register %rbp
	pushq	%r15
	pushq	%r14
	pushq	%r13
	pushq	%r12
	pushq	%rbx
	pushq	%rax
	.cfi_offset %rbx, -56
	.cfi_offset %r12, -48
	.cfi_offset %r13, -40
	.cfi_offset %r14, -32
	.cfi_offset %r15, -24
	movq	%r9, -48(%rbp)          # 8-byte Spill
	movl	%r8d, %r12d
	movl	%ecx, %r13d
	movl	%edx, %ebx
	movl	%esi, %r14d
	movq	%rdi, %r15
	callq	get_urand
	cmpl	$0, %eax
	jne	.LBB1_5
# %bb.1:                                # %func_Get_Reference_Block.15
	movq	%r15, %rdi
	movl	%r14d, %esi
	movl	%ebx, %edx
	movl	%r13d, %ecx
	movl	%r12d, %r8d
	movq	-48(%rbp), %r9          # 8-byte Reload
	callq	Get_Reference_Block.15
	addq	$8, %rsp
	popq	%rbx
	popq	%r12
	popq	%r13
	popq	%r14
	popq	%r15
	popq	%rbp
	.cfi_def_cfa %rsp, 8
	retq
.LBB1_2:                                # %func_Get_Reference_Block.16
	.cfi_def_cfa %rbp, 16
	movq	%r15, %rdi
	movl	%r14d, %esi
	movl	%ebx, %edx
	movl	%r13d, %ecx
	movl	%r12d, %r8d
	callq	Get_Reference_Block.16
	addq	$8, %rsp
	popq	%rbx
	popq	%r12
	popq	%r13
	popq	%r14
	popq	%r15
	popq	%rbp
	.cfi_def_cfa %rsp, 8
	retq
.LBB1_3:                                # %func_Get_Reference_Block.21
	.cfi_def_cfa %rbp, 16
	callq	Get_Reference_Block.21
	addq	$8, %rsp
	popq	%rbx
	popq	%r12
	popq	%r13
	popq	%r14
	popq	%r15
	popq	%rbp
	.cfi_def_cfa %rsp, 8
	retq
.LBB1_4:                                # %func_Get_Reference_Block.31
	.cfi_def_cfa %rbp, 16
	callq	Get_Reference_Block.31
	addq	$8, %rsp
	popq	%rbx
	popq	%r12
	popq	%r13
	popq	%r14
	popq	%r15
	popq	%rbp
	.cfi_def_cfa %rsp, 8
	retq
.LBB1_5:                                # %ctrl0
	.cfi_def_cfa %rbp, 16
	movq	-48(%rbp), %r9          # 8-byte Reload
	cmpl	$1, %eax
	je	.LBB1_2
# %bb.6:                                # %ctrl1
	cmpl	$2, %eax
	movl	%r12d, %r8d
	movl	%r13d, %ecx
	movl	%ebx, %edx
	movl	%r14d, %esi
	movq	%r15, %rdi
	je	.LBB1_3
	jmp	.LBB1_4
.Lfunc_end1:
	.size	Get_Reference_Block, .Lfunc_end1-Get_Reference_Block
	.cfi_endproc
                                        # -- End function
	.globl	decode_one_mb           # -- Begin function decode_one_mb
	.p2align	4, 0x90
	.type	decode_one_mb,@function
decode_one_mb:                          # @decode_one_mb
	.cfi_startproc
# %bb.0:                                # %rand_bb
	pushq	%rbp
	.cfi_def_cfa_offset 16
	.cfi_offset %rbp, -16
	movq	%rsp, %rbp
	.cfi_def_cfa_register %rbp
	pushq	%r14
	pushq	%rbx
	.cfi_offset %rbx, -32
	.cfi_offset %r14, -24
	movq	%rsi, %r14
	movl	%edi, %ebx
	callq	get_urand
	cmpl	$0, %eax
	jne	.LBB2_2
# %bb.1:                                # %func_decode_one_mb.7
	movl	%ebx, %edi
	movq	%r14, %rsi
	callq	decode_one_mb.7
	popq	%rbx
	popq	%r14
	popq	%rbp
	.cfi_def_cfa %rsp, 8
	retq
.LBB2_2:                                # %func_decode_one_mb.8
	.cfi_def_cfa %rbp, 16
	movl	%ebx, %edi
	movq	%r14, %rsi
	callq	decode_one_mb.8
	popq	%rbx
	popq	%r14
	popq	%rbp
	.cfi_def_cfa %rsp, 8
	retq
.Lfunc_end2:
	.size	decode_one_mb, .Lfunc_end2-decode_one_mb
	.cfi_endproc
                                        # -- End function
	.globl	Get_Reference_Pixel     # -- Begin function Get_Reference_Pixel
	.p2align	4, 0x90
	.type	Get_Reference_Pixel,@function
Get_Reference_Pixel:                    # @Get_Reference_Pixel
	.cfi_startproc
# %bb.0:                                # %rand_bb
	pushq	%rbp
	.cfi_def_cfa_offset 16
	.cfi_offset %rbp, -16
	movq	%rsp, %rbp
	.cfi_def_cfa_register %rbp
	pushq	%r15
	pushq	%r14
	pushq	%rbx
	pushq	%rax
	.cfi_offset %rbx, -40
	.cfi_offset %r14, -32
	.cfi_offset %r15, -24
	movl	%edx, %r14d
	movl	%esi, %r15d
	movq	%rdi, %rbx
	callq	get_urand
	cmpl	$0, %eax
	jne	.LBB3_5
# %bb.1:                                # %func_Get_Reference_Pixel.2
	movq	%rbx, %rdi
	movl	%r15d, %esi
	movl	%r14d, %edx
	callq	Get_Reference_Pixel.2
	movzbl	%al, %eax
	addq	$8, %rsp
	popq	%rbx
	popq	%r14
	popq	%r15
	popq	%rbp
	.cfi_def_cfa %rsp, 8
	retq
.LBB3_2:                                # %func_Get_Reference_Pixel.4
	.cfi_def_cfa %rbp, 16
	movq	%rbx, %rdi
	movl	%r15d, %esi
	movl	%r14d, %edx
	callq	Get_Reference_Pixel.4
	movzbl	%al, %eax
	addq	$8, %rsp
	popq	%rbx
	popq	%r14
	popq	%r15
	popq	%rbp
	.cfi_def_cfa %rsp, 8
	retq
.LBB3_3:                                # %func_Get_Reference_Pixel.13
	.cfi_def_cfa %rbp, 16
	movq	%rbx, %rdi
	movl	%r15d, %esi
	movl	%r14d, %edx
	callq	Get_Reference_Pixel.13
	movzbl	%al, %eax
	addq	$8, %rsp
	popq	%rbx
	popq	%r14
	popq	%r15
	popq	%rbp
	.cfi_def_cfa %rsp, 8
	retq
.LBB3_4:                                # %func_Get_Reference_Pixel.19
	.cfi_def_cfa %rbp, 16
	movq	%rbx, %rdi
	movl	%r15d, %esi
	movl	%r14d, %edx
	callq	Get_Reference_Pixel.19
	movzbl	%al, %eax
	addq	$8, %rsp
	popq	%rbx
	popq	%r14
	popq	%r15
	popq	%rbp
	.cfi_def_cfa %rsp, 8
	retq
.LBB3_5:                                # %ctrl0
	.cfi_def_cfa %rbp, 16
	cmpl	$1, %eax
	je	.LBB3_2
# %bb.6:                                # %ctrl1
	cmpl	$2, %eax
	je	.LBB3_3
	jmp	.LBB3_4
.Lfunc_end3:
	.size	Get_Reference_Pixel, .Lfunc_end3-Get_Reference_Pixel
	.cfi_endproc
                                        # -- End function
	.globl	UpdateDecoders          # -- Begin function UpdateDecoders
	.p2align	4, 0x90
	.type	UpdateDecoders,@function
UpdateDecoders:                         # @UpdateDecoders
	.cfi_startproc
# %bb.0:                                # %entry
	pushq	%rbp
	.cfi_def_cfa_offset 16
	.cfi_offset %rbp, -16
	movq	%rsp, %rbp
	.cfi_def_cfa_register %rbp
	subq	$16, %rsp
	movl	$0, -4(%rbp)
.LBB4_1:                                # %for.cond
                                        # =>This Inner Loop Header: Depth=1
	movl	-4(%rbp), %eax
	movq	input, %rcx
	cmpl	2904(%rcx), %eax
	jge	.LBB4_4
# %bb.2:                                # %for.body
                                        #   in Loop: Header=BB4_1 Depth=1
	movq	decs, %rax
	movq	40(%rax), %rdi
	callq	Build_Status_Map
	movq	decs, %rax
	movq	24(%rax), %rax
	movslq	-4(%rbp), %rcx
	movq	(%rax,%rcx,8), %rdi
	movq	decs, %rax
	movq	40(%rax), %rsi
	movq	decs, %rax
	movq	16(%rax), %rax
	movslq	-4(%rbp), %rcx
	movq	(%rax,%rcx,8), %rdx
	callq	Error_Concealment
	movq	decs, %rax
	movq	24(%rax), %rax
	movslq	-4(%rbp), %rcx
	movq	(%rax,%rcx,8), %rdi
	movq	decs, %rax
	movq	16(%rax), %rax
	movslq	-4(%rbp), %rcx
	movq	(%rax,%rcx,8), %rsi
	callq	DecOneForthPix
# %bb.3:                                # %for.inc
                                        #   in Loop: Header=BB4_1 Depth=1
	movl	-4(%rbp), %eax
	addl	$1, %eax
	movl	%eax, -4(%rbp)
	jmp	.LBB4_1
.LBB4_4:                                # %for.end
	addq	$16, %rsp
	popq	%rbp
	.cfi_def_cfa %rsp, 8
	retq
.Lfunc_end4:
	.size	UpdateDecoders, .Lfunc_end4-UpdateDecoders
	.cfi_endproc
                                        # -- End function
	.globl	Build_Status_Map        # -- Begin function Build_Status_Map
	.p2align	4, 0x90
	.type	Build_Status_Map,@function
Build_Status_Map:                       # @Build_Status_Map
	.cfi_startproc
# %bb.0:                                # %rand_bb
	pushq	%rbp
	.cfi_def_cfa_offset 16
	.cfi_offset %rbp, -16
	movq	%rsp, %rbp
	.cfi_def_cfa_register %rbp
	pushq	%rbx
	pushq	%rax
	.cfi_offset %rbx, -24
	movq	%rdi, %rbx
	callq	get_urand
	cmpl	$0, %eax
	jne	.LBB5_5
# %bb.1:                                # %func_Build_Status_Map.3
	movq	%rbx, %rdi
	callq	Build_Status_Map.3
	addq	$8, %rsp
	popq	%rbx
	popq	%rbp
	.cfi_def_cfa %rsp, 8
	retq
.LBB5_2:                                # %func_Build_Status_Map.17
	.cfi_def_cfa %rbp, 16
	movq	%rbx, %rdi
	callq	Build_Status_Map.17
	addq	$8, %rsp
	popq	%rbx
	popq	%rbp
	.cfi_def_cfa %rsp, 8
	retq
.LBB5_3:                                # %func_Build_Status_Map.18
	.cfi_def_cfa %rbp, 16
	movq	%rbx, %rdi
	callq	Build_Status_Map.18
	addq	$8, %rsp
	popq	%rbx
	popq	%rbp
	.cfi_def_cfa %rsp, 8
	retq
.LBB5_4:                                # %func_Build_Status_Map.32
	.cfi_def_cfa %rbp, 16
	movq	%rbx, %rdi
	callq	Build_Status_Map.32
	addq	$8, %rsp
	popq	%rbx
	popq	%rbp
	.cfi_def_cfa %rsp, 8
	retq
.LBB5_5:                                # %ctrl0
	.cfi_def_cfa %rbp, 16
	cmpl	$1, %eax
	je	.LBB5_2
# %bb.6:                                # %ctrl1
	cmpl	$2, %eax
	je	.LBB5_3
	jmp	.LBB5_4
.Lfunc_end5:
	.size	Build_Status_Map, .Lfunc_end5-Build_Status_Map
	.cfi_endproc
                                        # -- End function
	.globl	Error_Concealment       # -- Begin function Error_Concealment
	.p2align	4, 0x90
	.type	Error_Concealment,@function
Error_Concealment:                      # @Error_Concealment
	.cfi_startproc
# %bb.0:                                # %rand_bb
	pushq	%rbp
	.cfi_def_cfa_offset 16
	.cfi_offset %rbp, -16
	movq	%rsp, %rbp
	.cfi_def_cfa_register %rbp
	pushq	%r15
	pushq	%r14
	pushq	%rbx
	pushq	%rax
	.cfi_offset %rbx, -40
	.cfi_offset %r14, -32
	.cfi_offset %r15, -24
	movq	%rdx, %r14
	movq	%rsi, %r15
	movq	%rdi, %rbx
	callq	get_urand
	cmpl	$0, %eax
	jne	.LBB6_5
# %bb.1:                                # %func_Error_Concealment.22
	movq	%rbx, %rdi
	movq	%r15, %rsi
	movq	%r14, %rdx
	callq	Error_Concealment.22
	addq	$8, %rsp
	popq	%rbx
	popq	%r14
	popq	%r15
	popq	%rbp
	.cfi_def_cfa %rsp, 8
	retq
.LBB6_2:                                # %func_Error_Concealment.25
	.cfi_def_cfa %rbp, 16
	movq	%rbx, %rdi
	movq	%r15, %rsi
	movq	%r14, %rdx
	callq	Error_Concealment.25
	addq	$8, %rsp
	popq	%rbx
	popq	%r14
	popq	%r15
	popq	%rbp
	.cfi_def_cfa %rsp, 8
	retq
.LBB6_3:                                # %func_Error_Concealment.29
	.cfi_def_cfa %rbp, 16
	movq	%rbx, %rdi
	movq	%r15, %rsi
	movq	%r14, %rdx
	callq	Error_Concealment.29
	addq	$8, %rsp
	popq	%rbx
	popq	%r14
	popq	%r15
	popq	%rbp
	.cfi_def_cfa %rsp, 8
	retq
.LBB6_4:                                # %func_Error_Concealment.30
	.cfi_def_cfa %rbp, 16
	movq	%rbx, %rdi
	movq	%r15, %rsi
	movq	%r14, %rdx
	callq	Error_Concealment.30
	addq	$8, %rsp
	popq	%rbx
	popq	%r14
	popq	%r15
	popq	%rbp
	.cfi_def_cfa %rsp, 8
	retq
.LBB6_5:                                # %ctrl0
	.cfi_def_cfa %rbp, 16
	cmpl	$1, %eax
	je	.LBB6_2
# %bb.6:                                # %ctrl1
	cmpl	$2, %eax
	je	.LBB6_3
	jmp	.LBB6_4
.Lfunc_end6:
	.size	Error_Concealment, .Lfunc_end6-Error_Concealment
	.cfi_endproc
                                        # -- End function
	.globl	DecOneForthPix          # -- Begin function DecOneForthPix
	.p2align	4, 0x90
	.type	DecOneForthPix,@function
DecOneForthPix:                         # @DecOneForthPix
	.cfi_startproc
# %bb.0:                                # %rand_bb
	pushq	%rbp
	.cfi_def_cfa_offset 16
	.cfi_offset %rbp, -16
	movq	%rsp, %rbp
	.cfi_def_cfa_register %rbp
	pushq	%r14
	pushq	%rbx
	.cfi_offset %rbx, -32
	.cfi_offset %r14, -24
	movq	%rsi, %r14
	movq	%rdi, %rbx
	callq	get_urand
	cmpl	$0, %eax
	jne	.LBB7_5
# %bb.1:                                # %func_DecOneForthPix.6
	movq	%rbx, %rdi
	movq	%r14, %rsi
	callq	DecOneForthPix.6
	popq	%rbx
	popq	%r14
	popq	%rbp
	.cfi_def_cfa %rsp, 8
	retq
.LBB7_2:                                # %func_DecOneForthPix.24
	.cfi_def_cfa %rbp, 16
	movq	%rbx, %rdi
	movq	%r14, %rsi
	callq	DecOneForthPix.24
	popq	%rbx
	popq	%r14
	popq	%rbp
	.cfi_def_cfa %rsp, 8
	retq
.LBB7_3:                                # %func_DecOneForthPix.28
	.cfi_def_cfa %rbp, 16
	movq	%rbx, %rdi
	movq	%r14, %rsi
	callq	DecOneForthPix.28
	popq	%rbx
	popq	%r14
	popq	%rbp
	.cfi_def_cfa %rsp, 8
	retq
.LBB7_4:                                # %func_DecOneForthPix.33
	.cfi_def_cfa %rbp, 16
	movq	%rbx, %rdi
	movq	%r14, %rsi
	callq	DecOneForthPix.33
	popq	%rbx
	popq	%r14
	popq	%rbp
	.cfi_def_cfa %rsp, 8
	retq
.LBB7_5:                                # %ctrl0
	.cfi_def_cfa %rbp, 16
	cmpl	$1, %eax
	je	.LBB7_2
# %bb.6:                                # %ctrl1
	cmpl	$2, %eax
	je	.LBB7_3
	jmp	.LBB7_4
.Lfunc_end7:
	.size	DecOneForthPix, .Lfunc_end7-DecOneForthPix
	.cfi_endproc
                                        # -- End function
	.globl	compute_residue_b8block # -- Begin function compute_residue_b8block
	.p2align	4, 0x90
	.type	compute_residue_b8block,@function
compute_residue_b8block:                # @compute_residue_b8block
	.cfi_startproc
# %bb.0:                                # %rand_bb
	pushq	%rbp
	.cfi_def_cfa_offset 16
	.cfi_offset %rbp, -16
	movq	%rsp, %rbp
	.cfi_def_cfa_register %rbp
	pushq	%r14
	pushq	%rbx
	.cfi_offset %rbx, -32
	.cfi_offset %r14, -24
	movl	%esi, %r14d
	movl	%edi, %ebx
	callq	get_urand
	cmpl	$0, %eax
	jne	.LBB8_5
# %bb.1:                                # %func_compute_residue_b8block.1
	movl	%ebx, %edi
	movl	%r14d, %esi
	callq	compute_residue_b8block.1
	popq	%rbx
	popq	%r14
	popq	%rbp
	.cfi_def_cfa %rsp, 8
	retq
.LBB8_2:                                # %func_compute_residue_b8block.9
	.cfi_def_cfa %rbp, 16
	movl	%ebx, %edi
	movl	%r14d, %esi
	callq	compute_residue_b8block.9
	popq	%rbx
	popq	%r14
	popq	%rbp
	.cfi_def_cfa %rsp, 8
	retq
.LBB8_3:                                # %func_compute_residue_b8block.23
	.cfi_def_cfa %rbp, 16
	movl	%ebx, %edi
	movl	%r14d, %esi
	callq	compute_residue_b8block.23
	popq	%rbx
	popq	%r14
	popq	%rbp
	.cfi_def_cfa %rsp, 8
	retq
.LBB8_4:                                # %func_compute_residue_b8block.27
	.cfi_def_cfa %rbp, 16
	movl	%ebx, %edi
	movl	%r14d, %esi
	callq	compute_residue_b8block.27
	popq	%rbx
	popq	%r14
	popq	%rbp
	.cfi_def_cfa %rsp, 8
	retq
.LBB8_5:                                # %ctrl0
	.cfi_def_cfa %rbp, 16
	cmpl	$1, %eax
	je	.LBB8_2
# %bb.6:                                # %ctrl1
	cmpl	$2, %eax
	je	.LBB8_3
	jmp	.LBB8_4
.Lfunc_end8:
	.size	compute_residue_b8block, .Lfunc_end8-compute_residue_b8block
	.cfi_endproc
                                        # -- End function
	.globl	compute_residue_mb      # -- Begin function compute_residue_mb
	.p2align	4, 0x90
	.type	compute_residue_mb,@function
compute_residue_mb:                     # @compute_residue_mb
	.cfi_startproc
# %bb.0:                                # %entry
	pushq	%rbp
	.cfi_def_cfa_offset 16
	.cfi_offset %rbp, -16
	movq	%rsp, %rbp
	.cfi_def_cfa_register %rbp
	subq	$16, %rsp
	movl	%edi, -4(%rbp)
	movl	-4(%rbp), %esi
	xorl	%edi, %edi
	callq	compute_residue_b8block
	movl	-4(%rbp), %esi
	movl	$1, %edi
	callq	compute_residue_b8block
	movl	-4(%rbp), %esi
	movl	$2, %edi
	callq	compute_residue_b8block
	movl	-4(%rbp), %esi
	movl	$3, %edi
	callq	compute_residue_b8block
	addq	$16, %rsp
	popq	%rbp
	.cfi_def_cfa %rsp, 8
	retq
.Lfunc_end9:
	.size	compute_residue_mb, .Lfunc_end9-compute_residue_mb
	.cfi_endproc
                                        # -- End function
	.globl	Conceal_Error           # -- Begin function Conceal_Error
	.p2align	4, 0x90
	.type	Conceal_Error,@function
Conceal_Error:                          # @Conceal_Error
	.cfi_startproc
# %bb.0:                                # %rand_bb
	pushq	%rbp
	.cfi_def_cfa_offset 16
	.cfi_offset %rbp, -16
	movq	%rsp, %rbp
	.cfi_def_cfa_register %rbp
	pushq	%r15
	pushq	%r14
	pushq	%r13
	pushq	%r12
	pushq	%rbx
	pushq	%rax
	.cfi_offset %rbx, -56
	.cfi_offset %r12, -48
	.cfi_offset %r13, -40
	.cfi_offset %r14, -32
	.cfi_offset %r15, -24
	movq	%r8, %r14
	movq	%rcx, %r15
	movl	%edx, %r12d
	movl	%esi, %r13d
	movq	%rdi, %rbx
	callq	get_urand
	cmpl	$0, %eax
	jne	.LBB10_5
# %bb.1:                                # %func_Conceal_Error.5
	movq	%rbx, %rdi
	movl	%r13d, %esi
	movl	%r12d, %edx
	movq	%r15, %rcx
	movq	%r14, %r8
	callq	Conceal_Error.5
	addq	$8, %rsp
	popq	%rbx
	popq	%r12
	popq	%r13
	popq	%r14
	popq	%r15
	popq	%rbp
	.cfi_def_cfa %rsp, 8
	retq
.LBB10_2:                               # %func_Conceal_Error.10
	.cfi_def_cfa %rbp, 16
	movq	%rbx, %rdi
	movl	%r13d, %esi
	movl	%r12d, %edx
	movq	%r15, %rcx
	movq	%r14, %r8
	callq	Conceal_Error.10
	addq	$8, %rsp
	popq	%rbx
	popq	%r12
	popq	%r13
	popq	%r14
	popq	%r15
	popq	%rbp
	.cfi_def_cfa %rsp, 8
	retq
.LBB10_3:                               # %func_Conceal_Error.12
	.cfi_def_cfa %rbp, 16
	movq	%rbx, %rdi
	movl	%r13d, %esi
	movl	%r12d, %edx
	movq	%r15, %rcx
	movq	%r14, %r8
	callq	Conceal_Error.12
	addq	$8, %rsp
	popq	%rbx
	popq	%r12
	popq	%r13
	popq	%r14
	popq	%r15
	popq	%rbp
	.cfi_def_cfa %rsp, 8
	retq
.LBB10_4:                               # %func_Conceal_Error.20
	.cfi_def_cfa %rbp, 16
	movq	%rbx, %rdi
	movl	%r13d, %esi
	movl	%r12d, %edx
	movq	%r15, %rcx
	movq	%r14, %r8
	callq	Conceal_Error.20
	addq	$8, %rsp
	popq	%rbx
	popq	%r12
	popq	%r13
	popq	%r14
	popq	%r15
	popq	%rbp
	.cfi_def_cfa %rsp, 8
	retq
.LBB10_5:                               # %ctrl0
	.cfi_def_cfa %rbp, 16
	cmpl	$1, %eax
	je	.LBB10_2
# %bb.6:                                # %ctrl1
	cmpl	$2, %eax
	je	.LBB10_3
	jmp	.LBB10_4
.Lfunc_end10:
	.size	Conceal_Error, .Lfunc_end10-Conceal_Error
	.cfi_endproc
                                        # -- End function
	.globl	compute_residue_b8block.1 # -- Begin function compute_residue_b8block.1
	.p2align	4, 0x90
	.type	compute_residue_b8block.1,@function
compute_residue_b8block.1:              # @compute_residue_b8block.1
	.cfi_startproc
# %bb.0:                                # %entry
	pushq	%rbp
	.cfi_def_cfa_offset 16
	.cfi_offset %rbp, -16
	movq	%rsp, %rbp
	.cfi_def_cfa_register %rbp
	subq	$48, %rsp
	movl	$1244111749, -36(%rbp)  # imm = 0x4A27A385
	movl	%edi, -20(%rbp)
	movl	%esi, -28(%rbp)
	movl	-20(%rbp), %eax
	cltd
	movl	$2, %ecx
	idivl	%ecx
	shll	$3, %edx
	movl	%edx, -16(%rbp)
	movl	-16(%rbp), %eax
	addl	$8, %eax
	movl	%eax, -32(%rbp)
	movl	-20(%rbp), %eax
	cltd
	idivl	%ecx
	shll	$3, %eax
	movl	%eax, -12(%rbp)
	movl	-12(%rbp), %eax
	addl	$8, %eax
	movl	%eax, -24(%rbp)
	cmpl	$0, -28(%rbp)
	jl	.LBB11_10
# %bb.1:                                # %if.then
	movl	-16(%rbp), %eax
	movl	%eax, -4(%rbp)
.LBB11_2:                               # %for.cond
                                        # =>This Loop Header: Depth=1
                                        #     Child Loop BB11_4 Depth 2
	movl	-4(%rbp), %eax
	cmpl	-32(%rbp), %eax
	jge	.LBB11_9
# %bb.3:                                # %for.body
                                        #   in Loop: Header=BB11_2 Depth=1
	movl	-12(%rbp), %eax
	movl	%eax, -8(%rbp)
.LBB11_4:                               # %for.cond4
                                        #   Parent Loop BB11_2 Depth=1
                                        # =>  This Inner Loop Header: Depth=2
	movl	-8(%rbp), %eax
	cmpl	-24(%rbp), %eax
	jge	.LBB11_7
# %bb.5:                                # %for.body6
                                        #   in Loop: Header=BB11_4 Depth=2
	movq	enc_picture, %rax
	movq	6424(%rax), %rax
	movq	img, %rcx
	movl	156(%rcx), %ecx
	addl	-8(%rbp), %ecx
	movslq	%ecx, %rcx
	movq	(%rax,%rcx,8), %rax
	movq	img, %rcx
	movl	152(%rcx), %ecx
	addl	-4(%rbp), %ecx
	movslq	%ecx, %rcx
	movzwl	(%rax,%rcx,2), %eax
	movq	img, %rcx
	addq	$4792, %rcx             # imm = 0x12B8
	movslq	-28(%rbp), %rdx
	shlq	$9, %rdx
	addq	%rdx, %rcx
	movslq	-8(%rbp), %rdx
	shlq	$5, %rdx
	addq	%rdx, %rcx
	movslq	-4(%rbp), %rdx
	movzwl	(%rcx,%rdx,2), %ecx
	subl	%ecx, %eax
	movq	decs, %rcx
	movq	(%rcx), %rcx
	movslq	-8(%rbp), %rdx
	movq	(%rcx,%rdx,8), %rcx
	movslq	-4(%rbp), %rdx
	movl	%eax, (%rcx,%rdx,4)
# %bb.6:                                # %for.inc
                                        #   in Loop: Header=BB11_4 Depth=2
	movl	-8(%rbp), %eax
	addl	$1, %eax
	movl	%eax, -8(%rbp)
	jmp	.LBB11_4
.LBB11_7:                               # %for.end
                                        #   in Loop: Header=BB11_2 Depth=1
	jmp	.LBB11_8
.LBB11_8:                               # %for.inc22
                                        #   in Loop: Header=BB11_2 Depth=1
	movl	-4(%rbp), %eax
	addl	$1, %eax
	movl	%eax, -4(%rbp)
	jmp	.LBB11_2
.LBB11_9:                               # %for.end24
	jmp	.LBB11_19
.LBB11_10:                              # %if.else
	movl	-16(%rbp), %eax
	movl	%eax, -4(%rbp)
.LBB11_11:                              # %for.cond25
                                        # =>This Loop Header: Depth=1
                                        #     Child Loop BB11_13 Depth 2
	movl	-4(%rbp), %eax
	cmpl	-32(%rbp), %eax
	jge	.LBB11_18
# %bb.12:                               # %for.body28
                                        #   in Loop: Header=BB11_11 Depth=1
	movl	-12(%rbp), %eax
	movl	%eax, -8(%rbp)
.LBB11_13:                              # %for.cond29
                                        #   Parent Loop BB11_11 Depth=1
                                        # =>  This Inner Loop Header: Depth=2
	movl	-8(%rbp), %eax
	cmpl	-24(%rbp), %eax
	jge	.LBB11_16
# %bb.14:                               # %for.body32
                                        #   in Loop: Header=BB11_13 Depth=2
	movq	enc_picture, %rax
	movq	6424(%rax), %rax
	movq	img, %rcx
	movl	156(%rcx), %ecx
	addl	-8(%rbp), %ecx
	movslq	%ecx, %rcx
	movq	(%rax,%rcx,8), %rax
	movq	img, %rcx
	movl	152(%rcx), %ecx
	addl	-4(%rbp), %ecx
	movslq	%ecx, %rcx
	movzwl	(%rax,%rcx,2), %eax
	movq	img, %rcx
	addq	$12600, %rcx            # imm = 0x3138
	movslq	-4(%rbp), %rdx
	shlq	$5, %rdx
	addq	%rdx, %rcx
	movslq	-8(%rbp), %rdx
	movzwl	(%rcx,%rdx,2), %ecx
	subl	%ecx, %eax
	movq	decs, %rcx
	movq	(%rcx), %rcx
	movslq	-8(%rbp), %rdx
	movq	(%rcx,%rdx,8), %rcx
	movslq	-4(%rbp), %rdx
	movl	%eax, (%rcx,%rdx,4)
# %bb.15:                               # %for.inc54
                                        #   in Loop: Header=BB11_13 Depth=2
	movl	-8(%rbp), %eax
	addl	$1, %eax
	movl	%eax, -8(%rbp)
	jmp	.LBB11_13
.LBB11_16:                              # %for.end56
                                        #   in Loop: Header=BB11_11 Depth=1
	jmp	.LBB11_17
.LBB11_17:                              # %for.inc57
                                        #   in Loop: Header=BB11_11 Depth=1
	movl	-4(%rbp), %eax
	addl	$1, %eax
	movl	%eax, -4(%rbp)
	jmp	.LBB11_11
.LBB11_18:                              # %for.end59
	jmp	.LBB11_19
.LBB11_19:                              # %if.end
	cmpl	$1244111749, -36(%rbp)  # imm = 0x4A27A385
	jne	.LBB11_21
.LBB11_20:
	addq	$48, %rsp
	popq	%rbp
	.cfi_def_cfa %rsp, 8
	retq
.LBB11_21:                              # %func_exit
	.cfi_def_cfa %rbp, 16
	callq	detect_breach
	jmp	.LBB11_20
.Lfunc_end11:
	.size	compute_residue_b8block.1, .Lfunc_end11-compute_residue_b8block.1
	.cfi_endproc
                                        # -- End function
	.globl	Get_Reference_Pixel.2   # -- Begin function Get_Reference_Pixel.2
	.p2align	4, 0x90
	.type	Get_Reference_Pixel.2,@function
Get_Reference_Pixel.2:                  # @Get_Reference_Pixel.2
	.cfi_startproc
# %bb.0:                                # %entry
	pushq	%rbp
	.cfi_def_cfa_offset 16
	.cfi_offset %rbp, -16
	movq	%rsp, %rbp
	.cfi_def_cfa_register %rbp
	pushq	%rbx
	subq	$104, %rsp
	.cfi_offset %rbx, -24
	movl	$841232719, -108(%rbp)  # imm = 0x3224314F
	movq	%rdi, -64(%rbp)
	movl	%esi, -24(%rbp)
	movl	%edx, -28(%rbp)
	movl	$0, -12(%rbp)
	movl	-28(%rbp), %eax
	andl	$3, %eax
	movl	%eax, -52(%rbp)
	movl	-24(%rbp), %eax
	andl	$3, %eax
	movl	%eax, -48(%rbp)
	movl	-28(%rbp), %eax
	subl	-52(%rbp), %eax
	cltd
	movl	$4, %ecx
	idivl	%ecx
	movl	%eax, -28(%rbp)
	movl	-24(%rbp), %eax
	subl	-48(%rbp), %eax
	cltd
	idivl	%ecx
	movl	%eax, -24(%rbp)
	movq	img, %rax
	movl	52(%rax), %eax
	subl	$1, %eax
	movl	%eax, -36(%rbp)
	movq	img, %rax
	movl	60(%rax), %eax
	subl	$1, %eax
	movl	%eax, -32(%rbp)
	cmpl	$0, -52(%rbp)
	jne	.LBB12_21
# %bb.1:                                # %land.lhs.true
	cmpl	$0, -48(%rbp)
	jne	.LBB12_21
# %bb.2:                                # %if.then
	movq	-64(%rbp), %rax
	movl	-32(%rbp), %ecx
	cmpl	-24(%rbp), %ecx
	jge	.LBB12_4
# %bb.3:                                # %cond.true
	movl	-32(%rbp), %ecx
	jmp	.LBB12_5
.LBB12_4:                               # %cond.false
	movl	-24(%rbp), %ecx
.LBB12_5:                               # %cond.end
	xorl	%edx, %edx
	cmpl	%ecx, %edx
	jle	.LBB12_7
# %bb.6:                                # %cond.true9
	xorl	%ecx, %ecx
	jmp	.LBB12_11
.LBB12_7:                               # %cond.false10
	movl	-32(%rbp), %ecx
	cmpl	-24(%rbp), %ecx
	jge	.LBB12_9
# %bb.8:                                # %cond.true12
	movl	-32(%rbp), %ecx
	jmp	.LBB12_10
.LBB12_9:                               # %cond.false13
	movl	-24(%rbp), %ecx
.LBB12_10:                              # %cond.end14
.LBB12_11:                              # %cond.end16
	movslq	%ecx, %rcx
	movq	(%rax,%rcx,8), %rax
	movl	-36(%rbp), %ecx
	cmpl	-28(%rbp), %ecx
	jge	.LBB12_13
# %bb.12:                               # %cond.true19
	movl	-36(%rbp), %ecx
	jmp	.LBB12_14
.LBB12_13:                              # %cond.false20
	movl	-28(%rbp), %ecx
.LBB12_14:                              # %cond.end21
	xorl	%edx, %edx
	cmpl	%ecx, %edx
	jle	.LBB12_16
# %bb.15:                               # %cond.true24
	xorl	%ecx, %ecx
	jmp	.LBB12_20
.LBB12_16:                              # %cond.false25
	movl	-36(%rbp), %ecx
	cmpl	-28(%rbp), %ecx
	jge	.LBB12_18
# %bb.17:                               # %cond.true27
	movl	-36(%rbp), %ecx
	jmp	.LBB12_19
.LBB12_18:                              # %cond.false28
	movl	-28(%rbp), %ecx
.LBB12_19:                              # %cond.end29
.LBB12_20:                              # %cond.end31
	movslq	%ecx, %rcx
	movzwl	(%rax,%rcx,2), %eax
	movl	%eax, -12(%rbp)
	jmp	.LBB12_332
.LBB12_21:                              # %if.else
	cmpl	$0, -48(%rbp)
	jne	.LBB12_77
# %bb.22:                               # %if.then37
	movl	-32(%rbp), %eax
	cmpl	-24(%rbp), %eax
	jge	.LBB12_24
# %bb.23:                               # %cond.true40
	movl	-32(%rbp), %eax
	jmp	.LBB12_25
.LBB12_24:                              # %cond.false41
	movl	-24(%rbp), %eax
.LBB12_25:                              # %cond.end42
	xorl	%ecx, %ecx
	cmpl	%eax, %ecx
	jle	.LBB12_27
# %bb.26:                               # %cond.true46
	xorl	%eax, %eax
	jmp	.LBB12_31
.LBB12_27:                              # %cond.false47
	movl	-32(%rbp), %eax
	cmpl	-24(%rbp), %eax
	jge	.LBB12_29
# %bb.28:                               # %cond.true50
	movl	-32(%rbp), %eax
	jmp	.LBB12_30
.LBB12_29:                              # %cond.false51
	movl	-24(%rbp), %eax
.LBB12_30:                              # %cond.end52
.LBB12_31:                              # %cond.end54
	movl	%eax, -40(%rbp)
	movl	$-2, -16(%rbp)
.LBB12_32:                              # %for.cond
                                        # =>This Inner Loop Header: Depth=1
	cmpl	$4, -16(%rbp)
	jge	.LBB12_44
# %bb.33:                               # %for.body
                                        #   in Loop: Header=BB12_32 Depth=1
	movl	-36(%rbp), %eax
	movl	-28(%rbp), %ecx
	addl	-16(%rbp), %ecx
	cmpl	%ecx, %eax
	jge	.LBB12_35
# %bb.34:                               # %cond.true60
                                        #   in Loop: Header=BB12_32 Depth=1
	movl	-36(%rbp), %eax
	jmp	.LBB12_36
.LBB12_35:                              # %cond.false61
                                        #   in Loop: Header=BB12_32 Depth=1
	movl	-28(%rbp), %eax
	addl	-16(%rbp), %eax
.LBB12_36:                              # %cond.end63
                                        #   in Loop: Header=BB12_32 Depth=1
	xorl	%ecx, %ecx
	cmpl	%eax, %ecx
	jle	.LBB12_38
# %bb.37:                               # %cond.true67
                                        #   in Loop: Header=BB12_32 Depth=1
	xorl	%eax, %eax
	jmp	.LBB12_42
.LBB12_38:                              # %cond.false68
                                        #   in Loop: Header=BB12_32 Depth=1
	movl	-36(%rbp), %eax
	movl	-28(%rbp), %ecx
	addl	-16(%rbp), %ecx
	cmpl	%ecx, %eax
	jge	.LBB12_40
# %bb.39:                               # %cond.true72
                                        #   in Loop: Header=BB12_32 Depth=1
	movl	-36(%rbp), %eax
	jmp	.LBB12_41
.LBB12_40:                              # %cond.false73
                                        #   in Loop: Header=BB12_32 Depth=1
	movl	-28(%rbp), %eax
	addl	-16(%rbp), %eax
.LBB12_41:                              # %cond.end75
                                        #   in Loop: Header=BB12_32 Depth=1
.LBB12_42:                              # %cond.end77
                                        #   in Loop: Header=BB12_32 Depth=1
	movl	%eax, -44(%rbp)
	movq	-64(%rbp), %rax
	movslq	-40(%rbp), %rcx
	movq	(%rax,%rcx,8), %rax
	movslq	-44(%rbp), %rcx
	movzwl	(%rax,%rcx,2), %eax
	movl	-16(%rbp), %ecx
	addl	$2, %ecx
	movslq	%ecx, %rcx
	imull	Get_Reference_Pixel.COEF(,%rcx,4), %eax
	addl	-12(%rbp), %eax
	movl	%eax, -12(%rbp)
# %bb.43:                               # %for.inc
                                        #   in Loop: Header=BB12_32 Depth=1
	movl	-16(%rbp), %eax
	addl	$1, %eax
	movl	%eax, -16(%rbp)
	jmp	.LBB12_32
.LBB12_44:                              # %for.end
	movq	img, %rax
	movl	72684(%rax), %ecx
	movl	-12(%rbp), %eax
	addl	$16, %eax
	cltd
	movl	$32, %esi
	idivl	%esi
	cmpl	%eax, %ecx
	jge	.LBB12_46
# %bb.45:                               # %cond.true92
	movq	img, %rax
	movl	72684(%rax), %eax
	jmp	.LBB12_47
.LBB12_46:                              # %cond.false94
	movl	-12(%rbp), %eax
	addl	$16, %eax
	cltd
	movl	$32, %ecx
	idivl	%ecx
.LBB12_47:                              # %cond.end97
	xorl	%ecx, %ecx
	cmpl	%eax, %ecx
	jle	.LBB12_49
# %bb.48:                               # %cond.true101
	xorl	%eax, %eax
	jmp	.LBB12_53
.LBB12_49:                              # %cond.false102
	movq	img, %rax
	movl	72684(%rax), %ecx
	movl	-12(%rbp), %eax
	addl	$16, %eax
	cltd
	movl	$32, %esi
	idivl	%esi
	cmpl	%eax, %ecx
	jge	.LBB12_51
# %bb.50:                               # %cond.true108
	movq	img, %rax
	movl	72684(%rax), %eax
	jmp	.LBB12_52
.LBB12_51:                              # %cond.false110
	movl	-12(%rbp), %eax
	addl	$16, %eax
	cltd
	movl	$32, %ecx
	idivl	%ecx
.LBB12_52:                              # %cond.end113
.LBB12_53:                              # %cond.end115
	movl	%eax, -12(%rbp)
	cmpl	$1, -52(%rbp)
	jne	.LBB12_64
# %bb.54:                               # %if.then119
	movl	-12(%rbp), %eax
	movq	-64(%rbp), %rcx
	movslq	-40(%rbp), %rdx
	movq	(%rcx,%rdx,8), %rcx
	movl	-36(%rbp), %edx
	cmpl	-28(%rbp), %edx
	jge	.LBB12_56
# %bb.55:                               # %cond.true124
	movl	-36(%rbp), %edx
	jmp	.LBB12_57
.LBB12_56:                              # %cond.false125
	movl	-28(%rbp), %edx
.LBB12_57:                              # %cond.end126
	xorl	%esi, %esi
	cmpl	%edx, %esi
	jle	.LBB12_59
# %bb.58:                               # %cond.true130
	xorl	%edx, %edx
	jmp	.LBB12_63
.LBB12_59:                              # %cond.false131
	movl	-36(%rbp), %edx
	cmpl	-28(%rbp), %edx
	jge	.LBB12_61
# %bb.60:                               # %cond.true134
	movl	-36(%rbp), %edx
	jmp	.LBB12_62
.LBB12_61:                              # %cond.false135
	movl	-28(%rbp), %edx
.LBB12_62:                              # %cond.end136
.LBB12_63:                              # %cond.end138
	movslq	%edx, %rdx
	movzwl	(%rcx,%rdx,2), %ecx
	addl	%ecx, %eax
	cltd
	movl	$2, %ecx
	idivl	%ecx
	movl	%eax, -12(%rbp)
	jmp	.LBB12_76
.LBB12_64:                              # %if.else145
	cmpl	$3, -52(%rbp)
	jne	.LBB12_75
# %bb.65:                               # %if.then148
	movl	-12(%rbp), %eax
	movq	-64(%rbp), %rcx
	movslq	-40(%rbp), %rdx
	movq	(%rcx,%rdx,8), %rcx
	movl	-36(%rbp), %edx
	movl	-28(%rbp), %esi
	addl	$1, %esi
	cmpl	%esi, %edx
	jge	.LBB12_67
# %bb.66:                               # %cond.true154
	movl	-36(%rbp), %edx
	jmp	.LBB12_68
.LBB12_67:                              # %cond.false155
	movl	-28(%rbp), %edx
	addl	$1, %edx
.LBB12_68:                              # %cond.end157
	xorl	%esi, %esi
	cmpl	%edx, %esi
	jle	.LBB12_70
# %bb.69:                               # %cond.true161
	xorl	%edx, %edx
	jmp	.LBB12_74
.LBB12_70:                              # %cond.false162
	movl	-36(%rbp), %edx
	movl	-28(%rbp), %esi
	addl	$1, %esi
	cmpl	%esi, %edx
	jge	.LBB12_72
# %bb.71:                               # %cond.true166
	movl	-36(%rbp), %edx
	jmp	.LBB12_73
.LBB12_72:                              # %cond.false167
	movl	-28(%rbp), %edx
	addl	$1, %edx
.LBB12_73:                              # %cond.end169
.LBB12_74:                              # %cond.end171
	movslq	%edx, %rdx
	movzwl	(%rcx,%rdx,2), %ecx
	addl	%ecx, %eax
	cltd
	movl	$2, %ecx
	idivl	%ecx
	movl	%eax, -12(%rbp)
.LBB12_75:                              # %if.end
	jmp	.LBB12_76
.LBB12_76:                              # %if.end178
	jmp	.LBB12_331
.LBB12_77:                              # %if.else179
	cmpl	$0, -52(%rbp)
	jne	.LBB12_133
# %bb.78:                               # %if.then182
	movl	-36(%rbp), %eax
	cmpl	-28(%rbp), %eax
	jge	.LBB12_80
# %bb.79:                               # %cond.true185
	movl	-36(%rbp), %eax
	jmp	.LBB12_81
.LBB12_80:                              # %cond.false186
	movl	-28(%rbp), %eax
.LBB12_81:                              # %cond.end187
	xorl	%ecx, %ecx
	cmpl	%eax, %ecx
	jle	.LBB12_83
# %bb.82:                               # %cond.true191
	xorl	%eax, %eax
	jmp	.LBB12_87
.LBB12_83:                              # %cond.false192
	movl	-36(%rbp), %eax
	cmpl	-28(%rbp), %eax
	jge	.LBB12_85
# %bb.84:                               # %cond.true195
	movl	-36(%rbp), %eax
	jmp	.LBB12_86
.LBB12_85:                              # %cond.false196
	movl	-28(%rbp), %eax
.LBB12_86:                              # %cond.end197
.LBB12_87:                              # %cond.end199
	movl	%eax, -44(%rbp)
	movl	$-2, -20(%rbp)
.LBB12_88:                              # %for.cond201
                                        # =>This Inner Loop Header: Depth=1
	cmpl	$4, -20(%rbp)
	jge	.LBB12_100
# %bb.89:                               # %for.body204
                                        #   in Loop: Header=BB12_88 Depth=1
	movl	-32(%rbp), %eax
	movl	-24(%rbp), %ecx
	addl	-20(%rbp), %ecx
	cmpl	%ecx, %eax
	jge	.LBB12_91
# %bb.90:                               # %cond.true208
                                        #   in Loop: Header=BB12_88 Depth=1
	movl	-32(%rbp), %eax
	jmp	.LBB12_92
.LBB12_91:                              # %cond.false209
                                        #   in Loop: Header=BB12_88 Depth=1
	movl	-24(%rbp), %eax
	addl	-20(%rbp), %eax
.LBB12_92:                              # %cond.end211
                                        #   in Loop: Header=BB12_88 Depth=1
	xorl	%ecx, %ecx
	cmpl	%eax, %ecx
	jle	.LBB12_94
# %bb.93:                               # %cond.true215
                                        #   in Loop: Header=BB12_88 Depth=1
	xorl	%eax, %eax
	jmp	.LBB12_98
.LBB12_94:                              # %cond.false216
                                        #   in Loop: Header=BB12_88 Depth=1
	movl	-32(%rbp), %eax
	movl	-24(%rbp), %ecx
	addl	-20(%rbp), %ecx
	cmpl	%ecx, %eax
	jge	.LBB12_96
# %bb.95:                               # %cond.true220
                                        #   in Loop: Header=BB12_88 Depth=1
	movl	-32(%rbp), %eax
	jmp	.LBB12_97
.LBB12_96:                              # %cond.false221
                                        #   in Loop: Header=BB12_88 Depth=1
	movl	-24(%rbp), %eax
	addl	-20(%rbp), %eax
.LBB12_97:                              # %cond.end223
                                        #   in Loop: Header=BB12_88 Depth=1
.LBB12_98:                              # %cond.end225
                                        #   in Loop: Header=BB12_88 Depth=1
	movl	%eax, -40(%rbp)
	movq	-64(%rbp), %rax
	movslq	-40(%rbp), %rcx
	movq	(%rax,%rcx,8), %rax
	movslq	-44(%rbp), %rcx
	movzwl	(%rax,%rcx,2), %eax
	movl	-20(%rbp), %ecx
	addl	$2, %ecx
	movslq	%ecx, %rcx
	imull	Get_Reference_Pixel.COEF(,%rcx,4), %eax
	addl	-12(%rbp), %eax
	movl	%eax, -12(%rbp)
# %bb.99:                               # %for.inc237
                                        #   in Loop: Header=BB12_88 Depth=1
	movl	-20(%rbp), %eax
	addl	$1, %eax
	movl	%eax, -20(%rbp)
	jmp	.LBB12_88
.LBB12_100:                             # %for.end239
	movq	img, %rax
	movl	72684(%rax), %ecx
	movl	-12(%rbp), %eax
	addl	$16, %eax
	cltd
	movl	$32, %esi
	idivl	%esi
	cmpl	%eax, %ecx
	jge	.LBB12_102
# %bb.101:                              # %cond.true245
	movq	img, %rax
	movl	72684(%rax), %eax
	jmp	.LBB12_103
.LBB12_102:                             # %cond.false247
	movl	-12(%rbp), %eax
	addl	$16, %eax
	cltd
	movl	$32, %ecx
	idivl	%ecx
.LBB12_103:                             # %cond.end250
	xorl	%ecx, %ecx
	cmpl	%eax, %ecx
	jle	.LBB12_105
# %bb.104:                              # %cond.true254
	xorl	%eax, %eax
	jmp	.LBB12_109
.LBB12_105:                             # %cond.false255
	movq	img, %rax
	movl	72684(%rax), %ecx
	movl	-12(%rbp), %eax
	addl	$16, %eax
	cltd
	movl	$32, %esi
	idivl	%esi
	cmpl	%eax, %ecx
	jge	.LBB12_107
# %bb.106:                              # %cond.true261
	movq	img, %rax
	movl	72684(%rax), %eax
	jmp	.LBB12_108
.LBB12_107:                             # %cond.false263
	movl	-12(%rbp), %eax
	addl	$16, %eax
	cltd
	movl	$32, %ecx
	idivl	%ecx
.LBB12_108:                             # %cond.end266
.LBB12_109:                             # %cond.end268
	movl	%eax, -12(%rbp)
	cmpl	$1, -48(%rbp)
	jne	.LBB12_120
# %bb.110:                              # %if.then272
	movl	-12(%rbp), %eax
	movq	-64(%rbp), %rcx
	movl	-32(%rbp), %edx
	cmpl	-24(%rbp), %edx
	jge	.LBB12_112
# %bb.111:                              # %cond.true275
	movl	-32(%rbp), %edx
	jmp	.LBB12_113
.LBB12_112:                             # %cond.false276
	movl	-24(%rbp), %edx
.LBB12_113:                             # %cond.end277
	xorl	%esi, %esi
	cmpl	%edx, %esi
	jle	.LBB12_115
# %bb.114:                              # %cond.true281
	xorl	%edx, %edx
	jmp	.LBB12_119
.LBB12_115:                             # %cond.false282
	movl	-32(%rbp), %edx
	cmpl	-24(%rbp), %edx
	jge	.LBB12_117
# %bb.116:                              # %cond.true285
	movl	-32(%rbp), %edx
	jmp	.LBB12_118
.LBB12_117:                             # %cond.false286
	movl	-24(%rbp), %edx
.LBB12_118:                             # %cond.end287
.LBB12_119:                             # %cond.end289
	movslq	%edx, %rdx
	movq	(%rcx,%rdx,8), %rcx
	movslq	-44(%rbp), %rdx
	movzwl	(%rcx,%rdx,2), %ecx
	addl	%ecx, %eax
	cltd
	movl	$2, %ecx
	idivl	%ecx
	movl	%eax, -12(%rbp)
	jmp	.LBB12_132
.LBB12_120:                             # %if.else298
	cmpl	$3, -48(%rbp)
	jne	.LBB12_131
# %bb.121:                              # %if.then301
	movl	-12(%rbp), %eax
	movq	-64(%rbp), %rcx
	movl	-32(%rbp), %edx
	movl	-24(%rbp), %esi
	addl	$1, %esi
	cmpl	%esi, %edx
	jge	.LBB12_123
# %bb.122:                              # %cond.true305
	movl	-32(%rbp), %edx
	jmp	.LBB12_124
.LBB12_123:                             # %cond.false306
	movl	-24(%rbp), %edx
	addl	$1, %edx
.LBB12_124:                             # %cond.end308
	xorl	%esi, %esi
	cmpl	%edx, %esi
	jle	.LBB12_126
# %bb.125:                              # %cond.true312
	xorl	%edx, %edx
	jmp	.LBB12_130
.LBB12_126:                             # %cond.false313
	movl	-32(%rbp), %edx
	movl	-24(%rbp), %esi
	addl	$1, %esi
	cmpl	%esi, %edx
	jge	.LBB12_128
# %bb.127:                              # %cond.true317
	movl	-32(%rbp), %edx
	jmp	.LBB12_129
.LBB12_128:                             # %cond.false318
	movl	-24(%rbp), %edx
	addl	$1, %edx
.LBB12_129:                             # %cond.end320
.LBB12_130:                             # %cond.end322
	movslq	%edx, %rdx
	movq	(%rcx,%rdx,8), %rcx
	movslq	-44(%rbp), %rdx
	movzwl	(%rcx,%rdx,2), %ecx
	addl	%ecx, %eax
	cltd
	movl	$2, %ecx
	idivl	%ecx
	movl	%eax, -12(%rbp)
.LBB12_131:                             # %if.end331
	jmp	.LBB12_132
.LBB12_132:                             # %if.end332
	jmp	.LBB12_330
.LBB12_133:                             # %if.else333
	cmpl	$2, -52(%rbp)
	jne	.LBB12_197
# %bb.134:                              # %if.then336
	movl	$-2, -20(%rbp)
.LBB12_135:                             # %for.cond337
                                        # =>This Loop Header: Depth=1
                                        #     Child Loop BB12_146 Depth 2
	cmpl	$4, -20(%rbp)
	jge	.LBB12_160
# %bb.136:                              # %for.body340
                                        #   in Loop: Header=BB12_135 Depth=1
	movl	$0, -12(%rbp)
	movl	-32(%rbp), %eax
	movl	-24(%rbp), %ecx
	addl	-20(%rbp), %ecx
	cmpl	%ecx, %eax
	jge	.LBB12_138
# %bb.137:                              # %cond.true344
                                        #   in Loop: Header=BB12_135 Depth=1
	movl	-32(%rbp), %eax
	jmp	.LBB12_139
.LBB12_138:                             # %cond.false345
                                        #   in Loop: Header=BB12_135 Depth=1
	movl	-24(%rbp), %eax
	addl	-20(%rbp), %eax
.LBB12_139:                             # %cond.end347
                                        #   in Loop: Header=BB12_135 Depth=1
	xorl	%ecx, %ecx
	cmpl	%eax, %ecx
	jle	.LBB12_141
# %bb.140:                              # %cond.true351
                                        #   in Loop: Header=BB12_135 Depth=1
	xorl	%eax, %eax
	jmp	.LBB12_145
.LBB12_141:                             # %cond.false352
                                        #   in Loop: Header=BB12_135 Depth=1
	movl	-32(%rbp), %eax
	movl	-24(%rbp), %ecx
	addl	-20(%rbp), %ecx
	cmpl	%ecx, %eax
	jge	.LBB12_143
# %bb.142:                              # %cond.true356
                                        #   in Loop: Header=BB12_135 Depth=1
	movl	-32(%rbp), %eax
	jmp	.LBB12_144
.LBB12_143:                             # %cond.false357
                                        #   in Loop: Header=BB12_135 Depth=1
	movl	-24(%rbp), %eax
	addl	-20(%rbp), %eax
.LBB12_144:                             # %cond.end359
                                        #   in Loop: Header=BB12_135 Depth=1
.LBB12_145:                             # %cond.end361
                                        #   in Loop: Header=BB12_135 Depth=1
	movl	%eax, -40(%rbp)
	movl	$-2, -16(%rbp)
.LBB12_146:                             # %for.cond363
                                        #   Parent Loop BB12_135 Depth=1
                                        # =>  This Inner Loop Header: Depth=2
	cmpl	$4, -16(%rbp)
	jge	.LBB12_158
# %bb.147:                              # %for.body366
                                        #   in Loop: Header=BB12_146 Depth=2
	movl	-36(%rbp), %eax
	movl	-28(%rbp), %ecx
	addl	-16(%rbp), %ecx
	cmpl	%ecx, %eax
	jge	.LBB12_149
# %bb.148:                              # %cond.true370
                                        #   in Loop: Header=BB12_146 Depth=2
	movl	-36(%rbp), %eax
	jmp	.LBB12_150
.LBB12_149:                             # %cond.false371
                                        #   in Loop: Header=BB12_146 Depth=2
	movl	-28(%rbp), %eax
	addl	-16(%rbp), %eax
.LBB12_150:                             # %cond.end373
                                        #   in Loop: Header=BB12_146 Depth=2
	xorl	%ecx, %ecx
	cmpl	%eax, %ecx
	jle	.LBB12_152
# %bb.151:                              # %cond.true377
                                        #   in Loop: Header=BB12_146 Depth=2
	xorl	%eax, %eax
	jmp	.LBB12_156
.LBB12_152:                             # %cond.false378
                                        #   in Loop: Header=BB12_146 Depth=2
	movl	-36(%rbp), %eax
	movl	-28(%rbp), %ecx
	addl	-16(%rbp), %ecx
	cmpl	%ecx, %eax
	jge	.LBB12_154
# %bb.153:                              # %cond.true382
                                        #   in Loop: Header=BB12_146 Depth=2
	movl	-36(%rbp), %eax
	jmp	.LBB12_155
.LBB12_154:                             # %cond.false383
                                        #   in Loop: Header=BB12_146 Depth=2
	movl	-28(%rbp), %eax
	addl	-16(%rbp), %eax
.LBB12_155:                             # %cond.end385
                                        #   in Loop: Header=BB12_146 Depth=2
.LBB12_156:                             # %cond.end387
                                        #   in Loop: Header=BB12_146 Depth=2
	movl	%eax, -44(%rbp)
	movq	-64(%rbp), %rax
	movslq	-40(%rbp), %rcx
	movq	(%rax,%rcx,8), %rax
	movslq	-44(%rbp), %rcx
	movzwl	(%rax,%rcx,2), %eax
	movl	-16(%rbp), %ecx
	addl	$2, %ecx
	movslq	%ecx, %rcx
	imull	Get_Reference_Pixel.COEF(,%rcx,4), %eax
	addl	-12(%rbp), %eax
	movl	%eax, -12(%rbp)
# %bb.157:                              # %for.inc399
                                        #   in Loop: Header=BB12_146 Depth=2
	movl	-16(%rbp), %eax
	addl	$1, %eax
	movl	%eax, -16(%rbp)
	jmp	.LBB12_146
.LBB12_158:                             # %for.end401
                                        #   in Loop: Header=BB12_135 Depth=1
	movl	-12(%rbp), %eax
	movl	-20(%rbp), %ecx
	addl	$2, %ecx
	movslq	%ecx, %rcx
	movl	%eax, -96(%rbp,%rcx,4)
# %bb.159:                              # %for.inc405
                                        #   in Loop: Header=BB12_135 Depth=1
	movl	-20(%rbp), %eax
	addl	$1, %eax
	movl	%eax, -20(%rbp)
	jmp	.LBB12_135
.LBB12_160:                             # %for.end407
	movl	$0, -12(%rbp)
	movl	$-2, -20(%rbp)
.LBB12_161:                             # %for.cond408
                                        # =>This Inner Loop Header: Depth=1
	cmpl	$4, -20(%rbp)
	jge	.LBB12_164
# %bb.162:                              # %for.body411
                                        #   in Loop: Header=BB12_161 Depth=1
	movl	-20(%rbp), %eax
	addl	$2, %eax
	cltq
	movl	-96(%rbp,%rax,4), %eax
	movl	-20(%rbp), %ecx
	addl	$2, %ecx
	movslq	%ecx, %rcx
	imull	Get_Reference_Pixel.COEF(,%rcx,4), %eax
	addl	-12(%rbp), %eax
	movl	%eax, -12(%rbp)
# %bb.163:                              # %for.inc420
                                        #   in Loop: Header=BB12_161 Depth=1
	movl	-20(%rbp), %eax
	addl	$1, %eax
	movl	%eax, -20(%rbp)
	jmp	.LBB12_161
.LBB12_164:                             # %for.end422
	movq	img, %rax
	movl	72684(%rax), %ecx
	movl	-12(%rbp), %eax
	addl	$512, %eax              # imm = 0x200
	cltd
	movl	$1024, %esi             # imm = 0x400
	idivl	%esi
	cmpl	%eax, %ecx
	jge	.LBB12_166
# %bb.165:                              # %cond.true428
	movq	img, %rax
	movl	72684(%rax), %eax
	jmp	.LBB12_167
.LBB12_166:                             # %cond.false430
	movl	-12(%rbp), %eax
	addl	$512, %eax              # imm = 0x200
	cltd
	movl	$1024, %ecx             # imm = 0x400
	idivl	%ecx
.LBB12_167:                             # %cond.end433
	xorl	%ecx, %ecx
	cmpl	%eax, %ecx
	jle	.LBB12_169
# %bb.168:                              # %cond.true437
	xorl	%eax, %eax
	jmp	.LBB12_173
.LBB12_169:                             # %cond.false438
	movq	img, %rax
	movl	72684(%rax), %ecx
	movl	-12(%rbp), %eax
	addl	$512, %eax              # imm = 0x200
	cltd
	movl	$1024, %esi             # imm = 0x400
	idivl	%esi
	cmpl	%eax, %ecx
	jge	.LBB12_171
# %bb.170:                              # %cond.true444
	movq	img, %rax
	movl	72684(%rax), %eax
	jmp	.LBB12_172
.LBB12_171:                             # %cond.false446
	movl	-12(%rbp), %eax
	addl	$512, %eax              # imm = 0x200
	cltd
	movl	$1024, %ecx             # imm = 0x400
	idivl	%ecx
.LBB12_172:                             # %cond.end449
.LBB12_173:                             # %cond.end451
	movl	%eax, -12(%rbp)
	cmpl	$1, -48(%rbp)
	jne	.LBB12_184
# %bb.174:                              # %if.then455
	movl	-12(%rbp), %ecx
	movq	img, %rax
	movl	72684(%rax), %esi
	movl	-88(%rbp), %eax
	addl	$16, %eax
	cltd
	movl	$32, %edi
	idivl	%edi
	cmpl	%eax, %esi
	jge	.LBB12_176
# %bb.175:                              # %cond.true462
	movq	img, %rax
	movl	72684(%rax), %eax
	jmp	.LBB12_177
.LBB12_176:                             # %cond.false464
	movl	-88(%rbp), %eax
	addl	$16, %eax
	cltd
	movl	$32, %esi
	idivl	%esi
.LBB12_177:                             # %cond.end468
	xorl	%edx, %edx
	cmpl	%eax, %edx
	jle	.LBB12_179
# %bb.178:                              # %cond.true472
	xorl	%eax, %eax
	jmp	.LBB12_183
.LBB12_179:                             # %cond.false473
	movq	img, %rax
	movl	72684(%rax), %esi
	movl	-88(%rbp), %eax
	addl	$16, %eax
	cltd
	movl	$32, %edi
	idivl	%edi
	cmpl	%eax, %esi
	jge	.LBB12_181
# %bb.180:                              # %cond.true480
	movq	img, %rax
	movl	72684(%rax), %eax
	jmp	.LBB12_182
.LBB12_181:                             # %cond.false482
	movl	-88(%rbp), %eax
	addl	$16, %eax
	cltd
	movl	$32, %esi
	idivl	%esi
.LBB12_182:                             # %cond.end486
.LBB12_183:                             # %cond.end488
	addl	%eax, %ecx
	movl	%ecx, %eax
	cltd
	movl	$2, %ecx
	idivl	%ecx
	movl	%eax, -12(%rbp)
	jmp	.LBB12_196
.LBB12_184:                             # %if.else492
	cmpl	$3, -48(%rbp)
	jne	.LBB12_195
# %bb.185:                              # %if.then495
	movl	-12(%rbp), %ecx
	movq	img, %rax
	movl	72684(%rax), %esi
	movl	-84(%rbp), %eax
	addl	$16, %eax
	cltd
	movl	$32, %edi
	idivl	%edi
	cmpl	%eax, %esi
	jge	.LBB12_187
# %bb.186:                              # %cond.true502
	movq	img, %rax
	movl	72684(%rax), %eax
	jmp	.LBB12_188
.LBB12_187:                             # %cond.false504
	movl	-84(%rbp), %eax
	addl	$16, %eax
	cltd
	movl	$32, %esi
	idivl	%esi
.LBB12_188:                             # %cond.end508
	xorl	%edx, %edx
	cmpl	%eax, %edx
	jle	.LBB12_190
# %bb.189:                              # %cond.true512
	xorl	%eax, %eax
	jmp	.LBB12_194
.LBB12_190:                             # %cond.false513
	movq	img, %rax
	movl	72684(%rax), %esi
	movl	-84(%rbp), %eax
	addl	$16, %eax
	cltd
	movl	$32, %edi
	idivl	%edi
	cmpl	%eax, %esi
	jge	.LBB12_192
# %bb.191:                              # %cond.true520
	movq	img, %rax
	movl	72684(%rax), %eax
	jmp	.LBB12_193
.LBB12_192:                             # %cond.false522
	movl	-84(%rbp), %eax
	addl	$16, %eax
	cltd
	movl	$32, %esi
	idivl	%esi
.LBB12_193:                             # %cond.end526
.LBB12_194:                             # %cond.end528
	addl	%eax, %ecx
	movl	%ecx, %eax
	cltd
	movl	$2, %ecx
	idivl	%ecx
	movl	%eax, -12(%rbp)
.LBB12_195:                             # %if.end532
	jmp	.LBB12_196
.LBB12_196:                             # %if.end533
	jmp	.LBB12_329
.LBB12_197:                             # %if.else534
	cmpl	$2, -48(%rbp)
	jne	.LBB12_259
# %bb.198:                              # %if.then537
	movl	$-2, -16(%rbp)
.LBB12_199:                             # %for.cond538
                                        # =>This Loop Header: Depth=1
                                        #     Child Loop BB12_210 Depth 2
	cmpl	$4, -16(%rbp)
	jge	.LBB12_224
# %bb.200:                              # %for.body541
                                        #   in Loop: Header=BB12_199 Depth=1
	movl	$0, -12(%rbp)
	movl	-36(%rbp), %eax
	movl	-28(%rbp), %ecx
	addl	-16(%rbp), %ecx
	cmpl	%ecx, %eax
	jge	.LBB12_202
# %bb.201:                              # %cond.true545
                                        #   in Loop: Header=BB12_199 Depth=1
	movl	-36(%rbp), %eax
	jmp	.LBB12_203
.LBB12_202:                             # %cond.false546
                                        #   in Loop: Header=BB12_199 Depth=1
	movl	-28(%rbp), %eax
	addl	-16(%rbp), %eax
.LBB12_203:                             # %cond.end548
                                        #   in Loop: Header=BB12_199 Depth=1
	xorl	%ecx, %ecx
	cmpl	%eax, %ecx
	jle	.LBB12_205
# %bb.204:                              # %cond.true552
                                        #   in Loop: Header=BB12_199 Depth=1
	xorl	%eax, %eax
	jmp	.LBB12_209
.LBB12_205:                             # %cond.false553
                                        #   in Loop: Header=BB12_199 Depth=1
	movl	-36(%rbp), %eax
	movl	-28(%rbp), %ecx
	addl	-16(%rbp), %ecx
	cmpl	%ecx, %eax
	jge	.LBB12_207
# %bb.206:                              # %cond.true557
                                        #   in Loop: Header=BB12_199 Depth=1
	movl	-36(%rbp), %eax
	jmp	.LBB12_208
.LBB12_207:                             # %cond.false558
                                        #   in Loop: Header=BB12_199 Depth=1
	movl	-28(%rbp), %eax
	addl	-16(%rbp), %eax
.LBB12_208:                             # %cond.end560
                                        #   in Loop: Header=BB12_199 Depth=1
.LBB12_209:                             # %cond.end562
                                        #   in Loop: Header=BB12_199 Depth=1
	movl	%eax, -44(%rbp)
	movl	$-2, -20(%rbp)
.LBB12_210:                             # %for.cond564
                                        #   Parent Loop BB12_199 Depth=1
                                        # =>  This Inner Loop Header: Depth=2
	cmpl	$4, -20(%rbp)
	jge	.LBB12_222
# %bb.211:                              # %for.body567
                                        #   in Loop: Header=BB12_210 Depth=2
	movl	-32(%rbp), %eax
	movl	-24(%rbp), %ecx
	addl	-20(%rbp), %ecx
	cmpl	%ecx, %eax
	jge	.LBB12_213
# %bb.212:                              # %cond.true571
                                        #   in Loop: Header=BB12_210 Depth=2
	movl	-32(%rbp), %eax
	jmp	.LBB12_214
.LBB12_213:                             # %cond.false572
                                        #   in Loop: Header=BB12_210 Depth=2
	movl	-24(%rbp), %eax
	addl	-20(%rbp), %eax
.LBB12_214:                             # %cond.end574
                                        #   in Loop: Header=BB12_210 Depth=2
	xorl	%ecx, %ecx
	cmpl	%eax, %ecx
	jle	.LBB12_216
# %bb.215:                              # %cond.true578
                                        #   in Loop: Header=BB12_210 Depth=2
	xorl	%eax, %eax
	jmp	.LBB12_220
.LBB12_216:                             # %cond.false579
                                        #   in Loop: Header=BB12_210 Depth=2
	movl	-32(%rbp), %eax
	movl	-24(%rbp), %ecx
	addl	-20(%rbp), %ecx
	cmpl	%ecx, %eax
	jge	.LBB12_218
# %bb.217:                              # %cond.true583
                                        #   in Loop: Header=BB12_210 Depth=2
	movl	-32(%rbp), %eax
	jmp	.LBB12_219
.LBB12_218:                             # %cond.false584
                                        #   in Loop: Header=BB12_210 Depth=2
	movl	-24(%rbp), %eax
	addl	-20(%rbp), %eax
.LBB12_219:                             # %cond.end586
                                        #   in Loop: Header=BB12_210 Depth=2
.LBB12_220:                             # %cond.end588
                                        #   in Loop: Header=BB12_210 Depth=2
	movl	%eax, -40(%rbp)
	movq	-64(%rbp), %rax
	movslq	-40(%rbp), %rcx
	movq	(%rax,%rcx,8), %rax
	movslq	-44(%rbp), %rcx
	movzwl	(%rax,%rcx,2), %eax
	movl	-20(%rbp), %ecx
	addl	$2, %ecx
	movslq	%ecx, %rcx
	imull	Get_Reference_Pixel.COEF(,%rcx,4), %eax
	addl	-12(%rbp), %eax
	movl	%eax, -12(%rbp)
# %bb.221:                              # %for.inc600
                                        #   in Loop: Header=BB12_210 Depth=2
	movl	-20(%rbp), %eax
	addl	$1, %eax
	movl	%eax, -20(%rbp)
	jmp	.LBB12_210
.LBB12_222:                             # %for.end602
                                        #   in Loop: Header=BB12_199 Depth=1
	movl	-12(%rbp), %eax
	movl	-16(%rbp), %ecx
	addl	$2, %ecx
	movslq	%ecx, %rcx
	movl	%eax, -96(%rbp,%rcx,4)
# %bb.223:                              # %for.inc606
                                        #   in Loop: Header=BB12_199 Depth=1
	movl	-16(%rbp), %eax
	addl	$1, %eax
	movl	%eax, -16(%rbp)
	jmp	.LBB12_199
.LBB12_224:                             # %for.end608
	movl	$0, -12(%rbp)
	movl	$-2, -16(%rbp)
.LBB12_225:                             # %for.cond609
                                        # =>This Inner Loop Header: Depth=1
	cmpl	$4, -16(%rbp)
	jge	.LBB12_228
# %bb.226:                              # %for.body612
                                        #   in Loop: Header=BB12_225 Depth=1
	movl	-16(%rbp), %eax
	addl	$2, %eax
	cltq
	movl	-96(%rbp,%rax,4), %eax
	movl	-16(%rbp), %ecx
	addl	$2, %ecx
	movslq	%ecx, %rcx
	imull	Get_Reference_Pixel.COEF(,%rcx,4), %eax
	addl	-12(%rbp), %eax
	movl	%eax, -12(%rbp)
# %bb.227:                              # %for.inc621
                                        #   in Loop: Header=BB12_225 Depth=1
	movl	-16(%rbp), %eax
	addl	$1, %eax
	movl	%eax, -16(%rbp)
	jmp	.LBB12_225
.LBB12_228:                             # %for.end623
	movq	img, %rax
	movl	72684(%rax), %ecx
	movl	-12(%rbp), %eax
	addl	$512, %eax              # imm = 0x200
	cltd
	movl	$1024, %esi             # imm = 0x400
	idivl	%esi
	cmpl	%eax, %ecx
	jge	.LBB12_230
# %bb.229:                              # %cond.true629
	movq	img, %rax
	movl	72684(%rax), %eax
	jmp	.LBB12_231
.LBB12_230:                             # %cond.false631
	movl	-12(%rbp), %eax
	addl	$512, %eax              # imm = 0x200
	cltd
	movl	$1024, %ecx             # imm = 0x400
	idivl	%ecx
.LBB12_231:                             # %cond.end634
	xorl	%ecx, %ecx
	cmpl	%eax, %ecx
	jle	.LBB12_233
# %bb.232:                              # %cond.true638
	xorl	%eax, %eax
	jmp	.LBB12_237
.LBB12_233:                             # %cond.false639
	movq	img, %rax
	movl	72684(%rax), %ecx
	movl	-12(%rbp), %eax
	addl	$512, %eax              # imm = 0x200
	cltd
	movl	$1024, %esi             # imm = 0x400
	idivl	%esi
	cmpl	%eax, %ecx
	jge	.LBB12_235
# %bb.234:                              # %cond.true645
	movq	img, %rax
	movl	72684(%rax), %eax
	jmp	.LBB12_236
.LBB12_235:                             # %cond.false647
	movl	-12(%rbp), %eax
	addl	$512, %eax              # imm = 0x200
	cltd
	movl	$1024, %ecx             # imm = 0x400
	idivl	%ecx
.LBB12_236:                             # %cond.end650
.LBB12_237:                             # %cond.end652
	movl	%eax, -12(%rbp)
	cmpl	$1, -52(%rbp)
	jne	.LBB12_248
# %bb.238:                              # %if.then656
	movl	-12(%rbp), %ecx
	movq	img, %rax
	movl	72684(%rax), %esi
	movl	-88(%rbp), %eax
	addl	$16, %eax
	cltd
	movl	$32, %edi
	idivl	%edi
	cmpl	%eax, %esi
	jge	.LBB12_240
# %bb.239:                              # %cond.true663
	movq	img, %rax
	movl	72684(%rax), %eax
	jmp	.LBB12_241
.LBB12_240:                             # %cond.false665
	movl	-88(%rbp), %eax
	addl	$16, %eax
	cltd
	movl	$32, %esi
	idivl	%esi
.LBB12_241:                             # %cond.end669
	xorl	%edx, %edx
	cmpl	%eax, %edx
	jle	.LBB12_243
# %bb.242:                              # %cond.true673
	xorl	%eax, %eax
	jmp	.LBB12_247
.LBB12_243:                             # %cond.false674
	movq	img, %rax
	movl	72684(%rax), %esi
	movl	-88(%rbp), %eax
	addl	$16, %eax
	cltd
	movl	$32, %edi
	idivl	%edi
	cmpl	%eax, %esi
	jge	.LBB12_245
# %bb.244:                              # %cond.true681
	movq	img, %rax
	movl	72684(%rax), %eax
	jmp	.LBB12_246
.LBB12_245:                             # %cond.false683
	movl	-88(%rbp), %eax
	addl	$16, %eax
	cltd
	movl	$32, %esi
	idivl	%esi
.LBB12_246:                             # %cond.end687
.LBB12_247:                             # %cond.end689
	addl	%eax, %ecx
	movl	%ecx, %eax
	cltd
	movl	$2, %ecx
	idivl	%ecx
	movl	%eax, -12(%rbp)
	jmp	.LBB12_258
.LBB12_248:                             # %if.else693
	movl	-12(%rbp), %ecx
	movq	img, %rax
	movl	72684(%rax), %esi
	movl	-84(%rbp), %eax
	addl	$16, %eax
	cltd
	movl	$32, %edi
	idivl	%edi
	cmpl	%eax, %esi
	jge	.LBB12_250
# %bb.249:                              # %cond.true700
	movq	img, %rax
	movl	72684(%rax), %eax
	jmp	.LBB12_251
.LBB12_250:                             # %cond.false702
	movl	-84(%rbp), %eax
	addl	$16, %eax
	cltd
	movl	$32, %esi
	idivl	%esi
.LBB12_251:                             # %cond.end706
	xorl	%edx, %edx
	cmpl	%eax, %edx
	jle	.LBB12_253
# %bb.252:                              # %cond.true710
	xorl	%eax, %eax
	jmp	.LBB12_257
.LBB12_253:                             # %cond.false711
	movq	img, %rax
	movl	72684(%rax), %esi
	movl	-84(%rbp), %eax
	addl	$16, %eax
	cltd
	movl	$32, %edi
	idivl	%edi
	cmpl	%eax, %esi
	jge	.LBB12_255
# %bb.254:                              # %cond.true718
	movq	img, %rax
	movl	72684(%rax), %eax
	jmp	.LBB12_256
.LBB12_255:                             # %cond.false720
	movl	-84(%rbp), %eax
	addl	$16, %eax
	cltd
	movl	$32, %esi
	idivl	%esi
.LBB12_256:                             # %cond.end724
.LBB12_257:                             # %cond.end726
	addl	%eax, %ecx
	movl	%ecx, %eax
	cltd
	movl	$2, %ecx
	idivl	%ecx
	movl	%eax, -12(%rbp)
.LBB12_258:                             # %if.end730
	jmp	.LBB12_328
.LBB12_259:                             # %if.else731
	movl	$0, -12(%rbp)
	cmpl	$1, -48(%rbp)
	jne	.LBB12_261
# %bb.260:                              # %cond.true734
	movl	-24(%rbp), %eax
	jmp	.LBB12_262
.LBB12_261:                             # %cond.false735
	movl	-24(%rbp), %eax
	addl	$1, %eax
.LBB12_262:                             # %cond.end737
	movl	%eax, -40(%rbp)
	movl	-32(%rbp), %eax
	cmpl	-40(%rbp), %eax
	jge	.LBB12_264
# %bb.263:                              # %cond.true741
	movl	-32(%rbp), %eax
	jmp	.LBB12_265
.LBB12_264:                             # %cond.false742
	movl	-40(%rbp), %eax
.LBB12_265:                             # %cond.end743
	xorl	%ecx, %ecx
	cmpl	%eax, %ecx
	jle	.LBB12_267
# %bb.266:                              # %cond.true747
	xorl	%eax, %eax
	jmp	.LBB12_271
.LBB12_267:                             # %cond.false748
	movl	-32(%rbp), %eax
	cmpl	-40(%rbp), %eax
	jge	.LBB12_269
# %bb.268:                              # %cond.true751
	movl	-32(%rbp), %eax
	jmp	.LBB12_270
.LBB12_269:                             # %cond.false752
	movl	-40(%rbp), %eax
.LBB12_270:                             # %cond.end753
.LBB12_271:                             # %cond.end755
	movl	%eax, -40(%rbp)
	movl	$-2, -16(%rbp)
.LBB12_272:                             # %for.cond757
                                        # =>This Inner Loop Header: Depth=1
	cmpl	$4, -16(%rbp)
	jge	.LBB12_284
# %bb.273:                              # %for.body760
                                        #   in Loop: Header=BB12_272 Depth=1
	movl	-36(%rbp), %eax
	movl	-28(%rbp), %ecx
	addl	-16(%rbp), %ecx
	cmpl	%ecx, %eax
	jge	.LBB12_275
# %bb.274:                              # %cond.true764
                                        #   in Loop: Header=BB12_272 Depth=1
	movl	-36(%rbp), %eax
	jmp	.LBB12_276
.LBB12_275:                             # %cond.false765
                                        #   in Loop: Header=BB12_272 Depth=1
	movl	-28(%rbp), %eax
	addl	-16(%rbp), %eax
.LBB12_276:                             # %cond.end767
                                        #   in Loop: Header=BB12_272 Depth=1
	xorl	%ecx, %ecx
	cmpl	%eax, %ecx
	jle	.LBB12_278
# %bb.277:                              # %cond.true771
                                        #   in Loop: Header=BB12_272 Depth=1
	xorl	%eax, %eax
	jmp	.LBB12_282
.LBB12_278:                             # %cond.false772
                                        #   in Loop: Header=BB12_272 Depth=1
	movl	-36(%rbp), %eax
	movl	-28(%rbp), %ecx
	addl	-16(%rbp), %ecx
	cmpl	%ecx, %eax
	jge	.LBB12_280
# %bb.279:                              # %cond.true776
                                        #   in Loop: Header=BB12_272 Depth=1
	movl	-36(%rbp), %eax
	jmp	.LBB12_281
.LBB12_280:                             # %cond.false777
                                        #   in Loop: Header=BB12_272 Depth=1
	movl	-28(%rbp), %eax
	addl	-16(%rbp), %eax
.LBB12_281:                             # %cond.end779
                                        #   in Loop: Header=BB12_272 Depth=1
.LBB12_282:                             # %cond.end781
                                        #   in Loop: Header=BB12_272 Depth=1
	movl	%eax, -44(%rbp)
	movq	-64(%rbp), %rax
	movslq	-40(%rbp), %rcx
	movq	(%rax,%rcx,8), %rax
	movslq	-44(%rbp), %rcx
	movzwl	(%rax,%rcx,2), %eax
	movl	-16(%rbp), %ecx
	addl	$2, %ecx
	movslq	%ecx, %rcx
	imull	Get_Reference_Pixel.COEF(,%rcx,4), %eax
	addl	-12(%rbp), %eax
	movl	%eax, -12(%rbp)
# %bb.283:                              # %for.inc793
                                        #   in Loop: Header=BB12_272 Depth=1
	movl	-16(%rbp), %eax
	addl	$1, %eax
	movl	%eax, -16(%rbp)
	jmp	.LBB12_272
.LBB12_284:                             # %for.end795
	movq	img, %rax
	movl	72684(%rax), %ecx
	movl	-12(%rbp), %eax
	addl	$16, %eax
	cltd
	movl	$32, %esi
	idivl	%esi
	cmpl	%eax, %ecx
	jge	.LBB12_286
# %bb.285:                              # %cond.true801
	movq	img, %rax
	movl	72684(%rax), %eax
	jmp	.LBB12_287
.LBB12_286:                             # %cond.false803
	movl	-12(%rbp), %eax
	addl	$16, %eax
	cltd
	movl	$32, %ecx
	idivl	%ecx
.LBB12_287:                             # %cond.end806
	xorl	%ecx, %ecx
	cmpl	%eax, %ecx
	jle	.LBB12_289
# %bb.288:                              # %cond.true810
	xorl	%eax, %eax
	jmp	.LBB12_293
.LBB12_289:                             # %cond.false811
	movq	img, %rax
	movl	72684(%rax), %ecx
	movl	-12(%rbp), %eax
	addl	$16, %eax
	cltd
	movl	$32, %esi
	idivl	%esi
	cmpl	%eax, %ecx
	jge	.LBB12_291
# %bb.290:                              # %cond.true817
	movq	img, %rax
	movl	72684(%rax), %eax
	jmp	.LBB12_292
.LBB12_291:                             # %cond.false819
	movl	-12(%rbp), %eax
	addl	$16, %eax
	cltd
	movl	$32, %ecx
	idivl	%ecx
.LBB12_292:                             # %cond.end822
.LBB12_293:                             # %cond.end824
	movl	%eax, -104(%rbp)
	movl	$0, -12(%rbp)
	cmpl	$1, -52(%rbp)
	jne	.LBB12_295
# %bb.294:                              # %cond.true828
	movl	-28(%rbp), %eax
	jmp	.LBB12_296
.LBB12_295:                             # %cond.false829
	movl	-28(%rbp), %eax
	addl	$1, %eax
.LBB12_296:                             # %cond.end831
	movl	%eax, -44(%rbp)
	movl	-36(%rbp), %eax
	cmpl	-44(%rbp), %eax
	jge	.LBB12_298
# %bb.297:                              # %cond.true835
	movl	-36(%rbp), %eax
	jmp	.LBB12_299
.LBB12_298:                             # %cond.false836
	movl	-44(%rbp), %eax
.LBB12_299:                             # %cond.end837
	xorl	%ecx, %ecx
	cmpl	%eax, %ecx
	jle	.LBB12_301
# %bb.300:                              # %cond.true841
	xorl	%eax, %eax
	jmp	.LBB12_305
.LBB12_301:                             # %cond.false842
	movl	-36(%rbp), %eax
	cmpl	-44(%rbp), %eax
	jge	.LBB12_303
# %bb.302:                              # %cond.true845
	movl	-36(%rbp), %eax
	jmp	.LBB12_304
.LBB12_303:                             # %cond.false846
	movl	-44(%rbp), %eax
.LBB12_304:                             # %cond.end847
.LBB12_305:                             # %cond.end849
	movl	%eax, -44(%rbp)
	movl	$-2, -20(%rbp)
.LBB12_306:                             # %for.cond851
                                        # =>This Inner Loop Header: Depth=1
	cmpl	$4, -20(%rbp)
	jge	.LBB12_318
# %bb.307:                              # %for.body854
                                        #   in Loop: Header=BB12_306 Depth=1
	movl	-32(%rbp), %eax
	movl	-24(%rbp), %ecx
	addl	-20(%rbp), %ecx
	cmpl	%ecx, %eax
	jge	.LBB12_309
# %bb.308:                              # %cond.true858
                                        #   in Loop: Header=BB12_306 Depth=1
	movl	-32(%rbp), %eax
	jmp	.LBB12_310
.LBB12_309:                             # %cond.false859
                                        #   in Loop: Header=BB12_306 Depth=1
	movl	-24(%rbp), %eax
	addl	-20(%rbp), %eax
.LBB12_310:                             # %cond.end861
                                        #   in Loop: Header=BB12_306 Depth=1
	xorl	%ecx, %ecx
	cmpl	%eax, %ecx
	jle	.LBB12_312
# %bb.311:                              # %cond.true865
                                        #   in Loop: Header=BB12_306 Depth=1
	xorl	%eax, %eax
	jmp	.LBB12_316
.LBB12_312:                             # %cond.false866
                                        #   in Loop: Header=BB12_306 Depth=1
	movl	-32(%rbp), %eax
	movl	-24(%rbp), %ecx
	addl	-20(%rbp), %ecx
	cmpl	%ecx, %eax
	jge	.LBB12_314
# %bb.313:                              # %cond.true870
                                        #   in Loop: Header=BB12_306 Depth=1
	movl	-32(%rbp), %eax
	jmp	.LBB12_315
.LBB12_314:                             # %cond.false871
                                        #   in Loop: Header=BB12_306 Depth=1
	movl	-24(%rbp), %eax
	addl	-20(%rbp), %eax
.LBB12_315:                             # %cond.end873
                                        #   in Loop: Header=BB12_306 Depth=1
.LBB12_316:                             # %cond.end875
                                        #   in Loop: Header=BB12_306 Depth=1
	movl	%eax, -40(%rbp)
	movq	-64(%rbp), %rax
	movslq	-40(%rbp), %rcx
	movq	(%rax,%rcx,8), %rax
	movslq	-44(%rbp), %rcx
	movzwl	(%rax,%rcx,2), %eax
	movl	-20(%rbp), %ecx
	addl	$2, %ecx
	movslq	%ecx, %rcx
	imull	Get_Reference_Pixel.COEF(,%rcx,4), %eax
	addl	-12(%rbp), %eax
	movl	%eax, -12(%rbp)
# %bb.317:                              # %for.inc887
                                        #   in Loop: Header=BB12_306 Depth=1
	movl	-20(%rbp), %eax
	addl	$1, %eax
	movl	%eax, -20(%rbp)
	jmp	.LBB12_306
.LBB12_318:                             # %for.end889
	movq	img, %rax
	movl	72684(%rax), %ecx
	movl	-12(%rbp), %eax
	addl	$16, %eax
	cltd
	movl	$32, %esi
	idivl	%esi
	cmpl	%eax, %ecx
	jge	.LBB12_320
# %bb.319:                              # %cond.true895
	movq	img, %rax
	movl	72684(%rax), %eax
	jmp	.LBB12_321
.LBB12_320:                             # %cond.false897
	movl	-12(%rbp), %eax
	addl	$16, %eax
	cltd
	movl	$32, %ecx
	idivl	%ecx
.LBB12_321:                             # %cond.end900
	xorl	%ecx, %ecx
	cmpl	%eax, %ecx
	jle	.LBB12_323
# %bb.322:                              # %cond.true904
	xorl	%eax, %eax
	jmp	.LBB12_327
.LBB12_323:                             # %cond.false905
	movq	img, %rax
	movl	72684(%rax), %ecx
	movl	-12(%rbp), %eax
	addl	$16, %eax
	cltd
	movl	$32, %esi
	idivl	%esi
	cmpl	%eax, %ecx
	jge	.LBB12_325
# %bb.324:                              # %cond.true911
	movq	img, %rax
	movl	72684(%rax), %eax
	jmp	.LBB12_326
.LBB12_325:                             # %cond.false913
	movl	-12(%rbp), %eax
	addl	$16, %eax
	cltd
	movl	$32, %ecx
	idivl	%ecx
.LBB12_326:                             # %cond.end916
.LBB12_327:                             # %cond.end918
	movl	%eax, -100(%rbp)
	movl	-104(%rbp), %eax
	addl	-100(%rbp), %eax
	cltd
	movl	$2, %ecx
	idivl	%ecx
	movl	%eax, -12(%rbp)
.LBB12_328:                             # %if.end922
	jmp	.LBB12_329
.LBB12_329:                             # %if.end923
	jmp	.LBB12_330
.LBB12_330:                             # %if.end924
	jmp	.LBB12_331
.LBB12_331:                             # %if.end925
	jmp	.LBB12_332
.LBB12_332:                             # %if.end926
	movl	-12(%rbp), %ebx
	cmpl	$841232719, -108(%rbp)  # imm = 0x3224314F
	jne	.LBB12_334
.LBB12_333:
	movzbl	%bl, %eax
	addq	$104, %rsp
	popq	%rbx
	popq	%rbp
	.cfi_def_cfa %rsp, 8
	retq
.LBB12_334:                             # %func_exit
	.cfi_def_cfa %rbp, 16
	callq	detect_breach
	jmp	.LBB12_333
.Lfunc_end12:
	.size	Get_Reference_Pixel.2, .Lfunc_end12-Get_Reference_Pixel.2
	.cfi_endproc
                                        # -- End function
	.section	.rodata.cst8,"aM",@progbits,8
	.p2align	3               # -- Begin function Build_Status_Map.3
.LCPI13_0:
	.quad	4636737291354636288     # double 100
.LCPI13_1:
	.quad	4746794007244308480     # double 2147483647
	.text
	.globl	Build_Status_Map.3
	.p2align	4, 0x90
	.type	Build_Status_Map.3,@function
Build_Status_Map.3:                     # @Build_Status_Map.3
	.cfi_startproc
# %bb.0:                                # %entry
	pushq	%rbp
	.cfi_def_cfa_offset 16
	.cfi_offset %rbp, -16
	movq	%rsp, %rbp
	.cfi_def_cfa_register %rbp
	subq	$48, %rsp
	movl	$199900524, -40(%rbp)   # imm = 0xBEA3D6C
	movq	%rdi, -32(%rbp)
	movl	$-1, -16(%rbp)
	movl	$0, -20(%rbp)
	movl	$0, -4(%rbp)
	movq	img, %rax
	movl	60(%rax), %eax
	cltd
	movl	$16, %ecx
	idivl	%ecx
	movl	%eax, -36(%rbp)
	movq	img, %rax
	movl	52(%rax), %eax
	cltd
	idivl	%ecx
	movl	%eax, -44(%rbp)
	movl	$0, -8(%rbp)
.LBB13_1:                               # %for.cond
                                        # =>This Loop Header: Depth=1
                                        #     Child Loop BB13_3 Depth 2
	movl	-8(%rbp), %eax
	cmpl	-36(%rbp), %eax
	jge	.LBB13_22
# %bb.2:                                # %for.body
                                        #   in Loop: Header=BB13_1 Depth=1
	movl	$0, -12(%rbp)
.LBB13_3:                               # %for.cond2
                                        #   Parent Loop BB13_1 Depth=1
                                        # =>  This Inner Loop Header: Depth=2
	movl	-12(%rbp), %eax
	cmpl	-44(%rbp), %eax
	jge	.LBB13_20
# %bb.4:                                # %for.body4
                                        #   in Loop: Header=BB13_3 Depth=2
	movq	input, %rax
	cmpl	$0, 208(%rax)
	je	.LBB13_6
# %bb.5:                                # %lor.lhs.false
                                        #   in Loop: Header=BB13_3 Depth=2
	movq	img, %rax
	movq	14168(%rax), %rax
	movslq	-20(%rbp), %rcx
	imulq	$632, %rcx, %rcx        # imm = 0x278
	addq	%rcx, %rax
	movl	4(%rax), %eax
	cmpl	-16(%rbp), %eax
	je	.LBB13_13
.LBB13_6:                               # %if.then
                                        #   in Loop: Header=BB13_3 Depth=2
	movl	$0, -4(%rbp)
	callq	rand
	vmovsd	.LCPI13_0(%rip), %xmm0  # xmm0 = mem[0],zero
	vmovsd	.LCPI13_1(%rip), %xmm1  # xmm1 = mem[0],zero
	vcvtsi2sd	%eax, %xmm0, %xmm2
	vdivsd	%xmm1, %xmm2, %xmm1
	vmulsd	%xmm0, %xmm1, %xmm0
	movq	input, %rax
	vcvtsi2sdl	2900(%rax), %xmm0, %xmm1
	vucomisd	%xmm0, %xmm1
	jbe	.LBB13_8
# %bb.7:                                # %if.then10
                                        #   in Loop: Header=BB13_3 Depth=2
	movl	-4(%rbp), %eax
	addl	$3, %eax
	movl	%eax, -4(%rbp)
.LBB13_8:                               # %if.end
                                        #   in Loop: Header=BB13_3 Depth=2
	callq	rand
	vmovsd	.LCPI13_0(%rip), %xmm0  # xmm0 = mem[0],zero
	vmovsd	.LCPI13_1(%rip), %xmm1  # xmm1 = mem[0],zero
	vcvtsi2sd	%eax, %xmm0, %xmm2
	vdivsd	%xmm1, %xmm2, %xmm1
	vmulsd	%xmm0, %xmm1, %xmm0
	movq	input, %rax
	vcvtsi2sdl	2896(%rax), %xmm0, %xmm1
	vucomisd	%xmm0, %xmm1
	jbe	.LBB13_10
# %bb.9:                                # %if.then18
                                        #   in Loop: Header=BB13_3 Depth=2
	movl	-4(%rbp), %eax
	addl	$2, %eax
	movl	%eax, -4(%rbp)
.LBB13_10:                              # %if.end20
                                        #   in Loop: Header=BB13_3 Depth=2
	callq	rand
	vmovsd	.LCPI13_0(%rip), %xmm0  # xmm0 = mem[0],zero
	vmovsd	.LCPI13_1(%rip), %xmm1  # xmm1 = mem[0],zero
	vcvtsi2sd	%eax, %xmm0, %xmm2
	vdivsd	%xmm1, %xmm2, %xmm1
	vmulsd	%xmm0, %xmm1, %xmm0
	movq	input, %rax
	vcvtsi2sdl	2892(%rax), %xmm0, %xmm1
	vucomisd	%xmm0, %xmm1
	jbe	.LBB13_12
# %bb.11:                               # %if.then28
                                        #   in Loop: Header=BB13_3 Depth=2
	movl	$1, -4(%rbp)
.LBB13_12:                              # %if.end29
                                        #   in Loop: Header=BB13_3 Depth=2
	movl	-16(%rbp), %eax
	addl	$1, %eax
	movl	%eax, -16(%rbp)
.LBB13_13:                              # %if.end30
                                        #   in Loop: Header=BB13_3 Depth=2
	cmpl	$0, -4(%rbp)
	jne	.LBB13_15
# %bb.14:                               # %if.then32
                                        #   in Loop: Header=BB13_3 Depth=2
	movq	-32(%rbp), %rax
	movslq	-8(%rbp), %rcx
	movq	(%rax,%rcx,8), %rax
	movslq	-12(%rbp), %rcx
	movb	$0, (%rax,%rcx)
	jmp	.LBB13_18
.LBB13_15:                              # %if.else
                                        #   in Loop: Header=BB13_3 Depth=2
	movl	-4(%rbp), %eax
	movq	-32(%rbp), %rcx
	movslq	-8(%rbp), %rdx
	movq	(%rcx,%rdx,8), %rcx
	movslq	-12(%rbp), %rdx
	movb	%al, (%rcx,%rdx)
	movq	input, %rax
	cmpl	$0, 2364(%rax)
	jne	.LBB13_17
# %bb.16:                               # %if.then44
                                        #   in Loop: Header=BB13_3 Depth=2
	movq	-32(%rbp), %rax
	movslq	-8(%rbp), %rcx
	movq	(%rax,%rcx,8), %rax
	movslq	-12(%rbp), %rcx
	movb	$1, (%rax,%rcx)
.LBB13_17:                              # %if.end49
                                        #   in Loop: Header=BB13_3 Depth=2
	jmp	.LBB13_18
.LBB13_18:                              # %if.end50
                                        #   in Loop: Header=BB13_3 Depth=2
	movl	-20(%rbp), %eax
	addl	$1, %eax
	movl	%eax, -20(%rbp)
# %bb.19:                               # %for.inc
                                        #   in Loop: Header=BB13_3 Depth=2
	movl	-12(%rbp), %eax
	addl	$1, %eax
	movl	%eax, -12(%rbp)
	jmp	.LBB13_3
.LBB13_20:                              # %for.end
                                        #   in Loop: Header=BB13_1 Depth=1
	jmp	.LBB13_21
.LBB13_21:                              # %for.inc53
                                        #   in Loop: Header=BB13_1 Depth=1
	movl	-8(%rbp), %eax
	addl	$1, %eax
	movl	%eax, -8(%rbp)
	jmp	.LBB13_1
.LBB13_22:                              # %for.end55
	cmpl	$199900524, -40(%rbp)   # imm = 0xBEA3D6C
	jne	.LBB13_24
.LBB13_23:
	addq	$48, %rsp
	popq	%rbp
	.cfi_def_cfa %rsp, 8
	retq
.LBB13_24:                              # %func_exit
	.cfi_def_cfa %rbp, 16
	callq	detect_breach
	jmp	.LBB13_23
.Lfunc_end13:
	.size	Build_Status_Map.3, .Lfunc_end13-Build_Status_Map.3
	.cfi_endproc
                                        # -- End function
	.globl	Get_Reference_Pixel.4   # -- Begin function Get_Reference_Pixel.4
	.p2align	4, 0x90
	.type	Get_Reference_Pixel.4,@function
Get_Reference_Pixel.4:                  # @Get_Reference_Pixel.4
	.cfi_startproc
# %bb.0:                                # %entry
	pushq	%rbp
	.cfi_def_cfa_offset 16
	.cfi_offset %rbp, -16
	movq	%rsp, %rbp
	.cfi_def_cfa_register %rbp
	pushq	%rbx
	subq	$104, %rsp
	.cfi_offset %rbx, -24
	movl	$795451242, -104(%rbp)  # imm = 0x2F699F6A
	movq	%rdi, -64(%rbp)
	movl	%esi, -28(%rbp)
	movl	%edx, -24(%rbp)
	movl	$0, -12(%rbp)
	movl	-24(%rbp), %eax
	andl	$3, %eax
	movl	%eax, -52(%rbp)
	movl	-28(%rbp), %eax
	andl	$3, %eax
	movl	%eax, -48(%rbp)
	movl	-24(%rbp), %eax
	subl	-52(%rbp), %eax
	cltd
	movl	$4, %ecx
	idivl	%ecx
	movl	%eax, -24(%rbp)
	movl	-28(%rbp), %eax
	subl	-48(%rbp), %eax
	cltd
	idivl	%ecx
	movl	%eax, -28(%rbp)
	movq	img, %rax
	movl	52(%rax), %eax
	subl	$1, %eax
	movl	%eax, -36(%rbp)
	movq	img, %rax
	movl	60(%rax), %eax
	subl	$1, %eax
	movl	%eax, -32(%rbp)
	cmpl	$0, -52(%rbp)
	jne	.LBB14_21
# %bb.1:                                # %land.lhs.true
	cmpl	$0, -48(%rbp)
	jne	.LBB14_21
# %bb.2:                                # %if.then
	movq	-64(%rbp), %rax
	movl	-32(%rbp), %ecx
	cmpl	-28(%rbp), %ecx
	jge	.LBB14_4
# %bb.3:                                # %cond.true
	movl	-32(%rbp), %ecx
	jmp	.LBB14_5
.LBB14_4:                               # %cond.false
	movl	-28(%rbp), %ecx
.LBB14_5:                               # %cond.end
	xorl	%edx, %edx
	cmpl	%ecx, %edx
	jle	.LBB14_7
# %bb.6:                                # %cond.true9
	xorl	%ecx, %ecx
	jmp	.LBB14_11
.LBB14_7:                               # %cond.false10
	movl	-32(%rbp), %ecx
	cmpl	-28(%rbp), %ecx
	jge	.LBB14_9
# %bb.8:                                # %cond.true12
	movl	-32(%rbp), %ecx
	jmp	.LBB14_10
.LBB14_9:                               # %cond.false13
	movl	-28(%rbp), %ecx
.LBB14_10:                              # %cond.end14
.LBB14_11:                              # %cond.end16
	movslq	%ecx, %rcx
	movq	(%rax,%rcx,8), %rax
	movl	-36(%rbp), %ecx
	cmpl	-24(%rbp), %ecx
	jge	.LBB14_13
# %bb.12:                               # %cond.true19
	movl	-36(%rbp), %ecx
	jmp	.LBB14_14
.LBB14_13:                              # %cond.false20
	movl	-24(%rbp), %ecx
.LBB14_14:                              # %cond.end21
	xorl	%edx, %edx
	cmpl	%ecx, %edx
	jle	.LBB14_16
# %bb.15:                               # %cond.true24
	xorl	%ecx, %ecx
	jmp	.LBB14_20
.LBB14_16:                              # %cond.false25
	movl	-36(%rbp), %ecx
	cmpl	-24(%rbp), %ecx
	jge	.LBB14_18
# %bb.17:                               # %cond.true27
	movl	-36(%rbp), %ecx
	jmp	.LBB14_19
.LBB14_18:                              # %cond.false28
	movl	-24(%rbp), %ecx
.LBB14_19:                              # %cond.end29
.LBB14_20:                              # %cond.end31
	movslq	%ecx, %rcx
	movzwl	(%rax,%rcx,2), %eax
	movl	%eax, -12(%rbp)
	jmp	.LBB14_332
.LBB14_21:                              # %if.else
	cmpl	$0, -48(%rbp)
	jne	.LBB14_77
# %bb.22:                               # %if.then37
	movl	-32(%rbp), %eax
	cmpl	-28(%rbp), %eax
	jge	.LBB14_24
# %bb.23:                               # %cond.true40
	movl	-32(%rbp), %eax
	jmp	.LBB14_25
.LBB14_24:                              # %cond.false41
	movl	-28(%rbp), %eax
.LBB14_25:                              # %cond.end42
	xorl	%ecx, %ecx
	cmpl	%eax, %ecx
	jle	.LBB14_27
# %bb.26:                               # %cond.true46
	xorl	%eax, %eax
	jmp	.LBB14_31
.LBB14_27:                              # %cond.false47
	movl	-32(%rbp), %eax
	cmpl	-28(%rbp), %eax
	jge	.LBB14_29
# %bb.28:                               # %cond.true50
	movl	-32(%rbp), %eax
	jmp	.LBB14_30
.LBB14_29:                              # %cond.false51
	movl	-28(%rbp), %eax
.LBB14_30:                              # %cond.end52
.LBB14_31:                              # %cond.end54
	movl	%eax, -44(%rbp)
	movl	$-2, -20(%rbp)
.LBB14_32:                              # %for.cond
                                        # =>This Inner Loop Header: Depth=1
	cmpl	$4, -20(%rbp)
	jge	.LBB14_44
# %bb.33:                               # %for.body
                                        #   in Loop: Header=BB14_32 Depth=1
	movl	-36(%rbp), %eax
	movl	-24(%rbp), %ecx
	addl	-20(%rbp), %ecx
	cmpl	%ecx, %eax
	jge	.LBB14_35
# %bb.34:                               # %cond.true60
                                        #   in Loop: Header=BB14_32 Depth=1
	movl	-36(%rbp), %eax
	jmp	.LBB14_36
.LBB14_35:                              # %cond.false61
                                        #   in Loop: Header=BB14_32 Depth=1
	movl	-24(%rbp), %eax
	addl	-20(%rbp), %eax
.LBB14_36:                              # %cond.end63
                                        #   in Loop: Header=BB14_32 Depth=1
	xorl	%ecx, %ecx
	cmpl	%eax, %ecx
	jle	.LBB14_38
# %bb.37:                               # %cond.true67
                                        #   in Loop: Header=BB14_32 Depth=1
	xorl	%eax, %eax
	jmp	.LBB14_42
.LBB14_38:                              # %cond.false68
                                        #   in Loop: Header=BB14_32 Depth=1
	movl	-36(%rbp), %eax
	movl	-24(%rbp), %ecx
	addl	-20(%rbp), %ecx
	cmpl	%ecx, %eax
	jge	.LBB14_40
# %bb.39:                               # %cond.true72
                                        #   in Loop: Header=BB14_32 Depth=1
	movl	-36(%rbp), %eax
	jmp	.LBB14_41
.LBB14_40:                              # %cond.false73
                                        #   in Loop: Header=BB14_32 Depth=1
	movl	-24(%rbp), %eax
	addl	-20(%rbp), %eax
.LBB14_41:                              # %cond.end75
                                        #   in Loop: Header=BB14_32 Depth=1
.LBB14_42:                              # %cond.end77
                                        #   in Loop: Header=BB14_32 Depth=1
	movl	%eax, -40(%rbp)
	movq	-64(%rbp), %rax
	movslq	-44(%rbp), %rcx
	movq	(%rax,%rcx,8), %rax
	movslq	-40(%rbp), %rcx
	movzwl	(%rax,%rcx,2), %eax
	movl	-20(%rbp), %ecx
	addl	$2, %ecx
	movslq	%ecx, %rcx
	imull	Get_Reference_Pixel.COEF(,%rcx,4), %eax
	addl	-12(%rbp), %eax
	movl	%eax, -12(%rbp)
# %bb.43:                               # %for.inc
                                        #   in Loop: Header=BB14_32 Depth=1
	movl	-20(%rbp), %eax
	addl	$1, %eax
	movl	%eax, -20(%rbp)
	jmp	.LBB14_32
.LBB14_44:                              # %for.end
	movq	img, %rax
	movl	72684(%rax), %ecx
	movl	-12(%rbp), %eax
	addl	$16, %eax
	cltd
	movl	$32, %esi
	idivl	%esi
	cmpl	%eax, %ecx
	jge	.LBB14_46
# %bb.45:                               # %cond.true92
	movq	img, %rax
	movl	72684(%rax), %eax
	jmp	.LBB14_47
.LBB14_46:                              # %cond.false94
	movl	-12(%rbp), %eax
	addl	$16, %eax
	cltd
	movl	$32, %ecx
	idivl	%ecx
.LBB14_47:                              # %cond.end97
	xorl	%ecx, %ecx
	cmpl	%eax, %ecx
	jle	.LBB14_49
# %bb.48:                               # %cond.true101
	xorl	%eax, %eax
	jmp	.LBB14_53
.LBB14_49:                              # %cond.false102
	movq	img, %rax
	movl	72684(%rax), %ecx
	movl	-12(%rbp), %eax
	addl	$16, %eax
	cltd
	movl	$32, %esi
	idivl	%esi
	cmpl	%eax, %ecx
	jge	.LBB14_51
# %bb.50:                               # %cond.true108
	movq	img, %rax
	movl	72684(%rax), %eax
	jmp	.LBB14_52
.LBB14_51:                              # %cond.false110
	movl	-12(%rbp), %eax
	addl	$16, %eax
	cltd
	movl	$32, %ecx
	idivl	%ecx
.LBB14_52:                              # %cond.end113
.LBB14_53:                              # %cond.end115
	movl	%eax, -12(%rbp)
	cmpl	$1, -52(%rbp)
	jne	.LBB14_64
# %bb.54:                               # %if.then119
	movl	-12(%rbp), %eax
	movq	-64(%rbp), %rcx
	movslq	-44(%rbp), %rdx
	movq	(%rcx,%rdx,8), %rcx
	movl	-36(%rbp), %edx
	cmpl	-24(%rbp), %edx
	jge	.LBB14_56
# %bb.55:                               # %cond.true124
	movl	-36(%rbp), %edx
	jmp	.LBB14_57
.LBB14_56:                              # %cond.false125
	movl	-24(%rbp), %edx
.LBB14_57:                              # %cond.end126
	xorl	%esi, %esi
	cmpl	%edx, %esi
	jle	.LBB14_59
# %bb.58:                               # %cond.true130
	xorl	%edx, %edx
	jmp	.LBB14_63
.LBB14_59:                              # %cond.false131
	movl	-36(%rbp), %edx
	cmpl	-24(%rbp), %edx
	jge	.LBB14_61
# %bb.60:                               # %cond.true134
	movl	-36(%rbp), %edx
	jmp	.LBB14_62
.LBB14_61:                              # %cond.false135
	movl	-24(%rbp), %edx
.LBB14_62:                              # %cond.end136
.LBB14_63:                              # %cond.end138
	movslq	%edx, %rdx
	movzwl	(%rcx,%rdx,2), %ecx
	addl	%ecx, %eax
	cltd
	movl	$2, %ecx
	idivl	%ecx
	movl	%eax, -12(%rbp)
	jmp	.LBB14_76
.LBB14_64:                              # %if.else145
	cmpl	$3, -52(%rbp)
	jne	.LBB14_75
# %bb.65:                               # %if.then148
	movl	-12(%rbp), %eax
	movq	-64(%rbp), %rcx
	movslq	-44(%rbp), %rdx
	movq	(%rcx,%rdx,8), %rcx
	movl	-36(%rbp), %edx
	movl	-24(%rbp), %esi
	addl	$1, %esi
	cmpl	%esi, %edx
	jge	.LBB14_67
# %bb.66:                               # %cond.true154
	movl	-36(%rbp), %edx
	jmp	.LBB14_68
.LBB14_67:                              # %cond.false155
	movl	-24(%rbp), %edx
	addl	$1, %edx
.LBB14_68:                              # %cond.end157
	xorl	%esi, %esi
	cmpl	%edx, %esi
	jle	.LBB14_70
# %bb.69:                               # %cond.true161
	xorl	%edx, %edx
	jmp	.LBB14_74
.LBB14_70:                              # %cond.false162
	movl	-36(%rbp), %edx
	movl	-24(%rbp), %esi
	addl	$1, %esi
	cmpl	%esi, %edx
	jge	.LBB14_72
# %bb.71:                               # %cond.true166
	movl	-36(%rbp), %edx
	jmp	.LBB14_73
.LBB14_72:                              # %cond.false167
	movl	-24(%rbp), %edx
	addl	$1, %edx
.LBB14_73:                              # %cond.end169
.LBB14_74:                              # %cond.end171
	movslq	%edx, %rdx
	movzwl	(%rcx,%rdx,2), %ecx
	addl	%ecx, %eax
	cltd
	movl	$2, %ecx
	idivl	%ecx
	movl	%eax, -12(%rbp)
.LBB14_75:                              # %if.end
	jmp	.LBB14_76
.LBB14_76:                              # %if.end178
	jmp	.LBB14_331
.LBB14_77:                              # %if.else179
	cmpl	$0, -52(%rbp)
	jne	.LBB14_133
# %bb.78:                               # %if.then182
	movl	-36(%rbp), %eax
	cmpl	-24(%rbp), %eax
	jge	.LBB14_80
# %bb.79:                               # %cond.true185
	movl	-36(%rbp), %eax
	jmp	.LBB14_81
.LBB14_80:                              # %cond.false186
	movl	-24(%rbp), %eax
.LBB14_81:                              # %cond.end187
	xorl	%ecx, %ecx
	cmpl	%eax, %ecx
	jle	.LBB14_83
# %bb.82:                               # %cond.true191
	xorl	%eax, %eax
	jmp	.LBB14_87
.LBB14_83:                              # %cond.false192
	movl	-36(%rbp), %eax
	cmpl	-24(%rbp), %eax
	jge	.LBB14_85
# %bb.84:                               # %cond.true195
	movl	-36(%rbp), %eax
	jmp	.LBB14_86
.LBB14_85:                              # %cond.false196
	movl	-24(%rbp), %eax
.LBB14_86:                              # %cond.end197
.LBB14_87:                              # %cond.end199
	movl	%eax, -40(%rbp)
	movl	$-2, -16(%rbp)
.LBB14_88:                              # %for.cond201
                                        # =>This Inner Loop Header: Depth=1
	cmpl	$4, -16(%rbp)
	jge	.LBB14_100
# %bb.89:                               # %for.body204
                                        #   in Loop: Header=BB14_88 Depth=1
	movl	-32(%rbp), %eax
	movl	-28(%rbp), %ecx
	addl	-16(%rbp), %ecx
	cmpl	%ecx, %eax
	jge	.LBB14_91
# %bb.90:                               # %cond.true208
                                        #   in Loop: Header=BB14_88 Depth=1
	movl	-32(%rbp), %eax
	jmp	.LBB14_92
.LBB14_91:                              # %cond.false209
                                        #   in Loop: Header=BB14_88 Depth=1
	movl	-28(%rbp), %eax
	addl	-16(%rbp), %eax
.LBB14_92:                              # %cond.end211
                                        #   in Loop: Header=BB14_88 Depth=1
	xorl	%ecx, %ecx
	cmpl	%eax, %ecx
	jle	.LBB14_94
# %bb.93:                               # %cond.true215
                                        #   in Loop: Header=BB14_88 Depth=1
	xorl	%eax, %eax
	jmp	.LBB14_98
.LBB14_94:                              # %cond.false216
                                        #   in Loop: Header=BB14_88 Depth=1
	movl	-32(%rbp), %eax
	movl	-28(%rbp), %ecx
	addl	-16(%rbp), %ecx
	cmpl	%ecx, %eax
	jge	.LBB14_96
# %bb.95:                               # %cond.true220
                                        #   in Loop: Header=BB14_88 Depth=1
	movl	-32(%rbp), %eax
	jmp	.LBB14_97
.LBB14_96:                              # %cond.false221
                                        #   in Loop: Header=BB14_88 Depth=1
	movl	-28(%rbp), %eax
	addl	-16(%rbp), %eax
.LBB14_97:                              # %cond.end223
                                        #   in Loop: Header=BB14_88 Depth=1
.LBB14_98:                              # %cond.end225
                                        #   in Loop: Header=BB14_88 Depth=1
	movl	%eax, -44(%rbp)
	movq	-64(%rbp), %rax
	movslq	-44(%rbp), %rcx
	movq	(%rax,%rcx,8), %rax
	movslq	-40(%rbp), %rcx
	movzwl	(%rax,%rcx,2), %eax
	movl	-16(%rbp), %ecx
	addl	$2, %ecx
	movslq	%ecx, %rcx
	imull	Get_Reference_Pixel.COEF(,%rcx,4), %eax
	addl	-12(%rbp), %eax
	movl	%eax, -12(%rbp)
# %bb.99:                               # %for.inc237
                                        #   in Loop: Header=BB14_88 Depth=1
	movl	-16(%rbp), %eax
	addl	$1, %eax
	movl	%eax, -16(%rbp)
	jmp	.LBB14_88
.LBB14_100:                             # %for.end239
	movq	img, %rax
	movl	72684(%rax), %ecx
	movl	-12(%rbp), %eax
	addl	$16, %eax
	cltd
	movl	$32, %esi
	idivl	%esi
	cmpl	%eax, %ecx
	jge	.LBB14_102
# %bb.101:                              # %cond.true245
	movq	img, %rax
	movl	72684(%rax), %eax
	jmp	.LBB14_103
.LBB14_102:                             # %cond.false247
	movl	-12(%rbp), %eax
	addl	$16, %eax
	cltd
	movl	$32, %ecx
	idivl	%ecx
.LBB14_103:                             # %cond.end250
	xorl	%ecx, %ecx
	cmpl	%eax, %ecx
	jle	.LBB14_105
# %bb.104:                              # %cond.true254
	xorl	%eax, %eax
	jmp	.LBB14_109
.LBB14_105:                             # %cond.false255
	movq	img, %rax
	movl	72684(%rax), %ecx
	movl	-12(%rbp), %eax
	addl	$16, %eax
	cltd
	movl	$32, %esi
	idivl	%esi
	cmpl	%eax, %ecx
	jge	.LBB14_107
# %bb.106:                              # %cond.true261
	movq	img, %rax
	movl	72684(%rax), %eax
	jmp	.LBB14_108
.LBB14_107:                             # %cond.false263
	movl	-12(%rbp), %eax
	addl	$16, %eax
	cltd
	movl	$32, %ecx
	idivl	%ecx
.LBB14_108:                             # %cond.end266
.LBB14_109:                             # %cond.end268
	movl	%eax, -12(%rbp)
	cmpl	$1, -48(%rbp)
	jne	.LBB14_120
# %bb.110:                              # %if.then272
	movl	-12(%rbp), %eax
	movq	-64(%rbp), %rcx
	movl	-32(%rbp), %edx
	cmpl	-28(%rbp), %edx
	jge	.LBB14_112
# %bb.111:                              # %cond.true275
	movl	-32(%rbp), %edx
	jmp	.LBB14_113
.LBB14_112:                             # %cond.false276
	movl	-28(%rbp), %edx
.LBB14_113:                             # %cond.end277
	xorl	%esi, %esi
	cmpl	%edx, %esi
	jle	.LBB14_115
# %bb.114:                              # %cond.true281
	xorl	%edx, %edx
	jmp	.LBB14_119
.LBB14_115:                             # %cond.false282
	movl	-32(%rbp), %edx
	cmpl	-28(%rbp), %edx
	jge	.LBB14_117
# %bb.116:                              # %cond.true285
	movl	-32(%rbp), %edx
	jmp	.LBB14_118
.LBB14_117:                             # %cond.false286
	movl	-28(%rbp), %edx
.LBB14_118:                             # %cond.end287
.LBB14_119:                             # %cond.end289
	movslq	%edx, %rdx
	movq	(%rcx,%rdx,8), %rcx
	movslq	-40(%rbp), %rdx
	movzwl	(%rcx,%rdx,2), %ecx
	addl	%ecx, %eax
	cltd
	movl	$2, %ecx
	idivl	%ecx
	movl	%eax, -12(%rbp)
	jmp	.LBB14_132
.LBB14_120:                             # %if.else298
	cmpl	$3, -48(%rbp)
	jne	.LBB14_131
# %bb.121:                              # %if.then301
	movl	-12(%rbp), %eax
	movq	-64(%rbp), %rcx
	movl	-32(%rbp), %edx
	movl	-28(%rbp), %esi
	addl	$1, %esi
	cmpl	%esi, %edx
	jge	.LBB14_123
# %bb.122:                              # %cond.true305
	movl	-32(%rbp), %edx
	jmp	.LBB14_124
.LBB14_123:                             # %cond.false306
	movl	-28(%rbp), %edx
	addl	$1, %edx
.LBB14_124:                             # %cond.end308
	xorl	%esi, %esi
	cmpl	%edx, %esi
	jle	.LBB14_126
# %bb.125:                              # %cond.true312
	xorl	%edx, %edx
	jmp	.LBB14_130
.LBB14_126:                             # %cond.false313
	movl	-32(%rbp), %edx
	movl	-28(%rbp), %esi
	addl	$1, %esi
	cmpl	%esi, %edx
	jge	.LBB14_128
# %bb.127:                              # %cond.true317
	movl	-32(%rbp), %edx
	jmp	.LBB14_129
.LBB14_128:                             # %cond.false318
	movl	-28(%rbp), %edx
	addl	$1, %edx
.LBB14_129:                             # %cond.end320
.LBB14_130:                             # %cond.end322
	movslq	%edx, %rdx
	movq	(%rcx,%rdx,8), %rcx
	movslq	-40(%rbp), %rdx
	movzwl	(%rcx,%rdx,2), %ecx
	addl	%ecx, %eax
	cltd
	movl	$2, %ecx
	idivl	%ecx
	movl	%eax, -12(%rbp)
.LBB14_131:                             # %if.end331
	jmp	.LBB14_132
.LBB14_132:                             # %if.end332
	jmp	.LBB14_330
.LBB14_133:                             # %if.else333
	cmpl	$2, -52(%rbp)
	jne	.LBB14_197
# %bb.134:                              # %if.then336
	movl	$-2, -16(%rbp)
.LBB14_135:                             # %for.cond337
                                        # =>This Loop Header: Depth=1
                                        #     Child Loop BB14_146 Depth 2
	cmpl	$4, -16(%rbp)
	jge	.LBB14_160
# %bb.136:                              # %for.body340
                                        #   in Loop: Header=BB14_135 Depth=1
	movl	$0, -12(%rbp)
	movl	-32(%rbp), %eax
	movl	-28(%rbp), %ecx
	addl	-16(%rbp), %ecx
	cmpl	%ecx, %eax
	jge	.LBB14_138
# %bb.137:                              # %cond.true344
                                        #   in Loop: Header=BB14_135 Depth=1
	movl	-32(%rbp), %eax
	jmp	.LBB14_139
.LBB14_138:                             # %cond.false345
                                        #   in Loop: Header=BB14_135 Depth=1
	movl	-28(%rbp), %eax
	addl	-16(%rbp), %eax
.LBB14_139:                             # %cond.end347
                                        #   in Loop: Header=BB14_135 Depth=1
	xorl	%ecx, %ecx
	cmpl	%eax, %ecx
	jle	.LBB14_141
# %bb.140:                              # %cond.true351
                                        #   in Loop: Header=BB14_135 Depth=1
	xorl	%eax, %eax
	jmp	.LBB14_145
.LBB14_141:                             # %cond.false352
                                        #   in Loop: Header=BB14_135 Depth=1
	movl	-32(%rbp), %eax
	movl	-28(%rbp), %ecx
	addl	-16(%rbp), %ecx
	cmpl	%ecx, %eax
	jge	.LBB14_143
# %bb.142:                              # %cond.true356
                                        #   in Loop: Header=BB14_135 Depth=1
	movl	-32(%rbp), %eax
	jmp	.LBB14_144
.LBB14_143:                             # %cond.false357
                                        #   in Loop: Header=BB14_135 Depth=1
	movl	-28(%rbp), %eax
	addl	-16(%rbp), %eax
.LBB14_144:                             # %cond.end359
                                        #   in Loop: Header=BB14_135 Depth=1
.LBB14_145:                             # %cond.end361
                                        #   in Loop: Header=BB14_135 Depth=1
	movl	%eax, -44(%rbp)
	movl	$-2, -20(%rbp)
.LBB14_146:                             # %for.cond363
                                        #   Parent Loop BB14_135 Depth=1
                                        # =>  This Inner Loop Header: Depth=2
	cmpl	$4, -20(%rbp)
	jge	.LBB14_158
# %bb.147:                              # %for.body366
                                        #   in Loop: Header=BB14_146 Depth=2
	movl	-36(%rbp), %eax
	movl	-24(%rbp), %ecx
	addl	-20(%rbp), %ecx
	cmpl	%ecx, %eax
	jge	.LBB14_149
# %bb.148:                              # %cond.true370
                                        #   in Loop: Header=BB14_146 Depth=2
	movl	-36(%rbp), %eax
	jmp	.LBB14_150
.LBB14_149:                             # %cond.false371
                                        #   in Loop: Header=BB14_146 Depth=2
	movl	-24(%rbp), %eax
	addl	-20(%rbp), %eax
.LBB14_150:                             # %cond.end373
                                        #   in Loop: Header=BB14_146 Depth=2
	xorl	%ecx, %ecx
	cmpl	%eax, %ecx
	jle	.LBB14_152
# %bb.151:                              # %cond.true377
                                        #   in Loop: Header=BB14_146 Depth=2
	xorl	%eax, %eax
	jmp	.LBB14_156
.LBB14_152:                             # %cond.false378
                                        #   in Loop: Header=BB14_146 Depth=2
	movl	-36(%rbp), %eax
	movl	-24(%rbp), %ecx
	addl	-20(%rbp), %ecx
	cmpl	%ecx, %eax
	jge	.LBB14_154
# %bb.153:                              # %cond.true382
                                        #   in Loop: Header=BB14_146 Depth=2
	movl	-36(%rbp), %eax
	jmp	.LBB14_155
.LBB14_154:                             # %cond.false383
                                        #   in Loop: Header=BB14_146 Depth=2
	movl	-24(%rbp), %eax
	addl	-20(%rbp), %eax
.LBB14_155:                             # %cond.end385
                                        #   in Loop: Header=BB14_146 Depth=2
.LBB14_156:                             # %cond.end387
                                        #   in Loop: Header=BB14_146 Depth=2
	movl	%eax, -40(%rbp)
	movq	-64(%rbp), %rax
	movslq	-44(%rbp), %rcx
	movq	(%rax,%rcx,8), %rax
	movslq	-40(%rbp), %rcx
	movzwl	(%rax,%rcx,2), %eax
	movl	-20(%rbp), %ecx
	addl	$2, %ecx
	movslq	%ecx, %rcx
	imull	Get_Reference_Pixel.COEF(,%rcx,4), %eax
	addl	-12(%rbp), %eax
	movl	%eax, -12(%rbp)
# %bb.157:                              # %for.inc399
                                        #   in Loop: Header=BB14_146 Depth=2
	movl	-20(%rbp), %eax
	addl	$1, %eax
	movl	%eax, -20(%rbp)
	jmp	.LBB14_146
.LBB14_158:                             # %for.end401
                                        #   in Loop: Header=BB14_135 Depth=1
	movl	-12(%rbp), %eax
	movl	-16(%rbp), %ecx
	addl	$2, %ecx
	movslq	%ecx, %rcx
	movl	%eax, -96(%rbp,%rcx,4)
# %bb.159:                              # %for.inc405
                                        #   in Loop: Header=BB14_135 Depth=1
	movl	-16(%rbp), %eax
	addl	$1, %eax
	movl	%eax, -16(%rbp)
	jmp	.LBB14_135
.LBB14_160:                             # %for.end407
	movl	$0, -12(%rbp)
	movl	$-2, -16(%rbp)
.LBB14_161:                             # %for.cond408
                                        # =>This Inner Loop Header: Depth=1
	cmpl	$4, -16(%rbp)
	jge	.LBB14_164
# %bb.162:                              # %for.body411
                                        #   in Loop: Header=BB14_161 Depth=1
	movl	-16(%rbp), %eax
	addl	$2, %eax
	cltq
	movl	-96(%rbp,%rax,4), %eax
	movl	-16(%rbp), %ecx
	addl	$2, %ecx
	movslq	%ecx, %rcx
	imull	Get_Reference_Pixel.COEF(,%rcx,4), %eax
	addl	-12(%rbp), %eax
	movl	%eax, -12(%rbp)
# %bb.163:                              # %for.inc420
                                        #   in Loop: Header=BB14_161 Depth=1
	movl	-16(%rbp), %eax
	addl	$1, %eax
	movl	%eax, -16(%rbp)
	jmp	.LBB14_161
.LBB14_164:                             # %for.end422
	movq	img, %rax
	movl	72684(%rax), %ecx
	movl	-12(%rbp), %eax
	addl	$512, %eax              # imm = 0x200
	cltd
	movl	$1024, %esi             # imm = 0x400
	idivl	%esi
	cmpl	%eax, %ecx
	jge	.LBB14_166
# %bb.165:                              # %cond.true428
	movq	img, %rax
	movl	72684(%rax), %eax
	jmp	.LBB14_167
.LBB14_166:                             # %cond.false430
	movl	-12(%rbp), %eax
	addl	$512, %eax              # imm = 0x200
	cltd
	movl	$1024, %ecx             # imm = 0x400
	idivl	%ecx
.LBB14_167:                             # %cond.end433
	xorl	%ecx, %ecx
	cmpl	%eax, %ecx
	jle	.LBB14_169
# %bb.168:                              # %cond.true437
	xorl	%eax, %eax
	jmp	.LBB14_173
.LBB14_169:                             # %cond.false438
	movq	img, %rax
	movl	72684(%rax), %ecx
	movl	-12(%rbp), %eax
	addl	$512, %eax              # imm = 0x200
	cltd
	movl	$1024, %esi             # imm = 0x400
	idivl	%esi
	cmpl	%eax, %ecx
	jge	.LBB14_171
# %bb.170:                              # %cond.true444
	movq	img, %rax
	movl	72684(%rax), %eax
	jmp	.LBB14_172
.LBB14_171:                             # %cond.false446
	movl	-12(%rbp), %eax
	addl	$512, %eax              # imm = 0x200
	cltd
	movl	$1024, %ecx             # imm = 0x400
	idivl	%ecx
.LBB14_172:                             # %cond.end449
.LBB14_173:                             # %cond.end451
	movl	%eax, -12(%rbp)
	cmpl	$1, -48(%rbp)
	jne	.LBB14_184
# %bb.174:                              # %if.then455
	movl	-12(%rbp), %ecx
	movq	img, %rax
	movl	72684(%rax), %esi
	movl	-88(%rbp), %eax
	addl	$16, %eax
	cltd
	movl	$32, %edi
	idivl	%edi
	cmpl	%eax, %esi
	jge	.LBB14_176
# %bb.175:                              # %cond.true462
	movq	img, %rax
	movl	72684(%rax), %eax
	jmp	.LBB14_177
.LBB14_176:                             # %cond.false464
	movl	-88(%rbp), %eax
	addl	$16, %eax
	cltd
	movl	$32, %esi
	idivl	%esi
.LBB14_177:                             # %cond.end468
	xorl	%edx, %edx
	cmpl	%eax, %edx
	jle	.LBB14_179
# %bb.178:                              # %cond.true472
	xorl	%eax, %eax
	jmp	.LBB14_183
.LBB14_179:                             # %cond.false473
	movq	img, %rax
	movl	72684(%rax), %esi
	movl	-88(%rbp), %eax
	addl	$16, %eax
	cltd
	movl	$32, %edi
	idivl	%edi
	cmpl	%eax, %esi
	jge	.LBB14_181
# %bb.180:                              # %cond.true480
	movq	img, %rax
	movl	72684(%rax), %eax
	jmp	.LBB14_182
.LBB14_181:                             # %cond.false482
	movl	-88(%rbp), %eax
	addl	$16, %eax
	cltd
	movl	$32, %esi
	idivl	%esi
.LBB14_182:                             # %cond.end486
.LBB14_183:                             # %cond.end488
	addl	%eax, %ecx
	movl	%ecx, %eax
	cltd
	movl	$2, %ecx
	idivl	%ecx
	movl	%eax, -12(%rbp)
	jmp	.LBB14_196
.LBB14_184:                             # %if.else492
	cmpl	$3, -48(%rbp)
	jne	.LBB14_195
# %bb.185:                              # %if.then495
	movl	-12(%rbp), %ecx
	movq	img, %rax
	movl	72684(%rax), %esi
	movl	-84(%rbp), %eax
	addl	$16, %eax
	cltd
	movl	$32, %edi
	idivl	%edi
	cmpl	%eax, %esi
	jge	.LBB14_187
# %bb.186:                              # %cond.true502
	movq	img, %rax
	movl	72684(%rax), %eax
	jmp	.LBB14_188
.LBB14_187:                             # %cond.false504
	movl	-84(%rbp), %eax
	addl	$16, %eax
	cltd
	movl	$32, %esi
	idivl	%esi
.LBB14_188:                             # %cond.end508
	xorl	%edx, %edx
	cmpl	%eax, %edx
	jle	.LBB14_190
# %bb.189:                              # %cond.true512
	xorl	%eax, %eax
	jmp	.LBB14_194
.LBB14_190:                             # %cond.false513
	movq	img, %rax
	movl	72684(%rax), %esi
	movl	-84(%rbp), %eax
	addl	$16, %eax
	cltd
	movl	$32, %edi
	idivl	%edi
	cmpl	%eax, %esi
	jge	.LBB14_192
# %bb.191:                              # %cond.true520
	movq	img, %rax
	movl	72684(%rax), %eax
	jmp	.LBB14_193
.LBB14_192:                             # %cond.false522
	movl	-84(%rbp), %eax
	addl	$16, %eax
	cltd
	movl	$32, %esi
	idivl	%esi
.LBB14_193:                             # %cond.end526
.LBB14_194:                             # %cond.end528
	addl	%eax, %ecx
	movl	%ecx, %eax
	cltd
	movl	$2, %ecx
	idivl	%ecx
	movl	%eax, -12(%rbp)
.LBB14_195:                             # %if.end532
	jmp	.LBB14_196
.LBB14_196:                             # %if.end533
	jmp	.LBB14_329
.LBB14_197:                             # %if.else534
	cmpl	$2, -48(%rbp)
	jne	.LBB14_259
# %bb.198:                              # %if.then537
	movl	$-2, -20(%rbp)
.LBB14_199:                             # %for.cond538
                                        # =>This Loop Header: Depth=1
                                        #     Child Loop BB14_210 Depth 2
	cmpl	$4, -20(%rbp)
	jge	.LBB14_224
# %bb.200:                              # %for.body541
                                        #   in Loop: Header=BB14_199 Depth=1
	movl	$0, -12(%rbp)
	movl	-36(%rbp), %eax
	movl	-24(%rbp), %ecx
	addl	-20(%rbp), %ecx
	cmpl	%ecx, %eax
	jge	.LBB14_202
# %bb.201:                              # %cond.true545
                                        #   in Loop: Header=BB14_199 Depth=1
	movl	-36(%rbp), %eax
	jmp	.LBB14_203
.LBB14_202:                             # %cond.false546
                                        #   in Loop: Header=BB14_199 Depth=1
	movl	-24(%rbp), %eax
	addl	-20(%rbp), %eax
.LBB14_203:                             # %cond.end548
                                        #   in Loop: Header=BB14_199 Depth=1
	xorl	%ecx, %ecx
	cmpl	%eax, %ecx
	jle	.LBB14_205
# %bb.204:                              # %cond.true552
                                        #   in Loop: Header=BB14_199 Depth=1
	xorl	%eax, %eax
	jmp	.LBB14_209
.LBB14_205:                             # %cond.false553
                                        #   in Loop: Header=BB14_199 Depth=1
	movl	-36(%rbp), %eax
	movl	-24(%rbp), %ecx
	addl	-20(%rbp), %ecx
	cmpl	%ecx, %eax
	jge	.LBB14_207
# %bb.206:                              # %cond.true557
                                        #   in Loop: Header=BB14_199 Depth=1
	movl	-36(%rbp), %eax
	jmp	.LBB14_208
.LBB14_207:                             # %cond.false558
                                        #   in Loop: Header=BB14_199 Depth=1
	movl	-24(%rbp), %eax
	addl	-20(%rbp), %eax
.LBB14_208:                             # %cond.end560
                                        #   in Loop: Header=BB14_199 Depth=1
.LBB14_209:                             # %cond.end562
                                        #   in Loop: Header=BB14_199 Depth=1
	movl	%eax, -40(%rbp)
	movl	$-2, -16(%rbp)
.LBB14_210:                             # %for.cond564
                                        #   Parent Loop BB14_199 Depth=1
                                        # =>  This Inner Loop Header: Depth=2
	cmpl	$4, -16(%rbp)
	jge	.LBB14_222
# %bb.211:                              # %for.body567
                                        #   in Loop: Header=BB14_210 Depth=2
	movl	-32(%rbp), %eax
	movl	-28(%rbp), %ecx
	addl	-16(%rbp), %ecx
	cmpl	%ecx, %eax
	jge	.LBB14_213
# %bb.212:                              # %cond.true571
                                        #   in Loop: Header=BB14_210 Depth=2
	movl	-32(%rbp), %eax
	jmp	.LBB14_214
.LBB14_213:                             # %cond.false572
                                        #   in Loop: Header=BB14_210 Depth=2
	movl	-28(%rbp), %eax
	addl	-16(%rbp), %eax
.LBB14_214:                             # %cond.end574
                                        #   in Loop: Header=BB14_210 Depth=2
	xorl	%ecx, %ecx
	cmpl	%eax, %ecx
	jle	.LBB14_216
# %bb.215:                              # %cond.true578
                                        #   in Loop: Header=BB14_210 Depth=2
	xorl	%eax, %eax
	jmp	.LBB14_220
.LBB14_216:                             # %cond.false579
                                        #   in Loop: Header=BB14_210 Depth=2
	movl	-32(%rbp), %eax
	movl	-28(%rbp), %ecx
	addl	-16(%rbp), %ecx
	cmpl	%ecx, %eax
	jge	.LBB14_218
# %bb.217:                              # %cond.true583
                                        #   in Loop: Header=BB14_210 Depth=2
	movl	-32(%rbp), %eax
	jmp	.LBB14_219
.LBB14_218:                             # %cond.false584
                                        #   in Loop: Header=BB14_210 Depth=2
	movl	-28(%rbp), %eax
	addl	-16(%rbp), %eax
.LBB14_219:                             # %cond.end586
                                        #   in Loop: Header=BB14_210 Depth=2
.LBB14_220:                             # %cond.end588
                                        #   in Loop: Header=BB14_210 Depth=2
	movl	%eax, -44(%rbp)
	movq	-64(%rbp), %rax
	movslq	-44(%rbp), %rcx
	movq	(%rax,%rcx,8), %rax
	movslq	-40(%rbp), %rcx
	movzwl	(%rax,%rcx,2), %eax
	movl	-16(%rbp), %ecx
	addl	$2, %ecx
	movslq	%ecx, %rcx
	imull	Get_Reference_Pixel.COEF(,%rcx,4), %eax
	addl	-12(%rbp), %eax
	movl	%eax, -12(%rbp)
# %bb.221:                              # %for.inc600
                                        #   in Loop: Header=BB14_210 Depth=2
	movl	-16(%rbp), %eax
	addl	$1, %eax
	movl	%eax, -16(%rbp)
	jmp	.LBB14_210
.LBB14_222:                             # %for.end602
                                        #   in Loop: Header=BB14_199 Depth=1
	movl	-12(%rbp), %eax
	movl	-20(%rbp), %ecx
	addl	$2, %ecx
	movslq	%ecx, %rcx
	movl	%eax, -96(%rbp,%rcx,4)
# %bb.223:                              # %for.inc606
                                        #   in Loop: Header=BB14_199 Depth=1
	movl	-20(%rbp), %eax
	addl	$1, %eax
	movl	%eax, -20(%rbp)
	jmp	.LBB14_199
.LBB14_224:                             # %for.end608
	movl	$0, -12(%rbp)
	movl	$-2, -20(%rbp)
.LBB14_225:                             # %for.cond609
                                        # =>This Inner Loop Header: Depth=1
	cmpl	$4, -20(%rbp)
	jge	.LBB14_228
# %bb.226:                              # %for.body612
                                        #   in Loop: Header=BB14_225 Depth=1
	movl	-20(%rbp), %eax
	addl	$2, %eax
	cltq
	movl	-96(%rbp,%rax,4), %eax
	movl	-20(%rbp), %ecx
	addl	$2, %ecx
	movslq	%ecx, %rcx
	imull	Get_Reference_Pixel.COEF(,%rcx,4), %eax
	addl	-12(%rbp), %eax
	movl	%eax, -12(%rbp)
# %bb.227:                              # %for.inc621
                                        #   in Loop: Header=BB14_225 Depth=1
	movl	-20(%rbp), %eax
	addl	$1, %eax
	movl	%eax, -20(%rbp)
	jmp	.LBB14_225
.LBB14_228:                             # %for.end623
	movq	img, %rax
	movl	72684(%rax), %ecx
	movl	-12(%rbp), %eax
	addl	$512, %eax              # imm = 0x200
	cltd
	movl	$1024, %esi             # imm = 0x400
	idivl	%esi
	cmpl	%eax, %ecx
	jge	.LBB14_230
# %bb.229:                              # %cond.true629
	movq	img, %rax
	movl	72684(%rax), %eax
	jmp	.LBB14_231
.LBB14_230:                             # %cond.false631
	movl	-12(%rbp), %eax
	addl	$512, %eax              # imm = 0x200
	cltd
	movl	$1024, %ecx             # imm = 0x400
	idivl	%ecx
.LBB14_231:                             # %cond.end634
	xorl	%ecx, %ecx
	cmpl	%eax, %ecx
	jle	.LBB14_233
# %bb.232:                              # %cond.true638
	xorl	%eax, %eax
	jmp	.LBB14_237
.LBB14_233:                             # %cond.false639
	movq	img, %rax
	movl	72684(%rax), %ecx
	movl	-12(%rbp), %eax
	addl	$512, %eax              # imm = 0x200
	cltd
	movl	$1024, %esi             # imm = 0x400
	idivl	%esi
	cmpl	%eax, %ecx
	jge	.LBB14_235
# %bb.234:                              # %cond.true645
	movq	img, %rax
	movl	72684(%rax), %eax
	jmp	.LBB14_236
.LBB14_235:                             # %cond.false647
	movl	-12(%rbp), %eax
	addl	$512, %eax              # imm = 0x200
	cltd
	movl	$1024, %ecx             # imm = 0x400
	idivl	%ecx
.LBB14_236:                             # %cond.end650
.LBB14_237:                             # %cond.end652
	movl	%eax, -12(%rbp)
	cmpl	$1, -52(%rbp)
	jne	.LBB14_248
# %bb.238:                              # %if.then656
	movl	-12(%rbp), %ecx
	movq	img, %rax
	movl	72684(%rax), %esi
	movl	-88(%rbp), %eax
	addl	$16, %eax
	cltd
	movl	$32, %edi
	idivl	%edi
	cmpl	%eax, %esi
	jge	.LBB14_240
# %bb.239:                              # %cond.true663
	movq	img, %rax
	movl	72684(%rax), %eax
	jmp	.LBB14_241
.LBB14_240:                             # %cond.false665
	movl	-88(%rbp), %eax
	addl	$16, %eax
	cltd
	movl	$32, %esi
	idivl	%esi
.LBB14_241:                             # %cond.end669
	xorl	%edx, %edx
	cmpl	%eax, %edx
	jle	.LBB14_243
# %bb.242:                              # %cond.true673
	xorl	%eax, %eax
	jmp	.LBB14_247
.LBB14_243:                             # %cond.false674
	movq	img, %rax
	movl	72684(%rax), %esi
	movl	-88(%rbp), %eax
	addl	$16, %eax
	cltd
	movl	$32, %edi
	idivl	%edi
	cmpl	%eax, %esi
	jge	.LBB14_245
# %bb.244:                              # %cond.true681
	movq	img, %rax
	movl	72684(%rax), %eax
	jmp	.LBB14_246
.LBB14_245:                             # %cond.false683
	movl	-88(%rbp), %eax
	addl	$16, %eax
	cltd
	movl	$32, %esi
	idivl	%esi
.LBB14_246:                             # %cond.end687
.LBB14_247:                             # %cond.end689
	addl	%eax, %ecx
	movl	%ecx, %eax
	cltd
	movl	$2, %ecx
	idivl	%ecx
	movl	%eax, -12(%rbp)
	jmp	.LBB14_258
.LBB14_248:                             # %if.else693
	movl	-12(%rbp), %ecx
	movq	img, %rax
	movl	72684(%rax), %esi
	movl	-84(%rbp), %eax
	addl	$16, %eax
	cltd
	movl	$32, %edi
	idivl	%edi
	cmpl	%eax, %esi
	jge	.LBB14_250
# %bb.249:                              # %cond.true700
	movq	img, %rax
	movl	72684(%rax), %eax
	jmp	.LBB14_251
.LBB14_250:                             # %cond.false702
	movl	-84(%rbp), %eax
	addl	$16, %eax
	cltd
	movl	$32, %esi
	idivl	%esi
.LBB14_251:                             # %cond.end706
	xorl	%edx, %edx
	cmpl	%eax, %edx
	jle	.LBB14_253
# %bb.252:                              # %cond.true710
	xorl	%eax, %eax
	jmp	.LBB14_257
.LBB14_253:                             # %cond.false711
	movq	img, %rax
	movl	72684(%rax), %esi
	movl	-84(%rbp), %eax
	addl	$16, %eax
	cltd
	movl	$32, %edi
	idivl	%edi
	cmpl	%eax, %esi
	jge	.LBB14_255
# %bb.254:                              # %cond.true718
	movq	img, %rax
	movl	72684(%rax), %eax
	jmp	.LBB14_256
.LBB14_255:                             # %cond.false720
	movl	-84(%rbp), %eax
	addl	$16, %eax
	cltd
	movl	$32, %esi
	idivl	%esi
.LBB14_256:                             # %cond.end724
.LBB14_257:                             # %cond.end726
	addl	%eax, %ecx
	movl	%ecx, %eax
	cltd
	movl	$2, %ecx
	idivl	%ecx
	movl	%eax, -12(%rbp)
.LBB14_258:                             # %if.end730
	jmp	.LBB14_328
.LBB14_259:                             # %if.else731
	movl	$0, -12(%rbp)
	cmpl	$1, -48(%rbp)
	jne	.LBB14_261
# %bb.260:                              # %cond.true734
	movl	-28(%rbp), %eax
	jmp	.LBB14_262
.LBB14_261:                             # %cond.false735
	movl	-28(%rbp), %eax
	addl	$1, %eax
.LBB14_262:                             # %cond.end737
	movl	%eax, -44(%rbp)
	movl	-32(%rbp), %eax
	cmpl	-44(%rbp), %eax
	jge	.LBB14_264
# %bb.263:                              # %cond.true741
	movl	-32(%rbp), %eax
	jmp	.LBB14_265
.LBB14_264:                             # %cond.false742
	movl	-44(%rbp), %eax
.LBB14_265:                             # %cond.end743
	xorl	%ecx, %ecx
	cmpl	%eax, %ecx
	jle	.LBB14_267
# %bb.266:                              # %cond.true747
	xorl	%eax, %eax
	jmp	.LBB14_271
.LBB14_267:                             # %cond.false748
	movl	-32(%rbp), %eax
	cmpl	-44(%rbp), %eax
	jge	.LBB14_269
# %bb.268:                              # %cond.true751
	movl	-32(%rbp), %eax
	jmp	.LBB14_270
.LBB14_269:                             # %cond.false752
	movl	-44(%rbp), %eax
.LBB14_270:                             # %cond.end753
.LBB14_271:                             # %cond.end755
	movl	%eax, -44(%rbp)
	movl	$-2, -20(%rbp)
.LBB14_272:                             # %for.cond757
                                        # =>This Inner Loop Header: Depth=1
	cmpl	$4, -20(%rbp)
	jge	.LBB14_284
# %bb.273:                              # %for.body760
                                        #   in Loop: Header=BB14_272 Depth=1
	movl	-36(%rbp), %eax
	movl	-24(%rbp), %ecx
	addl	-20(%rbp), %ecx
	cmpl	%ecx, %eax
	jge	.LBB14_275
# %bb.274:                              # %cond.true764
                                        #   in Loop: Header=BB14_272 Depth=1
	movl	-36(%rbp), %eax
	jmp	.LBB14_276
.LBB14_275:                             # %cond.false765
                                        #   in Loop: Header=BB14_272 Depth=1
	movl	-24(%rbp), %eax
	addl	-20(%rbp), %eax
.LBB14_276:                             # %cond.end767
                                        #   in Loop: Header=BB14_272 Depth=1
	xorl	%ecx, %ecx
	cmpl	%eax, %ecx
	jle	.LBB14_278
# %bb.277:                              # %cond.true771
                                        #   in Loop: Header=BB14_272 Depth=1
	xorl	%eax, %eax
	jmp	.LBB14_282
.LBB14_278:                             # %cond.false772
                                        #   in Loop: Header=BB14_272 Depth=1
	movl	-36(%rbp), %eax
	movl	-24(%rbp), %ecx
	addl	-20(%rbp), %ecx
	cmpl	%ecx, %eax
	jge	.LBB14_280
# %bb.279:                              # %cond.true776
                                        #   in Loop: Header=BB14_272 Depth=1
	movl	-36(%rbp), %eax
	jmp	.LBB14_281
.LBB14_280:                             # %cond.false777
                                        #   in Loop: Header=BB14_272 Depth=1
	movl	-24(%rbp), %eax
	addl	-20(%rbp), %eax
.LBB14_281:                             # %cond.end779
                                        #   in Loop: Header=BB14_272 Depth=1
.LBB14_282:                             # %cond.end781
                                        #   in Loop: Header=BB14_272 Depth=1
	movl	%eax, -40(%rbp)
	movq	-64(%rbp), %rax
	movslq	-44(%rbp), %rcx
	movq	(%rax,%rcx,8), %rax
	movslq	-40(%rbp), %rcx
	movzwl	(%rax,%rcx,2), %eax
	movl	-20(%rbp), %ecx
	addl	$2, %ecx
	movslq	%ecx, %rcx
	imull	Get_Reference_Pixel.COEF(,%rcx,4), %eax
	addl	-12(%rbp), %eax
	movl	%eax, -12(%rbp)
# %bb.283:                              # %for.inc793
                                        #   in Loop: Header=BB14_272 Depth=1
	movl	-20(%rbp), %eax
	addl	$1, %eax
	movl	%eax, -20(%rbp)
	jmp	.LBB14_272
.LBB14_284:                             # %for.end795
	movq	img, %rax
	movl	72684(%rax), %ecx
	movl	-12(%rbp), %eax
	addl	$16, %eax
	cltd
	movl	$32, %esi
	idivl	%esi
	cmpl	%eax, %ecx
	jge	.LBB14_286
# %bb.285:                              # %cond.true801
	movq	img, %rax
	movl	72684(%rax), %eax
	jmp	.LBB14_287
.LBB14_286:                             # %cond.false803
	movl	-12(%rbp), %eax
	addl	$16, %eax
	cltd
	movl	$32, %ecx
	idivl	%ecx
.LBB14_287:                             # %cond.end806
	xorl	%ecx, %ecx
	cmpl	%eax, %ecx
	jle	.LBB14_289
# %bb.288:                              # %cond.true810
	xorl	%eax, %eax
	jmp	.LBB14_293
.LBB14_289:                             # %cond.false811
	movq	img, %rax
	movl	72684(%rax), %ecx
	movl	-12(%rbp), %eax
	addl	$16, %eax
	cltd
	movl	$32, %esi
	idivl	%esi
	cmpl	%eax, %ecx
	jge	.LBB14_291
# %bb.290:                              # %cond.true817
	movq	img, %rax
	movl	72684(%rax), %eax
	jmp	.LBB14_292
.LBB14_291:                             # %cond.false819
	movl	-12(%rbp), %eax
	addl	$16, %eax
	cltd
	movl	$32, %ecx
	idivl	%ecx
.LBB14_292:                             # %cond.end822
.LBB14_293:                             # %cond.end824
	movl	%eax, -108(%rbp)
	movl	$0, -12(%rbp)
	cmpl	$1, -52(%rbp)
	jne	.LBB14_295
# %bb.294:                              # %cond.true828
	movl	-24(%rbp), %eax
	jmp	.LBB14_296
.LBB14_295:                             # %cond.false829
	movl	-24(%rbp), %eax
	addl	$1, %eax
.LBB14_296:                             # %cond.end831
	movl	%eax, -40(%rbp)
	movl	-36(%rbp), %eax
	cmpl	-40(%rbp), %eax
	jge	.LBB14_298
# %bb.297:                              # %cond.true835
	movl	-36(%rbp), %eax
	jmp	.LBB14_299
.LBB14_298:                             # %cond.false836
	movl	-40(%rbp), %eax
.LBB14_299:                             # %cond.end837
	xorl	%ecx, %ecx
	cmpl	%eax, %ecx
	jle	.LBB14_301
# %bb.300:                              # %cond.true841
	xorl	%eax, %eax
	jmp	.LBB14_305
.LBB14_301:                             # %cond.false842
	movl	-36(%rbp), %eax
	cmpl	-40(%rbp), %eax
	jge	.LBB14_303
# %bb.302:                              # %cond.true845
	movl	-36(%rbp), %eax
	jmp	.LBB14_304
.LBB14_303:                             # %cond.false846
	movl	-40(%rbp), %eax
.LBB14_304:                             # %cond.end847
.LBB14_305:                             # %cond.end849
	movl	%eax, -40(%rbp)
	movl	$-2, -16(%rbp)
.LBB14_306:                             # %for.cond851
                                        # =>This Inner Loop Header: Depth=1
	cmpl	$4, -16(%rbp)
	jge	.LBB14_318
# %bb.307:                              # %for.body854
                                        #   in Loop: Header=BB14_306 Depth=1
	movl	-32(%rbp), %eax
	movl	-28(%rbp), %ecx
	addl	-16(%rbp), %ecx
	cmpl	%ecx, %eax
	jge	.LBB14_309
# %bb.308:                              # %cond.true858
                                        #   in Loop: Header=BB14_306 Depth=1
	movl	-32(%rbp), %eax
	jmp	.LBB14_310
.LBB14_309:                             # %cond.false859
                                        #   in Loop: Header=BB14_306 Depth=1
	movl	-28(%rbp), %eax
	addl	-16(%rbp), %eax
.LBB14_310:                             # %cond.end861
                                        #   in Loop: Header=BB14_306 Depth=1
	xorl	%ecx, %ecx
	cmpl	%eax, %ecx
	jle	.LBB14_312
# %bb.311:                              # %cond.true865
                                        #   in Loop: Header=BB14_306 Depth=1
	xorl	%eax, %eax
	jmp	.LBB14_316
.LBB14_312:                             # %cond.false866
                                        #   in Loop: Header=BB14_306 Depth=1
	movl	-32(%rbp), %eax
	movl	-28(%rbp), %ecx
	addl	-16(%rbp), %ecx
	cmpl	%ecx, %eax
	jge	.LBB14_314
# %bb.313:                              # %cond.true870
                                        #   in Loop: Header=BB14_306 Depth=1
	movl	-32(%rbp), %eax
	jmp	.LBB14_315
.LBB14_314:                             # %cond.false871
                                        #   in Loop: Header=BB14_306 Depth=1
	movl	-28(%rbp), %eax
	addl	-16(%rbp), %eax
.LBB14_315:                             # %cond.end873
                                        #   in Loop: Header=BB14_306 Depth=1
.LBB14_316:                             # %cond.end875
                                        #   in Loop: Header=BB14_306 Depth=1
	movl	%eax, -44(%rbp)
	movq	-64(%rbp), %rax
	movslq	-44(%rbp), %rcx
	movq	(%rax,%rcx,8), %rax
	movslq	-40(%rbp), %rcx
	movzwl	(%rax,%rcx,2), %eax
	movl	-16(%rbp), %ecx
	addl	$2, %ecx
	movslq	%ecx, %rcx
	imull	Get_Reference_Pixel.COEF(,%rcx,4), %eax
	addl	-12(%rbp), %eax
	movl	%eax, -12(%rbp)
# %bb.317:                              # %for.inc887
                                        #   in Loop: Header=BB14_306 Depth=1
	movl	-16(%rbp), %eax
	addl	$1, %eax
	movl	%eax, -16(%rbp)
	jmp	.LBB14_306
.LBB14_318:                             # %for.end889
	movq	img, %rax
	movl	72684(%rax), %ecx
	movl	-12(%rbp), %eax
	addl	$16, %eax
	cltd
	movl	$32, %esi
	idivl	%esi
	cmpl	%eax, %ecx
	jge	.LBB14_320
# %bb.319:                              # %cond.true895
	movq	img, %rax
	movl	72684(%rax), %eax
	jmp	.LBB14_321
.LBB14_320:                             # %cond.false897
	movl	-12(%rbp), %eax
	addl	$16, %eax
	cltd
	movl	$32, %ecx
	idivl	%ecx
.LBB14_321:                             # %cond.end900
	xorl	%ecx, %ecx
	cmpl	%eax, %ecx
	jle	.LBB14_323
# %bb.322:                              # %cond.true904
	xorl	%eax, %eax
	jmp	.LBB14_327
.LBB14_323:                             # %cond.false905
	movq	img, %rax
	movl	72684(%rax), %ecx
	movl	-12(%rbp), %eax
	addl	$16, %eax
	cltd
	movl	$32, %esi
	idivl	%esi
	cmpl	%eax, %ecx
	jge	.LBB14_325
# %bb.324:                              # %cond.true911
	movq	img, %rax
	movl	72684(%rax), %eax
	jmp	.LBB14_326
.LBB14_325:                             # %cond.false913
	movl	-12(%rbp), %eax
	addl	$16, %eax
	cltd
	movl	$32, %ecx
	idivl	%ecx
.LBB14_326:                             # %cond.end916
.LBB14_327:                             # %cond.end918
	movl	%eax, -100(%rbp)
	movl	-108(%rbp), %eax
	addl	-100(%rbp), %eax
	cltd
	movl	$2, %ecx
	idivl	%ecx
	movl	%eax, -12(%rbp)
.LBB14_328:                             # %if.end922
	jmp	.LBB14_329
.LBB14_329:                             # %if.end923
	jmp	.LBB14_330
.LBB14_330:                             # %if.end924
	jmp	.LBB14_331
.LBB14_331:                             # %if.end925
	jmp	.LBB14_332
.LBB14_332:                             # %if.end926
	movl	-12(%rbp), %ebx
	cmpl	$795451242, -104(%rbp)  # imm = 0x2F699F6A
	jne	.LBB14_334
.LBB14_333:
	movzbl	%bl, %eax
	addq	$104, %rsp
	popq	%rbx
	popq	%rbp
	.cfi_def_cfa %rsp, 8
	retq
.LBB14_334:                             # %func_exit
	.cfi_def_cfa %rbp, 16
	callq	detect_breach
	jmp	.LBB14_333
.Lfunc_end14:
	.size	Get_Reference_Pixel.4, .Lfunc_end14-Get_Reference_Pixel.4
	.cfi_endproc
                                        # -- End function
	.globl	Conceal_Error.5         # -- Begin function Conceal_Error.5
	.p2align	4, 0x90
	.type	Conceal_Error.5,@function
Conceal_Error.5:                        # @Conceal_Error.5
	.cfi_startproc
# %bb.0:                                # %entry
	pushq	%rbp
	.cfi_def_cfa_offset 16
	.cfi_offset %rbp, -16
	movq	%rsp, %rbp
	.cfi_def_cfa_register %rbp
	subq	$1248, %rsp             # imm = 0x4E0
	xorl	%r9d, %r9d
	movl	$354513489, -68(%rbp)   # imm = 0x15217251
	movq	%rdi, -48(%rbp)
	movl	%esi, -20(%rbp)
	movl	%edx, -24(%rbp)
	movq	%rcx, -56(%rbp)
	movq	%r8, -88(%rbp)
	movq	img, %rax
	movl	(%rax), %eax
	subl	start_frame_no_in_this_IGOP, %eax
	subl	$1, %eax
	movq	img, %rcx
	cltd
	idivl	32(%rcx)
	movl	%edx, -36(%rbp)
	movl	-20(%rbp), %eax
	shll	$4, %eax
	movl	%eax, -28(%rbp)
	movl	-24(%rbp), %eax
	shll	$4, %eax
	movl	%eax, -32(%rbp)
	movq	decs, %rax
	movq	48(%rax), %rax
	movslq	-24(%rbp), %rcx
	movq	(%rax,%rcx,8), %rax
	movslq	-20(%rbp), %rcx
	movzbl	(%rax,%rcx), %eax
	cmpl	$0, %eax
	jne	.LBB15_6
# %bb.1:                                # %land.rhs
	movq	img, %rax
	cmpl	$0, 24(%rax)
	movb	$1, %r9b
	je	.LBB15_5
# %bb.2:                                # %lor.rhs
	xorl	%r9d, %r9d
	movq	img, %rax
	cmpl	$1, 24(%rax)
	jne	.LBB15_4
# %bb.3:                                # %land.rhs11
	movq	img, %rax
	cmpl	$0, 72496(%rax)
	setg	%r9b
.LBB15_4:                               # %land.end
.LBB15_5:                               # %lor.end
.LBB15_6:                               # %land.end14
	andb	$1, %r9b
	movzbl	%r9b, %eax
	movl	%eax, -64(%rbp)
	movq	decs, %rax
	movq	48(%rax), %rax
	movslq	-24(%rbp), %rcx
	movq	(%rax,%rcx,8), %rax
	movslq	-20(%rbp), %rcx
	movzbl	(%rax,%rcx), %eax
	cmpl	$1, %eax
	jl	.LBB15_8
# %bb.7:                                # %land.lhs.true
	movq	decs, %rax
	movq	48(%rax), %rax
	movslq	-24(%rbp), %rcx
	movq	(%rax,%rcx,8), %rax
	movslq	-20(%rbp), %rcx
	movzbl	(%rax,%rcx), %eax
	cmpl	$3, %eax
	jle	.LBB15_9
.LBB15_8:                               # %lor.lhs.false
	xorl	%eax, %eax
	movq	decs, %rcx
	movq	48(%rcx), %rcx
	movslq	-24(%rbp), %rdx
	movq	(%rcx,%rdx,8), %rcx
	movslq	-20(%rbp), %rdx
	movzbl	(%rcx,%rdx), %ecx
	cmpl	$8, %ecx
	jne	.LBB15_14
.LBB15_9:                               # %land.rhs39
	movq	img, %rax
	cmpl	$0, 24(%rax)
	movb	$1, %al
	je	.LBB15_13
# %bb.10:                               # %lor.rhs43
	xorl	%eax, %eax
	movq	img, %rcx
	cmpl	$1, 24(%rcx)
	jne	.LBB15_12
# %bb.11:                               # %land.rhs47
	movq	img, %rax
	cmpl	$0, 72496(%rax)
	setg	%al
.LBB15_12:                              # %land.end51
.LBB15_13:                              # %lor.end53
.LBB15_14:                              # %land.end54
	movzbl	%al, %eax
	andl	$1, %eax
	movl	%eax, -60(%rbp)
	movq	enc_picture(%rip), %rax
	movq	6504(%rax), %rax
	movq	(%rax), %rax
	movq	%rax, -80(%rbp)
	movq	-88(%rbp), %rax
	movslq	-20(%rbp), %rcx
	movq	(%rax,%rcx,8), %rax
	movslq	-24(%rbp), %rcx
	movzbl	(%rax,%rcx), %eax
	addl	$-1, %eax
	movl	%eax, %ecx
	subl	$4, %ecx
	ja	.LBB15_180
# %bb.15:                               # %land.end54
	movq	.LJTI15_0(,%rax,8), %rax
	jmpq	*%rax
.LBB15_16:                              # %sw.bb
	movq	img, %rax
	cmpl	$2, 24(%rax)
	je	.LBB15_26
# %bb.17:                               # %if.then
	movl	$0, -8(%rbp)
.LBB15_18:                              # %for.cond
                                        # =>This Loop Header: Depth=1
                                        #     Child Loop BB15_20 Depth 2
	cmpl	$16, -8(%rbp)
	jge	.LBB15_25
# %bb.19:                               # %for.body
                                        #   in Loop: Header=BB15_18 Depth=1
	movl	$0, -4(%rbp)
.LBB15_20:                              # %for.cond68
                                        #   Parent Loop BB15_18 Depth=1
                                        # =>  This Inner Loop Header: Depth=2
	cmpl	$16, -4(%rbp)
	jge	.LBB15_23
# %bb.21:                               # %for.body71
                                        #   in Loop: Header=BB15_20 Depth=2
	movq	-56(%rbp), %rax
	movslq	-36(%rbp), %rcx
	movq	(%rax,%rcx,8), %rax
	movl	-28(%rbp), %ecx
	addl	-8(%rbp), %ecx
	movslq	%ecx, %rcx
	movq	(%rax,%rcx,8), %rax
	movl	-32(%rbp), %ecx
	addl	-4(%rbp), %ecx
	movslq	%ecx, %rcx
	movw	(%rax,%rcx,2), %ax
	movq	-48(%rbp), %rcx
	movl	-28(%rbp), %edx
	addl	-8(%rbp), %edx
	movslq	%edx, %rdx
	movq	(%rcx,%rdx,8), %rcx
	movl	-32(%rbp), %edx
	addl	-4(%rbp), %edx
	movslq	%edx, %rdx
	movw	%ax, (%rcx,%rdx,2)
# %bb.22:                               # %for.inc
                                        #   in Loop: Header=BB15_20 Depth=2
	movl	-4(%rbp), %eax
	addl	$1, %eax
	movl	%eax, -4(%rbp)
	jmp	.LBB15_20
.LBB15_23:                              # %for.end
                                        #   in Loop: Header=BB15_18 Depth=1
	jmp	.LBB15_24
.LBB15_24:                              # %for.inc85
                                        #   in Loop: Header=BB15_18 Depth=1
	movl	-8(%rbp), %eax
	addl	$1, %eax
	movl	%eax, -8(%rbp)
	jmp	.LBB15_18
.LBB15_25:                              # %for.end87
	jmp	.LBB15_35
.LBB15_26:                              # %if.else
	movl	$0, -8(%rbp)
.LBB15_27:                              # %for.cond88
                                        # =>This Loop Header: Depth=1
                                        #     Child Loop BB15_29 Depth 2
	cmpl	$16, -8(%rbp)
	jge	.LBB15_34
# %bb.28:                               # %for.body91
                                        #   in Loop: Header=BB15_27 Depth=1
	movl	$0, -4(%rbp)
.LBB15_29:                              # %for.cond92
                                        #   Parent Loop BB15_27 Depth=1
                                        # =>  This Inner Loop Header: Depth=2
	cmpl	$16, -4(%rbp)
	jge	.LBB15_32
# %bb.30:                               # %for.body95
                                        #   in Loop: Header=BB15_29 Depth=2
	movq	-48(%rbp), %rax
	movl	-28(%rbp), %ecx
	addl	-8(%rbp), %ecx
	movslq	%ecx, %rcx
	movq	(%rax,%rcx,8), %rax
	movl	-32(%rbp), %ecx
	addl	-4(%rbp), %ecx
	movslq	%ecx, %rcx
	movw	$127, (%rax,%rcx,2)
# %bb.31:                               # %for.inc102
                                        #   in Loop: Header=BB15_29 Depth=2
	movl	-4(%rbp), %eax
	addl	$1, %eax
	movl	%eax, -4(%rbp)
	jmp	.LBB15_29
.LBB15_32:                              # %for.end104
                                        #   in Loop: Header=BB15_27 Depth=1
	jmp	.LBB15_33
.LBB15_33:                              # %for.inc105
                                        #   in Loop: Header=BB15_27 Depth=1
	movl	-8(%rbp), %eax
	addl	$1, %eax
	movl	%eax, -8(%rbp)
	jmp	.LBB15_27
.LBB15_34:                              # %for.end107
	jmp	.LBB15_35
.LBB15_35:                              # %if.end
	jmp	.LBB15_180
.LBB15_36:                              # %sw.bb108
	movl	$0, -12(%rbp)
.LBB15_37:                              # %for.cond109
                                        # =>This Loop Header: Depth=1
                                        #     Child Loop BB15_39 Depth 2
                                        #       Child Loop BB15_41 Depth 3
	cmpl	$4, -12(%rbp)
	jge	.LBB15_48
# %bb.38:                               # %for.body112
                                        #   in Loop: Header=BB15_37 Depth=1
	movl	$0, -16(%rbp)
.LBB15_39:                              # %for.cond113
                                        #   Parent Loop BB15_37 Depth=1
                                        # =>  This Loop Header: Depth=2
                                        #       Child Loop BB15_41 Depth 3
	cmpl	$4, -16(%rbp)
	jge	.LBB15_46
# %bb.40:                               # %for.body116
                                        #   in Loop: Header=BB15_39 Depth=2
	movl	$0, -4(%rbp)
.LBB15_41:                              # %for.cond117
                                        #   Parent Loop BB15_37 Depth=1
                                        #     Parent Loop BB15_39 Depth=2
                                        # =>    This Inner Loop Header: Depth=3
	cmpl	$2, -4(%rbp)
	jge	.LBB15_44
# %bb.42:                               # %for.body120
                                        #   in Loop: Header=BB15_41 Depth=3
	movq	-80(%rbp), %rax
	movl	-24(%rbp), %ecx
	shll	$2, %ecx
	addl	-16(%rbp), %ecx
	addl	$4, %ecx
	movslq	%ecx, %rcx
	movq	(%rax,%rcx,8), %rax
	movl	-20(%rbp), %ecx
	shll	$2, %ecx
	addl	-12(%rbp), %ecx
	movslq	%ecx, %rcx
	movq	(%rax,%rcx,8), %rax
	movslq	-4(%rbp), %rcx
	movswl	(%rax,%rcx,2), %eax
	movslq	-4(%rbp), %rcx
	shlq	$6, %rcx
	leaq	-224(%rbp), %rdx
	addq	%rcx, %rdx
	movslq	-12(%rbp), %rcx
	shlq	$4, %rcx
	addq	%rcx, %rdx
	movslq	-16(%rbp), %rcx
	movl	%eax, (%rdx,%rcx,4)
# %bb.43:                               # %for.inc139
                                        #   in Loop: Header=BB15_41 Depth=3
	movl	-4(%rbp), %eax
	addl	$1, %eax
	movl	%eax, -4(%rbp)
	jmp	.LBB15_41
.LBB15_44:                              # %for.end141
                                        #   in Loop: Header=BB15_39 Depth=2
	jmp	.LBB15_45
.LBB15_45:                              # %for.inc142
                                        #   in Loop: Header=BB15_39 Depth=2
	movl	-16(%rbp), %eax
	addl	$1, %eax
	movl	%eax, -16(%rbp)
	jmp	.LBB15_39
.LBB15_46:                              # %for.end144
                                        #   in Loop: Header=BB15_37 Depth=1
	jmp	.LBB15_47
.LBB15_47:                              # %for.inc145
                                        #   in Loop: Header=BB15_37 Depth=1
	movl	-12(%rbp), %eax
	addl	$1, %eax
	movl	%eax, -12(%rbp)
	jmp	.LBB15_37
.LBB15_48:                              # %for.end147
	movl	$0, -4(%rbp)
.LBB15_49:                              # %for.cond148
                                        # =>This Loop Header: Depth=1
                                        #     Child Loop BB15_51 Depth 2
	cmpl	$16, -4(%rbp)
	jge	.LBB15_56
# %bb.50:                               # %for.body151
                                        #   in Loop: Header=BB15_49 Depth=1
	movl	$0, -8(%rbp)
.LBB15_51:                              # %for.cond152
                                        #   Parent Loop BB15_49 Depth=1
                                        # =>  This Inner Loop Header: Depth=2
	cmpl	$16, -8(%rbp)
	jge	.LBB15_54
# %bb.52:                               # %for.body155
                                        #   in Loop: Header=BB15_51 Depth=2
	movslq	-8(%rbp), %rax
	shlq	$6, %rax
	leaq	-1248(%rbp), %rcx
	addq	%rax, %rcx
	movslq	-4(%rbp), %rax
	movl	$0, (%rcx,%rax,4)
# %bb.53:                               # %for.inc160
                                        #   in Loop: Header=BB15_51 Depth=2
	movl	-8(%rbp), %eax
	addl	$1, %eax
	movl	%eax, -8(%rbp)
	jmp	.LBB15_51
.LBB15_54:                              # %for.end162
                                        #   in Loop: Header=BB15_49 Depth=1
	jmp	.LBB15_55
.LBB15_55:                              # %for.inc163
                                        #   in Loop: Header=BB15_49 Depth=1
	movl	-4(%rbp), %eax
	addl	$1, %eax
	movl	%eax, -4(%rbp)
	jmp	.LBB15_49
.LBB15_56:                              # %for.end165
	movq	img, %rax
	cmpl	$2, 24(%rax)
	je	.LBB15_96
# %bb.57:                               # %if.then169
	cmpl	$0, -64(%rbp)
	je	.LBB15_67
# %bb.58:                               # %if.then170
	movl	$0, -8(%rbp)
.LBB15_59:                              # %for.cond171
                                        # =>This Loop Header: Depth=1
                                        #     Child Loop BB15_61 Depth 2
	cmpl	$16, -8(%rbp)
	jge	.LBB15_66
# %bb.60:                               # %for.body174
                                        #   in Loop: Header=BB15_59 Depth=1
	movl	$0, -4(%rbp)
.LBB15_61:                              # %for.cond175
                                        #   Parent Loop BB15_59 Depth=1
                                        # =>  This Inner Loop Header: Depth=2
	cmpl	$16, -4(%rbp)
	jge	.LBB15_64
# %bb.62:                               # %for.body178
                                        #   in Loop: Header=BB15_61 Depth=2
	movq	-56(%rbp), %rax
	movslq	-36(%rbp), %rcx
	movq	(%rax,%rcx,8), %rax
	movl	-28(%rbp), %ecx
	addl	-8(%rbp), %ecx
	movslq	%ecx, %rcx
	movq	(%rax,%rcx,8), %rax
	movl	-32(%rbp), %ecx
	addl	-4(%rbp), %ecx
	movslq	%ecx, %rcx
	movw	(%rax,%rcx,2), %ax
	movq	-48(%rbp), %rcx
	movl	-28(%rbp), %edx
	addl	-8(%rbp), %edx
	movslq	%edx, %rdx
	movq	(%rcx,%rdx,8), %rcx
	movl	-32(%rbp), %edx
	addl	-4(%rbp), %edx
	movslq	%edx, %rdx
	movw	%ax, (%rcx,%rdx,2)
# %bb.63:                               # %for.inc193
                                        #   in Loop: Header=BB15_61 Depth=2
	movl	-4(%rbp), %eax
	addl	$1, %eax
	movl	%eax, -4(%rbp)
	jmp	.LBB15_61
.LBB15_64:                              # %for.end195
                                        #   in Loop: Header=BB15_59 Depth=1
	jmp	.LBB15_65
.LBB15_65:                              # %for.inc196
                                        #   in Loop: Header=BB15_59 Depth=1
	movl	-8(%rbp), %eax
	addl	$1, %eax
	movl	%eax, -8(%rbp)
	jmp	.LBB15_59
.LBB15_66:                              # %for.end198
	jmp	.LBB15_95
.LBB15_67:                              # %if.else199
	cmpl	$0, -60(%rbp)
	je	.LBB15_85
# %bb.68:                               # %if.then201
	movl	-20(%rbp), %eax
	shll	$2, %eax
	movl	%eax, -12(%rbp)
.LBB15_69:                              # %for.cond203
                                        # =>This Loop Header: Depth=1
                                        #     Child Loop BB15_71 Depth 2
                                        #       Child Loop BB15_73 Depth 3
                                        #         Child Loop BB15_75 Depth 4
	movl	-12(%rbp), %eax
	movl	-20(%rbp), %ecx
	shll	$2, %ecx
	addl	$4, %ecx
	cmpl	%ecx, %eax
	jge	.LBB15_84
# %bb.70:                               # %for.body208
                                        #   in Loop: Header=BB15_69 Depth=1
	movl	-24(%rbp), %eax
	shll	$2, %eax
	movl	%eax, -16(%rbp)
.LBB15_71:                              # %for.cond210
                                        #   Parent Loop BB15_69 Depth=1
                                        # =>  This Loop Header: Depth=2
                                        #       Child Loop BB15_73 Depth 3
                                        #         Child Loop BB15_75 Depth 4
	movl	-16(%rbp), %eax
	movl	-24(%rbp), %ecx
	shll	$2, %ecx
	addl	$4, %ecx
	cmpl	%ecx, %eax
	jge	.LBB15_82
# %bb.72:                               # %for.body215
                                        #   in Loop: Header=BB15_71 Depth=2
	leaq	-224(%rbp), %r8
	movq	-56(%rbp), %rcx
	movslq	-36(%rbp), %rdx
	movq	(%rcx,%rdx,8), %rdi
	movl	-12(%rbp), %esi
	movl	-16(%rbp), %edx
	movl	-12(%rbp), %ecx
	movl	-20(%rbp), %eax
	shll	$2, %eax
	subl	%eax, %ecx
	movslq	%ecx, %rax
	shlq	$4, %rax
	movq	%r8, %r9
	addq	%rax, %r9
	movl	-16(%rbp), %eax
	movl	-24(%rbp), %ecx
	shll	$2, %ecx
	subl	%ecx, %eax
	cltq
	movl	(%r9,%rax,4), %ecx
	addq	$64, %r8
	movl	-12(%rbp), %r9d
	movl	-20(%rbp), %eax
	shll	$2, %eax
	subl	%eax, %r9d
	movslq	%r9d, %rax
	shlq	$4, %rax
	addq	%rax, %r8
	movl	-16(%rbp), %r9d
	movl	-24(%rbp), %eax
	shll	$2, %eax
	subl	%eax, %r9d
	movslq	%r9d, %rax
	movl	(%r8,%rax,4), %r8d
	movq	decs, %rax
	movq	32(%rax), %r9
	callq	Get_Reference_Block
	movl	$0, -8(%rbp)
.LBB15_73:                              # %for.cond236
                                        #   Parent Loop BB15_69 Depth=1
                                        #     Parent Loop BB15_71 Depth=2
                                        # =>    This Loop Header: Depth=3
                                        #         Child Loop BB15_75 Depth 4
	cmpl	$4, -8(%rbp)
	jge	.LBB15_80
# %bb.74:                               # %for.body239
                                        #   in Loop: Header=BB15_73 Depth=3
	movl	$0, -4(%rbp)
.LBB15_75:                              # %for.cond240
                                        #   Parent Loop BB15_69 Depth=1
                                        #     Parent Loop BB15_71 Depth=2
                                        #       Parent Loop BB15_73 Depth=3
                                        # =>      This Inner Loop Header: Depth=4
	cmpl	$4, -4(%rbp)
	jge	.LBB15_78
# %bb.76:                               # %for.body243
                                        #   in Loop: Header=BB15_75 Depth=4
	movq	decs, %rax
	movq	32(%rax), %rax
	movslq	-8(%rbp), %rcx
	movq	(%rax,%rcx,8), %rax
	movslq	-4(%rbp), %rcx
	movw	(%rax,%rcx,2), %ax
	movq	-48(%rbp), %rcx
	movl	-12(%rbp), %edx
	shll	$2, %edx
	addl	-8(%rbp), %edx
	movslq	%edx, %rdx
	movq	(%rcx,%rdx,8), %rcx
	movl	-16(%rbp), %edx
	shll	$2, %edx
	addl	-4(%rbp), %edx
	movslq	%edx, %rdx
	movw	%ax, (%rcx,%rdx,2)
# %bb.77:                               # %for.inc257
                                        #   in Loop: Header=BB15_75 Depth=4
	movl	-4(%rbp), %eax
	addl	$1, %eax
	movl	%eax, -4(%rbp)
	jmp	.LBB15_75
.LBB15_78:                              # %for.end259
                                        #   in Loop: Header=BB15_73 Depth=3
	jmp	.LBB15_79
.LBB15_79:                              # %for.inc260
                                        #   in Loop: Header=BB15_73 Depth=3
	movl	-8(%rbp), %eax
	addl	$1, %eax
	movl	%eax, -8(%rbp)
	jmp	.LBB15_73
.LBB15_80:                              # %for.end262
                                        #   in Loop: Header=BB15_71 Depth=2
	jmp	.LBB15_81
.LBB15_81:                              # %for.inc263
                                        #   in Loop: Header=BB15_71 Depth=2
	movl	-16(%rbp), %eax
	addl	$1, %eax
	movl	%eax, -16(%rbp)
	jmp	.LBB15_71
.LBB15_82:                              # %for.end265
                                        #   in Loop: Header=BB15_69 Depth=1
	jmp	.LBB15_83
.LBB15_83:                              # %for.inc266
                                        #   in Loop: Header=BB15_69 Depth=1
	movl	-12(%rbp), %eax
	addl	$1, %eax
	movl	%eax, -12(%rbp)
	jmp	.LBB15_69
.LBB15_84:                              # %for.end268
	jmp	.LBB15_94
.LBB15_85:                              # %if.else269
	movl	$0, -8(%rbp)
.LBB15_86:                              # %for.cond270
                                        # =>This Loop Header: Depth=1
                                        #     Child Loop BB15_88 Depth 2
	cmpl	$16, -8(%rbp)
	jge	.LBB15_93
# %bb.87:                               # %for.body273
                                        #   in Loop: Header=BB15_86 Depth=1
	movl	$0, -4(%rbp)
.LBB15_88:                              # %for.cond274
                                        #   Parent Loop BB15_86 Depth=1
                                        # =>  This Inner Loop Header: Depth=2
	cmpl	$16, -4(%rbp)
	jge	.LBB15_91
# %bb.89:                               # %for.body277
                                        #   in Loop: Header=BB15_88 Depth=2
	movq	-56(%rbp), %rax
	movslq	-36(%rbp), %rcx
	movq	(%rax,%rcx,8), %rax
	movl	-28(%rbp), %ecx
	addl	-8(%rbp), %ecx
	movslq	%ecx, %rcx
	movq	(%rax,%rcx,8), %rax
	movl	-32(%rbp), %ecx
	addl	-4(%rbp), %ecx
	movslq	%ecx, %rcx
	movw	(%rax,%rcx,2), %ax
	movq	-48(%rbp), %rcx
	movl	-28(%rbp), %edx
	addl	-8(%rbp), %edx
	movslq	%edx, %rdx
	movq	(%rcx,%rdx,8), %rcx
	movl	-32(%rbp), %edx
	addl	-4(%rbp), %edx
	movslq	%edx, %rdx
	movw	%ax, (%rcx,%rdx,2)
# %bb.90:                               # %for.inc292
                                        #   in Loop: Header=BB15_88 Depth=2
	movl	-4(%rbp), %eax
	addl	$1, %eax
	movl	%eax, -4(%rbp)
	jmp	.LBB15_88
.LBB15_91:                              # %for.end294
                                        #   in Loop: Header=BB15_86 Depth=1
	jmp	.LBB15_92
.LBB15_92:                              # %for.inc295
                                        #   in Loop: Header=BB15_86 Depth=1
	movl	-8(%rbp), %eax
	addl	$1, %eax
	movl	%eax, -8(%rbp)
	jmp	.LBB15_86
.LBB15_93:                              # %for.end297
	jmp	.LBB15_94
.LBB15_94:                              # %if.end298
	jmp	.LBB15_95
.LBB15_95:                              # %if.end299
	jmp	.LBB15_105
.LBB15_96:                              # %if.else300
	movl	$0, -8(%rbp)
.LBB15_97:                              # %for.cond301
                                        # =>This Loop Header: Depth=1
                                        #     Child Loop BB15_99 Depth 2
	cmpl	$16, -8(%rbp)
	jge	.LBB15_104
# %bb.98:                               # %for.body304
                                        #   in Loop: Header=BB15_97 Depth=1
	movl	$0, -4(%rbp)
.LBB15_99:                              # %for.cond305
                                        #   Parent Loop BB15_97 Depth=1
                                        # =>  This Inner Loop Header: Depth=2
	cmpl	$16, -4(%rbp)
	jge	.LBB15_102
# %bb.100:                              # %for.body308
                                        #   in Loop: Header=BB15_99 Depth=2
	movq	-48(%rbp), %rax
	movl	-28(%rbp), %ecx
	addl	-8(%rbp), %ecx
	movslq	%ecx, %rcx
	movq	(%rax,%rcx,8), %rax
	movl	-32(%rbp), %ecx
	addl	-4(%rbp), %ecx
	movslq	%ecx, %rcx
	movw	$127, (%rax,%rcx,2)
# %bb.101:                              # %for.inc315
                                        #   in Loop: Header=BB15_99 Depth=2
	movl	-4(%rbp), %eax
	addl	$1, %eax
	movl	%eax, -4(%rbp)
	jmp	.LBB15_99
.LBB15_102:                             # %for.end317
                                        #   in Loop: Header=BB15_97 Depth=1
	jmp	.LBB15_103
.LBB15_103:                             # %for.inc318
                                        #   in Loop: Header=BB15_97 Depth=1
	movl	-8(%rbp), %eax
	addl	$1, %eax
	movl	%eax, -8(%rbp)
	jmp	.LBB15_97
.LBB15_104:                             # %for.end320
	jmp	.LBB15_105
.LBB15_105:                             # %if.end321
	jmp	.LBB15_180
.LBB15_106:                             # %sw.bb322
	movq	img, %rax
	cmpl	$2, 24(%rax)
	je	.LBB15_157
# %bb.107:                              # %if.then326
	movl	$0, -12(%rbp)
.LBB15_108:                             # %for.cond327
                                        # =>This Loop Header: Depth=1
                                        #     Child Loop BB15_110 Depth 2
                                        #       Child Loop BB15_112 Depth 3
	cmpl	$4, -12(%rbp)
	jge	.LBB15_119
# %bb.109:                              # %for.body330
                                        #   in Loop: Header=BB15_108 Depth=1
	movl	$0, -16(%rbp)
.LBB15_110:                             # %for.cond331
                                        #   Parent Loop BB15_108 Depth=1
                                        # =>  This Loop Header: Depth=2
                                        #       Child Loop BB15_112 Depth 3
	cmpl	$4, -16(%rbp)
	jge	.LBB15_117
# %bb.111:                              # %for.body334
                                        #   in Loop: Header=BB15_110 Depth=2
	movl	$0, -4(%rbp)
.LBB15_112:                             # %for.cond335
                                        #   Parent Loop BB15_108 Depth=1
                                        #     Parent Loop BB15_110 Depth=2
                                        # =>    This Inner Loop Header: Depth=3
	cmpl	$2, -4(%rbp)
	jge	.LBB15_115
# %bb.113:                              # %for.body338
                                        #   in Loop: Header=BB15_112 Depth=3
	movq	-80(%rbp), %rax
	movl	-24(%rbp), %ecx
	shll	$2, %ecx
	addl	-16(%rbp), %ecx
	addl	$4, %ecx
	movslq	%ecx, %rcx
	movq	(%rax,%rcx,8), %rax
	movl	-20(%rbp), %ecx
	shll	$2, %ecx
	addl	-12(%rbp), %ecx
	movslq	%ecx, %rcx
	movq	(%rax,%rcx,8), %rax
	movslq	-4(%rbp), %rcx
	movswl	(%rax,%rcx,2), %eax
	movslq	-4(%rbp), %rcx
	shlq	$6, %rcx
	leaq	-224(%rbp), %rdx
	addq	%rcx, %rdx
	movslq	-12(%rbp), %rcx
	shlq	$4, %rcx
	addq	%rcx, %rdx
	movslq	-16(%rbp), %rcx
	movl	%eax, (%rdx,%rcx,4)
# %bb.114:                              # %for.inc357
                                        #   in Loop: Header=BB15_112 Depth=3
	movl	-4(%rbp), %eax
	addl	$1, %eax
	movl	%eax, -4(%rbp)
	jmp	.LBB15_112
.LBB15_115:                             # %for.end359
                                        #   in Loop: Header=BB15_110 Depth=2
	jmp	.LBB15_116
.LBB15_116:                             # %for.inc360
                                        #   in Loop: Header=BB15_110 Depth=2
	movl	-16(%rbp), %eax
	addl	$1, %eax
	movl	%eax, -16(%rbp)
	jmp	.LBB15_110
.LBB15_117:                             # %for.end362
                                        #   in Loop: Header=BB15_108 Depth=1
	jmp	.LBB15_118
.LBB15_118:                             # %for.inc363
                                        #   in Loop: Header=BB15_108 Depth=1
	movl	-12(%rbp), %eax
	addl	$1, %eax
	movl	%eax, -12(%rbp)
	jmp	.LBB15_108
.LBB15_119:                             # %for.end365
	movl	$0, -4(%rbp)
.LBB15_120:                             # %for.cond366
                                        # =>This Loop Header: Depth=1
                                        #     Child Loop BB15_122 Depth 2
	cmpl	$16, -4(%rbp)
	jge	.LBB15_127
# %bb.121:                              # %for.body369
                                        #   in Loop: Header=BB15_120 Depth=1
	movl	$0, -8(%rbp)
.LBB15_122:                             # %for.cond370
                                        #   Parent Loop BB15_120 Depth=1
                                        # =>  This Inner Loop Header: Depth=2
	cmpl	$16, -8(%rbp)
	jge	.LBB15_125
# %bb.123:                              # %for.body373
                                        #   in Loop: Header=BB15_122 Depth=2
	movslq	-8(%rbp), %rax
	shlq	$6, %rax
	leaq	-1248(%rbp), %rcx
	addq	%rax, %rcx
	movslq	-4(%rbp), %rax
	movl	$0, (%rcx,%rax,4)
# %bb.124:                              # %for.inc378
                                        #   in Loop: Header=BB15_122 Depth=2
	movl	-8(%rbp), %eax
	addl	$1, %eax
	movl	%eax, -8(%rbp)
	jmp	.LBB15_122
.LBB15_125:                             # %for.end380
                                        #   in Loop: Header=BB15_120 Depth=1
	jmp	.LBB15_126
.LBB15_126:                             # %for.inc381
                                        #   in Loop: Header=BB15_120 Depth=1
	movl	-4(%rbp), %eax
	addl	$1, %eax
	movl	%eax, -4(%rbp)
	jmp	.LBB15_120
.LBB15_127:                             # %for.end383
	cmpl	$0, -64(%rbp)
	je	.LBB15_137
# %bb.128:                              # %if.then385
	movl	$0, -8(%rbp)
.LBB15_129:                             # %for.cond386
                                        # =>This Loop Header: Depth=1
                                        #     Child Loop BB15_131 Depth 2
	cmpl	$16, -8(%rbp)
	jge	.LBB15_136
# %bb.130:                              # %for.body389
                                        #   in Loop: Header=BB15_129 Depth=1
	movl	$0, -4(%rbp)
.LBB15_131:                             # %for.cond390
                                        #   Parent Loop BB15_129 Depth=1
                                        # =>  This Inner Loop Header: Depth=2
	cmpl	$16, -4(%rbp)
	jge	.LBB15_134
# %bb.132:                              # %for.body393
                                        #   in Loop: Header=BB15_131 Depth=2
	movq	-56(%rbp), %rax
	movslq	-36(%rbp), %rcx
	movq	(%rax,%rcx,8), %rax
	movl	-28(%rbp), %ecx
	addl	-8(%rbp), %ecx
	movslq	%ecx, %rcx
	movq	(%rax,%rcx,8), %rax
	movl	-32(%rbp), %ecx
	addl	-4(%rbp), %ecx
	movslq	%ecx, %rcx
	movw	(%rax,%rcx,2), %ax
	movq	-48(%rbp), %rcx
	movl	-28(%rbp), %edx
	addl	-8(%rbp), %edx
	movslq	%edx, %rdx
	movq	(%rcx,%rdx,8), %rcx
	movl	-32(%rbp), %edx
	addl	-4(%rbp), %edx
	movslq	%edx, %rdx
	movw	%ax, (%rcx,%rdx,2)
# %bb.133:                              # %for.inc408
                                        #   in Loop: Header=BB15_131 Depth=2
	movl	-4(%rbp), %eax
	addl	$1, %eax
	movl	%eax, -4(%rbp)
	jmp	.LBB15_131
.LBB15_134:                             # %for.end410
                                        #   in Loop: Header=BB15_129 Depth=1
	jmp	.LBB15_135
.LBB15_135:                             # %for.inc411
                                        #   in Loop: Header=BB15_129 Depth=1
	movl	-8(%rbp), %eax
	addl	$1, %eax
	movl	%eax, -8(%rbp)
	jmp	.LBB15_129
.LBB15_136:                             # %for.end413
	jmp	.LBB15_156
.LBB15_137:                             # %if.else414
	cmpl	$0, -60(%rbp)
	je	.LBB15_155
# %bb.138:                              # %if.then416
	movl	-20(%rbp), %eax
	shll	$2, %eax
	movl	%eax, -12(%rbp)
.LBB15_139:                             # %for.cond418
                                        # =>This Loop Header: Depth=1
                                        #     Child Loop BB15_141 Depth 2
                                        #       Child Loop BB15_143 Depth 3
                                        #         Child Loop BB15_145 Depth 4
	movl	-12(%rbp), %eax
	movl	-20(%rbp), %ecx
	shll	$2, %ecx
	addl	$4, %ecx
	cmpl	%ecx, %eax
	jge	.LBB15_154
# %bb.140:                              # %for.body423
                                        #   in Loop: Header=BB15_139 Depth=1
	movl	-24(%rbp), %eax
	shll	$2, %eax
	movl	%eax, -16(%rbp)
.LBB15_141:                             # %for.cond425
                                        #   Parent Loop BB15_139 Depth=1
                                        # =>  This Loop Header: Depth=2
                                        #       Child Loop BB15_143 Depth 3
                                        #         Child Loop BB15_145 Depth 4
	movl	-16(%rbp), %eax
	movl	-24(%rbp), %ecx
	shll	$2, %ecx
	addl	$4, %ecx
	cmpl	%ecx, %eax
	jge	.LBB15_152
# %bb.142:                              # %for.body430
                                        #   in Loop: Header=BB15_141 Depth=2
	leaq	-224(%rbp), %r8
	movq	-56(%rbp), %rcx
	movslq	-36(%rbp), %rdx
	movq	(%rcx,%rdx,8), %rdi
	movl	-12(%rbp), %esi
	movl	-16(%rbp), %edx
	movl	-12(%rbp), %ecx
	movl	-20(%rbp), %eax
	shll	$2, %eax
	subl	%eax, %ecx
	movslq	%ecx, %rax
	shlq	$4, %rax
	movq	%r8, %r9
	addq	%rax, %r9
	movl	-16(%rbp), %eax
	movl	-24(%rbp), %ecx
	shll	$2, %ecx
	subl	%ecx, %eax
	cltq
	movl	(%r9,%rax,4), %ecx
	addq	$64, %r8
	movl	-12(%rbp), %r9d
	movl	-20(%rbp), %eax
	shll	$2, %eax
	subl	%eax, %r9d
	movslq	%r9d, %rax
	shlq	$4, %rax
	addq	%rax, %r8
	movl	-16(%rbp), %r9d
	movl	-24(%rbp), %eax
	shll	$2, %eax
	subl	%eax, %r9d
	movslq	%r9d, %rax
	movl	(%r8,%rax,4), %r8d
	movq	decs, %rax
	movq	32(%rax), %r9
	callq	Get_Reference_Block
	movl	$0, -8(%rbp)
.LBB15_143:                             # %for.cond452
                                        #   Parent Loop BB15_139 Depth=1
                                        #     Parent Loop BB15_141 Depth=2
                                        # =>    This Loop Header: Depth=3
                                        #         Child Loop BB15_145 Depth 4
	cmpl	$4, -8(%rbp)
	jge	.LBB15_150
# %bb.144:                              # %for.body455
                                        #   in Loop: Header=BB15_143 Depth=3
	movl	$0, -4(%rbp)
.LBB15_145:                             # %for.cond456
                                        #   Parent Loop BB15_139 Depth=1
                                        #     Parent Loop BB15_141 Depth=2
                                        #       Parent Loop BB15_143 Depth=3
                                        # =>      This Inner Loop Header: Depth=4
	cmpl	$4, -4(%rbp)
	jge	.LBB15_148
# %bb.146:                              # %for.body459
                                        #   in Loop: Header=BB15_145 Depth=4
	movq	decs, %rax
	movq	32(%rax), %rax
	movslq	-8(%rbp), %rcx
	movq	(%rax,%rcx,8), %rax
	movslq	-4(%rbp), %rcx
	movw	(%rax,%rcx,2), %ax
	movq	-48(%rbp), %rcx
	movl	-12(%rbp), %edx
	shll	$2, %edx
	addl	-8(%rbp), %edx
	movslq	%edx, %rdx
	movq	(%rcx,%rdx,8), %rcx
	movl	-16(%rbp), %edx
	shll	$2, %edx
	addl	-4(%rbp), %edx
	movslq	%edx, %rdx
	movw	%ax, (%rcx,%rdx,2)
# %bb.147:                              # %for.inc473
                                        #   in Loop: Header=BB15_145 Depth=4
	movl	-4(%rbp), %eax
	addl	$1, %eax
	movl	%eax, -4(%rbp)
	jmp	.LBB15_145
.LBB15_148:                             # %for.end475
                                        #   in Loop: Header=BB15_143 Depth=3
	jmp	.LBB15_149
.LBB15_149:                             # %for.inc476
                                        #   in Loop: Header=BB15_143 Depth=3
	movl	-8(%rbp), %eax
	addl	$1, %eax
	movl	%eax, -8(%rbp)
	jmp	.LBB15_143
.LBB15_150:                             # %for.end478
                                        #   in Loop: Header=BB15_141 Depth=2
	jmp	.LBB15_151
.LBB15_151:                             # %for.inc479
                                        #   in Loop: Header=BB15_141 Depth=2
	movl	-16(%rbp), %eax
	addl	$1, %eax
	movl	%eax, -16(%rbp)
	jmp	.LBB15_141
.LBB15_152:                             # %for.end481
                                        #   in Loop: Header=BB15_139 Depth=1
	jmp	.LBB15_153
.LBB15_153:                             # %for.inc482
                                        #   in Loop: Header=BB15_139 Depth=1
	movl	-12(%rbp), %eax
	addl	$1, %eax
	movl	%eax, -12(%rbp)
	jmp	.LBB15_139
.LBB15_154:                             # %for.end484
	jmp	.LBB15_155
.LBB15_155:                             # %if.end485
	jmp	.LBB15_156
.LBB15_156:                             # %if.end486
	jmp	.LBB15_157
.LBB15_157:                             # %if.end487
	jmp	.LBB15_180
.LBB15_158:                             # %sw.bb488
	movq	img, %rax
	cmpl	$2, 24(%rax)
	je	.LBB15_170
# %bb.159:                              # %if.then492
	cmpl	$0, -60(%rbp)
	jne	.LBB15_169
# %bb.160:                              # %if.then494
	movl	$0, -8(%rbp)
.LBB15_161:                             # %for.cond495
                                        # =>This Loop Header: Depth=1
                                        #     Child Loop BB15_163 Depth 2
	cmpl	$16, -8(%rbp)
	jge	.LBB15_168
# %bb.162:                              # %for.body498
                                        #   in Loop: Header=BB15_161 Depth=1
	movl	$0, -4(%rbp)
.LBB15_163:                             # %for.cond499
                                        #   Parent Loop BB15_161 Depth=1
                                        # =>  This Inner Loop Header: Depth=2
	cmpl	$16, -4(%rbp)
	jge	.LBB15_166
# %bb.164:                              # %for.body502
                                        #   in Loop: Header=BB15_163 Depth=2
	movq	-56(%rbp), %rax
	movslq	-36(%rbp), %rcx
	movq	(%rax,%rcx,8), %rax
	movl	-28(%rbp), %ecx
	addl	-8(%rbp), %ecx
	movslq	%ecx, %rcx
	movq	(%rax,%rcx,8), %rax
	movl	-32(%rbp), %ecx
	addl	-4(%rbp), %ecx
	movslq	%ecx, %rcx
	movw	(%rax,%rcx,2), %ax
	movq	-48(%rbp), %rcx
	movl	-28(%rbp), %edx
	addl	-8(%rbp), %edx
	movslq	%edx, %rdx
	movq	(%rcx,%rdx,8), %rcx
	movl	-32(%rbp), %edx
	addl	-4(%rbp), %edx
	movslq	%edx, %rdx
	movw	%ax, (%rcx,%rdx,2)
# %bb.165:                              # %for.inc517
                                        #   in Loop: Header=BB15_163 Depth=2
	movl	-4(%rbp), %eax
	addl	$1, %eax
	movl	%eax, -4(%rbp)
	jmp	.LBB15_163
.LBB15_166:                             # %for.end519
                                        #   in Loop: Header=BB15_161 Depth=1
	jmp	.LBB15_167
.LBB15_167:                             # %for.inc520
                                        #   in Loop: Header=BB15_161 Depth=1
	movl	-8(%rbp), %eax
	addl	$1, %eax
	movl	%eax, -8(%rbp)
	jmp	.LBB15_161
.LBB15_168:                             # %for.end522
	jmp	.LBB15_169
.LBB15_169:                             # %if.end523
	jmp	.LBB15_179
.LBB15_170:                             # %if.else524
	movl	$0, -8(%rbp)
.LBB15_171:                             # %for.cond525
                                        # =>This Loop Header: Depth=1
                                        #     Child Loop BB15_173 Depth 2
	cmpl	$16, -8(%rbp)
	jge	.LBB15_178
# %bb.172:                              # %for.body528
                                        #   in Loop: Header=BB15_171 Depth=1
	movl	$0, -4(%rbp)
.LBB15_173:                             # %for.cond529
                                        #   Parent Loop BB15_171 Depth=1
                                        # =>  This Inner Loop Header: Depth=2
	cmpl	$16, -4(%rbp)
	jge	.LBB15_176
# %bb.174:                              # %for.body532
                                        #   in Loop: Header=BB15_173 Depth=2
	movq	-48(%rbp), %rax
	movl	-28(%rbp), %ecx
	addl	-8(%rbp), %ecx
	movslq	%ecx, %rcx
	movq	(%rax,%rcx,8), %rax
	movl	-32(%rbp), %ecx
	addl	-4(%rbp), %ecx
	movslq	%ecx, %rcx
	movw	$127, (%rax,%rcx,2)
# %bb.175:                              # %for.inc539
                                        #   in Loop: Header=BB15_173 Depth=2
	movl	-4(%rbp), %eax
	addl	$1, %eax
	movl	%eax, -4(%rbp)
	jmp	.LBB15_173
.LBB15_176:                             # %for.end541
                                        #   in Loop: Header=BB15_171 Depth=1
	jmp	.LBB15_177
.LBB15_177:                             # %for.inc542
                                        #   in Loop: Header=BB15_171 Depth=1
	movl	-8(%rbp), %eax
	addl	$1, %eax
	movl	%eax, -8(%rbp)
	jmp	.LBB15_171
.LBB15_178:                             # %for.end544
	jmp	.LBB15_179
.LBB15_179:                             # %if.end545
	jmp	.LBB15_180
.LBB15_180:                             # %sw.epilog
	cmpl	$354513489, -68(%rbp)   # imm = 0x15217251
	jne	.LBB15_182
.LBB15_181:
	addq	$1248, %rsp             # imm = 0x4E0
	popq	%rbp
	.cfi_def_cfa %rsp, 8
	retq
.LBB15_182:                             # %func_exit
	.cfi_def_cfa %rbp, 16
	callq	detect_breach
	jmp	.LBB15_181
.Lfunc_end15:
	.size	Conceal_Error.5, .Lfunc_end15-Conceal_Error.5
	.cfi_endproc
	.section	.rodata,"a",@progbits
	.p2align	3
.LJTI15_0:
	.quad	.LBB15_16
	.quad	.LBB15_158
	.quad	.LBB15_106
	.quad	.LBB15_180
	.quad	.LBB15_36
                                        # -- End function
	.text
	.globl	DecOneForthPix.6        # -- Begin function DecOneForthPix.6
	.p2align	4, 0x90
	.type	DecOneForthPix.6,@function
DecOneForthPix.6:                       # @DecOneForthPix.6
	.cfi_startproc
# %bb.0:                                # %entry
	pushq	%rbp
	.cfi_def_cfa_offset 16
	.cfi_offset %rbp, -16
	movq	%rsp, %rbp
	.cfi_def_cfa_register %rbp
	subq	$32, %rsp
	movl	$371604828, -12(%rbp)   # imm = 0x16263D5C
	movq	%rdi, -32(%rbp)
	movq	%rsi, -24(%rbp)
	movq	img, %rax
	movl	(%rax), %eax
	subl	start_frame_no_in_this_IGOP, %eax
	movq	img, %rcx
	cltd
	idivl	72376(%rcx)
	movl	%edx, -8(%rbp)
	movl	$0, -4(%rbp)
.LBB16_1:                               # %for.cond
                                        # =>This Inner Loop Header: Depth=1
	movl	-4(%rbp), %eax
	movq	img, %rcx
	cmpl	60(%rcx), %eax
	jge	.LBB16_4
# %bb.2:                                # %for.body
                                        #   in Loop: Header=BB16_1 Depth=1
	movq	-24(%rbp), %rax
	movslq	-8(%rbp), %rcx
	movq	(%rax,%rcx,8), %rax
	movslq	-4(%rbp), %rcx
	movq	(%rax,%rcx,8), %rdi
	movq	-32(%rbp), %rax
	movslq	-4(%rbp), %rcx
	movq	(%rax,%rcx,8), %rsi
	movq	img, %rax
	movslq	52(%rax), %rdx
	shlq	$1, %rdx
	callq	memcpy
# %bb.3:                                # %for.inc
                                        #   in Loop: Header=BB16_1 Depth=1
	movl	-4(%rbp), %eax
	addl	$1, %eax
	movl	%eax, -4(%rbp)
	jmp	.LBB16_1
.LBB16_4:                               # %for.end
	cmpl	$371604828, -12(%rbp)   # imm = 0x16263D5C
	jne	.LBB16_6
.LBB16_5:
	addq	$32, %rsp
	popq	%rbp
	.cfi_def_cfa %rsp, 8
	retq
.LBB16_6:                               # %func_exit
	.cfi_def_cfa %rbp, 16
	callq	detect_breach
	jmp	.LBB16_5
.Lfunc_end16:
	.size	DecOneForthPix.6, .Lfunc_end16-DecOneForthPix.6
	.cfi_endproc
                                        # -- End function
	.globl	decode_one_mb.7         # -- Begin function decode_one_mb.7
	.p2align	4, 0x90
	.type	decode_one_mb.7,@function
decode_one_mb.7:                        # @decode_one_mb.7
	.cfi_startproc
# %bb.0:                                # %entry
	pushq	%rbp
	.cfi_def_cfa_offset 16
	.cfi_offset %rbp, -16
	movq	%rsp, %rbp
	.cfi_def_cfa_register %rbp
	subq	$16, %rsp
	movl	$1466196176, -4(%rbp)   # imm = 0x576460D0
	movl	%edi, -8(%rbp)
	movq	%rsi, -16(%rbp)
	cmpl	$1466196176, -4(%rbp)   # imm = 0x576460D0
	jne	.LBB17_2
.LBB17_1:
	addq	$16, %rsp
	popq	%rbp
	.cfi_def_cfa %rsp, 8
	retq
.LBB17_2:                               # %func_exit
	.cfi_def_cfa %rbp, 16
	callq	detect_breach
	jmp	.LBB17_1
.Lfunc_end17:
	.size	decode_one_mb.7, .Lfunc_end17-decode_one_mb.7
	.cfi_endproc
                                        # -- End function
	.globl	decode_one_mb.8         # -- Begin function decode_one_mb.8
	.p2align	4, 0x90
	.type	decode_one_mb.8,@function
decode_one_mb.8:                        # @decode_one_mb.8
	.cfi_startproc
# %bb.0:                                # %entry
	pushq	%rbp
	.cfi_def_cfa_offset 16
	.cfi_offset %rbp, -16
	movq	%rsp, %rbp
	.cfi_def_cfa_register %rbp
	subq	$16, %rsp
	movl	$1235411066, -4(%rbp)   # imm = 0x49A2E07A
	movl	%edi, -8(%rbp)
	movq	%rsi, -16(%rbp)
	cmpl	$1235411066, -4(%rbp)   # imm = 0x49A2E07A
	jne	.LBB18_2
.LBB18_1:
	addq	$16, %rsp
	popq	%rbp
	.cfi_def_cfa %rsp, 8
	retq
.LBB18_2:                               # %func_exit
	.cfi_def_cfa %rbp, 16
	callq	detect_breach
	jmp	.LBB18_1
.Lfunc_end18:
	.size	decode_one_mb.8, .Lfunc_end18-decode_one_mb.8
	.cfi_endproc
                                        # -- End function
	.globl	compute_residue_b8block.9 # -- Begin function compute_residue_b8block.9
	.p2align	4, 0x90
	.type	compute_residue_b8block.9,@function
compute_residue_b8block.9:              # @compute_residue_b8block.9
	.cfi_startproc
# %bb.0:                                # %entry
	pushq	%rbp
	.cfi_def_cfa_offset 16
	.cfi_offset %rbp, -16
	movq	%rsp, %rbp
	.cfi_def_cfa_register %rbp
	subq	$48, %rsp
	movl	$331541325, -36(%rbp)   # imm = 0x13C2EB4D
	movl	%edi, -20(%rbp)
	movl	%esi, -32(%rbp)
	movl	-20(%rbp), %eax
	cltd
	movl	$2, %ecx
	idivl	%ecx
	shll	$3, %edx
	movl	%edx, -16(%rbp)
	movl	-16(%rbp), %eax
	addl	$8, %eax
	movl	%eax, -28(%rbp)
	movl	-20(%rbp), %eax
	cltd
	idivl	%ecx
	shll	$3, %eax
	movl	%eax, -12(%rbp)
	movl	-12(%rbp), %eax
	addl	$8, %eax
	movl	%eax, -24(%rbp)
	cmpl	$0, -32(%rbp)
	jl	.LBB19_10
# %bb.1:                                # %if.then
	movl	-16(%rbp), %eax
	movl	%eax, -8(%rbp)
.LBB19_2:                               # %for.cond
                                        # =>This Loop Header: Depth=1
                                        #     Child Loop BB19_4 Depth 2
	movl	-8(%rbp), %eax
	cmpl	-28(%rbp), %eax
	jge	.LBB19_9
# %bb.3:                                # %for.body
                                        #   in Loop: Header=BB19_2 Depth=1
	movl	-12(%rbp), %eax
	movl	%eax, -4(%rbp)
.LBB19_4:                               # %for.cond4
                                        #   Parent Loop BB19_2 Depth=1
                                        # =>  This Inner Loop Header: Depth=2
	movl	-4(%rbp), %eax
	cmpl	-24(%rbp), %eax
	jge	.LBB19_7
# %bb.5:                                # %for.body6
                                        #   in Loop: Header=BB19_4 Depth=2
	movq	enc_picture, %rax
	movq	6424(%rax), %rax
	movq	img, %rcx
	movl	156(%rcx), %ecx
	addl	-4(%rbp), %ecx
	movslq	%ecx, %rcx
	movq	(%rax,%rcx,8), %rax
	movq	img, %rcx
	movl	152(%rcx), %ecx
	addl	-8(%rbp), %ecx
	movslq	%ecx, %rcx
	movzwl	(%rax,%rcx,2), %eax
	movq	img, %rcx
	addq	$4792, %rcx             # imm = 0x12B8
	movslq	-32(%rbp), %rdx
	shlq	$9, %rdx
	addq	%rdx, %rcx
	movslq	-4(%rbp), %rdx
	shlq	$5, %rdx
	addq	%rdx, %rcx
	movslq	-8(%rbp), %rdx
	movzwl	(%rcx,%rdx,2), %ecx
	subl	%ecx, %eax
	movq	decs, %rcx
	movq	(%rcx), %rcx
	movslq	-4(%rbp), %rdx
	movq	(%rcx,%rdx,8), %rcx
	movslq	-8(%rbp), %rdx
	movl	%eax, (%rcx,%rdx,4)
# %bb.6:                                # %for.inc
                                        #   in Loop: Header=BB19_4 Depth=2
	movl	-4(%rbp), %eax
	addl	$1, %eax
	movl	%eax, -4(%rbp)
	jmp	.LBB19_4
.LBB19_7:                               # %for.end
                                        #   in Loop: Header=BB19_2 Depth=1
	jmp	.LBB19_8
.LBB19_8:                               # %for.inc22
                                        #   in Loop: Header=BB19_2 Depth=1
	movl	-8(%rbp), %eax
	addl	$1, %eax
	movl	%eax, -8(%rbp)
	jmp	.LBB19_2
.LBB19_9:                               # %for.end24
	jmp	.LBB19_19
.LBB19_10:                              # %if.else
	movl	-16(%rbp), %eax
	movl	%eax, -8(%rbp)
.LBB19_11:                              # %for.cond25
                                        # =>This Loop Header: Depth=1
                                        #     Child Loop BB19_13 Depth 2
	movl	-8(%rbp), %eax
	cmpl	-28(%rbp), %eax
	jge	.LBB19_18
# %bb.12:                               # %for.body28
                                        #   in Loop: Header=BB19_11 Depth=1
	movl	-12(%rbp), %eax
	movl	%eax, -4(%rbp)
.LBB19_13:                              # %for.cond29
                                        #   Parent Loop BB19_11 Depth=1
                                        # =>  This Inner Loop Header: Depth=2
	movl	-4(%rbp), %eax
	cmpl	-24(%rbp), %eax
	jge	.LBB19_16
# %bb.14:                               # %for.body32
                                        #   in Loop: Header=BB19_13 Depth=2
	movq	enc_picture, %rax
	movq	6424(%rax), %rax
	movq	img, %rcx
	movl	156(%rcx), %ecx
	addl	-4(%rbp), %ecx
	movslq	%ecx, %rcx
	movq	(%rax,%rcx,8), %rax
	movq	img, %rcx
	movl	152(%rcx), %ecx
	addl	-8(%rbp), %ecx
	movslq	%ecx, %rcx
	movzwl	(%rax,%rcx,2), %eax
	movq	img, %rcx
	addq	$12600, %rcx            # imm = 0x3138
	movslq	-8(%rbp), %rdx
	shlq	$5, %rdx
	addq	%rdx, %rcx
	movslq	-4(%rbp), %rdx
	movzwl	(%rcx,%rdx,2), %ecx
	subl	%ecx, %eax
	movq	decs, %rcx
	movq	(%rcx), %rcx
	movslq	-4(%rbp), %rdx
	movq	(%rcx,%rdx,8), %rcx
	movslq	-8(%rbp), %rdx
	movl	%eax, (%rcx,%rdx,4)
# %bb.15:                               # %for.inc54
                                        #   in Loop: Header=BB19_13 Depth=2
	movl	-4(%rbp), %eax
	addl	$1, %eax
	movl	%eax, -4(%rbp)
	jmp	.LBB19_13
.LBB19_16:                              # %for.end56
                                        #   in Loop: Header=BB19_11 Depth=1
	jmp	.LBB19_17
.LBB19_17:                              # %for.inc57
                                        #   in Loop: Header=BB19_11 Depth=1
	movl	-8(%rbp), %eax
	addl	$1, %eax
	movl	%eax, -8(%rbp)
	jmp	.LBB19_11
.LBB19_18:                              # %for.end59
	jmp	.LBB19_19
.LBB19_19:                              # %if.end
	cmpl	$331541325, -36(%rbp)   # imm = 0x13C2EB4D
	jne	.LBB19_21
.LBB19_20:
	addq	$48, %rsp
	popq	%rbp
	.cfi_def_cfa %rsp, 8
	retq
.LBB19_21:                              # %func_exit
	.cfi_def_cfa %rbp, 16
	callq	detect_breach
	jmp	.LBB19_20
.Lfunc_end19:
	.size	compute_residue_b8block.9, .Lfunc_end19-compute_residue_b8block.9
	.cfi_endproc
                                        # -- End function
	.globl	Conceal_Error.10        # -- Begin function Conceal_Error.10
	.p2align	4, 0x90
	.type	Conceal_Error.10,@function
Conceal_Error.10:                       # @Conceal_Error.10
	.cfi_startproc
# %bb.0:                                # %entry
	pushq	%rbp
	.cfi_def_cfa_offset 16
	.cfi_offset %rbp, -16
	movq	%rsp, %rbp
	.cfi_def_cfa_register %rbp
	subq	$1248, %rsp             # imm = 0x4E0
	xorl	%r9d, %r9d
	movl	$1818193333, -68(%rbp)  # imm = 0x6C5F6DB5
	movq	%rdi, -48(%rbp)
	movl	%esi, -24(%rbp)
	movl	%edx, -20(%rbp)
	movq	%rcx, -56(%rbp)
	movq	%r8, -88(%rbp)
	movq	img, %rax
	movl	(%rax), %eax
	subl	start_frame_no_in_this_IGOP, %eax
	subl	$1, %eax
	movq	img, %rcx
	cltd
	idivl	32(%rcx)
	movl	%edx, -36(%rbp)
	movl	-24(%rbp), %eax
	shll	$4, %eax
	movl	%eax, -32(%rbp)
	movl	-20(%rbp), %eax
	shll	$4, %eax
	movl	%eax, -28(%rbp)
	movq	decs, %rax
	movq	48(%rax), %rax
	movslq	-20(%rbp), %rcx
	movq	(%rax,%rcx,8), %rax
	movslq	-24(%rbp), %rcx
	movzbl	(%rax,%rcx), %eax
	cmpl	$0, %eax
	jne	.LBB20_6
# %bb.1:                                # %land.rhs
	movq	img, %rax
	cmpl	$0, 24(%rax)
	movb	$1, %r9b
	je	.LBB20_5
# %bb.2:                                # %lor.rhs
	xorl	%r9d, %r9d
	movq	img, %rax
	cmpl	$1, 24(%rax)
	jne	.LBB20_4
# %bb.3:                                # %land.rhs11
	movq	img, %rax
	cmpl	$0, 72496(%rax)
	setg	%r9b
.LBB20_4:                               # %land.end
.LBB20_5:                               # %lor.end
.LBB20_6:                               # %land.end14
	andb	$1, %r9b
	movzbl	%r9b, %eax
	movl	%eax, -64(%rbp)
	movq	decs, %rax
	movq	48(%rax), %rax
	movslq	-20(%rbp), %rcx
	movq	(%rax,%rcx,8), %rax
	movslq	-24(%rbp), %rcx
	movzbl	(%rax,%rcx), %eax
	cmpl	$1, %eax
	jl	.LBB20_8
# %bb.7:                                # %land.lhs.true
	movq	decs, %rax
	movq	48(%rax), %rax
	movslq	-20(%rbp), %rcx
	movq	(%rax,%rcx,8), %rax
	movslq	-24(%rbp), %rcx
	movzbl	(%rax,%rcx), %eax
	cmpl	$3, %eax
	jle	.LBB20_9
.LBB20_8:                               # %lor.lhs.false
	xorl	%eax, %eax
	movq	decs, %rcx
	movq	48(%rcx), %rcx
	movslq	-20(%rbp), %rdx
	movq	(%rcx,%rdx,8), %rcx
	movslq	-24(%rbp), %rdx
	movzbl	(%rcx,%rdx), %ecx
	cmpl	$8, %ecx
	jne	.LBB20_14
.LBB20_9:                               # %land.rhs39
	movq	img, %rax
	cmpl	$0, 24(%rax)
	movb	$1, %al
	je	.LBB20_13
# %bb.10:                               # %lor.rhs43
	xorl	%eax, %eax
	movq	img, %rcx
	cmpl	$1, 24(%rcx)
	jne	.LBB20_12
# %bb.11:                               # %land.rhs47
	movq	img, %rax
	cmpl	$0, 72496(%rax)
	setg	%al
.LBB20_12:                              # %land.end51
.LBB20_13:                              # %lor.end53
.LBB20_14:                              # %land.end54
	movzbl	%al, %eax
	andl	$1, %eax
	movl	%eax, -60(%rbp)
	movq	enc_picture(%rip), %rax
	movq	6504(%rax), %rax
	movq	(%rax), %rax
	movq	%rax, -80(%rbp)
	movq	-88(%rbp), %rax
	movslq	-24(%rbp), %rcx
	movq	(%rax,%rcx,8), %rax
	movslq	-20(%rbp), %rcx
	movzbl	(%rax,%rcx), %eax
	addl	$-1, %eax
	movl	%eax, %ecx
	subl	$4, %ecx
	ja	.LBB20_180
# %bb.15:                               # %land.end54
	movq	.LJTI20_0(,%rax,8), %rax
	jmpq	*%rax
.LBB20_16:                              # %sw.bb
	movq	img, %rax
	cmpl	$2, 24(%rax)
	je	.LBB20_26
# %bb.17:                               # %if.then
	movl	$0, -8(%rbp)
.LBB20_18:                              # %for.cond
                                        # =>This Loop Header: Depth=1
                                        #     Child Loop BB20_20 Depth 2
	cmpl	$16, -8(%rbp)
	jge	.LBB20_25
# %bb.19:                               # %for.body
                                        #   in Loop: Header=BB20_18 Depth=1
	movl	$0, -4(%rbp)
.LBB20_20:                              # %for.cond68
                                        #   Parent Loop BB20_18 Depth=1
                                        # =>  This Inner Loop Header: Depth=2
	cmpl	$16, -4(%rbp)
	jge	.LBB20_23
# %bb.21:                               # %for.body71
                                        #   in Loop: Header=BB20_20 Depth=2
	movq	-56(%rbp), %rax
	movslq	-36(%rbp), %rcx
	movq	(%rax,%rcx,8), %rax
	movl	-32(%rbp), %ecx
	addl	-8(%rbp), %ecx
	movslq	%ecx, %rcx
	movq	(%rax,%rcx,8), %rax
	movl	-28(%rbp), %ecx
	addl	-4(%rbp), %ecx
	movslq	%ecx, %rcx
	movw	(%rax,%rcx,2), %ax
	movq	-48(%rbp), %rcx
	movl	-32(%rbp), %edx
	addl	-8(%rbp), %edx
	movslq	%edx, %rdx
	movq	(%rcx,%rdx,8), %rcx
	movl	-28(%rbp), %edx
	addl	-4(%rbp), %edx
	movslq	%edx, %rdx
	movw	%ax, (%rcx,%rdx,2)
# %bb.22:                               # %for.inc
                                        #   in Loop: Header=BB20_20 Depth=2
	movl	-4(%rbp), %eax
	addl	$1, %eax
	movl	%eax, -4(%rbp)
	jmp	.LBB20_20
.LBB20_23:                              # %for.end
                                        #   in Loop: Header=BB20_18 Depth=1
	jmp	.LBB20_24
.LBB20_24:                              # %for.inc85
                                        #   in Loop: Header=BB20_18 Depth=1
	movl	-8(%rbp), %eax
	addl	$1, %eax
	movl	%eax, -8(%rbp)
	jmp	.LBB20_18
.LBB20_25:                              # %for.end87
	jmp	.LBB20_35
.LBB20_26:                              # %if.else
	movl	$0, -8(%rbp)
.LBB20_27:                              # %for.cond88
                                        # =>This Loop Header: Depth=1
                                        #     Child Loop BB20_29 Depth 2
	cmpl	$16, -8(%rbp)
	jge	.LBB20_34
# %bb.28:                               # %for.body91
                                        #   in Loop: Header=BB20_27 Depth=1
	movl	$0, -4(%rbp)
.LBB20_29:                              # %for.cond92
                                        #   Parent Loop BB20_27 Depth=1
                                        # =>  This Inner Loop Header: Depth=2
	cmpl	$16, -4(%rbp)
	jge	.LBB20_32
# %bb.30:                               # %for.body95
                                        #   in Loop: Header=BB20_29 Depth=2
	movq	-48(%rbp), %rax
	movl	-32(%rbp), %ecx
	addl	-8(%rbp), %ecx
	movslq	%ecx, %rcx
	movq	(%rax,%rcx,8), %rax
	movl	-28(%rbp), %ecx
	addl	-4(%rbp), %ecx
	movslq	%ecx, %rcx
	movw	$127, (%rax,%rcx,2)
# %bb.31:                               # %for.inc102
                                        #   in Loop: Header=BB20_29 Depth=2
	movl	-4(%rbp), %eax
	addl	$1, %eax
	movl	%eax, -4(%rbp)
	jmp	.LBB20_29
.LBB20_32:                              # %for.end104
                                        #   in Loop: Header=BB20_27 Depth=1
	jmp	.LBB20_33
.LBB20_33:                              # %for.inc105
                                        #   in Loop: Header=BB20_27 Depth=1
	movl	-8(%rbp), %eax
	addl	$1, %eax
	movl	%eax, -8(%rbp)
	jmp	.LBB20_27
.LBB20_34:                              # %for.end107
	jmp	.LBB20_35
.LBB20_35:                              # %if.end
	jmp	.LBB20_180
.LBB20_36:                              # %sw.bb108
	movl	$0, -16(%rbp)
.LBB20_37:                              # %for.cond109
                                        # =>This Loop Header: Depth=1
                                        #     Child Loop BB20_39 Depth 2
                                        #       Child Loop BB20_41 Depth 3
	cmpl	$4, -16(%rbp)
	jge	.LBB20_48
# %bb.38:                               # %for.body112
                                        #   in Loop: Header=BB20_37 Depth=1
	movl	$0, -12(%rbp)
.LBB20_39:                              # %for.cond113
                                        #   Parent Loop BB20_37 Depth=1
                                        # =>  This Loop Header: Depth=2
                                        #       Child Loop BB20_41 Depth 3
	cmpl	$4, -12(%rbp)
	jge	.LBB20_46
# %bb.40:                               # %for.body116
                                        #   in Loop: Header=BB20_39 Depth=2
	movl	$0, -4(%rbp)
.LBB20_41:                              # %for.cond117
                                        #   Parent Loop BB20_37 Depth=1
                                        #     Parent Loop BB20_39 Depth=2
                                        # =>    This Inner Loop Header: Depth=3
	cmpl	$2, -4(%rbp)
	jge	.LBB20_44
# %bb.42:                               # %for.body120
                                        #   in Loop: Header=BB20_41 Depth=3
	movq	-80(%rbp), %rax
	movl	-20(%rbp), %ecx
	shll	$2, %ecx
	addl	-12(%rbp), %ecx
	addl	$4, %ecx
	movslq	%ecx, %rcx
	movq	(%rax,%rcx,8), %rax
	movl	-24(%rbp), %ecx
	shll	$2, %ecx
	addl	-16(%rbp), %ecx
	movslq	%ecx, %rcx
	movq	(%rax,%rcx,8), %rax
	movslq	-4(%rbp), %rcx
	movswl	(%rax,%rcx,2), %eax
	movslq	-4(%rbp), %rcx
	shlq	$6, %rcx
	leaq	-224(%rbp), %rdx
	addq	%rcx, %rdx
	movslq	-16(%rbp), %rcx
	shlq	$4, %rcx
	addq	%rcx, %rdx
	movslq	-12(%rbp), %rcx
	movl	%eax, (%rdx,%rcx,4)
# %bb.43:                               # %for.inc139
                                        #   in Loop: Header=BB20_41 Depth=3
	movl	-4(%rbp), %eax
	addl	$1, %eax
	movl	%eax, -4(%rbp)
	jmp	.LBB20_41
.LBB20_44:                              # %for.end141
                                        #   in Loop: Header=BB20_39 Depth=2
	jmp	.LBB20_45
.LBB20_45:                              # %for.inc142
                                        #   in Loop: Header=BB20_39 Depth=2
	movl	-12(%rbp), %eax
	addl	$1, %eax
	movl	%eax, -12(%rbp)
	jmp	.LBB20_39
.LBB20_46:                              # %for.end144
                                        #   in Loop: Header=BB20_37 Depth=1
	jmp	.LBB20_47
.LBB20_47:                              # %for.inc145
                                        #   in Loop: Header=BB20_37 Depth=1
	movl	-16(%rbp), %eax
	addl	$1, %eax
	movl	%eax, -16(%rbp)
	jmp	.LBB20_37
.LBB20_48:                              # %for.end147
	movl	$0, -4(%rbp)
.LBB20_49:                              # %for.cond148
                                        # =>This Loop Header: Depth=1
                                        #     Child Loop BB20_51 Depth 2
	cmpl	$16, -4(%rbp)
	jge	.LBB20_56
# %bb.50:                               # %for.body151
                                        #   in Loop: Header=BB20_49 Depth=1
	movl	$0, -8(%rbp)
.LBB20_51:                              # %for.cond152
                                        #   Parent Loop BB20_49 Depth=1
                                        # =>  This Inner Loop Header: Depth=2
	cmpl	$16, -8(%rbp)
	jge	.LBB20_54
# %bb.52:                               # %for.body155
                                        #   in Loop: Header=BB20_51 Depth=2
	movslq	-8(%rbp), %rax
	shlq	$6, %rax
	leaq	-1248(%rbp), %rcx
	addq	%rax, %rcx
	movslq	-4(%rbp), %rax
	movl	$0, (%rcx,%rax,4)
# %bb.53:                               # %for.inc160
                                        #   in Loop: Header=BB20_51 Depth=2
	movl	-8(%rbp), %eax
	addl	$1, %eax
	movl	%eax, -8(%rbp)
	jmp	.LBB20_51
.LBB20_54:                              # %for.end162
                                        #   in Loop: Header=BB20_49 Depth=1
	jmp	.LBB20_55
.LBB20_55:                              # %for.inc163
                                        #   in Loop: Header=BB20_49 Depth=1
	movl	-4(%rbp), %eax
	addl	$1, %eax
	movl	%eax, -4(%rbp)
	jmp	.LBB20_49
.LBB20_56:                              # %for.end165
	movq	img, %rax
	cmpl	$2, 24(%rax)
	je	.LBB20_96
# %bb.57:                               # %if.then169
	cmpl	$0, -64(%rbp)
	je	.LBB20_67
# %bb.58:                               # %if.then170
	movl	$0, -8(%rbp)
.LBB20_59:                              # %for.cond171
                                        # =>This Loop Header: Depth=1
                                        #     Child Loop BB20_61 Depth 2
	cmpl	$16, -8(%rbp)
	jge	.LBB20_66
# %bb.60:                               # %for.body174
                                        #   in Loop: Header=BB20_59 Depth=1
	movl	$0, -4(%rbp)
.LBB20_61:                              # %for.cond175
                                        #   Parent Loop BB20_59 Depth=1
                                        # =>  This Inner Loop Header: Depth=2
	cmpl	$16, -4(%rbp)
	jge	.LBB20_64
# %bb.62:                               # %for.body178
                                        #   in Loop: Header=BB20_61 Depth=2
	movq	-56(%rbp), %rax
	movslq	-36(%rbp), %rcx
	movq	(%rax,%rcx,8), %rax
	movl	-32(%rbp), %ecx
	addl	-8(%rbp), %ecx
	movslq	%ecx, %rcx
	movq	(%rax,%rcx,8), %rax
	movl	-28(%rbp), %ecx
	addl	-4(%rbp), %ecx
	movslq	%ecx, %rcx
	movw	(%rax,%rcx,2), %ax
	movq	-48(%rbp), %rcx
	movl	-32(%rbp), %edx
	addl	-8(%rbp), %edx
	movslq	%edx, %rdx
	movq	(%rcx,%rdx,8), %rcx
	movl	-28(%rbp), %edx
	addl	-4(%rbp), %edx
	movslq	%edx, %rdx
	movw	%ax, (%rcx,%rdx,2)
# %bb.63:                               # %for.inc193
                                        #   in Loop: Header=BB20_61 Depth=2
	movl	-4(%rbp), %eax
	addl	$1, %eax
	movl	%eax, -4(%rbp)
	jmp	.LBB20_61
.LBB20_64:                              # %for.end195
                                        #   in Loop: Header=BB20_59 Depth=1
	jmp	.LBB20_65
.LBB20_65:                              # %for.inc196
                                        #   in Loop: Header=BB20_59 Depth=1
	movl	-8(%rbp), %eax
	addl	$1, %eax
	movl	%eax, -8(%rbp)
	jmp	.LBB20_59
.LBB20_66:                              # %for.end198
	jmp	.LBB20_95
.LBB20_67:                              # %if.else199
	cmpl	$0, -60(%rbp)
	je	.LBB20_85
# %bb.68:                               # %if.then201
	movl	-24(%rbp), %eax
	shll	$2, %eax
	movl	%eax, -16(%rbp)
.LBB20_69:                              # %for.cond203
                                        # =>This Loop Header: Depth=1
                                        #     Child Loop BB20_71 Depth 2
                                        #       Child Loop BB20_73 Depth 3
                                        #         Child Loop BB20_75 Depth 4
	movl	-16(%rbp), %eax
	movl	-24(%rbp), %ecx
	shll	$2, %ecx
	addl	$4, %ecx
	cmpl	%ecx, %eax
	jge	.LBB20_84
# %bb.70:                               # %for.body208
                                        #   in Loop: Header=BB20_69 Depth=1
	movl	-20(%rbp), %eax
	shll	$2, %eax
	movl	%eax, -12(%rbp)
.LBB20_71:                              # %for.cond210
                                        #   Parent Loop BB20_69 Depth=1
                                        # =>  This Loop Header: Depth=2
                                        #       Child Loop BB20_73 Depth 3
                                        #         Child Loop BB20_75 Depth 4
	movl	-12(%rbp), %eax
	movl	-20(%rbp), %ecx
	shll	$2, %ecx
	addl	$4, %ecx
	cmpl	%ecx, %eax
	jge	.LBB20_82
# %bb.72:                               # %for.body215
                                        #   in Loop: Header=BB20_71 Depth=2
	leaq	-224(%rbp), %r8
	movq	-56(%rbp), %rcx
	movslq	-36(%rbp), %rdx
	movq	(%rcx,%rdx,8), %rdi
	movl	-16(%rbp), %esi
	movl	-12(%rbp), %edx
	movl	-16(%rbp), %ecx
	movl	-24(%rbp), %eax
	shll	$2, %eax
	subl	%eax, %ecx
	movslq	%ecx, %rax
	shlq	$4, %rax
	movq	%r8, %r9
	addq	%rax, %r9
	movl	-12(%rbp), %eax
	movl	-20(%rbp), %ecx
	shll	$2, %ecx
	subl	%ecx, %eax
	cltq
	movl	(%r9,%rax,4), %ecx
	addq	$64, %r8
	movl	-16(%rbp), %r9d
	movl	-24(%rbp), %eax
	shll	$2, %eax
	subl	%eax, %r9d
	movslq	%r9d, %rax
	shlq	$4, %rax
	addq	%rax, %r8
	movl	-12(%rbp), %r9d
	movl	-20(%rbp), %eax
	shll	$2, %eax
	subl	%eax, %r9d
	movslq	%r9d, %rax
	movl	(%r8,%rax,4), %r8d
	movq	decs, %rax
	movq	32(%rax), %r9
	callq	Get_Reference_Block
	movl	$0, -8(%rbp)
.LBB20_73:                              # %for.cond236
                                        #   Parent Loop BB20_69 Depth=1
                                        #     Parent Loop BB20_71 Depth=2
                                        # =>    This Loop Header: Depth=3
                                        #         Child Loop BB20_75 Depth 4
	cmpl	$4, -8(%rbp)
	jge	.LBB20_80
# %bb.74:                               # %for.body239
                                        #   in Loop: Header=BB20_73 Depth=3
	movl	$0, -4(%rbp)
.LBB20_75:                              # %for.cond240
                                        #   Parent Loop BB20_69 Depth=1
                                        #     Parent Loop BB20_71 Depth=2
                                        #       Parent Loop BB20_73 Depth=3
                                        # =>      This Inner Loop Header: Depth=4
	cmpl	$4, -4(%rbp)
	jge	.LBB20_78
# %bb.76:                               # %for.body243
                                        #   in Loop: Header=BB20_75 Depth=4
	movq	decs, %rax
	movq	32(%rax), %rax
	movslq	-8(%rbp), %rcx
	movq	(%rax,%rcx,8), %rax
	movslq	-4(%rbp), %rcx
	movw	(%rax,%rcx,2), %ax
	movq	-48(%rbp), %rcx
	movl	-16(%rbp), %edx
	shll	$2, %edx
	addl	-8(%rbp), %edx
	movslq	%edx, %rdx
	movq	(%rcx,%rdx,8), %rcx
	movl	-12(%rbp), %edx
	shll	$2, %edx
	addl	-4(%rbp), %edx
	movslq	%edx, %rdx
	movw	%ax, (%rcx,%rdx,2)
# %bb.77:                               # %for.inc257
                                        #   in Loop: Header=BB20_75 Depth=4
	movl	-4(%rbp), %eax
	addl	$1, %eax
	movl	%eax, -4(%rbp)
	jmp	.LBB20_75
.LBB20_78:                              # %for.end259
                                        #   in Loop: Header=BB20_73 Depth=3
	jmp	.LBB20_79
.LBB20_79:                              # %for.inc260
                                        #   in Loop: Header=BB20_73 Depth=3
	movl	-8(%rbp), %eax
	addl	$1, %eax
	movl	%eax, -8(%rbp)
	jmp	.LBB20_73
.LBB20_80:                              # %for.end262
                                        #   in Loop: Header=BB20_71 Depth=2
	jmp	.LBB20_81
.LBB20_81:                              # %for.inc263
                                        #   in Loop: Header=BB20_71 Depth=2
	movl	-12(%rbp), %eax
	addl	$1, %eax
	movl	%eax, -12(%rbp)
	jmp	.LBB20_71
.LBB20_82:                              # %for.end265
                                        #   in Loop: Header=BB20_69 Depth=1
	jmp	.LBB20_83
.LBB20_83:                              # %for.inc266
                                        #   in Loop: Header=BB20_69 Depth=1
	movl	-16(%rbp), %eax
	addl	$1, %eax
	movl	%eax, -16(%rbp)
	jmp	.LBB20_69
.LBB20_84:                              # %for.end268
	jmp	.LBB20_94
.LBB20_85:                              # %if.else269
	movl	$0, -8(%rbp)
.LBB20_86:                              # %for.cond270
                                        # =>This Loop Header: Depth=1
                                        #     Child Loop BB20_88 Depth 2
	cmpl	$16, -8(%rbp)
	jge	.LBB20_93
# %bb.87:                               # %for.body273
                                        #   in Loop: Header=BB20_86 Depth=1
	movl	$0, -4(%rbp)
.LBB20_88:                              # %for.cond274
                                        #   Parent Loop BB20_86 Depth=1
                                        # =>  This Inner Loop Header: Depth=2
	cmpl	$16, -4(%rbp)
	jge	.LBB20_91
# %bb.89:                               # %for.body277
                                        #   in Loop: Header=BB20_88 Depth=2
	movq	-56(%rbp), %rax
	movslq	-36(%rbp), %rcx
	movq	(%rax,%rcx,8), %rax
	movl	-32(%rbp), %ecx
	addl	-8(%rbp), %ecx
	movslq	%ecx, %rcx
	movq	(%rax,%rcx,8), %rax
	movl	-28(%rbp), %ecx
	addl	-4(%rbp), %ecx
	movslq	%ecx, %rcx
	movw	(%rax,%rcx,2), %ax
	movq	-48(%rbp), %rcx
	movl	-32(%rbp), %edx
	addl	-8(%rbp), %edx
	movslq	%edx, %rdx
	movq	(%rcx,%rdx,8), %rcx
	movl	-28(%rbp), %edx
	addl	-4(%rbp), %edx
	movslq	%edx, %rdx
	movw	%ax, (%rcx,%rdx,2)
# %bb.90:                               # %for.inc292
                                        #   in Loop: Header=BB20_88 Depth=2
	movl	-4(%rbp), %eax
	addl	$1, %eax
	movl	%eax, -4(%rbp)
	jmp	.LBB20_88
.LBB20_91:                              # %for.end294
                                        #   in Loop: Header=BB20_86 Depth=1
	jmp	.LBB20_92
.LBB20_92:                              # %for.inc295
                                        #   in Loop: Header=BB20_86 Depth=1
	movl	-8(%rbp), %eax
	addl	$1, %eax
	movl	%eax, -8(%rbp)
	jmp	.LBB20_86
.LBB20_93:                              # %for.end297
	jmp	.LBB20_94
.LBB20_94:                              # %if.end298
	jmp	.LBB20_95
.LBB20_95:                              # %if.end299
	jmp	.LBB20_105
.LBB20_96:                              # %if.else300
	movl	$0, -8(%rbp)
.LBB20_97:                              # %for.cond301
                                        # =>This Loop Header: Depth=1
                                        #     Child Loop BB20_99 Depth 2
	cmpl	$16, -8(%rbp)
	jge	.LBB20_104
# %bb.98:                               # %for.body304
                                        #   in Loop: Header=BB20_97 Depth=1
	movl	$0, -4(%rbp)
.LBB20_99:                              # %for.cond305
                                        #   Parent Loop BB20_97 Depth=1
                                        # =>  This Inner Loop Header: Depth=2
	cmpl	$16, -4(%rbp)
	jge	.LBB20_102
# %bb.100:                              # %for.body308
                                        #   in Loop: Header=BB20_99 Depth=2
	movq	-48(%rbp), %rax
	movl	-32(%rbp), %ecx
	addl	-8(%rbp), %ecx
	movslq	%ecx, %rcx
	movq	(%rax,%rcx,8), %rax
	movl	-28(%rbp), %ecx
	addl	-4(%rbp), %ecx
	movslq	%ecx, %rcx
	movw	$127, (%rax,%rcx,2)
# %bb.101:                              # %for.inc315
                                        #   in Loop: Header=BB20_99 Depth=2
	movl	-4(%rbp), %eax
	addl	$1, %eax
	movl	%eax, -4(%rbp)
	jmp	.LBB20_99
.LBB20_102:                             # %for.end317
                                        #   in Loop: Header=BB20_97 Depth=1
	jmp	.LBB20_103
.LBB20_103:                             # %for.inc318
                                        #   in Loop: Header=BB20_97 Depth=1
	movl	-8(%rbp), %eax
	addl	$1, %eax
	movl	%eax, -8(%rbp)
	jmp	.LBB20_97
.LBB20_104:                             # %for.end320
	jmp	.LBB20_105
.LBB20_105:                             # %if.end321
	jmp	.LBB20_180
.LBB20_106:                             # %sw.bb322
	movq	img, %rax
	cmpl	$2, 24(%rax)
	je	.LBB20_157
# %bb.107:                              # %if.then326
	movl	$0, -16(%rbp)
.LBB20_108:                             # %for.cond327
                                        # =>This Loop Header: Depth=1
                                        #     Child Loop BB20_110 Depth 2
                                        #       Child Loop BB20_112 Depth 3
	cmpl	$4, -16(%rbp)
	jge	.LBB20_119
# %bb.109:                              # %for.body330
                                        #   in Loop: Header=BB20_108 Depth=1
	movl	$0, -12(%rbp)
.LBB20_110:                             # %for.cond331
                                        #   Parent Loop BB20_108 Depth=1
                                        # =>  This Loop Header: Depth=2
                                        #       Child Loop BB20_112 Depth 3
	cmpl	$4, -12(%rbp)
	jge	.LBB20_117
# %bb.111:                              # %for.body334
                                        #   in Loop: Header=BB20_110 Depth=2
	movl	$0, -4(%rbp)
.LBB20_112:                             # %for.cond335
                                        #   Parent Loop BB20_108 Depth=1
                                        #     Parent Loop BB20_110 Depth=2
                                        # =>    This Inner Loop Header: Depth=3
	cmpl	$2, -4(%rbp)
	jge	.LBB20_115
# %bb.113:                              # %for.body338
                                        #   in Loop: Header=BB20_112 Depth=3
	movq	-80(%rbp), %rax
	movl	-20(%rbp), %ecx
	shll	$2, %ecx
	addl	-12(%rbp), %ecx
	addl	$4, %ecx
	movslq	%ecx, %rcx
	movq	(%rax,%rcx,8), %rax
	movl	-24(%rbp), %ecx
	shll	$2, %ecx
	addl	-16(%rbp), %ecx
	movslq	%ecx, %rcx
	movq	(%rax,%rcx,8), %rax
	movslq	-4(%rbp), %rcx
	movswl	(%rax,%rcx,2), %eax
	movslq	-4(%rbp), %rcx
	shlq	$6, %rcx
	leaq	-224(%rbp), %rdx
	addq	%rcx, %rdx
	movslq	-16(%rbp), %rcx
	shlq	$4, %rcx
	addq	%rcx, %rdx
	movslq	-12(%rbp), %rcx
	movl	%eax, (%rdx,%rcx,4)
# %bb.114:                              # %for.inc357
                                        #   in Loop: Header=BB20_112 Depth=3
	movl	-4(%rbp), %eax
	addl	$1, %eax
	movl	%eax, -4(%rbp)
	jmp	.LBB20_112
.LBB20_115:                             # %for.end359
                                        #   in Loop: Header=BB20_110 Depth=2
	jmp	.LBB20_116
.LBB20_116:                             # %for.inc360
                                        #   in Loop: Header=BB20_110 Depth=2
	movl	-12(%rbp), %eax
	addl	$1, %eax
	movl	%eax, -12(%rbp)
	jmp	.LBB20_110
.LBB20_117:                             # %for.end362
                                        #   in Loop: Header=BB20_108 Depth=1
	jmp	.LBB20_118
.LBB20_118:                             # %for.inc363
                                        #   in Loop: Header=BB20_108 Depth=1
	movl	-16(%rbp), %eax
	addl	$1, %eax
	movl	%eax, -16(%rbp)
	jmp	.LBB20_108
.LBB20_119:                             # %for.end365
	movl	$0, -4(%rbp)
.LBB20_120:                             # %for.cond366
                                        # =>This Loop Header: Depth=1
                                        #     Child Loop BB20_122 Depth 2
	cmpl	$16, -4(%rbp)
	jge	.LBB20_127
# %bb.121:                              # %for.body369
                                        #   in Loop: Header=BB20_120 Depth=1
	movl	$0, -8(%rbp)
.LBB20_122:                             # %for.cond370
                                        #   Parent Loop BB20_120 Depth=1
                                        # =>  This Inner Loop Header: Depth=2
	cmpl	$16, -8(%rbp)
	jge	.LBB20_125
# %bb.123:                              # %for.body373
                                        #   in Loop: Header=BB20_122 Depth=2
	movslq	-8(%rbp), %rax
	shlq	$6, %rax
	leaq	-1248(%rbp), %rcx
	addq	%rax, %rcx
	movslq	-4(%rbp), %rax
	movl	$0, (%rcx,%rax,4)
# %bb.124:                              # %for.inc378
                                        #   in Loop: Header=BB20_122 Depth=2
	movl	-8(%rbp), %eax
	addl	$1, %eax
	movl	%eax, -8(%rbp)
	jmp	.LBB20_122
.LBB20_125:                             # %for.end380
                                        #   in Loop: Header=BB20_120 Depth=1
	jmp	.LBB20_126
.LBB20_126:                             # %for.inc381
                                        #   in Loop: Header=BB20_120 Depth=1
	movl	-4(%rbp), %eax
	addl	$1, %eax
	movl	%eax, -4(%rbp)
	jmp	.LBB20_120
.LBB20_127:                             # %for.end383
	cmpl	$0, -64(%rbp)
	je	.LBB20_137
# %bb.128:                              # %if.then385
	movl	$0, -8(%rbp)
.LBB20_129:                             # %for.cond386
                                        # =>This Loop Header: Depth=1
                                        #     Child Loop BB20_131 Depth 2
	cmpl	$16, -8(%rbp)
	jge	.LBB20_136
# %bb.130:                              # %for.body389
                                        #   in Loop: Header=BB20_129 Depth=1
	movl	$0, -4(%rbp)
.LBB20_131:                             # %for.cond390
                                        #   Parent Loop BB20_129 Depth=1
                                        # =>  This Inner Loop Header: Depth=2
	cmpl	$16, -4(%rbp)
	jge	.LBB20_134
# %bb.132:                              # %for.body393
                                        #   in Loop: Header=BB20_131 Depth=2
	movq	-56(%rbp), %rax
	movslq	-36(%rbp), %rcx
	movq	(%rax,%rcx,8), %rax
	movl	-32(%rbp), %ecx
	addl	-8(%rbp), %ecx
	movslq	%ecx, %rcx
	movq	(%rax,%rcx,8), %rax
	movl	-28(%rbp), %ecx
	addl	-4(%rbp), %ecx
	movslq	%ecx, %rcx
	movw	(%rax,%rcx,2), %ax
	movq	-48(%rbp), %rcx
	movl	-32(%rbp), %edx
	addl	-8(%rbp), %edx
	movslq	%edx, %rdx
	movq	(%rcx,%rdx,8), %rcx
	movl	-28(%rbp), %edx
	addl	-4(%rbp), %edx
	movslq	%edx, %rdx
	movw	%ax, (%rcx,%rdx,2)
# %bb.133:                              # %for.inc408
                                        #   in Loop: Header=BB20_131 Depth=2
	movl	-4(%rbp), %eax
	addl	$1, %eax
	movl	%eax, -4(%rbp)
	jmp	.LBB20_131
.LBB20_134:                             # %for.end410
                                        #   in Loop: Header=BB20_129 Depth=1
	jmp	.LBB20_135
.LBB20_135:                             # %for.inc411
                                        #   in Loop: Header=BB20_129 Depth=1
	movl	-8(%rbp), %eax
	addl	$1, %eax
	movl	%eax, -8(%rbp)
	jmp	.LBB20_129
.LBB20_136:                             # %for.end413
	jmp	.LBB20_156
.LBB20_137:                             # %if.else414
	cmpl	$0, -60(%rbp)
	je	.LBB20_155
# %bb.138:                              # %if.then416
	movl	-24(%rbp), %eax
	shll	$2, %eax
	movl	%eax, -16(%rbp)
.LBB20_139:                             # %for.cond418
                                        # =>This Loop Header: Depth=1
                                        #     Child Loop BB20_141 Depth 2
                                        #       Child Loop BB20_143 Depth 3
                                        #         Child Loop BB20_145 Depth 4
	movl	-16(%rbp), %eax
	movl	-24(%rbp), %ecx
	shll	$2, %ecx
	addl	$4, %ecx
	cmpl	%ecx, %eax
	jge	.LBB20_154
# %bb.140:                              # %for.body423
                                        #   in Loop: Header=BB20_139 Depth=1
	movl	-20(%rbp), %eax
	shll	$2, %eax
	movl	%eax, -12(%rbp)
.LBB20_141:                             # %for.cond425
                                        #   Parent Loop BB20_139 Depth=1
                                        # =>  This Loop Header: Depth=2
                                        #       Child Loop BB20_143 Depth 3
                                        #         Child Loop BB20_145 Depth 4
	movl	-12(%rbp), %eax
	movl	-20(%rbp), %ecx
	shll	$2, %ecx
	addl	$4, %ecx
	cmpl	%ecx, %eax
	jge	.LBB20_152
# %bb.142:                              # %for.body430
                                        #   in Loop: Header=BB20_141 Depth=2
	leaq	-224(%rbp), %r8
	movq	-56(%rbp), %rcx
	movslq	-36(%rbp), %rdx
	movq	(%rcx,%rdx,8), %rdi
	movl	-16(%rbp), %esi
	movl	-12(%rbp), %edx
	movl	-16(%rbp), %ecx
	movl	-24(%rbp), %eax
	shll	$2, %eax
	subl	%eax, %ecx
	movslq	%ecx, %rax
	shlq	$4, %rax
	movq	%r8, %r9
	addq	%rax, %r9
	movl	-12(%rbp), %eax
	movl	-20(%rbp), %ecx
	shll	$2, %ecx
	subl	%ecx, %eax
	cltq
	movl	(%r9,%rax,4), %ecx
	addq	$64, %r8
	movl	-16(%rbp), %r9d
	movl	-24(%rbp), %eax
	shll	$2, %eax
	subl	%eax, %r9d
	movslq	%r9d, %rax
	shlq	$4, %rax
	addq	%rax, %r8
	movl	-12(%rbp), %r9d
	movl	-20(%rbp), %eax
	shll	$2, %eax
	subl	%eax, %r9d
	movslq	%r9d, %rax
	movl	(%r8,%rax,4), %r8d
	movq	decs, %rax
	movq	32(%rax), %r9
	callq	Get_Reference_Block
	movl	$0, -8(%rbp)
.LBB20_143:                             # %for.cond452
                                        #   Parent Loop BB20_139 Depth=1
                                        #     Parent Loop BB20_141 Depth=2
                                        # =>    This Loop Header: Depth=3
                                        #         Child Loop BB20_145 Depth 4
	cmpl	$4, -8(%rbp)
	jge	.LBB20_150
# %bb.144:                              # %for.body455
                                        #   in Loop: Header=BB20_143 Depth=3
	movl	$0, -4(%rbp)
.LBB20_145:                             # %for.cond456
                                        #   Parent Loop BB20_139 Depth=1
                                        #     Parent Loop BB20_141 Depth=2
                                        #       Parent Loop BB20_143 Depth=3
                                        # =>      This Inner Loop Header: Depth=4
	cmpl	$4, -4(%rbp)
	jge	.LBB20_148
# %bb.146:                              # %for.body459
                                        #   in Loop: Header=BB20_145 Depth=4
	movq	decs, %rax
	movq	32(%rax), %rax
	movslq	-8(%rbp), %rcx
	movq	(%rax,%rcx,8), %rax
	movslq	-4(%rbp), %rcx
	movw	(%rax,%rcx,2), %ax
	movq	-48(%rbp), %rcx
	movl	-16(%rbp), %edx
	shll	$2, %edx
	addl	-8(%rbp), %edx
	movslq	%edx, %rdx
	movq	(%rcx,%rdx,8), %rcx
	movl	-12(%rbp), %edx
	shll	$2, %edx
	addl	-4(%rbp), %edx
	movslq	%edx, %rdx
	movw	%ax, (%rcx,%rdx,2)
# %bb.147:                              # %for.inc473
                                        #   in Loop: Header=BB20_145 Depth=4
	movl	-4(%rbp), %eax
	addl	$1, %eax
	movl	%eax, -4(%rbp)
	jmp	.LBB20_145
.LBB20_148:                             # %for.end475
                                        #   in Loop: Header=BB20_143 Depth=3
	jmp	.LBB20_149
.LBB20_149:                             # %for.inc476
                                        #   in Loop: Header=BB20_143 Depth=3
	movl	-8(%rbp), %eax
	addl	$1, %eax
	movl	%eax, -8(%rbp)
	jmp	.LBB20_143
.LBB20_150:                             # %for.end478
                                        #   in Loop: Header=BB20_141 Depth=2
	jmp	.LBB20_151
.LBB20_151:                             # %for.inc479
                                        #   in Loop: Header=BB20_141 Depth=2
	movl	-12(%rbp), %eax
	addl	$1, %eax
	movl	%eax, -12(%rbp)
	jmp	.LBB20_141
.LBB20_152:                             # %for.end481
                                        #   in Loop: Header=BB20_139 Depth=1
	jmp	.LBB20_153
.LBB20_153:                             # %for.inc482
                                        #   in Loop: Header=BB20_139 Depth=1
	movl	-16(%rbp), %eax
	addl	$1, %eax
	movl	%eax, -16(%rbp)
	jmp	.LBB20_139
.LBB20_154:                             # %for.end484
	jmp	.LBB20_155
.LBB20_155:                             # %if.end485
	jmp	.LBB20_156
.LBB20_156:                             # %if.end486
	jmp	.LBB20_157
.LBB20_157:                             # %if.end487
	jmp	.LBB20_180
.LBB20_158:                             # %sw.bb488
	movq	img, %rax
	cmpl	$2, 24(%rax)
	je	.LBB20_170
# %bb.159:                              # %if.then492
	cmpl	$0, -60(%rbp)
	jne	.LBB20_169
# %bb.160:                              # %if.then494
	movl	$0, -8(%rbp)
.LBB20_161:                             # %for.cond495
                                        # =>This Loop Header: Depth=1
                                        #     Child Loop BB20_163 Depth 2
	cmpl	$16, -8(%rbp)
	jge	.LBB20_168
# %bb.162:                              # %for.body498
                                        #   in Loop: Header=BB20_161 Depth=1
	movl	$0, -4(%rbp)
.LBB20_163:                             # %for.cond499
                                        #   Parent Loop BB20_161 Depth=1
                                        # =>  This Inner Loop Header: Depth=2
	cmpl	$16, -4(%rbp)
	jge	.LBB20_166
# %bb.164:                              # %for.body502
                                        #   in Loop: Header=BB20_163 Depth=2
	movq	-56(%rbp), %rax
	movslq	-36(%rbp), %rcx
	movq	(%rax,%rcx,8), %rax
	movl	-32(%rbp), %ecx
	addl	-8(%rbp), %ecx
	movslq	%ecx, %rcx
	movq	(%rax,%rcx,8), %rax
	movl	-28(%rbp), %ecx
	addl	-4(%rbp), %ecx
	movslq	%ecx, %rcx
	movw	(%rax,%rcx,2), %ax
	movq	-48(%rbp), %rcx
	movl	-32(%rbp), %edx
	addl	-8(%rbp), %edx
	movslq	%edx, %rdx
	movq	(%rcx,%rdx,8), %rcx
	movl	-28(%rbp), %edx
	addl	-4(%rbp), %edx
	movslq	%edx, %rdx
	movw	%ax, (%rcx,%rdx,2)
# %bb.165:                              # %for.inc517
                                        #   in Loop: Header=BB20_163 Depth=2
	movl	-4(%rbp), %eax
	addl	$1, %eax
	movl	%eax, -4(%rbp)
	jmp	.LBB20_163
.LBB20_166:                             # %for.end519
                                        #   in Loop: Header=BB20_161 Depth=1
	jmp	.LBB20_167
.LBB20_167:                             # %for.inc520
                                        #   in Loop: Header=BB20_161 Depth=1
	movl	-8(%rbp), %eax
	addl	$1, %eax
	movl	%eax, -8(%rbp)
	jmp	.LBB20_161
.LBB20_168:                             # %for.end522
	jmp	.LBB20_169
.LBB20_169:                             # %if.end523
	jmp	.LBB20_179
.LBB20_170:                             # %if.else524
	movl	$0, -8(%rbp)
.LBB20_171:                             # %for.cond525
                                        # =>This Loop Header: Depth=1
                                        #     Child Loop BB20_173 Depth 2
	cmpl	$16, -8(%rbp)
	jge	.LBB20_178
# %bb.172:                              # %for.body528
                                        #   in Loop: Header=BB20_171 Depth=1
	movl	$0, -4(%rbp)
.LBB20_173:                             # %for.cond529
                                        #   Parent Loop BB20_171 Depth=1
                                        # =>  This Inner Loop Header: Depth=2
	cmpl	$16, -4(%rbp)
	jge	.LBB20_176
# %bb.174:                              # %for.body532
                                        #   in Loop: Header=BB20_173 Depth=2
	movq	-48(%rbp), %rax
	movl	-32(%rbp), %ecx
	addl	-8(%rbp), %ecx
	movslq	%ecx, %rcx
	movq	(%rax,%rcx,8), %rax
	movl	-28(%rbp), %ecx
	addl	-4(%rbp), %ecx
	movslq	%ecx, %rcx
	movw	$127, (%rax,%rcx,2)
# %bb.175:                              # %for.inc539
                                        #   in Loop: Header=BB20_173 Depth=2
	movl	-4(%rbp), %eax
	addl	$1, %eax
	movl	%eax, -4(%rbp)
	jmp	.LBB20_173
.LBB20_176:                             # %for.end541
                                        #   in Loop: Header=BB20_171 Depth=1
	jmp	.LBB20_177
.LBB20_177:                             # %for.inc542
                                        #   in Loop: Header=BB20_171 Depth=1
	movl	-8(%rbp), %eax
	addl	$1, %eax
	movl	%eax, -8(%rbp)
	jmp	.LBB20_171
.LBB20_178:                             # %for.end544
	jmp	.LBB20_179
.LBB20_179:                             # %if.end545
	jmp	.LBB20_180
.LBB20_180:                             # %sw.epilog
	cmpl	$1818193333, -68(%rbp)  # imm = 0x6C5F6DB5
	jne	.LBB20_182
.LBB20_181:
	addq	$1248, %rsp             # imm = 0x4E0
	popq	%rbp
	.cfi_def_cfa %rsp, 8
	retq
.LBB20_182:                             # %func_exit
	.cfi_def_cfa %rbp, 16
	callq	detect_breach
	jmp	.LBB20_181
.Lfunc_end20:
	.size	Conceal_Error.10, .Lfunc_end20-Conceal_Error.10
	.cfi_endproc
	.section	.rodata,"a",@progbits
	.p2align	3
.LJTI20_0:
	.quad	.LBB20_16
	.quad	.LBB20_158
	.quad	.LBB20_106
	.quad	.LBB20_180
	.quad	.LBB20_36
                                        # -- End function
	.text
	.globl	decode_one_b8block.11   # -- Begin function decode_one_b8block.11
	.p2align	4, 0x90
	.type	decode_one_b8block.11,@function
decode_one_b8block.11:                  # @decode_one_b8block.11
	.cfi_startproc
# %bb.0:                                # %entry
	pushq	%rbp
	.cfi_def_cfa_offset 16
	.cfi_offset %rbp, -16
	movq	%rsp, %rbp
	.cfi_def_cfa_register %rbp
	subq	$1248, %rsp             # imm = 0x4E0
	movl	$141022191, -84(%rbp)   # imm = 0x867D3EF
	movl	%edi, -52(%rbp)
	movl	%esi, -64(%rbp)
	movl	%edx, -80(%rbp)
	movl	%ecx, -20(%rbp)
	movl	%r8d, -60(%rbp)
	movq	img, %rax
	movl	(%rax), %eax
	subl	start_frame_no_in_this_IGOP, %eax
	subl	$1, %eax
	movq	img, %rcx
	cltd
	idivl	32(%rcx)
	movl	%edx, -76(%rbp)
	movl	-80(%rbp), %eax
	cltd
	movl	$2, %ecx
	idivl	%ecx
	shll	$3, %edx
	movl	%edx, -24(%rbp)
	movl	-24(%rbp), %eax
	addl	$8, %eax
	movl	%eax, -40(%rbp)
	movl	-24(%rbp), %eax
	sarl	$2, %eax
	movl	%eax, -36(%rbp)
	movl	-36(%rbp), %eax
	addl	$2, %eax
	movl	%eax, -44(%rbp)
	movl	-80(%rbp), %eax
	cltd
	idivl	%ecx
	shll	$3, %eax
	movl	%eax, -28(%rbp)
	movl	-28(%rbp), %eax
	addl	$8, %eax
	movl	%eax, -56(%rbp)
	movl	-28(%rbp), %eax
	sarl	$2, %eax
	movl	%eax, -32(%rbp)
	movl	-32(%rbp), %eax
	addl	$2, %eax
	movl	%eax, -48(%rbp)
	movq	img, %rax
	cmpl	$2, 24(%rax)
	jne	.LBB21_10
# %bb.1:                                # %if.then
	movl	-24(%rbp), %eax
	movl	%eax, -4(%rbp)
.LBB21_2:                               # %for.cond
                                        # =>This Loop Header: Depth=1
                                        #     Child Loop BB21_4 Depth 2
	movl	-4(%rbp), %eax
	cmpl	-40(%rbp), %eax
	jge	.LBB21_9
# %bb.3:                                # %for.body
                                        #   in Loop: Header=BB21_2 Depth=1
	movl	-28(%rbp), %eax
	movl	%eax, -8(%rbp)
.LBB21_4:                               # %for.cond9
                                        #   Parent Loop BB21_2 Depth=1
                                        # =>  This Inner Loop Header: Depth=2
	movl	-8(%rbp), %eax
	cmpl	-56(%rbp), %eax
	jge	.LBB21_7
# %bb.5:                                # %for.body11
                                        #   in Loop: Header=BB21_4 Depth=2
	movq	enc_picture, %rax
	movq	6424(%rax), %rax
	movq	img, %rcx
	movl	156(%rcx), %ecx
	addl	-8(%rbp), %ecx
	movslq	%ecx, %rcx
	movq	(%rax,%rcx,8), %rax
	movq	img, %rcx
	movl	152(%rcx), %ecx
	addl	-4(%rbp), %ecx
	movslq	%ecx, %rcx
	movw	(%rax,%rcx,2), %ax
	movq	decs, %rcx
	movq	8(%rcx), %rcx
	movslq	-52(%rbp), %rdx
	movq	(%rcx,%rdx,8), %rcx
	movq	img, %rdx
	movl	156(%rdx), %edx
	addl	-8(%rbp), %edx
	movslq	%edx, %rdx
	movq	(%rcx,%rdx,8), %rcx
	movq	img, %rdx
	movl	152(%rdx), %edx
	addl	-4(%rbp), %edx
	movslq	%edx, %rdx
	movw	%ax, (%rcx,%rdx,2)
# %bb.6:                                # %for.inc
                                        #   in Loop: Header=BB21_4 Depth=2
	movl	-8(%rbp), %eax
	addl	$1, %eax
	movl	%eax, -8(%rbp)
	jmp	.LBB21_4
.LBB21_7:                               # %for.end
                                        #   in Loop: Header=BB21_2 Depth=1
	jmp	.LBB21_8
.LBB21_8:                               # %for.inc26
                                        #   in Loop: Header=BB21_2 Depth=1
	movl	-4(%rbp), %eax
	addl	$1, %eax
	movl	%eax, -4(%rbp)
	jmp	.LBB21_2
.LBB21_9:                               # %for.end28
	jmp	.LBB21_96
.LBB21_10:                              # %if.else
	cmpl	$0, -64(%rbp)
	jne	.LBB21_31
# %bb.11:                               # %land.lhs.true
	movq	img, %rax
	cmpl	$0, 24(%rax)
	je	.LBB21_14
# %bb.12:                               # %lor.lhs.false
	movq	img, %rax
	cmpl	$1, 24(%rax)
	jne	.LBB21_31
# %bb.13:                               # %land.lhs.true34
	movq	img, %rax
	cmpl	$0, 72496(%rax)
	jle	.LBB21_31
.LBB21_14:                              # %if.then36
	movl	-24(%rbp), %eax
	movl	%eax, -4(%rbp)
.LBB21_15:                              # %for.cond37
                                        # =>This Loop Header: Depth=1
                                        #     Child Loop BB21_17 Depth 2
	movl	-4(%rbp), %eax
	cmpl	-40(%rbp), %eax
	jge	.LBB21_22
# %bb.16:                               # %for.body39
                                        #   in Loop: Header=BB21_15 Depth=1
	movl	-28(%rbp), %eax
	movl	%eax, -8(%rbp)
.LBB21_17:                              # %for.cond40
                                        #   Parent Loop BB21_15 Depth=1
                                        # =>  This Inner Loop Header: Depth=2
	movl	-8(%rbp), %eax
	cmpl	-56(%rbp), %eax
	jge	.LBB21_20
# %bb.18:                               # %for.body42
                                        #   in Loop: Header=BB21_17 Depth=2
	movslq	-8(%rbp), %rax
	shlq	$6, %rax
	leaq	-1248(%rbp), %rcx
	addq	%rax, %rcx
	movslq	-4(%rbp), %rax
	movl	$0, (%rcx,%rax,4)
# %bb.19:                               # %for.inc47
                                        #   in Loop: Header=BB21_17 Depth=2
	movl	-8(%rbp), %eax
	addl	$1, %eax
	movl	%eax, -8(%rbp)
	jmp	.LBB21_17
.LBB21_20:                              # %for.end49
                                        #   in Loop: Header=BB21_15 Depth=1
	jmp	.LBB21_21
.LBB21_21:                              # %for.inc50
                                        #   in Loop: Header=BB21_15 Depth=1
	movl	-4(%rbp), %eax
	addl	$1, %eax
	movl	%eax, -4(%rbp)
	jmp	.LBB21_15
.LBB21_22:                              # %for.end52
	movl	-32(%rbp), %eax
	movl	%eax, -16(%rbp)
.LBB21_23:                              # %for.cond53
                                        # =>This Loop Header: Depth=1
                                        #     Child Loop BB21_25 Depth 2
	movl	-16(%rbp), %eax
	cmpl	-48(%rbp), %eax
	jge	.LBB21_30
# %bb.24:                               # %for.body55
                                        #   in Loop: Header=BB21_23 Depth=1
	movl	-36(%rbp), %eax
	movl	%eax, -12(%rbp)
.LBB21_25:                              # %for.cond56
                                        #   Parent Loop BB21_23 Depth=1
                                        # =>  This Inner Loop Header: Depth=2
	movl	-12(%rbp), %eax
	cmpl	-44(%rbp), %eax
	jge	.LBB21_28
# %bb.26:                               # %for.body58
                                        #   in Loop: Header=BB21_25 Depth=2
	leaq	-224(%rbp), %rax
	movq	%rax, %rcx
	addq	$64, %rcx
	movslq	-16(%rbp), %rdx
	shlq	$4, %rdx
	addq	%rdx, %rcx
	movslq	-12(%rbp), %rdx
	movl	$0, (%rcx,%rdx,4)
	movslq	-16(%rbp), %rcx
	shlq	$4, %rcx
	addq	%rcx, %rax
	movslq	-12(%rbp), %rcx
	movl	$0, (%rax,%rcx,4)
# %bb.27:                               # %for.inc69
                                        #   in Loop: Header=BB21_25 Depth=2
	movl	-12(%rbp), %eax
	addl	$1, %eax
	movl	%eax, -12(%rbp)
	jmp	.LBB21_25
.LBB21_28:                              # %for.end71
                                        #   in Loop: Header=BB21_23 Depth=1
	jmp	.LBB21_29
.LBB21_29:                              # %for.inc72
                                        #   in Loop: Header=BB21_23 Depth=1
	movl	-16(%rbp), %eax
	addl	$1, %eax
	movl	%eax, -16(%rbp)
	jmp	.LBB21_23
.LBB21_30:                              # %for.end74
	jmp	.LBB21_60
.LBB21_31:                              # %if.else75
	cmpl	$1, -20(%rbp)
	jl	.LBB21_42
# %bb.32:                               # %land.lhs.true77
	cmpl	$7, -20(%rbp)
	jg	.LBB21_42
# %bb.33:                               # %if.then79
	movl	-32(%rbp), %eax
	movl	%eax, -16(%rbp)
.LBB21_34:                              # %for.cond80
                                        # =>This Loop Header: Depth=1
                                        #     Child Loop BB21_36 Depth 2
	movl	-16(%rbp), %eax
	cmpl	-48(%rbp), %eax
	jge	.LBB21_41
# %bb.35:                               # %for.body82
                                        #   in Loop: Header=BB21_34 Depth=1
	movl	-36(%rbp), %eax
	movl	%eax, -12(%rbp)
.LBB21_36:                              # %for.cond83
                                        #   Parent Loop BB21_34 Depth=1
                                        # =>  This Inner Loop Header: Depth=2
	movl	-12(%rbp), %eax
	cmpl	-44(%rbp), %eax
	jge	.LBB21_39
# %bb.37:                               # %for.body85
                                        #   in Loop: Header=BB21_36 Depth=2
	leaq	-224(%rbp), %rax
	movq	img, %rcx
	movq	71928(%rcx), %rcx
	movslq	-12(%rbp), %rdx
	movq	(%rcx,%rdx,8), %rcx
	movslq	-16(%rbp), %rdx
	movq	(%rcx,%rdx,8), %rcx
	movq	(%rcx), %rcx
	movslq	-60(%rbp), %rdx
	movq	(%rcx,%rdx,8), %rcx
	movslq	-20(%rbp), %rdx
	movq	(%rcx,%rdx,8), %rcx
	movswl	(%rcx), %ecx
	movslq	-16(%rbp), %rdx
	shlq	$4, %rdx
	movq	%rax, %rsi
	addq	%rdx, %rsi
	movslq	-12(%rbp), %rdx
	movl	%ecx, (%rsi,%rdx,4)
	movq	img, %rcx
	movq	71928(%rcx), %rcx
	movslq	-12(%rbp), %rdx
	movq	(%rcx,%rdx,8), %rcx
	movslq	-16(%rbp), %rdx
	movq	(%rcx,%rdx,8), %rcx
	movq	(%rcx), %rcx
	movslq	-60(%rbp), %rdx
	movq	(%rcx,%rdx,8), %rcx
	movslq	-20(%rbp), %rdx
	movq	(%rcx,%rdx,8), %rcx
	movswl	2(%rcx), %ecx
	addq	$64, %rax
	movslq	-16(%rbp), %rdx
	shlq	$4, %rdx
	addq	%rdx, %rax
	movslq	-12(%rbp), %rdx
	movl	%ecx, (%rax,%rdx,4)
# %bb.38:                               # %for.inc118
                                        #   in Loop: Header=BB21_36 Depth=2
	movl	-12(%rbp), %eax
	addl	$1, %eax
	movl	%eax, -12(%rbp)
	jmp	.LBB21_36
.LBB21_39:                              # %for.end120
                                        #   in Loop: Header=BB21_34 Depth=1
	jmp	.LBB21_40
.LBB21_40:                              # %for.inc121
                                        #   in Loop: Header=BB21_34 Depth=1
	movl	-16(%rbp), %eax
	addl	$1, %eax
	movl	%eax, -16(%rbp)
	jmp	.LBB21_34
.LBB21_41:                              # %for.end123
	jmp	.LBB21_51
.LBB21_42:                              # %if.else124
	movl	-32(%rbp), %eax
	movl	%eax, -16(%rbp)
.LBB21_43:                              # %for.cond125
                                        # =>This Loop Header: Depth=1
                                        #     Child Loop BB21_45 Depth 2
	movl	-16(%rbp), %eax
	cmpl	-48(%rbp), %eax
	jge	.LBB21_50
# %bb.44:                               # %for.body128
                                        #   in Loop: Header=BB21_43 Depth=1
	movl	-36(%rbp), %eax
	movl	%eax, -12(%rbp)
.LBB21_45:                              # %for.cond129
                                        #   Parent Loop BB21_43 Depth=1
                                        # =>  This Inner Loop Header: Depth=2
	movl	-12(%rbp), %eax
	cmpl	-44(%rbp), %eax
	jge	.LBB21_48
# %bb.46:                               # %for.body132
                                        #   in Loop: Header=BB21_45 Depth=2
	leaq	-224(%rbp), %rax
	movq	%rax, %rcx
	addq	$64, %rcx
	movslq	-16(%rbp), %rdx
	shlq	$4, %rdx
	addq	%rdx, %rcx
	movslq	-12(%rbp), %rdx
	movl	$0, (%rcx,%rdx,4)
	movslq	-16(%rbp), %rcx
	shlq	$4, %rcx
	addq	%rcx, %rax
	movslq	-12(%rbp), %rcx
	movl	$0, (%rax,%rcx,4)
# %bb.47:                               # %for.inc143
                                        #   in Loop: Header=BB21_45 Depth=2
	movl	-12(%rbp), %eax
	addl	$1, %eax
	movl	%eax, -12(%rbp)
	jmp	.LBB21_45
.LBB21_48:                              # %for.end145
                                        #   in Loop: Header=BB21_43 Depth=1
	jmp	.LBB21_49
.LBB21_49:                              # %for.inc146
                                        #   in Loop: Header=BB21_43 Depth=1
	movl	-16(%rbp), %eax
	addl	$1, %eax
	movl	%eax, -16(%rbp)
	jmp	.LBB21_43
.LBB21_50:                              # %for.end148
	jmp	.LBB21_51
.LBB21_51:                              # %if.end
	movl	-24(%rbp), %eax
	movl	%eax, -4(%rbp)
.LBB21_52:                              # %for.cond149
                                        # =>This Loop Header: Depth=1
                                        #     Child Loop BB21_54 Depth 2
	movl	-4(%rbp), %eax
	cmpl	-40(%rbp), %eax
	jge	.LBB21_59
# %bb.53:                               # %for.body152
                                        #   in Loop: Header=BB21_52 Depth=1
	movl	-28(%rbp), %eax
	movl	%eax, -8(%rbp)
.LBB21_54:                              # %for.cond153
                                        #   Parent Loop BB21_52 Depth=1
                                        # =>  This Inner Loop Header: Depth=2
	movl	-8(%rbp), %eax
	cmpl	-56(%rbp), %eax
	jge	.LBB21_57
# %bb.55:                               # %for.body156
                                        #   in Loop: Header=BB21_54 Depth=2
	movq	decs, %rax
	movq	(%rax), %rax
	movslq	-8(%rbp), %rcx
	movq	(%rax,%rcx,8), %rax
	movslq	-4(%rbp), %rcx
	movl	(%rax,%rcx,4), %eax
	movslq	-8(%rbp), %rcx
	shlq	$6, %rcx
	leaq	-1248(%rbp), %rdx
	addq	%rcx, %rdx
	movslq	-4(%rbp), %rcx
	movl	%eax, (%rdx,%rcx,4)
# %bb.56:                               # %for.inc165
                                        #   in Loop: Header=BB21_54 Depth=2
	movl	-8(%rbp), %eax
	addl	$1, %eax
	movl	%eax, -8(%rbp)
	jmp	.LBB21_54
.LBB21_57:                              # %for.end167
                                        #   in Loop: Header=BB21_52 Depth=1
	jmp	.LBB21_58
.LBB21_58:                              # %for.inc168
                                        #   in Loop: Header=BB21_52 Depth=1
	movl	-4(%rbp), %eax
	addl	$1, %eax
	movl	%eax, -4(%rbp)
	jmp	.LBB21_52
.LBB21_59:                              # %for.end170
	jmp	.LBB21_60
.LBB21_60:                              # %if.end171
	cmpl	$1, -20(%rbp)
	jl	.LBB21_62
# %bb.61:                               # %land.lhs.true174
	cmpl	$7, -20(%rbp)
	jle	.LBB21_66
.LBB21_62:                              # %lor.lhs.false177
	cmpl	$0, -64(%rbp)
	jne	.LBB21_86
# %bb.63:                               # %land.lhs.true180
	movq	img, %rax
	cmpl	$0, 24(%rax)
	je	.LBB21_66
# %bb.64:                               # %lor.lhs.false184
	movq	img, %rax
	cmpl	$1, 24(%rax)
	jne	.LBB21_86
# %bb.65:                               # %land.lhs.true188
	movq	img, %rax
	cmpl	$0, 72496(%rax)
	jle	.LBB21_86
.LBB21_66:                              # %if.then192
	movl	-32(%rbp), %eax
	movl	%eax, -16(%rbp)
.LBB21_67:                              # %for.cond193
                                        # =>This Loop Header: Depth=1
                                        #     Child Loop BB21_69 Depth 2
                                        #       Child Loop BB21_74 Depth 3
                                        #         Child Loop BB21_76 Depth 4
	movl	-16(%rbp), %eax
	cmpl	-48(%rbp), %eax
	jge	.LBB21_85
# %bb.68:                               # %for.body196
                                        #   in Loop: Header=BB21_67 Depth=1
	movl	-36(%rbp), %eax
	movl	%eax, -12(%rbp)
.LBB21_69:                              # %for.cond197
                                        #   Parent Loop BB21_67 Depth=1
                                        # =>  This Loop Header: Depth=2
                                        #       Child Loop BB21_74 Depth 3
                                        #         Child Loop BB21_76 Depth 4
	movl	-12(%rbp), %eax
	cmpl	-44(%rbp), %eax
	jge	.LBB21_83
# %bb.70:                               # %for.body200
                                        #   in Loop: Header=BB21_69 Depth=2
	movq	img, %rax
	movl	144(%rax), %eax
	addl	-12(%rbp), %eax
	movl	%eax, -72(%rbp)
	movq	img, %rax
	movl	148(%rax), %eax
	addl	-16(%rbp), %eax
	movl	%eax, -68(%rbp)
	movq	img, %rax
	cmpl	$1, 24(%rax)
	jne	.LBB21_73
# %bb.71:                               # %land.lhs.true208
                                        #   in Loop: Header=BB21_69 Depth=2
	movq	enc_picture, %rax
	cmpq	enc_frame_picture, %rax
	je	.LBB21_73
# %bb.72:                               # %if.then211
                                        #   in Loop: Header=BB21_69 Depth=2
	movq	img, %rax
	movl	(%rax), %eax
	subl	start_frame_no_in_this_IGOP, %eax
	subl	-60(%rbp), %eax
	subl	$2, %eax
	movq	img, %rcx
	cltd
	idivl	32(%rcx)
	movl	%edx, -76(%rbp)
.LBB21_73:                              # %if.end218
                                        #   in Loop: Header=BB21_69 Depth=2
	leaq	-224(%rbp), %r8
	movq	decs, %rcx
	movq	16(%rcx), %rcx
	movslq	-52(%rbp), %rdx
	movq	(%rcx,%rdx,8), %rcx
	movslq	-76(%rbp), %rdx
	movq	(%rcx,%rdx,8), %rdi
	movl	-68(%rbp), %esi
	movl	-72(%rbp), %edx
	movslq	-16(%rbp), %rcx
	shlq	$4, %rcx
	movq	%r8, %rax
	addq	%rcx, %rax
	movslq	-12(%rbp), %rcx
	movl	(%rax,%rcx,4), %ecx
	addq	$64, %r8
	movslq	-16(%rbp), %rax
	shlq	$4, %rax
	addq	%rax, %r8
	movslq	-12(%rbp), %rax
	movl	(%r8,%rax,4), %r8d
	movq	decs, %rax
	movq	32(%rax), %r9
	callq	Get_Reference_Block
	movl	$0, -8(%rbp)
.LBB21_74:                              # %for.cond233
                                        #   Parent Loop BB21_67 Depth=1
                                        #     Parent Loop BB21_69 Depth=2
                                        # =>    This Loop Header: Depth=3
                                        #         Child Loop BB21_76 Depth 4
	cmpl	$4, -8(%rbp)
	jge	.LBB21_81
# %bb.75:                               # %for.body236
                                        #   in Loop: Header=BB21_74 Depth=3
	movl	$0, -4(%rbp)
.LBB21_76:                              # %for.cond237
                                        #   Parent Loop BB21_67 Depth=1
                                        #     Parent Loop BB21_69 Depth=2
                                        #       Parent Loop BB21_74 Depth=3
                                        # =>      This Inner Loop Header: Depth=4
	cmpl	$4, -4(%rbp)
	jge	.LBB21_79
# %bb.77:                               # %for.body240
                                        #   in Loop: Header=BB21_76 Depth=4
	movl	-16(%rbp), %eax
	shll	$2, %eax
	addl	-8(%rbp), %eax
	cltq
	shlq	$6, %rax
	leaq	-1248(%rbp), %rcx
	addq	%rax, %rcx
	movl	-12(%rbp), %eax
	shll	$2, %eax
	addl	-4(%rbp), %eax
	cltq
	movl	(%rcx,%rax,4), %eax
	movq	decs, %rcx
	movq	32(%rcx), %rcx
	movslq	-8(%rbp), %rdx
	movq	(%rcx,%rdx,8), %rcx
	movslq	-4(%rbp), %rdx
	movzwl	(%rcx,%rdx,2), %ecx
	addl	%ecx, %eax
	movq	decs, %rcx
	movq	8(%rcx), %rcx
	movslq	-52(%rbp), %rdx
	movq	(%rcx,%rdx,8), %rcx
	movl	-68(%rbp), %edx
	shll	$2, %edx
	addl	-8(%rbp), %edx
	movslq	%edx, %rdx
	movq	(%rcx,%rdx,8), %rcx
	movl	-72(%rbp), %edx
	shll	$2, %edx
	addl	-4(%rbp), %edx
	movslq	%edx, %rdx
	movw	%ax, (%rcx,%rdx,2)
# %bb.78:                               # %for.inc267
                                        #   in Loop: Header=BB21_76 Depth=4
	movl	-4(%rbp), %eax
	addl	$1, %eax
	movl	%eax, -4(%rbp)
	jmp	.LBB21_76
.LBB21_79:                              # %for.end269
                                        #   in Loop: Header=BB21_74 Depth=3
	jmp	.LBB21_80
.LBB21_80:                              # %for.inc270
                                        #   in Loop: Header=BB21_74 Depth=3
	movl	-8(%rbp), %eax
	addl	$1, %eax
	movl	%eax, -8(%rbp)
	jmp	.LBB21_74
.LBB21_81:                              # %for.end272
                                        #   in Loop: Header=BB21_69 Depth=2
	jmp	.LBB21_82
.LBB21_82:                              # %for.inc273
                                        #   in Loop: Header=BB21_69 Depth=2
	movl	-12(%rbp), %eax
	addl	$1, %eax
	movl	%eax, -12(%rbp)
	jmp	.LBB21_69
.LBB21_83:                              # %for.end275
                                        #   in Loop: Header=BB21_67 Depth=1
	jmp	.LBB21_84
.LBB21_84:                              # %for.inc276
                                        #   in Loop: Header=BB21_67 Depth=1
	movl	-16(%rbp), %eax
	addl	$1, %eax
	movl	%eax, -16(%rbp)
	jmp	.LBB21_67
.LBB21_85:                              # %for.end278
	jmp	.LBB21_95
.LBB21_86:                              # %if.else279
	movl	-24(%rbp), %eax
	movl	%eax, -4(%rbp)
.LBB21_87:                              # %for.cond280
                                        # =>This Loop Header: Depth=1
                                        #     Child Loop BB21_89 Depth 2
	movl	-4(%rbp), %eax
	cmpl	-40(%rbp), %eax
	jge	.LBB21_94
# %bb.88:                               # %for.body283
                                        #   in Loop: Header=BB21_87 Depth=1
	movl	-28(%rbp), %eax
	movl	%eax, -8(%rbp)
.LBB21_89:                              # %for.cond284
                                        #   Parent Loop BB21_87 Depth=1
                                        # =>  This Inner Loop Header: Depth=2
	movl	-8(%rbp), %eax
	cmpl	-56(%rbp), %eax
	jge	.LBB21_92
# %bb.90:                               # %for.body287
                                        #   in Loop: Header=BB21_89 Depth=2
	movq	enc_picture, %rax
	movq	6424(%rax), %rax
	movq	img, %rcx
	movl	156(%rcx), %ecx
	addl	-8(%rbp), %ecx
	movslq	%ecx, %rcx
	movq	(%rax,%rcx,8), %rax
	movq	img, %rcx
	movl	152(%rcx), %ecx
	addl	-4(%rbp), %ecx
	movslq	%ecx, %rcx
	movw	(%rax,%rcx,2), %ax
	movq	decs, %rcx
	movq	8(%rcx), %rcx
	movslq	-52(%rbp), %rdx
	movq	(%rcx,%rdx,8), %rcx
	movq	img, %rdx
	movl	156(%rdx), %edx
	addl	-8(%rbp), %edx
	movslq	%edx, %rdx
	movq	(%rcx,%rdx,8), %rcx
	movq	img, %rdx
	movl	152(%rdx), %edx
	addl	-4(%rbp), %edx
	movslq	%edx, %rdx
	movw	%ax, (%rcx,%rdx,2)
# %bb.91:                               # %for.inc308
                                        #   in Loop: Header=BB21_89 Depth=2
	movl	-8(%rbp), %eax
	addl	$1, %eax
	movl	%eax, -8(%rbp)
	jmp	.LBB21_89
.LBB21_92:                              # %for.end310
                                        #   in Loop: Header=BB21_87 Depth=1
	jmp	.LBB21_93
.LBB21_93:                              # %for.inc311
                                        #   in Loop: Header=BB21_87 Depth=1
	movl	-4(%rbp), %eax
	addl	$1, %eax
	movl	%eax, -4(%rbp)
	jmp	.LBB21_87
.LBB21_94:                              # %for.end313
	jmp	.LBB21_95
.LBB21_95:                              # %if.end314
	jmp	.LBB21_96
.LBB21_96:                              # %if.end315
	cmpl	$141022191, -84(%rbp)   # imm = 0x867D3EF
	jne	.LBB21_98
.LBB21_97:
	addq	$1248, %rsp             # imm = 0x4E0
	popq	%rbp
	.cfi_def_cfa %rsp, 8
	retq
.LBB21_98:                              # %func_exit
	.cfi_def_cfa %rbp, 16
	callq	detect_breach
	jmp	.LBB21_97
.Lfunc_end21:
	.size	decode_one_b8block.11, .Lfunc_end21-decode_one_b8block.11
	.cfi_endproc
                                        # -- End function
	.globl	Conceal_Error.12        # -- Begin function Conceal_Error.12
	.p2align	4, 0x90
	.type	Conceal_Error.12,@function
Conceal_Error.12:                       # @Conceal_Error.12
	.cfi_startproc
# %bb.0:                                # %entry
	pushq	%rbp
	.cfi_def_cfa_offset 16
	.cfi_offset %rbp, -16
	movq	%rsp, %rbp
	.cfi_def_cfa_register %rbp
	subq	$1248, %rsp             # imm = 0x4E0
	xorl	%r9d, %r9d
	movl	$828077650, -68(%rbp)   # imm = 0x315B7652
	movq	%rdi, -48(%rbp)
	movl	%esi, -20(%rbp)
	movl	%edx, -24(%rbp)
	movq	%rcx, -56(%rbp)
	movq	%r8, -88(%rbp)
	movq	img, %rax
	movl	(%rax), %eax
	subl	start_frame_no_in_this_IGOP, %eax
	subl	$1, %eax
	movq	img, %rcx
	cltd
	idivl	32(%rcx)
	movl	%edx, -36(%rbp)
	movl	-20(%rbp), %eax
	shll	$4, %eax
	movl	%eax, -28(%rbp)
	movl	-24(%rbp), %eax
	shll	$4, %eax
	movl	%eax, -32(%rbp)
	movq	decs, %rax
	movq	48(%rax), %rax
	movslq	-24(%rbp), %rcx
	movq	(%rax,%rcx,8), %rax
	movslq	-20(%rbp), %rcx
	movzbl	(%rax,%rcx), %eax
	cmpl	$0, %eax
	jne	.LBB22_6
# %bb.1:                                # %land.rhs
	movq	img, %rax
	cmpl	$0, 24(%rax)
	movb	$1, %r9b
	je	.LBB22_5
# %bb.2:                                # %lor.rhs
	xorl	%r9d, %r9d
	movq	img, %rax
	cmpl	$1, 24(%rax)
	jne	.LBB22_4
# %bb.3:                                # %land.rhs11
	movq	img, %rax
	cmpl	$0, 72496(%rax)
	setg	%r9b
.LBB22_4:                               # %land.end
.LBB22_5:                               # %lor.end
.LBB22_6:                               # %land.end14
	andb	$1, %r9b
	movzbl	%r9b, %eax
	movl	%eax, -64(%rbp)
	movq	decs, %rax
	movq	48(%rax), %rax
	movslq	-24(%rbp), %rcx
	movq	(%rax,%rcx,8), %rax
	movslq	-20(%rbp), %rcx
	movzbl	(%rax,%rcx), %eax
	cmpl	$1, %eax
	jl	.LBB22_8
# %bb.7:                                # %land.lhs.true
	movq	decs, %rax
	movq	48(%rax), %rax
	movslq	-24(%rbp), %rcx
	movq	(%rax,%rcx,8), %rax
	movslq	-20(%rbp), %rcx
	movzbl	(%rax,%rcx), %eax
	cmpl	$3, %eax
	jle	.LBB22_9
.LBB22_8:                               # %lor.lhs.false
	xorl	%eax, %eax
	movq	decs, %rcx
	movq	48(%rcx), %rcx
	movslq	-24(%rbp), %rdx
	movq	(%rcx,%rdx,8), %rcx
	movslq	-20(%rbp), %rdx
	movzbl	(%rcx,%rdx), %ecx
	cmpl	$8, %ecx
	jne	.LBB22_14
.LBB22_9:                               # %land.rhs39
	movq	img, %rax
	cmpl	$0, 24(%rax)
	movb	$1, %al
	je	.LBB22_13
# %bb.10:                               # %lor.rhs43
	xorl	%eax, %eax
	movq	img, %rcx
	cmpl	$1, 24(%rcx)
	jne	.LBB22_12
# %bb.11:                               # %land.rhs47
	movq	img, %rax
	cmpl	$0, 72496(%rax)
	setg	%al
.LBB22_12:                              # %land.end51
.LBB22_13:                              # %lor.end53
.LBB22_14:                              # %land.end54
	movzbl	%al, %eax
	andl	$1, %eax
	movl	%eax, -60(%rbp)
	movq	enc_picture(%rip), %rax
	movq	6504(%rax), %rax
	movq	(%rax), %rax
	movq	%rax, -80(%rbp)
	movq	-88(%rbp), %rax
	movslq	-20(%rbp), %rcx
	movq	(%rax,%rcx,8), %rax
	movslq	-24(%rbp), %rcx
	movzbl	(%rax,%rcx), %eax
	addl	$-1, %eax
	movl	%eax, %ecx
	subl	$4, %ecx
	ja	.LBB22_180
# %bb.15:                               # %land.end54
	movq	.LJTI22_0(,%rax,8), %rax
	jmpq	*%rax
.LBB22_16:                              # %sw.bb
	movq	img, %rax
	cmpl	$2, 24(%rax)
	je	.LBB22_26
# %bb.17:                               # %if.then
	movl	$0, -8(%rbp)
.LBB22_18:                              # %for.cond
                                        # =>This Loop Header: Depth=1
                                        #     Child Loop BB22_20 Depth 2
	cmpl	$16, -8(%rbp)
	jge	.LBB22_25
# %bb.19:                               # %for.body
                                        #   in Loop: Header=BB22_18 Depth=1
	movl	$0, -4(%rbp)
.LBB22_20:                              # %for.cond68
                                        #   Parent Loop BB22_18 Depth=1
                                        # =>  This Inner Loop Header: Depth=2
	cmpl	$16, -4(%rbp)
	jge	.LBB22_23
# %bb.21:                               # %for.body71
                                        #   in Loop: Header=BB22_20 Depth=2
	movq	-56(%rbp), %rax
	movslq	-36(%rbp), %rcx
	movq	(%rax,%rcx,8), %rax
	movl	-28(%rbp), %ecx
	addl	-8(%rbp), %ecx
	movslq	%ecx, %rcx
	movq	(%rax,%rcx,8), %rax
	movl	-32(%rbp), %ecx
	addl	-4(%rbp), %ecx
	movslq	%ecx, %rcx
	movw	(%rax,%rcx,2), %ax
	movq	-48(%rbp), %rcx
	movl	-28(%rbp), %edx
	addl	-8(%rbp), %edx
	movslq	%edx, %rdx
	movq	(%rcx,%rdx,8), %rcx
	movl	-32(%rbp), %edx
	addl	-4(%rbp), %edx
	movslq	%edx, %rdx
	movw	%ax, (%rcx,%rdx,2)
# %bb.22:                               # %for.inc
                                        #   in Loop: Header=BB22_20 Depth=2
	movl	-4(%rbp), %eax
	addl	$1, %eax
	movl	%eax, -4(%rbp)
	jmp	.LBB22_20
.LBB22_23:                              # %for.end
                                        #   in Loop: Header=BB22_18 Depth=1
	jmp	.LBB22_24
.LBB22_24:                              # %for.inc85
                                        #   in Loop: Header=BB22_18 Depth=1
	movl	-8(%rbp), %eax
	addl	$1, %eax
	movl	%eax, -8(%rbp)
	jmp	.LBB22_18
.LBB22_25:                              # %for.end87
	jmp	.LBB22_35
.LBB22_26:                              # %if.else
	movl	$0, -8(%rbp)
.LBB22_27:                              # %for.cond88
                                        # =>This Loop Header: Depth=1
                                        #     Child Loop BB22_29 Depth 2
	cmpl	$16, -8(%rbp)
	jge	.LBB22_34
# %bb.28:                               # %for.body91
                                        #   in Loop: Header=BB22_27 Depth=1
	movl	$0, -4(%rbp)
.LBB22_29:                              # %for.cond92
                                        #   Parent Loop BB22_27 Depth=1
                                        # =>  This Inner Loop Header: Depth=2
	cmpl	$16, -4(%rbp)
	jge	.LBB22_32
# %bb.30:                               # %for.body95
                                        #   in Loop: Header=BB22_29 Depth=2
	movq	-48(%rbp), %rax
	movl	-28(%rbp), %ecx
	addl	-8(%rbp), %ecx
	movslq	%ecx, %rcx
	movq	(%rax,%rcx,8), %rax
	movl	-32(%rbp), %ecx
	addl	-4(%rbp), %ecx
	movslq	%ecx, %rcx
	movw	$127, (%rax,%rcx,2)
# %bb.31:                               # %for.inc102
                                        #   in Loop: Header=BB22_29 Depth=2
	movl	-4(%rbp), %eax
	addl	$1, %eax
	movl	%eax, -4(%rbp)
	jmp	.LBB22_29
.LBB22_32:                              # %for.end104
                                        #   in Loop: Header=BB22_27 Depth=1
	jmp	.LBB22_33
.LBB22_33:                              # %for.inc105
                                        #   in Loop: Header=BB22_27 Depth=1
	movl	-8(%rbp), %eax
	addl	$1, %eax
	movl	%eax, -8(%rbp)
	jmp	.LBB22_27
.LBB22_34:                              # %for.end107
	jmp	.LBB22_35
.LBB22_35:                              # %if.end
	jmp	.LBB22_180
.LBB22_36:                              # %sw.bb108
	movl	$0, -12(%rbp)
.LBB22_37:                              # %for.cond109
                                        # =>This Loop Header: Depth=1
                                        #     Child Loop BB22_39 Depth 2
                                        #       Child Loop BB22_41 Depth 3
	cmpl	$4, -12(%rbp)
	jge	.LBB22_48
# %bb.38:                               # %for.body112
                                        #   in Loop: Header=BB22_37 Depth=1
	movl	$0, -16(%rbp)
.LBB22_39:                              # %for.cond113
                                        #   Parent Loop BB22_37 Depth=1
                                        # =>  This Loop Header: Depth=2
                                        #       Child Loop BB22_41 Depth 3
	cmpl	$4, -16(%rbp)
	jge	.LBB22_46
# %bb.40:                               # %for.body116
                                        #   in Loop: Header=BB22_39 Depth=2
	movl	$0, -4(%rbp)
.LBB22_41:                              # %for.cond117
                                        #   Parent Loop BB22_37 Depth=1
                                        #     Parent Loop BB22_39 Depth=2
                                        # =>    This Inner Loop Header: Depth=3
	cmpl	$2, -4(%rbp)
	jge	.LBB22_44
# %bb.42:                               # %for.body120
                                        #   in Loop: Header=BB22_41 Depth=3
	movq	-80(%rbp), %rax
	movl	-24(%rbp), %ecx
	shll	$2, %ecx
	addl	-16(%rbp), %ecx
	addl	$4, %ecx
	movslq	%ecx, %rcx
	movq	(%rax,%rcx,8), %rax
	movl	-20(%rbp), %ecx
	shll	$2, %ecx
	addl	-12(%rbp), %ecx
	movslq	%ecx, %rcx
	movq	(%rax,%rcx,8), %rax
	movslq	-4(%rbp), %rcx
	movswl	(%rax,%rcx,2), %eax
	movslq	-4(%rbp), %rcx
	shlq	$6, %rcx
	leaq	-224(%rbp), %rdx
	addq	%rcx, %rdx
	movslq	-12(%rbp), %rcx
	shlq	$4, %rcx
	addq	%rcx, %rdx
	movslq	-16(%rbp), %rcx
	movl	%eax, (%rdx,%rcx,4)
# %bb.43:                               # %for.inc139
                                        #   in Loop: Header=BB22_41 Depth=3
	movl	-4(%rbp), %eax
	addl	$1, %eax
	movl	%eax, -4(%rbp)
	jmp	.LBB22_41
.LBB22_44:                              # %for.end141
                                        #   in Loop: Header=BB22_39 Depth=2
	jmp	.LBB22_45
.LBB22_45:                              # %for.inc142
                                        #   in Loop: Header=BB22_39 Depth=2
	movl	-16(%rbp), %eax
	addl	$1, %eax
	movl	%eax, -16(%rbp)
	jmp	.LBB22_39
.LBB22_46:                              # %for.end144
                                        #   in Loop: Header=BB22_37 Depth=1
	jmp	.LBB22_47
.LBB22_47:                              # %for.inc145
                                        #   in Loop: Header=BB22_37 Depth=1
	movl	-12(%rbp), %eax
	addl	$1, %eax
	movl	%eax, -12(%rbp)
	jmp	.LBB22_37
.LBB22_48:                              # %for.end147
	movl	$0, -4(%rbp)
.LBB22_49:                              # %for.cond148
                                        # =>This Loop Header: Depth=1
                                        #     Child Loop BB22_51 Depth 2
	cmpl	$16, -4(%rbp)
	jge	.LBB22_56
# %bb.50:                               # %for.body151
                                        #   in Loop: Header=BB22_49 Depth=1
	movl	$0, -8(%rbp)
.LBB22_51:                              # %for.cond152
                                        #   Parent Loop BB22_49 Depth=1
                                        # =>  This Inner Loop Header: Depth=2
	cmpl	$16, -8(%rbp)
	jge	.LBB22_54
# %bb.52:                               # %for.body155
                                        #   in Loop: Header=BB22_51 Depth=2
	movslq	-8(%rbp), %rax
	shlq	$6, %rax
	leaq	-1248(%rbp), %rcx
	addq	%rax, %rcx
	movslq	-4(%rbp), %rax
	movl	$0, (%rcx,%rax,4)
# %bb.53:                               # %for.inc160
                                        #   in Loop: Header=BB22_51 Depth=2
	movl	-8(%rbp), %eax
	addl	$1, %eax
	movl	%eax, -8(%rbp)
	jmp	.LBB22_51
.LBB22_54:                              # %for.end162
                                        #   in Loop: Header=BB22_49 Depth=1
	jmp	.LBB22_55
.LBB22_55:                              # %for.inc163
                                        #   in Loop: Header=BB22_49 Depth=1
	movl	-4(%rbp), %eax
	addl	$1, %eax
	movl	%eax, -4(%rbp)
	jmp	.LBB22_49
.LBB22_56:                              # %for.end165
	movq	img, %rax
	cmpl	$2, 24(%rax)
	je	.LBB22_96
# %bb.57:                               # %if.then169
	cmpl	$0, -64(%rbp)
	je	.LBB22_67
# %bb.58:                               # %if.then170
	movl	$0, -8(%rbp)
.LBB22_59:                              # %for.cond171
                                        # =>This Loop Header: Depth=1
                                        #     Child Loop BB22_61 Depth 2
	cmpl	$16, -8(%rbp)
	jge	.LBB22_66
# %bb.60:                               # %for.body174
                                        #   in Loop: Header=BB22_59 Depth=1
	movl	$0, -4(%rbp)
.LBB22_61:                              # %for.cond175
                                        #   Parent Loop BB22_59 Depth=1
                                        # =>  This Inner Loop Header: Depth=2
	cmpl	$16, -4(%rbp)
	jge	.LBB22_64
# %bb.62:                               # %for.body178
                                        #   in Loop: Header=BB22_61 Depth=2
	movq	-56(%rbp), %rax
	movslq	-36(%rbp), %rcx
	movq	(%rax,%rcx,8), %rax
	movl	-28(%rbp), %ecx
	addl	-8(%rbp), %ecx
	movslq	%ecx, %rcx
	movq	(%rax,%rcx,8), %rax
	movl	-32(%rbp), %ecx
	addl	-4(%rbp), %ecx
	movslq	%ecx, %rcx
	movw	(%rax,%rcx,2), %ax
	movq	-48(%rbp), %rcx
	movl	-28(%rbp), %edx
	addl	-8(%rbp), %edx
	movslq	%edx, %rdx
	movq	(%rcx,%rdx,8), %rcx
	movl	-32(%rbp), %edx
	addl	-4(%rbp), %edx
	movslq	%edx, %rdx
	movw	%ax, (%rcx,%rdx,2)
# %bb.63:                               # %for.inc193
                                        #   in Loop: Header=BB22_61 Depth=2
	movl	-4(%rbp), %eax
	addl	$1, %eax
	movl	%eax, -4(%rbp)
	jmp	.LBB22_61
.LBB22_64:                              # %for.end195
                                        #   in Loop: Header=BB22_59 Depth=1
	jmp	.LBB22_65
.LBB22_65:                              # %for.inc196
                                        #   in Loop: Header=BB22_59 Depth=1
	movl	-8(%rbp), %eax
	addl	$1, %eax
	movl	%eax, -8(%rbp)
	jmp	.LBB22_59
.LBB22_66:                              # %for.end198
	jmp	.LBB22_95
.LBB22_67:                              # %if.else199
	cmpl	$0, -60(%rbp)
	je	.LBB22_85
# %bb.68:                               # %if.then201
	movl	-20(%rbp), %eax
	shll	$2, %eax
	movl	%eax, -12(%rbp)
.LBB22_69:                              # %for.cond203
                                        # =>This Loop Header: Depth=1
                                        #     Child Loop BB22_71 Depth 2
                                        #       Child Loop BB22_73 Depth 3
                                        #         Child Loop BB22_75 Depth 4
	movl	-12(%rbp), %eax
	movl	-20(%rbp), %ecx
	shll	$2, %ecx
	addl	$4, %ecx
	cmpl	%ecx, %eax
	jge	.LBB22_84
# %bb.70:                               # %for.body208
                                        #   in Loop: Header=BB22_69 Depth=1
	movl	-24(%rbp), %eax
	shll	$2, %eax
	movl	%eax, -16(%rbp)
.LBB22_71:                              # %for.cond210
                                        #   Parent Loop BB22_69 Depth=1
                                        # =>  This Loop Header: Depth=2
                                        #       Child Loop BB22_73 Depth 3
                                        #         Child Loop BB22_75 Depth 4
	movl	-16(%rbp), %eax
	movl	-24(%rbp), %ecx
	shll	$2, %ecx
	addl	$4, %ecx
	cmpl	%ecx, %eax
	jge	.LBB22_82
# %bb.72:                               # %for.body215
                                        #   in Loop: Header=BB22_71 Depth=2
	leaq	-224(%rbp), %r8
	movq	-56(%rbp), %rcx
	movslq	-36(%rbp), %rdx
	movq	(%rcx,%rdx,8), %rdi
	movl	-12(%rbp), %esi
	movl	-16(%rbp), %edx
	movl	-12(%rbp), %ecx
	movl	-20(%rbp), %eax
	shll	$2, %eax
	subl	%eax, %ecx
	movslq	%ecx, %rax
	shlq	$4, %rax
	movq	%r8, %r9
	addq	%rax, %r9
	movl	-16(%rbp), %eax
	movl	-24(%rbp), %ecx
	shll	$2, %ecx
	subl	%ecx, %eax
	cltq
	movl	(%r9,%rax,4), %ecx
	addq	$64, %r8
	movl	-12(%rbp), %r9d
	movl	-20(%rbp), %eax
	shll	$2, %eax
	subl	%eax, %r9d
	movslq	%r9d, %rax
	shlq	$4, %rax
	addq	%rax, %r8
	movl	-16(%rbp), %r9d
	movl	-24(%rbp), %eax
	shll	$2, %eax
	subl	%eax, %r9d
