	.text
	.file	"decoder.c"
	.globl	decode_one_b8block      # -- Begin function decode_one_b8block
	.p2align	4, 0x90
	.type	decode_one_b8block,@function
decode_one_b8block:                     # @decode_one_b8block
	.cfi_startproc
# %bb.0:                                # %rand_bb
	pushq	%rbp
	.cfi_def_cfa_offset 16
	.cfi_offset %rbp, -16
	movq	%rsp, %rbp
	.cfi_def_cfa_register %rbp
	pushq	%r15
	pushq	%r14
	pushq	%r13
	pushq	%r12
	pushq	%rbx
	pushq	%rax
	.cfi_offset %rbx, -56
	.cfi_offset %r12, -48
	.cfi_offset %r13, -40
	.cfi_offset %r14, -32
	.cfi_offset %r15, -24
	movl	%r8d, %r14d
	movl	%ecx, %r15d
	movl	%edx, %r12d
	movl	%esi, %r13d
	movl	%edi, %ebx
	callq	get_rand
	cmpl	$0, %eax
	jne	.LBB0_17
# %bb.1:                                # %func_decode_one_b8block.3
	movl	%ebx, %edi
	movl	%r13d, %esi
	movl	%r12d, %edx
	movl	%r15d, %ecx
	movl	%r14d, %r8d
	callq	decode_one_b8block.3
	addq	$8, %rsp
	popq	%rbx
	popq	%r12
	popq	%r13
	popq	%r14
	popq	%r15
	popq	%rbp
	.cfi_def_cfa %rsp, 8
	retq
.LBB0_2:                                # %func_decode_one_b8block.7
	.cfi_def_cfa %rbp, 16
	movl	%ebx, %edi
	movl	%r13d, %esi
	movl	%r12d, %edx
	movl	%r15d, %ecx
	movl	%r14d, %r8d
	callq	decode_one_b8block.7
	addq	$8, %rsp
	popq	%rbx
	popq	%r12
	popq	%r13
	popq	%r14
	popq	%r15
	popq	%rbp
	.cfi_def_cfa %rsp, 8
	retq
.LBB0_3:                                # %func_decode_one_b8block.24
	.cfi_def_cfa %rbp, 16
	movl	%ebx, %edi
	movl	%r13d, %esi
	movl	%r12d, %edx
	movl	%r15d, %ecx
	movl	%r14d, %r8d
	callq	decode_one_b8block.24
	addq	$8, %rsp
	popq	%rbx
	popq	%r12
	popq	%r13
	popq	%r14
	popq	%r15
	popq	%rbp
	.cfi_def_cfa %rsp, 8
	retq
.LBB0_4:                                # %func_decode_one_b8block.32
	.cfi_def_cfa %rbp, 16
	movl	%ebx, %edi
	movl	%r13d, %esi
	movl	%r12d, %edx
	movl	%r15d, %ecx
	movl	%r14d, %r8d
	callq	decode_one_b8block.32
	addq	$8, %rsp
	popq	%rbx
	popq	%r12
	popq	%r13
	popq	%r14
	popq	%r15
	popq	%rbp
	.cfi_def_cfa %rsp, 8
	retq
.LBB0_5:                                # %func_decode_one_b8block.43
	.cfi_def_cfa %rbp, 16
	movl	%ebx, %edi
	movl	%r13d, %esi
	movl	%r12d, %edx
	movl	%r15d, %ecx
	movl	%r14d, %r8d
	callq	decode_one_b8block.43
	addq	$8, %rsp
	popq	%rbx
	popq	%r12
	popq	%r13
	popq	%r14
	popq	%r15
	popq	%rbp
	.cfi_def_cfa %rsp, 8
	retq
.LBB0_6:                                # %func_decode_one_b8block.53
	.cfi_def_cfa %rbp, 16
	movl	%ebx, %edi
	movl	%r13d, %esi
	movl	%r12d, %edx
	movl	%r15d, %ecx
	movl	%r14d, %r8d
	callq	decode_one_b8block.53
	addq	$8, %rsp
	popq	%rbx
	popq	%r12
	popq	%r13
	popq	%r14
	popq	%r15
	popq	%rbp
	.cfi_def_cfa %rsp, 8
	retq
.LBB0_7:                                # %func_decode_one_b8block.55
	.cfi_def_cfa %rbp, 16
	movl	%ebx, %edi
	movl	%r13d, %esi
	movl	%r12d, %edx
	movl	%r15d, %ecx
	movl	%r14d, %r8d
	callq	decode_one_b8block.55
	addq	$8, %rsp
	popq	%rbx
	popq	%r12
	popq	%r13
	popq	%r14
	popq	%r15
	popq	%rbp
	.cfi_def_cfa %rsp, 8
	retq
.LBB0_8:                                # %func_decode_one_b8block.58
	.cfi_def_cfa %rbp, 16
	movl	%ebx, %edi
	movl	%r13d, %esi
	movl	%r12d, %edx
	movl	%r15d, %ecx
	movl	%r14d, %r8d
	callq	decode_one_b8block.58
	addq	$8, %rsp
	popq	%rbx
	popq	%r12
	popq	%r13
	popq	%r14
	popq	%r15
	popq	%rbp
	.cfi_def_cfa %rsp, 8
	retq
.LBB0_9:                                # %func_decode_one_b8block.71
	.cfi_def_cfa %rbp, 16
	movl	%ebx, %edi
	movl	%r13d, %esi
	movl	%r12d, %edx
	movl	%r15d, %ecx
	movl	%r14d, %r8d
	callq	decode_one_b8block.71
	addq	$8, %rsp
	popq	%rbx
	popq	%r12
	popq	%r13
	popq	%r14
	popq	%r15
	popq	%rbp
	.cfi_def_cfa %rsp, 8
	retq
.LBB0_10:                               # %func_decode_one_b8block.92
	.cfi_def_cfa %rbp, 16
	movl	%ebx, %edi
	movl	%r13d, %esi
	movl	%r12d, %edx
	movl	%r15d, %ecx
	movl	%r14d, %r8d
	callq	decode_one_b8block.92
	addq	$8, %rsp
	popq	%rbx
	popq	%r12
	popq	%r13
	popq	%r14
	popq	%r15
	popq	%rbp
	.cfi_def_cfa %rsp, 8
	retq
.LBB0_11:                               # %func_decode_one_b8block.95
	.cfi_def_cfa %rbp, 16
	movl	%ebx, %edi
	movl	%r13d, %esi
	movl	%r12d, %edx
	movl	%r15d, %ecx
	movl	%r14d, %r8d
	callq	decode_one_b8block.95
	addq	$8, %rsp
	popq	%rbx
	popq	%r12
	popq	%r13
	popq	%r14
	popq	%r15
	popq	%rbp
	.cfi_def_cfa %rsp, 8
	retq
.LBB0_12:                               # %func_decode_one_b8block.99
	.cfi_def_cfa %rbp, 16
	movl	%ebx, %edi
	movl	%r13d, %esi
	movl	%r12d, %edx
	movl	%r15d, %ecx
	movl	%r14d, %r8d
	callq	decode_one_b8block.99
	addq	$8, %rsp
	popq	%rbx
	popq	%r12
	popq	%r13
	popq	%r14
	popq	%r15
	popq	%rbp
	.cfi_def_cfa %rsp, 8
	retq
.LBB0_13:                               # %func_decode_one_b8block.106
	.cfi_def_cfa %rbp, 16
	movl	%ebx, %edi
	movl	%r13d, %esi
	movl	%r12d, %edx
	movl	%r15d, %ecx
	movl	%r14d, %r8d
	callq	decode_one_b8block.106
	addq	$8, %rsp
	popq	%rbx
	popq	%r12
	popq	%r13
	popq	%r14
	popq	%r15
	popq	%rbp
	.cfi_def_cfa %rsp, 8
	retq
.LBB0_14:                               # %func_decode_one_b8block.112
	.cfi_def_cfa %rbp, 16
	movl	%ebx, %edi
	movl	%r13d, %esi
	movl	%r12d, %edx
	movl	%r15d, %ecx
	movl	%r14d, %r8d
	callq	decode_one_b8block.112
	addq	$8, %rsp
	popq	%rbx
	popq	%r12
	popq	%r13
	popq	%r14
	popq	%r15
	popq	%rbp
	.cfi_def_cfa %rsp, 8
	retq
.LBB0_15:                               # %func_decode_one_b8block.114
	.cfi_def_cfa %rbp, 16
	movl	%ebx, %edi
	movl	%r13d, %esi
	movl	%r12d, %edx
	movl	%r15d, %ecx
	movl	%r14d, %r8d
	callq	decode_one_b8block.114
	addq	$8, %rsp
	popq	%rbx
	popq	%r12
	popq	%r13
	popq	%r14
	popq	%r15
	popq	%rbp
	.cfi_def_cfa %rsp, 8
	retq
.LBB0_16:                               # %func_decode_one_b8block.117
	.cfi_def_cfa %rbp, 16
	movl	%ebx, %edi
	movl	%r13d, %esi
	movl	%r12d, %edx
	movl	%r15d, %ecx
	movl	%r14d, %r8d
	callq	decode_one_b8block.117
	addq	$8, %rsp
	popq	%rbx
	popq	%r12
	popq	%r13
	popq	%r14
	popq	%r15
	popq	%rbp
	.cfi_def_cfa %rsp, 8
	retq
.LBB0_17:                               # %ctrl0
	.cfi_def_cfa %rbp, 16
	cmpl	$1, %eax
	je	.LBB0_2
# %bb.18:                               # %ctrl1
	cmpl	$2, %eax
	je	.LBB0_3
# %bb.19:                               # %ctrl2
	cmpl	$3, %eax
	je	.LBB0_4
# %bb.20:                               # %ctrl3
	cmpl	$4, %eax
	je	.LBB0_5
# %bb.21:                               # %ctrl4
	cmpl	$5, %eax
	je	.LBB0_6
# %bb.22:                               # %ctrl5
	cmpl	$6, %eax
	je	.LBB0_7
# %bb.23:                               # %ctrl6
	cmpl	$7, %eax
	je	.LBB0_8
# %bb.24:                               # %ctrl7
	cmpl	$8, %eax
	je	.LBB0_9
# %bb.25:                               # %ctrl8
	cmpl	$9, %eax
	je	.LBB0_10
# %bb.26:                               # %ctrl9
	cmpl	$10, %eax
	je	.LBB0_11
# %bb.27:                               # %ctrl10
	cmpl	$11, %eax
	je	.LBB0_12
# %bb.28:                               # %ctrl11
	cmpl	$12, %eax
	je	.LBB0_13
# %bb.29:                               # %ctrl12
	cmpl	$13, %eax
	je	.LBB0_14
# %bb.30:                               # %ctrl13
	cmpl	$14, %eax
	je	.LBB0_15
	jmp	.LBB0_16
.Lfunc_end0:
	.size	decode_one_b8block, .Lfunc_end0-decode_one_b8block
	.cfi_endproc
                                        # -- End function
	.globl	Get_Reference_Block     # -- Begin function Get_Reference_Block
	.p2align	4, 0x90
	.type	Get_Reference_Block,@function
Get_Reference_Block:                    # @Get_Reference_Block
	.cfi_startproc
# %bb.0:                                # %rand_bb
	pushq	%rbp
	.cfi_def_cfa_offset 16
	.cfi_offset %rbp, -16
	movq	%rsp, %rbp
	.cfi_def_cfa_register %rbp
	pushq	%r15
	pushq	%r14
	pushq	%r13
	pushq	%r12
	pushq	%rbx
	pushq	%rax
	.cfi_offset %rbx, -56
	.cfi_offset %r12, -48
	.cfi_offset %r13, -40
	.cfi_offset %r14, -32
	.cfi_offset %r15, -24
	movq	%r9, -48(%rbp)          # 8-byte Spill
	movl	%r8d, %r12d
	movl	%ecx, %r13d
	movl	%edx, %ebx
	movl	%esi, %r14d
	movq	%rdi, %r15
	callq	get_rand
	cmpl	$0, %eax
	jne	.LBB1_17
# %bb.1:                                # %func_Get_Reference_Block.22
	movq	%r15, %rdi
	movl	%r14d, %esi
	movl	%ebx, %edx
	movl	%r13d, %ecx
	movl	%r12d, %r8d
	movq	-48(%rbp), %r9          # 8-byte Reload
	callq	Get_Reference_Block.22
	addq	$8, %rsp
	popq	%rbx
	popq	%r12
	popq	%r13
	popq	%r14
	popq	%r15
	popq	%rbp
	.cfi_def_cfa %rsp, 8
	retq
.LBB1_2:                                # %func_Get_Reference_Block.37
	.cfi_def_cfa %rbp, 16
	movl	%r13d, %ecx
	movl	%r11d, %r8d
	movq	%r10, %r9
	callq	Get_Reference_Block.37
	addq	$8, %rsp
	popq	%rbx
	popq	%r12
	popq	%r13
	popq	%r14
	popq	%r15
	popq	%rbp
	.cfi_def_cfa %rsp, 8
	retq
.LBB1_3:                                # %func_Get_Reference_Block.40
	.cfi_def_cfa %rbp, 16
	movq	%rbx, %rdi
	movl	%r14d, %esi
	movl	%r12d, %edx
	movl	%r15d, %ecx
	callq	Get_Reference_Block.40
	addq	$8, %rsp
	popq	%rbx
	popq	%r12
	popq	%r13
	popq	%r14
	popq	%r15
	popq	%rbp
	.cfi_def_cfa %rsp, 8
	retq
.LBB1_4:                                # %func_Get_Reference_Block.45
	.cfi_def_cfa %rbp, 16
	movq	%rbx, %rdi
	movl	%r14d, %esi
	movl	%r12d, %edx
	movl	%r15d, %ecx
	callq	Get_Reference_Block.45
	addq	$8, %rsp
	popq	%rbx
	popq	%r12
	popq	%r13
	popq	%r14
	popq	%r15
	popq	%rbp
	.cfi_def_cfa %rsp, 8
	retq
.LBB1_5:                                # %func_Get_Reference_Block.50
	.cfi_def_cfa %rbp, 16
	movq	%rbx, %rdi
	movl	%r14d, %esi
	movl	%r12d, %edx
	movl	%r15d, %ecx
	callq	Get_Reference_Block.50
	addq	$8, %rsp
	popq	%rbx
	popq	%r12
	popq	%r13
	popq	%r14
	popq	%r15
	popq	%rbp
	.cfi_def_cfa %rsp, 8
	retq
.LBB1_6:                                # %func_Get_Reference_Block.52
	.cfi_def_cfa %rbp, 16
	movq	%rbx, %rdi
	movl	%r14d, %esi
	movl	%r12d, %edx
	movl	%r15d, %ecx
	callq	Get_Reference_Block.52
	addq	$8, %rsp
	popq	%rbx
	popq	%r12
	popq	%r13
	popq	%r14
	popq	%r15
	popq	%rbp
	.cfi_def_cfa %rsp, 8
	retq
.LBB1_7:                                # %func_Get_Reference_Block.74
	.cfi_def_cfa %rbp, 16
	movq	%rbx, %rdi
	movl	%r14d, %esi
	movl	%r12d, %edx
	movl	%r15d, %ecx
	callq	Get_Reference_Block.74
	addq	$8, %rsp
	popq	%rbx
	popq	%r12
	popq	%r13
	popq	%r14
	popq	%r15
	popq	%rbp
	.cfi_def_cfa %rsp, 8
	retq
.LBB1_8:                                # %func_Get_Reference_Block.82
	.cfi_def_cfa %rbp, 16
	movq	%rbx, %rdi
	movl	%r14d, %esi
	movl	%r12d, %edx
	movl	%r15d, %ecx
	callq	Get_Reference_Block.82
	addq	$8, %rsp
	popq	%rbx
	popq	%r12
	popq	%r13
	popq	%r14
	popq	%r15
	popq	%rbp
	.cfi_def_cfa %rsp, 8
	retq
.LBB1_9:                                # %func_Get_Reference_Block.90
	.cfi_def_cfa %rbp, 16
	movq	%rbx, %rdi
	movl	%r14d, %esi
	movl	%r12d, %edx
	movl	%r15d, %ecx
	callq	Get_Reference_Block.90
	addq	$8, %rsp
	popq	%rbx
	popq	%r12
	popq	%r13
	popq	%r14
	popq	%r15
	popq	%rbp
	.cfi_def_cfa %rsp, 8
	retq
.LBB1_10:                               # %func_Get_Reference_Block.94
	.cfi_def_cfa %rbp, 16
	movq	%rbx, %rdi
	movl	%r14d, %esi
	movl	%r12d, %edx
	movl	%r15d, %ecx
	callq	Get_Reference_Block.94
	addq	$8, %rsp
	popq	%rbx
	popq	%r12
	popq	%r13
	popq	%r14
	popq	%r15
	popq	%rbp
	.cfi_def_cfa %rsp, 8
	retq
.LBB1_11:                               # %func_Get_Reference_Block.105
	.cfi_def_cfa %rbp, 16
	movq	%rbx, %rdi
	movl	%r14d, %esi
	movl	%r12d, %edx
	movl	%r15d, %ecx
	callq	Get_Reference_Block.105
	addq	$8, %rsp
	popq	%rbx
	popq	%r12
	popq	%r13
	popq	%r14
	popq	%r15
	popq	%rbp
	.cfi_def_cfa %rsp, 8
	retq
.LBB1_12:                               # %func_Get_Reference_Block.109
	.cfi_def_cfa %rbp, 16
	movq	%rbx, %rdi
	movl	%r14d, %esi
	movl	%r12d, %edx
	movl	%r15d, %ecx
	callq	Get_Reference_Block.109
	addq	$8, %rsp
	popq	%rbx
	popq	%r12
	popq	%r13
	popq	%r14
	popq	%r15
	popq	%rbp
	.cfi_def_cfa %rsp, 8
	retq
.LBB1_13:                               # %func_Get_Reference_Block.111
	.cfi_def_cfa %rbp, 16
	movq	%rbx, %rdi
	movl	%r14d, %esi
	movl	%r12d, %edx
	movl	%r15d, %ecx
	callq	Get_Reference_Block.111
	addq	$8, %rsp
	popq	%rbx
	popq	%r12
	popq	%r13
	popq	%r14
	popq	%r15
	popq	%rbp
	.cfi_def_cfa %rsp, 8
	retq
.LBB1_14:                               # %func_Get_Reference_Block.116
	.cfi_def_cfa %rbp, 16
	movq	%rbx, %rdi
	movl	%r14d, %esi
	movl	%r12d, %edx
	movl	%r15d, %ecx
	callq	Get_Reference_Block.116
	addq	$8, %rsp
	popq	%rbx
	popq	%r12
	popq	%r13
	popq	%r14
	popq	%r15
	popq	%rbp
	.cfi_def_cfa %rsp, 8
	retq
.LBB1_15:                               # %func_Get_Reference_Block.118
	.cfi_def_cfa %rbp, 16
	movl	%r13d, %ecx
	movl	%r11d, %r8d
	movq	%r10, %r9
	callq	Get_Reference_Block.118
	addq	$8, %rsp
	popq	%rbx
	popq	%r12
	popq	%r13
	popq	%r14
	popq	%r15
	popq	%rbp
	.cfi_def_cfa %rsp, 8
	retq
.LBB1_16:                               # %func_Get_Reference_Block.121
	.cfi_def_cfa %rbp, 16
	movl	%r13d, %ecx
	movl	%r11d, %r8d
	movq	%r10, %r9
	callq	Get_Reference_Block.121
	addq	$8, %rsp
	popq	%rbx
	popq	%r12
	popq	%r13
	popq	%r14
	popq	%r15
	popq	%rbp
	.cfi_def_cfa %rsp, 8
	retq
.LBB1_17:                               # %ctrl0
	.cfi_def_cfa %rbp, 16
	movq	%r15, %rdi
	movl	%r14d, %esi
	movl	%ebx, %edx
	movl	%r12d, %r11d
	movq	-48(%rbp), %r10         # 8-byte Reload
	cmpl	$1, %eax
	je	.LBB1_2
# %bb.18:                               # %ctrl1
	cmpl	$2, %eax
	movq	%r10, %r9
	movl	%r11d, %r8d
	movl	%r13d, %r15d
	movl	%edx, %r12d
	movl	%esi, %r14d
	movq	%rdi, %rbx
	je	.LBB1_3
# %bb.19:                               # %ctrl2
	cmpl	$3, %eax
	je	.LBB1_4
# %bb.20:                               # %ctrl3
	cmpl	$4, %eax
	je	.LBB1_5
# %bb.21:                               # %ctrl4
	cmpl	$5, %eax
	je	.LBB1_6
# %bb.22:                               # %ctrl5
	cmpl	$6, %eax
	je	.LBB1_7
# %bb.23:                               # %ctrl6
	cmpl	$7, %eax
	je	.LBB1_8
# %bb.24:                               # %ctrl7
	cmpl	$8, %eax
	je	.LBB1_9
# %bb.25:                               # %ctrl8
	cmpl	$9, %eax
	je	.LBB1_10
# %bb.26:                               # %ctrl9
	cmpl	$10, %eax
	je	.LBB1_11
# %bb.27:                               # %ctrl10
	cmpl	$11, %eax
	je	.LBB1_12
# %bb.28:                               # %ctrl11
	cmpl	$12, %eax
	je	.LBB1_13
# %bb.29:                               # %ctrl12
	cmpl	$13, %eax
	je	.LBB1_14
# %bb.30:                               # %ctrl13
	cmpl	$14, %eax
	je	.LBB1_15
	jmp	.LBB1_16
.Lfunc_end1:
	.size	Get_Reference_Block, .Lfunc_end1-Get_Reference_Block
	.cfi_endproc
                                        # -- End function
	.globl	decode_one_mb           # -- Begin function decode_one_mb
	.p2align	4, 0x90
	.type	decode_one_mb,@function
decode_one_mb:                          # @decode_one_mb
	.cfi_startproc
# %bb.0:                                # %rand_bb
	pushq	%rbp
	.cfi_def_cfa_offset 16
	.cfi_offset %rbp, -16
	movq	%rsp, %rbp
	.cfi_def_cfa_register %rbp
	pushq	%r14
	pushq	%rbx
	.cfi_offset %rbx, -32
	.cfi_offset %r14, -24
	movq	%rsi, %r14
	movl	%edi, %ebx
	callq	get_rand
	cmpl	$0, %eax
	jne	.LBB2_2
# %bb.1:                                # %func_decode_one_mb.23
	movl	%ebx, %edi
	movq	%r14, %rsi
	callq	decode_one_mb.23
	popq	%rbx
	popq	%r14
	popq	%rbp
	.cfi_def_cfa %rsp, 8
	retq
.LBB2_2:                                # %func_decode_one_mb.26
	.cfi_def_cfa %rbp, 16
	movl	%ebx, %edi
	movq	%r14, %rsi
	callq	decode_one_mb.26
	popq	%rbx
	popq	%r14
	popq	%rbp
	.cfi_def_cfa %rsp, 8
	retq
.Lfunc_end2:
	.size	decode_one_mb, .Lfunc_end2-decode_one_mb
	.cfi_endproc
                                        # -- End function
	.globl	Get_Reference_Pixel     # -- Begin function Get_Reference_Pixel
	.p2align	4, 0x90
	.type	Get_Reference_Pixel,@function
Get_Reference_Pixel:                    # @Get_Reference_Pixel
	.cfi_startproc
# %bb.0:                                # %rand_bb
	pushq	%rbp
	.cfi_def_cfa_offset 16
	.cfi_offset %rbp, -16
	movq	%rsp, %rbp
	.cfi_def_cfa_register %rbp
	pushq	%r15
	pushq	%r14
	pushq	%rbx
	pushq	%rax
	.cfi_offset %rbx, -40
	.cfi_offset %r14, -32
	.cfi_offset %r15, -24
	movl	%edx, %r14d
	movl	%esi, %r15d
	movq	%rdi, %rbx
	callq	get_rand
	cmpl	$0, %eax
	jne	.LBB3_17
# %bb.1:                                # %func_Get_Reference_Pixel.1
	movq	%rbx, %rdi
	movl	%r15d, %esi
	movl	%r14d, %edx
	callq	Get_Reference_Pixel.1
	movzbl	%al, %eax
	addq	$8, %rsp
	popq	%rbx
	popq	%r14
	popq	%r15
	popq	%rbp
	.cfi_def_cfa %rsp, 8
	retq
.LBB3_2:                                # %func_Get_Reference_Pixel.11
	.cfi_def_cfa %rbp, 16
	movq	%rbx, %rdi
	movl	%r15d, %esi
	movl	%r14d, %edx
	callq	Get_Reference_Pixel.11
	movzbl	%al, %eax
	addq	$8, %rsp
	popq	%rbx
	popq	%r14
	popq	%r15
	popq	%rbp
	.cfi_def_cfa %rsp, 8
	retq
.LBB3_3:                                # %func_Get_Reference_Pixel.15
	.cfi_def_cfa %rbp, 16
	movq	%rbx, %rdi
	movl	%r15d, %esi
	movl	%r14d, %edx
	callq	Get_Reference_Pixel.15
	movzbl	%al, %eax
	addq	$8, %rsp
	popq	%rbx
	popq	%r14
	popq	%r15
	popq	%rbp
	.cfi_def_cfa %rsp, 8
	retq
.LBB3_4:                                # %func_Get_Reference_Pixel.39
	.cfi_def_cfa %rbp, 16
	movq	%rbx, %rdi
	movl	%r15d, %esi
	movl	%r14d, %edx
	callq	Get_Reference_Pixel.39
	movzbl	%al, %eax
	addq	$8, %rsp
	popq	%rbx
	popq	%r14
	popq	%r15
	popq	%rbp
	.cfi_def_cfa %rsp, 8
	retq
.LBB3_5:                                # %func_Get_Reference_Pixel.41
	.cfi_def_cfa %rbp, 16
	movq	%rbx, %rdi
	movl	%r15d, %esi
	movl	%r14d, %edx
	callq	Get_Reference_Pixel.41
	movzbl	%al, %eax
	addq	$8, %rsp
	popq	%rbx
	popq	%r14
	popq	%r15
	popq	%rbp
	.cfi_def_cfa %rsp, 8
	retq
.LBB3_6:                                # %func_Get_Reference_Pixel.64
	.cfi_def_cfa %rbp, 16
	movq	%rbx, %rdi
	movl	%r15d, %esi
	movl	%r14d, %edx
	callq	Get_Reference_Pixel.64
	movzbl	%al, %eax
	addq	$8, %rsp
	popq	%rbx
	popq	%r14
	popq	%r15
	popq	%rbp
	.cfi_def_cfa %rsp, 8
	retq
.LBB3_7:                                # %func_Get_Reference_Pixel.65
	.cfi_def_cfa %rbp, 16
	movq	%rbx, %rdi
	movl	%r15d, %esi
	movl	%r14d, %edx
	callq	Get_Reference_Pixel.65
	movzbl	%al, %eax
	addq	$8, %rsp
	popq	%rbx
	popq	%r14
	popq	%r15
	popq	%rbp
	.cfi_def_cfa %rsp, 8
	retq
.LBB3_8:                                # %func_Get_Reference_Pixel.66
	.cfi_def_cfa %rbp, 16
	movq	%rbx, %rdi
	movl	%r15d, %esi
	movl	%r14d, %edx
	callq	Get_Reference_Pixel.66
	movzbl	%al, %eax
	addq	$8, %rsp
	popq	%rbx
	popq	%r14
	popq	%r15
	popq	%rbp
	.cfi_def_cfa %rsp, 8
	retq
.LBB3_9:                                # %func_Get_Reference_Pixel.68
	.cfi_def_cfa %rbp, 16
	movq	%rbx, %rdi
	movl	%r15d, %esi
	movl	%r14d, %edx
	callq	Get_Reference_Pixel.68
	movzbl	%al, %eax
	addq	$8, %rsp
	popq	%rbx
	popq	%r14
	popq	%r15
	popq	%rbp
	.cfi_def_cfa %rsp, 8
	retq
.LBB3_10:                               # %func_Get_Reference_Pixel.69
	.cfi_def_cfa %rbp, 16
	movq	%rbx, %rdi
	movl	%r15d, %esi
	movl	%r14d, %edx
	callq	Get_Reference_Pixel.69
	movzbl	%al, %eax
	addq	$8, %rsp
	popq	%rbx
	popq	%r14
	popq	%r15
	popq	%rbp
	.cfi_def_cfa %rsp, 8
	retq
.LBB3_11:                               # %func_Get_Reference_Pixel.77
	.cfi_def_cfa %rbp, 16
	movq	%rbx, %rdi
	movl	%r15d, %esi
	movl	%r14d, %edx
	callq	Get_Reference_Pixel.77
	movzbl	%al, %eax
	addq	$8, %rsp
	popq	%rbx
	popq	%r14
	popq	%r15
	popq	%rbp
	.cfi_def_cfa %rsp, 8
	retq
.LBB3_12:                               # %func_Get_Reference_Pixel.85
	.cfi_def_cfa %rbp, 16
	movq	%rbx, %rdi
	movl	%r15d, %esi
	movl	%r14d, %edx
	callq	Get_Reference_Pixel.85
	movzbl	%al, %eax
	addq	$8, %rsp
	popq	%rbx
	popq	%r14
	popq	%r15
	popq	%rbp
	.cfi_def_cfa %rsp, 8
	retq
.LBB3_13:                               # %func_Get_Reference_Pixel.97
	.cfi_def_cfa %rbp, 16
	movq	%rbx, %rdi
	movl	%r15d, %esi
	movl	%r14d, %edx
	callq	Get_Reference_Pixel.97
	movzbl	%al, %eax
	addq	$8, %rsp
	popq	%rbx
	popq	%r14
	popq	%r15
	popq	%rbp
	.cfi_def_cfa %rsp, 8
	retq
.LBB3_14:                               # %func_Get_Reference_Pixel.108
	.cfi_def_cfa %rbp, 16
	movq	%rbx, %rdi
	movl	%r15d, %esi
	movl	%r14d, %edx
	callq	Get_Reference_Pixel.108
	movzbl	%al, %eax
	addq	$8, %rsp
	popq	%rbx
	popq	%r14
	popq	%r15
	popq	%rbp
	.cfi_def_cfa %rsp, 8
	retq
.LBB3_15:                               # %func_Get_Reference_Pixel.115
	.cfi_def_cfa %rbp, 16
	movq	%rbx, %rdi
	movl	%r15d, %esi
	movl	%r14d, %edx
	callq	Get_Reference_Pixel.115
	movzbl	%al, %eax
	addq	$8, %rsp
	popq	%rbx
	popq	%r14
	popq	%r15
	popq	%rbp
	.cfi_def_cfa %rsp, 8
	retq
.LBB3_16:                               # %func_Get_Reference_Pixel.127
	.cfi_def_cfa %rbp, 16
	movq	%rbx, %rdi
	movl	%r15d, %esi
	movl	%r14d, %edx
	callq	Get_Reference_Pixel.127
	movzbl	%al, %eax
	addq	$8, %rsp
	popq	%rbx
	popq	%r14
	popq	%r15
	popq	%rbp
	.cfi_def_cfa %rsp, 8
	retq
.LBB3_17:                               # %ctrl0
	.cfi_def_cfa %rbp, 16
	cmpl	$1, %eax
	je	.LBB3_2
# %bb.18:                               # %ctrl1
	cmpl	$2, %eax
	je	.LBB3_3
# %bb.19:                               # %ctrl2
	cmpl	$3, %eax
	je	.LBB3_4
# %bb.20:                               # %ctrl3
	cmpl	$4, %eax
	je	.LBB3_5
# %bb.21:                               # %ctrl4
	cmpl	$5, %eax
	je	.LBB3_6
# %bb.22:                               # %ctrl5
	cmpl	$6, %eax
	je	.LBB3_7
# %bb.23:                               # %ctrl6
	cmpl	$7, %eax
	je	.LBB3_8
# %bb.24:                               # %ctrl7
	cmpl	$8, %eax
	je	.LBB3_9
# %bb.25:                               # %ctrl8
	cmpl	$9, %eax
	je	.LBB3_10
# %bb.26:                               # %ctrl9
	cmpl	$10, %eax
	je	.LBB3_11
# %bb.27:                               # %ctrl10
	cmpl	$11, %eax
	je	.LBB3_12
# %bb.28:                               # %ctrl11
	cmpl	$12, %eax
	je	.LBB3_13
# %bb.29:                               # %ctrl12
	cmpl	$13, %eax
	je	.LBB3_14
# %bb.30:                               # %ctrl13
	cmpl	$14, %eax
	je	.LBB3_15
	jmp	.LBB3_16
.Lfunc_end3:
	.size	Get_Reference_Pixel, .Lfunc_end3-Get_Reference_Pixel
	.cfi_endproc
                                        # -- End function
	.globl	UpdateDecoders          # -- Begin function UpdateDecoders
	.p2align	4, 0x90
	.type	UpdateDecoders,@function
UpdateDecoders:                         # @UpdateDecoders
	.cfi_startproc
# %bb.0:                                # %entry
	pushq	%rbp
	.cfi_def_cfa_offset 16
	.cfi_offset %rbp, -16
	movq	%rsp, %rbp
	.cfi_def_cfa_register %rbp
	subq	$16, %rsp
	movl	$0, -4(%rbp)
.LBB4_1:                                # %for.cond
                                        # =>This Inner Loop Header: Depth=1
	movl	-4(%rbp), %eax
	movq	input, %rcx
	cmpl	2904(%rcx), %eax
	jge	.LBB4_4
# %bb.2:                                # %for.body
                                        #   in Loop: Header=BB4_1 Depth=1
	movq	decs, %rax
	movq	40(%rax), %rdi
	callq	Build_Status_Map
	movq	decs, %rax
	movq	24(%rax), %rax
	movslq	-4(%rbp), %rcx
	movq	(%rax,%rcx,8), %rdi
	movq	decs, %rax
	movq	40(%rax), %rsi
	movq	decs, %rax
	movq	16(%rax), %rax
	movslq	-4(%rbp), %rcx
	movq	(%rax,%rcx,8), %rdx
	callq	Error_Concealment
	movq	decs, %rax
	movq	24(%rax), %rax
	movslq	-4(%rbp), %rcx
	movq	(%rax,%rcx,8), %rdi
	movq	decs, %rax
	movq	16(%rax), %rax
	movslq	-4(%rbp), %rcx
	movq	(%rax,%rcx,8), %rsi
	callq	DecOneForthPix
# %bb.3:                                # %for.inc
                                        #   in Loop: Header=BB4_1 Depth=1
	movl	-4(%rbp), %eax
	addl	$1, %eax
	movl	%eax, -4(%rbp)
	jmp	.LBB4_1
.LBB4_4:                                # %for.end
	addq	$16, %rsp
	popq	%rbp
	.cfi_def_cfa %rsp, 8
	retq
.Lfunc_end4:
	.size	UpdateDecoders, .Lfunc_end4-UpdateDecoders
	.cfi_endproc
                                        # -- End function
	.globl	Build_Status_Map        # -- Begin function Build_Status_Map
	.p2align	4, 0x90
	.type	Build_Status_Map,@function
Build_Status_Map:                       # @Build_Status_Map
	.cfi_startproc
# %bb.0:                                # %rand_bb
	pushq	%rbp
	.cfi_def_cfa_offset 16
	.cfi_offset %rbp, -16
	movq	%rsp, %rbp
	.cfi_def_cfa_register %rbp
	pushq	%rbx
	pushq	%rax
	.cfi_offset %rbx, -24
	movq	%rdi, %rbx
	callq	get_rand
	cmpl	$0, %eax
	jne	.LBB5_17
# %bb.1:                                # %func_Build_Status_Map.2
	movq	%rbx, %rdi
	callq	Build_Status_Map.2
	addq	$8, %rsp
	popq	%rbx
	popq	%rbp
	.cfi_def_cfa %rsp, 8
	retq
.LBB5_2:                                # %func_Build_Status_Map.4
	.cfi_def_cfa %rbp, 16
	movq	%rbx, %rdi
	callq	Build_Status_Map.4
	addq	$8, %rsp
	popq	%rbx
	popq	%rbp
	.cfi_def_cfa %rsp, 8
	retq
.LBB5_3:                                # %func_Build_Status_Map.6
	.cfi_def_cfa %rbp, 16
	movq	%rbx, %rdi
	callq	Build_Status_Map.6
	addq	$8, %rsp
	popq	%rbx
	popq	%rbp
	.cfi_def_cfa %rsp, 8
	retq
.LBB5_4:                                # %func_Build_Status_Map.12
	.cfi_def_cfa %rbp, 16
	movq	%rbx, %rdi
	callq	Build_Status_Map.12
	addq	$8, %rsp
	popq	%rbx
	popq	%rbp
	.cfi_def_cfa %rsp, 8
	retq
.LBB5_5:                                # %func_Build_Status_Map.21
	.cfi_def_cfa %rbp, 16
	movq	%rbx, %rdi
	callq	Build_Status_Map.21
	addq	$8, %rsp
	popq	%rbx
	popq	%rbp
	.cfi_def_cfa %rsp, 8
	retq
.LBB5_6:                                # %func_Build_Status_Map.29
	.cfi_def_cfa %rbp, 16
	movq	%rbx, %rdi
	callq	Build_Status_Map.29
	addq	$8, %rsp
	popq	%rbx
	popq	%rbp
	.cfi_def_cfa %rsp, 8
	retq
.LBB5_7:                                # %func_Build_Status_Map.34
	.cfi_def_cfa %rbp, 16
	movq	%rbx, %rdi
	callq	Build_Status_Map.34
	addq	$8, %rsp
	popq	%rbx
	popq	%rbp
	.cfi_def_cfa %rsp, 8
	retq
.LBB5_8:                                # %func_Build_Status_Map.42
	.cfi_def_cfa %rbp, 16
	movq	%rbx, %rdi
	callq	Build_Status_Map.42
	addq	$8, %rsp
	popq	%rbx
	popq	%rbp
	.cfi_def_cfa %rsp, 8
	retq
.LBB5_9:                                # %func_Build_Status_Map.48
	.cfi_def_cfa %rbp, 16
	movq	%rbx, %rdi
	callq	Build_Status_Map.48
	addq	$8, %rsp
	popq	%rbx
	popq	%rbp
	.cfi_def_cfa %rsp, 8
	retq
.LBB5_10:                               # %func_Build_Status_Map.51
	.cfi_def_cfa %rbp, 16
	movq	%rbx, %rdi
	callq	Build_Status_Map.51
	addq	$8, %rsp
	popq	%rbx
	popq	%rbp
	.cfi_def_cfa %rsp, 8
	retq
.LBB5_11:                               # %func_Build_Status_Map.54
	.cfi_def_cfa %rbp, 16
	movq	%rbx, %rdi
	callq	Build_Status_Map.54
	addq	$8, %rsp
	popq	%rbx
	popq	%rbp
	.cfi_def_cfa %rsp, 8
	retq
.LBB5_12:                               # %func_Build_Status_Map.59
	.cfi_def_cfa %rbp, 16
	movq	%rbx, %rdi
	callq	Build_Status_Map.59
	addq	$8, %rsp
	popq	%rbx
	popq	%rbp
	.cfi_def_cfa %rsp, 8
	retq
.LBB5_13:                               # %func_Build_Status_Map.60
	.cfi_def_cfa %rbp, 16
	movq	%rbx, %rdi
	callq	Build_Status_Map.60
	addq	$8, %rsp
	popq	%rbx
	popq	%rbp
	.cfi_def_cfa %rsp, 8
	retq
.LBB5_14:                               # %func_Build_Status_Map.62
	.cfi_def_cfa %rbp, 16
	movq	%rbx, %rdi
	callq	Build_Status_Map.62
	addq	$8, %rsp
	popq	%rbx
	popq	%rbp
	.cfi_def_cfa %rsp, 8
	retq
.LBB5_15:                               # %func_Build_Status_Map.67
	.cfi_def_cfa %rbp, 16
	movq	%rbx, %rdi
	callq	Build_Status_Map.67
	addq	$8, %rsp
	popq	%rbx
	popq	%rbp
	.cfi_def_cfa %rsp, 8
	retq
.LBB5_16:                               # %func_Build_Status_Map.84
	.cfi_def_cfa %rbp, 16
	movq	%rbx, %rdi
	callq	Build_Status_Map.84
	addq	$8, %rsp
	popq	%rbx
	popq	%rbp
	.cfi_def_cfa %rsp, 8
	retq
.LBB5_17:                               # %ctrl0
	.cfi_def_cfa %rbp, 16
	cmpl	$1, %eax
	je	.LBB5_2
# %bb.18:                               # %ctrl1
	cmpl	$2, %eax
	je	.LBB5_3
# %bb.19:                               # %ctrl2
	cmpl	$3, %eax
	je	.LBB5_4
# %bb.20:                               # %ctrl3
	cmpl	$4, %eax
	je	.LBB5_5
# %bb.21:                               # %ctrl4
	cmpl	$5, %eax
	je	.LBB5_6
# %bb.22:                               # %ctrl5
	cmpl	$6, %eax
	je	.LBB5_7
# %bb.23:                               # %ctrl6
	cmpl	$7, %eax
	je	.LBB5_8
# %bb.24:                               # %ctrl7
	cmpl	$8, %eax
	je	.LBB5_9
# %bb.25:                               # %ctrl8
	cmpl	$9, %eax
	je	.LBB5_10
# %bb.26:                               # %ctrl9
	cmpl	$10, %eax
	je	.LBB5_11
# %bb.27:                               # %ctrl10
	cmpl	$11, %eax
	je	.LBB5_12
# %bb.28:                               # %ctrl11
	cmpl	$12, %eax
	je	.LBB5_13
# %bb.29:                               # %ctrl12
	cmpl	$13, %eax
	je	.LBB5_14
# %bb.30:                               # %ctrl13
	cmpl	$14, %eax
	je	.LBB5_15
	jmp	.LBB5_16
.Lfunc_end5:
	.size	Build_Status_Map, .Lfunc_end5-Build_Status_Map
	.cfi_endproc
                                        # -- End function
	.globl	Error_Concealment       # -- Begin function Error_Concealment
	.p2align	4, 0x90
	.type	Error_Concealment,@function
Error_Concealment:                      # @Error_Concealment
	.cfi_startproc
# %bb.0:                                # %rand_bb
	pushq	%rbp
	.cfi_def_cfa_offset 16
	.cfi_offset %rbp, -16
	movq	%rsp, %rbp
	.cfi_def_cfa_register %rbp
	pushq	%r15
	pushq	%r14
	pushq	%rbx
	pushq	%rax
	.cfi_offset %rbx, -40
	.cfi_offset %r14, -32
	.cfi_offset %r15, -24
	movq	%rdx, %r14
	movq	%rsi, %r15
	movq	%rdi, %rbx
	callq	get_rand
	cmpl	$0, %eax
	jne	.LBB6_17
# %bb.1:                                # %func_Error_Concealment.8
	movq	%rbx, %rdi
	movq	%r15, %rsi
	movq	%r14, %rdx
	callq	Error_Concealment.8
	addq	$8, %rsp
	popq	%rbx
	popq	%r14
	popq	%r15
	popq	%rbp
	.cfi_def_cfa %rsp, 8
	retq
.LBB6_2:                                # %func_Error_Concealment.10
	.cfi_def_cfa %rbp, 16
	movq	%rbx, %rdi
	movq	%r15, %rsi
	movq	%r14, %rdx
	callq	Error_Concealment.10
	addq	$8, %rsp
	popq	%rbx
	popq	%r14
	popq	%r15
	popq	%rbp
	.cfi_def_cfa %rsp, 8
	retq
.LBB6_3:                                # %func_Error_Concealment.14
	.cfi_def_cfa %rbp, 16
	movq	%rbx, %rdi
	movq	%r15, %rsi
	movq	%r14, %rdx
	callq	Error_Concealment.14
	addq	$8, %rsp
	popq	%rbx
	popq	%r14
	popq	%r15
	popq	%rbp
	.cfi_def_cfa %rsp, 8
	retq
.LBB6_4:                                # %func_Error_Concealment.30
	.cfi_def_cfa %rbp, 16
	movq	%rbx, %rdi
	movq	%r15, %rsi
	movq	%r14, %rdx
	callq	Error_Concealment.30
	addq	$8, %rsp
	popq	%rbx
	popq	%r14
	popq	%r15
	popq	%rbp
	.cfi_def_cfa %rsp, 8
	retq
.LBB6_5:                                # %func_Error_Concealment.36
	.cfi_def_cfa %rbp, 16
	movq	%rbx, %rdi
	movq	%r15, %rsi
	movq	%r14, %rdx
	callq	Error_Concealment.36
	addq	$8, %rsp
	popq	%rbx
	popq	%r14
	popq	%r15
	popq	%rbp
	.cfi_def_cfa %rsp, 8
	retq
.LBB6_6:                                # %func_Error_Concealment.61
	.cfi_def_cfa %rbp, 16
	movq	%rbx, %rdi
	movq	%r15, %rsi
	movq	%r14, %rdx
	callq	Error_Concealment.61
	addq	$8, %rsp
	popq	%rbx
	popq	%r14
	popq	%r15
	popq	%rbp
	.cfi_def_cfa %rsp, 8
	retq
.LBB6_7:                                # %func_Error_Concealment.72
	.cfi_def_cfa %rbp, 16
	movq	%rbx, %rdi
	movq	%r15, %rsi
	movq	%r14, %rdx
	callq	Error_Concealment.72
	addq	$8, %rsp
	popq	%rbx
	popq	%r14
	popq	%r15
	popq	%rbp
	.cfi_def_cfa %rsp, 8
	retq
.LBB6_8:                                # %func_Error_Concealment.73
	.cfi_def_cfa %rbp, 16
	movq	%rbx, %rdi
	movq	%r15, %rsi
	movq	%r14, %rdx
	callq	Error_Concealment.73
	addq	$8, %rsp
	popq	%rbx
	popq	%r14
	popq	%r15
	popq	%rbp
	.cfi_def_cfa %rsp, 8
	retq
.LBB6_9:                                # %func_Error_Concealment.86
	.cfi_def_cfa %rbp, 16
	movq	%rbx, %rdi
	movq	%r15, %rsi
	movq	%r14, %rdx
	callq	Error_Concealment.86
	addq	$8, %rsp
	popq	%rbx
	popq	%r14
	popq	%r15
	popq	%rbp
	.cfi_def_cfa %rsp, 8
	retq
.LBB6_10:                               # %func_Error_Concealment.88
	.cfi_def_cfa %rbp, 16
	movq	%rbx, %rdi
	movq	%r15, %rsi
	movq	%r14, %rdx
	callq	Error_Concealment.88
	addq	$8, %rsp
	popq	%rbx
	popq	%r14
	popq	%r15
	popq	%rbp
	.cfi_def_cfa %rsp, 8
	retq
.LBB6_11:                               # %func_Error_Concealment.101
	.cfi_def_cfa %rbp, 16
	movq	%rbx, %rdi
	movq	%r15, %rsi
	movq	%r14, %rdx
	callq	Error_Concealment.101
	addq	$8, %rsp
	popq	%rbx
	popq	%r14
	popq	%r15
	popq	%rbp
	.cfi_def_cfa %rsp, 8
	retq
.LBB6_12:                               # %func_Error_Concealment.107
	.cfi_def_cfa %rbp, 16
	movq	%rbx, %rdi
	movq	%r15, %rsi
	movq	%r14, %rdx
	callq	Error_Concealment.107
	addq	$8, %rsp
	popq	%rbx
	popq	%r14
	popq	%r15
	popq	%rbp
	.cfi_def_cfa %rsp, 8
	retq
.LBB6_13:                               # %func_Error_Concealment.110
	.cfi_def_cfa %rbp, 16
	movq	%rbx, %rdi
	movq	%r15, %rsi
	movq	%r14, %rdx
	callq	Error_Concealment.110
	addq	$8, %rsp
	popq	%rbx
	popq	%r14
	popq	%r15
	popq	%rbp
	.cfi_def_cfa %rsp, 8
	retq
.LBB6_14:                               # %func_Error_Concealment.119
	.cfi_def_cfa %rbp, 16
	movq	%rbx, %rdi
	movq	%r15, %rsi
	movq	%r14, %rdx
	callq	Error_Concealment.119
	addq	$8, %rsp
	popq	%rbx
	popq	%r14
	popq	%r15
	popq	%rbp
	.cfi_def_cfa %rsp, 8
	retq
.LBB6_15:                               # %func_Error_Concealment.122
	.cfi_def_cfa %rbp, 16
	movq	%rbx, %rdi
	movq	%r15, %rsi
	movq	%r14, %rdx
	callq	Error_Concealment.122
	addq	$8, %rsp
	popq	%rbx
	popq	%r14
	popq	%r15
	popq	%rbp
	.cfi_def_cfa %rsp, 8
	retq
.LBB6_16:                               # %func_Error_Concealment.124
	.cfi_def_cfa %rbp, 16
	movq	%rbx, %rdi
	movq	%r15, %rsi
	movq	%r14, %rdx
	callq	Error_Concealment.124
	addq	$8, %rsp
	popq	%rbx
	popq	%r14
	popq	%r15
	popq	%rbp
	.cfi_def_cfa %rsp, 8
	retq
.LBB6_17:                               # %ctrl0
	.cfi_def_cfa %rbp, 16
	cmpl	$1, %eax
	je	.LBB6_2
# %bb.18:                               # %ctrl1
	cmpl	$2, %eax
	je	.LBB6_3
# %bb.19:                               # %ctrl2
	cmpl	$3, %eax
	je	.LBB6_4
# %bb.20:                               # %ctrl3
	cmpl	$4, %eax
	je	.LBB6_5
# %bb.21:                               # %ctrl4
	cmpl	$5, %eax
	je	.LBB6_6
# %bb.22:                               # %ctrl5
	cmpl	$6, %eax
	je	.LBB6_7
# %bb.23:                               # %ctrl6
	cmpl	$7, %eax
	je	.LBB6_8
# %bb.24:                               # %ctrl7
	cmpl	$8, %eax
	je	.LBB6_9
# %bb.25:                               # %ctrl8
	cmpl	$9, %eax
	je	.LBB6_10
# %bb.26:                               # %ctrl9
	cmpl	$10, %eax
	je	.LBB6_11
# %bb.27:                               # %ctrl10
	cmpl	$11, %eax
	je	.LBB6_12
# %bb.28:                               # %ctrl11
	cmpl	$12, %eax
	je	.LBB6_13
# %bb.29:                               # %ctrl12
	cmpl	$13, %eax
	je	.LBB6_14
# %bb.30:                               # %ctrl13
	cmpl	$14, %eax
	je	.LBB6_15
	jmp	.LBB6_16
.Lfunc_end6:
	.size	Error_Concealment, .Lfunc_end6-Error_Concealment
	.cfi_endproc
                                        # -- End function
	.globl	DecOneForthPix          # -- Begin function DecOneForthPix
	.p2align	4, 0x90
	.type	DecOneForthPix,@function
DecOneForthPix:                         # @DecOneForthPix
	.cfi_startproc
# %bb.0:                                # %rand_bb
	pushq	%rbp
	.cfi_def_cfa_offset 16
	.cfi_offset %rbp, -16
	movq	%rsp, %rbp
	.cfi_def_cfa_register %rbp
	pushq	%r14
	pushq	%rbx
	.cfi_offset %rbx, -32
	.cfi_offset %r14, -24
	movq	%rsi, %r14
	movq	%rdi, %rbx
	callq	get_rand
	cmpl	$0, %eax
	jne	.LBB7_17
# %bb.1:                                # %func_DecOneForthPix.5
	movq	%rbx, %rdi
	movq	%r14, %rsi
	callq	DecOneForthPix.5
	popq	%rbx
	popq	%r14
	popq	%rbp
	.cfi_def_cfa %rsp, 8
	retq
.LBB7_2:                                # %func_DecOneForthPix.18
	.cfi_def_cfa %rbp, 16
	movq	%rbx, %rdi
	movq	%r14, %rsi
	callq	DecOneForthPix.18
	popq	%rbx
	popq	%r14
	popq	%rbp
	.cfi_def_cfa %rsp, 8
	retq
.LBB7_3:                                # %func_DecOneForthPix.46
	.cfi_def_cfa %rbp, 16
	movq	%rbx, %rdi
	movq	%r14, %rsi
	callq	DecOneForthPix.46
	popq	%rbx
	popq	%r14
	popq	%rbp
	.cfi_def_cfa %rsp, 8
	retq
.LBB7_4:                                # %func_DecOneForthPix.57
	.cfi_def_cfa %rbp, 16
	movq	%rbx, %rdi
	movq	%r14, %rsi
	callq	DecOneForthPix.57
	popq	%rbx
	popq	%r14
	popq	%rbp
	.cfi_def_cfa %rsp, 8
	retq
.LBB7_5:                                # %func_DecOneForthPix.78
	.cfi_def_cfa %rbp, 16
	movq	%rbx, %rdi
	movq	%r14, %rsi
	callq	DecOneForthPix.78
	popq	%rbx
	popq	%r14
	popq	%rbp
	.cfi_def_cfa %rsp, 8
	retq
.LBB7_6:                                # %func_DecOneForthPix.83
	.cfi_def_cfa %rbp, 16
	movq	%rbx, %rdi
	movq	%r14, %rsi
	callq	DecOneForthPix.83
	popq	%rbx
	popq	%r14
	popq	%rbp
	.cfi_def_cfa %rsp, 8
	retq
.LBB7_7:                                # %func_DecOneForthPix.87
	.cfi_def_cfa %rbp, 16
	movq	%rbx, %rdi
	movq	%r14, %rsi
	callq	DecOneForthPix.87
	popq	%rbx
	popq	%r14
	popq	%rbp
	.cfi_def_cfa %rsp, 8
	retq
.LBB7_8:                                # %func_DecOneForthPix.96
	.cfi_def_cfa %rbp, 16
	movq	%rbx, %rdi
	movq	%r14, %rsi
	callq	DecOneForthPix.96
	popq	%rbx
	popq	%r14
	popq	%rbp
	.cfi_def_cfa %rsp, 8
	retq
.LBB7_9:                                # %func_DecOneForthPix.98
	.cfi_def_cfa %rbp, 16
	movq	%rbx, %rdi
	movq	%r14, %rsi
	callq	DecOneForthPix.98
	popq	%rbx
	popq	%r14
	popq	%rbp
	.cfi_def_cfa %rsp, 8
	retq
.LBB7_10:                               # %func_DecOneForthPix.104
	.cfi_def_cfa %rbp, 16
	movq	%rbx, %rdi
	movq	%r14, %rsi
	callq	DecOneForthPix.104
	popq	%rbx
	popq	%r14
	popq	%rbp
	.cfi_def_cfa %rsp, 8
	retq
.LBB7_11:                               # %func_DecOneForthPix.113
	.cfi_def_cfa %rbp, 16
	movq	%rbx, %rdi
	movq	%r14, %rsi
	callq	DecOneForthPix.113
	popq	%rbx
	popq	%r14
	popq	%rbp
	.cfi_def_cfa %rsp, 8
	retq
.LBB7_12:                               # %func_DecOneForthPix.123
	.cfi_def_cfa %rbp, 16
	movq	%rbx, %rdi
	movq	%r14, %rsi
	callq	DecOneForthPix.123
	popq	%rbx
	popq	%r14
	popq	%rbp
	.cfi_def_cfa %rsp, 8
	retq
.LBB7_13:                               # %func_DecOneForthPix.126
	.cfi_def_cfa %rbp, 16
	movq	%rbx, %rdi
	movq	%r14, %rsi
	callq	DecOneForthPix.126
	popq	%rbx
	popq	%r14
	popq	%rbp
	.cfi_def_cfa %rsp, 8
	retq
.LBB7_14:                               # %func_DecOneForthPix.128
	.cfi_def_cfa %rbp, 16
	movq	%rbx, %rdi
	movq	%r14, %rsi
	callq	DecOneForthPix.128
	popq	%rbx
	popq	%r14
	popq	%rbp
	.cfi_def_cfa %rsp, 8
	retq
.LBB7_15:                               # %func_DecOneForthPix.129
	.cfi_def_cfa %rbp, 16
	movq	%rbx, %rdi
	movq	%r14, %rsi
	callq	DecOneForthPix.129
	popq	%rbx
	popq	%r14
	popq	%rbp
	.cfi_def_cfa %rsp, 8
	retq
.LBB7_16:                               # %func_DecOneForthPix.130
	.cfi_def_cfa %rbp, 16
	movq	%rbx, %rdi
	movq	%r14, %rsi
	callq	DecOneForthPix.130
	popq	%rbx
	popq	%r14
	popq	%rbp
	.cfi_def_cfa %rsp, 8
	retq
.LBB7_17:                               # %ctrl0
	.cfi_def_cfa %rbp, 16
	cmpl	$1, %eax
	je	.LBB7_2
# %bb.18:                               # %ctrl1
	cmpl	$2, %eax
	je	.LBB7_3
# %bb.19:                               # %ctrl2
	cmpl	$3, %eax
	je	.LBB7_4
# %bb.20:                               # %ctrl3
	cmpl	$4, %eax
	je	.LBB7_5
# %bb.21:                               # %ctrl4
	cmpl	$5, %eax
	je	.LBB7_6
# %bb.22:                               # %ctrl5
	cmpl	$6, %eax
	je	.LBB7_7
# %bb.23:                               # %ctrl6
	cmpl	$7, %eax
	je	.LBB7_8
# %bb.24:                               # %ctrl7
	cmpl	$8, %eax
	je	.LBB7_9
# %bb.25:                               # %ctrl8
	cmpl	$9, %eax
	je	.LBB7_10
# %bb.26:                               # %ctrl9
	cmpl	$10, %eax
	je	.LBB7_11
# %bb.27:                               # %ctrl10
	cmpl	$11, %eax
	je	.LBB7_12
# %bb.28:                               # %ctrl11
	cmpl	$12, %eax
	je	.LBB7_13
# %bb.29:                               # %ctrl12
	cmpl	$13, %eax
	je	.LBB7_14
# %bb.30:                               # %ctrl13
	cmpl	$14, %eax
	je	.LBB7_15
	jmp	.LBB7_16
.Lfunc_end7:
	.size	DecOneForthPix, .Lfunc_end7-DecOneForthPix
	.cfi_endproc
                                        # -- End function
	.globl	compute_residue_b8block # -- Begin function compute_residue_b8block
	.p2align	4, 0x90
	.type	compute_residue_b8block,@function
compute_residue_b8block:                # @compute_residue_b8block
	.cfi_startproc
# %bb.0:                                # %rand_bb
	pushq	%rbp
	.cfi_def_cfa_offset 16
	.cfi_offset %rbp, -16
	movq	%rsp, %rbp
	.cfi_def_cfa_register %rbp
	pushq	%r14
	pushq	%rbx
	.cfi_offset %rbx, -32
	.cfi_offset %r14, -24
	movl	%esi, %r14d
	movl	%edi, %ebx
	callq	get_rand
	cmpl	$0, %eax
	jne	.LBB8_17
# %bb.1:                                # %func_compute_residue_b8block.17
	movl	%ebx, %edi
	movl	%r14d, %esi
	callq	compute_residue_b8block.17
	popq	%rbx
	popq	%r14
	popq	%rbp
	.cfi_def_cfa %rsp, 8
	retq
.LBB8_2:                                # %func_compute_residue_b8block.25
	.cfi_def_cfa %rbp, 16
	movl	%ebx, %edi
	movl	%r14d, %esi
	callq	compute_residue_b8block.25
	popq	%rbx
	popq	%r14
	popq	%rbp
	.cfi_def_cfa %rsp, 8
	retq
.LBB8_3:                                # %func_compute_residue_b8block.28
	.cfi_def_cfa %rbp, 16
	movl	%ebx, %edi
	movl	%r14d, %esi
	callq	compute_residue_b8block.28
	popq	%rbx
	popq	%r14
	popq	%rbp
	.cfi_def_cfa %rsp, 8
	retq
.LBB8_4:                                # %func_compute_residue_b8block.31
	.cfi_def_cfa %rbp, 16
	movl	%ebx, %edi
	movl	%r14d, %esi
	callq	compute_residue_b8block.31
	popq	%rbx
	popq	%r14
	popq	%rbp
	.cfi_def_cfa %rsp, 8
	retq
.LBB8_5:                                # %func_compute_residue_b8block.33
	.cfi_def_cfa %rbp, 16
	movl	%ebx, %edi
	movl	%r14d, %esi
	callq	compute_residue_b8block.33
	popq	%rbx
	popq	%r14
	popq	%rbp
	.cfi_def_cfa %rsp, 8
	retq
.LBB8_6:                                # %func_compute_residue_b8block.35
	.cfi_def_cfa %rbp, 16
	movl	%ebx, %edi
	movl	%r14d, %esi
	callq	compute_residue_b8block.35
	popq	%rbx
	popq	%r14
	popq	%rbp
	.cfi_def_cfa %rsp, 8
	retq
.LBB8_7:                                # %func_compute_residue_b8block.38
	.cfi_def_cfa %rbp, 16
	movl	%ebx, %edi
	movl	%r14d, %esi
	callq	compute_residue_b8block.38
	popq	%rbx
	popq	%r14
	popq	%rbp
	.cfi_def_cfa %rsp, 8
	retq
.LBB8_8:                                # %func_compute_residue_b8block.56
	.cfi_def_cfa %rbp, 16
	movl	%ebx, %edi
	movl	%r14d, %esi
	callq	compute_residue_b8block.56
	popq	%rbx
	popq	%r14
	popq	%rbp
	.cfi_def_cfa %rsp, 8
	retq
.LBB8_9:                                # %func_compute_residue_b8block.75
	.cfi_def_cfa %rbp, 16
	movl	%ebx, %edi
	movl	%r14d, %esi
	callq	compute_residue_b8block.75
	popq	%rbx
	popq	%r14
	popq	%rbp
	.cfi_def_cfa %rsp, 8
	retq
.LBB8_10:                               # %func_compute_residue_b8block.76
	.cfi_def_cfa %rbp, 16
	movl	%ebx, %edi
	movl	%r14d, %esi
	callq	compute_residue_b8block.76
	popq	%rbx
	popq	%r14
	popq	%rbp
	.cfi_def_cfa %rsp, 8
	retq
.LBB8_11:                               # %func_compute_residue_b8block.80
	.cfi_def_cfa %rbp, 16
	movl	%ebx, %edi
	movl	%r14d, %esi
	callq	compute_residue_b8block.80
	popq	%rbx
	popq	%r14
	popq	%rbp
	.cfi_def_cfa %rsp, 8
	retq
.LBB8_12:                               # %func_compute_residue_b8block.89
	.cfi_def_cfa %rbp, 16
	movl	%ebx, %edi
	movl	%r14d, %esi
	callq	compute_residue_b8block.89
	popq	%rbx
	popq	%r14
	popq	%rbp
	.cfi_def_cfa %rsp, 8
	retq
.LBB8_13:                               # %func_compute_residue_b8block.93
	.cfi_def_cfa %rbp, 16
	movl	%ebx, %edi
	movl	%r14d, %esi
	callq	compute_residue_b8block.93
	popq	%rbx
	popq	%r14
	popq	%rbp
	.cfi_def_cfa %rsp, 8
	retq
.LBB8_14:                               # %func_compute_residue_b8block.103
	.cfi_def_cfa %rbp, 16
	movl	%ebx, %edi
	movl	%r14d, %esi
	callq	compute_residue_b8block.103
	popq	%rbx
	popq	%r14
	popq	%rbp
	.cfi_def_cfa %rsp, 8
	retq
.LBB8_15:                               # %func_compute_residue_b8block.120
	.cfi_def_cfa %rbp, 16
	movl	%ebx, %edi
	movl	%r14d, %esi
	callq	compute_residue_b8block.120
	popq	%rbx
	popq	%r14
	popq	%rbp
	.cfi_def_cfa %rsp, 8
	retq
.LBB8_16:                               # %func_compute_residue_b8block.125
	.cfi_def_cfa %rbp, 16
	movl	%ebx, %edi
	movl	%r14d, %esi
	callq	compute_residue_b8block.125
	popq	%rbx
	popq	%r14
	popq	%rbp
	.cfi_def_cfa %rsp, 8
	retq
.LBB8_17:                               # %ctrl0
	.cfi_def_cfa %rbp, 16
	cmpl	$1, %eax
	je	.LBB8_2
# %bb.18:                               # %ctrl1
	cmpl	$2, %eax
	je	.LBB8_3
# %bb.19:                               # %ctrl2
	cmpl	$3, %eax
	je	.LBB8_4
# %bb.20:                               # %ctrl3
	cmpl	$4, %eax
	je	.LBB8_5
# %bb.21:                               # %ctrl4
	cmpl	$5, %eax
	je	.LBB8_6
# %bb.22:                               # %ctrl5
	cmpl	$6, %eax
	je	.LBB8_7
# %bb.23:                               # %ctrl6
	cmpl	$7, %eax
	je	.LBB8_8
# %bb.24:                               # %ctrl7
	cmpl	$8, %eax
	je	.LBB8_9
# %bb.25:                               # %ctrl8
	cmpl	$9, %eax
	je	.LBB8_10
# %bb.26:                               # %ctrl9
	cmpl	$10, %eax
	je	.LBB8_11
# %bb.27:                               # %ctrl10
	cmpl	$11, %eax
	je	.LBB8_12
# %bb.28:                               # %ctrl11
	cmpl	$12, %eax
	je	.LBB8_13
# %bb.29:                               # %ctrl12
	cmpl	$13, %eax
	je	.LBB8_14
# %bb.30:                               # %ctrl13
	cmpl	$14, %eax
	je	.LBB8_15
	jmp	.LBB8_16
.Lfunc_end8:
	.size	compute_residue_b8block, .Lfunc_end8-compute_residue_b8block
	.cfi_endproc
                                        # -- End function
	.globl	compute_residue_mb      # -- Begin function compute_residue_mb
	.p2align	4, 0x90
	.type	compute_residue_mb,@function
compute_residue_mb:                     # @compute_residue_mb
	.cfi_startproc
# %bb.0:                                # %entry
	pushq	%rbp
	.cfi_def_cfa_offset 16
	.cfi_offset %rbp, -16
	movq	%rsp, %rbp
	.cfi_def_cfa_register %rbp
	subq	$16, %rsp
	movl	%edi, -4(%rbp)
	movl	-4(%rbp), %esi
	xorl	%edi, %edi
	callq	compute_residue_b8block
	movl	-4(%rbp), %esi
	movl	$1, %edi
	callq	compute_residue_b8block
	movl	-4(%rbp), %esi
	movl	$2, %edi
	callq	compute_residue_b8block
	movl	-4(%rbp), %esi
	movl	$3, %edi
	callq	compute_residue_b8block
	addq	$16, %rsp
	popq	%rbp
	.cfi_def_cfa %rsp, 8
	retq
.Lfunc_end9:
	.size	compute_residue_mb, .Lfunc_end9-compute_residue_mb
	.cfi_endproc
                                        # -- End function
	.globl	Conceal_Error           # -- Begin function Conceal_Error
	.p2align	4, 0x90
	.type	Conceal_Error,@function
Conceal_Error:                          # @Conceal_Error
	.cfi_startproc
# %bb.0:                                # %rand_bb
	pushq	%rbp
	.cfi_def_cfa_offset 16
	.cfi_offset %rbp, -16
	movq	%rsp, %rbp
	.cfi_def_cfa_register %rbp
	pushq	%r15
	pushq	%r14
	pushq	%r13
	pushq	%r12
	pushq	%rbx
	pushq	%rax
	.cfi_offset %rbx, -56
	.cfi_offset %r12, -48
	.cfi_offset %r13, -40
	.cfi_offset %r14, -32
	.cfi_offset %r15, -24
	movq	%r8, %r14
	movq	%rcx, %r15
	movl	%edx, %r12d
	movl	%esi, %r13d
	movq	%rdi, %rbx
	callq	get_rand
	cmpl	$0, %eax
	jne	.LBB10_17
# %bb.1:                                # %func_Conceal_Error.9
	movq	%rbx, %rdi
	movl	%r13d, %esi
	movl	%r12d, %edx
	movq	%r15, %rcx
	movq	%r14, %r8
	callq	Conceal_Error.9
	addq	$8, %rsp
	popq	%rbx
	popq	%r12
	popq	%r13
	popq	%r14
	popq	%r15
	popq	%rbp
	.cfi_def_cfa %rsp, 8
	retq
.LBB10_2:                               # %func_Conceal_Error.13
	.cfi_def_cfa %rbp, 16
	movq	%rbx, %rdi
	movl	%r13d, %esi
	movl	%r12d, %edx
	movq	%r15, %rcx
	movq	%r14, %r8
	callq	Conceal_Error.13
	addq	$8, %rsp
	popq	%rbx
	popq	%r12
	popq	%r13
	popq	%r14
	popq	%r15
	popq	%rbp
	.cfi_def_cfa %rsp, 8
	retq
.LBB10_3:                               # %func_Conceal_Error.16
	.cfi_def_cfa %rbp, 16
	movq	%rbx, %rdi
	movl	%r13d, %esi
	movl	%r12d, %edx
	movq	%r15, %rcx
	movq	%r14, %r8
	callq	Conceal_Error.16
	addq	$8, %rsp
	popq	%rbx
	popq	%r12
	popq	%r13
	popq	%r14
	popq	%r15
	popq	%rbp
	.cfi_def_cfa %rsp, 8
	retq
.LBB10_4:                               # %func_Conceal_Error.19
	.cfi_def_cfa %rbp, 16
	movq	%rbx, %rdi
	movl	%r13d, %esi
	movl	%r12d, %edx
	movq	%r15, %rcx
	movq	%r14, %r8
	callq	Conceal_Error.19
	addq	$8, %rsp
	popq	%rbx
	popq	%r12
	popq	%r13
	popq	%r14
	popq	%r15
	popq	%rbp
	.cfi_def_cfa %rsp, 8
	retq
.LBB10_5:                               # %func_Conceal_Error.20
	.cfi_def_cfa %rbp, 16
	movq	%rbx, %rdi
	movl	%r13d, %esi
	movl	%r12d, %edx
	movq	%r15, %rcx
	movq	%r14, %r8
	callq	Conceal_Error.20
	addq	$8, %rsp
	popq	%rbx
	popq	%r12
	popq	%r13
	popq	%r14
	popq	%r15
	popq	%rbp
	.cfi_def_cfa %rsp, 8
	retq
.LBB10_6:                               # %func_Conceal_Error.27
	.cfi_def_cfa %rbp, 16
	movq	%rbx, %rdi
	movl	%r13d, %esi
	movl	%r12d, %edx
	movq	%r15, %rcx
	movq	%r14, %r8
	callq	Conceal_Error.27
	addq	$8, %rsp
	popq	%rbx
	popq	%r12
	popq	%r13
	popq	%r14
	popq	%r15
	popq	%rbp
	.cfi_def_cfa %rsp, 8
	retq
.LBB10_7:                               # %func_Conceal_Error.44
	.cfi_def_cfa %rbp, 16
	movq	%rbx, %rdi
	movl	%r13d, %esi
	movl	%r12d, %edx
	movq	%r15, %rcx
	movq	%r14, %r8
	callq	Conceal_Error.44
	addq	$8, %rsp
	popq	%rbx
	popq	%r12
	popq	%r13
	popq	%r14
	popq	%r15
	popq	%rbp
	.cfi_def_cfa %rsp, 8
	retq
.LBB10_8:                               # %func_Conceal_Error.47
	.cfi_def_cfa %rbp, 16
	movq	%rbx, %rdi
	movl	%r13d, %esi
	movl	%r12d, %edx
	movq	%r15, %rcx
	movq	%r14, %r8
	callq	Conceal_Error.47
	addq	$8, %rsp
	popq	%rbx
	popq	%r12
	popq	%r13
	popq	%r14
	popq	%r15
	popq	%rbp
	.cfi_def_cfa %rsp, 8
	retq
.LBB10_9:                               # %func_Conceal_Error.49
	.cfi_def_cfa %rbp, 16
	movq	%rbx, %rdi
	movl	%r13d, %esi
	movl	%r12d, %edx
	movq	%r15, %rcx
	movq	%r14, %r8
	callq	Conceal_Error.49
	addq	$8, %rsp
	popq	%rbx
	popq	%r12
	popq	%r13
	popq	%r14
	popq	%r15
	popq	%rbp
	.cfi_def_cfa %rsp, 8
	retq
.LBB10_10:                              # %func_Conceal_Error.63
	.cfi_def_cfa %rbp, 16
	movq	%rbx, %rdi
	movl	%r13d, %esi
	movl	%r12d, %edx
	movq	%r15, %rcx
	movq	%r14, %r8
	callq	Conceal_Error.63
	addq	$8, %rsp
	popq	%rbx
	popq	%r12
	popq	%r13
	popq	%r14
	popq	%r15
	popq	%rbp
	.cfi_def_cfa %rsp, 8
	retq
.LBB10_11:                              # %func_Conceal_Error.70
	.cfi_def_cfa %rbp, 16
	movq	%rbx, %rdi
	movl	%r13d, %esi
	movl	%r12d, %edx
	movq	%r15, %rcx
	movq	%r14, %r8
	callq	Conceal_Error.70
	addq	$8, %rsp
	popq	%rbx
	popq	%r12
	popq	%r13
	popq	%r14
	popq	%r15
	popq	%rbp
	.cfi_def_cfa %rsp, 8
	retq
.LBB10_12:                              # %func_Conceal_Error.79
	.cfi_def_cfa %rbp, 16
	movq	%rbx, %rdi
	movl	%r13d, %esi
	movl	%r12d, %edx
	movq	%r15, %rcx
	movq	%r14, %r8
	callq	Conceal_Error.79
	addq	$8, %rsp
	popq	%rbx
	popq	%r12
	popq	%r13
	popq	%r14
	popq	%r15
	popq	%rbp
	.cfi_def_cfa %rsp, 8
	retq
.LBB10_13:                              # %func_Conceal_Error.81
	.cfi_def_cfa %rbp, 16
	movq	%rbx, %rdi
	movl	%r13d, %esi
	movl	%r12d, %edx
	movq	%r15, %rcx
	movq	%r14, %r8
	callq	Conceal_Error.81
	addq	$8, %rsp
	popq	%rbx
	popq	%r12
	popq	%r13
	popq	%r14
	popq	%r15
	popq	%rbp
	.cfi_def_cfa %rsp, 8
	retq
.LBB10_14:                              # %func_Conceal_Error.91
	.cfi_def_cfa %rbp, 16
	movq	%rbx, %rdi
	movl	%r13d, %esi
	movl	%r12d, %edx
	movq	%r15, %rcx
	movq	%r14, %r8
	callq	Conceal_Error.91
	addq	$8, %rsp
	popq	%rbx
	popq	%r12
	popq	%r13
	popq	%r14
	popq	%r15
	popq	%rbp
	.cfi_def_cfa %rsp, 8
	retq
.LBB10_15:                              # %func_Conceal_Error.100
	.cfi_def_cfa %rbp, 16
	movq	%rbx, %rdi
	movl	%r13d, %esi
	movl	%r12d, %edx
	movq	%r15, %rcx
	movq	%r14, %r8
	callq	Conceal_Error.100
	addq	$8, %rsp
	popq	%rbx
	popq	%r12
	popq	%r13
	popq	%r14
	popq	%r15
	popq	%rbp
	.cfi_def_cfa %rsp, 8
	retq
.LBB10_16:                              # %func_Conceal_Error.102
	.cfi_def_cfa %rbp, 16
	movq	%rbx, %rdi
	movl	%r13d, %esi
	movl	%r12d, %edx
	movq	%r15, %rcx
	movq	%r14, %r8
	callq	Conceal_Error.102
	addq	$8, %rsp
	popq	%rbx
	popq	%r12
	popq	%r13
	popq	%r14
	popq	%r15
	popq	%rbp
	.cfi_def_cfa %rsp, 8
	retq
.LBB10_17:                              # %ctrl0
	.cfi_def_cfa %rbp, 16
	cmpl	$1, %eax
	je	.LBB10_2
# %bb.18:                               # %ctrl1
	cmpl	$2, %eax
	je	.LBB10_3
# %bb.19:                               # %ctrl2
	cmpl	$3, %eax
	je	.LBB10_4
# %bb.20:                               # %ctrl3
	cmpl	$4, %eax
	je	.LBB10_5
# %bb.21:                               # %ctrl4
	cmpl	$5, %eax
	je	.LBB10_6
# %bb.22:                               # %ctrl5
	cmpl	$6, %eax
	je	.LBB10_7
# %bb.23:                               # %ctrl6
	cmpl	$7, %eax
	je	.LBB10_8
# %bb.24:                               # %ctrl7
	cmpl	$8, %eax
	je	.LBB10_9
# %bb.25:                               # %ctrl8
	cmpl	$9, %eax
	je	.LBB10_10
# %bb.26:                               # %ctrl9
	cmpl	$10, %eax
	je	.LBB10_11
# %bb.27:                               # %ctrl10
	cmpl	$11, %eax
	je	.LBB10_12
# %bb.28:                               # %ctrl11
	cmpl	$12, %eax
	je	.LBB10_13
# %bb.29:                               # %ctrl12
	cmpl	$13, %eax
	je	.LBB10_14
# %bb.30:                               # %ctrl13
	cmpl	$14, %eax
	je	.LBB10_15
	jmp	.LBB10_16
.Lfunc_end10:
	.size	Conceal_Error, .Lfunc_end10-Conceal_Error
	.cfi_endproc
                                        # -- End function
	.globl	Get_Reference_Pixel.1   # -- Begin function Get_Reference_Pixel.1
	.p2align	4, 0x90
	.type	Get_Reference_Pixel.1,@function
Get_Reference_Pixel.1:                  # @Get_Reference_Pixel.1
	.cfi_startproc
# %bb.0:                                # %entry
	pushq	%rbp
	.cfi_def_cfa_offset 16
	.cfi_offset %rbp, -16
	movq	%rsp, %rbp
	.cfi_def_cfa_register %rbp
	pushq	%rbx
	subq	$104, %rsp
	.cfi_offset %rbx, -24
	movl	$1468804848, -100(%rbp) # imm = 0x578C2EF0
	movq	%rdi, -64(%rbp)
	movl	%esi, -28(%rbp)
	movl	%edx, -24(%rbp)
	movl	$0, -12(%rbp)
	movl	-24(%rbp), %eax
	andl	$3, %eax
	movl	%eax, -52(%rbp)
	movl	-28(%rbp), %eax
	andl	$3, %eax
	movl	%eax, -48(%rbp)
	movl	-24(%rbp), %eax
	subl	-52(%rbp), %eax
	cltd
	movl	$4, %ecx
	idivl	%ecx
	movl	%eax, -24(%rbp)
	movl	-28(%rbp), %eax
	subl	-48(%rbp), %eax
	cltd
	idivl	%ecx
	movl	%eax, -28(%rbp)
	movq	img, %rax
	movl	52(%rax), %eax
	subl	$1, %eax
	movl	%eax, -36(%rbp)
	movq	img, %rax
	movl	60(%rax), %eax
	subl	$1, %eax
	movl	%eax, -32(%rbp)
	cmpl	$0, -52(%rbp)
	jne	.LBB11_21
# %bb.1:                                # %land.lhs.true
	cmpl	$0, -48(%rbp)
	jne	.LBB11_21
# %bb.2:                                # %if.then
	movq	-64(%rbp), %rax
	movl	-32(%rbp), %ecx
	cmpl	-28(%rbp), %ecx
	jge	.LBB11_4
# %bb.3:                                # %cond.true
	movl	-32(%rbp), %ecx
	jmp	.LBB11_5
.LBB11_4:                               # %cond.false
	movl	-28(%rbp), %ecx
.LBB11_5:                               # %cond.end
	xorl	%edx, %edx
	cmpl	%ecx, %edx
	jle	.LBB11_7
# %bb.6:                                # %cond.true9
	xorl	%ecx, %ecx
	jmp	.LBB11_11
.LBB11_7:                               # %cond.false10
	movl	-32(%rbp), %ecx
	cmpl	-28(%rbp), %ecx
	jge	.LBB11_9
# %bb.8:                                # %cond.true12
	movl	-32(%rbp), %ecx
	jmp	.LBB11_10
.LBB11_9:                               # %cond.false13
	movl	-28(%rbp), %ecx
.LBB11_10:                              # %cond.end14
.LBB11_11:                              # %cond.end16
	movslq	%ecx, %rcx
	movq	(%rax,%rcx,8), %rax
	movl	-36(%rbp), %ecx
	cmpl	-24(%rbp), %ecx
	jge	.LBB11_13
# %bb.12:                               # %cond.true19
	movl	-36(%rbp), %ecx
	jmp	.LBB11_14
.LBB11_13:                              # %cond.false20
	movl	-24(%rbp), %ecx
.LBB11_14:                              # %cond.end21
	xorl	%edx, %edx
	cmpl	%ecx, %edx
	jle	.LBB11_16
# %bb.15:                               # %cond.true24
	xorl	%ecx, %ecx
	jmp	.LBB11_20
.LBB11_16:                              # %cond.false25
	movl	-36(%rbp), %ecx
	cmpl	-24(%rbp), %ecx
	jge	.LBB11_18
# %bb.17:                               # %cond.true27
	movl	-36(%rbp), %ecx
	jmp	.LBB11_19
.LBB11_18:                              # %cond.false28
	movl	-24(%rbp), %ecx
.LBB11_19:                              # %cond.end29
.LBB11_20:                              # %cond.end31
	movslq	%ecx, %rcx
	movzwl	(%rax,%rcx,2), %eax
	movl	%eax, -12(%rbp)
	jmp	.LBB11_332
.LBB11_21:                              # %if.else
	cmpl	$0, -48(%rbp)
	jne	.LBB11_77
# %bb.22:                               # %if.then37
	movl	-32(%rbp), %eax
	cmpl	-28(%rbp), %eax
	jge	.LBB11_24
# %bb.23:                               # %cond.true40
	movl	-32(%rbp), %eax
	jmp	.LBB11_25
.LBB11_24:                              # %cond.false41
	movl	-28(%rbp), %eax
.LBB11_25:                              # %cond.end42
	xorl	%ecx, %ecx
	cmpl	%eax, %ecx
	jle	.LBB11_27
# %bb.26:                               # %cond.true46
	xorl	%eax, %eax
	jmp	.LBB11_31
.LBB11_27:                              # %cond.false47
	movl	-32(%rbp), %eax
	cmpl	-28(%rbp), %eax
	jge	.LBB11_29
# %bb.28:                               # %cond.true50
	movl	-32(%rbp), %eax
	jmp	.LBB11_30
.LBB11_29:                              # %cond.false51
	movl	-28(%rbp), %eax
.LBB11_30:                              # %cond.end52
.LBB11_31:                              # %cond.end54
	movl	%eax, -40(%rbp)
	movl	$-2, -20(%rbp)
.LBB11_32:                              # %for.cond
                                        # =>This Inner Loop Header: Depth=1
	cmpl	$4, -20(%rbp)
	jge	.LBB11_44
# %bb.33:                               # %for.body
                                        #   in Loop: Header=BB11_32 Depth=1
	movl	-36(%rbp), %eax
	movl	-24(%rbp), %ecx
	addl	-20(%rbp), %ecx
	cmpl	%ecx, %eax
	jge	.LBB11_35
# %bb.34:                               # %cond.true60
                                        #   in Loop: Header=BB11_32 Depth=1
	movl	-36(%rbp), %eax
	jmp	.LBB11_36
.LBB11_35:                              # %cond.false61
                                        #   in Loop: Header=BB11_32 Depth=1
	movl	-24(%rbp), %eax
	addl	-20(%rbp), %eax
.LBB11_36:                              # %cond.end63
                                        #   in Loop: Header=BB11_32 Depth=1
	xorl	%ecx, %ecx
	cmpl	%eax, %ecx
	jle	.LBB11_38
# %bb.37:                               # %cond.true67
                                        #   in Loop: Header=BB11_32 Depth=1
	xorl	%eax, %eax
	jmp	.LBB11_42
.LBB11_38:                              # %cond.false68
                                        #   in Loop: Header=BB11_32 Depth=1
	movl	-36(%rbp), %eax
	movl	-24(%rbp), %ecx
	addl	-20(%rbp), %ecx
	cmpl	%ecx, %eax
	jge	.LBB11_40
# %bb.39:                               # %cond.true72
                                        #   in Loop: Header=BB11_32 Depth=1
	movl	-36(%rbp), %eax
	jmp	.LBB11_41
.LBB11_40:                              # %cond.false73
                                        #   in Loop: Header=BB11_32 Depth=1
	movl	-24(%rbp), %eax
	addl	-20(%rbp), %eax
.LBB11_41:                              # %cond.end75
                                        #   in Loop: Header=BB11_32 Depth=1
.LBB11_42:                              # %cond.end77
                                        #   in Loop: Header=BB11_32 Depth=1
	movl	%eax, -44(%rbp)
	movq	-64(%rbp), %rax
	movslq	-40(%rbp), %rcx
	movq	(%rax,%rcx,8), %rax
	movslq	-44(%rbp), %rcx
	movzwl	(%rax,%rcx,2), %eax
	movl	-20(%rbp), %ecx
	addl	$2, %ecx
	movslq	%ecx, %rcx
	imull	Get_Reference_Pixel.COEF(,%rcx,4), %eax
	addl	-12(%rbp), %eax
	movl	%eax, -12(%rbp)
# %bb.43:                               # %for.inc
                                        #   in Loop: Header=BB11_32 Depth=1
	movl	-20(%rbp), %eax
	addl	$1, %eax
	movl	%eax, -20(%rbp)
	jmp	.LBB11_32
.LBB11_44:                              # %for.end
	movq	img, %rax
	movl	72684(%rax), %ecx
	movl	-12(%rbp), %eax
	addl	$16, %eax
	cltd
	movl	$32, %esi
	idivl	%esi
	cmpl	%eax, %ecx
	jge	.LBB11_46
# %bb.45:                               # %cond.true92
	movq	img, %rax
	movl	72684(%rax), %eax
	jmp	.LBB11_47
.LBB11_46:                              # %cond.false94
	movl	-12(%rbp), %eax
	addl	$16, %eax
	cltd
	movl	$32, %ecx
	idivl	%ecx
.LBB11_47:                              # %cond.end97
	xorl	%ecx, %ecx
	cmpl	%eax, %ecx
	jle	.LBB11_49
# %bb.48:                               # %cond.true101
	xorl	%eax, %eax
	jmp	.LBB11_53
.LBB11_49:                              # %cond.false102
	movq	img, %rax
	movl	72684(%rax), %ecx
	movl	-12(%rbp), %eax
	addl	$16, %eax
	cltd
	movl	$32, %esi
	idivl	%esi
	cmpl	%eax, %ecx
	jge	.LBB11_51
# %bb.50:                               # %cond.true108
	movq	img, %rax
	movl	72684(%rax), %eax
	jmp	.LBB11_52
.LBB11_51:                              # %cond.false110
	movl	-12(%rbp), %eax
	addl	$16, %eax
	cltd
	movl	$32, %ecx
	idivl	%ecx
.LBB11_52:                              # %cond.end113
.LBB11_53:                              # %cond.end115
	movl	%eax, -12(%rbp)
	cmpl	$1, -52(%rbp)
	jne	.LBB11_64
# %bb.54:                               # %if.then119
	movl	-12(%rbp), %eax
	movq	-64(%rbp), %rcx
	movslq	-40(%rbp), %rdx
	movq	(%rcx,%rdx,8), %rcx
	movl	-36(%rbp), %edx
	cmpl	-24(%rbp), %edx
	jge	.LBB11_56
# %bb.55:                               # %cond.true124
	movl	-36(%rbp), %edx
	jmp	.LBB11_57
.LBB11_56:                              # %cond.false125
	movl	-24(%rbp), %edx
.LBB11_57:                              # %cond.end126
	xorl	%esi, %esi
	cmpl	%edx, %esi
	jle	.LBB11_59
# %bb.58:                               # %cond.true130
	xorl	%edx, %edx
	jmp	.LBB11_63
.LBB11_59:                              # %cond.false131
	movl	-36(%rbp), %edx
	cmpl	-24(%rbp), %edx
	jge	.LBB11_61
# %bb.60:                               # %cond.true134
	movl	-36(%rbp), %edx
	jmp	.LBB11_62
.LBB11_61:                              # %cond.false135
	movl	-24(%rbp), %edx
.LBB11_62:                              # %cond.end136
.LBB11_63:                              # %cond.end138
	movslq	%edx, %rdx
	movzwl	(%rcx,%rdx,2), %ecx
	addl	%ecx, %eax
	cltd
	movl	$2, %ecx
	idivl	%ecx
	movl	%eax, -12(%rbp)
	jmp	.LBB11_76
.LBB11_64:                              # %if.else145
	cmpl	$3, -52(%rbp)
	jne	.LBB11_75
# %bb.65:                               # %if.then148
	movl	-12(%rbp), %eax
	movq	-64(%rbp), %rcx
	movslq	-40(%rbp), %rdx
	movq	(%rcx,%rdx,8), %rcx
	movl	-36(%rbp), %edx
	movl	-24(%rbp), %esi
	addl	$1, %esi
	cmpl	%esi, %edx
	jge	.LBB11_67
# %bb.66:                               # %cond.true154
	movl	-36(%rbp), %edx
	jmp	.LBB11_68
.LBB11_67:                              # %cond.false155
	movl	-24(%rbp), %edx
	addl	$1, %edx
.LBB11_68:                              # %cond.end157
	xorl	%esi, %esi
	cmpl	%edx, %esi
	jle	.LBB11_70
# %bb.69:                               # %cond.true161
	xorl	%edx, %edx
	jmp	.LBB11_74
.LBB11_70:                              # %cond.false162
	movl	-36(%rbp), %edx
	movl	-24(%rbp), %esi
	addl	$1, %esi
	cmpl	%esi, %edx
	jge	.LBB11_72
# %bb.71:                               # %cond.true166
	movl	-36(%rbp), %edx
	jmp	.LBB11_73
.LBB11_72:                              # %cond.false167
	movl	-24(%rbp), %edx
	addl	$1, %edx
.LBB11_73:                              # %cond.end169
.LBB11_74:                              # %cond.end171
	movslq	%edx, %rdx
	movzwl	(%rcx,%rdx,2), %ecx
	addl	%ecx, %eax
	cltd
	movl	$2, %ecx
	idivl	%ecx
	movl	%eax, -12(%rbp)
.LBB11_75:                              # %if.end
	jmp	.LBB11_76
.LBB11_76:                              # %if.end178
	jmp	.LBB11_331
.LBB11_77:                              # %if.else179
	cmpl	$0, -52(%rbp)
	jne	.LBB11_133
# %bb.78:                               # %if.then182
	movl	-36(%rbp), %eax
	cmpl	-24(%rbp), %eax
	jge	.LBB11_80
# %bb.79:                               # %cond.true185
	movl	-36(%rbp), %eax
	jmp	.LBB11_81
.LBB11_80:                              # %cond.false186
	movl	-24(%rbp), %eax
.LBB11_81:                              # %cond.end187
	xorl	%ecx, %ecx
	cmpl	%eax, %ecx
	jle	.LBB11_83
# %bb.82:                               # %cond.true191
	xorl	%eax, %eax
	jmp	.LBB11_87
.LBB11_83:                              # %cond.false192
	movl	-36(%rbp), %eax
	cmpl	-24(%rbp), %eax
	jge	.LBB11_85
# %bb.84:                               # %cond.true195
	movl	-36(%rbp), %eax
	jmp	.LBB11_86
.LBB11_85:                              # %cond.false196
	movl	-24(%rbp), %eax
.LBB11_86:                              # %cond.end197
.LBB11_87:                              # %cond.end199
	movl	%eax, -44(%rbp)
	movl	$-2, -16(%rbp)
.LBB11_88:                              # %for.cond201
                                        # =>This Inner Loop Header: Depth=1
	cmpl	$4, -16(%rbp)
	jge	.LBB11_100
# %bb.89:                               # %for.body204
                                        #   in Loop: Header=BB11_88 Depth=1
	movl	-32(%rbp), %eax
	movl	-28(%rbp), %ecx
	addl	-16(%rbp), %ecx
	cmpl	%ecx, %eax
	jge	.LBB11_91
# %bb.90:                               # %cond.true208
                                        #   in Loop: Header=BB11_88 Depth=1
	movl	-32(%rbp), %eax
	jmp	.LBB11_92
.LBB11_91:                              # %cond.false209
                                        #   in Loop: Header=BB11_88 Depth=1
	movl	-28(%rbp), %eax
	addl	-16(%rbp), %eax
.LBB11_92:                              # %cond.end211
                                        #   in Loop: Header=BB11_88 Depth=1
	xorl	%ecx, %ecx
	cmpl	%eax, %ecx
	jle	.LBB11_94
# %bb.93:                               # %cond.true215
                                        #   in Loop: Header=BB11_88 Depth=1
	xorl	%eax, %eax
	jmp	.LBB11_98
.LBB11_94:                              # %cond.false216
                                        #   in Loop: Header=BB11_88 Depth=1
	movl	-32(%rbp), %eax
	movl	-28(%rbp), %ecx
	addl	-16(%rbp), %ecx
	cmpl	%ecx, %eax
	jge	.LBB11_96
# %bb.95:                               # %cond.true220
                                        #   in Loop: Header=BB11_88 Depth=1
	movl	-32(%rbp), %eax
	jmp	.LBB11_97
.LBB11_96:                              # %cond.false221
                                        #   in Loop: Header=BB11_88 Depth=1
	movl	-28(%rbp), %eax
	addl	-16(%rbp), %eax
.LBB11_97:                              # %cond.end223
                                        #   in Loop: Header=BB11_88 Depth=1
.LBB11_98:                              # %cond.end225
                                        #   in Loop: Header=BB11_88 Depth=1
	movl	%eax, -40(%rbp)
	movq	-64(%rbp), %rax
	movslq	-40(%rbp), %rcx
	movq	(%rax,%rcx,8), %rax
	movslq	-44(%rbp), %rcx
	movzwl	(%rax,%rcx,2), %eax
	movl	-16(%rbp), %ecx
	addl	$2, %ecx
	movslq	%ecx, %rcx
	imull	Get_Reference_Pixel.COEF(,%rcx,4), %eax
	addl	-12(%rbp), %eax
	movl	%eax, -12(%rbp)
# %bb.99:                               # %for.inc237
                                        #   in Loop: Header=BB11_88 Depth=1
	movl	-16(%rbp), %eax
	addl	$1, %eax
	movl	%eax, -16(%rbp)
	jmp	.LBB11_88
.LBB11_100:                             # %for.end239
	movq	img, %rax
	movl	72684(%rax), %ecx
	movl	-12(%rbp), %eax
	addl	$16, %eax
	cltd
	movl	$32, %esi
	idivl	%esi
	cmpl	%eax, %ecx
	jge	.LBB11_102
# %bb.101:                              # %cond.true245
	movq	img, %rax
	movl	72684(%rax), %eax
	jmp	.LBB11_103
.LBB11_102:                             # %cond.false247
	movl	-12(%rbp), %eax
	addl	$16, %eax
	cltd
	movl	$32, %ecx
	idivl	%ecx
.LBB11_103:                             # %cond.end250
	xorl	%ecx, %ecx
	cmpl	%eax, %ecx
	jle	.LBB11_105
# %bb.104:                              # %cond.true254
	xorl	%eax, %eax
	jmp	.LBB11_109
.LBB11_105:                             # %cond.false255
	movq	img, %rax
	movl	72684(%rax), %ecx
	movl	-12(%rbp), %eax
	addl	$16, %eax
	cltd
	movl	$32, %esi
	idivl	%esi
	cmpl	%eax, %ecx
	jge	.LBB11_107
# %bb.106:                              # %cond.true261
	movq	img, %rax
	movl	72684(%rax), %eax
	jmp	.LBB11_108
.LBB11_107:                             # %cond.false263
	movl	-12(%rbp), %eax
	addl	$16, %eax
	cltd
	movl	$32, %ecx
	idivl	%ecx
.LBB11_108:                             # %cond.end266
.LBB11_109:                             # %cond.end268
	movl	%eax, -12(%rbp)
	cmpl	$1, -48(%rbp)
	jne	.LBB11_120
# %bb.110:                              # %if.then272
	movl	-12(%rbp), %eax
	movq	-64(%rbp), %rcx
	movl	-32(%rbp), %edx
	cmpl	-28(%rbp), %edx
	jge	.LBB11_112
# %bb.111:                              # %cond.true275
	movl	-32(%rbp), %edx
	jmp	.LBB11_113
.LBB11_112:                             # %cond.false276
	movl	-28(%rbp), %edx
.LBB11_113:                             # %cond.end277
	xorl	%esi, %esi
	cmpl	%edx, %esi
	jle	.LBB11_115
# %bb.114:                              # %cond.true281
	xorl	%edx, %edx
	jmp	.LBB11_119
.LBB11_115:                             # %cond.false282
	movl	-32(%rbp), %edx
	cmpl	-28(%rbp), %edx
	jge	.LBB11_117
# %bb.116:                              # %cond.true285
	movl	-32(%rbp), %edx
	jmp	.LBB11_118
.LBB11_117:                             # %cond.false286
	movl	-28(%rbp), %edx
.LBB11_118:                             # %cond.end287
.LBB11_119:                             # %cond.end289
	movslq	%edx, %rdx
	movq	(%rcx,%rdx,8), %rcx
	movslq	-44(%rbp), %rdx
	movzwl	(%rcx,%rdx,2), %ecx
	addl	%ecx, %eax
	cltd
	movl	$2, %ecx
	idivl	%ecx
	movl	%eax, -12(%rbp)
	jmp	.LBB11_132
.LBB11_120:                             # %if.else298
	cmpl	$3, -48(%rbp)
	jne	.LBB11_131
# %bb.121:                              # %if.then301
	movl	-12(%rbp), %eax
	movq	-64(%rbp), %rcx
	movl	-32(%rbp), %edx
	movl	-28(%rbp), %esi
	addl	$1, %esi
	cmpl	%esi, %edx
	jge	.LBB11_123
# %bb.122:                              # %cond.true305
	movl	-32(%rbp), %edx
	jmp	.LBB11_124
.LBB11_123:                             # %cond.false306
	movl	-28(%rbp), %edx
	addl	$1, %edx
.LBB11_124:                             # %cond.end308
	xorl	%esi, %esi
	cmpl	%edx, %esi
	jle	.LBB11_126
# %bb.125:                              # %cond.true312
	xorl	%edx, %edx
	jmp	.LBB11_130
.LBB11_126:                             # %cond.false313
	movl	-32(%rbp), %edx
	movl	-28(%rbp), %esi
	addl	$1, %esi
	cmpl	%esi, %edx
	jge	.LBB11_128
# %bb.127:                              # %cond.true317
	movl	-32(%rbp), %edx
	jmp	.LBB11_129
.LBB11_128:                             # %cond.false318
	movl	-28(%rbp), %edx
	addl	$1, %edx
.LBB11_129:                             # %cond.end320
.LBB11_130:                             # %cond.end322
	movslq	%edx, %rdx
	movq	(%rcx,%rdx,8), %rcx
	movslq	-44(%rbp), %rdx
	movzwl	(%rcx,%rdx,2), %ecx
	addl	%ecx, %eax
	cltd
	movl	$2, %ecx
	idivl	%ecx
	movl	%eax, -12(%rbp)
.LBB11_131:                             # %if.end331
	jmp	.LBB11_132
.LBB11_132:                             # %if.end332
	jmp	.LBB11_330
.LBB11_133:                             # %if.else333
	cmpl	$2, -52(%rbp)
	jne	.LBB11_197
# %bb.134:                              # %if.then336
	movl	$-2, -16(%rbp)
.LBB11_135:                             # %for.cond337
                                        # =>This Loop Header: Depth=1
                                        #     Child Loop BB11_146 Depth 2
	cmpl	$4, -16(%rbp)
	jge	.LBB11_160
# %bb.136:                              # %for.body340
                                        #   in Loop: Header=BB11_135 Depth=1
	movl	$0, -12(%rbp)
	movl	-32(%rbp), %eax
	movl	-28(%rbp), %ecx
	addl	-16(%rbp), %ecx
	cmpl	%ecx, %eax
	jge	.LBB11_138
# %bb.137:                              # %cond.true344
                                        #   in Loop: Header=BB11_135 Depth=1
	movl	-32(%rbp), %eax
	jmp	.LBB11_139
.LBB11_138:                             # %cond.false345
                                        #   in Loop: Header=BB11_135 Depth=1
	movl	-28(%rbp), %eax
	addl	-16(%rbp), %eax
.LBB11_139:                             # %cond.end347
                                        #   in Loop: Header=BB11_135 Depth=1
	xorl	%ecx, %ecx
	cmpl	%eax, %ecx
	jle	.LBB11_141
# %bb.140:                              # %cond.true351
                                        #   in Loop: Header=BB11_135 Depth=1
	xorl	%eax, %eax
	jmp	.LBB11_145
.LBB11_141:                             # %cond.false352
                                        #   in Loop: Header=BB11_135 Depth=1
	movl	-32(%rbp), %eax
	movl	-28(%rbp), %ecx
	addl	-16(%rbp), %ecx
	cmpl	%ecx, %eax
	jge	.LBB11_143
# %bb.142:                              # %cond.true356
                                        #   in Loop: Header=BB11_135 Depth=1
	movl	-32(%rbp), %eax
	jmp	.LBB11_144
.LBB11_143:                             # %cond.false357
                                        #   in Loop: Header=BB11_135 Depth=1
	movl	-28(%rbp), %eax
	addl	-16(%rbp), %eax
.LBB11_144:                             # %cond.end359
                                        #   in Loop: Header=BB11_135 Depth=1
.LBB11_145:                             # %cond.end361
                                        #   in Loop: Header=BB11_135 Depth=1
	movl	%eax, -40(%rbp)
	movl	$-2, -20(%rbp)
.LBB11_146:                             # %for.cond363
                                        #   Parent Loop BB11_135 Depth=1
                                        # =>  This Inner Loop Header: Depth=2
	cmpl	$4, -20(%rbp)
	jge	.LBB11_158
# %bb.147:                              # %for.body366
                                        #   in Loop: Header=BB11_146 Depth=2
	movl	-36(%rbp), %eax
	movl	-24(%rbp), %ecx
	addl	-20(%rbp), %ecx
	cmpl	%ecx, %eax
	jge	.LBB11_149
# %bb.148:                              # %cond.true370
                                        #   in Loop: Header=BB11_146 Depth=2
	movl	-36(%rbp), %eax
	jmp	.LBB11_150
.LBB11_149:                             # %cond.false371
                                        #   in Loop: Header=BB11_146 Depth=2
	movl	-24(%rbp), %eax
	addl	-20(%rbp), %eax
.LBB11_150:                             # %cond.end373
                                        #   in Loop: Header=BB11_146 Depth=2
	xorl	%ecx, %ecx
	cmpl	%eax, %ecx
	jle	.LBB11_152
# %bb.151:                              # %cond.true377
                                        #   in Loop: Header=BB11_146 Depth=2
	xorl	%eax, %eax
	jmp	.LBB11_156
.LBB11_152:                             # %cond.false378
                                        #   in Loop: Header=BB11_146 Depth=2
	movl	-36(%rbp), %eax
	movl	-24(%rbp), %ecx
	addl	-20(%rbp), %ecx
	cmpl	%ecx, %eax
	jge	.LBB11_154
# %bb.153:                              # %cond.true382
                                        #   in Loop: Header=BB11_146 Depth=2
	movl	-36(%rbp), %eax
	jmp	.LBB11_155
.LBB11_154:                             # %cond.false383
                                        #   in Loop: Header=BB11_146 Depth=2
	movl	-24(%rbp), %eax
	addl	-20(%rbp), %eax
.LBB11_155:                             # %cond.end385
                                        #   in Loop: Header=BB11_146 Depth=2
.LBB11_156:                             # %cond.end387
                                        #   in Loop: Header=BB11_146 Depth=2
	movl	%eax, -44(%rbp)
	movq	-64(%rbp), %rax
	movslq	-40(%rbp), %rcx
	movq	(%rax,%rcx,8), %rax
	movslq	-44(%rbp), %rcx
	movzwl	(%rax,%rcx,2), %eax
	movl	-20(%rbp), %ecx
	addl	$2, %ecx
	movslq	%ecx, %rcx
	imull	Get_Reference_Pixel.COEF(,%rcx,4), %eax
	addl	-12(%rbp), %eax
	movl	%eax, -12(%rbp)
# %bb.157:                              # %for.inc399
                                        #   in Loop: Header=BB11_146 Depth=2
	movl	-20(%rbp), %eax
	addl	$1, %eax
	movl	%eax, -20(%rbp)
	jmp	.LBB11_146
.LBB11_158:                             # %for.end401
                                        #   in Loop: Header=BB11_135 Depth=1
	movl	-12(%rbp), %eax
	movl	-16(%rbp), %ecx
	addl	$2, %ecx
	movslq	%ecx, %rcx
	movl	%eax, -96(%rbp,%rcx,4)
# %bb.159:                              # %for.inc405
                                        #   in Loop: Header=BB11_135 Depth=1
	movl	-16(%rbp), %eax
	addl	$1, %eax
	movl	%eax, -16(%rbp)
	jmp	.LBB11_135
.LBB11_160:                             # %for.end407
	movl	$0, -12(%rbp)
	movl	$-2, -16(%rbp)
.LBB11_161:                             # %for.cond408
                                        # =>This Inner Loop Header: Depth=1
	cmpl	$4, -16(%rbp)
	jge	.LBB11_164
# %bb.162:                              # %for.body411
                                        #   in Loop: Header=BB11_161 Depth=1
	movl	-16(%rbp), %eax
	addl	$2, %eax
	cltq
	movl	-96(%rbp,%rax,4), %eax
	movl	-16(%rbp), %ecx
	addl	$2, %ecx
	movslq	%ecx, %rcx
	imull	Get_Reference_Pixel.COEF(,%rcx,4), %eax
	addl	-12(%rbp), %eax
	movl	%eax, -12(%rbp)
# %bb.163:                              # %for.inc420
                                        #   in Loop: Header=BB11_161 Depth=1
	movl	-16(%rbp), %eax
	addl	$1, %eax
	movl	%eax, -16(%rbp)
	jmp	.LBB11_161
.LBB11_164:                             # %for.end422
	movq	img, %rax
	movl	72684(%rax), %ecx
	movl	-12(%rbp), %eax
	addl	$512, %eax              # imm = 0x200
	cltd
	movl	$1024, %esi             # imm = 0x400
	idivl	%esi
	cmpl	%eax, %ecx
	jge	.LBB11_166
# %bb.165:                              # %cond.true428
	movq	img, %rax
	movl	72684(%rax), %eax
	jmp	.LBB11_167
.LBB11_166:                             # %cond.false430
	movl	-12(%rbp), %eax
	addl	$512, %eax              # imm = 0x200
	cltd
	movl	$1024, %ecx             # imm = 0x400
	idivl	%ecx
.LBB11_167:                             # %cond.end433
	xorl	%ecx, %ecx
	cmpl	%eax, %ecx
	jle	.LBB11_169
# %bb.168:                              # %cond.true437
	xorl	%eax, %eax
	jmp	.LBB11_173
.LBB11_169:                             # %cond.false438
	movq	img, %rax
	movl	72684(%rax), %ecx
	movl	-12(%rbp), %eax
	addl	$512, %eax              # imm = 0x200
	cltd
	movl	$1024, %esi             # imm = 0x400
	idivl	%esi
	cmpl	%eax, %ecx
	jge	.LBB11_171
# %bb.170:                              # %cond.true444
	movq	img, %rax
	movl	72684(%rax), %eax
	jmp	.LBB11_172
.LBB11_171:                             # %cond.false446
	movl	-12(%rbp), %eax
	addl	$512, %eax              # imm = 0x200
	cltd
	movl	$1024, %ecx             # imm = 0x400
	idivl	%ecx
.LBB11_172:                             # %cond.end449
.LBB11_173:                             # %cond.end451
	movl	%eax, -12(%rbp)
	cmpl	$1, -48(%rbp)
	jne	.LBB11_184
# %bb.174:                              # %if.then455
	movl	-12(%rbp), %ecx
	movq	img, %rax
	movl	72684(%rax), %esi
	movl	-88(%rbp), %eax
	addl	$16, %eax
	cltd
	movl	$32, %edi
	idivl	%edi
	cmpl	%eax, %esi
	jge	.LBB11_176
# %bb.175:                              # %cond.true462
	movq	img, %rax
	movl	72684(%rax), %eax
	jmp	.LBB11_177
.LBB11_176:                             # %cond.false464
	movl	-88(%rbp), %eax
	addl	$16, %eax
	cltd
	movl	$32, %esi
	idivl	%esi
.LBB11_177:                             # %cond.end468
	xorl	%edx, %edx
	cmpl	%eax, %edx
	jle	.LBB11_179
# %bb.178:                              # %cond.true472
	xorl	%eax, %eax
	jmp	.LBB11_183
.LBB11_179:                             # %cond.false473
	movq	img, %rax
	movl	72684(%rax), %esi
	movl	-88(%rbp), %eax
	addl	$16, %eax
	cltd
	movl	$32, %edi
	idivl	%edi
	cmpl	%eax, %esi
	jge	.LBB11_181
# %bb.180:                              # %cond.true480
	movq	img, %rax
	movl	72684(%rax), %eax
	jmp	.LBB11_182
.LBB11_181:                             # %cond.false482
	movl	-88(%rbp), %eax
	addl	$16, %eax
	cltd
	movl	$32, %esi
	idivl	%esi
.LBB11_182:                             # %cond.end486
.LBB11_183:                             # %cond.end488
	addl	%eax, %ecx
	movl	%ecx, %eax
	cltd
	movl	$2, %ecx
	idivl	%ecx
	movl	%eax, -12(%rbp)
	jmp	.LBB11_196
.LBB11_184:                             # %if.else492
	cmpl	$3, -48(%rbp)
	jne	.LBB11_195
# %bb.185:                              # %if.then495
	movl	-12(%rbp), %ecx
	movq	img, %rax
	movl	72684(%rax), %esi
	movl	-84(%rbp), %eax
	addl	$16, %eax
	cltd
	movl	$32, %edi
	idivl	%edi
	cmpl	%eax, %esi
	jge	.LBB11_187
# %bb.186:                              # %cond.true502
	movq	img, %rax
	movl	72684(%rax), %eax
	jmp	.LBB11_188
.LBB11_187:                             # %cond.false504
	movl	-84(%rbp), %eax
	addl	$16, %eax
	cltd
	movl	$32, %esi
	idivl	%esi
.LBB11_188:                             # %cond.end508
	xorl	%edx, %edx
	cmpl	%eax, %edx
	jle	.LBB11_190
# %bb.189:                              # %cond.true512
	xorl	%eax, %eax
	jmp	.LBB11_194
.LBB11_190:                             # %cond.false513
	movq	img, %rax
	movl	72684(%rax), %esi
	movl	-84(%rbp), %eax
	addl	$16, %eax
	cltd
	movl	$32, %edi
	idivl	%edi
	cmpl	%eax, %esi
	jge	.LBB11_192
# %bb.191:                              # %cond.true520
	movq	img, %rax
	movl	72684(%rax), %eax
	jmp	.LBB11_193
.LBB11_192:                             # %cond.false522
	movl	-84(%rbp), %eax
	addl	$16, %eax
	cltd
	movl	$32, %esi
	idivl	%esi
.LBB11_193:                             # %cond.end526
.LBB11_194:                             # %cond.end528
	addl	%eax, %ecx
	movl	%ecx, %eax
	cltd
	movl	$2, %ecx
	idivl	%ecx
	movl	%eax, -12(%rbp)
.LBB11_195:                             # %if.end532
	jmp	.LBB11_196
.LBB11_196:                             # %if.end533
	jmp	.LBB11_329
.LBB11_197:                             # %if.else534
	cmpl	$2, -48(%rbp)
	jne	.LBB11_259
# %bb.198:                              # %if.then537
	movl	$-2, -20(%rbp)
.LBB11_199:                             # %for.cond538
                                        # =>This Loop Header: Depth=1
                                        #     Child Loop BB11_210 Depth 2
	cmpl	$4, -20(%rbp)
	jge	.LBB11_224
# %bb.200:                              # %for.body541
                                        #   in Loop: Header=BB11_199 Depth=1
	movl	$0, -12(%rbp)
	movl	-36(%rbp), %eax
	movl	-24(%rbp), %ecx
	addl	-20(%rbp), %ecx
	cmpl	%ecx, %eax
	jge	.LBB11_202
# %bb.201:                              # %cond.true545
                                        #   in Loop: Header=BB11_199 Depth=1
	movl	-36(%rbp), %eax
	jmp	.LBB11_203
.LBB11_202:                             # %cond.false546
                                        #   in Loop: Header=BB11_199 Depth=1
	movl	-24(%rbp), %eax
	addl	-20(%rbp), %eax
.LBB11_203:                             # %cond.end548
                                        #   in Loop: Header=BB11_199 Depth=1
	xorl	%ecx, %ecx
	cmpl	%eax, %ecx
	jle	.LBB11_205
# %bb.204:                              # %cond.true552
                                        #   in Loop: Header=BB11_199 Depth=1
	xorl	%eax, %eax
	jmp	.LBB11_209
.LBB11_205:                             # %cond.false553
                                        #   in Loop: Header=BB11_199 Depth=1
	movl	-36(%rbp), %eax
	movl	-24(%rbp), %ecx
	addl	-20(%rbp), %ecx
	cmpl	%ecx, %eax
	jge	.LBB11_207
# %bb.206:                              # %cond.true557
                                        #   in Loop: Header=BB11_199 Depth=1
	movl	-36(%rbp), %eax
	jmp	.LBB11_208
.LBB11_207:                             # %cond.false558
                                        #   in Loop: Header=BB11_199 Depth=1
	movl	-24(%rbp), %eax
	addl	-20(%rbp), %eax
.LBB11_208:                             # %cond.end560
                                        #   in Loop: Header=BB11_199 Depth=1
.LBB11_209:                             # %cond.end562
                                        #   in Loop: Header=BB11_199 Depth=1
	movl	%eax, -44(%rbp)
	movl	$-2, -16(%rbp)
.LBB11_210:                             # %for.cond564
                                        #   Parent Loop BB11_199 Depth=1
                                        # =>  This Inner Loop Header: Depth=2
	cmpl	$4, -16(%rbp)
	jge	.LBB11_222
# %bb.211:                              # %for.body567
                                        #   in Loop: Header=BB11_210 Depth=2
	movl	-32(%rbp), %eax
	movl	-28(%rbp), %ecx
	addl	-16(%rbp), %ecx
	cmpl	%ecx, %eax
	jge	.LBB11_213
# %bb.212:                              # %cond.true571
                                        #   in Loop: Header=BB11_210 Depth=2
	movl	-32(%rbp), %eax
	jmp	.LBB11_214
.LBB11_213:                             # %cond.false572
                                        #   in Loop: Header=BB11_210 Depth=2
	movl	-28(%rbp), %eax
	addl	-16(%rbp), %eax
.LBB11_214:                             # %cond.end574
                                        #   in Loop: Header=BB11_210 Depth=2
	xorl	%ecx, %ecx
	cmpl	%eax, %ecx
	jle	.LBB11_216
# %bb.215:                              # %cond.true578
                                        #   in Loop: Header=BB11_210 Depth=2
	xorl	%eax, %eax
	jmp	.LBB11_220
.LBB11_216:                             # %cond.false579
                                        #   in Loop: Header=BB11_210 Depth=2
	movl	-32(%rbp), %eax
	movl	-28(%rbp), %ecx
	addl	-16(%rbp), %ecx
	cmpl	%ecx, %eax
	jge	.LBB11_218
# %bb.217:                              # %cond.true583
                                        #   in Loop: Header=BB11_210 Depth=2
	movl	-32(%rbp), %eax
	jmp	.LBB11_219
.LBB11_218:                             # %cond.false584
                                        #   in Loop: Header=BB11_210 Depth=2
	movl	-28(%rbp), %eax
	addl	-16(%rbp), %eax
.LBB11_219:                             # %cond.end586
                                        #   in Loop: Header=BB11_210 Depth=2
.LBB11_220:                             # %cond.end588
                                        #   in Loop: Header=BB11_210 Depth=2
	movl	%eax, -40(%rbp)
	movq	-64(%rbp), %rax
	movslq	-40(%rbp), %rcx
	movq	(%rax,%rcx,8), %rax
	movslq	-44(%rbp), %rcx
	movzwl	(%rax,%rcx,2), %eax
	movl	-16(%rbp), %ecx
	addl	$2, %ecx
	movslq	%ecx, %rcx
	imull	Get_Reference_Pixel.COEF(,%rcx,4), %eax
	addl	-12(%rbp), %eax
	movl	%eax, -12(%rbp)
# %bb.221:                              # %for.inc600
                                        #   in Loop: Header=BB11_210 Depth=2
	movl	-16(%rbp), %eax
	addl	$1, %eax
	movl	%eax, -16(%rbp)
	jmp	.LBB11_210
.LBB11_222:                             # %for.end602
                                        #   in Loop: Header=BB11_199 Depth=1
	movl	-12(%rbp), %eax
	movl	-20(%rbp), %ecx
	addl	$2, %ecx
	movslq	%ecx, %rcx
	movl	%eax, -96(%rbp,%rcx,4)
# %bb.223:                              # %for.inc606
                                        #   in Loop: Header=BB11_199 Depth=1
	movl	-20(%rbp), %eax
	addl	$1, %eax
	movl	%eax, -20(%rbp)
	jmp	.LBB11_199
.LBB11_224:                             # %for.end608
	movl	$0, -12(%rbp)
	movl	$-2, -20(%rbp)
.LBB11_225:                             # %for.cond609
                                        # =>This Inner Loop Header: Depth=1
	cmpl	$4, -20(%rbp)
	jge	.LBB11_228
# %bb.226:                              # %for.body612
                                        #   in Loop: Header=BB11_225 Depth=1
	movl	-20(%rbp), %eax
	addl	$2, %eax
	cltq
	movl	-96(%rbp,%rax,4), %eax
	movl	-20(%rbp), %ecx
	addl	$2, %ecx
	movslq	%ecx, %rcx
	imull	Get_Reference_Pixel.COEF(,%rcx,4), %eax
	addl	-12(%rbp), %eax
	movl	%eax, -12(%rbp)
# %bb.227:                              # %for.inc621
                                        #   in Loop: Header=BB11_225 Depth=1
	movl	-20(%rbp), %eax
	addl	$1, %eax
	movl	%eax, -20(%rbp)
	jmp	.LBB11_225
.LBB11_228:                             # %for.end623
	movq	img, %rax
	movl	72684(%rax), %ecx
	movl	-12(%rbp), %eax
	addl	$512, %eax              # imm = 0x200
	cltd
	movl	$1024, %esi             # imm = 0x400
	idivl	%esi
	cmpl	%eax, %ecx
	jge	.LBB11_230
# %bb.229:                              # %cond.true629
	movq	img, %rax
	movl	72684(%rax), %eax
	jmp	.LBB11_231
.LBB11_230:                             # %cond.false631
	movl	-12(%rbp), %eax
	addl	$512, %eax              # imm = 0x200
	cltd
	movl	$1024, %ecx             # imm = 0x400
	idivl	%ecx
.LBB11_231:                             # %cond.end634
	xorl	%ecx, %ecx
	cmpl	%eax, %ecx
	jle	.LBB11_233
# %bb.232:                              # %cond.true638
	xorl	%eax, %eax
	jmp	.LBB11_237
.LBB11_233:                             # %cond.false639
	movq	img, %rax
	movl	72684(%rax), %ecx
	movl	-12(%rbp), %eax
	addl	$512, %eax              # imm = 0x200
	cltd
	movl	$1024, %esi             # imm = 0x400
	idivl	%esi
	cmpl	%eax, %ecx
	jge	.LBB11_235
# %bb.234:                              # %cond.true645
	movq	img, %rax
	movl	72684(%rax), %eax
	jmp	.LBB11_236
.LBB11_235:                             # %cond.false647
	movl	-12(%rbp), %eax
	addl	$512, %eax              # imm = 0x200
	cltd
	movl	$1024, %ecx             # imm = 0x400
	idivl	%ecx
.LBB11_236:                             # %cond.end650
.LBB11_237:                             # %cond.end652
	movl	%eax, -12(%rbp)
	cmpl	$1, -52(%rbp)
	jne	.LBB11_248
# %bb.238:                              # %if.then656
	movl	-12(%rbp), %ecx
	movq	img, %rax
	movl	72684(%rax), %esi
	movl	-88(%rbp), %eax
	addl	$16, %eax
	cltd
	movl	$32, %edi
	idivl	%edi
	cmpl	%eax, %esi
	jge	.LBB11_240
# %bb.239:                              # %cond.true663
	movq	img, %rax
	movl	72684(%rax), %eax
	jmp	.LBB11_241
.LBB11_240:                             # %cond.false665
	movl	-88(%rbp), %eax
	addl	$16, %eax
	cltd
	movl	$32, %esi
	idivl	%esi
.LBB11_241:                             # %cond.end669
	xorl	%edx, %edx
	cmpl	%eax, %edx
	jle	.LBB11_243
# %bb.242:                              # %cond.true673
	xorl	%eax, %eax
	jmp	.LBB11_247
.LBB11_243:                             # %cond.false674
	movq	img, %rax
	movl	72684(%rax), %esi
	movl	-88(%rbp), %eax
	addl	$16, %eax
	cltd
	movl	$32, %edi
	idivl	%edi
	cmpl	%eax, %esi
	jge	.LBB11_245
# %bb.244:                              # %cond.true681
	movq	img, %rax
	movl	72684(%rax), %eax
	jmp	.LBB11_246
.LBB11_245:                             # %cond.false683
	movl	-88(%rbp), %eax
	addl	$16, %eax
	cltd
	movl	$32, %esi
	idivl	%esi
.LBB11_246:                             # %cond.end687
.LBB11_247:                             # %cond.end689
	addl	%eax, %ecx
	movl	%ecx, %eax
	cltd
	movl	$2, %ecx
	idivl	%ecx
	movl	%eax, -12(%rbp)
	jmp	.LBB11_258
.LBB11_248:                             # %if.else693
	movl	-12(%rbp), %ecx
	movq	img, %rax
	movl	72684(%rax), %esi
	movl	-84(%rbp), %eax
	addl	$16, %eax
	cltd
	movl	$32, %edi
	idivl	%edi
	cmpl	%eax, %esi
	jge	.LBB11_250
# %bb.249:                              # %cond.true700
	movq	img, %rax
	movl	72684(%rax), %eax
	jmp	.LBB11_251
.LBB11_250:                             # %cond.false702
	movl	-84(%rbp), %eax
	addl	$16, %eax
	cltd
	movl	$32, %esi
	idivl	%esi
.LBB11_251:                             # %cond.end706
	xorl	%edx, %edx
	cmpl	%eax, %edx
	jle	.LBB11_253
# %bb.252:                              # %cond.true710
	xorl	%eax, %eax
	jmp	.LBB11_257
.LBB11_253:                             # %cond.false711
	movq	img, %rax
	movl	72684(%rax), %esi
	movl	-84(%rbp), %eax
	addl	$16, %eax
	cltd
	movl	$32, %edi
	idivl	%edi
	cmpl	%eax, %esi
	jge	.LBB11_255
# %bb.254:                              # %cond.true718
	movq	img, %rax
	movl	72684(%rax), %eax
	jmp	.LBB11_256
.LBB11_255:                             # %cond.false720
	movl	-84(%rbp), %eax
	addl	$16, %eax
	cltd
	movl	$32, %esi
	idivl	%esi
.LBB11_256:                             # %cond.end724
.LBB11_257:                             # %cond.end726
	addl	%eax, %ecx
	movl	%ecx, %eax
	cltd
	movl	$2, %ecx
	idivl	%ecx
	movl	%eax, -12(%rbp)
.LBB11_258:                             # %if.end730
	jmp	.LBB11_328
.LBB11_259:                             # %if.else731
	movl	$0, -12(%rbp)
	cmpl	$1, -48(%rbp)
	jne	.LBB11_261
# %bb.260:                              # %cond.true734
	movl	-28(%rbp), %eax
	jmp	.LBB11_262
.LBB11_261:                             # %cond.false735
	movl	-28(%rbp), %eax
	addl	$1, %eax
.LBB11_262:                             # %cond.end737
	movl	%eax, -40(%rbp)
	movl	-32(%rbp), %eax
	cmpl	-40(%rbp), %eax
	jge	.LBB11_264
# %bb.263:                              # %cond.true741
	movl	-32(%rbp), %eax
	jmp	.LBB11_265
.LBB11_264:                             # %cond.false742
	movl	-40(%rbp), %eax
.LBB11_265:                             # %cond.end743
	xorl	%ecx, %ecx
	cmpl	%eax, %ecx
	jle	.LBB11_267
# %bb.266:                              # %cond.true747
	xorl	%eax, %eax
	jmp	.LBB11_271
.LBB11_267:                             # %cond.false748
	movl	-32(%rbp), %eax
	cmpl	-40(%rbp), %eax
	jge	.LBB11_269
# %bb.268:                              # %cond.true751
	movl	-32(%rbp), %eax
	jmp	.LBB11_270
.LBB11_269:                             # %cond.false752
	movl	-40(%rbp), %eax
.LBB11_270:                             # %cond.end753
.LBB11_271:                             # %cond.end755
	movl	%eax, -40(%rbp)
	movl	$-2, -20(%rbp)
.LBB11_272:                             # %for.cond757
                                        # =>This Inner Loop Header: Depth=1
	cmpl	$4, -20(%rbp)
	jge	.LBB11_284
# %bb.273:                              # %for.body760
                                        #   in Loop: Header=BB11_272 Depth=1
	movl	-36(%rbp), %eax
	movl	-24(%rbp), %ecx
	addl	-20(%rbp), %ecx
	cmpl	%ecx, %eax
	jge	.LBB11_275
# %bb.274:                              # %cond.true764
                                        #   in Loop: Header=BB11_272 Depth=1
	movl	-36(%rbp), %eax
	jmp	.LBB11_276
.LBB11_275:                             # %cond.false765
                                        #   in Loop: Header=BB11_272 Depth=1
	movl	-24(%rbp), %eax
	addl	-20(%rbp), %eax
.LBB11_276:                             # %cond.end767
                                        #   in Loop: Header=BB11_272 Depth=1
	xorl	%ecx, %ecx
	cmpl	%eax, %ecx
	jle	.LBB11_278
# %bb.277:                              # %cond.true771
                                        #   in Loop: Header=BB11_272 Depth=1
	xorl	%eax, %eax
	jmp	.LBB11_282
.LBB11_278:                             # %cond.false772
                                        #   in Loop: Header=BB11_272 Depth=1
	movl	-36(%rbp), %eax
	movl	-24(%rbp), %ecx
	addl	-20(%rbp), %ecx
	cmpl	%ecx, %eax
	jge	.LBB11_280
# %bb.279:                              # %cond.true776
                                        #   in Loop: Header=BB11_272 Depth=1
	movl	-36(%rbp), %eax
	jmp	.LBB11_281
.LBB11_280:                             # %cond.false777
                                        #   in Loop: Header=BB11_272 Depth=1
	movl	-24(%rbp), %eax
	addl	-20(%rbp), %eax
.LBB11_281:                             # %cond.end779
                                        #   in Loop: Header=BB11_272 Depth=1
.LBB11_282:                             # %cond.end781
                                        #   in Loop: Header=BB11_272 Depth=1
	movl	%eax, -44(%rbp)
	movq	-64(%rbp), %rax
	movslq	-40(%rbp), %rcx
	movq	(%rax,%rcx,8), %rax
	movslq	-44(%rbp), %rcx
	movzwl	(%rax,%rcx,2), %eax
	movl	-20(%rbp), %ecx
	addl	$2, %ecx
	movslq	%ecx, %rcx
	imull	Get_Reference_Pixel.COEF(,%rcx,4), %eax
	addl	-12(%rbp), %eax
	movl	%eax, -12(%rbp)
# %bb.283:                              # %for.inc793
                                        #   in Loop: Header=BB11_272 Depth=1
	movl	-20(%rbp), %eax
	addl	$1, %eax
	movl	%eax, -20(%rbp)
	jmp	.LBB11_272
.LBB11_284:                             # %for.end795
	movq	img, %rax
	movl	72684(%rax), %ecx
	movl	-12(%rbp), %eax
	addl	$16, %eax
	cltd
	movl	$32, %esi
	idivl	%esi
	cmpl	%eax, %ecx
	jge	.LBB11_286
# %bb.285:                              # %cond.true801
	movq	img, %rax
	movl	72684(%rax), %eax
	jmp	.LBB11_287
.LBB11_286:                             # %cond.false803
	movl	-12(%rbp), %eax
	addl	$16, %eax
	cltd
	movl	$32, %ecx
	idivl	%ecx
.LBB11_287:                             # %cond.end806
	xorl	%ecx, %ecx
	cmpl	%eax, %ecx
	jle	.LBB11_289
# %bb.288:                              # %cond.true810
	xorl	%eax, %eax
	jmp	.LBB11_293
.LBB11_289:                             # %cond.false811
	movq	img, %rax
	movl	72684(%rax), %ecx
	movl	-12(%rbp), %eax
	addl	$16, %eax
	cltd
	movl	$32, %esi
	idivl	%esi
	cmpl	%eax, %ecx
	jge	.LBB11_291
# %bb.290:                              # %cond.true817
	movq	img, %rax
	movl	72684(%rax), %eax
	jmp	.LBB11_292
.LBB11_291:                             # %cond.false819
	movl	-12(%rbp), %eax
	addl	$16, %eax
	cltd
	movl	$32, %ecx
	idivl	%ecx
.LBB11_292:                             # %cond.end822
.LBB11_293:                             # %cond.end824
	movl	%eax, -108(%rbp)
	movl	$0, -12(%rbp)
	cmpl	$1, -52(%rbp)
	jne	.LBB11_295
# %bb.294:                              # %cond.true828
	movl	-24(%rbp), %eax
	jmp	.LBB11_296
.LBB11_295:                             # %cond.false829
	movl	-24(%rbp), %eax
	addl	$1, %eax
.LBB11_296:                             # %cond.end831
	movl	%eax, -44(%rbp)
	movl	-36(%rbp), %eax
	cmpl	-44(%rbp), %eax
	jge	.LBB11_298
# %bb.297:                              # %cond.true835
	movl	-36(%rbp), %eax
	jmp	.LBB11_299
.LBB11_298:                             # %cond.false836
	movl	-44(%rbp), %eax
.LBB11_299:                             # %cond.end837
	xorl	%ecx, %ecx
	cmpl	%eax, %ecx
	jle	.LBB11_301
# %bb.300:                              # %cond.true841
	xorl	%eax, %eax
	jmp	.LBB11_305
.LBB11_301:                             # %cond.false842
	movl	-36(%rbp), %eax
	cmpl	-44(%rbp), %eax
	jge	.LBB11_303
# %bb.302:                              # %cond.true845
	movl	-36(%rbp), %eax
	jmp	.LBB11_304
.LBB11_303:                             # %cond.false846
	movl	-44(%rbp), %eax
.LBB11_304:                             # %cond.end847
.LBB11_305:                             # %cond.end849
	movl	%eax, -44(%rbp)
	movl	$-2, -16(%rbp)
.LBB11_306:                             # %for.cond851
                                        # =>This Inner Loop Header: Depth=1
	cmpl	$4, -16(%rbp)
	jge	.LBB11_318
# %bb.307:                              # %for.body854
                                        #   in Loop: Header=BB11_306 Depth=1
	movl	-32(%rbp), %eax
	movl	-28(%rbp), %ecx
	addl	-16(%rbp), %ecx
	cmpl	%ecx, %eax
	jge	.LBB11_309
# %bb.308:                              # %cond.true858
                                        #   in Loop: Header=BB11_306 Depth=1
	movl	-32(%rbp), %eax
	jmp	.LBB11_310
.LBB11_309:                             # %cond.false859
                                        #   in Loop: Header=BB11_306 Depth=1
	movl	-28(%rbp), %eax
	addl	-16(%rbp), %eax
.LBB11_310:                             # %cond.end861
                                        #   in Loop: Header=BB11_306 Depth=1
	xorl	%ecx, %ecx
	cmpl	%eax, %ecx
	jle	.LBB11_312
# %bb.311:                              # %cond.true865
                                        #   in Loop: Header=BB11_306 Depth=1
	xorl	%eax, %eax
	jmp	.LBB11_316
.LBB11_312:                             # %cond.false866
                                        #   in Loop: Header=BB11_306 Depth=1
	movl	-32(%rbp), %eax
	movl	-28(%rbp), %ecx
	addl	-16(%rbp), %ecx
	cmpl	%ecx, %eax
	jge	.LBB11_314
# %bb.313:                              # %cond.true870
                                        #   in Loop: Header=BB11_306 Depth=1
	movl	-32(%rbp), %eax
	jmp	.LBB11_315
.LBB11_314:                             # %cond.false871
                                        #   in Loop: Header=BB11_306 Depth=1
	movl	-28(%rbp), %eax
	addl	-16(%rbp), %eax
.LBB11_315:                             # %cond.end873
                                        #   in Loop: Header=BB11_306 Depth=1
.LBB11_316:                             # %cond.end875
                                        #   in Loop: Header=BB11_306 Depth=1
	movl	%eax, -40(%rbp)
	movq	-64(%rbp), %rax
	movslq	-40(%rbp), %rcx
	movq	(%rax,%rcx,8), %rax
	movslq	-44(%rbp), %rcx
	movzwl	(%rax,%rcx,2), %eax
	movl	-16(%rbp), %ecx
	addl	$2, %ecx
	movslq	%ecx, %rcx
	imull	Get_Reference_Pixel.COEF(,%rcx,4), %eax
	addl	-12(%rbp), %eax
	movl	%eax, -12(%rbp)
# %bb.317:                              # %for.inc887
                                        #   in Loop: Header=BB11_306 Depth=1
	movl	-16(%rbp), %eax
	addl	$1, %eax
	movl	%eax, -16(%rbp)
	jmp	.LBB11_306
.LBB11_318:                             # %for.end889
	movq	img, %rax
	movl	72684(%rax), %ecx
	movl	-12(%rbp), %eax
	addl	$16, %eax
	cltd
	movl	$32, %esi
	idivl	%esi
	cmpl	%eax, %ecx
	jge	.LBB11_320
# %bb.319:                              # %cond.true895
	movq	img, %rax
	movl	72684(%rax), %eax
	jmp	.LBB11_321
.LBB11_320:                             # %cond.false897
	movl	-12(%rbp), %eax
	addl	$16, %eax
	cltd
	movl	$32, %ecx
	idivl	%ecx
.LBB11_321:                             # %cond.end900
	xorl	%ecx, %ecx
	cmpl	%eax, %ecx
	jle	.LBB11_323
# %bb.322:                              # %cond.true904
	xorl	%eax, %eax
	jmp	.LBB11_327
.LBB11_323:                             # %cond.false905
	movq	img, %rax
	movl	72684(%rax), %ecx
	movl	-12(%rbp), %eax
	addl	$16, %eax
	cltd
	movl	$32, %esi
	idivl	%esi
	cmpl	%eax, %ecx
	jge	.LBB11_325
# %bb.324:                              # %cond.true911
	movq	img, %rax
	movl	72684(%rax), %eax
	jmp	.LBB11_326
.LBB11_325:                             # %cond.false913
	movl	-12(%rbp), %eax
	addl	$16, %eax
	cltd
	movl	$32, %ecx
	idivl	%ecx
.LBB11_326:                             # %cond.end916
.LBB11_327:                             # %cond.end918
	movl	%eax, -104(%rbp)
	movl	-108(%rbp), %eax
	addl	-104(%rbp), %eax
	cltd
	movl	$2, %ecx
	idivl	%ecx
	movl	%eax, -12(%rbp)
.LBB11_328:                             # %if.end922
	jmp	.LBB11_329
.LBB11_329:                             # %if.end923
	jmp	.LBB11_330
.LBB11_330:                             # %if.end924
	jmp	.LBB11_331
.LBB11_331:                             # %if.end925
	jmp	.LBB11_332
.LBB11_332:                             # %if.end926
	movl	-12(%rbp), %ebx
	cmpl	$1468804848, -100(%rbp) # imm = 0x578C2EF0
	jne	.LBB11_334
.LBB11_333:
	movzbl	%bl, %eax
	addq	$104, %rsp
	popq	%rbx
	popq	%rbp
	.cfi_def_cfa %rsp, 8
	retq
.LBB11_334:                             # %func_exit
	.cfi_def_cfa %rbp, 16
	callq	detect_breach
	jmp	.LBB11_333
.Lfunc_end11:
	.size	Get_Reference_Pixel.1, .Lfunc_end11-Get_Reference_Pixel.1
	.cfi_endproc
                                        # -- End function
	.section	.rodata.cst8,"aM",@progbits,8
	.p2align	3               # -- Begin function Build_Status_Map.2
.LCPI12_0:
	.quad	4636737291354636288     # double 100
.LCPI12_1:
	.quad	4746794007244308480     # double 2147483647
	.text
	.globl	Build_Status_Map.2
	.p2align	4, 0x90
	.type	Build_Status_Map.2,@function
Build_Status_Map.2:                     # @Build_Status_Map.2
	.cfi_startproc
# %bb.0:                                # %entry
	pushq	%rbp
	.cfi_def_cfa_offset 16
	.cfi_offset %rbp, -16
	movq	%rsp, %rbp
	.cfi_def_cfa_register %rbp
	subq	$48, %rsp
	movl	$1111925597, -40(%rbp)  # imm = 0x4246A35D
	movq	%rdi, -32(%rbp)
	movl	$-1, -20(%rbp)
	movl	$0, -16(%rbp)
	movl	$0, -4(%rbp)
	movq	img, %rax
	movl	60(%rax), %eax
	cltd
	movl	$16, %ecx
	idivl	%ecx
	movl	%eax, -44(%rbp)
	movq	img, %rax
	movl	52(%rax), %eax
	cltd
	idivl	%ecx
	movl	%eax, -36(%rbp)
	movl	$0, -8(%rbp)
.LBB12_1:                               # %for.cond
                                        # =>This Loop Header: Depth=1
                                        #     Child Loop BB12_3 Depth 2
	movl	-8(%rbp), %eax
	cmpl	-44(%rbp), %eax
	jge	.LBB12_22
# %bb.2:                                # %for.body
                                        #   in Loop: Header=BB12_1 Depth=1
	movl	$0, -12(%rbp)
.LBB12_3:                               # %for.cond2
                                        #   Parent Loop BB12_1 Depth=1
                                        # =>  This Inner Loop Header: Depth=2
	movl	-12(%rbp), %eax
	cmpl	-36(%rbp), %eax
	jge	.LBB12_20
# %bb.4:                                # %for.body4
                                        #   in Loop: Header=BB12_3 Depth=2
	movq	input, %rax
	cmpl	$0, 208(%rax)
	je	.LBB12_6
# %bb.5:                                # %lor.lhs.false
                                        #   in Loop: Header=BB12_3 Depth=2
	movq	img, %rax
	movq	14168(%rax), %rax
	movslq	-16(%rbp), %rcx
	imulq	$632, %rcx, %rcx        # imm = 0x278
	addq	%rcx, %rax
	movl	4(%rax), %eax
	cmpl	-20(%rbp), %eax
	je	.LBB12_13
.LBB12_6:                               # %if.then
                                        #   in Loop: Header=BB12_3 Depth=2
	movl	$0, -4(%rbp)
	callq	rand
	vmovsd	.LCPI12_0(%rip), %xmm0  # xmm0 = mem[0],zero
	vmovsd	.LCPI12_1(%rip), %xmm1  # xmm1 = mem[0],zero
	vcvtsi2sd	%eax, %xmm0, %xmm2
	vdivsd	%xmm1, %xmm2, %xmm1
	vmulsd	%xmm0, %xmm1, %xmm0
	movq	input, %rax
	vcvtsi2sdl	2900(%rax), %xmm0, %xmm1
	vucomisd	%xmm0, %xmm1
	jbe	.LBB12_8
# %bb.7:                                # %if.then10
                                        #   in Loop: Header=BB12_3 Depth=2
	movl	-4(%rbp), %eax
	addl	$3, %eax
	movl	%eax, -4(%rbp)
.LBB12_8:                               # %if.end
                                        #   in Loop: Header=BB12_3 Depth=2
	callq	rand
	vmovsd	.LCPI12_0(%rip), %xmm0  # xmm0 = mem[0],zero
	vmovsd	.LCPI12_1(%rip), %xmm1  # xmm1 = mem[0],zero
	vcvtsi2sd	%eax, %xmm0, %xmm2
	vdivsd	%xmm1, %xmm2, %xmm1
	vmulsd	%xmm0, %xmm1, %xmm0
	movq	input, %rax
	vcvtsi2sdl	2896(%rax), %xmm0, %xmm1
	vucomisd	%xmm0, %xmm1
	jbe	.LBB12_10
# %bb.9:                                # %if.then18
                                        #   in Loop: Header=BB12_3 Depth=2
	movl	-4(%rbp), %eax
	addl	$2, %eax
	movl	%eax, -4(%rbp)
.LBB12_10:                              # %if.end20
                                        #   in Loop: Header=BB12_3 Depth=2
	callq	rand
	vmovsd	.LCPI12_0(%rip), %xmm0  # xmm0 = mem[0],zero
	vmovsd	.LCPI12_1(%rip), %xmm1  # xmm1 = mem[0],zero
	vcvtsi2sd	%eax, %xmm0, %xmm2
	vdivsd	%xmm1, %xmm2, %xmm1
	vmulsd	%xmm0, %xmm1, %xmm0
	movq	input, %rax
	vcvtsi2sdl	2892(%rax), %xmm0, %xmm1
	vucomisd	%xmm0, %xmm1
	jbe	.LBB12_12
# %bb.11:                               # %if.then28
                                        #   in Loop: Header=BB12_3 Depth=2
	movl	$1, -4(%rbp)
.LBB12_12:                              # %if.end29
                                        #   in Loop: Header=BB12_3 Depth=2
	movl	-20(%rbp), %eax
	addl	$1, %eax
	movl	%eax, -20(%rbp)
.LBB12_13:                              # %if.end30
                                        #   in Loop: Header=BB12_3 Depth=2
	cmpl	$0, -4(%rbp)
	jne	.LBB12_15
# %bb.14:                               # %if.then32
                                        #   in Loop: Header=BB12_3 Depth=2
	movq	-32(%rbp), %rax
	movslq	-8(%rbp), %rcx
	movq	(%rax,%rcx,8), %rax
	movslq	-12(%rbp), %rcx
	movb	$0, (%rax,%rcx)
	jmp	.LBB12_18
.LBB12_15:                              # %if.else
                                        #   in Loop: Header=BB12_3 Depth=2
	movl	-4(%rbp), %eax
	movq	-32(%rbp), %rcx
	movslq	-8(%rbp), %rdx
	movq	(%rcx,%rdx,8), %rcx
	movslq	-12(%rbp), %rdx
	movb	%al, (%rcx,%rdx)
	movq	input, %rax
	cmpl	$0, 2364(%rax)
	jne	.LBB12_17
# %bb.16:                               # %if.then44
                                        #   in Loop: Header=BB12_3 Depth=2
	movq	-32(%rbp), %rax
	movslq	-8(%rbp), %rcx
	movq	(%rax,%rcx,8), %rax
	movslq	-12(%rbp), %rcx
	movb	$1, (%rax,%rcx)
.LBB12_17:                              # %if.end49
                                        #   in Loop: Header=BB12_3 Depth=2
	jmp	.LBB12_18
.LBB12_18:                              # %if.end50
                                        #   in Loop: Header=BB12_3 Depth=2
	movl	-16(%rbp), %eax
	addl	$1, %eax
	movl	%eax, -16(%rbp)
# %bb.19:                               # %for.inc
                                        #   in Loop: Header=BB12_3 Depth=2
	movl	-12(%rbp), %eax
	addl	$1, %eax
	movl	%eax, -12(%rbp)
	jmp	.LBB12_3
.LBB12_20:                              # %for.end
                                        #   in Loop: Header=BB12_1 Depth=1
	jmp	.LBB12_21
.LBB12_21:                              # %for.inc53
                                        #   in Loop: Header=BB12_1 Depth=1
	movl	-8(%rbp), %eax
	addl	$1, %eax
	movl	%eax, -8(%rbp)
	jmp	.LBB12_1
.LBB12_22:                              # %for.end55
	cmpl	$1111925597, -40(%rbp)  # imm = 0x4246A35D
	jne	.LBB12_24
.LBB12_23:
	addq	$48, %rsp
	popq	%rbp
	.cfi_def_cfa %rsp, 8
	retq
.LBB12_24:                              # %func_exit
	.cfi_def_cfa %rbp, 16
	callq	detect_breach
	jmp	.LBB12_23
.Lfunc_end12:
	.size	Build_Status_Map.2, .Lfunc_end12-Build_Status_Map.2
	.cfi_endproc
                                        # -- End function
	.globl	decode_one_b8block.3    # -- Begin function decode_one_b8block.3
	.p2align	4, 0x90
	.type	decode_one_b8block.3,@function
decode_one_b8block.3:                   # @decode_one_b8block.3
	.cfi_startproc
# %bb.0:                                # %entry
	pushq	%rbp
	.cfi_def_cfa_offset 16
	.cfi_offset %rbp, -16
	movq	%rsp, %rbp
	.cfi_def_cfa_register %rbp
	subq	$1248, %rsp             # imm = 0x4E0
	movl	$2107415742, -84(%rbp)  # imm = 0x7D9C9CBE
	movl	%edi, -44(%rbp)
	movl	%esi, -68(%rbp)
	movl	%edx, -64(%rbp)
	movl	%ecx, -20(%rbp)
	movl	%r8d, -60(%rbp)
	movq	img, %rax
	movl	(%rax), %eax
	subl	start_frame_no_in_this_IGOP, %eax
	subl	$1, %eax
	movq	img, %rcx
	cltd
	idivl	32(%rcx)
	movl	%edx, -76(%rbp)
	movl	-64(%rbp), %eax
	cltd
	movl	$2, %ecx
	idivl	%ecx
	shll	$3, %edx
	movl	%edx, -28(%rbp)
	movl	-28(%rbp), %eax
	addl	$8, %eax
	movl	%eax, -52(%rbp)
	movl	-28(%rbp), %eax
	sarl	$2, %eax
	movl	%eax, -36(%rbp)
	movl	-36(%rbp), %eax
	addl	$2, %eax
	movl	%eax, -56(%rbp)
	movl	-64(%rbp), %eax
	cltd
	idivl	%ecx
	shll	$3, %eax
	movl	%eax, -24(%rbp)
	movl	-24(%rbp), %eax
	addl	$8, %eax
	movl	%eax, -48(%rbp)
	movl	-24(%rbp), %eax
	sarl	$2, %eax
	movl	%eax, -32(%rbp)
	movl	-32(%rbp), %eax
	addl	$2, %eax
	movl	%eax, -40(%rbp)
	movq	img, %rax
	cmpl	$2, 24(%rax)
	jne	.LBB13_10
# %bb.1:                                # %if.then
	movl	-28(%rbp), %eax
	movl	%eax, -4(%rbp)
.LBB13_2:                               # %for.cond
                                        # =>This Loop Header: Depth=1
                                        #     Child Loop BB13_4 Depth 2
	movl	-4(%rbp), %eax
	cmpl	-52(%rbp), %eax
	jge	.LBB13_9
# %bb.3:                                # %for.body
                                        #   in Loop: Header=BB13_2 Depth=1
	movl	-24(%rbp), %eax
	movl	%eax, -8(%rbp)
.LBB13_4:                               # %for.cond9
                                        #   Parent Loop BB13_2 Depth=1
                                        # =>  This Inner Loop Header: Depth=2
	movl	-8(%rbp), %eax
	cmpl	-48(%rbp), %eax
	jge	.LBB13_7
# %bb.5:                                # %for.body11
                                        #   in Loop: Header=BB13_4 Depth=2
	movq	enc_picture, %rax
	movq	6424(%rax), %rax
	movq	img, %rcx
	movl	156(%rcx), %ecx
	addl	-8(%rbp), %ecx
	movslq	%ecx, %rcx
	movq	(%rax,%rcx,8), %rax
	movq	img, %rcx
	movl	152(%rcx), %ecx
	addl	-4(%rbp), %ecx
	movslq	%ecx, %rcx
	movw	(%rax,%rcx,2), %ax
	movq	decs, %rcx
	movq	8(%rcx), %rcx
	movslq	-44(%rbp), %rdx
	movq	(%rcx,%rdx,8), %rcx
	movq	img, %rdx
	movl	156(%rdx), %edx
	addl	-8(%rbp), %edx
	movslq	%edx, %rdx
	movq	(%rcx,%rdx,8), %rcx
	movq	img, %rdx
	movl	152(%rdx), %edx
	addl	-4(%rbp), %edx
	movslq	%edx, %rdx
	movw	%ax, (%rcx,%rdx,2)
# %bb.6:                                # %for.inc
                                        #   in Loop: Header=BB13_4 Depth=2
	movl	-8(%rbp), %eax
	addl	$1, %eax
	movl	%eax, -8(%rbp)
	jmp	.LBB13_4
.LBB13_7:                               # %for.end
                                        #   in Loop: Header=BB13_2 Depth=1
	jmp	.LBB13_8
.LBB13_8:                               # %for.inc26
                                        #   in Loop: Header=BB13_2 Depth=1
	movl	-4(%rbp), %eax
	addl	$1, %eax
	movl	%eax, -4(%rbp)
	jmp	.LBB13_2
.LBB13_9:                               # %for.end28
	jmp	.LBB13_96
.LBB13_10:                              # %if.else
	cmpl	$0, -68(%rbp)
	jne	.LBB13_31
# %bb.11:                               # %land.lhs.true
	movq	img, %rax
	cmpl	$0, 24(%rax)
	je	.LBB13_14
# %bb.12:                               # %lor.lhs.false
	movq	img, %rax
	cmpl	$1, 24(%rax)
	jne	.LBB13_31
# %bb.13:                               # %land.lhs.true34
	movq	img, %rax
	cmpl	$0, 72496(%rax)
	jle	.LBB13_31
.LBB13_14:                              # %if.then36
	movl	-28(%rbp), %eax
	movl	%eax, -4(%rbp)
.LBB13_15:                              # %for.cond37
                                        # =>This Loop Header: Depth=1
                                        #     Child Loop BB13_17 Depth 2
	movl	-4(%rbp), %eax
	cmpl	-52(%rbp), %eax
	jge	.LBB13_22
# %bb.16:                               # %for.body39
                                        #   in Loop: Header=BB13_15 Depth=1
	movl	-24(%rbp), %eax
	movl	%eax, -8(%rbp)
.LBB13_17:                              # %for.cond40
                                        #   Parent Loop BB13_15 Depth=1
                                        # =>  This Inner Loop Header: Depth=2
	movl	-8(%rbp), %eax
	cmpl	-48(%rbp), %eax
	jge	.LBB13_20
# %bb.18:                               # %for.body42
                                        #   in Loop: Header=BB13_17 Depth=2
	movslq	-8(%rbp), %rax
	shlq	$6, %rax
	leaq	-1248(%rbp), %rcx
	addq	%rax, %rcx
	movslq	-4(%rbp), %rax
	movl	$0, (%rcx,%rax,4)
# %bb.19:                               # %for.inc47
                                        #   in Loop: Header=BB13_17 Depth=2
	movl	-8(%rbp), %eax
	addl	$1, %eax
	movl	%eax, -8(%rbp)
	jmp	.LBB13_17
.LBB13_20:                              # %for.end49
                                        #   in Loop: Header=BB13_15 Depth=1
	jmp	.LBB13_21
.LBB13_21:                              # %for.inc50
                                        #   in Loop: Header=BB13_15 Depth=1
	movl	-4(%rbp), %eax
	addl	$1, %eax
	movl	%eax, -4(%rbp)
	jmp	.LBB13_15
.LBB13_22:                              # %for.end52
	movl	-32(%rbp), %eax
	movl	%eax, -12(%rbp)
.LBB13_23:                              # %for.cond53
                                        # =>This Loop Header: Depth=1
                                        #     Child Loop BB13_25 Depth 2
	movl	-12(%rbp), %eax
	cmpl	-40(%rbp), %eax
	jge	.LBB13_30
# %bb.24:                               # %for.body55
                                        #   in Loop: Header=BB13_23 Depth=1
	movl	-36(%rbp), %eax
	movl	%eax, -16(%rbp)
.LBB13_25:                              # %for.cond56
                                        #   Parent Loop BB13_23 Depth=1
                                        # =>  This Inner Loop Header: Depth=2
	movl	-16(%rbp), %eax
	cmpl	-56(%rbp), %eax
	jge	.LBB13_28
# %bb.26:                               # %for.body58
                                        #   in Loop: Header=BB13_25 Depth=2
	leaq	-224(%rbp), %rax
	movq	%rax, %rcx
	addq	$64, %rcx
	movslq	-12(%rbp), %rdx
	shlq	$4, %rdx
	addq	%rdx, %rcx
	movslq	-16(%rbp), %rdx
	movl	$0, (%rcx,%rdx,4)
	movslq	-12(%rbp), %rcx
	shlq	$4, %rcx
	addq	%rcx, %rax
	movslq	-16(%rbp), %rcx
	movl	$0, (%rax,%rcx,4)
# %bb.27:                               # %for.inc69
                                        #   in Loop: Header=BB13_25 Depth=2
	movl	-16(%rbp), %eax
	addl	$1, %eax
	movl	%eax, -16(%rbp)
	jmp	.LBB13_25
.LBB13_28:                              # %for.end71
                                        #   in Loop: Header=BB13_23 Depth=1
	jmp	.LBB13_29
.LBB13_29:                              # %for.inc72
                                        #   in Loop: Header=BB13_23 Depth=1
	movl	-12(%rbp), %eax
	addl	$1, %eax
	movl	%eax, -12(%rbp)
	jmp	.LBB13_23
.LBB13_30:                              # %for.end74
	jmp	.LBB13_60
.LBB13_31:                              # %if.else75
	cmpl	$1, -20(%rbp)
	jl	.LBB13_42
# %bb.32:                               # %land.lhs.true77
	cmpl	$7, -20(%rbp)
	jg	.LBB13_42
# %bb.33:                               # %if.then79
	movl	-32(%rbp), %eax
	movl	%eax, -12(%rbp)
.LBB13_34:                              # %for.cond80
                                        # =>This Loop Header: Depth=1
                                        #     Child Loop BB13_36 Depth 2
	movl	-12(%rbp), %eax
	cmpl	-40(%rbp), %eax
	jge	.LBB13_41
# %bb.35:                               # %for.body82
                                        #   in Loop: Header=BB13_34 Depth=1
	movl	-36(%rbp), %eax
	movl	%eax, -16(%rbp)
.LBB13_36:                              # %for.cond83
                                        #   Parent Loop BB13_34 Depth=1
                                        # =>  This Inner Loop Header: Depth=2
	movl	-16(%rbp), %eax
	cmpl	-56(%rbp), %eax
	jge	.LBB13_39
# %bb.37:                               # %for.body85
                                        #   in Loop: Header=BB13_36 Depth=2
	leaq	-224(%rbp), %rax
	movq	img, %rcx
	movq	71928(%rcx), %rcx
	movslq	-16(%rbp), %rdx
	movq	(%rcx,%rdx,8), %rcx
	movslq	-12(%rbp), %rdx
	movq	(%rcx,%rdx,8), %rcx
	movq	(%rcx), %rcx
	movslq	-60(%rbp), %rdx
	movq	(%rcx,%rdx,8), %rcx
	movslq	-20(%rbp), %rdx
	movq	(%rcx,%rdx,8), %rcx
	movswl	(%rcx), %ecx
	movslq	-12(%rbp), %rdx
	shlq	$4, %rdx
	movq	%rax, %rsi
	addq	%rdx, %rsi
	movslq	-16(%rbp), %rdx
	movl	%ecx, (%rsi,%rdx,4)
	movq	img, %rcx
	movq	71928(%rcx), %rcx
	movslq	-16(%rbp), %rdx
	movq	(%rcx,%rdx,8), %rcx
	movslq	-12(%rbp), %rdx
	movq	(%rcx,%rdx,8), %rcx
	movq	(%rcx), %rcx
	movslq	-60(%rbp), %rdx
	movq	(%rcx,%rdx,8), %rcx
	movslq	-20(%rbp), %rdx
	movq	(%rcx,%rdx,8), %rcx
	movswl	2(%rcx), %ecx
	addq	$64, %rax
	movslq	-12(%rbp), %rdx
	shlq	$4, %rdx
	addq	%rdx, %rax
	movslq	-16(%rbp), %rdx
	movl	%ecx, (%rax,%rdx,4)
# %bb.38:                               # %for.inc118
                                        #   in Loop: Header=BB13_36 Depth=2
	movl	-16(%rbp), %eax
	addl	$1, %eax
	movl	%eax, -16(%rbp)
	jmp	.LBB13_36
.LBB13_39:                              # %for.end120
                                        #   in Loop: Header=BB13_34 Depth=1
	jmp	.LBB13_40
.LBB13_40:                              # %for.inc121
                                        #   in Loop: Header=BB13_34 Depth=1
	movl	-12(%rbp), %eax
	addl	$1, %eax
	movl	%eax, -12(%rbp)
	jmp	.LBB13_34
.LBB13_41:                              # %for.end123
	jmp	.LBB13_51
.LBB13_42:                              # %if.else124
	movl	-32(%rbp), %eax
	movl	%eax, -12(%rbp)
.LBB13_43:                              # %for.cond125
                                        # =>This Loop Header: Depth=1
                                        #     Child Loop BB13_45 Depth 2
	movl	-12(%rbp), %eax
	cmpl	-40(%rbp), %eax
	jge	.LBB13_50
# %bb.44:                               # %for.body128
                                        #   in Loop: Header=BB13_43 Depth=1
	movl	-36(%rbp), %eax
	movl	%eax, -16(%rbp)
.LBB13_45:                              # %for.cond129
                                        #   Parent Loop BB13_43 Depth=1
                                        # =>  This Inner Loop Header: Depth=2
	movl	-16(%rbp), %eax
	cmpl	-56(%rbp), %eax
	jge	.LBB13_48
# %bb.46:                               # %for.body132
                                        #   in Loop: Header=BB13_45 Depth=2
	leaq	-224(%rbp), %rax
	movq	%rax, %rcx
	addq	$64, %rcx
	movslq	-12(%rbp), %rdx
	shlq	$4, %rdx
	addq	%rdx, %rcx
	movslq	-16(%rbp), %rdx
	movl	$0, (%rcx,%rdx,4)
	movslq	-12(%rbp), %rcx
	shlq	$4, %rcx
	addq	%rcx, %rax
	movslq	-16(%rbp), %rcx
	movl	$0, (%rax,%rcx,4)
# %bb.47:                               # %for.inc143
                                        #   in Loop: Header=BB13_45 Depth=2
	movl	-16(%rbp), %eax
	addl	$1, %eax
	movl	%eax, -16(%rbp)
	jmp	.LBB13_45
.LBB13_48:                              # %for.end145
                                        #   in Loop: Header=BB13_43 Depth=1
	jmp	.LBB13_49
.LBB13_49:                              # %for.inc146
                                        #   in Loop: Header=BB13_43 Depth=1
	movl	-12(%rbp), %eax
	addl	$1, %eax
	movl	%eax, -12(%rbp)
	jmp	.LBB13_43
.LBB13_50:                              # %for.end148
	jmp	.LBB13_51
.LBB13_51:                              # %if.end
	movl	-28(%rbp), %eax
	movl	%eax, -4(%rbp)
.LBB13_52:                              # %for.cond149
                                        # =>This Loop Header: Depth=1
                                        #     Child Loop BB13_54 Depth 2
	movl	-4(%rbp), %eax
	cmpl	-52(%rbp), %eax
	jge	.LBB13_59
# %bb.53:                               # %for.body152
                                        #   in Loop: Header=BB13_52 Depth=1
	movl	-24(%rbp), %eax
	movl	%eax, -8(%rbp)
.LBB13_54:                              # %for.cond153
                                        #   Parent Loop BB13_52 Depth=1
                                        # =>  This Inner Loop Header: Depth=2
	movl	-8(%rbp), %eax
	cmpl	-48(%rbp), %eax
	jge	.LBB13_57
# %bb.55:                               # %for.body156
                                        #   in Loop: Header=BB13_54 Depth=2
	movq	decs, %rax
	movq	(%rax), %rax
	movslq	-8(%rbp), %rcx
	movq	(%rax,%rcx,8), %rax
	movslq	-4(%rbp), %rcx
	movl	(%rax,%rcx,4), %eax
	movslq	-8(%rbp), %rcx
	shlq	$6, %rcx
	leaq	-1248(%rbp), %rdx
	addq	%rcx, %rdx
	movslq	-4(%rbp), %rcx
	movl	%eax, (%rdx,%rcx,4)
# %bb.56:                               # %for.inc165
                                        #   in Loop: Header=BB13_54 Depth=2
	movl	-8(%rbp), %eax
	addl	$1, %eax
	movl	%eax, -8(%rbp)
	jmp	.LBB13_54
.LBB13_57:                              # %for.end167
                                        #   in Loop: Header=BB13_52 Depth=1
	jmp	.LBB13_58
.LBB13_58:                              # %for.inc168
                                        #   in Loop: Header=BB13_52 Depth=1
	movl	-4(%rbp), %eax
	addl	$1, %eax
	movl	%eax, -4(%rbp)
	jmp	.LBB13_52
.LBB13_59:                              # %for.end170
	jmp	.LBB13_60
.LBB13_60:                              # %if.end171
	cmpl	$1, -20(%rbp)
	jl	.LBB13_62
# %bb.61:                               # %land.lhs.true174
	cmpl	$7, -20(%rbp)
	jle	.LBB13_66
.LBB13_62:                              # %lor.lhs.false177
	cmpl	$0, -68(%rbp)
	jne	.LBB13_86
# %bb.63:                               # %land.lhs.true180
	movq	img, %rax
	cmpl	$0, 24(%rax)
	je	.LBB13_66
# %bb.64:                               # %lor.lhs.false184
	movq	img, %rax
	cmpl	$1, 24(%rax)
	jne	.LBB13_86
# %bb.65:                               # %land.lhs.true188
	movq	img, %rax
	cmpl	$0, 72496(%rax)
	jle	.LBB13_86
.LBB13_66:                              # %if.then192
	movl	-32(%rbp), %eax
	movl	%eax, -12(%rbp)
.LBB13_67:                              # %for.cond193
                                        # =>This Loop Header: Depth=1
                                        #     Child Loop BB13_69 Depth 2
                                        #       Child Loop BB13_74 Depth 3
                                        #         Child Loop BB13_76 Depth 4
	movl	-12(%rbp), %eax
	cmpl	-40(%rbp), %eax
	jge	.LBB13_85
# %bb.68:                               # %for.body196
                                        #   in Loop: Header=BB13_67 Depth=1
	movl	-36(%rbp), %eax
	movl	%eax, -16(%rbp)
.LBB13_69:                              # %for.cond197
                                        #   Parent Loop BB13_67 Depth=1
                                        # =>  This Loop Header: Depth=2
                                        #       Child Loop BB13_74 Depth 3
                                        #         Child Loop BB13_76 Depth 4
	movl	-16(%rbp), %eax
	cmpl	-56(%rbp), %eax
	jge	.LBB13_83
# %bb.70:                               # %for.body200
                                        #   in Loop: Header=BB13_69 Depth=2
	movq	img, %rax
	movl	144(%rax), %eax
	addl	-16(%rbp), %eax
	movl	%eax, -72(%rbp)
	movq	img, %rax
	movl	148(%rax), %eax
	addl	-12(%rbp), %eax
	movl	%eax, -80(%rbp)
	movq	img, %rax
	cmpl	$1, 24(%rax)
	jne	.LBB13_73
# %bb.71:                               # %land.lhs.true208
                                        #   in Loop: Header=BB13_69 Depth=2
	movq	enc_picture, %rax
	cmpq	enc_frame_picture, %rax
	je	.LBB13_73
# %bb.72:                               # %if.then211
                                        #   in Loop: Header=BB13_69 Depth=2
	movq	img, %rax
	movl	(%rax), %eax
	subl	start_frame_no_in_this_IGOP, %eax
	subl	-60(%rbp), %eax
	subl	$2, %eax
	movq	img, %rcx
	cltd
	idivl	32(%rcx)
	movl	%edx, -76(%rbp)
.LBB13_73:                              # %if.end218
                                        #   in Loop: Header=BB13_69 Depth=2
	leaq	-224(%rbp), %r8
	movq	decs, %rcx
	movq	16(%rcx), %rcx
	movslq	-44(%rbp), %rdx
	movq	(%rcx,%rdx,8), %rcx
	movslq	-76(%rbp), %rdx
	movq	(%rcx,%rdx,8), %rdi
	movl	-80(%rbp), %esi
	movl	-72(%rbp), %edx
	movslq	-12(%rbp), %rcx
	shlq	$4, %rcx
	movq	%r8, %rax
	addq	%rcx, %rax
	movslq	-16(%rbp), %rcx
	movl	(%rax,%rcx,4), %ecx
	addq	$64, %r8
	movslq	-12(%rbp), %rax
	shlq	$4, %rax
	addq	%rax, %r8
	movslq	-16(%rbp), %rax
	movl	(%r8,%rax,4), %r8d
	movq	decs, %rax
	movq	32(%rax), %r9
	callq	Get_Reference_Block
	movl	$0, -8(%rbp)
.LBB13_74:                              # %for.cond233
                                        #   Parent Loop BB13_67 Depth=1
                                        #     Parent Loop BB13_69 Depth=2
                                        # =>    This Loop Header: Depth=3
                                        #         Child Loop BB13_76 Depth 4
	cmpl	$4, -8(%rbp)
	jge	.LBB13_81
# %bb.75:                               # %for.body236
                                        #   in Loop: Header=BB13_74 Depth=3
	movl	$0, -4(%rbp)
.LBB13_76:                              # %for.cond237
                                        #   Parent Loop BB13_67 Depth=1
                                        #     Parent Loop BB13_69 Depth=2
                                        #       Parent Loop BB13_74 Depth=3
                                        # =>      This Inner Loop Header: Depth=4
	cmpl	$4, -4(%rbp)
	jge	.LBB13_79
# %bb.77:                               # %for.body240
                                        #   in Loop: Header=BB13_76 Depth=4
	movl	-12(%rbp), %eax
	shll	$2, %eax
	addl	-8(%rbp), %eax
	cltq
	shlq	$6, %rax
	leaq	-1248(%rbp), %rcx
	addq	%rax, %rcx
	movl	-16(%rbp), %eax
	shll	$2, %eax
	addl	-4(%rbp), %eax
	cltq
	movl	(%rcx,%rax,4), %eax
	movq	decs, %rcx
	movq	32(%rcx), %rcx
	movslq	-8(%rbp), %rdx
	movq	(%rcx,%rdx,8), %rcx
	movslq	-4(%rbp), %rdx
	movzwl	(%rcx,%rdx,2), %ecx
	addl	%ecx, %eax
	movq	decs, %rcx
	movq	8(%rcx), %rcx
	movslq	-44(%rbp), %rdx
	movq	(%rcx,%rdx,8), %rcx
	movl	-80(%rbp), %edx
	shll	$2, %edx
	addl	-8(%rbp), %edx
	movslq	%edx, %rdx
	movq	(%rcx,%rdx,8), %rcx
	movl	-72(%rbp), %edx
	shll	$2, %edx
	addl	-4(%rbp), %edx
	movslq	%edx, %rdx
	movw	%ax, (%rcx,%rdx,2)
# %bb.78:                               # %for.inc267
                                        #   in Loop: Header=BB13_76 Depth=4
	movl	-4(%rbp), %eax
	addl	$1, %eax
	movl	%eax, -4(%rbp)
	jmp	.LBB13_76
.LBB13_79:                              # %for.end269
                                        #   in Loop: Header=BB13_74 Depth=3
	jmp	.LBB13_80
.LBB13_80:                              # %for.inc270
                                        #   in Loop: Header=BB13_74 Depth=3
	movl	-8(%rbp), %eax
	addl	$1, %eax
	movl	%eax, -8(%rbp)
	jmp	.LBB13_74
.LBB13_81:                              # %for.end272
                                        #   in Loop: Header=BB13_69 Depth=2
	jmp	.LBB13_82
.LBB13_82:                              # %for.inc273
                                        #   in Loop: Header=BB13_69 Depth=2
	movl	-16(%rbp), %eax
	addl	$1, %eax
	movl	%eax, -16(%rbp)
	jmp	.LBB13_69
.LBB13_83:                              # %for.end275
                                        #   in Loop: Header=BB13_67 Depth=1
	jmp	.LBB13_84
.LBB13_84:                              # %for.inc276
                                        #   in Loop: Header=BB13_67 Depth=1
	movl	-12(%rbp), %eax
	addl	$1, %eax
	movl	%eax, -12(%rbp)
	jmp	.LBB13_67
.LBB13_85:                              # %for.end278
	jmp	.LBB13_95
.LBB13_86:                              # %if.else279
	movl	-28(%rbp), %eax
	movl	%eax, -4(%rbp)
.LBB13_87:                              # %for.cond280
                                        # =>This Loop Header: Depth=1
                                        #     Child Loop BB13_89 Depth 2
	movl	-4(%rbp), %eax
	cmpl	-52(%rbp), %eax
	jge	.LBB13_94
# %bb.88:                               # %for.body283
                                        #   in Loop: Header=BB13_87 Depth=1
	movl	-24(%rbp), %eax
	movl	%eax, -8(%rbp)
.LBB13_89:                              # %for.cond284
                                        #   Parent Loop BB13_87 Depth=1
                                        # =>  This Inner Loop Header: Depth=2
	movl	-8(%rbp), %eax
	cmpl	-48(%rbp), %eax
	jge	.LBB13_92
# %bb.90:                               # %for.body287
                                        #   in Loop: Header=BB13_89 Depth=2
	movq	enc_picture, %rax
	movq	6424(%rax), %rax
	movq	img, %rcx
	movl	156(%rcx), %ecx
	addl	-8(%rbp), %ecx
	movslq	%ecx, %rcx
	movq	(%rax,%rcx,8), %rax
	movq	img, %rcx
	movl	152(%rcx), %ecx
	addl	-4(%rbp), %ecx
	movslq	%ecx, %rcx
	movw	(%rax,%rcx,2), %ax
	movq	decs, %rcx
	movq	8(%rcx), %rcx
	movslq	-44(%rbp), %rdx
	movq	(%rcx,%rdx,8), %rcx
	movq	img, %rdx
	movl	156(%rdx), %edx
	addl	-8(%rbp), %edx
	movslq	%edx, %rdx
	movq	(%rcx,%rdx,8), %rcx
	movq	img, %rdx
	movl	152(%rdx), %edx
	addl	-4(%rbp), %edx
	movslq	%edx, %rdx
	movw	%ax, (%rcx,%rdx,2)
# %bb.91:                               # %for.inc308
                                        #   in Loop: Header=BB13_89 Depth=2
	movl	-8(%rbp), %eax
	addl	$1, %eax
	movl	%eax, -8(%rbp)
	jmp	.LBB13_89
.LBB13_92:                              # %for.end310
                                        #   in Loop: Header=BB13_87 Depth=1
	jmp	.LBB13_93
.LBB13_93:                              # %for.inc311
                                        #   in Loop: Header=BB13_87 Depth=1
	movl	-4(%rbp), %eax
	addl	$1, %eax
	movl	%eax, -4(%rbp)
	jmp	.LBB13_87
.LBB13_94:                              # %for.end313
	jmp	.LBB13_95
.LBB13_95:                              # %if.end314
	jmp	.LBB13_96
.LBB13_96:                              # %if.end315
	cmpl	$2107415742, -84(%rbp)  # imm = 0x7D9C9CBE
	jne	.LBB13_98
.LBB13_97:
	addq	$1248, %rsp             # imm = 0x4E0
	popq	%rbp
	.cfi_def_cfa %rsp, 8
	retq
.LBB13_98:                              # %func_exit
	.cfi_def_cfa %rbp, 16
	callq	detect_breach
	jmp	.LBB13_97
.Lfunc_end13:
	.size	decode_one_b8block.3, .Lfunc_end13-decode_one_b8block.3
	.cfi_endproc
                                        # -- End function
	.section	.rodata.cst8,"aM",@progbits,8
	.p2align	3               # -- Begin function Build_Status_Map.4
.LCPI14_0:
	.quad	4636737291354636288     # double 100
.LCPI14_1:
	.quad	4746794007244308480     # double 2147483647
	.text
	.globl	Build_Status_Map.4
	.p2align	4, 0x90
	.type	Build_Status_Map.4,@function
Build_Status_Map.4:                     # @Build_Status_Map.4
	.cfi_startproc
# %bb.0:                                # %entry
	pushq	%rbp
	.cfi_def_cfa_offset 16
	.cfi_offset %rbp, -16
	movq	%rsp, %rbp
	.cfi_def_cfa_register %rbp
	subq	$48, %rsp
	movl	$1070913295, -44(%rbp)  # imm = 0x3FD4D70F
	movq	%rdi, -32(%rbp)
	movl	$-1, -20(%rbp)
	movl	$0, -16(%rbp)
	movl	$0, -4(%rbp)
	movq	img, %rax
	movl	60(%rax), %eax
	cltd
	movl	$16, %ecx
	idivl	%ecx
	movl	%eax, -40(%rbp)
	movq	img, %rax
	movl	52(%rax), %eax
	cltd
	idivl	%ecx
	movl	%eax, -36(%rbp)
	movl	$0, -12(%rbp)
.LBB14_1:                               # %for.cond
                                        # =>This Loop Header: Depth=1
                                        #     Child Loop BB14_3 Depth 2
	movl	-12(%rbp), %eax
	cmpl	-40(%rbp), %eax
	jge	.LBB14_22
# %bb.2:                                # %for.body
                                        #   in Loop: Header=BB14_1 Depth=1
	movl	$0, -8(%rbp)
.LBB14_3:                               # %for.cond2
                                        #   Parent Loop BB14_1 Depth=1
                                        # =>  This Inner Loop Header: Depth=2
	movl	-8(%rbp), %eax
	cmpl	-36(%rbp), %eax
	jge	.LBB14_20
# %bb.4:                                # %for.body4
                                        #   in Loop: Header=BB14_3 Depth=2
	movq	input, %rax
	cmpl	$0, 208(%rax)
	je	.LBB14_6
# %bb.5:                                # %lor.lhs.false
                                        #   in Loop: Header=BB14_3 Depth=2
	movq	img, %rax
	movq	14168(%rax), %rax
	movslq	-16(%rbp), %rcx
	imulq	$632, %rcx, %rcx        # imm = 0x278
	addq	%rcx, %rax
	movl	4(%rax), %eax
	cmpl	-20(%rbp), %eax
	je	.LBB14_13
.LBB14_6:                               # %if.then
                                        #   in Loop: Header=BB14_3 Depth=2
	movl	$0, -4(%rbp)
	callq	rand
	vmovsd	.LCPI14_0(%rip), %xmm0  # xmm0 = mem[0],zero
	vmovsd	.LCPI14_1(%rip), %xmm1  # xmm1 = mem[0],zero
	vcvtsi2sd	%eax, %xmm0, %xmm2
	vdivsd	%xmm1, %xmm2, %xmm1
	vmulsd	%xmm0, %xmm1, %xmm0
	movq	input, %rax
	vcvtsi2sdl	2900(%rax), %xmm0, %xmm1
	vucomisd	%xmm0, %xmm1
	jbe	.LBB14_8
# %bb.7:                                # %if.then10
                                        #   in Loop: Header=BB14_3 Depth=2
	movl	-4(%rbp), %eax
	addl	$3, %eax
	movl	%eax, -4(%rbp)
.LBB14_8:                               # %if.end
                                        #   in Loop: Header=BB14_3 Depth=2
	callq	rand
	vmovsd	.LCPI14_0(%rip), %xmm0  # xmm0 = mem[0],zero
	vmovsd	.LCPI14_1(%rip), %xmm1  # xmm1 = mem[0],zero
	vcvtsi2sd	%eax, %xmm0, %xmm2
	vdivsd	%xmm1, %xmm2, %xmm1
	vmulsd	%xmm0, %xmm1, %xmm0
	movq	input, %rax
	vcvtsi2sdl	2896(%rax), %xmm0, %xmm1
	vucomisd	%xmm0, %xmm1
	jbe	.LBB14_10
# %bb.9:                                # %if.then18
                                        #   in Loop: Header=BB14_3 Depth=2
	movl	-4(%rbp), %eax
	addl	$2, %eax
	movl	%eax, -4(%rbp)
.LBB14_10:                              # %if.end20
                                        #   in Loop: Header=BB14_3 Depth=2
	callq	rand
	vmovsd	.LCPI14_0(%rip), %xmm0  # xmm0 = mem[0],zero
	vmovsd	.LCPI14_1(%rip), %xmm1  # xmm1 = mem[0],zero
	vcvtsi2sd	%eax, %xmm0, %xmm2
	vdivsd	%xmm1, %xmm2, %xmm1
	vmulsd	%xmm0, %xmm1, %xmm0
	movq	input, %rax
	vcvtsi2sdl	2892(%rax), %xmm0, %xmm1
	vucomisd	%xmm0, %xmm1
	jbe	.LBB14_12
# %bb.11:                               # %if.then28
                                        #   in Loop: Header=BB14_3 Depth=2
	movl	$1, -4(%rbp)
.LBB14_12:                              # %if.end29
                                        #   in Loop: Header=BB14_3 Depth=2
	movl	-20(%rbp), %eax
	addl	$1, %eax
	movl	%eax, -20(%rbp)
.LBB14_13:                              # %if.end30
                                        #   in Loop: Header=BB14_3 Depth=2
	cmpl	$0, -4(%rbp)
	jne	.LBB14_15
# %bb.14:                               # %if.then32
                                        #   in Loop: Header=BB14_3 Depth=2
	movq	-32(%rbp), %rax
	movslq	-12(%rbp), %rcx
	movq	(%rax,%rcx,8), %rax
	movslq	-8(%rbp), %rcx
	movb	$0, (%rax,%rcx)
	jmp	.LBB14_18
.LBB14_15:                              # %if.else
                                        #   in Loop: Header=BB14_3 Depth=2
	movl	-4(%rbp), %eax
	movq	-32(%rbp), %rcx
	movslq	-12(%rbp), %rdx
	movq	(%rcx,%rdx,8), %rcx
	movslq	-8(%rbp), %rdx
	movb	%al, (%rcx,%rdx)
	movq	input, %rax
	cmpl	$0, 2364(%rax)
	jne	.LBB14_17
# %bb.16:                               # %if.then44
                                        #   in Loop: Header=BB14_3 Depth=2
	movq	-32(%rbp), %rax
	movslq	-12(%rbp), %rcx
	movq	(%rax,%rcx,8), %rax
	movslq	-8(%rbp), %rcx
	movb	$1, (%rax,%rcx)
.LBB14_17:                              # %if.end49
                                        #   in Loop: Header=BB14_3 Depth=2
	jmp	.LBB14_18
.LBB14_18:                              # %if.end50
                                        #   in Loop: Header=BB14_3 Depth=2
	movl	-16(%rbp), %eax
	addl	$1, %eax
	movl	%eax, -16(%rbp)
# %bb.19:                               # %for.inc
                                        #   in Loop: Header=BB14_3 Depth=2
	movl	-8(%rbp), %eax
	addl	$1, %eax
	movl	%eax, -8(%rbp)
	jmp	.LBB14_3
.LBB14_20:                              # %for.end
                                        #   in Loop: Header=BB14_1 Depth=1
	jmp	.LBB14_21
.LBB14_21:                              # %for.inc53
                                        #   in Loop: Header=BB14_1 Depth=1
	movl	-12(%rbp), %eax
	addl	$1, %eax
	movl	%eax, -12(%rbp)
	jmp	.LBB14_1
.LBB14_22:                              # %for.end55
	cmpl	$1070913295, -44(%rbp)  # imm = 0x3FD4D70F
	jne	.LBB14_24
.LBB14_23:
	addq	$48, %rsp
	popq	%rbp
	.cfi_def_cfa %rsp, 8
	retq
.LBB14_24:                              # %func_exit
	.cfi_def_cfa %rbp, 16
	callq	detect_breach
	jmp	.LBB14_23
.Lfunc_end14:
	.size	Build_Status_Map.4, .Lfunc_end14-Build_Status_Map.4
	.cfi_endproc
                                        # -- End function
	.globl	DecOneForthPix.5        # -- Begin function DecOneForthPix.5
	.p2align	4, 0x90
	.type	DecOneForthPix.5,@function
DecOneForthPix.5:                       # @DecOneForthPix.5
	.cfi_startproc
# %bb.0:                                # %entry
	pushq	%rbp
	.cfi_def_cfa_offset 16
	.cfi_offset %rbp, -16
	movq	%rsp, %rbp
	.cfi_def_cfa_register %rbp
	subq	$32, %rsp
	movl	$2109076963, -12(%rbp)  # imm = 0x7DB5F5E3
	movq	%rdi, -32(%rbp)
	movq	%rsi, -24(%rbp)
	movq	img, %rax
	movl	(%rax), %eax
	subl	start_frame_no_in_this_IGOP, %eax
	movq	img, %rcx
	cltd
	idivl	72376(%rcx)
	movl	%edx, -8(%rbp)
	movl	$0, -4(%rbp)
.LBB15_1:                               # %for.cond
                                        # =>This Inner Loop Header: Depth=1
	movl	-4(%rbp), %eax
	movq	img, %rcx
	cmpl	60(%rcx), %eax
	jge	.LBB15_4
# %bb.2:                                # %for.body
                                        #   in Loop: Header=BB15_1 Depth=1
	movq	-24(%rbp), %rax
	movslq	-8(%rbp), %rcx
	movq	(%rax,%rcx,8), %rax
	movslq	-4(%rbp), %rcx
	movq	(%rax,%rcx,8), %rdi
	movq	-32(%rbp), %rax
	movslq	-4(%rbp), %rcx
	movq	(%rax,%rcx,8), %rsi
	movq	img, %rax
	movslq	52(%rax), %rdx
	shlq	$1, %rdx
	callq	memcpy
# %bb.3:                                # %for.inc
                                        #   in Loop: Header=BB15_1 Depth=1
	movl	-4(%rbp), %eax
	addl	$1, %eax
	movl	%eax, -4(%rbp)
	jmp	.LBB15_1
.LBB15_4:                               # %for.end
	cmpl	$2109076963, -12(%rbp)  # imm = 0x7DB5F5E3
	jne	.LBB15_6
.LBB15_5:
	addq	$32, %rsp
	popq	%rbp
	.cfi_def_cfa %rsp, 8
	retq
.LBB15_6:                               # %func_exit
	.cfi_def_cfa %rbp, 16
	callq	detect_breach
	jmp	.LBB15_5
.Lfunc_end15:
	.size	DecOneForthPix.5, .Lfunc_end15-DecOneForthPix.5
	.cfi_endproc
                                        # -- End function
	.section	.rodata.cst8,"aM",@progbits,8
	.p2align	3               # -- Begin function Build_Status_Map.6
.LCPI16_0:
	.quad	4636737291354636288     # double 100
.LCPI16_1:
	.quad	4746794007244308480     # double 2147483647
	.text
	.globl	Build_Status_Map.6
	.p2align	4, 0x90
	.type	Build_Status_Map.6,@function
Build_Status_Map.6:                     # @Build_Status_Map.6
	.cfi_startproc
# %bb.0:                                # %entry
	pushq	%rbp
	.cfi_def_cfa_offset 16
	.cfi_offset %rbp, -16
	movq	%rsp, %rbp
	.cfi_def_cfa_register %rbp
	subq	$48, %rsp
	movl	$1763070578, -40(%rbp)  # imm = 0x69165272
	movq	%rdi, -32(%rbp)
	movl	$-1, -20(%rbp)
	movl	$0, -16(%rbp)
	movl	$0, -4(%rbp)
	movq	img, %rax
	movl	60(%rax), %eax
	cltd
	movl	$16, %ecx
	idivl	%ecx
	movl	%eax, -36(%rbp)
	movq	img, %rax
	movl	52(%rax), %eax
	cltd
	idivl	%ecx
	movl	%eax, -44(%rbp)
	movl	$0, -8(%rbp)
.LBB16_1:                               # %for.cond
                                        # =>This Loop Header: Depth=1
                                        #     Child Loop BB16_3 Depth 2
	movl	-8(%rbp), %eax
	cmpl	-36(%rbp), %eax
	jge	.LBB16_22
# %bb.2:                                # %for.body
                                        #   in Loop: Header=BB16_1 Depth=1
	movl	$0, -12(%rbp)
.LBB16_3:                               # %for.cond2
                                        #   Parent Loop BB16_1 Depth=1
                                        # =>  This Inner Loop Header: Depth=2
	movl	-12(%rbp), %eax
	cmpl	-44(%rbp), %eax
	jge	.LBB16_20
# %bb.4:                                # %for.body4
                                        #   in Loop: Header=BB16_3 Depth=2
	movq	input, %rax
	cmpl	$0, 208(%rax)
	je	.LBB16_6
# %bb.5:                                # %lor.lhs.false
                                        #   in Loop: Header=BB16_3 Depth=2
	movq	img, %rax
	movq	14168(%rax), %rax
	movslq	-16(%rbp), %rcx
	imulq	$632, %rcx, %rcx        # imm = 0x278
	addq	%rcx, %rax
	movl	4(%rax), %eax
	cmpl	-20(%rbp), %eax
	je	.LBB16_13
.LBB16_6:                               # %if.then
                                        #   in Loop: Header=BB16_3 Depth=2
	movl	$0, -4(%rbp)
	callq	rand
	vmovsd	.LCPI16_0(%rip), %xmm0  # xmm0 = mem[0],zero
	vmovsd	.LCPI16_1(%rip), %xmm1  # xmm1 = mem[0],zero
	vcvtsi2sd	%eax, %xmm0, %xmm2
	vdivsd	%xmm1, %xmm2, %xmm1
	vmulsd	%xmm0, %xmm1, %xmm0
	movq	input, %rax
	vcvtsi2sdl	2900(%rax), %xmm0, %xmm1
	vucomisd	%xmm0, %xmm1
	jbe	.LBB16_8
# %bb.7:                                # %if.then10
                                        #   in Loop: Header=BB16_3 Depth=2
	movl	-4(%rbp), %eax
	addl	$3, %eax
	movl	%eax, -4(%rbp)
.LBB16_8:                               # %if.end
                                        #   in Loop: Header=BB16_3 Depth=2
	callq	rand
	vmovsd	.LCPI16_0(%rip), %xmm0  # xmm0 = mem[0],zero
	vmovsd	.LCPI16_1(%rip), %xmm1  # xmm1 = mem[0],zero
	vcvtsi2sd	%eax, %xmm0, %xmm2
	vdivsd	%xmm1, %xmm2, %xmm1
	vmulsd	%xmm0, %xmm1, %xmm0
	movq	input, %rax
	vcvtsi2sdl	2896(%rax), %xmm0, %xmm1
	vucomisd	%xmm0, %xmm1
	jbe	.LBB16_10
# %bb.9:                                # %if.then18
                                        #   in Loop: Header=BB16_3 Depth=2
	movl	-4(%rbp), %eax
	addl	$2, %eax
	movl	%eax, -4(%rbp)
.LBB16_10:                              # %if.end20
                                        #   in Loop: Header=BB16_3 Depth=2
	callq	rand
	vmovsd	.LCPI16_0(%rip), %xmm0  # xmm0 = mem[0],zero
	vmovsd	.LCPI16_1(%rip), %xmm1  # xmm1 = mem[0],zero
	vcvtsi2sd	%eax, %xmm0, %xmm2
	vdivsd	%xmm1, %xmm2, %xmm1
	vmulsd	%xmm0, %xmm1, %xmm0
	movq	input, %rax
	vcvtsi2sdl	2892(%rax), %xmm0, %xmm1
	vucomisd	%xmm0, %xmm1
	jbe	.LBB16_12
# %bb.11:                               # %if.then28
                                        #   in Loop: Header=BB16_3 Depth=2
	movl	$1, -4(%rbp)
.LBB16_12:                              # %if.end29
                                        #   in Loop: Header=BB16_3 Depth=2
	movl	-20(%rbp), %eax
	addl	$1, %eax
	movl	%eax, -20(%rbp)
.LBB16_13:                              # %if.end30
                                        #   in Loop: Header=BB16_3 Depth=2
	cmpl	$0, -4(%rbp)
	jne	.LBB16_15
# %bb.14:                               # %if.then32
                                        #   in Loop: Header=BB16_3 Depth=2
	movq	-32(%rbp), %rax
	movslq	-8(%rbp), %rcx
	movq	(%rax,%rcx,8), %rax
	movslq	-12(%rbp), %rcx
	movb	$0, (%rax,%rcx)
	jmp	.LBB16_18
.LBB16_15:                              # %if.else
                                        #   in Loop: Header=BB16_3 Depth=2
	movl	-4(%rbp), %eax
	movq	-32(%rbp), %rcx
	movslq	-8(%rbp), %rdx
	movq	(%rcx,%rdx,8), %rcx
	movslq	-12(%rbp), %rdx
	movb	%al, (%rcx,%rdx)
	movq	input, %rax
	cmpl	$0, 2364(%rax)
	jne	.LBB16_17
# %bb.16:                               # %if.then44
                                        #   in Loop: Header=BB16_3 Depth=2
	movq	-32(%rbp), %rax
	movslq	-8(%rbp), %rcx
	movq	(%rax,%rcx,8), %rax
	movslq	-12(%rbp), %rcx
	movb	$1, (%rax,%rcx)
.LBB16_17:                              # %if.end49
                                        #   in Loop: Header=BB16_3 Depth=2
	jmp	.LBB16_18
.LBB16_18:                              # %if.end50
                                        #   in Loop: Header=BB16_3 Depth=2
	movl	-16(%rbp), %eax
	addl	$1, %eax
	movl	%eax, -16(%rbp)
# %bb.19:                               # %for.inc
                                        #   in Loop: Header=BB16_3 Depth=2
	movl	-12(%rbp), %eax
	addl	$1, %eax
	movl	%eax, -12(%rbp)
	jmp	.LBB16_3
.LBB16_20:                              # %for.end
                                        #   in Loop: Header=BB16_1 Depth=1
	jmp	.LBB16_21
.LBB16_21:                              # %for.inc53
                                        #   in Loop: Header=BB16_1 Depth=1
	movl	-8(%rbp), %eax
	addl	$1, %eax
	movl	%eax, -8(%rbp)
	jmp	.LBB16_1
.LBB16_22:                              # %for.end55
	cmpl	$1763070578, -40(%rbp)  # imm = 0x69165272
	jne	.LBB16_24
.LBB16_23:
	addq	$48, %rsp
	popq	%rbp
	.cfi_def_cfa %rsp, 8
	retq
.LBB16_24:                              # %func_exit
	.cfi_def_cfa %rbp, 16
	callq	detect_breach
	jmp	.LBB16_23
.Lfunc_end16:
	.size	Build_Status_Map.6, .Lfunc_end16-Build_Status_Map.6
	.cfi_endproc
                                        # -- End function
	.globl	decode_one_b8block.7    # -- Begin function decode_one_b8block.7
	.p2align	4, 0x90
	.type	decode_one_b8block.7,@function
decode_one_b8block.7:                   # @decode_one_b8block.7
	.cfi_startproc
# %bb.0:                                # %entry
	pushq	%rbp
	.cfi_def_cfa_offset 16
	.cfi_offset %rbp, -16
	movq	%rsp, %rbp
	.cfi_def_cfa_register %rbp
	subq	$1248, %rsp             # imm = 0x4E0
	movl	$168667194, -84(%rbp)   # imm = 0xA0DA83A
	movl	%edi, -52(%rbp)
	movl	%esi, -76(%rbp)
	movl	%edx, -72(%rbp)
	movl	%ecx, -20(%rbp)
	movl	%r8d, -60(%rbp)
	movq	img, %rax
	movl	(%rax), %eax
	subl	start_frame_no_in_this_IGOP, %eax
	subl	$1, %eax
	movq	img, %rcx
	cltd
	idivl	32(%rcx)
	movl	%edx, -68(%rbp)
	movl	-72(%rbp), %eax
	cltd
	movl	$2, %ecx
	idivl	%ecx
	shll	$3, %edx
	movl	%edx, -28(%rbp)
	movl	-28(%rbp), %eax
	addl	$8, %eax
	movl	%eax, -44(%rbp)
	movl	-28(%rbp), %eax
	sarl	$2, %eax
	movl	%eax, -32(%rbp)
	movl	-32(%rbp), %eax
	addl	$2, %eax
	movl	%eax, -56(%rbp)
	movl	-72(%rbp), %eax
	cltd
	idivl	%ecx
	shll	$3, %eax
	movl	%eax, -24(%rbp)
	movl	-24(%rbp), %eax
	addl	$8, %eax
	movl	%eax, -48(%rbp)
	movl	-24(%rbp), %eax
	sarl	$2, %eax
	movl	%eax, -36(%rbp)
	movl	-36(%rbp), %eax
	addl	$2, %eax
	movl	%eax, -40(%rbp)
	movq	img, %rax
	cmpl	$2, 24(%rax)
	jne	.LBB17_10
# %bb.1:                                # %if.then
	movl	-28(%rbp), %eax
	movl	%eax, -8(%rbp)
.LBB17_2:                               # %for.cond
                                        # =>This Loop Header: Depth=1
                                        #     Child Loop BB17_4 Depth 2
	movl	-8(%rbp), %eax
	cmpl	-44(%rbp), %eax
	jge	.LBB17_9
# %bb.3:                                # %for.body
                                        #   in Loop: Header=BB17_2 Depth=1
	movl	-24(%rbp), %eax
	movl	%eax, -4(%rbp)
.LBB17_4:                               # %for.cond9
                                        #   Parent Loop BB17_2 Depth=1
                                        # =>  This Inner Loop Header: Depth=2
	movl	-4(%rbp), %eax
	cmpl	-48(%rbp), %eax
	jge	.LBB17_7
# %bb.5:                                # %for.body11
                                        #   in Loop: Header=BB17_4 Depth=2
	movq	enc_picture, %rax
	movq	6424(%rax), %rax
	movq	img, %rcx
	movl	156(%rcx), %ecx
	addl	-4(%rbp), %ecx
	movslq	%ecx, %rcx
	movq	(%rax,%rcx,8), %rax
	movq	img, %rcx
	movl	152(%rcx), %ecx
	addl	-8(%rbp), %ecx
	movslq	%ecx, %rcx
	movw	(%rax,%rcx,2), %ax
	movq	decs, %rcx
	movq	8(%rcx), %rcx
	movslq	-52(%rbp), %rdx
	movq	(%rcx,%rdx,8), %rcx
	movq	img, %rdx
	movl	156(%rdx), %edx
	addl	-4(%rbp), %edx
	movslq	%edx, %rdx
	movq	(%rcx,%rdx,8), %rcx
	movq	img, %rdx
	movl	152(%rdx), %edx
	addl	-8(%rbp), %edx
	movslq	%edx, %rdx
	movw	%ax, (%rcx,%rdx,2)
# %bb.6:                                # %for.inc
                                        #   in Loop: Header=BB17_4 Depth=2
	movl	-4(%rbp), %eax
	addl	$1, %eax
	movl	%eax, -4(%rbp)
	jmp	.LBB17_4
.LBB17_7:                               # %for.end
                                        #   in Loop: Header=BB17_2 Depth=1
	jmp	.LBB17_8
.LBB17_8:                               # %for.inc26
                                        #   in Loop: Header=BB17_2 Depth=1
	movl	-8(%rbp), %eax
	addl	$1, %eax
	movl	%eax, -8(%rbp)
	jmp	.LBB17_2
.LBB17_9:                               # %for.end28
	jmp	.LBB17_96
.LBB17_10:                              # %if.else
	cmpl	$0, -76(%rbp)
	jne	.LBB17_31
# %bb.11:                               # %land.lhs.true
	movq	img, %rax
	cmpl	$0, 24(%rax)
	je	.LBB17_14
# %bb.12:                               # %lor.lhs.false
	movq	img, %rax
	cmpl	$1, 24(%rax)
	jne	.LBB17_31
# %bb.13:                               # %land.lhs.true34
	movq	img, %rax
	cmpl	$0, 72496(%rax)
	jle	.LBB17_31
.LBB17_14:                              # %if.then36
	movl	-28(%rbp), %eax
	movl	%eax, -8(%rbp)
.LBB17_15:                              # %for.cond37
                                        # =>This Loop Header: Depth=1
                                        #     Child Loop BB17_17 Depth 2
	movl	-8(%rbp), %eax
	cmpl	-44(%rbp), %eax
	jge	.LBB17_22
# %bb.16:                               # %for.body39
                                        #   in Loop: Header=BB17_15 Depth=1
	movl	-24(%rbp), %eax
	movl	%eax, -4(%rbp)
.LBB17_17:                              # %for.cond40
                                        #   Parent Loop BB17_15 Depth=1
                                        # =>  This Inner Loop Header: Depth=2
	movl	-4(%rbp), %eax
	cmpl	-48(%rbp), %eax
	jge	.LBB17_20
# %bb.18:                               # %for.body42
                                        #   in Loop: Header=BB17_17 Depth=2
	movslq	-4(%rbp), %rax
	shlq	$6, %rax
	leaq	-1248(%rbp), %rcx
	addq	%rax, %rcx
	movslq	-8(%rbp), %rax
	movl	$0, (%rcx,%rax,4)
# %bb.19:                               # %for.inc47
                                        #   in Loop: Header=BB17_17 Depth=2
	movl	-4(%rbp), %eax
	addl	$1, %eax
	movl	%eax, -4(%rbp)
	jmp	.LBB17_17
.LBB17_20:                              # %for.end49
                                        #   in Loop: Header=BB17_15 Depth=1
	jmp	.LBB17_21
.LBB17_21:                              # %for.inc50
                                        #   in Loop: Header=BB17_15 Depth=1
	movl	-8(%rbp), %eax
	addl	$1, %eax
	movl	%eax, -8(%rbp)
	jmp	.LBB17_15
.LBB17_22:                              # %for.end52
	movl	-36(%rbp), %eax
	movl	%eax, -16(%rbp)
.LBB17_23:                              # %for.cond53
                                        # =>This Loop Header: Depth=1
                                        #     Child Loop BB17_25 Depth 2
	movl	-16(%rbp), %eax
	cmpl	-40(%rbp), %eax
	jge	.LBB17_30
# %bb.24:                               # %for.body55
                                        #   in Loop: Header=BB17_23 Depth=1
	movl	-32(%rbp), %eax
	movl	%eax, -12(%rbp)
.LBB17_25:                              # %for.cond56
                                        #   Parent Loop BB17_23 Depth=1
                                        # =>  This Inner Loop Header: Depth=2
	movl	-12(%rbp), %eax
	cmpl	-56(%rbp), %eax
	jge	.LBB17_28
# %bb.26:                               # %for.body58
                                        #   in Loop: Header=BB17_25 Depth=2
	leaq	-224(%rbp), %rax
	movq	%rax, %rcx
	addq	$64, %rcx
	movslq	-16(%rbp), %rdx
	shlq	$4, %rdx
	addq	%rdx, %rcx
	movslq	-12(%rbp), %rdx
	movl	$0, (%rcx,%rdx,4)
	movslq	-16(%rbp), %rcx
	shlq	$4, %rcx
	addq	%rcx, %rax
	movslq	-12(%rbp), %rcx
	movl	$0, (%rax,%rcx,4)
# %bb.27:                               # %for.inc69
                                        #   in Loop: Header=BB17_25 Depth=2
	movl	-12(%rbp), %eax
	addl	$1, %eax
	movl	%eax, -12(%rbp)
	jmp	.LBB17_25
.LBB17_28:                              # %for.end71
                                        #   in Loop: Header=BB17_23 Depth=1
	jmp	.LBB17_29
.LBB17_29:                              # %for.inc72
                                        #   in Loop: Header=BB17_23 Depth=1
	movl	-16(%rbp), %eax
	addl	$1, %eax
	movl	%eax, -16(%rbp)
	jmp	.LBB17_23
.LBB17_30:                              # %for.end74
	jmp	.LBB17_60
.LBB17_31:                              # %if.else75
	cmpl	$1, -20(%rbp)
	jl	.LBB17_42
# %bb.32:                               # %land.lhs.true77
	cmpl	$7, -20(%rbp)
	jg	.LBB17_42
# %bb.33:                               # %if.then79
	movl	-36(%rbp), %eax
	movl	%eax, -16(%rbp)
.LBB17_34:                              # %for.cond80
                                        # =>This Loop Header: Depth=1
                                        #     Child Loop BB17_36 Depth 2
	movl	-16(%rbp), %eax
	cmpl	-40(%rbp), %eax
	jge	.LBB17_41
# %bb.35:                               # %for.body82
                                        #   in Loop: Header=BB17_34 Depth=1
	movl	-32(%rbp), %eax
	movl	%eax, -12(%rbp)
.LBB17_36:                              # %for.cond83
                                        #   Parent Loop BB17_34 Depth=1
                                        # =>  This Inner Loop Header: Depth=2
	movl	-12(%rbp), %eax
	cmpl	-56(%rbp), %eax
	jge	.LBB17_39
# %bb.37:                               # %for.body85
                                        #   in Loop: Header=BB17_36 Depth=2
	leaq	-224(%rbp), %rax
	movq	img, %rcx
	movq	71928(%rcx), %rcx
	movslq	-12(%rbp), %rdx
	movq	(%rcx,%rdx,8), %rcx
	movslq	-16(%rbp), %rdx
	movq	(%rcx,%rdx,8), %rcx
	movq	(%rcx), %rcx
	movslq	-60(%rbp), %rdx
	movq	(%rcx,%rdx,8), %rcx
	movslq	-20(%rbp), %rdx
	movq	(%rcx,%rdx,8), %rcx
	movswl	(%rcx), %ecx
	movslq	-16(%rbp), %rdx
	shlq	$4, %rdx
	movq	%rax, %rsi
	addq	%rdx, %rsi
	movslq	-12(%rbp), %rdx
	movl	%ecx, (%rsi,%rdx,4)
	movq	img, %rcx
	movq	71928(%rcx), %rcx
	movslq	-12(%rbp), %rdx
	movq	(%rcx,%rdx,8), %rcx
	movslq	-16(%rbp), %rdx
	movq	(%rcx,%rdx,8), %rcx
	movq	(%rcx), %rcx
	movslq	-60(%rbp), %rdx
	movq	(%rcx,%rdx,8), %rcx
	movslq	-20(%rbp), %rdx
	movq	(%rcx,%rdx,8), %rcx
	movswl	2(%rcx), %ecx
	addq	$64, %rax
	movslq	-16(%rbp), %rdx
	shlq	$4, %rdx
	addq	%rdx, %rax
	movslq	-12(%rbp), %rdx
	movl	%ecx, (%rax,%rdx,4)
# %bb.38:                               # %for.inc118
                                        #   in Loop: Header=BB17_36 Depth=2
	movl	-12(%rbp), %eax
	addl	$1, %eax
	movl	%eax, -12(%rbp)
	jmp	.LBB17_36
.LBB17_39:                              # %for.end120
                                        #   in Loop: Header=BB17_34 Depth=1
	jmp	.LBB17_40
.LBB17_40:                              # %for.inc121
                                        #   in Loop: Header=BB17_34 Depth=1
	movl	-16(%rbp), %eax
	addl	$1, %eax
	movl	%eax, -16(%rbp)
	jmp	.LBB17_34
.LBB17_41:                              # %for.end123
	jmp	.LBB17_51
.LBB17_42:                              # %if.else124
	movl	-36(%rbp), %eax
	movl	%eax, -16(%rbp)
.LBB17_43:                              # %for.cond125
                                        # =>This Loop Header: Depth=1
                                        #     Child Loop BB17_45 Depth 2
	movl	-16(%rbp), %eax
	cmpl	-40(%rbp), %eax
	jge	.LBB17_50
# %bb.44:                               # %for.body128
                                        #   in Loop: Header=BB17_43 Depth=1
	movl	-32(%rbp), %eax
	movl	%eax, -12(%rbp)
.LBB17_45:                              # %for.cond129
                                        #   Parent Loop BB17_43 Depth=1
                                        # =>  This Inner Loop Header: Depth=2
	movl	-12(%rbp), %eax
	cmpl	-56(%rbp), %eax
	jge	.LBB17_48
# %bb.46:                               # %for.body132
                                        #   in Loop: Header=BB17_45 Depth=2
	leaq	-224(%rbp), %rax
	movq	%rax, %rcx
	addq	$64, %rcx
	movslq	-16(%rbp), %rdx
	shlq	$4, %rdx
	addq	%rdx, %rcx
	movslq	-12(%rbp), %rdx
	movl	$0, (%rcx,%rdx,4)
	movslq	-16(%rbp), %rcx
	shlq	$4, %rcx
	addq	%rcx, %rax
	movslq	-12(%rbp), %rcx
	movl	$0, (%rax,%rcx,4)
# %bb.47:                               # %for.inc143
                                        #   in Loop: Header=BB17_45 Depth=2
	movl	-12(%rbp), %eax
	addl	$1, %eax
	movl	%eax, -12(%rbp)
	jmp	.LBB17_45
.LBB17_48:                              # %for.end145
                                        #   in Loop: Header=BB17_43 Depth=1
	jmp	.LBB17_49
.LBB17_49:                              # %for.inc146
                                        #   in Loop: Header=BB17_43 Depth=1
	movl	-16(%rbp), %eax
	addl	$1, %eax
	movl	%eax, -16(%rbp)
	jmp	.LBB17_43
.LBB17_50:                              # %for.end148
	jmp	.LBB17_51
.LBB17_51:                              # %if.end
	movl	-28(%rbp), %eax
	movl	%eax, -8(%rbp)
.LBB17_52:                              # %for.cond149
                                        # =>This Loop Header: Depth=1
                                        #     Child Loop BB17_54 Depth 2
	movl	-8(%rbp), %eax
	cmpl	-44(%rbp), %eax
	jge	.LBB17_59
# %bb.53:                               # %for.body152
                                        #   in Loop: Header=BB17_52 Depth=1
	movl	-24(%rbp), %eax
	movl	%eax, -4(%rbp)
.LBB17_54:                              # %for.cond153
                                        #   Parent Loop BB17_52 Depth=1
                                        # =>  This Inner Loop Header: Depth=2
	movl	-4(%rbp), %eax
	cmpl	-48(%rbp), %eax
	jge	.LBB17_57
# %bb.55:                               # %for.body156
                                        #   in Loop: Header=BB17_54 Depth=2
	movq	decs, %rax
	movq	(%rax), %rax
	movslq	-4(%rbp), %rcx
	movq	(%rax,%rcx,8), %rax
	movslq	-8(%rbp), %rcx
	movl	(%rax,%rcx,4), %eax
	movslq	-4(%rbp), %rcx
	shlq	$6, %rcx
	leaq	-1248(%rbp), %rdx
	addq	%rcx, %rdx
	movslq	-8(%rbp), %rcx
	movl	%eax, (%rdx,%rcx,4)
# %bb.56:                               # %for.inc165
                                        #   in Loop: Header=BB17_54 Depth=2
	movl	-4(%rbp), %eax
	addl	$1, %eax
	movl	%eax, -4(%rbp)
	jmp	.LBB17_54
.LBB17_57:                              # %for.end167
                                        #   in Loop: Header=BB17_52 Depth=1
	jmp	.LBB17_58
.LBB17_58:                              # %for.inc168
                                        #   in Loop: Header=BB17_52 Depth=1
	movl	-8(%rbp), %eax
	addl	$1, %eax
	movl	%eax, -8(%rbp)
	jmp	.LBB17_52
.LBB17_59:                              # %for.end170
	jmp	.LBB17_60
.LBB17_60:                              # %if.end171
	cmpl	$1, -20(%rbp)
	jl	.LBB17_62
# %bb.61:                               # %land.lhs.true174
	cmpl	$7, -20(%rbp)
	jle	.LBB17_66
.LBB17_62:                              # %lor.lhs.false177
	cmpl	$0, -76(%rbp)
	jne	.LBB17_86
# %bb.63:                               # %land.lhs.true180
	movq	img, %rax
	cmpl	$0, 24(%rax)
	je	.LBB17_66
# %bb.64:                               # %lor.lhs.false184
	movq	img, %rax
	cmpl	$1, 24(%rax)
	jne	.LBB17_86
# %bb.65:                               # %land.lhs.true188
	movq	img, %rax
	cmpl	$0, 72496(%rax)
	jle	.LBB17_86
.LBB17_66:                              # %if.then192
	movl	-36(%rbp), %eax
	movl	%eax, -16(%rbp)
.LBB17_67:                              # %for.cond193
                                        # =>This Loop Header: Depth=1
                                        #     Child Loop BB17_69 Depth 2
                                        #       Child Loop BB17_74 Depth 3
                                        #         Child Loop BB17_76 Depth 4
	movl	-16(%rbp), %eax
	cmpl	-40(%rbp), %eax
	jge	.LBB17_85
# %bb.68:                               # %for.body196
                                        #   in Loop: Header=BB17_67 Depth=1
	movl	-32(%rbp), %eax
	movl	%eax, -12(%rbp)
.LBB17_69:                              # %for.cond197
                                        #   Parent Loop BB17_67 Depth=1
                                        # =>  This Loop Header: Depth=2
                                        #       Child Loop BB17_74 Depth 3
                                        #         Child Loop BB17_76 Depth 4
	movl	-12(%rbp), %eax
	cmpl	-56(%rbp), %eax
	jge	.LBB17_83
# %bb.70:                               # %for.body200
                                        #   in Loop: Header=BB17_69 Depth=2
	movq	img, %rax
	movl	144(%rax), %eax
	addl	-12(%rbp), %eax
	movl	%eax, -80(%rbp)
	movq	img, %rax
	movl	148(%rax), %eax
	addl	-16(%rbp), %eax
	movl	%eax, -64(%rbp)
	movq	img, %rax
	cmpl	$1, 24(%rax)
	jne	.LBB17_73
# %bb.71:                               # %land.lhs.true208
                                        #   in Loop: Header=BB17_69 Depth=2
	movq	enc_picture, %rax
	cmpq	enc_frame_picture, %rax
	je	.LBB17_73
# %bb.72:                               # %if.then211
                                        #   in Loop: Header=BB17_69 Depth=2
	movq	img, %rax
	movl	(%rax), %eax
	subl	start_frame_no_in_this_IGOP, %eax
	subl	-60(%rbp), %eax
	subl	$2, %eax
	movq	img, %rcx
	cltd
	idivl	32(%rcx)
	movl	%edx, -68(%rbp)
.LBB17_73:                              # %if.end218
                                        #   in Loop: Header=BB17_69 Depth=2
	leaq	-224(%rbp), %r8
	movq	decs, %rcx
	movq	16(%rcx), %rcx
	movslq	-52(%rbp), %rdx
	movq	(%rcx,%rdx,8), %rcx
	movslq	-68(%rbp), %rdx
	movq	(%rcx,%rdx,8), %rdi
	movl	-64(%rbp), %esi
	movl	-80(%rbp), %edx
	movslq	-16(%rbp), %rcx
	shlq	$4, %rcx
	movq	%r8, %rax
	addq	%rcx, %rax
	movslq	-12(%rbp), %rcx
	movl	(%rax,%rcx,4), %ecx
	addq	$64, %r8
	movslq	-16(%rbp), %rax
	shlq	$4, %rax
	addq	%rax, %r8
	movslq	-12(%rbp), %rax
	movl	(%r8,%rax,4), %r8d
	movq	decs, %rax
	movq	32(%rax), %r9
	callq	Get_Reference_Block
	movl	$0, -4(%rbp)
.LBB17_74:                              # %for.cond233
                                        #   Parent Loop BB17_67 Depth=1
                                        #     Parent Loop BB17_69 Depth=2
                                        # =>    This Loop Header: Depth=3
                                        #         Child Loop BB17_76 Depth 4
	cmpl	$4, -4(%rbp)
	jge	.LBB17_81
# %bb.75:                               # %for.body236
                                        #   in Loop: Header=BB17_74 Depth=3
	movl	$0, -8(%rbp)
.LBB17_76:                              # %for.cond237
                                        #   Parent Loop BB17_67 Depth=1
                                        #     Parent Loop BB17_69 Depth=2
                                        #       Parent Loop BB17_74 Depth=3
                                        # =>      This Inner Loop Header: Depth=4
	cmpl	$4, -8(%rbp)
	jge	.LBB17_79
# %bb.77:                               # %for.body240
                                        #   in Loop: Header=BB17_76 Depth=4
	movl	-16(%rbp), %eax
	shll	$2, %eax
	addl	-4(%rbp), %eax
	cltq
	shlq	$6, %rax
	leaq	-1248(%rbp), %rcx
	addq	%rax, %rcx
	movl	-12(%rbp), %eax
	shll	$2, %eax
	addl	-8(%rbp), %eax
	cltq
	movl	(%rcx,%rax,4), %eax
	movq	decs, %rcx
	movq	32(%rcx), %rcx
	movslq	-4(%rbp), %rdx
	movq	(%rcx,%rdx,8), %rcx
	movslq	-8(%rbp), %rdx
	movzwl	(%rcx,%rdx,2), %ecx
	addl	%ecx, %eax
	movq	decs, %rcx
	movq	8(%rcx), %rcx
	movslq	-52(%rbp), %rdx
	movq	(%rcx,%rdx,8), %rcx
	movl	-64(%rbp), %edx
	shll	$2, %edx
	addl	-4(%rbp), %edx
	movslq	%edx, %rdx
	movq	(%rcx,%rdx,8), %rcx
	movl	-80(%rbp), %edx
	shll	$2, %edx
	addl	-8(%rbp), %edx
	movslq	%edx, %rdx
	movw	%ax, (%rcx,%rdx,2)
# %bb.78:                               # %for.inc267
                                        #   in Loop: Header=BB17_76 Depth=4
	movl	-8(%rbp), %eax
	addl	$1, %eax
	movl	%eax, -8(%rbp)
	jmp	.LBB17_76
.LBB17_79:                              # %for.end269
                                        #   in Loop: Header=BB17_74 Depth=3
	jmp	.LBB17_80
.LBB17_80:                              # %for.inc270
                                        #   in Loop: Header=BB17_74 Depth=3
	movl	-4(%rbp), %eax
	addl	$1, %eax
	movl	%eax, -4(%rbp)
	jmp	.LBB17_74
.LBB17_81:                              # %for.end272
                                        #   in Loop: Header=BB17_69 Depth=2
	jmp	.LBB17_82
.LBB17_82:                              # %for.inc273
                                        #   in Loop: Header=BB17_69 Depth=2
	movl	-12(%rbp), %eax
	addl	$1, %eax
	movl	%eax, -12(%rbp)
	jmp	.LBB17_69
.LBB17_83:                              # %for.end275
                                        #   in Loop: Header=BB17_67 Depth=1
	jmp	.LBB17_84
.LBB17_84:                              # %for.inc276
                                        #   in Loop: Header=BB17_67 Depth=1
	movl	-16(%rbp), %eax
	addl	$1, %eax
	movl	%eax, -16(%rbp)
	jmp	.LBB17_67
.LBB17_85:                              # %for.end278
	jmp	.LBB17_95
.LBB17_86:                              # %if.else279
	movl	-28(%rbp), %eax
	movl	%eax, -8(%rbp)
.LBB17_87:                              # %for.cond280
                                        # =>This Loop Header: Depth=1
                                        #     Child Loop BB17_89 Depth 2
	movl	-8(%rbp), %eax
	cmpl	-44(%rbp), %eax
	jge	.LBB17_94
# %bb.88:                               # %for.body283
                                        #   in Loop: Header=BB17_87 Depth=1
	movl	-24(%rbp), %eax
	movl	%eax, -4(%rbp)
.LBB17_89:                              # %for.cond284
                                        #   Parent Loop BB17_87 Depth=1
                                        # =>  This Inner Loop Header: Depth=2
	movl	-4(%rbp), %eax
	cmpl	-48(%rbp), %eax
	jge	.LBB17_92
# %bb.90:                               # %for.body287
                                        #   in Loop: Header=BB17_89 Depth=2
	movq	enc_picture, %rax
	movq	6424(%rax), %rax
	movq	img, %rcx
	movl	156(%rcx), %ecx
	addl	-4(%rbp), %ecx
	movslq	%ecx, %rcx
	movq	(%rax,%rcx,8), %rax
	movq	img, %rcx
	movl	152(%rcx), %ecx
	addl	-8(%rbp), %ecx
	movslq	%ecx, %rcx
	movw	(%rax,%rcx,2), %ax
	movq	decs, %rcx
	movq	8(%rcx), %rcx
	movslq	-52(%rbp), %rdx
	movq	(%rcx,%rdx,8), %rcx
	movq	img, %rdx
	movl	156(%rdx), %edx
	addl	-4(%rbp), %edx
	movslq	%edx, %rdx
	movq	(%rcx,%rdx,8), %rcx
	movq	img, %rdx
	movl	152(%rdx), %edx
	addl	-8(%rbp), %edx
	movslq	%edx, %rdx
	movw	%ax, (%rcx,%rdx,2)
# %bb.91:                               # %for.inc308
                                        #   in Loop: Header=BB17_89 Depth=2
	movl	-4(%rbp), %eax
	addl	$1, %eax
	movl	%eax, -4(%rbp)
	jmp	.LBB17_89
.LBB17_92:                              # %for.end310
                                        #   in Loop: Header=BB17_87 Depth=1
	jmp	.LBB17_93
.LBB17_93:                              # %for.inc311
                                        #   in Loop: Header=BB17_87 Depth=1
	movl	-8(%rbp), %eax
	addl	$1, %eax
	movl	%eax, -8(%rbp)
	jmp	.LBB17_87
.LBB17_94:                              # %for.end313
	jmp	.LBB17_95
.LBB17_95:                              # %if.end314
	jmp	.LBB17_96
.LBB17_96:                              # %if.end315
	cmpl	$168667194, -84(%rbp)   # imm = 0xA0DA83A
	jne	.LBB17_98
.LBB17_97:
	addq	$1248, %rsp             # imm = 0x4E0
	popq	%rbp
	.cfi_def_cfa %rsp, 8
	retq
.LBB17_98:                              # %func_exit
	.cfi_def_cfa %rbp, 16
	callq	detect_breach
	jmp	.LBB17_97
.Lfunc_end17:
	.size	decode_one_b8block.7, .Lfunc_end17-decode_one_b8block.7
	.cfi_endproc
                                        # -- End function
	.globl	Error_Concealment.8     # -- Begin function Error_Concealment.8
	.p2align	4, 0x90
	.type	Error_Concealment.8,@function
Error_Concealment.8:                    # @Error_Concealment.8
	.cfi_startproc
# %bb.0:                                # %entry
	pushq	%rbp
	.cfi_def_cfa_offset 16
	.cfi_offset %rbp, -16
	movq	%rsp, %rbp
	.cfi_def_cfa_register %rbp
	subq	$48, %rsp
	movl	$439740164, -20(%rbp)   # imm = 0x1A35E704
	movq	%rdi, -48(%rbp)
	movq	%rsi, -32(%rbp)
	movq	%rdx, -40(%rbp)
	movq	img, %rax
	movl	60(%rax), %eax
	cltd
	movl	$16, %ecx
	idivl	%ecx
	movl	%eax, -16(%rbp)
	movq	img, %rax
	movl	52(%rax), %eax
	cltd
	idivl	%ecx
	movl	%eax, -12(%rbp)
	movl	$0, -8(%rbp)
.LBB18_1:                               # %for.cond
                                        # =>This Loop Header: Depth=1
                                        #     Child Loop BB18_3 Depth 2
	movl	-8(%rbp), %eax
	cmpl	-16(%rbp), %eax
	jge	.LBB18_10
# %bb.2:                                # %for.body
                                        #   in Loop: Header=BB18_1 Depth=1
	movl	$0, -4(%rbp)
.LBB18_3:                               # %for.cond2
                                        #   Parent Loop BB18_1 Depth=1
                                        # =>  This Inner Loop Header: Depth=2
	movl	-4(%rbp), %eax
	cmpl	-12(%rbp), %eax
	jge	.LBB18_8
# %bb.4:                                # %for.body4
                                        #   in Loop: Header=BB18_3 Depth=2
	movq	-32(%rbp), %rax
	movslq	-8(%rbp), %rcx
	movq	(%rax,%rcx,8), %rax
	movslq	-4(%rbp), %rcx
	cmpb	$0, (%rax,%rcx)
	je	.LBB18_6
# %bb.5:                                # %if.then
                                        #   in Loop: Header=BB18_3 Depth=2
	movq	-48(%rbp), %rdi
	movl	-8(%rbp), %esi
	movl	-4(%rbp), %edx
	movq	-40(%rbp), %rcx
	movq	-32(%rbp), %r8
	callq	Conceal_Error
.LBB18_6:                               # %if.end
                                        #   in Loop: Header=BB18_3 Depth=2
	jmp	.LBB18_7
.LBB18_7:                               # %for.inc
                                        #   in Loop: Header=BB18_3 Depth=2
	movl	-4(%rbp), %eax
	addl	$1, %eax
	movl	%eax, -4(%rbp)
	jmp	.LBB18_3
.LBB18_8:                               # %for.end
                                        #   in Loop: Header=BB18_1 Depth=1
	jmp	.LBB18_9
.LBB18_9:                               # %for.inc7
                                        #   in Loop: Header=BB18_1 Depth=1
	movl	-8(%rbp), %eax
	addl	$1, %eax
	movl	%eax, -8(%rbp)
	jmp	.LBB18_1
.LBB18_10:                              # %for.end9
	cmpl	$439740164, -20(%rbp)   # imm = 0x1A35E704
	jne	.LBB18_12
.LBB18_11:
	addq	$48, %rsp
	popq	%rbp
	.cfi_def_cfa %rsp, 8
	retq
.LBB18_12:                              # %func_exit
	.cfi_def_cfa %rbp, 16
	callq	detect_breach
	jmp	.LBB18_11
.Lfunc_end18:
	.size	Error_Concealment.8, .Lfunc_end18-Error_Concealment.8
	.cfi_endproc
                                        # -- End function
	.globl	Conceal_Error.9         # -- Begin function Conceal_Error.9
	.p2align	4, 0x90
	.type	Conceal_Error.9,@function
Conceal_Error.9:                        # @Conceal_Error.9
	.cfi_startproc
# %bb.0:                                # %entry
	pushq	%rbp
	.cfi_def_cfa_offset 16
	.cfi_offset %rbp, -16
	movq	%rsp, %rbp
	.cfi_def_cfa_register %rbp
	subq	$1248, %rsp             # imm = 0x4E0
	xorl	%r9d, %r9d
	movl	$1866755576, -68(%rbp)  # imm = 0x6F446DF8
	movq	%rdi, -48(%rbp)
	movl	%esi, -20(%rbp)
	movl	%edx, -24(%rbp)
	movq	%rcx, -56(%rbp)
	movq	%r8, -88(%rbp)
	movq	img, %rax
	movl	(%rax), %eax
	subl	start_frame_no_in_this_IGOP, %eax
	subl	$1, %eax
	movq	img, %rcx
	cltd
	idivl	32(%rcx)
	movl	%edx, -36(%rbp)
	movl	-20(%rbp), %eax
	shll	$4, %eax
	movl	%eax, -32(%rbp)
	movl	-24(%rbp), %eax
	shll	$4, %eax
	movl	%eax, -28(%rbp)
	movq	decs, %rax
	movq	48(%rax), %rax
	movslq	-24(%rbp), %rcx
	movq	(%rax,%rcx,8), %rax
	movslq	-20(%rbp), %rcx
	movzbl	(%rax,%rcx), %eax
	cmpl	$0, %eax
	jne	.LBB19_6
# %bb.1:                                # %land.rhs
	movq	img, %rax
	cmpl	$0, 24(%rax)
	movb	$1, %r9b
	je	.LBB19_5
# %bb.2:                                # %lor.rhs
	xorl	%r9d, %r9d
	movq	img, %rax
	cmpl	$1, 24(%rax)
	jne	.LBB19_4
# %bb.3:                                # %land.rhs11
	movq	img, %rax
	cmpl	$0, 72496(%rax)
	setg	%r9b
.LBB19_4:                               # %land.end
.LBB19_5:                               # %lor.end
.LBB19_6:                               # %land.end14
	andb	$1, %r9b
	movzbl	%r9b, %eax
	movl	%eax, -64(%rbp)
	movq	decs, %rax
	movq	48(%rax), %rax
	movslq	-24(%rbp), %rcx
	movq	(%rax,%rcx,8), %rax
	movslq	-20(%rbp), %rcx
	movzbl	(%rax,%rcx), %eax
	cmpl	$1, %eax
	jl	.LBB19_8
# %bb.7:                                # %land.lhs.true
	movq	decs, %rax
	movq	48(%rax), %rax
	movslq	-24(%rbp), %rcx
	movq	(%rax,%rcx,8), %rax
	movslq	-20(%rbp), %rcx
	movzbl	(%rax,%rcx), %eax
	cmpl	$3, %eax
	jle	.LBB19_9
.LBB19_8:                               # %lor.lhs.false
	xorl	%eax, %eax
	movq	decs, %rcx
	movq	48(%rcx), %rcx
	movslq	-24(%rbp), %rdx
	movq	(%rcx,%rdx,8), %rcx
	movslq	-20(%rbp), %rdx
	movzbl	(%rcx,%rdx), %ecx
	cmpl	$8, %ecx
	jne	.LBB19_14
.LBB19_9:                               # %land.rhs39
	movq	img, %rax
	cmpl	$0, 24(%rax)
	movb	$1, %al
	je	.LBB19_13
# %bb.10:                               # %lor.rhs43
	xorl	%eax, %eax
	movq	img, %rcx
	cmpl	$1, 24(%rcx)
	jne	.LBB19_12
# %bb.11:                               # %land.rhs47
	movq	img, %rax
	cmpl	$0, 72496(%rax)
	setg	%al
.LBB19_12:                              # %land.end51
.LBB19_13:                              # %lor.end53
.LBB19_14:                              # %land.end54
	movzbl	%al, %eax
	andl	$1, %eax
	movl	%eax, -60(%rbp)
	movq	enc_picture(%rip), %rax
	movq	6504(%rax), %rax
	movq	(%rax), %rax
	movq	%rax, -80(%rbp)
	movq	-88(%rbp), %rax
	movslq	-20(%rbp), %rcx
	movq	(%rax,%rcx,8), %rax
	movslq	-24(%rbp), %rcx
	movzbl	(%rax,%rcx), %eax
	addl	$-1, %eax
	movl	%eax, %ecx
	subl	$4, %ecx
	ja	.LBB19_180
# %bb.15:                               # %land.end54
	movq	.LJTI19_0(,%rax,8), %rax
	jmpq	*%rax
.LBB19_16:                              # %sw.bb
	movq	img, %rax
	cmpl	$2, 24(%rax)
	je	.LBB19_26
# %bb.17:                               # %if.then
	movl	$0, -8(%rbp)
.LBB19_18:                              # %for.cond
                                        # =>This Loop Header: Depth=1
                                        #     Child Loop BB19_20 Depth 2
	cmpl	$16, -8(%rbp)
	jge	.LBB19_25
# %bb.19:                               # %for.body
                                        #   in Loop: Header=BB19_18 Depth=1
	movl	$0, -4(%rbp)
.LBB19_20:                              # %for.cond68
                                        #   Parent Loop BB19_18 Depth=1
                                        # =>  This Inner Loop Header: Depth=2
	cmpl	$16, -4(%rbp)
	jge	.LBB19_23
# %bb.21:                               # %for.body71
                                        #   in Loop: Header=BB19_20 Depth=2
	movq	-56(%rbp), %rax
	movslq	-36(%rbp), %rcx
	movq	(%rax,%rcx,8), %rax
	movl	-32(%rbp), %ecx
	addl	-8(%rbp), %ecx
	movslq	%ecx, %rcx
	movq	(%rax,%rcx,8), %rax
	movl	-28(%rbp), %ecx
	addl	-4(%rbp), %ecx
	movslq	%ecx, %rcx
	movw	(%rax,%rcx,2), %ax
	movq	-48(%rbp), %rcx
	movl	-32(%rbp), %edx
	addl	-8(%rbp), %edx
	movslq	%edx, %rdx
	movq	(%rcx,%rdx,8), %rcx
	movl	-28(%rbp), %edx
	addl	-4(%rbp), %edx
	movslq	%edx, %rdx
	movw	%ax, (%rcx,%rdx,2)
# %bb.22:                               # %for.inc
                                        #   in Loop: Header=BB19_20 Depth=2
	movl	-4(%rbp), %eax
	addl	$1, %eax
	movl	%eax, -4(%rbp)
	jmp	.LBB19_20
.LBB19_23:                              # %for.end
                                        #   in Loop: Header=BB19_18 Depth=1
	jmp	.LBB19_24
.LBB19_24:                              # %for.inc85
                                        #   in Loop: Header=BB19_18 Depth=1
	movl	-8(%rbp), %eax
	addl	$1, %eax
	movl	%eax, -8(%rbp)
	jmp	.LBB19_18
.LBB19_25:                              # %for.end87
	jmp	.LBB19_35
.LBB19_26:                              # %if.else
	movl	$0, -8(%rbp)
.LBB19_27:                              # %for.cond88
                                        # =>This Loop Header: Depth=1
                                        #     Child Loop BB19_29 Depth 2
	cmpl	$16, -8(%rbp)
	jge	.LBB19_34
# %bb.28:                               # %for.body91
                                        #   in Loop: Header=BB19_27 Depth=1
	movl	$0, -4(%rbp)
.LBB19_29:                              # %for.cond92
                                        #   Parent Loop BB19_27 Depth=1
                                        # =>  This Inner Loop Header: Depth=2
	cmpl	$16, -4(%rbp)
	jge	.LBB19_32
# %bb.30:                               # %for.body95
                                        #   in Loop: Header=BB19_29 Depth=2
	movq	-48(%rbp), %rax
	movl	-32(%rbp), %ecx
	addl	-8(%rbp), %ecx
	movslq	%ecx, %rcx
	movq	(%rax,%rcx,8), %rax
	movl	-28(%rbp), %ecx
	addl	-4(%rbp), %ecx
	movslq	%ecx, %rcx
	movw	$127, (%rax,%rcx,2)
# %bb.31:                               # %for.inc102
                                        #   in Loop: Header=BB19_29 Depth=2
	movl	-4(%rbp), %eax
	addl	$1, %eax
	movl	%eax, -4(%rbp)
	jmp	.LBB19_29
.LBB19_32:                              # %for.end104
                                        #   in Loop: Header=BB19_27 Depth=1
	jmp	.LBB19_33
.LBB19_33:                              # %for.inc105
                                        #   in Loop: Header=BB19_27 Depth=1
	movl	-8(%rbp), %eax
	addl	$1, %eax
	movl	%eax, -8(%rbp)
	jmp	.LBB19_27
.LBB19_34:                              # %for.end107
	jmp	.LBB19_35
.LBB19_35:                              # %if.end
	jmp	.LBB19_180
.LBB19_36:                              # %sw.bb108
	movl	$0, -12(%rbp)
.LBB19_37:                              # %for.cond109
                                        # =>This Loop Header: Depth=1
                                        #     Child Loop BB19_39 Depth 2
                                        #       Child Loop BB19_41 Depth 3
	cmpl	$4, -12(%rbp)
	jge	.LBB19_48
# %bb.38:                               # %for.body112
                                        #   in Loop: Header=BB19_37 Depth=1
	movl	$0, -16(%rbp)
.LBB19_39:                              # %for.cond113
                                        #   Parent Loop BB19_37 Depth=1
                                        # =>  This Loop Header: Depth=2
                                        #       Child Loop BB19_41 Depth 3
	cmpl	$4, -16(%rbp)
	jge	.LBB19_46
# %bb.40:                               # %for.body116
                                        #   in Loop: Header=BB19_39 Depth=2
	movl	$0, -4(%rbp)
.LBB19_41:                              # %for.cond117
                                        #   Parent Loop BB19_37 Depth=1
                                        #     Parent Loop BB19_39 Depth=2
                                        # =>    This Inner Loop Header: Depth=3
	cmpl	$2, -4(%rbp)
	jge	.LBB19_44
# %bb.42:                               # %for.body120
                                        #   in Loop: Header=BB19_41 Depth=3
	movq	-80(%rbp), %rax
	movl	-24(%rbp), %ecx
	shll	$2, %ecx
	addl	-16(%rbp), %ecx
	addl	$4, %ecx
	movslq	%ecx, %rcx
	movq	(%rax,%rcx,8), %rax
	movl	-20(%rbp), %ecx
	shll	$2, %ecx
	addl	-12(%rbp), %ecx
	movslq	%ecx, %rcx
	movq	(%rax,%rcx,8), %rax
	movslq	-4(%rbp), %rcx
	movswl	(%rax,%rcx,2), %eax
	movslq	-4(%rbp), %rcx
	shlq	$6, %rcx
	leaq	-224(%rbp), %rdx
	addq	%rcx, %rdx
	movslq	-12(%rbp), %rcx
	shlq	$4, %rcx
	addq	%rcx, %rdx
	movslq	-16(%rbp), %rcx
	movl	%eax, (%rdx,%rcx,4)
# %bb.43:                               # %for.inc139
                                        #   in Loop: Header=BB19_41 Depth=3
	movl	-4(%rbp), %eax
	addl	$1, %eax
	movl	%eax, -4(%rbp)
	jmp	.LBB19_41
.LBB19_44:                              # %for.end141
                                        #   in Loop: Header=BB19_39 Depth=2
	jmp	.LBB19_45
.LBB19_45:                              # %for.inc142
                                        #   in Loop: Header=BB19_39 Depth=2
	movl	-16(%rbp), %eax
	addl	$1, %eax
	movl	%eax, -16(%rbp)
	jmp	.LBB19_39
.LBB19_46:                              # %for.end144
                                        #   in Loop: Header=BB19_37 Depth=1
	jmp	.LBB19_47
.LBB19_47:                              # %for.inc145
                                        #   in Loop: Header=BB19_37 Depth=1
	movl	-12(%rbp), %eax
	addl	$1, %eax
	movl	%eax, -12(%rbp)
	jmp	.LBB19_37
.LBB19_48:                              # %for.end147
	movl	$0, -4(%rbp)
.LBB19_49:                              # %for.cond148
                                        # =>This Loop Header: Depth=1
                                        #     Child Loop BB19_51 Depth 2
	cmpl	$16, -4(%rbp)
	jge	.LBB19_56
# %bb.50:                               # %for.body151
                                        #   in Loop: Header=BB19_49 Depth=1
	movl	$0, -8(%rbp)
.LBB19_51:                              # %for.cond152
                                        #   Parent Loop BB19_49 Depth=1
                                        # =>  This Inner Loop Header: Depth=2
	cmpl	$16, -8(%rbp)
	jge	.LBB19_54
# %bb.52:                               # %for.body155
                                        #   in Loop: Header=BB19_51 Depth=2
	movslq	-8(%rbp), %rax
	shlq	$6, %rax
	leaq	-1248(%rbp), %rcx
	addq	%rax, %rcx
	movslq	-4(%rbp), %rax
	movl	$0, (%rcx,%rax,4)
# %bb.53:                               # %for.inc160
                                        #   in Loop: Header=BB19_51 Depth=2
	movl	-8(%rbp), %eax
	addl	$1, %eax
	movl	%eax, -8(%rbp)
	jmp	.LBB19_51
.LBB19_54:                              # %for.end162
                                        #   in Loop: Header=BB19_49 Depth=1
	jmp	.LBB19_55
.LBB19_55:                              # %for.inc163
                                        #   in Loop: Header=BB19_49 Depth=1
	movl	-4(%rbp), %eax
	addl	$1, %eax
	movl	%eax, -4(%rbp)
	jmp	.LBB19_49
.LBB19_56:                              # %for.end165
	movq	img, %rax
	cmpl	$2, 24(%rax)
	je	.LBB19_96
# %bb.57:                               # %if.then169
	cmpl	$0, -64(%rbp)
	je	.LBB19_67
# %bb.58:                               # %if.then170
	movl	$0, -8(%rbp)
.LBB19_59:                              # %for.cond171
                                        # =>This Loop Header: Depth=1
                                        #     Child Loop BB19_61 Depth 2
	cmpl	$16, -8(%rbp)
	jge	.LBB19_66
# %bb.60:                               # %for.body174
                                        #   in Loop: Header=BB19_59 Depth=1
	movl	$0, -4(%rbp)
.LBB19_61:                              # %for.cond175
                                        #   Parent Loop BB19_59 Depth=1
                                        # =>  This Inner Loop Header: Depth=2
	cmpl	$16, -4(%rbp)
	jge	.LBB19_64
# %bb.62:                               # %for.body178
                                        #   in Loop: Header=BB19_61 Depth=2
	movq	-56(%rbp), %rax
	movslq	-36(%rbp), %rcx
	movq	(%rax,%rcx,8), %rax
	movl	-32(%rbp), %ecx
	addl	-8(%rbp), %ecx
	movslq	%ecx, %rcx
	movq	(%rax,%rcx,8), %rax
	movl	-28(%rbp), %ecx
	addl	-4(%rbp), %ecx
	movslq	%ecx, %rcx
	movw	(%rax,%rcx,2), %ax
	movq	-48(%rbp), %rcx
	movl	-32(%rbp), %edx
	addl	-8(%rbp), %edx
	movslq	%edx, %rdx
	movq	(%rcx,%rdx,8), %rcx
	movl	-28(%rbp), %edx
	addl	-4(%rbp), %edx
	movslq	%edx, %rdx
	movw	%ax, (%rcx,%rdx,2)
# %bb.63:                               # %for.inc193
                                        #   in Loop: Header=BB19_61 Depth=2
	movl	-4(%rbp), %eax
	addl	$1, %eax
	movl	%eax, -4(%rbp)
	jmp	.LBB19_61
.LBB19_64:                              # %for.end195
                                        #   in Loop: Header=BB19_59 Depth=1
	jmp	.LBB19_65
.LBB19_65:                              # %for.inc196
                                        #   in Loop: Header=BB19_59 Depth=1
	movl	-8(%rbp), %eax
	addl	$1, %eax
	movl	%eax, -8(%rbp)
	jmp	.LBB19_59
.LBB19_66:                              # %for.end198
	jmp	.LBB19_95
.LBB19_67:                              # %if.else199
	cmpl	$0, -60(%rbp)
	je	.LBB19_85
# %bb.68:                               # %if.then201
	movl	-20(%rbp), %eax
	shll	$2, %eax
	movl	%eax, -12(%rbp)
.LBB19_69:                              # %for.cond203
                                        # =>This Loop Header: Depth=1
                                        #     Child Loop BB19_71 Depth 2
                                        #       Child Loop BB19_73 Depth 3
                                        #         Child Loop BB19_75 Depth 4
	movl	-12(%rbp), %eax
	movl	-20(%rbp), %ecx
	shll	$2, %ecx
	addl	$4, %ecx
	cmpl	%ecx, %eax
	jge	.LBB19_84
# %bb.70:                               # %for.body208
                                        #   in Loop: Header=BB19_69 Depth=1
	movl	-24(%rbp), %eax
	shll	$2, %eax
	movl	%eax, -16(%rbp)
.LBB19_71:                              # %for.cond210
                                        #   Parent Loop BB19_69 Depth=1
                                        # =>  This Loop Header: Depth=2
                                        #       Child Loop BB19_73 Depth 3
                                        #         Child Loop BB19_75 Depth 4
	movl	-16(%rbp), %eax
	movl	-24(%rbp), %ecx
	shll	$2, %ecx
	addl	$4, %ecx
	cmpl	%ecx, %eax
	jge	.LBB19_82
# %bb.72:                               # %for.body215
                                        #   in Loop: Header=BB19_71 Depth=2
	leaq	-224(%rbp), %r8
	movq	-56(%rbp), %rcx
	movslq	-36(%rbp), %rdx
	movq	(%rcx,%rdx,8), %rdi
	movl	-12(%rbp), %esi
	movl	-16(%rbp), %edx
	movl	-12(%rbp), %ecx
	movl	-20(%rbp), %eax
	shll	$2, %eax
	subl	%eax, %ecx
	movslq	%ecx, %rax
	shlq	$4, %rax
	movq	%r8, %r9
	addq	%rax, %r9
	movl	-16(%rbp), %eax
	movl	-24(%rbp), %ecx
	shll	$2, %ecx
	subl	%ecx, %eax
	cltq
	movl	(%r9,%rax,4), %ecx
	addq	$64, %r8
	movl	-12(%rbp), %r9d
	movl	-20(%rbp), %eax
	shll	$2, %eax
	subl	%eax, %r9d
	movslq	%r9d, %rax
	shlq	$4, %rax
	addq	%rax, %r8
	movl	-16(%rbp), %r9d
	movl	-24(%rbp), %eax
	shll	$2, %eax
	subl	%eax, %r9d
	movslq	%r9d, %rax
	movl	(%r8,%rax,4), %r8d
	movq	decs, %rax
	movq	32(%rax), %r9
	callq	Get_Reference_Block
	movl	$0, -8(%rbp)
.LBB19_73:                              # %for.cond236
                                        #   Parent Loop BB19_69 Depth=1
                                        #     Parent Loop BB19_71 Depth=2
                                        # =>    This Loop Header: Depth=3
                                        #         Child Loop BB19_75 Depth 4
	cmpl	$4, -8(%rbp)
	jge	.LBB19_80
# %bb.74:                               # %for.body239
                                        #   in Loop: Header=BB19_73 Depth=3
	movl	$0, -4(%rbp)
.LBB19_75:                              # %for.cond240
                                        #   Parent Loop BB19_69 Depth=1
                                        #     Parent Loop BB19_71 Depth=2
                                        #       Parent Loop BB19_73 Depth=3
                                        # =>      This Inner Loop Header: Depth=4
	cmpl	$4, -4(%rbp)
	jge	.LBB19_78
# %bb.76:                               # %for.body243
                                        #   in Loop: Header=BB19_75 Depth=4
	movq	decs, %rax
	movq	32(%rax), %rax
	movslq	-8(%rbp), %rcx
	movq	(%rax,%rcx,8), %rax
	movslq	-4(%rbp), %rcx
	movw	(%rax,%rcx,2), %ax
	movq	-48(%rbp), %rcx
	movl	-12(%rbp), %edx
	shll	$2, %edx
	addl	-8(%rbp), %edx
	movslq	%edx, %rdx
	movq	(%rcx,%rdx,8), %rcx
	movl	-16(%rbp), %edx
	shll	$2, %edx
	addl	-4(%rbp), %edx
	movslq	%edx, %rdx
	movw	%ax, (%rcx,%rdx,2)
# %bb.77:                               # %for.inc257
                                        #   in Loop: Header=BB19_75 Depth=4
	movl	-4(%rbp), %eax
	addl	$1, %eax
	movl	%eax, -4(%rbp)
	jmp	.LBB19_75
.LBB19_78:                              # %for.end259
                                        #   in Loop: Header=BB19_73 Depth=3
	jmp	.LBB19_79
.LBB19_79:                              # %for.inc260
                                        #   in Loop: Header=BB19_73 Depth=3
	movl	-8(%rbp), %eax
	addl	$1, %eax
	movl	%eax, -8(%rbp)
	jmp	.LBB19_73
.LBB19_80:                              # %for.end262
                                        #   in Loop: Header=BB19_71 Depth=2
	jmp	.LBB19_81
.LBB19_81:                              # %for.inc263
                                        #   in Loop: Header=BB19_71 Depth=2
	movl	-16(%rbp), %eax
	addl	$1, %eax
	movl	%eax, -16(%rbp)
	jmp	.LBB19_71
.LBB19_82:                              # %for.end265
                                        #   in Loop: Header=BB19_69 Depth=1
	jmp	.LBB19_83
.LBB19_83:                              # %for.inc266
                                        #   in Loop: Header=BB19_69 Depth=1
	movl	-12(%rbp), %eax
	addl	$1, %eax
	movl	%eax, -12(%rbp)
	jmp	.LBB19_69
.LBB19_84:                              # %for.end268
	jmp	.LBB19_94
.LBB19_85:                              # %if.else269
	movl	$0, -8(%rbp)
.LBB19_86:                              # %for.cond270
                                        # =>This Loop Header: Depth=1
                                        #     Child Loop BB19_88 Depth 2
	cmpl	$16, -8(%rbp)
	jge	.LBB19_93
# %bb.87:                               # %for.body273
                                        #   in Loop: Header=BB19_86 Depth=1
	movl	$0, -4(%rbp)
.LBB19_88:                              # %for.cond274
                                        #   Parent Loop BB19_86 Depth=1
                                        # =>  This Inner Loop Header: Depth=2
	cmpl	$16, -4(%rbp)
	jge	.LBB19_91
# %bb.89:                               # %for.body277
                                        #   in Loop: Header=BB19_88 Depth=2
	movq	-56(%rbp), %rax
	movslq	-36(%rbp), %rcx
	movq	(%rax,%rcx,8), %rax
	movl	-32(%rbp), %ecx
	addl	-8(%rbp), %ecx
	movslq	%ecx, %rcx
	movq	(%rax,%rcx,8), %rax
	movl	-28(%rbp), %ecx
	addl	-4(%rbp), %ecx
	movslq	%ecx, %rcx
	movw	(%rax,%rcx,2), %ax
	movq	-48(%rbp), %rcx
	movl	-32(%rbp), %edx
	addl	-8(%rbp), %edx
	movslq	%edx, %rdx
	movq	(%rcx,%rdx,8), %rcx
	movl	-28(%rbp), %edx
	addl	-4(%rbp), %edx
	movslq	%edx, %rdx
	movw	%ax, (%rcx,%rdx,2)
# %bb.90:                               # %for.inc292
                                        #   in Loop: Header=BB19_88 Depth=2
	movl	-4(%rbp), %eax
	addl	$1, %eax
	movl	%eax, -4(%rbp)
	jmp	.LBB19_88
.LBB19_91:                              # %for.end294
                                        #   in Loop: Header=BB19_86 Depth=1
	jmp	.LBB19_92
.LBB19_92:                              # %for.inc295
                                        #   in Loop: Header=BB19_86 Depth=1
	movl	-8(%rbp), %eax
	addl	$1, %eax
	movl	%eax, -8(%rbp)
	jmp	.LBB19_86
.LBB19_93:                              # %for.end297
	jmp	.LBB19_94
.LBB19_94:                              # %if.end298
	jmp	.LBB19_95
.LBB19_95:                              # %if.end299
	jmp	.LBB19_105
.LBB19_96:                              # %if.else300
	movl	$0, -8(%rbp)
.LBB19_97:                              # %for.cond301
                                        # =>This Loop Header: Depth=1
                                        #     Child Loop BB19_99 Depth 2
	cmpl	$16, -8(%rbp)
	jge	.LBB19_104
# %bb.98:                               # %for.body304
                                        #   in Loop: Header=BB19_97 Depth=1
	movl	$0, -4(%rbp)
.LBB19_99:                              # %for.cond305
                                        #   Parent Loop BB19_97 Depth=1
                                        # =>  This Inner Loop Header: Depth=2
	cmpl	$16, -4(%rbp)
	jge	.LBB19_102
# %bb.100:                              # %for.body308
                                        #   in Loop: Header=BB19_99 Depth=2
	movq	-48(%rbp), %rax
	movl	-32(%rbp), %ecx
	addl	-8(%rbp), %ecx
	movslq	%ecx, %rcx
	movq	(%rax,%rcx,8), %rax
	movl	-28(%rbp), %ecx
	addl	-4(%rbp), %ecx
	movslq	%ecx, %rcx
	movw	$127, (%rax,%rcx,2)
# %bb.101:                              # %for.inc315
                                        #   in Loop: Header=BB19_99 Depth=2
	movl	-4(%rbp), %eax
	addl	$1, %eax
	movl	%eax, -4(%rbp)
	jmp	.LBB19_99
.LBB19_102:                             # %for.end317
                                        #   in Loop: Header=BB19_97 Depth=1
	jmp	.LBB19_103
.LBB19_103:                             # %for.inc318
                                        #   in Loop: Header=BB19_97 Depth=1
	movl	-8(%rbp), %eax
	addl	$1, %eax
	movl	%eax, -8(%rbp)
	jmp	.LBB19_97
.LBB19_104:                             # %for.end320
	jmp	.LBB19_105
.LBB19_105:                             # %if.end321
	jmp	.LBB19_180
.LBB19_106:                             # %sw.bb322
	movq	img, %rax
	cmpl	$2, 24(%rax)
	je	.LBB19_157
# %bb.107:                              # %if.then326
	movl	$0, -12(%rbp)
.LBB19_108:                             # %for.cond327
                                        # =>This Loop Header: Depth=1
                                        #     Child Loop BB19_110 Depth 2
                                        #       Child Loop BB19_112 Depth 3
	cmpl	$4, -12(%rbp)
	jge	.LBB19_119
# %bb.109:                              # %for.body330
                                        #   in Loop: Header=BB19_108 Depth=1
	movl	$0, -16(%rbp)
.LBB19_110:                             # %for.cond331
                                        #   Parent Loop BB19_108 Depth=1
                                        # =>  This Loop Header: Depth=2
                                        #       Child Loop BB19_112 Depth 3
	cmpl	$4, -16(%rbp)
	jge	.LBB19_117
# %bb.111:                              # %for.body334
                                        #   in Loop: Header=BB19_110 Depth=2
	movl	$0, -4(%rbp)
.LBB19_112:                             # %for.cond335
                                        #   Parent Loop BB19_108 Depth=1
                                        #     Parent Loop BB19_110 Depth=2
                                        # =>    This Inner Loop Header: Depth=3
	cmpl	$2, -4(%rbp)
	jge	.LBB19_115
# %bb.113:                              # %for.body338
                                        #   in Loop: Header=BB19_112 Depth=3
	movq	-80(%rbp), %rax
	movl	-24(%rbp), %ecx
	shll	$2, %ecx
	addl	-16(%rbp), %ecx
	addl	$4, %ecx
	movslq	%ecx, %rcx
	movq	(%rax,%rcx,8), %rax
	movl	-20(%rbp), %ecx
	shll	$2, %ecx
	addl	-12(%rbp), %ecx
	movslq	%ecx, %rcx
	movq	(%rax,%rcx,8), %rax
	movslq	-4(%rbp), %rcx
	movswl	(%rax,%rcx,2), %eax
	movslq	-4(%rbp), %rcx
	shlq	$6, %rcx
	leaq	-224(%rbp), %rdx
	addq	%rcx, %rdx
	movslq	-12(%rbp), %rcx
	shlq	$4, %rcx
	addq	%rcx, %rdx
	movslq	-16(%rbp), %rcx
	movl	%eax, (%rdx,%rcx,4)
# %bb.114:                              # %for.inc357
                                        #   in Loop: Header=BB19_112 Depth=3
	movl	-4(%rbp), %eax
	addl	$1, %eax
	movl	%eax, -4(%rbp)
	jmp	.LBB19_112
.LBB19_115:                             # %for.end359
                                        #   in Loop: Header=BB19_110 Depth=2
	jmp	.LBB19_116
.LBB19_116:                             # %for.inc360
                                        #   in Loop: Header=BB19_110 Depth=2
	movl	-16(%rbp), %eax
	addl	$1, %eax
	movl	%eax, -16(%rbp)
	jmp	.LBB19_110
.LBB19_117:                             # %for.end362
                                        #   in Loop: Header=BB19_108 Depth=1
	jmp	.LBB19_118
.LBB19_118:                             # %for.inc363
                                        #   in Loop: Header=BB19_108 Depth=1
	movl	-12(%rbp), %eax
	addl	$1, %eax
	movl	%eax, -12(%rbp)
	jmp	.LBB19_108
.LBB19_119:                             # %for.end365
	movl	$0, -4(%rbp)
.LBB19_120:                             # %for.cond366
                                        # =>This Loop Header: Depth=1
                                        #     Child Loop BB19_122 Depth 2
	cmpl	$16, -4(%rbp)
	jge	.LBB19_127
# %bb.121:                              # %for.body369
                                        #   in Loop: Header=BB19_120 Depth=1
	movl	$0, -8(%rbp)
.LBB19_122:                             # %for.cond370
                                        #   Parent Loop BB19_120 Depth=1
                                        # =>  This Inner Loop Header: Depth=2
	cmpl	$16, -8(%rbp)
	jge	.LBB19_125
# %bb.123:                              # %for.body373
                                        #   in Loop: Header=BB19_122 Depth=2
	movslq	-8(%rbp), %rax
	shlq	$6, %rax
	leaq	-1248(%rbp), %rcx
	addq	%rax, %rcx
	movslq	-4(%rbp), %rax
	movl	$0, (%rcx,%rax,4)
# %bb.124:                              # %for.inc378
                                        #   in Loop: Header=BB19_122 Depth=2
	movl	-8(%rbp), %eax
	addl	$1, %eax
	movl	%eax, -8(%rbp)
	jmp	.LBB19_122
.LBB19_125:                             # %for.end380
                                        #   in Loop: Header=BB19_120 Depth=1
	jmp	.LBB19_126
.LBB19_126:                             # %for.inc381
                                        #   in Loop: Header=BB19_120 Depth=1
	movl	-4(%rbp), %eax
	addl	$1, %eax
	movl	%eax, -4(%rbp)
	jmp	.LBB19_120
.LBB19_127:                             # %for.end383
	cmpl	$0, -64(%rbp)
	je	.LBB19_137
# %bb.128:                              # %if.then385
	movl	$0, -8(%rbp)
.LBB19_129:                             # %for.cond386
                                        # =>This Loop Header: Depth=1
                                        #     Child Loop BB19_131 Depth 2
	cmpl	$16, -8(%rbp)
	jge	.LBB19_136
# %bb.130:                              # %for.body389
                                        #   in Loop: Header=BB19_129 Depth=1
	movl	$0, -4(%rbp)
.LBB19_131:                             # %for.cond390
                                        #   Parent Loop BB19_129 Depth=1
                                        # =>  This Inner Loop Header: Depth=2
	cmpl	$16, -4(%rbp)
	jge	.LBB19_134
# %bb.132:                              # %for.body393
                                        #   in Loop: Header=BB19_131 Depth=2
	movq	-56(%rbp), %rax
	movslq	-36(%rbp), %rcx
	movq	(%rax,%rcx,8), %rax
	movl	-32(%rbp), %ecx
	addl	-8(%rbp), %ecx
	movslq	%ecx, %rcx
	movq	(%rax,%rcx,8), %rax
	movl	-28(%rbp), %ecx
	addl	-4(%rbp), %ecx
	movslq	%ecx, %rcx
	movw	(%rax,%rcx,2), %ax
	movq	-48(%rbp), %rcx
	movl	-32(%rbp), %edx
	addl	-8(%rbp), %edx
	movslq	%edx, %rdx
	movq	(%rcx,%rdx,8), %rcx
	movl	-28(%rbp), %edx
	addl	-4(%rbp), %edx
	movslq	%edx, %rdx
	movw	%ax, (%rcx,%rdx,2)
# %bb.133:                              # %for.inc408
                                        #   in Loop: Header=BB19_131 Depth=2
	movl	-4(%rbp), %eax
	addl	$1, %eax
	movl	%eax, -4(%rbp)
	jmp	.LBB19_131
.LBB19_134:                             # %for.end410
                                        #   in Loop: Header=BB19_129 Depth=1
	jmp	.LBB19_135
.LBB19_135:                             # %for.inc411
                                        #   in Loop: Header=BB19_129 Depth=1
	movl	-8(%rbp), %eax
	addl	$1, %eax
	movl	%eax, -8(%rbp)
	jmp	.LBB19_129
.LBB19_136:                             # %for.end413
	jmp	.LBB19_156
.LBB19_137:                             # %if.else414
	cmpl	$0, -60(%rbp)
	je	.LBB19_155
# %bb.138:                              # %if.then416
	movl	-20(%rbp), %eax
	shll	$2, %eax
	movl	%eax, -12(%rbp)
.LBB19_139:                             # %for.cond418
                                        # =>This Loop Header: Depth=1
                                        #     Child Loop BB19_141 Depth 2
                                        #       Child Loop BB19_143 Depth 3
                                        #         Child Loop BB19_145 Depth 4
	movl	-12(%rbp), %eax
	movl	-20(%rbp), %ecx
	shll	$2, %ecx
	addl	$4, %ecx
	cmpl	%ecx, %eax
	jge	.LBB19_154
# %bb.140:                              # %for.body423
                                        #   in Loop: Header=BB19_139 Depth=1
	movl	-24(%rbp), %eax
	shll	$2, %eax
	movl	%eax, -16(%rbp)
.LBB19_141:                             # %for.cond425
                                        #   Parent Loop BB19_139 Depth=1
                                        # =>  This Loop Header: Depth=2
                                        #       Child Loop BB19_143 Depth 3
                                        #         Child Loop BB19_145 Depth 4
	movl	-16(%rbp), %eax
	movl	-24(%rbp), %ecx
	shll	$2, %ecx
	addl	$4, %ecx
	cmpl	%ecx, %eax
	jge	.LBB19_152
# %bb.142:                              # %for.body430
                                        #   in Loop: Header=BB19_141 Depth=2
	leaq	-224(%rbp), %r8
	movq	-56(%rbp), %rcx
	movslq	-36(%rbp), %rdx
	movq	(%rcx,%rdx,8), %rdi
	movl	-12(%rbp), %esi
	movl	-16(%rbp), %edx
	movl	-12(%rbp), %ecx
	movl	-20(%rbp), %eax
	shll	$2, %eax
	subl	%eax, %ecx
	movslq	%ecx, %rax
	shlq	$4, %rax
	movq	%r8, %r9
	addq	%rax, %r9
	movl	-16(%rbp), %eax
	movl	-24(%rbp), %ecx
	shll	$2, %ecx
	subl	%ecx, %eax
	cltq
	movl	(%r9,%rax,4), %ecx
	addq	$64, %r8
	movl	-12(%rbp), %r9d
	movl	-20(%rbp), %eax
	shll	$2, %eax
	subl	%eax, %r9d
	movslq	%r9d, %rax
	shlq	$4, %rax
	addq	%rax, %r8
	movl	-16(%rbp), %r9d
	movl	-24(%rbp), %eax
	shll	$2, %eax
	subl	%eax, %r9d
	movslq	%r9d, %rax
	movl	(%r8,%rax,4), %r8d
	movq	decs, %rax
	movq	32(%rax), %r9
	callq	Get_Reference_Block
	movl	$0, -8(%rbp)
.LBB19_143:                             # %for.cond452
                                        #   Parent Loop BB19_139 Depth=1
                                        #     Parent Loop BB19_141 Depth=2
                                        # =>    This Loop Header: Depth=3
                                        #         Child Loop BB19_145 Depth 4
	cmpl	$4, -8(%rbp)
	jge	.LBB19_150
# %bb.144:                              # %for.body455
                                        #   in Loop: Header=BB19_143 Depth=3
	movl	$0, -4(%rbp)
.LBB19_145:                             # %for.cond456
                                        #   Parent Loop BB19_139 Depth=1
                                        #     Parent Loop BB19_141 Depth=2
                                        #       Parent Loop BB19_143 Depth=3
                                        # =>      This Inner Loop Header: Depth=4
	cmpl	$4, -4(%rbp)
	jge	.LBB19_148
# %bb.146:                              # %for.body459
                                        #   in Loop: Header=BB19_145 Depth=4
	movq	decs, %rax
	movq	32(%rax), %rax
	movslq	-8(%rbp), %rcx
	movq	(%rax,%rcx,8), %rax
	movslq	-4(%rbp), %rcx
	movw	(%rax,%rcx,2), %ax
	movq	-48(%rbp), %rcx
	movl	-12(%rbp), %edx
	shll	$2, %edx
	addl	-8(%rbp), %edx
	movslq	%edx, %rdx
	movq	(%rcx,%rdx,8), %rcx
	movl	-16(%rbp), %edx
	shll	$2, %edx
	addl	-4(%rbp), %edx
	movslq	%edx, %rdx
	movw	%ax, (%rcx,%rdx,2)
# %bb.147:                              # %for.inc473
                                        #   in Loop: Header=BB19_145 Depth=4
	movl	-4(%rbp), %eax
	addl	$1, %eax
	movl	%eax, -4(%rbp)
	jmp	.LBB19_145
.LBB19_148:                             # %for.end475
                                        #   in Loop: Header=BB19_143 Depth=3
	jmp	.LBB19_149
.LBB19_149:                             # %for.inc476
                                        #   in Loop: Header=BB19_143 Depth=3
	movl	-8(%rbp), %eax
	addl	$1, %eax
	movl	%eax, -8(%rbp)
	jmp	.LBB19_143
.LBB19_150:                             # %for.end478
                                        #   in Loop: Header=BB19_141 Depth=2
	jmp	.LBB19_151
.LBB19_151:                             # %for.inc479
                                        #   in Loop: Header=BB19_141 Depth=2
	movl	-16(%rbp), %eax
	addl	$1, %eax
	movl	%eax, -16(%rbp)
	jmp	.LBB19_141
.LBB19_152:                             # %for.end481
                                        #   in Loop: Header=BB19_139 Depth=1
	jmp	.LBB19_153
.LBB19_153:                             # %for.inc482
                                        #   in Loop: Header=BB19_139 Depth=1
	movl	-12(%rbp), %eax
	addl	$1, %eax
	movl	%eax, -12(%rbp)
	jmp	.LBB19_139
.LBB19_154:                             # %for.end484
	jmp	.LBB19_155
.LBB19_155:                             # %if.end485
	jmp	.LBB19_156
.LBB19_156:                             # %if.end486
	jmp	.LBB19_157
.LBB19_157:                             # %if.end487
	jmp	.LBB19_180
.LBB19_158:                             # %sw.bb488
	movq	img, %rax
	cmpl	$2, 24(%rax)
	je	.LBB19_170
# %bb.159:                              # %if.then492
	cmpl	$0, -60(%rbp)
	jne	.LBB19_169
# %bb.160:                              # %if.then494
	movl	$0, -8(%rbp)
.LBB19_161:                             # %for.cond495
                                        # =>This Loop Header: Depth=1
                                        #     Child Loop BB19_163 Depth 2
	cmpl	$16, -8(%rbp)
	jge	.LBB19_168
# %bb.162:                              # %for.body498
                                        #   in Loop: Header=BB19_161 Depth=1
	movl	$0, -4(%rbp)
.LBB19_163:                             # %for.cond499
                                        #   Parent Loop BB19_161 Depth=1
                                        # =>  This Inner Loop Header: Depth=2
	cmpl	$16, -4(%rbp)
	jge	.LBB19_166
# %bb.164:                              # %for.body502
                                        #   in Loop: Header=BB19_163 Depth=2
	movq	-56(%rbp), %rax
	movslq	-36(%rbp), %rcx
	movq	(%rax,%rcx,8), %rax
	movl	-32(%rbp), %ecx
	addl	-8(%rbp), %ecx
	movslq	%ecx, %rcx
	movq	(%rax,%rcx,8), %rax
	movl	-28(%rbp), %ecx
	addl	-4(%rbp), %ecx
	movslq	%ecx, %rcx
	movw	(%rax,%rcx,2), %ax
	movq	-48(%rbp), %rcx
	movl	-32(%rbp), %edx
	addl	-8(%rbp), %edx
	movslq	%edx, %rdx
	movq	(%rcx,%rdx,8), %rcx
	movl	-28(%rbp), %edx
	addl	-4(%rbp), %edx
	movslq	%edx, %rdx
	movw	%ax, (%rcx,%rdx,2)
# %bb.165:                              # %for.inc517
                                        #   in Loop: Header=BB19_163 Depth=2
	movl	-4(%rbp), %eax
	addl	$1, %eax
	movl	%eax, -4(%rbp)
	jmp	.LBB19_163
.LBB19_166:                             # %for.end519
                                        #   in Loop: Header=BB19_161 Depth=1
	jmp	.LBB19_167
.LBB19_167:                             # %for.inc520
                                        #   in Loop: Header=BB19_161 Depth=1
	movl	-8(%rbp), %eax
	addl	$1, %eax
	movl	%eax, -8(%rbp)
	jmp	.LBB19_161
.LBB19_168:                             # %for.end522
	jmp	.LBB19_169
.LBB19_169:                             # %if.end523
	jmp	.LBB19_179
.LBB19_170:                             # %if.else524
	movl	$0, -8(%rbp)
.LBB19_171:                             # %for.cond525
                                        # =>This Loop Header: Depth=1
                                        #     Child Loop BB19_173 Depth 2
	cmpl	$16, -8(%rbp)
	jge	.LBB19_178
# %bb.172:                              # %for.body528
                                        #   in Loop: Header=BB19_171 Depth=1
	movl	$0, -4(%rbp)
.LBB19_173:                             # %for.cond529
                                        #   Parent Loop BB19_171 Depth=1
                                        # =>  This Inner Loop Header: Depth=2
	cmpl	$16, -4(%rbp)
	jge	.LBB19_176
# %bb.174:                              # %for.body532
                                        #   in Loop: Header=BB19_173 Depth=2
	movq	-48(%rbp), %rax
	movl	-32(%rbp), %ecx
	addl	-8(%rbp), %ecx
	movslq	%ecx, %rcx
	movq	(%rax,%rcx,8), %rax
	movl	-28(%rbp), %ecx
	addl	-4(%rbp), %ecx
	movslq	%ecx, %rcx
	movw	$127, (%rax,%rcx,2)
# %bb.175:                              # %for.inc539
                                        #   in Loop: Header=BB19_173 Depth=2
	movl	-4(%rbp), %eax
	addl	$1, %eax
	movl	%eax, -4(%rbp)
	jmp	.LBB19_173
.LBB19_176:                             # %for.end541
                                        #   in Loop: Header=BB19_171 Depth=1
	jmp	.LBB19_177
.LBB19_177:                             # %for.inc542
                                        #   in Loop: Header=BB19_171 Depth=1
	movl	-8(%rbp), %eax
	addl	$1, %eax
	movl	%eax, -8(%rbp)
	jmp	.LBB19_171
.LBB19_178:                             # %for.end544
	jmp	.LBB19_179
.LBB19_179:                             # %if.end545
	jmp	.LBB19_180
.LBB19_180:                             # %sw.epilog
	cmpl	$1866755576, -68(%rbp)  # imm = 0x6F446DF8
	jne	.LBB19_182
.LBB19_181:
	addq	$1248, %rsp             # imm = 0x4E0
	popq	%rbp
	.cfi_def_cfa %rsp, 8
	retq
.LBB19_182:                             # %func_exit
	.cfi_def_cfa %rbp, 16
	callq	detect_breach
	jmp	.LBB19_181
.Lfunc_end19:
	.size	Conceal_Error.9, .Lfunc_end19-Conceal_Error.9
	.cfi_endproc
	.section	.rodata,"a",@progbits
	.p2align	3
.LJTI19_0:
	.quad	.LBB19_16
	.quad	.LBB19_158
	.quad	.LBB19_106
	.quad	.LBB19_180
	.quad	.LBB19_36
                                        # -- End function
	.text
	.globl	Error_Concealment.10    # -- Begin function Error_Concealment.10
	.p2align	4, 0x90
	.type	Error_Concealment.10,@function
Error_Concealment.10:                   # @Error_Concealment.10
	.cfi_startproc
# %bb.0:                                # %entry
	pushq	%rbp
	.cfi_def_cfa_offset 16
	.cfi_offset %rbp, -16
	movq	%rsp, %rbp
	.cfi_def_cfa_register %rbp
	subq	$48, %rsp
	movl	$770585088, -20(%rbp)   # imm = 0x2DEE3200
	movq	%rdi, -40(%rbp)
	movq	%rsi, -32(%rbp)
	movq	%rdx, -48(%rbp)
	movq	img, %rax
	movl	60(%rax), %eax
	cltd
	movl	$16, %ecx
	idivl	%ecx
	movl	%eax, -16(%rbp)
	movq	img, %rax
	movl	52(%rax), %eax
	cltd
	idivl	%ecx
	movl	%eax, -12(%rbp)
	movl	$0, -4(%rbp)
.LBB20_1:                               # %for.cond
                                        # =>This Loop Header: Depth=1
                                        #     Child Loop BB20_3 Depth 2
	movl	-4(%rbp), %eax
	cmpl	-16(%rbp), %eax
	jge	.LBB20_10
# %bb.2:                                # %for.body
                                        #   in Loop: Header=BB20_1 Depth=1
	movl	$0, -8(%rbp)
.LBB20_3:                               # %for.cond2
                                        #   Parent Loop BB20_1 Depth=1
                                        # =>  This Inner Loop Header: Depth=2
	movl	-8(%rbp), %eax
	cmpl	-12(%rbp), %eax
	jge	.LBB20_8
# %bb.4:                                # %for.body4
                                        #   in Loop: Header=BB20_3 Depth=2
	movq	-32(%rbp), %rax
	movslq	-4(%rbp), %rcx
	movq	(%rax,%rcx,8), %rax
	movslq	-8(%rbp), %rcx
	cmpb	$0, (%rax,%rcx)
	je	.LBB20_6
# %bb.5:                                # %if.then
                                        #   in Loop: Header=BB20_3 Depth=2
	movq	-40(%rbp), %rdi
	movl	-4(%rbp), %esi
	movl	-8(%rbp), %edx
	movq	-48(%rbp), %rcx
	movq	-32(%rbp), %r8
	callq	Conceal_Error
.LBB20_6:                               # %if.end
                                        #   in Loop: Header=BB20_3 Depth=2
	jmp	.LBB20_7
.LBB20_7:                               # %for.inc
                                        #   in Loop: Header=BB20_3 Depth=2
	movl	-8(%rbp), %eax
	addl	$1, %eax
	movl	%eax, -8(%rbp)
	jmp	.LBB20_3
.LBB20_8:                               # %for.end
                                        #   in Loop: Header=BB20_1 Depth=1
	jmp	.LBB20_9
.LBB20_9:                               # %for.inc7
                                        #   in Loop: Header=BB20_1 Depth=1
	movl	-4(%rbp), %eax
	addl	$1, %eax
	movl	%eax, -4(%rbp)
	jmp	.LBB20_1
.LBB20_10:                              # %for.end9
	cmpl	$770585088, -20(%rbp)   # imm = 0x2DEE3200
	jne	.LBB20_12
.LBB20_11:
	addq	$48, %rsp
	popq	%rbp
	.cfi_def_cfa %rsp, 8
	retq
.LBB20_12:                              # %func_exit
	.cfi_def_cfa %rbp, 16
	callq	detect_breach
	jmp	.LBB20_11
.Lfunc_end20:
	.size	Error_Concealment.10, .Lfunc_end20-Error_Concealment.10
	.cfi_endproc
                                        # -- End function
	.globl	Get_Reference_Pixel.11  # -- Begin function Get_Reference_Pixel.11
	.p2align	4, 0x90
	.type	Get_Reference_Pixel.11,@function
Get_Reference_Pixel.11:                 # @Get_Reference_Pixel.11
	.cfi_startproc
# %bb.0:                                # %entry
	pushq	%rbp
	.cfi_def_cfa_offset 16
	.cfi_offset %rbp, -16
	movq	%rsp, %rbp
	.cfi_def_cfa_register %rbp
	pushq	%rbx
	subq	$104, %rsp
	.cfi_offset %rbx, -24
	movl	$17293439, -100(%rbp)   # imm = 0x107E07F
	movq	%rdi, -64(%rbp)
	movl	%esi, -28(%rbp)
	movl	%edx, -24(%rbp)
	movl	$0, -12(%rbp)
	movl	-24(%rbp), %eax
	andl	$3, %eax
	movl	%eax, -52(%rbp)
	movl	-28(%rbp), %eax
	andl	$3, %eax
	movl	%eax, -48(%rbp)
	movl	-24(%rbp), %eax
	subl	-52(%rbp), %eax
	cltd
	movl	$4, %ecx
	idivl	%ecx
	movl	%eax, -24(%rbp)
	movl	-28(%rbp), %eax
	subl	-48(%rbp), %eax
	cltd
	idivl	%ecx
	movl	%eax, -28(%rbp)
	movq	img, %rax
	movl	52(%rax), %eax
	subl	$1, %eax
	movl	%eax, -32(%rbp)
	movq	img, %rax
	movl	60(%rax), %eax
	subl	$1, %eax
	movl	%eax, -36(%rbp)
	cmpl	$0, -52(%rbp)
	jne	.LBB21_21
# %bb.1:                                # %land.lhs.true
	cmpl	$0, -48(%rbp)
	jne	.LBB21_21
# %bb.2:                                # %if.then
	movq	-64(%rbp), %rax
	movl	-36(%rbp), %ecx
	cmpl	-28(%rbp), %ecx
	jge	.LBB21_4
# %bb.3:                                # %cond.true
	movl	-36(%rbp), %ecx
	jmp	.LBB21_5
.LBB21_4:                               # %cond.false
	movl	-28(%rbp), %ecx
.LBB21_5:                               # %cond.end
	xorl	%edx, %edx
	cmpl	%ecx, %edx
	jle	.LBB21_7
# %bb.6:                                # %cond.true9
	xorl	%ecx, %ecx
	jmp	.LBB21_11
.LBB21_7:                               # %cond.false10
	movl	-36(%rbp), %ecx
	cmpl	-28(%rbp), %ecx
	jge	.LBB21_9
# %bb.8:                                # %cond.true12
	movl	-36(%rbp), %ecx
	jmp	.LBB21_10
.LBB21_9:                               # %cond.false13
	movl	-28(%rbp), %ecx
.LBB21_10:                              # %cond.end14
.LBB21_11:                              # %cond.end16
	movslq	%ecx, %rcx
	movq	(%rax,%rcx,8), %rax
	movl	-32(%rbp), %ecx
	cmpl	-24(%rbp), %ecx
	jge	.LBB21_13
# %bb.12:                               # %cond.true19
	movl	-32(%rbp), %ecx
	jmp	.LBB21_14
.LBB21_13:                              # %cond.false20
	movl	-24(%rbp), %ecx
.LBB21_14:                              # %cond.end21
	xorl	%edx, %edx
	cmpl	%ecx, %edx
	jle	.LBB21_16
# %bb.15:                               # %cond.true24
	xorl	%ecx, %ecx
	jmp	.LBB21_20
.LBB21_16:                              # %cond.false25
	movl	-32(%rbp), %ecx
	cmpl	-24(%rbp), %ecx
	jge	.LBB21_18
# %bb.17:                               # %cond.true27
	movl	-32(%rbp), %ecx
	jmp	.LBB21_19
.LBB21_18:                              # %cond.false28
	movl	-24(%rbp), %ecx
.LBB21_19:                              # %cond.end29
.LBB21_20:                              # %cond.end31
	movslq	%ecx, %rcx
	movzwl	(%rax,%rcx,2), %eax
	movl	%eax, -12(%rbp)
	jmp	.LBB21_332
.LBB21_21:                              # %if.else
	cmpl	$0, -48(%rbp)
	jne	.LBB21_77
# %bb.22:                               # %if.then37
	movl	-36(%rbp), %eax
	cmpl	-28(%rbp), %eax
	jge	.LBB21_24
# %bb.23:                               # %cond.true40
	movl	-36(%rbp), %eax
	jmp	.LBB21_25
.LBB21_24:                              # %cond.false41
	movl	-28(%rbp), %eax
.LBB21_25:                              # %cond.end42
	xorl	%ecx, %ecx
	cmpl	%eax, %ecx
	jle	.LBB21_27
# %bb.26:                               # %cond.true46
	xorl	%eax, %eax
	jmp	.LBB21_31
.LBB21_27:                              # %cond.false47
	movl	-36(%rbp), %eax
	cmpl	-28(%rbp), %eax
	jge	.LBB21_29
# %bb.28:                               # %cond.true50
	movl	-36(%rbp), %eax
	jmp	.LBB21_30
.LBB21_29:                              # %cond.false51
	movl	-28(%rbp), %eax
.LBB21_30:                              # %cond.end52
.LBB21_31:                              # %cond.end54
	movl	%eax, -40(%rbp)
	movl	$-2, -20(%rbp)
.LBB21_32:                              # %for.cond
                                        # =>This Inner Loop Header: Depth=1
	cmpl	$4, -20(%rbp)
	jge	.LBB21_44
# %bb.33:                               # %for.body
                                        #   in Loop: Header=BB21_32 Depth=1
	movl	-32(%rbp), %eax
	movl	-24(%rbp), %ecx
	addl	-20(%rbp), %ecx
	cmpl	%ecx, %eax
	jge	.LBB21_35
# %bb.34:                               # %cond.true60
                                        #   in Loop: Header=BB21_32 Depth=1
	movl	-32(%rbp), %eax
	jmp	.LBB21_36
.LBB21_35:                              # %cond.false61
                                        #   in Loop: Header=BB21_32 Depth=1
	movl	-24(%rbp), %eax
	addl	-20(%rbp), %eax
.LBB21_36:                              # %cond.end63
                                        #   in Loop: Header=BB21_32 Depth=1
	xorl	%ecx, %ecx
	cmpl	%eax, %ecx
	jle	.LBB21_38
# %bb.37:                               # %cond.true67
                                        #   in Loop: Header=BB21_32 Depth=1
	xorl	%eax, %eax
	jmp	.LBB21_42
.LBB21_38:                              # %cond.false68
                                        #   in Loop: Header=BB21_32 Depth=1
	movl	-32(%rbp), %eax
	movl	-24(%rbp), %ecx
	addl	-20(%rbp), %ecx
	cmpl	%ecx, %eax
	jge	.LBB21_40
# %bb.39:                               # %cond.true72
                                        #   in Loop: Header=BB21_32 Depth=1
	movl	-32(%rbp), %eax
	jmp	.LBB21_41
.LBB21_40:                              # %cond.false73
                                        #   in Loop: Header=BB21_32 Depth=1
	movl	-24(%rbp), %eax
	addl	-20(%rbp), %eax
.LBB21_41:                              # %cond.end75
                                        #   in Loop: Header=BB21_32 Depth=1
.LBB21_42:                              # %cond.end77
                                        #   in Loop: Header=BB21_32 Depth=1
	movl	%eax, -44(%rbp)
	movq	-64(%rbp), %rax
	movslq	-40(%rbp), %rcx
	movq	(%rax,%rcx,8), %rax
	movslq	-44(%rbp), %rcx
	movzwl	(%rax,%rcx,2), %eax
	movl	-20(%rbp), %ecx
	addl	$2, %ecx
	movslq	%ecx, %rcx
	imull	Get_Reference_Pixel.COEF(,%rcx,4), %eax
	addl	-12(%rbp), %eax
	movl	%eax, -12(%rbp)
# %bb.43:                               # %for.inc
                                        #   in Loop: Header=BB21_32 Depth=1
	movl	-20(%rbp), %eax
	addl	$1, %eax
	movl	%eax, -20(%rbp)
	jmp	.LBB21_32
.LBB21_44:                              # %for.end
	movq	img, %rax
	movl	72684(%rax), %ecx
	movl	-12(%rbp), %eax
	addl	$16, %eax
	cltd
	movl	$32, %esi
	idivl	%esi
	cmpl	%eax, %ecx
	jge	.LBB21_46
# %bb.45:                               # %cond.true92
	movq	img, %rax
	movl	72684(%rax), %eax
	jmp	.LBB21_47
.LBB21_46:                              # %cond.false94
	movl	-12(%rbp), %eax
	addl	$16, %eax
	cltd
	movl	$32, %ecx
	idivl	%ecx
.LBB21_47:                              # %cond.end97
	xorl	%ecx, %ecx
	cmpl	%eax, %ecx
	jle	.LBB21_49
# %bb.48:                               # %cond.true101
	xorl	%eax, %eax
	jmp	.LBB21_53
.LBB21_49:                              # %cond.false102
	movq	img, %rax
	movl	72684(%rax), %ecx
	movl	-12(%rbp), %eax
	addl	$16, %eax
	cltd
	movl	$32, %esi
	idivl	%esi
	cmpl	%eax, %ecx
	jge	.LBB21_51
# %bb.50:                               # %cond.true108
	movq	img, %rax
	movl	72684(%rax), %eax
	jmp	.LBB21_52
.LBB21_51:                              # %cond.false110
	movl	-12(%rbp), %eax
	addl	$16, %eax
	cltd
	movl	$32, %ecx
	idivl	%ecx
.LBB21_52:                              # %cond.end113
.LBB21_53:                              # %cond.end115
	movl	%eax, -12(%rbp)
	cmpl	$1, -52(%rbp)
	jne	.LBB21_64
# %bb.54:                               # %if.then119
	movl	-12(%rbp), %eax
	movq	-64(%rbp), %rcx
	movslq	-40(%rbp), %rdx
	movq	(%rcx,%rdx,8), %rcx
	movl	-32(%rbp), %edx
	cmpl	-24(%rbp), %edx
	jge	.LBB21_56
# %bb.55:                               # %cond.true124
	movl	-32(%rbp), %edx
	jmp	.LBB21_57
.LBB21_56:                              # %cond.false125
	movl	-24(%rbp), %edx
.LBB21_57:                              # %cond.end126
	xorl	%esi, %esi
	cmpl	%edx, %esi
	jle	.LBB21_59
# %bb.58:                               # %cond.true130
	xorl	%edx, %edx
	jmp	.LBB21_63
.LBB21_59:                              # %cond.false131
	movl	-32(%rbp), %edx
	cmpl	-24(%rbp), %edx
	jge	.LBB21_61
# %bb.60:                               # %cond.true134
	movl	-32(%rbp), %edx
	jmp	.LBB21_62
.LBB21_61:                              # %cond.false135
	movl	-24(%rbp), %edx
.LBB21_62:                              # %cond.end136
.LBB21_63:                              # %cond.end138
	movslq	%edx, %rdx
	movzwl	(%rcx,%rdx,2), %ecx
	addl	%ecx, %eax
	cltd
	movl	$2, %ecx
	idivl	%ecx
	movl	%eax, -12(%rbp)
	jmp	.LBB21_76
.LBB21_64:                              # %if.else145
	cmpl	$3, -52(%rbp)
	jne	.LBB21_75
# %bb.65:                               # %if.then148
	movl	-12(%rbp), %eax
	movq	-64(%rbp), %rcx
	movslq	-40(%rbp), %rdx
	movq	(%rcx,%rdx,8), %rcx
	movl	-32(%rbp), %edx
	movl	-24(%rbp), %esi
	addl	$1, %esi
	cmpl	%esi, %edx
	jge	.LBB21_67
# %bb.66:                               # %cond.true154
	movl	-32(%rbp), %edx
	jmp	.LBB21_68
.LBB21_67:                              # %cond.false155
	movl	-24(%rbp), %edx
	addl	$1, %edx
.LBB21_68:                              # %cond.end157
	xorl	%esi, %esi
	cmpl	%edx, %esi
	jle	.LBB21_70
# %bb.69:                               # %cond.true161
	xorl	%edx, %edx
	jmp	.LBB21_74
.LBB21_70:                              # %cond.false162
	movl	-32(%rbp), %edx
	movl	-24(%rbp), %esi
	addl	$1, %esi
	cmpl	%esi, %edx
	jge	.LBB21_72
# %bb.71:                               # %cond.true166
	movl	-32(%rbp), %edx
	jmp	.LBB21_73
.LBB21_72:                              # %cond.false167
	movl	-24(%rbp), %edx
	addl	$1, %edx
.LBB21_73:                              # %cond.end169
.LBB21_74:                              # %cond.end171
	movslq	%edx, %rdx
	movzwl	(%rcx,%rdx,2), %ecx
	addl	%ecx, %eax
	cltd
	movl	$2, %ecx
	idivl	%ecx
	movl	%eax, -12(%rbp)
.LBB21_75:                              # %if.end
	jmp	.LBB21_76
.LBB21_76:                              # %if.end178
	jmp	.LBB21_331
.LBB21_77:                              # %if.else179
	cmpl	$0, -52(%rbp)
	jne	.LBB21_133
# %bb.78:                               # %if.then182
	movl	-32(%rbp), %eax
	cmpl	-24(%rbp), %eax
	jge	.LBB21_80
# %bb.79:                               # %cond.true185
	movl	-32(%rbp), %eax
	jmp	.LBB21_81
.LBB21_80:                              # %cond.false186
	movl	-24(%rbp), %eax
.LBB21_81:                              # %cond.end187
	xorl	%ecx, %ecx
	cmpl	%eax, %ecx
	jle	.LBB21_83
# %bb.82:                               # %cond.true191
	xorl	%eax, %eax
	jmp	.LBB21_87
.LBB21_83:                              # %cond.false192
	movl	-32(%rbp), %eax
	cmpl	-24(%rbp), %eax
	jge	.LBB21_85
# %bb.84:                               # %cond.true195
	movl	-32(%rbp), %eax
	jmp	.LBB21_86
.LBB21_85:                              # %cond.false196
	movl	-24(%rbp), %eax
.LBB21_86:                              # %cond.end197
.LBB21_87:                              # %cond.end199
	movl	%eax, -44(%rbp)
	movl	$-2, -16(%rbp)
.LBB21_88:                              # %for.cond201
                                        # =>This Inner Loop Header: Depth=1
	cmpl	$4, -16(%rbp)
	jge	.LBB21_100
# %bb.89:                               # %for.body204
                                        #   in Loop: Header=BB21_88 Depth=1
	movl	-36(%rbp), %eax
	movl	-28(%rbp), %ecx
	addl	-16(%rbp), %ecx
	cmpl	%ecx, %eax
	jge	.LBB21_91
# %bb.90:                               # %cond.true208
                                        #   in Loop: Header=BB21_88 Depth=1
	movl	-36(%rbp), %eax
	jmp	.LBB21_92
.LBB21_91:                              # %cond.false209
                                        #   in Loop: Header=BB21_88 Depth=1
	movl	-28(%rbp), %eax
	addl	-16(%rbp), %eax
.LBB21_92:                              # %cond.end211
                                        #   in Loop: Header=BB21_88 Depth=1
	xorl	%ecx, %ecx
	cmpl	%eax, %ecx
	jle	.LBB21_94
# %bb.93:                               # %cond.true215
                                        #   in Loop: Header=BB21_88 Depth=1
	xorl	%eax, %eax
	jmp	.LBB21_98
.LBB21_94:                              # %cond.false216
                                        #   in Loop: Header=BB21_88 Depth=1
	movl	-36(%rbp), %eax
	movl	-28(%rbp), %ecx
	addl	-16(%rbp), %ecx
	cmpl	%ecx, %eax
	jge	.LBB21_96
# %bb.95:                               # %cond.true220
                                        #   in Loop: Header=BB21_88 Depth=1
	movl	-36(%rbp), %eax
	jmp	.LBB21_97
.LBB21_96:                              # %cond.false221
                                        #   in Loop: Header=BB21_88 Depth=1
	movl	-28(%rbp), %eax
	addl	-16(%rbp), %eax
.LBB21_97:                              # %cond.end223
                                        #   in Loop: Header=BB21_88 Depth=1
.LBB21_98:                              # %cond.end225
                                        #   in Loop: Header=BB21_88 Depth=1
	movl	%eax, -40(%rbp)
	movq	-64(%rbp), %rax
	movslq	-40(%rbp), %rcx
	movq	(%rax,%rcx,8), %rax
	movslq	-44(%rbp), %rcx
	movzwl	(%rax,%rcx,2), %eax
	movl	-16(%rbp), %ecx
	addl	$2, %ecx
	movslq	%ecx, %rcx
	imull	Get_Reference_Pixel.COEF(,%rcx,4), %eax
	addl	-12(%rbp), %eax
	movl	%eax, -12(%rbp)
# %bb.99:                               # %for.inc237
                                        #   in Loop: Header=BB21_88 Depth=1
	movl	-16(%rbp), %eax
	addl	$1, %eax
	movl	%eax, -16(%rbp)
	jmp	.LBB21_88
.LBB21_100:                             # %for.end239
	movq	img, %rax
	movl	72684(%rax), %ecx
	movl	-12(%rbp), %eax
	addl	$16, %eax
	cltd
	movl	$32, %esi
	idivl	%esi
	cmpl	%eax, %ecx
	jge	.LBB21_102
# %bb.101:                              # %cond.true245
	movq	img, %rax
	movl	72684(%rax), %eax
	jmp	.LBB21_103
.LBB21_102:                             # %cond.false247
	movl	-12(%rbp), %eax
	addl	$16, %eax
	cltd
	movl	$32, %ecx
	idivl	%ecx
.LBB21_103:                             # %cond.end250
	xorl	%ecx, %ecx
	cmpl	%eax, %ecx
	jle	.LBB21_105
# %bb.104:                              # %cond.true254
	xorl	%eax, %eax
	jmp	.LBB21_109
.LBB21_105:                             # %cond.false255
	movq	img, %rax
	movl	72684(%rax), %ecx
	movl	-12(%rbp), %eax
	addl	$16, %eax
	cltd
	movl	$32, %esi
	idivl	%esi
	cmpl	%eax, %ecx
	jge	.LBB21_107
# %bb.106:                              # %cond.true261
	movq	img, %rax
	movl	72684(%rax), %eax
	jmp	.LBB21_108
.LBB21_107:                             # %cond.false263
	movl	-12(%rbp), %eax
	addl	$16, %eax
	cltd
	movl	$32, %ecx
	idivl	%ecx
.LBB21_108:                             # %cond.end266
.LBB21_109:                             # %cond.end268
	movl	%eax, -12(%rbp)
	cmpl	$1, -48(%rbp)
	jne	.LBB21_120
# %bb.110:                              # %if.then272
	movl	-12(%rbp), %eax
	movq	-64(%rbp), %rcx
	movl	-36(%rbp), %edx
	cmpl	-28(%rbp), %edx
	jge	.LBB21_112
# %bb.111:                              # %cond.true275
	movl	-36(%rbp), %edx
	jmp	.LBB21_113
.LBB21_112:                             # %cond.false276
	movl	-28(%rbp), %edx
.LBB21_113:                             # %cond.end277
	xorl	%esi, %esi
	cmpl	%edx, %esi
	jle	.LBB21_115
# %bb.114:                              # %cond.true281
	xorl	%edx, %edx
	jmp	.LBB21_119
.LBB21_115:                             # %cond.false282
	movl	-36(%rbp), %edx
	cmpl	-28(%rbp), %edx
	jge	.LBB21_117
# %bb.116:                              # %cond.true285
	movl	-36(%rbp), %edx
	jmp	.LBB21_118
.LBB21_117:                             # %cond.false286
	movl	-28(%rbp), %edx
.LBB21_118:                             # %cond.end287
.LBB21_119:                             # %cond.end289
	movslq	%edx, %rdx
	movq	(%rcx,%rdx,8), %rcx
	movslq	-44(%rbp), %rdx
	movzwl	(%rcx,%rdx,2), %ecx
	addl	%ecx, %eax
	cltd
	movl	$2, %ecx
	idivl	%ecx
	movl	%eax, -12(%rbp)
	jmp	.LBB21_132
.LBB21_120:                             # %if.else298
	cmpl	$3, -48(%rbp)
	jne	.LBB21_131
# %bb.121:                              # %if.then301
	movl	-12(%rbp), %eax
	movq	-64(%rbp), %rcx
	movl	-36(%rbp), %edx
	movl	-28(%rbp), %esi
	addl	$1, %esi
	cmpl	%esi, %edx
	jge	.LBB21_123
# %bb.122:                              # %cond.true305
	movl	-36(%rbp), %edx
	jmp	.LBB21_124
.LBB21_123:                             # %cond.false306
	movl	-28(%rbp), %edx
	addl	$1, %edx
.LBB21_124:                             # %cond.end308
	xorl	%esi, %esi
	cmpl	%edx, %esi
	jle	.LBB21_126
# %bb.125:                              # %cond.true312
	xorl	%edx, %edx
	jmp	.LBB21_130
.LBB21_126:                             # %cond.false313
	movl	-36(%rbp), %edx
	movl	-28(%rbp), %esi
	addl	$1, %esi
	cmpl	%esi, %edx
	jge	.LBB21_128
# %bb.127:                              # %cond.true317
	movl	-36(%rbp), %edx
	jmp	.LBB21_129
.LBB21_128:                             # %cond.false318
	movl	-28(%rbp), %edx
	addl	$1, %edx
.LBB21_129:                             # %cond.end320
.LBB21_130:                             # %cond.end322
	movslq	%edx, %rdx
	movq	(%rcx,%rdx,8), %rcx
	movslq	-44(%rbp), %rdx
	movzwl	(%rcx,%rdx,2), %ecx
	addl	%ecx, %eax
	cltd
	movl	$2, %ecx
	idivl	%ecx
	movl	%eax, -12(%rbp)
.LBB21_131:                             # %if.end331
	jmp	.LBB21_132
.LBB21_132:                             # %if.end332
	jmp	.LBB21_330
.LBB21_133:                             # %if.else333
	cmpl	$2, -52(%rbp)
	jne	.LBB21_197
# %bb.134:                              # %if.then336
	movl	$-2, -16(%rbp)
.LBB21_135:                             # %for.cond337
                                        # =>This Loop Header: Depth=1
                                        #     Child Loop BB21_146 Depth 2
	cmpl	$4, -16(%rbp)
	jge	.LBB21_160
# %bb.136:                              # %for.body340
                                        #   in Loop: Header=BB21_135 Depth=1
	movl	$0, -12(%rbp)
	movl	-36(%rbp), %eax
	movl	-28(%rbp), %ecx
	addl	-16(%rbp), %ecx
	cmpl	%ecx, %eax
	jge	.LBB21_138
# %bb.137:                              # %cond.true344
                                        #   in Loop: Header=BB21_135 Depth=1
	movl	-36(%rbp), %eax
	jmp	.LBB21_139
.LBB21_138:                             # %cond.false345
                                        #   in Loop: Header=BB21_135 Depth=1
	movl	-28(%rbp), %eax
	addl	-16(%rbp), %eax
.LBB21_139:                             # %cond.end347
                                        #   in Loop: Header=BB21_135 Depth=1
	xorl	%ecx, %ecx
	cmpl	%eax, %ecx
	jle	.LBB21_141
# %bb.140:                              # %cond.true351
                                        #   in Loop: Header=BB21_135 Depth=1
	xorl	%eax, %eax
	jmp	.LBB21_145
.LBB21_141:                             # %cond.false352
                                        #   in Loop: Header=BB21_135 Depth=1
	movl	-36(%rbp), %eax
	movl	-28(%rbp), %ecx
	addl	-16(%rbp), %ecx
	cmpl	%ecx, %eax
	jge	.LBB21_143
# %bb.142:                              # %cond.true356
                                        #   in Loop: Header=BB21_135 Depth=1
	movl	-36(%rbp), %eax
	jmp	.LBB21_144
.LBB21_143:                             # %cond.false357
                                        #   in Loop: Header=BB21_135 Depth=1
	movl	-28(%rbp), %eax
	addl	-16(%rbp), %eax
.LBB21_144:                             # %cond.end359
                                        #   in Loop: Header=BB21_135 Depth=1
.LBB21_145:                             # %cond.end361
                                        #   in Loop: Header=BB21_135 Depth=1
	movl	%eax, -40(%rbp)
	movl	$-2, -20(%rbp)
.LBB21_146:                             # %for.cond363
                                        #   Parent Loop BB21_135 Depth=1
                                        # =>  This Inner Loop Header: Depth=2
	cmpl	$4, -20(%rbp)
	jge	.LBB21_158
# %bb.147:                              # %for.body366
                                        #   in Loop: Header=BB21_146 Depth=2
	movl	-32(%rbp), %eax
	movl	-24(%rbp), %ecx
	addl	-20(%rbp), %ecx
	cmpl	%ecx, %eax
	jge	.LBB21_149
# %bb.148:                              # %cond.true370
                                        #   in Loop: Header=BB21_146 Depth=2
	movl	-32(%rbp), %eax
	jmp	.LBB21_150
.LBB21_149:                             # %cond.false371
                                        #   in Loop: Header=BB21_146 Depth=2
	movl	-24(%rbp), %eax
	addl	-20(%rbp), %eax
.LBB21_150:                             # %cond.end373
                                        #   in Loop: Header=BB21_146 Depth=2
	xorl	%ecx, %ecx
	cmpl	%eax, %ecx
	jle	.LBB21_152
# %bb.151:                              # %cond.true377
                                        #   in Loop: Header=BB21_146 Depth=2
	xorl	%eax, %eax
	jmp	.LBB21_156
.LBB21_152:                             # %cond.false378
                                        #   in Loop: Header=BB21_146 Depth=2
	movl	-32(%rbp), %eax
	movl	-24(%rbp), %ecx
	addl	-20(%rbp), %ecx
	cmpl	%ecx, %eax
	jge	.LBB21_154
# %bb.153:                              # %cond.true382
                                        #   in Loop: Header=BB21_146 Depth=2
	movl	-32(%rbp), %eax
	jmp	.LBB21_155
.LBB21_154:                             # %cond.false383
                                        #   in Loop: Header=BB21_146 Depth=2
	movl	-24(%rbp), %eax
	addl	-20(%rbp), %eax
.LBB21_155:                             # %cond.end385
                                        #   in Loop: Header=BB21_146 Depth=2
.LBB21_156:                             # %cond.end387
                                        #   in Loop: Header=BB21_146 Depth=2
	movl	%eax, -44(%rbp)
	movq	-64(%rbp), %rax
	movslq	-40(%rbp), %rcx
	movq	(%rax,%rcx,8), %rax
	movslq	-44(%rbp), %rcx
	movzwl	(%rax,%rcx,2), %eax
	movl	-20(%rbp), %ecx
	addl	$2, %ecx
	movslq	%ecx, %rcx
	imull	Get_Reference_Pixel.COEF(,%rcx,4), %eax
	addl	-12(%rbp), %eax
	movl	%eax, -12(%rbp)
# %bb.157:                              # %for.inc399
                                        #   in Loop: Header=BB21_146 Depth=2
	movl	-20(%rbp), %eax
	addl	$1, %eax
	movl	%eax, -20(%rbp)
	jmp	.LBB21_146
.LBB21_158:                             # %for.end401
                                        #   in Loop: Header=BB21_135 Depth=1
	movl	-12(%rbp), %eax
	movl	-16(%rbp), %ecx
	addl	$2, %ecx
	movslq	%ecx, %rcx
	movl	%eax, -96(%rbp,%rcx,4)
# %bb.159:                              # %for.inc405
                                        #   in Loop: Header=BB21_135 Depth=1
	movl	-16(%rbp), %eax
	addl	$1, %eax
	movl	%eax, -16(%rbp)
	jmp	.LBB21_135
.LBB21_160:                             # %for.end407
	movl	$0, -12(%rbp)
	movl	$-2, -16(%rbp)
.LBB21_161:                             # %for.cond408
                                        # =>This Inner Loop Header: Depth=1
	cmpl	$4, -16(%rbp)
	jge	.LBB21_164
# %bb.162:                              # %for.body411
                                        #   in Loop: Header=BB21_161 Depth=1
	movl	-16(%rbp), %eax
	addl	$2, %eax
	cltq
	movl	-96(%rbp,%rax,4), %eax
	movl	-16(%rbp), %ecx
	addl	$2, %ecx
	movslq	%ecx, %rcx
	imull	Get_Reference_Pixel.COEF(,%rcx,4), %eax
	addl	-12(%rbp), %eax
	movl	%eax, -12(%rbp)
# %bb.163:                              # %for.inc420
                                        #   in Loop: Header=BB21_161 Depth=1
	movl	-16(%rbp), %eax
	addl	$1, %eax
	movl	%eax, -16(%rbp)
	jmp	.LBB21_161
.LBB21_164:                             # %for.end422
	movq	img, %rax
	movl	72684(%rax), %ecx
	movl	-12(%rbp), %eax
	addl	$512, %eax              # imm = 0x200
	cltd
	movl	$1024, %esi             # imm = 0x400
	idivl	%esi
	cmpl	%eax, %ecx
	jge	.LBB21_166
# %bb.165:                              # %cond.true428
	movq	img, %rax
	movl	72684(%rax), %eax
	jmp	.LBB21_167
.LBB21_166:                             # %cond.false430
	movl	-12(%rbp), %eax
	addl	$512, %eax              # imm = 0x200
	cltd
	movl	$1024, %ecx             # imm = 0x400
	idivl	%ecx
.LBB21_167:                             # %cond.end433
	xorl	%ecx, %ecx
	cmpl	%eax, %ecx
	jle	.LBB21_169
# %bb.168:                              # %cond.true437
	xorl	%eax, %eax
	jmp	.LBB21_173
.LBB21_169:                             # %cond.false438
	movq	img, %rax
	movl	72684(%rax), %ecx
	movl	-12(%rbp), %eax
	addl	$512, %eax              # imm = 0x200
	cltd
	movl	$1024, %esi             # imm = 0x400
	idivl	%esi
	cmpl	%eax, %ecx
	jge	.LBB21_171
# %bb.170:                              # %cond.true444
	movq	img, %rax
	movl	72684(%rax), %eax
	jmp	.LBB21_172
.LBB21_171:                             # %cond.false446
	movl	-12(%rbp), %eax
	addl	$512, %eax              # imm = 0x200
	cltd
	movl	$1024, %ecx             # imm = 0x400
	idivl	%ecx
.LBB21_172:                             # %cond.end449
.LBB21_173:                             # %cond.end451
	movl	%eax, -12(%rbp)
	cmpl	$1, -48(%rbp)
	jne	.LBB21_184
# %bb.174:                              # %if.then455
	movl	-12(%rbp), %ecx
	movq	img, %rax
	movl	72684(%rax), %esi
	movl	-88(%rbp), %eax
	addl	$16, %eax
	cltd
	movl	$32, %edi
	idivl	%edi
	cmpl	%eax, %esi
	jge	.LBB21_176
# %bb.175:                              # %cond.true462
	movq	img, %rax
	movl	72684(%rax), %eax
	jmp	.LBB21_177
.LBB21_176:                             # %cond.false464
	movl	-88(%rbp), %eax
	addl	$16, %eax
	cltd
	movl	$32, %esi
	idivl	%esi
.LBB21_177:                             # %cond.end468
	xorl	%edx, %edx
	cmpl	%eax, %edx
	jle	.LBB21_179
# %bb.178:                              # %cond.true472
	xorl	%eax, %eax
	jmp	.LBB21_183
.LBB21_179:                             # %cond.false473
	movq	img, %rax
	movl	72684(%rax), %esi
	movl	-88(%rbp), %eax
	addl	$16, %eax
	cltd
	movl	$32, %edi
	idivl	%edi
	cmpl	%eax, %esi
	jge	.LBB21_181
# %bb.180:                              # %cond.true480
	movq	img, %rax
	movl	72684(%rax), %eax
	jmp	.LBB21_182
.LBB21_181:                             # %cond.false482
	movl	-88(%rbp), %eax
	addl	$16, %eax
	cltd
	movl	$32, %esi
	idivl	%esi
.LBB21_182:                             # %cond.end486
.LBB21_183:                             # %cond.end488
	addl	%eax, %ecx
	movl	%ecx, %eax
	cltd
	movl	$2, %ecx
	idivl	%ecx
	movl	%eax, -12(%rbp)
	jmp	.LBB21_196
.LBB21_184:                             # %if.else492
	cmpl	$3, -48(%rbp)
	jne	.LBB21_195
# %bb.185:                              # %if.then495
	movl	-12(%rbp), %ecx
	movq	img, %rax
	movl	72684(%rax), %esi
	movl	-84(%rbp), %eax
	addl	$16, %eax
	cltd
	movl	$32, %edi
	idivl	%edi
	cmpl	%eax, %esi
	jge	.LBB21_187
# %bb.186:                              # %cond.true502
	movq	img, %rax
	movl	72684(%rax), %eax
	jmp	.LBB21_188
.LBB21_187:                             # %cond.false504
	movl	-84(%rbp), %eax
	addl	$16, %eax
	cltd
	movl	$32, %esi
	idivl	%esi
.LBB21_188:                             # %cond.end508
	xorl	%edx, %edx
	cmpl	%eax, %edx
	jle	.LBB21_190
# %bb.189:                              # %cond.true512
	xorl	%eax, %eax
	jmp	.LBB21_194
.LBB21_190:                             # %cond.false513
	movq	img, %rax
	movl	72684(%rax), %esi
	movl	-84(%rbp), %eax
	addl	$16, %eax
	cltd
	movl	$32, %edi
	idivl	%edi
	cmpl	%eax, %esi
	jge	.LBB21_192
# %bb.191:                              # %cond.true520
	movq	img, %rax
	movl	72684(%rax), %eax
	jmp	.LBB21_193
.LBB21_192:                             # %cond.false522
	movl	-84(%rbp), %eax
	addl	$16, %eax
	cltd
	movl	$32, %esi
	idivl	%esi
.LBB21_193:                             # %cond.end526
.LBB21_194:                             # %cond.end528
	addl	%eax, %ecx
	movl	%ecx, %eax
	cltd
	movl	$2, %ecx
	idivl	%ecx
	movl	%eax, -12(%rbp)
.LBB21_195:                             # %if.end532
	jmp	.LBB21_196
.LBB21_196:                             # %if.end533
	jmp	.LBB21_329
.LBB21_197:                             # %if.else534
	cmpl	$2, -48(%rbp)
	jne	.LBB21_259
# %bb.198:                              # %if.then537
	movl	$-2, -20(%rbp)
.LBB21_199:                             # %for.cond538
                                        # =>This Loop Header: Depth=1
                                        #     Child Loop BB21_210 Depth 2
	cmpl	$4, -20(%rbp)
	jge	.LBB21_224
# %bb.200:                              # %for.body541
                                        #   in Loop: Header=BB21_199 Depth=1
	movl	$0, -12(%rbp)
	movl	-32(%rbp), %eax
	movl	-24(%rbp), %ecx
	addl	-20(%rbp), %ecx
	cmpl	%ecx, %eax
	jge	.LBB21_202
# %bb.201:                              # %cond.true545
                                        #   in Loop: Header=BB21_199 Depth=1
	movl	-32(%rbp), %eax
	jmp	.LBB21_203
.LBB21_202:                             # %cond.false546
                                        #   in Loop: Header=BB21_199 Depth=1
	movl	-24(%rbp), %eax
	addl	-20(%rbp), %eax
.LBB21_203:                             # %cond.end548
                                        #   in Loop: Header=BB21_199 Depth=1
	xorl	%ecx, %ecx
	cmpl	%eax, %ecx
	jle	.LBB21_205
# %bb.204:                              # %cond.true552
                                        #   in Loop: Header=BB21_199 Depth=1
	xorl	%eax, %eax
	jmp	.LBB21_209
.LBB21_205:                             # %cond.false553
                                        #   in Loop: Header=BB21_199 Depth=1
	movl	-32(%rbp), %eax
	movl	-24(%rbp), %ecx
	addl	-20(%rbp), %ecx
	cmpl	%ecx, %eax
	jge	.LBB21_207
# %bb.206:                              # %cond.true557
                                        #   in Loop: Header=BB21_199 Depth=1
	movl	-32(%rbp), %eax
	jmp	.LBB21_208
.LBB21_207:                             # %cond.false558
                                        #   in Loop: Header=BB21_199 Depth=1
	movl	-24(%rbp), %eax
	addl	-20(%rbp), %eax
.LBB21_208:                             # %cond.end560
                                        #   in Loop: Header=BB21_199 Depth=1
.LBB21_209:                             # %cond.end562
                                        #   in Loop: Header=BB21_199 Depth=1
	movl	%eax, -44(%rbp)
	movl	$-2, -16(%rbp)
.LBB21_210:                             # %for.cond564
                                        #   Parent Loop BB21_199 Depth=1
                                        # =>  This Inner Loop Header: Depth=2
	cmpl	$4, -16(%rbp)
	jge	.LBB21_222
# %bb.211:                              # %for.body567
                                        #   in Loop: Header=BB21_210 Depth=2
	movl	-36(%rbp), %eax
	movl	-28(%rbp), %ecx
	addl	-16(%rbp), %ecx
	cmpl	%ecx, %eax
	jge	.LBB21_213
# %bb.212:                              # %cond.true571
                                        #   in Loop: Header=BB21_210 Depth=2
	movl	-36(%rbp), %eax
	jmp	.LBB21_214
.LBB21_213:                             # %cond.false572
                                        #   in Loop: Header=BB21_210 Depth=2
	movl	-28(%rbp), %eax
	addl	-16(%rbp), %eax
.LBB21_214:                             # %cond.end574
                                        #   in Loop: Header=BB21_210 Depth=2
	xorl	%ecx, %ecx
	cmpl	%eax, %ecx
	jle	.LBB21_216
# %bb.215:                              # %cond.true578
                                        #   in Loop: Header=BB21_210 Depth=2
	xorl	%eax, %eax
	jmp	.LBB21_220
.LBB21_216:                             # %cond.false579
                                        #   in Loop: Header=BB21_210 Depth=2
	movl	-36(%rbp), %eax
	movl	-28(%rbp), %ecx
	addl	-16(%rbp), %ecx
	cmpl	%ecx, %eax
	jge	.LBB21_218
# %bb.217:                              # %cond.true583
                                        #   in Loop: Header=BB21_210 Depth=2
	movl	-36(%rbp), %eax
	jmp	.LBB21_219
.LBB21_218:                             # %cond.false584
                                        #   in Loop: Header=BB21_210 Depth=2
	movl	-28(%rbp), %eax
	addl	-16(%rbp), %eax
.LBB21_219:                             # %cond.end586
                                        #   in Loop: Header=BB21_210 Depth=2
.LBB21_220:                             # %cond.end588
                                        #   in Loop: Header=BB21_210 Depth=2
	movl	%eax, -40(%rbp)
	movq	-64(%rbp), %rax
	movslq	-40(%rbp), %rcx
	movq	(%rax,%rcx,8), %rax
	movslq	-44(%rbp), %rcx
	movzwl	(%rax,%rcx,2), %eax
	movl	-16(%rbp), %ecx
	addl	$2, %ecx
	movslq	%ecx, %rcx
	imull	Get_Reference_Pixel.COEF(,%rcx,4), %eax
	addl	-12(%rbp), %eax
	movl	%eax, -12(%rbp)
# %bb.221:                              # %for.inc600
                                        #   in Loop: Header=BB21_210 Depth=2
	movl	-16(%rbp), %eax
	addl	$1, %eax
	movl	%eax, -16(%rbp)
	jmp	.LBB21_210
.LBB21_222:                             # %for.end602
                                        #   in Loop: Header=BB21_199 Depth=1
	movl	-12(%rbp), %eax
	movl	-20(%rbp), %ecx
	addl	$2, %ecx
	movslq	%ecx, %rcx
	movl	%eax, -96(%rbp,%rcx,4)
# %bb.223:                              # %for.inc606
                                        #   in Loop: Header=BB21_199 Depth=1
	movl	-20(%rbp), %eax
	addl	$1, %eax
	movl	%eax, -20(%rbp)
	jmp	.LBB21_199
.LBB21_224:                             # %for.end608
	movl	$0, -12(%rbp)
	movl	$-2, -20(%rbp)
.LBB21_225:                             # %for.cond609
                                        # =>This Inner Loop Header: Depth=1
	cmpl	$4, -20(%rbp)
	jge	.LBB21_228
# %bb.226:                              # %for.body612
                                        #   in Loop: Header=BB21_225 Depth=1
	movl	-20(%rbp), %eax
	addl	$2, %eax
	cltq
	movl	-96(%rbp,%rax,4), %eax
	movl	-20(%rbp), %ecx
	addl	$2, %ecx
	movslq	%ecx, %rcx
	imull	Get_Reference_Pixel.COEF(,%rcx,4), %eax
	addl	-12(%rbp), %eax
	movl	%eax, -12(%rbp)
# %bb.227:                              # %for.inc621
                                        #   in Loop: Header=BB21_225 Depth=1
	movl	-20(%rbp), %eax
	addl	$1, %eax
	movl	%eax, -20(%rbp)
	jmp	.LBB21_225
.LBB21_228:                             # %for.end623
	movq	img, %rax
	movl	72684(%rax), %ecx
	movl	-12(%rbp), %eax
	addl	$512, %eax              # imm = 0x200
	cltd
	movl	$1024, %esi             # imm = 0x400
	idivl	%esi
	cmpl	%eax, %ecx
	jge	.LBB21_230
# %bb.229:                              # %cond.true629
	movq	img, %rax
	movl	72684(%rax), %eax
	jmp	.LBB21_231
.LBB21_230:                             # %cond.false631
	movl	-12(%rbp), %eax
	addl	$512, %eax              # imm = 0x200
	cltd
	movl	$1024, %ecx             # imm = 0x400
	idivl	%ecx
.LBB21_231:                             # %cond.end634
	xorl	%ecx, %ecx
	cmpl	%eax, %ecx
	jle	.LBB21_233
# %bb.232:                              # %cond.true638
	xorl	%eax, %eax
	jmp	.LBB21_237
.LBB21_233:                             # %cond.false639
	movq	img, %rax
	movl	72684(%rax), %ecx
	movl	-12(%rbp), %eax
	addl	$512, %eax              # imm = 0x200
	cltd
	movl	$1024, %esi             # imm = 0x400
	idivl	%esi
	cmpl	%eax, %ecx
	jge	.LBB21_235
# %bb.234:                              # %cond.true645
	movq	img, %rax
	movl	72684(%rax), %eax
	jmp	.LBB21_236
.LBB21_235:                             # %cond.false647
	movl	-12(%rbp), %eax
	addl	$512, %eax              # imm = 0x200
	cltd
	movl	$1024, %ecx             # imm = 0x400
	idivl	%ecx
.LBB21_236:                             # %cond.end650
.LBB21_237:                             # %cond.end652
	movl	%eax, -12(%rbp)
	cmpl	$1, -52(%rbp)
	jne	.LBB21_248
# %bb.238:                              # %if.then656
	movl	-12(%rbp), %ecx
	movq	img, %rax
	movl	72684(%rax), %esi
	movl	-88(%rbp), %eax
	addl	$16, %eax
	cltd
	movl	$32, %edi
	idivl	%edi
	cmpl	%eax, %esi
	jge	.LBB21_240
# %bb.239:                              # %cond.true663
	movq	img, %rax
	movl	72684(%rax), %eax
	jmp	.LBB21_241
.LBB21_240:                             # %cond.false665
	movl	-88(%rbp), %eax
	addl	$16, %eax
	cltd
	movl	$32, %esi
	idivl	%esi
.LBB21_241:                             # %cond.end669
	xorl	%edx, %edx
	cmpl	%eax, %edx
	jle	.LBB21_243
# %bb.242:                              # %cond.true673
	xorl	%eax, %eax
	jmp	.LBB21_247
.LBB21_243:                             # %cond.false674
	movq	img, %rax
	movl	72684(%rax), %esi
	movl	-88(%rbp), %eax
	addl	$16, %eax
	cltd
	movl	$32, %edi
	idivl	%edi
	cmpl	%eax, %esi
	jge	.LBB21_245
# %bb.244:                              # %cond.true681
	movq	img, %rax
	movl	72684(%rax), %eax
	jmp	.LBB21_246
.LBB21_245:                             # %cond.false683
	movl	-88(%rbp), %eax
	addl	$16, %eax
	cltd
	movl	$32, %esi
	idivl	%esi
.LBB21_246:                             # %cond.end687
.LBB21_247:                             # %cond.end689
	addl	%eax, %ecx
	movl	%ecx, %eax
	cltd
	movl	$2, %ecx
	idivl	%ecx
	movl	%eax, -12(%rbp)
	jmp	.LBB21_258
.LBB21_248:                             # %if.else693
	movl	-12(%rbp), %ecx
	movq	img, %rax
	movl	72684(%rax), %esi
	movl	-84(%rbp), %eax
	addl	$16, %eax
	cltd
	movl	$32, %edi
	idivl	%edi
	cmpl	%eax, %esi
	jge	.LBB21_250
# %bb.249:                              # %cond.true700
	movq	img, %rax
	movl	72684(%rax), %eax
	jmp	.LBB21_251
.LBB21_250:                             # %cond.false702
	movl	-84(%rbp), %eax
	addl	$16, %eax
	cltd
	movl	$32, %esi
	idivl	%esi
.LBB21_251:                             # %cond.end706
	xorl	%edx, %edx
	cmpl	%eax, %edx
	jle	.LBB21_253
# %bb.252:                              # %cond.true710
	xorl	%eax, %eax
	jmp	.LBB21_257
.LBB21_253:                             # %cond.false711
	movq	img, %rax
	movl	72684(%rax), %esi
	movl	-84(%rbp), %eax
	addl	$16, %eax
	cltd
	movl	$32, %edi
	idivl	%edi
	cmpl	%eax, %esi
	jge	.LBB21_255
# %bb.254:                              # %cond.true718
	movq	img, %rax
	movl	72684(%rax), %eax
	jmp	.LBB21_256
.LBB21_255:                             # %cond.false720
	movl	-84(%rbp), %eax
	addl	$16, %eax
	cltd
	movl	$32, %esi
	idivl	%esi
.LBB21_256:                             # %cond.end724
.LBB21_257:                             # %cond.end726
	addl	%eax, %ecx
	movl	%ecx, %eax
	cltd
	movl	$2, %ecx
	idivl	%ecx
	movl	%eax, -12(%rbp)
.LBB21_258:                             # %if.end730
	jmp	.LBB21_328
.LBB21_259:                             # %if.else731
	movl	$0, -12(%rbp)
	cmpl	$1, -48(%rbp)
	jne	.LBB21_261
# %bb.260:                              # %cond.true734
	movl	-28(%rbp), %eax
	jmp	.LBB21_262
.LBB21_261:                             # %cond.false735
	movl	-28(%rbp), %eax
	addl	$1, %eax
.LBB21_262:                             # %cond.end737
	movl	%eax, -40(%rbp)
	movl	-36(%rbp), %eax
	cmpl	-40(%rbp), %eax
	jge	.LBB21_264
# %bb.263:                              # %cond.true741
	movl	-36(%rbp), %eax
	jmp	.LBB21_265
.LBB21_264:                             # %cond.false742
	movl	-40(%rbp), %eax
.LBB21_265:                             # %cond.end743
	xorl	%ecx, %ecx
	cmpl	%eax, %ecx
	jle	.LBB21_267
# %bb.266:                              # %cond.true747
	xorl	%eax, %eax
	jmp	.LBB21_271
.LBB21_267:                             # %cond.false748
	movl	-36(%rbp), %eax
	cmpl	-40(%rbp), %eax
	jge	.LBB21_269
# %bb.268:                              # %cond.true751
	movl	-36(%rbp), %eax
	jmp	.LBB21_270
.LBB21_269:                             # %cond.false752
	movl	-40(%rbp), %eax
.LBB21_270:                             # %cond.end753
.LBB21_271:                             # %cond.end755
	movl	%eax, -40(%rbp)
	movl	$-2, -20(%rbp)
.LBB21_272:                             # %for.cond757
                                        # =>This Inner Loop Header: Depth=1
	cmpl	$4, -20(%rbp)
	jge	.LBB21_284
# %bb.273:                              # %for.body760
                                        #   in Loop: Header=BB21_272 Depth=1
	movl	-32(%rbp), %eax
	movl	-24(%rbp), %ecx
	addl	-20(%rbp), %ecx
	cmpl	%ecx, %eax
	jge	.LBB21_275
# %bb.274:                              # %cond.true764
                                        #   in Loop: Header=BB21_272 Depth=1
	movl	-32(%rbp), %eax
	jmp	.LBB21_276
.LBB21_275:                             # %cond.false765
                                        #   in Loop: Header=BB21_272 Depth=1
	movl	-24(%rbp), %eax
	addl	-20(%rbp), %eax
.LBB21_276:                             # %cond.end767
                                        #   in Loop: Header=BB21_272 Depth=1
	xorl	%ecx, %ecx
	cmpl	%eax, %ecx
	jle	.LBB21_278
# %bb.277:                              # %cond.true771
                                        #   in Loop: Header=BB21_272 Depth=1
	xorl	%eax, %eax
	jmp	.LBB21_282
.LBB21_278:                             # %cond.false772
                                        #   in Loop: Header=BB21_272 Depth=1
	movl	-32(%rbp), %eax
	movl	-24(%rbp), %ecx
	addl	-20(%rbp), %ecx
	cmpl	%ecx, %eax
	jge	.LBB21_280
# %bb.279:                              # %cond.true776
                                        #   in Loop: Header=BB21_272 Depth=1
	movl	-32(%rbp), %eax
	jmp	.LBB21_281
