	.text
	.file	"decoder.c"
	.globl	decode_one_b8block      # -- Begin function decode_one_b8block
	.p2align	4, 0x90
	.type	decode_one_b8block,@function
decode_one_b8block:                     # @decode_one_b8block
	.cfi_startproc
# %bb.0:                                # %rand_bb
	pushq	%rbp
	.cfi_def_cfa_offset 16
	.cfi_offset %rbp, -16
	movq	%rsp, %rbp
	.cfi_def_cfa_register %rbp
	pushq	%r15
	pushq	%r14
	pushq	%r13
	pushq	%r12
	pushq	%rbx
	pushq	%rax
	.cfi_offset %rbx, -56
	.cfi_offset %r12, -48
	.cfi_offset %r13, -40
	.cfi_offset %r14, -32
	.cfi_offset %r15, -24
	movl	%r8d, %r14d
	movl	%ecx, %r15d
	movl	%edx, %r12d
	movl	%esi, %r13d
	movl	%edi, %ebx
	callq	get_rand
	cmpl	$0, %eax
	jne	.LBB0_9
# %bb.1:                                # %func_decode_one_b8block.22
	movl	%ebx, %edi
	movl	%r13d, %esi
	movl	%r12d, %edx
	movl	%r15d, %ecx
	movl	%r14d, %r8d
	callq	decode_one_b8block.22
	addq	$8, %rsp
	popq	%rbx
	popq	%r12
	popq	%r13
	popq	%r14
	popq	%r15
	popq	%rbp
	.cfi_def_cfa %rsp, 8
	retq
.LBB0_2:                                # %func_decode_one_b8block.29
	.cfi_def_cfa %rbp, 16
	movl	%ebx, %edi
	movl	%r13d, %esi
	movl	%r12d, %edx
	movl	%r15d, %ecx
	movl	%r14d, %r8d
	callq	decode_one_b8block.29
	addq	$8, %rsp
	popq	%rbx
	popq	%r12
	popq	%r13
	popq	%r14
	popq	%r15
	popq	%rbp
	.cfi_def_cfa %rsp, 8
	retq
.LBB0_3:                                # %func_decode_one_b8block.31
	.cfi_def_cfa %rbp, 16
	movl	%ebx, %edi
	movl	%r13d, %esi
	movl	%r12d, %edx
	movl	%r15d, %ecx
	movl	%r14d, %r8d
	callq	decode_one_b8block.31
	addq	$8, %rsp
	popq	%rbx
	popq	%r12
	popq	%r13
	popq	%r14
	popq	%r15
	popq	%rbp
	.cfi_def_cfa %rsp, 8
	retq
.LBB0_4:                                # %func_decode_one_b8block.40
	.cfi_def_cfa %rbp, 16
	movl	%ebx, %edi
	movl	%r13d, %esi
	movl	%r12d, %edx
	movl	%r15d, %ecx
	movl	%r14d, %r8d
	callq	decode_one_b8block.40
	addq	$8, %rsp
	popq	%rbx
	popq	%r12
	popq	%r13
	popq	%r14
	popq	%r15
	popq	%rbp
	.cfi_def_cfa %rsp, 8
	retq
.LBB0_5:                                # %func_decode_one_b8block.43
	.cfi_def_cfa %rbp, 16
	movl	%ebx, %edi
	movl	%r13d, %esi
	movl	%r12d, %edx
	movl	%r15d, %ecx
	movl	%r14d, %r8d
	callq	decode_one_b8block.43
	addq	$8, %rsp
	popq	%rbx
	popq	%r12
	popq	%r13
	popq	%r14
	popq	%r15
	popq	%rbp
	.cfi_def_cfa %rsp, 8
	retq
.LBB0_6:                                # %func_decode_one_b8block.51
	.cfi_def_cfa %rbp, 16
	movl	%ebx, %edi
	movl	%r13d, %esi
	movl	%r12d, %edx
	movl	%r15d, %ecx
	movl	%r14d, %r8d
	callq	decode_one_b8block.51
	addq	$8, %rsp
	popq	%rbx
	popq	%r12
	popq	%r13
	popq	%r14
	popq	%r15
	popq	%rbp
	.cfi_def_cfa %rsp, 8
	retq
.LBB0_7:                                # %func_decode_one_b8block.59
	.cfi_def_cfa %rbp, 16
	movl	%ebx, %edi
	movl	%r13d, %esi
	movl	%r12d, %edx
	movl	%r15d, %ecx
	movl	%r14d, %r8d
	callq	decode_one_b8block.59
	addq	$8, %rsp
	popq	%rbx
	popq	%r12
	popq	%r13
	popq	%r14
	popq	%r15
	popq	%rbp
	.cfi_def_cfa %rsp, 8
	retq
.LBB0_8:                                # %func_decode_one_b8block.63
	.cfi_def_cfa %rbp, 16
	movl	%ebx, %edi
	movl	%r13d, %esi
	movl	%r12d, %edx
	movl	%r15d, %ecx
	movl	%r14d, %r8d
	callq	decode_one_b8block.63
	addq	$8, %rsp
	popq	%rbx
	popq	%r12
	popq	%r13
	popq	%r14
	popq	%r15
	popq	%rbp
	.cfi_def_cfa %rsp, 8
	retq
.LBB0_9:                                # %ctrl0
	.cfi_def_cfa %rbp, 16
	cmpl	$1, %eax
	je	.LBB0_2
# %bb.10:                               # %ctrl1
	cmpl	$2, %eax
	je	.LBB0_3
# %bb.11:                               # %ctrl2
	cmpl	$3, %eax
	je	.LBB0_4
# %bb.12:                               # %ctrl3
	cmpl	$4, %eax
	je	.LBB0_5
# %bb.13:                               # %ctrl4
	cmpl	$5, %eax
	je	.LBB0_6
# %bb.14:                               # %ctrl5
	cmpl	$6, %eax
	je	.LBB0_7
	jmp	.LBB0_8
.Lfunc_end0:
	.size	decode_one_b8block, .Lfunc_end0-decode_one_b8block
	.cfi_endproc
                                        # -- End function
	.globl	Get_Reference_Block     # -- Begin function Get_Reference_Block
	.p2align	4, 0x90
	.type	Get_Reference_Block,@function
Get_Reference_Block:                    # @Get_Reference_Block
	.cfi_startproc
# %bb.0:                                # %rand_bb
	pushq	%rbp
	.cfi_def_cfa_offset 16
	.cfi_offset %rbp, -16
	movq	%rsp, %rbp
	.cfi_def_cfa_register %rbp
	pushq	%r15
	pushq	%r14
	pushq	%r13
	pushq	%r12
	pushq	%rbx
	pushq	%rax
	.cfi_offset %rbx, -56
	.cfi_offset %r12, -48
	.cfi_offset %r13, -40
	.cfi_offset %r14, -32
	.cfi_offset %r15, -24
	movq	%r9, -48(%rbp)          # 8-byte Spill
	movl	%r8d, %r12d
	movl	%ecx, %r13d
	movl	%edx, %ebx
	movl	%esi, %r14d
	movq	%rdi, %r15
	callq	get_rand
	cmpl	$0, %eax
	jne	.LBB1_9
# %bb.1:                                # %func_Get_Reference_Block.5
	movq	%r15, %rdi
	movl	%r14d, %esi
	movl	%ebx, %edx
	movl	%r13d, %ecx
	movl	%r12d, %r8d
	movq	-48(%rbp), %r9          # 8-byte Reload
	callq	Get_Reference_Block.5
	addq	$8, %rsp
	popq	%rbx
	popq	%r12
	popq	%r13
	popq	%r14
	popq	%r15
	popq	%rbp
	.cfi_def_cfa %rsp, 8
	retq
.LBB1_2:                                # %func_Get_Reference_Block.7
	.cfi_def_cfa %rbp, 16
	movq	%r15, %rdi
	movl	%r14d, %esi
	movl	%ebx, %edx
	movl	%r13d, %ecx
	movl	%r12d, %r8d
	callq	Get_Reference_Block.7
	addq	$8, %rsp
	popq	%rbx
	popq	%r12
	popq	%r13
	popq	%r14
	popq	%r15
	popq	%rbp
	.cfi_def_cfa %rsp, 8
	retq
.LBB1_3:                                # %func_Get_Reference_Block.20
	.cfi_def_cfa %rbp, 16
	movq	%r15, %rdi
	movl	%r14d, %esi
	movl	%ebx, %edx
	movl	%r13d, %ecx
	movl	%r12d, %r8d
	callq	Get_Reference_Block.20
	addq	$8, %rsp
	popq	%rbx
	popq	%r12
	popq	%r13
	popq	%r14
	popq	%r15
	popq	%rbp
	.cfi_def_cfa %rsp, 8
	retq
.LBB1_4:                                # %func_Get_Reference_Block.34
	.cfi_def_cfa %rbp, 16
	movq	%r15, %rdi
	movl	%r14d, %esi
	movl	%ebx, %edx
	movl	%r13d, %ecx
	movl	%r12d, %r8d
	callq	Get_Reference_Block.34
	addq	$8, %rsp
	popq	%rbx
	popq	%r12
	popq	%r13
	popq	%r14
	popq	%r15
	popq	%rbp
	.cfi_def_cfa %rsp, 8
	retq
.LBB1_5:                                # %func_Get_Reference_Block.39
	.cfi_def_cfa %rbp, 16
	movq	%r15, %rdi
	movl	%r14d, %esi
	movl	%ebx, %edx
	movl	%r13d, %ecx
	movl	%r12d, %r8d
	callq	Get_Reference_Block.39
	addq	$8, %rsp
	popq	%rbx
	popq	%r12
	popq	%r13
	popq	%r14
	popq	%r15
	popq	%rbp
	.cfi_def_cfa %rsp, 8
	retq
.LBB1_6:                                # %func_Get_Reference_Block.48
	.cfi_def_cfa %rbp, 16
	movq	%r15, %rdi
	movl	%r14d, %esi
	movl	%ebx, %edx
	movl	%r13d, %ecx
	movl	%r12d, %r8d
	callq	Get_Reference_Block.48
	addq	$8, %rsp
	popq	%rbx
	popq	%r12
	popq	%r13
	popq	%r14
	popq	%r15
	popq	%rbp
	.cfi_def_cfa %rsp, 8
	retq
.LBB1_7:                                # %func_Get_Reference_Block.56
	.cfi_def_cfa %rbp, 16
	callq	Get_Reference_Block.56
	addq	$8, %rsp
	popq	%rbx
	popq	%r12
	popq	%r13
	popq	%r14
	popq	%r15
	popq	%rbp
	.cfi_def_cfa %rsp, 8
	retq
.LBB1_8:                                # %func_Get_Reference_Block.57
	.cfi_def_cfa %rbp, 16
	callq	Get_Reference_Block.57
	addq	$8, %rsp
	popq	%rbx
	popq	%r12
	popq	%r13
	popq	%r14
	popq	%r15
	popq	%rbp
	.cfi_def_cfa %rsp, 8
	retq
.LBB1_9:                                # %ctrl0
	.cfi_def_cfa %rbp, 16
	movq	-48(%rbp), %r9          # 8-byte Reload
	cmpl	$1, %eax
	je	.LBB1_2
# %bb.10:                               # %ctrl1
	cmpl	$2, %eax
	je	.LBB1_3
# %bb.11:                               # %ctrl2
	cmpl	$3, %eax
	je	.LBB1_4
# %bb.12:                               # %ctrl3
	cmpl	$4, %eax
	je	.LBB1_5
# %bb.13:                               # %ctrl4
	cmpl	$5, %eax
	je	.LBB1_6
# %bb.14:                               # %ctrl5
	cmpl	$6, %eax
	movl	%r12d, %r8d
	movl	%r13d, %ecx
	movl	%ebx, %edx
	movl	%r14d, %esi
	movq	%r15, %rdi
	je	.LBB1_7
	jmp	.LBB1_8
.Lfunc_end1:
	.size	Get_Reference_Block, .Lfunc_end1-Get_Reference_Block
	.cfi_endproc
                                        # -- End function
	.globl	decode_one_mb           # -- Begin function decode_one_mb
	.p2align	4, 0x90
	.type	decode_one_mb,@function
decode_one_mb:                          # @decode_one_mb
	.cfi_startproc
# %bb.0:                                # %rand_bb
	pushq	%rbp
	.cfi_def_cfa_offset 16
	.cfi_offset %rbp, -16
	movq	%rsp, %rbp
	.cfi_def_cfa_register %rbp
	pushq	%r14
	pushq	%rbx
	.cfi_offset %rbx, -32
	.cfi_offset %r14, -24
	movq	%rsi, %r14
	movl	%edi, %ebx
	callq	get_rand
	cmpl	$0, %eax
	jne	.LBB2_2
# %bb.1:                                # %func_decode_one_mb.2
	movl	%ebx, %edi
	movq	%r14, %rsi
	callq	decode_one_mb.2
	popq	%rbx
	popq	%r14
	popq	%rbp
	.cfi_def_cfa %rsp, 8
	retq
.LBB2_2:                                # %func_decode_one_mb.17
	.cfi_def_cfa %rbp, 16
	movl	%ebx, %edi
	movq	%r14, %rsi
	callq	decode_one_mb.17
	popq	%rbx
	popq	%r14
	popq	%rbp
	.cfi_def_cfa %rsp, 8
	retq
.Lfunc_end2:
	.size	decode_one_mb, .Lfunc_end2-decode_one_mb
	.cfi_endproc
                                        # -- End function
	.globl	Get_Reference_Pixel     # -- Begin function Get_Reference_Pixel
	.p2align	4, 0x90
	.type	Get_Reference_Pixel,@function
Get_Reference_Pixel:                    # @Get_Reference_Pixel
	.cfi_startproc
# %bb.0:                                # %rand_bb
	pushq	%rbp
	.cfi_def_cfa_offset 16
	.cfi_offset %rbp, -16
	movq	%rsp, %rbp
	.cfi_def_cfa_register %rbp
	pushq	%r15
	pushq	%r14
	pushq	%rbx
	pushq	%rax
	.cfi_offset %rbx, -40
	.cfi_offset %r14, -32
	.cfi_offset %r15, -24
	movl	%edx, %r14d
	movl	%esi, %r15d
	movq	%rdi, %rbx
	callq	get_rand
	cmpl	$0, %eax
	jne	.LBB3_9
# %bb.1:                                # %func_Get_Reference_Pixel.3
	movq	%rbx, %rdi
	movl	%r15d, %esi
	movl	%r14d, %edx
	callq	Get_Reference_Pixel.3
	movzbl	%al, %eax
	addq	$8, %rsp
	popq	%rbx
	popq	%r14
	popq	%r15
	popq	%rbp
	.cfi_def_cfa %rsp, 8
	retq
.LBB3_2:                                # %func_Get_Reference_Pixel.8
	.cfi_def_cfa %rbp, 16
	movq	%rbx, %rdi
	movl	%r15d, %esi
	movl	%r14d, %edx
	callq	Get_Reference_Pixel.8
	movzbl	%al, %eax
	addq	$8, %rsp
	popq	%rbx
	popq	%r14
	popq	%r15
	popq	%rbp
	.cfi_def_cfa %rsp, 8
	retq
.LBB3_3:                                # %func_Get_Reference_Pixel.14
	.cfi_def_cfa %rbp, 16
	movq	%rbx, %rdi
	movl	%r15d, %esi
	movl	%r14d, %edx
	callq	Get_Reference_Pixel.14
	movzbl	%al, %eax
	addq	$8, %rsp
	popq	%rbx
	popq	%r14
	popq	%r15
	popq	%rbp
	.cfi_def_cfa %rsp, 8
	retq
.LBB3_4:                                # %func_Get_Reference_Pixel.16
	.cfi_def_cfa %rbp, 16
	movq	%rbx, %rdi
	movl	%r15d, %esi
	movl	%r14d, %edx
	callq	Get_Reference_Pixel.16
	movzbl	%al, %eax
	addq	$8, %rsp
	popq	%rbx
	popq	%r14
	popq	%r15
	popq	%rbp
	.cfi_def_cfa %rsp, 8
	retq
.LBB3_5:                                # %func_Get_Reference_Pixel.25
	.cfi_def_cfa %rbp, 16
	movq	%rbx, %rdi
	movl	%r15d, %esi
	movl	%r14d, %edx
	callq	Get_Reference_Pixel.25
	movzbl	%al, %eax
	addq	$8, %rsp
	popq	%rbx
	popq	%r14
	popq	%r15
	popq	%rbp
	.cfi_def_cfa %rsp, 8
	retq
.LBB3_6:                                # %func_Get_Reference_Pixel.27
	.cfi_def_cfa %rbp, 16
	movq	%rbx, %rdi
	movl	%r15d, %esi
	movl	%r14d, %edx
	callq	Get_Reference_Pixel.27
	movzbl	%al, %eax
	addq	$8, %rsp
	popq	%rbx
	popq	%r14
	popq	%r15
	popq	%rbp
	.cfi_def_cfa %rsp, 8
	retq
.LBB3_7:                                # %func_Get_Reference_Pixel.28
	.cfi_def_cfa %rbp, 16
	movq	%rbx, %rdi
	movl	%r15d, %esi
	movl	%r14d, %edx
	callq	Get_Reference_Pixel.28
	movzbl	%al, %eax
	addq	$8, %rsp
	popq	%rbx
	popq	%r14
	popq	%r15
	popq	%rbp
	.cfi_def_cfa %rsp, 8
	retq
.LBB3_8:                                # %func_Get_Reference_Pixel.30
	.cfi_def_cfa %rbp, 16
	movq	%rbx, %rdi
	movl	%r15d, %esi
	movl	%r14d, %edx
	callq	Get_Reference_Pixel.30
	movzbl	%al, %eax
	addq	$8, %rsp
	popq	%rbx
	popq	%r14
	popq	%r15
	popq	%rbp
	.cfi_def_cfa %rsp, 8
	retq
.LBB3_9:                                # %ctrl0
	.cfi_def_cfa %rbp, 16
	cmpl	$1, %eax
	je	.LBB3_2
# %bb.10:                               # %ctrl1
	cmpl	$2, %eax
	je	.LBB3_3
# %bb.11:                               # %ctrl2
	cmpl	$3, %eax
	je	.LBB3_4
# %bb.12:                               # %ctrl3
	cmpl	$4, %eax
	je	.LBB3_5
# %bb.13:                               # %ctrl4
	cmpl	$5, %eax
	je	.LBB3_6
# %bb.14:                               # %ctrl5
	cmpl	$6, %eax
	je	.LBB3_7
	jmp	.LBB3_8
.Lfunc_end3:
	.size	Get_Reference_Pixel, .Lfunc_end3-Get_Reference_Pixel
	.cfi_endproc
                                        # -- End function
	.globl	UpdateDecoders          # -- Begin function UpdateDecoders
	.p2align	4, 0x90
	.type	UpdateDecoders,@function
UpdateDecoders:                         # @UpdateDecoders
	.cfi_startproc
# %bb.0:                                # %entry
	pushq	%rbp
	.cfi_def_cfa_offset 16
	.cfi_offset %rbp, -16
	movq	%rsp, %rbp
	.cfi_def_cfa_register %rbp
	subq	$16, %rsp
	movl	$0, -4(%rbp)
.LBB4_1:                                # %for.cond
                                        # =>This Inner Loop Header: Depth=1
	movl	-4(%rbp), %eax
	movq	input, %rcx
	cmpl	2904(%rcx), %eax
	jge	.LBB4_4
# %bb.2:                                # %for.body
                                        #   in Loop: Header=BB4_1 Depth=1
	movq	decs, %rax
	movq	40(%rax), %rdi
	callq	Build_Status_Map
	movq	decs, %rax
	movq	24(%rax), %rax
	movslq	-4(%rbp), %rcx
	movq	(%rax,%rcx,8), %rdi
	movq	decs, %rax
	movq	40(%rax), %rsi
	movq	decs, %rax
	movq	16(%rax), %rax
	movslq	-4(%rbp), %rcx
	movq	(%rax,%rcx,8), %rdx
	callq	Error_Concealment
	movq	decs, %rax
	movq	24(%rax), %rax
	movslq	-4(%rbp), %rcx
	movq	(%rax,%rcx,8), %rdi
	movq	decs, %rax
	movq	16(%rax), %rax
	movslq	-4(%rbp), %rcx
	movq	(%rax,%rcx,8), %rsi
	callq	DecOneForthPix
# %bb.3:                                # %for.inc
                                        #   in Loop: Header=BB4_1 Depth=1
	movl	-4(%rbp), %eax
	addl	$1, %eax
	movl	%eax, -4(%rbp)
	jmp	.LBB4_1
.LBB4_4:                                # %for.end
	addq	$16, %rsp
	popq	%rbp
	.cfi_def_cfa %rsp, 8
	retq
.Lfunc_end4:
	.size	UpdateDecoders, .Lfunc_end4-UpdateDecoders
	.cfi_endproc
                                        # -- End function
	.globl	Build_Status_Map        # -- Begin function Build_Status_Map
	.p2align	4, 0x90
	.type	Build_Status_Map,@function
Build_Status_Map:                       # @Build_Status_Map
	.cfi_startproc
# %bb.0:                                # %rand_bb
	pushq	%rbp
	.cfi_def_cfa_offset 16
	.cfi_offset %rbp, -16
	movq	%rsp, %rbp
	.cfi_def_cfa_register %rbp
	pushq	%rbx
	pushq	%rax
	.cfi_offset %rbx, -24
	movq	%rdi, %rbx
	callq	get_rand
	cmpl	$0, %eax
	jne	.LBB5_9
# %bb.1:                                # %func_Build_Status_Map.4
	movq	%rbx, %rdi
	callq	Build_Status_Map.4
	addq	$8, %rsp
	popq	%rbx
	popq	%rbp
	.cfi_def_cfa %rsp, 8
	retq
.LBB5_2:                                # %func_Build_Status_Map.6
	.cfi_def_cfa %rbp, 16
	movq	%rbx, %rdi
	callq	Build_Status_Map.6
	addq	$8, %rsp
	popq	%rbx
	popq	%rbp
	.cfi_def_cfa %rsp, 8
	retq
.LBB5_3:                                # %func_Build_Status_Map.9
	.cfi_def_cfa %rbp, 16
	movq	%rbx, %rdi
	callq	Build_Status_Map.9
	addq	$8, %rsp
	popq	%rbx
	popq	%rbp
	.cfi_def_cfa %rsp, 8
	retq
.LBB5_4:                                # %func_Build_Status_Map.11
	.cfi_def_cfa %rbp, 16
	movq	%rbx, %rdi
	callq	Build_Status_Map.11
	addq	$8, %rsp
	popq	%rbx
	popq	%rbp
	.cfi_def_cfa %rsp, 8
	retq
.LBB5_5:                                # %func_Build_Status_Map.23
	.cfi_def_cfa %rbp, 16
	movq	%rbx, %rdi
	callq	Build_Status_Map.23
	addq	$8, %rsp
	popq	%rbx
	popq	%rbp
	.cfi_def_cfa %rsp, 8
	retq
.LBB5_6:                                # %func_Build_Status_Map.24
	.cfi_def_cfa %rbp, 16
	movq	%rbx, %rdi
	callq	Build_Status_Map.24
	addq	$8, %rsp
	popq	%rbx
	popq	%rbp
	.cfi_def_cfa %rsp, 8
	retq
.LBB5_7:                                # %func_Build_Status_Map.33
	.cfi_def_cfa %rbp, 16
	movq	%rbx, %rdi
	callq	Build_Status_Map.33
	addq	$8, %rsp
	popq	%rbx
	popq	%rbp
	.cfi_def_cfa %rsp, 8
	retq
.LBB5_8:                                # %func_Build_Status_Map.49
	.cfi_def_cfa %rbp, 16
	movq	%rbx, %rdi
	callq	Build_Status_Map.49
	addq	$8, %rsp
	popq	%rbx
	popq	%rbp
	.cfi_def_cfa %rsp, 8
	retq
.LBB5_9:                                # %ctrl0
	.cfi_def_cfa %rbp, 16
	cmpl	$1, %eax
	je	.LBB5_2
# %bb.10:                               # %ctrl1
	cmpl	$2, %eax
	je	.LBB5_3
# %bb.11:                               # %ctrl2
	cmpl	$3, %eax
	je	.LBB5_4
# %bb.12:                               # %ctrl3
	cmpl	$4, %eax
	je	.LBB5_5
# %bb.13:                               # %ctrl4
	cmpl	$5, %eax
	je	.LBB5_6
# %bb.14:                               # %ctrl5
	cmpl	$6, %eax
	je	.LBB5_7
	jmp	.LBB5_8
.Lfunc_end5:
	.size	Build_Status_Map, .Lfunc_end5-Build_Status_Map
	.cfi_endproc
                                        # -- End function
	.globl	Error_Concealment       # -- Begin function Error_Concealment
	.p2align	4, 0x90
	.type	Error_Concealment,@function
Error_Concealment:                      # @Error_Concealment
	.cfi_startproc
# %bb.0:                                # %rand_bb
	pushq	%rbp
	.cfi_def_cfa_offset 16
	.cfi_offset %rbp, -16
	movq	%rsp, %rbp
	.cfi_def_cfa_register %rbp
	pushq	%r15
	pushq	%r14
	pushq	%rbx
	pushq	%rax
	.cfi_offset %rbx, -40
	.cfi_offset %r14, -32
	.cfi_offset %r15, -24
	movq	%rdx, %r14
	movq	%rsi, %r15
	movq	%rdi, %rbx
	callq	get_rand
	cmpl	$0, %eax
	jne	.LBB6_9
# %bb.1:                                # %func_Error_Concealment.1
	movq	%rbx, %rdi
	movq	%r15, %rsi
	movq	%r14, %rdx
	callq	Error_Concealment.1
	addq	$8, %rsp
	popq	%rbx
	popq	%r14
	popq	%r15
	popq	%rbp
	.cfi_def_cfa %rsp, 8
	retq
.LBB6_2:                                # %func_Error_Concealment.10
	.cfi_def_cfa %rbp, 16
	movq	%rbx, %rdi
	movq	%r15, %rsi
	movq	%r14, %rdx
	callq	Error_Concealment.10
	addq	$8, %rsp
	popq	%rbx
	popq	%r14
	popq	%r15
	popq	%rbp
	.cfi_def_cfa %rsp, 8
	retq
.LBB6_3:                                # %func_Error_Concealment.13
	.cfi_def_cfa %rbp, 16
	movq	%rbx, %rdi
	movq	%r15, %rsi
	movq	%r14, %rdx
	callq	Error_Concealment.13
	addq	$8, %rsp
	popq	%rbx
	popq	%r14
	popq	%r15
	popq	%rbp
	.cfi_def_cfa %rsp, 8
	retq
.LBB6_4:                                # %func_Error_Concealment.15
	.cfi_def_cfa %rbp, 16
	movq	%rbx, %rdi
	movq	%r15, %rsi
	movq	%r14, %rdx
	callq	Error_Concealment.15
	addq	$8, %rsp
	popq	%rbx
	popq	%r14
	popq	%r15
	popq	%rbp
	.cfi_def_cfa %rsp, 8
	retq
.LBB6_5:                                # %func_Error_Concealment.21
	.cfi_def_cfa %rbp, 16
	movq	%rbx, %rdi
	movq	%r15, %rsi
	movq	%r14, %rdx
	callq	Error_Concealment.21
	addq	$8, %rsp
	popq	%rbx
	popq	%r14
	popq	%r15
	popq	%rbp
	.cfi_def_cfa %rsp, 8
	retq
.LBB6_6:                                # %func_Error_Concealment.32
	.cfi_def_cfa %rbp, 16
	movq	%rbx, %rdi
	movq	%r15, %rsi
	movq	%r14, %rdx
	callq	Error_Concealment.32
	addq	$8, %rsp
	popq	%rbx
	popq	%r14
	popq	%r15
	popq	%rbp
	.cfi_def_cfa %rsp, 8
	retq
.LBB6_7:                                # %func_Error_Concealment.46
	.cfi_def_cfa %rbp, 16
	movq	%rbx, %rdi
	movq	%r15, %rsi
	movq	%r14, %rdx
	callq	Error_Concealment.46
	addq	$8, %rsp
	popq	%rbx
	popq	%r14
	popq	%r15
	popq	%rbp
	.cfi_def_cfa %rsp, 8
	retq
.LBB6_8:                                # %func_Error_Concealment.47
	.cfi_def_cfa %rbp, 16
	movq	%rbx, %rdi
	movq	%r15, %rsi
	movq	%r14, %rdx
	callq	Error_Concealment.47
	addq	$8, %rsp
	popq	%rbx
	popq	%r14
	popq	%r15
	popq	%rbp
	.cfi_def_cfa %rsp, 8
	retq
.LBB6_9:                                # %ctrl0
	.cfi_def_cfa %rbp, 16
	cmpl	$1, %eax
	je	.LBB6_2
# %bb.10:                               # %ctrl1
	cmpl	$2, %eax
	je	.LBB6_3
# %bb.11:                               # %ctrl2
	cmpl	$3, %eax
	je	.LBB6_4
# %bb.12:                               # %ctrl3
	cmpl	$4, %eax
	je	.LBB6_5
# %bb.13:                               # %ctrl4
	cmpl	$5, %eax
	je	.LBB6_6
# %bb.14:                               # %ctrl5
	cmpl	$6, %eax
	je	.LBB6_7
	jmp	.LBB6_8
.Lfunc_end6:
	.size	Error_Concealment, .Lfunc_end6-Error_Concealment
	.cfi_endproc
                                        # -- End function
	.globl	DecOneForthPix          # -- Begin function DecOneForthPix
	.p2align	4, 0x90
	.type	DecOneForthPix,@function
DecOneForthPix:                         # @DecOneForthPix
	.cfi_startproc
# %bb.0:                                # %rand_bb
	pushq	%rbp
	.cfi_def_cfa_offset 16
	.cfi_offset %rbp, -16
	movq	%rsp, %rbp
	.cfi_def_cfa_register %rbp
	pushq	%r14
	pushq	%rbx
	.cfi_offset %rbx, -32
	.cfi_offset %r14, -24
	movq	%rsi, %r14
	movq	%rdi, %rbx
	callq	get_rand
	cmpl	$0, %eax
	jne	.LBB7_9
# %bb.1:                                # %func_DecOneForthPix.19
	movq	%rbx, %rdi
	movq	%r14, %rsi
	callq	DecOneForthPix.19
	popq	%rbx
	popq	%r14
	popq	%rbp
	.cfi_def_cfa %rsp, 8
	retq
.LBB7_2:                                # %func_DecOneForthPix.26
	.cfi_def_cfa %rbp, 16
	movq	%rbx, %rdi
	movq	%r14, %rsi
	callq	DecOneForthPix.26
	popq	%rbx
	popq	%r14
	popq	%rbp
	.cfi_def_cfa %rsp, 8
	retq
.LBB7_3:                                # %func_DecOneForthPix.41
	.cfi_def_cfa %rbp, 16
	movq	%rbx, %rdi
	movq	%r14, %rsi
	callq	DecOneForthPix.41
	popq	%rbx
	popq	%r14
	popq	%rbp
	.cfi_def_cfa %rsp, 8
	retq
.LBB7_4:                                # %func_DecOneForthPix.44
	.cfi_def_cfa %rbp, 16
	movq	%rbx, %rdi
	movq	%r14, %rsi
	callq	DecOneForthPix.44
	popq	%rbx
	popq	%r14
	popq	%rbp
	.cfi_def_cfa %rsp, 8
	retq
.LBB7_5:                                # %func_DecOneForthPix.50
	.cfi_def_cfa %rbp, 16
	movq	%rbx, %rdi
	movq	%r14, %rsi
	callq	DecOneForthPix.50
	popq	%rbx
	popq	%r14
	popq	%rbp
	.cfi_def_cfa %rsp, 8
	retq
.LBB7_6:                                # %func_DecOneForthPix.52
	.cfi_def_cfa %rbp, 16
	movq	%rbx, %rdi
	movq	%r14, %rsi
	callq	DecOneForthPix.52
	popq	%rbx
	popq	%r14
	popq	%rbp
	.cfi_def_cfa %rsp, 8
	retq
.LBB7_7:                                # %func_DecOneForthPix.55
	.cfi_def_cfa %rbp, 16
	movq	%rbx, %rdi
	movq	%r14, %rsi
	callq	DecOneForthPix.55
	popq	%rbx
	popq	%r14
	popq	%rbp
	.cfi_def_cfa %rsp, 8
	retq
.LBB7_8:                                # %func_DecOneForthPix.64
	.cfi_def_cfa %rbp, 16
	movq	%rbx, %rdi
	movq	%r14, %rsi
	callq	DecOneForthPix.64
	popq	%rbx
	popq	%r14
	popq	%rbp
	.cfi_def_cfa %rsp, 8
	retq
.LBB7_9:                                # %ctrl0
	.cfi_def_cfa %rbp, 16
	cmpl	$1, %eax
	je	.LBB7_2
# %bb.10:                               # %ctrl1
	cmpl	$2, %eax
	je	.LBB7_3
# %bb.11:                               # %ctrl2
	cmpl	$3, %eax
	je	.LBB7_4
# %bb.12:                               # %ctrl3
	cmpl	$4, %eax
	je	.LBB7_5
# %bb.13:                               # %ctrl4
	cmpl	$5, %eax
	je	.LBB7_6
# %bb.14:                               # %ctrl5
	cmpl	$6, %eax
	je	.LBB7_7
	jmp	.LBB7_8
.Lfunc_end7:
	.size	DecOneForthPix, .Lfunc_end7-DecOneForthPix
	.cfi_endproc
                                        # -- End function
	.globl	compute_residue_b8block # -- Begin function compute_residue_b8block
	.p2align	4, 0x90
	.type	compute_residue_b8block,@function
compute_residue_b8block:                # @compute_residue_b8block
	.cfi_startproc
# %bb.0:                                # %rand_bb
	pushq	%rbp
	.cfi_def_cfa_offset 16
	.cfi_offset %rbp, -16
	movq	%rsp, %rbp
	.cfi_def_cfa_register %rbp
	pushq	%r14
	pushq	%rbx
	.cfi_offset %rbx, -32
	.cfi_offset %r14, -24
	movl	%esi, %r14d
	movl	%edi, %ebx
	callq	get_rand
	cmpl	$0, %eax
	jne	.LBB8_9
# %bb.1:                                # %func_compute_residue_b8block.12
	movl	%ebx, %edi
	movl	%r14d, %esi
	callq	compute_residue_b8block.12
	popq	%rbx
	popq	%r14
	popq	%rbp
	.cfi_def_cfa %rsp, 8
	retq
.LBB8_2:                                # %func_compute_residue_b8block.36
	.cfi_def_cfa %rbp, 16
	movl	%ebx, %edi
	movl	%r14d, %esi
	callq	compute_residue_b8block.36
	popq	%rbx
	popq	%r14
	popq	%rbp
	.cfi_def_cfa %rsp, 8
	retq
.LBB8_3:                                # %func_compute_residue_b8block.37
	.cfi_def_cfa %rbp, 16
	movl	%ebx, %edi
	movl	%r14d, %esi
	callq	compute_residue_b8block.37
	popq	%rbx
	popq	%r14
	popq	%rbp
	.cfi_def_cfa %rsp, 8
	retq
.LBB8_4:                                # %func_compute_residue_b8block.38
	.cfi_def_cfa %rbp, 16
	movl	%ebx, %edi
	movl	%r14d, %esi
	callq	compute_residue_b8block.38
	popq	%rbx
	popq	%r14
	popq	%rbp
	.cfi_def_cfa %rsp, 8
	retq
.LBB8_5:                                # %func_compute_residue_b8block.53
	.cfi_def_cfa %rbp, 16
	movl	%ebx, %edi
	movl	%r14d, %esi
	callq	compute_residue_b8block.53
	popq	%rbx
	popq	%r14
	popq	%rbp
	.cfi_def_cfa %rsp, 8
	retq
.LBB8_6:                                # %func_compute_residue_b8block.54
	.cfi_def_cfa %rbp, 16
	movl	%ebx, %edi
	movl	%r14d, %esi
	callq	compute_residue_b8block.54
	popq	%rbx
	popq	%r14
	popq	%rbp
	.cfi_def_cfa %rsp, 8
	retq
.LBB8_7:                                # %func_compute_residue_b8block.58
	.cfi_def_cfa %rbp, 16
	movl	%ebx, %edi
	movl	%r14d, %esi
	callq	compute_residue_b8block.58
	popq	%rbx
	popq	%r14
	popq	%rbp
	.cfi_def_cfa %rsp, 8
	retq
.LBB8_8:                                # %func_compute_residue_b8block.62
	.cfi_def_cfa %rbp, 16
	movl	%ebx, %edi
	movl	%r14d, %esi
	callq	compute_residue_b8block.62
	popq	%rbx
	popq	%r14
	popq	%rbp
	.cfi_def_cfa %rsp, 8
	retq
.LBB8_9:                                # %ctrl0
	.cfi_def_cfa %rbp, 16
	cmpl	$1, %eax
	je	.LBB8_2
# %bb.10:                               # %ctrl1
	cmpl	$2, %eax
	je	.LBB8_3
# %bb.11:                               # %ctrl2
	cmpl	$3, %eax
	je	.LBB8_4
# %bb.12:                               # %ctrl3
	cmpl	$4, %eax
	je	.LBB8_5
# %bb.13:                               # %ctrl4
	cmpl	$5, %eax
	je	.LBB8_6
# %bb.14:                               # %ctrl5
	cmpl	$6, %eax
	je	.LBB8_7
	jmp	.LBB8_8
.Lfunc_end8:
	.size	compute_residue_b8block, .Lfunc_end8-compute_residue_b8block
	.cfi_endproc
                                        # -- End function
	.globl	compute_residue_mb      # -- Begin function compute_residue_mb
	.p2align	4, 0x90
	.type	compute_residue_mb,@function
compute_residue_mb:                     # @compute_residue_mb
	.cfi_startproc
# %bb.0:                                # %entry
	pushq	%rbp
	.cfi_def_cfa_offset 16
	.cfi_offset %rbp, -16
	movq	%rsp, %rbp
	.cfi_def_cfa_register %rbp
	subq	$16, %rsp
	movl	%edi, -4(%rbp)
	movl	-4(%rbp), %esi
	xorl	%edi, %edi
	callq	compute_residue_b8block
	movl	-4(%rbp), %esi
	movl	$1, %edi
	callq	compute_residue_b8block
	movl	-4(%rbp), %esi
	movl	$2, %edi
	callq	compute_residue_b8block
	movl	-4(%rbp), %esi
	movl	$3, %edi
	callq	compute_residue_b8block
	addq	$16, %rsp
	popq	%rbp
	.cfi_def_cfa %rsp, 8
	retq
.Lfunc_end9:
	.size	compute_residue_mb, .Lfunc_end9-compute_residue_mb
	.cfi_endproc
                                        # -- End function
	.globl	Conceal_Error           # -- Begin function Conceal_Error
	.p2align	4, 0x90
	.type	Conceal_Error,@function
Conceal_Error:                          # @Conceal_Error
	.cfi_startproc
# %bb.0:                                # %rand_bb
	pushq	%rbp
	.cfi_def_cfa_offset 16
	.cfi_offset %rbp, -16
	movq	%rsp, %rbp
	.cfi_def_cfa_register %rbp
	pushq	%r15
	pushq	%r14
	pushq	%r13
	pushq	%r12
	pushq	%rbx
	pushq	%rax
	.cfi_offset %rbx, -56
	.cfi_offset %r12, -48
	.cfi_offset %r13, -40
	.cfi_offset %r14, -32
	.cfi_offset %r15, -24
	movq	%r8, %r14
	movq	%rcx, %r15
	movl	%edx, %r12d
	movl	%esi, %r13d
	movq	%rdi, %rbx
	callq	get_rand
	cmpl	$0, %eax
	jne	.LBB10_9
# %bb.1:                                # %func_Conceal_Error.18
	movq	%rbx, %rdi
	movl	%r13d, %esi
	movl	%r12d, %edx
	movq	%r15, %rcx
	movq	%r14, %r8
	callq	Conceal_Error.18
	addq	$8, %rsp
	popq	%rbx
	popq	%r12
	popq	%r13
	popq	%r14
	popq	%r15
	popq	%rbp
	.cfi_def_cfa %rsp, 8
	retq
.LBB10_2:                               # %func_Conceal_Error.35
	.cfi_def_cfa %rbp, 16
	movq	%rbx, %rdi
	movl	%r13d, %esi
	movl	%r12d, %edx
	movq	%r15, %rcx
	movq	%r14, %r8
	callq	Conceal_Error.35
	addq	$8, %rsp
	popq	%rbx
	popq	%r12
	popq	%r13
	popq	%r14
	popq	%r15
	popq	%rbp
	.cfi_def_cfa %rsp, 8
	retq
.LBB10_3:                               # %func_Conceal_Error.42
	.cfi_def_cfa %rbp, 16
	movq	%rbx, %rdi
	movl	%r13d, %esi
	movl	%r12d, %edx
	movq	%r15, %rcx
	movq	%r14, %r8
	callq	Conceal_Error.42
	addq	$8, %rsp
	popq	%rbx
	popq	%r12
	popq	%r13
	popq	%r14
	popq	%r15
	popq	%rbp
	.cfi_def_cfa %rsp, 8
	retq
.LBB10_4:                               # %func_Conceal_Error.45
	.cfi_def_cfa %rbp, 16
	movq	%rbx, %rdi
	movl	%r13d, %esi
	movl	%r12d, %edx
	movq	%r15, %rcx
	movq	%r14, %r8
	callq	Conceal_Error.45
	addq	$8, %rsp
	popq	%rbx
	popq	%r12
	popq	%r13
	popq	%r14
	popq	%r15
	popq	%rbp
	.cfi_def_cfa %rsp, 8
	retq
.LBB10_5:                               # %func_Conceal_Error.60
	.cfi_def_cfa %rbp, 16
	movq	%rbx, %rdi
	movl	%r13d, %esi
	movl	%r12d, %edx
	movq	%r15, %rcx
	movq	%r14, %r8
	callq	Conceal_Error.60
	addq	$8, %rsp
	popq	%rbx
	popq	%r12
	popq	%r13
	popq	%r14
	popq	%r15
	popq	%rbp
	.cfi_def_cfa %rsp, 8
	retq
.LBB10_6:                               # %func_Conceal_Error.61
	.cfi_def_cfa %rbp, 16
	movq	%rbx, %rdi
	movl	%r13d, %esi
	movl	%r12d, %edx
	movq	%r15, %rcx
	movq	%r14, %r8
	callq	Conceal_Error.61
	addq	$8, %rsp
	popq	%rbx
	popq	%r12
	popq	%r13
	popq	%r14
	popq	%r15
	popq	%rbp
	.cfi_def_cfa %rsp, 8
	retq
.LBB10_7:                               # %func_Conceal_Error.65
	.cfi_def_cfa %rbp, 16
	movq	%rbx, %rdi
	movl	%r13d, %esi
	movl	%r12d, %edx
	movq	%r15, %rcx
	movq	%r14, %r8
	callq	Conceal_Error.65
	addq	$8, %rsp
	popq	%rbx
	popq	%r12
	popq	%r13
	popq	%r14
	popq	%r15
	popq	%rbp
	.cfi_def_cfa %rsp, 8
	retq
.LBB10_8:                               # %func_Conceal_Error.66
	.cfi_def_cfa %rbp, 16
	movq	%rbx, %rdi
	movl	%r13d, %esi
	movl	%r12d, %edx
	movq	%r15, %rcx
	movq	%r14, %r8
	callq	Conceal_Error.66
	addq	$8, %rsp
	popq	%rbx
	popq	%r12
	popq	%r13
	popq	%r14
	popq	%r15
	popq	%rbp
	.cfi_def_cfa %rsp, 8
	retq
.LBB10_9:                               # %ctrl0
	.cfi_def_cfa %rbp, 16
	cmpl	$1, %eax
	je	.LBB10_2
# %bb.10:                               # %ctrl1
	cmpl	$2, %eax
	je	.LBB10_3
# %bb.11:                               # %ctrl2
	cmpl	$3, %eax
	je	.LBB10_4
# %bb.12:                               # %ctrl3
	cmpl	$4, %eax
	je	.LBB10_5
# %bb.13:                               # %ctrl4
	cmpl	$5, %eax
	je	.LBB10_6
# %bb.14:                               # %ctrl5
	cmpl	$6, %eax
	je	.LBB10_7
	jmp	.LBB10_8
.Lfunc_end10:
	.size	Conceal_Error, .Lfunc_end10-Conceal_Error
	.cfi_endproc
                                        # -- End function
	.globl	Error_Concealment.1     # -- Begin function Error_Concealment.1
	.p2align	4, 0x90
	.type	Error_Concealment.1,@function
Error_Concealment.1:                    # @Error_Concealment.1
	.cfi_startproc
# %bb.0:                                # %entry
	pushq	%rbp
	.cfi_def_cfa_offset 16
	.cfi_offset %rbp, -16
	movq	%rsp, %rbp
	.cfi_def_cfa_register %rbp
	subq	$48, %rsp
	movl	$560688316, -16(%rbp)   # imm = 0x216B6CBC
	movq	%rdi, -48(%rbp)
	movq	%rsi, -32(%rbp)
	movq	%rdx, -40(%rbp)
	movq	img, %rax
	movl	60(%rax), %eax
	cltd
	movl	$16, %ecx
	idivl	%ecx
	movl	%eax, -12(%rbp)
	movq	img, %rax
	movl	52(%rax), %eax
	cltd
	idivl	%ecx
	movl	%eax, -20(%rbp)
	movl	$0, -4(%rbp)
.LBB11_1:                               # %for.cond
                                        # =>This Loop Header: Depth=1
                                        #     Child Loop BB11_3 Depth 2
	movl	-4(%rbp), %eax
	cmpl	-12(%rbp), %eax
	jge	.LBB11_10
# %bb.2:                                # %for.body
                                        #   in Loop: Header=BB11_1 Depth=1
	movl	$0, -8(%rbp)
.LBB11_3:                               # %for.cond2
                                        #   Parent Loop BB11_1 Depth=1
                                        # =>  This Inner Loop Header: Depth=2
	movl	-8(%rbp), %eax
	cmpl	-20(%rbp), %eax
	jge	.LBB11_8
# %bb.4:                                # %for.body4
                                        #   in Loop: Header=BB11_3 Depth=2
	movq	-32(%rbp), %rax
	movslq	-4(%rbp), %rcx
	movq	(%rax,%rcx,8), %rax
	movslq	-8(%rbp), %rcx
	cmpb	$0, (%rax,%rcx)
	je	.LBB11_6
# %bb.5:                                # %if.then
                                        #   in Loop: Header=BB11_3 Depth=2
	movq	-48(%rbp), %rdi
	movl	-4(%rbp), %esi
	movl	-8(%rbp), %edx
	movq	-40(%rbp), %rcx
	movq	-32(%rbp), %r8
	callq	Conceal_Error
.LBB11_6:                               # %if.end
                                        #   in Loop: Header=BB11_3 Depth=2
	jmp	.LBB11_7
.LBB11_7:                               # %for.inc
                                        #   in Loop: Header=BB11_3 Depth=2
	movl	-8(%rbp), %eax
	addl	$1, %eax
	movl	%eax, -8(%rbp)
	jmp	.LBB11_3
.LBB11_8:                               # %for.end
                                        #   in Loop: Header=BB11_1 Depth=1
	jmp	.LBB11_9
.LBB11_9:                               # %for.inc7
                                        #   in Loop: Header=BB11_1 Depth=1
	movl	-4(%rbp), %eax
	addl	$1, %eax
	movl	%eax, -4(%rbp)
	jmp	.LBB11_1
.LBB11_10:                              # %for.end9
	cmpl	$560688316, -16(%rbp)   # imm = 0x216B6CBC
	jne	.LBB11_12
.LBB11_11:
	addq	$48, %rsp
	popq	%rbp
	.cfi_def_cfa %rsp, 8
	retq
.LBB11_12:                              # %func_exit
	.cfi_def_cfa %rbp, 16
	callq	detect_breach
	jmp	.LBB11_11
.Lfunc_end11:
	.size	Error_Concealment.1, .Lfunc_end11-Error_Concealment.1
	.cfi_endproc
                                        # -- End function
	.globl	decode_one_mb.2         # -- Begin function decode_one_mb.2
	.p2align	4, 0x90
	.type	decode_one_mb.2,@function
decode_one_mb.2:                        # @decode_one_mb.2
	.cfi_startproc
# %bb.0:                                # %entry
	pushq	%rbp
	.cfi_def_cfa_offset 16
	.cfi_offset %rbp, -16
	movq	%rsp, %rbp
	.cfi_def_cfa_register %rbp
	subq	$16, %rsp
	movl	$1267424406, -4(%rbp)   # imm = 0x4B8B5C96
	movl	%edi, -8(%rbp)
	movq	%rsi, -16(%rbp)
	cmpl	$1267424406, -4(%rbp)   # imm = 0x4B8B5C96
	jne	.LBB12_2
.LBB12_1:
	addq	$16, %rsp
	popq	%rbp
	.cfi_def_cfa %rsp, 8
	retq
.LBB12_2:                               # %func_exit
	.cfi_def_cfa %rbp, 16
	callq	detect_breach
	jmp	.LBB12_1
.Lfunc_end12:
	.size	decode_one_mb.2, .Lfunc_end12-decode_one_mb.2
	.cfi_endproc
                                        # -- End function
	.globl	Get_Reference_Pixel.3   # -- Begin function Get_Reference_Pixel.3
	.p2align	4, 0x90
	.type	Get_Reference_Pixel.3,@function
Get_Reference_Pixel.3:                  # @Get_Reference_Pixel.3
	.cfi_startproc
# %bb.0:                                # %entry
	pushq	%rbp
	.cfi_def_cfa_offset 16
	.cfi_offset %rbp, -16
	movq	%rsp, %rbp
	.cfi_def_cfa_register %rbp
	pushq	%rbx
	subq	$104, %rsp
	.cfi_offset %rbx, -24
	movl	$8593617, -104(%rbp)    # imm = 0x8320D1
	movq	%rdi, -64(%rbp)
	movl	%esi, -24(%rbp)
	movl	%edx, -28(%rbp)
	movl	$0, -12(%rbp)
	movl	-28(%rbp), %eax
	andl	$3, %eax
	movl	%eax, -52(%rbp)
	movl	-24(%rbp), %eax
	andl	$3, %eax
	movl	%eax, -48(%rbp)
	movl	-28(%rbp), %eax
	subl	-52(%rbp), %eax
	cltd
	movl	$4, %ecx
	idivl	%ecx
	movl	%eax, -28(%rbp)
	movl	-24(%rbp), %eax
	subl	-48(%rbp), %eax
	cltd
	idivl	%ecx
	movl	%eax, -24(%rbp)
	movq	img, %rax
	movl	52(%rax), %eax
	subl	$1, %eax
	movl	%eax, -32(%rbp)
	movq	img, %rax
	movl	60(%rax), %eax
	subl	$1, %eax
	movl	%eax, -36(%rbp)
	cmpl	$0, -52(%rbp)
	jne	.LBB13_21
# %bb.1:                                # %land.lhs.true
	cmpl	$0, -48(%rbp)
	jne	.LBB13_21
# %bb.2:                                # %if.then
	movq	-64(%rbp), %rax
	movl	-36(%rbp), %ecx
	cmpl	-24(%rbp), %ecx
	jge	.LBB13_4
# %bb.3:                                # %cond.true
	movl	-36(%rbp), %ecx
	jmp	.LBB13_5
.LBB13_4:                               # %cond.false
	movl	-24(%rbp), %ecx
.LBB13_5:                               # %cond.end
	xorl	%edx, %edx
	cmpl	%ecx, %edx
	jle	.LBB13_7
# %bb.6:                                # %cond.true9
	xorl	%ecx, %ecx
	jmp	.LBB13_11
.LBB13_7:                               # %cond.false10
	movl	-36(%rbp), %ecx
	cmpl	-24(%rbp), %ecx
	jge	.LBB13_9
# %bb.8:                                # %cond.true12
	movl	-36(%rbp), %ecx
	jmp	.LBB13_10
.LBB13_9:                               # %cond.false13
	movl	-24(%rbp), %ecx
.LBB13_10:                              # %cond.end14
.LBB13_11:                              # %cond.end16
	movslq	%ecx, %rcx
	movq	(%rax,%rcx,8), %rax
	movl	-32(%rbp), %ecx
	cmpl	-28(%rbp), %ecx
	jge	.LBB13_13
# %bb.12:                               # %cond.true19
	movl	-32(%rbp), %ecx
	jmp	.LBB13_14
.LBB13_13:                              # %cond.false20
	movl	-28(%rbp), %ecx
.LBB13_14:                              # %cond.end21
	xorl	%edx, %edx
	cmpl	%ecx, %edx
	jle	.LBB13_16
# %bb.15:                               # %cond.true24
	xorl	%ecx, %ecx
	jmp	.LBB13_20
.LBB13_16:                              # %cond.false25
	movl	-32(%rbp), %ecx
	cmpl	-28(%rbp), %ecx
	jge	.LBB13_18
# %bb.17:                               # %cond.true27
	movl	-32(%rbp), %ecx
	jmp	.LBB13_19
.LBB13_18:                              # %cond.false28
	movl	-28(%rbp), %ecx
.LBB13_19:                              # %cond.end29
.LBB13_20:                              # %cond.end31
	movslq	%ecx, %rcx
	movzwl	(%rax,%rcx,2), %eax
	movl	%eax, -12(%rbp)
	jmp	.LBB13_332
.LBB13_21:                              # %if.else
	cmpl	$0, -48(%rbp)
	jne	.LBB13_77
# %bb.22:                               # %if.then37
	movl	-36(%rbp), %eax
	cmpl	-24(%rbp), %eax
	jge	.LBB13_24
# %bb.23:                               # %cond.true40
	movl	-36(%rbp), %eax
	jmp	.LBB13_25
.LBB13_24:                              # %cond.false41
	movl	-24(%rbp), %eax
.LBB13_25:                              # %cond.end42
	xorl	%ecx, %ecx
	cmpl	%eax, %ecx
	jle	.LBB13_27
# %bb.26:                               # %cond.true46
	xorl	%eax, %eax
	jmp	.LBB13_31
.LBB13_27:                              # %cond.false47
	movl	-36(%rbp), %eax
	cmpl	-24(%rbp), %eax
	jge	.LBB13_29
# %bb.28:                               # %cond.true50
	movl	-36(%rbp), %eax
	jmp	.LBB13_30
.LBB13_29:                              # %cond.false51
	movl	-24(%rbp), %eax
.LBB13_30:                              # %cond.end52
.LBB13_31:                              # %cond.end54
	movl	%eax, -40(%rbp)
	movl	$-2, -20(%rbp)
.LBB13_32:                              # %for.cond
                                        # =>This Inner Loop Header: Depth=1
	cmpl	$4, -20(%rbp)
	jge	.LBB13_44
# %bb.33:                               # %for.body
                                        #   in Loop: Header=BB13_32 Depth=1
	movl	-32(%rbp), %eax
	movl	-28(%rbp), %ecx
	addl	-20(%rbp), %ecx
	cmpl	%ecx, %eax
	jge	.LBB13_35
# %bb.34:                               # %cond.true60
                                        #   in Loop: Header=BB13_32 Depth=1
	movl	-32(%rbp), %eax
	jmp	.LBB13_36
.LBB13_35:                              # %cond.false61
                                        #   in Loop: Header=BB13_32 Depth=1
	movl	-28(%rbp), %eax
	addl	-20(%rbp), %eax
.LBB13_36:                              # %cond.end63
                                        #   in Loop: Header=BB13_32 Depth=1
	xorl	%ecx, %ecx
	cmpl	%eax, %ecx
	jle	.LBB13_38
# %bb.37:                               # %cond.true67
                                        #   in Loop: Header=BB13_32 Depth=1
	xorl	%eax, %eax
	jmp	.LBB13_42
.LBB13_38:                              # %cond.false68
                                        #   in Loop: Header=BB13_32 Depth=1
	movl	-32(%rbp), %eax
	movl	-28(%rbp), %ecx
	addl	-20(%rbp), %ecx
	cmpl	%ecx, %eax
	jge	.LBB13_40
# %bb.39:                               # %cond.true72
                                        #   in Loop: Header=BB13_32 Depth=1
	movl	-32(%rbp), %eax
	jmp	.LBB13_41
.LBB13_40:                              # %cond.false73
                                        #   in Loop: Header=BB13_32 Depth=1
	movl	-28(%rbp), %eax
	addl	-20(%rbp), %eax
.LBB13_41:                              # %cond.end75
                                        #   in Loop: Header=BB13_32 Depth=1
.LBB13_42:                              # %cond.end77
                                        #   in Loop: Header=BB13_32 Depth=1
	movl	%eax, -44(%rbp)
	movq	-64(%rbp), %rax
	movslq	-40(%rbp), %rcx
	movq	(%rax,%rcx,8), %rax
	movslq	-44(%rbp), %rcx
	movzwl	(%rax,%rcx,2), %eax
	movl	-20(%rbp), %ecx
	addl	$2, %ecx
	movslq	%ecx, %rcx
	imull	Get_Reference_Pixel.COEF(,%rcx,4), %eax
	addl	-12(%rbp), %eax
	movl	%eax, -12(%rbp)
# %bb.43:                               # %for.inc
                                        #   in Loop: Header=BB13_32 Depth=1
	movl	-20(%rbp), %eax
	addl	$1, %eax
	movl	%eax, -20(%rbp)
	jmp	.LBB13_32
.LBB13_44:                              # %for.end
	movq	img, %rax
	movl	72684(%rax), %ecx
	movl	-12(%rbp), %eax
	addl	$16, %eax
	cltd
	movl	$32, %esi
	idivl	%esi
	cmpl	%eax, %ecx
	jge	.LBB13_46
# %bb.45:                               # %cond.true92
	movq	img, %rax
	movl	72684(%rax), %eax
	jmp	.LBB13_47
.LBB13_46:                              # %cond.false94
	movl	-12(%rbp), %eax
	addl	$16, %eax
	cltd
	movl	$32, %ecx
	idivl	%ecx
.LBB13_47:                              # %cond.end97
	xorl	%ecx, %ecx
	cmpl	%eax, %ecx
	jle	.LBB13_49
# %bb.48:                               # %cond.true101
	xorl	%eax, %eax
	jmp	.LBB13_53
.LBB13_49:                              # %cond.false102
	movq	img, %rax
	movl	72684(%rax), %ecx
	movl	-12(%rbp), %eax
	addl	$16, %eax
	cltd
	movl	$32, %esi
	idivl	%esi
	cmpl	%eax, %ecx
	jge	.LBB13_51
# %bb.50:                               # %cond.true108
	movq	img, %rax
	movl	72684(%rax), %eax
	jmp	.LBB13_52
.LBB13_51:                              # %cond.false110
	movl	-12(%rbp), %eax
	addl	$16, %eax
	cltd
	movl	$32, %ecx
	idivl	%ecx
.LBB13_52:                              # %cond.end113
.LBB13_53:                              # %cond.end115
	movl	%eax, -12(%rbp)
	cmpl	$1, -52(%rbp)
	jne	.LBB13_64
# %bb.54:                               # %if.then119
	movl	-12(%rbp), %eax
	movq	-64(%rbp), %rcx
	movslq	-40(%rbp), %rdx
	movq	(%rcx,%rdx,8), %rcx
	movl	-32(%rbp), %edx
	cmpl	-28(%rbp), %edx
	jge	.LBB13_56
# %bb.55:                               # %cond.true124
	movl	-32(%rbp), %edx
	jmp	.LBB13_57
.LBB13_56:                              # %cond.false125
	movl	-28(%rbp), %edx
.LBB13_57:                              # %cond.end126
	xorl	%esi, %esi
	cmpl	%edx, %esi
	jle	.LBB13_59
# %bb.58:                               # %cond.true130
	xorl	%edx, %edx
	jmp	.LBB13_63
.LBB13_59:                              # %cond.false131
	movl	-32(%rbp), %edx
	cmpl	-28(%rbp), %edx
	jge	.LBB13_61
# %bb.60:                               # %cond.true134
	movl	-32(%rbp), %edx
	jmp	.LBB13_62
.LBB13_61:                              # %cond.false135
	movl	-28(%rbp), %edx
.LBB13_62:                              # %cond.end136
.LBB13_63:                              # %cond.end138
	movslq	%edx, %rdx
	movzwl	(%rcx,%rdx,2), %ecx
	addl	%ecx, %eax
	cltd
	movl	$2, %ecx
	idivl	%ecx
	movl	%eax, -12(%rbp)
	jmp	.LBB13_76
.LBB13_64:                              # %if.else145
	cmpl	$3, -52(%rbp)
	jne	.LBB13_75
# %bb.65:                               # %if.then148
	movl	-12(%rbp), %eax
	movq	-64(%rbp), %rcx
	movslq	-40(%rbp), %rdx
	movq	(%rcx,%rdx,8), %rcx
	movl	-32(%rbp), %edx
	movl	-28(%rbp), %esi
	addl	$1, %esi
	cmpl	%esi, %edx
	jge	.LBB13_67
# %bb.66:                               # %cond.true154
	movl	-32(%rbp), %edx
	jmp	.LBB13_68
.LBB13_67:                              # %cond.false155
	movl	-28(%rbp), %edx
	addl	$1, %edx
.LBB13_68:                              # %cond.end157
	xorl	%esi, %esi
	cmpl	%edx, %esi
	jle	.LBB13_70
# %bb.69:                               # %cond.true161
	xorl	%edx, %edx
	jmp	.LBB13_74
.LBB13_70:                              # %cond.false162
	movl	-32(%rbp), %edx
	movl	-28(%rbp), %esi
	addl	$1, %esi
	cmpl	%esi, %edx
	jge	.LBB13_72
# %bb.71:                               # %cond.true166
	movl	-32(%rbp), %edx
	jmp	.LBB13_73
.LBB13_72:                              # %cond.false167
	movl	-28(%rbp), %edx
	addl	$1, %edx
.LBB13_73:                              # %cond.end169
.LBB13_74:                              # %cond.end171
	movslq	%edx, %rdx
	movzwl	(%rcx,%rdx,2), %ecx
	addl	%ecx, %eax
	cltd
	movl	$2, %ecx
	idivl	%ecx
	movl	%eax, -12(%rbp)
.LBB13_75:                              # %if.end
	jmp	.LBB13_76
.LBB13_76:                              # %if.end178
	jmp	.LBB13_331
.LBB13_77:                              # %if.else179
	cmpl	$0, -52(%rbp)
	jne	.LBB13_133
# %bb.78:                               # %if.then182
	movl	-32(%rbp), %eax
	cmpl	-28(%rbp), %eax
	jge	.LBB13_80
# %bb.79:                               # %cond.true185
	movl	-32(%rbp), %eax
	jmp	.LBB13_81
.LBB13_80:                              # %cond.false186
	movl	-28(%rbp), %eax
.LBB13_81:                              # %cond.end187
	xorl	%ecx, %ecx
	cmpl	%eax, %ecx
	jle	.LBB13_83
# %bb.82:                               # %cond.true191
	xorl	%eax, %eax
	jmp	.LBB13_87
.LBB13_83:                              # %cond.false192
	movl	-32(%rbp), %eax
	cmpl	-28(%rbp), %eax
	jge	.LBB13_85
# %bb.84:                               # %cond.true195
	movl	-32(%rbp), %eax
	jmp	.LBB13_86
.LBB13_85:                              # %cond.false196
	movl	-28(%rbp), %eax
.LBB13_86:                              # %cond.end197
.LBB13_87:                              # %cond.end199
	movl	%eax, -44(%rbp)
	movl	$-2, -16(%rbp)
.LBB13_88:                              # %for.cond201
                                        # =>This Inner Loop Header: Depth=1
	cmpl	$4, -16(%rbp)
	jge	.LBB13_100
# %bb.89:                               # %for.body204
                                        #   in Loop: Header=BB13_88 Depth=1
	movl	-36(%rbp), %eax
	movl	-24(%rbp), %ecx
	addl	-16(%rbp), %ecx
	cmpl	%ecx, %eax
	jge	.LBB13_91
# %bb.90:                               # %cond.true208
                                        #   in Loop: Header=BB13_88 Depth=1
	movl	-36(%rbp), %eax
	jmp	.LBB13_92
.LBB13_91:                              # %cond.false209
                                        #   in Loop: Header=BB13_88 Depth=1
	movl	-24(%rbp), %eax
	addl	-16(%rbp), %eax
.LBB13_92:                              # %cond.end211
                                        #   in Loop: Header=BB13_88 Depth=1
	xorl	%ecx, %ecx
	cmpl	%eax, %ecx
	jle	.LBB13_94
# %bb.93:                               # %cond.true215
                                        #   in Loop: Header=BB13_88 Depth=1
	xorl	%eax, %eax
	jmp	.LBB13_98
.LBB13_94:                              # %cond.false216
                                        #   in Loop: Header=BB13_88 Depth=1
	movl	-36(%rbp), %eax
	movl	-24(%rbp), %ecx
	addl	-16(%rbp), %ecx
	cmpl	%ecx, %eax
	jge	.LBB13_96
# %bb.95:                               # %cond.true220
                                        #   in Loop: Header=BB13_88 Depth=1
	movl	-36(%rbp), %eax
	jmp	.LBB13_97
.LBB13_96:                              # %cond.false221
                                        #   in Loop: Header=BB13_88 Depth=1
	movl	-24(%rbp), %eax
	addl	-16(%rbp), %eax
.LBB13_97:                              # %cond.end223
                                        #   in Loop: Header=BB13_88 Depth=1
.LBB13_98:                              # %cond.end225
                                        #   in Loop: Header=BB13_88 Depth=1
	movl	%eax, -40(%rbp)
	movq	-64(%rbp), %rax
	movslq	-40(%rbp), %rcx
	movq	(%rax,%rcx,8), %rax
	movslq	-44(%rbp), %rcx
	movzwl	(%rax,%rcx,2), %eax
	movl	-16(%rbp), %ecx
	addl	$2, %ecx
	movslq	%ecx, %rcx
	imull	Get_Reference_Pixel.COEF(,%rcx,4), %eax
	addl	-12(%rbp), %eax
	movl	%eax, -12(%rbp)
# %bb.99:                               # %for.inc237
                                        #   in Loop: Header=BB13_88 Depth=1
	movl	-16(%rbp), %eax
	addl	$1, %eax
	movl	%eax, -16(%rbp)
	jmp	.LBB13_88
.LBB13_100:                             # %for.end239
	movq	img, %rax
	movl	72684(%rax), %ecx
	movl	-12(%rbp), %eax
	addl	$16, %eax
	cltd
	movl	$32, %esi
	idivl	%esi
	cmpl	%eax, %ecx
	jge	.LBB13_102
# %bb.101:                              # %cond.true245
	movq	img, %rax
	movl	72684(%rax), %eax
	jmp	.LBB13_103
.LBB13_102:                             # %cond.false247
	movl	-12(%rbp), %eax
	addl	$16, %eax
	cltd
	movl	$32, %ecx
	idivl	%ecx
.LBB13_103:                             # %cond.end250
	xorl	%ecx, %ecx
	cmpl	%eax, %ecx
	jle	.LBB13_105
# %bb.104:                              # %cond.true254
	xorl	%eax, %eax
	jmp	.LBB13_109
.LBB13_105:                             # %cond.false255
	movq	img, %rax
	movl	72684(%rax), %ecx
	movl	-12(%rbp), %eax
	addl	$16, %eax
	cltd
	movl	$32, %esi
	idivl	%esi
	cmpl	%eax, %ecx
	jge	.LBB13_107
# %bb.106:                              # %cond.true261
	movq	img, %rax
	movl	72684(%rax), %eax
	jmp	.LBB13_108
.LBB13_107:                             # %cond.false263
	movl	-12(%rbp), %eax
	addl	$16, %eax
	cltd
	movl	$32, %ecx
	idivl	%ecx
.LBB13_108:                             # %cond.end266
.LBB13_109:                             # %cond.end268
	movl	%eax, -12(%rbp)
	cmpl	$1, -48(%rbp)
	jne	.LBB13_120
# %bb.110:                              # %if.then272
	movl	-12(%rbp), %eax
	movq	-64(%rbp), %rcx
	movl	-36(%rbp), %edx
	cmpl	-24(%rbp), %edx
	jge	.LBB13_112
# %bb.111:                              # %cond.true275
	movl	-36(%rbp), %edx
	jmp	.LBB13_113
.LBB13_112:                             # %cond.false276
	movl	-24(%rbp), %edx
.LBB13_113:                             # %cond.end277
	xorl	%esi, %esi
	cmpl	%edx, %esi
	jle	.LBB13_115
# %bb.114:                              # %cond.true281
	xorl	%edx, %edx
	jmp	.LBB13_119
.LBB13_115:                             # %cond.false282
	movl	-36(%rbp), %edx
	cmpl	-24(%rbp), %edx
	jge	.LBB13_117
# %bb.116:                              # %cond.true285
	movl	-36(%rbp), %edx
	jmp	.LBB13_118
.LBB13_117:                             # %cond.false286
	movl	-24(%rbp), %edx
.LBB13_118:                             # %cond.end287
.LBB13_119:                             # %cond.end289
	movslq	%edx, %rdx
	movq	(%rcx,%rdx,8), %rcx
	movslq	-44(%rbp), %rdx
	movzwl	(%rcx,%rdx,2), %ecx
	addl	%ecx, %eax
	cltd
	movl	$2, %ecx
	idivl	%ecx
	movl	%eax, -12(%rbp)
	jmp	.LBB13_132
.LBB13_120:                             # %if.else298
	cmpl	$3, -48(%rbp)
	jne	.LBB13_131
# %bb.121:                              # %if.then301
	movl	-12(%rbp), %eax
	movq	-64(%rbp), %rcx
	movl	-36(%rbp), %edx
	movl	-24(%rbp), %esi
	addl	$1, %esi
	cmpl	%esi, %edx
	jge	.LBB13_123
# %bb.122:                              # %cond.true305
	movl	-36(%rbp), %edx
	jmp	.LBB13_124
.LBB13_123:                             # %cond.false306
	movl	-24(%rbp), %edx
	addl	$1, %edx
.LBB13_124:                             # %cond.end308
	xorl	%esi, %esi
	cmpl	%edx, %esi
	jle	.LBB13_126
# %bb.125:                              # %cond.true312
	xorl	%edx, %edx
	jmp	.LBB13_130
.LBB13_126:                             # %cond.false313
	movl	-36(%rbp), %edx
	movl	-24(%rbp), %esi
	addl	$1, %esi
	cmpl	%esi, %edx
	jge	.LBB13_128
# %bb.127:                              # %cond.true317
	movl	-36(%rbp), %edx
	jmp	.LBB13_129
.LBB13_128:                             # %cond.false318
	movl	-24(%rbp), %edx
	addl	$1, %edx
.LBB13_129:                             # %cond.end320
.LBB13_130:                             # %cond.end322
	movslq	%edx, %rdx
	movq	(%rcx,%rdx,8), %rcx
	movslq	-44(%rbp), %rdx
	movzwl	(%rcx,%rdx,2), %ecx
	addl	%ecx, %eax
	cltd
	movl	$2, %ecx
	idivl	%ecx
	movl	%eax, -12(%rbp)
.LBB13_131:                             # %if.end331
	jmp	.LBB13_132
.LBB13_132:                             # %if.end332
	jmp	.LBB13_330
.LBB13_133:                             # %if.else333
	cmpl	$2, -52(%rbp)
	jne	.LBB13_197
# %bb.134:                              # %if.then336
	movl	$-2, -16(%rbp)
.LBB13_135:                             # %for.cond337
                                        # =>This Loop Header: Depth=1
                                        #     Child Loop BB13_146 Depth 2
	cmpl	$4, -16(%rbp)
	jge	.LBB13_160
# %bb.136:                              # %for.body340
                                        #   in Loop: Header=BB13_135 Depth=1
	movl	$0, -12(%rbp)
	movl	-36(%rbp), %eax
	movl	-24(%rbp), %ecx
	addl	-16(%rbp), %ecx
	cmpl	%ecx, %eax
	jge	.LBB13_138
# %bb.137:                              # %cond.true344
                                        #   in Loop: Header=BB13_135 Depth=1
	movl	-36(%rbp), %eax
	jmp	.LBB13_139
.LBB13_138:                             # %cond.false345
                                        #   in Loop: Header=BB13_135 Depth=1
	movl	-24(%rbp), %eax
	addl	-16(%rbp), %eax
.LBB13_139:                             # %cond.end347
                                        #   in Loop: Header=BB13_135 Depth=1
	xorl	%ecx, %ecx
	cmpl	%eax, %ecx
	jle	.LBB13_141
# %bb.140:                              # %cond.true351
                                        #   in Loop: Header=BB13_135 Depth=1
	xorl	%eax, %eax
	jmp	.LBB13_145
.LBB13_141:                             # %cond.false352
                                        #   in Loop: Header=BB13_135 Depth=1
	movl	-36(%rbp), %eax
	movl	-24(%rbp), %ecx
	addl	-16(%rbp), %ecx
	cmpl	%ecx, %eax
	jge	.LBB13_143
# %bb.142:                              # %cond.true356
                                        #   in Loop: Header=BB13_135 Depth=1
	movl	-36(%rbp), %eax
	jmp	.LBB13_144
.LBB13_143:                             # %cond.false357
                                        #   in Loop: Header=BB13_135 Depth=1
	movl	-24(%rbp), %eax
	addl	-16(%rbp), %eax
.LBB13_144:                             # %cond.end359
                                        #   in Loop: Header=BB13_135 Depth=1
.LBB13_145:                             # %cond.end361
                                        #   in Loop: Header=BB13_135 Depth=1
	movl	%eax, -40(%rbp)
	movl	$-2, -20(%rbp)
.LBB13_146:                             # %for.cond363
                                        #   Parent Loop BB13_135 Depth=1
                                        # =>  This Inner Loop Header: Depth=2
	cmpl	$4, -20(%rbp)
	jge	.LBB13_158
# %bb.147:                              # %for.body366
                                        #   in Loop: Header=BB13_146 Depth=2
	movl	-32(%rbp), %eax
	movl	-28(%rbp), %ecx
	addl	-20(%rbp), %ecx
	cmpl	%ecx, %eax
	jge	.LBB13_149
# %bb.148:                              # %cond.true370
                                        #   in Loop: Header=BB13_146 Depth=2
	movl	-32(%rbp), %eax
	jmp	.LBB13_150
.LBB13_149:                             # %cond.false371
                                        #   in Loop: Header=BB13_146 Depth=2
	movl	-28(%rbp), %eax
	addl	-20(%rbp), %eax
.LBB13_150:                             # %cond.end373
                                        #   in Loop: Header=BB13_146 Depth=2
	xorl	%ecx, %ecx
	cmpl	%eax, %ecx
	jle	.LBB13_152
# %bb.151:                              # %cond.true377
                                        #   in Loop: Header=BB13_146 Depth=2
	xorl	%eax, %eax
	jmp	.LBB13_156
.LBB13_152:                             # %cond.false378
                                        #   in Loop: Header=BB13_146 Depth=2
	movl	-32(%rbp), %eax
	movl	-28(%rbp), %ecx
	addl	-20(%rbp), %ecx
	cmpl	%ecx, %eax
	jge	.LBB13_154
# %bb.153:                              # %cond.true382
                                        #   in Loop: Header=BB13_146 Depth=2
	movl	-32(%rbp), %eax
	jmp	.LBB13_155
.LBB13_154:                             # %cond.false383
                                        #   in Loop: Header=BB13_146 Depth=2
	movl	-28(%rbp), %eax
	addl	-20(%rbp), %eax
.LBB13_155:                             # %cond.end385
                                        #   in Loop: Header=BB13_146 Depth=2
.LBB13_156:                             # %cond.end387
                                        #   in Loop: Header=BB13_146 Depth=2
	movl	%eax, -44(%rbp)
	movq	-64(%rbp), %rax
	movslq	-40(%rbp), %rcx
	movq	(%rax,%rcx,8), %rax
	movslq	-44(%rbp), %rcx
	movzwl	(%rax,%rcx,2), %eax
	movl	-20(%rbp), %ecx
	addl	$2, %ecx
	movslq	%ecx, %rcx
	imull	Get_Reference_Pixel.COEF(,%rcx,4), %eax
	addl	-12(%rbp), %eax
	movl	%eax, -12(%rbp)
# %bb.157:                              # %for.inc399
                                        #   in Loop: Header=BB13_146 Depth=2
	movl	-20(%rbp), %eax
	addl	$1, %eax
	movl	%eax, -20(%rbp)
	jmp	.LBB13_146
.LBB13_158:                             # %for.end401
                                        #   in Loop: Header=BB13_135 Depth=1
	movl	-12(%rbp), %eax
	movl	-16(%rbp), %ecx
	addl	$2, %ecx
	movslq	%ecx, %rcx
	movl	%eax, -96(%rbp,%rcx,4)
# %bb.159:                              # %for.inc405
                                        #   in Loop: Header=BB13_135 Depth=1
	movl	-16(%rbp), %eax
	addl	$1, %eax
	movl	%eax, -16(%rbp)
	jmp	.LBB13_135
.LBB13_160:                             # %for.end407
	movl	$0, -12(%rbp)
	movl	$-2, -16(%rbp)
.LBB13_161:                             # %for.cond408
                                        # =>This Inner Loop Header: Depth=1
	cmpl	$4, -16(%rbp)
	jge	.LBB13_164
# %bb.162:                              # %for.body411
                                        #   in Loop: Header=BB13_161 Depth=1
	movl	-16(%rbp), %eax
	addl	$2, %eax
	cltq
	movl	-96(%rbp,%rax,4), %eax
	movl	-16(%rbp), %ecx
	addl	$2, %ecx
	movslq	%ecx, %rcx
	imull	Get_Reference_Pixel.COEF(,%rcx,4), %eax
	addl	-12(%rbp), %eax
	movl	%eax, -12(%rbp)
# %bb.163:                              # %for.inc420
                                        #   in Loop: Header=BB13_161 Depth=1
	movl	-16(%rbp), %eax
	addl	$1, %eax
	movl	%eax, -16(%rbp)
	jmp	.LBB13_161
.LBB13_164:                             # %for.end422
	movq	img, %rax
	movl	72684(%rax), %ecx
	movl	-12(%rbp), %eax
	addl	$512, %eax              # imm = 0x200
	cltd
	movl	$1024, %esi             # imm = 0x400
	idivl	%esi
	cmpl	%eax, %ecx
	jge	.LBB13_166
# %bb.165:                              # %cond.true428
	movq	img, %rax
	movl	72684(%rax), %eax
	jmp	.LBB13_167
.LBB13_166:                             # %cond.false430
	movl	-12(%rbp), %eax
	addl	$512, %eax              # imm = 0x200
	cltd
	movl	$1024, %ecx             # imm = 0x400
	idivl	%ecx
.LBB13_167:                             # %cond.end433
	xorl	%ecx, %ecx
	cmpl	%eax, %ecx
	jle	.LBB13_169
# %bb.168:                              # %cond.true437
	xorl	%eax, %eax
	jmp	.LBB13_173
.LBB13_169:                             # %cond.false438
	movq	img, %rax
	movl	72684(%rax), %ecx
	movl	-12(%rbp), %eax
	addl	$512, %eax              # imm = 0x200
	cltd
	movl	$1024, %esi             # imm = 0x400
	idivl	%esi
	cmpl	%eax, %ecx
	jge	.LBB13_171
# %bb.170:                              # %cond.true444
	movq	img, %rax
	movl	72684(%rax), %eax
	jmp	.LBB13_172
.LBB13_171:                             # %cond.false446
	movl	-12(%rbp), %eax
	addl	$512, %eax              # imm = 0x200
	cltd
	movl	$1024, %ecx             # imm = 0x400
	idivl	%ecx
.LBB13_172:                             # %cond.end449
.LBB13_173:                             # %cond.end451
	movl	%eax, -12(%rbp)
	cmpl	$1, -48(%rbp)
	jne	.LBB13_184
# %bb.174:                              # %if.then455
	movl	-12(%rbp), %ecx
	movq	img, %rax
	movl	72684(%rax), %esi
	movl	-88(%rbp), %eax
	addl	$16, %eax
	cltd
	movl	$32, %edi
	idivl	%edi
	cmpl	%eax, %esi
	jge	.LBB13_176
# %bb.175:                              # %cond.true462
	movq	img, %rax
	movl	72684(%rax), %eax
	jmp	.LBB13_177
.LBB13_176:                             # %cond.false464
	movl	-88(%rbp), %eax
	addl	$16, %eax
	cltd
	movl	$32, %esi
	idivl	%esi
.LBB13_177:                             # %cond.end468
	xorl	%edx, %edx
	cmpl	%eax, %edx
	jle	.LBB13_179
# %bb.178:                              # %cond.true472
	xorl	%eax, %eax
	jmp	.LBB13_183
.LBB13_179:                             # %cond.false473
	movq	img, %rax
	movl	72684(%rax), %esi
	movl	-88(%rbp), %eax
	addl	$16, %eax
	cltd
	movl	$32, %edi
	idivl	%edi
	cmpl	%eax, %esi
	jge	.LBB13_181
# %bb.180:                              # %cond.true480
	movq	img, %rax
	movl	72684(%rax), %eax
	jmp	.LBB13_182
.LBB13_181:                             # %cond.false482
	movl	-88(%rbp), %eax
	addl	$16, %eax
	cltd
	movl	$32, %esi
	idivl	%esi
.LBB13_182:                             # %cond.end486
.LBB13_183:                             # %cond.end488
	addl	%eax, %ecx
	movl	%ecx, %eax
	cltd
	movl	$2, %ecx
	idivl	%ecx
	movl	%eax, -12(%rbp)
	jmp	.LBB13_196
.LBB13_184:                             # %if.else492
	cmpl	$3, -48(%rbp)
	jne	.LBB13_195
# %bb.185:                              # %if.then495
	movl	-12(%rbp), %ecx
	movq	img, %rax
	movl	72684(%rax), %esi
	movl	-84(%rbp), %eax
	addl	$16, %eax
	cltd
	movl	$32, %edi
	idivl	%edi
	cmpl	%eax, %esi
	jge	.LBB13_187
# %bb.186:                              # %cond.true502
	movq	img, %rax
	movl	72684(%rax), %eax
	jmp	.LBB13_188
.LBB13_187:                             # %cond.false504
	movl	-84(%rbp), %eax
	addl	$16, %eax
	cltd
	movl	$32, %esi
	idivl	%esi
.LBB13_188:                             # %cond.end508
	xorl	%edx, %edx
	cmpl	%eax, %edx
	jle	.LBB13_190
# %bb.189:                              # %cond.true512
	xorl	%eax, %eax
	jmp	.LBB13_194
.LBB13_190:                             # %cond.false513
	movq	img, %rax
	movl	72684(%rax), %esi
	movl	-84(%rbp), %eax
	addl	$16, %eax
	cltd
	movl	$32, %edi
	idivl	%edi
	cmpl	%eax, %esi
	jge	.LBB13_192
# %bb.191:                              # %cond.true520
	movq	img, %rax
	movl	72684(%rax), %eax
	jmp	.LBB13_193
.LBB13_192:                             # %cond.false522
	movl	-84(%rbp), %eax
	addl	$16, %eax
	cltd
	movl	$32, %esi
	idivl	%esi
.LBB13_193:                             # %cond.end526
.LBB13_194:                             # %cond.end528
	addl	%eax, %ecx
	movl	%ecx, %eax
	cltd
	movl	$2, %ecx
	idivl	%ecx
	movl	%eax, -12(%rbp)
.LBB13_195:                             # %if.end532
	jmp	.LBB13_196
.LBB13_196:                             # %if.end533
	jmp	.LBB13_329
.LBB13_197:                             # %if.else534
	cmpl	$2, -48(%rbp)
	jne	.LBB13_259
# %bb.198:                              # %if.then537
	movl	$-2, -20(%rbp)
.LBB13_199:                             # %for.cond538
                                        # =>This Loop Header: Depth=1
                                        #     Child Loop BB13_210 Depth 2
	cmpl	$4, -20(%rbp)
	jge	.LBB13_224
# %bb.200:                              # %for.body541
                                        #   in Loop: Header=BB13_199 Depth=1
	movl	$0, -12(%rbp)
	movl	-32(%rbp), %eax
	movl	-28(%rbp), %ecx
	addl	-20(%rbp), %ecx
	cmpl	%ecx, %eax
	jge	.LBB13_202
# %bb.201:                              # %cond.true545
                                        #   in Loop: Header=BB13_199 Depth=1
	movl	-32(%rbp), %eax
	jmp	.LBB13_203
.LBB13_202:                             # %cond.false546
                                        #   in Loop: Header=BB13_199 Depth=1
	movl	-28(%rbp), %eax
	addl	-20(%rbp), %eax
.LBB13_203:                             # %cond.end548
                                        #   in Loop: Header=BB13_199 Depth=1
	xorl	%ecx, %ecx
	cmpl	%eax, %ecx
	jle	.LBB13_205
# %bb.204:                              # %cond.true552
                                        #   in Loop: Header=BB13_199 Depth=1
	xorl	%eax, %eax
	jmp	.LBB13_209
.LBB13_205:                             # %cond.false553
                                        #   in Loop: Header=BB13_199 Depth=1
	movl	-32(%rbp), %eax
	movl	-28(%rbp), %ecx
	addl	-20(%rbp), %ecx
	cmpl	%ecx, %eax
	jge	.LBB13_207
# %bb.206:                              # %cond.true557
                                        #   in Loop: Header=BB13_199 Depth=1
	movl	-32(%rbp), %eax
	jmp	.LBB13_208
.LBB13_207:                             # %cond.false558
                                        #   in Loop: Header=BB13_199 Depth=1
	movl	-28(%rbp), %eax
	addl	-20(%rbp), %eax
.LBB13_208:                             # %cond.end560
                                        #   in Loop: Header=BB13_199 Depth=1
.LBB13_209:                             # %cond.end562
                                        #   in Loop: Header=BB13_199 Depth=1
	movl	%eax, -44(%rbp)
	movl	$-2, -16(%rbp)
.LBB13_210:                             # %for.cond564
                                        #   Parent Loop BB13_199 Depth=1
                                        # =>  This Inner Loop Header: Depth=2
	cmpl	$4, -16(%rbp)
	jge	.LBB13_222
# %bb.211:                              # %for.body567
                                        #   in Loop: Header=BB13_210 Depth=2
	movl	-36(%rbp), %eax
	movl	-24(%rbp), %ecx
	addl	-16(%rbp), %ecx
	cmpl	%ecx, %eax
	jge	.LBB13_213
# %bb.212:                              # %cond.true571
                                        #   in Loop: Header=BB13_210 Depth=2
	movl	-36(%rbp), %eax
	jmp	.LBB13_214
.LBB13_213:                             # %cond.false572
                                        #   in Loop: Header=BB13_210 Depth=2
	movl	-24(%rbp), %eax
	addl	-16(%rbp), %eax
.LBB13_214:                             # %cond.end574
                                        #   in Loop: Header=BB13_210 Depth=2
	xorl	%ecx, %ecx
	cmpl	%eax, %ecx
	jle	.LBB13_216
# %bb.215:                              # %cond.true578
                                        #   in Loop: Header=BB13_210 Depth=2
	xorl	%eax, %eax
	jmp	.LBB13_220
.LBB13_216:                             # %cond.false579
                                        #   in Loop: Header=BB13_210 Depth=2
	movl	-36(%rbp), %eax
	movl	-24(%rbp), %ecx
	addl	-16(%rbp), %ecx
	cmpl	%ecx, %eax
	jge	.LBB13_218
# %bb.217:                              # %cond.true583
                                        #   in Loop: Header=BB13_210 Depth=2
	movl	-36(%rbp), %eax
	jmp	.LBB13_219
.LBB13_218:                             # %cond.false584
                                        #   in Loop: Header=BB13_210 Depth=2
	movl	-24(%rbp), %eax
	addl	-16(%rbp), %eax
.LBB13_219:                             # %cond.end586
                                        #   in Loop: Header=BB13_210 Depth=2
.LBB13_220:                             # %cond.end588
                                        #   in Loop: Header=BB13_210 Depth=2
	movl	%eax, -40(%rbp)
	movq	-64(%rbp), %rax
	movslq	-40(%rbp), %rcx
	movq	(%rax,%rcx,8), %rax
	movslq	-44(%rbp), %rcx
	movzwl	(%rax,%rcx,2), %eax
	movl	-16(%rbp), %ecx
	addl	$2, %ecx
	movslq	%ecx, %rcx
	imull	Get_Reference_Pixel.COEF(,%rcx,4), %eax
	addl	-12(%rbp), %eax
	movl	%eax, -12(%rbp)
# %bb.221:                              # %for.inc600
                                        #   in Loop: Header=BB13_210 Depth=2
	movl	-16(%rbp), %eax
	addl	$1, %eax
	movl	%eax, -16(%rbp)
	jmp	.LBB13_210
.LBB13_222:                             # %for.end602
                                        #   in Loop: Header=BB13_199 Depth=1
	movl	-12(%rbp), %eax
	movl	-20(%rbp), %ecx
	addl	$2, %ecx
	movslq	%ecx, %rcx
	movl	%eax, -96(%rbp,%rcx,4)
# %bb.223:                              # %for.inc606
                                        #   in Loop: Header=BB13_199 Depth=1
	movl	-20(%rbp), %eax
	addl	$1, %eax
	movl	%eax, -20(%rbp)
	jmp	.LBB13_199
.LBB13_224:                             # %for.end608
	movl	$0, -12(%rbp)
	movl	$-2, -20(%rbp)
.LBB13_225:                             # %for.cond609
                                        # =>This Inner Loop Header: Depth=1
	cmpl	$4, -20(%rbp)
	jge	.LBB13_228
# %bb.226:                              # %for.body612
                                        #   in Loop: Header=BB13_225 Depth=1
	movl	-20(%rbp), %eax
	addl	$2, %eax
	cltq
	movl	-96(%rbp,%rax,4), %eax
	movl	-20(%rbp), %ecx
	addl	$2, %ecx
	movslq	%ecx, %rcx
	imull	Get_Reference_Pixel.COEF(,%rcx,4), %eax
	addl	-12(%rbp), %eax
	movl	%eax, -12(%rbp)
# %bb.227:                              # %for.inc621
                                        #   in Loop: Header=BB13_225 Depth=1
	movl	-20(%rbp), %eax
	addl	$1, %eax
	movl	%eax, -20(%rbp)
	jmp	.LBB13_225
.LBB13_228:                             # %for.end623
	movq	img, %rax
	movl	72684(%rax), %ecx
	movl	-12(%rbp), %eax
	addl	$512, %eax              # imm = 0x200
	cltd
	movl	$1024, %esi             # imm = 0x400
	idivl	%esi
	cmpl	%eax, %ecx
	jge	.LBB13_230
# %bb.229:                              # %cond.true629
	movq	img, %rax
	movl	72684(%rax), %eax
	jmp	.LBB13_231
.LBB13_230:                             # %cond.false631
	movl	-12(%rbp), %eax
	addl	$512, %eax              # imm = 0x200
	cltd
	movl	$1024, %ecx             # imm = 0x400
	idivl	%ecx
.LBB13_231:                             # %cond.end634
	xorl	%ecx, %ecx
	cmpl	%eax, %ecx
	jle	.LBB13_233
# %bb.232:                              # %cond.true638
	xorl	%eax, %eax
	jmp	.LBB13_237
.LBB13_233:                             # %cond.false639
	movq	img, %rax
	movl	72684(%rax), %ecx
	movl	-12(%rbp), %eax
	addl	$512, %eax              # imm = 0x200
	cltd
	movl	$1024, %esi             # imm = 0x400
	idivl	%esi
	cmpl	%eax, %ecx
	jge	.LBB13_235
# %bb.234:                              # %cond.true645
	movq	img, %rax
	movl	72684(%rax), %eax
	jmp	.LBB13_236
.LBB13_235:                             # %cond.false647
	movl	-12(%rbp), %eax
	addl	$512, %eax              # imm = 0x200
	cltd
	movl	$1024, %ecx             # imm = 0x400
	idivl	%ecx
.LBB13_236:                             # %cond.end650
.LBB13_237:                             # %cond.end652
	movl	%eax, -12(%rbp)
	cmpl	$1, -52(%rbp)
	jne	.LBB13_248
# %bb.238:                              # %if.then656
	movl	-12(%rbp), %ecx
	movq	img, %rax
	movl	72684(%rax), %esi
	movl	-88(%rbp), %eax
	addl	$16, %eax
	cltd
	movl	$32, %edi
	idivl	%edi
	cmpl	%eax, %esi
	jge	.LBB13_240
# %bb.239:                              # %cond.true663
	movq	img, %rax
	movl	72684(%rax), %eax
	jmp	.LBB13_241
.LBB13_240:                             # %cond.false665
	movl	-88(%rbp), %eax
	addl	$16, %eax
	cltd
	movl	$32, %esi
	idivl	%esi
.LBB13_241:                             # %cond.end669
	xorl	%edx, %edx
	cmpl	%eax, %edx
	jle	.LBB13_243
# %bb.242:                              # %cond.true673
	xorl	%eax, %eax
	jmp	.LBB13_247
.LBB13_243:                             # %cond.false674
	movq	img, %rax
	movl	72684(%rax), %esi
	movl	-88(%rbp), %eax
	addl	$16, %eax
	cltd
	movl	$32, %edi
	idivl	%edi
	cmpl	%eax, %esi
	jge	.LBB13_245
# %bb.244:                              # %cond.true681
	movq	img, %rax
	movl	72684(%rax), %eax
	jmp	.LBB13_246
.LBB13_245:                             # %cond.false683
	movl	-88(%rbp), %eax
	addl	$16, %eax
	cltd
	movl	$32, %esi
	idivl	%esi
.LBB13_246:                             # %cond.end687
.LBB13_247:                             # %cond.end689
	addl	%eax, %ecx
	movl	%ecx, %eax
	cltd
	movl	$2, %ecx
	idivl	%ecx
	movl	%eax, -12(%rbp)
	jmp	.LBB13_258
.LBB13_248:                             # %if.else693
	movl	-12(%rbp), %ecx
	movq	img, %rax
	movl	72684(%rax), %esi
	movl	-84(%rbp), %eax
	addl	$16, %eax
	cltd
	movl	$32, %edi
	idivl	%edi
	cmpl	%eax, %esi
	jge	.LBB13_250
# %bb.249:                              # %cond.true700
	movq	img, %rax
	movl	72684(%rax), %eax
	jmp	.LBB13_251
.LBB13_250:                             # %cond.false702
	movl	-84(%rbp), %eax
	addl	$16, %eax
	cltd
	movl	$32, %esi
	idivl	%esi
.LBB13_251:                             # %cond.end706
	xorl	%edx, %edx
	cmpl	%eax, %edx
	jle	.LBB13_253
# %bb.252:                              # %cond.true710
	xorl	%eax, %eax
	jmp	.LBB13_257
.LBB13_253:                             # %cond.false711
	movq	img, %rax
	movl	72684(%rax), %esi
	movl	-84(%rbp), %eax
	addl	$16, %eax
	cltd
	movl	$32, %edi
	idivl	%edi
	cmpl	%eax, %esi
	jge	.LBB13_255
# %bb.254:                              # %cond.true718
	movq	img, %rax
	movl	72684(%rax), %eax
	jmp	.LBB13_256
.LBB13_255:                             # %cond.false720
	movl	-84(%rbp), %eax
	addl	$16, %eax
	cltd
	movl	$32, %esi
	idivl	%esi
.LBB13_256:                             # %cond.end724
.LBB13_257:                             # %cond.end726
	addl	%eax, %ecx
	movl	%ecx, %eax
	cltd
	movl	$2, %ecx
	idivl	%ecx
	movl	%eax, -12(%rbp)
.LBB13_258:                             # %if.end730
	jmp	.LBB13_328
.LBB13_259:                             # %if.else731
	movl	$0, -12(%rbp)
	cmpl	$1, -48(%rbp)
	jne	.LBB13_261
# %bb.260:                              # %cond.true734
	movl	-24(%rbp), %eax
	jmp	.LBB13_262
.LBB13_261:                             # %cond.false735
	movl	-24(%rbp), %eax
	addl	$1, %eax
.LBB13_262:                             # %cond.end737
	movl	%eax, -40(%rbp)
	movl	-36(%rbp), %eax
	cmpl	-40(%rbp), %eax
	jge	.LBB13_264
# %bb.263:                              # %cond.true741
	movl	-36(%rbp), %eax
	jmp	.LBB13_265
.LBB13_264:                             # %cond.false742
	movl	-40(%rbp), %eax
.LBB13_265:                             # %cond.end743
	xorl	%ecx, %ecx
	cmpl	%eax, %ecx
	jle	.LBB13_267
# %bb.266:                              # %cond.true747
	xorl	%eax, %eax
	jmp	.LBB13_271
.LBB13_267:                             # %cond.false748
	movl	-36(%rbp), %eax
	cmpl	-40(%rbp), %eax
	jge	.LBB13_269
# %bb.268:                              # %cond.true751
	movl	-36(%rbp), %eax
	jmp	.LBB13_270
.LBB13_269:                             # %cond.false752
	movl	-40(%rbp), %eax
.LBB13_270:                             # %cond.end753
.LBB13_271:                             # %cond.end755
	movl	%eax, -40(%rbp)
	movl	$-2, -20(%rbp)
.LBB13_272:                             # %for.cond757
                                        # =>This Inner Loop Header: Depth=1
	cmpl	$4, -20(%rbp)
	jge	.LBB13_284
# %bb.273:                              # %for.body760
                                        #   in Loop: Header=BB13_272 Depth=1
	movl	-32(%rbp), %eax
	movl	-28(%rbp), %ecx
	addl	-20(%rbp), %ecx
	cmpl	%ecx, %eax
	jge	.LBB13_275
# %bb.274:                              # %cond.true764
                                        #   in Loop: Header=BB13_272 Depth=1
	movl	-32(%rbp), %eax
	jmp	.LBB13_276
.LBB13_275:                             # %cond.false765
                                        #   in Loop: Header=BB13_272 Depth=1
	movl	-28(%rbp), %eax
	addl	-20(%rbp), %eax
.LBB13_276:                             # %cond.end767
                                        #   in Loop: Header=BB13_272 Depth=1
	xorl	%ecx, %ecx
	cmpl	%eax, %ecx
	jle	.LBB13_278
# %bb.277:                              # %cond.true771
                                        #   in Loop: Header=BB13_272 Depth=1
	xorl	%eax, %eax
	jmp	.LBB13_282
.LBB13_278:                             # %cond.false772
                                        #   in Loop: Header=BB13_272 Depth=1
	movl	-32(%rbp), %eax
	movl	-28(%rbp), %ecx
	addl	-20(%rbp), %ecx
	cmpl	%ecx, %eax
	jge	.LBB13_280
# %bb.279:                              # %cond.true776
                                        #   in Loop: Header=BB13_272 Depth=1
	movl	-32(%rbp), %eax
	jmp	.LBB13_281
.LBB13_280:                             # %cond.false777
                                        #   in Loop: Header=BB13_272 Depth=1
	movl	-28(%rbp), %eax
	addl	-20(%rbp), %eax
.LBB13_281:                             # %cond.end779
                                        #   in Loop: Header=BB13_272 Depth=1
.LBB13_282:                             # %cond.end781
                                        #   in Loop: Header=BB13_272 Depth=1
	movl	%eax, -44(%rbp)
	movq	-64(%rbp), %rax
	movslq	-40(%rbp), %rcx
	movq	(%rax,%rcx,8), %rax
	movslq	-44(%rbp), %rcx
	movzwl	(%rax,%rcx,2), %eax
	movl	-20(%rbp), %ecx
	addl	$2, %ecx
	movslq	%ecx, %rcx
	imull	Get_Reference_Pixel.COEF(,%rcx,4), %eax
	addl	-12(%rbp), %eax
	movl	%eax, -12(%rbp)
# %bb.283:                              # %for.inc793
                                        #   in Loop: Header=BB13_272 Depth=1
	movl	-20(%rbp), %eax
	addl	$1, %eax
	movl	%eax, -20(%rbp)
	jmp	.LBB13_272
.LBB13_284:                             # %for.end795
	movq	img, %rax
	movl	72684(%rax), %ecx
	movl	-12(%rbp), %eax
	addl	$16, %eax
	cltd
	movl	$32, %esi
	idivl	%esi
	cmpl	%eax, %ecx
	jge	.LBB13_286
# %bb.285:                              # %cond.true801
	movq	img, %rax
	movl	72684(%rax), %eax
	jmp	.LBB13_287
.LBB13_286:                             # %cond.false803
	movl	-12(%rbp), %eax
	addl	$16, %eax
	cltd
	movl	$32, %ecx
	idivl	%ecx
.LBB13_287:                             # %cond.end806
	xorl	%ecx, %ecx
	cmpl	%eax, %ecx
	jle	.LBB13_289
# %bb.288:                              # %cond.true810
	xorl	%eax, %eax
	jmp	.LBB13_293
.LBB13_289:                             # %cond.false811
	movq	img, %rax
	movl	72684(%rax), %ecx
	movl	-12(%rbp), %eax
	addl	$16, %eax
	cltd
	movl	$32, %esi
	idivl	%esi
	cmpl	%eax, %ecx
	jge	.LBB13_291
# %bb.290:                              # %cond.true817
	movq	img, %rax
	movl	72684(%rax), %eax
	jmp	.LBB13_292
.LBB13_291:                             # %cond.false819
	movl	-12(%rbp), %eax
	addl	$16, %eax
	cltd
	movl	$32, %ecx
	idivl	%ecx
.LBB13_292:                             # %cond.end822
.LBB13_293:                             # %cond.end824
	movl	%eax, -100(%rbp)
	movl	$0, -12(%rbp)
	cmpl	$1, -52(%rbp)
	jne	.LBB13_295
# %bb.294:                              # %cond.true828
	movl	-28(%rbp), %eax
	jmp	.LBB13_296
.LBB13_295:                             # %cond.false829
	movl	-28(%rbp), %eax
	addl	$1, %eax
.LBB13_296:                             # %cond.end831
	movl	%eax, -44(%rbp)
	movl	-32(%rbp), %eax
	cmpl	-44(%rbp), %eax
	jge	.LBB13_298
# %bb.297:                              # %cond.true835
	movl	-32(%rbp), %eax
	jmp	.LBB13_299
.LBB13_298:                             # %cond.false836
	movl	-44(%rbp), %eax
.LBB13_299:                             # %cond.end837
	xorl	%ecx, %ecx
	cmpl	%eax, %ecx
	jle	.LBB13_301
# %bb.300:                              # %cond.true841
	xorl	%eax, %eax
	jmp	.LBB13_305
.LBB13_301:                             # %cond.false842
	movl	-32(%rbp), %eax
	cmpl	-44(%rbp), %eax
	jge	.LBB13_303
# %bb.302:                              # %cond.true845
	movl	-32(%rbp), %eax
	jmp	.LBB13_304
.LBB13_303:                             # %cond.false846
	movl	-44(%rbp), %eax
.LBB13_304:                             # %cond.end847
.LBB13_305:                             # %cond.end849
	movl	%eax, -44(%rbp)
	movl	$-2, -16(%rbp)
.LBB13_306:                             # %for.cond851
                                        # =>This Inner Loop Header: Depth=1
	cmpl	$4, -16(%rbp)
	jge	.LBB13_318
# %bb.307:                              # %for.body854
                                        #   in Loop: Header=BB13_306 Depth=1
	movl	-36(%rbp), %eax
	movl	-24(%rbp), %ecx
	addl	-16(%rbp), %ecx
	cmpl	%ecx, %eax
	jge	.LBB13_309
# %bb.308:                              # %cond.true858
                                        #   in Loop: Header=BB13_306 Depth=1
	movl	-36(%rbp), %eax
	jmp	.LBB13_310
.LBB13_309:                             # %cond.false859
                                        #   in Loop: Header=BB13_306 Depth=1
	movl	-24(%rbp), %eax
	addl	-16(%rbp), %eax
.LBB13_310:                             # %cond.end861
                                        #   in Loop: Header=BB13_306 Depth=1
	xorl	%ecx, %ecx
	cmpl	%eax, %ecx
	jle	.LBB13_312
# %bb.311:                              # %cond.true865
                                        #   in Loop: Header=BB13_306 Depth=1
	xorl	%eax, %eax
	jmp	.LBB13_316
.LBB13_312:                             # %cond.false866
                                        #   in Loop: Header=BB13_306 Depth=1
	movl	-36(%rbp), %eax
	movl	-24(%rbp), %ecx
	addl	-16(%rbp), %ecx
	cmpl	%ecx, %eax
	jge	.LBB13_314
# %bb.313:                              # %cond.true870
                                        #   in Loop: Header=BB13_306 Depth=1
	movl	-36(%rbp), %eax
	jmp	.LBB13_315
.LBB13_314:                             # %cond.false871
                                        #   in Loop: Header=BB13_306 Depth=1
	movl	-24(%rbp), %eax
	addl	-16(%rbp), %eax
.LBB13_315:                             # %cond.end873
                                        #   in Loop: Header=BB13_306 Depth=1
.LBB13_316:                             # %cond.end875
                                        #   in Loop: Header=BB13_306 Depth=1
	movl	%eax, -40(%rbp)
	movq	-64(%rbp), %rax
	movslq	-40(%rbp), %rcx
	movq	(%rax,%rcx,8), %rax
	movslq	-44(%rbp), %rcx
	movzwl	(%rax,%rcx,2), %eax
	movl	-16(%rbp), %ecx
	addl	$2, %ecx
	movslq	%ecx, %rcx
	imull	Get_Reference_Pixel.COEF(,%rcx,4), %eax
	addl	-12(%rbp), %eax
	movl	%eax, -12(%rbp)
# %bb.317:                              # %for.inc887
                                        #   in Loop: Header=BB13_306 Depth=1
	movl	-16(%rbp), %eax
	addl	$1, %eax
	movl	%eax, -16(%rbp)
	jmp	.LBB13_306
.LBB13_318:                             # %for.end889
	movq	img, %rax
	movl	72684(%rax), %ecx
	movl	-12(%rbp), %eax
	addl	$16, %eax
	cltd
	movl	$32, %esi
	idivl	%esi
	cmpl	%eax, %ecx
	jge	.LBB13_320
# %bb.319:                              # %cond.true895
	movq	img, %rax
	movl	72684(%rax), %eax
	jmp	.LBB13_321
.LBB13_320:                             # %cond.false897
	movl	-12(%rbp), %eax
	addl	$16, %eax
	cltd
	movl	$32, %ecx
	idivl	%ecx
.LBB13_321:                             # %cond.end900
	xorl	%ecx, %ecx
	cmpl	%eax, %ecx
	jle	.LBB13_323
# %bb.322:                              # %cond.true904
	xorl	%eax, %eax
	jmp	.LBB13_327
.LBB13_323:                             # %cond.false905
	movq	img, %rax
	movl	72684(%rax), %ecx
	movl	-12(%rbp), %eax
	addl	$16, %eax
	cltd
	movl	$32, %esi
	idivl	%esi
	cmpl	%eax, %ecx
	jge	.LBB13_325
# %bb.324:                              # %cond.true911
	movq	img, %rax
	movl	72684(%rax), %eax
	jmp	.LBB13_326
.LBB13_325:                             # %cond.false913
	movl	-12(%rbp), %eax
	addl	$16, %eax
	cltd
	movl	$32, %ecx
	idivl	%ecx
.LBB13_326:                             # %cond.end916
.LBB13_327:                             # %cond.end918
	movl	%eax, -108(%rbp)
	movl	-100(%rbp), %eax
	addl	-108(%rbp), %eax
	cltd
	movl	$2, %ecx
	idivl	%ecx
	movl	%eax, -12(%rbp)
.LBB13_328:                             # %if.end922
	jmp	.LBB13_329
.LBB13_329:                             # %if.end923
	jmp	.LBB13_330
.LBB13_330:                             # %if.end924
	jmp	.LBB13_331
.LBB13_331:                             # %if.end925
	jmp	.LBB13_332
.LBB13_332:                             # %if.end926
	movl	-12(%rbp), %ebx
	cmpl	$8593617, -104(%rbp)    # imm = 0x8320D1
	jne	.LBB13_334
.LBB13_333:
	movzbl	%bl, %eax
	addq	$104, %rsp
	popq	%rbx
	popq	%rbp
	.cfi_def_cfa %rsp, 8
	retq
.LBB13_334:                             # %func_exit
	.cfi_def_cfa %rbp, 16
	callq	detect_breach
	jmp	.LBB13_333
.Lfunc_end13:
	.size	Get_Reference_Pixel.3, .Lfunc_end13-Get_Reference_Pixel.3
	.cfi_endproc
                                        # -- End function
	.section	.rodata.cst8,"aM",@progbits,8
	.p2align	3               # -- Begin function Build_Status_Map.4
.LCPI14_0:
	.quad	4636737291354636288     # double 100
.LCPI14_1:
	.quad	4746794007244308480     # double 2147483647
	.text
	.globl	Build_Status_Map.4
	.p2align	4, 0x90
	.type	Build_Status_Map.4,@function
Build_Status_Map.4:                     # @Build_Status_Map.4
	.cfi_startproc
# %bb.0:                                # %entry
	pushq	%rbp
	.cfi_def_cfa_offset 16
	.cfi_offset %rbp, -16
	movq	%rsp, %rbp
	.cfi_def_cfa_register %rbp
	subq	$48, %rsp
	movl	$692225840, -40(%rbp)   # imm = 0x29428730
	movq	%rdi, -32(%rbp)
	movl	$-1, -16(%rbp)
	movl	$0, -20(%rbp)
	movl	$0, -4(%rbp)
	movq	img, %rax
	movl	60(%rax), %eax
	cltd
	movl	$16, %ecx
	idivl	%ecx
	movl	%eax, -36(%rbp)
	movq	img, %rax
	movl	52(%rax), %eax
	cltd
	idivl	%ecx
	movl	%eax, -44(%rbp)
	movl	$0, -8(%rbp)
.LBB14_1:                               # %for.cond
                                        # =>This Loop Header: Depth=1
                                        #     Child Loop BB14_3 Depth 2
	movl	-8(%rbp), %eax
	cmpl	-36(%rbp), %eax
	jge	.LBB14_22
# %bb.2:                                # %for.body
                                        #   in Loop: Header=BB14_1 Depth=1
	movl	$0, -12(%rbp)
.LBB14_3:                               # %for.cond2
                                        #   Parent Loop BB14_1 Depth=1
                                        # =>  This Inner Loop Header: Depth=2
	movl	-12(%rbp), %eax
	cmpl	-44(%rbp), %eax
	jge	.LBB14_20
# %bb.4:                                # %for.body4
                                        #   in Loop: Header=BB14_3 Depth=2
	movq	input, %rax
	cmpl	$0, 208(%rax)
	je	.LBB14_6
# %bb.5:                                # %lor.lhs.false
                                        #   in Loop: Header=BB14_3 Depth=2
	movq	img, %rax
	movq	14168(%rax), %rax
	movslq	-20(%rbp), %rcx
	imulq	$632, %rcx, %rcx        # imm = 0x278
	addq	%rcx, %rax
	movl	4(%rax), %eax
	cmpl	-16(%rbp), %eax
	je	.LBB14_13
.LBB14_6:                               # %if.then
                                        #   in Loop: Header=BB14_3 Depth=2
	movl	$0, -4(%rbp)
	callq	rand
	vmovsd	.LCPI14_0(%rip), %xmm0  # xmm0 = mem[0],zero
	vmovsd	.LCPI14_1(%rip), %xmm1  # xmm1 = mem[0],zero
	vcvtsi2sd	%eax, %xmm0, %xmm2
	vdivsd	%xmm1, %xmm2, %xmm1
	vmulsd	%xmm0, %xmm1, %xmm0
	movq	input, %rax
	vcvtsi2sdl	2900(%rax), %xmm0, %xmm1
	vucomisd	%xmm0, %xmm1
	jbe	.LBB14_8
# %bb.7:                                # %if.then10
                                        #   in Loop: Header=BB14_3 Depth=2
	movl	-4(%rbp), %eax
	addl	$3, %eax
	movl	%eax, -4(%rbp)
.LBB14_8:                               # %if.end
                                        #   in Loop: Header=BB14_3 Depth=2
	callq	rand
	vmovsd	.LCPI14_0(%rip), %xmm0  # xmm0 = mem[0],zero
	vmovsd	.LCPI14_1(%rip), %xmm1  # xmm1 = mem[0],zero
	vcvtsi2sd	%eax, %xmm0, %xmm2
	vdivsd	%xmm1, %xmm2, %xmm1
	vmulsd	%xmm0, %xmm1, %xmm0
	movq	input, %rax
	vcvtsi2sdl	2896(%rax), %xmm0, %xmm1
	vucomisd	%xmm0, %xmm1
	jbe	.LBB14_10
# %bb.9:                                # %if.then18
                                        #   in Loop: Header=BB14_3 Depth=2
	movl	-4(%rbp), %eax
	addl	$2, %eax
	movl	%eax, -4(%rbp)
.LBB14_10:                              # %if.end20
                                        #   in Loop: Header=BB14_3 Depth=2
	callq	rand
	vmovsd	.LCPI14_0(%rip), %xmm0  # xmm0 = mem[0],zero
	vmovsd	.LCPI14_1(%rip), %xmm1  # xmm1 = mem[0],zero
	vcvtsi2sd	%eax, %xmm0, %xmm2
	vdivsd	%xmm1, %xmm2, %xmm1
	vmulsd	%xmm0, %xmm1, %xmm0
	movq	input, %rax
	vcvtsi2sdl	2892(%rax), %xmm0, %xmm1
	vucomisd	%xmm0, %xmm1
	jbe	.LBB14_12
# %bb.11:                               # %if.then28
                                        #   in Loop: Header=BB14_3 Depth=2
	movl	$1, -4(%rbp)
.LBB14_12:                              # %if.end29
                                        #   in Loop: Header=BB14_3 Depth=2
	movl	-16(%rbp), %eax
	addl	$1, %eax
	movl	%eax, -16(%rbp)
.LBB14_13:                              # %if.end30
                                        #   in Loop: Header=BB14_3 Depth=2
	cmpl	$0, -4(%rbp)
	jne	.LBB14_15
# %bb.14:                               # %if.then32
                                        #   in Loop: Header=BB14_3 Depth=2
	movq	-32(%rbp), %rax
	movslq	-8(%rbp), %rcx
	movq	(%rax,%rcx,8), %rax
	movslq	-12(%rbp), %rcx
	movb	$0, (%rax,%rcx)
	jmp	.LBB14_18
.LBB14_15:                              # %if.else
                                        #   in Loop: Header=BB14_3 Depth=2
	movl	-4(%rbp), %eax
	movq	-32(%rbp), %rcx
	movslq	-8(%rbp), %rdx
	movq	(%rcx,%rdx,8), %rcx
	movslq	-12(%rbp), %rdx
	movb	%al, (%rcx,%rdx)
	movq	input, %rax
	cmpl	$0, 2364(%rax)
	jne	.LBB14_17
# %bb.16:                               # %if.then44
                                        #   in Loop: Header=BB14_3 Depth=2
	movq	-32(%rbp), %rax
	movslq	-8(%rbp), %rcx
	movq	(%rax,%rcx,8), %rax
	movslq	-12(%rbp), %rcx
	movb	$1, (%rax,%rcx)
.LBB14_17:                              # %if.end49
                                        #   in Loop: Header=BB14_3 Depth=2
	jmp	.LBB14_18
.LBB14_18:                              # %if.end50
                                        #   in Loop: Header=BB14_3 Depth=2
	movl	-20(%rbp), %eax
	addl	$1, %eax
	movl	%eax, -20(%rbp)
# %bb.19:                               # %for.inc
                                        #   in Loop: Header=BB14_3 Depth=2
	movl	-12(%rbp), %eax
	addl	$1, %eax
	movl	%eax, -12(%rbp)
	jmp	.LBB14_3
.LBB14_20:                              # %for.end
                                        #   in Loop: Header=BB14_1 Depth=1
	jmp	.LBB14_21
.LBB14_21:                              # %for.inc53
                                        #   in Loop: Header=BB14_1 Depth=1
	movl	-8(%rbp), %eax
	addl	$1, %eax
	movl	%eax, -8(%rbp)
	jmp	.LBB14_1
.LBB14_22:                              # %for.end55
	cmpl	$692225840, -40(%rbp)   # imm = 0x29428730
	jne	.LBB14_24
.LBB14_23:
	addq	$48, %rsp
	popq	%rbp
	.cfi_def_cfa %rsp, 8
	retq
.LBB14_24:                              # %func_exit
	.cfi_def_cfa %rbp, 16
	callq	detect_breach
	jmp	.LBB14_23
.Lfunc_end14:
	.size	Build_Status_Map.4, .Lfunc_end14-Build_Status_Map.4
	.cfi_endproc
                                        # -- End function
	.globl	Get_Reference_Block.5   # -- Begin function Get_Reference_Block.5
	.p2align	4, 0x90
	.type	Get_Reference_Block.5,@function
Get_Reference_Block.5:                  # @Get_Reference_Block.5
	.cfi_startproc
# %bb.0:                                # %entry
	pushq	%rbp
	.cfi_def_cfa_offset 16
	.cfi_offset %rbp, -16
	movq	%rsp, %rbp
	.cfi_def_cfa_register %rbp
	subq	$64, %rsp
	movl	$1535082390, -32(%rbp)  # imm = 0x5B7F7F96
	movq	%rdi, -56(%rbp)
	movl	%esi, -24(%rbp)
	movl	%edx, -12(%rbp)
	movl	%ecx, -20(%rbp)
	movl	%r8d, -28(%rbp)
	movq	%r9, -48(%rbp)
	movl	-24(%rbp), %eax
	shll	$2, %eax
	shll	$2, %eax
	addl	-28(%rbp), %eax
	movl	%eax, -36(%rbp)
	movl	-12(%rbp), %eax
	shll	$2, %eax
	shll	$2, %eax
	addl	-20(%rbp), %eax
	movl	%eax, -16(%rbp)
	movl	$0, -4(%rbp)
.LBB15_1:                               # %for.cond
                                        # =>This Loop Header: Depth=1
                                        #     Child Loop BB15_3 Depth 2
	cmpl	$4, -4(%rbp)
	jge	.LBB15_8
# %bb.2:                                # %for.body
                                        #   in Loop: Header=BB15_1 Depth=1
	movl	$0, -8(%rbp)
.LBB15_3:                               # %for.cond5
                                        #   Parent Loop BB15_1 Depth=1
                                        # =>  This Inner Loop Header: Depth=2
	cmpl	$4, -8(%rbp)
	jge	.LBB15_6
# %bb.4:                                # %for.body7
                                        #   in Loop: Header=BB15_3 Depth=2
	movq	-56(%rbp), %rdi
	movl	-36(%rbp), %esi
	movl	-4(%rbp), %eax
	shll	$2, %eax
	addl	%eax, %esi
	movl	-16(%rbp), %edx
	movl	-8(%rbp), %eax
	shll	$2, %eax
	addl	%eax, %edx
	callq	Get_Reference_Pixel
	movzbl	%al, %eax
	movq	-48(%rbp), %rcx
	movslq	-4(%rbp), %rdx
	movq	(%rcx,%rdx,8), %rcx
	movslq	-8(%rbp), %rdx
	movw	%ax, (%rcx,%rdx,2)
# %bb.5:                                # %for.inc
                                        #   in Loop: Header=BB15_3 Depth=2
	movl	-8(%rbp), %eax
	addl	$1, %eax
	movl	%eax, -8(%rbp)
	jmp	.LBB15_3
.LBB15_6:                               # %for.end
                                        #   in Loop: Header=BB15_1 Depth=1
	jmp	.LBB15_7
.LBB15_7:                               # %for.inc14
                                        #   in Loop: Header=BB15_1 Depth=1
	movl	-4(%rbp), %eax
	addl	$1, %eax
	movl	%eax, -4(%rbp)
	jmp	.LBB15_1
.LBB15_8:                               # %for.end16
	cmpl	$1535082390, -32(%rbp)  # imm = 0x5B7F7F96
	jne	.LBB15_10
.LBB15_9:
	addq	$64, %rsp
	popq	%rbp
	.cfi_def_cfa %rsp, 8
	retq
.LBB15_10:                              # %func_exit
	.cfi_def_cfa %rbp, 16
	callq	detect_breach
	jmp	.LBB15_9
.Lfunc_end15:
	.size	Get_Reference_Block.5, .Lfunc_end15-Get_Reference_Block.5
	.cfi_endproc
                                        # -- End function
	.section	.rodata.cst8,"aM",@progbits,8
	.p2align	3               # -- Begin function Build_Status_Map.6
.LCPI16_0:
	.quad	4636737291354636288     # double 100
.LCPI16_1:
	.quad	4746794007244308480     # double 2147483647
	.text
	.globl	Build_Status_Map.6
	.p2align	4, 0x90
	.type	Build_Status_Map.6,@function
Build_Status_Map.6:                     # @Build_Status_Map.6
	.cfi_startproc
# %bb.0:                                # %entry
	pushq	%rbp
	.cfi_def_cfa_offset 16
	.cfi_offset %rbp, -16
	movq	%rsp, %rbp
	.cfi_def_cfa_register %rbp
	subq	$48, %rsp
	movl	$1712035080, -40(%rbp)  # imm = 0x660B9508
	movq	%rdi, -32(%rbp)
	movl	$-1, -20(%rbp)
	movl	$0, -16(%rbp)
	movl	$0, -4(%rbp)
	movq	img, %rax
	movl	60(%rax), %eax
	cltd
	movl	$16, %ecx
	idivl	%ecx
	movl	%eax, -36(%rbp)
	movq	img, %rax
	movl	52(%rax), %eax
	cltd
	idivl	%ecx
	movl	%eax, -44(%rbp)
	movl	$0, -12(%rbp)
.LBB16_1:                               # %for.cond
                                        # =>This Loop Header: Depth=1
                                        #     Child Loop BB16_3 Depth 2
	movl	-12(%rbp), %eax
	cmpl	-36(%rbp), %eax
	jge	.LBB16_22
# %bb.2:                                # %for.body
                                        #   in Loop: Header=BB16_1 Depth=1
	movl	$0, -8(%rbp)
.LBB16_3:                               # %for.cond2
                                        #   Parent Loop BB16_1 Depth=1
                                        # =>  This Inner Loop Header: Depth=2
	movl	-8(%rbp), %eax
	cmpl	-44(%rbp), %eax
	jge	.LBB16_20
# %bb.4:                                # %for.body4
                                        #   in Loop: Header=BB16_3 Depth=2
	movq	input, %rax
	cmpl	$0, 208(%rax)
	je	.LBB16_6
# %bb.5:                                # %lor.lhs.false
                                        #   in Loop: Header=BB16_3 Depth=2
	movq	img, %rax
	movq	14168(%rax), %rax
	movslq	-16(%rbp), %rcx
	imulq	$632, %rcx, %rcx        # imm = 0x278
	addq	%rcx, %rax
	movl	4(%rax), %eax
	cmpl	-20(%rbp), %eax
	je	.LBB16_13
.LBB16_6:                               # %if.then
                                        #   in Loop: Header=BB16_3 Depth=2
	movl	$0, -4(%rbp)
	callq	rand
	vmovsd	.LCPI16_0(%rip), %xmm0  # xmm0 = mem[0],zero
	vmovsd	.LCPI16_1(%rip), %xmm1  # xmm1 = mem[0],zero
	vcvtsi2sd	%eax, %xmm0, %xmm2
	vdivsd	%xmm1, %xmm2, %xmm1
	vmulsd	%xmm0, %xmm1, %xmm0
	movq	input, %rax
	vcvtsi2sdl	2900(%rax), %xmm0, %xmm1
	vucomisd	%xmm0, %xmm1
	jbe	.LBB16_8
# %bb.7:                                # %if.then10
                                        #   in Loop: Header=BB16_3 Depth=2
	movl	-4(%rbp), %eax
	addl	$3, %eax
	movl	%eax, -4(%rbp)
.LBB16_8:                               # %if.end
                                        #   in Loop: Header=BB16_3 Depth=2
	callq	rand
	vmovsd	.LCPI16_0(%rip), %xmm0  # xmm0 = mem[0],zero
	vmovsd	.LCPI16_1(%rip), %xmm1  # xmm1 = mem[0],zero
	vcvtsi2sd	%eax, %xmm0, %xmm2
	vdivsd	%xmm1, %xmm2, %xmm1
	vmulsd	%xmm0, %xmm1, %xmm0
	movq	input, %rax
	vcvtsi2sdl	2896(%rax), %xmm0, %xmm1
	vucomisd	%xmm0, %xmm1
	jbe	.LBB16_10
# %bb.9:                                # %if.then18
                                        #   in Loop: Header=BB16_3 Depth=2
	movl	-4(%rbp), %eax
	addl	$2, %eax
	movl	%eax, -4(%rbp)
.LBB16_10:                              # %if.end20
                                        #   in Loop: Header=BB16_3 Depth=2
	callq	rand
	vmovsd	.LCPI16_0(%rip), %xmm0  # xmm0 = mem[0],zero
	vmovsd	.LCPI16_1(%rip), %xmm1  # xmm1 = mem[0],zero
	vcvtsi2sd	%eax, %xmm0, %xmm2
	vdivsd	%xmm1, %xmm2, %xmm1
	vmulsd	%xmm0, %xmm1, %xmm0
	movq	input, %rax
	vcvtsi2sdl	2892(%rax), %xmm0, %xmm1
	vucomisd	%xmm0, %xmm1
	jbe	.LBB16_12
# %bb.11:                               # %if.then28
                                        #   in Loop: Header=BB16_3 Depth=2
	movl	$1, -4(%rbp)
.LBB16_12:                              # %if.end29
                                        #   in Loop: Header=BB16_3 Depth=2
	movl	-20(%rbp), %eax
	addl	$1, %eax
	movl	%eax, -20(%rbp)
.LBB16_13:                              # %if.end30
                                        #   in Loop: Header=BB16_3 Depth=2
	cmpl	$0, -4(%rbp)
	jne	.LBB16_15
# %bb.14:                               # %if.then32
                                        #   in Loop: Header=BB16_3 Depth=2
	movq	-32(%rbp), %rax
	movslq	-12(%rbp), %rcx
	movq	(%rax,%rcx,8), %rax
	movslq	-8(%rbp), %rcx
	movb	$0, (%rax,%rcx)
	jmp	.LBB16_18
.LBB16_15:                              # %if.else
                                        #   in Loop: Header=BB16_3 Depth=2
	movl	-4(%rbp), %eax
	movq	-32(%rbp), %rcx
	movslq	-12(%rbp), %rdx
	movq	(%rcx,%rdx,8), %rcx
	movslq	-8(%rbp), %rdx
	movb	%al, (%rcx,%rdx)
	movq	input, %rax
	cmpl	$0, 2364(%rax)
	jne	.LBB16_17
# %bb.16:                               # %if.then44
                                        #   in Loop: Header=BB16_3 Depth=2
	movq	-32(%rbp), %rax
	movslq	-12(%rbp), %rcx
	movq	(%rax,%rcx,8), %rax
	movslq	-8(%rbp), %rcx
	movb	$1, (%rax,%rcx)
.LBB16_17:                              # %if.end49
                                        #   in Loop: Header=BB16_3 Depth=2
	jmp	.LBB16_18
.LBB16_18:                              # %if.end50
                                        #   in Loop: Header=BB16_3 Depth=2
	movl	-16(%rbp), %eax
	addl	$1, %eax
	movl	%eax, -16(%rbp)
# %bb.19:                               # %for.inc
                                        #   in Loop: Header=BB16_3 Depth=2
	movl	-8(%rbp), %eax
	addl	$1, %eax
	movl	%eax, -8(%rbp)
	jmp	.LBB16_3
.LBB16_20:                              # %for.end
                                        #   in Loop: Header=BB16_1 Depth=1
	jmp	.LBB16_21
.LBB16_21:                              # %for.inc53
                                        #   in Loop: Header=BB16_1 Depth=1
	movl	-12(%rbp), %eax
	addl	$1, %eax
	movl	%eax, -12(%rbp)
	jmp	.LBB16_1
.LBB16_22:                              # %for.end55
	cmpl	$1712035080, -40(%rbp)  # imm = 0x660B9508
	jne	.LBB16_24
.LBB16_23:
	addq	$48, %rsp
	popq	%rbp
	.cfi_def_cfa %rsp, 8
	retq
.LBB16_24:                              # %func_exit
	.cfi_def_cfa %rbp, 16
	callq	detect_breach
	jmp	.LBB16_23
.Lfunc_end16:
	.size	Build_Status_Map.6, .Lfunc_end16-Build_Status_Map.6
	.cfi_endproc
                                        # -- End function
	.globl	Get_Reference_Block.7   # -- Begin function Get_Reference_Block.7
	.p2align	4, 0x90
	.type	Get_Reference_Block.7,@function
Get_Reference_Block.7:                  # @Get_Reference_Block.7
	.cfi_startproc
# %bb.0:                                # %entry
	pushq	%rbp
	.cfi_def_cfa_offset 16
	.cfi_offset %rbp, -16
	movq	%rsp, %rbp
	.cfi_def_cfa_register %rbp
	subq	$64, %rsp
	movl	$573963962, -16(%rbp)   # imm = 0x2235FEBA
	movq	%rdi, -56(%rbp)
	movl	%esi, -28(%rbp)
	movl	%edx, -36(%rbp)
	movl	%ecx, -20(%rbp)
	movl	%r8d, -12(%rbp)
	movq	%r9, -48(%rbp)
	movl	-28(%rbp), %eax
	shll	$2, %eax
	shll	$2, %eax
	addl	-12(%rbp), %eax
	movl	%eax, -32(%rbp)
	movl	-36(%rbp), %eax
	shll	$2, %eax
	shll	$2, %eax
	addl	-20(%rbp), %eax
	movl	%eax, -24(%rbp)
	movl	$0, -8(%rbp)
.LBB17_1:                               # %for.cond
                                        # =>This Loop Header: Depth=1
                                        #     Child Loop BB17_3 Depth 2
	cmpl	$4, -8(%rbp)
	jge	.LBB17_8
# %bb.2:                                # %for.body
                                        #   in Loop: Header=BB17_1 Depth=1
	movl	$0, -4(%rbp)
.LBB17_3:                               # %for.cond5
                                        #   Parent Loop BB17_1 Depth=1
                                        # =>  This Inner Loop Header: Depth=2
	cmpl	$4, -4(%rbp)
	jge	.LBB17_6
# %bb.4:                                # %for.body7
                                        #   in Loop: Header=BB17_3 Depth=2
	movq	-56(%rbp), %rdi
	movl	-32(%rbp), %esi
	movl	-8(%rbp), %eax
	shll	$2, %eax
	addl	%eax, %esi
	movl	-24(%rbp), %edx
	movl	-4(%rbp), %eax
	shll	$2, %eax
	addl	%eax, %edx
	callq	Get_Reference_Pixel
	movzbl	%al, %eax
	movq	-48(%rbp), %rcx
	movslq	-8(%rbp), %rdx
	movq	(%rcx,%rdx,8), %rcx
	movslq	-4(%rbp), %rdx
	movw	%ax, (%rcx,%rdx,2)
# %bb.5:                                # %for.inc
                                        #   in Loop: Header=BB17_3 Depth=2
	movl	-4(%rbp), %eax
	addl	$1, %eax
	movl	%eax, -4(%rbp)
	jmp	.LBB17_3
.LBB17_6:                               # %for.end
                                        #   in Loop: Header=BB17_1 Depth=1
	jmp	.LBB17_7
.LBB17_7:                               # %for.inc14
                                        #   in Loop: Header=BB17_1 Depth=1
	movl	-8(%rbp), %eax
	addl	$1, %eax
	movl	%eax, -8(%rbp)
	jmp	.LBB17_1
.LBB17_8:                               # %for.end16
	cmpl	$573963962, -16(%rbp)   # imm = 0x2235FEBA
	jne	.LBB17_10
.LBB17_9:
	addq	$64, %rsp
	popq	%rbp
	.cfi_def_cfa %rsp, 8
	retq
.LBB17_10:                              # %func_exit
	.cfi_def_cfa %rbp, 16
	callq	detect_breach
	jmp	.LBB17_9
.Lfunc_end17:
	.size	Get_Reference_Block.7, .Lfunc_end17-Get_Reference_Block.7
	.cfi_endproc
                                        # -- End function
	.globl	Get_Reference_Pixel.8   # -- Begin function Get_Reference_Pixel.8
	.p2align	4, 0x90
	.type	Get_Reference_Pixel.8,@function
Get_Reference_Pixel.8:                  # @Get_Reference_Pixel.8
	.cfi_startproc
# %bb.0:                                # %entry
	pushq	%rbp
	.cfi_def_cfa_offset 16
	.cfi_offset %rbp, -16
	movq	%rsp, %rbp
	.cfi_def_cfa_register %rbp
	pushq	%rbx
	subq	$104, %rsp
	.cfi_offset %rbx, -24
	movl	$1460034671, -108(%rbp) # imm = 0x57065C6F
	movq	%rdi, -64(%rbp)
	movl	%esi, -24(%rbp)
	movl	%edx, -28(%rbp)
	movl	$0, -12(%rbp)
	movl	-28(%rbp), %eax
	andl	$3, %eax
	movl	%eax, -52(%rbp)
	movl	-24(%rbp), %eax
	andl	$3, %eax
	movl	%eax, -48(%rbp)
	movl	-28(%rbp), %eax
	subl	-52(%rbp), %eax
	cltd
	movl	$4, %ecx
	idivl	%ecx
	movl	%eax, -28(%rbp)
	movl	-24(%rbp), %eax
	subl	-48(%rbp), %eax
	cltd
	idivl	%ecx
	movl	%eax, -24(%rbp)
	movq	img, %rax
	movl	52(%rax), %eax
	subl	$1, %eax
	movl	%eax, -36(%rbp)
	movq	img, %rax
	movl	60(%rax), %eax
	subl	$1, %eax
	movl	%eax, -32(%rbp)
	cmpl	$0, -52(%rbp)
	jne	.LBB18_21
# %bb.1:                                # %land.lhs.true
	cmpl	$0, -48(%rbp)
	jne	.LBB18_21
# %bb.2:                                # %if.then
	movq	-64(%rbp), %rax
	movl	-32(%rbp), %ecx
	cmpl	-24(%rbp), %ecx
	jge	.LBB18_4
# %bb.3:                                # %cond.true
	movl	-32(%rbp), %ecx
	jmp	.LBB18_5
.LBB18_4:                               # %cond.false
	movl	-24(%rbp), %ecx
.LBB18_5:                               # %cond.end
	xorl	%edx, %edx
	cmpl	%ecx, %edx
	jle	.LBB18_7
# %bb.6:                                # %cond.true9
	xorl	%ecx, %ecx
	jmp	.LBB18_11
.LBB18_7:                               # %cond.false10
	movl	-32(%rbp), %ecx
	cmpl	-24(%rbp), %ecx
	jge	.LBB18_9
# %bb.8:                                # %cond.true12
	movl	-32(%rbp), %ecx
	jmp	.LBB18_10
.LBB18_9:                               # %cond.false13
	movl	-24(%rbp), %ecx
.LBB18_10:                              # %cond.end14
.LBB18_11:                              # %cond.end16
	movslq	%ecx, %rcx
	movq	(%rax,%rcx,8), %rax
	movl	-36(%rbp), %ecx
	cmpl	-28(%rbp), %ecx
	jge	.LBB18_13
# %bb.12:                               # %cond.true19
	movl	-36(%rbp), %ecx
	jmp	.LBB18_14
.LBB18_13:                              # %cond.false20
	movl	-28(%rbp), %ecx
.LBB18_14:                              # %cond.end21
	xorl	%edx, %edx
	cmpl	%ecx, %edx
	jle	.LBB18_16
# %bb.15:                               # %cond.true24
	xorl	%ecx, %ecx
	jmp	.LBB18_20
.LBB18_16:                              # %cond.false25
	movl	-36(%rbp), %ecx
	cmpl	-28(%rbp), %ecx
	jge	.LBB18_18
# %bb.17:                               # %cond.true27
	movl	-36(%rbp), %ecx
	jmp	.LBB18_19
.LBB18_18:                              # %cond.false28
	movl	-28(%rbp), %ecx
.LBB18_19:                              # %cond.end29
.LBB18_20:                              # %cond.end31
	movslq	%ecx, %rcx
	movzwl	(%rax,%rcx,2), %eax
	movl	%eax, -12(%rbp)
	jmp	.LBB18_332
.LBB18_21:                              # %if.else
	cmpl	$0, -48(%rbp)
	jne	.LBB18_77
# %bb.22:                               # %if.then37
	movl	-32(%rbp), %eax
	cmpl	-24(%rbp), %eax
	jge	.LBB18_24
# %bb.23:                               # %cond.true40
	movl	-32(%rbp), %eax
	jmp	.LBB18_25
.LBB18_24:                              # %cond.false41
	movl	-24(%rbp), %eax
.LBB18_25:                              # %cond.end42
	xorl	%ecx, %ecx
	cmpl	%eax, %ecx
	jle	.LBB18_27
# %bb.26:                               # %cond.true46
	xorl	%eax, %eax
	jmp	.LBB18_31
.LBB18_27:                              # %cond.false47
	movl	-32(%rbp), %eax
	cmpl	-24(%rbp), %eax
	jge	.LBB18_29
# %bb.28:                               # %cond.true50
	movl	-32(%rbp), %eax
	jmp	.LBB18_30
.LBB18_29:                              # %cond.false51
	movl	-24(%rbp), %eax
.LBB18_30:                              # %cond.end52
.LBB18_31:                              # %cond.end54
	movl	%eax, -44(%rbp)
	movl	$-2, -20(%rbp)
.LBB18_32:                              # %for.cond
                                        # =>This Inner Loop Header: Depth=1
	cmpl	$4, -20(%rbp)
	jge	.LBB18_44
# %bb.33:                               # %for.body
                                        #   in Loop: Header=BB18_32 Depth=1
	movl	-36(%rbp), %eax
	movl	-28(%rbp), %ecx
	addl	-20(%rbp), %ecx
	cmpl	%ecx, %eax
	jge	.LBB18_35
# %bb.34:                               # %cond.true60
                                        #   in Loop: Header=BB18_32 Depth=1
	movl	-36(%rbp), %eax
	jmp	.LBB18_36
.LBB18_35:                              # %cond.false61
                                        #   in Loop: Header=BB18_32 Depth=1
	movl	-28(%rbp), %eax
	addl	-20(%rbp), %eax
.LBB18_36:                              # %cond.end63
                                        #   in Loop: Header=BB18_32 Depth=1
	xorl	%ecx, %ecx
	cmpl	%eax, %ecx
	jle	.LBB18_38
# %bb.37:                               # %cond.true67
                                        #   in Loop: Header=BB18_32 Depth=1
	xorl	%eax, %eax
	jmp	.LBB18_42
.LBB18_38:                              # %cond.false68
                                        #   in Loop: Header=BB18_32 Depth=1
	movl	-36(%rbp), %eax
	movl	-28(%rbp), %ecx
	addl	-20(%rbp), %ecx
	cmpl	%ecx, %eax
	jge	.LBB18_40
# %bb.39:                               # %cond.true72
                                        #   in Loop: Header=BB18_32 Depth=1
	movl	-36(%rbp), %eax
	jmp	.LBB18_41
.LBB18_40:                              # %cond.false73
                                        #   in Loop: Header=BB18_32 Depth=1
	movl	-28(%rbp), %eax
	addl	-20(%rbp), %eax
.LBB18_41:                              # %cond.end75
                                        #   in Loop: Header=BB18_32 Depth=1
.LBB18_42:                              # %cond.end77
                                        #   in Loop: Header=BB18_32 Depth=1
	movl	%eax, -40(%rbp)
	movq	-64(%rbp), %rax
	movslq	-44(%rbp), %rcx
	movq	(%rax,%rcx,8), %rax
	movslq	-40(%rbp), %rcx
	movzwl	(%rax,%rcx,2), %eax
	movl	-20(%rbp), %ecx
	addl	$2, %ecx
	movslq	%ecx, %rcx
	imull	Get_Reference_Pixel.COEF(,%rcx,4), %eax
	addl	-12(%rbp), %eax
	movl	%eax, -12(%rbp)
# %bb.43:                               # %for.inc
                                        #   in Loop: Header=BB18_32 Depth=1
	movl	-20(%rbp), %eax
	addl	$1, %eax
	movl	%eax, -20(%rbp)
	jmp	.LBB18_32
.LBB18_44:                              # %for.end
	movq	img, %rax
	movl	72684(%rax), %ecx
	movl	-12(%rbp), %eax
	addl	$16, %eax
	cltd
	movl	$32, %esi
	idivl	%esi
	cmpl	%eax, %ecx
	jge	.LBB18_46
# %bb.45:                               # %cond.true92
	movq	img, %rax
	movl	72684(%rax), %eax
	jmp	.LBB18_47
.LBB18_46:                              # %cond.false94
	movl	-12(%rbp), %eax
	addl	$16, %eax
	cltd
	movl	$32, %ecx
	idivl	%ecx
.LBB18_47:                              # %cond.end97
	xorl	%ecx, %ecx
	cmpl	%eax, %ecx
	jle	.LBB18_49
# %bb.48:                               # %cond.true101
	xorl	%eax, %eax
	jmp	.LBB18_53
.LBB18_49:                              # %cond.false102
	movq	img, %rax
	movl	72684(%rax), %ecx
	movl	-12(%rbp), %eax
	addl	$16, %eax
	cltd
	movl	$32, %esi
	idivl	%esi
	cmpl	%eax, %ecx
	jge	.LBB18_51
# %bb.50:                               # %cond.true108
	movq	img, %rax
	movl	72684(%rax), %eax
	jmp	.LBB18_52
.LBB18_51:                              # %cond.false110
	movl	-12(%rbp), %eax
	addl	$16, %eax
	cltd
	movl	$32, %ecx
	idivl	%ecx
.LBB18_52:                              # %cond.end113
.LBB18_53:                              # %cond.end115
	movl	%eax, -12(%rbp)
	cmpl	$1, -52(%rbp)
	jne	.LBB18_64
# %bb.54:                               # %if.then119
	movl	-12(%rbp), %eax
	movq	-64(%rbp), %rcx
	movslq	-44(%rbp), %rdx
	movq	(%rcx,%rdx,8), %rcx
	movl	-36(%rbp), %edx
	cmpl	-28(%rbp), %edx
	jge	.LBB18_56
# %bb.55:                               # %cond.true124
	movl	-36(%rbp), %edx
	jmp	.LBB18_57
.LBB18_56:                              # %cond.false125
	movl	-28(%rbp), %edx
.LBB18_57:                              # %cond.end126
	xorl	%esi, %esi
	cmpl	%edx, %esi
	jle	.LBB18_59
# %bb.58:                               # %cond.true130
	xorl	%edx, %edx
	jmp	.LBB18_63
.LBB18_59:                              # %cond.false131
	movl	-36(%rbp), %edx
	cmpl	-28(%rbp), %edx
	jge	.LBB18_61
# %bb.60:                               # %cond.true134
	movl	-36(%rbp), %edx
	jmp	.LBB18_62
.LBB18_61:                              # %cond.false135
	movl	-28(%rbp), %edx
.LBB18_62:                              # %cond.end136
.LBB18_63:                              # %cond.end138
	movslq	%edx, %rdx
	movzwl	(%rcx,%rdx,2), %ecx
	addl	%ecx, %eax
	cltd
	movl	$2, %ecx
	idivl	%ecx
	movl	%eax, -12(%rbp)
	jmp	.LBB18_76
.LBB18_64:                              # %if.else145
	cmpl	$3, -52(%rbp)
	jne	.LBB18_75
# %bb.65:                               # %if.then148
	movl	-12(%rbp), %eax
	movq	-64(%rbp), %rcx
	movslq	-44(%rbp), %rdx
	movq	(%rcx,%rdx,8), %rcx
	movl	-36(%rbp), %edx
	movl	-28(%rbp), %esi
	addl	$1, %esi
	cmpl	%esi, %edx
	jge	.LBB18_67
# %bb.66:                               # %cond.true154
	movl	-36(%rbp), %edx
	jmp	.LBB18_68
.LBB18_67:                              # %cond.false155
	movl	-28(%rbp), %edx
	addl	$1, %edx
.LBB18_68:                              # %cond.end157
	xorl	%esi, %esi
	cmpl	%edx, %esi
	jle	.LBB18_70
# %bb.69:                               # %cond.true161
	xorl	%edx, %edx
	jmp	.LBB18_74
.LBB18_70:                              # %cond.false162
	movl	-36(%rbp), %edx
	movl	-28(%rbp), %esi
	addl	$1, %esi
	cmpl	%esi, %edx
	jge	.LBB18_72
# %bb.71:                               # %cond.true166
	movl	-36(%rbp), %edx
	jmp	.LBB18_73
.LBB18_72:                              # %cond.false167
	movl	-28(%rbp), %edx
	addl	$1, %edx
.LBB18_73:                              # %cond.end169
.LBB18_74:                              # %cond.end171
	movslq	%edx, %rdx
	movzwl	(%rcx,%rdx,2), %ecx
	addl	%ecx, %eax
	cltd
	movl	$2, %ecx
	idivl	%ecx
	movl	%eax, -12(%rbp)
.LBB18_75:                              # %if.end
	jmp	.LBB18_76
.LBB18_76:                              # %if.end178
	jmp	.LBB18_331
.LBB18_77:                              # %if.else179
	cmpl	$0, -52(%rbp)
	jne	.LBB18_133
# %bb.78:                               # %if.then182
	movl	-36(%rbp), %eax
	cmpl	-28(%rbp), %eax
	jge	.LBB18_80
# %bb.79:                               # %cond.true185
	movl	-36(%rbp), %eax
	jmp	.LBB18_81
.LBB18_80:                              # %cond.false186
	movl	-28(%rbp), %eax
.LBB18_81:                              # %cond.end187
	xorl	%ecx, %ecx
	cmpl	%eax, %ecx
	jle	.LBB18_83
# %bb.82:                               # %cond.true191
	xorl	%eax, %eax
	jmp	.LBB18_87
.LBB18_83:                              # %cond.false192
	movl	-36(%rbp), %eax
	cmpl	-28(%rbp), %eax
	jge	.LBB18_85
# %bb.84:                               # %cond.true195
	movl	-36(%rbp), %eax
	jmp	.LBB18_86
.LBB18_85:                              # %cond.false196
	movl	-28(%rbp), %eax
.LBB18_86:                              # %cond.end197
.LBB18_87:                              # %cond.end199
	movl	%eax, -40(%rbp)
	movl	$-2, -16(%rbp)
.LBB18_88:                              # %for.cond201
                                        # =>This Inner Loop Header: Depth=1
	cmpl	$4, -16(%rbp)
	jge	.LBB18_100
# %bb.89:                               # %for.body204
                                        #   in Loop: Header=BB18_88 Depth=1
	movl	-32(%rbp), %eax
	movl	-24(%rbp), %ecx
	addl	-16(%rbp), %ecx
	cmpl	%ecx, %eax
	jge	.LBB18_91
# %bb.90:                               # %cond.true208
                                        #   in Loop: Header=BB18_88 Depth=1
	movl	-32(%rbp), %eax
	jmp	.LBB18_92
.LBB18_91:                              # %cond.false209
                                        #   in Loop: Header=BB18_88 Depth=1
	movl	-24(%rbp), %eax
	addl	-16(%rbp), %eax
.LBB18_92:                              # %cond.end211
                                        #   in Loop: Header=BB18_88 Depth=1
	xorl	%ecx, %ecx
	cmpl	%eax, %ecx
	jle	.LBB18_94
# %bb.93:                               # %cond.true215
                                        #   in Loop: Header=BB18_88 Depth=1
	xorl	%eax, %eax
	jmp	.LBB18_98
.LBB18_94:                              # %cond.false216
                                        #   in Loop: Header=BB18_88 Depth=1
	movl	-32(%rbp), %eax
	movl	-24(%rbp), %ecx
	addl	-16(%rbp), %ecx
	cmpl	%ecx, %eax
	jge	.LBB18_96
# %bb.95:                               # %cond.true220
                                        #   in Loop: Header=BB18_88 Depth=1
	movl	-32(%rbp), %eax
	jmp	.LBB18_97
.LBB18_96:                              # %cond.false221
                                        #   in Loop: Header=BB18_88 Depth=1
	movl	-24(%rbp), %eax
	addl	-16(%rbp), %eax
.LBB18_97:                              # %cond.end223
                                        #   in Loop: Header=BB18_88 Depth=1
.LBB18_98:                              # %cond.end225
                                        #   in Loop: Header=BB18_88 Depth=1
	movl	%eax, -44(%rbp)
	movq	-64(%rbp), %rax
	movslq	-44(%rbp), %rcx
	movq	(%rax,%rcx,8), %rax
	movslq	-40(%rbp), %rcx
	movzwl	(%rax,%rcx,2), %eax
	movl	-16(%rbp), %ecx
	addl	$2, %ecx
	movslq	%ecx, %rcx
	imull	Get_Reference_Pixel.COEF(,%rcx,4), %eax
	addl	-12(%rbp), %eax
	movl	%eax, -12(%rbp)
# %bb.99:                               # %for.inc237
                                        #   in Loop: Header=BB18_88 Depth=1
	movl	-16(%rbp), %eax
	addl	$1, %eax
	movl	%eax, -16(%rbp)
	jmp	.LBB18_88
.LBB18_100:                             # %for.end239
	movq	img, %rax
	movl	72684(%rax), %ecx
	movl	-12(%rbp), %eax
	addl	$16, %eax
	cltd
	movl	$32, %esi
	idivl	%esi
	cmpl	%eax, %ecx
	jge	.LBB18_102
# %bb.101:                              # %cond.true245
	movq	img, %rax
	movl	72684(%rax), %eax
	jmp	.LBB18_103
.LBB18_102:                             # %cond.false247
	movl	-12(%rbp), %eax
	addl	$16, %eax
	cltd
	movl	$32, %ecx
	idivl	%ecx
.LBB18_103:                             # %cond.end250
	xorl	%ecx, %ecx
	cmpl	%eax, %ecx
	jle	.LBB18_105
# %bb.104:                              # %cond.true254
	xorl	%eax, %eax
	jmp	.LBB18_109
.LBB18_105:                             # %cond.false255
	movq	img, %rax
	movl	72684(%rax), %ecx
	movl	-12(%rbp), %eax
	addl	$16, %eax
	cltd
	movl	$32, %esi
	idivl	%esi
	cmpl	%eax, %ecx
	jge	.LBB18_107
# %bb.106:                              # %cond.true261
	movq	img, %rax
	movl	72684(%rax), %eax
	jmp	.LBB18_108
.LBB18_107:                             # %cond.false263
	movl	-12(%rbp), %eax
	addl	$16, %eax
	cltd
	movl	$32, %ecx
	idivl	%ecx
.LBB18_108:                             # %cond.end266
.LBB18_109:                             # %cond.end268
	movl	%eax, -12(%rbp)
	cmpl	$1, -48(%rbp)
	jne	.LBB18_120
# %bb.110:                              # %if.then272
	movl	-12(%rbp), %eax
	movq	-64(%rbp), %rcx
	movl	-32(%rbp), %edx
	cmpl	-24(%rbp), %edx
	jge	.LBB18_112
# %bb.111:                              # %cond.true275
	movl	-32(%rbp), %edx
	jmp	.LBB18_113
.LBB18_112:                             # %cond.false276
	movl	-24(%rbp), %edx
.LBB18_113:                             # %cond.end277
	xorl	%esi, %esi
	cmpl	%edx, %esi
	jle	.LBB18_115
# %bb.114:                              # %cond.true281
	xorl	%edx, %edx
	jmp	.LBB18_119
.LBB18_115:                             # %cond.false282
	movl	-32(%rbp), %edx
	cmpl	-24(%rbp), %edx
	jge	.LBB18_117
# %bb.116:                              # %cond.true285
	movl	-32(%rbp), %edx
	jmp	.LBB18_118
.LBB18_117:                             # %cond.false286
	movl	-24(%rbp), %edx
.LBB18_118:                             # %cond.end287
.LBB18_119:                             # %cond.end289
	movslq	%edx, %rdx
	movq	(%rcx,%rdx,8), %rcx
	movslq	-40(%rbp), %rdx
	movzwl	(%rcx,%rdx,2), %ecx
	addl	%ecx, %eax
	cltd
	movl	$2, %ecx
	idivl	%ecx
	movl	%eax, -12(%rbp)
	jmp	.LBB18_132
.LBB18_120:                             # %if.else298
	cmpl	$3, -48(%rbp)
	jne	.LBB18_131
# %bb.121:                              # %if.then301
	movl	-12(%rbp), %eax
	movq	-64(%rbp), %rcx
	movl	-32(%rbp), %edx
	movl	-24(%rbp), %esi
	addl	$1, %esi
	cmpl	%esi, %edx
	jge	.LBB18_123
# %bb.122:                              # %cond.true305
	movl	-32(%rbp), %edx
	jmp	.LBB18_124
.LBB18_123:                             # %cond.false306
	movl	-24(%rbp), %edx
	addl	$1, %edx
.LBB18_124:                             # %cond.end308
	xorl	%esi, %esi
	cmpl	%edx, %esi
	jle	.LBB18_126
# %bb.125:                              # %cond.true312
	xorl	%edx, %edx
	jmp	.LBB18_130
.LBB18_126:                             # %cond.false313
	movl	-32(%rbp), %edx
	movl	-24(%rbp), %esi
	addl	$1, %esi
	cmpl	%esi, %edx
	jge	.LBB18_128
# %bb.127:                              # %cond.true317
	movl	-32(%rbp), %edx
	jmp	.LBB18_129
.LBB18_128:                             # %cond.false318
	movl	-24(%rbp), %edx
	addl	$1, %edx
.LBB18_129:                             # %cond.end320
.LBB18_130:                             # %cond.end322
	movslq	%edx, %rdx
	movq	(%rcx,%rdx,8), %rcx
	movslq	-40(%rbp), %rdx
	movzwl	(%rcx,%rdx,2), %ecx
	addl	%ecx, %eax
	cltd
	movl	$2, %ecx
	idivl	%ecx
	movl	%eax, -12(%rbp)
.LBB18_131:                             # %if.end331
	jmp	.LBB18_132
.LBB18_132:                             # %if.end332
	jmp	.LBB18_330
.LBB18_133:                             # %if.else333
	cmpl	$2, -52(%rbp)
	jne	.LBB18_197
# %bb.134:                              # %if.then336
	movl	$-2, -16(%rbp)
.LBB18_135:                             # %for.cond337
                                        # =>This Loop Header: Depth=1
                                        #     Child Loop BB18_146 Depth 2
	cmpl	$4, -16(%rbp)
	jge	.LBB18_160
# %bb.136:                              # %for.body340
                                        #   in Loop: Header=BB18_135 Depth=1
	movl	$0, -12(%rbp)
	movl	-32(%rbp), %eax
	movl	-24(%rbp), %ecx
	addl	-16(%rbp), %ecx
	cmpl	%ecx, %eax
	jge	.LBB18_138
# %bb.137:                              # %cond.true344
                                        #   in Loop: Header=BB18_135 Depth=1
	movl	-32(%rbp), %eax
	jmp	.LBB18_139
.LBB18_138:                             # %cond.false345
                                        #   in Loop: Header=BB18_135 Depth=1
	movl	-24(%rbp), %eax
	addl	-16(%rbp), %eax
.LBB18_139:                             # %cond.end347
                                        #   in Loop: Header=BB18_135 Depth=1
	xorl	%ecx, %ecx
	cmpl	%eax, %ecx
	jle	.LBB18_141
# %bb.140:                              # %cond.true351
                                        #   in Loop: Header=BB18_135 Depth=1
	xorl	%eax, %eax
	jmp	.LBB18_145
.LBB18_141:                             # %cond.false352
                                        #   in Loop: Header=BB18_135 Depth=1
	movl	-32(%rbp), %eax
	movl	-24(%rbp), %ecx
	addl	-16(%rbp), %ecx
	cmpl	%ecx, %eax
	jge	.LBB18_143
# %bb.142:                              # %cond.true356
                                        #   in Loop: Header=BB18_135 Depth=1
	movl	-32(%rbp), %eax
	jmp	.LBB18_144
.LBB18_143:                             # %cond.false357
                                        #   in Loop: Header=BB18_135 Depth=1
	movl	-24(%rbp), %eax
	addl	-16(%rbp), %eax
.LBB18_144:                             # %cond.end359
                                        #   in Loop: Header=BB18_135 Depth=1
.LBB18_145:                             # %cond.end361
                                        #   in Loop: Header=BB18_135 Depth=1
	movl	%eax, -44(%rbp)
	movl	$-2, -20(%rbp)
.LBB18_146:                             # %for.cond363
                                        #   Parent Loop BB18_135 Depth=1
                                        # =>  This Inner Loop Header: Depth=2
	cmpl	$4, -20(%rbp)
	jge	.LBB18_158
# %bb.147:                              # %for.body366
                                        #   in Loop: Header=BB18_146 Depth=2
	movl	-36(%rbp), %eax
	movl	-28(%rbp), %ecx
	addl	-20(%rbp), %ecx
	cmpl	%ecx, %eax
	jge	.LBB18_149
# %bb.148:                              # %cond.true370
                                        #   in Loop: Header=BB18_146 Depth=2
	movl	-36(%rbp), %eax
	jmp	.LBB18_150
.LBB18_149:                             # %cond.false371
                                        #   in Loop: Header=BB18_146 Depth=2
	movl	-28(%rbp), %eax
	addl	-20(%rbp), %eax
.LBB18_150:                             # %cond.end373
                                        #   in Loop: Header=BB18_146 Depth=2
	xorl	%ecx, %ecx
	cmpl	%eax, %ecx
	jle	.LBB18_152
# %bb.151:                              # %cond.true377
                                        #   in Loop: Header=BB18_146 Depth=2
	xorl	%eax, %eax
	jmp	.LBB18_156
.LBB18_152:                             # %cond.false378
                                        #   in Loop: Header=BB18_146 Depth=2
	movl	-36(%rbp), %eax
	movl	-28(%rbp), %ecx
	addl	-20(%rbp), %ecx
	cmpl	%ecx, %eax
	jge	.LBB18_154
# %bb.153:                              # %cond.true382
                                        #   in Loop: Header=BB18_146 Depth=2
	movl	-36(%rbp), %eax
	jmp	.LBB18_155
.LBB18_154:                             # %cond.false383
                                        #   in Loop: Header=BB18_146 Depth=2
	movl	-28(%rbp), %eax
	addl	-20(%rbp), %eax
.LBB18_155:                             # %cond.end385
                                        #   in Loop: Header=BB18_146 Depth=2
.LBB18_156:                             # %cond.end387
                                        #   in Loop: Header=BB18_146 Depth=2
	movl	%eax, -40(%rbp)
	movq	-64(%rbp), %rax
	movslq	-44(%rbp), %rcx
	movq	(%rax,%rcx,8), %rax
	movslq	-40(%rbp), %rcx
	movzwl	(%rax,%rcx,2), %eax
	movl	-20(%rbp), %ecx
	addl	$2, %ecx
	movslq	%ecx, %rcx
	imull	Get_Reference_Pixel.COEF(,%rcx,4), %eax
	addl	-12(%rbp), %eax
	movl	%eax, -12(%rbp)
# %bb.157:                              # %for.inc399
                                        #   in Loop: Header=BB18_146 Depth=2
	movl	-20(%rbp), %eax
	addl	$1, %eax
	movl	%eax, -20(%rbp)
	jmp	.LBB18_146
.LBB18_158:                             # %for.end401
                                        #   in Loop: Header=BB18_135 Depth=1
	movl	-12(%rbp), %eax
	movl	-16(%rbp), %ecx
	addl	$2, %ecx
	movslq	%ecx, %rcx
	movl	%eax, -96(%rbp,%rcx,4)
# %bb.159:                              # %for.inc405
                                        #   in Loop: Header=BB18_135 Depth=1
	movl	-16(%rbp), %eax
	addl	$1, %eax
	movl	%eax, -16(%rbp)
	jmp	.LBB18_135
.LBB18_160:                             # %for.end407
	movl	$0, -12(%rbp)
	movl	$-2, -16(%rbp)
.LBB18_161:                             # %for.cond408
                                        # =>This Inner Loop Header: Depth=1
	cmpl	$4, -16(%rbp)
	jge	.LBB18_164
# %bb.162:                              # %for.body411
                                        #   in Loop: Header=BB18_161 Depth=1
	movl	-16(%rbp), %eax
	addl	$2, %eax
	cltq
	movl	-96(%rbp,%rax,4), %eax
	movl	-16(%rbp), %ecx
	addl	$2, %ecx
	movslq	%ecx, %rcx
	imull	Get_Reference_Pixel.COEF(,%rcx,4), %eax
	addl	-12(%rbp), %eax
	movl	%eax, -12(%rbp)
# %bb.163:                              # %for.inc420
                                        #   in Loop: Header=BB18_161 Depth=1
	movl	-16(%rbp), %eax
	addl	$1, %eax
	movl	%eax, -16(%rbp)
	jmp	.LBB18_161
.LBB18_164:                             # %for.end422
	movq	img, %rax
	movl	72684(%rax), %ecx
	movl	-12(%rbp), %eax
	addl	$512, %eax              # imm = 0x200
	cltd
	movl	$1024, %esi             # imm = 0x400
	idivl	%esi
	cmpl	%eax, %ecx
	jge	.LBB18_166
# %bb.165:                              # %cond.true428
	movq	img, %rax
	movl	72684(%rax), %eax
	jmp	.LBB18_167
.LBB18_166:                             # %cond.false430
	movl	-12(%rbp), %eax
	addl	$512, %eax              # imm = 0x200
	cltd
	movl	$1024, %ecx             # imm = 0x400
	idivl	%ecx
.LBB18_167:                             # %cond.end433
	xorl	%ecx, %ecx
	cmpl	%eax, %ecx
	jle	.LBB18_169
# %bb.168:                              # %cond.true437
	xorl	%eax, %eax
	jmp	.LBB18_173
.LBB18_169:                             # %cond.false438
	movq	img, %rax
	movl	72684(%rax), %ecx
	movl	-12(%rbp), %eax
	addl	$512, %eax              # imm = 0x200
	cltd
	movl	$1024, %esi             # imm = 0x400
	idivl	%esi
	cmpl	%eax, %ecx
	jge	.LBB18_171
# %bb.170:                              # %cond.true444
	movq	img, %rax
	movl	72684(%rax), %eax
	jmp	.LBB18_172
.LBB18_171:                             # %cond.false446
	movl	-12(%rbp), %eax
	addl	$512, %eax              # imm = 0x200
	cltd
	movl	$1024, %ecx             # imm = 0x400
	idivl	%ecx
.LBB18_172:                             # %cond.end449
.LBB18_173:                             # %cond.end451
	movl	%eax, -12(%rbp)
	cmpl	$1, -48(%rbp)
	jne	.LBB18_184
# %bb.174:                              # %if.then455
	movl	-12(%rbp), %ecx
	movq	img, %rax
	movl	72684(%rax), %esi
	movl	-88(%rbp), %eax
	addl	$16, %eax
	cltd
	movl	$32, %edi
	idivl	%edi
	cmpl	%eax, %esi
	jge	.LBB18_176
# %bb.175:                              # %cond.true462
	movq	img, %rax
	movl	72684(%rax), %eax
	jmp	.LBB18_177
.LBB18_176:                             # %cond.false464
	movl	-88(%rbp), %eax
	addl	$16, %eax
	cltd
	movl	$32, %esi
	idivl	%esi
.LBB18_177:                             # %cond.end468
	xorl	%edx, %edx
	cmpl	%eax, %edx
	jle	.LBB18_179
# %bb.178:                              # %cond.true472
	xorl	%eax, %eax
	jmp	.LBB18_183
.LBB18_179:                             # %cond.false473
	movq	img, %rax
	movl	72684(%rax), %esi
	movl	-88(%rbp), %eax
	addl	$16, %eax
	cltd
	movl	$32, %edi
	idivl	%edi
	cmpl	%eax, %esi
	jge	.LBB18_181
# %bb.180:                              # %cond.true480
	movq	img, %rax
	movl	72684(%rax), %eax
	jmp	.LBB18_182
.LBB18_181:                             # %cond.false482
	movl	-88(%rbp), %eax
	addl	$16, %eax
	cltd
	movl	$32, %esi
	idivl	%esi
.LBB18_182:                             # %cond.end486
.LBB18_183:                             # %cond.end488
	addl	%eax, %ecx
	movl	%ecx, %eax
	cltd
	movl	$2, %ecx
	idivl	%ecx
	movl	%eax, -12(%rbp)
	jmp	.LBB18_196
.LBB18_184:                             # %if.else492
	cmpl	$3, -48(%rbp)
	jne	.LBB18_195
# %bb.185:                              # %if.then495
	movl	-12(%rbp), %ecx
	movq	img, %rax
	movl	72684(%rax), %esi
	movl	-84(%rbp), %eax
	addl	$16, %eax
	cltd
	movl	$32, %edi
	idivl	%edi
	cmpl	%eax, %esi
	jge	.LBB18_187
# %bb.186:                              # %cond.true502
	movq	img, %rax
	movl	72684(%rax), %eax
	jmp	.LBB18_188
.LBB18_187:                             # %cond.false504
	movl	-84(%rbp), %eax
	addl	$16, %eax
	cltd
	movl	$32, %esi
	idivl	%esi
.LBB18_188:                             # %cond.end508
	xorl	%edx, %edx
	cmpl	%eax, %edx
	jle	.LBB18_190
# %bb.189:                              # %cond.true512
	xorl	%eax, %eax
	jmp	.LBB18_194
.LBB18_190:                             # %cond.false513
	movq	img, %rax
	movl	72684(%rax), %esi
	movl	-84(%rbp), %eax
	addl	$16, %eax
	cltd
	movl	$32, %edi
	idivl	%edi
	cmpl	%eax, %esi
	jge	.LBB18_192
# %bb.191:                              # %cond.true520
	movq	img, %rax
	movl	72684(%rax), %eax
	jmp	.LBB18_193
.LBB18_192:                             # %cond.false522
	movl	-84(%rbp), %eax
	addl	$16, %eax
	cltd
	movl	$32, %esi
	idivl	%esi
.LBB18_193:                             # %cond.end526
.LBB18_194:                             # %cond.end528
	addl	%eax, %ecx
	movl	%ecx, %eax
	cltd
	movl	$2, %ecx
	idivl	%ecx
	movl	%eax, -12(%rbp)
.LBB18_195:                             # %if.end532
	jmp	.LBB18_196
.LBB18_196:                             # %if.end533
	jmp	.LBB18_329
.LBB18_197:                             # %if.else534
	cmpl	$2, -48(%rbp)
	jne	.LBB18_259
# %bb.198:                              # %if.then537
	movl	$-2, -20(%rbp)
.LBB18_199:                             # %for.cond538
                                        # =>This Loop Header: Depth=1
                                        #     Child Loop BB18_210 Depth 2
	cmpl	$4, -20(%rbp)
	jge	.LBB18_224
# %bb.200:                              # %for.body541
                                        #   in Loop: Header=BB18_199 Depth=1
	movl	$0, -12(%rbp)
	movl	-36(%rbp), %eax
	movl	-28(%rbp), %ecx
	addl	-20(%rbp), %ecx
	cmpl	%ecx, %eax
	jge	.LBB18_202
# %bb.201:                              # %cond.true545
                                        #   in Loop: Header=BB18_199 Depth=1
	movl	-36(%rbp), %eax
	jmp	.LBB18_203
.LBB18_202:                             # %cond.false546
                                        #   in Loop: Header=BB18_199 Depth=1
	movl	-28(%rbp), %eax
	addl	-20(%rbp), %eax
.LBB18_203:                             # %cond.end548
                                        #   in Loop: Header=BB18_199 Depth=1
	xorl	%ecx, %ecx
	cmpl	%eax, %ecx
	jle	.LBB18_205
# %bb.204:                              # %cond.true552
                                        #   in Loop: Header=BB18_199 Depth=1
	xorl	%eax, %eax
	jmp	.LBB18_209
.LBB18_205:                             # %cond.false553
                                        #   in Loop: Header=BB18_199 Depth=1
	movl	-36(%rbp), %eax
	movl	-28(%rbp), %ecx
	addl	-20(%rbp), %ecx
	cmpl	%ecx, %eax
	jge	.LBB18_207
# %bb.206:                              # %cond.true557
                                        #   in Loop: Header=BB18_199 Depth=1
	movl	-36(%rbp), %eax
	jmp	.LBB18_208
.LBB18_207:                             # %cond.false558
                                        #   in Loop: Header=BB18_199 Depth=1
	movl	-28(%rbp), %eax
	addl	-20(%rbp), %eax
.LBB18_208:                             # %cond.end560
                                        #   in Loop: Header=BB18_199 Depth=1
.LBB18_209:                             # %cond.end562
                                        #   in Loop: Header=BB18_199 Depth=1
	movl	%eax, -40(%rbp)
	movl	$-2, -16(%rbp)
.LBB18_210:                             # %for.cond564
                                        #   Parent Loop BB18_199 Depth=1
                                        # =>  This Inner Loop Header: Depth=2
	cmpl	$4, -16(%rbp)
	jge	.LBB18_222
# %bb.211:                              # %for.body567
                                        #   in Loop: Header=BB18_210 Depth=2
	movl	-32(%rbp), %eax
	movl	-24(%rbp), %ecx
	addl	-16(%rbp), %ecx
	cmpl	%ecx, %eax
	jge	.LBB18_213
# %bb.212:                              # %cond.true571
                                        #   in Loop: Header=BB18_210 Depth=2
	movl	-32(%rbp), %eax
	jmp	.LBB18_214
.LBB18_213:                             # %cond.false572
                                        #   in Loop: Header=BB18_210 Depth=2
	movl	-24(%rbp), %eax
	addl	-16(%rbp), %eax
.LBB18_214:                             # %cond.end574
                                        #   in Loop: Header=BB18_210 Depth=2
	xorl	%ecx, %ecx
	cmpl	%eax, %ecx
	jle	.LBB18_216
# %bb.215:                              # %cond.true578
                                        #   in Loop: Header=BB18_210 Depth=2
	xorl	%eax, %eax
	jmp	.LBB18_220
.LBB18_216:                             # %cond.false579
                                        #   in Loop: Header=BB18_210 Depth=2
	movl	-32(%rbp), %eax
	movl	-24(%rbp), %ecx
	addl	-16(%rbp), %ecx
	cmpl	%ecx, %eax
	jge	.LBB18_218
# %bb.217:                              # %cond.true583
                                        #   in Loop: Header=BB18_210 Depth=2
	movl	-32(%rbp), %eax
	jmp	.LBB18_219
.LBB18_218:                             # %cond.false584
                                        #   in Loop: Header=BB18_210 Depth=2
	movl	-24(%rbp), %eax
	addl	-16(%rbp), %eax
.LBB18_219:                             # %cond.end586
                                        #   in Loop: Header=BB18_210 Depth=2
.LBB18_220:                             # %cond.end588
                                        #   in Loop: Header=BB18_210 Depth=2
	movl	%eax, -44(%rbp)
	movq	-64(%rbp), %rax
	movslq	-44(%rbp), %rcx
	movq	(%rax,%rcx,8), %rax
	movslq	-40(%rbp), %rcx
	movzwl	(%rax,%rcx,2), %eax
	movl	-16(%rbp), %ecx
	addl	$2, %ecx
	movslq	%ecx, %rcx
	imull	Get_Reference_Pixel.COEF(,%rcx,4), %eax
	addl	-12(%rbp), %eax
	movl	%eax, -12(%rbp)
# %bb.221:                              # %for.inc600
                                        #   in Loop: Header=BB18_210 Depth=2
	movl	-16(%rbp), %eax
	addl	$1, %eax
	movl	%eax, -16(%rbp)
	jmp	.LBB18_210
.LBB18_222:                             # %for.end602
                                        #   in Loop: Header=BB18_199 Depth=1
	movl	-12(%rbp), %eax
	movl	-20(%rbp), %ecx
	addl	$2, %ecx
	movslq	%ecx, %rcx
	movl	%eax, -96(%rbp,%rcx,4)
# %bb.223:                              # %for.inc606
                                        #   in Loop: Header=BB18_199 Depth=1
	movl	-20(%rbp), %eax
	addl	$1, %eax
	movl	%eax, -20(%rbp)
	jmp	.LBB18_199
.LBB18_224:                             # %for.end608
	movl	$0, -12(%rbp)
	movl	$-2, -20(%rbp)
.LBB18_225:                             # %for.cond609
                                        # =>This Inner Loop Header: Depth=1
	cmpl	$4, -20(%rbp)
	jge	.LBB18_228
# %bb.226:                              # %for.body612
                                        #   in Loop: Header=BB18_225 Depth=1
	movl	-20(%rbp), %eax
	addl	$2, %eax
	cltq
	movl	-96(%rbp,%rax,4), %eax
	movl	-20(%rbp), %ecx
	addl	$2, %ecx
	movslq	%ecx, %rcx
	imull	Get_Reference_Pixel.COEF(,%rcx,4), %eax
	addl	-12(%rbp), %eax
	movl	%eax, -12(%rbp)
# %bb.227:                              # %for.inc621
                                        #   in Loop: Header=BB18_225 Depth=1
	movl	-20(%rbp), %eax
	addl	$1, %eax
	movl	%eax, -20(%rbp)
	jmp	.LBB18_225
.LBB18_228:                             # %for.end623
	movq	img, %rax
	movl	72684(%rax), %ecx
	movl	-12(%rbp), %eax
	addl	$512, %eax              # imm = 0x200
	cltd
	movl	$1024, %esi             # imm = 0x400
	idivl	%esi
	cmpl	%eax, %ecx
	jge	.LBB18_230
# %bb.229:                              # %cond.true629
	movq	img, %rax
	movl	72684(%rax), %eax
	jmp	.LBB18_231
.LBB18_230:                             # %cond.false631
	movl	-12(%rbp), %eax
	addl	$512, %eax              # imm = 0x200
	cltd
	movl	$1024, %ecx             # imm = 0x400
	idivl	%ecx
.LBB18_231:                             # %cond.end634
	xorl	%ecx, %ecx
	cmpl	%eax, %ecx
	jle	.LBB18_233
# %bb.232:                              # %cond.true638
	xorl	%eax, %eax
	jmp	.LBB18_237
.LBB18_233:                             # %cond.false639
	movq	img, %rax
	movl	72684(%rax), %ecx
	movl	-12(%rbp), %eax
	addl	$512, %eax              # imm = 0x200
	cltd
	movl	$1024, %esi             # imm = 0x400
	idivl	%esi
	cmpl	%eax, %ecx
	jge	.LBB18_235
# %bb.234:                              # %cond.true645
	movq	img, %rax
	movl	72684(%rax), %eax
	jmp	.LBB18_236
.LBB18_235:                             # %cond.false647
	movl	-12(%rbp), %eax
	addl	$512, %eax              # imm = 0x200
	cltd
	movl	$1024, %ecx             # imm = 0x400
	idivl	%ecx
.LBB18_236:                             # %cond.end650
.LBB18_237:                             # %cond.end652
	movl	%eax, -12(%rbp)
	cmpl	$1, -52(%rbp)
	jne	.LBB18_248
# %bb.238:                              # %if.then656
	movl	-12(%rbp), %ecx
	movq	img, %rax
	movl	72684(%rax), %esi
	movl	-88(%rbp), %eax
	addl	$16, %eax
	cltd
	movl	$32, %edi
	idivl	%edi
	cmpl	%eax, %esi
	jge	.LBB18_240
# %bb.239:                              # %cond.true663
	movq	img, %rax
	movl	72684(%rax), %eax
	jmp	.LBB18_241
.LBB18_240:                             # %cond.false665
	movl	-88(%rbp), %eax
	addl	$16, %eax
	cltd
	movl	$32, %esi
	idivl	%esi
.LBB18_241:                             # %cond.end669
	xorl	%edx, %edx
	cmpl	%eax, %edx
	jle	.LBB18_243
# %bb.242:                              # %cond.true673
	xorl	%eax, %eax
	jmp	.LBB18_247
.LBB18_243:                             # %cond.false674
	movq	img, %rax
	movl	72684(%rax), %esi
	movl	-88(%rbp), %eax
	addl	$16, %eax
	cltd
	movl	$32, %edi
	idivl	%edi
	cmpl	%eax, %esi
	jge	.LBB18_245
# %bb.244:                              # %cond.true681
	movq	img, %rax
	movl	72684(%rax), %eax
	jmp	.LBB18_246
.LBB18_245:                             # %cond.false683
	movl	-88(%rbp), %eax
	addl	$16, %eax
	cltd
	movl	$32, %esi
	idivl	%esi
.LBB18_246:                             # %cond.end687
.LBB18_247:                             # %cond.end689
	addl	%eax, %ecx
	movl	%ecx, %eax
	cltd
	movl	$2, %ecx
	idivl	%ecx
	movl	%eax, -12(%rbp)
	jmp	.LBB18_258
.LBB18_248:                             # %if.else693
	movl	-12(%rbp), %ecx
	movq	img, %rax
	movl	72684(%rax), %esi
	movl	-84(%rbp), %eax
	addl	$16, %eax
	cltd
	movl	$32, %edi
	idivl	%edi
	cmpl	%eax, %esi
	jge	.LBB18_250
# %bb.249:                              # %cond.true700
	movq	img, %rax
	movl	72684(%rax), %eax
	jmp	.LBB18_251
.LBB18_250:                             # %cond.false702
	movl	-84(%rbp), %eax
	addl	$16, %eax
	cltd
	movl	$32, %esi
	idivl	%esi
.LBB18_251:                             # %cond.end706
	xorl	%edx, %edx
	cmpl	%eax, %edx
	jle	.LBB18_253
# %bb.252:                              # %cond.true710
	xorl	%eax, %eax
	jmp	.LBB18_257
.LBB18_253:                             # %cond.false711
	movq	img, %rax
	movl	72684(%rax), %esi
	movl	-84(%rbp), %eax
	addl	$16, %eax
	cltd
	movl	$32, %edi
	idivl	%edi
	cmpl	%eax, %esi
	jge	.LBB18_255
# %bb.254:                              # %cond.true718
	movq	img, %rax
	movl	72684(%rax), %eax
	jmp	.LBB18_256
.LBB18_255:                             # %cond.false720
	movl	-84(%rbp), %eax
	addl	$16, %eax
	cltd
	movl	$32, %esi
	idivl	%esi
.LBB18_256:                             # %cond.end724
.LBB18_257:                             # %cond.end726
	addl	%eax, %ecx
	movl	%ecx, %eax
	cltd
	movl	$2, %ecx
	idivl	%ecx
	movl	%eax, -12(%rbp)
.LBB18_258:                             # %if.end730
	jmp	.LBB18_328
.LBB18_259:                             # %if.else731
	movl	$0, -12(%rbp)
	cmpl	$1, -48(%rbp)
	jne	.LBB18_261
# %bb.260:                              # %cond.true734
	movl	-24(%rbp), %eax
	jmp	.LBB18_262
.LBB18_261:                             # %cond.false735
	movl	-24(%rbp), %eax
	addl	$1, %eax
.LBB18_262:                             # %cond.end737
	movl	%eax, -44(%rbp)
	movl	-32(%rbp), %eax
	cmpl	-44(%rbp), %eax
	jge	.LBB18_264
# %bb.263:                              # %cond.true741
	movl	-32(%rbp), %eax
	jmp	.LBB18_265
.LBB18_264:                             # %cond.false742
	movl	-44(%rbp), %eax
.LBB18_265:                             # %cond.end743
	xorl	%ecx, %ecx
	cmpl	%eax, %ecx
	jle	.LBB18_267
# %bb.266:                              # %cond.true747
	xorl	%eax, %eax
	jmp	.LBB18_271
.LBB18_267:                             # %cond.false748
	movl	-32(%rbp), %eax
	cmpl	-44(%rbp), %eax
	jge	.LBB18_269
# %bb.268:                              # %cond.true751
	movl	-32(%rbp), %eax
	jmp	.LBB18_270
.LBB18_269:                             # %cond.false752
	movl	-44(%rbp), %eax
.LBB18_270:                             # %cond.end753
.LBB18_271:                             # %cond.end755
	movl	%eax, -44(%rbp)
	movl	$-2, -20(%rbp)
.LBB18_272:                             # %for.cond757
                                        # =>This Inner Loop Header: Depth=1
	cmpl	$4, -20(%rbp)
	jge	.LBB18_284
# %bb.273:                              # %for.body760
                                        #   in Loop: Header=BB18_272 Depth=1
	movl	-36(%rbp), %eax
	movl	-28(%rbp), %ecx
	addl	-20(%rbp), %ecx
	cmpl	%ecx, %eax
	jge	.LBB18_275
# %bb.274:                              # %cond.true764
                                        #   in Loop: Header=BB18_272 Depth=1
	movl	-36(%rbp), %eax
	jmp	.LBB18_276
.LBB18_275:                             # %cond.false765
                                        #   in Loop: Header=BB18_272 Depth=1
	movl	-28(%rbp), %eax
	addl	-20(%rbp), %eax
.LBB18_276:                             # %cond.end767
                                        #   in Loop: Header=BB18_272 Depth=1
	xorl	%ecx, %ecx
	cmpl	%eax, %ecx
	jle	.LBB18_278
# %bb.277:                              # %cond.true771
                                        #   in Loop: Header=BB18_272 Depth=1
	xorl	%eax, %eax
	jmp	.LBB18_282
.LBB18_278:                             # %cond.false772
                                        #   in Loop: Header=BB18_272 Depth=1
	movl	-36(%rbp), %eax
	movl	-28(%rbp), %ecx
	addl	-20(%rbp), %ecx
	cmpl	%ecx, %eax
	jge	.LBB18_280
# %bb.279:                              # %cond.true776
                                        #   in Loop: Header=BB18_272 Depth=1
	movl	-36(%rbp), %eax
	jmp	.LBB18_281
.LBB18_280:                             # %cond.false777
                                        #   in Loop: Header=BB18_272 Depth=1
	movl	-28(%rbp), %eax
	addl	-20(%rbp), %eax
.LBB18_281:                             # %cond.end779
                                        #   in Loop: Header=BB18_272 Depth=1
.LBB18_282:                             # %cond.end781
                                        #   in Loop: Header=BB18_272 Depth=1
	movl	%eax, -40(%rbp)
	movq	-64(%rbp), %rax
	movslq	-44(%rbp), %rcx
	movq	(%rax,%rcx,8), %rax
	movslq	-40(%rbp), %rcx
	movzwl	(%rax,%rcx,2), %eax
	movl	-20(%rbp), %ecx
	addl	$2, %ecx
	movslq	%ecx, %rcx
	imull	Get_Reference_Pixel.COEF(,%rcx,4), %eax
	addl	-12(%rbp), %eax
	movl	%eax, -12(%rbp)
# %bb.283:                              # %for.inc793
                                        #   in Loop: Header=BB18_272 Depth=1
	movl	-20(%rbp), %eax
	addl	$1, %eax
	movl	%eax, -20(%rbp)
	jmp	.LBB18_272
.LBB18_284:                             # %for.end795
	movq	img, %rax
	movl	72684(%rax), %ecx
	movl	-12(%rbp), %eax
	addl	$16, %eax
	cltd
	movl	$32, %esi
	idivl	%esi
	cmpl	%eax, %ecx
	jge	.LBB18_286
# %bb.285:                              # %cond.true801
	movq	img, %rax
	movl	72684(%rax), %eax
	jmp	.LBB18_287
.LBB18_286:                             # %cond.false803
	movl	-12(%rbp), %eax
	addl	$16, %eax
	cltd
	movl	$32, %ecx
	idivl	%ecx
.LBB18_287:                             # %cond.end806
	xorl	%ecx, %ecx
	cmpl	%eax, %ecx
	jle	.LBB18_289
# %bb.288:                              # %cond.true810
	xorl	%eax, %eax
	jmp	.LBB18_293
.LBB18_289:                             # %cond.false811
	movq	img, %rax
	movl	72684(%rax), %ecx
	movl	-12(%rbp), %eax
	addl	$16, %eax
	cltd
	movl	$32, %esi
	idivl	%esi
	cmpl	%eax, %ecx
	jge	.LBB18_291
# %bb.290:                              # %cond.true817
	movq	img, %rax
	movl	72684(%rax), %eax
	jmp	.LBB18_292
.LBB18_291:                             # %cond.false819
	movl	-12(%rbp), %eax
	addl	$16, %eax
	cltd
	movl	$32, %ecx
	idivl	%ecx
.LBB18_292:                             # %cond.end822
.LBB18_293:                             # %cond.end824
	movl	%eax, -100(%rbp)
	movl	$0, -12(%rbp)
	cmpl	$1, -52(%rbp)
	jne	.LBB18_295
# %bb.294:                              # %cond.true828
	movl	-28(%rbp), %eax
	jmp	.LBB18_296
.LBB18_295:                             # %cond.false829
	movl	-28(%rbp), %eax
	addl	$1, %eax
.LBB18_296:                             # %cond.end831
	movl	%eax, -40(%rbp)
	movl	-36(%rbp), %eax
	cmpl	-40(%rbp), %eax
	jge	.LBB18_298
# %bb.297:                              # %cond.true835
	movl	-36(%rbp), %eax
	jmp	.LBB18_299
.LBB18_298:                             # %cond.false836
	movl	-40(%rbp), %eax
.LBB18_299:                             # %cond.end837
	xorl	%ecx, %ecx
	cmpl	%eax, %ecx
	jle	.LBB18_301
# %bb.300:                              # %cond.true841
	xorl	%eax, %eax
	jmp	.LBB18_305
.LBB18_301:                             # %cond.false842
	movl	-36(%rbp), %eax
	cmpl	-40(%rbp), %eax
	jge	.LBB18_303
# %bb.302:                              # %cond.true845
	movl	-36(%rbp), %eax
	jmp	.LBB18_304
.LBB18_303:                             # %cond.false846
	movl	-40(%rbp), %eax
.LBB18_304:                             # %cond.end847
.LBB18_305:                             # %cond.end849
	movl	%eax, -40(%rbp)
	movl	$-2, -16(%rbp)
.LBB18_306:                             # %for.cond851
                                        # =>This Inner Loop Header: Depth=1
	cmpl	$4, -16(%rbp)
	jge	.LBB18_318
# %bb.307:                              # %for.body854
                                        #   in Loop: Header=BB18_306 Depth=1
	movl	-32(%rbp), %eax
	movl	-24(%rbp), %ecx
	addl	-16(%rbp), %ecx
	cmpl	%ecx, %eax
	jge	.LBB18_309
# %bb.308:                              # %cond.true858
                                        #   in Loop: Header=BB18_306 Depth=1
	movl	-32(%rbp), %eax
	jmp	.LBB18_310
.LBB18_309:                             # %cond.false859
                                        #   in Loop: Header=BB18_306 Depth=1
	movl	-24(%rbp), %eax
	addl	-16(%rbp), %eax
.LBB18_310:                             # %cond.end861
                                        #   in Loop: Header=BB18_306 Depth=1
	xorl	%ecx, %ecx
	cmpl	%eax, %ecx
	jle	.LBB18_312
# %bb.311:                              # %cond.true865
                                        #   in Loop: Header=BB18_306 Depth=1
	xorl	%eax, %eax
	jmp	.LBB18_316
.LBB18_312:                             # %cond.false866
                                        #   in Loop: Header=BB18_306 Depth=1
	movl	-32(%rbp), %eax
	movl	-24(%rbp), %ecx
	addl	-16(%rbp), %ecx
	cmpl	%ecx, %eax
	jge	.LBB18_314
# %bb.313:                              # %cond.true870
                                        #   in Loop: Header=BB18_306 Depth=1
	movl	-32(%rbp), %eax
	jmp	.LBB18_315
.LBB18_314:                             # %cond.false871
                                        #   in Loop: Header=BB18_306 Depth=1
	movl	-24(%rbp), %eax
	addl	-16(%rbp), %eax
.LBB18_315:                             # %cond.end873
                                        #   in Loop: Header=BB18_306 Depth=1
.LBB18_316:                             # %cond.end875
                                        #   in Loop: Header=BB18_306 Depth=1
	movl	%eax, -44(%rbp)
	movq	-64(%rbp), %rax
	movslq	-44(%rbp), %rcx
	movq	(%rax,%rcx,8), %rax
	movslq	-40(%rbp), %rcx
	movzwl	(%rax,%rcx,2), %eax
	movl	-16(%rbp), %ecx
	addl	$2, %ecx
	movslq	%ecx, %rcx
	imull	Get_Reference_Pixel.COEF(,%rcx,4), %eax
	addl	-12(%rbp), %eax
	movl	%eax, -12(%rbp)
# %bb.317:                              # %for.inc887
                                        #   in Loop: Header=BB18_306 Depth=1
	movl	-16(%rbp), %eax
	addl	$1, %eax
	movl	%eax, -16(%rbp)
	jmp	.LBB18_306
.LBB18_318:                             # %for.end889
	movq	img, %rax
	movl	72684(%rax), %ecx
	movl	-12(%rbp), %eax
	addl	$16, %eax
	cltd
	movl	$32, %esi
	idivl	%esi
	cmpl	%eax, %ecx
	jge	.LBB18_320
# %bb.319:                              # %cond.true895
	movq	img, %rax
	movl	72684(%rax), %eax
	jmp	.LBB18_321
.LBB18_320:                             # %cond.false897
	movl	-12(%rbp), %eax
	addl	$16, %eax
	cltd
	movl	$32, %ecx
	idivl	%ecx
.LBB18_321:                             # %cond.end900
	xorl	%ecx, %ecx
	cmpl	%eax, %ecx
	jle	.LBB18_323
# %bb.322:                              # %cond.true904
	xorl	%eax, %eax
	jmp	.LBB18_327
.LBB18_323:                             # %cond.false905
	movq	img, %rax
	movl	72684(%rax), %ecx
	movl	-12(%rbp), %eax
	addl	$16, %eax
	cltd
	movl	$32, %esi
	idivl	%esi
	cmpl	%eax, %ecx
	jge	.LBB18_325
# %bb.324:                              # %cond.true911
	movq	img, %rax
	movl	72684(%rax), %eax
	jmp	.LBB18_326
.LBB18_325:                             # %cond.false913
	movl	-12(%rbp), %eax
	addl	$16, %eax
	cltd
	movl	$32, %ecx
	idivl	%ecx
.LBB18_326:                             # %cond.end916
.LBB18_327:                             # %cond.end918
	movl	%eax, -104(%rbp)
	movl	-100(%rbp), %eax
	addl	-104(%rbp), %eax
	cltd
	movl	$2, %ecx
	idivl	%ecx
	movl	%eax, -12(%rbp)
.LBB18_328:                             # %if.end922
	jmp	.LBB18_329
.LBB18_329:                             # %if.end923
	jmp	.LBB18_330
.LBB18_330:                             # %if.end924
	jmp	.LBB18_331
.LBB18_331:                             # %if.end925
	jmp	.LBB18_332
.LBB18_332:                             # %if.end926
	movl	-12(%rbp), %ebx
	cmpl	$1460034671, -108(%rbp) # imm = 0x57065C6F
	jne	.LBB18_334
.LBB18_333:
	movzbl	%bl, %eax
	addq	$104, %rsp
	popq	%rbx
	popq	%rbp
	.cfi_def_cfa %rsp, 8
	retq
.LBB18_334:                             # %func_exit
	.cfi_def_cfa %rbp, 16
	callq	detect_breach
	jmp	.LBB18_333
.Lfunc_end18:
	.size	Get_Reference_Pixel.8, .Lfunc_end18-Get_Reference_Pixel.8
	.cfi_endproc
                                        # -- End function
	.section	.rodata.cst8,"aM",@progbits,8
	.p2align	3               # -- Begin function Build_Status_Map.9
.LCPI19_0:
	.quad	4636737291354636288     # double 100
.LCPI19_1:
	.quad	4746794007244308480     # double 2147483647
	.text
	.globl	Build_Status_Map.9
	.p2align	4, 0x90
	.type	Build_Status_Map.9,@function
Build_Status_Map.9:                     # @Build_Status_Map.9
	.cfi_startproc
# %bb.0:                                # %entry
	pushq	%rbp
	.cfi_def_cfa_offset 16
	.cfi_offset %rbp, -16
	movq	%rsp, %rbp
	.cfi_def_cfa_register %rbp
	subq	$48, %rsp
	movl	$549433573, -40(%rbp)   # imm = 0x20BFB0E5
	movq	%rdi, -32(%rbp)
	movl	$-1, -20(%rbp)
	movl	$0, -16(%rbp)
	movl	$0, -4(%rbp)
	movq	img, %rax
	movl	60(%rax), %eax
	cltd
	movl	$16, %ecx
	idivl	%ecx
	movl	%eax, -36(%rbp)
	movq	img, %rax
	movl	52(%rax), %eax
	cltd
	idivl	%ecx
	movl	%eax, -44(%rbp)
	movl	$0, -12(%rbp)
.LBB19_1:                               # %for.cond
                                        # =>This Loop Header: Depth=1
                                        #     Child Loop BB19_3 Depth 2
	movl	-12(%rbp), %eax
	cmpl	-36(%rbp), %eax
	jge	.LBB19_22
# %bb.2:                                # %for.body
                                        #   in Loop: Header=BB19_1 Depth=1
	movl	$0, -8(%rbp)
.LBB19_3:                               # %for.cond2
                                        #   Parent Loop BB19_1 Depth=1
                                        # =>  This Inner Loop Header: Depth=2
	movl	-8(%rbp), %eax
	cmpl	-44(%rbp), %eax
	jge	.LBB19_20
# %bb.4:                                # %for.body4
                                        #   in Loop: Header=BB19_3 Depth=2
	movq	input, %rax
	cmpl	$0, 208(%rax)
	je	.LBB19_6
# %bb.5:                                # %lor.lhs.false
                                        #   in Loop: Header=BB19_3 Depth=2
	movq	img, %rax
	movq	14168(%rax), %rax
	movslq	-16(%rbp), %rcx
	imulq	$632, %rcx, %rcx        # imm = 0x278
	addq	%rcx, %rax
	movl	4(%rax), %eax
	cmpl	-20(%rbp), %eax
	je	.LBB19_13
.LBB19_6:                               # %if.then
                                        #   in Loop: Header=BB19_3 Depth=2
	movl	$0, -4(%rbp)
	callq	rand
	vmovsd	.LCPI19_0(%rip), %xmm0  # xmm0 = mem[0],zero
	vmovsd	.LCPI19_1(%rip), %xmm1  # xmm1 = mem[0],zero
	vcvtsi2sd	%eax, %xmm0, %xmm2
	vdivsd	%xmm1, %xmm2, %xmm1
	vmulsd	%xmm0, %xmm1, %xmm0
	movq	input, %rax
	vcvtsi2sdl	2900(%rax), %xmm0, %xmm1
	vucomisd	%xmm0, %xmm1
	jbe	.LBB19_8
# %bb.7:                                # %if.then10
                                        #   in Loop: Header=BB19_3 Depth=2
	movl	-4(%rbp), %eax
	addl	$3, %eax
	movl	%eax, -4(%rbp)
.LBB19_8:                               # %if.end
                                        #   in Loop: Header=BB19_3 Depth=2
	callq	rand
	vmovsd	.LCPI19_0(%rip), %xmm0  # xmm0 = mem[0],zero
	vmovsd	.LCPI19_1(%rip), %xmm1  # xmm1 = mem[0],zero
	vcvtsi2sd	%eax, %xmm0, %xmm2
	vdivsd	%xmm1, %xmm2, %xmm1
	vmulsd	%xmm0, %xmm1, %xmm0
	movq	input, %rax
	vcvtsi2sdl	2896(%rax), %xmm0, %xmm1
	vucomisd	%xmm0, %xmm1
	jbe	.LBB19_10
# %bb.9:                                # %if.then18
                                        #   in Loop: Header=BB19_3 Depth=2
	movl	-4(%rbp), %eax
	addl	$2, %eax
	movl	%eax, -4(%rbp)
.LBB19_10:                              # %if.end20
                                        #   in Loop: Header=BB19_3 Depth=2
	callq	rand
	vmovsd	.LCPI19_0(%rip), %xmm0  # xmm0 = mem[0],zero
	vmovsd	.LCPI19_1(%rip), %xmm1  # xmm1 = mem[0],zero
	vcvtsi2sd	%eax, %xmm0, %xmm2
	vdivsd	%xmm1, %xmm2, %xmm1
	vmulsd	%xmm0, %xmm1, %xmm0
	movq	input, %rax
	vcvtsi2sdl	2892(%rax), %xmm0, %xmm1
	vucomisd	%xmm0, %xmm1
	jbe	.LBB19_12
# %bb.11:                               # %if.then28
                                        #   in Loop: Header=BB19_3 Depth=2
	movl	$1, -4(%rbp)
.LBB19_12:                              # %if.end29
                                        #   in Loop: Header=BB19_3 Depth=2
	movl	-20(%rbp), %eax
	addl	$1, %eax
	movl	%eax, -20(%rbp)
.LBB19_13:                              # %if.end30
                                        #   in Loop: Header=BB19_3 Depth=2
	cmpl	$0, -4(%rbp)
	jne	.LBB19_15
# %bb.14:                               # %if.then32
                                        #   in Loop: Header=BB19_3 Depth=2
	movq	-32(%rbp), %rax
	movslq	-12(%rbp), %rcx
	movq	(%rax,%rcx,8), %rax
	movslq	-8(%rbp), %rcx
	movb	$0, (%rax,%rcx)
	jmp	.LBB19_18
.LBB19_15:                              # %if.else
                                        #   in Loop: Header=BB19_3 Depth=2
	movl	-4(%rbp), %eax
	movq	-32(%rbp), %rcx
	movslq	-12(%rbp), %rdx
	movq	(%rcx,%rdx,8), %rcx
	movslq	-8(%rbp), %rdx
	movb	%al, (%rcx,%rdx)
	movq	input, %rax
	cmpl	$0, 2364(%rax)
	jne	.LBB19_17
# %bb.16:                               # %if.then44
                                        #   in Loop: Header=BB19_3 Depth=2
	movq	-32(%rbp), %rax
	movslq	-12(%rbp), %rcx
	movq	(%rax,%rcx,8), %rax
	movslq	-8(%rbp), %rcx
	movb	$1, (%rax,%rcx)
.LBB19_17:                              # %if.end49
                                        #   in Loop: Header=BB19_3 Depth=2
	jmp	.LBB19_18
.LBB19_18:                              # %if.end50
                                        #   in Loop: Header=BB19_3 Depth=2
	movl	-16(%rbp), %eax
	addl	$1, %eax
	movl	%eax, -16(%rbp)
# %bb.19:                               # %for.inc
                                        #   in Loop: Header=BB19_3 Depth=2
	movl	-8(%rbp), %eax
	addl	$1, %eax
	movl	%eax, -8(%rbp)
	jmp	.LBB19_3
.LBB19_20:                              # %for.end
                                        #   in Loop: Header=BB19_1 Depth=1
	jmp	.LBB19_21
.LBB19_21:                              # %for.inc53
                                        #   in Loop: Header=BB19_1 Depth=1
	movl	-12(%rbp), %eax
	addl	$1, %eax
	movl	%eax, -12(%rbp)
	jmp	.LBB19_1
.LBB19_22:                              # %for.end55
	cmpl	$549433573, -40(%rbp)   # imm = 0x20BFB0E5
	jne	.LBB19_24
.LBB19_23:
	addq	$48, %rsp
	popq	%rbp
	.cfi_def_cfa %rsp, 8
	retq
.LBB19_24:                              # %func_exit
	.cfi_def_cfa %rbp, 16
	callq	detect_breach
	jmp	.LBB19_23
.Lfunc_end19:
	.size	Build_Status_Map.9, .Lfunc_end19-Build_Status_Map.9
	.cfi_endproc
                                        # -- End function
	.globl	Error_Concealment.10    # -- Begin function Error_Concealment.10
	.p2align	4, 0x90
	.type	Error_Concealment.10,@function
Error_Concealment.10:                   # @Error_Concealment.10
	.cfi_startproc
# %bb.0:                                # %entry
	pushq	%rbp
	.cfi_def_cfa_offset 16
	.cfi_offset %rbp, -16
	movq	%rsp, %rbp
	.cfi_def_cfa_register %rbp
	subq	$48, %rsp
	movl	$1276192604, -12(%rbp)  # imm = 0x4C11275C
	movq	%rdi, -40(%rbp)
	movq	%rsi, -32(%rbp)
	movq	%rdx, -48(%rbp)
	movq	img, %rax
	movl	60(%rax), %eax
	cltd
	movl	$16, %ecx
	idivl	%ecx
	movl	%eax, -16(%rbp)
	movq	img, %rax
	movl	52(%rax), %eax
	cltd
	idivl	%ecx
	movl	%eax, -20(%rbp)
	movl	$0, -8(%rbp)
.LBB20_1:                               # %for.cond
                                        # =>This Loop Header: Depth=1
                                        #     Child Loop BB20_3 Depth 2
	movl	-8(%rbp), %eax
	cmpl	-16(%rbp), %eax
	jge	.LBB20_10
# %bb.2:                                # %for.body
                                        #   in Loop: Header=BB20_1 Depth=1
	movl	$0, -4(%rbp)
.LBB20_3:                               # %for.cond2
                                        #   Parent Loop BB20_1 Depth=1
                                        # =>  This Inner Loop Header: Depth=2
	movl	-4(%rbp), %eax
	cmpl	-20(%rbp), %eax
	jge	.LBB20_8
# %bb.4:                                # %for.body4
                                        #   in Loop: Header=BB20_3 Depth=2
	movq	-32(%rbp), %rax
	movslq	-8(%rbp), %rcx
	movq	(%rax,%rcx,8), %rax
	movslq	-4(%rbp), %rcx
	cmpb	$0, (%rax,%rcx)
	je	.LBB20_6
# %bb.5:                                # %if.then
                                        #   in Loop: Header=BB20_3 Depth=2
	movq	-40(%rbp), %rdi
	movl	-8(%rbp), %esi
	movl	-4(%rbp), %edx
	movq	-48(%rbp), %rcx
	movq	-32(%rbp), %r8
	callq	Conceal_Error
.LBB20_6:                               # %if.end
                                        #   in Loop: Header=BB20_3 Depth=2
	jmp	.LBB20_7
.LBB20_7:                               # %for.inc
                                        #   in Loop: Header=BB20_3 Depth=2
	movl	-4(%rbp), %eax
	addl	$1, %eax
	movl	%eax, -4(%rbp)
	jmp	.LBB20_3
.LBB20_8:                               # %for.end
                                        #   in Loop: Header=BB20_1 Depth=1
	jmp	.LBB20_9
.LBB20_9:                               # %for.inc7
                                        #   in Loop: Header=BB20_1 Depth=1
	movl	-8(%rbp), %eax
	addl	$1, %eax
	movl	%eax, -8(%rbp)
	jmp	.LBB20_1
.LBB20_10:                              # %for.end9
	cmpl	$1276192604, -12(%rbp)  # imm = 0x4C11275C
	jne	.LBB20_12
.LBB20_11:
	addq	$48, %rsp
	popq	%rbp
	.cfi_def_cfa %rsp, 8
	retq
.LBB20_12:                              # %func_exit
	.cfi_def_cfa %rbp, 16
	callq	detect_breach
	jmp	.LBB20_11
.Lfunc_end20:
	.size	Error_Concealment.10, .Lfunc_end20-Error_Concealment.10
	.cfi_endproc
                                        # -- End function
	.section	.rodata.cst8,"aM",@progbits,8
	.p2align	3               # -- Begin function Build_Status_Map.11
.LCPI21_0:
	.quad	4636737291354636288     # double 100
.LCPI21_1:
	.quad	4746794007244308480     # double 2147483647
	.text
	.globl	Build_Status_Map.11
	.p2align	4, 0x90
	.type	Build_Status_Map.11,@function
Build_Status_Map.11:                    # @Build_Status_Map.11
	.cfi_startproc
# %bb.0:                                # %entry
	pushq	%rbp
	.cfi_def_cfa_offset 16
	.cfi_offset %rbp, -16
	movq	%rsp, %rbp
	.cfi_def_cfa_register %rbp
	subq	$48, %rsp
	movl	$803997839, -40(%rbp)   # imm = 0x2FEC088F
	movq	%rdi, -32(%rbp)
	movl	$-1, -16(%rbp)
	movl	$0, -20(%rbp)
	movl	$0, -4(%rbp)
	movq	img, %rax
	movl	60(%rax), %eax
	cltd
	movl	$16, %ecx
	idivl	%ecx
	movl	%eax, -36(%rbp)
	movq	img, %rax
	movl	52(%rax), %eax
	cltd
	idivl	%ecx
	movl	%eax, -44(%rbp)
	movl	$0, -12(%rbp)
.LBB21_1:                               # %for.cond
                                        # =>This Loop Header: Depth=1
                                        #     Child Loop BB21_3 Depth 2
	movl	-12(%rbp), %eax
	cmpl	-36(%rbp), %eax
	jge	.LBB21_22
# %bb.2:                                # %for.body
                                        #   in Loop: Header=BB21_1 Depth=1
	movl	$0, -8(%rbp)
.LBB21_3:                               # %for.cond2
                                        #   Parent Loop BB21_1 Depth=1
                                        # =>  This Inner Loop Header: Depth=2
	movl	-8(%rbp), %eax
	cmpl	-44(%rbp), %eax
	jge	.LBB21_20
# %bb.4:                                # %for.body4
                                        #   in Loop: Header=BB21_3 Depth=2
	movq	input, %rax
	cmpl	$0, 208(%rax)
	je	.LBB21_6
# %bb.5:                                # %lor.lhs.false
                                        #   in Loop: Header=BB21_3 Depth=2
	movq	img, %rax
	movq	14168(%rax), %rax
	movslq	-20(%rbp), %rcx
	imulq	$632, %rcx, %rcx        # imm = 0x278
	addq	%rcx, %rax
	movl	4(%rax), %eax
	cmpl	-16(%rbp), %eax
	je	.LBB21_13
.LBB21_6:                               # %if.then
                                        #   in Loop: Header=BB21_3 Depth=2
	movl	$0, -4(%rbp)
	callq	rand
	vmovsd	.LCPI21_0(%rip), %xmm0  # xmm0 = mem[0],zero
	vmovsd	.LCPI21_1(%rip), %xmm1  # xmm1 = mem[0],zero
	vcvtsi2sd	%eax, %xmm0, %xmm2
	vdivsd	%xmm1, %xmm2, %xmm1
	vmulsd	%xmm0, %xmm1, %xmm0
	movq	input, %rax
	vcvtsi2sdl	2900(%rax), %xmm0, %xmm1
	vucomisd	%xmm0, %xmm1
	jbe	.LBB21_8
# %bb.7:                                # %if.then10
                                        #   in Loop: Header=BB21_3 Depth=2
	movl	-4(%rbp), %eax
	addl	$3, %eax
	movl	%eax, -4(%rbp)
.LBB21_8:                               # %if.end
                                        #   in Loop: Header=BB21_3 Depth=2
	callq	rand
	vmovsd	.LCPI21_0(%rip), %xmm0  # xmm0 = mem[0],zero
	vmovsd	.LCPI21_1(%rip), %xmm1  # xmm1 = mem[0],zero
	vcvtsi2sd	%eax, %xmm0, %xmm2
	vdivsd	%xmm1, %xmm2, %xmm1
	vmulsd	%xmm0, %xmm1, %xmm0
	movq	input, %rax
	vcvtsi2sdl	2896(%rax), %xmm0, %xmm1
	vucomisd	%xmm0, %xmm1
	jbe	.LBB21_10
# %bb.9:                                # %if.then18
                                        #   in Loop: Header=BB21_3 Depth=2
	movl	-4(%rbp), %eax
	addl	$2, %eax
	movl	%eax, -4(%rbp)
.LBB21_10:                              # %if.end20
                                        #   in Loop: Header=BB21_3 Depth=2
	callq	rand
	vmovsd	.LCPI21_0(%rip), %xmm0  # xmm0 = mem[0],zero
	vmovsd	.LCPI21_1(%rip), %xmm1  # xmm1 = mem[0],zero
	vcvtsi2sd	%eax, %xmm0, %xmm2
	vdivsd	%xmm1, %xmm2, %xmm1
	vmulsd	%xmm0, %xmm1, %xmm0
	movq	input, %rax
	vcvtsi2sdl	2892(%rax), %xmm0, %xmm1
	vucomisd	%xmm0, %xmm1
	jbe	.LBB21_12
# %bb.11:                               # %if.then28
                                        #   in Loop: Header=BB21_3 Depth=2
	movl	$1, -4(%rbp)
.LBB21_12:                              # %if.end29
                                        #   in Loop: Header=BB21_3 Depth=2
	movl	-16(%rbp), %eax
	addl	$1, %eax
	movl	%eax, -16(%rbp)
.LBB21_13:                              # %if.end30
                                        #   in Loop: Header=BB21_3 Depth=2
	cmpl	$0, -4(%rbp)
	jne	.LBB21_15
# %bb.14:                               # %if.then32
                                        #   in Loop: Header=BB21_3 Depth=2
	movq	-32(%rbp), %rax
	movslq	-12(%rbp), %rcx
	movq	(%rax,%rcx,8), %rax
	movslq	-8(%rbp), %rcx
	movb	$0, (%rax,%rcx)
	jmp	.LBB21_18
.LBB21_15:                              # %if.else
                                        #   in Loop: Header=BB21_3 Depth=2
	movl	-4(%rbp), %eax
	movq	-32(%rbp), %rcx
	movslq	-12(%rbp), %rdx
	movq	(%rcx,%rdx,8), %rcx
	movslq	-8(%rbp), %rdx
	movb	%al, (%rcx,%rdx)
	movq	input, %rax
	cmpl	$0, 2364(%rax)
	jne	.LBB21_17
# %bb.16:                               # %if.then44
                                        #   in Loop: Header=BB21_3 Depth=2
	movq	-32(%rbp), %rax
	movslq	-12(%rbp), %rcx
	movq	(%rax,%rcx,8), %rax
	movslq	-8(%rbp), %rcx
	movb	$1, (%rax,%rcx)
.LBB21_17:                              # %if.end49
                                        #   in Loop: Header=BB21_3 Depth=2
	jmp	.LBB21_18
.LBB21_18:                              # %if.end50
                                        #   in Loop: Header=BB21_3 Depth=2
	movl	-20(%rbp), %eax
	addl	$1, %eax
	movl	%eax, -20(%rbp)
# %bb.19:                               # %for.inc
                                        #   in Loop: Header=BB21_3 Depth=2
	movl	-8(%rbp), %eax
	addl	$1, %eax
	movl	%eax, -8(%rbp)
	jmp	.LBB21_3
.LBB21_20:                              # %for.end
                                        #   in Loop: Header=BB21_1 Depth=1
	jmp	.LBB21_21
.LBB21_21:                              # %for.inc53
                                        #   in Loop: Header=BB21_1 Depth=1
	movl	-12(%rbp), %eax
	addl	$1, %eax
	movl	%eax, -12(%rbp)
	jmp	.LBB21_1
.LBB21_22:                              # %for.end55
	cmpl	$803997839, -40(%rbp)   # imm = 0x2FEC088F
	jne	.LBB21_24
.LBB21_23:
	addq	$48, %rsp
	popq	%rbp
	.cfi_def_cfa %rsp, 8
	retq
.LBB21_24:                              # %func_exit
	.cfi_def_cfa %rbp, 16
	callq	detect_breach
	jmp	.LBB21_23
.Lfunc_end21:
	.size	Build_Status_Map.11, .Lfunc_end21-Build_Status_Map.11
	.cfi_endproc
                                        # -- End function
	.globl	compute_residue_b8block.12 # -- Begin function compute_residue_b8block.12
	.p2align	4, 0x90
	.type	compute_residue_b8block.12,@function
compute_residue_b8block.12:             # @compute_residue_b8block.12
	.cfi_startproc
# %bb.0:                                # %entry
	pushq	%rbp
	.cfi_def_cfa_offset 16
	.cfi_offset %rbp, -16
	movq	%rsp, %rbp
	.cfi_def_cfa_register %rbp
	subq	$48, %rsp
	movl	$1340839310, -36(%rbp)  # imm = 0x4FEB958E
	movl	%edi, -32(%rbp)
	movl	%esi, -24(%rbp)
	movl	-32(%rbp), %eax
	cltd
	movl	$2, %ecx
	idivl	%ecx
	shll	$3, %edx
	movl	%edx, -12(%rbp)
	movl	-12(%rbp), %eax
	addl	$8, %eax
	movl	%eax, -28(%rbp)
	movl	-32(%rbp), %eax
	cltd
	idivl	%ecx
	shll	$3, %eax
	movl	%eax, -16(%rbp)
	movl	-16(%rbp), %eax
	addl	$8, %eax
	movl	%eax, -20(%rbp)
	cmpl	$0, -24(%rbp)
	jl	.LBB22_10
# %bb.1:                                # %if.then
	movl	-12(%rbp), %eax
	movl	%eax, -4(%rbp)
.LBB22_2:                               # %for.cond
                                        # =>This Loop Header: Depth=1
                                        #     Child Loop BB22_4 Depth 2
	movl	-4(%rbp), %eax
	cmpl	-28(%rbp), %eax
	jge	.LBB22_9
# %bb.3:                                # %for.body
                                        #   in Loop: Header=BB22_2 Depth=1
	movl	-16(%rbp), %eax
	movl	%eax, -8(%rbp)
.LBB22_4:                               # %for.cond4
                                        #   Parent Loop BB22_2 Depth=1
                                        # =>  This Inner Loop Header: Depth=2
	movl	-8(%rbp), %eax
	cmpl	-20(%rbp), %eax
	jge	.LBB22_7
# %bb.5:                                # %for.body6
                                        #   in Loop: Header=BB22_4 Depth=2
	movq	enc_picture, %rax
	movq	6424(%rax), %rax
	movq	img, %rcx
	movl	156(%rcx), %ecx
	addl	-8(%rbp), %ecx
	movslq	%ecx, %rcx
	movq	(%rax,%rcx,8), %rax
	movq	img, %rcx
	movl	152(%rcx), %ecx
	addl	-4(%rbp), %ecx
	movslq	%ecx, %rcx
	movzwl	(%rax,%rcx,2), %eax
	movq	img, %rcx
	addq	$4792, %rcx             # imm = 0x12B8
	movslq	-24(%rbp), %rdx
	shlq	$9, %rdx
	addq	%rdx, %rcx
	movslq	-8(%rbp), %rdx
	shlq	$5, %rdx
	addq	%rdx, %rcx
	movslq	-4(%rbp), %rdx
	movzwl	(%rcx,%rdx,2), %ecx
	subl	%ecx, %eax
	movq	decs, %rcx
	movq	(%rcx), %rcx
	movslq	-8(%rbp), %rdx
	movq	(%rcx,%rdx,8), %rcx
	movslq	-4(%rbp), %rdx
	movl	%eax, (%rcx,%rdx,4)
# %bb.6:                                # %for.inc
                                        #   in Loop: Header=BB22_4 Depth=2
	movl	-8(%rbp), %eax
	addl	$1, %eax
	movl	%eax, -8(%rbp)
	jmp	.LBB22_4
.LBB22_7:                               # %for.end
                                        #   in Loop: Header=BB22_2 Depth=1
	jmp	.LBB22_8
.LBB22_8:                               # %for.inc22
                                        #   in Loop: Header=BB22_2 Depth=1
	movl	-4(%rbp), %eax
	addl	$1, %eax
	movl	%eax, -4(%rbp)
	jmp	.LBB22_2
.LBB22_9:                               # %for.end24
	jmp	.LBB22_19
.LBB22_10:                              # %if.else
	movl	-12(%rbp), %eax
	movl	%eax, -4(%rbp)
.LBB22_11:                              # %for.cond25
                                        # =>This Loop Header: Depth=1
                                        #     Child Loop BB22_13 Depth 2
	movl	-4(%rbp), %eax
	cmpl	-28(%rbp), %eax
	jge	.LBB22_18
# %bb.12:                               # %for.body28
                                        #   in Loop: Header=BB22_11 Depth=1
	movl	-16(%rbp), %eax
	movl	%eax, -8(%rbp)
.LBB22_13:                              # %for.cond29
                                        #   Parent Loop BB22_11 Depth=1
                                        # =>  This Inner Loop Header: Depth=2
	movl	-8(%rbp), %eax
	cmpl	-20(%rbp), %eax
	jge	.LBB22_16
# %bb.14:                               # %for.body32
                                        #   in Loop: Header=BB22_13 Depth=2
	movq	enc_picture, %rax
	movq	6424(%rax), %rax
	movq	img, %rcx
	movl	156(%rcx), %ecx
	addl	-8(%rbp), %ecx
	movslq	%ecx, %rcx
	movq	(%rax,%rcx,8), %rax
	movq	img, %rcx
	movl	152(%rcx), %ecx
	addl	-4(%rbp), %ecx
	movslq	%ecx, %rcx
	movzwl	(%rax,%rcx,2), %eax
	movq	img, %rcx
	addq	$12600, %rcx            # imm = 0x3138
	movslq	-4(%rbp), %rdx
	shlq	$5, %rdx
	addq	%rdx, %rcx
	movslq	-8(%rbp), %rdx
	movzwl	(%rcx,%rdx,2), %ecx
	subl	%ecx, %eax
	movq	decs, %rcx
	movq	(%rcx), %rcx
	movslq	-8(%rbp), %rdx
	movq	(%rcx,%rdx,8), %rcx
	movslq	-4(%rbp), %rdx
	movl	%eax, (%rcx,%rdx,4)
# %bb.15:                               # %for.inc54
                                        #   in Loop: Header=BB22_13 Depth=2
	movl	-8(%rbp), %eax
	addl	$1, %eax
	movl	%eax, -8(%rbp)
	jmp	.LBB22_13
.LBB22_16:                              # %for.end56
                                        #   in Loop: Header=BB22_11 Depth=1
	jmp	.LBB22_17
.LBB22_17:                              # %for.inc57
                                        #   in Loop: Header=BB22_11 Depth=1
	movl	-4(%rbp), %eax
	addl	$1, %eax
	movl	%eax, -4(%rbp)
	jmp	.LBB22_11
.LBB22_18:                              # %for.end59
	jmp	.LBB22_19
.LBB22_19:                              # %if.end
	cmpl	$1340839310, -36(%rbp)  # imm = 0x4FEB958E
	jne	.LBB22_21
.LBB22_20:
	addq	$48, %rsp
	popq	%rbp
	.cfi_def_cfa %rsp, 8
	retq
.LBB22_21:                              # %func_exit
	.cfi_def_cfa %rbp, 16
	callq	detect_breach
	jmp	.LBB22_20
.Lfunc_end22:
	.size	compute_residue_b8block.12, .Lfunc_end22-compute_residue_b8block.12
	.cfi_endproc
                                        # -- End function
	.globl	Error_Concealment.13    # -- Begin function Error_Concealment.13
	.p2align	4, 0x90
	.type	Error_Concealment.13,@function
Error_Concealment.13:                   # @Error_Concealment.13
	.cfi_startproc
# %bb.0:                                # %entry
	pushq	%rbp
	.cfi_def_cfa_offset 16
	.cfi_offset %rbp, -16
	movq	%rsp, %rbp
	.cfi_def_cfa_register %rbp
	subq	$48, %rsp
	movl	$787858755, -16(%rbp)   # imm = 0x2EF5C543
	movq	%rdi, -40(%rbp)
	movq	%rsi, -32(%rbp)
	movq	%rdx, -48(%rbp)
	movq	img, %rax
	movl	60(%rax), %eax
	cltd
	movl	$16, %ecx
	idivl	%ecx
	movl	%eax, -20(%rbp)
	movq	img, %rax
	movl	52(%rax), %eax
	cltd
	idivl	%ecx
	movl	%eax, -12(%rbp)
	movl	$0, -4(%rbp)
.LBB23_1:                               # %for.cond
                                        # =>This Loop Header: Depth=1
                                        #     Child Loop BB23_3 Depth 2
	movl	-4(%rbp), %eax
	cmpl	-20(%rbp), %eax
	jge	.LBB23_10
# %bb.2:                                # %for.body
                                        #   in Loop: Header=BB23_1 Depth=1
	movl	$0, -8(%rbp)
.LBB23_3:                               # %for.cond2
                                        #   Parent Loop BB23_1 Depth=1
                                        # =>  This Inner Loop Header: Depth=2
	movl	-8(%rbp), %eax
	cmpl	-12(%rbp), %eax
	jge	.LBB23_8
# %bb.4:                                # %for.body4
                                        #   in Loop: Header=BB23_3 Depth=2
	movq	-32(%rbp), %rax
	movslq	-4(%rbp), %rcx
	movq	(%rax,%rcx,8), %rax
	movslq	-8(%rbp), %rcx
	cmpb	$0, (%rax,%rcx)
	je	.LBB23_6
# %bb.5:                                # %if.then
                                        #   in Loop: Header=BB23_3 Depth=2
	movq	-40(%rbp), %rdi
	movl	-4(%rbp), %esi
	movl	-8(%rbp), %edx
	movq	-48(%rbp), %rcx
	movq	-32(%rbp), %r8
	callq	Conceal_Error
.LBB23_6:                               # %if.end
                                        #   in Loop: Header=BB23_3 Depth=2
	jmp	.LBB23_7
.LBB23_7:                               # %for.inc
                                        #   in Loop: Header=BB23_3 Depth=2
	movl	-8(%rbp), %eax
	addl	$1, %eax
	movl	%eax, -8(%rbp)
	jmp	.LBB23_3
.LBB23_8:                               # %for.end
                                        #   in Loop: Header=BB23_1 Depth=1
	jmp	.LBB23_9
.LBB23_9:                               # %for.inc7
                                        #   in Loop: Header=BB23_1 Depth=1
	movl	-4(%rbp), %eax
	addl	$1, %eax
	movl	%eax, -4(%rbp)
	jmp	.LBB23_1
.LBB23_10:                              # %for.end9
	cmpl	$787858755, -16(%rbp)   # imm = 0x2EF5C543
	jne	.LBB23_12
.LBB23_11:
	addq	$48, %rsp
	popq	%rbp
	.cfi_def_cfa %rsp, 8
	retq
.LBB23_12:                              # %func_exit
	.cfi_def_cfa %rbp, 16
	callq	detect_breach
	jmp	.LBB23_11
.Lfunc_end23:
	.size	Error_Concealment.13, .Lfunc_end23-Error_Concealment.13
	.cfi_endproc
                                        # -- End function
	.globl	Get_Reference_Pixel.14  # -- Begin function Get_Reference_Pixel.14
	.p2align	4, 0x90
	.type	Get_Reference_Pixel.14,@function
Get_Reference_Pixel.14:                 # @Get_Reference_Pixel.14
	.cfi_startproc
# %bb.0:                                # %entry
	pushq	%rbp
	.cfi_def_cfa_offset 16
	.cfi_offset %rbp, -16
	movq	%rsp, %rbp
	.cfi_def_cfa_register %rbp
	pushq	%rbx
	subq	$104, %rsp
	.cfi_offset %rbx, -24
	movl	$903894290, -104(%rbp)  # imm = 0x35E05512
	movq	%rdi, -64(%rbp)
	movl	%esi, -28(%rbp)
	movl	%edx, -24(%rbp)
	movl	$0, -12(%rbp)
	movl	-24(%rbp), %eax
	andl	$3, %eax
	movl	%eax, -52(%rbp)
	movl	-28(%rbp), %eax
	andl	$3, %eax
	movl	%eax, -48(%rbp)
	movl	-24(%rbp), %eax
	subl	-52(%rbp), %eax
	cltd
	movl	$4, %ecx
	idivl	%ecx
	movl	%eax, -24(%rbp)
	movl	-28(%rbp), %eax
	subl	-48(%rbp), %eax
	cltd
	idivl	%ecx
	movl	%eax, -28(%rbp)
	movq	img, %rax
	movl	52(%rax), %eax
	subl	$1, %eax
	movl	%eax, -36(%rbp)
	movq	img, %rax
	movl	60(%rax), %eax
	subl	$1, %eax
	movl	%eax, -32(%rbp)
	cmpl	$0, -52(%rbp)
	jne	.LBB24_21
# %bb.1:                                # %land.lhs.true
	cmpl	$0, -48(%rbp)
	jne	.LBB24_21
# %bb.2:                                # %if.then
	movq	-64(%rbp), %rax
	movl	-32(%rbp), %ecx
	cmpl	-28(%rbp), %ecx
	jge	.LBB24_4
# %bb.3:                                # %cond.true
	movl	-32(%rbp), %ecx
	jmp	.LBB24_5
.LBB24_4:                               # %cond.false
	movl	-28(%rbp), %ecx
.LBB24_5:                               # %cond.end
	xorl	%edx, %edx
	cmpl	%ecx, %edx
	jle	.LBB24_7
# %bb.6:                                # %cond.true9
	xorl	%ecx, %ecx
	jmp	.LBB24_11
.LBB24_7:                               # %cond.false10
	movl	-32(%rbp), %ecx
	cmpl	-28(%rbp), %ecx
	jge	.LBB24_9
# %bb.8:                                # %cond.true12
	movl	-32(%rbp), %ecx
	jmp	.LBB24_10
.LBB24_9:                               # %cond.false13
	movl	-28(%rbp), %ecx
.LBB24_10:                              # %cond.end14
.LBB24_11:                              # %cond.end16
	movslq	%ecx, %rcx
	movq	(%rax,%rcx,8), %rax
	movl	-36(%rbp), %ecx
	cmpl	-24(%rbp), %ecx
	jge	.LBB24_13
# %bb.12:                               # %cond.true19
	movl	-36(%rbp), %ecx
	jmp	.LBB24_14
.LBB24_13:                              # %cond.false20
	movl	-24(%rbp), %ecx
.LBB24_14:                              # %cond.end21
	xorl	%edx, %edx
	cmpl	%ecx, %edx
	jle	.LBB24_16
# %bb.15:                               # %cond.true24
	xorl	%ecx, %ecx
	jmp	.LBB24_20
.LBB24_16:                              # %cond.false25
	movl	-36(%rbp), %ecx
	cmpl	-24(%rbp), %ecx
	jge	.LBB24_18
# %bb.17:                               # %cond.true27
	movl	-36(%rbp), %ecx
	jmp	.LBB24_19
.LBB24_18:                              # %cond.false28
	movl	-24(%rbp), %ecx
.LBB24_19:                              # %cond.end29
.LBB24_20:                              # %cond.end31
	movslq	%ecx, %rcx
	movzwl	(%rax,%rcx,2), %eax
	movl	%eax, -12(%rbp)
	jmp	.LBB24_332
.LBB24_21:                              # %if.else
	cmpl	$0, -48(%rbp)
	jne	.LBB24_77
# %bb.22:                               # %if.then37
	movl	-32(%rbp), %eax
	cmpl	-28(%rbp), %eax
	jge	.LBB24_24
# %bb.23:                               # %cond.true40
	movl	-32(%rbp), %eax
	jmp	.LBB24_25
.LBB24_24:                              # %cond.false41
	movl	-28(%rbp), %eax
.LBB24_25:                              # %cond.end42
	xorl	%ecx, %ecx
	cmpl	%eax, %ecx
	jle	.LBB24_27
# %bb.26:                               # %cond.true46
	xorl	%eax, %eax
	jmp	.LBB24_31
.LBB24_27:                              # %cond.false47
	movl	-32(%rbp), %eax
	cmpl	-28(%rbp), %eax
	jge	.LBB24_29
# %bb.28:                               # %cond.true50
	movl	-32(%rbp), %eax
	jmp	.LBB24_30
.LBB24_29:                              # %cond.false51
	movl	-28(%rbp), %eax
.LBB24_30:                              # %cond.end52
.LBB24_31:                              # %cond.end54
	movl	%eax, -44(%rbp)
	movl	$-2, -20(%rbp)
.LBB24_32:                              # %for.cond
                                        # =>This Inner Loop Header: Depth=1
	cmpl	$4, -20(%rbp)
	jge	.LBB24_44
# %bb.33:                               # %for.body
                                        #   in Loop: Header=BB24_32 Depth=1
	movl	-36(%rbp), %eax
	movl	-24(%rbp), %ecx
	addl	-20(%rbp), %ecx
	cmpl	%ecx, %eax
	jge	.LBB24_35
# %bb.34:                               # %cond.true60
                                        #   in Loop: Header=BB24_32 Depth=1
	movl	-36(%rbp), %eax
	jmp	.LBB24_36
.LBB24_35:                              # %cond.false61
                                        #   in Loop: Header=BB24_32 Depth=1
	movl	-24(%rbp), %eax
	addl	-20(%rbp), %eax
.LBB24_36:                              # %cond.end63
                                        #   in Loop: Header=BB24_32 Depth=1
	xorl	%ecx, %ecx
	cmpl	%eax, %ecx
	jle	.LBB24_38
# %bb.37:                               # %cond.true67
                                        #   in Loop: Header=BB24_32 Depth=1
	xorl	%eax, %eax
	jmp	.LBB24_42
.LBB24_38:                              # %cond.false68
                                        #   in Loop: Header=BB24_32 Depth=1
	movl	-36(%rbp), %eax
	movl	-24(%rbp), %ecx
	addl	-20(%rbp), %ecx
	cmpl	%ecx, %eax
	jge	.LBB24_40
# %bb.39:                               # %cond.true72
                                        #   in Loop: Header=BB24_32 Depth=1
	movl	-36(%rbp), %eax
	jmp	.LBB24_41
.LBB24_40:                              # %cond.false73
                                        #   in Loop: Header=BB24_32 Depth=1
	movl	-24(%rbp), %eax
	addl	-20(%rbp), %eax
.LBB24_41:                              # %cond.end75
                                        #   in Loop: Header=BB24_32 Depth=1
.LBB24_42:                              # %cond.end77
                                        #   in Loop: Header=BB24_32 Depth=1
	movl	%eax, -40(%rbp)
	movq	-64(%rbp), %rax
	movslq	-44(%rbp), %rcx
	movq	(%rax,%rcx,8), %rax
	movslq	-40(%rbp), %rcx
	movzwl	(%rax,%rcx,2), %eax
	movl	-20(%rbp), %ecx
	addl	$2, %ecx
	movslq	%ecx, %rcx
	imull	Get_Reference_Pixel.COEF(,%rcx,4), %eax
	addl	-12(%rbp), %eax
	movl	%eax, -12(%rbp)
# %bb.43:                               # %for.inc
                                        #   in Loop: Header=BB24_32 Depth=1
	movl	-20(%rbp), %eax
	addl	$1, %eax
	movl	%eax, -20(%rbp)
	jmp	.LBB24_32
.LBB24_44:                              # %for.end
	movq	img, %rax
	movl	72684(%rax), %ecx
	movl	-12(%rbp), %eax
	addl	$16, %eax
	cltd
	movl	$32, %esi
	idivl	%esi
	cmpl	%eax, %ecx
	jge	.LBB24_46
# %bb.45:                               # %cond.true92
	movq	img, %rax
	movl	72684(%rax), %eax
	jmp	.LBB24_47
.LBB24_46:                              # %cond.false94
	movl	-12(%rbp), %eax
	addl	$16, %eax
	cltd
	movl	$32, %ecx
	idivl	%ecx
.LBB24_47:                              # %cond.end97
	xorl	%ecx, %ecx
	cmpl	%eax, %ecx
	jle	.LBB24_49
# %bb.48:                               # %cond.true101
	xorl	%eax, %eax
	jmp	.LBB24_53
.LBB24_49:                              # %cond.false102
	movq	img, %rax
	movl	72684(%rax), %ecx
	movl	-12(%rbp), %eax
	addl	$16, %eax
	cltd
	movl	$32, %esi
	idivl	%esi
	cmpl	%eax, %ecx
	jge	.LBB24_51
# %bb.50:                               # %cond.true108
	movq	img, %rax
	movl	72684(%rax), %eax
	jmp	.LBB24_52
.LBB24_51:                              # %cond.false110
	movl	-12(%rbp), %eax
	addl	$16, %eax
	cltd
	movl	$32, %ecx
	idivl	%ecx
.LBB24_52:                              # %cond.end113
.LBB24_53:                              # %cond.end115
	movl	%eax, -12(%rbp)
	cmpl	$1, -52(%rbp)
	jne	.LBB24_64
# %bb.54:                               # %if.then119
	movl	-12(%rbp), %eax
	movq	-64(%rbp), %rcx
	movslq	-44(%rbp), %rdx
	movq	(%rcx,%rdx,8), %rcx
	movl	-36(%rbp), %edx
	cmpl	-24(%rbp), %edx
	jge	.LBB24_56
# %bb.55:                               # %cond.true124
	movl	-36(%rbp), %edx
	jmp	.LBB24_57
.LBB24_56:                              # %cond.false125
	movl	-24(%rbp), %edx
.LBB24_57:                              # %cond.end126
	xorl	%esi, %esi
	cmpl	%edx, %esi
	jle	.LBB24_59
# %bb.58:                               # %cond.true130
	xorl	%edx, %edx
	jmp	.LBB24_63
.LBB24_59:                              # %cond.false131
	movl	-36(%rbp), %edx
	cmpl	-24(%rbp), %edx
	jge	.LBB24_61
# %bb.60:                               # %cond.true134
	movl	-36(%rbp), %edx
	jmp	.LBB24_62
.LBB24_61:                              # %cond.false135
	movl	-24(%rbp), %edx
.LBB24_62:                              # %cond.end136
.LBB24_63:                              # %cond.end138
	movslq	%edx, %rdx
	movzwl	(%rcx,%rdx,2), %ecx
	addl	%ecx, %eax
	cltd
	movl	$2, %ecx
	idivl	%ecx
	movl	%eax, -12(%rbp)
	jmp	.LBB24_76
.LBB24_64:                              # %if.else145
	cmpl	$3, -52(%rbp)
	jne	.LBB24_75
# %bb.65:                               # %if.then148
	movl	-12(%rbp), %eax
	movq	-64(%rbp), %rcx
	movslq	-44(%rbp), %rdx
	movq	(%rcx,%rdx,8), %rcx
	movl	-36(%rbp), %edx
	movl	-24(%rbp), %esi
	addl	$1, %esi
	cmpl	%esi, %edx
	jge	.LBB24_67
# %bb.66:                               # %cond.true154
	movl	-36(%rbp), %edx
	jmp	.LBB24_68
.LBB24_67:                              # %cond.false155
	movl	-24(%rbp), %edx
	addl	$1, %edx
.LBB24_68:                              # %cond.end157
	xorl	%esi, %esi
	cmpl	%edx, %esi
	jle	.LBB24_70
# %bb.69:                               # %cond.true161
	xorl	%edx, %edx
	jmp	.LBB24_74
.LBB24_70:                              # %cond.false162
	movl	-36(%rbp), %edx
	movl	-24(%rbp), %esi
	addl	$1, %esi
	cmpl	%esi, %edx
	jge	.LBB24_72
# %bb.71:                               # %cond.true166
	movl	-36(%rbp), %edx
	jmp	.LBB24_73
.LBB24_72:                              # %cond.false167
	movl	-24(%rbp), %edx
	addl	$1, %edx
.LBB24_73:                              # %cond.end169
.LBB24_74:                              # %cond.end171
	movslq	%edx, %rdx
	movzwl	(%rcx,%rdx,2), %ecx
	addl	%ecx, %eax
	cltd
	movl	$2, %ecx
	idivl	%ecx
	movl	%eax, -12(%rbp)
.LBB24_75:                              # %if.end
	jmp	.LBB24_76
.LBB24_76:                              # %if.end178
	jmp	.LBB24_331
.LBB24_77:                              # %if.else179
	cmpl	$0, -52(%rbp)
	jne	.LBB24_133
# %bb.78:                               # %if.then182
	movl	-36(%rbp), %eax
	cmpl	-24(%rbp), %eax
	jge	.LBB24_80
# %bb.79:                               # %cond.true185
	movl	-36(%rbp), %eax
	jmp	.LBB24_81
.LBB24_80:                              # %cond.false186
	movl	-24(%rbp), %eax
.LBB24_81:                              # %cond.end187
	xorl	%ecx, %ecx
	cmpl	%eax, %ecx
	jle	.LBB24_83
# %bb.82:                               # %cond.true191
	xorl	%eax, %eax
	jmp	.LBB24_87
.LBB24_83:                              # %cond.false192
	movl	-36(%rbp), %eax
	cmpl	-24(%rbp), %eax
	jge	.LBB24_85
# %bb.84:                               # %cond.true195
	movl	-36(%rbp), %eax
	jmp	.LBB24_86
.LBB24_85:                              # %cond.false196
	movl	-24(%rbp), %eax
.LBB24_86:                              # %cond.end197
.LBB24_87:                              # %cond.end199
	movl	%eax, -40(%rbp)
	movl	$-2, -16(%rbp)
.LBB24_88:                              # %for.cond201
                                        # =>This Inner Loop Header: Depth=1
	cmpl	$4, -16(%rbp)
	jge	.LBB24_100
# %bb.89:                               # %for.body204
                                        #   in Loop: Header=BB24_88 Depth=1
	movl	-32(%rbp), %eax
	movl	-28(%rbp), %ecx
	addl	-16(%rbp), %ecx
	cmpl	%ecx, %eax
	jge	.LBB24_91
# %bb.90:                               # %cond.true208
                                        #   in Loop: Header=BB24_88 Depth=1
	movl	-32(%rbp), %eax
	jmp	.LBB24_92
.LBB24_91:                              # %cond.false209
                                        #   in Loop: Header=BB24_88 Depth=1
	movl	-28(%rbp), %eax
	addl	-16(%rbp), %eax
.LBB24_92:                              # %cond.end211
                                        #   in Loop: Header=BB24_88 Depth=1
	xorl	%ecx, %ecx
	cmpl	%eax, %ecx
	jle	.LBB24_94
# %bb.93:                               # %cond.true215
                                        #   in Loop: Header=BB24_88 Depth=1
	xorl	%eax, %eax
	jmp	.LBB24_98
.LBB24_94:                              # %cond.false216
                                        #   in Loop: Header=BB24_88 Depth=1
	movl	-32(%rbp), %eax
	movl	-28(%rbp), %ecx
	addl	-16(%rbp), %ecx
	cmpl	%ecx, %eax
	jge	.LBB24_96
# %bb.95:                               # %cond.true220
                                        #   in Loop: Header=BB24_88 Depth=1
	movl	-32(%rbp), %eax
	jmp	.LBB24_97
.LBB24_96:                              # %cond.false221
                                        #   in Loop: Header=BB24_88 Depth=1
	movl	-28(%rbp), %eax
	addl	-16(%rbp), %eax
.LBB24_97:                              # %cond.end223
                                        #   in Loop: Header=BB24_88 Depth=1
.LBB24_98:                              # %cond.end225
                                        #   in Loop: Header=BB24_88 Depth=1
	movl	%eax, -44(%rbp)
	movq	-64(%rbp), %rax
	movslq	-44(%rbp), %rcx
	movq	(%rax,%rcx,8), %rax
	movslq	-40(%rbp), %rcx
	movzwl	(%rax,%rcx,2), %eax
	movl	-16(%rbp), %ecx
	addl	$2, %ecx
	movslq	%ecx, %rcx
	imull	Get_Reference_Pixel.COEF(,%rcx,4), %eax
	addl	-12(%rbp), %eax
	movl	%eax, -12(%rbp)
# %bb.99:                               # %for.inc237
                                        #   in Loop: Header=BB24_88 Depth=1
	movl	-16(%rbp), %eax
	addl	$1, %eax
	movl	%eax, -16(%rbp)
	jmp	.LBB24_88
.LBB24_100:                             # %for.end239
	movq	img, %rax
	movl	72684(%rax), %ecx
	movl	-12(%rbp), %eax
	addl	$16, %eax
	cltd
	movl	$32, %esi
	idivl	%esi
	cmpl	%eax, %ecx
	jge	.LBB24_102
# %bb.101:                              # %cond.true245
	movq	img, %rax
	movl	72684(%rax), %eax
	jmp	.LBB24_103
.LBB24_102:                             # %cond.false247
	movl	-12(%rbp), %eax
	addl	$16, %eax
	cltd
	movl	$32, %ecx
	idivl	%ecx
.LBB24_103:                             # %cond.end250
	xorl	%ecx, %ecx
	cmpl	%eax, %ecx
	jle	.LBB24_105
# %bb.104:                              # %cond.true254
	xorl	%eax, %eax
	jmp	.LBB24_109
.LBB24_105:                             # %cond.false255
	movq	img, %rax
	movl	72684(%rax), %ecx
	movl	-12(%rbp), %eax
	addl	$16, %eax
	cltd
	movl	$32, %esi
	idivl	%esi
	cmpl	%eax, %ecx
	jge	.LBB24_107
# %bb.106:                              # %cond.true261
	movq	img, %rax
	movl	72684(%rax), %eax
	jmp	.LBB24_108
.LBB24_107:                             # %cond.false263
	movl	-12(%rbp), %eax
	addl	$16, %eax
	cltd
	movl	$32, %ecx
	idivl	%ecx
.LBB24_108:                             # %cond.end266
.LBB24_109:                             # %cond.end268
	movl	%eax, -12(%rbp)
	cmpl	$1, -48(%rbp)
	jne	.LBB24_120
# %bb.110:                              # %if.then272
	movl	-12(%rbp), %eax
	movq	-64(%rbp), %rcx
	movl	-32(%rbp), %edx
	cmpl	-28(%rbp), %edx
	jge	.LBB24_112
# %bb.111:                              # %cond.true275
	movl	-32(%rbp), %edx
	jmp	.LBB24_113
.LBB24_112:                             # %cond.false276
	movl	-28(%rbp), %edx
.LBB24_113:                             # %cond.end277
	xorl	%esi, %esi
	cmpl	%edx, %esi
	jle	.LBB24_115
# %bb.114:                              # %cond.true281
	xorl	%edx, %edx
	jmp	.LBB24_119
.LBB24_115:                             # %cond.false282
	movl	-32(%rbp), %edx
	cmpl	-28(%rbp), %edx
	jge	.LBB24_117
# %bb.116:                              # %cond.true285
	movl	-32(%rbp), %edx
	jmp	.LBB24_118
.LBB24_117:                             # %cond.false286
	movl	-28(%rbp), %edx
.LBB24_118:                             # %cond.end287
.LBB24_119:                             # %cond.end289
	movslq	%edx, %rdx
	movq	(%rcx,%rdx,8), %rcx
	movslq	-40(%rbp), %rdx
	movzwl	(%rcx,%rdx,2), %ecx
	addl	%ecx, %eax
	cltd
	movl	$2, %ecx
	idivl	%ecx
	movl	%eax, -12(%rbp)
	jmp	.LBB24_132
.LBB24_120:                             # %if.else298
	cmpl	$3, -48(%rbp)
	jne	.LBB24_131
# %bb.121:                              # %if.then301
	movl	-12(%rbp), %eax
	movq	-64(%rbp), %rcx
	movl	-32(%rbp), %edx
	movl	-28(%rbp), %esi
	addl	$1, %esi
	cmpl	%esi, %edx
	jge	.LBB24_123
# %bb.122:                              # %cond.true305
	movl	-32(%rbp), %edx
	jmp	.LBB24_124
.LBB24_123:                             # %cond.false306
	movl	-28(%rbp), %edx
	addl	$1, %edx
.LBB24_124:                             # %cond.end308
	xorl	%esi, %esi
	cmpl	%edx, %esi
	jle	.LBB24_126
# %bb.125:                              # %cond.true312
	xorl	%edx, %edx
	jmp	.LBB24_130
.LBB24_126:                             # %cond.false313
	movl	-32(%rbp), %edx
	movl	-28(%rbp), %esi
	addl	$1, %esi
	cmpl	%esi, %edx
	jge	.LBB24_128
# %bb.127:                              # %cond.true317
	movl	-32(%rbp), %edx
	jmp	.LBB24_129
.LBB24_128:                             # %cond.false318
	movl	-28(%rbp), %edx
	addl	$1, %edx
.LBB24_129:                             # %cond.end320
.LBB24_130:                             # %cond.end322
	movslq	%edx, %rdx
	movq	(%rcx,%rdx,8), %rcx
	movslq	-40(%rbp), %rdx
	movzwl	(%rcx,%rdx,2), %ecx
	addl	%ecx, %eax
	cltd
	movl	$2, %ecx
	idivl	%ecx
	movl	%eax, -12(%rbp)
.LBB24_131:                             # %if.end331
	jmp	.LBB24_132
.LBB24_132:                             # %if.end332
	jmp	.LBB24_330
.LBB24_133:                             # %if.else333
	cmpl	$2, -52(%rbp)
	jne	.LBB24_197
# %bb.134:                              # %if.then336
	movl	$-2, -16(%rbp)
.LBB24_135:                             # %for.cond337
                                        # =>This Loop Header: Depth=1
                                        #     Child Loop BB24_146 Depth 2
	cmpl	$4, -16(%rbp)
	jge	.LBB24_160
# %bb.136:                              # %for.body340
                                        #   in Loop: Header=BB24_135 Depth=1
	movl	$0, -12(%rbp)
	movl	-32(%rbp), %eax
	movl	-28(%rbp), %ecx
	addl	-16(%rbp), %ecx
	cmpl	%ecx, %eax
	jge	.LBB24_138
# %bb.137:                              # %cond.true344
                                        #   in Loop: Header=BB24_135 Depth=1
	movl	-32(%rbp), %eax
	jmp	.LBB24_139
.LBB24_138:                             # %cond.false345
                                        #   in Loop: Header=BB24_135 Depth=1
	movl	-28(%rbp), %eax
	addl	-16(%rbp), %eax
.LBB24_139:                             # %cond.end347
                                        #   in Loop: Header=BB24_135 Depth=1
	xorl	%ecx, %ecx
	cmpl	%eax, %ecx
	jle	.LBB24_141
# %bb.140:                              # %cond.true351
                                        #   in Loop: Header=BB24_135 Depth=1
	xorl	%eax, %eax
	jmp	.LBB24_145
.LBB24_141:                             # %cond.false352
                                        #   in Loop: Header=BB24_135 Depth=1
	movl	-32(%rbp), %eax
	movl	-28(%rbp), %ecx
	addl	-16(%rbp), %ecx
	cmpl	%ecx, %eax
	jge	.LBB24_143
# %bb.142:                              # %cond.true356
                                        #   in Loop: Header=BB24_135 Depth=1
	movl	-32(%rbp), %eax
	jmp	.LBB24_144
.LBB24_143:                             # %cond.false357
                                        #   in Loop: Header=BB24_135 Depth=1
	movl	-28(%rbp), %eax
	addl	-16(%rbp), %eax
.LBB24_144:                             # %cond.end359
                                        #   in Loop: Header=BB24_135 Depth=1
.LBB24_145:                             # %cond.end361
                                        #   in Loop: Header=BB24_135 Depth=1
	movl	%eax, -44(%rbp)
	movl	$-2, -20(%rbp)
.LBB24_146:                             # %for.cond363
                                        #   Parent Loop BB24_135 Depth=1
                                        # =>  This Inner Loop Header: Depth=2
	cmpl	$4, -20(%rbp)
	jge	.LBB24_158
# %bb.147:                              # %for.body366
                                        #   in Loop: Header=BB24_146 Depth=2
	movl	-36(%rbp), %eax
	movl	-24(%rbp), %ecx
	addl	-20(%rbp), %ecx
	cmpl	%ecx, %eax
	jge	.LBB24_149
# %bb.148:                              # %cond.true370
                                        #   in Loop: Header=BB24_146 Depth=2
	movl	-36(%rbp), %eax
	jmp	.LBB24_150
.LBB24_149:                             # %cond.false371
                                        #   in Loop: Header=BB24_146 Depth=2
	movl	-24(%rbp), %eax
	addl	-20(%rbp), %eax
.LBB24_150:                             # %cond.end373
                                        #   in Loop: Header=BB24_146 Depth=2
	xorl	%ecx, %ecx
	cmpl	%eax, %ecx
	jle	.LBB24_152
# %bb.151:                              # %cond.true377
                                        #   in Loop: Header=BB24_146 Depth=2
	xorl	%eax, %eax
	jmp	.LBB24_156
.LBB24_152:                             # %cond.false378
                                        #   in Loop: Header=BB24_146 Depth=2
	movl	-36(%rbp), %eax
	movl	-24(%rbp), %ecx
	addl	-20(%rbp), %ecx
	cmpl	%ecx, %eax
	jge	.LBB24_154
# %bb.153:                              # %cond.true382
                                        #   in Loop: Header=BB24_146 Depth=2
	movl	-36(%rbp), %eax
	jmp	.LBB24_155
.LBB24_154:                             # %cond.false383
                                        #   in Loop: Header=BB24_146 Depth=2
	movl	-24(%rbp), %eax
	addl	-20(%rbp), %eax
.LBB24_155:                             # %cond.end385
                                        #   in Loop: Header=BB24_146 Depth=2
.LBB24_156:                             # %cond.end387
                                        #   in Loop: Header=BB24_146 Depth=2
	movl	%eax, -40(%rbp)
	movq	-64(%rbp), %rax
	movslq	-44(%rbp), %rcx
	movq	(%rax,%rcx,8), %rax
	movslq	-40(%rbp), %rcx
	movzwl	(%rax,%rcx,2), %eax
	movl	-20(%rbp), %ecx
	addl	$2, %ecx
	movslq	%ecx, %rcx
	imull	Get_Reference_Pixel.COEF(,%rcx,4), %eax
	addl	-12(%rbp), %eax
	movl	%eax, -12(%rbp)
# %bb.157:                              # %for.inc399
                                        #   in Loop: Header=BB24_146 Depth=2
	movl	-20(%rbp), %eax
	addl	$1, %eax
	movl	%eax, -20(%rbp)
	jmp	.LBB24_146
.LBB24_158:                             # %for.end401
                                        #   in Loop: Header=BB24_135 Depth=1
	movl	-12(%rbp), %eax
	movl	-16(%rbp), %ecx
	addl	$2, %ecx
	movslq	%ecx, %rcx
	movl	%eax, -96(%rbp,%rcx,4)
# %bb.159:                              # %for.inc405
                                        #   in Loop: Header=BB24_135 Depth=1
	movl	-16(%rbp), %eax
	addl	$1, %eax
	movl	%eax, -16(%rbp)
	jmp	.LBB24_135
.LBB24_160:                             # %for.end407
	movl	$0, -12(%rbp)
	movl	$-2, -16(%rbp)
.LBB24_161:                             # %for.cond408
                                        # =>This Inner Loop Header: Depth=1
	cmpl	$4, -16(%rbp)
	jge	.LBB24_164
# %bb.162:                              # %for.body411
                                        #   in Loop: Header=BB24_161 Depth=1
	movl	-16(%rbp), %eax
	addl	$2, %eax
	cltq
	movl	-96(%rbp,%rax,4), %eax
	movl	-16(%rbp), %ecx
	addl	$2, %ecx
	movslq	%ecx, %rcx
	imull	Get_Reference_Pixel.COEF(,%rcx,4), %eax
	addl	-12(%rbp), %eax
	movl	%eax, -12(%rbp)
# %bb.163:                              # %for.inc420
                                        #   in Loop: Header=BB24_161 Depth=1
	movl	-16(%rbp), %eax
	addl	$1, %eax
	movl	%eax, -16(%rbp)
	jmp	.LBB24_161
.LBB24_164:                             # %for.end422
	movq	img, %rax
	movl	72684(%rax), %ecx
	movl	-12(%rbp), %eax
	addl	$512, %eax              # imm = 0x200
	cltd
	movl	$1024, %esi             # imm = 0x400
	idivl	%esi
	cmpl	%eax, %ecx
	jge	.LBB24_166
# %bb.165:                              # %cond.true428
	movq	img, %rax
	movl	72684(%rax), %eax
	jmp	.LBB24_167
.LBB24_166:                             # %cond.false430
	movl	-12(%rbp), %eax
	addl	$512, %eax              # imm = 0x200
	cltd
	movl	$1024, %ecx             # imm = 0x400
	idivl	%ecx
.LBB24_167:                             # %cond.end433
	xorl	%ecx, %ecx
	cmpl	%eax, %ecx
	jle	.LBB24_169
# %bb.168:                              # %cond.true437
	xorl	%eax, %eax
	jmp	.LBB24_173
.LBB24_169:                             # %cond.false438
	movq	img, %rax
	movl	72684(%rax), %ecx
	movl	-12(%rbp), %eax
	addl	$512, %eax              # imm = 0x200
	cltd
	movl	$1024, %esi             # imm = 0x400
	idivl	%esi
	cmpl	%eax, %ecx
	jge	.LBB24_171
# %bb.170:                              # %cond.true444
	movq	img, %rax
	movl	72684(%rax), %eax
	jmp	.LBB24_172
.LBB24_171:                             # %cond.false446
	movl	-12(%rbp), %eax
	addl	$512, %eax              # imm = 0x200
	cltd
	movl	$1024, %ecx             # imm = 0x400
	idivl	%ecx
.LBB24_172:                             # %cond.end449
.LBB24_173:                             # %cond.end451
	movl	%eax, -12(%rbp)
	cmpl	$1, -48(%rbp)
	jne	.LBB24_184
# %bb.174:                              # %if.then455
	movl	-12(%rbp), %ecx
	movq	img, %rax
	movl	72684(%rax), %esi
	movl	-88(%rbp), %eax
	addl	$16, %eax
	cltd
	movl	$32, %edi
	idivl	%edi
	cmpl	%eax, %esi
	jge	.LBB24_176
# %bb.175:                              # %cond.true462
	movq	img, %rax
	movl	72684(%rax), %eax
	jmp	.LBB24_177
.LBB24_176:                             # %cond.false464
	movl	-88(%rbp), %eax
	addl	$16, %eax
	cltd
	movl	$32, %esi
	idivl	%esi
.LBB24_177:                             # %cond.end468
	xorl	%edx, %edx
	cmpl	%eax, %edx
	jle	.LBB24_179
# %bb.178:                              # %cond.true472
	xorl	%eax, %eax
	jmp	.LBB24_183
.LBB24_179:                             # %cond.false473
	movq	img, %rax
	movl	72684(%rax), %esi
	movl	-88(%rbp), %eax
	addl	$16, %eax
	cltd
	movl	$32, %edi
	idivl	%edi
	cmpl	%eax, %esi
	jge	.LBB24_181
# %bb.180:                              # %cond.true480
	movq	img, %rax
	movl	72684(%rax), %eax
	jmp	.LBB24_182
.LBB24_181:                             # %cond.false482
	movl	-88(%rbp), %eax
	addl	$16, %eax
	cltd
	movl	$32, %esi
	idivl	%esi
.LBB24_182:                             # %cond.end486
.LBB24_183:                             # %cond.end488
	addl	%eax, %ecx
	movl	%ecx, %eax
	cltd
	movl	$2, %ecx
	idivl	%ecx
	movl	%eax, -12(%rbp)
	jmp	.LBB24_196
.LBB24_184:                             # %if.else492
	cmpl	$3, -48(%rbp)
	jne	.LBB24_195
# %bb.185:                              # %if.then495
	movl	-12(%rbp), %ecx
	movq	img, %rax
	movl	72684(%rax), %esi
	movl	-84(%rbp), %eax
	addl	$16, %eax
	cltd
	movl	$32, %edi
	idivl	%edi
	cmpl	%eax, %esi
	jge	.LBB24_187
# %bb.186:                              # %cond.true502
	movq	img, %rax
	movl	72684(%rax), %eax
	jmp	.LBB24_188
.LBB24_187:                             # %cond.false504
	movl	-84(%rbp), %eax
	addl	$16, %eax
	cltd
	movl	$32, %esi
	idivl	%esi
.LBB24_188:                             # %cond.end508
	xorl	%edx, %edx
	cmpl	%eax, %edx
	jle	.LBB24_190
# %bb.189:                              # %cond.true512
	xorl	%eax, %eax
	jmp	.LBB24_194
.LBB24_190:                             # %cond.false513
	movq	img, %rax
	movl	72684(%rax), %esi
	movl	-84(%rbp), %eax
	addl	$16, %eax
	cltd
	movl	$32, %edi
	idivl	%edi
	cmpl	%eax, %esi
	jge	.LBB24_192
# %bb.191:                              # %cond.true520
	movq	img, %rax
	movl	72684(%rax), %eax
	jmp	.LBB24_193
.LBB24_192:                             # %cond.false522
	movl	-84(%rbp), %eax
	addl	$16, %eax
	cltd
	movl	$32, %esi
	idivl	%esi
.LBB24_193:                             # %cond.end526
.LBB24_194:                             # %cond.end528
	addl	%eax, %ecx
	movl	%ecx, %eax
	cltd
	movl	$2, %ecx
	idivl	%ecx
	movl	%eax, -12(%rbp)
.LBB24_195:                             # %if.end532
	jmp	.LBB24_196
.LBB24_196:                             # %if.end533
	jmp	.LBB24_329
.LBB24_197:                             # %if.else534
	cmpl	$2, -48(%rbp)
	jne	.LBB24_259
# %bb.198:                              # %if.then537
	movl	$-2, -20(%rbp)
.LBB24_199:                             # %for.cond538
                                        # =>This Loop Header: Depth=1
                                        #     Child Loop BB24_210 Depth 2
	cmpl	$4, -20(%rbp)
	jge	.LBB24_224
# %bb.200:                              # %for.body541
                                        #   in Loop: Header=BB24_199 Depth=1
	movl	$0, -12(%rbp)
	movl	-36(%rbp), %eax
	movl	-24(%rbp), %ecx
	addl	-20(%rbp), %ecx
	cmpl	%ecx, %eax
	jge	.LBB24_202
# %bb.201:                              # %cond.true545
                                        #   in Loop: Header=BB24_199 Depth=1
	movl	-36(%rbp), %eax
	jmp	.LBB24_203
.LBB24_202:                             # %cond.false546
                                        #   in Loop: Header=BB24_199 Depth=1
	movl	-24(%rbp), %eax
	addl	-20(%rbp), %eax
.LBB24_203:                             # %cond.end548
                                        #   in Loop: Header=BB24_199 Depth=1
	xorl	%ecx, %ecx
	cmpl	%eax, %ecx
	jle	.LBB24_205
# %bb.204:                              # %cond.true552
                                        #   in Loop: Header=BB24_199 Depth=1
	xorl	%eax, %eax
	jmp	.LBB24_209
.LBB24_205:                             # %cond.false553
                                        #   in Loop: Header=BB24_199 Depth=1
	movl	-36(%rbp), %eax
	movl	-24(%rbp), %ecx
	addl	-20(%rbp), %ecx
	cmpl	%ecx, %eax
	jge	.LBB24_207
# %bb.206:                              # %cond.true557
                                        #   in Loop: Header=BB24_199 Depth=1
	movl	-36(%rbp), %eax
	jmp	.LBB24_208
.LBB24_207:                             # %cond.false558
                                        #   in Loop: Header=BB24_199 Depth=1
	movl	-24(%rbp), %eax
	addl	-20(%rbp), %eax
.LBB24_208:                             # %cond.end560
                                        #   in Loop: Header=BB24_199 Depth=1
.LBB24_209:                             # %cond.end562
                                        #   in Loop: Header=BB24_199 Depth=1
	movl	%eax, -40(%rbp)
	movl	$-2, -16(%rbp)
.LBB24_210:                             # %for.cond564
                                        #   Parent Loop BB24_199 Depth=1
                                        # =>  This Inner Loop Header: Depth=2
	cmpl	$4, -16(%rbp)
	jge	.LBB24_222
# %bb.211:                              # %for.body567
                                        #   in Loop: Header=BB24_210 Depth=2
	movl	-32(%rbp), %eax
	movl	-28(%rbp), %ecx
	addl	-16(%rbp), %ecx
	cmpl	%ecx, %eax
	jge	.LBB24_213
# %bb.212:                              # %cond.true571
                                        #   in Loop: Header=BB24_210 Depth=2
	movl	-32(%rbp), %eax
	jmp	.LBB24_214
.LBB24_213:                             # %cond.false572
                                        #   in Loop: Header=BB24_210 Depth=2
	movl	-28(%rbp), %eax
	addl	-16(%rbp), %eax
.LBB24_214:                             # %cond.end574
                                        #   in Loop: Header=BB24_210 Depth=2
	xorl	%ecx, %ecx
	cmpl	%eax, %ecx
	jle	.LBB24_216
# %bb.215:                              # %cond.true578
                                        #   in Loop: Header=BB24_210 Depth=2
	xorl	%eax, %eax
	jmp	.LBB24_220
.LBB24_216:                             # %cond.false579
                                        #   in Loop: Header=BB24_210 Depth=2
	movl	-32(%rbp), %eax
	movl	-28(%rbp), %ecx
	addl	-16(%rbp), %ecx
	cmpl	%ecx, %eax
	jge	.LBB24_218
# %bb.217:                              # %cond.true583
                                        #   in Loop: Header=BB24_210 Depth=2
	movl	-32(%rbp), %eax
	jmp	.LBB24_219
.LBB24_218:                             # %cond.false584
                                        #   in Loop: Header=BB24_210 Depth=2
	movl	-28(%rbp), %eax
	addl	-16(%rbp), %eax
.LBB24_219:                             # %cond.end586
                                        #   in Loop: Header=BB24_210 Depth=2
.LBB24_220:                             # %cond.end588
                                        #   in Loop: Header=BB24_210 Depth=2
	movl	%eax, -44(%rbp)
	movq	-64(%rbp), %rax
	movslq	-44(%rbp), %rcx
	movq	(%rax,%rcx,8), %rax
	movslq	-40(%rbp), %rcx
	movzwl	(%rax,%rcx,2), %eax
	movl	-16(%rbp), %ecx
	addl	$2, %ecx
	movslq	%ecx, %rcx
	imull	Get_Reference_Pixel.COEF(,%rcx,4), %eax
	addl	-12(%rbp), %eax
	movl	%eax, -12(%rbp)
# %bb.221:                              # %for.inc600
                                        #   in Loop: Header=BB24_210 Depth=2
	movl	-16(%rbp), %eax
	addl	$1, %eax
	movl	%eax, -16(%rbp)
	jmp	.LBB24_210
.LBB24_222:                             # %for.end602
                                        #   in Loop: Header=BB24_199 Depth=1
	movl	-12(%rbp), %eax
	movl	-20(%rbp), %ecx
	addl	$2, %ecx
	movslq	%ecx, %rcx
	movl	%eax, -96(%rbp,%rcx,4)
# %bb.223:                              # %for.inc606
                                        #   in Loop: Header=BB24_199 Depth=1
	movl	-20(%rbp), %eax
	addl	$1, %eax
	movl	%eax, -20(%rbp)
	jmp	.LBB24_199
.LBB24_224:                             # %for.end608
	movl	$0, -12(%rbp)
	movl	$-2, -20(%rbp)
.LBB24_225:                             # %for.cond609
                                        # =>This Inner Loop Header: Depth=1
	cmpl	$4, -20(%rbp)
	jge	.LBB24_228
# %bb.226:                              # %for.body612
                                        #   in Loop: Header=BB24_225 Depth=1
	movl	-20(%rbp), %eax
	addl	$2, %eax
	cltq
	movl	-96(%rbp,%rax,4), %eax
	movl	-20(%rbp), %ecx
	addl	$2, %ecx
	movslq	%ecx, %rcx
	imull	Get_Reference_Pixel.COEF(,%rcx,4), %eax
	addl	-12(%rbp), %eax
	movl	%eax, -12(%rbp)
# %bb.227:                              # %for.inc621
                                        #   in Loop: Header=BB24_225 Depth=1
	movl	-20(%rbp), %eax
	addl	$1, %eax
	movl	%eax, -20(%rbp)
	jmp	.LBB24_225
.LBB24_228:                             # %for.end623
	movq	img, %rax
	movl	72684(%rax), %ecx
	movl	-12(%rbp), %eax
	addl	$512, %eax              # imm = 0x200
	cltd
	movl	$1024, %esi             # imm = 0x400
	idivl	%esi
	cmpl	%eax, %ecx
	jge	.LBB24_230
# %bb.229:                              # %cond.true629
	movq	img, %rax
	movl	72684(%rax), %eax
	jmp	.LBB24_231
.LBB24_230:                             # %cond.false631
	movl	-12(%rbp), %eax
	addl	$512, %eax              # imm = 0x200
	cltd
	movl	$1024, %ecx             # imm = 0x400
	idivl	%ecx
.LBB24_231:                             # %cond.end634
	xorl	%ecx, %ecx
	cmpl	%eax, %ecx
	jle	.LBB24_233
# %bb.232:                              # %cond.true638
	xorl	%eax, %eax
	jmp	.LBB24_237
.LBB24_233:                             # %cond.false639
	movq	img, %rax
	movl	72684(%rax), %ecx
	movl	-12(%rbp), %eax
	addl	$512, %eax              # imm = 0x200
	cltd
	movl	$1024, %esi             # imm = 0x400
	idivl	%esi
	cmpl	%eax, %ecx
	jge	.LBB24_235
# %bb.234:                              # %cond.true645
	movq	img, %rax
	movl	72684(%rax), %eax
	jmp	.LBB24_236
.LBB24_235:                             # %cond.false647
	movl	-12(%rbp), %eax
	addl	$512, %eax              # imm = 0x200
	cltd
	movl	$1024, %ecx             # imm = 0x400
	idivl	%ecx
.LBB24_236:                             # %cond.end650
.LBB24_237:                             # %cond.end652
	movl	%eax, -12(%rbp)
	cmpl	$1, -52(%rbp)
	jne	.LBB24_248
# %bb.238:                              # %if.then656
	movl	-12(%rbp), %ecx
	movq	img, %rax
	movl	72684(%rax), %esi
	movl	-88(%rbp), %eax
	addl	$16, %eax
	cltd
	movl	$32, %edi
	idivl	%edi
	cmpl	%eax, %esi
	jge	.LBB24_240
# %bb.239:                              # %cond.true663
	movq	img, %rax
	movl	72684(%rax), %eax
	jmp	.LBB24_241
.LBB24_240:                             # %cond.false665
	movl	-88(%rbp), %eax
	addl	$16, %eax
	cltd
	movl	$32, %esi
	idivl	%esi
.LBB24_241:                             # %cond.end669
	xorl	%edx, %edx
	cmpl	%eax, %edx
	jle	.LBB24_243
# %bb.242:                              # %cond.true673
	xorl	%eax, %eax
	jmp	.LBB24_247
.LBB24_243:                             # %cond.false674
	movq	img, %rax
	movl	72684(%rax), %esi
	movl	-88(%rbp), %eax
	addl	$16, %eax
	cltd
	movl	$32, %edi
	idivl	%edi
	cmpl	%eax, %esi
	jge	.LBB24_245
# %bb.244:                              # %cond.true681
	movq	img, %rax
	movl	72684(%rax), %eax
	jmp	.LBB24_246
.LBB24_245:                             # %cond.false683
	movl	-88(%rbp), %eax
	addl	$16, %eax
	cltd
	movl	$32, %esi
	idivl	%esi
.LBB24_246:                             # %cond.end687
.LBB24_247:                             # %cond.end689
	addl	%eax, %ecx
	movl	%ecx, %eax
	cltd
	movl	$2, %ecx
	idivl	%ecx
	movl	%eax, -12(%rbp)
	jmp	.LBB24_258
.LBB24_248:                             # %if.else693
	movl	-12(%rbp), %ecx
	movq	img, %rax
	movl	72684(%rax), %esi
	movl	-84(%rbp), %eax
	addl	$16, %eax
	cltd
	movl	$32, %edi
	idivl	%edi
	cmpl	%eax, %esi
	jge	.LBB24_250
# %bb.249:                              # %cond.true700
	movq	img, %rax
	movl	72684(%rax), %eax
	jmp	.LBB24_251
.LBB24_250:                             # %cond.false702
	movl	-84(%rbp), %eax
	addl	$16, %eax
	cltd
	movl	$32, %esi
	idivl	%esi
.LBB24_251:                             # %cond.end706
	xorl	%edx, %edx
	cmpl	%eax, %edx
	jle	.LBB24_253
# %bb.252:                              # %cond.true710
	xorl	%eax, %eax
	jmp	.LBB24_257
.LBB24_253:                             # %cond.false711
	movq	img, %rax
	movl	72684(%rax), %esi
	movl	-84(%rbp), %eax
	addl	$16, %eax
	cltd
	movl	$32, %edi
	idivl	%edi
	cmpl	%eax, %esi
	jge	.LBB24_255
# %bb.254:                              # %cond.true718
	movq	img, %rax
	movl	72684(%rax), %eax
	jmp	.LBB24_256
.LBB24_255:                             # %cond.false720
	movl	-84(%rbp), %eax
	addl	$16, %eax
	cltd
	movl	$32, %esi
	idivl	%esi
.LBB24_256:                             # %cond.end724
.LBB24_257:                             # %cond.end726
	addl	%eax, %ecx
	movl	%ecx, %eax
	cltd
	movl	$2, %ecx
	idivl	%ecx
	movl	%eax, -12(%rbp)
.LBB24_258:                             # %if.end730
	jmp	.LBB24_328
.LBB24_259:                             # %if.else731
	movl	$0, -12(%rbp)
	cmpl	$1, -48(%rbp)
	jne	.LBB24_261
# %bb.260:                              # %cond.true734
	movl	-28(%rbp), %eax
	jmp	.LBB24_262
.LBB24_261:                             # %cond.false735
	movl	-28(%rbp), %eax
	addl	$1, %eax
.LBB24_262:                             # %cond.end737
	movl	%eax, -44(%rbp)
	movl	-32(%rbp), %eax
	cmpl	-44(%rbp), %eax
	jge	.LBB24_264
# %bb.263:                              # %cond.true741
	movl	-32(%rbp), %eax
	jmp	.LBB24_265
.LBB24_264:                             # %cond.false742
	movl	-44(%rbp), %eax
.LBB24_265:                             # %cond.end743
	xorl	%ecx, %ecx
	cmpl	%eax, %ecx
	jle	.LBB24_267
# %bb.266:                              # %cond.true747
	xorl	%eax, %eax
	jmp	.LBB24_271
.LBB24_267:                             # %cond.false748
	movl	-32(%rbp), %eax
	cmpl	-44(%rbp), %eax
	jge	.LBB24_269
# %bb.268:                              # %cond.true751
	movl	-32(%rbp), %eax
	jmp	.LBB24_270
.LBB24_269:                             # %cond.false752
	movl	-44(%rbp), %eax
.LBB24_270:                             # %cond.end753
.LBB24_271:                             # %cond.end755
	movl	%eax, -44(%rbp)
	movl	$-2, -20(%rbp)
.LBB24_272:                             # %for.cond757
                                        # =>This Inner Loop Header: Depth=1
	cmpl	$4, -20(%rbp)
	jge	.LBB24_284
# %bb.273:                              # %for.body760
                                        #   in Loop: Header=BB24_272 Depth=1
	movl	-36(%rbp), %eax
	movl	-24(%rbp), %ecx
	addl	-20(%rbp), %ecx
	cmpl	%ecx, %eax
	jge	.LBB24_275
# %bb.274:                              # %cond.true764
                                        #   in Loop: Header=BB24_272 Depth=1
	movl	-36(%rbp), %eax
	jmp	.LBB24_276
.LBB24_275:                             # %cond.false765
                                        #   in Loop: Header=BB24_272 Depth=1
	movl	-24(%rbp), %eax
	addl	-20(%rbp), %eax
.LBB24_276:                             # %cond.end767
                                        #   in Loop: Header=BB24_272 Depth=1
	xorl	%ecx, %ecx
	cmpl	%eax, %ecx
	jle	.LBB24_278
# %bb.277:                              # %cond.true771
                                        #   in Loop: Header=BB24_272 Depth=1
	xorl	%eax, %eax
	jmp	.LBB24_282
.LBB24_278:                             # %cond.false772
                                        #   in Loop: Header=BB24_272 Depth=1
	movl	-36(%rbp), %eax
	movl	-24(%rbp), %ecx
	addl	-20(%rbp), %ecx
	cmpl	%ecx, %eax
	jge	.LBB24_280
# %bb.279:                              # %cond.true776
                                        #   in Loop: Header=BB24_272 Depth=1
	movl	-36(%rbp), %eax
	jmp	.LBB24_281
.LBB24_280:                             # %cond.false777
                                        #   in Loop: Header=BB24_272 Depth=1
	movl	-24(%rbp), %eax
	addl	-20(%rbp), %eax
.LBB24_281:                             # %cond.end779
                                        #   in Loop: Header=BB24_272 Depth=1
.LBB24_282:                             # %cond.end781
                                        #   in Loop: Header=BB24_272 Depth=1
	movl	%eax, -40(%rbp)
	movq	-64(%rbp), %rax
	movslq	-44(%rbp), %rcx
	movq	(%rax,%rcx,8), %rax
	movslq	-40(%rbp), %rcx
	movzwl	(%rax,%rcx,2), %eax
	movl	-20(%rbp), %ecx
	addl	$2, %ecx
	movslq	%ecx, %rcx
	imull	Get_Reference_Pixel.COEF(,%rcx,4), %eax
	addl	-12(%rbp), %eax
	movl	%eax, -12(%rbp)
# %bb.283:                              # %for.inc793
                                        #   in Loop: Header=BB24_272 Depth=1
	movl	-20(%rbp), %eax
	addl	$1, %eax
	movl	%eax, -20(%rbp)
	jmp	.LBB24_272
.LBB24_284:                             # %for.end795
	movq	img, %rax
	movl	72684(%rax), %ecx
	movl	-12(%rbp), %eax
	addl	$16, %eax
	cltd
	movl	$32, %esi
	idivl	%esi
	cmpl	%eax, %ecx
	jge	.LBB24_286
# %bb.285:                              # %cond.true801
	movq	img, %rax
	movl	72684(%rax), %eax
	jmp	.LBB24_287
.LBB24_286:                             # %cond.false803
	movl	-12(%rbp), %eax
	addl	$16, %eax
	cltd
	movl	$32, %ecx
	idivl	%ecx
.LBB24_287:                             # %cond.end806
	xorl	%ecx, %ecx
	cmpl	%eax, %ecx
	jle	.LBB24_289
# %bb.288:                              # %cond.true810
	xorl	%eax, %eax
	jmp	.LBB24_293
.LBB24_289:                             # %cond.false811
	movq	img, %rax
	movl	72684(%rax), %ecx
	movl	-12(%rbp), %eax
	addl	$16, %eax
	cltd
	movl	$32, %esi
	idivl	%esi
	cmpl	%eax, %ecx
	jge	.LBB24_291
# %bb.290:                              # %cond.true817
	movq	img, %rax
	movl	72684(%rax), %eax
	jmp	.LBB24_292
.LBB24_291:                             # %cond.false819
	movl	-12(%rbp), %eax
	addl	$16, %eax
	cltd
	movl	$32, %ecx
	idivl	%ecx
.LBB24_292:                             # %cond.end822
.LBB24_293:                             # %cond.end824
	movl	%eax, -108(%rbp)
	movl	$0, -12(%rbp)
	cmpl	$1, -52(%rbp)
	jne	.LBB24_295
# %bb.294:                              # %cond.true828
	movl	-24(%rbp), %eax
	jmp	.LBB24_296
.LBB24_295:                             # %cond.false829
	movl	-24(%rbp), %eax
	addl	$1, %eax
.LBB24_296:                             # %cond.end831
	movl	%eax, -40(%rbp)
	movl	-36(%rbp), %eax
	cmpl	-40(%rbp), %eax
	jge	.LBB24_298
# %bb.297:                              # %cond.true835
	movl	-36(%rbp), %eax
	jmp	.LBB24_299
.LBB24_298:                             # %cond.false836
	movl	-40(%rbp), %eax
.LBB24_299:                             # %cond.end837
	xorl	%ecx, %ecx
	cmpl	%eax, %ecx
	jle	.LBB24_301
# %bb.300:                              # %cond.true841
	xorl	%eax, %eax
	jmp	.LBB24_305
.LBB24_301:                             # %cond.false842
	movl	-36(%rbp), %eax
	cmpl	-40(%rbp), %eax
	jge	.LBB24_303
# %bb.302:                              # %cond.true845
	movl	-36(%rbp), %eax
	jmp	.LBB24_304
.LBB24_303:                             # %cond.false846
	movl	-40(%rbp), %eax
.LBB24_304:                             # %cond.end847
.LBB24_305:                             # %cond.end849
	movl	%eax, -40(%rbp)
	movl	$-2, -16(%rbp)
.LBB24_306:                             # %for.cond851
                                        # =>This Inner Loop Header: Depth=1
	cmpl	$4, -16(%rbp)
	jge	.LBB24_318
# %bb.307:                              # %for.body854
                                        #   in Loop: Header=BB24_306 Depth=1
	movl	-32(%rbp), %eax
	movl	-28(%rbp), %ecx
	addl	-16(%rbp), %ecx
	cmpl	%ecx, %eax
	jge	.LBB24_309
# %bb.308:                              # %cond.true858
                                        #   in Loop: Header=BB24_306 Depth=1
	movl	-32(%rbp), %eax
	jmp	.LBB24_310
.LBB24_309:                             # %cond.false859
                                        #   in Loop: Header=BB24_306 Depth=1
	movl	-28(%rbp), %eax
	addl	-16(%rbp), %eax
.LBB24_310:                             # %cond.end861
                                        #   in Loop: Header=BB24_306 Depth=1
	xorl	%ecx, %ecx
	cmpl	%eax, %ecx
	jle	.LBB24_312
# %bb.311:                              # %cond.true865
                                        #   in Loop: Header=BB24_306 Depth=1
	xorl	%eax, %eax
	jmp	.LBB24_316
.LBB24_312:                             # %cond.false866
                                        #   in Loop: Header=BB24_306 Depth=1
	movl	-32(%rbp), %eax
	movl	-28(%rbp), %ecx
	addl	-16(%rbp), %ecx
	cmpl	%ecx, %eax
	jge	.LBB24_314
# %bb.313:                              # %cond.true870
                                        #   in Loop: Header=BB24_306 Depth=1
	movl	-32(%rbp), %eax
	jmp	.LBB24_315
.LBB24_314:                             # %cond.false871
                                        #   in Loop: Header=BB24_306 Depth=1
	movl	-28(%rbp), %eax
	addl	-16(%rbp), %eax
.LBB24_315:                             # %cond.end873
                                        #   in Loop: Header=BB24_306 Depth=1
.LBB24_316:                             # %cond.end875
                                        #   in Loop: Header=BB24_306 Depth=1
	movl	%eax, -44(%rbp)
	movq	-64(%rbp), %rax
	movslq	-44(%rbp), %rcx
	movq	(%rax,%rcx,8), %rax
	movslq	-40(%rbp), %rcx
	movzwl	(%rax,%rcx,2), %eax
	movl	-16(%rbp), %ecx
	addl	$2, %ecx
	movslq	%ecx, %rcx
	imull	Get_Reference_Pixel.COEF(,%rcx,4), %eax
	addl	-12(%rbp), %eax
	movl	%eax, -12(%rbp)
# %bb.317:                              # %for.inc887
                                        #   in Loop: Header=BB24_306 Depth=1
	movl	-16(%rbp), %eax
	addl	$1, %eax
	movl	%eax, -16(%rbp)
	jmp	.LBB24_306
.LBB24_318:                             # %for.end889
	movq	img, %rax
	movl	72684(%rax), %ecx
	movl	-12(%rbp), %eax
	addl	$16, %eax
	cltd
	movl	$32, %esi
	idivl	%esi
	cmpl	%eax, %ecx
	jge	.LBB24_320
# %bb.319:                              # %cond.true895
	movq	img, %rax
	movl	72684(%rax), %eax
	jmp	.LBB24_321
.LBB24_320:                             # %cond.false897
	movl	-12(%rbp), %eax
	addl	$16, %eax
	cltd
	movl	$32, %ecx
	idivl	%ecx
.LBB24_321:                             # %cond.end900
	xorl	%ecx, %ecx
	cmpl	%eax, %ecx
	jle	.LBB24_323
# %bb.322:                              # %cond.true904
	xorl	%eax, %eax
	jmp	.LBB24_327
.LBB24_323:                             # %cond.false905
	movq	img, %rax
	movl	72684(%rax), %ecx
	movl	-12(%rbp), %eax
	addl	$16, %eax
	cltd
	movl	$32, %esi
	idivl	%esi
	cmpl	%eax, %ecx
	jge	.LBB24_325
# %bb.324:                              # %cond.true911
	movq	img, %rax
	movl	72684(%rax), %eax
	jmp	.LBB24_326
.LBB24_325:                             # %cond.false913
	movl	-12(%rbp), %eax
	addl	$16, %eax
	cltd
	movl	$32, %ecx
	idivl	%ecx
.LBB24_326:                             # %cond.end916
.LBB24_327:                             # %cond.end918
	movl	%eax, -100(%rbp)
	movl	-108(%rbp), %eax
	addl	-100(%rbp), %eax
	cltd
	movl	$2, %ecx
	idivl	%ecx
	movl	%eax, -12(%rbp)
.LBB24_328:                             # %if.end922
	jmp	.LBB24_329
.LBB24_329:                             # %if.end923
	jmp	.LBB24_330
.LBB24_330:                             # %if.end924
	jmp	.LBB24_331
.LBB24_331:                             # %if.end925
	jmp	.LBB24_332
.LBB24_332:                             # %if.end926
	movl	-12(%rbp), %ebx
	cmpl	$903894290, -104(%rbp)  # imm = 0x35E05512
	jne	.LBB24_334
.LBB24_333:
	movzbl	%bl, %eax
	addq	$104, %rsp
	popq	%rbx
	popq	%rbp
	.cfi_def_cfa %rsp, 8
	retq
.LBB24_334:                             # %func_exit
	.cfi_def_cfa %rbp, 16
	callq	detect_breach
	jmp	.LBB24_333
.Lfunc_end24:
	.size	Get_Reference_Pixel.14, .Lfunc_end24-Get_Reference_Pixel.14
	.cfi_endproc
                                        # -- End function
	.globl	Error_Concealment.15    # -- Begin function Error_Concealment.15
	.p2align	4, 0x90
	.type	Error_Concealment.15,@function
Error_Concealment.15:                   # @Error_Concealment.15
	.cfi_startproc
# %bb.0:                                # %entry
	pushq	%rbp
	.cfi_def_cfa_offset 16
	.cfi_offset %rbp, -16
	movq	%rsp, %rbp
	.cfi_def_cfa_register %rbp
	subq	$48, %rsp
	movl	$1365189921, -12(%rbp)  # imm = 0x515F2521
	movq	%rdi, -48(%rbp)
	movq	%rsi, -32(%rbp)
	movq	%rdx, -40(%rbp)
	movq	img, %rax
	movl	60(%rax), %eax
	cltd
	movl	$16, %ecx
	idivl	%ecx
	movl	%eax, -20(%rbp)
	movq	img, %rax
	movl	52(%rax), %eax
	cltd
	idivl	%ecx
	movl	%eax, -16(%rbp)
	movl	$0, -8(%rbp)
.LBB25_1:                               # %for.cond
                                        # =>This Loop Header: Depth=1
                                        #     Child Loop BB25_3 Depth 2
	movl	-8(%rbp), %eax
	cmpl	-20(%rbp), %eax
	jge	.LBB25_10
# %bb.2:                                # %for.body
                                        #   in Loop: Header=BB25_1 Depth=1
	movl	$0, -4(%rbp)
.LBB25_3:                               # %for.cond2
                                        #   Parent Loop BB25_1 Depth=1
                                        # =>  This Inner Loop Header: Depth=2
	movl	-4(%rbp), %eax
	cmpl	-16(%rbp), %eax
	jge	.LBB25_8
# %bb.4:                                # %for.body4
                                        #   in Loop: Header=BB25_3 Depth=2
	movq	-32(%rbp), %rax
	movslq	-8(%rbp), %rcx
	movq	(%rax,%rcx,8), %rax
	movslq	-4(%rbp), %rcx
	cmpb	$0, (%rax,%rcx)
	je	.LBB25_6
# %bb.5:                                # %if.then
                                        #   in Loop: Header=BB25_3 Depth=2
	movq	-48(%rbp), %rdi
	movl	-8(%rbp), %esi
	movl	-4(%rbp), %edx
	movq	-40(%rbp), %rcx
	movq	-32(%rbp), %r8
	callq	Conceal_Error
.LBB25_6:                               # %if.end
                                        #   in Loop: Header=BB25_3 Depth=2
	jmp	.LBB25_7
.LBB25_7:                               # %for.inc
                                        #   in Loop: Header=BB25_3 Depth=2
	movl	-4(%rbp), %eax
	addl	$1, %eax
	movl	%eax, -4(%rbp)
	jmp	.LBB25_3
.LBB25_8:                               # %for.end
                                        #   in Loop: Header=BB25_1 Depth=1
	jmp	.LBB25_9
.LBB25_9:                               # %for.inc7
                                        #   in Loop: Header=BB25_1 Depth=1
	movl	-8(%rbp), %eax
	addl	$1, %eax
	movl	%eax, -8(%rbp)
	jmp	.LBB25_1
.LBB25_10:                              # %for.end9
	cmpl	$1365189921, -12(%rbp)  # imm = 0x515F2521
	jne	.LBB25_12
.LBB25_11:
	addq	$48, %rsp
	popq	%rbp
	.cfi_def_cfa %rsp, 8
	retq
.LBB25_12:                              # %func_exit
	.cfi_def_cfa %rbp, 16
	callq	detect_breach
	jmp	.LBB25_11
.Lfunc_end25:
	.size	Error_Concealment.15, .Lfunc_end25-Error_Concealment.15
	.cfi_endproc
                                        # -- End function
	.globl	Get_Reference_Pixel.16  # -- Begin function Get_Reference_Pixel.16
	.p2align	4, 0x90
	.type	Get_Reference_Pixel.16,@function
Get_Reference_Pixel.16:                 # @Get_Reference_Pixel.16
	.cfi_startproc
# %bb.0:                                # %entry
	pushq	%rbp
	.cfi_def_cfa_offset 16
	.cfi_offset %rbp, -16
	movq	%rsp, %rbp
	.cfi_def_cfa_register %rbp
	pushq	%rbx
	subq	$104, %rsp
	.cfi_offset %rbx, -24
	movl	$1826550060, -100(%rbp) # imm = 0x6CDEF12C
	movq	%rdi, -64(%rbp)
	movl	%esi, -24(%rbp)
	movl	%edx, -28(%rbp)
	movl	$0, -12(%rbp)
	movl	-28(%rbp), %eax
	andl	$3, %eax
	movl	%eax, -52(%rbp)
	movl	-24(%rbp), %eax
	andl	$3, %eax
	movl	%eax, -48(%rbp)
	movl	-28(%rbp), %eax
	subl	-52(%rbp), %eax
	cltd
	movl	$4, %ecx
	idivl	%ecx
	movl	%eax, -28(%rbp)
	movl	-24(%rbp), %eax
	subl	-48(%rbp), %eax
	cltd
	idivl	%ecx
	movl	%eax, -24(%rbp)
	movq	img, %rax
	movl	52(%rax), %eax
	subl	$1, %eax
	movl	%eax, -36(%rbp)
	movq	img, %rax
	movl	60(%rax), %eax
	subl	$1, %eax
	movl	%eax, -32(%rbp)
	cmpl	$0, -52(%rbp)
	jne	.LBB26_21
# %bb.1:                                # %land.lhs.true
	cmpl	$0, -48(%rbp)
	jne	.LBB26_21
# %bb.2:                                # %if.then
	movq	-64(%rbp), %rax
	movl	-32(%rbp), %ecx
	cmpl	-24(%rbp), %ecx
	jge	.LBB26_4
# %bb.3:                                # %cond.true
	movl	-32(%rbp), %ecx
	jmp	.LBB26_5
.LBB26_4:                               # %cond.false
	movl	-24(%rbp), %ecx
.LBB26_5:                               # %cond.end
	xorl	%edx, %edx
	cmpl	%ecx, %edx
	jle	.LBB26_7
# %bb.6:                                # %cond.true9
	xorl	%ecx, %ecx
	jmp	.LBB26_11
.LBB26_7:                               # %cond.false10
	movl	-32(%rbp), %ecx
	cmpl	-24(%rbp), %ecx
	jge	.LBB26_9
# %bb.8:                                # %cond.true12
	movl	-32(%rbp), %ecx
	jmp	.LBB26_10
.LBB26_9:                               # %cond.false13
	movl	-24(%rbp), %ecx
.LBB26_10:                              # %cond.end14
.LBB26_11:                              # %cond.end16
	movslq	%ecx, %rcx
	movq	(%rax,%rcx,8), %rax
	movl	-36(%rbp), %ecx
	cmpl	-28(%rbp), %ecx
	jge	.LBB26_13
# %bb.12:                               # %cond.true19
	movl	-36(%rbp), %ecx
	jmp	.LBB26_14
.LBB26_13:                              # %cond.false20
	movl	-28(%rbp), %ecx
.LBB26_14:                              # %cond.end21
	xorl	%edx, %edx
	cmpl	%ecx, %edx
	jle	.LBB26_16
# %bb.15:                               # %cond.true24
	xorl	%ecx, %ecx
	jmp	.LBB26_20
.LBB26_16:                              # %cond.false25
	movl	-36(%rbp), %ecx
	cmpl	-28(%rbp), %ecx
	jge	.LBB26_18
# %bb.17:                               # %cond.true27
	movl	-36(%rbp), %ecx
	jmp	.LBB26_19
.LBB26_18:                              # %cond.false28
	movl	-28(%rbp), %ecx
.LBB26_19:                              # %cond.end29
.LBB26_20:                              # %cond.end31
	movslq	%ecx, %rcx
	movzwl	(%rax,%rcx,2), %eax
	movl	%eax, -12(%rbp)
	jmp	.LBB26_332
.LBB26_21:                              # %if.else
	cmpl	$0, -48(%rbp)
	jne	.LBB26_77
# %bb.22:                               # %if.then37
	movl	-32(%rbp), %eax
	cmpl	-24(%rbp), %eax
	jge	.LBB26_24
# %bb.23:                               # %cond.true40
	movl	-32(%rbp), %eax
	jmp	.LBB26_25
.LBB26_24:                              # %cond.false41
	movl	-24(%rbp), %eax
.LBB26_25:                              # %cond.end42
	xorl	%ecx, %ecx
	cmpl	%eax, %ecx
	jle	.LBB26_27
# %bb.26:                               # %cond.true46
	xorl	%eax, %eax
	jmp	.LBB26_31
.LBB26_27:                              # %cond.false47
	movl	-32(%rbp), %eax
	cmpl	-24(%rbp), %eax
	jge	.LBB26_29
# %bb.28:                               # %cond.true50
	movl	-32(%rbp), %eax
	jmp	.LBB26_30
.LBB26_29:                              # %cond.false51
	movl	-24(%rbp), %eax
.LBB26_30:                              # %cond.end52
.LBB26_31:                              # %cond.end54
	movl	%eax, -44(%rbp)
	movl	$-2, -20(%rbp)
.LBB26_32:                              # %for.cond
                                        # =>This Inner Loop Header: Depth=1
	cmpl	$4, -20(%rbp)
	jge	.LBB26_44
# %bb.33:                               # %for.body
                                        #   in Loop: Header=BB26_32 Depth=1
	movl	-36(%rbp), %eax
	movl	-28(%rbp), %ecx
	addl	-20(%rbp), %ecx
	cmpl	%ecx, %eax
	jge	.LBB26_35
# %bb.34:                               # %cond.true60
                                        #   in Loop: Header=BB26_32 Depth=1
	movl	-36(%rbp), %eax
	jmp	.LBB26_36
.LBB26_35:                              # %cond.false61
                                        #   in Loop: Header=BB26_32 Depth=1
	movl	-28(%rbp), %eax
	addl	-20(%rbp), %eax
.LBB26_36:                              # %cond.end63
                                        #   in Loop: Header=BB26_32 Depth=1
	xorl	%ecx, %ecx
	cmpl	%eax, %ecx
	jle	.LBB26_38
# %bb.37:                               # %cond.true67
                                        #   in Loop: Header=BB26_32 Depth=1
	xorl	%eax, %eax
	jmp	.LBB26_42
.LBB26_38:                              # %cond.false68
                                        #   in Loop: Header=BB26_32 Depth=1
	movl	-36(%rbp), %eax
	movl	-28(%rbp), %ecx
	addl	-20(%rbp), %ecx
	cmpl	%ecx, %eax
	jge	.LBB26_40
# %bb.39:                               # %cond.true72
                                        #   in Loop: Header=BB26_32 Depth=1
	movl	-36(%rbp), %eax
	jmp	.LBB26_41
.LBB26_40:                              # %cond.false73
                                        #   in Loop: Header=BB26_32 Depth=1
	movl	-28(%rbp), %eax
	addl	-20(%rbp), %eax
.LBB26_41:                              # %cond.end75
                                        #   in Loop: Header=BB26_32 Depth=1
.LBB26_42:                              # %cond.end77
                                        #   in Loop: Header=BB26_32 Depth=1
	movl	%eax, -40(%rbp)
	movq	-64(%rbp), %rax
	movslq	-44(%rbp), %rcx
	movq	(%rax,%rcx,8), %rax
	movslq	-40(%rbp), %rcx
	movzwl	(%rax,%rcx,2), %eax
	movl	-20(%rbp), %ecx
	addl	$2, %ecx
	movslq	%ecx, %rcx
	imull	Get_Reference_Pixel.COEF(,%rcx,4), %eax
	addl	-12(%rbp), %eax
	movl	%eax, -12(%rbp)
# %bb.43:                               # %for.inc
                                        #   in Loop: Header=BB26_32 Depth=1
	movl	-20(%rbp), %eax
	addl	$1, %eax
	movl	%eax, -20(%rbp)
	jmp	.LBB26_32
.LBB26_44:                              # %for.end
	movq	img, %rax
	movl	72684(%rax), %ecx
	movl	-12(%rbp), %eax
	addl	$16, %eax
	cltd
	movl	$32, %esi
	idivl	%esi
	cmpl	%eax, %ecx
	jge	.LBB26_46
# %bb.45:                               # %cond.true92
	movq	img, %rax
	movl	72684(%rax), %eax
	jmp	.LBB26_47
.LBB26_46:                              # %cond.false94
	movl	-12(%rbp), %eax
	addl	$16, %eax
	cltd
	movl	$32, %ecx
	idivl	%ecx
.LBB26_47:                              # %cond.end97
	xorl	%ecx, %ecx
	cmpl	%eax, %ecx
	jle	.LBB26_49
# %bb.48:                               # %cond.true101
	xorl	%eax, %eax
	jmp	.LBB26_53
.LBB26_49:                              # %cond.false102
	movq	img, %rax
	movl	72684(%rax), %ecx
	movl	-12(%rbp), %eax
	addl	$16, %eax
	cltd
	movl	$32, %esi
	idivl	%esi
	cmpl	%eax, %ecx
	jge	.LBB26_51
# %bb.50:                               # %cond.true108
	movq	img, %rax
	movl	72684(%rax), %eax
	jmp	.LBB26_52
.LBB26_51:                              # %cond.false110
	movl	-12(%rbp), %eax
	addl	$16, %eax
	cltd
	movl	$32, %ecx
	idivl	%ecx
.LBB26_52:                              # %cond.end113
.LBB26_53:                              # %cond.end115
	movl	%eax, -12(%rbp)
	cmpl	$1, -52(%rbp)
	jne	.LBB26_64
# %bb.54:                               # %if.then119
	movl	-12(%rbp), %eax
	movq	-64(%rbp), %rcx
	movslq	-44(%rbp), %rdx
	movq	(%rcx,%rdx,8), %rcx
	movl	-36(%rbp), %edx
	cmpl	-28(%rbp), %edx
	jge	.LBB26_56
# %bb.55:                               # %cond.true124
	movl	-36(%rbp), %edx
	jmp	.LBB26_57
.LBB26_56:                              # %cond.false125
	movl	-28(%rbp), %edx
.LBB26_57:                              # %cond.end126
	xorl	%esi, %esi
	cmpl	%edx, %esi
	jle	.LBB26_59
# %bb.58:                               # %cond.true130
	xorl	%edx, %edx
	jmp	.LBB26_63
.LBB26_59:                              # %cond.false131
	movl	-36(%rbp), %edx
	cmpl	-28(%rbp), %edx
	jge	.LBB26_61
# %bb.60:                               # %cond.true134
	movl	-36(%rbp), %edx
	jmp	.LBB26_62
.LBB26_61:                              # %cond.false135
	movl	-28(%rbp), %edx
.LBB26_62:                              # %cond.end136
.LBB26_63:                              # %cond.end138
	movslq	%edx, %rdx
	movzwl	(%rcx,%rdx,2), %ecx
	addl	%ecx, %eax
	cltd
	movl	$2, %ecx
	idivl	%ecx
	movl	%eax, -12(%rbp)
	jmp	.LBB26_76
.LBB26_64:                              # %if.else145
	cmpl	$3, -52(%rbp)
	jne	.LBB26_75
# %bb.65:                               # %if.then148
	movl	-12(%rbp), %eax
	movq	-64(%rbp), %rcx
	movslq	-44(%rbp), %rdx
	movq	(%rcx,%rdx,8), %rcx
	movl	-36(%rbp), %edx
	movl	-28(%rbp), %esi
	addl	$1, %esi
	cmpl	%esi, %edx
	jge	.LBB26_67
# %bb.66:                               # %cond.true154
	movl	-36(%rbp), %edx
	jmp	.LBB26_68
.LBB26_67:                              # %cond.false155
	movl	-28(%rbp), %edx
	addl	$1, %edx
.LBB26_68:                              # %cond.end157
	xorl	%esi, %esi
	cmpl	%edx, %esi
	jle	.LBB26_70
# %bb.69:                               # %cond.true161
	xorl	%edx, %edx
	jmp	.LBB26_74
.LBB26_70:                              # %cond.false162
	movl	-36(%rbp), %edx
	movl	-28(%rbp), %esi
	addl	$1, %esi
	cmpl	%esi, %edx
	jge	.LBB26_72
# %bb.71:                               # %cond.true166
	movl	-36(%rbp), %edx
	jmp	.LBB26_73
.LBB26_72:                              # %cond.false167
	movl	-28(%rbp), %edx
	addl	$1, %edx
.LBB26_73:                              # %cond.end169
.LBB26_74:                              # %cond.end171
	movslq	%edx, %rdx
	movzwl	(%rcx,%rdx,2), %ecx
	addl	%ecx, %eax
	cltd
	movl	$2, %ecx
	idivl	%ecx
	movl	%eax, -12(%rbp)
.LBB26_75:                              # %if.end
	jmp	.LBB26_76
.LBB26_76:                              # %if.end178
	jmp	.LBB26_331
.LBB26_77:                              # %if.else179
	cmpl	$0, -52(%rbp)
	jne	.LBB26_133
# %bb.78:                               # %if.then182
	movl	-36(%rbp), %eax
	cmpl	-28(%rbp), %eax
	jge	.LBB26_80
# %bb.79:                               # %cond.true185
	movl	-36(%rbp), %eax
	jmp	.LBB26_81
.LBB26_80:                              # %cond.false186
	movl	-28(%rbp), %eax
.LBB26_81:                              # %cond.end187
	xorl	%ecx, %ecx
	cmpl	%eax, %ecx
	jle	.LBB26_83
# %bb.82:                               # %cond.true191
	xorl	%eax, %eax
	jmp	.LBB26_87
.LBB26_83:                              # %cond.false192
	movl	-36(%rbp), %eax
	cmpl	-28(%rbp), %eax
	jge	.LBB26_85
# %bb.84:                               # %cond.true195
	movl	-36(%rbp), %eax
	jmp	.LBB26_86
.LBB26_85:                              # %cond.false196
	movl	-28(%rbp), %eax
.LBB26_86:                              # %cond.end197
.LBB26_87:                              # %cond.end199
	movl	%eax, -40(%rbp)
	movl	$-2, -16(%rbp)
.LBB26_88:                              # %for.cond201
                                        # =>This Inner Loop Header: Depth=1
	cmpl	$4, -16(%rbp)
	jge	.LBB26_100
# %bb.89:                               # %for.body204
                                        #   in Loop: Header=BB26_88 Depth=1
	movl	-32(%rbp), %eax
	movl	-24(%rbp), %ecx
	addl	-16(%rbp), %ecx
	cmpl	%ecx, %eax
	jge	.LBB26_91
# %bb.90:                               # %cond.true208
                                        #   in Loop: Header=BB26_88 Depth=1
	movl	-32(%rbp), %eax
	jmp	.LBB26_92
.LBB26_91:                              # %cond.false209
                                        #   in Loop: Header=BB26_88 Depth=1
	movl	-24(%rbp), %eax
	addl	-16(%rbp), %eax
.LBB26_92:                              # %cond.end211
                                        #   in Loop: Header=BB26_88 Depth=1
	xorl	%ecx, %ecx
	cmpl	%eax, %ecx
	jle	.LBB26_94
# %bb.93:                               # %cond.true215
                                        #   in Loop: Header=BB26_88 Depth=1
	xorl	%eax, %eax
	jmp	.LBB26_98
.LBB26_94:                              # %cond.false216
                                        #   in Loop: Header=BB26_88 Depth=1
	movl	-32(%rbp), %eax
	movl	-24(%rbp), %ecx
	addl	-16(%rbp), %ecx
	cmpl	%ecx, %eax
	jge	.LBB26_96
# %bb.95:                               # %cond.true220
                                        #   in Loop: Header=BB26_88 Depth=1
	movl	-32(%rbp), %eax
	jmp	.LBB26_97
.LBB26_96:                              # %cond.false221
                                        #   in Loop: Header=BB26_88 Depth=1
	movl	-24(%rbp), %eax
	addl	-16(%rbp), %eax
.LBB26_97:                              # %cond.end223
                                        #   in Loop: Header=BB26_88 Depth=1
.LBB26_98:                              # %cond.end225
                                        #   in Loop: Header=BB26_88 Depth=1
	movl	%eax, -44(%rbp)
	movq	-64(%rbp), %rax
	movslq	-44(%rbp), %rcx
	movq	(%rax,%rcx,8), %rax
	movslq	-40(%rbp), %rcx
	movzwl	(%rax,%rcx,2), %eax
	movl	-16(%rbp), %ecx
	addl	$2, %ecx
	movslq	%ecx, %rcx
	imull	Get_Reference_Pixel.COEF(,%rcx,4), %eax
	addl	-12(%rbp), %eax
	movl	%eax, -12(%rbp)
# %bb.99:                               # %for.inc237
                                        #   in Loop: Header=BB26_88 Depth=1
	movl	-16(%rbp), %eax
	addl	$1, %eax
	movl	%eax, -16(%rbp)
	jmp	.LBB26_88
.LBB26_100:                             # %for.end239
	movq	img, %rax
	movl	72684(%rax), %ecx
	movl	-12(%rbp), %eax
	addl	$16, %eax
	cltd
	movl	$32, %esi
	idivl	%esi
	cmpl	%eax, %ecx
	jge	.LBB26_102
# %bb.101:                              # %cond.true245
	movq	img, %rax
	movl	72684(%rax), %eax
	jmp	.LBB26_103
.LBB26_102:                             # %cond.false247
	movl	-12(%rbp), %eax
	addl	$16, %eax
	cltd
	movl	$32, %ecx
	idivl	%ecx
.LBB26_103:                             # %cond.end250
	xorl	%ecx, %ecx
	cmpl	%eax, %ecx
	jle	.LBB26_105
# %bb.104:                              # %cond.true254
	xorl	%eax, %eax
	jmp	.LBB26_109
.LBB26_105:                             # %cond.false255
	movq	img, %rax
	movl	72684(%rax), %ecx
	movl	-12(%rbp), %eax
	addl	$16, %eax
	cltd
	movl	$32, %esi
	idivl	%esi
	cmpl	%eax, %ecx
	jge	.LBB26_107
# %bb.106:                              # %cond.true261
	movq	img, %rax
	movl	72684(%rax), %eax
	jmp	.LBB26_108
.LBB26_107:                             # %cond.false263
	movl	-12(%rbp), %eax
	addl	$16, %eax
	cltd
	movl	$32, %ecx
	idivl	%ecx
.LBB26_108:                             # %cond.end266
.LBB26_109:                             # %cond.end268
	movl	%eax, -12(%rbp)
	cmpl	$1, -48(%rbp)
	jne	.LBB26_120
# %bb.110:                              # %if.then272
	movl	-12(%rbp), %eax
	movq	-64(%rbp), %rcx
	movl	-32(%rbp), %edx
	cmpl	-24(%rbp), %edx
	jge	.LBB26_112
# %bb.111:                              # %cond.true275
	movl	-32(%rbp), %edx
	jmp	.LBB26_113
.LBB26_112:                             # %cond.false276
	movl	-24(%rbp), %edx
.LBB26_113:                             # %cond.end277
	xorl	%esi, %esi
	cmpl	%edx, %esi
	jle	.LBB26_115
# %bb.114:                              # %cond.true281
	xorl	%edx, %edx
	jmp	.LBB26_119
.LBB26_115:                             # %cond.false282
	movl	-32(%rbp), %edx
	cmpl	-24(%rbp), %edx
	jge	.LBB26_117
# %bb.116:                              # %cond.true285
	movl	-32(%rbp), %edx
	jmp	.LBB26_118
.LBB26_117:                             # %cond.false286
	movl	-24(%rbp), %edx
.LBB26_118:                             # %cond.end287
.LBB26_119:                             # %cond.end289
	movslq	%edx, %rdx
	movq	(%rcx,%rdx,8), %rcx
	movslq	-40(%rbp), %rdx
	movzwl	(%rcx,%rdx,2), %ecx
	addl	%ecx, %eax
	cltd
	movl	$2, %ecx
	idivl	%ecx
	movl	%eax, -12(%rbp)
	jmp	.LBB26_132
.LBB26_120:                             # %if.else298
	cmpl	$3, -48(%rbp)
	jne	.LBB26_131
# %bb.121:                              # %if.then301
	movl	-12(%rbp), %eax
	movq	-64(%rbp), %rcx
	movl	-32(%rbp), %edx
	movl	-24(%rbp), %esi
	addl	$1, %esi
	cmpl	%esi, %edx
	jge	.LBB26_123
# %bb.122:                              # %cond.true305
	movl	-32(%rbp), %edx
	jmp	.LBB26_124
.LBB26_123:                             # %cond.false306
	movl	-24(%rbp), %edx
	addl	$1, %edx
.LBB26_124:                             # %cond.end308
	xorl	%esi, %esi
	cmpl	%edx, %esi
	jle	.LBB26_126
# %bb.125:                              # %cond.true312
	xorl	%edx, %edx
	jmp	.LBB26_130
.LBB26_126:                             # %cond.false313
	movl	-32(%rbp), %edx
	movl	-24(%rbp), %esi
	addl	$1, %esi
	cmpl	%esi, %edx
	jge	.LBB26_128
# %bb.127:                              # %cond.true317
	movl	-32(%rbp), %edx
	jmp	.LBB26_129
.LBB26_128:                             # %cond.false318
	movl	-24(%rbp), %edx
	addl	$1, %edx
.LBB26_129:                             # %cond.end320
.LBB26_130:                             # %cond.end322
	movslq	%edx, %rdx
	movq	(%rcx,%rdx,8), %rcx
	movslq	-40(%rbp), %rdx
	movzwl	(%rcx,%rdx,2), %ecx
	addl	%ecx, %eax
	cltd
	movl	$2, %ecx
	idivl	%ecx
	movl	%eax, -12(%rbp)
.LBB26_131:                             # %if.end331
	jmp	.LBB26_132
.LBB26_132:                             # %if.end332
	jmp	.LBB26_330
.LBB26_133:                             # %if.else333
	cmpl	$2, -52(%rbp)
	jne	.LBB26_197
# %bb.134:                              # %if.then336
	movl	$-2, -16(%rbp)
.LBB26_135:                             # %for.cond337
                                        # =>This Loop Header: Depth=1
                                        #     Child Loop BB26_146 Depth 2
	cmpl	$4, -16(%rbp)
	jge	.LBB26_160
# %bb.136:                              # %for.body340
                                        #   in Loop: Header=BB26_135 Depth=1
	movl	$0, -12(%rbp)
	movl	-32(%rbp), %eax
	movl	-24(%rbp), %ecx
	addl	-16(%rbp), %ecx
	cmpl	%ecx, %eax
	jge	.LBB26_138
# %bb.137:                              # %cond.true344
                                        #   in Loop: Header=BB26_135 Depth=1
	movl	-32(%rbp), %eax
	jmp	.LBB26_139
.LBB26_138:                             # %cond.false345
                                        #   in Loop: Header=BB26_135 Depth=1
	movl	-24(%rbp), %eax
	addl	-16(%rbp), %eax
.LBB26_139:                             # %cond.end347
                                        #   in Loop: Header=BB26_135 Depth=1
	xorl	%ecx, %ecx
	cmpl	%eax, %ecx
	jle	.LBB26_141
# %bb.140:                              # %cond.true351
                                        #   in Loop: Header=BB26_135 Depth=1
	xorl	%eax, %eax
	jmp	.LBB26_145
.LBB26_141:                             # %cond.false352
                                        #   in Loop: Header=BB26_135 Depth=1
	movl	-32(%rbp), %eax
	movl	-24(%rbp), %ecx
	addl	-16(%rbp), %ecx
	cmpl	%ecx, %eax
	jge	.LBB26_143
# %bb.142:                              # %cond.true356
                                        #   in Loop: Header=BB26_135 Depth=1
	movl	-32(%rbp), %eax
	jmp	.LBB26_144
.LBB26_143:                             # %cond.false357
                                        #   in Loop: Header=BB26_135 Depth=1
	movl	-24(%rbp), %eax
	addl	-16(%rbp), %eax
.LBB26_144:                             # %cond.end359
                                        #   in Loop: Header=BB26_135 Depth=1
.LBB26_145:                             # %cond.end361
                                        #   in Loop: Header=BB26_135 Depth=1
	movl	%eax, -44(%rbp)
	movl	$-2, -20(%rbp)
.LBB26_146:                             # %for.cond363
                                        #   Parent Loop BB26_135 Depth=1
                                        # =>  This Inner Loop Header: Depth=2
	cmpl	$4, -20(%rbp)
	jge	.LBB26_158
# %bb.147:                              # %for.body366
                                        #   in Loop: Header=BB26_146 Depth=2
	movl	-36(%rbp), %eax
	movl	-28(%rbp), %ecx
	addl	-20(%rbp), %ecx
	cmpl	%ecx, %eax
	jge	.LBB26_149
# %bb.148:                              # %cond.true370
                                        #   in Loop: Header=BB26_146 Depth=2
	movl	-36(%rbp), %eax
	jmp	.LBB26_150
.LBB26_149:                             # %cond.false371
                                        #   in Loop: Header=BB26_146 Depth=2
	movl	-28(%rbp), %eax
	addl	-20(%rbp), %eax
.LBB26_150:                             # %cond.end373
                                        #   in Loop: Header=BB26_146 Depth=2
	xorl	%ecx, %ecx
	cmpl	%eax, %ecx
	jle	.LBB26_152
# %bb.151:                              # %cond.true377
                                        #   in Loop: Header=BB26_146 Depth=2
	xorl	%eax, %eax
	jmp	.LBB26_156
.LBB26_152:                             # %cond.false378
                                        #   in Loop: Header=BB26_146 Depth=2
	movl	-36(%rbp), %eax
	movl	-28(%rbp), %ecx
	addl	-20(%rbp), %ecx
	cmpl	%ecx, %eax
	jge	.LBB26_154
# %bb.153:                              # %cond.true382
                                        #   in Loop: Header=BB26_146 Depth=2
	movl	-36(%rbp), %eax
	jmp	.LBB26_155
.LBB26_154:                             # %cond.false383
                                        #   in Loop: Header=BB26_146 Depth=2
	movl	-28(%rbp), %eax
	addl	-20(%rbp), %eax
.LBB26_155:                             # %cond.end385
                                        #   in Loop: Header=BB26_146 Depth=2
.LBB26_156:                             # %cond.end387
                                        #   in Loop: Header=BB26_146 Depth=2
	movl	%eax, -40(%rbp)
	movq	-64(%rbp), %rax
	movslq	-44(%rbp), %rcx
	movq	(%rax,%rcx,8), %rax
	movslq	-40(%rbp), %rcx
	movzwl	(%rax,%rcx,2), %eax
	movl	-20(%rbp), %ecx
	addl	$2, %ecx
	movslq	%ecx, %rcx
	imull	Get_Reference_Pixel.COEF(,%rcx,4), %eax
	addl	-12(%rbp), %eax
	movl	%eax, -12(%rbp)
# %bb.157:                              # %for.inc399
                                        #   in Loop: Header=BB26_146 Depth=2
	movl	-20(%rbp), %eax
	addl	$1, %eax
	movl	%eax, -20(%rbp)
	jmp	.LBB26_146
.LBB26_158:                             # %for.end401
                                        #   in Loop: Header=BB26_135 Depth=1
	movl	-12(%rbp), %eax
	movl	-16(%rbp), %ecx
	addl	$2, %ecx
	movslq	%ecx, %rcx
	movl	%eax, -96(%rbp,%rcx,4)
# %bb.159:                              # %for.inc405
                                        #   in Loop: Header=BB26_135 Depth=1
	movl	-16(%rbp), %eax
	addl	$1, %eax
	movl	%eax, -16(%rbp)
	jmp	.LBB26_135
.LBB26_160:                             # %for.end407
	movl	$0, -12(%rbp)
	movl	$-2, -16(%rbp)
.LBB26_161:                             # %for.cond408
                                        # =>This Inner Loop Header: Depth=1
	cmpl	$4, -16(%rbp)
	jge	.LBB26_164
# %bb.162:                              # %for.body411
                                        #   in Loop: Header=BB26_161 Depth=1
	movl	-16(%rbp), %eax
	addl	$2, %eax
	cltq
	movl	-96(%rbp,%rax,4), %eax
	movl	-16(%rbp), %ecx
	addl	$2, %ecx
	movslq	%ecx, %rcx
	imull	Get_Reference_Pixel.COEF(,%rcx,4), %eax
	addl	-12(%rbp), %eax
	movl	%eax, -12(%rbp)
# %bb.163:                              # %for.inc420
                                        #   in Loop: Header=BB26_161 Depth=1
	movl	-16(%rbp), %eax
	addl	$1, %eax
	movl	%eax, -16(%rbp)
	jmp	.LBB26_161
.LBB26_164:                             # %for.end422
	movq	img, %rax
	movl	72684(%rax), %ecx
	movl	-12(%rbp), %eax
	addl	$512, %eax              # imm = 0x200
	cltd
	movl	$1024, %esi             # imm = 0x400
	idivl	%esi
	cmpl	%eax, %ecx
	jge	.LBB26_166
# %bb.165:                              # %cond.true428
	movq	img, %rax
	movl	72684(%rax), %eax
	jmp	.LBB26_167
.LBB26_166:                             # %cond.false430
	movl	-12(%rbp), %eax
	addl	$512, %eax              # imm = 0x200
	cltd
	movl	$1024, %ecx             # imm = 0x400
	idivl	%ecx
.LBB26_167:                             # %cond.end433
	xorl	%ecx, %ecx
	cmpl	%eax, %ecx
	jle	.LBB26_169
# %bb.168:                              # %cond.true437
	xorl	%eax, %eax
	jmp	.LBB26_173
.LBB26_169:                             # %cond.false438
	movq	img, %rax
	movl	72684(%rax), %ecx
	movl	-12(%rbp), %eax
	addl	$512, %eax              # imm = 0x200
	cltd
	movl	$1024, %esi             # imm = 0x400
	idivl	%esi
	cmpl	%eax, %ecx
	jge	.LBB26_171
# %bb.170:                              # %cond.true444
	movq	img, %rax
	movl	72684(%rax), %eax
	jmp	.LBB26_172
.LBB26_171:                             # %cond.false446
	movl	-12(%rbp), %eax
	addl	$512, %eax              # imm = 0x200
	cltd
	movl	$1024, %ecx             # imm = 0x400
	idivl	%ecx
.LBB26_172:                             # %cond.end449
.LBB26_173:                             # %cond.end451
	movl	%eax, -12(%rbp)
	cmpl	$1, -48(%rbp)
	jne	.LBB26_184
# %bb.174:                              # %if.then455
	movl	-12(%rbp), %ecx
	movq	img, %rax
	movl	72684(%rax), %esi
	movl	-88(%rbp), %eax
	addl	$16, %eax
	cltd
	movl	$32, %edi
	idivl	%edi
	cmpl	%eax, %esi
	jge	.LBB26_176
# %bb.175:                              # %cond.true462
	movq	img, %rax
	movl	72684(%rax), %eax
	jmp	.LBB26_177
.LBB26_176:                             # %cond.false464
	movl	-88(%rbp), %eax
	addl	$16, %eax
	cltd
	movl	$32, %esi
	idivl	%esi
.LBB26_177:                             # %cond.end468
	xorl	%edx, %edx
	cmpl	%eax, %edx
	jle	.LBB26_179
# %bb.178:                              # %cond.true472
	xorl	%eax, %eax
	jmp	.LBB26_183
.LBB26_179:                             # %cond.false473
	movq	img, %rax
	movl	72684(%rax), %esi
	movl	-88(%rbp), %eax
	addl	$16, %eax
	cltd
	movl	$32, %edi
	idivl	%edi
	cmpl	%eax, %esi
	jge	.LBB26_181
