	.text
	.file	"fast_me.c"
	.section	.rodata.cst4,"aM",@progbits,4
	.p2align	2               # -- Begin function DefineThreshold
.LCPI0_0:
	.long	1041865114              # float 0.150000006
.LCPI0_1:
	.long	1038174126              # float 0.109999999
.LCPI0_2:
	.long	1039516303              # float 0.119999997
.LCPI0_3:
	.long	1034147594              # float 0.0799999982
.LCPI0_4:
	.long	1032805417              # float 0.0700000003
.LCPI0_5:
	.long	1031127695              # float 0.0599999987
.LCPI0_6:
	.long	1025758986              # float 0.0399999991
.LCPI0_7:
	.long	1022739087              # float 0.0299999993
.LCPI0_8:
	.long	1017370378              # float 0.0199999996
.LCPI0_9:
	.long	1008981770              # float 0.00999999977
	.text
	.globl	DefineThreshold
	.p2align	4, 0x90
	.type	DefineThreshold,@function
DefineThreshold:                        # @DefineThreshold
	.cfi_startproc
# %bb.0:                                # %entry
	pushq	%rbp
	.cfi_def_cfa_offset 16
	.cfi_offset %rbp, -16
	movq	%rsp, %rbp
	.cfi_def_cfa_register %rbp
	vmovss	.LCPI0_0(%rip), %xmm8   # xmm8 = mem[0],zero,zero,zero
	vmovss	.LCPI0_1(%rip), %xmm9   # xmm9 = mem[0],zero,zero,zero
	vmovss	.LCPI0_2(%rip), %xmm2   # xmm2 = mem[0],zero,zero,zero
	vmovss	.LCPI0_3(%rip), %xmm3   # xmm3 = mem[0],zero,zero,zero
	vmovss	.LCPI0_4(%rip), %xmm4   # xmm4 = mem[0],zero,zero,zero
	vmovss	.LCPI0_5(%rip), %xmm5   # xmm5 = mem[0],zero,zero,zero
	vmovss	.LCPI0_6(%rip), %xmm6   # xmm6 = mem[0],zero,zero,zero
	vmovss	.LCPI0_7(%rip), %xmm7   # xmm7 = mem[0],zero,zero,zero
	vmovss	.LCPI0_8(%rip), %xmm0   # xmm0 = mem[0],zero,zero,zero
	vmovss	.LCPI0_9(%rip), %xmm1   # xmm1 = mem[0],zero,zero,zero
	vmovss	%xmm1, AlphaSec+4
	vmovss	%xmm1, AlphaSec+8
	vmovss	%xmm1, AlphaSec+12
	vmovss	%xmm0, AlphaSec+16
	vmovss	%xmm7, AlphaSec+20
	vmovss	%xmm7, AlphaSec+24
	vmovss	%xmm6, AlphaSec+28
	vmovss	%xmm5, AlphaThird+4
	vmovss	%xmm4, AlphaThird+8
	vmovss	%xmm4, AlphaThird+12
	vmovss	%xmm3, AlphaThird+16
	vmovss	%xmm2, AlphaThird+20
	vmovss	%xmm9, AlphaThird+24
	vmovss	%xmm8, AlphaThird+28
	callq	DefineThresholdMB
	popq	%rbp
	.cfi_def_cfa %rsp, 8
	retq
.Lfunc_end0:
	.size	DefineThreshold, .Lfunc_end0-DefineThreshold
	.cfi_endproc
                                        # -- End function
	.globl	DefineThresholdMB       # -- Begin function DefineThresholdMB
	.p2align	4, 0x90
	.type	DefineThresholdMB,@function
DefineThresholdMB:                      # @DefineThresholdMB
	.cfi_startproc
# %bb.0:                                # %rand_bb
	pushq	%rbp
	.cfi_def_cfa_offset 16
	.cfi_offset %rbp, -16
	movq	%rsp, %rbp
	.cfi_def_cfa_register %rbp
	callq	get_rand
	cmpl	$0, %eax
	jne	.LBB1_9
# %bb.1:                                # %func_DefineThresholdMB.11
	callq	DefineThresholdMB.11
	popq	%rbp
	.cfi_def_cfa %rsp, 8
	retq
.LBB1_2:                                # %func_DefineThresholdMB.21
	.cfi_def_cfa %rbp, 16
	callq	DefineThresholdMB.21
	popq	%rbp
	.cfi_def_cfa %rsp, 8
	retq
.LBB1_3:                                # %func_DefineThresholdMB.34
	.cfi_def_cfa %rbp, 16
	callq	DefineThresholdMB.34
	popq	%rbp
	.cfi_def_cfa %rsp, 8
	retq
.LBB1_4:                                # %func_DefineThresholdMB.39
	.cfi_def_cfa %rbp, 16
	callq	DefineThresholdMB.39
	popq	%rbp
	.cfi_def_cfa %rsp, 8
	retq
.LBB1_5:                                # %func_DefineThresholdMB.45
	.cfi_def_cfa %rbp, 16
	callq	DefineThresholdMB.45
	popq	%rbp
	.cfi_def_cfa %rsp, 8
	retq
.LBB1_6:                                # %func_DefineThresholdMB.48
	.cfi_def_cfa %rbp, 16
	callq	DefineThresholdMB.48
	popq	%rbp
	.cfi_def_cfa %rsp, 8
	retq
.LBB1_7:                                # %func_DefineThresholdMB.60
	.cfi_def_cfa %rbp, 16
	callq	DefineThresholdMB.60
	popq	%rbp
	.cfi_def_cfa %rsp, 8
	retq
.LBB1_8:                                # %func_DefineThresholdMB.62
	.cfi_def_cfa %rbp, 16
	callq	DefineThresholdMB.62
	popq	%rbp
	.cfi_def_cfa %rsp, 8
	retq
.LBB1_9:                                # %ctrl0
	.cfi_def_cfa %rbp, 16
	cmpl	$1, %eax
	je	.LBB1_2
# %bb.10:                               # %ctrl1
	cmpl	$2, %eax
	je	.LBB1_3
# %bb.11:                               # %ctrl2
	cmpl	$3, %eax
	je	.LBB1_4
# %bb.12:                               # %ctrl3
	cmpl	$4, %eax
	je	.LBB1_5
# %bb.13:                               # %ctrl4
	cmpl	$5, %eax
	je	.LBB1_6
# %bb.14:                               # %ctrl5
	cmpl	$6, %eax
	je	.LBB1_7
	jmp	.LBB1_8
.Lfunc_end1:
	.size	DefineThresholdMB, .Lfunc_end1-DefineThresholdMB
	.cfi_endproc
                                        # -- End function
	.globl	get_mem_mincost         # -- Begin function get_mem_mincost
	.p2align	4, 0x90
	.type	get_mem_mincost,@function
get_mem_mincost:                        # @get_mem_mincost
	.cfi_startproc
# %bb.0:                                # %rand_bb
	pushq	%rbp
	.cfi_def_cfa_offset 16
	.cfi_offset %rbp, -16
	movq	%rsp, %rbp
	.cfi_def_cfa_register %rbp
	pushq	%rbx
	pushq	%rax
	.cfi_offset %rbx, -24
	movq	%rdi, %rbx
	callq	get_rand
	cmpl	$0, %eax
	jne	.LBB2_9
# %bb.1:                                # %func_get_mem_mincost.10
	movq	%rbx, %rdi
	callq	get_mem_mincost.10
	addq	$8, %rsp
	popq	%rbx
	popq	%rbp
	.cfi_def_cfa %rsp, 8
	retq
.LBB2_2:                                # %func_get_mem_mincost.13
	.cfi_def_cfa %rbp, 16
	movq	%rbx, %rdi
	callq	get_mem_mincost.13
	addq	$8, %rsp
	popq	%rbx
	popq	%rbp
	.cfi_def_cfa %rsp, 8
	retq
.LBB2_3:                                # %func_get_mem_mincost.49
	.cfi_def_cfa %rbp, 16
	movq	%rbx, %rdi
	callq	get_mem_mincost.49
	addq	$8, %rsp
	popq	%rbx
	popq	%rbp
	.cfi_def_cfa %rsp, 8
	retq
.LBB2_4:                                # %func_get_mem_mincost.51
	.cfi_def_cfa %rbp, 16
	movq	%rbx, %rdi
	callq	get_mem_mincost.51
	addq	$8, %rsp
	popq	%rbx
	popq	%rbp
	.cfi_def_cfa %rsp, 8
	retq
.LBB2_5:                                # %func_get_mem_mincost.70
	.cfi_def_cfa %rbp, 16
	movq	%rbx, %rdi
	callq	get_mem_mincost.70
	addq	$8, %rsp
	popq	%rbx
	popq	%rbp
	.cfi_def_cfa %rsp, 8
	retq
.LBB2_6:                                # %func_get_mem_mincost.73
	.cfi_def_cfa %rbp, 16
	movq	%rbx, %rdi
	callq	get_mem_mincost.73
	addq	$8, %rsp
	popq	%rbx
	popq	%rbp
	.cfi_def_cfa %rsp, 8
	retq
.LBB2_7:                                # %func_get_mem_mincost.74
	.cfi_def_cfa %rbp, 16
	movq	%rbx, %rdi
	callq	get_mem_mincost.74
	addq	$8, %rsp
	popq	%rbx
	popq	%rbp
	.cfi_def_cfa %rsp, 8
	retq
.LBB2_8:                                # %func_get_mem_mincost.75
	.cfi_def_cfa %rbp, 16
	movq	%rbx, %rdi
	callq	get_mem_mincost.75
	addq	$8, %rsp
	popq	%rbx
	popq	%rbp
	.cfi_def_cfa %rsp, 8
	retq
.LBB2_9:                                # %ctrl0
	.cfi_def_cfa %rbp, 16
	cmpl	$1, %eax
	je	.LBB2_2
# %bb.10:                               # %ctrl1
	cmpl	$2, %eax
	je	.LBB2_3
# %bb.11:                               # %ctrl2
	cmpl	$3, %eax
	je	.LBB2_4
# %bb.12:                               # %ctrl3
	cmpl	$4, %eax
	je	.LBB2_5
# %bb.13:                               # %ctrl4
	cmpl	$5, %eax
	je	.LBB2_6
# %bb.14:                               # %ctrl5
	cmpl	$6, %eax
	je	.LBB2_7
	jmp	.LBB2_8
.Lfunc_end2:
	.size	get_mem_mincost, .Lfunc_end2-get_mem_mincost
	.cfi_endproc
                                        # -- End function
	.globl	get_mem_bwmincost       # -- Begin function get_mem_bwmincost
	.p2align	4, 0x90
	.type	get_mem_bwmincost,@function
get_mem_bwmincost:                      # @get_mem_bwmincost
	.cfi_startproc
# %bb.0:                                # %rand_bb
	pushq	%rbp
	.cfi_def_cfa_offset 16
	.cfi_offset %rbp, -16
	movq	%rsp, %rbp
	.cfi_def_cfa_register %rbp
	pushq	%rbx
	pushq	%rax
	.cfi_offset %rbx, -24
	movq	%rdi, %rbx
	callq	get_rand
	cmpl	$0, %eax
	jne	.LBB3_9
# %bb.1:                                # %func_get_mem_bwmincost.3
	movq	%rbx, %rdi
	callq	get_mem_bwmincost.3
	addq	$8, %rsp
	popq	%rbx
	popq	%rbp
	.cfi_def_cfa %rsp, 8
	retq
.LBB3_2:                                # %func_get_mem_bwmincost.16
	.cfi_def_cfa %rbp, 16
	movq	%rbx, %rdi
	callq	get_mem_bwmincost.16
	addq	$8, %rsp
	popq	%rbx
	popq	%rbp
	.cfi_def_cfa %rsp, 8
	retq
.LBB3_3:                                # %func_get_mem_bwmincost.30
	.cfi_def_cfa %rbp, 16
	movq	%rbx, %rdi
	callq	get_mem_bwmincost.30
	addq	$8, %rsp
	popq	%rbx
	popq	%rbp
	.cfi_def_cfa %rsp, 8
	retq
.LBB3_4:                                # %func_get_mem_bwmincost.32
	.cfi_def_cfa %rbp, 16
	movq	%rbx, %rdi
	callq	get_mem_bwmincost.32
	addq	$8, %rsp
	popq	%rbx
	popq	%rbp
	.cfi_def_cfa %rsp, 8
	retq
.LBB3_5:                                # %func_get_mem_bwmincost.47
	.cfi_def_cfa %rbp, 16
	movq	%rbx, %rdi
	callq	get_mem_bwmincost.47
	addq	$8, %rsp
	popq	%rbx
	popq	%rbp
	.cfi_def_cfa %rsp, 8
	retq
.LBB3_6:                                # %func_get_mem_bwmincost.56
	.cfi_def_cfa %rbp, 16
	movq	%rbx, %rdi
	callq	get_mem_bwmincost.56
	addq	$8, %rsp
	popq	%rbx
	popq	%rbp
	.cfi_def_cfa %rsp, 8
	retq
.LBB3_7:                                # %func_get_mem_bwmincost.66
	.cfi_def_cfa %rbp, 16
	movq	%rbx, %rdi
	callq	get_mem_bwmincost.66
	addq	$8, %rsp
	popq	%rbx
	popq	%rbp
	.cfi_def_cfa %rsp, 8
	retq
.LBB3_8:                                # %func_get_mem_bwmincost.77
	.cfi_def_cfa %rbp, 16
	movq	%rbx, %rdi
	callq	get_mem_bwmincost.77
	addq	$8, %rsp
	popq	%rbx
	popq	%rbp
	.cfi_def_cfa %rsp, 8
	retq
.LBB3_9:                                # %ctrl0
	.cfi_def_cfa %rbp, 16
	cmpl	$1, %eax
	je	.LBB3_2
# %bb.10:                               # %ctrl1
	cmpl	$2, %eax
	je	.LBB3_3
# %bb.11:                               # %ctrl2
	cmpl	$3, %eax
	je	.LBB3_4
# %bb.12:                               # %ctrl3
	cmpl	$4, %eax
	je	.LBB3_5
# %bb.13:                               # %ctrl4
	cmpl	$5, %eax
	je	.LBB3_6
# %bb.14:                               # %ctrl5
	cmpl	$6, %eax
	je	.LBB3_7
	jmp	.LBB3_8
.Lfunc_end3:
	.size	get_mem_bwmincost, .Lfunc_end3-get_mem_bwmincost
	.cfi_endproc
                                        # -- End function
	.globl	get_mem_FME             # -- Begin function get_mem_FME
	.p2align	4, 0x90
	.type	get_mem_FME,@function
get_mem_FME:                            # @get_mem_FME
	.cfi_startproc
# %bb.0:                                # %entry
	pushq	%rbp
	.cfi_def_cfa_offset 16
	.cfi_offset %rbp, -16
	movq	%rsp, %rbp
	.cfi_def_cfa_register %rbp
	subq	$16, %rsp
	movl	$0, -4(%rbp)
	movq	img, %rax
	movl	52(%rax), %eax
	sarl	$4, %eax
	addl	$1, %eax
	movslq	%eax, %rdi
	movl	$4, %esi
	callq	calloc
	xorl	%ecx, %ecx
	movq	%rax, flag_intra
	cmpq	%rax, %rcx
	jne	.LBB4_2
# %bb.1:                                # %if.then
	movabsq	$.L.str.1, %rdi
	callq	no_mem_exit
.LBB4_2:                                # %if.end
	movq	input, %rax
	movl	32(%rax), %esi
	shll	$1, %esi
	addl	$1, %esi
	movq	input, %rax
	movl	32(%rax), %edx
	shll	$1, %edx
	addl	$1, %edx
	movabsq	$McostState, %rdi
	callq	get_mem2Dint
	addl	-4(%rbp), %eax
	movl	%eax, -4(%rbp)
	movabsq	$all_mincost, %rdi
	callq	get_mem_mincost
	addl	-4(%rbp), %eax
	movl	%eax, -4(%rbp)
	movabsq	$all_bwmincost, %rdi
	callq	get_mem_bwmincost
	addl	-4(%rbp), %eax
	movl	%eax, -4(%rbp)
	movabsq	$SearchState, %rdi
	movl	$7, %esi
	movl	$7, %edx
	callq	get_mem2D
	addl	-4(%rbp), %eax
	movl	%eax, -4(%rbp)
	movl	-4(%rbp), %eax
	addq	$16, %rsp
	popq	%rbp
	.cfi_def_cfa %rsp, 8
	retq
.Lfunc_end4:
	.size	get_mem_FME, .Lfunc_end4-get_mem_FME
	.cfi_endproc
                                        # -- End function
	.globl	free_mem_mincost        # -- Begin function free_mem_mincost
	.p2align	4, 0x90
	.type	free_mem_mincost,@function
free_mem_mincost:                       # @free_mem_mincost
	.cfi_startproc
# %bb.0:                                # %rand_bb
	pushq	%rbp
	.cfi_def_cfa_offset 16
	.cfi_offset %rbp, -16
	movq	%rsp, %rbp
	.cfi_def_cfa_register %rbp
	pushq	%rbx
	pushq	%rax
	.cfi_offset %rbx, -24
	movq	%rdi, %rbx
	callq	get_rand
	cmpl	$0, %eax
	jne	.LBB5_9
# %bb.1:                                # %func_free_mem_mincost.2
	movq	%rbx, %rdi
	callq	free_mem_mincost.2
	addq	$8, %rsp
	popq	%rbx
	popq	%rbp
	.cfi_def_cfa %rsp, 8
	retq
.LBB5_2:                                # %func_free_mem_mincost.6
	.cfi_def_cfa %rbp, 16
	movq	%rbx, %rdi
	callq	free_mem_mincost.6
	addq	$8, %rsp
	popq	%rbx
	popq	%rbp
	.cfi_def_cfa %rsp, 8
	retq
.LBB5_3:                                # %func_free_mem_mincost.7
	.cfi_def_cfa %rbp, 16
	movq	%rbx, %rdi
	callq	free_mem_mincost.7
	addq	$8, %rsp
	popq	%rbx
	popq	%rbp
	.cfi_def_cfa %rsp, 8
	retq
.LBB5_4:                                # %func_free_mem_mincost.18
	.cfi_def_cfa %rbp, 16
	movq	%rbx, %rdi
	callq	free_mem_mincost.18
	addq	$8, %rsp
	popq	%rbx
	popq	%rbp
	.cfi_def_cfa %rsp, 8
	retq
.LBB5_5:                                # %func_free_mem_mincost.19
	.cfi_def_cfa %rbp, 16
	movq	%rbx, %rdi
	callq	free_mem_mincost.19
	addq	$8, %rsp
	popq	%rbx
	popq	%rbp
	.cfi_def_cfa %rsp, 8
	retq
.LBB5_6:                                # %func_free_mem_mincost.23
	.cfi_def_cfa %rbp, 16
	movq	%rbx, %rdi
	callq	free_mem_mincost.23
	addq	$8, %rsp
	popq	%rbx
	popq	%rbp
	.cfi_def_cfa %rsp, 8
	retq
.LBB5_7:                                # %func_free_mem_mincost.24
	.cfi_def_cfa %rbp, 16
	movq	%rbx, %rdi
	callq	free_mem_mincost.24
	addq	$8, %rsp
	popq	%rbx
	popq	%rbp
	.cfi_def_cfa %rsp, 8
	retq
.LBB5_8:                                # %func_free_mem_mincost.36
	.cfi_def_cfa %rbp, 16
	movq	%rbx, %rdi
	callq	free_mem_mincost.36
	addq	$8, %rsp
	popq	%rbx
	popq	%rbp
	.cfi_def_cfa %rsp, 8
	retq
.LBB5_9:                                # %ctrl0
	.cfi_def_cfa %rbp, 16
	cmpl	$1, %eax
	je	.LBB5_2
# %bb.10:                               # %ctrl1
	cmpl	$2, %eax
	je	.LBB5_3
# %bb.11:                               # %ctrl2
	cmpl	$3, %eax
	je	.LBB5_4
# %bb.12:                               # %ctrl3
	cmpl	$4, %eax
	je	.LBB5_5
# %bb.13:                               # %ctrl4
	cmpl	$5, %eax
	je	.LBB5_6
# %bb.14:                               # %ctrl5
	cmpl	$6, %eax
	je	.LBB5_7
	jmp	.LBB5_8
.Lfunc_end5:
	.size	free_mem_mincost, .Lfunc_end5-free_mem_mincost
	.cfi_endproc
                                        # -- End function
	.globl	free_mem_bwmincost      # -- Begin function free_mem_bwmincost
	.p2align	4, 0x90
	.type	free_mem_bwmincost,@function
free_mem_bwmincost:                     # @free_mem_bwmincost
	.cfi_startproc
# %bb.0:                                # %rand_bb
	pushq	%rbp
	.cfi_def_cfa_offset 16
	.cfi_offset %rbp, -16
	movq	%rsp, %rbp
	.cfi_def_cfa_register %rbp
	pushq	%rbx
	pushq	%rax
	.cfi_offset %rbx, -24
	movq	%rdi, %rbx
	callq	get_rand
	cmpl	$0, %eax
	jne	.LBB6_9
# %bb.1:                                # %func_free_mem_bwmincost.4
	movq	%rbx, %rdi
	callq	free_mem_bwmincost.4
	addq	$8, %rsp
	popq	%rbx
	popq	%rbp
	.cfi_def_cfa %rsp, 8
	retq
.LBB6_2:                                # %func_free_mem_bwmincost.5
	.cfi_def_cfa %rbp, 16
	movq	%rbx, %rdi
	callq	free_mem_bwmincost.5
	addq	$8, %rsp
	popq	%rbx
	popq	%rbp
	.cfi_def_cfa %rsp, 8
	retq
.LBB6_3:                                # %func_free_mem_bwmincost.15
	.cfi_def_cfa %rbp, 16
	movq	%rbx, %rdi
	callq	free_mem_bwmincost.15
	addq	$8, %rsp
	popq	%rbx
	popq	%rbp
	.cfi_def_cfa %rsp, 8
	retq
.LBB6_4:                                # %func_free_mem_bwmincost.27
	.cfi_def_cfa %rbp, 16
	movq	%rbx, %rdi
	callq	free_mem_bwmincost.27
	addq	$8, %rsp
	popq	%rbx
	popq	%rbp
	.cfi_def_cfa %rsp, 8
	retq
.LBB6_5:                                # %func_free_mem_bwmincost.28
	.cfi_def_cfa %rbp, 16
	movq	%rbx, %rdi
	callq	free_mem_bwmincost.28
	addq	$8, %rsp
	popq	%rbx
	popq	%rbp
	.cfi_def_cfa %rsp, 8
	retq
.LBB6_6:                                # %func_free_mem_bwmincost.37
	.cfi_def_cfa %rbp, 16
	movq	%rbx, %rdi
	callq	free_mem_bwmincost.37
	addq	$8, %rsp
	popq	%rbx
	popq	%rbp
	.cfi_def_cfa %rsp, 8
	retq
.LBB6_7:                                # %func_free_mem_bwmincost.38
	.cfi_def_cfa %rbp, 16
	movq	%rbx, %rdi
	callq	free_mem_bwmincost.38
	addq	$8, %rsp
	popq	%rbx
	popq	%rbp
	.cfi_def_cfa %rsp, 8
	retq
.LBB6_8:                                # %func_free_mem_bwmincost.41
	.cfi_def_cfa %rbp, 16
	movq	%rbx, %rdi
	callq	free_mem_bwmincost.41
	addq	$8, %rsp
	popq	%rbx
	popq	%rbp
	.cfi_def_cfa %rsp, 8
	retq
.LBB6_9:                                # %ctrl0
	.cfi_def_cfa %rbp, 16
	cmpl	$1, %eax
	je	.LBB6_2
# %bb.10:                               # %ctrl1
	cmpl	$2, %eax
	je	.LBB6_3
# %bb.11:                               # %ctrl2
	cmpl	$3, %eax
	je	.LBB6_4
# %bb.12:                               # %ctrl3
	cmpl	$4, %eax
	je	.LBB6_5
# %bb.13:                               # %ctrl4
	cmpl	$5, %eax
	je	.LBB6_6
# %bb.14:                               # %ctrl5
	cmpl	$6, %eax
	je	.LBB6_7
	jmp	.LBB6_8
.Lfunc_end6:
	.size	free_mem_bwmincost, .Lfunc_end6-free_mem_bwmincost
	.cfi_endproc
                                        # -- End function
	.globl	free_mem_FME            # -- Begin function free_mem_FME
	.p2align	4, 0x90
	.type	free_mem_FME,@function
free_mem_FME:                           # @free_mem_FME
	.cfi_startproc
# %bb.0:                                # %entry
	pushq	%rbp
	.cfi_def_cfa_offset 16
	.cfi_offset %rbp, -16
	movq	%rsp, %rbp
	.cfi_def_cfa_register %rbp
	movq	McostState, %rdi
	callq	free_mem2Dint
	movq	all_mincost, %rdi
	callq	free_mem_mincost
	movq	all_bwmincost, %rdi
	callq	free_mem_bwmincost
	movq	SearchState, %rdi
	callq	free_mem2D
	movq	flag_intra, %rdi
	callq	free
	popq	%rbp
	.cfi_def_cfa %rsp, 8
	retq
.Lfunc_end7:
	.size	free_mem_FME, .Lfunc_end7-free_mem_FME
	.cfi_endproc
                                        # -- End function
	.globl	PartCalMad              # -- Begin function PartCalMad
	.p2align	4, 0x90
	.type	PartCalMad,@function
PartCalMad:                             # @PartCalMad
	.cfi_startproc
# %bb.0:                                # %rand_bb
	pushq	%rbp
	.cfi_def_cfa_offset 16
	.cfi_offset %rbp, -16
	movq	%rsp, %rbp
	.cfi_def_cfa_register %rbp
	pushq	%r15
	pushq	%r14
	pushq	%r13
	pushq	%r12
	pushq	%rbx
	subq	$40, %rsp
	.cfi_offset %rbx, -56
	.cfi_offset %r12, -48
	.cfi_offset %r13, -40
	.cfi_offset %r14, -32
	.cfi_offset %r15, -24
	movl	%r9d, -44(%rbp)         # 4-byte Spill
	movl	%r8d, %r13d
	movl	%ecx, %r12d
	movq	%rdx, %rbx
	movq	%rsi, %r14
	movq	%rdi, %r15
	callq	get_rand
	cmpl	$0, %eax
	jne	.LBB8_9
# %bb.1:                                # %func_PartCalMad.9
	movq	%r15, %rdi
	movq	%r14, %rsi
	movq	%rbx, %rdx
	movl	%r12d, %ecx
	movl	%r13d, %r8d
	movl	-44(%rbp), %r9d         # 4-byte Reload
	movl	16(%rbp), %eax
	movl	%eax, (%rsp)
	movl	24(%rbp), %eax
	movl	%eax, 8(%rsp)
	movl	32(%rbp), %eax
	movl	%eax, 16(%rsp)
	movl	40(%rbp), %eax
	movl	%eax, 24(%rsp)
	callq	PartCalMad.9
	addq	$40, %rsp
	popq	%rbx
	popq	%r12
	popq	%r13
	popq	%r14
	popq	%r15
	popq	%rbp
	.cfi_def_cfa %rsp, 8
	retq
.LBB8_2:                                # %func_PartCalMad.22
	.cfi_def_cfa %rbp, 16
	movq	%r14, %rsi
	movq	%rbx, %rdx
	movl	%r13d, %r8d
	movl	%r11d, (%rsp)
	movl	%r10d, 8(%rsp)
	movl	%r15d, 16(%rsp)
	movl	%r12d, 24(%rsp)
	callq	PartCalMad.22
	addq	$40, %rsp
	popq	%rbx
	popq	%r12
	popq	%r13
	popq	%r14
	popq	%r15
	popq	%rbp
	.cfi_def_cfa %rsp, 8
	retq
.LBB8_3:                                # %func_PartCalMad.40
	.cfi_def_cfa %rbp, 16
	movq	%r14, %rsi
	movq	%rbx, %rdx
	movl	%r13d, %r8d
	movl	%r11d, (%rsp)
	movl	%r10d, 8(%rsp)
	movl	%r15d, 16(%rsp)
	movl	%r12d, 24(%rsp)
	callq	PartCalMad.40
	addq	$40, %rsp
	popq	%rbx
	popq	%r12
	popq	%r13
	popq	%r14
	popq	%r15
	popq	%rbp
	.cfi_def_cfa %rsp, 8
	retq
.LBB8_4:                                # %func_PartCalMad.44
	.cfi_def_cfa %rbp, 16
	movq	%r14, %rsi
	movq	%rbx, %rdx
	movl	%r13d, %r8d
	movl	%r11d, (%rsp)
	movl	%r10d, 8(%rsp)
	movl	%r15d, 16(%rsp)
	movl	%r12d, 24(%rsp)
	callq	PartCalMad.44
	addq	$40, %rsp
	popq	%rbx
	popq	%r12
	popq	%r13
	popq	%r14
	popq	%r15
	popq	%rbp
	.cfi_def_cfa %rsp, 8
	retq
.LBB8_5:                                # %func_PartCalMad.52
	.cfi_def_cfa %rbp, 16
	movq	%r14, %rsi
	movq	%rbx, %rdx
	movl	%r13d, %r8d
	movl	%r11d, (%rsp)
	movl	%r10d, 8(%rsp)
	movl	%r15d, 16(%rsp)
	movl	%r12d, 24(%rsp)
	callq	PartCalMad.52
	addq	$40, %rsp
	popq	%rbx
	popq	%r12
	popq	%r13
	popq	%r14
	popq	%r15
	popq	%rbp
	.cfi_def_cfa %rsp, 8
	retq
.LBB8_6:                                # %func_PartCalMad.54
	.cfi_def_cfa %rbp, 16
	movq	%r14, %rsi
	movq	%rbx, %rdx
	movl	%r13d, %r8d
	movl	%r11d, (%rsp)
	movl	%r10d, 8(%rsp)
	movl	%r15d, 16(%rsp)
	movl	%r12d, 24(%rsp)
	callq	PartCalMad.54
	addq	$40, %rsp
	popq	%rbx
	popq	%r12
	popq	%r13
	popq	%r14
	popq	%r15
	popq	%rbp
	.cfi_def_cfa %rsp, 8
	retq
.LBB8_7:                                # %func_PartCalMad.67
	.cfi_def_cfa %rbp, 16
	movl	%r11d, (%rsp)
	movl	%r10d, 8(%rsp)
	movl	%r15d, 16(%rsp)
	movl	%r12d, 24(%rsp)
	callq	PartCalMad.67
	addq	$40, %rsp
	popq	%rbx
	popq	%r12
	popq	%r13
	popq	%r14
	popq	%r15
	popq	%rbp
	.cfi_def_cfa %rsp, 8
	retq
.LBB8_8:                                # %func_PartCalMad.69
	.cfi_def_cfa %rbp, 16
	movl	%r11d, (%rsp)
	movl	%r10d, 8(%rsp)
	movl	%r15d, 16(%rsp)
	movl	%r12d, 24(%rsp)
	callq	PartCalMad.69
	addq	$40, %rsp
	popq	%rbx
	popq	%r12
	popq	%r13
	popq	%r14
	popq	%r15
	popq	%rbp
	.cfi_def_cfa %rsp, 8
	retq
.LBB8_9:                                # %ctrl0
	.cfi_def_cfa %rbp, 16
	movq	%r15, %rdi
	movl	%r12d, %ecx
	movl	16(%rbp), %r11d
	movl	-44(%rbp), %r9d         # 4-byte Reload
	movl	24(%rbp), %r10d
	movl	32(%rbp), %r15d
	movl	40(%rbp), %r12d
	cmpl	$1, %eax
	je	.LBB8_2
# %bb.10:                               # %ctrl1
	cmpl	$2, %eax
	je	.LBB8_3
# %bb.11:                               # %ctrl2
	cmpl	$3, %eax
	je	.LBB8_4
# %bb.12:                               # %ctrl3
	cmpl	$4, %eax
	je	.LBB8_5
# %bb.13:                               # %ctrl4
	cmpl	$5, %eax
	je	.LBB8_6
# %bb.14:                               # %ctrl5
	cmpl	$6, %eax
	movl	%r13d, %r8d
	movq	%rbx, %rdx
	movq	%r14, %rsi
	je	.LBB8_7
	jmp	.LBB8_8
.Lfunc_end8:
	.size	PartCalMad, .Lfunc_end8-PartCalMad
	.cfi_endproc
                                        # -- End function
	.globl	FastIntegerPelBlockMotionSearch # -- Begin function FastIntegerPelBlockMotionSearch
	.p2align	4, 0x90
	.type	FastIntegerPelBlockMotionSearch,@function
FastIntegerPelBlockMotionSearch:        # @FastIntegerPelBlockMotionSearch
	.cfi_startproc
# %bb.0:                                # %rand_bb
	pushq	%rbp
	.cfi_def_cfa_offset 16
	.cfi_offset %rbp, -16
	movq	%rsp, %rbp
	.cfi_def_cfa_register %rbp
	pushq	%r15
	pushq	%r14
	pushq	%r13
	pushq	%r12
	pushq	%rbx
	subq	$72, %rsp
	.cfi_offset %rbx, -56
	.cfi_offset %r12, -48
	.cfi_offset %r13, -40
	.cfi_offset %r14, -32
	.cfi_offset %r15, -24
	vmovsd	%xmm0, -56(%rbp)        # 8-byte Spill
	movl	%r9d, -44(%rbp)         # 4-byte Spill
	movl	%r8d, %r15d
	movl	%ecx, %ebx
	movl	%edx, %r12d
	movl	%esi, %r14d
	movq	%rdi, %r13
	callq	get_rand
	cmpl	$0, %eax
	jne	.LBB9_9
# %bb.1:                                # %func_FastIntegerPelBlockMotionSearch.1
	movq	%r13, %rdi
	movswl	%r14w, %esi
	movl	%r12d, %edx
	movl	%ebx, %ecx
	movl	%r15d, %r8d
	movl	-44(%rbp), %r9d         # 4-byte Reload
	movswl	16(%rbp), %eax
	movl	%eax, (%rsp)
	movswl	24(%rbp), %eax
	movl	%eax, 8(%rsp)
	movq	32(%rbp), %rax
	movq	%rax, 16(%rsp)
	movq	40(%rbp), %rax
	movq	%rax, 24(%rsp)
	movl	48(%rbp), %eax
	movl	%eax, 32(%rsp)
	movl	56(%rbp), %eax
	movl	%eax, 40(%rsp)
	vmovsd	-56(%rbp), %xmm0        # 8-byte Reload
                                        # xmm0 = mem[0],zero
	callq	FastIntegerPelBlockMotionSearch.1
	addq	$72, %rsp
	popq	%rbx
	popq	%r12
	popq	%r13
	popq	%r14
	popq	%r15
	popq	%rbp
	.cfi_def_cfa %rsp, 8
	retq
.LBB9_2:                                # %func_FastIntegerPelBlockMotionSearch.20
	.cfi_def_cfa %rbp, 16
	movswl	%r14w, %esi
	movl	%ebx, %ecx
	movswl	%r10w, %eax
	movl	%eax, (%rsp)
	movswl	24(%rbp), %eax
	movl	%eax, 8(%rsp)
	movq	%r11, 16(%rsp)
	movq	%r13, 24(%rsp)
	movl	%r12d, 32(%rsp)
	movl	%r15d, 40(%rsp)
	callq	FastIntegerPelBlockMotionSearch.20
	addq	$72, %rsp
	popq	%rbx
	popq	%r12
	popq	%r13
	popq	%r14
	popq	%r15
	popq	%rbp
	.cfi_def_cfa %rsp, 8
	retq
.LBB9_3:                                # %func_FastIntegerPelBlockMotionSearch.29
	.cfi_def_cfa %rbp, 16
	movswl	%r14w, %esi
	movl	%ebx, %ecx
	movswl	%r10w, %eax
	movl	%eax, (%rsp)
	movswl	24(%rbp), %eax
	movl	%eax, 8(%rsp)
	movq	%r11, 16(%rsp)
	movq	%r13, 24(%rsp)
	movl	%r12d, 32(%rsp)
	movl	%r15d, 40(%rsp)
	callq	FastIntegerPelBlockMotionSearch.29
	addq	$72, %rsp
	popq	%rbx
	popq	%r12
	popq	%r13
	popq	%r14
	popq	%r15
	popq	%rbp
	.cfi_def_cfa %rsp, 8
	retq
.LBB9_4:                                # %func_FastIntegerPelBlockMotionSearch.31
	.cfi_def_cfa %rbp, 16
	movswl	%r14w, %esi
	movl	%ebx, %ecx
	movswl	%r10w, %eax
	movl	%eax, (%rsp)
	movswl	24(%rbp), %eax
	movl	%eax, 8(%rsp)
	movq	%r11, 16(%rsp)
	movq	%r13, 24(%rsp)
	movl	%r12d, 32(%rsp)
	movl	%r15d, 40(%rsp)
	callq	FastIntegerPelBlockMotionSearch.31
	addq	$72, %rsp
	popq	%rbx
	popq	%r12
	popq	%r13
	popq	%r14
	popq	%r15
	popq	%rbp
	.cfi_def_cfa %rsp, 8
	retq
.LBB9_5:                                # %func_FastIntegerPelBlockMotionSearch.43
	.cfi_def_cfa %rbp, 16
	movswl	%r14w, %esi
	movl	%ebx, %ecx
	movswl	%r10w, %eax
	movl	%eax, (%rsp)
	movswl	24(%rbp), %eax
	movl	%eax, 8(%rsp)
	movq	%r11, 16(%rsp)
	movq	%r13, 24(%rsp)
	movl	%r12d, 32(%rsp)
	movl	%r15d, 40(%rsp)
	callq	FastIntegerPelBlockMotionSearch.43
	addq	$72, %rsp
	popq	%rbx
	popq	%r12
	popq	%r13
	popq	%r14
	popq	%r15
	popq	%rbp
	.cfi_def_cfa %rsp, 8
	retq
.LBB9_6:                                # %func_FastIntegerPelBlockMotionSearch.50
	.cfi_def_cfa %rbp, 16
	movswl	%r14w, %esi
	movl	%ebx, %ecx
	movswl	%r10w, %eax
	movl	%eax, (%rsp)
	movswl	24(%rbp), %eax
	movl	%eax, 8(%rsp)
	movq	%r11, 16(%rsp)
	movq	%r13, 24(%rsp)
	movl	%r12d, 32(%rsp)
	movl	%r15d, 40(%rsp)
	callq	FastIntegerPelBlockMotionSearch.50
	addq	$72, %rsp
	popq	%rbx
	popq	%r12
	popq	%r13
	popq	%r14
	popq	%r15
	popq	%rbp
	.cfi_def_cfa %rsp, 8
	retq
.LBB9_7:                                # %func_FastIntegerPelBlockMotionSearch.58
	.cfi_def_cfa %rbp, 16
	movswl	%r14w, %esi
	movswl	%r10w, %eax
	movl	%eax, (%rsp)
	movswl	24(%rbp), %eax
	movl	%eax, 8(%rsp)
	movq	%r11, 16(%rsp)
	movq	%r13, 24(%rsp)
	movl	%r12d, 32(%rsp)
	movl	%r15d, 40(%rsp)
	callq	FastIntegerPelBlockMotionSearch.58
	addq	$72, %rsp
	popq	%rbx
	popq	%r12
	popq	%r13
	popq	%r14
	popq	%r15
	popq	%rbp
	.cfi_def_cfa %rsp, 8
	retq
.LBB9_8:                                # %func_FastIntegerPelBlockMotionSearch.65
	.cfi_def_cfa %rbp, 16
	movswl	%r14w, %esi
	movswl	%r10w, %eax
	movl	%eax, (%rsp)
	movswl	24(%rbp), %eax
	movl	%eax, 8(%rsp)
	movq	%r11, 16(%rsp)
	movq	%r13, 24(%rsp)
	movl	%r12d, 32(%rsp)
	movl	%r15d, 40(%rsp)
	callq	FastIntegerPelBlockMotionSearch.65
	addq	$72, %rsp
	popq	%rbx
	popq	%r12
	popq	%r13
	popq	%r14
	popq	%r15
	popq	%rbp
	.cfi_def_cfa %rsp, 8
	retq
.LBB9_9:                                # %ctrl0
	.cfi_def_cfa %rbp, 16
	movq	%r13, %rdi
	movl	%r12d, %edx
	movl	%r15d, %r8d
	movw	16(%rbp), %r10w
	movl	-44(%rbp), %r9d         # 4-byte Reload
	movq	32(%rbp), %r11
	movq	40(%rbp), %r13
	movl	48(%rbp), %r12d
	movl	56(%rbp), %r15d
	vmovsd	-56(%rbp), %xmm0        # 8-byte Reload
                                        # xmm0 = mem[0],zero
	cmpl	$1, %eax
	je	.LBB9_2
# %bb.10:                               # %ctrl1
	cmpl	$2, %eax
	je	.LBB9_3
# %bb.11:                               # %ctrl2
	cmpl	$3, %eax
	je	.LBB9_4
# %bb.12:                               # %ctrl3
	cmpl	$4, %eax
	je	.LBB9_5
# %bb.13:                               # %ctrl4
	cmpl	$5, %eax
	je	.LBB9_6
# %bb.14:                               # %ctrl5
	cmpl	$6, %eax
	movl	%ebx, %ecx
	je	.LBB9_7
	jmp	.LBB9_8
.Lfunc_end9:
	.size	FastIntegerPelBlockMotionSearch, .Lfunc_end9-FastIntegerPelBlockMotionSearch
	.cfi_endproc
                                        # -- End function
	.globl	AddUpSADQuarter         # -- Begin function AddUpSADQuarter
	.p2align	4, 0x90
	.type	AddUpSADQuarter,@function
AddUpSADQuarter:                        # @AddUpSADQuarter
	.cfi_startproc
# %bb.0:                                # %rand_bb
	pushq	%rbp
	.cfi_def_cfa_offset 16
	.cfi_offset %rbp, -16
	movq	%rsp, %rbp
	.cfi_def_cfa_register %rbp
	pushq	%r15
	pushq	%r14
	pushq	%r13
	pushq	%r12
	pushq	%rbx
	subq	$56, %rsp
	.cfi_offset %rbx, -56
	.cfi_offset %r12, -48
	.cfi_offset %r13, -40
	.cfi_offset %r14, -32
	.cfi_offset %r15, -24
	movl	%r9d, -44(%rbp)         # 4-byte Spill
	movl	%r8d, %r15d
	movl	%ecx, %ebx
	movl	%edx, %r12d
	movl	%esi, %r14d
	movl	%edi, %r13d
	callq	get_rand
	cmpl	$0, %eax
	jne	.LBB10_9
# %bb.1:                                # %func_AddUpSADQuarter.14
	movl	%r13d, %edi
	movl	%r14d, %esi
	movl	%r12d, %edx
	movl	%ebx, %ecx
	movl	%r15d, %r8d
	movl	-44(%rbp), %r9d         # 4-byte Reload
	movq	16(%rbp), %rax
	movq	%rax, (%rsp)
	movq	24(%rbp), %rax
	movq	%rax, 8(%rsp)
	movl	32(%rbp), %eax
	movl	%eax, 16(%rsp)
	movl	40(%rbp), %eax
	movl	%eax, 24(%rsp)
	movl	48(%rbp), %eax
	movl	%eax, 32(%rsp)
	callq	AddUpSADQuarter.14
	addq	$56, %rsp
	popq	%rbx
	popq	%r12
	popq	%r13
	popq	%r14
	popq	%r15
	popq	%rbp
	.cfi_def_cfa %rsp, 8
	retq
.LBB10_2:                               # %func_AddUpSADQuarter.33
	.cfi_def_cfa %rbp, 16
	movl	%r14d, %esi
	movl	%ebx, %ecx
	movq	%r10, (%rsp)
	movq	%r11, 8(%rsp)
	movl	%r13d, 16(%rsp)
	movl	%r12d, 24(%rsp)
	movl	%r15d, 32(%rsp)
	callq	AddUpSADQuarter.33
	addq	$56, %rsp
	popq	%rbx
	popq	%r12
	popq	%r13
	popq	%r14
	popq	%r15
	popq	%rbp
	.cfi_def_cfa %rsp, 8
	retq
.LBB10_3:                               # %func_AddUpSADQuarter.63
	.cfi_def_cfa %rbp, 16
	movl	%r14d, %esi
	movl	%ebx, %ecx
	movq	%r10, (%rsp)
	movq	%r11, 8(%rsp)
	movl	%r13d, 16(%rsp)
	movl	%r12d, 24(%rsp)
	movl	%r15d, 32(%rsp)
	callq	AddUpSADQuarter.63
	addq	$56, %rsp
	popq	%rbx
	popq	%r12
	popq	%r13
	popq	%r14
	popq	%r15
	popq	%rbp
	.cfi_def_cfa %rsp, 8
	retq
.LBB10_4:                               # %func_AddUpSADQuarter.72
	.cfi_def_cfa %rbp, 16
	movl	%r14d, %esi
	movl	%ebx, %ecx
	movq	%r10, (%rsp)
	movq	%r11, 8(%rsp)
	movl	%r13d, 16(%rsp)
	movl	%r12d, 24(%rsp)
	movl	%r15d, 32(%rsp)
	callq	AddUpSADQuarter.72
	addq	$56, %rsp
	popq	%rbx
	popq	%r12
	popq	%r13
	popq	%r14
	popq	%r15
	popq	%rbp
	.cfi_def_cfa %rsp, 8
	retq
.LBB10_5:                               # %func_AddUpSADQuarter.76
	.cfi_def_cfa %rbp, 16
	movl	%r14d, %esi
	movl	%ebx, %ecx
	movq	%r10, (%rsp)
	movq	%r11, 8(%rsp)
	movl	%r13d, 16(%rsp)
	movl	%r12d, 24(%rsp)
	movl	%r15d, 32(%rsp)
	callq	AddUpSADQuarter.76
	addq	$56, %rsp
	popq	%rbx
	popq	%r12
	popq	%r13
	popq	%r14
	popq	%r15
	popq	%rbp
	.cfi_def_cfa %rsp, 8
	retq
.LBB10_6:                               # %func_AddUpSADQuarter.78
	.cfi_def_cfa %rbp, 16
	movl	%r14d, %esi
	movl	%ebx, %ecx
	movq	%r10, (%rsp)
	movq	%r11, 8(%rsp)
	movl	%r13d, 16(%rsp)
	movl	%r12d, 24(%rsp)
	movl	%r15d, 32(%rsp)
	callq	AddUpSADQuarter.78
	addq	$56, %rsp
	popq	%rbx
	popq	%r12
	popq	%r13
	popq	%r14
	popq	%r15
	popq	%rbp
	.cfi_def_cfa %rsp, 8
	retq
.LBB10_7:                               # %func_AddUpSADQuarter.79
	.cfi_def_cfa %rbp, 16
	movq	%r10, (%rsp)
	movq	%r11, 8(%rsp)
	movl	%r13d, 16(%rsp)
	movl	%r12d, 24(%rsp)
	movl	%r15d, 32(%rsp)
	callq	AddUpSADQuarter.79
	addq	$56, %rsp
	popq	%rbx
	popq	%r12
	popq	%r13
	popq	%r14
	popq	%r15
	popq	%rbp
	.cfi_def_cfa %rsp, 8
	retq
.LBB10_8:                               # %func_AddUpSADQuarter.80
	.cfi_def_cfa %rbp, 16
	movq	%r10, (%rsp)
	movq	%r11, 8(%rsp)
	movl	%r13d, 16(%rsp)
	movl	%r12d, 24(%rsp)
	movl	%r15d, 32(%rsp)
	callq	AddUpSADQuarter.80
	addq	$56, %rsp
	popq	%rbx
	popq	%r12
	popq	%r13
	popq	%r14
	popq	%r15
	popq	%rbp
	.cfi_def_cfa %rsp, 8
	retq
.LBB10_9:                               # %ctrl0
	.cfi_def_cfa %rbp, 16
	movl	%r13d, %edi
	movl	%r12d, %edx
	movl	%r15d, %r8d
	movq	16(%rbp), %r10
	movl	-44(%rbp), %r9d         # 4-byte Reload
	movq	24(%rbp), %r11
	movl	32(%rbp), %r13d
	movl	40(%rbp), %r12d
	movl	48(%rbp), %r15d
	cmpl	$1, %eax
	je	.LBB10_2
# %bb.10:                               # %ctrl1
	cmpl	$2, %eax
	je	.LBB10_3
# %bb.11:                               # %ctrl2
	cmpl	$3, %eax
	je	.LBB10_4
# %bb.12:                               # %ctrl3
	cmpl	$4, %eax
	je	.LBB10_5
# %bb.13:                               # %ctrl4
	cmpl	$5, %eax
	je	.LBB10_6
# %bb.14:                               # %ctrl5
	cmpl	$6, %eax
	movl	%ebx, %ecx
	movl	%r14d, %esi
	je	.LBB10_7
	jmp	.LBB10_8
.Lfunc_end10:
	.size	AddUpSADQuarter, .Lfunc_end10-AddUpSADQuarter
	.cfi_endproc
                                        # -- End function
	.globl	FastSubPelBlockMotionSearch # -- Begin function FastSubPelBlockMotionSearch
	.p2align	4, 0x90
	.type	FastSubPelBlockMotionSearch,@function
FastSubPelBlockMotionSearch:            # @FastSubPelBlockMotionSearch
	.cfi_startproc
# %bb.0:                                # %rand_bb
	pushq	%rbp
	.cfi_def_cfa_offset 16
	.cfi_offset %rbp, -16
	movq	%rsp, %rbp
	.cfi_def_cfa_register %rbp
	pushq	%r15
	pushq	%r14
	pushq	%r13
	pushq	%r12
	pushq	%rbx
	subq	$88, %rsp
	.cfi_offset %rbx, -56
	.cfi_offset %r12, -48
	.cfi_offset %r13, -40
	.cfi_offset %r14, -32
	.cfi_offset %r15, -24
	vmovsd	%xmm0, -56(%rbp)        # 8-byte Spill
	movl	%r9d, -44(%rbp)         # 4-byte Spill
	movl	%r8d, %ebx
	movl	%ecx, %r15d
	movl	%edx, %r14d
	movl	%esi, %r13d
	movq	%rdi, %r12
	callq	get_rand
	cmpl	$0, %eax
	jne	.LBB11_9
# %bb.1:                                # %func_FastSubPelBlockMotionSearch.17
	movq	%r12, %rdi
	movswl	%r13w, %esi
	movl	%r14d, %edx
	movl	%r15d, %ecx
	movl	%ebx, %r8d
	movl	-44(%rbp), %r9d         # 4-byte Reload
	movswl	16(%rbp), %eax
	movl	%eax, (%rsp)
	movswl	24(%rbp), %eax
	movl	%eax, 8(%rsp)
	movq	32(%rbp), %rax
	movq	%rax, 16(%rsp)
	movq	40(%rbp), %rax
	movq	%rax, 24(%rsp)
	movl	48(%rbp), %eax
	movl	%eax, 32(%rsp)
	movl	56(%rbp), %eax
	movl	%eax, 40(%rsp)
	movl	64(%rbp), %eax
	movl	%eax, 48(%rsp)
	vmovsd	-56(%rbp), %xmm0        # 8-byte Reload
                                        # xmm0 = mem[0],zero
	movl	72(%rbp), %eax
	movl	%eax, 56(%rsp)
	callq	FastSubPelBlockMotionSearch.17
	addq	$88, %rsp
	popq	%rbx
	popq	%r12
	popq	%r13
	popq	%r14
	popq	%r15
	popq	%rbp
	.cfi_def_cfa %rsp, 8
	retq
.LBB11_2:                               # %func_FastSubPelBlockMotionSearch.25
	.cfi_def_cfa %rbp, 16
	movswl	%r13w, %esi
	movswl	%bx, %eax
	movl	%eax, (%rsp)
	movswl	%r14w, %eax
	movl	%eax, 8(%rsp)
	movq	32(%rbp), %rax
	movq	%rax, 16(%rsp)
	movq	40(%rbp), %rax
	movq	%rax, 24(%rsp)
	movl	%r11d, 32(%rsp)
	movl	%r10d, 40(%rsp)
	movl	%r12d, 48(%rsp)
	movl	72(%rbp), %eax
	movl	%eax, 56(%rsp)
	callq	FastSubPelBlockMotionSearch.25
	addq	$88, %rsp
	popq	%rbx
	popq	%r12
	popq	%r13
	popq	%r14
	popq	%r15
	popq	%rbp
	.cfi_def_cfa %rsp, 8
	retq
.LBB11_3:                               # %func_FastSubPelBlockMotionSearch.46
	.cfi_def_cfa %rbp, 16
	movswl	%r13w, %esi
	movswl	%bx, %eax
	movl	%eax, (%rsp)
	movswl	%r14w, %eax
	movl	%eax, 8(%rsp)
	movq	32(%rbp), %rax
	movq	%rax, 16(%rsp)
	movq	40(%rbp), %rax
	movq	%rax, 24(%rsp)
	movl	%r11d, 32(%rsp)
	movl	%r10d, 40(%rsp)
	movl	%r12d, 48(%rsp)
	movl	72(%rbp), %eax
	movl	%eax, 56(%rsp)
	callq	FastSubPelBlockMotionSearch.46
	addq	$88, %rsp
	popq	%rbx
	popq	%r12
	popq	%r13
	popq	%r14
	popq	%r15
	popq	%rbp
	.cfi_def_cfa %rsp, 8
	retq
.LBB11_4:                               # %func_FastSubPelBlockMotionSearch.55
	.cfi_def_cfa %rbp, 16
	movswl	%r13w, %esi
	movswl	%bx, %eax
	movl	%eax, (%rsp)
	movswl	%r14w, %eax
	movl	%eax, 8(%rsp)
	movq	32(%rbp), %rax
	movq	%rax, 16(%rsp)
	movq	40(%rbp), %rax
	movq	%rax, 24(%rsp)
	movl	%r11d, 32(%rsp)
	movl	%r10d, 40(%rsp)
	movl	%r12d, 48(%rsp)
	movl	72(%rbp), %eax
	movl	%eax, 56(%rsp)
	callq	FastSubPelBlockMotionSearch.55
	addq	$88, %rsp
	popq	%rbx
	popq	%r12
	popq	%r13
	popq	%r14
	popq	%r15
	popq	%rbp
	.cfi_def_cfa %rsp, 8
	retq
.LBB11_5:                               # %func_FastSubPelBlockMotionSearch.59
	.cfi_def_cfa %rbp, 16
	movswl	%r13w, %esi
	movswl	%bx, %eax
	movl	%eax, (%rsp)
	movswl	%r14w, %eax
	movl	%eax, 8(%rsp)
	movq	32(%rbp), %rax
	movq	%rax, 16(%rsp)
	movq	40(%rbp), %rax
	movq	%rax, 24(%rsp)
	movl	%r11d, 32(%rsp)
	movl	%r10d, 40(%rsp)
	movl	%r12d, 48(%rsp)
	movl	72(%rbp), %eax
	movl	%eax, 56(%rsp)
	callq	FastSubPelBlockMotionSearch.59
	addq	$88, %rsp
	popq	%rbx
	popq	%r12
	popq	%r13
	popq	%r14
	popq	%r15
	popq	%rbp
	.cfi_def_cfa %rsp, 8
	retq
.LBB11_6:                               # %func_FastSubPelBlockMotionSearch.61
	.cfi_def_cfa %rbp, 16
	movswl	%r13w, %esi
	movswl	%bx, %eax
	movl	%eax, (%rsp)
	movswl	%r14w, %eax
	movl	%eax, 8(%rsp)
	movq	32(%rbp), %rax
	movq	%rax, 16(%rsp)
	movq	40(%rbp), %rax
	movq	%rax, 24(%rsp)
	movl	%r11d, 32(%rsp)
	movl	%r10d, 40(%rsp)
	movl	%r12d, 48(%rsp)
	movl	72(%rbp), %eax
	movl	%eax, 56(%rsp)
	callq	FastSubPelBlockMotionSearch.61
	addq	$88, %rsp
	popq	%rbx
	popq	%r12
	popq	%r13
	popq	%r14
	popq	%r15
	popq	%rbp
	.cfi_def_cfa %rsp, 8
	retq
.LBB11_7:                               # %func_FastSubPelBlockMotionSearch.68
	.cfi_def_cfa %rbp, 16
	movswl	%r13w, %esi
	movswl	%bx, %eax
	movl	%eax, (%rsp)
	movswl	%r14w, %eax
	movl	%eax, 8(%rsp)
	movq	32(%rbp), %rax
	movq	%rax, 16(%rsp)
	movq	40(%rbp), %rax
	movq	%rax, 24(%rsp)
	movl	%r11d, 32(%rsp)
	movl	%r10d, 40(%rsp)
	movl	%r12d, 48(%rsp)
	movl	%r15d, 56(%rsp)
	callq	FastSubPelBlockMotionSearch.68
	addq	$88, %rsp
	popq	%rbx
	popq	%r12
	popq	%r13
	popq	%r14
	popq	%r15
	popq	%rbp
	.cfi_def_cfa %rsp, 8
	retq
.LBB11_8:                               # %func_FastSubPelBlockMotionSearch.71
	.cfi_def_cfa %rbp, 16
	movswl	%r13w, %esi
	movswl	%bx, %eax
	movl	%eax, (%rsp)
	movswl	%r14w, %eax
	movl	%eax, 8(%rsp)
	movq	32(%rbp), %rax
	movq	%rax, 16(%rsp)
	movq	40(%rbp), %rax
	movq	%rax, 24(%rsp)
	movl	%r11d, 32(%rsp)
	movl	%r10d, 40(%rsp)
	movl	%r12d, 48(%rsp)
	movl	%r15d, 56(%rsp)
	callq	FastSubPelBlockMotionSearch.71
	addq	$88, %rsp
	popq	%rbx
	popq	%r12
	popq	%r13
	popq	%r14
	popq	%r15
	popq	%rbp
	.cfi_def_cfa %rsp, 8
	retq
.LBB11_9:                               # %ctrl0
	.cfi_def_cfa %rbp, 16
	movq	%r12, %rdi
	movl	%r14d, %edx
	movl	%r15d, %ecx
	movl	%ebx, %r8d
	movw	16(%rbp), %bx
	movl	-44(%rbp), %r9d         # 4-byte Reload
	movw	24(%rbp), %r14w
	movl	48(%rbp), %r11d
	movl	56(%rbp), %r10d
	movl	64(%rbp), %r12d
	vmovsd	-56(%rbp), %xmm0        # 8-byte Reload
                                        # xmm0 = mem[0],zero
	cmpl	$1, %eax
	je	.LBB11_2
# %bb.10:                               # %ctrl1
	cmpl	$2, %eax
	je	.LBB11_3
# %bb.11:                               # %ctrl2
	cmpl	$3, %eax
	je	.LBB11_4
# %bb.12:                               # %ctrl3
	cmpl	$4, %eax
	je	.LBB11_5
# %bb.13:                               # %ctrl4
	cmpl	$5, %eax
	je	.LBB11_6
# %bb.14:                               # %ctrl5
	cmpl	$6, %eax
	movl	72(%rbp), %eax
	movl	%eax, %r15d
	je	.LBB11_7
	jmp	.LBB11_8
.Lfunc_end11:
	.size	FastSubPelBlockMotionSearch, .Lfunc_end11-FastSubPelBlockMotionSearch
	.cfi_endproc
                                        # -- End function
	.globl	decide_intrabk_SAD      # -- Begin function decide_intrabk_SAD
	.p2align	4, 0x90
	.type	decide_intrabk_SAD,@function
decide_intrabk_SAD:                     # @decide_intrabk_SAD
	.cfi_startproc
# %bb.0:                                # %entry
	pushq	%rbp
	.cfi_def_cfa_offset 16
	.cfi_offset %rbp, -16
	movq	%rsp, %rbp
	.cfi_def_cfa_register %rbp
	movq	img, %rax
	cmpl	$0, 24(%rax)
	je	.LBB12_15
# %bb.1:                                # %if.then
	movq	img, %rax
	cmpl	$0, 152(%rax)
	jne	.LBB12_4
# %bb.2:                                # %land.lhs.true
	movq	img, %rax
	cmpl	$0, 156(%rax)
	jne	.LBB12_4
# %bb.3:                                # %if.then3
	movl	$0, flag_intra_SAD
	jmp	.LBB12_14
.LBB12_4:                               # %if.else
	movq	img, %rax
	cmpl	$0, 152(%rax)
	jne	.LBB12_6
# %bb.5:                                # %if.then6
	movq	flag_intra, %rax
	movq	img, %rcx
	movl	152(%rcx), %ecx
	sarl	$4, %ecx
	movslq	%ecx, %rcx
	movl	(%rax,%rcx,4), %eax
	movl	%eax, flag_intra_SAD
	jmp	.LBB12_13
.LBB12_6:                               # %if.else8
	movq	img, %rax
	cmpl	$0, 156(%rax)
	jne	.LBB12_8
# %bb.7:                                # %if.then11
	movq	flag_intra, %rax
	movq	img, %rcx
	movl	152(%rcx), %ecx
	sarl	$4, %ecx
	subl	$1, %ecx
	movslq	%ecx, %rcx
	movl	(%rax,%rcx,4), %eax
	movl	%eax, flag_intra_SAD
	jmp	.LBB12_12
.LBB12_8:                               # %if.else16
	movq	flag_intra, %rax
	movq	img, %rcx
	movl	152(%rcx), %ecx
	sarl	$4, %ecx
	movslq	%ecx, %rcx
	cmpl	$0, (%rax,%rcx,4)
	movb	$1, %al
	jne	.LBB12_11
# %bb.9:                                # %lor.lhs.false
	movq	flag_intra, %rax
	movq	img, %rcx
	movl	152(%rcx), %ecx
	sarl	$4, %ecx
	subl	$1, %ecx
	movslq	%ecx, %rcx
	cmpl	$0, (%rax,%rcx,4)
	movb	$1, %al
	jne	.LBB12_11
# %bb.10:                               # %lor.rhs
	movq	flag_intra, %rax
	movq	img, %rcx
	movl	152(%rcx), %ecx
	sarl	$4, %ecx
	addl	$1, %ecx
	movslq	%ecx, %rcx
	cmpl	$0, (%rax,%rcx,4)
	setne	%al
.LBB12_11:                              # %lor.end
	andb	$1, %al
	movzbl	%al, %eax
	movl	%eax, flag_intra_SAD
.LBB12_12:                              # %if.end
	jmp	.LBB12_13
.LBB12_13:                              # %if.end32
	jmp	.LBB12_14
.LBB12_14:                              # %if.end33
	jmp	.LBB12_15
.LBB12_15:                              # %if.end34
	popq	%rbp
	.cfi_def_cfa %rsp, 8
	retq
.Lfunc_end12:
	.size	decide_intrabk_SAD, .Lfunc_end12-decide_intrabk_SAD
	.cfi_endproc
                                        # -- End function
	.globl	skip_intrabk_SAD        # -- Begin function skip_intrabk_SAD
	.p2align	4, 0x90
	.type	skip_intrabk_SAD,@function
skip_intrabk_SAD:                       # @skip_intrabk_SAD
	.cfi_startproc
# %bb.0:                                # %rand_bb
	pushq	%rbp
	.cfi_def_cfa_offset 16
	.cfi_offset %rbp, -16
	movq	%rsp, %rbp
	.cfi_def_cfa_register %rbp
	pushq	%r14
	pushq	%rbx
	.cfi_offset %rbx, -32
	.cfi_offset %r14, -24
	movl	%esi, %r14d
	movl	%edi, %ebx
	callq	get_rand
	cmpl	$0, %eax
	jne	.LBB13_9
# %bb.1:                                # %func_skip_intrabk_SAD.8
	movl	%ebx, %edi
	movl	%r14d, %esi
	callq	skip_intrabk_SAD.8
	popq	%rbx
	popq	%r14
	popq	%rbp
	.cfi_def_cfa %rsp, 8
	retq
.LBB13_2:                               # %func_skip_intrabk_SAD.12
	.cfi_def_cfa %rbp, 16
	movl	%ebx, %edi
	movl	%r14d, %esi
	callq	skip_intrabk_SAD.12
	popq	%rbx
	popq	%r14
	popq	%rbp
	.cfi_def_cfa %rsp, 8
	retq
.LBB13_3:                               # %func_skip_intrabk_SAD.26
	.cfi_def_cfa %rbp, 16
	movl	%ebx, %edi
	movl	%r14d, %esi
	callq	skip_intrabk_SAD.26
	popq	%rbx
	popq	%r14
	popq	%rbp
	.cfi_def_cfa %rsp, 8
	retq
.LBB13_4:                               # %func_skip_intrabk_SAD.35
	.cfi_def_cfa %rbp, 16
	movl	%ebx, %edi
	movl	%r14d, %esi
	callq	skip_intrabk_SAD.35
	popq	%rbx
	popq	%r14
	popq	%rbp
	.cfi_def_cfa %rsp, 8
	retq
.LBB13_5:                               # %func_skip_intrabk_SAD.42
	.cfi_def_cfa %rbp, 16
	movl	%ebx, %edi
	movl	%r14d, %esi
	callq	skip_intrabk_SAD.42
	popq	%rbx
	popq	%r14
	popq	%rbp
	.cfi_def_cfa %rsp, 8
	retq
.LBB13_6:                               # %func_skip_intrabk_SAD.53
	.cfi_def_cfa %rbp, 16
	movl	%ebx, %edi
	movl	%r14d, %esi
	callq	skip_intrabk_SAD.53
	popq	%rbx
	popq	%r14
	popq	%rbp
	.cfi_def_cfa %rsp, 8
	retq
.LBB13_7:                               # %func_skip_intrabk_SAD.57
	.cfi_def_cfa %rbp, 16
	movl	%ebx, %edi
	movl	%r14d, %esi
	callq	skip_intrabk_SAD.57
	popq	%rbx
	popq	%r14
	popq	%rbp
	.cfi_def_cfa %rsp, 8
	retq
.LBB13_8:                               # %func_skip_intrabk_SAD.64
	.cfi_def_cfa %rbp, 16
	movl	%ebx, %edi
	movl	%r14d, %esi
	callq	skip_intrabk_SAD.64
	popq	%rbx
	popq	%r14
	popq	%rbp
	.cfi_def_cfa %rsp, 8
	retq
.LBB13_9:                               # %ctrl0
	.cfi_def_cfa %rbp, 16
	cmpl	$1, %eax
	je	.LBB13_2
# %bb.10:                               # %ctrl1
	cmpl	$2, %eax
	je	.LBB13_3
# %bb.11:                               # %ctrl2
	cmpl	$3, %eax
	je	.LBB13_4
# %bb.12:                               # %ctrl3
	cmpl	$4, %eax
	je	.LBB13_5
# %bb.13:                               # %ctrl4
	cmpl	$5, %eax
	je	.LBB13_6
# %bb.14:                               # %ctrl5
	cmpl	$6, %eax
	je	.LBB13_7
	jmp	.LBB13_8
.Lfunc_end13:
	.size	skip_intrabk_SAD, .Lfunc_end13-skip_intrabk_SAD
	.cfi_endproc
                                        # -- End function
	.section	.rodata.cst8,"aM",@progbits,8
	.p2align	3               # -- Begin function FastIntegerPelBlockMotionSearch.1
.LCPI14_0:
	.quad	4602678819172646912     # double 0.5
.LCPI14_1:
	.quad	4679240012837945344     # double 65536
	.text
	.globl	FastIntegerPelBlockMotionSearch.1
	.p2align	4, 0x90
	.type	FastIntegerPelBlockMotionSearch.1,@function
FastIntegerPelBlockMotionSearch.1:      # @FastIntegerPelBlockMotionSearch.1
	.cfi_startproc
# %bb.0:                                # %entry
	pushq	%rbp
	.cfi_def_cfa_offset 16
	.cfi_offset %rbp, -16
	movq	%rsp, %rbp
	.cfi_def_cfa_register %rbp
	pushq	%rbx
	subq	$200, %rsp
	.cfi_offset %rbx, -24
	movl	56(%rbp), %eax
	movl	48(%rbp), %eax
	movq	40(%rbp), %rax
	movq	32(%rbp), %rax
	movw	24(%rbp), %ax
	movw	16(%rbp), %ax
	movl	$1022571987, -152(%rbp) # imm = 0x3CF335D3
	movq	%rdi, -120(%rbp)
	movw	%si, -46(%rbp)
	movl	%edx, -136(%rbp)
	movl	%ecx, -104(%rbp)
	movl	%r8d, -100(%rbp)
	movl	%r9d, -56(%rbp)
	vmovsd	%xmm0, -168(%rbp)
	movq	img, %rax
	cmpl	$0, 72400(%rax)
	je	.LBB14_3
# %bb.1:                                # %land.lhs.true
	movq	img, %rax
	movq	14168(%rax), %rax
	movq	img, %rcx
	movslq	12(%rcx), %rcx
	imulq	$632, %rcx, %rcx        # imm = 0x278
	addq	%rcx, %rax
	cmpl	$0, 532(%rax)
	je	.LBB14_3
# %bb.2:                                # %cond.true
	movq	img, %rax
	movl	12(%rax), %eax
	cltd
	movl	$2, %ecx
	idivl	%ecx
	cmpl	$0, %edx
	movl	$4, %eax
	cmovnel	%eax, %ecx
	jmp	.LBB14_4
.LBB14_3:                               # %cond.false
	xorl	%ecx, %ecx
	jmp	.LBB14_4
.LBB14_4:                               # %cond.end
	vmovsd	.LCPI14_0(%rip), %xmm0  # xmm0 = mem[0],zero
	vmovsd	.LCPI14_1(%rip), %xmm1  # xmm1 = mem[0],zero
	movl	%ecx, -156(%rbp)
	movl	-136(%rbp), %eax
	addl	-156(%rbp), %eax
	cltq
	movq	listX(,%rax,8), %rax
	movswq	-46(%rbp), %rcx
	movq	(%rax,%rcx,8), %rax
	movq	6432(%rax), %rax
	movq	%rax, -128(%rbp)
	vmulsd	-168(%rbp), %xmm1, %xmm1
	vaddsd	%xmm0, %xmm1, %xmm0
	vcvttsd2si	%xmm0, %eax
	movl	%eax, -92(%rbp)
	movl	$2, -32(%rbp)
	movq	input, %rax
	movslq	-56(%rbp), %rcx
	movl	84(%rax,%rcx,8), %eax
	movl	%eax, -76(%rbp)
	movq	input, %rax
	movslq	-56(%rbp), %rcx
	movl	80(%rax,%rcx,8), %eax
	movl	%eax, -60(%rbp)
	movl	-60(%rbp), %eax
	sarl	$2, %eax
	movl	%eax, -84(%rbp)
	movl	-104(%rbp), %eax
	movl	-32(%rbp), %ecx
                                        # kill: def $cl killed $ecx
	shll	%cl, %eax
	movswl	16(%rbp), %ecx
	addl	%ecx, %eax
	movl	%eax, -96(%rbp)
	movl	-100(%rbp), %eax
	movl	-32(%rbp), %ecx
                                        # kill: def $cl killed $ecx
	shll	%cl, %eax
	movswl	24(%rbp), %ecx
	addl	%ecx, %eax
	movl	%eax, -88(%rbp)
	movl	-104(%rbp), %eax
	movq	32(%rbp), %rcx
	movswl	(%rcx), %ecx
	addl	%ecx, %eax
	movl	%eax, -24(%rbp)
	movl	-100(%rbp), %eax
	movq	40(%rbp), %rcx
	movswl	(%rcx), %ecx
	addl	%ecx, %eax
	movl	%eax, -28(%rbp)
	movl	$0, -40(%rbp)
	movl	$0, -44(%rbp)
	movq	input, %rax
	movl	1236(%rax), %eax
	movl	%eax, -160(%rbp)
	movq	img, %rax
	cmpl	$0, 72400(%rax)
	je	.LBB14_7
# %bb.5:                                # %land.lhs.true28
	movq	img, %rax
	movq	14168(%rax), %rax
	movq	img, %rcx
	movslq	12(%rcx), %rcx
	imulq	$632, %rcx, %rcx        # imm = 0x278
	addq	%rcx, %rax
	cmpl	$0, 532(%rax)
	je	.LBB14_7
# %bb.6:                                # %cond.true35
	movq	img, %rax
	movl	60(%rax), %eax
	cltd
	movl	$2, %ecx
	idivl	%ecx
	jmp	.LBB14_8
.LBB14_7:                               # %cond.false37
	movq	img, %rax
	movl	60(%rax), %eax
.LBB14_8:                               # %cond.end39
	movl	%eax, -148(%rbp)
	movl	-24(%rbp), %eax
	cmpl	48(%rbp), %eax
	jle	.LBB14_13
# %bb.9:                                # %land.lhs.true42
	movl	-24(%rbp), %eax
	movq	img, %rcx
	movl	52(%rcx), %ecx
	subl	$1, %ecx
	subl	48(%rbp), %ecx
	subl	-60(%rbp), %ecx
	cmpl	%ecx, %eax
	jge	.LBB14_13
# %bb.10:                               # %land.lhs.true47
	movl	-28(%rbp), %eax
	cmpl	48(%rbp), %eax
	jle	.LBB14_13
# %bb.11:                               # %land.lhs.true50
	movl	-28(%rbp), %eax
	movl	-148(%rbp), %ecx
	subl	$1, %ecx
	subl	48(%rbp), %ecx
	subl	-76(%rbp), %ecx
	cmpl	%ecx, %eax
	jge	.LBB14_13
# %bb.12:                               # %if.then
	movabsq	$FastLineX, %rax
	movq	%rax, -112(%rbp)
	jmp	.LBB14_14
.LBB14_13:                              # %if.else
	movabsq	$UMVLineX, %rax
	movq	%rax, -112(%rbp)
.LBB14_14:                              # %if.end
	movq	McostState, %rax
	movq	(%rax), %rdi
	movl	48(%rbp), %eax
	shll	$1, %eax
	addl	$1, %eax
	movl	48(%rbp), %ecx
	shll	$1, %ecx
	addl	$1, %ecx
	imull	%ecx, %eax
	shll	$2, %eax
	movslq	%eax, %rdx
	xorl	%esi, %esi
	callq	memset
	movswl	-46(%rbp), %eax
	cmpl	$0, %eax
	jle	.LBB14_19
# %bb.15:                               # %if.then67
	cmpl	$0, pred_SAD_ref
	je	.LBB14_17
# %bb.16:                               # %if.then70
	movslq	-56(%rbp), %rax
	vmovss	Bsize(,%rax,4), %xmm0   # xmm0 = mem[0],zero,zero,zero
	movl	pred_SAD_ref, %eax
	imull	pred_SAD_ref, %eax
	vcvtsi2ss	%eax, %xmm0, %xmm1
	vdivss	%xmm1, %xmm0, %xmm0
	movslq	-56(%rbp), %rax
	vsubss	AlphaSec(,%rax,4), %xmm0, %xmm0
	vmovss	%xmm0, -80(%rbp)
	movslq	-56(%rbp), %rax
	vmovss	Bsize(,%rax,4), %xmm0   # xmm0 = mem[0],zero,zero,zero
	movl	pred_SAD_ref, %eax
	imull	pred_SAD_ref, %eax
	vcvtsi2ss	%eax, %xmm0, %xmm1
	vdivss	%xmm1, %xmm0, %xmm0
	movslq	-56(%rbp), %rax
	vsubss	AlphaThird(,%rax,4), %xmm0, %xmm0
	vmovss	%xmm0, -72(%rbp)
	jmp	.LBB14_18
.LBB14_17:                              # %if.else87
	vxorps	%xmm0, %xmm0, %xmm0
	vmovss	%xmm0, -80(%rbp)
	vmovss	%xmm0, -72(%rbp)
.LBB14_18:                              # %if.end88
	jmp	.LBB14_29
.LBB14_19:                              # %if.else89
	cmpl	$1, -56(%rbp)
	jne	.LBB14_24
# %bb.20:                               # %if.then92
	cmpl	$0, pred_SAD_space
	je	.LBB14_22
# %bb.21:                               # %if.then95
	movslq	-56(%rbp), %rax
	vmovss	Bsize(,%rax,4), %xmm0   # xmm0 = mem[0],zero,zero,zero
	movl	pred_SAD_space, %eax
	imull	pred_SAD_space, %eax
	vcvtsi2ss	%eax, %xmm0, %xmm1
	vdivss	%xmm1, %xmm0, %xmm0
	movslq	-56(%rbp), %rax
	vsubss	AlphaSec(,%rax,4), %xmm0, %xmm0
	vmovss	%xmm0, -80(%rbp)
	movslq	-56(%rbp), %rax
	vmovss	Bsize(,%rax,4), %xmm0   # xmm0 = mem[0],zero,zero,zero
	movl	pred_SAD_space, %eax
	imull	pred_SAD_space, %eax
	vcvtsi2ss	%eax, %xmm0, %xmm1
	vdivss	%xmm1, %xmm0, %xmm0
	movslq	-56(%rbp), %rax
	vsubss	AlphaThird(,%rax,4), %xmm0, %xmm0
	vmovss	%xmm0, -72(%rbp)
	jmp	.LBB14_23
.LBB14_22:                              # %if.else112
	vxorps	%xmm0, %xmm0, %xmm0
	vmovss	%xmm0, -80(%rbp)
	vmovss	%xmm0, -72(%rbp)
.LBB14_23:                              # %if.end113
	jmp	.LBB14_28
.LBB14_24:                              # %if.else114
	cmpl	$0, pred_SAD_uplayer
	je	.LBB14_26
# %bb.25:                               # %if.then117
	movslq	-56(%rbp), %rax
	vmovss	Bsize(,%rax,4), %xmm0   # xmm0 = mem[0],zero,zero,zero
	movl	pred_SAD_uplayer, %eax
	imull	pred_SAD_uplayer, %eax
	vcvtsi2ss	%eax, %xmm0, %xmm1
	vdivss	%xmm1, %xmm0, %xmm0
	movslq	-56(%rbp), %rax
	vsubss	AlphaSec(,%rax,4), %xmm0, %xmm0
	vmovss	%xmm0, -80(%rbp)
	movslq	-56(%rbp), %rax
	vmovss	Bsize(,%rax,4), %xmm0   # xmm0 = mem[0],zero,zero,zero
	movl	pred_SAD_uplayer, %eax
	imull	pred_SAD_uplayer, %eax
	vcvtsi2ss	%eax, %xmm0, %xmm1
	vdivss	%xmm1, %xmm0, %xmm0
	movslq	-56(%rbp), %rax
	vsubss	AlphaThird(,%rax,4), %xmm0, %xmm0
	vmovss	%xmm0, -72(%rbp)
	jmp	.LBB14_27
.LBB14_26:                              # %if.else134
	vxorps	%xmm0, %xmm0, %xmm0
	vmovss	%xmm0, -80(%rbp)
	vmovss	%xmm0, -72(%rbp)
.LBB14_27:                              # %if.end135
	jmp	.LBB14_28
.LBB14_28:                              # %if.end136
	jmp	.LBB14_29
.LBB14_29:                              # %if.end137
	movl	-24(%rbp), %eax
	movl	%eax, -12(%rbp)
	movl	-28(%rbp), %eax
	movl	%eax, -16(%rbp)
	movl	-92(%rbp), %eax
	movq	mvbits, %rdx
	movl	-12(%rbp), %esi
	movl	-32(%rbp), %ecx
                                        # kill: def $cl killed $ecx
	shll	%cl, %esi
	subl	-96(%rbp), %esi
	movslq	%esi, %rcx
	movl	(%rdx,%rcx,4), %edx
	movq	mvbits, %rsi
	movl	-16(%rbp), %edi
	movl	-32(%rbp), %ecx
                                        # kill: def $cl killed $ecx
	shll	%cl, %edi
	subl	-88(%rbp), %edi
	movslq	%edi, %rcx
	addl	(%rsi,%rcx,4), %edx
	imull	%edx, %eax
	sarl	$16, %eax
	movl	%eax, -20(%rbp)
	movq	-128(%rbp), %rdi
	movq	-120(%rbp), %rsi
	movq	-112(%rbp), %rdx
	movl	-76(%rbp), %ecx
	movl	-60(%rbp), %r8d
	movl	-84(%rbp), %r9d
	movl	-20(%rbp), %eax
	movl	56(%rbp), %ebx
	movl	-12(%rbp), %r10d
	movl	-16(%rbp), %r11d
	movl	%eax, (%rsp)
	movl	%ebx, 8(%rsp)
	movl	%r10d, 16(%rsp)
	movl	%r11d, 24(%rsp)
	callq	PartCalMad
	movl	%eax, -20(%rbp)
	movl	-20(%rbp), %eax
	movq	McostState, %rcx
	movslq	48(%rbp), %rdx
	movq	(%rcx,%rdx,8), %rcx
	movslq	48(%rbp), %rdx
	movl	%eax, (%rcx,%rdx,4)
	movl	-20(%rbp), %eax
	cmpl	56(%rbp), %eax
	jge	.LBB14_31
# %bb.30:                               # %if.then155
	movl	-20(%rbp), %eax
	movl	%eax, 56(%rbp)
	movl	-12(%rbp), %eax
	movl	%eax, -40(%rbp)
	movl	-16(%rbp), %eax
	movl	%eax, -44(%rbp)
.LBB14_31:                              # %if.end156
	movl	-40(%rbp), %eax
	movl	%eax, -64(%rbp)
	movl	-44(%rbp), %eax
	movl	%eax, -68(%rbp)
	movl	$0, -36(%rbp)
.LBB14_32:                              # %for.cond
                                        # =>This Inner Loop Header: Depth=1
	cmpl	$4, -36(%rbp)
	jge	.LBB14_42
# %bb.33:                               # %for.body
                                        #   in Loop: Header=BB14_32 Depth=1
	movl	-64(%rbp), %eax
	movslq	-36(%rbp), %rcx
	addl	FastIntegerPelBlockMotionSearch.Diamond_x(,%rcx,4), %eax
	movl	%eax, -12(%rbp)
	movl	-68(%rbp), %eax
	movslq	-36(%rbp), %rcx
	addl	FastIntegerPelBlockMotionSearch.Diamond_y(,%rcx,4), %eax
	movl	%eax, -16(%rbp)
	movl	-12(%rbp), %edi
	subl	-24(%rbp), %edi
	callq	abs
	cmpl	48(%rbp), %eax
	jg	.LBB14_40
# %bb.34:                               # %land.lhs.true169
                                        #   in Loop: Header=BB14_32 Depth=1
	movl	-16(%rbp), %edi
	subl	-28(%rbp), %edi
	callq	abs
	cmpl	48(%rbp), %eax
	jg	.LBB14_40
# %bb.35:                               # %if.then174
                                        #   in Loop: Header=BB14_32 Depth=1
	movq	McostState, %rax
	movl	-16(%rbp), %ecx
	subl	-28(%rbp), %ecx
	addl	48(%rbp), %ecx
	movslq	%ecx, %rcx
	movq	(%rax,%rcx,8), %rax
	movl	-12(%rbp), %ecx
	subl	-24(%rbp), %ecx
	addl	48(%rbp), %ecx
	movslq	%ecx, %rcx
	cmpl	$0, (%rax,%rcx,4)
	jne	.LBB14_39
# %bb.36:                               # %if.then184
                                        #   in Loop: Header=BB14_32 Depth=1
	movl	-92(%rbp), %eax
	movq	mvbits, %rdx
	movl	-12(%rbp), %esi
	movl	-32(%rbp), %ecx
                                        # kill: def $cl killed $ecx
	shll	%cl, %esi
	subl	-96(%rbp), %esi
	movslq	%esi, %rcx
	movl	(%rdx,%rcx,4), %edx
	movq	mvbits, %rsi
	movl	-16(%rbp), %edi
	movl	-32(%rbp), %ecx
                                        # kill: def $cl killed $ecx
	shll	%cl, %edi
	subl	-88(%rbp), %edi
	movslq	%edi, %rcx
	addl	(%rsi,%rcx,4), %edx
	imull	%edx, %eax
	sarl	$16, %eax
	movl	%eax, -20(%rbp)
	movq	-128(%rbp), %rdi
	movq	-120(%rbp), %rsi
	movq	-112(%rbp), %rdx
	movl	-76(%rbp), %ecx
	movl	-60(%rbp), %r8d
	movl	-84(%rbp), %r9d
	movl	-20(%rbp), %eax
	movl	56(%rbp), %ebx
	movl	-12(%rbp), %r10d
	movl	-16(%rbp), %r11d
	movl	%eax, (%rsp)
	movl	%ebx, 8(%rsp)
	movl	%r10d, 16(%rsp)
	movl	%r11d, 24(%rsp)
	callq	PartCalMad
	movl	%eax, -20(%rbp)
	movl	-20(%rbp), %eax
	movq	McostState, %rcx
	movl	-16(%rbp), %edx
	subl	-28(%rbp), %edx
	addl	48(%rbp), %edx
	movslq	%edx, %rdx
	movq	(%rcx,%rdx,8), %rcx
	movl	-12(%rbp), %edx
	subl	-24(%rbp), %edx
	addl	48(%rbp), %edx
	movslq	%edx, %rdx
	movl	%eax, (%rcx,%rdx,4)
	movl	-20(%rbp), %eax
	cmpl	56(%rbp), %eax
	jge	.LBB14_38
# %bb.37:                               # %if.then207
                                        #   in Loop: Header=BB14_32 Depth=1
	movl	-12(%rbp), %eax
	movl	%eax, -40(%rbp)
	movl	-16(%rbp), %eax
	movl	%eax, -44(%rbp)
	movl	-20(%rbp), %eax
	movl	%eax, 56(%rbp)
.LBB14_38:                              # %if.end208
                                        #   in Loop: Header=BB14_32 Depth=1
	jmp	.LBB14_39
.LBB14_39:                              # %if.end209
                                        #   in Loop: Header=BB14_32 Depth=1
	jmp	.LBB14_40
.LBB14_40:                              # %if.end210
                                        #   in Loop: Header=BB14_32 Depth=1
	jmp	.LBB14_41
.LBB14_41:                              # %for.inc
                                        #   in Loop: Header=BB14_32 Depth=1
	movl	-36(%rbp), %eax
	addl	$1, %eax
	movl	%eax, -36(%rbp)
	jmp	.LBB14_32
.LBB14_42:                              # %for.end
	movl	-24(%rbp), %eax
	cmpl	-104(%rbp), %eax
	jne	.LBB14_44
# %bb.43:                               # %lor.lhs.false
	movl	-28(%rbp), %eax
	cmpl	-100(%rbp), %eax
	je	.LBB14_63
.LBB14_44:                              # %if.then215
	movl	-104(%rbp), %eax
	movl	%eax, -12(%rbp)
	movl	-100(%rbp), %eax
	movl	%eax, -16(%rbp)
	movl	-12(%rbp), %edi
	subl	-24(%rbp), %edi
	callq	abs
	cmpl	48(%rbp), %eax
	jg	.LBB14_51
# %bb.45:                               # %land.lhs.true220
	movl	-16(%rbp), %edi
	subl	-28(%rbp), %edi
	callq	abs
	cmpl	48(%rbp), %eax
	jg	.LBB14_51
# %bb.46:                               # %if.then225
	movq	McostState, %rax
	movl	-16(%rbp), %ecx
	subl	-28(%rbp), %ecx
	addl	48(%rbp), %ecx
	movslq	%ecx, %rcx
	movq	(%rax,%rcx,8), %rax
	movl	-12(%rbp), %ecx
	subl	-24(%rbp), %ecx
	addl	48(%rbp), %ecx
	movslq	%ecx, %rcx
	cmpl	$0, (%rax,%rcx,4)
	jne	.LBB14_50
# %bb.47:                               # %if.then235
	movl	-92(%rbp), %eax
	movq	mvbits, %rdx
	movl	-12(%rbp), %esi
	movl	-32(%rbp), %ecx
                                        # kill: def $cl killed $ecx
	shll	%cl, %esi
	subl	-96(%rbp), %esi
	movslq	%esi, %rcx
	movl	(%rdx,%rcx,4), %edx
	movq	mvbits, %rsi
	movl	-16(%rbp), %edi
	movl	-32(%rbp), %ecx
                                        # kill: def $cl killed $ecx
	shll	%cl, %edi
	subl	-88(%rbp), %edi
	movslq	%edi, %rcx
	addl	(%rsi,%rcx,4), %edx
	imull	%edx, %eax
	sarl	$16, %eax
	movl	%eax, -20(%rbp)
	movq	-128(%rbp), %rdi
	movq	-120(%rbp), %rsi
	movq	-112(%rbp), %rdx
	movl	-76(%rbp), %ecx
	movl	-60(%rbp), %r8d
	movl	-84(%rbp), %r9d
	movl	-20(%rbp), %eax
	movl	56(%rbp), %ebx
	movl	-12(%rbp), %r10d
	movl	-16(%rbp), %r11d
	movl	%eax, (%rsp)
	movl	%ebx, 8(%rsp)
	movl	%r10d, 16(%rsp)
	movl	%r11d, 24(%rsp)
	callq	PartCalMad
	movl	%eax, -20(%rbp)
	movl	-20(%rbp), %eax
	movq	McostState, %rcx
	movl	-16(%rbp), %edx
	subl	-28(%rbp), %edx
	addl	48(%rbp), %edx
	movslq	%edx, %rdx
	movq	(%rcx,%rdx,8), %rcx
	movl	-12(%rbp), %edx
	subl	-24(%rbp), %edx
	addl	48(%rbp), %edx
	movslq	%edx, %rdx
	movl	%eax, (%rcx,%rdx,4)
	movl	-20(%rbp), %eax
	cmpl	56(%rbp), %eax
	jge	.LBB14_49
# %bb.48:                               # %if.then258
	movl	-12(%rbp), %eax
	movl	%eax, -40(%rbp)
	movl	-16(%rbp), %eax
	movl	%eax, -44(%rbp)
	movl	-20(%rbp), %eax
	movl	%eax, 56(%rbp)
.LBB14_49:                              # %if.end259
	jmp	.LBB14_50
.LBB14_50:                              # %if.end260
	jmp	.LBB14_51
.LBB14_51:                              # %if.end261
	movl	-40(%rbp), %eax
	movl	%eax, -64(%rbp)
	movl	-44(%rbp), %eax
	movl	%eax, -68(%rbp)
	movl	$0, -36(%rbp)
.LBB14_52:                              # %for.cond262
                                        # =>This Inner Loop Header: Depth=1
	cmpl	$4, -36(%rbp)
	jge	.LBB14_62
# %bb.53:                               # %for.body265
                                        #   in Loop: Header=BB14_52 Depth=1
	movl	-64(%rbp), %eax
	movslq	-36(%rbp), %rcx
	addl	FastIntegerPelBlockMotionSearch.Diamond_x(,%rcx,4), %eax
	movl	%eax, -12(%rbp)
	movl	-68(%rbp), %eax
	movslq	-36(%rbp), %rcx
	addl	FastIntegerPelBlockMotionSearch.Diamond_y(,%rcx,4), %eax
	movl	%eax, -16(%rbp)
	movl	-12(%rbp), %edi
	subl	-24(%rbp), %edi
	callq	abs
	cmpl	48(%rbp), %eax
	jg	.LBB14_60
# %bb.54:                               # %land.lhs.true276
                                        #   in Loop: Header=BB14_52 Depth=1
	movl	-16(%rbp), %edi
	subl	-28(%rbp), %edi
	callq	abs
	cmpl	48(%rbp), %eax
	jg	.LBB14_60
# %bb.55:                               # %if.then281
                                        #   in Loop: Header=BB14_52 Depth=1
	movq	McostState, %rax
	movl	-16(%rbp), %ecx
	subl	-28(%rbp), %ecx
	addl	48(%rbp), %ecx
	movslq	%ecx, %rcx
	movq	(%rax,%rcx,8), %rax
	movl	-12(%rbp), %ecx
	subl	-24(%rbp), %ecx
	addl	48(%rbp), %ecx
	movslq	%ecx, %rcx
	cmpl	$0, (%rax,%rcx,4)
	jne	.LBB14_59
# %bb.56:                               # %if.then291
                                        #   in Loop: Header=BB14_52 Depth=1
	movl	-92(%rbp), %eax
	movq	mvbits, %rdx
	movl	-12(%rbp), %esi
	movl	-32(%rbp), %ecx
                                        # kill: def $cl killed $ecx
	shll	%cl, %esi
	subl	-96(%rbp), %esi
	movslq	%esi, %rcx
	movl	(%rdx,%rcx,4), %edx
	movq	mvbits, %rsi
	movl	-16(%rbp), %edi
	movl	-32(%rbp), %ecx
                                        # kill: def $cl killed $ecx
	shll	%cl, %edi
	subl	-88(%rbp), %edi
	movslq	%edi, %rcx
	addl	(%rsi,%rcx,4), %edx
	imull	%edx, %eax
	sarl	$16, %eax
	movl	%eax, -20(%rbp)
	movq	-128(%rbp), %rdi
	movq	-120(%rbp), %rsi
	movq	-112(%rbp), %rdx
	movl	-76(%rbp), %ecx
	movl	-60(%rbp), %r8d
	movl	-84(%rbp), %r9d
	movl	-20(%rbp), %eax
	movl	56(%rbp), %ebx
	movl	-12(%rbp), %r10d
	movl	-16(%rbp), %r11d
	movl	%eax, (%rsp)
	movl	%ebx, 8(%rsp)
	movl	%r10d, 16(%rsp)
	movl	%r11d, 24(%rsp)
	callq	PartCalMad
	movl	%eax, -20(%rbp)
	movl	-20(%rbp), %eax
	movq	McostState, %rcx
	movl	-16(%rbp), %edx
	subl	-28(%rbp), %edx
	addl	48(%rbp), %edx
	movslq	%edx, %rdx
	movq	(%rcx,%rdx,8), %rcx
	movl	-12(%rbp), %edx
	subl	-24(%rbp), %edx
	addl	48(%rbp), %edx
	movslq	%edx, %rdx
	movl	%eax, (%rcx,%rdx,4)
	movl	-20(%rbp), %eax
	cmpl	56(%rbp), %eax
	jge	.LBB14_58
# %bb.57:                               # %if.then314
                                        #   in Loop: Header=BB14_52 Depth=1
	movl	-12(%rbp), %eax
	movl	%eax, -40(%rbp)
	movl	-16(%rbp), %eax
	movl	%eax, -44(%rbp)
	movl	-20(%rbp), %eax
	movl	%eax, 56(%rbp)
.LBB14_58:                              # %if.end315
                                        #   in Loop: Header=BB14_52 Depth=1
	jmp	.LBB14_59
.LBB14_59:                              # %if.end316
                                        #   in Loop: Header=BB14_52 Depth=1
	jmp	.LBB14_60
.LBB14_60:                              # %if.end317
                                        #   in Loop: Header=BB14_52 Depth=1
	jmp	.LBB14_61
.LBB14_61:                              # %for.inc318
                                        #   in Loop: Header=BB14_52 Depth=1
	movl	-36(%rbp), %eax
	addl	$1, %eax
	movl	%eax, -36(%rbp)
	jmp	.LBB14_52
.LBB14_62:                              # %for.end320
	jmp	.LBB14_63
.LBB14_63:                              # %if.end321
	cmpl	$1, -56(%rbp)
	jle	.LBB14_77
# %bb.64:                               # %if.then324
	movl	-104(%rbp), %ecx
	movl	pred_MV_uplayer, %eax
	cltd
	movl	$4, %esi
	idivl	%esi
	addl	%eax, %ecx
	movl	%ecx, -12(%rbp)
	movl	-100(%rbp), %ecx
	movl	pred_MV_uplayer+4, %eax
	cltd
	idivl	%esi
	addl	%eax, %ecx
	movl	%ecx, -16(%rbp)
	movl	-12(%rbp), %edi
	subl	-24(%rbp), %edi
	callq	abs
	cmpl	48(%rbp), %eax
	jg	.LBB14_71
# %bb.65:                               # %land.lhs.true333
	movl	-16(%rbp), %edi
	subl	-28(%rbp), %edi
	callq	abs
	cmpl	48(%rbp), %eax
	jg	.LBB14_71
# %bb.66:                               # %if.then338
	movq	McostState, %rax
	movl	-16(%rbp), %ecx
	subl	-28(%rbp), %ecx
	addl	48(%rbp), %ecx
	movslq	%ecx, %rcx
	movq	(%rax,%rcx,8), %rax
	movl	-12(%rbp), %ecx
	subl	-24(%rbp), %ecx
	addl	48(%rbp), %ecx
	movslq	%ecx, %rcx
	cmpl	$0, (%rax,%rcx,4)
	jne	.LBB14_70
# %bb.67:                               # %if.then348
	movl	-92(%rbp), %eax
	movq	mvbits, %rdx
	movl	-12(%rbp), %esi
	movl	-32(%rbp), %ecx
                                        # kill: def $cl killed $ecx
	shll	%cl, %esi
	subl	-96(%rbp), %esi
	movslq	%esi, %rcx
	movl	(%rdx,%rcx,4), %edx
	movq	mvbits, %rsi
	movl	-16(%rbp), %edi
	movl	-32(%rbp), %ecx
                                        # kill: def $cl killed $ecx
	shll	%cl, %edi
	subl	-88(%rbp), %edi
	movslq	%edi, %rcx
	addl	(%rsi,%rcx,4), %edx
	imull	%edx, %eax
	sarl	$16, %eax
	movl	%eax, -20(%rbp)
	movq	-128(%rbp), %rdi
	movq	-120(%rbp), %rsi
	movq	-112(%rbp), %rdx
	movl	-76(%rbp), %ecx
	movl	-60(%rbp), %r8d
	movl	-84(%rbp), %r9d
	movl	-20(%rbp), %eax
	movl	56(%rbp), %ebx
	movl	-12(%rbp), %r10d
	movl	-16(%rbp), %r11d
	movl	%eax, (%rsp)
	movl	%ebx, 8(%rsp)
	movl	%r10d, 16(%rsp)
	movl	%r11d, 24(%rsp)
	callq	PartCalMad
	movl	%eax, -20(%rbp)
	movl	-20(%rbp), %eax
	movq	McostState, %rcx
	movl	-16(%rbp), %edx
	subl	-28(%rbp), %edx
	addl	48(%rbp), %edx
	movslq	%edx, %rdx
	movq	(%rcx,%rdx,8), %rcx
	movl	-12(%rbp), %edx
	subl	-24(%rbp), %edx
	addl	48(%rbp), %edx
	movslq	%edx, %rdx
	movl	%eax, (%rcx,%rdx,4)
	movl	-20(%rbp), %eax
	cmpl	56(%rbp), %eax
	jge	.LBB14_69
# %bb.68:                               # %if.then371
	movl	-12(%rbp), %eax
	movl	%eax, -40(%rbp)
	movl	-16(%rbp), %eax
	movl	%eax, -44(%rbp)
	movl	-20(%rbp), %eax
	movl	%eax, 56(%rbp)
.LBB14_69:                              # %if.end372
	jmp	.LBB14_70
.LBB14_70:                              # %if.end373
	jmp	.LBB14_71
.LBB14_71:                              # %if.end374
	movl	56(%rbp), %eax
	subl	pred_SAD_uplayer, %eax
	vcvtsi2ss	%eax, %xmm0, %xmm0
	vcvtsi2ssl	pred_SAD_uplayer, %xmm0, %xmm1
	vmulss	-72(%rbp), %xmm1, %xmm1
	vucomiss	%xmm0, %xmm1
	jbe	.LBB14_73
# %bb.72:                               # %if.then381
	jmp	.LBB14_301
.LBB14_73:                              # %if.else382
	movl	56(%rbp), %eax
	subl	pred_SAD_uplayer, %eax
	vcvtsi2ss	%eax, %xmm0, %xmm0
	vcvtsi2ssl	pred_SAD_uplayer, %xmm0, %xmm1
	vmulss	-80(%rbp), %xmm1, %xmm1
	vucomiss	%xmm0, %xmm1
	jbe	.LBB14_75
# %bb.74:                               # %if.then389
	jmp	.LBB14_282
.LBB14_75:                              # %if.end390
	jmp	.LBB14_76
.LBB14_76:                              # %if.end391
	jmp	.LBB14_77
.LBB14_77:                              # %if.end392
	movq	img, %rax
	movl	(%rax), %eax
	movswl	-46(%rbp), %ecx
	addl	$1, %ecx
	cmpl	%ecx, %eax
	jle	.LBB14_79
# %bb.78:                               # %land.lhs.true397
	movswl	-46(%rbp), %eax
	cmpl	$-1, %eax
	jne	.LBB14_81
.LBB14_79:                              # %lor.lhs.false401
	cmpl	$1, -136(%rbp)
	jne	.LBB14_89
# %bb.80:                               # %land.lhs.true404
	movl	Bframe_ctr, %eax
	cltd
	idivl	-160(%rbp)
	cmpl	$1, %edx
	jle	.LBB14_89
.LBB14_81:                              # %if.then408
	movl	-104(%rbp), %ecx
	movl	pred_MV_time, %eax
	cltd
	movl	$4, %esi
	idivl	%esi
	addl	%eax, %ecx
	movl	%ecx, -12(%rbp)
	movl	-100(%rbp), %ecx
	movl	pred_MV_time+4, %eax
	cltd
	idivl	%esi
	addl	%eax, %ecx
	movl	%ecx, -16(%rbp)
	movl	-12(%rbp), %edi
	subl	-24(%rbp), %edi
	callq	abs
	cmpl	48(%rbp), %eax
	jg	.LBB14_88
# %bb.82:                               # %land.lhs.true417
	movl	-16(%rbp), %edi
	subl	-28(%rbp), %edi
	callq	abs
	cmpl	48(%rbp), %eax
	jg	.LBB14_88
# %bb.83:                               # %if.then422
	movq	McostState, %rax
	movl	-16(%rbp), %ecx
	subl	-28(%rbp), %ecx
	addl	48(%rbp), %ecx
	movslq	%ecx, %rcx
	movq	(%rax,%rcx,8), %rax
	movl	-12(%rbp), %ecx
	subl	-24(%rbp), %ecx
	addl	48(%rbp), %ecx
	movslq	%ecx, %rcx
	cmpl	$0, (%rax,%rcx,4)
	jne	.LBB14_87
# %bb.84:                               # %if.then432
	movl	-92(%rbp), %eax
	movq	mvbits, %rdx
	movl	-12(%rbp), %esi
	movl	-32(%rbp), %ecx
                                        # kill: def $cl killed $ecx
	shll	%cl, %esi
	subl	-96(%rbp), %esi
	movslq	%esi, %rcx
	movl	(%rdx,%rcx,4), %edx
	movq	mvbits, %rsi
	movl	-16(%rbp), %edi
	movl	-32(%rbp), %ecx
                                        # kill: def $cl killed $ecx
	shll	%cl, %edi
	subl	-88(%rbp), %edi
	movslq	%edi, %rcx
	addl	(%rsi,%rcx,4), %edx
	imull	%edx, %eax
	sarl	$16, %eax
	movl	%eax, -20(%rbp)
	movq	-128(%rbp), %rdi
	movq	-120(%rbp), %rsi
	movq	-112(%rbp), %rdx
	movl	-76(%rbp), %ecx
	movl	-60(%rbp), %r8d
	movl	-84(%rbp), %r9d
	movl	-20(%rbp), %eax
	movl	56(%rbp), %ebx
	movl	-12(%rbp), %r10d
	movl	-16(%rbp), %r11d
	movl	%eax, (%rsp)
	movl	%ebx, 8(%rsp)
	movl	%r10d, 16(%rsp)
	movl	%r11d, 24(%rsp)
	callq	PartCalMad
	movl	%eax, -20(%rbp)
	movl	-20(%rbp), %eax
	movq	McostState, %rcx
	movl	-16(%rbp), %edx
	subl	-28(%rbp), %edx
	addl	48(%rbp), %edx
	movslq	%edx, %rdx
	movq	(%rcx,%rdx,8), %rcx
	movl	-12(%rbp), %edx
	subl	-24(%rbp), %edx
	addl	48(%rbp), %edx
	movslq	%edx, %rdx
	movl	%eax, (%rcx,%rdx,4)
	movl	-20(%rbp), %eax
	cmpl	56(%rbp), %eax
	jge	.LBB14_86
# %bb.85:                               # %if.then455
	movl	-12(%rbp), %eax
	movl	%eax, -40(%rbp)
	movl	-16(%rbp), %eax
	movl	%eax, -44(%rbp)
	movl	-20(%rbp), %eax
	movl	%eax, 56(%rbp)
.LBB14_86:                              # %if.end456
	jmp	.LBB14_87
.LBB14_87:                              # %if.end457
	jmp	.LBB14_88
.LBB14_88:                              # %if.end458
	jmp	.LBB14_89
.LBB14_89:                              # %if.end459
	movq	input, %rax
	cmpl	$1, 2880(%rax)
	jne	.LBB14_105
# %bb.90:                               # %if.then462
	cmpl	$0, -136(%rbp)
	jne	.LBB14_92
# %bb.91:                               # %land.lhs.true465
	movswl	-46(%rbp), %eax
	cmpl	$0, %eax
	jg	.LBB14_96
.LBB14_92:                              # %lor.lhs.false469
	movq	img, %rax
	cmpl	$1, 24(%rax)
	jne	.LBB14_104
# %bb.93:                               # %land.lhs.true472
	cmpl	$0, -136(%rbp)
	jne	.LBB14_104
# %bb.94:                               # %land.lhs.true475
	movswl	-46(%rbp), %eax
	cmpl	$0, %eax
	je	.LBB14_96
# %bb.95:                               # %lor.lhs.false479
	movswl	-46(%rbp), %eax
	cmpl	$2, %eax
	jne	.LBB14_104
.LBB14_96:                              # %if.then483
	movl	-104(%rbp), %ecx
	movl	pred_MV_ref, %eax
	cltd
	movl	$4, %esi
	idivl	%esi
	addl	%eax, %ecx
	movl	%ecx, -12(%rbp)
	movl	-100(%rbp), %ecx
	movl	pred_MV_ref+4, %eax
	cltd
	idivl	%esi
	addl	%eax, %ecx
	movl	%ecx, -16(%rbp)
	movl	-12(%rbp), %edi
	subl	-24(%rbp), %edi
	callq	abs
	cmpl	48(%rbp), %eax
	jg	.LBB14_103
# %bb.97:                               # %land.lhs.true492
	movl	-16(%rbp), %edi
	subl	-28(%rbp), %edi
	callq	abs
	cmpl	48(%rbp), %eax
	jg	.LBB14_103
# %bb.98:                               # %if.then497
	movq	McostState, %rax
	movl	-16(%rbp), %ecx
	subl	-28(%rbp), %ecx
	addl	48(%rbp), %ecx
	movslq	%ecx, %rcx
	movq	(%rax,%rcx,8), %rax
	movl	-12(%rbp), %ecx
	subl	-24(%rbp), %ecx
	addl	48(%rbp), %ecx
	movslq	%ecx, %rcx
	cmpl	$0, (%rax,%rcx,4)
	jne	.LBB14_102
# %bb.99:                               # %if.then507
	movl	-92(%rbp), %eax
	movq	mvbits, %rdx
	movl	-12(%rbp), %esi
	movl	-32(%rbp), %ecx
                                        # kill: def $cl killed $ecx
	shll	%cl, %esi
	subl	-96(%rbp), %esi
	movslq	%esi, %rcx
	movl	(%rdx,%rcx,4), %edx
	movq	mvbits, %rsi
	movl	-16(%rbp), %edi
	movl	-32(%rbp), %ecx
                                        # kill: def $cl killed $ecx
	shll	%cl, %edi
	subl	-88(%rbp), %edi
	movslq	%edi, %rcx
	addl	(%rsi,%rcx,4), %edx
	imull	%edx, %eax
	sarl	$16, %eax
	movl	%eax, -20(%rbp)
	movq	-128(%rbp), %rdi
	movq	-120(%rbp), %rsi
	movq	-112(%rbp), %rdx
	movl	-76(%rbp), %ecx
	movl	-60(%rbp), %r8d
	movl	-84(%rbp), %r9d
	movl	-20(%rbp), %eax
	movl	56(%rbp), %ebx
	movl	-12(%rbp), %r10d
	movl	-16(%rbp), %r11d
	movl	%eax, (%rsp)
	movl	%ebx, 8(%rsp)
	movl	%r10d, 16(%rsp)
	movl	%r11d, 24(%rsp)
	callq	PartCalMad
	movl	%eax, -20(%rbp)
	movl	-20(%rbp), %eax
	movq	McostState, %rcx
	movl	-16(%rbp), %edx
	subl	-28(%rbp), %edx
	addl	48(%rbp), %edx
	movslq	%edx, %rdx
	movq	(%rcx,%rdx,8), %rcx
	movl	-12(%rbp), %edx
	subl	-24(%rbp), %edx
	addl	48(%rbp), %edx
	movslq	%edx, %rdx
	movl	%eax, (%rcx,%rdx,4)
	movl	-20(%rbp), %eax
	cmpl	56(%rbp), %eax
	jge	.LBB14_101
# %bb.100:                              # %if.then530
	movl	-12(%rbp), %eax
	movl	%eax, -40(%rbp)
	movl	-16(%rbp), %eax
	movl	%eax, -44(%rbp)
	movl	-20(%rbp), %eax
	movl	%eax, 56(%rbp)
.LBB14_101:                             # %if.end531
	jmp	.LBB14_102
.LBB14_102:                             # %if.end532
	jmp	.LBB14_103
.LBB14_103:                             # %if.end533
	jmp	.LBB14_104
.LBB14_104:                             # %if.end534
	jmp	.LBB14_119
.LBB14_105:                             # %if.else535
	cmpl	$0, -136(%rbp)
	jne	.LBB14_107
# %bb.106:                              # %land.lhs.true538
	movswl	-46(%rbp), %eax
	cmpl	$0, %eax
	jg	.LBB14_110
.LBB14_107:                             # %lor.lhs.false542
	movq	img, %rax
	cmpl	$1, 24(%rax)
	jne	.LBB14_118
# %bb.108:                              # %land.lhs.true546
	cmpl	$0, -136(%rbp)
	jne	.LBB14_118
# %bb.109:                              # %land.lhs.true549
	movswl	-46(%rbp), %eax
	cmpl	$0, %eax
	jne	.LBB14_118
.LBB14_110:                             # %if.then553
	movl	-104(%rbp), %ecx
	movl	pred_MV_ref, %eax
	cltd
	movl	$4, %esi
	idivl	%esi
	addl	%eax, %ecx
	movl	%ecx, -12(%rbp)
	movl	-100(%rbp), %ecx
	movl	pred_MV_ref+4, %eax
	cltd
	idivl	%esi
	addl	%eax, %ecx
	movl	%ecx, -16(%rbp)
	movl	-12(%rbp), %edi
	subl	-24(%rbp), %edi
	callq	abs
	cmpl	48(%rbp), %eax
	jg	.LBB14_117
# %bb.111:                              # %land.lhs.true562
	movl	-16(%rbp), %edi
	subl	-28(%rbp), %edi
	callq	abs
	cmpl	48(%rbp), %eax
	jg	.LBB14_117
# %bb.112:                              # %if.then567
	movq	McostState, %rax
	movl	-16(%rbp), %ecx
	subl	-28(%rbp), %ecx
	addl	48(%rbp), %ecx
	movslq	%ecx, %rcx
	movq	(%rax,%rcx,8), %rax
	movl	-12(%rbp), %ecx
	subl	-24(%rbp), %ecx
	addl	48(%rbp), %ecx
	movslq	%ecx, %rcx
	cmpl	$0, (%rax,%rcx,4)
	jne	.LBB14_116
# %bb.113:                              # %if.then577
	movl	-92(%rbp), %eax
	movq	mvbits, %rdx
	movl	-12(%rbp), %esi
	movl	-32(%rbp), %ecx
                                        # kill: def $cl killed $ecx
	shll	%cl, %esi
	subl	-96(%rbp), %esi
	movslq	%esi, %rcx
	movl	(%rdx,%rcx,4), %edx
	movq	mvbits, %rsi
	movl	-16(%rbp), %edi
	movl	-32(%rbp), %ecx
                                        # kill: def $cl killed $ecx
	shll	%cl, %edi
	subl	-88(%rbp), %edi
	movslq	%edi, %rcx
	addl	(%rsi,%rcx,4), %edx
	imull	%edx, %eax
	sarl	$16, %eax
	movl	%eax, -20(%rbp)
	movq	-128(%rbp), %rdi
	movq	-120(%rbp), %rsi
	movq	-112(%rbp), %rdx
	movl	-76(%rbp), %ecx
	movl	-60(%rbp), %r8d
	movl	-84(%rbp), %r9d
	movl	-20(%rbp), %eax
	movl	56(%rbp), %ebx
	movl	-12(%rbp), %r10d
	movl	-16(%rbp), %r11d
	movl	%eax, (%rsp)
	movl	%ebx, 8(%rsp)
	movl	%r10d, 16(%rsp)
	movl	%r11d, 24(%rsp)
	callq	PartCalMad
	movl	%eax, -20(%rbp)
	movl	-20(%rbp), %eax
	movq	McostState, %rcx
	movl	-16(%rbp), %edx
	subl	-28(%rbp), %edx
	addl	48(%rbp), %edx
	movslq	%edx, %rdx
	movq	(%rcx,%rdx,8), %rcx
	movl	-12(%rbp), %edx
	subl	-24(%rbp), %edx
	addl	48(%rbp), %edx
	movslq	%edx, %rdx
	movl	%eax, (%rcx,%rdx,4)
	movl	-20(%rbp), %eax
	cmpl	56(%rbp), %eax
	jge	.LBB14_115
# %bb.114:                              # %if.then600
	movl	-12(%rbp), %eax
	movl	%eax, -40(%rbp)
	movl	-16(%rbp), %eax
	movl	%eax, -44(%rbp)
	movl	-20(%rbp), %eax
	movl	%eax, 56(%rbp)
.LBB14_115:                             # %if.end601
	jmp	.LBB14_116
.LBB14_116:                             # %if.end602
	jmp	.LBB14_117
.LBB14_117:                             # %if.end603
	jmp	.LBB14_118
.LBB14_118:                             # %if.end604
	jmp	.LBB14_119
.LBB14_119:                             # %if.end605
	movl	-40(%rbp), %eax
	movl	%eax, -64(%rbp)
	movl	-44(%rbp), %eax
	movl	%eax, -68(%rbp)
	movl	$0, -36(%rbp)
.LBB14_120:                             # %for.cond606
                                        # =>This Inner Loop Header: Depth=1
	cmpl	$4, -36(%rbp)
	jge	.LBB14_130
# %bb.121:                              # %for.body609
                                        #   in Loop: Header=BB14_120 Depth=1
	movl	-64(%rbp), %eax
	movslq	-36(%rbp), %rcx
	addl	FastIntegerPelBlockMotionSearch.Diamond_x(,%rcx,4), %eax
	movl	%eax, -12(%rbp)
	movl	-68(%rbp), %eax
	movslq	-36(%rbp), %rcx
	addl	FastIntegerPelBlockMotionSearch.Diamond_y(,%rcx,4), %eax
	movl	%eax, -16(%rbp)
	movl	-12(%rbp), %edi
	subl	-24(%rbp), %edi
	callq	abs
	cmpl	48(%rbp), %eax
	jg	.LBB14_128
# %bb.122:                              # %land.lhs.true620
                                        #   in Loop: Header=BB14_120 Depth=1
	movl	-16(%rbp), %edi
	subl	-28(%rbp), %edi
	callq	abs
	cmpl	48(%rbp), %eax
	jg	.LBB14_128
# %bb.123:                              # %if.then625
                                        #   in Loop: Header=BB14_120 Depth=1
	movq	McostState, %rax
	movl	-16(%rbp), %ecx
	subl	-28(%rbp), %ecx
	addl	48(%rbp), %ecx
	movslq	%ecx, %rcx
	movq	(%rax,%rcx,8), %rax
	movl	-12(%rbp), %ecx
	subl	-24(%rbp), %ecx
	addl	48(%rbp), %ecx
	movslq	%ecx, %rcx
	cmpl	$0, (%rax,%rcx,4)
	jne	.LBB14_127
# %bb.124:                              # %if.then635
                                        #   in Loop: Header=BB14_120 Depth=1
	movl	-92(%rbp), %eax
	movq	mvbits, %rdx
	movl	-12(%rbp), %esi
	movl	-32(%rbp), %ecx
                                        # kill: def $cl killed $ecx
	shll	%cl, %esi
	subl	-96(%rbp), %esi
	movslq	%esi, %rcx
	movl	(%rdx,%rcx,4), %edx
	movq	mvbits, %rsi
	movl	-16(%rbp), %edi
	movl	-32(%rbp), %ecx
                                        # kill: def $cl killed $ecx
	shll	%cl, %edi
	subl	-88(%rbp), %edi
	movslq	%edi, %rcx
	addl	(%rsi,%rcx,4), %edx
	imull	%edx, %eax
	sarl	$16, %eax
	movl	%eax, -20(%rbp)
	movq	-128(%rbp), %rdi
	movq	-120(%rbp), %rsi
	movq	-112(%rbp), %rdx
	movl	-76(%rbp), %ecx
	movl	-60(%rbp), %r8d
	movl	-84(%rbp), %r9d
	movl	-20(%rbp), %eax
	movl	56(%rbp), %ebx
	movl	-12(%rbp), %r10d
	movl	-16(%rbp), %r11d
	movl	%eax, (%rsp)
	movl	%ebx, 8(%rsp)
	movl	%r10d, 16(%rsp)
	movl	%r11d, 24(%rsp)
	callq	PartCalMad
	movl	%eax, -20(%rbp)
	movl	-20(%rbp), %eax
	movq	McostState, %rcx
	movl	-16(%rbp), %edx
	subl	-28(%rbp), %edx
	addl	48(%rbp), %edx
	movslq	%edx, %rdx
	movq	(%rcx,%rdx,8), %rcx
	movl	-12(%rbp), %edx
	subl	-24(%rbp), %edx
	addl	48(%rbp), %edx
	movslq	%edx, %rdx
	movl	%eax, (%rcx,%rdx,4)
	movl	-20(%rbp), %eax
	cmpl	56(%rbp), %eax
	jge	.LBB14_126
# %bb.125:                              # %if.then658
                                        #   in Loop: Header=BB14_120 Depth=1
	movl	-12(%rbp), %eax
	movl	%eax, -40(%rbp)
	movl	-16(%rbp), %eax
	movl	%eax, -44(%rbp)
	movl	-20(%rbp), %eax
	movl	%eax, 56(%rbp)
.LBB14_126:                             # %if.end659
                                        #   in Loop: Header=BB14_120 Depth=1
	jmp	.LBB14_127
.LBB14_127:                             # %if.end660
                                        #   in Loop: Header=BB14_120 Depth=1
	jmp	.LBB14_128
.LBB14_128:                             # %if.end661
                                        #   in Loop: Header=BB14_120 Depth=1
	jmp	.LBB14_129
.LBB14_129:                             # %for.inc662
                                        #   in Loop: Header=BB14_120 Depth=1
	movl	-36(%rbp), %eax
	addl	$1, %eax
	movl	%eax, -36(%rbp)
	jmp	.LBB14_120
.LBB14_130:                             # %for.end664
	movswl	-46(%rbp), %eax
	cmpl	$0, %eax
	jle	.LBB14_137
# %bb.131:                              # %if.then668
	movl	56(%rbp), %eax
	subl	pred_SAD_ref, %eax
	vcvtsi2ss	%eax, %xmm0, %xmm0
	vcvtsi2ssl	pred_SAD_ref, %xmm0, %xmm1
	vmulss	-72(%rbp), %xmm1, %xmm1
	vucomiss	%xmm0, %xmm1
	jbe	.LBB14_133
# %bb.132:                              # %if.then675
	jmp	.LBB14_301
.LBB14_133:                             # %if.else676
	movl	56(%rbp), %eax
	subl	pred_SAD_ref, %eax
	vcvtsi2ss	%eax, %xmm0, %xmm0
	vcvtsi2ssl	pred_SAD_ref, %xmm0, %xmm1
	vmulss	-80(%rbp), %xmm1, %xmm1
	vucomiss	%xmm0, %xmm1
	jbe	.LBB14_135
# %bb.134:                              # %if.then683
	jmp	.LBB14_282
.LBB14_135:                             # %if.end684
	jmp	.LBB14_136
.LBB14_136:                             # %if.end685
	jmp	.LBB14_151
.LBB14_137:                             # %if.else686
	cmpl	$1, -56(%rbp)
	jle	.LBB14_144
# %bb.138:                              # %if.then689
	movl	56(%rbp), %eax
	subl	pred_SAD_uplayer, %eax
	vcvtsi2ss	%eax, %xmm0, %xmm0
	vcvtsi2ssl	pred_SAD_uplayer, %xmm0, %xmm1
	vmulss	-72(%rbp), %xmm1, %xmm1
	vucomiss	%xmm0, %xmm1
	jbe	.LBB14_140
# %bb.139:                              # %if.then696
	jmp	.LBB14_301
.LBB14_140:                             # %if.else697
	movl	56(%rbp), %eax
	subl	pred_SAD_uplayer, %eax
	vcvtsi2ss	%eax, %xmm0, %xmm0
	vcvtsi2ssl	pred_SAD_uplayer, %xmm0, %xmm1
	vmulss	-80(%rbp), %xmm1, %xmm1
	vucomiss	%xmm0, %xmm1
	jbe	.LBB14_142
# %bb.141:                              # %if.then704
	jmp	.LBB14_282
.LBB14_142:                             # %if.end705
	jmp	.LBB14_143
.LBB14_143:                             # %if.end706
	jmp	.LBB14_150
.LBB14_144:                             # %if.else707
	movl	56(%rbp), %eax
	subl	pred_SAD_space, %eax
	vcvtsi2ss	%eax, %xmm0, %xmm0
	vcvtsi2ssl	pred_SAD_space, %xmm0, %xmm1
	vmulss	-72(%rbp), %xmm1, %xmm1
	vucomiss	%xmm0, %xmm1
	jbe	.LBB14_146
# %bb.145:                              # %if.then714
	jmp	.LBB14_301
.LBB14_146:                             # %if.else715
	movl	56(%rbp), %eax
	subl	pred_SAD_space, %eax
	vcvtsi2ss	%eax, %xmm0, %xmm0
	vcvtsi2ssl	pred_SAD_space, %xmm0, %xmm1
	vmulss	-80(%rbp), %xmm1, %xmm1
	vucomiss	%xmm0, %xmm1
	jbe	.LBB14_148
# %bb.147:                              # %if.then722
	jmp	.LBB14_282
.LBB14_148:                             # %if.end723
	jmp	.LBB14_149
.LBB14_149:                             # %if.end724
	jmp	.LBB14_150
.LBB14_150:                             # %if.end725
	jmp	.LBB14_151
.LBB14_151:                             # %if.end726
	cmpl	$6, -56(%rbp)
	jle	.LBB14_153
# %bb.152:                              # %if.then729
	jmp	.LBB14_282
.LBB14_153:                             # %if.else730
	jmp	.LBB14_154
.LBB14_154:                             # %first_step
	movl	-40(%rbp), %eax
	movl	%eax, -64(%rbp)
	movl	-44(%rbp), %eax
	movl	%eax, -68(%rbp)
	movl	$1, -52(%rbp)
.LBB14_155:                             # %for.cond731
                                        # =>This Inner Loop Header: Depth=1
	movl	-52(%rbp), %ecx
	movl	48(%rbp), %eax
	cltd
	movl	$2, %esi
	idivl	%esi
	cmpl	%eax, %ecx
	jg	.LBB14_172
# %bb.156:                              # %for.body735
                                        #   in Loop: Header=BB14_155 Depth=1
	movl	-52(%rbp), %eax
	shll	$1, %eax
	subl	$1, %eax
	movl	%eax, -140(%rbp)
	movl	-64(%rbp), %eax
	addl	-140(%rbp), %eax
	movl	%eax, -12(%rbp)
	movl	-68(%rbp), %eax
	movl	%eax, -16(%rbp)
	movl	-12(%rbp), %edi
	subl	-24(%rbp), %edi
	callq	abs
	cmpl	48(%rbp), %eax
	jg	.LBB14_163
# %bb.157:                              # %land.lhs.true743
                                        #   in Loop: Header=BB14_155 Depth=1
	movl	-16(%rbp), %edi
	subl	-28(%rbp), %edi
	callq	abs
	cmpl	48(%rbp), %eax
	jg	.LBB14_163
# %bb.158:                              # %if.then748
                                        #   in Loop: Header=BB14_155 Depth=1
	movq	McostState, %rax
	movl	-16(%rbp), %ecx
	subl	-28(%rbp), %ecx
	addl	48(%rbp), %ecx
	movslq	%ecx, %rcx
	movq	(%rax,%rcx,8), %rax
	movl	-12(%rbp), %ecx
	subl	-24(%rbp), %ecx
	addl	48(%rbp), %ecx
	movslq	%ecx, %rcx
	cmpl	$0, (%rax,%rcx,4)
	jne	.LBB14_162
# %bb.159:                              # %if.then758
                                        #   in Loop: Header=BB14_155 Depth=1
	movl	-92(%rbp), %eax
	movq	mvbits, %rdx
	movl	-12(%rbp), %esi
	movl	-32(%rbp), %ecx
                                        # kill: def $cl killed $ecx
	shll	%cl, %esi
	subl	-96(%rbp), %esi
	movslq	%esi, %rcx
	movl	(%rdx,%rcx,4), %edx
	movq	mvbits, %rsi
	movl	-16(%rbp), %edi
	movl	-32(%rbp), %ecx
                                        # kill: def $cl killed $ecx
	shll	%cl, %edi
	subl	-88(%rbp), %edi
	movslq	%edi, %rcx
	addl	(%rsi,%rcx,4), %edx
	imull	%edx, %eax
	sarl	$16, %eax
	movl	%eax, -20(%rbp)
	movq	-128(%rbp), %rdi
	movq	-120(%rbp), %rsi
	movq	-112(%rbp), %rdx
	movl	-76(%rbp), %ecx
	movl	-60(%rbp), %r8d
	movl	-84(%rbp), %r9d
	movl	-20(%rbp), %eax
	movl	56(%rbp), %ebx
	movl	-12(%rbp), %r10d
	movl	-16(%rbp), %r11d
	movl	%eax, (%rsp)
	movl	%ebx, 8(%rsp)
	movl	%r10d, 16(%rsp)
	movl	%r11d, 24(%rsp)
	callq	PartCalMad
	movl	%eax, -20(%rbp)
	movl	-20(%rbp), %eax
	movq	McostState, %rcx
	movl	-16(%rbp), %edx
	subl	-28(%rbp), %edx
	addl	48(%rbp), %edx
	movslq	%edx, %rdx
	movq	(%rcx,%rdx,8), %rcx
	movl	-12(%rbp), %edx
	subl	-24(%rbp), %edx
	addl	48(%rbp), %edx
	movslq	%edx, %rdx
	movl	%eax, (%rcx,%rdx,4)
	movl	-20(%rbp), %eax
	cmpl	56(%rbp), %eax
	jge	.LBB14_161
# %bb.160:                              # %if.then781
                                        #   in Loop: Header=BB14_155 Depth=1
	movl	-12(%rbp), %eax
	movl	%eax, -40(%rbp)
	movl	-16(%rbp), %eax
	movl	%eax, -44(%rbp)
	movl	-20(%rbp), %eax
	movl	%eax, 56(%rbp)
.LBB14_161:                             # %if.end782
                                        #   in Loop: Header=BB14_155 Depth=1
	jmp	.LBB14_162
.LBB14_162:                             # %if.end783
                                        #   in Loop: Header=BB14_155 Depth=1
	jmp	.LBB14_163
.LBB14_163:                             # %if.end784
                                        #   in Loop: Header=BB14_155 Depth=1
	movl	-64(%rbp), %eax
	subl	-140(%rbp), %eax
	movl	%eax, -12(%rbp)
	movl	-68(%rbp), %eax
	movl	%eax, -16(%rbp)
	movl	-12(%rbp), %edi
	subl	-24(%rbp), %edi
	callq	abs
	cmpl	48(%rbp), %eax
	jg	.LBB14_170
# %bb.164:                              # %land.lhs.true790
                                        #   in Loop: Header=BB14_155 Depth=1
	movl	-16(%rbp), %edi
	subl	-28(%rbp), %edi
	callq	abs
	cmpl	48(%rbp), %eax
	jg	.LBB14_170
# %bb.165:                              # %if.then795
                                        #   in Loop: Header=BB14_155 Depth=1
	movq	McostState, %rax
	movl	-16(%rbp), %ecx
	subl	-28(%rbp), %ecx
	addl	48(%rbp), %ecx
	movslq	%ecx, %rcx
	movq	(%rax,%rcx,8), %rax
	movl	-12(%rbp), %ecx
	subl	-24(%rbp), %ecx
	addl	48(%rbp), %ecx
	movslq	%ecx, %rcx
	cmpl	$0, (%rax,%rcx,4)
	jne	.LBB14_169
# %bb.166:                              # %if.then805
                                        #   in Loop: Header=BB14_155 Depth=1
	movl	-92(%rbp), %eax
	movq	mvbits, %rdx
	movl	-12(%rbp), %esi
	movl	-32(%rbp), %ecx
                                        # kill: def $cl killed $ecx
	shll	%cl, %esi
	subl	-96(%rbp), %esi
	movslq	%esi, %rcx
	movl	(%rdx,%rcx,4), %edx
	movq	mvbits, %rsi
	movl	-16(%rbp), %edi
	movl	-32(%rbp), %ecx
                                        # kill: def $cl killed $ecx
	shll	%cl, %edi
	subl	-88(%rbp), %edi
	movslq	%edi, %rcx
	addl	(%rsi,%rcx,4), %edx
	imull	%edx, %eax
	sarl	$16, %eax
	movl	%eax, -20(%rbp)
	movq	-128(%rbp), %rdi
	movq	-120(%rbp), %rsi
	movq	-112(%rbp), %rdx
	movl	-76(%rbp), %ecx
	movl	-60(%rbp), %r8d
	movl	-84(%rbp), %r9d
	movl	-20(%rbp), %eax
	movl	56(%rbp), %ebx
	movl	-12(%rbp), %r10d
	movl	-16(%rbp), %r11d
	movl	%eax, (%rsp)
	movl	%ebx, 8(%rsp)
	movl	%r10d, 16(%rsp)
	movl	%r11d, 24(%rsp)
	callq	PartCalMad
	movl	%eax, -20(%rbp)
	movl	-20(%rbp), %eax
	movq	McostState, %rcx
	movl	-16(%rbp), %edx
	subl	-28(%rbp), %edx
	addl	48(%rbp), %edx
	movslq	%edx, %rdx
	movq	(%rcx,%rdx,8), %rcx
	movl	-12(%rbp), %edx
	subl	-24(%rbp), %edx
	addl	48(%rbp), %edx
	movslq	%edx, %rdx
	movl	%eax, (%rcx,%rdx,4)
	movl	-20(%rbp), %eax
	cmpl	56(%rbp), %eax
	jge	.LBB14_168
# %bb.167:                              # %if.then828
                                        #   in Loop: Header=BB14_155 Depth=1
	movl	-12(%rbp), %eax
	movl	%eax, -40(%rbp)
	movl	-16(%rbp), %eax
	movl	%eax, -44(%rbp)
	movl	-20(%rbp), %eax
	movl	%eax, 56(%rbp)
.LBB14_168:                             # %if.end829
                                        #   in Loop: Header=BB14_155 Depth=1
	jmp	.LBB14_169
.LBB14_169:                             # %if.end830
                                        #   in Loop: Header=BB14_155 Depth=1
	jmp	.LBB14_170
.LBB14_170:                             # %if.end831
                                        #   in Loop: Header=BB14_155 Depth=1
	jmp	.LBB14_171
.LBB14_171:                             # %for.inc832
                                        #   in Loop: Header=BB14_155 Depth=1
	movl	-52(%rbp), %eax
	addl	$1, %eax
	movl	%eax, -52(%rbp)
	jmp	.LBB14_155
.LBB14_172:                             # %for.end834
	movl	$1, -52(%rbp)
.LBB14_173:                             # %for.cond835
                                        # =>This Inner Loop Header: Depth=1
	movl	-52(%rbp), %ecx
	movl	48(%rbp), %eax
	cltd
	movl	$4, %esi
	idivl	%esi
	cmpl	%eax, %ecx
	jg	.LBB14_190
# %bb.174:                              # %for.body839
                                        #   in Loop: Header=BB14_173 Depth=1
	movl	-52(%rbp), %eax
	shll	$1, %eax
	subl	$1, %eax
	movl	%eax, -140(%rbp)
	movl	-64(%rbp), %eax
	movl	%eax, -12(%rbp)
	movl	-68(%rbp), %eax
	addl	-140(%rbp), %eax
	movl	%eax, -16(%rbp)
	movl	-12(%rbp), %edi
	subl	-24(%rbp), %edi
	callq	abs
	cmpl	48(%rbp), %eax
	jg	.LBB14_181
# %bb.175:                              # %land.lhs.true847
                                        #   in Loop: Header=BB14_173 Depth=1
	movl	-16(%rbp), %edi
	subl	-28(%rbp), %edi
	callq	abs
	cmpl	48(%rbp), %eax
	jg	.LBB14_181
# %bb.176:                              # %if.then852
                                        #   in Loop: Header=BB14_173 Depth=1
	movq	McostState, %rax
	movl	-16(%rbp), %ecx
	subl	-28(%rbp), %ecx
	addl	48(%rbp), %ecx
	movslq	%ecx, %rcx
	movq	(%rax,%rcx,8), %rax
	movl	-12(%rbp), %ecx
	subl	-24(%rbp), %ecx
	addl	48(%rbp), %ecx
	movslq	%ecx, %rcx
	cmpl	$0, (%rax,%rcx,4)
	jne	.LBB14_180
# %bb.177:                              # %if.then862
                                        #   in Loop: Header=BB14_173 Depth=1
	movl	-92(%rbp), %eax
	movq	mvbits, %rdx
	movl	-12(%rbp), %esi
	movl	-32(%rbp), %ecx
                                        # kill: def $cl killed $ecx
	shll	%cl, %esi
	subl	-96(%rbp), %esi
	movslq	%esi, %rcx
	movl	(%rdx,%rcx,4), %edx
	movq	mvbits, %rsi
	movl	-16(%rbp), %edi
	movl	-32(%rbp), %ecx
                                        # kill: def $cl killed $ecx
	shll	%cl, %edi
	subl	-88(%rbp), %edi
	movslq	%edi, %rcx
	addl	(%rsi,%rcx,4), %edx
	imull	%edx, %eax
	sarl	$16, %eax
	movl	%eax, -20(%rbp)
	movq	-128(%rbp), %rdi
	movq	-120(%rbp), %rsi
	movq	-112(%rbp), %rdx
	movl	-76(%rbp), %ecx
	movl	-60(%rbp), %r8d
	movl	-84(%rbp), %r9d
	movl	-20(%rbp), %eax
	movl	56(%rbp), %ebx
	movl	-12(%rbp), %r10d
	movl	-16(%rbp), %r11d
	movl	%eax, (%rsp)
	movl	%ebx, 8(%rsp)
	movl	%r10d, 16(%rsp)
	movl	%r11d, 24(%rsp)
	callq	PartCalMad
	movl	%eax, -20(%rbp)
	movl	-20(%rbp), %eax
	movq	McostState, %rcx
	movl	-16(%rbp), %edx
	subl	-28(%rbp), %edx
	addl	48(%rbp), %edx
	movslq	%edx, %rdx
	movq	(%rcx,%rdx,8), %rcx
	movl	-12(%rbp), %edx
	subl	-24(%rbp), %edx
	addl	48(%rbp), %edx
	movslq	%edx, %rdx
	movl	%eax, (%rcx,%rdx,4)
	movl	-20(%rbp), %eax
	cmpl	56(%rbp), %eax
	jge	.LBB14_179
# %bb.178:                              # %if.then885
                                        #   in Loop: Header=BB14_173 Depth=1
	movl	-12(%rbp), %eax
	movl	%eax, -40(%rbp)
	movl	-16(%rbp), %eax
	movl	%eax, -44(%rbp)
	movl	-20(%rbp), %eax
	movl	%eax, 56(%rbp)
.LBB14_179:                             # %if.end886
                                        #   in Loop: Header=BB14_173 Depth=1
	jmp	.LBB14_180
.LBB14_180:                             # %if.end887
                                        #   in Loop: Header=BB14_173 Depth=1
	jmp	.LBB14_181
.LBB14_181:                             # %if.end888
                                        #   in Loop: Header=BB14_173 Depth=1
	movl	-64(%rbp), %eax
	movl	%eax, -12(%rbp)
	movl	-68(%rbp), %eax
	subl	-140(%rbp), %eax
	movl	%eax, -16(%rbp)
	movl	-12(%rbp), %edi
	subl	-24(%rbp), %edi
	callq	abs
	cmpl	48(%rbp), %eax
	jg	.LBB14_188
# %bb.182:                              # %land.lhs.true894
                                        #   in Loop: Header=BB14_173 Depth=1
	movl	-16(%rbp), %edi
	subl	-28(%rbp), %edi
	callq	abs
	cmpl	48(%rbp), %eax
	jg	.LBB14_188
# %bb.183:                              # %if.then899
                                        #   in Loop: Header=BB14_173 Depth=1
	movq	McostState, %rax
	movl	-16(%rbp), %ecx
	subl	-28(%rbp), %ecx
	addl	48(%rbp), %ecx
	movslq	%ecx, %rcx
	movq	(%rax,%rcx,8), %rax
	movl	-12(%rbp), %ecx
	subl	-24(%rbp), %ecx
	addl	48(%rbp), %ecx
	movslq	%ecx, %rcx
	cmpl	$0, (%rax,%rcx,4)
	jne	.LBB14_187
# %bb.184:                              # %if.then909
                                        #   in Loop: Header=BB14_173 Depth=1
	movl	-92(%rbp), %eax
	movq	mvbits, %rdx
	movl	-12(%rbp), %esi
	movl	-32(%rbp), %ecx
                                        # kill: def $cl killed $ecx
	shll	%cl, %esi
	subl	-96(%rbp), %esi
	movslq	%esi, %rcx
	movl	(%rdx,%rcx,4), %edx
	movq	mvbits, %rsi
	movl	-16(%rbp), %edi
	movl	-32(%rbp), %ecx
                                        # kill: def $cl killed $ecx
	shll	%cl, %edi
	subl	-88(%rbp), %edi
	movslq	%edi, %rcx
	addl	(%rsi,%rcx,4), %edx
	imull	%edx, %eax
	sarl	$16, %eax
	movl	%eax, -20(%rbp)
	movq	-128(%rbp), %rdi
	movq	-120(%rbp), %rsi
	movq	-112(%rbp), %rdx
	movl	-76(%rbp), %ecx
	movl	-60(%rbp), %r8d
	movl	-84(%rbp), %r9d
	movl	-20(%rbp), %eax
	movl	56(%rbp), %ebx
	movl	-12(%rbp), %r10d
	movl	-16(%rbp), %r11d
	movl	%eax, (%rsp)
	movl	%ebx, 8(%rsp)
	movl	%r10d, 16(%rsp)
	movl	%r11d, 24(%rsp)
	callq	PartCalMad
	movl	%eax, -20(%rbp)
	movl	-20(%rbp), %eax
	movq	McostState, %rcx
	movl	-16(%rbp), %edx
	subl	-28(%rbp), %edx
	addl	48(%rbp), %edx
	movslq	%edx, %rdx
	movq	(%rcx,%rdx,8), %rcx
	movl	-12(%rbp), %edx
	subl	-24(%rbp), %edx
	addl	48(%rbp), %edx
	movslq	%edx, %rdx
	movl	%eax, (%rcx,%rdx,4)
	movl	-20(%rbp), %eax
	cmpl	56(%rbp), %eax
	jge	.LBB14_186
# %bb.185:                              # %if.then932
                                        #   in Loop: Header=BB14_173 Depth=1
	movl	-12(%rbp), %eax
	movl	%eax, -40(%rbp)
	movl	-16(%rbp), %eax
	movl	%eax, -44(%rbp)
	movl	-20(%rbp), %eax
	movl	%eax, 56(%rbp)
.LBB14_186:                             # %if.end933
                                        #   in Loop: Header=BB14_173 Depth=1
	jmp	.LBB14_187
.LBB14_187:                             # %if.end934
                                        #   in Loop: Header=BB14_173 Depth=1
	jmp	.LBB14_188
.LBB14_188:                             # %if.end935
                                        #   in Loop: Header=BB14_173 Depth=1
	jmp	.LBB14_189
.LBB14_189:                             # %for.inc936
                                        #   in Loop: Header=BB14_173 Depth=1
	movl	-52(%rbp), %eax
	addl	$1, %eax
	movl	%eax, -52(%rbp)
	jmp	.LBB14_173
.LBB14_190:                             # %for.end938
	movswl	-46(%rbp), %eax
	cmpl	$0, %eax
	jle	.LBB14_197
# %bb.191:                              # %if.then942
	movl	56(%rbp), %eax
	subl	pred_SAD_ref, %eax
	vcvtsi2ss	%eax, %xmm0, %xmm0
	vcvtsi2ssl	pred_SAD_ref, %xmm0, %xmm1
	vmulss	-72(%rbp), %xmm1, %xmm1
	vucomiss	%xmm0, %xmm1
	jbe	.LBB14_193
# %bb.192:                              # %if.then949
	jmp	.LBB14_301
.LBB14_193:                             # %if.else950
	movl	56(%rbp), %eax
	subl	pred_SAD_ref, %eax
	vcvtsi2ss	%eax, %xmm0, %xmm0
	vcvtsi2ssl	pred_SAD_ref, %xmm0, %xmm1
	vmulss	-80(%rbp), %xmm1, %xmm1
	vucomiss	%xmm0, %xmm1
	jbe	.LBB14_195
# %bb.194:                              # %if.then957
	jmp	.LBB14_282
.LBB14_195:                             # %if.end958
	jmp	.LBB14_196
.LBB14_196:                             # %if.end959
	jmp	.LBB14_211
.LBB14_197:                             # %if.else960
	cmpl	$1, -56(%rbp)
	jle	.LBB14_204
# %bb.198:                              # %if.then963
	movl	56(%rbp), %eax
	subl	pred_SAD_uplayer, %eax
	vcvtsi2ss	%eax, %xmm0, %xmm0
	vcvtsi2ssl	pred_SAD_uplayer, %xmm0, %xmm1
	vmulss	-72(%rbp), %xmm1, %xmm1
	vucomiss	%xmm0, %xmm1
	jbe	.LBB14_200
# %bb.199:                              # %if.then970
	jmp	.LBB14_301
.LBB14_200:                             # %if.else971
	movl	56(%rbp), %eax
	subl	pred_SAD_uplayer, %eax
	vcvtsi2ss	%eax, %xmm0, %xmm0
	vcvtsi2ssl	pred_SAD_uplayer, %xmm0, %xmm1
	vmulss	-80(%rbp), %xmm1, %xmm1
	vucomiss	%xmm0, %xmm1
	jbe	.LBB14_202
# %bb.201:                              # %if.then978
	jmp	.LBB14_282
.LBB14_202:                             # %if.end979
	jmp	.LBB14_203
.LBB14_203:                             # %if.end980
	jmp	.LBB14_210
.LBB14_204:                             # %if.else981
	movl	56(%rbp), %eax
	subl	pred_SAD_space, %eax
	vcvtsi2ss	%eax, %xmm0, %xmm0
	vcvtsi2ssl	pred_SAD_space, %xmm0, %xmm1
	vmulss	-72(%rbp), %xmm1, %xmm1
	vucomiss	%xmm0, %xmm1
	jbe	.LBB14_206
# %bb.205:                              # %if.then988
	jmp	.LBB14_301
.LBB14_206:                             # %if.else989
	movl	56(%rbp), %eax
	subl	pred_SAD_space, %eax
	vcvtsi2ss	%eax, %xmm0, %xmm0
	vcvtsi2ssl	pred_SAD_space, %xmm0, %xmm1
	vmulss	-80(%rbp), %xmm1, %xmm1
	vucomiss	%xmm0, %xmm1
	jbe	.LBB14_208
# %bb.207:                              # %if.then996
	jmp	.LBB14_282
.LBB14_208:                             # %if.end997
	jmp	.LBB14_209
.LBB14_209:                             # %if.end998
	jmp	.LBB14_210
.LBB14_210:                             # %if.end999
	jmp	.LBB14_211
.LBB14_211:                             # %if.end1000
	movl	-40(%rbp), %eax
	movl	%eax, -64(%rbp)
	movl	-44(%rbp), %eax
	movl	%eax, -68(%rbp)
	movl	$1, -144(%rbp)
.LBB14_212:                             # %for.cond1001
                                        # =>This Inner Loop Header: Depth=1
	cmpl	$25, -144(%rbp)
	jge	.LBB14_222
# %bb.213:                              # %for.body1004
                                        #   in Loop: Header=BB14_212 Depth=1
	movl	-64(%rbp), %eax
	movq	spiral_search_x, %rcx
	movslq	-144(%rbp), %rdx
	addl	(%rcx,%rdx,4), %eax
	movl	%eax, -12(%rbp)
	movl	-68(%rbp), %eax
	movq	spiral_search_y, %rcx
	movslq	-144(%rbp), %rdx
	addl	(%rcx,%rdx,4), %eax
	movl	%eax, -16(%rbp)
	movl	-12(%rbp), %edi
	subl	-24(%rbp), %edi
	callq	abs
	cmpl	48(%rbp), %eax
	jg	.LBB14_220
# %bb.214:                              # %land.lhs.true1015
                                        #   in Loop: Header=BB14_212 Depth=1
	movl	-16(%rbp), %edi
	subl	-28(%rbp), %edi
	callq	abs
	cmpl	48(%rbp), %eax
	jg	.LBB14_220
# %bb.215:                              # %if.then1020
                                        #   in Loop: Header=BB14_212 Depth=1
	movq	McostState, %rax
	movl	-16(%rbp), %ecx
	subl	-28(%rbp), %ecx
	addl	48(%rbp), %ecx
	movslq	%ecx, %rcx
	movq	(%rax,%rcx,8), %rax
	movl	-12(%rbp), %ecx
	subl	-24(%rbp), %ecx
	addl	48(%rbp), %ecx
	movslq	%ecx, %rcx
	cmpl	$0, (%rax,%rcx,4)
	jne	.LBB14_219
# %bb.216:                              # %if.then1030
                                        #   in Loop: Header=BB14_212 Depth=1
	movl	-92(%rbp), %eax
	movq	mvbits, %rdx
	movl	-12(%rbp), %esi
	movl	-32(%rbp), %ecx
                                        # kill: def $cl killed $ecx
	shll	%cl, %esi
	subl	-96(%rbp), %esi
	movslq	%esi, %rcx
	movl	(%rdx,%rcx,4), %edx
	movq	mvbits, %rsi
	movl	-16(%rbp), %edi
	movl	-32(%rbp), %ecx
                                        # kill: def $cl killed $ecx
	shll	%cl, %edi
	subl	-88(%rbp), %edi
	movslq	%edi, %rcx
	addl	(%rsi,%rcx,4), %edx
	imull	%edx, %eax
	sarl	$16, %eax
	movl	%eax, -20(%rbp)
	movq	-128(%rbp), %rdi
	movq	-120(%rbp), %rsi
	movq	-112(%rbp), %rdx
	movl	-76(%rbp), %ecx
	movl	-60(%rbp), %r8d
	movl	-84(%rbp), %r9d
	movl	-20(%rbp), %eax
	movl	56(%rbp), %ebx
	movl	-12(%rbp), %r10d
	movl	-16(%rbp), %r11d
	movl	%eax, (%rsp)
	movl	%ebx, 8(%rsp)
	movl	%r10d, 16(%rsp)
	movl	%r11d, 24(%rsp)
	callq	PartCalMad
	movl	%eax, -20(%rbp)
	movl	-20(%rbp), %eax
	movq	McostState, %rcx
	movl	-16(%rbp), %edx
	subl	-28(%rbp), %edx
	addl	48(%rbp), %edx
	movslq	%edx, %rdx
	movq	(%rcx,%rdx,8), %rcx
	movl	-12(%rbp), %edx
	subl	-24(%rbp), %edx
	addl	48(%rbp), %edx
	movslq	%edx, %rdx
	movl	%eax, (%rcx,%rdx,4)
	movl	-20(%rbp), %eax
	cmpl	56(%rbp), %eax
	jge	.LBB14_218
# %bb.217:                              # %if.then1053
                                        #   in Loop: Header=BB14_212 Depth=1
	movl	-12(%rbp), %eax
	movl	%eax, -40(%rbp)
	movl	-16(%rbp), %eax
	movl	%eax, -44(%rbp)
	movl	-20(%rbp), %eax
	movl	%eax, 56(%rbp)
.LBB14_218:                             # %if.end1054
                                        #   in Loop: Header=BB14_212 Depth=1
	jmp	.LBB14_219
.LBB14_219:                             # %if.end1055
                                        #   in Loop: Header=BB14_212 Depth=1
	jmp	.LBB14_220
.LBB14_220:                             # %if.end1056
                                        #   in Loop: Header=BB14_212 Depth=1
	jmp	.LBB14_221
.LBB14_221:                             # %for.inc1057
                                        #   in Loop: Header=BB14_212 Depth=1
	movl	-144(%rbp), %eax
	addl	$1, %eax
	movl	%eax, -144(%rbp)
	jmp	.LBB14_212
.LBB14_222:                             # %for.end1059
	movswl	-46(%rbp), %eax
	cmpl	$0, %eax
	jle	.LBB14_229
# %bb.223:                              # %if.then1063
	movl	56(%rbp), %eax
	subl	pred_SAD_ref, %eax
	vcvtsi2ss	%eax, %xmm0, %xmm0
	vcvtsi2ssl	pred_SAD_ref, %xmm0, %xmm1
	vmulss	-72(%rbp), %xmm1, %xmm1
	vucomiss	%xmm0, %xmm1
	jbe	.LBB14_225
# %bb.224:                              # %if.then1070
	jmp	.LBB14_301
.LBB14_225:                             # %if.else1071
	movl	56(%rbp), %eax
	subl	pred_SAD_ref, %eax
	vcvtsi2ss	%eax, %xmm0, %xmm0
	vcvtsi2ssl	pred_SAD_ref, %xmm0, %xmm1
	vmulss	-80(%rbp), %xmm1, %xmm1
	vucomiss	%xmm0, %xmm1
	jbe	.LBB14_227
# %bb.226:                              # %if.then1078
	jmp	.LBB14_282
.LBB14_227:                             # %if.end1079
	jmp	.LBB14_228
.LBB14_228:                             # %if.end1080
	jmp	.LBB14_243
.LBB14_229:                             # %if.else1081
	cmpl	$1, -56(%rbp)
	jle	.LBB14_236
# %bb.230:                              # %if.then1084
	movl	56(%rbp), %eax
	subl	pred_SAD_uplayer, %eax
	vcvtsi2ss	%eax, %xmm0, %xmm0
	vcvtsi2ssl	pred_SAD_uplayer, %xmm0, %xmm1
	vmulss	-72(%rbp), %xmm1, %xmm1
	vucomiss	%xmm0, %xmm1
	jbe	.LBB14_232
# %bb.231:                              # %if.then1091
	jmp	.LBB14_301
.LBB14_232:                             # %if.else1092
	movl	56(%rbp), %eax
	subl	pred_SAD_uplayer, %eax
	vcvtsi2ss	%eax, %xmm0, %xmm0
	vcvtsi2ssl	pred_SAD_uplayer, %xmm0, %xmm1
	vmulss	-80(%rbp), %xmm1, %xmm1
	vucomiss	%xmm0, %xmm1
	jbe	.LBB14_234
# %bb.233:                              # %if.then1099
	jmp	.LBB14_282
.LBB14_234:                             # %if.end1100
	jmp	.LBB14_235
.LBB14_235:                             # %if.end1101
	jmp	.LBB14_242
.LBB14_236:                             # %if.else1102
	movl	56(%rbp), %eax
	subl	pred_SAD_space, %eax
	vcvtsi2ss	%eax, %xmm0, %xmm0
	vcvtsi2ssl	pred_SAD_space, %xmm0, %xmm1
	vmulss	-72(%rbp), %xmm1, %xmm1
	vucomiss	%xmm0, %xmm1
	jbe	.LBB14_238
# %bb.237:                              # %if.then1109
	jmp	.LBB14_301
.LBB14_238:                             # %if.else1110
	movl	56(%rbp), %eax
	subl	pred_SAD_space, %eax
	vcvtsi2ss	%eax, %xmm0, %xmm0
	vcvtsi2ssl	pred_SAD_space, %xmm0, %xmm1
	vmulss	-80(%rbp), %xmm1, %xmm1
	vucomiss	%xmm0, %xmm1
	jbe	.LBB14_240
# %bb.239:                              # %if.then1117
	jmp	.LBB14_282
.LBB14_240:                             # %if.end1118
	jmp	.LBB14_241
.LBB14_241:                             # %if.end1119
	jmp	.LBB14_242
.LBB14_242:                             # %if.end1120
	jmp	.LBB14_243
.LBB14_243:                             # %if.end1121
	movl	$1, -52(%rbp)
.LBB14_244:                             # %for.cond1122
                                        # =>This Loop Header: Depth=1
                                        #     Child Loop BB14_246 Depth 2
	movl	-52(%rbp), %ecx
	movl	48(%rbp), %eax
	cltd
	movl	$4, %esi
	idivl	%esi
	cmpl	%eax, %ecx
	jg	.LBB14_281
# %bb.245:                              # %for.body1126
                                        #   in Loop: Header=BB14_244 Depth=1
	movl	$0, -132(%rbp)
	movl	$0, -36(%rbp)
.LBB14_246:                             # %for.cond1127
                                        #   Parent Loop BB14_244 Depth=1
                                        # =>  This Inner Loop Header: Depth=2
	cmpl	$16, -36(%rbp)
	jge	.LBB14_256
# %bb.247:                              # %for.body1130
                                        #   in Loop: Header=BB14_246 Depth=2
	movl	-64(%rbp), %eax
	movslq	-36(%rbp), %rcx
	movl	FastIntegerPelBlockMotionSearch.Big_Hexagon_x(,%rcx,4), %ecx
	imull	-52(%rbp), %ecx
	addl	%ecx, %eax
	movl	%eax, -12(%rbp)
	movl	-68(%rbp), %eax
	movslq	-36(%rbp), %rcx
	movl	FastIntegerPelBlockMotionSearch.Big_Hexagon_y(,%rcx,4), %ecx
	imull	-52(%rbp), %ecx
	addl	%ecx, %eax
	movl	%eax, -16(%rbp)
	movl	-12(%rbp), %edi
	subl	-24(%rbp), %edi
	callq	abs
	cmpl	48(%rbp), %eax
	jg	.LBB14_254
# %bb.248:                              # %land.lhs.true1143
                                        #   in Loop: Header=BB14_246 Depth=2
	movl	-16(%rbp), %edi
	subl	-28(%rbp), %edi
	callq	abs
	cmpl	48(%rbp), %eax
	jg	.LBB14_254
# %bb.249:                              # %if.then1148
                                        #   in Loop: Header=BB14_246 Depth=2
	movq	McostState, %rax
	movl	-16(%rbp), %ecx
	subl	-28(%rbp), %ecx
	addl	48(%rbp), %ecx
	movslq	%ecx, %rcx
	movq	(%rax,%rcx,8), %rax
	movl	-12(%rbp), %ecx
	subl	-24(%rbp), %ecx
	addl	48(%rbp), %ecx
	movslq	%ecx, %rcx
	cmpl	$0, (%rax,%rcx,4)
	jne	.LBB14_253
# %bb.250:                              # %if.then1158
                                        #   in Loop: Header=BB14_246 Depth=2
	movl	-92(%rbp), %eax
	movq	mvbits, %rdx
	movl	-12(%rbp), %esi
	movl	-32(%rbp), %ecx
                                        # kill: def $cl killed $ecx
	shll	%cl, %esi
	subl	-96(%rbp), %esi
	movslq	%esi, %rcx
	movl	(%rdx,%rcx,4), %edx
	movq	mvbits, %rsi
	movl	-16(%rbp), %edi
	movl	-32(%rbp), %ecx
                                        # kill: def $cl killed $ecx
	shll	%cl, %edi
	subl	-88(%rbp), %edi
	movslq	%edi, %rcx
	addl	(%rsi,%rcx,4), %edx
	imull	%edx, %eax
	sarl	$16, %eax
	movl	%eax, -20(%rbp)
	movq	-128(%rbp), %rdi
	movq	-120(%rbp), %rsi
	movq	-112(%rbp), %rdx
	movl	-76(%rbp), %ecx
	movl	-60(%rbp), %r8d
	movl	-84(%rbp), %r9d
	movl	-20(%rbp), %eax
	movl	56(%rbp), %ebx
	movl	-12(%rbp), %r10d
	movl	-16(%rbp), %r11d
	movl	%eax, (%rsp)
	movl	%ebx, 8(%rsp)
	movl	%r10d, 16(%rsp)
	movl	%r11d, 24(%rsp)
	callq	PartCalMad
	movl	%eax, -20(%rbp)
	movl	-20(%rbp), %eax
	movq	McostState, %rcx
	movl	-16(%rbp), %edx
	subl	-28(%rbp), %edx
	addl	48(%rbp), %edx
	movslq	%edx, %rdx
	movq	(%rcx,%rdx,8), %rcx
	movl	-12(%rbp), %edx
	subl	-24(%rbp), %edx
	addl	48(%rbp), %edx
	movslq	%edx, %rdx
	movl	%eax, (%rcx,%rdx,4)
	movl	-20(%rbp), %eax
	cmpl	56(%rbp), %eax
	jge	.LBB14_252
# %bb.251:                              # %if.then1181
                                        #   in Loop: Header=BB14_246 Depth=2
	movl	-12(%rbp), %eax
	movl	%eax, -40(%rbp)
	movl	-16(%rbp), %eax
	movl	%eax, -44(%rbp)
	movl	-20(%rbp), %eax
	movl	%eax, 56(%rbp)
	movl	$1, -132(%rbp)
.LBB14_252:                             # %if.end1182
                                        #   in Loop: Header=BB14_246 Depth=2
	jmp	.LBB14_253
.LBB14_253:                             # %if.end1183
                                        #   in Loop: Header=BB14_246 Depth=2
	jmp	.LBB14_254
.LBB14_254:                             # %if.end1184
                                        #   in Loop: Header=BB14_246 Depth=2
	jmp	.LBB14_255
.LBB14_255:                             # %for.inc1185
                                        #   in Loop: Header=BB14_246 Depth=2
	movl	-36(%rbp), %eax
	addl	$1, %eax
	movl	%eax, -36(%rbp)
	jmp	.LBB14_246
.LBB14_256:                             # %for.end1187
                                        #   in Loop: Header=BB14_244 Depth=1
	cmpl	$0, -132(%rbp)
	je	.LBB14_279
# %bb.257:                              # %if.then1189
                                        #   in Loop: Header=BB14_244 Depth=1
	movswl	-46(%rbp), %eax
	cmpl	$0, %eax
	jle	.LBB14_264
# %bb.258:                              # %if.then1193
                                        #   in Loop: Header=BB14_244 Depth=1
	movl	56(%rbp), %eax
	subl	pred_SAD_ref, %eax
	vcvtsi2ss	%eax, %xmm0, %xmm0
	vcvtsi2ssl	pred_SAD_ref, %xmm0, %xmm1
	vmulss	-72(%rbp), %xmm1, %xmm1
	vucomiss	%xmm0, %xmm1
	jbe	.LBB14_260
# %bb.259:                              # %if.then1200
	jmp	.LBB14_301
.LBB14_260:                             # %if.else1201
                                        #   in Loop: Header=BB14_244 Depth=1
	movl	56(%rbp), %eax
	subl	pred_SAD_ref, %eax
	vcvtsi2ss	%eax, %xmm0, %xmm0
	vcvtsi2ssl	pred_SAD_ref, %xmm0, %xmm1
	vmulss	-80(%rbp), %xmm1, %xmm1
	vucomiss	%xmm0, %xmm1
	jbe	.LBB14_262
# %bb.261:                              # %if.then1208
	jmp	.LBB14_282
.LBB14_262:                             # %if.end1209
                                        #   in Loop: Header=BB14_244 Depth=1
	jmp	.LBB14_263
.LBB14_263:                             # %if.end1210
                                        #   in Loop: Header=BB14_244 Depth=1
	jmp	.LBB14_278
.LBB14_264:                             # %if.else1211
                                        #   in Loop: Header=BB14_244 Depth=1
	cmpl	$1, -56(%rbp)
	jle	.LBB14_271
# %bb.265:                              # %if.then1214
                                        #   in Loop: Header=BB14_244 Depth=1
	movl	56(%rbp), %eax
	subl	pred_SAD_uplayer, %eax
	vcvtsi2ss	%eax, %xmm0, %xmm0
	vcvtsi2ssl	pred_SAD_uplayer, %xmm0, %xmm1
	vmulss	-72(%rbp), %xmm1, %xmm1
	vucomiss	%xmm0, %xmm1
	jbe	.LBB14_267
# %bb.266:                              # %if.then1221
	jmp	.LBB14_301
.LBB14_267:                             # %if.else1222
                                        #   in Loop: Header=BB14_244 Depth=1
	movl	56(%rbp), %eax
	subl	pred_SAD_uplayer, %eax
	vcvtsi2ss	%eax, %xmm0, %xmm0
	vcvtsi2ssl	pred_SAD_uplayer, %xmm0, %xmm1
	vmulss	-80(%rbp), %xmm1, %xmm1
	vucomiss	%xmm0, %xmm1
	jbe	.LBB14_269
# %bb.268:                              # %if.then1229
	jmp	.LBB14_282
.LBB14_269:                             # %if.end1230
                                        #   in Loop: Header=BB14_244 Depth=1
	jmp	.LBB14_270
.LBB14_270:                             # %if.end1231
                                        #   in Loop: Header=BB14_244 Depth=1
	jmp	.LBB14_277
.LBB14_271:                             # %if.else1232
                                        #   in Loop: Header=BB14_244 Depth=1
	movl	56(%rbp), %eax
	subl	pred_SAD_space, %eax
	vcvtsi2ss	%eax, %xmm0, %xmm0
	vcvtsi2ssl	pred_SAD_space, %xmm0, %xmm1
	vmulss	-72(%rbp), %xmm1, %xmm1
	vucomiss	%xmm0, %xmm1
	jbe	.LBB14_273
# %bb.272:                              # %if.then1239
	jmp	.LBB14_301
.LBB14_273:                             # %if.else1240
                                        #   in Loop: Header=BB14_244 Depth=1
	movl	56(%rbp), %eax
	subl	pred_SAD_space, %eax
	vcvtsi2ss	%eax, %xmm0, %xmm0
	vcvtsi2ssl	pred_SAD_space, %xmm0, %xmm1
	vmulss	-80(%rbp), %xmm1, %xmm1
	vucomiss	%xmm0, %xmm1
	jbe	.LBB14_275
# %bb.274:                              # %if.then1247
	jmp	.LBB14_282
.LBB14_275:                             # %if.end1248
                                        #   in Loop: Header=BB14_244 Depth=1
	jmp	.LBB14_276
.LBB14_276:                             # %if.end1249
                                        #   in Loop: Header=BB14_244 Depth=1
	jmp	.LBB14_277
.LBB14_277:                             # %if.end1250
                                        #   in Loop: Header=BB14_244 Depth=1
	jmp	.LBB14_278
.LBB14_278:                             # %if.end1251
                                        #   in Loop: Header=BB14_244 Depth=1
	jmp	.LBB14_279
.LBB14_279:                             # %if.end1252
                                        #   in Loop: Header=BB14_244 Depth=1
	jmp	.LBB14_280
.LBB14_280:                             # %for.inc1253
                                        #   in Loop: Header=BB14_244 Depth=1
	movl	-52(%rbp), %eax
	addl	$1, %eax
	movl	%eax, -52(%rbp)
	jmp	.LBB14_244
.LBB14_281:                             # %for.end1255
	jmp	.LBB14_282
.LBB14_282:                             # %sec_step
	movl	-40(%rbp), %eax
	movl	%eax, -64(%rbp)
	movl	-44(%rbp), %eax
	movl	%eax, -68(%rbp)
	movl	$0, -52(%rbp)
.LBB14_283:                             # %for.cond1256
                                        # =>This Loop Header: Depth=1
                                        #     Child Loop BB14_285 Depth 2
	movl	-52(%rbp), %eax
	cmpl	48(%rbp), %eax
	jge	.LBB14_299
# %bb.284:                              # %for.body1259
                                        #   in Loop: Header=BB14_283 Depth=1
	movl	$1, -132(%rbp)
	movl	$0, -36(%rbp)
.LBB14_285:                             # %for.cond1260
                                        #   Parent Loop BB14_283 Depth=1
                                        # =>  This Inner Loop Header: Depth=2
	cmpl	$6, -36(%rbp)
	jge	.LBB14_295
# %bb.286:                              # %for.body1263
                                        #   in Loop: Header=BB14_285 Depth=2
	movl	-64(%rbp), %eax
	movslq	-36(%rbp), %rcx
	addl	FastIntegerPelBlockMotionSearch.Hexagon_x(,%rcx,4), %eax
	movl	%eax, -12(%rbp)
	movl	-68(%rbp), %eax
	movslq	-36(%rbp), %rcx
	addl	FastIntegerPelBlockMotionSearch.Hexagon_y(,%rcx,4), %eax
	movl	%eax, -16(%rbp)
	movl	-12(%rbp), %edi
	subl	-24(%rbp), %edi
	callq	abs
	cmpl	48(%rbp), %eax
	jg	.LBB14_293
# %bb.287:                              # %land.lhs.true1274
                                        #   in Loop: Header=BB14_285 Depth=2
	movl	-16(%rbp), %edi
	subl	-28(%rbp), %edi
	callq	abs
	cmpl	48(%rbp), %eax
	jg	.LBB14_293
# %bb.288:                              # %if.then1279
                                        #   in Loop: Header=BB14_285 Depth=2
	movq	McostState, %rax
	movl	-16(%rbp), %ecx
	subl	-28(%rbp), %ecx
	addl	48(%rbp), %ecx
	movslq	%ecx, %rcx
	movq	(%rax,%rcx,8), %rax
	movl	-12(%rbp), %ecx
	subl	-24(%rbp), %ecx
	addl	48(%rbp), %ecx
	movslq	%ecx, %rcx
	cmpl	$0, (%rax,%rcx,4)
	jne	.LBB14_292
# %bb.289:                              # %if.then1289
                                        #   in Loop: Header=BB14_285 Depth=2
	movl	-92(%rbp), %eax
	movq	mvbits, %rdx
	movl	-12(%rbp), %esi
	movl	-32(%rbp), %ecx
                                        # kill: def $cl killed $ecx
	shll	%cl, %esi
	subl	-96(%rbp), %esi
	movslq	%esi, %rcx
	movl	(%rdx,%rcx,4), %edx
	movq	mvbits, %rsi
	movl	-16(%rbp), %edi
	movl	-32(%rbp), %ecx
                                        # kill: def $cl killed $ecx
	shll	%cl, %edi
	subl	-88(%rbp), %edi
	movslq	%edi, %rcx
	addl	(%rsi,%rcx,4), %edx
	imull	%edx, %eax
	sarl	$16, %eax
	movl	%eax, -20(%rbp)
	movq	-128(%rbp), %rdi
	movq	-120(%rbp), %rsi
	movq	-112(%rbp), %rdx
	movl	-76(%rbp), %ecx
	movl	-60(%rbp), %r8d
	movl	-84(%rbp), %r9d
	movl	-20(%rbp), %eax
	movl	56(%rbp), %ebx
	movl	-12(%rbp), %r10d
	movl	-16(%rbp), %r11d
	movl	%eax, (%rsp)
	movl	%ebx, 8(%rsp)
	movl	%r10d, 16(%rsp)
	movl	%r11d, 24(%rsp)
	callq	PartCalMad
	movl	%eax, -20(%rbp)
	movl	-20(%rbp), %eax
	movq	McostState, %rcx
	movl	-16(%rbp), %edx
	subl	-28(%rbp), %edx
	addl	48(%rbp), %edx
	movslq	%edx, %rdx
	movq	(%rcx,%rdx,8), %rcx
	movl	-12(%rbp), %edx
	subl	-24(%rbp), %edx
	addl	48(%rbp), %edx
	movslq	%edx, %rdx
	movl	%eax, (%rcx,%rdx,4)
	movl	-20(%rbp), %eax
	cmpl	56(%rbp), %eax
	jge	.LBB14_291
# %bb.290:                              # %if.then1312
                                        #   in Loop: Header=BB14_285 Depth=2
	movl	-12(%rbp), %eax
	movl	%eax, -40(%rbp)
	movl	-16(%rbp), %eax
	movl	%eax, -44(%rbp)
	movl	-20(%rbp), %eax
	movl	%eax, 56(%rbp)
	movl	$0, -132(%rbp)
.LBB14_291:                             # %if.end1313
                                        #   in Loop: Header=BB14_285 Depth=2
	jmp	.LBB14_292
.LBB14_292:                             # %if.end1314
                                        #   in Loop: Header=BB14_285 Depth=2
	jmp	.LBB14_293
.LBB14_293:                             # %if.end1315
                                        #   in Loop: Header=BB14_285 Depth=2
	jmp	.LBB14_294
.LBB14_294:                             # %for.inc1316
                                        #   in Loop: Header=BB14_285 Depth=2
	movl	-36(%rbp), %eax
	addl	$1, %eax
	movl	%eax, -36(%rbp)
	jmp	.LBB14_285
.LBB14_295:                             # %for.end1318
                                        #   in Loop: Header=BB14_283 Depth=1
	cmpl	$0, -132(%rbp)
	je	.LBB14_297
# %bb.296:                              # %if.then1320
	jmp	.LBB14_300
.LBB14_297:                             # %if.end1321
                                        #   in Loop: Header=BB14_283 Depth=1
	movl	-40(%rbp), %eax
	movl	%eax, -64(%rbp)
	movl	-44(%rbp), %eax
	movl	%eax, -68(%rbp)
# %bb.298:                              # %for.inc1322
                                        #   in Loop: Header=BB14_283 Depth=1
	movl	-52(%rbp), %eax
	addl	$1, %eax
	movl	%eax, -52(%rbp)
	jmp	.LBB14_283
.LBB14_299:                             # %for.end1324.loopexit
	jmp	.LBB14_300
.LBB14_300:                             # %for.end1324
	jmp	.LBB14_301
.LBB14_301:                             # %third_step
	movl	-40(%rbp), %eax
	movl	%eax, -64(%rbp)
	movl	-44(%rbp), %eax
	movl	%eax, -68(%rbp)
	movl	$0, -52(%rbp)
.LBB14_302:                             # %for.cond1325
                                        # =>This Loop Header: Depth=1
                                        #     Child Loop BB14_304 Depth 2
	movl	-52(%rbp), %eax
	cmpl	48(%rbp), %eax
	jge	.LBB14_318
# %bb.303:                              # %for.body1328
                                        #   in Loop: Header=BB14_302 Depth=1
	movl	$65536, -172(%rbp)      # imm = 0x10000
	movl	$1, -132(%rbp)
	movl	$0, -36(%rbp)
.LBB14_304:                             # %for.cond1329
                                        #   Parent Loop BB14_302 Depth=1
                                        # =>  This Inner Loop Header: Depth=2
	cmpl	$4, -36(%rbp)
	jge	.LBB14_314
# %bb.305:                              # %for.body1332
                                        #   in Loop: Header=BB14_304 Depth=2
	movl	-64(%rbp), %eax
	movslq	-36(%rbp), %rcx
	addl	FastIntegerPelBlockMotionSearch.Diamond_x(,%rcx,4), %eax
	movl	%eax, -12(%rbp)
	movl	-68(%rbp), %eax
	movslq	-36(%rbp), %rcx
	addl	FastIntegerPelBlockMotionSearch.Diamond_y(,%rcx,4), %eax
	movl	%eax, -16(%rbp)
	movl	-12(%rbp), %edi
	subl	-24(%rbp), %edi
	callq	abs
	cmpl	48(%rbp), %eax
	jg	.LBB14_312
# %bb.306:                              # %land.lhs.true1343
                                        #   in Loop: Header=BB14_304 Depth=2
	movl	-16(%rbp), %edi
	subl	-28(%rbp), %edi
	callq	abs
	cmpl	48(%rbp), %eax
	jg	.LBB14_312
# %bb.307:                              # %if.then1348
                                        #   in Loop: Header=BB14_304 Depth=2
	movq	McostState, %rax
	movl	-16(%rbp), %ecx
	subl	-28(%rbp), %ecx
	addl	48(%rbp), %ecx
	movslq	%ecx, %rcx
	movq	(%rax,%rcx,8), %rax
	movl	-12(%rbp), %ecx
	subl	-24(%rbp), %ecx
	addl	48(%rbp), %ecx
	movslq	%ecx, %rcx
	cmpl	$0, (%rax,%rcx,4)
	jne	.LBB14_311
# %bb.308:                              # %if.then1358
                                        #   in Loop: Header=BB14_304 Depth=2
	movl	-92(%rbp), %eax
	movq	mvbits, %rdx
	movl	-12(%rbp), %esi
	movl	-32(%rbp), %ecx
                                        # kill: def $cl killed $ecx
	shll	%cl, %esi
	subl	-96(%rbp), %esi
	movslq	%esi, %rcx
	movl	(%rdx,%rcx,4), %edx
	movq	mvbits, %rsi
	movl	-16(%rbp), %edi
	movl	-32(%rbp), %ecx
                                        # kill: def $cl killed $ecx
	shll	%cl, %edi
	subl	-88(%rbp), %edi
	movslq	%edi, %rcx
	addl	(%rsi,%rcx,4), %edx
	imull	%edx, %eax
	sarl	$16, %eax
	movl	%eax, -20(%rbp)
	movq	-128(%rbp), %rdi
	movq	-120(%rbp), %rsi
	movq	-112(%rbp), %rdx
	movl	-76(%rbp), %ecx
	movl	-60(%rbp), %r8d
	movl	-84(%rbp), %r9d
	movl	-20(%rbp), %eax
	movl	56(%rbp), %ebx
	movl	-12(%rbp), %r10d
	movl	-16(%rbp), %r11d
	movl	%eax, (%rsp)
	movl	%ebx, 8(%rsp)
	movl	%r10d, 16(%rsp)
	movl	%r11d, 24(%rsp)
	callq	PartCalMad
	movl	%eax, -20(%rbp)
	movl	-20(%rbp), %eax
	movq	McostState, %rcx
	movl	-16(%rbp), %edx
	subl	-28(%rbp), %edx
	addl	48(%rbp), %edx
	movslq	%edx, %rdx
	movq	(%rcx,%rdx,8), %rcx
	movl	-12(%rbp), %edx
	subl	-24(%rbp), %edx
	addl	48(%rbp), %edx
	movslq	%edx, %rdx
	movl	%eax, (%rcx,%rdx,4)
	movl	-20(%rbp), %eax
	cmpl	56(%rbp), %eax
	jge	.LBB14_310
# %bb.309:                              # %if.then1381
                                        #   in Loop: Header=BB14_304 Depth=2
	movl	-12(%rbp), %eax
	movl	%eax, -40(%rbp)
	movl	-16(%rbp), %eax
	movl	%eax, -44(%rbp)
	movl	-20(%rbp), %eax
	movl	%eax, 56(%rbp)
	movl	$0, -132(%rbp)
.LBB14_310:                             # %if.end1382
                                        #   in Loop: Header=BB14_304 Depth=2
	jmp	.LBB14_311
.LBB14_311:                             # %if.end1383
                                        #   in Loop: Header=BB14_304 Depth=2
	jmp	.LBB14_312
.LBB14_312:                             # %if.end1384
                                        #   in Loop: Header=BB14_304 Depth=2
	jmp	.LBB14_313
.LBB14_313:                             # %for.inc1385
                                        #   in Loop: Header=BB14_304 Depth=2
	movl	-36(%rbp), %eax
	addl	$1, %eax
	movl	%eax, -36(%rbp)
	jmp	.LBB14_304
.LBB14_314:                             # %for.end1387
                                        #   in Loop: Header=BB14_302 Depth=1
	cmpl	$0, -132(%rbp)
	je	.LBB14_316
# %bb.315:                              # %if.then1389
	jmp	.LBB14_319
.LBB14_316:                             # %if.end1390
                                        #   in Loop: Header=BB14_302 Depth=1
	movl	-40(%rbp), %eax
	movl	%eax, -64(%rbp)
	movl	-44(%rbp), %eax
	movl	%eax, -68(%rbp)
# %bb.317:                              # %for.inc1391
                                        #   in Loop: Header=BB14_302 Depth=1
	movl	-52(%rbp), %eax
	addl	$1, %eax
	movl	%eax, -52(%rbp)
	jmp	.LBB14_302
.LBB14_318:                             # %for.end1393.loopexit
	jmp	.LBB14_319
.LBB14_319:                             # %for.end1393
	movl	-40(%rbp), %eax
	subl	-104(%rbp), %eax
	movq	32(%rbp), %rcx
	movw	%ax, (%rcx)
	movl	-44(%rbp), %eax
	subl	-100(%rbp), %eax
	movq	40(%rbp), %rcx
	movw	%ax, (%rcx)
	movl	56(%rbp), %ebx
	cmpl	$1022571987, -152(%rbp) # imm = 0x3CF335D3
	jne	.LBB14_321
.LBB14_320:
	movl	%ebx, %eax
	addq	$200, %rsp
	popq	%rbx
	popq	%rbp
	.cfi_def_cfa %rsp, 8
	retq
.LBB14_321:                             # %func_exit
	.cfi_def_cfa %rbp, 16
	callq	detect_breach
	jmp	.LBB14_320
.Lfunc_end14:
	.size	FastIntegerPelBlockMotionSearch.1, .Lfunc_end14-FastIntegerPelBlockMotionSearch.1
	.cfi_endproc
                                        # -- End function
	.globl	free_mem_mincost.2      # -- Begin function free_mem_mincost.2
	.p2align	4, 0x90
	.type	free_mem_mincost.2,@function
free_mem_mincost.2:                     # @free_mem_mincost.2
	.cfi_startproc
# %bb.0:                                # %entry
	pushq	%rbp
	.cfi_def_cfa_offset 16
	.cfi_offset %rbp, -16
	movq	%rsp, %rbp
	.cfi_def_cfa_register %rbp
	subq	$32, %rsp
	movl	$2081970412, -28(%rbp)  # imm = 0x7C1858EC
	movq	%rdi, -24(%rbp)
	movl	$0, -4(%rbp)
.LBB15_1:                               # %for.cond
                                        # =>This Loop Header: Depth=1
                                        #     Child Loop BB15_3 Depth 2
                                        #       Child Loop BB15_5 Depth 3
                                        #         Child Loop BB15_7 Depth 4
	movl	-4(%rbp), %ecx
	movq	img, %rax
	movl	52(%rax), %eax
	cltd
	movl	$4, %esi
	idivl	%esi
	cmpl	%eax, %ecx
	jge	.LBB15_16
# %bb.2:                                # %for.body
                                        #   in Loop: Header=BB15_1 Depth=1
	movl	$0, -8(%rbp)
.LBB15_3:                               # %for.cond1
                                        #   Parent Loop BB15_1 Depth=1
                                        # =>  This Loop Header: Depth=2
                                        #       Child Loop BB15_5 Depth 3
                                        #         Child Loop BB15_7 Depth 4
	movl	-8(%rbp), %ecx
	movq	img, %rax
	movl	60(%rax), %eax
	cltd
	movl	$4, %esi
	idivl	%esi
	cmpl	%eax, %ecx
	jge	.LBB15_14
# %bb.4:                                # %for.body4
                                        #   in Loop: Header=BB15_3 Depth=2
	movl	$0, -12(%rbp)
.LBB15_5:                               # %for.cond5
                                        #   Parent Loop BB15_1 Depth=1
                                        #     Parent Loop BB15_3 Depth=2
                                        # =>    This Loop Header: Depth=3
                                        #         Child Loop BB15_7 Depth 4
	movl	-12(%rbp), %eax
	movq	img, %rcx
	cmpl	36(%rcx), %eax
	jge	.LBB15_12
# %bb.6:                                # %for.body7
                                        #   in Loop: Header=BB15_5 Depth=3
	movl	$0, -16(%rbp)
.LBB15_7:                               # %for.cond8
                                        #   Parent Loop BB15_1 Depth=1
                                        #     Parent Loop BB15_3 Depth=2
                                        #       Parent Loop BB15_5 Depth=3
                                        # =>      This Inner Loop Header: Depth=4
	cmpl	$9, -16(%rbp)
	jge	.LBB15_10
# %bb.8:                                # %for.body10
                                        #   in Loop: Header=BB15_7 Depth=4
	movq	-24(%rbp), %rax
	movslq	-4(%rbp), %rcx
	movq	(%rax,%rcx,8), %rax
	movslq	-8(%rbp), %rcx
	movq	(%rax,%rcx,8), %rax
	movslq	-12(%rbp), %rcx
	movq	(%rax,%rcx,8), %rax
	movslq	-16(%rbp), %rcx
	movq	(%rax,%rcx,8), %rdi
	callq	free
# %bb.9:                                # %for.inc
                                        #   in Loop: Header=BB15_7 Depth=4
	movl	-16(%rbp), %eax
	addl	$1, %eax
	movl	%eax, -16(%rbp)
	jmp	.LBB15_7
.LBB15_10:                              # %for.end
                                        #   in Loop: Header=BB15_5 Depth=3
	movq	-24(%rbp), %rax
	movslq	-4(%rbp), %rcx
	movq	(%rax,%rcx,8), %rax
	movslq	-8(%rbp), %rcx
	movq	(%rax,%rcx,8), %rax
	movslq	-12(%rbp), %rcx
	movq	(%rax,%rcx,8), %rdi
	callq	free
# %bb.11:                               # %for.inc23
                                        #   in Loop: Header=BB15_5 Depth=3
	movl	-12(%rbp), %eax
	addl	$1, %eax
	movl	%eax, -12(%rbp)
	jmp	.LBB15_5
.LBB15_12:                              # %for.end25
                                        #   in Loop: Header=BB15_3 Depth=2
	movq	-24(%rbp), %rax
	movslq	-4(%rbp), %rcx
	movq	(%rax,%rcx,8), %rax
	movslq	-8(%rbp), %rcx
	movq	(%rax,%rcx,8), %rdi
	callq	free
# %bb.13:                               # %for.inc30
                                        #   in Loop: Header=BB15_3 Depth=2
	movl	-8(%rbp), %eax
	addl	$1, %eax
	movl	%eax, -8(%rbp)
	jmp	.LBB15_3
.LBB15_14:                              # %for.end32
                                        #   in Loop: Header=BB15_1 Depth=1
	movq	-24(%rbp), %rax
	movslq	-4(%rbp), %rcx
	movq	(%rax,%rcx,8), %rdi
	callq	free
# %bb.15:                               # %for.inc35
                                        #   in Loop: Header=BB15_1 Depth=1
	movl	-4(%rbp), %eax
	addl	$1, %eax
	movl	%eax, -4(%rbp)
	jmp	.LBB15_1
.LBB15_16:                              # %for.end37
	movq	-24(%rbp), %rdi
	callq	free
	cmpl	$2081970412, -28(%rbp)  # imm = 0x7C1858EC
	jne	.LBB15_18
.LBB15_17:
	addq	$32, %rsp
	popq	%rbp
	.cfi_def_cfa %rsp, 8
	retq
.LBB15_18:                              # %func_exit
	.cfi_def_cfa %rbp, 16
	callq	detect_breach
	jmp	.LBB15_17
.Lfunc_end15:
	.size	free_mem_mincost.2, .Lfunc_end15-free_mem_mincost.2
	.cfi_endproc
                                        # -- End function
	.globl	get_mem_bwmincost.3     # -- Begin function get_mem_bwmincost.3
	.p2align	4, 0x90
	.type	get_mem_bwmincost.3,@function
get_mem_bwmincost.3:                    # @get_mem_bwmincost.3
	.cfi_startproc
# %bb.0:                                # %entry
	pushq	%rbp
	.cfi_def_cfa_offset 16
	.cfi_offset %rbp, -16
	movq	%rsp, %rbp
	.cfi_def_cfa_register %rbp
	pushq	%rbx
	subq	$40, %rsp
	.cfi_offset %rbx, -24
	movl	$1248557137, -36(%rbp)  # imm = 0x4A6B7851
	movq	%rdi, -32(%rbp)
	movq	img, %rax
	movl	52(%rax), %eax
	cltd
	movl	$4, %ecx
	idivl	%ecx
	movslq	%eax, %rdi
	movl	$8, %esi
	callq	calloc
	movq	-32(%rbp), %rcx
	movq	%rax, (%rcx)
	cmpq	$0, %rax
	jne	.LBB16_2
# %bb.1:                                # %if.then
	movabsq	$.L.str, %rdi
	callq	no_mem_exit
.LBB16_2:                               # %if.end
	movl	$0, -12(%rbp)
.LBB16_3:                               # %for.cond
                                        # =>This Loop Header: Depth=1
                                        #     Child Loop BB16_7 Depth 2
                                        #       Child Loop BB16_11 Depth 3
                                        #         Child Loop BB16_15 Depth 4
	movl	-12(%rbp), %ecx
	movq	img, %rax
	movl	52(%rax), %eax
	cltd
	movl	$4, %esi
	idivl	%esi
	cmpl	%eax, %ecx
	jge	.LBB16_26
# %bb.4:                                # %for.body
                                        #   in Loop: Header=BB16_3 Depth=1
	movq	img, %rax
	movl	60(%rax), %eax
	cltd
	movl	$4, %ecx
	idivl	%ecx
	movslq	%eax, %rdi
	movl	$8, %esi
	callq	calloc
	movq	-32(%rbp), %rcx
	movq	(%rcx), %rcx
	movslq	-12(%rbp), %rdx
	movq	%rax, (%rcx,%rdx,8)
	cmpq	$0, %rax
	jne	.LBB16_6
# %bb.5:                                # %if.then11
                                        #   in Loop: Header=BB16_3 Depth=1
	movabsq	$.L.str, %rdi
	callq	no_mem_exit
.LBB16_6:                               # %if.end12
                                        #   in Loop: Header=BB16_3 Depth=1
	movl	$0, -16(%rbp)
.LBB16_7:                               # %for.cond13
                                        #   Parent Loop BB16_3 Depth=1
                                        # =>  This Loop Header: Depth=2
                                        #       Child Loop BB16_11 Depth 3
                                        #         Child Loop BB16_15 Depth 4
	movl	-16(%rbp), %ecx
	movq	img, %rax
	movl	60(%rax), %eax
	cltd
	movl	$4, %esi
	idivl	%esi
	cmpl	%eax, %ecx
	jge	.LBB16_24
# %bb.8:                                # %for.body18
                                        #   in Loop: Header=BB16_7 Depth=2
	movq	img, %rax
	movslq	36(%rax), %rdi
	movl	$8, %esi
	callq	calloc
	movq	-32(%rbp), %rcx
	movq	(%rcx), %rcx
	movslq	-12(%rbp), %rdx
	movq	(%rcx,%rdx,8), %rcx
	movslq	-16(%rbp), %rdx
	movq	%rax, (%rcx,%rdx,8)
	cmpq	$0, %rax
	jne	.LBB16_10
# %bb.9:                                # %if.then27
                                        #   in Loop: Header=BB16_7 Depth=2
	movabsq	$.L.str, %rdi
	callq	no_mem_exit
.LBB16_10:                              # %if.end28
                                        #   in Loop: Header=BB16_7 Depth=2
	movl	$0, -20(%rbp)
.LBB16_11:                              # %for.cond29
                                        #   Parent Loop BB16_3 Depth=1
                                        #     Parent Loop BB16_7 Depth=2
                                        # =>    This Loop Header: Depth=3
                                        #         Child Loop BB16_15 Depth 4
	movl	-20(%rbp), %eax
	movq	img, %rcx
	cmpl	36(%rcx), %eax
	jge	.LBB16_22
# %bb.12:                               # %for.body33
                                        #   in Loop: Header=BB16_11 Depth=3
	movl	$9, %edi
	movl	$8, %esi
	callq	calloc
	movq	-32(%rbp), %rcx
	movq	(%rcx), %rcx
	movslq	-12(%rbp), %rdx
	movq	(%rcx,%rdx,8), %rcx
	movslq	-16(%rbp), %rdx
	movq	(%rcx,%rdx,8), %rcx
	movslq	-20(%rbp), %rdx
	movq	%rax, (%rcx,%rdx,8)
	cmpq	$0, %rax
	jne	.LBB16_14
# %bb.13:                               # %if.then43
                                        #   in Loop: Header=BB16_11 Depth=3
	movabsq	$.L.str, %rdi
	callq	no_mem_exit
.LBB16_14:                              # %if.end44
                                        #   in Loop: Header=BB16_11 Depth=3
	movl	$0, -24(%rbp)
.LBB16_15:                              # %for.cond45
                                        #   Parent Loop BB16_3 Depth=1
                                        #     Parent Loop BB16_7 Depth=2
                                        #       Parent Loop BB16_11 Depth=3
                                        # =>      This Inner Loop Header: Depth=4
	cmpl	$9, -24(%rbp)
	jge	.LBB16_20
# %bb.16:                               # %for.body48
                                        #   in Loop: Header=BB16_15 Depth=4
	movl	$3, %edi
	movl	$4, %esi
	callq	calloc
	movq	-32(%rbp), %rcx
	movq	(%rcx), %rcx
	movslq	-12(%rbp), %rdx
	movq	(%rcx,%rdx,8), %rcx
	movslq	-16(%rbp), %rdx
	movq	(%rcx,%rdx,8), %rcx
	movslq	-20(%rbp), %rdx
	movq	(%rcx,%rdx,8), %rcx
	movslq	-24(%rbp), %rdx
	movq	%rax, (%rcx,%rdx,8)
	cmpq	$0, %rax
	jne	.LBB16_18
# %bb.17:                               # %if.then60
                                        #   in Loop: Header=BB16_15 Depth=4
	movabsq	$.L.str, %rdi
	callq	no_mem_exit
.LBB16_18:                              # %if.end61
                                        #   in Loop: Header=BB16_15 Depth=4
	jmp	.LBB16_19
.LBB16_19:                              # %for.inc
                                        #   in Loop: Header=BB16_15 Depth=4
	movl	-24(%rbp), %eax
	addl	$1, %eax
	movl	%eax, -24(%rbp)
	jmp	.LBB16_15
.LBB16_20:                              # %for.end
                                        #   in Loop: Header=BB16_11 Depth=3
	jmp	.LBB16_21
.LBB16_21:                              # %for.inc62
                                        #   in Loop: Header=BB16_11 Depth=3
	movl	-20(%rbp), %eax
	addl	$1, %eax
	movl	%eax, -20(%rbp)
	jmp	.LBB16_11
.LBB16_22:                              # %for.end64
                                        #   in Loop: Header=BB16_7 Depth=2
	jmp	.LBB16_23
.LBB16_23:                              # %for.inc65
                                        #   in Loop: Header=BB16_7 Depth=2
	movl	-16(%rbp), %eax
	addl	$1, %eax
	movl	%eax, -16(%rbp)
	jmp	.LBB16_7
.LBB16_24:                              # %for.end67
                                        #   in Loop: Header=BB16_3 Depth=1
	jmp	.LBB16_25
.LBB16_25:                              # %for.inc68
                                        #   in Loop: Header=BB16_3 Depth=1
	movl	-12(%rbp), %eax
	addl	$1, %eax
	movl	%eax, -12(%rbp)
	jmp	.LBB16_3
.LBB16_26:                              # %for.end70
	movq	img, %rax
	movl	52(%rax), %eax
	cltd
	movl	$4, %ecx
	idivl	%ecx
	movq	img, %rdx
	imull	60(%rdx), %eax
	cltd
	idivl	%ecx
	movq	img, %rcx
	imull	36(%rcx), %eax
	imull	$9, %eax, %eax
	imull	$3, %eax, %eax
	movslq	%eax, %rbx
	shlq	$2, %rbx
	cmpl	$1248557137, -36(%rbp)  # imm = 0x4A6B7851
	jne	.LBB16_28
.LBB16_27:
	movl	%ebx, %eax
	addq	$40, %rsp
	popq	%rbx
	popq	%rbp
	.cfi_def_cfa %rsp, 8
	retq
.LBB16_28:                              # %func_exit
	.cfi_def_cfa %rbp, 16
	callq	detect_breach
	jmp	.LBB16_27
.Lfunc_end16:
	.size	get_mem_bwmincost.3, .Lfunc_end16-get_mem_bwmincost.3
	.cfi_endproc
                                        # -- End function
	.globl	free_mem_bwmincost.4    # -- Begin function free_mem_bwmincost.4
	.p2align	4, 0x90
	.type	free_mem_bwmincost.4,@function
free_mem_bwmincost.4:                   # @free_mem_bwmincost.4
	.cfi_startproc
# %bb.0:                                # %entry
	pushq	%rbp
	.cfi_def_cfa_offset 16
	.cfi_offset %rbp, -16
	movq	%rsp, %rbp
	.cfi_def_cfa_register %rbp
	subq	$32, %rsp
	movl	$1472354117, -28(%rbp)  # imm = 0x57C25745
	movq	%rdi, -24(%rbp)
	movl	$0, -4(%rbp)
.LBB17_1:                               # %for.cond
                                        # =>This Loop Header: Depth=1
                                        #     Child Loop BB17_3 Depth 2
                                        #       Child Loop BB17_5 Depth 3
                                        #         Child Loop BB17_7 Depth 4
	movl	-4(%rbp), %ecx
	movq	img, %rax
	movl	52(%rax), %eax
	cltd
	movl	$4, %esi
	idivl	%esi
	cmpl	%eax, %ecx
	jge	.LBB17_16
# %bb.2:                                # %for.body
                                        #   in Loop: Header=BB17_1 Depth=1
	movl	$0, -8(%rbp)
.LBB17_3:                               # %for.cond1
                                        #   Parent Loop BB17_1 Depth=1
                                        # =>  This Loop Header: Depth=2
                                        #       Child Loop BB17_5 Depth 3
                                        #         Child Loop BB17_7 Depth 4
	movl	-8(%rbp), %ecx
	movq	img, %rax
	movl	60(%rax), %eax
	cltd
	movl	$4, %esi
	idivl	%esi
	cmpl	%eax, %ecx
	jge	.LBB17_14
# %bb.4:                                # %for.body4
                                        #   in Loop: Header=BB17_3 Depth=2
	movl	$0, -12(%rbp)
.LBB17_5:                               # %for.cond5
                                        #   Parent Loop BB17_1 Depth=1
                                        #     Parent Loop BB17_3 Depth=2
                                        # =>    This Loop Header: Depth=3
                                        #         Child Loop BB17_7 Depth 4
	movl	-12(%rbp), %eax
	movq	img, %rcx
	cmpl	36(%rcx), %eax
	jge	.LBB17_12
# %bb.6:                                # %for.body7
                                        #   in Loop: Header=BB17_5 Depth=3
	movl	$0, -16(%rbp)
.LBB17_7:                               # %for.cond8
                                        #   Parent Loop BB17_1 Depth=1
                                        #     Parent Loop BB17_3 Depth=2
                                        #       Parent Loop BB17_5 Depth=3
                                        # =>      This Inner Loop Header: Depth=4
	cmpl	$9, -16(%rbp)
	jge	.LBB17_10
# %bb.8:                                # %for.body10
                                        #   in Loop: Header=BB17_7 Depth=4
	movq	-24(%rbp), %rax
	movslq	-4(%rbp), %rcx
	movq	(%rax,%rcx,8), %rax
	movslq	-8(%rbp), %rcx
	movq	(%rax,%rcx,8), %rax
	movslq	-12(%rbp), %rcx
	movq	(%rax,%rcx,8), %rax
	movslq	-16(%rbp), %rcx
	movq	(%rax,%rcx,8), %rdi
	callq	free
# %bb.9:                                # %for.inc
                                        #   in Loop: Header=BB17_7 Depth=4
	movl	-16(%rbp), %eax
	addl	$1, %eax
	movl	%eax, -16(%rbp)
	jmp	.LBB17_7
.LBB17_10:                              # %for.end
                                        #   in Loop: Header=BB17_5 Depth=3
	movq	-24(%rbp), %rax
	movslq	-4(%rbp), %rcx
	movq	(%rax,%rcx,8), %rax
	movslq	-8(%rbp), %rcx
	movq	(%rax,%rcx,8), %rax
	movslq	-12(%rbp), %rcx
	movq	(%rax,%rcx,8), %rdi
	callq	free
# %bb.11:                               # %for.inc23
                                        #   in Loop: Header=BB17_5 Depth=3
	movl	-12(%rbp), %eax
	addl	$1, %eax
	movl	%eax, -12(%rbp)
	jmp	.LBB17_5
.LBB17_12:                              # %for.end25
                                        #   in Loop: Header=BB17_3 Depth=2
	movq	-24(%rbp), %rax
	movslq	-4(%rbp), %rcx
	movq	(%rax,%rcx,8), %rax
	movslq	-8(%rbp), %rcx
	movq	(%rax,%rcx,8), %rdi
	callq	free
# %bb.13:                               # %for.inc30
                                        #   in Loop: Header=BB17_3 Depth=2
	movl	-8(%rbp), %eax
	addl	$1, %eax
	movl	%eax, -8(%rbp)
	jmp	.LBB17_3
.LBB17_14:                              # %for.end32
                                        #   in Loop: Header=BB17_1 Depth=1
	movq	-24(%rbp), %rax
	movslq	-4(%rbp), %rcx
	movq	(%rax,%rcx,8), %rdi
	callq	free
# %bb.15:                               # %for.inc35
                                        #   in Loop: Header=BB17_1 Depth=1
	movl	-4(%rbp), %eax
	addl	$1, %eax
	movl	%eax, -4(%rbp)
	jmp	.LBB17_1
.LBB17_16:                              # %for.end37
	movq	-24(%rbp), %rdi
	callq	free
	cmpl	$1472354117, -28(%rbp)  # imm = 0x57C25745
	jne	.LBB17_18
.LBB17_17:
	addq	$32, %rsp
	popq	%rbp
	.cfi_def_cfa %rsp, 8
	retq
.LBB17_18:                              # %func_exit
	.cfi_def_cfa %rbp, 16
	callq	detect_breach
	jmp	.LBB17_17
.Lfunc_end17:
	.size	free_mem_bwmincost.4, .Lfunc_end17-free_mem_bwmincost.4
	.cfi_endproc
                                        # -- End function
	.globl	free_mem_bwmincost.5    # -- Begin function free_mem_bwmincost.5
	.p2align	4, 0x90
	.type	free_mem_bwmincost.5,@function
free_mem_bwmincost.5:                   # @free_mem_bwmincost.5
	.cfi_startproc
# %bb.0:                                # %entry
	pushq	%rbp
	.cfi_def_cfa_offset 16
	.cfi_offset %rbp, -16
	movq	%rsp, %rbp
	.cfi_def_cfa_register %rbp
	subq	$32, %rsp
	movl	$863977817, -28(%rbp)   # imm = 0x337F4159
	movq	%rdi, -24(%rbp)
	movl	$0, -4(%rbp)
.LBB18_1:                               # %for.cond
                                        # =>This Loop Header: Depth=1
                                        #     Child Loop BB18_3 Depth 2
                                        #       Child Loop BB18_5 Depth 3
                                        #         Child Loop BB18_7 Depth 4
	movl	-4(%rbp), %ecx
	movq	img, %rax
	movl	52(%rax), %eax
	cltd
	movl	$4, %esi
	idivl	%esi
	cmpl	%eax, %ecx
	jge	.LBB18_16
# %bb.2:                                # %for.body
                                        #   in Loop: Header=BB18_1 Depth=1
	movl	$0, -8(%rbp)
.LBB18_3:                               # %for.cond1
                                        #   Parent Loop BB18_1 Depth=1
                                        # =>  This Loop Header: Depth=2
                                        #       Child Loop BB18_5 Depth 3
                                        #         Child Loop BB18_7 Depth 4
	movl	-8(%rbp), %ecx
	movq	img, %rax
	movl	60(%rax), %eax
	cltd
	movl	$4, %esi
	idivl	%esi
	cmpl	%eax, %ecx
	jge	.LBB18_14
# %bb.4:                                # %for.body4
                                        #   in Loop: Header=BB18_3 Depth=2
	movl	$0, -12(%rbp)
.LBB18_5:                               # %for.cond5
                                        #   Parent Loop BB18_1 Depth=1
                                        #     Parent Loop BB18_3 Depth=2
                                        # =>    This Loop Header: Depth=3
                                        #         Child Loop BB18_7 Depth 4
	movl	-12(%rbp), %eax
	movq	img, %rcx
	cmpl	36(%rcx), %eax
	jge	.LBB18_12
# %bb.6:                                # %for.body7
                                        #   in Loop: Header=BB18_5 Depth=3
	movl	$0, -16(%rbp)
.LBB18_7:                               # %for.cond8
                                        #   Parent Loop BB18_1 Depth=1
                                        #     Parent Loop BB18_3 Depth=2
                                        #       Parent Loop BB18_5 Depth=3
                                        # =>      This Inner Loop Header: Depth=4
	cmpl	$9, -16(%rbp)
	jge	.LBB18_10
# %bb.8:                                # %for.body10
                                        #   in Loop: Header=BB18_7 Depth=4
	movq	-24(%rbp), %rax
	movslq	-4(%rbp), %rcx
	movq	(%rax,%rcx,8), %rax
	movslq	-8(%rbp), %rcx
	movq	(%rax,%rcx,8), %rax
	movslq	-12(%rbp), %rcx
	movq	(%rax,%rcx,8), %rax
	movslq	-16(%rbp), %rcx
	movq	(%rax,%rcx,8), %rdi
	callq	free
# %bb.9:                                # %for.inc
                                        #   in Loop: Header=BB18_7 Depth=4
	movl	-16(%rbp), %eax
	addl	$1, %eax
	movl	%eax, -16(%rbp)
	jmp	.LBB18_7
.LBB18_10:                              # %for.end
                                        #   in Loop: Header=BB18_5 Depth=3
	movq	-24(%rbp), %rax
	movslq	-4(%rbp), %rcx
	movq	(%rax,%rcx,8), %rax
	movslq	-8(%rbp), %rcx
	movq	(%rax,%rcx,8), %rax
	movslq	-12(%rbp), %rcx
	movq	(%rax,%rcx,8), %rdi
	callq	free
# %bb.11:                               # %for.inc23
                                        #   in Loop: Header=BB18_5 Depth=3
	movl	-12(%rbp), %eax
	addl	$1, %eax
	movl	%eax, -12(%rbp)
	jmp	.LBB18_5
.LBB18_12:                              # %for.end25
                                        #   in Loop: Header=BB18_3 Depth=2
	movq	-24(%rbp), %rax
	movslq	-4(%rbp), %rcx
	movq	(%rax,%rcx,8), %rax
	movslq	-8(%rbp), %rcx
	movq	(%rax,%rcx,8), %rdi
	callq	free
# %bb.13:                               # %for.inc30
                                        #   in Loop: Header=BB18_3 Depth=2
	movl	-8(%rbp), %eax
	addl	$1, %eax
	movl	%eax, -8(%rbp)
	jmp	.LBB18_3
.LBB18_14:                              # %for.end32
                                        #   in Loop: Header=BB18_1 Depth=1
	movq	-24(%rbp), %rax
	movslq	-4(%rbp), %rcx
	movq	(%rax,%rcx,8), %rdi
	callq	free
# %bb.15:                               # %for.inc35
                                        #   in Loop: Header=BB18_1 Depth=1
	movl	-4(%rbp), %eax
	addl	$1, %eax
	movl	%eax, -4(%rbp)
	jmp	.LBB18_1
.LBB18_16:                              # %for.end37
	movq	-24(%rbp), %rdi
	callq	free
	cmpl	$863977817, -28(%rbp)   # imm = 0x337F4159
	jne	.LBB18_18
.LBB18_17:
	addq	$32, %rsp
	popq	%rbp
	.cfi_def_cfa %rsp, 8
	retq
.LBB18_18:                              # %func_exit
	.cfi_def_cfa %rbp, 16
	callq	detect_breach
	jmp	.LBB18_17
.Lfunc_end18:
	.size	free_mem_bwmincost.5, .Lfunc_end18-free_mem_bwmincost.5
	.cfi_endproc
                                        # -- End function
	.globl	free_mem_mincost.6      # -- Begin function free_mem_mincost.6
	.p2align	4, 0x90
	.type	free_mem_mincost.6,@function
free_mem_mincost.6:                     # @free_mem_mincost.6
	.cfi_startproc
# %bb.0:                                # %entry
	pushq	%rbp
	.cfi_def_cfa_offset 16
	.cfi_offset %rbp, -16
	movq	%rsp, %rbp
	.cfi_def_cfa_register %rbp
	subq	$32, %rsp
	movl	$1572144179, -28(%rbp)  # imm = 0x5DB50433
	movq	%rdi, -24(%rbp)
	movl	$0, -4(%rbp)
.LBB19_1:                               # %for.cond
                                        # =>This Loop Header: Depth=1
                                        #     Child Loop BB19_3 Depth 2
                                        #       Child Loop BB19_5 Depth 3
                                        #         Child Loop BB19_7 Depth 4
	movl	-4(%rbp), %ecx
	movq	img, %rax
	movl	52(%rax), %eax
	cltd
	movl	$4, %esi
	idivl	%esi
	cmpl	%eax, %ecx
	jge	.LBB19_16
# %bb.2:                                # %for.body
                                        #   in Loop: Header=BB19_1 Depth=1
	movl	$0, -8(%rbp)
.LBB19_3:                               # %for.cond1
                                        #   Parent Loop BB19_1 Depth=1
                                        # =>  This Loop Header: Depth=2
                                        #       Child Loop BB19_5 Depth 3
                                        #         Child Loop BB19_7 Depth 4
	movl	-8(%rbp), %ecx
	movq	img, %rax
	movl	60(%rax), %eax
	cltd
	movl	$4, %esi
	idivl	%esi
	cmpl	%eax, %ecx
	jge	.LBB19_14
# %bb.4:                                # %for.body4
                                        #   in Loop: Header=BB19_3 Depth=2
	movl	$0, -12(%rbp)
.LBB19_5:                               # %for.cond5
                                        #   Parent Loop BB19_1 Depth=1
                                        #     Parent Loop BB19_3 Depth=2
                                        # =>    This Loop Header: Depth=3
                                        #         Child Loop BB19_7 Depth 4
	movl	-12(%rbp), %eax
	movq	img, %rcx
	cmpl	36(%rcx), %eax
	jge	.LBB19_12
# %bb.6:                                # %for.body7
                                        #   in Loop: Header=BB19_5 Depth=3
	movl	$0, -16(%rbp)
.LBB19_7:                               # %for.cond8
                                        #   Parent Loop BB19_1 Depth=1
                                        #     Parent Loop BB19_3 Depth=2
                                        #       Parent Loop BB19_5 Depth=3
                                        # =>      This Inner Loop Header: Depth=4
	cmpl	$9, -16(%rbp)
	jge	.LBB19_10
# %bb.8:                                # %for.body10
                                        #   in Loop: Header=BB19_7 Depth=4
	movq	-24(%rbp), %rax
	movslq	-4(%rbp), %rcx
	movq	(%rax,%rcx,8), %rax
	movslq	-8(%rbp), %rcx
	movq	(%rax,%rcx,8), %rax
	movslq	-12(%rbp), %rcx
	movq	(%rax,%rcx,8), %rax
	movslq	-16(%rbp), %rcx
	movq	(%rax,%rcx,8), %rdi
	callq	free
# %bb.9:                                # %for.inc
                                        #   in Loop: Header=BB19_7 Depth=4
	movl	-16(%rbp), %eax
	addl	$1, %eax
	movl	%eax, -16(%rbp)
	jmp	.LBB19_7
.LBB19_10:                              # %for.end
                                        #   in Loop: Header=BB19_5 Depth=3
	movq	-24(%rbp), %rax
	movslq	-4(%rbp), %rcx
	movq	(%rax,%rcx,8), %rax
	movslq	-8(%rbp), %rcx
	movq	(%rax,%rcx,8), %rax
	movslq	-12(%rbp), %rcx
	movq	(%rax,%rcx,8), %rdi
	callq	free
# %bb.11:                               # %for.inc23
                                        #   in Loop: Header=BB19_5 Depth=3
	movl	-12(%rbp), %eax
	addl	$1, %eax
	movl	%eax, -12(%rbp)
	jmp	.LBB19_5
.LBB19_12:                              # %for.end25
                                        #   in Loop: Header=BB19_3 Depth=2
	movq	-24(%rbp), %rax
	movslq	-4(%rbp), %rcx
	movq	(%rax,%rcx,8), %rax
	movslq	-8(%rbp), %rcx
	movq	(%rax,%rcx,8), %rdi
	callq	free
# %bb.13:                               # %for.inc30
                                        #   in Loop: Header=BB19_3 Depth=2
	movl	-8(%rbp), %eax
	addl	$1, %eax
	movl	%eax, -8(%rbp)
	jmp	.LBB19_3
.LBB19_14:                              # %for.end32
                                        #   in Loop: Header=BB19_1 Depth=1
	movq	-24(%rbp), %rax
	movslq	-4(%rbp), %rcx
	movq	(%rax,%rcx,8), %rdi
	callq	free
# %bb.15:                               # %for.inc35
                                        #   in Loop: Header=BB19_1 Depth=1
	movl	-4(%rbp), %eax
	addl	$1, %eax
	movl	%eax, -4(%rbp)
	jmp	.LBB19_1
.LBB19_16:                              # %for.end37
	movq	-24(%rbp), %rdi
	callq	free
	cmpl	$1572144179, -28(%rbp)  # imm = 0x5DB50433
	jne	.LBB19_18
.LBB19_17:
	addq	$32, %rsp
	popq	%rbp
	.cfi_def_cfa %rsp, 8
	retq
.LBB19_18:                              # %func_exit
	.cfi_def_cfa %rbp, 16
	callq	detect_breach
	jmp	.LBB19_17
.Lfunc_end19:
	.size	free_mem_mincost.6, .Lfunc_end19-free_mem_mincost.6
	.cfi_endproc
                                        # -- End function
	.globl	free_mem_mincost.7      # -- Begin function free_mem_mincost.7
	.p2align	4, 0x90
	.type	free_mem_mincost.7,@function
free_mem_mincost.7:                     # @free_mem_mincost.7
	.cfi_startproc
# %bb.0:                                # %entry
	pushq	%rbp
	.cfi_def_cfa_offset 16
	.cfi_offset %rbp, -16
	movq	%rsp, %rbp
	.cfi_def_cfa_register %rbp
	subq	$32, %rsp
	movl	$1946066247, -28(%rbp)  # imm = 0x73FE9D47
	movq	%rdi, -24(%rbp)
	movl	$0, -4(%rbp)
.LBB20_1:                               # %for.cond
                                        # =>This Loop Header: Depth=1
                                        #     Child Loop BB20_3 Depth 2
                                        #       Child Loop BB20_5 Depth 3
                                        #         Child Loop BB20_7 Depth 4
	movl	-4(%rbp), %ecx
	movq	img, %rax
	movl	52(%rax), %eax
	cltd
	movl	$4, %esi
	idivl	%esi
	cmpl	%eax, %ecx
	jge	.LBB20_16
# %bb.2:                                # %for.body
                                        #   in Loop: Header=BB20_1 Depth=1
	movl	$0, -8(%rbp)
.LBB20_3:                               # %for.cond1
                                        #   Parent Loop BB20_1 Depth=1
                                        # =>  This Loop Header: Depth=2
                                        #       Child Loop BB20_5 Depth 3
                                        #         Child Loop BB20_7 Depth 4
	movl	-8(%rbp), %ecx
	movq	img, %rax
	movl	60(%rax), %eax
	cltd
	movl	$4, %esi
	idivl	%esi
	cmpl	%eax, %ecx
	jge	.LBB20_14
# %bb.4:                                # %for.body4
                                        #   in Loop: Header=BB20_3 Depth=2
	movl	$0, -12(%rbp)
.LBB20_5:                               # %for.cond5
                                        #   Parent Loop BB20_1 Depth=1
                                        #     Parent Loop BB20_3 Depth=2
                                        # =>    This Loop Header: Depth=3
                                        #         Child Loop BB20_7 Depth 4
	movl	-12(%rbp), %eax
	movq	img, %rcx
	cmpl	36(%rcx), %eax
	jge	.LBB20_12
# %bb.6:                                # %for.body7
                                        #   in Loop: Header=BB20_5 Depth=3
	movl	$0, -16(%rbp)
.LBB20_7:                               # %for.cond8
                                        #   Parent Loop BB20_1 Depth=1
                                        #     Parent Loop BB20_3 Depth=2
                                        #       Parent Loop BB20_5 Depth=3
                                        # =>      This Inner Loop Header: Depth=4
	cmpl	$9, -16(%rbp)
	jge	.LBB20_10
# %bb.8:                                # %for.body10
                                        #   in Loop: Header=BB20_7 Depth=4
	movq	-24(%rbp), %rax
	movslq	-4(%rbp), %rcx
	movq	(%rax,%rcx,8), %rax
	movslq	-8(%rbp), %rcx
	movq	(%rax,%rcx,8), %rax
	movslq	-12(%rbp), %rcx
	movq	(%rax,%rcx,8), %rax
	movslq	-16(%rbp), %rcx
	movq	(%rax,%rcx,8), %rdi
	callq	free
# %bb.9:                                # %for.inc
                                        #   in Loop: Header=BB20_7 Depth=4
	movl	-16(%rbp), %eax
	addl	$1, %eax
	movl	%eax, -16(%rbp)
	jmp	.LBB20_7
.LBB20_10:                              # %for.end
                                        #   in Loop: Header=BB20_5 Depth=3
	movq	-24(%rbp), %rax
	movslq	-4(%rbp), %rcx
	movq	(%rax,%rcx,8), %rax
	movslq	-8(%rbp), %rcx
	movq	(%rax,%rcx,8), %rax
	movslq	-12(%rbp), %rcx
	movq	(%rax,%rcx,8), %rdi
	callq	free
# %bb.11:                               # %for.inc23
                                        #   in Loop: Header=BB20_5 Depth=3
	movl	-12(%rbp), %eax
	addl	$1, %eax
	movl	%eax, -12(%rbp)
	jmp	.LBB20_5
.LBB20_12:                              # %for.end25
                                        #   in Loop: Header=BB20_3 Depth=2
	movq	-24(%rbp), %rax
	movslq	-4(%rbp), %rcx
	movq	(%rax,%rcx,8), %rax
	movslq	-8(%rbp), %rcx
	movq	(%rax,%rcx,8), %rdi
	callq	free
# %bb.13:                               # %for.inc30
                                        #   in Loop: Header=BB20_3 Depth=2
	movl	-8(%rbp), %eax
	addl	$1, %eax
	movl	%eax, -8(%rbp)
	jmp	.LBB20_3
.LBB20_14:                              # %for.end32
                                        #   in Loop: Header=BB20_1 Depth=1
	movq	-24(%rbp), %rax
	movslq	-4(%rbp), %rcx
	movq	(%rax,%rcx,8), %rdi
	callq	free
# %bb.15:                               # %for.inc35
                                        #   in Loop: Header=BB20_1 Depth=1
	movl	-4(%rbp), %eax
	addl	$1, %eax
	movl	%eax, -4(%rbp)
	jmp	.LBB20_1
.LBB20_16:                              # %for.end37
	movq	-24(%rbp), %rdi
	callq	free
	cmpl	$1946066247, -28(%rbp)  # imm = 0x73FE9D47
	jne	.LBB20_18
.LBB20_17:
	addq	$32, %rsp
	popq	%rbp
	.cfi_def_cfa %rsp, 8
	retq
.LBB20_18:                              # %func_exit
	.cfi_def_cfa %rbp, 16
	callq	detect_breach
	jmp	.LBB20_17
.Lfunc_end20:
	.size	free_mem_mincost.7, .Lfunc_end20-free_mem_mincost.7
	.cfi_endproc
                                        # -- End function
	.globl	skip_intrabk_SAD.8      # -- Begin function skip_intrabk_SAD.8
	.p2align	4, 0x90
	.type	skip_intrabk_SAD.8,@function
skip_intrabk_SAD.8:                     # @skip_intrabk_SAD.8
	.cfi_startproc
# %bb.0:                                # %entry
	pushq	%rbp
	.cfi_def_cfa_offset 16
	.cfi_offset %rbp, -16
	movq	%rsp, %rbp
	.cfi_def_cfa_register %rbp
	subq	$32, %rsp
	movl	$2058707236, -28(%rbp)  # imm = 0x7AB56124
	movl	%edi, -20(%rbp)
	movl	%esi, -24(%rbp)
	movq	img, %rax
	cmpl	$0, (%rax)
	jle	.LBB21_4
# %bb.1:                                # %if.then
	cmpl	$9, -20(%rbp)
	movb	$1, %al
	je	.LBB21_3
# %bb.2:                                # %lor.rhs
	cmpl	$10, -20(%rbp)
	sete	%al
.LBB21_3:                               # %lor.end
	xorl	%ecx, %ecx
	testb	$1, %al
	movl	$1, %eax
	cmovnel	%eax, %ecx
	movq	flag_intra, %rax
	movq	img, %rdx
	movl	152(%rdx), %edx
	sarl	$4, %edx
	movslq	%edx, %rdx
	movl	%ecx, (%rax,%rdx,4)
.LBB21_4:                               # %if.end
	movq	img, %rax
	cmpl	$0, 24(%rax)
	je	.LBB21_24
# %bb.5:                                # %land.lhs.true
	cmpl	$9, -20(%rbp)
	je	.LBB21_7
# %bb.6:                                # %lor.lhs.false
	cmpl	$10, -20(%rbp)
	jne	.LBB21_24
.LBB21_7:                               # %if.then6
	movl	$0, -8(%rbp)
.LBB21_8:                               # %for.cond
                                        # =>This Loop Header: Depth=1
                                        #     Child Loop BB21_10 Depth 2
                                        #       Child Loop BB21_12 Depth 3
                                        #         Child Loop BB21_14 Depth 4
	cmpl	$4, -8(%rbp)
	jge	.LBB21_23
# %bb.9:                                # %for.body
                                        #   in Loop: Header=BB21_8 Depth=1
	movl	$0, -12(%rbp)
.LBB21_10:                              # %for.cond8
                                        #   Parent Loop BB21_8 Depth=1
                                        # =>  This Loop Header: Depth=2
                                        #       Child Loop BB21_12 Depth 3
                                        #         Child Loop BB21_14 Depth 4
	cmpl	$4, -12(%rbp)
	jge	.LBB21_21
# %bb.11:                               # %for.body10
                                        #   in Loop: Header=BB21_10 Depth=2
	movl	$1, -16(%rbp)
.LBB21_12:                              # %for.cond11
                                        #   Parent Loop BB21_8 Depth=1
                                        #     Parent Loop BB21_10 Depth=2
                                        # =>    This Loop Header: Depth=3
                                        #         Child Loop BB21_14 Depth 4
	cmpl	$8, -16(%rbp)
	jge	.LBB21_19
# %bb.13:                               # %for.body13
                                        #   in Loop: Header=BB21_12 Depth=3
	movl	$0, -4(%rbp)
.LBB21_14:                              # %for.cond14
                                        #   Parent Loop BB21_8 Depth=1
                                        #     Parent Loop BB21_10 Depth=2
                                        #       Parent Loop BB21_12 Depth=3
                                        # =>      This Inner Loop Header: Depth=4
	movl	-4(%rbp), %eax
	cmpl	-24(%rbp), %eax
	jge	.LBB21_17
# %bb.15:                               # %for.body16
                                        #   in Loop: Header=BB21_14 Depth=4
	movq	all_mincost, %rax
	movq	img, %rcx
	movl	152(%rcx), %ecx
	sarl	$2, %ecx
	addl	-8(%rbp), %ecx
	movslq	%ecx, %rcx
	movq	(%rax,%rcx,8), %rax
	movq	img, %rcx
	movl	156(%rcx), %ecx
	sarl	$2, %ecx
	addl	-12(%rbp), %ecx
	movslq	%ecx, %rcx
	movq	(%rax,%rcx,8), %rax
	movslq	-4(%rbp), %rcx
	movq	(%rax,%rcx,8), %rax
	movslq	-16(%rbp), %rcx
	movq	(%rax,%rcx,8), %rax
	movl	$0, (%rax)
# %bb.16:                               # %for.inc
                                        #   in Loop: Header=BB21_14 Depth=4
	movl	-4(%rbp), %eax
	addl	$1, %eax
	movl	%eax, -4(%rbp)
	jmp	.LBB21_14
.LBB21_17:                              # %for.end
                                        #   in Loop: Header=BB21_12 Depth=3
	jmp	.LBB21_18
.LBB21_18:                              # %for.inc30
                                        #   in Loop: Header=BB21_12 Depth=3
	movl	-16(%rbp), %eax
	addl	$1, %eax
	movl	%eax, -16(%rbp)
	jmp	.LBB21_12
.LBB21_19:                              # %for.end32
                                        #   in Loop: Header=BB21_10 Depth=2
	jmp	.LBB21_20
.LBB21_20:                              # %for.inc33
                                        #   in Loop: Header=BB21_10 Depth=2
	movl	-12(%rbp), %eax
	addl	$1, %eax
	movl	%eax, -12(%rbp)
	jmp	.LBB21_10
.LBB21_21:                              # %for.end35
                                        #   in Loop: Header=BB21_8 Depth=1
	jmp	.LBB21_22
.LBB21_22:                              # %for.inc36
                                        #   in Loop: Header=BB21_8 Depth=1
	movl	-8(%rbp), %eax
	addl	$1, %eax
	movl	%eax, -8(%rbp)
	jmp	.LBB21_8
.LBB21_23:                              # %for.end38
	jmp	.LBB21_24
.LBB21_24:                              # %if.end39
	cmpl	$2058707236, -28(%rbp)  # imm = 0x7AB56124
	jne	.LBB21_26
.LBB21_25:
	addq	$32, %rsp
	popq	%rbp
	.cfi_def_cfa %rsp, 8
	retq
.LBB21_26:                              # %func_exit
	.cfi_def_cfa %rbp, 16
	callq	detect_breach
	jmp	.LBB21_25
.Lfunc_end21:
	.size	skip_intrabk_SAD.8, .Lfunc_end21-skip_intrabk_SAD.8
	.cfi_endproc
                                        # -- End function
	.globl	PartCalMad.9            # -- Begin function PartCalMad.9
	.p2align	4, 0x90
	.type	PartCalMad.9,@function
PartCalMad.9:                           # @PartCalMad.9
	.cfi_startproc
# %bb.0:                                # %entry
	pushq	%rbp
	.cfi_def_cfa_offset 16
	.cfi_offset %rbp, -16
	movq	%rsp, %rbp
	.cfi_def_cfa_register %rbp
	pushq	%rbx
	subq	$72, %rsp
	.cfi_offset %rbx, -24
	movl	40(%rbp), %eax
	movl	32(%rbp), %eax
	movl	24(%rbp), %eax
	movl	16(%rbp), %eax
	movl	$1255184717, -52(%rbp)  # imm = 0x4AD0994D
	movq	%rdi, -64(%rbp)
	movq	%rsi, -80(%rbp)
	movq	%rdx, -72(%rbp)
	movl	%ecx, -40(%rbp)
	movl	%r8d, -56(%rbp)
	movl	%r9d, -44(%rbp)
	movq	img, %rax
	cmpl	$0, 72400(%rax)
	je	.LBB22_3
# %bb.1:                                # %land.lhs.true
	movq	img, %rax
	movq	14168(%rax), %rax
	movq	img, %rcx
	movslq	12(%rcx), %rcx
	imulq	$632, %rcx, %rcx        # imm = 0x278
	addq	%rcx, %rax
	cmpl	$0, 532(%rax)
	je	.LBB22_3
# %bb.2:                                # %cond.true
	movq	img, %rax
	movl	60(%rax), %eax
	cltd
	movl	$2, %ecx
	idivl	%ecx
	jmp	.LBB22_4
.LBB22_3:                               # %cond.false
	movq	img, %rax
	movl	60(%rax), %eax
.LBB22_4:                               # %cond.end
	movl	%eax, -48(%rbp)
	movl	$0, -12(%rbp)
.LBB22_5:                               # %for.cond
                                        # =>This Loop Header: Depth=1
                                        #     Child Loop BB22_7 Depth 2
	movl	-12(%rbp), %eax
	cmpl	-40(%rbp), %eax
	jge	.LBB22_14
# %bb.6:                                # %for.body
                                        #   in Loop: Header=BB22_5 Depth=1
	movq	-72(%rbp), %rax
	movl	-56(%rbp), %edi
	movq	-64(%rbp), %rsi
	movl	40(%rbp), %edx
	addl	-12(%rbp), %edx
	movl	32(%rbp), %ecx
	movl	-48(%rbp), %r8d
	movq	img, %rbx
	movl	52(%rbx), %r9d
	callq	*%rax
	movq	%rax, -24(%rbp)
	movq	-80(%rbp), %rax
	movslq	-12(%rbp), %rcx
	movq	(%rax,%rcx,8), %rax
	movq	%rax, -32(%rbp)
	movl	$0, -36(%rbp)
.LBB22_7:                               # %for.cond6
                                        #   Parent Loop BB22_5 Depth=1
                                        # =>  This Inner Loop Header: Depth=2
	movl	-36(%rbp), %eax
	cmpl	-44(%rbp), %eax
	jge	.LBB22_10
# %bb.8:                                # %for.body8
                                        #   in Loop: Header=BB22_7 Depth=2
	movq	byte_abs, %rax
	movq	-32(%rbp), %rcx
	movq	%rcx, %rdx
	addq	$2, %rdx
	movq	%rdx, -32(%rbp)
	movzwl	(%rcx), %ecx
	movq	-24(%rbp), %rdx
	movq	%rdx, %rsi
	addq	$2, %rsi
	movq	%rsi, -24(%rbp)
	movzwl	(%rdx), %edx
	subl	%edx, %ecx
	movslq	%ecx, %rcx
	movl	(%rax,%rcx,4), %eax
	addl	16(%rbp), %eax
	movl	%eax, 16(%rbp)
	movq	byte_abs, %rax
	movq	-32(%rbp), %rcx
	movq	%rcx, %rdx
	addq	$2, %rdx
	movq	%rdx, -32(%rbp)
	movzwl	(%rcx), %ecx
	movq	-24(%rbp), %rdx
	movq	%rdx, %rsi
	addq	$2, %rsi
	movq	%rsi, -24(%rbp)
	movzwl	(%rdx), %edx
	subl	%edx, %ecx
	movslq	%ecx, %rcx
	movl	(%rax,%rcx,4), %eax
	addl	16(%rbp), %eax
	movl	%eax, 16(%rbp)
	movq	byte_abs, %rax
	movq	-32(%rbp), %rcx
	movq	%rcx, %rdx
	addq	$2, %rdx
	movq	%rdx, -32(%rbp)
	movzwl	(%rcx), %ecx
	movq	-24(%rbp), %rdx
	movq	%rdx, %rsi
	addq	$2, %rsi
	movq	%rsi, -24(%rbp)
	movzwl	(%rdx), %edx
	subl	%edx, %ecx
	movslq	%ecx, %rcx
	movl	(%rax,%rcx,4), %eax
	addl	16(%rbp), %eax
	movl	%eax, 16(%rbp)
	movq	byte_abs, %rax
	movq	-32(%rbp), %rcx
	movq	%rcx, %rdx
	addq	$2, %rdx
	movq	%rdx, -32(%rbp)
	movzwl	(%rcx), %ecx
	movq	-24(%rbp), %rdx
	movq	%rdx, %rsi
	addq	$2, %rsi
	movq	%rsi, -24(%rbp)
	movzwl	(%rdx), %edx
	subl	%edx, %ecx
	movslq	%ecx, %rcx
	movl	(%rax,%rcx,4), %eax
	addl	16(%rbp), %eax
	movl	%eax, 16(%rbp)
# %bb.9:                                # %for.inc
                                        #   in Loop: Header=BB22_7 Depth=2
	movl	-36(%rbp), %eax
	addl	$1, %eax
	movl	%eax, -36(%rbp)
	jmp	.LBB22_7
.LBB22_10:                              # %for.end
                                        #   in Loop: Header=BB22_5 Depth=1
	movl	16(%rbp), %eax
	cmpl	24(%rbp), %eax
	jl	.LBB22_12
# %bb.11:                               # %if.then
	jmp	.LBB22_15
.LBB22_12:                              # %if.end
                                        #   in Loop: Header=BB22_5 Depth=1
	jmp	.LBB22_13
.LBB22_13:                              # %for.inc40
                                        #   in Loop: Header=BB22_5 Depth=1
	movl	-12(%rbp), %eax
	addl	$1, %eax
	movl	%eax, -12(%rbp)
	jmp	.LBB22_5
.LBB22_14:                              # %for.end42.loopexit
	jmp	.LBB22_15
.LBB22_15:                              # %for.end42
	movl	16(%rbp), %ebx
	cmpl	$1255184717, -52(%rbp)  # imm = 0x4AD0994D
	jne	.LBB22_17
.LBB22_16:
	movl	%ebx, %eax
	addq	$72, %rsp
	popq	%rbx
	popq	%rbp
	.cfi_def_cfa %rsp, 8
	retq
.LBB22_17:                              # %func_exit
	.cfi_def_cfa %rbp, 16
	callq	detect_breach
	jmp	.LBB22_16
.Lfunc_end22:
	.size	PartCalMad.9, .Lfunc_end22-PartCalMad.9
	.cfi_endproc
                                        # -- End function
	.globl	get_mem_mincost.10      # -- Begin function get_mem_mincost.10
	.p2align	4, 0x90
	.type	get_mem_mincost.10,@function
get_mem_mincost.10:                     # @get_mem_mincost.10
	.cfi_startproc
# %bb.0:                                # %entry
	pushq	%rbp
	.cfi_def_cfa_offset 16
	.cfi_offset %rbp, -16
	movq	%rsp, %rbp
	.cfi_def_cfa_register %rbp
	pushq	%rbx
	subq	$40, %rsp
	.cfi_offset %rbx, -24
	movl	$2041173085, -36(%rbp)  # imm = 0x79A9D45D
	movq	%rdi, -32(%rbp)
	movq	img, %rax
	movl	52(%rax), %eax
	cltd
	movl	$4, %ecx
	idivl	%ecx
	movslq	%eax, %rdi
	movl	$8, %esi
	callq	calloc
	movq	-32(%rbp), %rcx
	movq	%rax, (%rcx)
	cmpq	$0, %rax
	jne	.LBB23_2
# %bb.1:                                # %if.then
	movabsq	$.L.str, %rdi
	callq	no_mem_exit
.LBB23_2:                               # %if.end
	movl	$0, -12(%rbp)
.LBB23_3:                               # %for.cond
                                        # =>This Loop Header: Depth=1
                                        #     Child Loop BB23_7 Depth 2
                                        #       Child Loop BB23_11 Depth 3
                                        #         Child Loop BB23_15 Depth 4
	movl	-12(%rbp), %ecx
	movq	img, %rax
	movl	52(%rax), %eax
	cltd
	movl	$4, %esi
	idivl	%esi
	cmpl	%eax, %ecx
	jge	.LBB23_26
# %bb.4:                                # %for.body
                                        #   in Loop: Header=BB23_3 Depth=1
	movq	img, %rax
	movl	60(%rax), %eax
	cltd
	movl	$4, %ecx
	idivl	%ecx
	movslq	%eax, %rdi
	movl	$8, %esi
	callq	calloc
	movq	-32(%rbp), %rcx
	movq	(%rcx), %rcx
	movslq	-12(%rbp), %rdx
	movq	%rax, (%rcx,%rdx,8)
	cmpq	$0, %rax
	jne	.LBB23_6
# %bb.5:                                # %if.then11
                                        #   in Loop: Header=BB23_3 Depth=1
	movabsq	$.L.str, %rdi
	callq	no_mem_exit
.LBB23_6:                               # %if.end12
                                        #   in Loop: Header=BB23_3 Depth=1
	movl	$0, -16(%rbp)
.LBB23_7:                               # %for.cond13
                                        #   Parent Loop BB23_3 Depth=1
                                        # =>  This Loop Header: Depth=2
                                        #       Child Loop BB23_11 Depth 3
                                        #         Child Loop BB23_15 Depth 4
	movl	-16(%rbp), %ecx
	movq	img, %rax
	movl	60(%rax), %eax
	cltd
	movl	$4, %esi
	idivl	%esi
	cmpl	%eax, %ecx
	jge	.LBB23_24
# %bb.8:                                # %for.body18
                                        #   in Loop: Header=BB23_7 Depth=2
	movq	img, %rax
	movslq	36(%rax), %rdi
	movl	$8, %esi
	callq	calloc
	movq	-32(%rbp), %rcx
	movq	(%rcx), %rcx
	movslq	-12(%rbp), %rdx
	movq	(%rcx,%rdx,8), %rcx
	movslq	-16(%rbp), %rdx
	movq	%rax, (%rcx,%rdx,8)
	cmpq	$0, %rax
	jne	.LBB23_10
# %bb.9:                                # %if.then27
                                        #   in Loop: Header=BB23_7 Depth=2
	movabsq	$.L.str, %rdi
	callq	no_mem_exit
.LBB23_10:                              # %if.end28
                                        #   in Loop: Header=BB23_7 Depth=2
	movl	$0, -20(%rbp)
.LBB23_11:                              # %for.cond29
                                        #   Parent Loop BB23_3 Depth=1
                                        #     Parent Loop BB23_7 Depth=2
                                        # =>    This Loop Header: Depth=3
                                        #         Child Loop BB23_15 Depth 4
	movl	-20(%rbp), %eax
	movq	img, %rcx
	cmpl	36(%rcx), %eax
	jge	.LBB23_22
# %bb.12:                               # %for.body33
                                        #   in Loop: Header=BB23_11 Depth=3
	movl	$9, %edi
	movl	$8, %esi
	callq	calloc
	movq	-32(%rbp), %rcx
	movq	(%rcx), %rcx
	movslq	-12(%rbp), %rdx
	movq	(%rcx,%rdx,8), %rcx
	movslq	-16(%rbp), %rdx
	movq	(%rcx,%rdx,8), %rcx
	movslq	-20(%rbp), %rdx
	movq	%rax, (%rcx,%rdx,8)
	cmpq	$0, %rax
	jne	.LBB23_14
# %bb.13:                               # %if.then43
                                        #   in Loop: Header=BB23_11 Depth=3
	movabsq	$.L.str, %rdi
	callq	no_mem_exit
.LBB23_14:                              # %if.end44
                                        #   in Loop: Header=BB23_11 Depth=3
	movl	$0, -24(%rbp)
.LBB23_15:                              # %for.cond45
                                        #   Parent Loop BB23_3 Depth=1
                                        #     Parent Loop BB23_7 Depth=2
                                        #       Parent Loop BB23_11 Depth=3
                                        # =>      This Inner Loop Header: Depth=4
	cmpl	$9, -24(%rbp)
	jge	.LBB23_20
# %bb.16:                               # %for.body48
                                        #   in Loop: Header=BB23_15 Depth=4
	movl	$3, %edi
	movl	$4, %esi
	callq	calloc
	movq	-32(%rbp), %rcx
	movq	(%rcx), %rcx
	movslq	-12(%rbp), %rdx
	movq	(%rcx,%rdx,8), %rcx
	movslq	-16(%rbp), %rdx
	movq	(%rcx,%rdx,8), %rcx
	movslq	-20(%rbp), %rdx
	movq	(%rcx,%rdx,8), %rcx
	movslq	-24(%rbp), %rdx
	movq	%rax, (%rcx,%rdx,8)
	cmpq	$0, %rax
	jne	.LBB23_18
# %bb.17:                               # %if.then60
                                        #   in Loop: Header=BB23_15 Depth=4
	movabsq	$.L.str, %rdi
	callq	no_mem_exit
.LBB23_18:                              # %if.end61
                                        #   in Loop: Header=BB23_15 Depth=4
	jmp	.LBB23_19
.LBB23_19:                              # %for.inc
                                        #   in Loop: Header=BB23_15 Depth=4
	movl	-24(%rbp), %eax
	addl	$1, %eax
	movl	%eax, -24(%rbp)
	jmp	.LBB23_15
.LBB23_20:                              # %for.end
                                        #   in Loop: Header=BB23_11 Depth=3
	jmp	.LBB23_21
.LBB23_21:                              # %for.inc62
                                        #   in Loop: Header=BB23_11 Depth=3
	movl	-20(%rbp), %eax
	addl	$1, %eax
	movl	%eax, -20(%rbp)
	jmp	.LBB23_11
.LBB23_22:                              # %for.end64
                                        #   in Loop: Header=BB23_7 Depth=2
	jmp	.LBB23_23
.LBB23_23:                              # %for.inc65
                                        #   in Loop: Header=BB23_7 Depth=2
	movl	-16(%rbp), %eax
	addl	$1, %eax
	movl	%eax, -16(%rbp)
	jmp	.LBB23_7
.LBB23_24:                              # %for.end67
                                        #   in Loop: Header=BB23_3 Depth=1
	jmp	.LBB23_25
.LBB23_25:                              # %for.inc68
                                        #   in Loop: Header=BB23_3 Depth=1
	movl	-12(%rbp), %eax
	addl	$1, %eax
	movl	%eax, -12(%rbp)
	jmp	.LBB23_3
.LBB23_26:                              # %for.end70
	movq	img, %rax
	movl	52(%rax), %eax
	cltd
	movl	$4, %ecx
	idivl	%ecx
	movq	img, %rdx
	imull	60(%rdx), %eax
	cltd
	idivl	%ecx
	movq	img, %rcx
	imull	36(%rcx), %eax
	imull	$9, %eax, %eax
	imull	$3, %eax, %eax
	movslq	%eax, %rbx
	shlq	$2, %rbx
	cmpl	$2041173085, -36(%rbp)  # imm = 0x79A9D45D
	jne	.LBB23_28
.LBB23_27:
	movl	%ebx, %eax
	addq	$40, %rsp
	popq	%rbx
	popq	%rbp
	.cfi_def_cfa %rsp, 8
	retq
.LBB23_28:                              # %func_exit
	.cfi_def_cfa %rbp, 16
	callq	detect_breach
	jmp	.LBB23_27
.Lfunc_end23:
	.size	get_mem_mincost.10, .Lfunc_end23-get_mem_mincost.10
	.cfi_endproc
                                        # -- End function
	.section	.rodata.cst4,"aM",@progbits,4
	.p2align	2               # -- Begin function DefineThresholdMB.11
.LCPI24_0:
	.long	1082130432              # float 4
.LCPI24_1:
	.long	1132462080              # float 256
.LCPI24_2:
	.long	1102284063              # float 22.4400005
	.text
	.globl	DefineThresholdMB.11
	.p2align	4, 0x90
	.type	DefineThresholdMB.11,@function
DefineThresholdMB.11:                   # @DefineThresholdMB.11
	.cfi_startproc
# %bb.0:                                # %entry
	pushq	%rbp
	.cfi_def_cfa_offset 16
	.cfi_offset %rbp, -16
	movq	%rsp, %rbp
	.cfi_def_cfa_register %rbp
	subq	$32, %rsp
	movl	$1761555609, -12(%rbp)  # imm = 0x68FF3499
	movq	input, %rax
	movl	16(%rax), %eax
	subl	$0, %eax
	cltd
	movl	$6, %ecx
	idivl	%ecx
	movl	%eax, -24(%rbp)
	movq	input, %rax
	movl	16(%rax), %eax
	subl	$0, %eax
	cltd
	idivl	%ecx
	movl	%edx, -20(%rbp)
	movl	-24(%rbp), %eax
	addl	$15, %eax
	movl	%eax, -4(%rbp)
	movq	img, %rax
	cmpl	$2, 24(%rax)
	jne	.LBB24_2
# %bb.1:                                # %if.then
	movl	-4(%rbp), %ecx
                                        # kill: def $cl killed $ecx
	movl	$1, %eax
	shll	%cl, %eax
	cltd
	movl	$3, %ecx
	idivl	%ecx
	movl	%eax, -8(%rbp)
	jmp	.LBB24_3
.LBB24_2:                               # %if.else
	movl	-4(%rbp), %ecx
                                        # kill: def $cl killed $ecx
	movl	$1, %eax
	shll	%cl, %eax
	cltd
	movl	$6, %ecx
	idivl	%ecx
	movl	%eax, -8(%rbp)
.LBB24_3:                               # %if.end
	vmovss	.LCPI24_0(%rip), %xmm0  # xmm0 = mem[0],zero,zero,zero
	vmovss	.LCPI24_1(%rip), %xmm1  # xmm1 = mem[0],zero,zero,zero
	vmovss	.LCPI24_2(%rip), %xmm2  # xmm2 = mem[0],zero,zero,zero
	movl	-4(%rbp), %ecx
                                        # kill: def $cl killed $ecx
	movl	$1, %eax
	shll	%cl, %eax
	subl	-8(%rbp), %eax
	movslq	-20(%rbp), %rcx
	shlq	$6, %rcx
	movabsq	$quant_coef, %rsi
	addq	%rcx, %rsi
	cltd
	idivl	(%rsi)
	movl	%eax, -16(%rbp)
	vcvtsi2ssl	-16(%rbp), %xmm0, %xmm3
	vdivss	%xmm2, %xmm3, %xmm2
	vmovss	%xmm2, Quantize_step
	vmulss	Quantize_step, %xmm1, %xmm1
	vmovss	%xmm1, Bsize+28
	vmulss	Bsize+28, %xmm0, %xmm1
	vmovss	%xmm1, Bsize+24
	vmulss	Bsize+28, %xmm0, %xmm1
	vmovss	%xmm1, Bsize+20
	vmulss	Bsize+20, %xmm0, %xmm1
	vmovss	%xmm1, Bsize+16
	vmulss	Bsize+16, %xmm0, %xmm1
	vmovss	%xmm1, Bsize+12
	vmulss	Bsize+16, %xmm0, %xmm1
	vmovss	%xmm1, Bsize+8
	vmulss	Bsize+8, %xmm0, %xmm0
	vmovss	%xmm0, Bsize+4
	cmpl	$1761555609, -12(%rbp)  # imm = 0x68FF3499
	jne	.LBB24_5
.LBB24_4:
	addq	$32, %rsp
	popq	%rbp
	.cfi_def_cfa %rsp, 8
	retq
.LBB24_5:                               # %func_exit
	.cfi_def_cfa %rbp, 16
	callq	detect_breach
	jmp	.LBB24_4
.Lfunc_end24:
	.size	DefineThresholdMB.11, .Lfunc_end24-DefineThresholdMB.11
	.cfi_endproc
                                        # -- End function
	.globl	skip_intrabk_SAD.12     # -- Begin function skip_intrabk_SAD.12
	.p2align	4, 0x90
	.type	skip_intrabk_SAD.12,@function
skip_intrabk_SAD.12:                    # @skip_intrabk_SAD.12
	.cfi_startproc
# %bb.0:                                # %entry
	pushq	%rbp
	.cfi_def_cfa_offset 16
	.cfi_offset %rbp, -16
	movq	%rsp, %rbp
	.cfi_def_cfa_register %rbp
	subq	$32, %rsp
	movl	$746161896, -28(%rbp)   # imm = 0x2C7986E8
	movl	%edi, -20(%rbp)
	movl	%esi, -24(%rbp)
	movq	img, %rax
	cmpl	$0, (%rax)
	jle	.LBB25_4
# %bb.1:                                # %if.then
	cmpl	$9, -20(%rbp)
	movb	$1, %al
	je	.LBB25_3
# %bb.2:                                # %lor.rhs
	cmpl	$10, -20(%rbp)
	sete	%al
.LBB25_3:                               # %lor.end
	xorl	%ecx, %ecx
	testb	$1, %al
	movl	$1, %eax
	cmovnel	%eax, %ecx
	movq	flag_intra, %rax
	movq	img, %rdx
	movl	152(%rdx), %edx
	sarl	$4, %edx
	movslq	%edx, %rdx
	movl	%ecx, (%rax,%rdx,4)
.LBB25_4:                               # %if.end
	movq	img, %rax
	cmpl	$0, 24(%rax)
	je	.LBB25_24
# %bb.5:                                # %land.lhs.true
	cmpl	$9, -20(%rbp)
	je	.LBB25_7
# %bb.6:                                # %lor.lhs.false
	cmpl	$10, -20(%rbp)
	jne	.LBB25_24
.LBB25_7:                               # %if.then6
	movl	$0, -4(%rbp)
.LBB25_8:                               # %for.cond
                                        # =>This Loop Header: Depth=1
                                        #     Child Loop BB25_10 Depth 2
                                        #       Child Loop BB25_12 Depth 3
                                        #         Child Loop BB25_14 Depth 4
	cmpl	$4, -4(%rbp)
	jge	.LBB25_23
# %bb.9:                                # %for.body
                                        #   in Loop: Header=BB25_8 Depth=1
	movl	$0, -8(%rbp)
.LBB25_10:                              # %for.cond8
                                        #   Parent Loop BB25_8 Depth=1
                                        # =>  This Loop Header: Depth=2
                                        #       Child Loop BB25_12 Depth 3
                                        #         Child Loop BB25_14 Depth 4
	cmpl	$4, -8(%rbp)
	jge	.LBB25_21
# %bb.11:                               # %for.body10
                                        #   in Loop: Header=BB25_10 Depth=2
	movl	$1, -16(%rbp)
.LBB25_12:                              # %for.cond11
                                        #   Parent Loop BB25_8 Depth=1
                                        #     Parent Loop BB25_10 Depth=2
                                        # =>    This Loop Header: Depth=3
                                        #         Child Loop BB25_14 Depth 4
	cmpl	$8, -16(%rbp)
	jge	.LBB25_19
# %bb.13:                               # %for.body13
                                        #   in Loop: Header=BB25_12 Depth=3
	movl	$0, -12(%rbp)
.LBB25_14:                              # %for.cond14
                                        #   Parent Loop BB25_8 Depth=1
                                        #     Parent Loop BB25_10 Depth=2
                                        #       Parent Loop BB25_12 Depth=3
                                        # =>      This Inner Loop Header: Depth=4
	movl	-12(%rbp), %eax
	cmpl	-24(%rbp), %eax
	jge	.LBB25_17
# %bb.15:                               # %for.body16
                                        #   in Loop: Header=BB25_14 Depth=4
	movq	all_mincost, %rax
	movq	img, %rcx
	movl	152(%rcx), %ecx
	sarl	$2, %ecx
	addl	-4(%rbp), %ecx
	movslq	%ecx, %rcx
	movq	(%rax,%rcx,8), %rax
	movq	img, %rcx
	movl	156(%rcx), %ecx
	sarl	$2, %ecx
	addl	-8(%rbp), %ecx
	movslq	%ecx, %rcx
	movq	(%rax,%rcx,8), %rax
	movslq	-12(%rbp), %rcx
	movq	(%rax,%rcx,8), %rax
	movslq	-16(%rbp), %rcx
	movq	(%rax,%rcx,8), %rax
	movl	$0, (%rax)
# %bb.16:                               # %for.inc
                                        #   in Loop: Header=BB25_14 Depth=4
	movl	-12(%rbp), %eax
	addl	$1, %eax
	movl	%eax, -12(%rbp)
	jmp	.LBB25_14
.LBB25_17:                              # %for.end
                                        #   in Loop: Header=BB25_12 Depth=3
	jmp	.LBB25_18
.LBB25_18:                              # %for.inc30
                                        #   in Loop: Header=BB25_12 Depth=3
	movl	-16(%rbp), %eax
	addl	$1, %eax
	movl	%eax, -16(%rbp)
	jmp	.LBB25_12
.LBB25_19:                              # %for.end32
                                        #   in Loop: Header=BB25_10 Depth=2
	jmp	.LBB25_20
.LBB25_20:                              # %for.inc33
                                        #   in Loop: Header=BB25_10 Depth=2
	movl	-8(%rbp), %eax
	addl	$1, %eax
	movl	%eax, -8(%rbp)
	jmp	.LBB25_10
.LBB25_21:                              # %for.end35
                                        #   in Loop: Header=BB25_8 Depth=1
	jmp	.LBB25_22
.LBB25_22:                              # %for.inc36
                                        #   in Loop: Header=BB25_8 Depth=1
	movl	-4(%rbp), %eax
	addl	$1, %eax
	movl	%eax, -4(%rbp)
	jmp	.LBB25_8
.LBB25_23:                              # %for.end38
	jmp	.LBB25_24
.LBB25_24:                              # %if.end39
	cmpl	$746161896, -28(%rbp)   # imm = 0x2C7986E8
	jne	.LBB25_26
.LBB25_25:
	addq	$32, %rsp
	popq	%rbp
	.cfi_def_cfa %rsp, 8
	retq
.LBB25_26:                              # %func_exit
	.cfi_def_cfa %rbp, 16
	callq	detect_breach
	jmp	.LBB25_25
.Lfunc_end25:
	.size	skip_intrabk_SAD.12, .Lfunc_end25-skip_intrabk_SAD.12
	.cfi_endproc
                                        # -- End function
	.globl	get_mem_mincost.13      # -- Begin function get_mem_mincost.13
	.p2align	4, 0x90
	.type	get_mem_mincost.13,@function
get_mem_mincost.13:                     # @get_mem_mincost.13
	.cfi_startproc
# %bb.0:                                # %entry
	pushq	%rbp
	.cfi_def_cfa_offset 16
	.cfi_offset %rbp, -16
	movq	%rsp, %rbp
	.cfi_def_cfa_register %rbp
	pushq	%rbx
	subq	$40, %rsp
	.cfi_offset %rbx, -24
	movl	$706840966, -36(%rbp)   # imm = 0x2A218986
	movq	%rdi, -32(%rbp)
	movq	img, %rax
	movl	52(%rax), %eax
	cltd
	movl	$4, %ecx
	idivl	%ecx
	movslq	%eax, %rdi
	movl	$8, %esi
	callq	calloc
	movq	-32(%rbp), %rcx
	movq	%rax, (%rcx)
	cmpq	$0, %rax
	jne	.LBB26_2
# %bb.1:                                # %if.then
	movabsq	$.L.str, %rdi
	callq	no_mem_exit
.LBB26_2:                               # %if.end
	movl	$0, -12(%rbp)
.LBB26_3:                               # %for.cond
                                        # =>This Loop Header: Depth=1
                                        #     Child Loop BB26_7 Depth 2
                                        #       Child Loop BB26_11 Depth 3
                                        #         Child Loop BB26_15 Depth 4
	movl	-12(%rbp), %ecx
	movq	img, %rax
	movl	52(%rax), %eax
	cltd
	movl	$4, %esi
	idivl	%esi
	cmpl	%eax, %ecx
	jge	.LBB26_26
# %bb.4:                                # %for.body
                                        #   in Loop: Header=BB26_3 Depth=1
	movq	img, %rax
	movl	60(%rax), %eax
	cltd
	movl	$4, %ecx
	idivl	%ecx
	movslq	%eax, %rdi
	movl	$8, %esi
	callq	calloc
	movq	-32(%rbp), %rcx
	movq	(%rcx), %rcx
	movslq	-12(%rbp), %rdx
	movq	%rax, (%rcx,%rdx,8)
	cmpq	$0, %rax
	jne	.LBB26_6
# %bb.5:                                # %if.then11
                                        #   in Loop: Header=BB26_3 Depth=1
	movabsq	$.L.str, %rdi
	callq	no_mem_exit
.LBB26_6:                               # %if.end12
                                        #   in Loop: Header=BB26_3 Depth=1
	movl	$0, -16(%rbp)
.LBB26_7:                               # %for.cond13
                                        #   Parent Loop BB26_3 Depth=1
                                        # =>  This Loop Header: Depth=2
                                        #       Child Loop BB26_11 Depth 3
                                        #         Child Loop BB26_15 Depth 4
	movl	-16(%rbp), %ecx
	movq	img, %rax
	movl	60(%rax), %eax
	cltd
	movl	$4, %esi
	idivl	%esi
	cmpl	%eax, %ecx
	jge	.LBB26_24
# %bb.8:                                # %for.body18
                                        #   in Loop: Header=BB26_7 Depth=2
	movq	img, %rax
	movslq	36(%rax), %rdi
	movl	$8, %esi
	callq	calloc
	movq	-32(%rbp), %rcx
	movq	(%rcx), %rcx
	movslq	-12(%rbp), %rdx
	movq	(%rcx,%rdx,8), %rcx
	movslq	-16(%rbp), %rdx
	movq	%rax, (%rcx,%rdx,8)
	cmpq	$0, %rax
	jne	.LBB26_10
# %bb.9:                                # %if.then27
                                        #   in Loop: Header=BB26_7 Depth=2
	movabsq	$.L.str, %rdi
	callq	no_mem_exit
.LBB26_10:                              # %if.end28
                                        #   in Loop: Header=BB26_7 Depth=2
	movl	$0, -20(%rbp)
.LBB26_11:                              # %for.cond29
                                        #   Parent Loop BB26_3 Depth=1
                                        #     Parent Loop BB26_7 Depth=2
                                        # =>    This Loop Header: Depth=3
                                        #         Child Loop BB26_15 Depth 4
	movl	-20(%rbp), %eax
	movq	img, %rcx
	cmpl	36(%rcx), %eax
	jge	.LBB26_22
# %bb.12:                               # %for.body33
                                        #   in Loop: Header=BB26_11 Depth=3
	movl	$9, %edi
	movl	$8, %esi
	callq	calloc
	movq	-32(%rbp), %rcx
	movq	(%rcx), %rcx
	movslq	-12(%rbp), %rdx
	movq	(%rcx,%rdx,8), %rcx
	movslq	-16(%rbp), %rdx
	movq	(%rcx,%rdx,8), %rcx
	movslq	-20(%rbp), %rdx
	movq	%rax, (%rcx,%rdx,8)
	cmpq	$0, %rax
	jne	.LBB26_14
# %bb.13:                               # %if.then43
                                        #   in Loop: Header=BB26_11 Depth=3
	movabsq	$.L.str, %rdi
	callq	no_mem_exit
.LBB26_14:                              # %if.end44
                                        #   in Loop: Header=BB26_11 Depth=3
	movl	$0, -24(%rbp)
.LBB26_15:                              # %for.cond45
                                        #   Parent Loop BB26_3 Depth=1
                                        #     Parent Loop BB26_7 Depth=2
                                        #       Parent Loop BB26_11 Depth=3
                                        # =>      This Inner Loop Header: Depth=4
	cmpl	$9, -24(%rbp)
	jge	.LBB26_20
# %bb.16:                               # %for.body48
                                        #   in Loop: Header=BB26_15 Depth=4
	movl	$3, %edi
	movl	$4, %esi
	callq	calloc
	movq	-32(%rbp), %rcx
	movq	(%rcx), %rcx
	movslq	-12(%rbp), %rdx
	movq	(%rcx,%rdx,8), %rcx
	movslq	-16(%rbp), %rdx
	movq	(%rcx,%rdx,8), %rcx
	movslq	-20(%rbp), %rdx
	movq	(%rcx,%rdx,8), %rcx
	movslq	-24(%rbp), %rdx
	movq	%rax, (%rcx,%rdx,8)
	cmpq	$0, %rax
	jne	.LBB26_18
# %bb.17:                               # %if.then60
                                        #   in Loop: Header=BB26_15 Depth=4
	movabsq	$.L.str, %rdi
	callq	no_mem_exit
.LBB26_18:                              # %if.end61
                                        #   in Loop: Header=BB26_15 Depth=4
	jmp	.LBB26_19
.LBB26_19:                              # %for.inc
                                        #   in Loop: Header=BB26_15 Depth=4
	movl	-24(%rbp), %eax
	addl	$1, %eax
	movl	%eax, -24(%rbp)
	jmp	.LBB26_15
.LBB26_20:                              # %for.end
                                        #   in Loop: Header=BB26_11 Depth=3
	jmp	.LBB26_21
.LBB26_21:                              # %for.inc62
                                        #   in Loop: Header=BB26_11 Depth=3
	movl	-20(%rbp), %eax
	addl	$1, %eax
	movl	%eax, -20(%rbp)
	jmp	.LBB26_11
.LBB26_22:                              # %for.end64
                                        #   in Loop: Header=BB26_7 Depth=2
	jmp	.LBB26_23
.LBB26_23:                              # %for.inc65
                                        #   in Loop: Header=BB26_7 Depth=2
	movl	-16(%rbp), %eax
	addl	$1, %eax
	movl	%eax, -16(%rbp)
	jmp	.LBB26_7
.LBB26_24:                              # %for.end67
                                        #   in Loop: Header=BB26_3 Depth=1
	jmp	.LBB26_25
.LBB26_25:                              # %for.inc68
                                        #   in Loop: Header=BB26_3 Depth=1
	movl	-12(%rbp), %eax
	addl	$1, %eax
	movl	%eax, -12(%rbp)
	jmp	.LBB26_3
.LBB26_26:                              # %for.end70
	movq	img, %rax
	movl	52(%rax), %eax
	cltd
	movl	$4, %ecx
	idivl	%ecx
	movq	img, %rdx
	imull	60(%rdx), %eax
	cltd
	idivl	%ecx
	movq	img, %rcx
	imull	36(%rcx), %eax
	imull	$9, %eax, %eax
	imull	$3, %eax, %eax
	movslq	%eax, %rbx
	shlq	$2, %rbx
	cmpl	$706840966, -36(%rbp)   # imm = 0x2A218986
	jne	.LBB26_28
.LBB26_27:
	movl	%ebx, %eax
	addq	$40, %rsp
	popq	%rbx
	popq	%rbp
	.cfi_def_cfa %rsp, 8
	retq
.LBB26_28:                              # %func_exit
	.cfi_def_cfa %rbp, 16
	callq	detect_breach
	jmp	.LBB26_27
.Lfunc_end26:
	.size	get_mem_mincost.13, .Lfunc_end26-get_mem_mincost.13
	.cfi_endproc
                                        # -- End function
	.globl	AddUpSADQuarter.14      # -- Begin function AddUpSADQuarter.14
	.p2align	4, 0x90
	.type	AddUpSADQuarter.14,@function
AddUpSADQuarter.14:                     # @AddUpSADQuarter.14
	.cfi_startproc
# %bb.0:                                # %entry
	pushq	%rbp
	.cfi_def_cfa_offset 16
	.cfi_offset %rbp, -16
	movq	%rsp, %rbp
	.cfi_def_cfa_register %rbp
	pushq	%rbx
	subq	$1208, %rsp             # imm = 0x4B8
	.cfi_offset %rbx, -24
	movl	48(%rbp), %eax
	movl	40(%rbp), %eax
	movl	32(%rbp), %eax
	movq	24(%rbp), %rax
	movq	16(%rbp), %rax
	movl	$630886829, -108(%rbp)  # imm = 0x259A91AD
	movl	%edi, -96(%rbp)
	movl	%esi, -100(%rbp)
	movl	%edx, -104(%rbp)
	movl	%ecx, -112(%rbp)
	movl	%r8d, -116(%rbp)
	movl	%r9d, -92(%rbp)
	movl	32(%rbp), %eax
	movl	%eax, -80(%rbp)
	movq	16(%rbp), %rax
	movq	6448(%rax), %rax
	movq	%rax, -64(%rbp)
	movq	16(%rbp), %rax
	movl	6392(%rax), %eax
	movl	%eax, -24(%rbp)
	movq	16(%rbp), %rax
	movl	6396(%rax), %eax
	movl	%eax, -28(%rbp)
	movl	$0, -44(%rbp)
	movl	$0, -88(%rbp)
.LBB27_1:                               # %for.cond
                                        # =>This Loop Header: Depth=1
                                        #     Child Loop BB27_5 Depth 2
                                        #       Child Loop BB27_11 Depth 3
                                        #         Child Loop BB27_13 Depth 4
	xorl	%eax, %eax
	movl	-44(%rbp), %ecx
	cmpl	-112(%rbp), %ecx
	jge	.LBB27_3
# %bb.2:                                # %land.rhs
                                        #   in Loop: Header=BB27_1 Depth=1
	cmpl	$0, -88(%rbp)
	setne	%al
	xorb	$-1, %al
.LBB27_3:                               # %land.end
                                        #   in Loop: Header=BB27_1 Depth=1
	testb	$1, %al
	jne	.LBB27_4
	jmp	.LBB27_24
.LBB27_4:                               # %for.body
                                        #   in Loop: Header=BB27_1 Depth=1
	movl	-100(%rbp), %eax
	addl	-44(%rbp), %eax
	shll	$2, %eax
	addl	-92(%rbp), %eax
	movl	%eax, -76(%rbp)
	movl	$0, -12(%rbp)
.LBB27_5:                               # %for.cond2
                                        #   Parent Loop BB27_1 Depth=1
                                        # =>  This Loop Header: Depth=2
                                        #       Child Loop BB27_11 Depth 3
                                        #         Child Loop BB27_13 Depth 4
	movl	-12(%rbp), %eax
	cmpl	-104(%rbp), %eax
	jge	.LBB27_21
# %bb.6:                                # %for.body4
                                        #   in Loop: Header=BB27_5 Depth=2
	leaq	-192(%rbp), %rax
	movl	-96(%rbp), %ecx
	addl	-12(%rbp), %ecx
	shll	$2, %ecx
	addl	-116(%rbp), %ecx
	movl	%ecx, -20(%rbp)
	movq	%rax, -40(%rbp)
	movq	24(%rbp), %rax
	movslq	-44(%rbp), %rcx
	movq	(%rax,%rcx,8), %rax
	movq	%rax, -56(%rbp)
	movl	-76(%rbp), %eax
	movl	%eax, -16(%rbp)
	movq	-56(%rbp), %rax
	movslq	-12(%rbp), %rcx
	movzwl	(%rax,%rcx,2), %ebx
	movq	PelY_14, %rax
	movq	-64(%rbp), %rdi
	movl	-16(%rbp), %esi
	movl	-20(%rbp), %edx
	movl	-28(%rbp), %ecx
	movl	-24(%rbp), %r8d
	callq	*%rax
	movzwl	%ax, %eax
	subl	%eax, %ebx
	movq	-40(%rbp), %rax
	movq	%rax, %rcx
	addq	$4, %rcx
	movq	%rcx, -40(%rbp)
	movl	%ebx, (%rax)
	movq	-56(%rbp), %rax
	movl	-12(%rbp), %ecx
	addl	$1, %ecx
	movslq	%ecx, %rcx
	movzwl	(%rax,%rcx,2), %ebx
	movq	PelY_14, %rax
	movq	-64(%rbp), %rdi
	movl	-16(%rbp), %esi
	movl	-20(%rbp), %edx
	addl	$4, %edx
	movl	-28(%rbp), %ecx
	movl	-24(%rbp), %r8d
	callq	*%rax
	movzwl	%ax, %eax
	subl	%eax, %ebx
	movq	-40(%rbp), %rax
	movq	%rax, %rcx
	addq	$4, %rcx
	movq	%rcx, -40(%rbp)
	movl	%ebx, (%rax)
	movq	-56(%rbp), %rax
	movl	-12(%rbp), %ecx
	addl	$2, %ecx
	movslq	%ecx, %rcx
	movzwl	(%rax,%rcx,2), %ebx
	movq	PelY_14, %rax
	movq	-64(%rbp), %rdi
	movl	-16(%rbp), %esi
	movl	-20(%rbp), %edx
	addl	$8, %edx
	movl	-28(%rbp), %ecx
	movl	-24(%rbp), %r8d
	callq	*%rax
	movzwl	%ax, %eax
	subl	%eax, %ebx
	movq	-40(%rbp), %rax
	movq	%rax, %rcx
	addq	$4, %rcx
	movq	%rcx, -40(%rbp)
	movl	%ebx, (%rax)
	movq	-56(%rbp), %rax
	movl	-12(%rbp), %ecx
	addl	$3, %ecx
	movslq	%ecx, %rcx
	movzwl	(%rax,%rcx,2), %ebx
	movq	PelY_14, %rax
	movq	-64(%rbp), %rdi
	movl	-16(%rbp), %esi
	movl	-20(%rbp), %edx
	addl	$12, %edx
	movl	-28(%rbp), %ecx
	movl	-24(%rbp), %r8d
	callq	*%rax
	movzwl	%ax, %eax
	subl	%eax, %ebx
	movq	-40(%rbp), %rax
	movq	%rax, %rcx
	addq	$4, %rcx
	movq	%rcx, -40(%rbp)
	movl	%ebx, (%rax)
	movq	24(%rbp), %rax
	movl	-44(%rbp), %ecx
	addl	$1, %ecx
	movslq	%ecx, %rcx
	movq	(%rax,%rcx,8), %rax
	movq	%rax, -56(%rbp)
	movl	-76(%rbp), %eax
	addl	$4, %eax
	movl	%eax, -16(%rbp)
	movq	-56(%rbp), %rax
	movslq	-12(%rbp), %rcx
	movzwl	(%rax,%rcx,2), %ebx
	movq	PelY_14, %rax
	movq	-64(%rbp), %rdi
	movl	-16(%rbp), %esi
	movl	-20(%rbp), %edx
	movl	-28(%rbp), %ecx
	movl	-24(%rbp), %r8d
	callq	*%rax
	movzwl	%ax, %eax
	subl	%eax, %ebx
	movq	-40(%rbp), %rax
	movq	%rax, %rcx
	addq	$4, %rcx
	movq	%rcx, -40(%rbp)
	movl	%ebx, (%rax)
	movq	-56(%rbp), %rax
	movl	-12(%rbp), %ecx
	addl	$1, %ecx
	movslq	%ecx, %rcx
	movzwl	(%rax,%rcx,2), %ebx
	movq	PelY_14, %rax
	movq	-64(%rbp), %rdi
	movl	-16(%rbp), %esi
	movl	-20(%rbp), %edx
	addl	$4, %edx
	movl	-28(%rbp), %ecx
	movl	-24(%rbp), %r8d
	callq	*%rax
	movzwl	%ax, %eax
	subl	%eax, %ebx
	movq	-40(%rbp), %rax
	movq	%rax, %rcx
	addq	$4, %rcx
	movq	%rcx, -40(%rbp)
	movl	%ebx, (%rax)
	movq	-56(%rbp), %rax
	movl	-12(%rbp), %ecx
	addl	$2, %ecx
	movslq	%ecx, %rcx
	movzwl	(%rax,%rcx,2), %ebx
	movq	PelY_14, %rax
	movq	-64(%rbp), %rdi
	movl	-16(%rbp), %esi
	movl	-20(%rbp), %edx
	addl	$8, %edx
	movl	-28(%rbp), %ecx
	movl	-24(%rbp), %r8d
	callq	*%rax
	movzwl	%ax, %eax
	subl	%eax, %ebx
	movq	-40(%rbp), %rax
	movq	%rax, %rcx
	addq	$4, %rcx
	movq	%rcx, -40(%rbp)
	movl	%ebx, (%rax)
	movq	-56(%rbp), %rax
	movl	-12(%rbp), %ecx
	addl	$3, %ecx
	movslq	%ecx, %rcx
	movzwl	(%rax,%rcx,2), %ebx
	movq	PelY_14, %rax
	movq	-64(%rbp), %rdi
	movl	-16(%rbp), %esi
	movl	-20(%rbp), %edx
	addl	$12, %edx
	movl	-28(%rbp), %ecx
	movl	-24(%rbp), %r8d
	callq	*%rax
	movzwl	%ax, %eax
	subl	%eax, %ebx
	movq	-40(%rbp), %rax
	movq	%rax, %rcx
	addq	$4, %rcx
	movq	%rcx, -40(%rbp)
	movl	%ebx, (%rax)
	movq	24(%rbp), %rax
	movl	-44(%rbp), %ecx
	addl	$2, %ecx
	movslq	%ecx, %rcx
	movq	(%rax,%rcx,8), %rax
	movq	%rax, -56(%rbp)
	movl	-76(%rbp), %eax
	addl	$8, %eax
	movl	%eax, -16(%rbp)
	movq	-56(%rbp), %rax
	movslq	-12(%rbp), %rcx
	movzwl	(%rax,%rcx,2), %ebx
	movq	PelY_14, %rax
	movq	-64(%rbp), %rdi
	movl	-16(%rbp), %esi
	movl	-20(%rbp), %edx
	movl	-28(%rbp), %ecx
	movl	-24(%rbp), %r8d
	callq	*%rax
	movzwl	%ax, %eax
	subl	%eax, %ebx
	movq	-40(%rbp), %rax
	movq	%rax, %rcx
	addq	$4, %rcx
	movq	%rcx, -40(%rbp)
	movl	%ebx, (%rax)
	movq	-56(%rbp), %rax
	movl	-12(%rbp), %ecx
	addl	$1, %ecx
	movslq	%ecx, %rcx
	movzwl	(%rax,%rcx,2), %ebx
	movq	PelY_14, %rax
	movq	-64(%rbp), %rdi
	movl	-16(%rbp), %esi
	movl	-20(%rbp), %edx
	addl	$4, %edx
	movl	-28(%rbp), %ecx
	movl	-24(%rbp), %r8d
	callq	*%rax
	movzwl	%ax, %eax
	subl	%eax, %ebx
	movq	-40(%rbp), %rax
	movq	%rax, %rcx
	addq	$4, %rcx
	movq	%rcx, -40(%rbp)
	movl	%ebx, (%rax)
	movq	-56(%rbp), %rax
	movl	-12(%rbp), %ecx
	addl	$2, %ecx
	movslq	%ecx, %rcx
	movzwl	(%rax,%rcx,2), %ebx
	movq	PelY_14, %rax
	movq	-64(%rbp), %rdi
	movl	-16(%rbp), %esi
	movl	-20(%rbp), %edx
	addl	$8, %edx
	movl	-28(%rbp), %ecx
	movl	-24(%rbp), %r8d
	callq	*%rax
	movzwl	%ax, %eax
	subl	%eax, %ebx
	movq	-40(%rbp), %rax
	movq	%rax, %rcx
	addq	$4, %rcx
	movq	%rcx, -40(%rbp)
	movl	%ebx, (%rax)
	movq	-56(%rbp), %rax
	movl	-12(%rbp), %ecx
	addl	$3, %ecx
	movslq	%ecx, %rcx
	movzwl	(%rax,%rcx,2), %ebx
	movq	PelY_14, %rax
	movq	-64(%rbp), %rdi
	movl	-16(%rbp), %esi
	movl	-20(%rbp), %edx
	addl	$12, %edx
	movl	-28(%rbp), %ecx
	movl	-24(%rbp), %r8d
	callq	*%rax
	movzwl	%ax, %eax
	subl	%eax, %ebx
	movq	-40(%rbp), %rax
	movq	%rax, %rcx
	addq	$4, %rcx
	movq	%rcx, -40(%rbp)
	movl	%ebx, (%rax)
	movq	24(%rbp), %rax
	movl	-44(%rbp), %ecx
	addl	$3, %ecx
	movslq	%ecx, %rcx
	movq	(%rax,%rcx,8), %rax
	movq	%rax, -56(%rbp)
	movl	-76(%rbp), %eax
	addl	$12, %eax
	movl	%eax, -16(%rbp)
	movq	-56(%rbp), %rax
	movslq	-12(%rbp), %rcx
	movzwl	(%rax,%rcx,2), %ebx
	movq	PelY_14, %rax
	movq	-64(%rbp), %rdi
	movl	-16(%rbp), %esi
	movl	-20(%rbp), %edx
	movl	-28(%rbp), %ecx
	movl	-24(%rbp), %r8d
	callq	*%rax
	movzwl	%ax, %eax
	subl	%eax, %ebx
	movq	-40(%rbp), %rax
	movq	%rax, %rcx
	addq	$4, %rcx
	movq	%rcx, -40(%rbp)
	movl	%ebx, (%rax)
	movq	-56(%rbp), %rax
	movl	-12(%rbp), %ecx
	addl	$1, %ecx
	movslq	%ecx, %rcx
	movzwl	(%rax,%rcx,2), %ebx
	movq	PelY_14, %rax
	movq	-64(%rbp), %rdi
	movl	-16(%rbp), %esi
	movl	-20(%rbp), %edx
	addl	$4, %edx
	movl	-28(%rbp), %ecx
	movl	-24(%rbp), %r8d
	callq	*%rax
	movzwl	%ax, %eax
	subl	%eax, %ebx
	movq	-40(%rbp), %rax
	movq	%rax, %rcx
	addq	$4, %rcx
	movq	%rcx, -40(%rbp)
	movl	%ebx, (%rax)
	movq	-56(%rbp), %rax
	movl	-12(%rbp), %ecx
	addl	$2, %ecx
	movslq	%ecx, %rcx
	movzwl	(%rax,%rcx,2), %ebx
	movq	PelY_14, %rax
	movq	-64(%rbp), %rdi
	movl	-16(%rbp), %esi
	movl	-20(%rbp), %edx
	addl	$8, %edx
	movl	-28(%rbp), %ecx
	movl	-24(%rbp), %r8d
	callq	*%rax
	movzwl	%ax, %eax
	subl	%eax, %ebx
	movq	-40(%rbp), %rax
	movq	%rax, %rcx
	addq	$4, %rcx
	movq	%rcx, -40(%rbp)
	movl	%ebx, (%rax)
	movq	-56(%rbp), %rax
	movl	-12(%rbp), %ecx
	addl	$3, %ecx
	movslq	%ecx, %rcx
	movzwl	(%rax,%rcx,2), %ebx
	movq	PelY_14, %rax
	movq	-64(%rbp), %rdi
	movl	-16(%rbp), %esi
	movl	-20(%rbp), %edx
	addl	$12, %edx
	movl	-28(%rbp), %ecx
	movl	-24(%rbp), %r8d
	callq	*%rax
	movzwl	%ax, %eax
	subl	%eax, %ebx
	movq	-40(%rbp), %rax
	movl	%ebx, (%rax)
	cmpl	$0, 48(%rbp)
	jne	.LBB27_10
# %bb.7:                                # %if.then
                                        #   in Loop: Header=BB27_5 Depth=2
	leaq	-192(%rbp), %rdi
	movq	input, %rax
	movl	24(%rax), %esi
	callq	SATD
	addl	-80(%rbp), %eax
	movl	%eax, -80(%rbp)
	cmpl	40(%rbp), %eax
	jle	.LBB27_9
# %bb.8:                                # %if.then157
                                        #   in Loop: Header=BB27_1 Depth=1
	movl	$1, -88(%rbp)
	jmp	.LBB27_22
.LBB27_9:                               # %if.end
                                        #   in Loop: Header=BB27_5 Depth=2
	jmp	.LBB27_19
.LBB27_10:                              # %if.else
                                        #   in Loop: Header=BB27_5 Depth=2
	movl	-44(%rbp), %eax
	movl	%eax, -72(%rbp)
	movl	$0, -84(%rbp)
.LBB27_11:                              # %for.cond158
                                        #   Parent Loop BB27_1 Depth=1
                                        #     Parent Loop BB27_5 Depth=2
                                        # =>    This Loop Header: Depth=3
                                        #         Child Loop BB27_13 Depth 4
	movl	-72(%rbp), %eax
	movl	-44(%rbp), %ecx
	addl	$4, %ecx
	cmpl	%ecx, %eax
	jge	.LBB27_18
# %bb.12:                               # %for.body162
                                        #   in Loop: Header=BB27_11 Depth=3
	movl	-12(%rbp), %eax
	movl	%eax, -68(%rbp)
.LBB27_13:                              # %for.cond163
                                        #   Parent Loop BB27_1 Depth=1
                                        #     Parent Loop BB27_5 Depth=2
                                        #       Parent Loop BB27_11 Depth=3
                                        # =>      This Inner Loop Header: Depth=4
	movl	-68(%rbp), %eax
	movl	-12(%rbp), %ecx
	addl	$4, %ecx
	cmpl	%ecx, %eax
	jge	.LBB27_16
# %bb.14:                               # %for.body167
                                        #   in Loop: Header=BB27_13 Depth=4
	movslq	-84(%rbp), %rax
	movl	-192(%rbp,%rax,4), %eax
	movslq	-72(%rbp), %rcx
	shlq	$6, %rcx
	leaq	-1216(%rbp), %rdx
	addq	%rcx, %rdx
	movslq	-68(%rbp), %rcx
	movl	%eax, (%rdx,%rcx,4)
# %bb.15:                               # %for.inc
                                        #   in Loop: Header=BB27_13 Depth=4
	movl	-68(%rbp), %eax
	addl	$1, %eax
	movl	%eax, -68(%rbp)
	movl	-84(%rbp), %eax
	addl	$1, %eax
	movl	%eax, -84(%rbp)
	jmp	.LBB27_13
.LBB27_16:                              # %for.end
                                        #   in Loop: Header=BB27_11 Depth=3
	jmp	.LBB27_17
.LBB27_17:                              # %for.inc175
                                        #   in Loop: Header=BB27_11 Depth=3
	movl	-72(%rbp), %eax
	addl	$1, %eax
	movl	%eax, -72(%rbp)
	jmp	.LBB27_11
.LBB27_18:                              # %for.end177
                                        #   in Loop: Header=BB27_5 Depth=2
	jmp	.LBB27_19
.LBB27_19:                              # %if.end178
                                        #   in Loop: Header=BB27_5 Depth=2
	jmp	.LBB27_20
.LBB27_20:                              # %for.inc179
                                        #   in Loop: Header=BB27_5 Depth=2
	movl	-12(%rbp), %eax
	addl	$4, %eax
	movl	%eax, -12(%rbp)
	jmp	.LBB27_5
.LBB27_21:                              # %for.end181.loopexit
                                        #   in Loop: Header=BB27_1 Depth=1
	jmp	.LBB27_22
.LBB27_22:                              # %for.end181
                                        #   in Loop: Header=BB27_1 Depth=1
	jmp	.LBB27_23
.LBB27_23:                              # %for.inc182
                                        #   in Loop: Header=BB27_1 Depth=1
	movl	-44(%rbp), %eax
	addl	$4, %eax
	movl	%eax, -44(%rbp)
	jmp	.LBB27_1
.LBB27_24:                              # %for.end184
	movl	-80(%rbp), %ebx
	cmpl	$630886829, -108(%rbp)  # imm = 0x259A91AD
	jne	.LBB27_26
.LBB27_25:
	movl	%ebx, %eax
	addq	$1208, %rsp             # imm = 0x4B8
	popq	%rbx
	popq	%rbp
	.cfi_def_cfa %rsp, 8
	retq
.LBB27_26:                              # %func_exit
	.cfi_def_cfa %rbp, 16
	callq	detect_breach
	jmp	.LBB27_25
.Lfunc_end27:
	.size	AddUpSADQuarter.14, .Lfunc_end27-AddUpSADQuarter.14
	.cfi_endproc
                                        # -- End function
	.globl	free_mem_bwmincost.15   # -- Begin function free_mem_bwmincost.15
	.p2align	4, 0x90
	.type	free_mem_bwmincost.15,@function
free_mem_bwmincost.15:                  # @free_mem_bwmincost.15
	.cfi_startproc
# %bb.0:                                # %entry
	pushq	%rbp
	.cfi_def_cfa_offset 16
	.cfi_offset %rbp, -16
	movq	%rsp, %rbp
	.cfi_def_cfa_register %rbp
	subq	$32, %rsp
	movl	$252240358, -28(%rbp)   # imm = 0xF08E1E6
	movq	%rdi, -24(%rbp)
	movl	$0, -4(%rbp)
.LBB28_1:                               # %for.cond
                                        # =>This Loop Header: Depth=1
                                        #     Child Loop BB28_3 Depth 2
                                        #       Child Loop BB28_5 Depth 3
                                        #         Child Loop BB28_7 Depth 4
	movl	-4(%rbp), %ecx
	movq	img, %rax
	movl	52(%rax), %eax
	cltd
	movl	$4, %esi
	idivl	%esi
	cmpl	%eax, %ecx
	jge	.LBB28_16
# %bb.2:                                # %for.body
                                        #   in Loop: Header=BB28_1 Depth=1
	movl	$0, -8(%rbp)
.LBB28_3:                               # %for.cond1
                                        #   Parent Loop BB28_1 Depth=1
                                        # =>  This Loop Header: Depth=2
                                        #       Child Loop BB28_5 Depth 3
                                        #         Child Loop BB28_7 Depth 4
	movl	-8(%rbp), %ecx
	movq	img, %rax
	movl	60(%rax), %eax
	cltd
	movl	$4, %esi
	idivl	%esi
	cmpl	%eax, %ecx
	jge	.LBB28_14
# %bb.4:                                # %for.body4
                                        #   in Loop: Header=BB28_3 Depth=2
	movl	$0, -12(%rbp)
.LBB28_5:                               # %for.cond5
                                        #   Parent Loop BB28_1 Depth=1
                                        #     Parent Loop BB28_3 Depth=2
                                        # =>    This Loop Header: Depth=3
                                        #         Child Loop BB28_7 Depth 4
	movl	-12(%rbp), %eax
	movq	img, %rcx
	cmpl	36(%rcx), %eax
	jge	.LBB28_12
# %bb.6:                                # %for.body7
                                        #   in Loop: Header=BB28_5 Depth=3
	movl	$0, -16(%rbp)
.LBB28_7:                               # %for.cond8
                                        #   Parent Loop BB28_1 Depth=1
                                        #     Parent Loop BB28_3 Depth=2
                                        #       Parent Loop BB28_5 Depth=3
                                        # =>      This Inner Loop Header: Depth=4
	cmpl	$9, -16(%rbp)
	jge	.LBB28_10
# %bb.8:                                # %for.body10
                                        #   in Loop: Header=BB28_7 Depth=4
	movq	-24(%rbp), %rax
	movslq	-4(%rbp), %rcx
	movq	(%rax,%rcx,8), %rax
	movslq	-8(%rbp), %rcx
	movq	(%rax,%rcx,8), %rax
	movslq	-12(%rbp), %rcx
	movq	(%rax,%rcx,8), %rax
	movslq	-16(%rbp), %rcx
	movq	(%rax,%rcx,8), %rdi
	callq	free
# %bb.9:                                # %for.inc
                                        #   in Loop: Header=BB28_7 Depth=4
	movl	-16(%rbp), %eax
	addl	$1, %eax
	movl	%eax, -16(%rbp)
	jmp	.LBB28_7
.LBB28_10:                              # %for.end
                                        #   in Loop: Header=BB28_5 Depth=3
	movq	-24(%rbp), %rax
	movslq	-4(%rbp), %rcx
	movq	(%rax,%rcx,8), %rax
	movslq	-8(%rbp), %rcx
	movq	(%rax,%rcx,8), %rax
	movslq	-12(%rbp), %rcx
	movq	(%rax,%rcx,8), %rdi
	callq	free
# %bb.11:                               # %for.inc23
                                        #   in Loop: Header=BB28_5 Depth=3
	movl	-12(%rbp), %eax
	addl	$1, %eax
	movl	%eax, -12(%rbp)
	jmp	.LBB28_5
.LBB28_12:                              # %for.end25
                                        #   in Loop: Header=BB28_3 Depth=2
	movq	-24(%rbp), %rax
	movslq	-4(%rbp), %rcx
	movq	(%rax,%rcx,8), %rax
	movslq	-8(%rbp), %rcx
	movq	(%rax,%rcx,8), %rdi
	callq	free
# %bb.13:                               # %for.inc30
                                        #   in Loop: Header=BB28_3 Depth=2
	movl	-8(%rbp), %eax
	addl	$1, %eax
	movl	%eax, -8(%rbp)
	jmp	.LBB28_3
.LBB28_14:                              # %for.end32
                                        #   in Loop: Header=BB28_1 Depth=1
	movq	-24(%rbp), %rax
	movslq	-4(%rbp), %rcx
	movq	(%rax,%rcx,8), %rdi
	callq	free
# %bb.15:                               # %for.inc35
                                        #   in Loop: Header=BB28_1 Depth=1
	movl	-4(%rbp), %eax
	addl	$1, %eax
	movl	%eax, -4(%rbp)
	jmp	.LBB28_1
.LBB28_16:                              # %for.end37
	movq	-24(%rbp), %rdi
	callq	free
	cmpl	$252240358, -28(%rbp)   # imm = 0xF08E1E6
	jne	.LBB28_18
.LBB28_17:
	addq	$32, %rsp
	popq	%rbp
	.cfi_def_cfa %rsp, 8
	retq
.LBB28_18:                              # %func_exit
	.cfi_def_cfa %rbp, 16
	callq	detect_breach
	jmp	.LBB28_17
.Lfunc_end28:
	.size	free_mem_bwmincost.15, .Lfunc_end28-free_mem_bwmincost.15
	.cfi_endproc
                                        # -- End function
	.globl	get_mem_bwmincost.16    # -- Begin function get_mem_bwmincost.16
	.p2align	4, 0x90
	.type	get_mem_bwmincost.16,@function
get_mem_bwmincost.16:                   # @get_mem_bwmincost.16
	.cfi_startproc
# %bb.0:                                # %entry
	pushq	%rbp
	.cfi_def_cfa_offset 16
	.cfi_offset %rbp, -16
	movq	%rsp, %rbp
	.cfi_def_cfa_register %rbp
	pushq	%rbx
	subq	$40, %rsp
	.cfi_offset %rbx, -24
	movl	$320682315, -36(%rbp)   # imm = 0x131D394B
	movq	%rdi, -32(%rbp)
	movq	img, %rax
	movl	52(%rax), %eax
	cltd
	movl	$4, %ecx
	idivl	%ecx
	movslq	%eax, %rdi
	movl	$8, %esi
	callq	calloc
	movq	-32(%rbp), %rcx
	movq	%rax, (%rcx)
	cmpq	$0, %rax
	jne	.LBB29_2
# %bb.1:                                # %if.then
	movabsq	$.L.str, %rdi
	callq	no_mem_exit
.LBB29_2:                               # %if.end
	movl	$0, -12(%rbp)
.LBB29_3:                               # %for.cond
                                        # =>This Loop Header: Depth=1
                                        #     Child Loop BB29_7 Depth 2
                                        #       Child Loop BB29_11 Depth 3
                                        #         Child Loop BB29_15 Depth 4
	movl	-12(%rbp), %ecx
	movq	img, %rax
	movl	52(%rax), %eax
	cltd
	movl	$4, %esi
	idivl	%esi
	cmpl	%eax, %ecx
	jge	.LBB29_26
# %bb.4:                                # %for.body
                                        #   in Loop: Header=BB29_3 Depth=1
	movq	img, %rax
	movl	60(%rax), %eax
	cltd
	movl	$4, %ecx
	idivl	%ecx
	movslq	%eax, %rdi
	movl	$8, %esi
	callq	calloc
	movq	-32(%rbp), %rcx
	movq	(%rcx), %rcx
	movslq	-12(%rbp), %rdx
	movq	%rax, (%rcx,%rdx,8)
	cmpq	$0, %rax
	jne	.LBB29_6
# %bb.5:                                # %if.then11
                                        #   in Loop: Header=BB29_3 Depth=1
	movabsq	$.L.str, %rdi
	callq	no_mem_exit
.LBB29_6:                               # %if.end12
                                        #   in Loop: Header=BB29_3 Depth=1
	movl	$0, -16(%rbp)
.LBB29_7:                               # %for.cond13
                                        #   Parent Loop BB29_3 Depth=1
                                        # =>  This Loop Header: Depth=2
                                        #       Child Loop BB29_11 Depth 3
                                        #         Child Loop BB29_15 Depth 4
	movl	-16(%rbp), %ecx
	movq	img, %rax
	movl	60(%rax), %eax
	cltd
	movl	$4, %esi
	idivl	%esi
	cmpl	%eax, %ecx
	jge	.LBB29_24
# %bb.8:                                # %for.body18
                                        #   in Loop: Header=BB29_7 Depth=2
	movq	img, %rax
	movslq	36(%rax), %rdi
	movl	$8, %esi
	callq	calloc
	movq	-32(%rbp), %rcx
	movq	(%rcx), %rcx
	movslq	-12(%rbp), %rdx
	movq	(%rcx,%rdx,8), %rcx
	movslq	-16(%rbp), %rdx
	movq	%rax, (%rcx,%rdx,8)
	cmpq	$0, %rax
	jne	.LBB29_10
# %bb.9:                                # %if.then27
                                        #   in Loop: Header=BB29_7 Depth=2
	movabsq	$.L.str, %rdi
	callq	no_mem_exit
.LBB29_10:                              # %if.end28
                                        #   in Loop: Header=BB29_7 Depth=2
	movl	$0, -20(%rbp)
.LBB29_11:                              # %for.cond29
                                        #   Parent Loop BB29_3 Depth=1
                                        #     Parent Loop BB29_7 Depth=2
                                        # =>    This Loop Header: Depth=3
                                        #         Child Loop BB29_15 Depth 4
	movl	-20(%rbp), %eax
	movq	img, %rcx
	cmpl	36(%rcx), %eax
	jge	.LBB29_22
# %bb.12:                               # %for.body33
                                        #   in Loop: Header=BB29_11 Depth=3
	movl	$9, %edi
	movl	$8, %esi
	callq	calloc
	movq	-32(%rbp), %rcx
	movq	(%rcx), %rcx
	movslq	-12(%rbp), %rdx
	movq	(%rcx,%rdx,8), %rcx
	movslq	-16(%rbp), %rdx
	movq	(%rcx,%rdx,8), %rcx
	movslq	-20(%rbp), %rdx
	movq	%rax, (%rcx,%rdx,8)
	cmpq	$0, %rax
	jne	.LBB29_14
# %bb.13:                               # %if.then43
                                        #   in Loop: Header=BB29_11 Depth=3
	movabsq	$.L.str, %rdi
	callq	no_mem_exit
.LBB29_14:                              # %if.end44
                                        #   in Loop: Header=BB29_11 Depth=3
	movl	$0, -24(%rbp)
.LBB29_15:                              # %for.cond45
                                        #   Parent Loop BB29_3 Depth=1
                                        #     Parent Loop BB29_7 Depth=2
                                        #       Parent Loop BB29_11 Depth=3
                                        # =>      This Inner Loop Header: Depth=4
	cmpl	$9, -24(%rbp)
	jge	.LBB29_20
# %bb.16:                               # %for.body48
                                        #   in Loop: Header=BB29_15 Depth=4
	movl	$3, %edi
	movl	$4, %esi
	callq	calloc
	movq	-32(%rbp), %rcx
	movq	(%rcx), %rcx
	movslq	-12(%rbp), %rdx
	movq	(%rcx,%rdx,8), %rcx
	movslq	-16(%rbp), %rdx
	movq	(%rcx,%rdx,8), %rcx
	movslq	-20(%rbp), %rdx
	movq	(%rcx,%rdx,8), %rcx
	movslq	-24(%rbp), %rdx
	movq	%rax, (%rcx,%rdx,8)
	cmpq	$0, %rax
	jne	.LBB29_18
# %bb.17:                               # %if.then60
                                        #   in Loop: Header=BB29_15 Depth=4
	movabsq	$.L.str, %rdi
	callq	no_mem_exit
.LBB29_18:                              # %if.end61
                                        #   in Loop: Header=BB29_15 Depth=4
	jmp	.LBB29_19
.LBB29_19:                              # %for.inc
                                        #   in Loop: Header=BB29_15 Depth=4
	movl	-24(%rbp), %eax
	addl	$1, %eax
	movl	%eax, -24(%rbp)
	jmp	.LBB29_15
.LBB29_20:                              # %for.end
                                        #   in Loop: Header=BB29_11 Depth=3
	jmp	.LBB29_21
.LBB29_21:                              # %for.inc62
                                        #   in Loop: Header=BB29_11 Depth=3
	movl	-20(%rbp), %eax
	addl	$1, %eax
	movl	%eax, -20(%rbp)
	jmp	.LBB29_11
.LBB29_22:                              # %for.end64
                                        #   in Loop: Header=BB29_7 Depth=2
	jmp	.LBB29_23
.LBB29_23:                              # %for.inc65
                                        #   in Loop: Header=BB29_7 Depth=2
	movl	-16(%rbp), %eax
	addl	$1, %eax
	movl	%eax, -16(%rbp)
	jmp	.LBB29_7
.LBB29_24:                              # %for.end67
                                        #   in Loop: Header=BB29_3 Depth=1
	jmp	.LBB29_25
.LBB29_25:                              # %for.inc68
                                        #   in Loop: Header=BB29_3 Depth=1
	movl	-12(%rbp), %eax
	addl	$1, %eax
	movl	%eax, -12(%rbp)
	jmp	.LBB29_3
.LBB29_26:                              # %for.end70
	movq	img, %rax
	movl	52(%rax), %eax
	cltd
	movl	$4, %ecx
	idivl	%ecx
	movq	img, %rdx
	imull	60(%rdx), %eax
	cltd
	idivl	%ecx
	movq	img, %rcx
	imull	36(%rcx), %eax
	imull	$9, %eax, %eax
	imull	$3, %eax, %eax
	movslq	%eax, %rbx
	shlq	$2, %rbx
	cmpl	$320682315, -36(%rbp)   # imm = 0x131D394B
	jne	.LBB29_28
.LBB29_27:
	movl	%ebx, %eax
	addq	$40, %rsp
	popq	%rbx
	popq	%rbp
	.cfi_def_cfa %rsp, 8
	retq
.LBB29_28:                              # %func_exit
	.cfi_def_cfa %rbp, 16
	callq	detect_breach
	jmp	.LBB29_27
.Lfunc_end29:
	.size	get_mem_bwmincost.16, .Lfunc_end29-get_mem_bwmincost.16
	.cfi_endproc
                                        # -- End function
	.section	.rodata.cst8,"aM",@progbits,8
	.p2align	3               # -- Begin function FastSubPelBlockMotionSearch.17
.LCPI30_0:
	.quad	4602678819172646912     # double 0.5
.LCPI30_1:
	.quad	4679240012837945344     # double 65536
	.text
	.globl	FastSubPelBlockMotionSearch.17
	.p2align	4, 0x90
	.type	FastSubPelBlockMotionSearch.17,@function
FastSubPelBlockMotionSearch.17:         # @FastSubPelBlockMotionSearch.17
	.cfi_startproc
# %bb.0:                                # %entry
	pushq	%rbp
	.cfi_def_cfa_offset 16
	.cfi_offset %rbp, -16
	movq	%rsp, %rbp
	.cfi_def_cfa_register %rbp
	pushq	%r14
	pushq	%rbx
	subq	$208, %rsp
	.cfi_offset %rbx, -32
	.cfi_offset %r14, -24
	movl	72(%rbp), %eax
	movl	64(%rbp), %eax
	movl	56(%rbp), %eax
	movl	48(%rbp), %eax
	movq	40(%rbp), %rax
	movq	32(%rbp), %rax
	movw	24(%rbp), %ax
	movw	16(%rbp), %ax
	movl	$965667347, -132(%rbp)  # imm = 0x398EEA13
	movq	%rdi, -128(%rbp)
	movw	%si, -78(%rbp)
	movl	%edx, -152(%rbp)
	movl	%ecx, -68(%rbp)
	movl	%r8d, -60(%rbp)
	movl	%r9d, -112(%rbp)
	vmovsd	%xmm0, -160(%rbp)
	movq	img, %rax
	cmpl	$0, 72400(%rax)
	je	.LBB30_3
# %bb.1:                                # %land.lhs.true
	movq	img, %rax
	movq	14168(%rax), %rax
	movq	img, %rcx
	movslq	12(%rcx), %rcx
	imulq	$632, %rcx, %rcx        # imm = 0x278
	addq	%rcx, %rax
	cmpl	$0, 532(%rax)
	je	.LBB30_3
# %bb.2:                                # %cond.true
	movq	img, %rax
	movl	12(%rax), %eax
	cltd
	movl	$2, %ecx
	idivl	%ecx
	cmpl	$0, %edx
	movl	$4, %eax
	cmovnel	%eax, %ecx
	jmp	.LBB30_4
.LBB30_3:                               # %cond.false
	xorl	%ecx, %ecx
	jmp	.LBB30_4
.LBB30_4:                               # %cond.end
	vmovsd	.LCPI30_0(%rip), %xmm0  # xmm0 = mem[0],zero
	vmovsd	.LCPI30_1(%rip), %xmm1  # xmm1 = mem[0],zero
	movl	%ecx, -148(%rbp)
	movl	-152(%rbp), %eax
	addl	-148(%rbp), %eax
	cltq
	movq	listX(,%rax,8), %rax
	movswq	-78(%rbp), %rcx
	movq	(%rax,%rcx,8), %rax
	movq	%rax, -88(%rbp)
	vmulsd	-160(%rbp), %xmm1, %xmm1
	vaddsd	%xmm0, %xmm1, %xmm0
	vcvttsd2si	%xmm0, %eax
	movl	%eax, -76(%rbp)
	movl	$0, -44(%rbp)
	movq	input, %rax
	movslq	-112(%rbp), %rcx
	movl	80(%rax,%rcx,8), %eax
	movl	%eax, -64(%rbp)
	movq	input, %rax
	movslq	-112(%rbp), %rcx
	movl	84(%rax,%rcx,8), %eax
	movl	%eax, -56(%rbp)
	movl	-68(%rbp), %eax
	shll	$2, %eax
	movl	%eax, -108(%rbp)
	movl	-60(%rbp), %eax
	shll	$2, %eax
	movl	%eax, -104(%rbp)
	movq	-88(%rbp), %rax
	movl	6392(%rax), %eax
	subl	-64(%rbp), %eax
	addl	$1, %eax
	shll	$2, %eax
	movl	%eax, -144(%rbp)
	movq	-88(%rbp), %rax
	movl	6396(%rax), %eax
	subl	-56(%rbp), %eax
	addl	$1, %eax
	shll	$2, %eax
	movl	%eax, -136(%rbp)
	movl	$0, -36(%rbp)
	movl	$0, -40(%rbp)
	movq	32(%rbp), %rax
	movswl	(%rax), %ecx
	shll	$2, %ecx
	movw	%cx, (%rax)
	movq	40(%rbp), %rax
	movswl	(%rax), %ecx
	shll	$2, %ecx
	movw	%cx, (%rax)
	movl	-108(%rbp), %eax
	movq	32(%rbp), %rcx
	movswl	(%rcx), %ecx
	addl	%ecx, %eax
	cmpl	$1, %eax
	jle	.LBB30_9
# %bb.5:                                # %land.lhs.true32
	movl	-108(%rbp), %eax
	movq	32(%rbp), %rcx
	movswl	(%rcx), %ecx
	addl	%ecx, %eax
	movl	-144(%rbp), %ecx
	subl	$2, %ecx
	cmpl	%ecx, %eax
	jge	.LBB30_9
# %bb.6:                                # %land.lhs.true38
	movl	-104(%rbp), %eax
	movq	40(%rbp), %rcx
	movswl	(%rcx), %ecx
	addl	%ecx, %eax
	cmpl	$1, %eax
	jle	.LBB30_9
# %bb.7:                                # %land.lhs.true43
	movl	-104(%rbp), %eax
	movq	40(%rbp), %rcx
	movswl	(%rcx), %ecx
	addl	%ecx, %eax
	movl	-136(%rbp), %ecx
	subl	$2, %ecx
	cmpl	%ecx, %eax
	jge	.LBB30_9
# %bb.8:                                # %if.then
	movabsq	$FastPelY_14, %rax
	movq	%rax, PelY_14
	jmp	.LBB30_10
.LBB30_9:                               # %if.else
	movabsq	$UMVPelY_14, %rax
	movq	%rax, PelY_14
.LBB30_10:                              # %if.end
	movl	$3, -28(%rbp)
	movswl	16(%rbp), %eax
	movq	32(%rbp), %rcx
	movswl	(%rcx), %ecx
	subl	%ecx, %eax
	cltd
	movl	$4, %ecx
	idivl	%ecx
	movl	%edx, -92(%rbp)
	movswl	24(%rbp), %eax
	movq	40(%rbp), %rdx
	movswl	(%rdx), %edx
	subl	%edx, %eax
	cltd
	idivl	%ecx
	movl	%edx, -116(%rbp)
	movl	pred_MV_uplayer, %eax
	movq	32(%rbp), %rdx
	movswl	(%rdx), %edx
	subl	%edx, %eax
	cltd
	idivl	%ecx
	movl	%edx, -172(%rbp)
	movl	pred_MV_uplayer+4, %eax
	movq	40(%rbp), %rdx
	movswl	(%rdx), %edx
	subl	%edx, %eax
	cltd
	idivl	%ecx
	movl	%edx, -164(%rbp)
	movq	SearchState, %rax
	movq	(%rax), %rdi
	movl	-28(%rbp), %eax
	shll	$1, %eax
	addl	$1, %eax
	movl	-28(%rbp), %ecx
	shll	$1, %ecx
	addl	$1, %ecx
	imull	%ecx, %eax
	movslq	%eax, %rdx
	xorl	%esi, %esi
	callq	memset
	movq	input, %rax
	cmpl	$0, 24(%rax)
	je	.LBB30_14
# %bb.11:                               # %if.then71
	movq	32(%rbp), %rax
	movswl	(%rax), %eax
	movl	%eax, -20(%rbp)
	movq	40(%rbp), %rax
	movswl	(%rax), %eax
	movl	%eax, -24(%rbp)
	movl	-76(%rbp), %eax
	movq	mvbits, %rdx
	movl	-20(%rbp), %esi
	movl	-44(%rbp), %ecx
                                        # kill: def $cl killed $ecx
	shll	%cl, %esi
	movswl	16(%rbp), %ecx
	subl	%ecx, %esi
	movslq	%esi, %rcx
	movl	(%rdx,%rcx,4), %edx
	movq	mvbits, %rsi
	movl	-24(%rbp), %edi
	movl	-44(%rbp), %ecx
                                        # kill: def $cl killed $ecx
	shll	%cl, %edi
	movswl	24(%rbp), %ecx
	subl	%ecx, %edi
	movslq	%edi, %rcx
	addl	(%rsi,%rcx,4), %edx
	imull	%edx, %eax
	sarl	$16, %eax
	movl	%eax, -48(%rbp)
	movl	-68(%rbp), %edi
	movl	-60(%rbp), %esi
	movl	-64(%rbp), %edx
	movl	-56(%rbp), %ecx
	movl	-20(%rbp), %r8d
	movl	-24(%rbp), %r9d
	movq	-88(%rbp), %rax
	movq	-128(%rbp), %rbx
	movl	-48(%rbp), %r10d
	movl	64(%rbp), %r11d
	movl	72(%rbp), %r14d
	movq	%rax, (%rsp)
	movq	%rbx, 8(%rsp)
	movl	%r10d, 16(%rsp)
	movl	%r11d, 24(%rsp)
	movl	%r14d, 32(%rsp)
	callq	AddUpSADQuarter
	movl	%eax, -32(%rbp)
	movq	SearchState, %rax
	movslq	-28(%rbp), %rcx
	movq	(%rax,%rcx,8), %rax
	movslq	-28(%rbp), %rcx
	movb	$1, (%rax,%rcx)
	movl	-32(%rbp), %eax
	cmpl	64(%rbp), %eax
	jge	.LBB30_13
# %bb.12:                               # %if.then92
	movl	-32(%rbp), %eax
	movl	%eax, 64(%rbp)
	movl	-20(%rbp), %eax
	movl	%eax, -36(%rbp)
	movl	-24(%rbp), %eax
	movl	%eax, -40(%rbp)
.LBB30_13:                              # %if.end93
	jmp	.LBB30_15
.LBB30_14:                              # %if.else94
	movq	SearchState, %rax
	movslq	-28(%rbp), %rcx
	movq	(%rax,%rcx,8), %rax
	movslq	-28(%rbp), %rcx
	movb	$1, (%rax,%rcx)
	movq	32(%rbp), %rax
	movswl	(%rax), %eax
	movl	%eax, -36(%rbp)
	movq	40(%rbp), %rax
	movswl	(%rax), %eax
	movl	%eax, -40(%rbp)
.LBB30_15:                              # %if.end101
	cmpl	$0, -92(%rbp)
	jne	.LBB30_17
# %bb.16:                               # %lor.lhs.false
	cmpl	$0, -116(%rbp)
	je	.LBB30_20
.LBB30_17:                              # %if.then106
	movq	32(%rbp), %rax
	movswl	(%rax), %eax
	addl	-92(%rbp), %eax
	movl	%eax, -20(%rbp)
	movq	40(%rbp), %rax
	movswl	(%rax), %eax
	addl	-116(%rbp), %eax
	movl	%eax, -24(%rbp)
	movl	-76(%rbp), %eax
	movq	mvbits, %rdx
	movl	-20(%rbp), %esi
	movl	-44(%rbp), %ecx
                                        # kill: def $cl killed $ecx
	shll	%cl, %esi
	movswl	16(%rbp), %ecx
	subl	%ecx, %esi
	movslq	%esi, %rcx
	movl	(%rdx,%rcx,4), %edx
	movq	mvbits, %rsi
	movl	-24(%rbp), %edi
	movl	-44(%rbp), %ecx
                                        # kill: def $cl killed $ecx
	shll	%cl, %edi
	movswl	24(%rbp), %ecx
	subl	%ecx, %edi
	movslq	%edi, %rcx
	addl	(%rsi,%rcx,4), %edx
	imull	%edx, %eax
	sarl	$16, %eax
	movl	%eax, -48(%rbp)
	movl	-68(%rbp), %edi
	movl	-60(%rbp), %esi
	movl	-64(%rbp), %edx
	movl	-56(%rbp), %ecx
	movl	-20(%rbp), %r8d
	movl	-24(%rbp), %r9d
	movq	-88(%rbp), %rax
	movq	-128(%rbp), %rbx
	movl	-48(%rbp), %r10d
	movl	64(%rbp), %r11d
	movl	72(%rbp), %r14d
	movq	%rax, (%rsp)
	movq	%rbx, 8(%rsp)
	movl	%r10d, 16(%rsp)
	movl	%r11d, 24(%rsp)
	movl	%r14d, 32(%rsp)
	callq	AddUpSADQuarter
	movl	%eax, -32(%rbp)
	movq	SearchState, %rax
	movl	-24(%rbp), %ecx
	movq	40(%rbp), %rdx
	movswl	(%rdx), %edx
	subl	%edx, %ecx
	addl	-28(%rbp), %ecx
	movslq	%ecx, %rcx
	movq	(%rax,%rcx,8), %rax
	movl	-20(%rbp), %ecx
	movq	32(%rbp), %rdx
	movswl	(%rdx), %edx
	subl	%edx, %ecx
	addl	-28(%rbp), %ecx
	movslq	%ecx, %rcx
	movb	$1, (%rax,%rcx)
	movl	-32(%rbp), %eax
	cmpl	64(%rbp), %eax
	jge	.LBB30_19
# %bb.18:                               # %if.then137
	movl	-32(%rbp), %eax
	movl	%eax, 64(%rbp)
	movl	-20(%rbp), %eax
	movl	%eax, -36(%rbp)
	movl	-24(%rbp), %eax
	movl	%eax, -40(%rbp)
.LBB30_19:                              # %if.end138
	jmp	.LBB30_20
.LBB30_20:                              # %if.end139
	movl	-36(%rbp), %eax
	movl	%eax, -100(%rbp)
	movl	-40(%rbp), %eax
	movl	%eax, -96(%rbp)
	movl	-28(%rbp), %eax
	shll	$1, %eax
	addl	$1, %eax
	movl	%eax, -140(%rbp)
	movl	$0, -72(%rbp)
.LBB30_21:                              # %for.cond
                                        # =>This Loop Header: Depth=1
                                        #     Child Loop BB30_23 Depth 2
	movl	-72(%rbp), %eax
	cmpl	-140(%rbp), %eax
	jge	.LBB30_37
# %bb.22:                               # %for.body
                                        #   in Loop: Header=BB30_21 Depth=1
	movl	$1, -120(%rbp)
	movl	$65536, -168(%rbp)      # imm = 0x10000
	movl	$0, -52(%rbp)
.LBB30_23:                              # %for.cond144
                                        #   Parent Loop BB30_21 Depth=1
                                        # =>  This Inner Loop Header: Depth=2
	cmpl	$4, -52(%rbp)
	jge	.LBB30_33
# %bb.24:                               # %for.body147
                                        #   in Loop: Header=BB30_23 Depth=2
	movl	-100(%rbp), %eax
	movslq	-52(%rbp), %rcx
	addl	FastSubPelBlockMotionSearch.Diamond_x(,%rcx,4), %eax
	movl	%eax, -20(%rbp)
	movl	-96(%rbp), %eax
	movslq	-52(%rbp), %rcx
	addl	FastSubPelBlockMotionSearch.Diamond_y(,%rcx,4), %eax
	movl	%eax, -24(%rbp)
	movl	-20(%rbp), %edi
	movq	32(%rbp), %rax
	movswl	(%rax), %eax
	subl	%eax, %edi
	callq	abs
	cmpl	-28(%rbp), %eax
	jg	.LBB30_31
# %bb.25:                               # %land.lhs.true159
                                        #   in Loop: Header=BB30_23 Depth=2
	movl	-24(%rbp), %edi
	movq	40(%rbp), %rax
	movswl	(%rax), %eax
	subl	%eax, %edi
	callq	abs
	cmpl	-28(%rbp), %eax
	jg	.LBB30_31
# %bb.26:                               # %if.then165
                                        #   in Loop: Header=BB30_23 Depth=2
	movq	SearchState, %rax
	movl	-24(%rbp), %ecx
	movq	40(%rbp), %rdx
	movswl	(%rdx), %edx
	subl	%edx, %ecx
	addl	-28(%rbp), %ecx
	movslq	%ecx, %rcx
	movq	(%rax,%rcx,8), %rax
	movl	-20(%rbp), %ecx
	movq	32(%rbp), %rdx
	movswl	(%rdx), %edx
	subl	%edx, %ecx
	addl	-28(%rbp), %ecx
	movslq	%ecx, %rcx
	cmpb	$0, (%rax,%rcx)
	jne	.LBB30_30
# %bb.27:                               # %if.then177
                                        #   in Loop: Header=BB30_23 Depth=2
	movl	-76(%rbp), %eax
	movq	mvbits, %rdx
	movl	-20(%rbp), %esi
	movl	-44(%rbp), %ecx
                                        # kill: def $cl killed $ecx
	shll	%cl, %esi
	movswl	16(%rbp), %ecx
	subl	%ecx, %esi
	movslq	%esi, %rcx
	movl	(%rdx,%rcx,4), %edx
	movq	mvbits, %rsi
	movl	-24(%rbp), %edi
	movl	-44(%rbp), %ecx
                                        # kill: def $cl killed $ecx
	shll	%cl, %edi
	movswl	24(%rbp), %ecx
	subl	%ecx, %edi
	movslq	%edi, %rcx
	addl	(%rsi,%rcx,4), %edx
	imull	%edx, %eax
	sarl	$16, %eax
	movl	%eax, -48(%rbp)
	movl	-68(%rbp), %edi
	movl	-60(%rbp), %esi
	movl	-64(%rbp), %edx
	movl	-56(%rbp), %ecx
	movl	-20(%rbp), %r8d
	movl	-24(%rbp), %r9d
	movq	-88(%rbp), %rax
	movq	-128(%rbp), %rbx
	movl	-48(%rbp), %r10d
	movl	64(%rbp), %r11d
	movl	72(%rbp), %r14d
	movq	%rax, (%rsp)
	movq	%rbx, 8(%rsp)
	movl	%r10d, 16(%rsp)
	movl	%r11d, 24(%rsp)
	movl	%r14d, 32(%rsp)
	callq	AddUpSADQuarter
	movl	%eax, -32(%rbp)
	movq	SearchState, %rax
	movl	-24(%rbp), %ecx
	movq	40(%rbp), %rdx
	movswl	(%rdx), %edx
	subl	%edx, %ecx
	addl	-28(%rbp), %ecx
	movslq	%ecx, %rcx
	movq	(%rax,%rcx,8), %rax
	movl	-20(%rbp), %ecx
	movq	32(%rbp), %rdx
	movswl	(%rdx), %edx
	subl	%edx, %ecx
	addl	-28(%rbp), %ecx
	movslq	%ecx, %rcx
	movb	$1, (%rax,%rcx)
	movl	-32(%rbp), %eax
	cmpl	64(%rbp), %eax
	jge	.LBB30_29
# %bb.28:                               # %if.then204
                                        #   in Loop: Header=BB30_23 Depth=2
	movl	-32(%rbp), %eax
	movl	%eax, 64(%rbp)
	movl	-20(%rbp), %eax
	movl	%eax, -36(%rbp)
	movl	-24(%rbp), %eax
	movl	%eax, -40(%rbp)
	movl	$0, -120(%rbp)
.LBB30_29:                              # %if.end205
                                        #   in Loop: Header=BB30_23 Depth=2
	jmp	.LBB30_30
.LBB30_30:                              # %if.end206
                                        #   in Loop: Header=BB30_23 Depth=2
	jmp	.LBB30_31
.LBB30_31:                              # %if.end207
                                        #   in Loop: Header=BB30_23 Depth=2
	jmp	.LBB30_32
.LBB30_32:                              # %for.inc
                                        #   in Loop: Header=BB30_23 Depth=2
	movl	-52(%rbp), %eax
	addl	$1, %eax
	movl	%eax, -52(%rbp)
	jmp	.LBB30_23
.LBB30_33:                              # %for.end
                                        #   in Loop: Header=BB30_21 Depth=1
	movl	-36(%rbp), %eax
	movl	%eax, -100(%rbp)
	movl	-40(%rbp), %eax
	movl	%eax, -96(%rbp)
	cmpl	$0, -120(%rbp)
	je	.LBB30_35
# %bb.34:                               # %if.then209
	jmp	.LBB30_38
.LBB30_35:                              # %if.end210
                                        #   in Loop: Header=BB30_21 Depth=1
	jmp	.LBB30_36
.LBB30_36:                              # %for.inc211
                                        #   in Loop: Header=BB30_21 Depth=1
	movl	-72(%rbp), %eax
	addl	$1, %eax
	movl	%eax, -72(%rbp)
	jmp	.LBB30_21
.LBB30_37:                              # %for.end213.loopexit
	jmp	.LBB30_38
.LBB30_38:                              # %for.end213
	movl	-36(%rbp), %eax
	movq	32(%rbp), %rcx
	movw	%ax, (%rcx)
	movl	-40(%rbp), %eax
	movq	40(%rbp), %rcx
	movw	%ax, (%rcx)
	movl	64(%rbp), %ebx
	cmpl	$965667347, -132(%rbp)  # imm = 0x398EEA13
	jne	.LBB30_40
.LBB30_39:
	movl	%ebx, %eax
	addq	$208, %rsp
	popq	%rbx
	popq	%r14
	popq	%rbp
	.cfi_def_cfa %rsp, 8
	retq
.LBB30_40:                              # %func_exit
	.cfi_def_cfa %rbp, 16
	callq	detect_breach
	jmp	.LBB30_39
.Lfunc_end30:
	.size	FastSubPelBlockMotionSearch.17, .Lfunc_end30-FastSubPelBlockMotionSearch.17
	.cfi_endproc
                                        # -- End function
	.globl	free_mem_mincost.18     # -- Begin function free_mem_mincost.18
	.p2align	4, 0x90
	.type	free_mem_mincost.18,@function
free_mem_mincost.18:                    # @free_mem_mincost.18
	.cfi_startproc
# %bb.0:                                # %entry
	pushq	%rbp
	.cfi_def_cfa_offset 16
	.cfi_offset %rbp, -16
	movq	%rsp, %rbp
	.cfi_def_cfa_register %rbp
	subq	$32, %rsp
	movl	$15588456, -28(%rbp)    # imm = 0xEDDC68
	movq	%rdi, -24(%rbp)
	movl	$0, -4(%rbp)
.LBB31_1:                               # %for.cond
                                        # =>This Loop Header: Depth=1
                                        #     Child Loop BB31_3 Depth 2
                                        #       Child Loop BB31_5 Depth 3
                                        #         Child Loop BB31_7 Depth 4
	movl	-4(%rbp), %ecx
	movq	img, %rax
	movl	52(%rax), %eax
	cltd
	movl	$4, %esi
	idivl	%esi
	cmpl	%eax, %ecx
	jge	.LBB31_16
# %bb.2:                                # %for.body
                                        #   in Loop: Header=BB31_1 Depth=1
	movl	$0, -8(%rbp)
.LBB31_3:                               # %for.cond1
                                        #   Parent Loop BB31_1 Depth=1
                                        # =>  This Loop Header: Depth=2
                                        #       Child Loop BB31_5 Depth 3
                                        #         Child Loop BB31_7 Depth 4
	movl	-8(%rbp), %ecx
	movq	img, %rax
	movl	60(%rax), %eax
	cltd
	movl	$4, %esi
	idivl	%esi
	cmpl	%eax, %ecx
	jge	.LBB31_14
# %bb.4:                                # %for.body4
                                        #   in Loop: Header=BB31_3 Depth=2
	movl	$0, -12(%rbp)
.LBB31_5:                               # %for.cond5
                                        #   Parent Loop BB31_1 Depth=1
                                        #     Parent Loop BB31_3 Depth=2
                                        # =>    This Loop Header: Depth=3
                                        #         Child Loop BB31_7 Depth 4
	movl	-12(%rbp), %eax
	movq	img, %rcx
	cmpl	36(%rcx), %eax
	jge	.LBB31_12
# %bb.6:                                # %for.body7
                                        #   in Loop: Header=BB31_5 Depth=3
	movl	$0, -16(%rbp)
.LBB31_7:                               # %for.cond8
                                        #   Parent Loop BB31_1 Depth=1
                                        #     Parent Loop BB31_3 Depth=2
                                        #       Parent Loop BB31_5 Depth=3
                                        # =>      This Inner Loop Header: Depth=4
	cmpl	$9, -16(%rbp)
	jge	.LBB31_10
# %bb.8:                                # %for.body10
                                        #   in Loop: Header=BB31_7 Depth=4
	movq	-24(%rbp), %rax
	movslq	-4(%rbp), %rcx
	movq	(%rax,%rcx,8), %rax
	movslq	-8(%rbp), %rcx
	movq	(%rax,%rcx,8), %rax
	movslq	-12(%rbp), %rcx
	movq	(%rax,%rcx,8), %rax
	movslq	-16(%rbp), %rcx
	movq	(%rax,%rcx,8), %rdi
	callq	free
# %bb.9:                                # %for.inc
                                        #   in Loop: Header=BB31_7 Depth=4
	movl	-16(%rbp), %eax
	addl	$1, %eax
	movl	%eax, -16(%rbp)
	jmp	.LBB31_7
.LBB31_10:                              # %for.end
                                        #   in Loop: Header=BB31_5 Depth=3
	movq	-24(%rbp), %rax
	movslq	-4(%rbp), %rcx
	movq	(%rax,%rcx,8), %rax
	movslq	-8(%rbp), %rcx
	movq	(%rax,%rcx,8), %rax
	movslq	-12(%rbp), %rcx
	movq	(%rax,%rcx,8), %rdi
	callq	free
# %bb.11:                               # %for.inc23
                                        #   in Loop: Header=BB31_5 Depth=3
	movl	-12(%rbp), %eax
	addl	$1, %eax
	movl	%eax, -12(%rbp)
	jmp	.LBB31_5
.LBB31_12:                              # %for.end25
                                        #   in Loop: Header=BB31_3 Depth=2
	movq	-24(%rbp), %rax
	movslq	-4(%rbp), %rcx
	movq	(%rax,%rcx,8), %rax
	movslq	-8(%rbp), %rcx
	movq	(%rax,%rcx,8), %rdi
	callq	free
# %bb.13:                               # %for.inc30
                                        #   in Loop: Header=BB31_3 Depth=2
	movl	-8(%rbp), %eax
	addl	$1, %eax
	movl	%eax, -8(%rbp)
	jmp	.LBB31_3
.LBB31_14:                              # %for.end32
                                        #   in Loop: Header=BB31_1 Depth=1
	movq	-24(%rbp), %rax
	movslq	-4(%rbp), %rcx
	movq	(%rax,%rcx,8), %rdi
	callq	free
# %bb.15:                               # %for.inc35
                                        #   in Loop: Header=BB31_1 Depth=1
	movl	-4(%rbp), %eax
	addl	$1, %eax
	movl	%eax, -4(%rbp)
	jmp	.LBB31_1
.LBB31_16:                              # %for.end37
	movq	-24(%rbp), %rdi
	callq	free
	cmpl	$15588456, -28(%rbp)    # imm = 0xEDDC68
	jne	.LBB31_18
.LBB31_17:
	addq	$32, %rsp
	popq	%rbp
	.cfi_def_cfa %rsp, 8
	retq
.LBB31_18:                              # %func_exit
	.cfi_def_cfa %rbp, 16
	callq	detect_breach
	jmp	.LBB31_17
.Lfunc_end31:
	.size	free_mem_mincost.18, .Lfunc_end31-free_mem_mincost.18
	.cfi_endproc
                                        # -- End function
	.globl	free_mem_mincost.19     # -- Begin function free_mem_mincost.19
	.p2align	4, 0x90
	.type	free_mem_mincost.19,@function
free_mem_mincost.19:                    # @free_mem_mincost.19
	.cfi_startproc
# %bb.0:                                # %entry
	pushq	%rbp
	.cfi_def_cfa_offset 16
	.cfi_offset %rbp, -16
	movq	%rsp, %rbp
	.cfi_def_cfa_register %rbp
	subq	$32, %rsp
	movl	$909050930, -28(%rbp)   # imm = 0x362F0432
	movq	%rdi, -24(%rbp)
	movl	$0, -4(%rbp)
.LBB32_1:                               # %for.cond
                                        # =>This Loop Header: Depth=1
                                        #     Child Loop BB32_3 Depth 2
                                        #       Child Loop BB32_5 Depth 3
                                        #         Child Loop BB32_7 Depth 4
	movl	-4(%rbp), %ecx
	movq	img, %rax
	movl	52(%rax), %eax
	cltd
	movl	$4, %esi
	idivl	%esi
	cmpl	%eax, %ecx
	jge	.LBB32_16
# %bb.2:                                # %for.body
                                        #   in Loop: Header=BB32_1 Depth=1
	movl	$0, -8(%rbp)
.LBB32_3:                               # %for.cond1
                                        #   Parent Loop BB32_1 Depth=1
                                        # =>  This Loop Header: Depth=2
                                        #       Child Loop BB32_5 Depth 3
                                        #         Child Loop BB32_7 Depth 4
	movl	-8(%rbp), %ecx
	movq	img, %rax
	movl	60(%rax), %eax
	cltd
	movl	$4, %esi
	idivl	%esi
	cmpl	%eax, %ecx
	jge	.LBB32_14
# %bb.4:                                # %for.body4
                                        #   in Loop: Header=BB32_3 Depth=2
	movl	$0, -12(%rbp)
.LBB32_5:                               # %for.cond5
                                        #   Parent Loop BB32_1 Depth=1
                                        #     Parent Loop BB32_3 Depth=2
                                        # =>    This Loop Header: Depth=3
                                        #         Child Loop BB32_7 Depth 4
	movl	-12(%rbp), %eax
	movq	img, %rcx
	cmpl	36(%rcx), %eax
	jge	.LBB32_12
# %bb.6:                                # %for.body7
                                        #   in Loop: Header=BB32_5 Depth=3
	movl	$0, -16(%rbp)
.LBB32_7:                               # %for.cond8
                                        #   Parent Loop BB32_1 Depth=1
                                        #     Parent Loop BB32_3 Depth=2
                                        #       Parent Loop BB32_5 Depth=3
                                        # =>      This Inner Loop Header: Depth=4
	cmpl	$9, -16(%rbp)
	jge	.LBB32_10
# %bb.8:                                # %for.body10
                                        #   in Loop: Header=BB32_7 Depth=4
	movq	-24(%rbp), %rax
	movslq	-4(%rbp), %rcx
	movq	(%rax,%rcx,8), %rax
	movslq	-8(%rbp), %rcx
	movq	(%rax,%rcx,8), %rax
	movslq	-12(%rbp), %rcx
	movq	(%rax,%rcx,8), %rax
	movslq	-16(%rbp), %rcx
	movq	(%rax,%rcx,8), %rdi
	callq	free
# %bb.9:                                # %for.inc
                                        #   in Loop: Header=BB32_7 Depth=4
	movl	-16(%rbp), %eax
	addl	$1, %eax
	movl	%eax, -16(%rbp)
	jmp	.LBB32_7
.LBB32_10:                              # %for.end
                                        #   in Loop: Header=BB32_5 Depth=3
	movq	-24(%rbp), %rax
	movslq	-4(%rbp), %rcx
	movq	(%rax,%rcx,8), %rax
	movslq	-8(%rbp), %rcx
	movq	(%rax,%rcx,8), %rax
	movslq	-12(%rbp), %rcx
	movq	(%rax,%rcx,8), %rdi
	callq	free
# %bb.11:                               # %for.inc23
                                        #   in Loop: Header=BB32_5 Depth=3
	movl	-12(%rbp), %eax
	addl	$1, %eax
	movl	%eax, -12(%rbp)
	jmp	.LBB32_5
.LBB32_12:                              # %for.end25
                                        #   in Loop: Header=BB32_3 Depth=2
	movq	-24(%rbp), %rax
	movslq	-4(%rbp), %rcx
	movq	(%rax,%rcx,8), %rax
	movslq	-8(%rbp), %rcx
	movq	(%rax,%rcx,8), %rdi
	callq	free
# %bb.13:                               # %for.inc30
                                        #   in Loop: Header=BB32_3 Depth=2
	movl	-8(%rbp), %eax
	addl	$1, %eax
	movl	%eax, -8(%rbp)
	jmp	.LBB32_3
.LBB32_14:                              # %for.end32
                                        #   in Loop: Header=BB32_1 Depth=1
	movq	-24(%rbp), %rax
	movslq	-4(%rbp), %rcx
	movq	(%rax,%rcx,8), %rdi
	callq	free
# %bb.15:                               # %for.inc35
                                        #   in Loop: Header=BB32_1 Depth=1
	movl	-4(%rbp), %eax
	addl	$1, %eax
	movl	%eax, -4(%rbp)
	jmp	.LBB32_1
.LBB32_16:                              # %for.end37
	movq	-24(%rbp), %rdi
	callq	free
	cmpl	$909050930, -28(%rbp)   # imm = 0x362F0432
	jne	.LBB32_18
.LBB32_17:
	addq	$32, %rsp
	popq	%rbp
	.cfi_def_cfa %rsp, 8
	retq
.LBB32_18:                              # %func_exit
	.cfi_def_cfa %rbp, 16
	callq	detect_breach
	jmp	.LBB32_17
.Lfunc_end32:
	.size	free_mem_mincost.19, .Lfunc_end32-free_mem_mincost.19
	.cfi_endproc
                                        # -- End function
	.section	.rodata.cst8,"aM",@progbits,8
	.p2align	3               # -- Begin function FastIntegerPelBlockMotionSearch.20
.LCPI33_0:
	.quad	4602678819172646912     # double 0.5
.LCPI33_1:
	.quad	4679240012837945344     # double 65536
	.text
	.globl	FastIntegerPelBlockMotionSearch.20
	.p2align	4, 0x90
	.type	FastIntegerPelBlockMotionSearch.20,@function
FastIntegerPelBlockMotionSearch.20:     # @FastIntegerPelBlockMotionSearch.20
	.cfi_startproc
# %bb.0:                                # %entry
	pushq	%rbp
	.cfi_def_cfa_offset 16
	.cfi_offset %rbp, -16
	movq	%rsp, %rbp
	.cfi_def_cfa_register %rbp
	pushq	%rbx
	subq	$200, %rsp
	.cfi_offset %rbx, -24
	movl	56(%rbp), %eax
	movl	48(%rbp), %eax
	movq	40(%rbp), %rax
	movq	32(%rbp), %rax
	movw	24(%rbp), %ax
	movw	16(%rbp), %ax
	movl	$4906376, -152(%rbp)    # imm = 0x4ADD88
	movq	%rdi, -128(%rbp)
	movw	%si, -46(%rbp)
	movl	%edx, -136(%rbp)
	movl	%ecx, -104(%rbp)
	movl	%r8d, -100(%rbp)
	movl	%r9d, -56(%rbp)
	vmovsd	%xmm0, -168(%rbp)
	movq	img, %rax
	cmpl	$0, 72400(%rax)
	je	.LBB33_3
# %bb.1:                                # %land.lhs.true
	movq	img, %rax
	movq	14168(%rax), %rax
	movq	img, %rcx
	movslq	12(%rcx), %rcx
	imulq	$632, %rcx, %rcx        # imm = 0x278
	addq	%rcx, %rax
	cmpl	$0, 532(%rax)
	je	.LBB33_3
# %bb.2:                                # %cond.true
	movq	img, %rax
	movl	12(%rax), %eax
	cltd
	movl	$2, %ecx
	idivl	%ecx
	cmpl	$0, %edx
	movl	$4, %eax
	cmovnel	%eax, %ecx
	jmp	.LBB33_4
.LBB33_3:                               # %cond.false
	xorl	%ecx, %ecx
	jmp	.LBB33_4
.LBB33_4:                               # %cond.end
	vmovsd	.LCPI33_0(%rip), %xmm0  # xmm0 = mem[0],zero
	vmovsd	.LCPI33_1(%rip), %xmm1  # xmm1 = mem[0],zero
	movl	%ecx, -156(%rbp)
	movl	-136(%rbp), %eax
	addl	-156(%rbp), %eax
	cltq
	movq	listX(,%rax,8), %rax
	movswq	-46(%rbp), %rcx
	movq	(%rax,%rcx,8), %rax
	movq	6432(%rax), %rax
	movq	%rax, -120(%rbp)
	vmulsd	-168(%rbp), %xmm1, %xmm1
	vaddsd	%xmm0, %xmm1, %xmm0
	vcvttsd2si	%xmm0, %eax
	movl	%eax, -88(%rbp)
	movl	$2, -32(%rbp)
	movq	input, %rax
	movslq	-56(%rbp), %rcx
	movl	84(%rax,%rcx,8), %eax
	movl	%eax, -72(%rbp)
	movq	input, %rax
	movslq	-56(%rbp), %rcx
	movl	80(%rax,%rcx,8), %eax
	movl	%eax, -68(%rbp)
	movl	-68(%rbp), %eax
	sarl	$2, %eax
	movl	%eax, -92(%rbp)
	movl	-104(%rbp), %eax
	movl	-32(%rbp), %ecx
                                        # kill: def $cl killed $ecx
	shll	%cl, %eax
	movswl	16(%rbp), %ecx
	addl	%ecx, %eax
	movl	%eax, -84(%rbp)
	movl	-100(%rbp), %eax
	movl	-32(%rbp), %ecx
                                        # kill: def $cl killed $ecx
	shll	%cl, %eax
	movswl	24(%rbp), %ecx
	addl	%ecx, %eax
	movl	%eax, -96(%rbp)
	movl	-104(%rbp), %eax
	movq	32(%rbp), %rcx
	movswl	(%rcx), %ecx
	addl	%ecx, %eax
	movl	%eax, -24(%rbp)
	movl	-100(%rbp), %eax
	movq	40(%rbp), %rcx
	movswl	(%rcx), %ecx
	addl	%ecx, %eax
	movl	%eax, -28(%rbp)
	movl	$0, -44(%rbp)
	movl	$0, -40(%rbp)
	movq	input, %rax
	movl	1236(%rax), %eax
	movl	%eax, -148(%rbp)
	movq	img, %rax
	cmpl	$0, 72400(%rax)
	je	.LBB33_7
# %bb.5:                                # %land.lhs.true28
	movq	img, %rax
	movq	14168(%rax), %rax
	movq	img, %rcx
	movslq	12(%rcx), %rcx
	imulq	$632, %rcx, %rcx        # imm = 0x278
	addq	%rcx, %rax
	cmpl	$0, 532(%rax)
	je	.LBB33_7
# %bb.6:                                # %cond.true35
	movq	img, %rax
	movl	60(%rax), %eax
	cltd
	movl	$2, %ecx
	idivl	%ecx
	jmp	.LBB33_8
.LBB33_7:                               # %cond.false37
	movq	img, %rax
	movl	60(%rax), %eax
.LBB33_8:                               # %cond.end39
	movl	%eax, -160(%rbp)
	movl	-24(%rbp), %eax
	cmpl	48(%rbp), %eax
	jle	.LBB33_13
# %bb.9:                                # %land.lhs.true42
	movl	-24(%rbp), %eax
	movq	img, %rcx
	movl	52(%rcx), %ecx
	subl	$1, %ecx
	subl	48(%rbp), %ecx
	subl	-68(%rbp), %ecx
	cmpl	%ecx, %eax
	jge	.LBB33_13
# %bb.10:                               # %land.lhs.true47
	movl	-28(%rbp), %eax
	cmpl	48(%rbp), %eax
	jle	.LBB33_13
# %bb.11:                               # %land.lhs.true50
	movl	-28(%rbp), %eax
	movl	-160(%rbp), %ecx
	subl	$1, %ecx
	subl	48(%rbp), %ecx
	subl	-72(%rbp), %ecx
	cmpl	%ecx, %eax
	jge	.LBB33_13
# %bb.12:                               # %if.then
	movabsq	$FastLineX, %rax
	movq	%rax, -112(%rbp)
	jmp	.LBB33_14
.LBB33_13:                              # %if.else
	movabsq	$UMVLineX, %rax
	movq	%rax, -112(%rbp)
.LBB33_14:                              # %if.end
	movq	McostState, %rax
	movq	(%rax), %rdi
	movl	48(%rbp), %eax
	shll	$1, %eax
	addl	$1, %eax
	movl	48(%rbp), %ecx
	shll	$1, %ecx
	addl	$1, %ecx
	imull	%ecx, %eax
	shll	$2, %eax
	movslq	%eax, %rdx
	xorl	%esi, %esi
	callq	memset
	movswl	-46(%rbp), %eax
	cmpl	$0, %eax
	jle	.LBB33_19
# %bb.15:                               # %if.then67
	cmpl	$0, pred_SAD_ref
	je	.LBB33_17
# %bb.16:                               # %if.then70
	movslq	-56(%rbp), %rax
	vmovss	Bsize(,%rax,4), %xmm0   # xmm0 = mem[0],zero,zero,zero
	movl	pred_SAD_ref, %eax
	imull	pred_SAD_ref, %eax
	vcvtsi2ss	%eax, %xmm0, %xmm1
	vdivss	%xmm1, %xmm0, %xmm0
	movslq	-56(%rbp), %rax
	vsubss	AlphaSec(,%rax,4), %xmm0, %xmm0
	vmovss	%xmm0, -76(%rbp)
	movslq	-56(%rbp), %rax
	vmovss	Bsize(,%rax,4), %xmm0   # xmm0 = mem[0],zero,zero,zero
	movl	pred_SAD_ref, %eax
	imull	pred_SAD_ref, %eax
	vcvtsi2ss	%eax, %xmm0, %xmm1
	vdivss	%xmm1, %xmm0, %xmm0
	movslq	-56(%rbp), %rax
	vsubss	AlphaThird(,%rax,4), %xmm0, %xmm0
	vmovss	%xmm0, -80(%rbp)
	jmp	.LBB33_18
.LBB33_17:                              # %if.else87
	vxorps	%xmm0, %xmm0, %xmm0
	vmovss	%xmm0, -76(%rbp)
	vmovss	%xmm0, -80(%rbp)
.LBB33_18:                              # %if.end88
	jmp	.LBB33_29
.LBB33_19:                              # %if.else89
	cmpl	$1, -56(%rbp)
	jne	.LBB33_24
# %bb.20:                               # %if.then92
	cmpl	$0, pred_SAD_space
	je	.LBB33_22
# %bb.21:                               # %if.then95
	movslq	-56(%rbp), %rax
	vmovss	Bsize(,%rax,4), %xmm0   # xmm0 = mem[0],zero,zero,zero
	movl	pred_SAD_space, %eax
	imull	pred_SAD_space, %eax
	vcvtsi2ss	%eax, %xmm0, %xmm1
	vdivss	%xmm1, %xmm0, %xmm0
	movslq	-56(%rbp), %rax
	vsubss	AlphaSec(,%rax,4), %xmm0, %xmm0
	vmovss	%xmm0, -76(%rbp)
	movslq	-56(%rbp), %rax
	vmovss	Bsize(,%rax,4), %xmm0   # xmm0 = mem[0],zero,zero,zero
	movl	pred_SAD_space, %eax
	imull	pred_SAD_space, %eax
	vcvtsi2ss	%eax, %xmm0, %xmm1
	vdivss	%xmm1, %xmm0, %xmm0
	movslq	-56(%rbp), %rax
	vsubss	AlphaThird(,%rax,4), %xmm0, %xmm0
	vmovss	%xmm0, -80(%rbp)
	jmp	.LBB33_23
.LBB33_22:                              # %if.else112
	vxorps	%xmm0, %xmm0, %xmm0
	vmovss	%xmm0, -76(%rbp)
	vmovss	%xmm0, -80(%rbp)
.LBB33_23:                              # %if.end113
	jmp	.LBB33_28
.LBB33_24:                              # %if.else114
	cmpl	$0, pred_SAD_uplayer
	je	.LBB33_26
# %bb.25:                               # %if.then117
	movslq	-56(%rbp), %rax
	vmovss	Bsize(,%rax,4), %xmm0   # xmm0 = mem[0],zero,zero,zero
	movl	pred_SAD_uplayer, %eax
	imull	pred_SAD_uplayer, %eax
	vcvtsi2ss	%eax, %xmm0, %xmm1
	vdivss	%xmm1, %xmm0, %xmm0
	movslq	-56(%rbp), %rax
	vsubss	AlphaSec(,%rax,4), %xmm0, %xmm0
	vmovss	%xmm0, -76(%rbp)
	movslq	-56(%rbp), %rax
	vmovss	Bsize(,%rax,4), %xmm0   # xmm0 = mem[0],zero,zero,zero
	movl	pred_SAD_uplayer, %eax
	imull	pred_SAD_uplayer, %eax
	vcvtsi2ss	%eax, %xmm0, %xmm1
	vdivss	%xmm1, %xmm0, %xmm0
	movslq	-56(%rbp), %rax
	vsubss	AlphaThird(,%rax,4), %xmm0, %xmm0
	vmovss	%xmm0, -80(%rbp)
	jmp	.LBB33_27
.LBB33_26:                              # %if.else134
	vxorps	%xmm0, %xmm0, %xmm0
	vmovss	%xmm0, -76(%rbp)
	vmovss	%xmm0, -80(%rbp)
.LBB33_27:                              # %if.end135
	jmp	.LBB33_28
.LBB33_28:                              # %if.end136
	jmp	.LBB33_29
.LBB33_29:                              # %if.end137
	movl	-24(%rbp), %eax
	movl	%eax, -12(%rbp)
	movl	-28(%rbp), %eax
	movl	%eax, -16(%rbp)
	movl	-88(%rbp), %eax
	movq	mvbits, %rdx
	movl	-12(%rbp), %esi
	movl	-32(%rbp), %ecx
                                        # kill: def $cl killed $ecx
	shll	%cl, %esi
	subl	-84(%rbp), %esi
	movslq	%esi, %rcx
	movl	(%rdx,%rcx,4), %edx
	movq	mvbits, %rsi
	movl	-16(%rbp), %edi
	movl	-32(%rbp), %ecx
                                        # kill: def $cl killed $ecx
	shll	%cl, %edi
	subl	-96(%rbp), %edi
	movslq	%edi, %rcx
	addl	(%rsi,%rcx,4), %edx
	imull	%edx, %eax
	sarl	$16, %eax
	movl	%eax, -20(%rbp)
	movq	-120(%rbp), %rdi
	movq	-128(%rbp), %rsi
	movq	-112(%rbp), %rdx
	movl	-72(%rbp), %ecx
	movl	-68(%rbp), %r8d
	movl	-92(%rbp), %r9d
	movl	-20(%rbp), %eax
	movl	56(%rbp), %ebx
	movl	-12(%rbp), %r10d
	movl	-16(%rbp), %r11d
	movl	%eax, (%rsp)
	movl	%ebx, 8(%rsp)
	movl	%r10d, 16(%rsp)
	movl	%r11d, 24(%rsp)
	callq	PartCalMad
	movl	%eax, -20(%rbp)
	movl	-20(%rbp), %eax
	movq	McostState, %rcx
	movslq	48(%rbp), %rdx
	movq	(%rcx,%rdx,8), %rcx
	movslq	48(%rbp), %rdx
	movl	%eax, (%rcx,%rdx,4)
	movl	-20(%rbp), %eax
	cmpl	56(%rbp), %eax
	jge	.LBB33_31
# %bb.30:                               # %if.then155
	movl	-20(%rbp), %eax
	movl	%eax, 56(%rbp)
	movl	-12(%rbp), %eax
	movl	%eax, -44(%rbp)
	movl	-16(%rbp), %eax
	movl	%eax, -40(%rbp)
.LBB33_31:                              # %if.end156
	movl	-44(%rbp), %eax
	movl	%eax, -64(%rbp)
	movl	-40(%rbp), %eax
	movl	%eax, -60(%rbp)
	movl	$0, -36(%rbp)
.LBB33_32:                              # %for.cond
                                        # =>This Inner Loop Header: Depth=1
	cmpl	$4, -36(%rbp)
	jge	.LBB33_42
# %bb.33:                               # %for.body
                                        #   in Loop: Header=BB33_32 Depth=1
	movl	-64(%rbp), %eax
	movslq	-36(%rbp), %rcx
	addl	FastIntegerPelBlockMotionSearch.Diamond_x(,%rcx,4), %eax
	movl	%eax, -12(%rbp)
	movl	-60(%rbp), %eax
	movslq	-36(%rbp), %rcx
	addl	FastIntegerPelBlockMotionSearch.Diamond_y(,%rcx,4), %eax
	movl	%eax, -16(%rbp)
	movl	-12(%rbp), %edi
	subl	-24(%rbp), %edi
	callq	abs
	cmpl	48(%rbp), %eax
	jg	.LBB33_40
# %bb.34:                               # %land.lhs.true169
                                        #   in Loop: Header=BB33_32 Depth=1
	movl	-16(%rbp), %edi
	subl	-28(%rbp), %edi
	callq	abs
	cmpl	48(%rbp), %eax
	jg	.LBB33_40
# %bb.35:                               # %if.then174
                                        #   in Loop: Header=BB33_32 Depth=1
	movq	McostState, %rax
	movl	-16(%rbp), %ecx
	subl	-28(%rbp), %ecx
	addl	48(%rbp), %ecx
	movslq	%ecx, %rcx
