	.text
	.file	"fast_me.c"
	.section	.rodata.cst4,"aM",@progbits,4
	.p2align	2               # -- Begin function DefineThreshold
.LCPI0_0:
	.long	1041865114              # float 0.150000006
.LCPI0_1:
	.long	1038174126              # float 0.109999999
.LCPI0_2:
	.long	1039516303              # float 0.119999997
.LCPI0_3:
	.long	1034147594              # float 0.0799999982
.LCPI0_4:
	.long	1032805417              # float 0.0700000003
.LCPI0_5:
	.long	1031127695              # float 0.0599999987
.LCPI0_6:
	.long	1025758986              # float 0.0399999991
.LCPI0_7:
	.long	1022739087              # float 0.0299999993
.LCPI0_8:
	.long	1017370378              # float 0.0199999996
.LCPI0_9:
	.long	1008981770              # float 0.00999999977
	.text
	.globl	DefineThreshold
	.p2align	4, 0x90
	.type	DefineThreshold,@function
DefineThreshold:                        # @DefineThreshold
	.cfi_startproc
# %bb.0:                                # %entry
	pushq	%rbp
	.cfi_def_cfa_offset 16
	.cfi_offset %rbp, -16
	movq	%rsp, %rbp
	.cfi_def_cfa_register %rbp
	vmovss	.LCPI0_0(%rip), %xmm8   # xmm8 = mem[0],zero,zero,zero
	vmovss	.LCPI0_1(%rip), %xmm9   # xmm9 = mem[0],zero,zero,zero
	vmovss	.LCPI0_2(%rip), %xmm2   # xmm2 = mem[0],zero,zero,zero
	vmovss	.LCPI0_3(%rip), %xmm3   # xmm3 = mem[0],zero,zero,zero
	vmovss	.LCPI0_4(%rip), %xmm4   # xmm4 = mem[0],zero,zero,zero
	vmovss	.LCPI0_5(%rip), %xmm5   # xmm5 = mem[0],zero,zero,zero
	vmovss	.LCPI0_6(%rip), %xmm6   # xmm6 = mem[0],zero,zero,zero
	vmovss	.LCPI0_7(%rip), %xmm7   # xmm7 = mem[0],zero,zero,zero
	vmovss	.LCPI0_8(%rip), %xmm0   # xmm0 = mem[0],zero,zero,zero
	vmovss	.LCPI0_9(%rip), %xmm1   # xmm1 = mem[0],zero,zero,zero
	vmovss	%xmm1, AlphaSec+4
	vmovss	%xmm1, AlphaSec+8
	vmovss	%xmm1, AlphaSec+12
	vmovss	%xmm0, AlphaSec+16
	vmovss	%xmm7, AlphaSec+20
	vmovss	%xmm7, AlphaSec+24
	vmovss	%xmm6, AlphaSec+28
	vmovss	%xmm5, AlphaThird+4
	vmovss	%xmm4, AlphaThird+8
	vmovss	%xmm4, AlphaThird+12
	vmovss	%xmm3, AlphaThird+16
	vmovss	%xmm2, AlphaThird+20
	vmovss	%xmm9, AlphaThird+24
	vmovss	%xmm8, AlphaThird+28
	callq	DefineThresholdMB
	popq	%rbp
	.cfi_def_cfa %rsp, 8
	retq
.Lfunc_end0:
	.size	DefineThreshold, .Lfunc_end0-DefineThreshold
	.cfi_endproc
                                        # -- End function
	.globl	DefineThresholdMB       # -- Begin function DefineThresholdMB
	.p2align	4, 0x90
	.type	DefineThresholdMB,@function
DefineThresholdMB:                      # @DefineThresholdMB
	.cfi_startproc
# %bb.0:                                # %rand_bb
	pushq	%rbp
	.cfi_def_cfa_offset 16
	.cfi_offset %rbp, -16
	movq	%rsp, %rbp
	.cfi_def_cfa_register %rbp
	callq	get_rand
	cmpl	$0, %eax
	jne	.LBB1_17
# %bb.1:                                # %func_DefineThresholdMB.2
	callq	DefineThresholdMB.2
	popq	%rbp
	.cfi_def_cfa %rsp, 8
	retq
.LBB1_2:                                # %func_DefineThresholdMB.6
	.cfi_def_cfa %rbp, 16
	callq	DefineThresholdMB.6
	popq	%rbp
	.cfi_def_cfa %rsp, 8
	retq
.LBB1_3:                                # %func_DefineThresholdMB.14
	.cfi_def_cfa %rbp, 16
	callq	DefineThresholdMB.14
	popq	%rbp
	.cfi_def_cfa %rsp, 8
	retq
.LBB1_4:                                # %func_DefineThresholdMB.27
	.cfi_def_cfa %rbp, 16
	callq	DefineThresholdMB.27
	popq	%rbp
	.cfi_def_cfa %rsp, 8
	retq
.LBB1_5:                                # %func_DefineThresholdMB.30
	.cfi_def_cfa %rbp, 16
	callq	DefineThresholdMB.30
	popq	%rbp
	.cfi_def_cfa %rsp, 8
	retq
.LBB1_6:                                # %func_DefineThresholdMB.34
	.cfi_def_cfa %rbp, 16
	callq	DefineThresholdMB.34
	popq	%rbp
	.cfi_def_cfa %rsp, 8
	retq
.LBB1_7:                                # %func_DefineThresholdMB.36
	.cfi_def_cfa %rbp, 16
	callq	DefineThresholdMB.36
	popq	%rbp
	.cfi_def_cfa %rsp, 8
	retq
.LBB1_8:                                # %func_DefineThresholdMB.40
	.cfi_def_cfa %rbp, 16
	callq	DefineThresholdMB.40
	popq	%rbp
	.cfi_def_cfa %rsp, 8
	retq
.LBB1_9:                                # %func_DefineThresholdMB.67
	.cfi_def_cfa %rbp, 16
	callq	DefineThresholdMB.67
	popq	%rbp
	.cfi_def_cfa %rsp, 8
	retq
.LBB1_10:                               # %func_DefineThresholdMB.71
	.cfi_def_cfa %rbp, 16
	callq	DefineThresholdMB.71
	popq	%rbp
	.cfi_def_cfa %rsp, 8
	retq
.LBB1_11:                               # %func_DefineThresholdMB.77
	.cfi_def_cfa %rbp, 16
	callq	DefineThresholdMB.77
	popq	%rbp
	.cfi_def_cfa %rsp, 8
	retq
.LBB1_12:                               # %func_DefineThresholdMB.86
	.cfi_def_cfa %rbp, 16
	callq	DefineThresholdMB.86
	popq	%rbp
	.cfi_def_cfa %rsp, 8
	retq
.LBB1_13:                               # %func_DefineThresholdMB.97
	.cfi_def_cfa %rbp, 16
	callq	DefineThresholdMB.97
	popq	%rbp
	.cfi_def_cfa %rsp, 8
	retq
.LBB1_14:                               # %func_DefineThresholdMB.103
	.cfi_def_cfa %rbp, 16
	callq	DefineThresholdMB.103
	popq	%rbp
	.cfi_def_cfa %rsp, 8
	retq
.LBB1_15:                               # %func_DefineThresholdMB.119
	.cfi_def_cfa %rbp, 16
	callq	DefineThresholdMB.119
	popq	%rbp
	.cfi_def_cfa %rsp, 8
	retq
.LBB1_16:                               # %func_DefineThresholdMB.125
	.cfi_def_cfa %rbp, 16
	callq	DefineThresholdMB.125
	popq	%rbp
	.cfi_def_cfa %rsp, 8
	retq
.LBB1_17:                               # %ctrl0
	.cfi_def_cfa %rbp, 16
	cmpl	$1, %eax
	je	.LBB1_2
# %bb.18:                               # %ctrl1
	cmpl	$2, %eax
	je	.LBB1_3
# %bb.19:                               # %ctrl2
	cmpl	$3, %eax
	je	.LBB1_4
# %bb.20:                               # %ctrl3
	cmpl	$4, %eax
	je	.LBB1_5
# %bb.21:                               # %ctrl4
	cmpl	$5, %eax
	je	.LBB1_6
# %bb.22:                               # %ctrl5
	cmpl	$6, %eax
	je	.LBB1_7
# %bb.23:                               # %ctrl6
	cmpl	$7, %eax
	je	.LBB1_8
# %bb.24:                               # %ctrl7
	cmpl	$8, %eax
	je	.LBB1_9
# %bb.25:                               # %ctrl8
	cmpl	$9, %eax
	je	.LBB1_10
# %bb.26:                               # %ctrl9
	cmpl	$10, %eax
	je	.LBB1_11
# %bb.27:                               # %ctrl10
	cmpl	$11, %eax
	je	.LBB1_12
# %bb.28:                               # %ctrl11
	cmpl	$12, %eax
	je	.LBB1_13
# %bb.29:                               # %ctrl12
	cmpl	$13, %eax
	je	.LBB1_14
# %bb.30:                               # %ctrl13
	cmpl	$14, %eax
	je	.LBB1_15
	jmp	.LBB1_16
.Lfunc_end1:
	.size	DefineThresholdMB, .Lfunc_end1-DefineThresholdMB
	.cfi_endproc
                                        # -- End function
	.globl	get_mem_mincost         # -- Begin function get_mem_mincost
	.p2align	4, 0x90
	.type	get_mem_mincost,@function
get_mem_mincost:                        # @get_mem_mincost
	.cfi_startproc
# %bb.0:                                # %rand_bb
	pushq	%rbp
	.cfi_def_cfa_offset 16
	.cfi_offset %rbp, -16
	movq	%rsp, %rbp
	.cfi_def_cfa_register %rbp
	pushq	%rbx
	pushq	%rax
	.cfi_offset %rbx, -24
	movq	%rdi, %rbx
	callq	get_rand
	cmpl	$0, %eax
	jne	.LBB2_17
# %bb.1:                                # %func_get_mem_mincost.8
	movq	%rbx, %rdi
	callq	get_mem_mincost.8
	addq	$8, %rsp
	popq	%rbx
	popq	%rbp
	.cfi_def_cfa %rsp, 8
	retq
.LBB2_2:                                # %func_get_mem_mincost.15
	.cfi_def_cfa %rbp, 16
	movq	%rbx, %rdi
	callq	get_mem_mincost.15
	addq	$8, %rsp
	popq	%rbx
	popq	%rbp
	.cfi_def_cfa %rsp, 8
	retq
.LBB2_3:                                # %func_get_mem_mincost.28
	.cfi_def_cfa %rbp, 16
	movq	%rbx, %rdi
	callq	get_mem_mincost.28
	addq	$8, %rsp
	popq	%rbx
	popq	%rbp
	.cfi_def_cfa %rsp, 8
	retq
.LBB2_4:                                # %func_get_mem_mincost.47
	.cfi_def_cfa %rbp, 16
	movq	%rbx, %rdi
	callq	get_mem_mincost.47
	addq	$8, %rsp
	popq	%rbx
	popq	%rbp
	.cfi_def_cfa %rsp, 8
	retq
.LBB2_5:                                # %func_get_mem_mincost.76
	.cfi_def_cfa %rbp, 16
	movq	%rbx, %rdi
	callq	get_mem_mincost.76
	addq	$8, %rsp
	popq	%rbx
	popq	%rbp
	.cfi_def_cfa %rsp, 8
	retq
.LBB2_6:                                # %func_get_mem_mincost.84
	.cfi_def_cfa %rbp, 16
	movq	%rbx, %rdi
	callq	get_mem_mincost.84
	addq	$8, %rsp
	popq	%rbx
	popq	%rbp
	.cfi_def_cfa %rsp, 8
	retq
.LBB2_7:                                # %func_get_mem_mincost.92
	.cfi_def_cfa %rbp, 16
	movq	%rbx, %rdi
	callq	get_mem_mincost.92
	addq	$8, %rsp
	popq	%rbx
	popq	%rbp
	.cfi_def_cfa %rsp, 8
	retq
.LBB2_8:                                # %func_get_mem_mincost.107
	.cfi_def_cfa %rbp, 16
	movq	%rbx, %rdi
	callq	get_mem_mincost.107
	addq	$8, %rsp
	popq	%rbx
	popq	%rbp
	.cfi_def_cfa %rsp, 8
	retq
.LBB2_9:                                # %func_get_mem_mincost.109
	.cfi_def_cfa %rbp, 16
	movq	%rbx, %rdi
	callq	get_mem_mincost.109
	addq	$8, %rsp
	popq	%rbx
	popq	%rbp
	.cfi_def_cfa %rsp, 8
	retq
.LBB2_10:                               # %func_get_mem_mincost.118
	.cfi_def_cfa %rbp, 16
	movq	%rbx, %rdi
	callq	get_mem_mincost.118
	addq	$8, %rsp
	popq	%rbx
	popq	%rbp
	.cfi_def_cfa %rsp, 8
	retq
.LBB2_11:                               # %func_get_mem_mincost.120
	.cfi_def_cfa %rbp, 16
	movq	%rbx, %rdi
	callq	get_mem_mincost.120
	addq	$8, %rsp
	popq	%rbx
	popq	%rbp
	.cfi_def_cfa %rsp, 8
	retq
.LBB2_12:                               # %func_get_mem_mincost.133
	.cfi_def_cfa %rbp, 16
	movq	%rbx, %rdi
	callq	get_mem_mincost.133
	addq	$8, %rsp
	popq	%rbx
	popq	%rbp
	.cfi_def_cfa %rsp, 8
	retq
.LBB2_13:                               # %func_get_mem_mincost.142
	.cfi_def_cfa %rbp, 16
	movq	%rbx, %rdi
	callq	get_mem_mincost.142
	addq	$8, %rsp
	popq	%rbx
	popq	%rbp
	.cfi_def_cfa %rsp, 8
	retq
.LBB2_14:                               # %func_get_mem_mincost.152
	.cfi_def_cfa %rbp, 16
	movq	%rbx, %rdi
	callq	get_mem_mincost.152
	addq	$8, %rsp
	popq	%rbx
	popq	%rbp
	.cfi_def_cfa %rsp, 8
	retq
.LBB2_15:                               # %func_get_mem_mincost.158
	.cfi_def_cfa %rbp, 16
	movq	%rbx, %rdi
	callq	get_mem_mincost.158
	addq	$8, %rsp
	popq	%rbx
	popq	%rbp
	.cfi_def_cfa %rsp, 8
	retq
.LBB2_16:                               # %func_get_mem_mincost.159
	.cfi_def_cfa %rbp, 16
	movq	%rbx, %rdi
	callq	get_mem_mincost.159
	addq	$8, %rsp
	popq	%rbx
	popq	%rbp
	.cfi_def_cfa %rsp, 8
	retq
.LBB2_17:                               # %ctrl0
	.cfi_def_cfa %rbp, 16
	cmpl	$1, %eax
	je	.LBB2_2
# %bb.18:                               # %ctrl1
	cmpl	$2, %eax
	je	.LBB2_3
# %bb.19:                               # %ctrl2
	cmpl	$3, %eax
	je	.LBB2_4
# %bb.20:                               # %ctrl3
	cmpl	$4, %eax
	je	.LBB2_5
# %bb.21:                               # %ctrl4
	cmpl	$5, %eax
	je	.LBB2_6
# %bb.22:                               # %ctrl5
	cmpl	$6, %eax
	je	.LBB2_7
# %bb.23:                               # %ctrl6
	cmpl	$7, %eax
	je	.LBB2_8
# %bb.24:                               # %ctrl7
	cmpl	$8, %eax
	je	.LBB2_9
# %bb.25:                               # %ctrl8
	cmpl	$9, %eax
	je	.LBB2_10
# %bb.26:                               # %ctrl9
	cmpl	$10, %eax
	je	.LBB2_11
# %bb.27:                               # %ctrl10
	cmpl	$11, %eax
	je	.LBB2_12
# %bb.28:                               # %ctrl11
	cmpl	$12, %eax
	je	.LBB2_13
# %bb.29:                               # %ctrl12
	cmpl	$13, %eax
	je	.LBB2_14
# %bb.30:                               # %ctrl13
	cmpl	$14, %eax
	je	.LBB2_15
	jmp	.LBB2_16
.Lfunc_end2:
	.size	get_mem_mincost, .Lfunc_end2-get_mem_mincost
	.cfi_endproc
                                        # -- End function
	.globl	get_mem_bwmincost       # -- Begin function get_mem_bwmincost
	.p2align	4, 0x90
	.type	get_mem_bwmincost,@function
get_mem_bwmincost:                      # @get_mem_bwmincost
	.cfi_startproc
# %bb.0:                                # %rand_bb
	pushq	%rbp
	.cfi_def_cfa_offset 16
	.cfi_offset %rbp, -16
	movq	%rsp, %rbp
	.cfi_def_cfa_register %rbp
	pushq	%rbx
	pushq	%rax
	.cfi_offset %rbx, -24
	movq	%rdi, %rbx
	callq	get_rand
	cmpl	$0, %eax
	jne	.LBB3_17
# %bb.1:                                # %func_get_mem_bwmincost.11
	movq	%rbx, %rdi
	callq	get_mem_bwmincost.11
	addq	$8, %rsp
	popq	%rbx
	popq	%rbp
	.cfi_def_cfa %rsp, 8
	retq
.LBB3_2:                                # %func_get_mem_bwmincost.33
	.cfi_def_cfa %rbp, 16
	movq	%rbx, %rdi
	callq	get_mem_bwmincost.33
	addq	$8, %rsp
	popq	%rbx
	popq	%rbp
	.cfi_def_cfa %rsp, 8
	retq
.LBB3_3:                                # %func_get_mem_bwmincost.48
	.cfi_def_cfa %rbp, 16
	movq	%rbx, %rdi
	callq	get_mem_bwmincost.48
	addq	$8, %rsp
	popq	%rbx
	popq	%rbp
	.cfi_def_cfa %rsp, 8
	retq
.LBB3_4:                                # %func_get_mem_bwmincost.55
	.cfi_def_cfa %rbp, 16
	movq	%rbx, %rdi
	callq	get_mem_bwmincost.55
	addq	$8, %rsp
	popq	%rbx
	popq	%rbp
	.cfi_def_cfa %rsp, 8
	retq
.LBB3_5:                                # %func_get_mem_bwmincost.57
	.cfi_def_cfa %rbp, 16
	movq	%rbx, %rdi
	callq	get_mem_bwmincost.57
	addq	$8, %rsp
	popq	%rbx
	popq	%rbp
	.cfi_def_cfa %rsp, 8
	retq
.LBB3_6:                                # %func_get_mem_bwmincost.58
	.cfi_def_cfa %rbp, 16
	movq	%rbx, %rdi
	callq	get_mem_bwmincost.58
	addq	$8, %rsp
	popq	%rbx
	popq	%rbp
	.cfi_def_cfa %rsp, 8
	retq
.LBB3_7:                                # %func_get_mem_bwmincost.75
	.cfi_def_cfa %rbp, 16
	movq	%rbx, %rdi
	callq	get_mem_bwmincost.75
	addq	$8, %rsp
	popq	%rbx
	popq	%rbp
	.cfi_def_cfa %rsp, 8
	retq
.LBB3_8:                                # %func_get_mem_bwmincost.98
	.cfi_def_cfa %rbp, 16
	movq	%rbx, %rdi
	callq	get_mem_bwmincost.98
	addq	$8, %rsp
	popq	%rbx
	popq	%rbp
	.cfi_def_cfa %rsp, 8
	retq
.LBB3_9:                                # %func_get_mem_bwmincost.122
	.cfi_def_cfa %rbp, 16
	movq	%rbx, %rdi
	callq	get_mem_bwmincost.122
	addq	$8, %rsp
	popq	%rbx
	popq	%rbp
	.cfi_def_cfa %rsp, 8
	retq
.LBB3_10:                               # %func_get_mem_bwmincost.124
	.cfi_def_cfa %rbp, 16
	movq	%rbx, %rdi
	callq	get_mem_bwmincost.124
	addq	$8, %rsp
	popq	%rbx
	popq	%rbp
	.cfi_def_cfa %rsp, 8
	retq
.LBB3_11:                               # %func_get_mem_bwmincost.129
	.cfi_def_cfa %rbp, 16
	movq	%rbx, %rdi
	callq	get_mem_bwmincost.129
	addq	$8, %rsp
	popq	%rbx
	popq	%rbp
	.cfi_def_cfa %rsp, 8
	retq
.LBB3_12:                               # %func_get_mem_bwmincost.132
	.cfi_def_cfa %rbp, 16
	movq	%rbx, %rdi
	callq	get_mem_bwmincost.132
	addq	$8, %rsp
	popq	%rbx
	popq	%rbp
	.cfi_def_cfa %rsp, 8
	retq
.LBB3_13:                               # %func_get_mem_bwmincost.139
	.cfi_def_cfa %rbp, 16
	movq	%rbx, %rdi
	callq	get_mem_bwmincost.139
	addq	$8, %rsp
	popq	%rbx
	popq	%rbp
	.cfi_def_cfa %rsp, 8
	retq
.LBB3_14:                               # %func_get_mem_bwmincost.151
	.cfi_def_cfa %rbp, 16
	movq	%rbx, %rdi
	callq	get_mem_bwmincost.151
	addq	$8, %rsp
	popq	%rbx
	popq	%rbp
	.cfi_def_cfa %rsp, 8
	retq
.LBB3_15:                               # %func_get_mem_bwmincost.153
	.cfi_def_cfa %rbp, 16
	movq	%rbx, %rdi
	callq	get_mem_bwmincost.153
	addq	$8, %rsp
	popq	%rbx
	popq	%rbp
	.cfi_def_cfa %rsp, 8
	retq
.LBB3_16:                               # %func_get_mem_bwmincost.157
	.cfi_def_cfa %rbp, 16
	movq	%rbx, %rdi
	callq	get_mem_bwmincost.157
	addq	$8, %rsp
	popq	%rbx
	popq	%rbp
	.cfi_def_cfa %rsp, 8
	retq
.LBB3_17:                               # %ctrl0
	.cfi_def_cfa %rbp, 16
	cmpl	$1, %eax
	je	.LBB3_2
# %bb.18:                               # %ctrl1
	cmpl	$2, %eax
	je	.LBB3_3
# %bb.19:                               # %ctrl2
	cmpl	$3, %eax
	je	.LBB3_4
# %bb.20:                               # %ctrl3
	cmpl	$4, %eax
	je	.LBB3_5
# %bb.21:                               # %ctrl4
	cmpl	$5, %eax
	je	.LBB3_6
# %bb.22:                               # %ctrl5
	cmpl	$6, %eax
	je	.LBB3_7
# %bb.23:                               # %ctrl6
	cmpl	$7, %eax
	je	.LBB3_8
# %bb.24:                               # %ctrl7
	cmpl	$8, %eax
	je	.LBB3_9
# %bb.25:                               # %ctrl8
	cmpl	$9, %eax
	je	.LBB3_10
# %bb.26:                               # %ctrl9
	cmpl	$10, %eax
	je	.LBB3_11
# %bb.27:                               # %ctrl10
	cmpl	$11, %eax
	je	.LBB3_12
# %bb.28:                               # %ctrl11
	cmpl	$12, %eax
	je	.LBB3_13
# %bb.29:                               # %ctrl12
	cmpl	$13, %eax
	je	.LBB3_14
# %bb.30:                               # %ctrl13
	cmpl	$14, %eax
	je	.LBB3_15
	jmp	.LBB3_16
.Lfunc_end3:
	.size	get_mem_bwmincost, .Lfunc_end3-get_mem_bwmincost
	.cfi_endproc
                                        # -- End function
	.globl	get_mem_FME             # -- Begin function get_mem_FME
	.p2align	4, 0x90
	.type	get_mem_FME,@function
get_mem_FME:                            # @get_mem_FME
	.cfi_startproc
# %bb.0:                                # %entry
	pushq	%rbp
	.cfi_def_cfa_offset 16
	.cfi_offset %rbp, -16
	movq	%rsp, %rbp
	.cfi_def_cfa_register %rbp
	subq	$16, %rsp
	movl	$0, -4(%rbp)
	movq	img, %rax
	movl	52(%rax), %eax
	sarl	$4, %eax
	addl	$1, %eax
	movslq	%eax, %rdi
	movl	$4, %esi
	callq	calloc
	xorl	%ecx, %ecx
	movq	%rax, flag_intra
	cmpq	%rax, %rcx
	jne	.LBB4_2
# %bb.1:                                # %if.then
	movabsq	$.L.str.1, %rdi
	callq	no_mem_exit
.LBB4_2:                                # %if.end
	movq	input, %rax
	movl	32(%rax), %esi
	shll	$1, %esi
	addl	$1, %esi
	movq	input, %rax
	movl	32(%rax), %edx
	shll	$1, %edx
	addl	$1, %edx
	movabsq	$McostState, %rdi
	callq	get_mem2Dint
	addl	-4(%rbp), %eax
	movl	%eax, -4(%rbp)
	movabsq	$all_mincost, %rdi
	callq	get_mem_mincost
	addl	-4(%rbp), %eax
	movl	%eax, -4(%rbp)
	movabsq	$all_bwmincost, %rdi
	callq	get_mem_bwmincost
	addl	-4(%rbp), %eax
	movl	%eax, -4(%rbp)
	movabsq	$SearchState, %rdi
	movl	$7, %esi
	movl	$7, %edx
	callq	get_mem2D
	addl	-4(%rbp), %eax
	movl	%eax, -4(%rbp)
	movl	-4(%rbp), %eax
	addq	$16, %rsp
	popq	%rbp
	.cfi_def_cfa %rsp, 8
	retq
.Lfunc_end4:
	.size	get_mem_FME, .Lfunc_end4-get_mem_FME
	.cfi_endproc
                                        # -- End function
	.globl	free_mem_mincost        # -- Begin function free_mem_mincost
	.p2align	4, 0x90
	.type	free_mem_mincost,@function
free_mem_mincost:                       # @free_mem_mincost
	.cfi_startproc
# %bb.0:                                # %rand_bb
	pushq	%rbp
	.cfi_def_cfa_offset 16
	.cfi_offset %rbp, -16
	movq	%rsp, %rbp
	.cfi_def_cfa_register %rbp
	pushq	%rbx
	pushq	%rax
	.cfi_offset %rbx, -24
	movq	%rdi, %rbx
	callq	get_rand
	cmpl	$0, %eax
	jne	.LBB5_17
# %bb.1:                                # %func_free_mem_mincost.10
	movq	%rbx, %rdi
	callq	free_mem_mincost.10
	addq	$8, %rsp
	popq	%rbx
	popq	%rbp
	.cfi_def_cfa %rsp, 8
	retq
.LBB5_2:                                # %func_free_mem_mincost.19
	.cfi_def_cfa %rbp, 16
	movq	%rbx, %rdi
	callq	free_mem_mincost.19
	addq	$8, %rsp
	popq	%rbx
	popq	%rbp
	.cfi_def_cfa %rsp, 8
	retq
.LBB5_3:                                # %func_free_mem_mincost.24
	.cfi_def_cfa %rbp, 16
	movq	%rbx, %rdi
	callq	free_mem_mincost.24
	addq	$8, %rsp
	popq	%rbx
	popq	%rbp
	.cfi_def_cfa %rsp, 8
	retq
.LBB5_4:                                # %func_free_mem_mincost.26
	.cfi_def_cfa %rbp, 16
	movq	%rbx, %rdi
	callq	free_mem_mincost.26
	addq	$8, %rsp
	popq	%rbx
	popq	%rbp
	.cfi_def_cfa %rsp, 8
	retq
.LBB5_5:                                # %func_free_mem_mincost.35
	.cfi_def_cfa %rbp, 16
	movq	%rbx, %rdi
	callq	free_mem_mincost.35
	addq	$8, %rsp
	popq	%rbx
	popq	%rbp
	.cfi_def_cfa %rsp, 8
	retq
.LBB5_6:                                # %func_free_mem_mincost.37
	.cfi_def_cfa %rbp, 16
	movq	%rbx, %rdi
	callq	free_mem_mincost.37
	addq	$8, %rsp
	popq	%rbx
	popq	%rbp
	.cfi_def_cfa %rsp, 8
	retq
.LBB5_7:                                # %func_free_mem_mincost.39
	.cfi_def_cfa %rbp, 16
	movq	%rbx, %rdi
	callq	free_mem_mincost.39
	addq	$8, %rsp
	popq	%rbx
	popq	%rbp
	.cfi_def_cfa %rsp, 8
	retq
.LBB5_8:                                # %func_free_mem_mincost.63
	.cfi_def_cfa %rbp, 16
	movq	%rbx, %rdi
	callq	free_mem_mincost.63
	addq	$8, %rsp
	popq	%rbx
	popq	%rbp
	.cfi_def_cfa %rsp, 8
	retq
.LBB5_9:                                # %func_free_mem_mincost.69
	.cfi_def_cfa %rbp, 16
	movq	%rbx, %rdi
	callq	free_mem_mincost.69
	addq	$8, %rsp
	popq	%rbx
	popq	%rbp
	.cfi_def_cfa %rsp, 8
	retq
.LBB5_10:                               # %func_free_mem_mincost.70
	.cfi_def_cfa %rbp, 16
	movq	%rbx, %rdi
	callq	free_mem_mincost.70
	addq	$8, %rsp
	popq	%rbx
	popq	%rbp
	.cfi_def_cfa %rsp, 8
	retq
.LBB5_11:                               # %func_free_mem_mincost.73
	.cfi_def_cfa %rbp, 16
	movq	%rbx, %rdi
	callq	free_mem_mincost.73
	addq	$8, %rsp
	popq	%rbx
	popq	%rbp
	.cfi_def_cfa %rsp, 8
	retq
.LBB5_12:                               # %func_free_mem_mincost.81
	.cfi_def_cfa %rbp, 16
	movq	%rbx, %rdi
	callq	free_mem_mincost.81
	addq	$8, %rsp
	popq	%rbx
	popq	%rbp
	.cfi_def_cfa %rsp, 8
	retq
.LBB5_13:                               # %func_free_mem_mincost.85
	.cfi_def_cfa %rbp, 16
	movq	%rbx, %rdi
	callq	free_mem_mincost.85
	addq	$8, %rsp
	popq	%rbx
	popq	%rbp
	.cfi_def_cfa %rsp, 8
	retq
.LBB5_14:                               # %func_free_mem_mincost.91
	.cfi_def_cfa %rbp, 16
	movq	%rbx, %rdi
	callq	free_mem_mincost.91
	addq	$8, %rsp
	popq	%rbx
	popq	%rbp
	.cfi_def_cfa %rsp, 8
	retq
.LBB5_15:                               # %func_free_mem_mincost.106
	.cfi_def_cfa %rbp, 16
	movq	%rbx, %rdi
	callq	free_mem_mincost.106
	addq	$8, %rsp
	popq	%rbx
	popq	%rbp
	.cfi_def_cfa %rsp, 8
	retq
.LBB5_16:                               # %func_free_mem_mincost.113
	.cfi_def_cfa %rbp, 16
	movq	%rbx, %rdi
	callq	free_mem_mincost.113
	addq	$8, %rsp
	popq	%rbx
	popq	%rbp
	.cfi_def_cfa %rsp, 8
	retq
.LBB5_17:                               # %ctrl0
	.cfi_def_cfa %rbp, 16
	cmpl	$1, %eax
	je	.LBB5_2
# %bb.18:                               # %ctrl1
	cmpl	$2, %eax
	je	.LBB5_3
# %bb.19:                               # %ctrl2
	cmpl	$3, %eax
	je	.LBB5_4
# %bb.20:                               # %ctrl3
	cmpl	$4, %eax
	je	.LBB5_5
# %bb.21:                               # %ctrl4
	cmpl	$5, %eax
	je	.LBB5_6
# %bb.22:                               # %ctrl5
	cmpl	$6, %eax
	je	.LBB5_7
# %bb.23:                               # %ctrl6
	cmpl	$7, %eax
	je	.LBB5_8
# %bb.24:                               # %ctrl7
	cmpl	$8, %eax
	je	.LBB5_9
# %bb.25:                               # %ctrl8
	cmpl	$9, %eax
	je	.LBB5_10
# %bb.26:                               # %ctrl9
	cmpl	$10, %eax
	je	.LBB5_11
# %bb.27:                               # %ctrl10
	cmpl	$11, %eax
	je	.LBB5_12
# %bb.28:                               # %ctrl11
	cmpl	$12, %eax
	je	.LBB5_13
# %bb.29:                               # %ctrl12
	cmpl	$13, %eax
	je	.LBB5_14
# %bb.30:                               # %ctrl13
	cmpl	$14, %eax
	je	.LBB5_15
	jmp	.LBB5_16
.Lfunc_end5:
	.size	free_mem_mincost, .Lfunc_end5-free_mem_mincost
	.cfi_endproc
                                        # -- End function
	.globl	free_mem_bwmincost      # -- Begin function free_mem_bwmincost
	.p2align	4, 0x90
	.type	free_mem_bwmincost,@function
free_mem_bwmincost:                     # @free_mem_bwmincost
	.cfi_startproc
# %bb.0:                                # %rand_bb
	pushq	%rbp
	.cfi_def_cfa_offset 16
	.cfi_offset %rbp, -16
	movq	%rsp, %rbp
	.cfi_def_cfa_register %rbp
	pushq	%rbx
	pushq	%rax
	.cfi_offset %rbx, -24
	movq	%rdi, %rbx
	callq	get_rand
	cmpl	$0, %eax
	jne	.LBB6_17
# %bb.1:                                # %func_free_mem_bwmincost.3
	movq	%rbx, %rdi
	callq	free_mem_bwmincost.3
	addq	$8, %rsp
	popq	%rbx
	popq	%rbp
	.cfi_def_cfa %rsp, 8
	retq
.LBB6_2:                                # %func_free_mem_bwmincost.16
	.cfi_def_cfa %rbp, 16
	movq	%rbx, %rdi
	callq	free_mem_bwmincost.16
	addq	$8, %rsp
	popq	%rbx
	popq	%rbp
	.cfi_def_cfa %rsp, 8
	retq
.LBB6_3:                                # %func_free_mem_bwmincost.17
	.cfi_def_cfa %rbp, 16
	movq	%rbx, %rdi
	callq	free_mem_bwmincost.17
	addq	$8, %rsp
	popq	%rbx
	popq	%rbp
	.cfi_def_cfa %rsp, 8
	retq
.LBB6_4:                                # %func_free_mem_bwmincost.20
	.cfi_def_cfa %rbp, 16
	movq	%rbx, %rdi
	callq	free_mem_bwmincost.20
	addq	$8, %rsp
	popq	%rbx
	popq	%rbp
	.cfi_def_cfa %rsp, 8
	retq
.LBB6_5:                                # %func_free_mem_bwmincost.38
	.cfi_def_cfa %rbp, 16
	movq	%rbx, %rdi
	callq	free_mem_bwmincost.38
	addq	$8, %rsp
	popq	%rbx
	popq	%rbp
	.cfi_def_cfa %rsp, 8
	retq
.LBB6_6:                                # %func_free_mem_bwmincost.56
	.cfi_def_cfa %rbp, 16
	movq	%rbx, %rdi
	callq	free_mem_bwmincost.56
	addq	$8, %rsp
	popq	%rbx
	popq	%rbp
	.cfi_def_cfa %rsp, 8
	retq
.LBB6_7:                                # %func_free_mem_bwmincost.61
	.cfi_def_cfa %rbp, 16
	movq	%rbx, %rdi
	callq	free_mem_bwmincost.61
	addq	$8, %rsp
	popq	%rbx
	popq	%rbp
	.cfi_def_cfa %rsp, 8
	retq
.LBB6_8:                                # %func_free_mem_bwmincost.62
	.cfi_def_cfa %rbp, 16
	movq	%rbx, %rdi
	callq	free_mem_bwmincost.62
	addq	$8, %rsp
	popq	%rbx
	popq	%rbp
	.cfi_def_cfa %rsp, 8
	retq
.LBB6_9:                                # %func_free_mem_bwmincost.65
	.cfi_def_cfa %rbp, 16
	movq	%rbx, %rdi
	callq	free_mem_bwmincost.65
	addq	$8, %rsp
	popq	%rbx
	popq	%rbp
	.cfi_def_cfa %rsp, 8
	retq
.LBB6_10:                               # %func_free_mem_bwmincost.82
	.cfi_def_cfa %rbp, 16
	movq	%rbx, %rdi
	callq	free_mem_bwmincost.82
	addq	$8, %rsp
	popq	%rbx
	popq	%rbp
	.cfi_def_cfa %rsp, 8
	retq
.LBB6_11:                               # %func_free_mem_bwmincost.89
	.cfi_def_cfa %rbp, 16
	movq	%rbx, %rdi
	callq	free_mem_bwmincost.89
	addq	$8, %rsp
	popq	%rbx
	popq	%rbp
	.cfi_def_cfa %rsp, 8
	retq
.LBB6_12:                               # %func_free_mem_bwmincost.127
	.cfi_def_cfa %rbp, 16
	movq	%rbx, %rdi
	callq	free_mem_bwmincost.127
	addq	$8, %rsp
	popq	%rbx
	popq	%rbp
	.cfi_def_cfa %rsp, 8
	retq
.LBB6_13:                               # %func_free_mem_bwmincost.130
	.cfi_def_cfa %rbp, 16
	movq	%rbx, %rdi
	callq	free_mem_bwmincost.130
	addq	$8, %rsp
	popq	%rbx
	popq	%rbp
	.cfi_def_cfa %rsp, 8
	retq
.LBB6_14:                               # %func_free_mem_bwmincost.131
	.cfi_def_cfa %rbp, 16
	movq	%rbx, %rdi
	callq	free_mem_bwmincost.131
	addq	$8, %rsp
	popq	%rbx
	popq	%rbp
	.cfi_def_cfa %rsp, 8
	retq
.LBB6_15:                               # %func_free_mem_bwmincost.147
	.cfi_def_cfa %rbp, 16
	movq	%rbx, %rdi
	callq	free_mem_bwmincost.147
	addq	$8, %rsp
	popq	%rbx
	popq	%rbp
	.cfi_def_cfa %rsp, 8
	retq
.LBB6_16:                               # %func_free_mem_bwmincost.148
	.cfi_def_cfa %rbp, 16
	movq	%rbx, %rdi
	callq	free_mem_bwmincost.148
	addq	$8, %rsp
	popq	%rbx
	popq	%rbp
	.cfi_def_cfa %rsp, 8
	retq
.LBB6_17:                               # %ctrl0
	.cfi_def_cfa %rbp, 16
	cmpl	$1, %eax
	je	.LBB6_2
# %bb.18:                               # %ctrl1
	cmpl	$2, %eax
	je	.LBB6_3
# %bb.19:                               # %ctrl2
	cmpl	$3, %eax
	je	.LBB6_4
# %bb.20:                               # %ctrl3
	cmpl	$4, %eax
	je	.LBB6_5
# %bb.21:                               # %ctrl4
	cmpl	$5, %eax
	je	.LBB6_6
# %bb.22:                               # %ctrl5
	cmpl	$6, %eax
	je	.LBB6_7
# %bb.23:                               # %ctrl6
	cmpl	$7, %eax
	je	.LBB6_8
# %bb.24:                               # %ctrl7
	cmpl	$8, %eax
	je	.LBB6_9
# %bb.25:                               # %ctrl8
	cmpl	$9, %eax
	je	.LBB6_10
# %bb.26:                               # %ctrl9
	cmpl	$10, %eax
	je	.LBB6_11
# %bb.27:                               # %ctrl10
	cmpl	$11, %eax
	je	.LBB6_12
# %bb.28:                               # %ctrl11
	cmpl	$12, %eax
	je	.LBB6_13
# %bb.29:                               # %ctrl12
	cmpl	$13, %eax
	je	.LBB6_14
# %bb.30:                               # %ctrl13
	cmpl	$14, %eax
	je	.LBB6_15
	jmp	.LBB6_16
.Lfunc_end6:
	.size	free_mem_bwmincost, .Lfunc_end6-free_mem_bwmincost
	.cfi_endproc
                                        # -- End function
	.globl	free_mem_FME            # -- Begin function free_mem_FME
	.p2align	4, 0x90
	.type	free_mem_FME,@function
free_mem_FME:                           # @free_mem_FME
	.cfi_startproc
# %bb.0:                                # %entry
	pushq	%rbp
	.cfi_def_cfa_offset 16
	.cfi_offset %rbp, -16
	movq	%rsp, %rbp
	.cfi_def_cfa_register %rbp
	movq	McostState, %rdi
	callq	free_mem2Dint
	movq	all_mincost, %rdi
	callq	free_mem_mincost
	movq	all_bwmincost, %rdi
	callq	free_mem_bwmincost
	movq	SearchState, %rdi
	callq	free_mem2D
	movq	flag_intra, %rdi
	callq	free
	popq	%rbp
	.cfi_def_cfa %rsp, 8
	retq
.Lfunc_end7:
	.size	free_mem_FME, .Lfunc_end7-free_mem_FME
	.cfi_endproc
                                        # -- End function
	.globl	PartCalMad              # -- Begin function PartCalMad
	.p2align	4, 0x90
	.type	PartCalMad,@function
PartCalMad:                             # @PartCalMad
	.cfi_startproc
# %bb.0:                                # %rand_bb
	pushq	%rbp
	.cfi_def_cfa_offset 16
	.cfi_offset %rbp, -16
	movq	%rsp, %rbp
	.cfi_def_cfa_register %rbp
	pushq	%r15
	pushq	%r14
	pushq	%r13
	pushq	%r12
	pushq	%rbx
	subq	$40, %rsp
	.cfi_offset %rbx, -56
	.cfi_offset %r12, -48
	.cfi_offset %r13, -40
	.cfi_offset %r14, -32
	.cfi_offset %r15, -24
	movl	%r9d, -44(%rbp)         # 4-byte Spill
	movl	%r8d, %r13d
	movl	%ecx, %r15d
	movq	%rdx, %r12
	movq	%rsi, %rbx
	movq	%rdi, %r14
	callq	get_rand
	cmpl	$0, %eax
	jne	.LBB8_17
# %bb.1:                                # %func_PartCalMad.9
	movq	%r14, %rdi
	movq	%rbx, %rsi
	movq	%r12, %rdx
	movl	%r15d, %ecx
	movl	%r13d, %r8d
	movl	-44(%rbp), %r9d         # 4-byte Reload
	movl	16(%rbp), %eax
	movl	%eax, (%rsp)
	movl	24(%rbp), %eax
	movl	%eax, 8(%rsp)
	movl	32(%rbp), %eax
	movl	%eax, 16(%rsp)
	movl	40(%rbp), %eax
	movl	%eax, 24(%rsp)
	callq	PartCalMad.9
	addq	$40, %rsp
	popq	%rbx
	popq	%r12
	popq	%r13
	popq	%r14
	popq	%r15
	popq	%rbp
	.cfi_def_cfa %rsp, 8
	retq
.LBB8_2:                                # %func_PartCalMad.29
	.cfi_def_cfa %rbp, 16
	movl	%r14d, %r9d
	movl	%r11d, (%rsp)
	movl	24(%rbp), %eax
	movl	%eax, 8(%rsp)
	movl	32(%rbp), %eax
	movl	%eax, 16(%rsp)
	movl	40(%rbp), %eax
	movl	%eax, 24(%rsp)
	callq	PartCalMad.29
	addq	$40, %rsp
	popq	%rbx
	popq	%r12
	popq	%r13
	popq	%r14
	popq	%r15
	popq	%rbp
	.cfi_def_cfa %rsp, 8
	retq
.LBB8_3:                                # %func_PartCalMad.32
	.cfi_def_cfa %rbp, 16
	movq	%rbx, %rdi
	movl	%r13d, %r8d
	movl	%r10d, (%rsp)
	movl	24(%rbp), %eax
	movl	%eax, 8(%rsp)
	movl	%r12d, 16(%rsp)
	movl	%r15d, 24(%rsp)
	callq	PartCalMad.32
	addq	$40, %rsp
	popq	%rbx
	popq	%r12
	popq	%r13
	popq	%r14
	popq	%r15
	popq	%rbp
	.cfi_def_cfa %rsp, 8
	retq
.LBB8_4:                                # %func_PartCalMad.72
	.cfi_def_cfa %rbp, 16
	movq	%rbx, %rdi
	movl	%r13d, %r8d
	movl	-44(%rbp), %r9d         # 4-byte Reload
	movl	%r10d, (%rsp)
	movl	24(%rbp), %eax
	movl	%eax, 8(%rsp)
	movl	%r12d, 16(%rsp)
	movl	%r15d, 24(%rsp)
	callq	PartCalMad.72
	addq	$40, %rsp
	popq	%rbx
	popq	%r12
	popq	%r13
	popq	%r14
	popq	%r15
	popq	%rbp
	.cfi_def_cfa %rsp, 8
	retq
.LBB8_5:                                # %func_PartCalMad.79
	.cfi_def_cfa %rbp, 16
	movq	%rbx, %rdi
	movl	%r13d, %r8d
	movl	-44(%rbp), %r9d         # 4-byte Reload
	movl	%r10d, (%rsp)
	movl	24(%rbp), %eax
	movl	%eax, 8(%rsp)
	movl	%r12d, 16(%rsp)
	movl	%r15d, 24(%rsp)
	callq	PartCalMad.79
	addq	$40, %rsp
	popq	%rbx
	popq	%r12
	popq	%r13
	popq	%r14
	popq	%r15
	popq	%rbp
	.cfi_def_cfa %rsp, 8
	retq
.LBB8_6:                                # %func_PartCalMad.88
	.cfi_def_cfa %rbp, 16
	movq	%rbx, %rdi
	movl	%r13d, %r8d
	movl	-44(%rbp), %r9d         # 4-byte Reload
	movl	%r10d, (%rsp)
	movl	24(%rbp), %eax
	movl	%eax, 8(%rsp)
	movl	%r12d, 16(%rsp)
	movl	%r15d, 24(%rsp)
	callq	PartCalMad.88
	addq	$40, %rsp
	popq	%rbx
	popq	%r12
	popq	%r13
	popq	%r14
	popq	%r15
	popq	%rbp
	.cfi_def_cfa %rsp, 8
	retq
.LBB8_7:                                # %func_PartCalMad.90
	.cfi_def_cfa %rbp, 16
	movq	%rbx, %rdi
	movl	%r13d, %r8d
	movl	-44(%rbp), %r9d         # 4-byte Reload
	movl	%r10d, (%rsp)
	movl	24(%rbp), %eax
	movl	%eax, 8(%rsp)
	movl	%r12d, 16(%rsp)
	movl	%r15d, 24(%rsp)
	callq	PartCalMad.90
	addq	$40, %rsp
	popq	%rbx
	popq	%r12
	popq	%r13
	popq	%r14
	popq	%r15
	popq	%rbp
	.cfi_def_cfa %rsp, 8
	retq
.LBB8_8:                                # %func_PartCalMad.96
	.cfi_def_cfa %rbp, 16
	movq	%rbx, %rdi
	movl	%r13d, %r8d
	movl	-44(%rbp), %r9d         # 4-byte Reload
	movl	%r10d, (%rsp)
	movl	24(%rbp), %eax
	movl	%eax, 8(%rsp)
	movl	%r12d, 16(%rsp)
	movl	%r15d, 24(%rsp)
	callq	PartCalMad.96
	addq	$40, %rsp
	popq	%rbx
	popq	%r12
	popq	%r13
	popq	%r14
	popq	%r15
	popq	%rbp
	.cfi_def_cfa %rsp, 8
	retq
.LBB8_9:                                # %func_PartCalMad.100
	.cfi_def_cfa %rbp, 16
	movq	%rbx, %rdi
	movl	%r13d, %r8d
	movl	-44(%rbp), %r9d         # 4-byte Reload
	movl	%r10d, (%rsp)
	movl	24(%rbp), %eax
	movl	%eax, 8(%rsp)
	movl	%r12d, 16(%rsp)
	movl	%r15d, 24(%rsp)
	callq	PartCalMad.100
	addq	$40, %rsp
	popq	%rbx
	popq	%r12
	popq	%r13
	popq	%r14
	popq	%r15
	popq	%rbp
	.cfi_def_cfa %rsp, 8
	retq
.LBB8_10:                               # %func_PartCalMad.101
	.cfi_def_cfa %rbp, 16
	movq	%rbx, %rdi
	movl	%r13d, %r8d
	movl	-44(%rbp), %r9d         # 4-byte Reload
	movl	%r10d, (%rsp)
	movl	24(%rbp), %eax
	movl	%eax, 8(%rsp)
	movl	%r12d, 16(%rsp)
	movl	%r15d, 24(%rsp)
	callq	PartCalMad.101
	addq	$40, %rsp
	popq	%rbx
	popq	%r12
	popq	%r13
	popq	%r14
	popq	%r15
	popq	%rbp
	.cfi_def_cfa %rsp, 8
	retq
.LBB8_11:                               # %func_PartCalMad.105
	.cfi_def_cfa %rbp, 16
	movq	%rbx, %rdi
	movl	%r13d, %r8d
	movl	-44(%rbp), %r9d         # 4-byte Reload
	movl	%r10d, (%rsp)
	movl	24(%rbp), %eax
	movl	%eax, 8(%rsp)
	movl	%r12d, 16(%rsp)
	movl	%r15d, 24(%rsp)
	callq	PartCalMad.105
	addq	$40, %rsp
	popq	%rbx
	popq	%r12
	popq	%r13
	popq	%r14
	popq	%r15
	popq	%rbp
	.cfi_def_cfa %rsp, 8
	retq
.LBB8_12:                               # %func_PartCalMad.116
	.cfi_def_cfa %rbp, 16
	movq	%rbx, %rdi
	movl	%r13d, %r8d
	movl	-44(%rbp), %r9d         # 4-byte Reload
	movl	%r10d, (%rsp)
	movl	24(%rbp), %eax
	movl	%eax, 8(%rsp)
	movl	%r12d, 16(%rsp)
	movl	%r15d, 24(%rsp)
	callq	PartCalMad.116
	addq	$40, %rsp
	popq	%rbx
	popq	%r12
	popq	%r13
	popq	%r14
	popq	%r15
	popq	%rbp
	.cfi_def_cfa %rsp, 8
	retq
.LBB8_13:                               # %func_PartCalMad.137
	.cfi_def_cfa %rbp, 16
	movq	%rbx, %rdi
	movl	%r13d, %r8d
	movl	-44(%rbp), %r9d         # 4-byte Reload
	movl	%r10d, (%rsp)
	movl	24(%rbp), %eax
	movl	%eax, 8(%rsp)
	movl	%r12d, 16(%rsp)
	movl	%r15d, 24(%rsp)
	callq	PartCalMad.137
	addq	$40, %rsp
	popq	%rbx
	popq	%r12
	popq	%r13
	popq	%r14
	popq	%r15
	popq	%rbp
	.cfi_def_cfa %rsp, 8
	retq
.LBB8_14:                               # %func_PartCalMad.140
	.cfi_def_cfa %rbp, 16
	movq	%rbx, %rdi
	movl	%r13d, %r8d
	movl	-44(%rbp), %r9d         # 4-byte Reload
	movl	16(%rbp), %eax
	movl	%eax, (%rsp)
	movl	24(%rbp), %eax
	movl	%eax, 8(%rsp)
	movl	32(%rbp), %eax
	movl	%eax, 16(%rsp)
	movl	40(%rbp), %eax
	movl	%eax, 24(%rsp)
	callq	PartCalMad.140
	addq	$40, %rsp
	popq	%rbx
	popq	%r12
	popq	%r13
	popq	%r14
	popq	%r15
	popq	%rbp
	.cfi_def_cfa %rsp, 8
	retq
.LBB8_15:                               # %func_PartCalMad.144
	.cfi_def_cfa %rbp, 16
	movl	%r14d, %r9d
	movl	%r11d, (%rsp)
	movl	24(%rbp), %eax
	movl	%eax, 8(%rsp)
	movl	32(%rbp), %eax
	movl	%eax, 16(%rsp)
	movl	40(%rbp), %eax
	movl	%eax, 24(%rsp)
	callq	PartCalMad.144
	addq	$40, %rsp
	popq	%rbx
	popq	%r12
	popq	%r13
	popq	%r14
	popq	%r15
	popq	%rbp
	.cfi_def_cfa %rsp, 8
	retq
.LBB8_16:                               # %func_PartCalMad.150
	.cfi_def_cfa %rbp, 16
	movl	%r14d, %r9d
	movl	%r11d, (%rsp)
	movl	24(%rbp), %eax
	movl	%eax, 8(%rsp)
	movl	32(%rbp), %eax
	movl	%eax, 16(%rsp)
	movl	40(%rbp), %eax
	movl	%eax, 24(%rsp)
	callq	PartCalMad.150
	addq	$40, %rsp
	popq	%rbx
	popq	%r12
	popq	%r13
	popq	%r14
	popq	%r15
	popq	%rbp
	.cfi_def_cfa %rsp, 8
	retq
.LBB8_17:                               # %ctrl0
	.cfi_def_cfa %rbp, 16
	movq	%r14, %rdi
	movq	%rbx, %rsi
	movq	%r12, %rdx
	movl	%r15d, %ecx
	movl	%r13d, %r8d
	movl	-44(%rbp), %r14d        # 4-byte Reload
	movl	16(%rbp), %r11d
	cmpl	$1, %eax
	je	.LBB8_2
# %bb.18:                               # %ctrl1
	cmpl	$2, %eax
	movl	40(%rbp), %r15d
	movl	32(%rbp), %r12d
	movl	%r11d, %r10d
	movl	%r14d, %r9d
	movl	%r8d, %r13d
	movq	%rdi, %rbx
	je	.LBB8_3
# %bb.19:                               # %ctrl2
	cmpl	$3, %eax
	je	.LBB8_4
# %bb.20:                               # %ctrl3
	cmpl	$4, %eax
	je	.LBB8_5
# %bb.21:                               # %ctrl4
	cmpl	$5, %eax
	je	.LBB8_6
# %bb.22:                               # %ctrl5
	cmpl	$6, %eax
	je	.LBB8_7
# %bb.23:                               # %ctrl6
	cmpl	$7, %eax
	je	.LBB8_8
# %bb.24:                               # %ctrl7
	cmpl	$8, %eax
	je	.LBB8_9
# %bb.25:                               # %ctrl8
	cmpl	$9, %eax
	je	.LBB8_10
# %bb.26:                               # %ctrl9
	cmpl	$10, %eax
	je	.LBB8_11
# %bb.27:                               # %ctrl10
	cmpl	$11, %eax
	je	.LBB8_12
# %bb.28:                               # %ctrl11
	cmpl	$12, %eax
	je	.LBB8_13
# %bb.29:                               # %ctrl12
	cmpl	$13, %eax
	je	.LBB8_14
# %bb.30:                               # %ctrl13
	cmpl	$14, %eax
	je	.LBB8_15
	jmp	.LBB8_16
.Lfunc_end8:
	.size	PartCalMad, .Lfunc_end8-PartCalMad
	.cfi_endproc
                                        # -- End function
	.globl	FastIntegerPelBlockMotionSearch # -- Begin function FastIntegerPelBlockMotionSearch
	.p2align	4, 0x90
	.type	FastIntegerPelBlockMotionSearch,@function
FastIntegerPelBlockMotionSearch:        # @FastIntegerPelBlockMotionSearch
	.cfi_startproc
# %bb.0:                                # %rand_bb
	pushq	%rbp
	.cfi_def_cfa_offset 16
	.cfi_offset %rbp, -16
	movq	%rsp, %rbp
	.cfi_def_cfa_register %rbp
	pushq	%r15
	pushq	%r14
	pushq	%r13
	pushq	%r12
	pushq	%rbx
	subq	$72, %rsp
	.cfi_offset %rbx, -56
	.cfi_offset %r12, -48
	.cfi_offset %r13, -40
	.cfi_offset %r14, -32
	.cfi_offset %r15, -24
	vmovsd	%xmm0, -56(%rbp)        # 8-byte Spill
	movl	%r9d, -44(%rbp)         # 4-byte Spill
	movl	%r8d, %r15d
	movl	%ecx, %r12d
	movl	%edx, %r13d
	movl	%esi, %r14d
	movq	%rdi, %rbx
	callq	get_rand
	cmpl	$0, %eax
	jne	.LBB9_17
# %bb.1:                                # %func_FastIntegerPelBlockMotionSearch.12
	movq	%rbx, %rdi
	movswl	%r14w, %esi
	movl	%r13d, %edx
	movl	%r12d, %ecx
	movl	%r15d, %r8d
	movl	-44(%rbp), %r9d         # 4-byte Reload
	movswl	16(%rbp), %eax
	movl	%eax, (%rsp)
	movswl	24(%rbp), %eax
	movl	%eax, 8(%rsp)
	movq	32(%rbp), %rax
	movq	%rax, 16(%rsp)
	movq	40(%rbp), %rax
	movq	%rax, 24(%rsp)
	movl	48(%rbp), %eax
	movl	%eax, 32(%rsp)
	movl	56(%rbp), %eax
	movl	%eax, 40(%rsp)
	vmovsd	-56(%rbp), %xmm0        # 8-byte Reload
                                        # xmm0 = mem[0],zero
	callq	FastIntegerPelBlockMotionSearch.12
	addq	$72, %rsp
	popq	%rbx
	popq	%r12
	popq	%r13
	popq	%r14
	popq	%r15
	popq	%rbp
	.cfi_def_cfa %rsp, 8
	retq
.LBB9_2:                                # %func_FastIntegerPelBlockMotionSearch.25
	.cfi_def_cfa %rbp, 16
	movswl	%r14w, %esi
	movl	%r15d, %r8d
	movl	%ebx, %r9d
	movswl	16(%rbp), %eax
	movl	%eax, (%rsp)
	movswl	%r11w, %eax
	movl	%eax, 8(%rsp)
	movq	32(%rbp), %rax
	movq	%rax, 16(%rsp)
	movq	40(%rbp), %rax
	movq	%rax, 24(%rsp)
	movl	48(%rbp), %eax
	movl	%eax, 32(%rsp)
	movl	56(%rbp), %eax
	movl	%eax, 40(%rsp)
	vmovaps	%xmm1, %xmm0
	callq	FastIntegerPelBlockMotionSearch.25
	addq	$72, %rsp
	popq	%rbx
	popq	%r12
	popq	%r13
	popq	%r14
	popq	%r15
	popq	%rbp
	.cfi_def_cfa %rsp, 8
	retq
.LBB9_3:                                # %func_FastIntegerPelBlockMotionSearch.31
	.cfi_def_cfa %rbp, 16
	movw	%si, %r15w
	movswl	%r14w, %esi
	movswl	16(%rbp), %eax
	movl	%eax, (%rsp)
	movswl	%r15w, %eax
	movl	%eax, 8(%rsp)
	movq	%r10, 16(%rsp)
	movq	%r13, 24(%rsp)
	movl	%r12d, 32(%rsp)
	movl	56(%rbp), %eax
	movl	%eax, 40(%rsp)
	callq	FastIntegerPelBlockMotionSearch.31
	addq	$72, %rsp
	popq	%rbx
	popq	%r12
	popq	%r13
	popq	%r14
	popq	%r15
	popq	%rbp
	.cfi_def_cfa %rsp, 8
	retq
.LBB9_4:                                # %func_FastIntegerPelBlockMotionSearch.43
	.cfi_def_cfa %rbp, 16
	movw	%si, %r12w
	movswl	%r14w, %esi
	movl	-48(%rbp), %r8d         # 4-byte Reload
	movl	-44(%rbp), %r9d         # 4-byte Reload
	movswl	16(%rbp), %eax
	movl	%eax, (%rsp)
	movswl	%r12w, %eax
	movl	%eax, 8(%rsp)
	movq	%r10, 16(%rsp)
	movq	%r13, 24(%rsp)
	movl	48(%rbp), %eax
	movl	%eax, 32(%rsp)
	movl	56(%rbp), %eax
	movl	%eax, 40(%rsp)
	callq	FastIntegerPelBlockMotionSearch.43
	addq	$72, %rsp
	popq	%rbx
	popq	%r12
	popq	%r13
	popq	%r14
	popq	%r15
	popq	%rbp
	.cfi_def_cfa %rsp, 8
	retq
.LBB9_5:                                # %func_FastIntegerPelBlockMotionSearch.53
	.cfi_def_cfa %rbp, 16
	movw	%si, %r12w
	movq	%r8, %rdi
	movswl	%r9w, %esi
	movl	-48(%rbp), %r8d         # 4-byte Reload
	movl	-44(%rbp), %r9d         # 4-byte Reload
	movswl	16(%rbp), %eax
	movl	%eax, (%rsp)
	movswl	%r12w, %eax
	movl	%eax, 8(%rsp)
	movq	%r10, 16(%rsp)
	movq	%r13, 24(%rsp)
	movl	48(%rbp), %eax
	movl	%eax, 32(%rsp)
	movl	56(%rbp), %eax
	movl	%eax, 40(%rsp)
	callq	FastIntegerPelBlockMotionSearch.53
	addq	$72, %rsp
	popq	%rbx
	popq	%r12
	popq	%r13
	popq	%r14
	popq	%r15
	popq	%rbp
	.cfi_def_cfa %rsp, 8
	retq
.LBB9_6:                                # %func_FastIntegerPelBlockMotionSearch.78
	.cfi_def_cfa %rbp, 16
	movw	%si, %r12w
	movq	%r8, %rdi
	movswl	%r9w, %esi
	movl	-48(%rbp), %r8d         # 4-byte Reload
	movl	-44(%rbp), %r9d         # 4-byte Reload
	movswl	16(%rbp), %eax
	movl	%eax, (%rsp)
	movswl	%r12w, %eax
	movl	%eax, 8(%rsp)
	movq	%r10, 16(%rsp)
	movq	%r13, 24(%rsp)
	movl	48(%rbp), %eax
	movl	%eax, 32(%rsp)
	movl	56(%rbp), %eax
	movl	%eax, 40(%rsp)
	callq	FastIntegerPelBlockMotionSearch.78
	addq	$72, %rsp
	popq	%rbx
	popq	%r12
	popq	%r13
	popq	%r14
	popq	%r15
	popq	%rbp
	.cfi_def_cfa %rsp, 8
	retq
.LBB9_7:                                # %func_FastIntegerPelBlockMotionSearch.111
	.cfi_def_cfa %rbp, 16
	movw	%si, %r12w
	movq	%r8, %rdi
	movswl	%r9w, %esi
	movl	-48(%rbp), %r8d         # 4-byte Reload
	movl	-44(%rbp), %r9d         # 4-byte Reload
	movswl	16(%rbp), %eax
	movl	%eax, (%rsp)
	movswl	%r12w, %eax
	movl	%eax, 8(%rsp)
	movq	%r10, 16(%rsp)
	movq	%r13, 24(%rsp)
	movl	48(%rbp), %eax
	movl	%eax, 32(%rsp)
	movl	56(%rbp), %eax
	movl	%eax, 40(%rsp)
	callq	FastIntegerPelBlockMotionSearch.111
	addq	$72, %rsp
	popq	%rbx
	popq	%r12
	popq	%r13
	popq	%r14
	popq	%r15
	popq	%rbp
	.cfi_def_cfa %rsp, 8
	retq
.LBB9_8:                                # %func_FastIntegerPelBlockMotionSearch.112
	.cfi_def_cfa %rbp, 16
	movw	%si, %r12w
	movq	%r8, %rdi
	movswl	%r9w, %esi
	movl	-48(%rbp), %r8d         # 4-byte Reload
	movl	-44(%rbp), %r9d         # 4-byte Reload
	movswl	16(%rbp), %eax
	movl	%eax, (%rsp)
	movswl	%r12w, %eax
	movl	%eax, 8(%rsp)
	movq	%r10, 16(%rsp)
	movq	%r13, 24(%rsp)
	movl	48(%rbp), %eax
	movl	%eax, 32(%rsp)
	movl	56(%rbp), %eax
	movl	%eax, 40(%rsp)
	callq	FastIntegerPelBlockMotionSearch.112
	addq	$72, %rsp
	popq	%rbx
	popq	%r12
	popq	%r13
	popq	%r14
	popq	%r15
	popq	%rbp
	.cfi_def_cfa %rsp, 8
	retq
.LBB9_9:                                # %func_FastIntegerPelBlockMotionSearch.115
	.cfi_def_cfa %rbp, 16
	movw	%si, %r12w
	movq	%r8, %rdi
	movswl	%r9w, %esi
	movl	-48(%rbp), %r8d         # 4-byte Reload
	movl	-44(%rbp), %r9d         # 4-byte Reload
	movswl	16(%rbp), %eax
	movl	%eax, (%rsp)
	movswl	%r12w, %eax
	movl	%eax, 8(%rsp)
	movq	%r10, 16(%rsp)
	movq	%r13, 24(%rsp)
	movl	48(%rbp), %eax
	movl	%eax, 32(%rsp)
	movl	56(%rbp), %eax
	movl	%eax, 40(%rsp)
	callq	FastIntegerPelBlockMotionSearch.115
	addq	$72, %rsp
	popq	%rbx
	popq	%r12
	popq	%r13
	popq	%r14
	popq	%r15
	popq	%rbp
	.cfi_def_cfa %rsp, 8
	retq
.LBB9_10:                               # %func_FastIntegerPelBlockMotionSearch.117
	.cfi_def_cfa %rbp, 16
	movw	%si, %r12w
	movq	%r8, %rdi
	movswl	%r9w, %esi
	movl	-48(%rbp), %r8d         # 4-byte Reload
	movl	-44(%rbp), %r9d         # 4-byte Reload
	movswl	16(%rbp), %eax
	movl	%eax, (%rsp)
	movswl	%r12w, %eax
	movl	%eax, 8(%rsp)
	movq	%r10, 16(%rsp)
	movq	%r13, 24(%rsp)
	movl	48(%rbp), %eax
	movl	%eax, 32(%rsp)
	movl	56(%rbp), %eax
	movl	%eax, 40(%rsp)
	callq	FastIntegerPelBlockMotionSearch.117
	addq	$72, %rsp
	popq	%rbx
	popq	%r12
	popq	%r13
	popq	%r14
	popq	%r15
	popq	%rbp
	.cfi_def_cfa %rsp, 8
	retq
.LBB9_11:                               # %func_FastIntegerPelBlockMotionSearch.135
	.cfi_def_cfa %rbp, 16
	movw	%si, %r12w
	movq	%r8, %rdi
	movswl	%r9w, %esi
	movl	-48(%rbp), %r8d         # 4-byte Reload
	movl	-44(%rbp), %r9d         # 4-byte Reload
	movswl	16(%rbp), %eax
	movl	%eax, (%rsp)
	movswl	%r12w, %eax
	movl	%eax, 8(%rsp)
	movq	%r10, 16(%rsp)
	movq	%r13, 24(%rsp)
	movl	48(%rbp), %eax
	movl	%eax, 32(%rsp)
	movl	56(%rbp), %eax
	movl	%eax, 40(%rsp)
	callq	FastIntegerPelBlockMotionSearch.135
	addq	$72, %rsp
	popq	%rbx
	popq	%r12
	popq	%r13
	popq	%r14
	popq	%r15
	popq	%rbp
	.cfi_def_cfa %rsp, 8
	retq
.LBB9_12:                               # %func_FastIntegerPelBlockMotionSearch.138
	.cfi_def_cfa %rbp, 16
	movw	%si, %r12w
	movq	%r8, %rdi
	movswl	%r9w, %esi
	movl	-48(%rbp), %r8d         # 4-byte Reload
	movl	-44(%rbp), %r9d         # 4-byte Reload
	movswl	16(%rbp), %eax
	movl	%eax, (%rsp)
	movswl	%r12w, %eax
	movl	%eax, 8(%rsp)
	movq	%r10, 16(%rsp)
	movq	%r13, 24(%rsp)
	movl	48(%rbp), %eax
	movl	%eax, 32(%rsp)
	movl	56(%rbp), %eax
	movl	%eax, 40(%rsp)
	callq	FastIntegerPelBlockMotionSearch.138
	addq	$72, %rsp
	popq	%rbx
	popq	%r12
	popq	%r13
	popq	%r14
	popq	%r15
	popq	%rbp
	.cfi_def_cfa %rsp, 8
	retq
.LBB9_13:                               # %func_FastIntegerPelBlockMotionSearch.141
	.cfi_def_cfa %rbp, 16
	movw	%si, %r12w
	movq	%r8, %rdi
	movswl	%r9w, %esi
	movl	-48(%rbp), %r8d         # 4-byte Reload
	movl	-44(%rbp), %r9d         # 4-byte Reload
	movswl	16(%rbp), %eax
	movl	%eax, (%rsp)
	movswl	%r12w, %eax
	movl	%eax, 8(%rsp)
	movq	%r10, 16(%rsp)
	movq	%r13, 24(%rsp)
	movl	48(%rbp), %eax
	movl	%eax, 32(%rsp)
	movl	56(%rbp), %eax
	movl	%eax, 40(%rsp)
	callq	FastIntegerPelBlockMotionSearch.141
	addq	$72, %rsp
	popq	%rbx
	popq	%r12
	popq	%r13
	popq	%r14
	popq	%r15
	popq	%rbp
	.cfi_def_cfa %rsp, 8
	retq
.LBB9_14:                               # %func_FastIntegerPelBlockMotionSearch.145
	.cfi_def_cfa %rbp, 16
	movq	%r8, %rdi
	movswl	%r9w, %esi
	movl	-48(%rbp), %r8d         # 4-byte Reload
	movl	-44(%rbp), %r9d         # 4-byte Reload
	movswl	16(%rbp), %eax
	movl	%eax, (%rsp)
	movswl	24(%rbp), %eax
	movl	%eax, 8(%rsp)
	movq	32(%rbp), %rax
	movq	%rax, 16(%rsp)
	movq	40(%rbp), %rax
	movq	%rax, 24(%rsp)
	movl	48(%rbp), %eax
	movl	%eax, 32(%rsp)
	movl	56(%rbp), %eax
	movl	%eax, 40(%rsp)
	callq	FastIntegerPelBlockMotionSearch.145
	addq	$72, %rsp
	popq	%rbx
	popq	%r12
	popq	%r13
	popq	%r14
	popq	%r15
	popq	%rbp
	.cfi_def_cfa %rsp, 8
	retq
.LBB9_15:                               # %func_FastIntegerPelBlockMotionSearch.146
	.cfi_def_cfa %rbp, 16
	movswl	%r14w, %esi
	movl	%r15d, %r8d
	movl	%ebx, %r9d
	movswl	16(%rbp), %eax
	movl	%eax, (%rsp)
	movswl	%r11w, %eax
	movl	%eax, 8(%rsp)
	movq	32(%rbp), %rax
	movq	%rax, 16(%rsp)
	movq	40(%rbp), %rax
	movq	%rax, 24(%rsp)
	movl	48(%rbp), %eax
	movl	%eax, 32(%rsp)
	movl	56(%rbp), %eax
	movl	%eax, 40(%rsp)
	vmovaps	%xmm1, %xmm0
	callq	FastIntegerPelBlockMotionSearch.146
	addq	$72, %rsp
	popq	%rbx
	popq	%r12
	popq	%r13
	popq	%r14
	popq	%r15
	popq	%rbp
	.cfi_def_cfa %rsp, 8
	retq
.LBB9_16:                               # %func_FastIntegerPelBlockMotionSearch.149
	.cfi_def_cfa %rbp, 16
	movswl	%r14w, %esi
	movl	%r15d, %r8d
	movl	%ebx, %r9d
	movswl	16(%rbp), %eax
	movl	%eax, (%rsp)
	movswl	%r11w, %eax
	movl	%eax, 8(%rsp)
	movq	32(%rbp), %rax
	movq	%rax, 16(%rsp)
	movq	40(%rbp), %rax
	movq	%rax, 24(%rsp)
	movl	48(%rbp), %eax
	movl	%eax, 32(%rsp)
	movl	56(%rbp), %eax
	movl	%eax, 40(%rsp)
	vmovaps	%xmm1, %xmm0
	callq	FastIntegerPelBlockMotionSearch.149
	addq	$72, %rsp
	popq	%rbx
	popq	%r12
	popq	%r13
	popq	%r14
	popq	%r15
	popq	%rbp
	.cfi_def_cfa %rsp, 8
	retq
.LBB9_17:                               # %ctrl0
	.cfi_def_cfa %rbp, 16
	movq	%rbx, %rdi
	movl	%r13d, %edx
	movl	%r12d, %ecx
	movl	-44(%rbp), %ebx         # 4-byte Reload
	movw	24(%rbp), %r11w
	vmovsd	-56(%rbp), %xmm1        # 8-byte Reload
                                        # xmm1 = mem[0],zero
	cmpl	$1, %eax
	je	.LBB9_2
# %bb.18:                               # %ctrl1
	cmpl	$2, %eax
	vmovaps	%xmm1, %xmm0
	movl	48(%rbp), %r12d
	movq	40(%rbp), %r13
	movq	32(%rbp), %r10
	movw	%r11w, %si
	movl	%ebx, %r9d
	movl	%r15d, %r8d
	je	.LBB9_3
# %bb.19:                               # %ctrl2
	movl	%r8d, -48(%rbp)         # 4-byte Spill
	cmpl	$3, %eax
	je	.LBB9_4
# %bb.20:                               # %ctrl3
	cmpl	$4, %eax
	movl	%r14d, %r9d
	movq	%rdi, %r8
	je	.LBB9_5
# %bb.21:                               # %ctrl4
	cmpl	$5, %eax
	je	.LBB9_6
# %bb.22:                               # %ctrl5
	cmpl	$6, %eax
	je	.LBB9_7
# %bb.23:                               # %ctrl6
	cmpl	$7, %eax
	je	.LBB9_8
# %bb.24:                               # %ctrl7
	cmpl	$8, %eax
	je	.LBB9_9
# %bb.25:                               # %ctrl8
	cmpl	$9, %eax
	je	.LBB9_10
# %bb.26:                               # %ctrl9
	cmpl	$10, %eax
	je	.LBB9_11
# %bb.27:                               # %ctrl10
	cmpl	$11, %eax
	je	.LBB9_12
# %bb.28:                               # %ctrl11
	cmpl	$12, %eax
	je	.LBB9_13
# %bb.29:                               # %ctrl12
	cmpl	$13, %eax
	je	.LBB9_14
# %bb.30:                               # %ctrl13
	cmpl	$14, %eax
	je	.LBB9_15
	jmp	.LBB9_16
.Lfunc_end9:
	.size	FastIntegerPelBlockMotionSearch, .Lfunc_end9-FastIntegerPelBlockMotionSearch
	.cfi_endproc
                                        # -- End function
	.globl	AddUpSADQuarter         # -- Begin function AddUpSADQuarter
	.p2align	4, 0x90
	.type	AddUpSADQuarter,@function
AddUpSADQuarter:                        # @AddUpSADQuarter
	.cfi_startproc
# %bb.0:                                # %rand_bb
	pushq	%rbp
	.cfi_def_cfa_offset 16
	.cfi_offset %rbp, -16
	movq	%rsp, %rbp
	.cfi_def_cfa_register %rbp
	pushq	%r15
	pushq	%r14
	pushq	%r13
	pushq	%r12
	pushq	%rbx
	subq	$56, %rsp
	.cfi_offset %rbx, -56
	.cfi_offset %r12, -48
	.cfi_offset %r13, -40
	.cfi_offset %r14, -32
	.cfi_offset %r15, -24
	movl	%r9d, -44(%rbp)         # 4-byte Spill
	movl	%r8d, %r15d
	movl	%ecx, %r12d
	movl	%edx, %r13d
	movl	%esi, %r14d
	movl	%edi, %ebx
	callq	get_rand
	cmpl	$0, %eax
	jne	.LBB10_17
# %bb.1:                                # %func_AddUpSADQuarter.18
	movl	%ebx, %edi
	movl	%r14d, %esi
	movl	%r13d, %edx
	movl	%r12d, %ecx
	movl	%r15d, %r8d
	movl	-44(%rbp), %r9d         # 4-byte Reload
	movq	16(%rbp), %rax
	movq	%rax, (%rsp)
	movq	24(%rbp), %rax
	movq	%rax, 8(%rsp)
	movl	32(%rbp), %eax
	movl	%eax, 16(%rsp)
	movl	40(%rbp), %eax
	movl	%eax, 24(%rsp)
	movl	48(%rbp), %eax
	movl	%eax, 32(%rsp)
	callq	AddUpSADQuarter.18
	addq	$56, %rsp
	popq	%rbx
	popq	%r12
	popq	%r13
	popq	%r14
	popq	%r15
	popq	%rbp
	.cfi_def_cfa %rsp, 8
	retq
.LBB10_2:                               # %func_AddUpSADQuarter.42
	.cfi_def_cfa %rbp, 16
	movl	%r15d, %r8d
	movl	%ebx, %r9d
	movq	%r13, (%rsp)
	movq	24(%rbp), %rax
	movq	%rax, 8(%rsp)
	movl	32(%rbp), %eax
	movl	%eax, 16(%rsp)
	movl	40(%rbp), %eax
	movl	%eax, 24(%rsp)
	movl	48(%rbp), %eax
	movl	%eax, 32(%rsp)
	callq	AddUpSADQuarter.42
	addq	$56, %rsp
	popq	%rbx
	popq	%r12
	popq	%r13
	popq	%r14
	popq	%r15
	popq	%rbp
	.cfi_def_cfa %rsp, 8
	retq
.LBB10_3:                               # %func_AddUpSADQuarter.44
	.cfi_def_cfa %rbp, 16
	movq	%r11, (%rsp)
	movq	%r10, 8(%rsp)
	movl	32(%rbp), %eax
	movl	%eax, 16(%rsp)
	movl	%r12d, 24(%rsp)
	movl	%r14d, 32(%rsp)
	callq	AddUpSADQuarter.44
	addq	$56, %rsp
	popq	%rbx
	popq	%r12
	popq	%r13
	popq	%r14
	popq	%r15
	popq	%rbp
	.cfi_def_cfa %rsp, 8
	retq
.LBB10_4:                               # %func_AddUpSADQuarter.50
	.cfi_def_cfa %rbp, 16
	movl	-48(%rbp), %r8d         # 4-byte Reload
	movl	-44(%rbp), %r9d         # 4-byte Reload
	movq	%r11, (%rsp)
	movq	%r10, 8(%rsp)
	movl	32(%rbp), %eax
	movl	%eax, 16(%rsp)
	movl	%r12d, 24(%rsp)
	movl	48(%rbp), %eax
	movl	%eax, 32(%rsp)
	callq	AddUpSADQuarter.50
	addq	$56, %rsp
	popq	%rbx
	popq	%r12
	popq	%r13
	popq	%r14
	popq	%r15
	popq	%rbp
	.cfi_def_cfa %rsp, 8
	retq
.LBB10_5:                               # %func_AddUpSADQuarter.52
	.cfi_def_cfa %rbp, 16
	movl	%r9d, %esi
	movl	-48(%rbp), %r8d         # 4-byte Reload
	movl	-44(%rbp), %r9d         # 4-byte Reload
	movq	%r11, (%rsp)
	movq	%r10, 8(%rsp)
	movl	32(%rbp), %eax
	movl	%eax, 16(%rsp)
	movl	%r12d, 24(%rsp)
	movl	48(%rbp), %eax
	movl	%eax, 32(%rsp)
	callq	AddUpSADQuarter.52
	addq	$56, %rsp
	popq	%rbx
	popq	%r12
	popq	%r13
	popq	%r14
	popq	%r15
	popq	%rbp
	.cfi_def_cfa %rsp, 8
	retq
.LBB10_6:                               # %func_AddUpSADQuarter.54
	.cfi_def_cfa %rbp, 16
	movl	%r9d, %esi
	movl	-48(%rbp), %r8d         # 4-byte Reload
	movl	-44(%rbp), %r9d         # 4-byte Reload
	movq	%r11, (%rsp)
	movq	%r10, 8(%rsp)
	movl	32(%rbp), %eax
	movl	%eax, 16(%rsp)
	movl	%r12d, 24(%rsp)
	movl	48(%rbp), %eax
	movl	%eax, 32(%rsp)
	callq	AddUpSADQuarter.54
	addq	$56, %rsp
	popq	%rbx
	popq	%r12
	popq	%r13
	popq	%r14
	popq	%r15
	popq	%rbp
	.cfi_def_cfa %rsp, 8
	retq
.LBB10_7:                               # %func_AddUpSADQuarter.59
	.cfi_def_cfa %rbp, 16
	movl	%r9d, %esi
	movl	-48(%rbp), %r8d         # 4-byte Reload
	movl	-44(%rbp), %r9d         # 4-byte Reload
	movq	%r11, (%rsp)
	movq	%r10, 8(%rsp)
	movl	32(%rbp), %eax
	movl	%eax, 16(%rsp)
	movl	%r12d, 24(%rsp)
	movl	48(%rbp), %eax
	movl	%eax, 32(%rsp)
	callq	AddUpSADQuarter.59
	addq	$56, %rsp
	popq	%rbx
	popq	%r12
	popq	%r13
	popq	%r14
	popq	%r15
	popq	%rbp
	.cfi_def_cfa %rsp, 8
	retq
.LBB10_8:                               # %func_AddUpSADQuarter.83
	.cfi_def_cfa %rbp, 16
	movl	%r9d, %esi
	movl	-48(%rbp), %r8d         # 4-byte Reload
	movl	-44(%rbp), %r9d         # 4-byte Reload
	movq	%r11, (%rsp)
	movq	%r10, 8(%rsp)
	movl	32(%rbp), %eax
	movl	%eax, 16(%rsp)
	movl	%r12d, 24(%rsp)
	movl	48(%rbp), %eax
	movl	%eax, 32(%rsp)
	callq	AddUpSADQuarter.83
	addq	$56, %rsp
	popq	%rbx
	popq	%r12
	popq	%r13
	popq	%r14
	popq	%r15
	popq	%rbp
	.cfi_def_cfa %rsp, 8
	retq
.LBB10_9:                               # %func_AddUpSADQuarter.87
	.cfi_def_cfa %rbp, 16
	movl	%r9d, %esi
	movl	-48(%rbp), %r8d         # 4-byte Reload
	movl	-44(%rbp), %r9d         # 4-byte Reload
	movq	%r11, (%rsp)
	movq	%r10, 8(%rsp)
	movl	32(%rbp), %eax
	movl	%eax, 16(%rsp)
	movl	%r12d, 24(%rsp)
	movl	48(%rbp), %eax
	movl	%eax, 32(%rsp)
	callq	AddUpSADQuarter.87
	addq	$56, %rsp
	popq	%rbx
	popq	%r12
	popq	%r13
	popq	%r14
	popq	%r15
	popq	%rbp
	.cfi_def_cfa %rsp, 8
	retq
.LBB10_10:                              # %func_AddUpSADQuarter.99
	.cfi_def_cfa %rbp, 16
	movl	%r9d, %esi
	movl	-48(%rbp), %r8d         # 4-byte Reload
	movl	-44(%rbp), %r9d         # 4-byte Reload
	movq	%r11, (%rsp)
	movq	%r10, 8(%rsp)
	movl	32(%rbp), %eax
	movl	%eax, 16(%rsp)
	movl	%r12d, 24(%rsp)
	movl	48(%rbp), %eax
	movl	%eax, 32(%rsp)
	callq	AddUpSADQuarter.99
	addq	$56, %rsp
	popq	%rbx
	popq	%r12
	popq	%r13
	popq	%r14
	popq	%r15
	popq	%rbp
	.cfi_def_cfa %rsp, 8
	retq
.LBB10_11:                              # %func_AddUpSADQuarter.102
	.cfi_def_cfa %rbp, 16
	movl	%r9d, %esi
	movl	-48(%rbp), %r8d         # 4-byte Reload
	movl	-44(%rbp), %r9d         # 4-byte Reload
	movq	%r11, (%rsp)
	movq	%r10, 8(%rsp)
	movl	32(%rbp), %eax
	movl	%eax, 16(%rsp)
	movl	%r12d, 24(%rsp)
	movl	48(%rbp), %eax
	movl	%eax, 32(%rsp)
	callq	AddUpSADQuarter.102
	addq	$56, %rsp
	popq	%rbx
	popq	%r12
	popq	%r13
	popq	%r14
	popq	%r15
	popq	%rbp
	.cfi_def_cfa %rsp, 8
	retq
.LBB10_12:                              # %func_AddUpSADQuarter.108
	.cfi_def_cfa %rbp, 16
	movl	%r9d, %esi
	movl	-48(%rbp), %r8d         # 4-byte Reload
	movl	-44(%rbp), %r9d         # 4-byte Reload
	movq	%r11, (%rsp)
	movq	%r10, 8(%rsp)
	movl	32(%rbp), %eax
	movl	%eax, 16(%rsp)
	movl	%r12d, 24(%rsp)
	movl	48(%rbp), %eax
	movl	%eax, 32(%rsp)
	callq	AddUpSADQuarter.108
	addq	$56, %rsp
	popq	%rbx
	popq	%r12
	popq	%r13
	popq	%r14
	popq	%r15
	popq	%rbp
	.cfi_def_cfa %rsp, 8
	retq
.LBB10_13:                              # %func_AddUpSADQuarter.110
	.cfi_def_cfa %rbp, 16
	movl	%r9d, %esi
	movl	-48(%rbp), %r8d         # 4-byte Reload
	movl	-44(%rbp), %r9d         # 4-byte Reload
	movq	%r11, (%rsp)
	movq	%r10, 8(%rsp)
	movl	32(%rbp), %eax
	movl	%eax, 16(%rsp)
	movl	%r12d, 24(%rsp)
	movl	48(%rbp), %eax
	movl	%eax, 32(%rsp)
	callq	AddUpSADQuarter.110
	addq	$56, %rsp
	popq	%rbx
	popq	%r12
	popq	%r13
	popq	%r14
	popq	%r15
	popq	%rbp
	.cfi_def_cfa %rsp, 8
	retq
.LBB10_14:                              # %func_AddUpSADQuarter.114
	.cfi_def_cfa %rbp, 16
	movl	%r9d, %esi
	movl	-48(%rbp), %r8d         # 4-byte Reload
	movl	-44(%rbp), %r9d         # 4-byte Reload
	movq	16(%rbp), %rax
	movq	%rax, (%rsp)
	movq	24(%rbp), %rax
	movq	%rax, 8(%rsp)
	movl	32(%rbp), %eax
	movl	%eax, 16(%rsp)
	movl	40(%rbp), %eax
	movl	%eax, 24(%rsp)
	movl	48(%rbp), %eax
	movl	%eax, 32(%rsp)
	callq	AddUpSADQuarter.114
	addq	$56, %rsp
	popq	%rbx
	popq	%r12
	popq	%r13
	popq	%r14
	popq	%r15
	popq	%rbp
	.cfi_def_cfa %rsp, 8
	retq
.LBB10_15:                              # %func_AddUpSADQuarter.121
	.cfi_def_cfa %rbp, 16
	movl	%r15d, %r8d
	movl	%ebx, %r9d
	movq	%r13, (%rsp)
	movq	24(%rbp), %rax
	movq	%rax, 8(%rsp)
	movl	32(%rbp), %eax
	movl	%eax, 16(%rsp)
	movl	40(%rbp), %eax
	movl	%eax, 24(%rsp)
	movl	48(%rbp), %eax
	movl	%eax, 32(%rsp)
	callq	AddUpSADQuarter.121
	addq	$56, %rsp
	popq	%rbx
	popq	%r12
	popq	%r13
	popq	%r14
	popq	%r15
	popq	%rbp
	.cfi_def_cfa %rsp, 8
	retq
.LBB10_16:                              # %func_AddUpSADQuarter.128
	.cfi_def_cfa %rbp, 16
	movl	%r15d, %r8d
	movl	%ebx, %r9d
	movq	%r13, (%rsp)
	movq	24(%rbp), %rax
	movq	%rax, 8(%rsp)
	movl	32(%rbp), %eax
	movl	%eax, 16(%rsp)
	movl	40(%rbp), %eax
	movl	%eax, 24(%rsp)
	movl	48(%rbp), %eax
	movl	%eax, 32(%rsp)
	callq	AddUpSADQuarter.128
	addq	$56, %rsp
	popq	%rbx
	popq	%r12
	popq	%r13
	popq	%r14
	popq	%r15
	popq	%rbp
	.cfi_def_cfa %rsp, 8
	retq
.LBB10_17:                              # %ctrl0
	.cfi_def_cfa %rbp, 16
	movl	%ebx, %edi
	movl	%r14d, %esi
	movl	%r13d, %edx
	movl	%r12d, %ecx
	movl	-44(%rbp), %ebx         # 4-byte Reload
	movq	16(%rbp), %r13
	cmpl	$1, %eax
	je	.LBB10_2
# %bb.18:                               # %ctrl1
	cmpl	$2, %eax
	movl	48(%rbp), %r14d
	movl	40(%rbp), %r12d
	movq	24(%rbp), %r10
	movq	%r13, %r11
	movl	%ebx, %r9d
	movl	%r15d, %r8d
	je	.LBB10_3
# %bb.19:                               # %ctrl2
	movl	%r8d, -48(%rbp)         # 4-byte Spill
	cmpl	$3, %eax
	je	.LBB10_4
# %bb.20:                               # %ctrl3
	cmpl	$4, %eax
	movl	%esi, %r9d
	je	.LBB10_5
# %bb.21:                               # %ctrl4
	cmpl	$5, %eax
	je	.LBB10_6
# %bb.22:                               # %ctrl5
	cmpl	$6, %eax
	je	.LBB10_7
# %bb.23:                               # %ctrl6
	cmpl	$7, %eax
	je	.LBB10_8
# %bb.24:                               # %ctrl7
	cmpl	$8, %eax
	je	.LBB10_9
# %bb.25:                               # %ctrl8
	cmpl	$9, %eax
	je	.LBB10_10
# %bb.26:                               # %ctrl9
	cmpl	$10, %eax
	je	.LBB10_11
# %bb.27:                               # %ctrl10
	cmpl	$11, %eax
	je	.LBB10_12
# %bb.28:                               # %ctrl11
	cmpl	$12, %eax
	je	.LBB10_13
# %bb.29:                               # %ctrl12
	cmpl	$13, %eax
	je	.LBB10_14
# %bb.30:                               # %ctrl13
	cmpl	$14, %eax
	je	.LBB10_15
	jmp	.LBB10_16
.Lfunc_end10:
	.size	AddUpSADQuarter, .Lfunc_end10-AddUpSADQuarter
	.cfi_endproc
                                        # -- End function
	.globl	FastSubPelBlockMotionSearch # -- Begin function FastSubPelBlockMotionSearch
	.p2align	4, 0x90
	.type	FastSubPelBlockMotionSearch,@function
FastSubPelBlockMotionSearch:            # @FastSubPelBlockMotionSearch
	.cfi_startproc
# %bb.0:                                # %rand_bb
	pushq	%rbp
	.cfi_def_cfa_offset 16
	.cfi_offset %rbp, -16
	movq	%rsp, %rbp
	.cfi_def_cfa_register %rbp
	pushq	%r15
	pushq	%r14
	pushq	%r13
	pushq	%r12
	pushq	%rbx
	subq	$88, %rsp
	.cfi_offset %rbx, -56
	.cfi_offset %r12, -48
	.cfi_offset %r13, -40
	.cfi_offset %r14, -32
	.cfi_offset %r15, -24
	vmovsd	%xmm0, -56(%rbp)        # 8-byte Spill
	movl	%r9d, -44(%rbp)         # 4-byte Spill
	movl	%r8d, %r12d
	movl	%ecx, %r13d
	movl	%edx, %r14d
	movl	%esi, %ebx
	movq	%rdi, %r15
	callq	get_rand
	cmpl	$0, %eax
	jne	.LBB11_17
# %bb.1:                                # %func_FastSubPelBlockMotionSearch.1
	movq	%r15, %rdi
	movswl	%bx, %esi
	movl	%r14d, %edx
	movl	%r13d, %ecx
	movl	%r12d, %r8d
	movl	-44(%rbp), %r9d         # 4-byte Reload
	movswl	16(%rbp), %eax
	movl	%eax, (%rsp)
	movswl	24(%rbp), %eax
	movl	%eax, 8(%rsp)
	movq	32(%rbp), %rax
	movq	%rax, 16(%rsp)
	movq	40(%rbp), %rax
	movq	%rax, 24(%rsp)
	movl	48(%rbp), %eax
	movl	%eax, 32(%rsp)
	movl	56(%rbp), %eax
	movl	%eax, 40(%rsp)
	movl	64(%rbp), %eax
	movl	%eax, 48(%rsp)
	vmovsd	-56(%rbp), %xmm0        # 8-byte Reload
                                        # xmm0 = mem[0],zero
	movl	72(%rbp), %eax
	movl	%eax, 56(%rsp)
	callq	FastSubPelBlockMotionSearch.1
	addq	$88, %rsp
	popq	%rbx
	popq	%r12
	popq	%r13
	popq	%r14
	popq	%r15
	popq	%rbp
	.cfi_def_cfa %rsp, 8
	retq
.LBB11_2:                               # %func_FastSubPelBlockMotionSearch.4
	.cfi_def_cfa %rbp, 16
	movswl	%bx, %esi
	movl	%r12d, %r8d
	movl	%r15d, %r9d
	movswl	16(%rbp), %eax
	movl	%eax, (%rsp)
	movswl	24(%rbp), %eax
	movl	%eax, 8(%rsp)
	movq	32(%rbp), %rax
	movq	%rax, 16(%rsp)
	movq	%r11, 24(%rsp)
	movl	48(%rbp), %eax
	movl	%eax, 32(%rsp)
	movl	56(%rbp), %eax
	movl	%eax, 40(%rsp)
	movl	64(%rbp), %eax
	movl	%eax, 48(%rsp)
	vmovaps	%xmm1, %xmm0
	movl	72(%rbp), %eax
	movl	%eax, 56(%rsp)
	callq	FastSubPelBlockMotionSearch.4
	addq	$88, %rsp
	popq	%rbx
	popq	%r12
	popq	%r13
	popq	%r14
	popq	%r15
	popq	%rbp
	.cfi_def_cfa %rsp, 8
	retq
.LBB11_3:                               # %func_FastSubPelBlockMotionSearch.5
	.cfi_def_cfa %rbp, 16
	movq	%rsi, %r12
	movswl	%bx, %esi
	movswl	16(%rbp), %eax
	movl	%eax, (%rsp)
	movswl	24(%rbp), %eax
	movl	%eax, 8(%rsp)
	movq	32(%rbp), %rax
	movq	%rax, 16(%rsp)
	movq	%r12, 24(%rsp)
	movl	%r10d, 32(%rsp)
	movl	%r13d, 40(%rsp)
	movl	%r14d, 48(%rsp)
	movl	72(%rbp), %eax
	movl	%eax, 56(%rsp)
	callq	FastSubPelBlockMotionSearch.5
	addq	$88, %rsp
	popq	%rbx
	popq	%r12
	popq	%r13
	popq	%r14
	popq	%r15
	popq	%rbp
	.cfi_def_cfa %rsp, 8
	retq
.LBB11_4:                               # %func_FastSubPelBlockMotionSearch.13
	.cfi_def_cfa %rbp, 16
	movq	%rsi, %r12
	movswl	%bx, %esi
	movl	-48(%rbp), %r8d         # 4-byte Reload
	movl	-44(%rbp), %r9d         # 4-byte Reload
	movswl	16(%rbp), %eax
	movl	%eax, (%rsp)
	movswl	24(%rbp), %eax
	movl	%eax, 8(%rsp)
	movq	32(%rbp), %rax
	movq	%rax, 16(%rsp)
	movq	%r12, 24(%rsp)
	movl	%r10d, 32(%rsp)
	movl	%r13d, 40(%rsp)
	movl	%r14d, 48(%rsp)
	movl	72(%rbp), %eax
	movl	%eax, 56(%rsp)
	callq	FastSubPelBlockMotionSearch.13
	addq	$88, %rsp
	popq	%rbx
	popq	%r12
	popq	%r13
	popq	%r14
	popq	%r15
	popq	%rbp
	.cfi_def_cfa %rsp, 8
	retq
.LBB11_5:                               # %func_FastSubPelBlockMotionSearch.21
	.cfi_def_cfa %rbp, 16
	movq	%rsi, %r12
	movq	%r8, %rdi
	movswl	%r9w, %esi
	movl	-48(%rbp), %r8d         # 4-byte Reload
	movl	-44(%rbp), %r9d         # 4-byte Reload
	movswl	16(%rbp), %eax
	movl	%eax, (%rsp)
	movswl	24(%rbp), %eax
	movl	%eax, 8(%rsp)
	movq	32(%rbp), %rax
	movq	%rax, 16(%rsp)
	movq	%r12, 24(%rsp)
	movl	%r10d, 32(%rsp)
	movl	%r13d, 40(%rsp)
	movl	%r14d, 48(%rsp)
	movl	72(%rbp), %eax
	movl	%eax, 56(%rsp)
	callq	FastSubPelBlockMotionSearch.21
	addq	$88, %rsp
	popq	%rbx
	popq	%r12
	popq	%r13
	popq	%r14
	popq	%r15
	popq	%rbp
	.cfi_def_cfa %rsp, 8
	retq
.LBB11_6:                               # %func_FastSubPelBlockMotionSearch.23
	.cfi_def_cfa %rbp, 16
	movq	%rsi, %r12
	movq	%r8, %rdi
	movswl	%r9w, %esi
	movl	-48(%rbp), %r8d         # 4-byte Reload
	movl	-44(%rbp), %r9d         # 4-byte Reload
	movswl	16(%rbp), %eax
	movl	%eax, (%rsp)
	movswl	24(%rbp), %eax
	movl	%eax, 8(%rsp)
	movq	32(%rbp), %rax
	movq	%rax, 16(%rsp)
	movq	%r12, 24(%rsp)
	movl	%r10d, 32(%rsp)
	movl	%r13d, 40(%rsp)
	movl	%r14d, 48(%rsp)
	movl	72(%rbp), %eax
	movl	%eax, 56(%rsp)
	callq	FastSubPelBlockMotionSearch.23
	addq	$88, %rsp
	popq	%rbx
	popq	%r12
	popq	%r13
	popq	%r14
	popq	%r15
	popq	%rbp
	.cfi_def_cfa %rsp, 8
	retq
.LBB11_7:                               # %func_FastSubPelBlockMotionSearch.45
	.cfi_def_cfa %rbp, 16
	movq	%rsi, %r12
	movq	%r8, %rdi
	movswl	%r9w, %esi
	movl	-48(%rbp), %r8d         # 4-byte Reload
	movl	-44(%rbp), %r9d         # 4-byte Reload
	movswl	16(%rbp), %eax
	movl	%eax, (%rsp)
	movswl	24(%rbp), %eax
	movl	%eax, 8(%rsp)
	movq	32(%rbp), %rax
	movq	%rax, 16(%rsp)
	movq	%r12, 24(%rsp)
	movl	%r10d, 32(%rsp)
	movl	%r13d, 40(%rsp)
	movl	%r14d, 48(%rsp)
	movl	72(%rbp), %eax
	movl	%eax, 56(%rsp)
	callq	FastSubPelBlockMotionSearch.45
	addq	$88, %rsp
	popq	%rbx
	popq	%r12
	popq	%r13
	popq	%r14
	popq	%r15
	popq	%rbp
	.cfi_def_cfa %rsp, 8
	retq
.LBB11_8:                               # %func_FastSubPelBlockMotionSearch.49
	.cfi_def_cfa %rbp, 16
	movq	%rsi, %r12
	movq	%r8, %rdi
	movswl	%r9w, %esi
	movl	-48(%rbp), %r8d         # 4-byte Reload
	movl	-44(%rbp), %r9d         # 4-byte Reload
	movswl	16(%rbp), %eax
	movl	%eax, (%rsp)
	movswl	24(%rbp), %eax
	movl	%eax, 8(%rsp)
	movq	32(%rbp), %rax
	movq	%rax, 16(%rsp)
	movq	%r12, 24(%rsp)
	movl	%r10d, 32(%rsp)
	movl	%r13d, 40(%rsp)
	movl	%r14d, 48(%rsp)
	movl	72(%rbp), %eax
	movl	%eax, 56(%rsp)
	callq	FastSubPelBlockMotionSearch.49
	addq	$88, %rsp
	popq	%rbx
	popq	%r12
	popq	%r13
	popq	%r14
	popq	%r15
	popq	%rbp
	.cfi_def_cfa %rsp, 8
	retq
.LBB11_9:                               # %func_FastSubPelBlockMotionSearch.51
	.cfi_def_cfa %rbp, 16
	movq	%rsi, %r12
	movq	%r8, %rdi
	movswl	%r9w, %esi
	movl	-48(%rbp), %r8d         # 4-byte Reload
	movl	-44(%rbp), %r9d         # 4-byte Reload
	movswl	16(%rbp), %eax
	movl	%eax, (%rsp)
	movswl	24(%rbp), %eax
	movl	%eax, 8(%rsp)
	movq	32(%rbp), %rax
	movq	%rax, 16(%rsp)
	movq	%r12, 24(%rsp)
	movl	%r10d, 32(%rsp)
	movl	%r13d, 40(%rsp)
	movl	%r14d, 48(%rsp)
	movl	72(%rbp), %eax
	movl	%eax, 56(%rsp)
	callq	FastSubPelBlockMotionSearch.51
	addq	$88, %rsp
	popq	%rbx
	popq	%r12
	popq	%r13
	popq	%r14
	popq	%r15
	popq	%rbp
	.cfi_def_cfa %rsp, 8
	retq
.LBB11_10:                              # %func_FastSubPelBlockMotionSearch.60
	.cfi_def_cfa %rbp, 16
	movq	%rsi, %r12
	movq	%r8, %rdi
	movswl	%r9w, %esi
	movl	-48(%rbp), %r8d         # 4-byte Reload
	movl	-44(%rbp), %r9d         # 4-byte Reload
	movswl	16(%rbp), %eax
	movl	%eax, (%rsp)
	movswl	24(%rbp), %eax
	movl	%eax, 8(%rsp)
	movq	32(%rbp), %rax
	movq	%rax, 16(%rsp)
	movq	%r12, 24(%rsp)
	movl	%r10d, 32(%rsp)
	movl	%r13d, 40(%rsp)
	movl	%r14d, 48(%rsp)
	movl	72(%rbp), %eax
	movl	%eax, 56(%rsp)
	callq	FastSubPelBlockMotionSearch.60
	addq	$88, %rsp
	popq	%rbx
	popq	%r12
	popq	%r13
	popq	%r14
	popq	%r15
	popq	%rbp
	.cfi_def_cfa %rsp, 8
	retq
.LBB11_11:                              # %func_FastSubPelBlockMotionSearch.64
	.cfi_def_cfa %rbp, 16
	movq	%rsi, %r12
	movq	%r8, %rdi
	movswl	%r9w, %esi
	movl	-48(%rbp), %r8d         # 4-byte Reload
	movl	-44(%rbp), %r9d         # 4-byte Reload
	movswl	16(%rbp), %eax
	movl	%eax, (%rsp)
	movswl	24(%rbp), %eax
	movl	%eax, 8(%rsp)
	movq	32(%rbp), %rax
	movq	%rax, 16(%rsp)
	movq	%r12, 24(%rsp)
	movl	%r10d, 32(%rsp)
	movl	%r13d, 40(%rsp)
	movl	%r14d, 48(%rsp)
	movl	72(%rbp), %eax
	movl	%eax, 56(%rsp)
	callq	FastSubPelBlockMotionSearch.64
	addq	$88, %rsp
	popq	%rbx
	popq	%r12
	popq	%r13
	popq	%r14
	popq	%r15
	popq	%rbp
	.cfi_def_cfa %rsp, 8
	retq
.LBB11_12:                              # %func_FastSubPelBlockMotionSearch.74
	.cfi_def_cfa %rbp, 16
	movq	%rsi, %r12
	movq	%r8, %rdi
	movswl	%r9w, %esi
	movl	-48(%rbp), %r8d         # 4-byte Reload
	movl	-44(%rbp), %r9d         # 4-byte Reload
	movswl	16(%rbp), %eax
	movl	%eax, (%rsp)
	movswl	24(%rbp), %eax
	movl	%eax, 8(%rsp)
	movq	32(%rbp), %rax
	movq	%rax, 16(%rsp)
	movq	%r12, 24(%rsp)
	movl	%r10d, 32(%rsp)
	movl	%r13d, 40(%rsp)
	movl	%r14d, 48(%rsp)
	movl	72(%rbp), %eax
	movl	%eax, 56(%rsp)
	callq	FastSubPelBlockMotionSearch.74
	addq	$88, %rsp
	popq	%rbx
	popq	%r12
	popq	%r13
	popq	%r14
	popq	%r15
	popq	%rbp
	.cfi_def_cfa %rsp, 8
	retq
.LBB11_13:                              # %func_FastSubPelBlockMotionSearch.80
	.cfi_def_cfa %rbp, 16
	movq	%rsi, %r12
	movq	%r8, %rdi
	movswl	%r9w, %esi
	movl	-48(%rbp), %r8d         # 4-byte Reload
	movl	-44(%rbp), %r9d         # 4-byte Reload
	movswl	16(%rbp), %eax
	movl	%eax, (%rsp)
	movswl	24(%rbp), %eax
	movl	%eax, 8(%rsp)
	movq	32(%rbp), %rax
	movq	%rax, 16(%rsp)
	movq	%r12, 24(%rsp)
	movl	%r10d, 32(%rsp)
	movl	%r13d, 40(%rsp)
	movl	%r14d, 48(%rsp)
	movl	72(%rbp), %eax
	movl	%eax, 56(%rsp)
	callq	FastSubPelBlockMotionSearch.80
	addq	$88, %rsp
	popq	%rbx
	popq	%r12
	popq	%r13
	popq	%r14
	popq	%r15
	popq	%rbp
	.cfi_def_cfa %rsp, 8
	retq
.LBB11_14:                              # %func_FastSubPelBlockMotionSearch.104
	.cfi_def_cfa %rbp, 16
	movq	%r8, %rdi
	movswl	%r9w, %esi
	movl	-48(%rbp), %r8d         # 4-byte Reload
	movl	-44(%rbp), %r9d         # 4-byte Reload
	movswl	16(%rbp), %eax
	movl	%eax, (%rsp)
	movswl	24(%rbp), %eax
	movl	%eax, 8(%rsp)
	movq	32(%rbp), %rax
	movq	%rax, 16(%rsp)
	movq	40(%rbp), %rax
	movq	%rax, 24(%rsp)
	movl	48(%rbp), %eax
	movl	%eax, 32(%rsp)
	movl	56(%rbp), %eax
	movl	%eax, 40(%rsp)
	movl	64(%rbp), %eax
	movl	%eax, 48(%rsp)
	movl	72(%rbp), %eax
	movl	%eax, 56(%rsp)
	callq	FastSubPelBlockMotionSearch.104
	addq	$88, %rsp
	popq	%rbx
	popq	%r12
	popq	%r13
	popq	%r14
	popq	%r15
	popq	%rbp
	.cfi_def_cfa %rsp, 8
	retq
.LBB11_15:                              # %func_FastSubPelBlockMotionSearch.123
	.cfi_def_cfa %rbp, 16
	movswl	%bx, %esi
	movl	%r12d, %r8d
	movl	%r15d, %r9d
	movswl	16(%rbp), %eax
	movl	%eax, (%rsp)
	movswl	24(%rbp), %eax
	movl	%eax, 8(%rsp)
	movq	32(%rbp), %rax
	movq	%rax, 16(%rsp)
	movq	%r11, 24(%rsp)
	movl	48(%rbp), %eax
	movl	%eax, 32(%rsp)
	movl	56(%rbp), %eax
	movl	%eax, 40(%rsp)
	movl	64(%rbp), %eax
	movl	%eax, 48(%rsp)
	vmovaps	%xmm1, %xmm0
	movl	72(%rbp), %eax
	movl	%eax, 56(%rsp)
	callq	FastSubPelBlockMotionSearch.123
	addq	$88, %rsp
	popq	%rbx
	popq	%r12
	popq	%r13
	popq	%r14
	popq	%r15
	popq	%rbp
	.cfi_def_cfa %rsp, 8
	retq
.LBB11_16:                              # %func_FastSubPelBlockMotionSearch.126
	.cfi_def_cfa %rbp, 16
	movswl	%bx, %esi
	movl	%r12d, %r8d
	movl	%r15d, %r9d
	movswl	16(%rbp), %eax
	movl	%eax, (%rsp)
	movswl	24(%rbp), %eax
	movl	%eax, 8(%rsp)
	movq	32(%rbp), %rax
	movq	%rax, 16(%rsp)
	movq	%r11, 24(%rsp)
	movl	48(%rbp), %eax
	movl	%eax, 32(%rsp)
	movl	56(%rbp), %eax
	movl	%eax, 40(%rsp)
	movl	64(%rbp), %eax
	movl	%eax, 48(%rsp)
	vmovaps	%xmm1, %xmm0
	movl	72(%rbp), %eax
	movl	%eax, 56(%rsp)
	callq	FastSubPelBlockMotionSearch.126
	addq	$88, %rsp
	popq	%rbx
	popq	%r12
	popq	%r13
	popq	%r14
	popq	%r15
	popq	%rbp
	.cfi_def_cfa %rsp, 8
	retq
.LBB11_17:                              # %ctrl0
	.cfi_def_cfa %rbp, 16
	movq	%r15, %rdi
	movl	%r14d, %edx
	movl	%r13d, %ecx
	movl	-44(%rbp), %r15d        # 4-byte Reload
	movq	40(%rbp), %r11
	vmovsd	-56(%rbp), %xmm1        # 8-byte Reload
                                        # xmm1 = mem[0],zero
	cmpl	$1, %eax
	je	.LBB11_2
# %bb.18:                               # %ctrl1
	cmpl	$2, %eax
	vmovaps	%xmm1, %xmm0
	movl	64(%rbp), %r14d
	movl	56(%rbp), %r13d
	movl	48(%rbp), %r10d
	movq	%r11, %rsi
	movl	%r15d, %r9d
	movl	%r12d, %r8d
	je	.LBB11_3
# %bb.19:                               # %ctrl2
	movl	%r8d, -48(%rbp)         # 4-byte Spill
	cmpl	$3, %eax
	je	.LBB11_4
# %bb.20:                               # %ctrl3
	cmpl	$4, %eax
	movl	%ebx, %r9d
	movq	%rdi, %r8
	je	.LBB11_5
# %bb.21:                               # %ctrl4
	cmpl	$5, %eax
	je	.LBB11_6
# %bb.22:                               # %ctrl5
	cmpl	$6, %eax
	je	.LBB11_7
# %bb.23:                               # %ctrl6
	cmpl	$7, %eax
	je	.LBB11_8
# %bb.24:                               # %ctrl7
	cmpl	$8, %eax
	je	.LBB11_9
# %bb.25:                               # %ctrl8
	cmpl	$9, %eax
	je	.LBB11_10
# %bb.26:                               # %ctrl9
	cmpl	$10, %eax
	je	.LBB11_11
# %bb.27:                               # %ctrl10
	cmpl	$11, %eax
	je	.LBB11_12
# %bb.28:                               # %ctrl11
	cmpl	$12, %eax
	je	.LBB11_13
# %bb.29:                               # %ctrl12
	cmpl	$13, %eax
	je	.LBB11_14
# %bb.30:                               # %ctrl13
	cmpl	$14, %eax
	je	.LBB11_15
	jmp	.LBB11_16
.Lfunc_end11:
	.size	FastSubPelBlockMotionSearch, .Lfunc_end11-FastSubPelBlockMotionSearch
	.cfi_endproc
                                        # -- End function
	.globl	decide_intrabk_SAD      # -- Begin function decide_intrabk_SAD
	.p2align	4, 0x90
	.type	decide_intrabk_SAD,@function
decide_intrabk_SAD:                     # @decide_intrabk_SAD
	.cfi_startproc
# %bb.0:                                # %entry
	pushq	%rbp
	.cfi_def_cfa_offset 16
	.cfi_offset %rbp, -16
	movq	%rsp, %rbp
	.cfi_def_cfa_register %rbp
	movq	img, %rax
	cmpl	$0, 24(%rax)
	je	.LBB12_15
# %bb.1:                                # %if.then
	movq	img, %rax
	cmpl	$0, 152(%rax)
	jne	.LBB12_4
# %bb.2:                                # %land.lhs.true
	movq	img, %rax
	cmpl	$0, 156(%rax)
	jne	.LBB12_4
# %bb.3:                                # %if.then3
	movl	$0, flag_intra_SAD
	jmp	.LBB12_14
.LBB12_4:                               # %if.else
	movq	img, %rax
	cmpl	$0, 152(%rax)
	jne	.LBB12_6
# %bb.5:                                # %if.then6
	movq	flag_intra, %rax
	movq	img, %rcx
	movl	152(%rcx), %ecx
	sarl	$4, %ecx
	movslq	%ecx, %rcx
	movl	(%rax,%rcx,4), %eax
	movl	%eax, flag_intra_SAD
	jmp	.LBB12_13
.LBB12_6:                               # %if.else8
	movq	img, %rax
	cmpl	$0, 156(%rax)
	jne	.LBB12_8
# %bb.7:                                # %if.then11
	movq	flag_intra, %rax
	movq	img, %rcx
	movl	152(%rcx), %ecx
	sarl	$4, %ecx
	subl	$1, %ecx
	movslq	%ecx, %rcx
	movl	(%rax,%rcx,4), %eax
	movl	%eax, flag_intra_SAD
	jmp	.LBB12_12
.LBB12_8:                               # %if.else16
	movq	flag_intra, %rax
	movq	img, %rcx
	movl	152(%rcx), %ecx
	sarl	$4, %ecx
	movslq	%ecx, %rcx
	cmpl	$0, (%rax,%rcx,4)
	movb	$1, %al
	jne	.LBB12_11
# %bb.9:                                # %lor.lhs.false
	movq	flag_intra, %rax
	movq	img, %rcx
	movl	152(%rcx), %ecx
	sarl	$4, %ecx
	subl	$1, %ecx
	movslq	%ecx, %rcx
	cmpl	$0, (%rax,%rcx,4)
	movb	$1, %al
	jne	.LBB12_11
# %bb.10:                               # %lor.rhs
	movq	flag_intra, %rax
	movq	img, %rcx
	movl	152(%rcx), %ecx
	sarl	$4, %ecx
	addl	$1, %ecx
	movslq	%ecx, %rcx
	cmpl	$0, (%rax,%rcx,4)
	setne	%al
.LBB12_11:                              # %lor.end
	andb	$1, %al
	movzbl	%al, %eax
	movl	%eax, flag_intra_SAD
.LBB12_12:                              # %if.end
	jmp	.LBB12_13
.LBB12_13:                              # %if.end32
	jmp	.LBB12_14
.LBB12_14:                              # %if.end33
	jmp	.LBB12_15
.LBB12_15:                              # %if.end34
	popq	%rbp
	.cfi_def_cfa %rsp, 8
	retq
.Lfunc_end12:
	.size	decide_intrabk_SAD, .Lfunc_end12-decide_intrabk_SAD
	.cfi_endproc
                                        # -- End function
	.globl	skip_intrabk_SAD        # -- Begin function skip_intrabk_SAD
	.p2align	4, 0x90
	.type	skip_intrabk_SAD,@function
skip_intrabk_SAD:                       # @skip_intrabk_SAD
	.cfi_startproc
# %bb.0:                                # %rand_bb
	pushq	%rbp
	.cfi_def_cfa_offset 16
	.cfi_offset %rbp, -16
	movq	%rsp, %rbp
	.cfi_def_cfa_register %rbp
	pushq	%r14
	pushq	%rbx
	.cfi_offset %rbx, -32
	.cfi_offset %r14, -24
	movl	%esi, %r14d
	movl	%edi, %ebx
	callq	get_rand
	cmpl	$0, %eax
	jne	.LBB13_17
# %bb.1:                                # %func_skip_intrabk_SAD.7
	movl	%ebx, %edi
	movl	%r14d, %esi
	callq	skip_intrabk_SAD.7
	popq	%rbx
	popq	%r14
	popq	%rbp
	.cfi_def_cfa %rsp, 8
	retq
.LBB13_2:                               # %func_skip_intrabk_SAD.22
	.cfi_def_cfa %rbp, 16
	movl	%ebx, %edi
	movl	%r14d, %esi
	callq	skip_intrabk_SAD.22
	popq	%rbx
	popq	%r14
	popq	%rbp
	.cfi_def_cfa %rsp, 8
	retq
.LBB13_3:                               # %func_skip_intrabk_SAD.41
	.cfi_def_cfa %rbp, 16
	movl	%ebx, %edi
	movl	%r14d, %esi
	callq	skip_intrabk_SAD.41
	popq	%rbx
	popq	%r14
	popq	%rbp
	.cfi_def_cfa %rsp, 8
	retq
.LBB13_4:                               # %func_skip_intrabk_SAD.46
	.cfi_def_cfa %rbp, 16
	movl	%ebx, %edi
	movl	%r14d, %esi
	callq	skip_intrabk_SAD.46
	popq	%rbx
	popq	%r14
	popq	%rbp
	.cfi_def_cfa %rsp, 8
	retq
.LBB13_5:                               # %func_skip_intrabk_SAD.66
	.cfi_def_cfa %rbp, 16
	movl	%ebx, %edi
	movl	%r14d, %esi
	callq	skip_intrabk_SAD.66
	popq	%rbx
	popq	%r14
	popq	%rbp
	.cfi_def_cfa %rsp, 8
	retq
.LBB13_6:                               # %func_skip_intrabk_SAD.68
	.cfi_def_cfa %rbp, 16
	movl	%ebx, %edi
	movl	%r14d, %esi
	callq	skip_intrabk_SAD.68
	popq	%rbx
	popq	%r14
	popq	%rbp
	.cfi_def_cfa %rsp, 8
	retq
.LBB13_7:                               # %func_skip_intrabk_SAD.93
	.cfi_def_cfa %rbp, 16
	movl	%ebx, %edi
	movl	%r14d, %esi
	callq	skip_intrabk_SAD.93
	popq	%rbx
	popq	%r14
	popq	%rbp
	.cfi_def_cfa %rsp, 8
	retq
.LBB13_8:                               # %func_skip_intrabk_SAD.94
	.cfi_def_cfa %rbp, 16
	movl	%ebx, %edi
	movl	%r14d, %esi
	callq	skip_intrabk_SAD.94
	popq	%rbx
	popq	%r14
	popq	%rbp
	.cfi_def_cfa %rsp, 8
	retq
.LBB13_9:                               # %func_skip_intrabk_SAD.95
	.cfi_def_cfa %rbp, 16
	movl	%ebx, %edi
	movl	%r14d, %esi
	callq	skip_intrabk_SAD.95
	popq	%rbx
	popq	%r14
	popq	%rbp
	.cfi_def_cfa %rsp, 8
	retq
.LBB13_10:                              # %func_skip_intrabk_SAD.134
	.cfi_def_cfa %rbp, 16
	movl	%ebx, %edi
	movl	%r14d, %esi
	callq	skip_intrabk_SAD.134
	popq	%rbx
	popq	%r14
	popq	%rbp
	.cfi_def_cfa %rsp, 8
	retq
.LBB13_11:                              # %func_skip_intrabk_SAD.136
	.cfi_def_cfa %rbp, 16
	movl	%ebx, %edi
	movl	%r14d, %esi
	callq	skip_intrabk_SAD.136
	popq	%rbx
	popq	%r14
	popq	%rbp
	.cfi_def_cfa %rsp, 8
	retq
.LBB13_12:                              # %func_skip_intrabk_SAD.143
	.cfi_def_cfa %rbp, 16
	movl	%ebx, %edi
	movl	%r14d, %esi
	callq	skip_intrabk_SAD.143
	popq	%rbx
	popq	%r14
	popq	%rbp
	.cfi_def_cfa %rsp, 8
	retq
.LBB13_13:                              # %func_skip_intrabk_SAD.154
	.cfi_def_cfa %rbp, 16
	movl	%ebx, %edi
	movl	%r14d, %esi
	callq	skip_intrabk_SAD.154
	popq	%rbx
	popq	%r14
	popq	%rbp
	.cfi_def_cfa %rsp, 8
	retq
.LBB13_14:                              # %func_skip_intrabk_SAD.155
	.cfi_def_cfa %rbp, 16
	movl	%ebx, %edi
	movl	%r14d, %esi
	callq	skip_intrabk_SAD.155
	popq	%rbx
	popq	%r14
	popq	%rbp
	.cfi_def_cfa %rsp, 8
	retq
.LBB13_15:                              # %func_skip_intrabk_SAD.156
	.cfi_def_cfa %rbp, 16
	movl	%ebx, %edi
	movl	%r14d, %esi
	callq	skip_intrabk_SAD.156
	popq	%rbx
	popq	%r14
	popq	%rbp
	.cfi_def_cfa %rsp, 8
	retq
.LBB13_16:                              # %func_skip_intrabk_SAD.160
	.cfi_def_cfa %rbp, 16
	movl	%ebx, %edi
	movl	%r14d, %esi
	callq	skip_intrabk_SAD.160
	popq	%rbx
	popq	%r14
	popq	%rbp
	.cfi_def_cfa %rsp, 8
	retq
.LBB13_17:                              # %ctrl0
	.cfi_def_cfa %rbp, 16
	cmpl	$1, %eax
	je	.LBB13_2
# %bb.18:                               # %ctrl1
	cmpl	$2, %eax
	je	.LBB13_3
# %bb.19:                               # %ctrl2
	cmpl	$3, %eax
	je	.LBB13_4
# %bb.20:                               # %ctrl3
	cmpl	$4, %eax
	je	.LBB13_5
# %bb.21:                               # %ctrl4
	cmpl	$5, %eax
	je	.LBB13_6
# %bb.22:                               # %ctrl5
	cmpl	$6, %eax
	je	.LBB13_7
# %bb.23:                               # %ctrl6
	cmpl	$7, %eax
	je	.LBB13_8
# %bb.24:                               # %ctrl7
	cmpl	$8, %eax
	je	.LBB13_9
# %bb.25:                               # %ctrl8
	cmpl	$9, %eax
	je	.LBB13_10
# %bb.26:                               # %ctrl9
	cmpl	$10, %eax
	je	.LBB13_11
# %bb.27:                               # %ctrl10
	cmpl	$11, %eax
	je	.LBB13_12
# %bb.28:                               # %ctrl11
	cmpl	$12, %eax
	je	.LBB13_13
# %bb.29:                               # %ctrl12
	cmpl	$13, %eax
	je	.LBB13_14
# %bb.30:                               # %ctrl13
	cmpl	$14, %eax
	je	.LBB13_15
	jmp	.LBB13_16
.Lfunc_end13:
	.size	skip_intrabk_SAD, .Lfunc_end13-skip_intrabk_SAD
	.cfi_endproc
                                        # -- End function
	.section	.rodata.cst8,"aM",@progbits,8
	.p2align	3               # -- Begin function FastSubPelBlockMotionSearch.1
.LCPI14_0:
	.quad	4602678819172646912     # double 0.5
.LCPI14_1:
	.quad	4679240012837945344     # double 65536
	.text
	.globl	FastSubPelBlockMotionSearch.1
	.p2align	4, 0x90
	.type	FastSubPelBlockMotionSearch.1,@function
FastSubPelBlockMotionSearch.1:          # @FastSubPelBlockMotionSearch.1
	.cfi_startproc
# %bb.0:                                # %entry
	pushq	%rbp
	.cfi_def_cfa_offset 16
	.cfi_offset %rbp, -16
	movq	%rsp, %rbp
	.cfi_def_cfa_register %rbp
	pushq	%r14
	pushq	%rbx
	subq	$208, %rsp
	.cfi_offset %rbx, -32
	.cfi_offset %r14, -24
	movl	72(%rbp), %eax
	movl	64(%rbp), %eax
	movl	56(%rbp), %eax
	movl	48(%rbp), %eax
	movq	40(%rbp), %rax
	movq	32(%rbp), %rax
	movw	24(%rbp), %ax
	movw	16(%rbp), %ax
	movl	$582042584, -140(%rbp)  # imm = 0x22B143D8
	movq	%rdi, -128(%rbp)
	movw	%si, -78(%rbp)
	movl	%edx, -144(%rbp)
	movl	%ecx, -68(%rbp)
	movl	%r8d, -64(%rbp)
	movl	%r9d, -92(%rbp)
	vmovsd	%xmm0, -160(%rbp)
	movq	img, %rax
	cmpl	$0, 72400(%rax)
	je	.LBB14_3
# %bb.1:                                # %land.lhs.true
	movq	img, %rax
	movq	14168(%rax), %rax
	movq	img, %rcx
	movslq	12(%rcx), %rcx
	imulq	$632, %rcx, %rcx        # imm = 0x278
	addq	%rcx, %rax
	cmpl	$0, 532(%rax)
	je	.LBB14_3
# %bb.2:                                # %cond.true
	movq	img, %rax
	movl	12(%rax), %eax
	cltd
	movl	$2, %ecx
	idivl	%ecx
	cmpl	$0, %edx
	movl	$4, %eax
	cmovnel	%eax, %ecx
	jmp	.LBB14_4
.LBB14_3:                               # %cond.false
	xorl	%ecx, %ecx
	jmp	.LBB14_4
.LBB14_4:                               # %cond.end
	vmovsd	.LCPI14_0(%rip), %xmm0  # xmm0 = mem[0],zero
	vmovsd	.LCPI14_1(%rip), %xmm1  # xmm1 = mem[0],zero
	movl	%ecx, -152(%rbp)
	movl	-144(%rbp), %eax
	addl	-152(%rbp), %eax
	cltq
	movq	listX(,%rax,8), %rax
	movswq	-78(%rbp), %rcx
	movq	(%rax,%rcx,8), %rax
	movq	%rax, -88(%rbp)
	vmulsd	-160(%rbp), %xmm1, %xmm1
	vaddsd	%xmm0, %xmm1, %xmm0
	vcvttsd2si	%xmm0, %eax
	movl	%eax, -72(%rbp)
	movl	$0, -44(%rbp)
	movq	input, %rax
	movslq	-92(%rbp), %rcx
	movl	80(%rax,%rcx,8), %eax
	movl	%eax, -60(%rbp)
	movq	input, %rax
	movslq	-92(%rbp), %rcx
	movl	84(%rax,%rcx,8), %eax
	movl	%eax, -56(%rbp)
	movl	-68(%rbp), %eax
	shll	$2, %eax
	movl	%eax, -120(%rbp)
	movl	-64(%rbp), %eax
	shll	$2, %eax
	movl	%eax, -96(%rbp)
	movq	-88(%rbp), %rax
	movl	6392(%rax), %eax
	subl	-60(%rbp), %eax
	addl	$1, %eax
	shll	$2, %eax
	movl	%eax, -136(%rbp)
	movq	-88(%rbp), %rax
	movl	6396(%rax), %eax
	subl	-56(%rbp), %eax
	addl	$1, %eax
	shll	$2, %eax
	movl	%eax, -132(%rbp)
	movl	$0, -40(%rbp)
	movl	$0, -36(%rbp)
	movq	32(%rbp), %rax
	movswl	(%rax), %ecx
	shll	$2, %ecx
	movw	%cx, (%rax)
	movq	40(%rbp), %rax
	movswl	(%rax), %ecx
	shll	$2, %ecx
	movw	%cx, (%rax)
	movl	-120(%rbp), %eax
	movq	32(%rbp), %rcx
	movswl	(%rcx), %ecx
	addl	%ecx, %eax
	cmpl	$1, %eax
	jle	.LBB14_9
# %bb.5:                                # %land.lhs.true32
	movl	-120(%rbp), %eax
	movq	32(%rbp), %rcx
	movswl	(%rcx), %ecx
	addl	%ecx, %eax
	movl	-136(%rbp), %ecx
	subl	$2, %ecx
	cmpl	%ecx, %eax
	jge	.LBB14_9
# %bb.6:                                # %land.lhs.true38
	movl	-96(%rbp), %eax
	movq	40(%rbp), %rcx
	movswl	(%rcx), %ecx
	addl	%ecx, %eax
	cmpl	$1, %eax
	jle	.LBB14_9
# %bb.7:                                # %land.lhs.true43
	movl	-96(%rbp), %eax
	movq	40(%rbp), %rcx
	movswl	(%rcx), %ecx
	addl	%ecx, %eax
	movl	-132(%rbp), %ecx
	subl	$2, %ecx
	cmpl	%ecx, %eax
	jge	.LBB14_9
# %bb.8:                                # %if.then
	movabsq	$FastPelY_14, %rax
	movq	%rax, PelY_14
	jmp	.LBB14_10
.LBB14_9:                               # %if.else
	movabsq	$UMVPelY_14, %rax
	movq	%rax, PelY_14
.LBB14_10:                              # %if.end
	movl	$3, -20(%rbp)
	movswl	16(%rbp), %eax
	movq	32(%rbp), %rcx
	movswl	(%rcx), %ecx
	subl	%ecx, %eax
	cltd
	movl	$4, %ecx
	idivl	%ecx
	movl	%edx, -108(%rbp)
	movswl	24(%rbp), %eax
	movq	40(%rbp), %rdx
	movswl	(%rdx), %edx
	subl	%edx, %eax
	cltd
	idivl	%ecx
	movl	%edx, -104(%rbp)
	movl	pred_MV_uplayer, %eax
	movq	32(%rbp), %rdx
	movswl	(%rdx), %edx
	subl	%edx, %eax
	cltd
	idivl	%ecx
	movl	%edx, -172(%rbp)
	movl	pred_MV_uplayer+4, %eax
	movq	40(%rbp), %rdx
	movswl	(%rdx), %edx
	subl	%edx, %eax
	cltd
	idivl	%ecx
	movl	%edx, -168(%rbp)
	movq	SearchState, %rax
	movq	(%rax), %rdi
	movl	-20(%rbp), %eax
	shll	$1, %eax
	addl	$1, %eax
	movl	-20(%rbp), %ecx
	shll	$1, %ecx
	addl	$1, %ecx
	imull	%ecx, %eax
	movslq	%eax, %rdx
	xorl	%esi, %esi
	callq	memset
	movq	input, %rax
	cmpl	$0, 24(%rax)
	je	.LBB14_14
# %bb.11:                               # %if.then71
	movq	32(%rbp), %rax
	movswl	(%rax), %eax
	movl	%eax, -28(%rbp)
	movq	40(%rbp), %rax
	movswl	(%rax), %eax
	movl	%eax, -24(%rbp)
	movl	-72(%rbp), %eax
	movq	mvbits, %rdx
	movl	-28(%rbp), %esi
	movl	-44(%rbp), %ecx
                                        # kill: def $cl killed $ecx
	shll	%cl, %esi
	movswl	16(%rbp), %ecx
	subl	%ecx, %esi
	movslq	%esi, %rcx
	movl	(%rdx,%rcx,4), %edx
	movq	mvbits, %rsi
	movl	-24(%rbp), %edi
	movl	-44(%rbp), %ecx
                                        # kill: def $cl killed $ecx
	shll	%cl, %edi
	movswl	24(%rbp), %ecx
	subl	%ecx, %edi
	movslq	%edi, %rcx
	addl	(%rsi,%rcx,4), %edx
	imull	%edx, %eax
	sarl	$16, %eax
	movl	%eax, -48(%rbp)
	movl	-68(%rbp), %edi
	movl	-64(%rbp), %esi
	movl	-60(%rbp), %edx
	movl	-56(%rbp), %ecx
	movl	-28(%rbp), %r8d
	movl	-24(%rbp), %r9d
	movq	-88(%rbp), %rax
	movq	-128(%rbp), %rbx
	movl	-48(%rbp), %r10d
	movl	64(%rbp), %r11d
	movl	72(%rbp), %r14d
	movq	%rax, (%rsp)
	movq	%rbx, 8(%rsp)
	movl	%r10d, 16(%rsp)
	movl	%r11d, 24(%rsp)
	movl	%r14d, 32(%rsp)
	callq	AddUpSADQuarter
	movl	%eax, -32(%rbp)
	movq	SearchState, %rax
	movslq	-20(%rbp), %rcx
	movq	(%rax,%rcx,8), %rax
	movslq	-20(%rbp), %rcx
	movb	$1, (%rax,%rcx)
	movl	-32(%rbp), %eax
	cmpl	64(%rbp), %eax
	jge	.LBB14_13
# %bb.12:                               # %if.then92
	movl	-32(%rbp), %eax
	movl	%eax, 64(%rbp)
	movl	-28(%rbp), %eax
	movl	%eax, -40(%rbp)
	movl	-24(%rbp), %eax
	movl	%eax, -36(%rbp)
.LBB14_13:                              # %if.end93
	jmp	.LBB14_15
.LBB14_14:                              # %if.else94
	movq	SearchState, %rax
	movslq	-20(%rbp), %rcx
	movq	(%rax,%rcx,8), %rax
	movslq	-20(%rbp), %rcx
	movb	$1, (%rax,%rcx)
	movq	32(%rbp), %rax
	movswl	(%rax), %eax
	movl	%eax, -40(%rbp)
	movq	40(%rbp), %rax
	movswl	(%rax), %eax
	movl	%eax, -36(%rbp)
.LBB14_15:                              # %if.end101
	cmpl	$0, -108(%rbp)
	jne	.LBB14_17
# %bb.16:                               # %lor.lhs.false
	cmpl	$0, -104(%rbp)
	je	.LBB14_20
.LBB14_17:                              # %if.then106
	movq	32(%rbp), %rax
	movswl	(%rax), %eax
	addl	-108(%rbp), %eax
	movl	%eax, -28(%rbp)
	movq	40(%rbp), %rax
	movswl	(%rax), %eax
	addl	-104(%rbp), %eax
	movl	%eax, -24(%rbp)
	movl	-72(%rbp), %eax
	movq	mvbits, %rdx
	movl	-28(%rbp), %esi
	movl	-44(%rbp), %ecx
                                        # kill: def $cl killed $ecx
	shll	%cl, %esi
	movswl	16(%rbp), %ecx
	subl	%ecx, %esi
	movslq	%esi, %rcx
	movl	(%rdx,%rcx,4), %edx
	movq	mvbits, %rsi
	movl	-24(%rbp), %edi
	movl	-44(%rbp), %ecx
                                        # kill: def $cl killed $ecx
	shll	%cl, %edi
	movswl	24(%rbp), %ecx
	subl	%ecx, %edi
	movslq	%edi, %rcx
	addl	(%rsi,%rcx,4), %edx
	imull	%edx, %eax
	sarl	$16, %eax
	movl	%eax, -48(%rbp)
	movl	-68(%rbp), %edi
	movl	-64(%rbp), %esi
	movl	-60(%rbp), %edx
	movl	-56(%rbp), %ecx
	movl	-28(%rbp), %r8d
	movl	-24(%rbp), %r9d
	movq	-88(%rbp), %rax
	movq	-128(%rbp), %rbx
	movl	-48(%rbp), %r10d
	movl	64(%rbp), %r11d
	movl	72(%rbp), %r14d
	movq	%rax, (%rsp)
	movq	%rbx, 8(%rsp)
	movl	%r10d, 16(%rsp)
	movl	%r11d, 24(%rsp)
	movl	%r14d, 32(%rsp)
	callq	AddUpSADQuarter
	movl	%eax, -32(%rbp)
	movq	SearchState, %rax
	movl	-24(%rbp), %ecx
	movq	40(%rbp), %rdx
	movswl	(%rdx), %edx
	subl	%edx, %ecx
	addl	-20(%rbp), %ecx
	movslq	%ecx, %rcx
	movq	(%rax,%rcx,8), %rax
	movl	-28(%rbp), %ecx
	movq	32(%rbp), %rdx
	movswl	(%rdx), %edx
	subl	%edx, %ecx
	addl	-20(%rbp), %ecx
	movslq	%ecx, %rcx
	movb	$1, (%rax,%rcx)
	movl	-32(%rbp), %eax
	cmpl	64(%rbp), %eax
	jge	.LBB14_19
# %bb.18:                               # %if.then137
	movl	-32(%rbp), %eax
	movl	%eax, 64(%rbp)
	movl	-28(%rbp), %eax
	movl	%eax, -40(%rbp)
	movl	-24(%rbp), %eax
	movl	%eax, -36(%rbp)
.LBB14_19:                              # %if.end138
	jmp	.LBB14_20
.LBB14_20:                              # %if.end139
	movl	-40(%rbp), %eax
	movl	%eax, -100(%rbp)
	movl	-36(%rbp), %eax
	movl	%eax, -116(%rbp)
	movl	-20(%rbp), %eax
	shll	$1, %eax
	addl	$1, %eax
	movl	%eax, -148(%rbp)
	movl	$0, -76(%rbp)
.LBB14_21:                              # %for.cond
                                        # =>This Loop Header: Depth=1
                                        #     Child Loop BB14_23 Depth 2
	movl	-76(%rbp), %eax
	cmpl	-148(%rbp), %eax
	jge	.LBB14_37
# %bb.22:                               # %for.body
                                        #   in Loop: Header=BB14_21 Depth=1
	movl	$1, -112(%rbp)
	movl	$65536, -164(%rbp)      # imm = 0x10000
	movl	$0, -52(%rbp)
.LBB14_23:                              # %for.cond144
                                        #   Parent Loop BB14_21 Depth=1
                                        # =>  This Inner Loop Header: Depth=2
	cmpl	$4, -52(%rbp)
	jge	.LBB14_33
# %bb.24:                               # %for.body147
                                        #   in Loop: Header=BB14_23 Depth=2
	movl	-100(%rbp), %eax
	movslq	-52(%rbp), %rcx
	addl	FastSubPelBlockMotionSearch.Diamond_x(,%rcx,4), %eax
	movl	%eax, -28(%rbp)
	movl	-116(%rbp), %eax
	movslq	-52(%rbp), %rcx
	addl	FastSubPelBlockMotionSearch.Diamond_y(,%rcx,4), %eax
	movl	%eax, -24(%rbp)
	movl	-28(%rbp), %edi
	movq	32(%rbp), %rax
	movswl	(%rax), %eax
	subl	%eax, %edi
	callq	abs
	cmpl	-20(%rbp), %eax
	jg	.LBB14_31
# %bb.25:                               # %land.lhs.true159
                                        #   in Loop: Header=BB14_23 Depth=2
	movl	-24(%rbp), %edi
	movq	40(%rbp), %rax
	movswl	(%rax), %eax
	subl	%eax, %edi
	callq	abs
	cmpl	-20(%rbp), %eax
	jg	.LBB14_31
# %bb.26:                               # %if.then165
                                        #   in Loop: Header=BB14_23 Depth=2
	movq	SearchState, %rax
	movl	-24(%rbp), %ecx
	movq	40(%rbp), %rdx
	movswl	(%rdx), %edx
	subl	%edx, %ecx
	addl	-20(%rbp), %ecx
	movslq	%ecx, %rcx
	movq	(%rax,%rcx,8), %rax
	movl	-28(%rbp), %ecx
	movq	32(%rbp), %rdx
	movswl	(%rdx), %edx
	subl	%edx, %ecx
	addl	-20(%rbp), %ecx
	movslq	%ecx, %rcx
	cmpb	$0, (%rax,%rcx)
	jne	.LBB14_30
# %bb.27:                               # %if.then177
                                        #   in Loop: Header=BB14_23 Depth=2
	movl	-72(%rbp), %eax
	movq	mvbits, %rdx
	movl	-28(%rbp), %esi
	movl	-44(%rbp), %ecx
                                        # kill: def $cl killed $ecx
	shll	%cl, %esi
	movswl	16(%rbp), %ecx
	subl	%ecx, %esi
	movslq	%esi, %rcx
	movl	(%rdx,%rcx,4), %edx
	movq	mvbits, %rsi
	movl	-24(%rbp), %edi
	movl	-44(%rbp), %ecx
                                        # kill: def $cl killed $ecx
	shll	%cl, %edi
	movswl	24(%rbp), %ecx
	subl	%ecx, %edi
	movslq	%edi, %rcx
	addl	(%rsi,%rcx,4), %edx
	imull	%edx, %eax
	sarl	$16, %eax
	movl	%eax, -48(%rbp)
	movl	-68(%rbp), %edi
	movl	-64(%rbp), %esi
	movl	-60(%rbp), %edx
	movl	-56(%rbp), %ecx
	movl	-28(%rbp), %r8d
	movl	-24(%rbp), %r9d
	movq	-88(%rbp), %rax
	movq	-128(%rbp), %rbx
	movl	-48(%rbp), %r10d
	movl	64(%rbp), %r11d
	movl	72(%rbp), %r14d
	movq	%rax, (%rsp)
	movq	%rbx, 8(%rsp)
	movl	%r10d, 16(%rsp)
	movl	%r11d, 24(%rsp)
	movl	%r14d, 32(%rsp)
	callq	AddUpSADQuarter
	movl	%eax, -32(%rbp)
	movq	SearchState, %rax
	movl	-24(%rbp), %ecx
	movq	40(%rbp), %rdx
	movswl	(%rdx), %edx
	subl	%edx, %ecx
	addl	-20(%rbp), %ecx
	movslq	%ecx, %rcx
	movq	(%rax,%rcx,8), %rax
	movl	-28(%rbp), %ecx
	movq	32(%rbp), %rdx
	movswl	(%rdx), %edx
	subl	%edx, %ecx
	addl	-20(%rbp), %ecx
	movslq	%ecx, %rcx
	movb	$1, (%rax,%rcx)
	movl	-32(%rbp), %eax
	cmpl	64(%rbp), %eax
	jge	.LBB14_29
# %bb.28:                               # %if.then204
                                        #   in Loop: Header=BB14_23 Depth=2
	movl	-32(%rbp), %eax
	movl	%eax, 64(%rbp)
	movl	-28(%rbp), %eax
	movl	%eax, -40(%rbp)
	movl	-24(%rbp), %eax
	movl	%eax, -36(%rbp)
	movl	$0, -112(%rbp)
.LBB14_29:                              # %if.end205
                                        #   in Loop: Header=BB14_23 Depth=2
	jmp	.LBB14_30
.LBB14_30:                              # %if.end206
                                        #   in Loop: Header=BB14_23 Depth=2
	jmp	.LBB14_31
.LBB14_31:                              # %if.end207
                                        #   in Loop: Header=BB14_23 Depth=2
	jmp	.LBB14_32
.LBB14_32:                              # %for.inc
                                        #   in Loop: Header=BB14_23 Depth=2
	movl	-52(%rbp), %eax
	addl	$1, %eax
	movl	%eax, -52(%rbp)
	jmp	.LBB14_23
.LBB14_33:                              # %for.end
                                        #   in Loop: Header=BB14_21 Depth=1
	movl	-40(%rbp), %eax
	movl	%eax, -100(%rbp)
	movl	-36(%rbp), %eax
	movl	%eax, -116(%rbp)
	cmpl	$0, -112(%rbp)
	je	.LBB14_35
# %bb.34:                               # %if.then209
	jmp	.LBB14_38
.LBB14_35:                              # %if.end210
                                        #   in Loop: Header=BB14_21 Depth=1
	jmp	.LBB14_36
.LBB14_36:                              # %for.inc211
                                        #   in Loop: Header=BB14_21 Depth=1
	movl	-76(%rbp), %eax
	addl	$1, %eax
	movl	%eax, -76(%rbp)
	jmp	.LBB14_21
.LBB14_37:                              # %for.end213.loopexit
	jmp	.LBB14_38
.LBB14_38:                              # %for.end213
	movl	-40(%rbp), %eax
	movq	32(%rbp), %rcx
	movw	%ax, (%rcx)
	movl	-36(%rbp), %eax
	movq	40(%rbp), %rcx
	movw	%ax, (%rcx)
	movl	64(%rbp), %ebx
	cmpl	$582042584, -140(%rbp)  # imm = 0x22B143D8
	jne	.LBB14_40
.LBB14_39:
	movl	%ebx, %eax
	addq	$208, %rsp
	popq	%rbx
	popq	%r14
	popq	%rbp
	.cfi_def_cfa %rsp, 8
	retq
.LBB14_40:                              # %func_exit
	.cfi_def_cfa %rbp, 16
	callq	detect_breach
	jmp	.LBB14_39
.Lfunc_end14:
	.size	FastSubPelBlockMotionSearch.1, .Lfunc_end14-FastSubPelBlockMotionSearch.1
	.cfi_endproc
                                        # -- End function
	.section	.rodata.cst4,"aM",@progbits,4
	.p2align	2               # -- Begin function DefineThresholdMB.2
.LCPI15_0:
	.long	1082130432              # float 4
.LCPI15_1:
	.long	1132462080              # float 256
.LCPI15_2:
	.long	1102284063              # float 22.4400005
	.text
	.globl	DefineThresholdMB.2
	.p2align	4, 0x90
	.type	DefineThresholdMB.2,@function
DefineThresholdMB.2:                    # @DefineThresholdMB.2
	.cfi_startproc
# %bb.0:                                # %entry
	pushq	%rbp
	.cfi_def_cfa_offset 16
	.cfi_offset %rbp, -16
	movq	%rsp, %rbp
	.cfi_def_cfa_register %rbp
	subq	$32, %rsp
	movl	$701219581, -16(%rbp)   # imm = 0x29CBC2FD
	movq	input, %rax
	movl	16(%rax), %eax
	subl	$0, %eax
	cltd
	movl	$6, %ecx
	idivl	%ecx
	movl	%eax, -12(%rbp)
	movq	input, %rax
	movl	16(%rax), %eax
	subl	$0, %eax
	cltd
	idivl	%ecx
	movl	%edx, -24(%rbp)
	movl	-12(%rbp), %eax
	addl	$15, %eax
	movl	%eax, -4(%rbp)
	movq	img, %rax
	cmpl	$2, 24(%rax)
	jne	.LBB15_2
# %bb.1:                                # %if.then
	movl	-4(%rbp), %ecx
                                        # kill: def $cl killed $ecx
	movl	$1, %eax
	shll	%cl, %eax
	cltd
	movl	$3, %ecx
	idivl	%ecx
	movl	%eax, -8(%rbp)
	jmp	.LBB15_3
.LBB15_2:                               # %if.else
	movl	-4(%rbp), %ecx
                                        # kill: def $cl killed $ecx
	movl	$1, %eax
	shll	%cl, %eax
	cltd
	movl	$6, %ecx
	idivl	%ecx
	movl	%eax, -8(%rbp)
.LBB15_3:                               # %if.end
	vmovss	.LCPI15_0(%rip), %xmm0  # xmm0 = mem[0],zero,zero,zero
	vmovss	.LCPI15_1(%rip), %xmm1  # xmm1 = mem[0],zero,zero,zero
	vmovss	.LCPI15_2(%rip), %xmm2  # xmm2 = mem[0],zero,zero,zero
	movl	-4(%rbp), %ecx
                                        # kill: def $cl killed $ecx
	movl	$1, %eax
	shll	%cl, %eax
	subl	-8(%rbp), %eax
	movslq	-24(%rbp), %rcx
	shlq	$6, %rcx
	movabsq	$quant_coef, %rsi
	addq	%rcx, %rsi
	cltd
	idivl	(%rsi)
	movl	%eax, -20(%rbp)
	vcvtsi2ssl	-20(%rbp), %xmm0, %xmm3
	vdivss	%xmm2, %xmm3, %xmm2
	vmovss	%xmm2, Quantize_step
	vmulss	Quantize_step, %xmm1, %xmm1
	vmovss	%xmm1, Bsize+28
	vmulss	Bsize+28, %xmm0, %xmm1
	vmovss	%xmm1, Bsize+24
	vmulss	Bsize+28, %xmm0, %xmm1
	vmovss	%xmm1, Bsize+20
	vmulss	Bsize+20, %xmm0, %xmm1
	vmovss	%xmm1, Bsize+16
	vmulss	Bsize+16, %xmm0, %xmm1
	vmovss	%xmm1, Bsize+12
	vmulss	Bsize+16, %xmm0, %xmm1
	vmovss	%xmm1, Bsize+8
	vmulss	Bsize+8, %xmm0, %xmm0
	vmovss	%xmm0, Bsize+4
	cmpl	$701219581, -16(%rbp)   # imm = 0x29CBC2FD
	jne	.LBB15_5
.LBB15_4:
	addq	$32, %rsp
	popq	%rbp
	.cfi_def_cfa %rsp, 8
	retq
.LBB15_5:                               # %func_exit
	.cfi_def_cfa %rbp, 16
	callq	detect_breach
	jmp	.LBB15_4
.Lfunc_end15:
	.size	DefineThresholdMB.2, .Lfunc_end15-DefineThresholdMB.2
	.cfi_endproc
                                        # -- End function
	.globl	free_mem_bwmincost.3    # -- Begin function free_mem_bwmincost.3
	.p2align	4, 0x90
	.type	free_mem_bwmincost.3,@function
free_mem_bwmincost.3:                   # @free_mem_bwmincost.3
	.cfi_startproc
# %bb.0:                                # %entry
	pushq	%rbp
	.cfi_def_cfa_offset 16
	.cfi_offset %rbp, -16
	movq	%rsp, %rbp
	.cfi_def_cfa_register %rbp
	subq	$32, %rsp
	movl	$864470835, -28(%rbp)   # imm = 0x3386C733
	movq	%rdi, -24(%rbp)
	movl	$0, -4(%rbp)
.LBB16_1:                               # %for.cond
                                        # =>This Loop Header: Depth=1
                                        #     Child Loop BB16_3 Depth 2
                                        #       Child Loop BB16_5 Depth 3
                                        #         Child Loop BB16_7 Depth 4
	movl	-4(%rbp), %ecx
	movq	img, %rax
	movl	52(%rax), %eax
	cltd
	movl	$4, %esi
	idivl	%esi
	cmpl	%eax, %ecx
	jge	.LBB16_16
# %bb.2:                                # %for.body
                                        #   in Loop: Header=BB16_1 Depth=1
	movl	$0, -8(%rbp)
.LBB16_3:                               # %for.cond1
                                        #   Parent Loop BB16_1 Depth=1
                                        # =>  This Loop Header: Depth=2
                                        #       Child Loop BB16_5 Depth 3
                                        #         Child Loop BB16_7 Depth 4
	movl	-8(%rbp), %ecx
	movq	img, %rax
	movl	60(%rax), %eax
	cltd
	movl	$4, %esi
	idivl	%esi
	cmpl	%eax, %ecx
	jge	.LBB16_14
# %bb.4:                                # %for.body4
                                        #   in Loop: Header=BB16_3 Depth=2
	movl	$0, -12(%rbp)
.LBB16_5:                               # %for.cond5
                                        #   Parent Loop BB16_1 Depth=1
                                        #     Parent Loop BB16_3 Depth=2
                                        # =>    This Loop Header: Depth=3
                                        #         Child Loop BB16_7 Depth 4
	movl	-12(%rbp), %eax
	movq	img, %rcx
	cmpl	36(%rcx), %eax
	jge	.LBB16_12
# %bb.6:                                # %for.body7
                                        #   in Loop: Header=BB16_5 Depth=3
	movl	$0, -16(%rbp)
.LBB16_7:                               # %for.cond8
                                        #   Parent Loop BB16_1 Depth=1
                                        #     Parent Loop BB16_3 Depth=2
                                        #       Parent Loop BB16_5 Depth=3
                                        # =>      This Inner Loop Header: Depth=4
	cmpl	$9, -16(%rbp)
	jge	.LBB16_10
# %bb.8:                                # %for.body10
                                        #   in Loop: Header=BB16_7 Depth=4
	movq	-24(%rbp), %rax
	movslq	-4(%rbp), %rcx
	movq	(%rax,%rcx,8), %rax
	movslq	-8(%rbp), %rcx
	movq	(%rax,%rcx,8), %rax
	movslq	-12(%rbp), %rcx
	movq	(%rax,%rcx,8), %rax
	movslq	-16(%rbp), %rcx
	movq	(%rax,%rcx,8), %rdi
	callq	free
# %bb.9:                                # %for.inc
                                        #   in Loop: Header=BB16_7 Depth=4
	movl	-16(%rbp), %eax
	addl	$1, %eax
	movl	%eax, -16(%rbp)
	jmp	.LBB16_7
.LBB16_10:                              # %for.end
                                        #   in Loop: Header=BB16_5 Depth=3
	movq	-24(%rbp), %rax
	movslq	-4(%rbp), %rcx
	movq	(%rax,%rcx,8), %rax
	movslq	-8(%rbp), %rcx
	movq	(%rax,%rcx,8), %rax
	movslq	-12(%rbp), %rcx
	movq	(%rax,%rcx,8), %rdi
	callq	free
# %bb.11:                               # %for.inc23
                                        #   in Loop: Header=BB16_5 Depth=3
	movl	-12(%rbp), %eax
	addl	$1, %eax
	movl	%eax, -12(%rbp)
	jmp	.LBB16_5
.LBB16_12:                              # %for.end25
                                        #   in Loop: Header=BB16_3 Depth=2
	movq	-24(%rbp), %rax
	movslq	-4(%rbp), %rcx
	movq	(%rax,%rcx,8), %rax
	movslq	-8(%rbp), %rcx
	movq	(%rax,%rcx,8), %rdi
	callq	free
# %bb.13:                               # %for.inc30
                                        #   in Loop: Header=BB16_3 Depth=2
	movl	-8(%rbp), %eax
	addl	$1, %eax
	movl	%eax, -8(%rbp)
	jmp	.LBB16_3
.LBB16_14:                              # %for.end32
                                        #   in Loop: Header=BB16_1 Depth=1
	movq	-24(%rbp), %rax
	movslq	-4(%rbp), %rcx
	movq	(%rax,%rcx,8), %rdi
	callq	free
# %bb.15:                               # %for.inc35
                                        #   in Loop: Header=BB16_1 Depth=1
	movl	-4(%rbp), %eax
	addl	$1, %eax
	movl	%eax, -4(%rbp)
	jmp	.LBB16_1
.LBB16_16:                              # %for.end37
	movq	-24(%rbp), %rdi
	callq	free
	cmpl	$864470835, -28(%rbp)   # imm = 0x3386C733
	jne	.LBB16_18
.LBB16_17:
	addq	$32, %rsp
	popq	%rbp
	.cfi_def_cfa %rsp, 8
	retq
.LBB16_18:                              # %func_exit
	.cfi_def_cfa %rbp, 16
	callq	detect_breach
	jmp	.LBB16_17
.Lfunc_end16:
	.size	free_mem_bwmincost.3, .Lfunc_end16-free_mem_bwmincost.3
	.cfi_endproc
                                        # -- End function
	.section	.rodata.cst8,"aM",@progbits,8
	.p2align	3               # -- Begin function FastSubPelBlockMotionSearch.4
.LCPI17_0:
	.quad	4602678819172646912     # double 0.5
.LCPI17_1:
	.quad	4679240012837945344     # double 65536
	.text
	.globl	FastSubPelBlockMotionSearch.4
	.p2align	4, 0x90
	.type	FastSubPelBlockMotionSearch.4,@function
FastSubPelBlockMotionSearch.4:          # @FastSubPelBlockMotionSearch.4
	.cfi_startproc
# %bb.0:                                # %entry
	pushq	%rbp
	.cfi_def_cfa_offset 16
	.cfi_offset %rbp, -16
	movq	%rsp, %rbp
	.cfi_def_cfa_register %rbp
	pushq	%r14
	pushq	%rbx
	subq	$208, %rsp
	.cfi_offset %rbx, -32
	.cfi_offset %r14, -24
	movl	72(%rbp), %eax
	movl	64(%rbp), %eax
	movl	56(%rbp), %eax
	movl	48(%rbp), %eax
	movq	40(%rbp), %rax
	movq	32(%rbp), %rax
	movw	24(%rbp), %ax
	movw	16(%rbp), %ax
	movl	$517138756, -148(%rbp)  # imm = 0x1ED2E944
	movq	%rdi, -128(%rbp)
	movw	%si, -78(%rbp)
	movl	%edx, -140(%rbp)
	movl	%ecx, -68(%rbp)
	movl	%r8d, -56(%rbp)
	movl	%r9d, -104(%rbp)
	vmovsd	%xmm0, -160(%rbp)
	movq	img, %rax
	cmpl	$0, 72400(%rax)
	je	.LBB17_3
# %bb.1:                                # %land.lhs.true
	movq	img, %rax
	movq	14168(%rax), %rax
	movq	img, %rcx
	movslq	12(%rcx), %rcx
	imulq	$632, %rcx, %rcx        # imm = 0x278
	addq	%rcx, %rax
	cmpl	$0, 532(%rax)
	je	.LBB17_3
# %bb.2:                                # %cond.true
	movq	img, %rax
	movl	12(%rax), %eax
	cltd
	movl	$2, %ecx
	idivl	%ecx
	cmpl	$0, %edx
	movl	$4, %eax
	cmovnel	%eax, %ecx
	jmp	.LBB17_4
.LBB17_3:                               # %cond.false
	xorl	%ecx, %ecx
	jmp	.LBB17_4
.LBB17_4:                               # %cond.end
	vmovsd	.LCPI17_0(%rip), %xmm0  # xmm0 = mem[0],zero
	vmovsd	.LCPI17_1(%rip), %xmm1  # xmm1 = mem[0],zero
	movl	%ecx, -152(%rbp)
	movl	-140(%rbp), %eax
	addl	-152(%rbp), %eax
	cltq
	movq	listX(,%rax,8), %rax
	movswq	-78(%rbp), %rcx
	movq	(%rax,%rcx,8), %rax
	movq	%rax, -88(%rbp)
	vmulsd	-160(%rbp), %xmm1, %xmm1
	vaddsd	%xmm0, %xmm1, %xmm0
	vcvttsd2si	%xmm0, %eax
	movl	%eax, -76(%rbp)
	movl	$0, -44(%rbp)
	movq	input, %rax
	movslq	-104(%rbp), %rcx
	movl	80(%rax,%rcx,8), %eax
	movl	%eax, -64(%rbp)
	movq	input, %rax
	movslq	-104(%rbp), %rcx
	movl	84(%rax,%rcx,8), %eax
	movl	%eax, -60(%rbp)
	movl	-68(%rbp), %eax
	shll	$2, %eax
	movl	%eax, -100(%rbp)
	movl	-56(%rbp), %eax
	shll	$2, %eax
	movl	%eax, -108(%rbp)
	movq	-88(%rbp), %rax
	movl	6392(%rax), %eax
	subl	-64(%rbp), %eax
	addl	$1, %eax
	shll	$2, %eax
	movl	%eax, -136(%rbp)
	movq	-88(%rbp), %rax
	movl	6396(%rax), %eax
	subl	-60(%rbp), %eax
	addl	$1, %eax
	shll	$2, %eax
	movl	%eax, -132(%rbp)
	movl	$0, -36(%rbp)
	movl	$0, -40(%rbp)
	movq	32(%rbp), %rax
	movswl	(%rax), %ecx
	shll	$2, %ecx
	movw	%cx, (%rax)
	movq	40(%rbp), %rax
	movswl	(%rax), %ecx
	shll	$2, %ecx
	movw	%cx, (%rax)
	movl	-100(%rbp), %eax
	movq	32(%rbp), %rcx
	movswl	(%rcx), %ecx
	addl	%ecx, %eax
	cmpl	$1, %eax
	jle	.LBB17_9
# %bb.5:                                # %land.lhs.true32
	movl	-100(%rbp), %eax
	movq	32(%rbp), %rcx
	movswl	(%rcx), %ecx
	addl	%ecx, %eax
	movl	-136(%rbp), %ecx
	subl	$2, %ecx
	cmpl	%ecx, %eax
	jge	.LBB17_9
# %bb.6:                                # %land.lhs.true38
	movl	-108(%rbp), %eax
	movq	40(%rbp), %rcx
	movswl	(%rcx), %ecx
	addl	%ecx, %eax
	cmpl	$1, %eax
	jle	.LBB17_9
# %bb.7:                                # %land.lhs.true43
	movl	-108(%rbp), %eax
	movq	40(%rbp), %rcx
	movswl	(%rcx), %ecx
	addl	%ecx, %eax
	movl	-132(%rbp), %ecx
	subl	$2, %ecx
	cmpl	%ecx, %eax
	jge	.LBB17_9
# %bb.8:                                # %if.then
	movabsq	$FastPelY_14, %rax
	movq	%rax, PelY_14
	jmp	.LBB17_10
.LBB17_9:                               # %if.else
	movabsq	$UMVPelY_14, %rax
	movq	%rax, PelY_14
.LBB17_10:                              # %if.end
	movl	$3, -28(%rbp)
	movswl	16(%rbp), %eax
	movq	32(%rbp), %rcx
	movswl	(%rcx), %ecx
	subl	%ecx, %eax
	cltd
	movl	$4, %ecx
	idivl	%ecx
	movl	%edx, -96(%rbp)
	movswl	24(%rbp), %eax
	movq	40(%rbp), %rdx
	movswl	(%rdx), %edx
	subl	%edx, %eax
	cltd
	idivl	%ecx
	movl	%edx, -120(%rbp)
	movl	pred_MV_uplayer, %eax
	movq	32(%rbp), %rdx
	movswl	(%rdx), %edx
	subl	%edx, %eax
	cltd
	idivl	%ecx
	movl	%edx, -172(%rbp)
	movl	pred_MV_uplayer+4, %eax
	movq	40(%rbp), %rdx
	movswl	(%rdx), %edx
	subl	%edx, %eax
	cltd
	idivl	%ecx
	movl	%edx, -168(%rbp)
	movq	SearchState, %rax
	movq	(%rax), %rdi
	movl	-28(%rbp), %eax
	shll	$1, %eax
	addl	$1, %eax
	movl	-28(%rbp), %ecx
	shll	$1, %ecx
	addl	$1, %ecx
	imull	%ecx, %eax
	movslq	%eax, %rdx
	xorl	%esi, %esi
	callq	memset
	movq	input, %rax
	cmpl	$0, 24(%rax)
	je	.LBB17_14
# %bb.11:                               # %if.then71
	movq	32(%rbp), %rax
	movswl	(%rax), %eax
	movl	%eax, -20(%rbp)
	movq	40(%rbp), %rax
	movswl	(%rax), %eax
	movl	%eax, -24(%rbp)
	movl	-76(%rbp), %eax
	movq	mvbits, %rdx
	movl	-20(%rbp), %esi
	movl	-44(%rbp), %ecx
                                        # kill: def $cl killed $ecx
	shll	%cl, %esi
	movswl	16(%rbp), %ecx
	subl	%ecx, %esi
	movslq	%esi, %rcx
	movl	(%rdx,%rcx,4), %edx
	movq	mvbits, %rsi
	movl	-24(%rbp), %edi
	movl	-44(%rbp), %ecx
                                        # kill: def $cl killed $ecx
	shll	%cl, %edi
	movswl	24(%rbp), %ecx
	subl	%ecx, %edi
	movslq	%edi, %rcx
	addl	(%rsi,%rcx,4), %edx
	imull	%edx, %eax
	sarl	$16, %eax
	movl	%eax, -48(%rbp)
	movl	-68(%rbp), %edi
	movl	-56(%rbp), %esi
	movl	-64(%rbp), %edx
	movl	-60(%rbp), %ecx
	movl	-20(%rbp), %r8d
	movl	-24(%rbp), %r9d
	movq	-88(%rbp), %rax
	movq	-128(%rbp), %rbx
	movl	-48(%rbp), %r10d
	movl	64(%rbp), %r11d
	movl	72(%rbp), %r14d
	movq	%rax, (%rsp)
	movq	%rbx, 8(%rsp)
	movl	%r10d, 16(%rsp)
	movl	%r11d, 24(%rsp)
	movl	%r14d, 32(%rsp)
	callq	AddUpSADQuarter
	movl	%eax, -32(%rbp)
	movq	SearchState, %rax
	movslq	-28(%rbp), %rcx
	movq	(%rax,%rcx,8), %rax
	movslq	-28(%rbp), %rcx
	movb	$1, (%rax,%rcx)
	movl	-32(%rbp), %eax
	cmpl	64(%rbp), %eax
	jge	.LBB17_13
# %bb.12:                               # %if.then92
	movl	-32(%rbp), %eax
	movl	%eax, 64(%rbp)
	movl	-20(%rbp), %eax
	movl	%eax, -36(%rbp)
	movl	-24(%rbp), %eax
	movl	%eax, -40(%rbp)
.LBB17_13:                              # %if.end93
	jmp	.LBB17_15
.LBB17_14:                              # %if.else94
	movq	SearchState, %rax
	movslq	-28(%rbp), %rcx
	movq	(%rax,%rcx,8), %rax
	movslq	-28(%rbp), %rcx
	movb	$1, (%rax,%rcx)
	movq	32(%rbp), %rax
	movswl	(%rax), %eax
	movl	%eax, -36(%rbp)
	movq	40(%rbp), %rax
	movswl	(%rax), %eax
	movl	%eax, -40(%rbp)
.LBB17_15:                              # %if.end101
	cmpl	$0, -96(%rbp)
	jne	.LBB17_17
# %bb.16:                               # %lor.lhs.false
	cmpl	$0, -120(%rbp)
	je	.LBB17_20
.LBB17_17:                              # %if.then106
	movq	32(%rbp), %rax
	movswl	(%rax), %eax
	addl	-96(%rbp), %eax
	movl	%eax, -20(%rbp)
	movq	40(%rbp), %rax
	movswl	(%rax), %eax
	addl	-120(%rbp), %eax
	movl	%eax, -24(%rbp)
	movl	-76(%rbp), %eax
	movq	mvbits, %rdx
	movl	-20(%rbp), %esi
	movl	-44(%rbp), %ecx
                                        # kill: def $cl killed $ecx
	shll	%cl, %esi
	movswl	16(%rbp), %ecx
	subl	%ecx, %esi
	movslq	%esi, %rcx
	movl	(%rdx,%rcx,4), %edx
	movq	mvbits, %rsi
	movl	-24(%rbp), %edi
	movl	-44(%rbp), %ecx
                                        # kill: def $cl killed $ecx
	shll	%cl, %edi
	movswl	24(%rbp), %ecx
	subl	%ecx, %edi
	movslq	%edi, %rcx
	addl	(%rsi,%rcx,4), %edx
	imull	%edx, %eax
	sarl	$16, %eax
	movl	%eax, -48(%rbp)
	movl	-68(%rbp), %edi
	movl	-56(%rbp), %esi
	movl	-64(%rbp), %edx
	movl	-60(%rbp), %ecx
	movl	-20(%rbp), %r8d
	movl	-24(%rbp), %r9d
	movq	-88(%rbp), %rax
	movq	-128(%rbp), %rbx
	movl	-48(%rbp), %r10d
	movl	64(%rbp), %r11d
	movl	72(%rbp), %r14d
	movq	%rax, (%rsp)
	movq	%rbx, 8(%rsp)
	movl	%r10d, 16(%rsp)
	movl	%r11d, 24(%rsp)
	movl	%r14d, 32(%rsp)
	callq	AddUpSADQuarter
	movl	%eax, -32(%rbp)
	movq	SearchState, %rax
	movl	-24(%rbp), %ecx
	movq	40(%rbp), %rdx
	movswl	(%rdx), %edx
	subl	%edx, %ecx
	addl	-28(%rbp), %ecx
	movslq	%ecx, %rcx
	movq	(%rax,%rcx,8), %rax
	movl	-20(%rbp), %ecx
	movq	32(%rbp), %rdx
	movswl	(%rdx), %edx
	subl	%edx, %ecx
	addl	-28(%rbp), %ecx
	movslq	%ecx, %rcx
	movb	$1, (%rax,%rcx)
	movl	-32(%rbp), %eax
	cmpl	64(%rbp), %eax
	jge	.LBB17_19
# %bb.18:                               # %if.then137
	movl	-32(%rbp), %eax
	movl	%eax, 64(%rbp)
	movl	-20(%rbp), %eax
	movl	%eax, -36(%rbp)
	movl	-24(%rbp), %eax
	movl	%eax, -40(%rbp)
.LBB17_19:                              # %if.end138
	jmp	.LBB17_20
.LBB17_20:                              # %if.end139
	movl	-36(%rbp), %eax
	movl	%eax, -112(%rbp)
	movl	-40(%rbp), %eax
	movl	%eax, -116(%rbp)
	movl	-28(%rbp), %eax
	shll	$1, %eax
	addl	$1, %eax
	movl	%eax, -144(%rbp)
	movl	$0, -72(%rbp)
.LBB17_21:                              # %for.cond
                                        # =>This Loop Header: Depth=1
                                        #     Child Loop BB17_23 Depth 2
	movl	-72(%rbp), %eax
	cmpl	-144(%rbp), %eax
	jge	.LBB17_37
# %bb.22:                               # %for.body
                                        #   in Loop: Header=BB17_21 Depth=1
	movl	$1, -92(%rbp)
	movl	$65536, -164(%rbp)      # imm = 0x10000
	movl	$0, -52(%rbp)
.LBB17_23:                              # %for.cond144
                                        #   Parent Loop BB17_21 Depth=1
                                        # =>  This Inner Loop Header: Depth=2
	cmpl	$4, -52(%rbp)
	jge	.LBB17_33
# %bb.24:                               # %for.body147
                                        #   in Loop: Header=BB17_23 Depth=2
	movl	-112(%rbp), %eax
	movslq	-52(%rbp), %rcx
	addl	FastSubPelBlockMotionSearch.Diamond_x(,%rcx,4), %eax
	movl	%eax, -20(%rbp)
	movl	-116(%rbp), %eax
	movslq	-52(%rbp), %rcx
	addl	FastSubPelBlockMotionSearch.Diamond_y(,%rcx,4), %eax
	movl	%eax, -24(%rbp)
	movl	-20(%rbp), %edi
	movq	32(%rbp), %rax
	movswl	(%rax), %eax
	subl	%eax, %edi
	callq	abs
	cmpl	-28(%rbp), %eax
	jg	.LBB17_31
# %bb.25:                               # %land.lhs.true159
                                        #   in Loop: Header=BB17_23 Depth=2
	movl	-24(%rbp), %edi
	movq	40(%rbp), %rax
	movswl	(%rax), %eax
	subl	%eax, %edi
	callq	abs
	cmpl	-28(%rbp), %eax
	jg	.LBB17_31
# %bb.26:                               # %if.then165
                                        #   in Loop: Header=BB17_23 Depth=2
	movq	SearchState, %rax
	movl	-24(%rbp), %ecx
	movq	40(%rbp), %rdx
	movswl	(%rdx), %edx
	subl	%edx, %ecx
	addl	-28(%rbp), %ecx
	movslq	%ecx, %rcx
	movq	(%rax,%rcx,8), %rax
	movl	-20(%rbp), %ecx
	movq	32(%rbp), %rdx
	movswl	(%rdx), %edx
	subl	%edx, %ecx
	addl	-28(%rbp), %ecx
	movslq	%ecx, %rcx
	cmpb	$0, (%rax,%rcx)
	jne	.LBB17_30
# %bb.27:                               # %if.then177
                                        #   in Loop: Header=BB17_23 Depth=2
	movl	-76(%rbp), %eax
	movq	mvbits, %rdx
	movl	-20(%rbp), %esi
	movl	-44(%rbp), %ecx
                                        # kill: def $cl killed $ecx
	shll	%cl, %esi
	movswl	16(%rbp), %ecx
	subl	%ecx, %esi
	movslq	%esi, %rcx
	movl	(%rdx,%rcx,4), %edx
	movq	mvbits, %rsi
	movl	-24(%rbp), %edi
	movl	-44(%rbp), %ecx
                                        # kill: def $cl killed $ecx
	shll	%cl, %edi
	movswl	24(%rbp), %ecx
	subl	%ecx, %edi
	movslq	%edi, %rcx
	addl	(%rsi,%rcx,4), %edx
	imull	%edx, %eax
	sarl	$16, %eax
	movl	%eax, -48(%rbp)
	movl	-68(%rbp), %edi
	movl	-56(%rbp), %esi
	movl	-64(%rbp), %edx
	movl	-60(%rbp), %ecx
	movl	-20(%rbp), %r8d
	movl	-24(%rbp), %r9d
	movq	-88(%rbp), %rax
	movq	-128(%rbp), %rbx
	movl	-48(%rbp), %r10d
	movl	64(%rbp), %r11d
	movl	72(%rbp), %r14d
	movq	%rax, (%rsp)
	movq	%rbx, 8(%rsp)
	movl	%r10d, 16(%rsp)
	movl	%r11d, 24(%rsp)
	movl	%r14d, 32(%rsp)
	callq	AddUpSADQuarter
	movl	%eax, -32(%rbp)
	movq	SearchState, %rax
	movl	-24(%rbp), %ecx
	movq	40(%rbp), %rdx
	movswl	(%rdx), %edx
	subl	%edx, %ecx
	addl	-28(%rbp), %ecx
	movslq	%ecx, %rcx
	movq	(%rax,%rcx,8), %rax
	movl	-20(%rbp), %ecx
	movq	32(%rbp), %rdx
	movswl	(%rdx), %edx
	subl	%edx, %ecx
	addl	-28(%rbp), %ecx
	movslq	%ecx, %rcx
	movb	$1, (%rax,%rcx)
	movl	-32(%rbp), %eax
	cmpl	64(%rbp), %eax
	jge	.LBB17_29
# %bb.28:                               # %if.then204
                                        #   in Loop: Header=BB17_23 Depth=2
	movl	-32(%rbp), %eax
	movl	%eax, 64(%rbp)
	movl	-20(%rbp), %eax
	movl	%eax, -36(%rbp)
	movl	-24(%rbp), %eax
	movl	%eax, -40(%rbp)
	movl	$0, -92(%rbp)
.LBB17_29:                              # %if.end205
                                        #   in Loop: Header=BB17_23 Depth=2
	jmp	.LBB17_30
.LBB17_30:                              # %if.end206
                                        #   in Loop: Header=BB17_23 Depth=2
	jmp	.LBB17_31
.LBB17_31:                              # %if.end207
                                        #   in Loop: Header=BB17_23 Depth=2
	jmp	.LBB17_32
.LBB17_32:                              # %for.inc
                                        #   in Loop: Header=BB17_23 Depth=2
	movl	-52(%rbp), %eax
	addl	$1, %eax
	movl	%eax, -52(%rbp)
	jmp	.LBB17_23
.LBB17_33:                              # %for.end
                                        #   in Loop: Header=BB17_21 Depth=1
	movl	-36(%rbp), %eax
	movl	%eax, -112(%rbp)
	movl	-40(%rbp), %eax
	movl	%eax, -116(%rbp)
	cmpl	$0, -92(%rbp)
	je	.LBB17_35
# %bb.34:                               # %if.then209
	jmp	.LBB17_38
.LBB17_35:                              # %if.end210
                                        #   in Loop: Header=BB17_21 Depth=1
	jmp	.LBB17_36
.LBB17_36:                              # %for.inc211
                                        #   in Loop: Header=BB17_21 Depth=1
	movl	-72(%rbp), %eax
	addl	$1, %eax
	movl	%eax, -72(%rbp)
	jmp	.LBB17_21
.LBB17_37:                              # %for.end213.loopexit
	jmp	.LBB17_38
.LBB17_38:                              # %for.end213
	movl	-36(%rbp), %eax
	movq	32(%rbp), %rcx
	movw	%ax, (%rcx)
	movl	-40(%rbp), %eax
	movq	40(%rbp), %rcx
	movw	%ax, (%rcx)
	movl	64(%rbp), %ebx
	cmpl	$517138756, -148(%rbp)  # imm = 0x1ED2E944
	jne	.LBB17_40
.LBB17_39:
	movl	%ebx, %eax
	addq	$208, %rsp
	popq	%rbx
	popq	%r14
	popq	%rbp
	.cfi_def_cfa %rsp, 8
	retq
.LBB17_40:                              # %func_exit
	.cfi_def_cfa %rbp, 16
	callq	detect_breach
	jmp	.LBB17_39
.Lfunc_end17:
	.size	FastSubPelBlockMotionSearch.4, .Lfunc_end17-FastSubPelBlockMotionSearch.4
	.cfi_endproc
                                        # -- End function
	.section	.rodata.cst8,"aM",@progbits,8
	.p2align	3               # -- Begin function FastSubPelBlockMotionSearch.5
.LCPI18_0:
	.quad	4602678819172646912     # double 0.5
.LCPI18_1:
	.quad	4679240012837945344     # double 65536
	.text
	.globl	FastSubPelBlockMotionSearch.5
	.p2align	4, 0x90
	.type	FastSubPelBlockMotionSearch.5,@function
FastSubPelBlockMotionSearch.5:          # @FastSubPelBlockMotionSearch.5
	.cfi_startproc
# %bb.0:                                # %entry
	pushq	%rbp
	.cfi_def_cfa_offset 16
	.cfi_offset %rbp, -16
	movq	%rsp, %rbp
	.cfi_def_cfa_register %rbp
	pushq	%r14
	pushq	%rbx
	subq	$208, %rsp
	.cfi_offset %rbx, -32
	.cfi_offset %r14, -24
	movl	72(%rbp), %eax
	movl	64(%rbp), %eax
	movl	56(%rbp), %eax
	movl	48(%rbp), %eax
	movq	40(%rbp), %rax
	movq	32(%rbp), %rax
	movw	24(%rbp), %ax
	movw	16(%rbp), %ax
	movl	$1861626639, -136(%rbp) # imm = 0x6EF62B0F
	movq	%rdi, -128(%rbp)
	movw	%si, -78(%rbp)
	movl	%edx, -144(%rbp)
	movl	%ecx, -60(%rbp)
	movl	%r8d, -64(%rbp)
	movl	%r9d, -112(%rbp)
	vmovsd	%xmm0, -160(%rbp)
	movq	img, %rax
	cmpl	$0, 72400(%rax)
	je	.LBB18_3
# %bb.1:                                # %land.lhs.true
	movq	img, %rax
	movq	14168(%rax), %rax
	movq	img, %rcx
	movslq	12(%rcx), %rcx
	imulq	$632, %rcx, %rcx        # imm = 0x278
	addq	%rcx, %rax
	cmpl	$0, 532(%rax)
	je	.LBB18_3
# %bb.2:                                # %cond.true
	movq	img, %rax
	movl	12(%rax), %eax
	cltd
	movl	$2, %ecx
	idivl	%ecx
	cmpl	$0, %edx
	movl	$4, %eax
	cmovnel	%eax, %ecx
	jmp	.LBB18_4
.LBB18_3:                               # %cond.false
	xorl	%ecx, %ecx
	jmp	.LBB18_4
.LBB18_4:                               # %cond.end
	vmovsd	.LCPI18_0(%rip), %xmm0  # xmm0 = mem[0],zero
	vmovsd	.LCPI18_1(%rip), %xmm1  # xmm1 = mem[0],zero
	movl	%ecx, -152(%rbp)
	movl	-144(%rbp), %eax
	addl	-152(%rbp), %eax
	cltq
	movq	listX(,%rax,8), %rax
	movswq	-78(%rbp), %rcx
	movq	(%rax,%rcx,8), %rax
	movq	%rax, -88(%rbp)
	vmulsd	-160(%rbp), %xmm1, %xmm1
	vaddsd	%xmm0, %xmm1, %xmm0
	vcvttsd2si	%xmm0, %eax
	movl	%eax, -76(%rbp)
	movl	$0, -44(%rbp)
	movq	input, %rax
	movslq	-112(%rbp), %rcx
	movl	80(%rax,%rcx,8), %eax
	movl	%eax, -56(%rbp)
	movq	input, %rax
	movslq	-112(%rbp), %rcx
	movl	84(%rax,%rcx,8), %eax
	movl	%eax, -68(%rbp)
	movl	-60(%rbp), %eax
	shll	$2, %eax
	movl	%eax, -120(%rbp)
	movl	-64(%rbp), %eax
	shll	$2, %eax
	movl	%eax, -96(%rbp)
	movq	-88(%rbp), %rax
	movl	6392(%rax), %eax
	subl	-56(%rbp), %eax
	addl	$1, %eax
	shll	$2, %eax
	movl	%eax, -140(%rbp)
	movq	-88(%rbp), %rax
	movl	6396(%rax), %eax
	subl	-68(%rbp), %eax
	addl	$1, %eax
	shll	$2, %eax
	movl	%eax, -132(%rbp)
	movl	$0, -36(%rbp)
	movl	$0, -40(%rbp)
	movq	32(%rbp), %rax
	movswl	(%rax), %ecx
	shll	$2, %ecx
	movw	%cx, (%rax)
	movq	40(%rbp), %rax
	movswl	(%rax), %ecx
	shll	$2, %ecx
	movw	%cx, (%rax)
	movl	-120(%rbp), %eax
	movq	32(%rbp), %rcx
	movswl	(%rcx), %ecx
	addl	%ecx, %eax
	cmpl	$1, %eax
	jle	.LBB18_9
# %bb.5:                                # %land.lhs.true32
	movl	-120(%rbp), %eax
	movq	32(%rbp), %rcx
	movswl	(%rcx), %ecx
	addl	%ecx, %eax
	movl	-140(%rbp), %ecx
	subl	$2, %ecx
	cmpl	%ecx, %eax
	jge	.LBB18_9
# %bb.6:                                # %land.lhs.true38
	movl	-96(%rbp), %eax
	movq	40(%rbp), %rcx
	movswl	(%rcx), %ecx
	addl	%ecx, %eax
	cmpl	$1, %eax
	jle	.LBB18_9
# %bb.7:                                # %land.lhs.true43
	movl	-96(%rbp), %eax
	movq	40(%rbp), %rcx
	movswl	(%rcx), %ecx
	addl	%ecx, %eax
	movl	-132(%rbp), %ecx
	subl	$2, %ecx
	cmpl	%ecx, %eax
	jge	.LBB18_9
# %bb.8:                                # %if.then
	movabsq	$FastPelY_14, %rax
	movq	%rax, PelY_14
	jmp	.LBB18_10
.LBB18_9:                               # %if.else
	movabsq	$UMVPelY_14, %rax
	movq	%rax, PelY_14
.LBB18_10:                              # %if.end
	movl	$3, -20(%rbp)
	movswl	16(%rbp), %eax
	movq	32(%rbp), %rcx
	movswl	(%rcx), %ecx
	subl	%ecx, %eax
	cltd
	movl	$4, %ecx
	idivl	%ecx
	movl	%edx, -108(%rbp)
	movswl	24(%rbp), %eax
	movq	40(%rbp), %rdx
	movswl	(%rdx), %edx
	subl	%edx, %eax
	cltd
	idivl	%ecx
	movl	%edx, -100(%rbp)
	movl	pred_MV_uplayer, %eax
	movq	32(%rbp), %rdx
	movswl	(%rdx), %edx
	subl	%edx, %eax
	cltd
	idivl	%ecx
	movl	%edx, -164(%rbp)
	movl	pred_MV_uplayer+4, %eax
	movq	40(%rbp), %rdx
	movswl	(%rdx), %edx
	subl	%edx, %eax
	cltd
	idivl	%ecx
	movl	%edx, -172(%rbp)
	movq	SearchState, %rax
	movq	(%rax), %rdi
	movl	-20(%rbp), %eax
	shll	$1, %eax
	addl	$1, %eax
	movl	-20(%rbp), %ecx
	shll	$1, %ecx
	addl	$1, %ecx
	imull	%ecx, %eax
	movslq	%eax, %rdx
	xorl	%esi, %esi
	callq	memset
	movq	input, %rax
	cmpl	$0, 24(%rax)
	je	.LBB18_14
# %bb.11:                               # %if.then71
	movq	32(%rbp), %rax
	movswl	(%rax), %eax
	movl	%eax, -28(%rbp)
	movq	40(%rbp), %rax
	movswl	(%rax), %eax
	movl	%eax, -24(%rbp)
	movl	-76(%rbp), %eax
	movq	mvbits, %rdx
	movl	-28(%rbp), %esi
	movl	-44(%rbp), %ecx
                                        # kill: def $cl killed $ecx
	shll	%cl, %esi
	movswl	16(%rbp), %ecx
	subl	%ecx, %esi
	movslq	%esi, %rcx
	movl	(%rdx,%rcx,4), %edx
	movq	mvbits, %rsi
	movl	-24(%rbp), %edi
	movl	-44(%rbp), %ecx
                                        # kill: def $cl killed $ecx
	shll	%cl, %edi
	movswl	24(%rbp), %ecx
	subl	%ecx, %edi
	movslq	%edi, %rcx
	addl	(%rsi,%rcx,4), %edx
	imull	%edx, %eax
	sarl	$16, %eax
	movl	%eax, -48(%rbp)
	movl	-60(%rbp), %edi
	movl	-64(%rbp), %esi
	movl	-56(%rbp), %edx
	movl	-68(%rbp), %ecx
	movl	-28(%rbp), %r8d
	movl	-24(%rbp), %r9d
	movq	-88(%rbp), %rax
	movq	-128(%rbp), %rbx
	movl	-48(%rbp), %r10d
	movl	64(%rbp), %r11d
	movl	72(%rbp), %r14d
	movq	%rax, (%rsp)
	movq	%rbx, 8(%rsp)
	movl	%r10d, 16(%rsp)
	movl	%r11d, 24(%rsp)
	movl	%r14d, 32(%rsp)
	callq	AddUpSADQuarter
	movl	%eax, -32(%rbp)
	movq	SearchState, %rax
	movslq	-20(%rbp), %rcx
	movq	(%rax,%rcx,8), %rax
	movslq	-20(%rbp), %rcx
	movb	$1, (%rax,%rcx)
	movl	-32(%rbp), %eax
	cmpl	64(%rbp), %eax
	jge	.LBB18_13
# %bb.12:                               # %if.then92
	movl	-32(%rbp), %eax
	movl	%eax, 64(%rbp)
	movl	-28(%rbp), %eax
	movl	%eax, -36(%rbp)
	movl	-24(%rbp), %eax
	movl	%eax, -40(%rbp)
.LBB18_13:                              # %if.end93
	jmp	.LBB18_15
.LBB18_14:                              # %if.else94
	movq	SearchState, %rax
	movslq	-20(%rbp), %rcx
	movq	(%rax,%rcx,8), %rax
	movslq	-20(%rbp), %rcx
	movb	$1, (%rax,%rcx)
	movq	32(%rbp), %rax
	movswl	(%rax), %eax
	movl	%eax, -36(%rbp)
	movq	40(%rbp), %rax
	movswl	(%rax), %eax
	movl	%eax, -40(%rbp)
.LBB18_15:                              # %if.end101
	cmpl	$0, -108(%rbp)
	jne	.LBB18_17
# %bb.16:                               # %lor.lhs.false
	cmpl	$0, -100(%rbp)
	je	.LBB18_20
.LBB18_17:                              # %if.then106
	movq	32(%rbp), %rax
	movswl	(%rax), %eax
	addl	-108(%rbp), %eax
	movl	%eax, -28(%rbp)
	movq	40(%rbp), %rax
	movswl	(%rax), %eax
	addl	-100(%rbp), %eax
	movl	%eax, -24(%rbp)
	movl	-76(%rbp), %eax
	movq	mvbits, %rdx
	movl	-28(%rbp), %esi
	movl	-44(%rbp), %ecx
                                        # kill: def $cl killed $ecx
	shll	%cl, %esi
	movswl	16(%rbp), %ecx
	subl	%ecx, %esi
	movslq	%esi, %rcx
	movl	(%rdx,%rcx,4), %edx
	movq	mvbits, %rsi
	movl	-24(%rbp), %edi
	movl	-44(%rbp), %ecx
                                        # kill: def $cl killed $ecx
	shll	%cl, %edi
	movswl	24(%rbp), %ecx
	subl	%ecx, %edi
	movslq	%edi, %rcx
	addl	(%rsi,%rcx,4), %edx
	imull	%edx, %eax
	sarl	$16, %eax
	movl	%eax, -48(%rbp)
	movl	-60(%rbp), %edi
	movl	-64(%rbp), %esi
	movl	-56(%rbp), %edx
	movl	-68(%rbp), %ecx
	movl	-28(%rbp), %r8d
	movl	-24(%rbp), %r9d
	movq	-88(%rbp), %rax
	movq	-128(%rbp), %rbx
	movl	-48(%rbp), %r10d
	movl	64(%rbp), %r11d
	movl	72(%rbp), %r14d
	movq	%rax, (%rsp)
	movq	%rbx, 8(%rsp)
	movl	%r10d, 16(%rsp)
	movl	%r11d, 24(%rsp)
	movl	%r14d, 32(%rsp)
	callq	AddUpSADQuarter
	movl	%eax, -32(%rbp)
	movq	SearchState, %rax
	movl	-24(%rbp), %ecx
	movq	40(%rbp), %rdx
	movswl	(%rdx), %edx
	subl	%edx, %ecx
	addl	-20(%rbp), %ecx
	movslq	%ecx, %rcx
	movq	(%rax,%rcx,8), %rax
	movl	-28(%rbp), %ecx
	movq	32(%rbp), %rdx
	movswl	(%rdx), %edx
	subl	%edx, %ecx
	addl	-20(%rbp), %ecx
	movslq	%ecx, %rcx
	movb	$1, (%rax,%rcx)
	movl	-32(%rbp), %eax
	cmpl	64(%rbp), %eax
	jge	.LBB18_19
# %bb.18:                               # %if.then137
	movl	-32(%rbp), %eax
	movl	%eax, 64(%rbp)
	movl	-28(%rbp), %eax
	movl	%eax, -36(%rbp)
	movl	-24(%rbp), %eax
	movl	%eax, -40(%rbp)
.LBB18_19:                              # %if.end138
	jmp	.LBB18_20
.LBB18_20:                              # %if.end139
	movl	-36(%rbp), %eax
	movl	%eax, -92(%rbp)
	movl	-40(%rbp), %eax
	movl	%eax, -116(%rbp)
	movl	-20(%rbp), %eax
	shll	$1, %eax
	addl	$1, %eax
	movl	%eax, -148(%rbp)
	movl	$0, -72(%rbp)
.LBB18_21:                              # %for.cond
                                        # =>This Loop Header: Depth=1
                                        #     Child Loop BB18_23 Depth 2
	movl	-72(%rbp), %eax
	cmpl	-148(%rbp), %eax
	jge	.LBB18_37
# %bb.22:                               # %for.body
                                        #   in Loop: Header=BB18_21 Depth=1
	movl	$1, -104(%rbp)
	movl	$65536, -168(%rbp)      # imm = 0x10000
	movl	$0, -52(%rbp)
.LBB18_23:                              # %for.cond144
                                        #   Parent Loop BB18_21 Depth=1
                                        # =>  This Inner Loop Header: Depth=2
	cmpl	$4, -52(%rbp)
	jge	.LBB18_33
# %bb.24:                               # %for.body147
                                        #   in Loop: Header=BB18_23 Depth=2
	movl	-92(%rbp), %eax
	movslq	-52(%rbp), %rcx
	addl	FastSubPelBlockMotionSearch.Diamond_x(,%rcx,4), %eax
	movl	%eax, -28(%rbp)
	movl	-116(%rbp), %eax
	movslq	-52(%rbp), %rcx
	addl	FastSubPelBlockMotionSearch.Diamond_y(,%rcx,4), %eax
	movl	%eax, -24(%rbp)
	movl	-28(%rbp), %edi
	movq	32(%rbp), %rax
	movswl	(%rax), %eax
	subl	%eax, %edi
	callq	abs
	cmpl	-20(%rbp), %eax
	jg	.LBB18_31
# %bb.25:                               # %land.lhs.true159
                                        #   in Loop: Header=BB18_23 Depth=2
	movl	-24(%rbp), %edi
	movq	40(%rbp), %rax
	movswl	(%rax), %eax
	subl	%eax, %edi
	callq	abs
	cmpl	-20(%rbp), %eax
	jg	.LBB18_31
# %bb.26:                               # %if.then165
                                        #   in Loop: Header=BB18_23 Depth=2
	movq	SearchState, %rax
	movl	-24(%rbp), %ecx
	movq	40(%rbp), %rdx
	movswl	(%rdx), %edx
	subl	%edx, %ecx
	addl	-20(%rbp), %ecx
	movslq	%ecx, %rcx
	movq	(%rax,%rcx,8), %rax
	movl	-28(%rbp), %ecx
	movq	32(%rbp), %rdx
	movswl	(%rdx), %edx
	subl	%edx, %ecx
	addl	-20(%rbp), %ecx
	movslq	%ecx, %rcx
	cmpb	$0, (%rax,%rcx)
	jne	.LBB18_30
# %bb.27:                               # %if.then177
                                        #   in Loop: Header=BB18_23 Depth=2
	movl	-76(%rbp), %eax
	movq	mvbits, %rdx
	movl	-28(%rbp), %esi
	movl	-44(%rbp), %ecx
                                        # kill: def $cl killed $ecx
	shll	%cl, %esi
	movswl	16(%rbp), %ecx
	subl	%ecx, %esi
	movslq	%esi, %rcx
	movl	(%rdx,%rcx,4), %edx
	movq	mvbits, %rsi
	movl	-24(%rbp), %edi
	movl	-44(%rbp), %ecx
                                        # kill: def $cl killed $ecx
	shll	%cl, %edi
	movswl	24(%rbp), %ecx
	subl	%ecx, %edi
	movslq	%edi, %rcx
	addl	(%rsi,%rcx,4), %edx
	imull	%edx, %eax
	sarl	$16, %eax
	movl	%eax, -48(%rbp)
	movl	-60(%rbp), %edi
	movl	-64(%rbp), %esi
	movl	-56(%rbp), %edx
	movl	-68(%rbp), %ecx
	movl	-28(%rbp), %r8d
	movl	-24(%rbp), %r9d
	movq	-88(%rbp), %rax
	movq	-128(%rbp), %rbx
	movl	-48(%rbp), %r10d
	movl	64(%rbp), %r11d
	movl	72(%rbp), %r14d
	movq	%rax, (%rsp)
	movq	%rbx, 8(%rsp)
	movl	%r10d, 16(%rsp)
	movl	%r11d, 24(%rsp)
	movl	%r14d, 32(%rsp)
	callq	AddUpSADQuarter
	movl	%eax, -32(%rbp)
	movq	SearchState, %rax
	movl	-24(%rbp), %ecx
	movq	40(%rbp), %rdx
	movswl	(%rdx), %edx
	subl	%edx, %ecx
	addl	-20(%rbp), %ecx
	movslq	%ecx, %rcx
	movq	(%rax,%rcx,8), %rax
	movl	-28(%rbp), %ecx
	movq	32(%rbp), %rdx
	movswl	(%rdx), %edx
	subl	%edx, %ecx
	addl	-20(%rbp), %ecx
	movslq	%ecx, %rcx
	movb	$1, (%rax,%rcx)
	movl	-32(%rbp), %eax
	cmpl	64(%rbp), %eax
	jge	.LBB18_29
# %bb.28:                               # %if.then204
                                        #   in Loop: Header=BB18_23 Depth=2
	movl	-32(%rbp), %eax
	movl	%eax, 64(%rbp)
	movl	-28(%rbp), %eax
	movl	%eax, -36(%rbp)
	movl	-24(%rbp), %eax
	movl	%eax, -40(%rbp)
	movl	$0, -104(%rbp)
.LBB18_29:                              # %if.end205
                                        #   in Loop: Header=BB18_23 Depth=2
	jmp	.LBB18_30
.LBB18_30:                              # %if.end206
                                        #   in Loop: Header=BB18_23 Depth=2
	jmp	.LBB18_31
.LBB18_31:                              # %if.end207
                                        #   in Loop: Header=BB18_23 Depth=2
	jmp	.LBB18_32
.LBB18_32:                              # %for.inc
                                        #   in Loop: Header=BB18_23 Depth=2
	movl	-52(%rbp), %eax
	addl	$1, %eax
	movl	%eax, -52(%rbp)
	jmp	.LBB18_23
.LBB18_33:                              # %for.end
                                        #   in Loop: Header=BB18_21 Depth=1
	movl	-36(%rbp), %eax
	movl	%eax, -92(%rbp)
	movl	-40(%rbp), %eax
	movl	%eax, -116(%rbp)
	cmpl	$0, -104(%rbp)
	je	.LBB18_35
# %bb.34:                               # %if.then209
	jmp	.LBB18_38
.LBB18_35:                              # %if.end210
                                        #   in Loop: Header=BB18_21 Depth=1
	jmp	.LBB18_36
.LBB18_36:                              # %for.inc211
                                        #   in Loop: Header=BB18_21 Depth=1
	movl	-72(%rbp), %eax
	addl	$1, %eax
	movl	%eax, -72(%rbp)
	jmp	.LBB18_21
.LBB18_37:                              # %for.end213.loopexit
	jmp	.LBB18_38
.LBB18_38:                              # %for.end213
	movl	-36(%rbp), %eax
	movq	32(%rbp), %rcx
	movw	%ax, (%rcx)
	movl	-40(%rbp), %eax
	movq	40(%rbp), %rcx
	movw	%ax, (%rcx)
	movl	64(%rbp), %ebx
	cmpl	$1861626639, -136(%rbp) # imm = 0x6EF62B0F
	jne	.LBB18_40
.LBB18_39:
	movl	%ebx, %eax
	addq	$208, %rsp
	popq	%rbx
	popq	%r14
	popq	%rbp
	.cfi_def_cfa %rsp, 8
	retq
.LBB18_40:                              # %func_exit
	.cfi_def_cfa %rbp, 16
	callq	detect_breach
	jmp	.LBB18_39
.Lfunc_end18:
	.size	FastSubPelBlockMotionSearch.5, .Lfunc_end18-FastSubPelBlockMotionSearch.5
	.cfi_endproc
                                        # -- End function
	.section	.rodata.cst4,"aM",@progbits,4
	.p2align	2               # -- Begin function DefineThresholdMB.6
.LCPI19_0:
	.long	1082130432              # float 4
.LCPI19_1:
	.long	1132462080              # float 256
.LCPI19_2:
	.long	1102284063              # float 22.4400005
	.text
	.globl	DefineThresholdMB.6
	.p2align	4, 0x90
	.type	DefineThresholdMB.6,@function
DefineThresholdMB.6:                    # @DefineThresholdMB.6
	.cfi_startproc
# %bb.0:                                # %entry
	pushq	%rbp
	.cfi_def_cfa_offset 16
	.cfi_offset %rbp, -16
	movq	%rsp, %rbp
	.cfi_def_cfa_register %rbp
	subq	$32, %rsp
	movl	$754299536, -24(%rbp)   # imm = 0x2CF5B290
	movq	input, %rax
	movl	16(%rax), %eax
	subl	$0, %eax
	cltd
	movl	$6, %ecx
	idivl	%ecx
	movl	%eax, -12(%rbp)
	movq	input, %rax
	movl	16(%rax), %eax
	subl	$0, %eax
	cltd
	idivl	%ecx
	movl	%edx, -20(%rbp)
	movl	-12(%rbp), %eax
	addl	$15, %eax
	movl	%eax, -4(%rbp)
	movq	img, %rax
	cmpl	$2, 24(%rax)
	jne	.LBB19_2
# %bb.1:                                # %if.then
	movl	-4(%rbp), %ecx
                                        # kill: def $cl killed $ecx
	movl	$1, %eax
	shll	%cl, %eax
	cltd
	movl	$3, %ecx
	idivl	%ecx
	movl	%eax, -8(%rbp)
	jmp	.LBB19_3
.LBB19_2:                               # %if.else
	movl	-4(%rbp), %ecx
                                        # kill: def $cl killed $ecx
	movl	$1, %eax
	shll	%cl, %eax
	cltd
	movl	$6, %ecx
	idivl	%ecx
	movl	%eax, -8(%rbp)
.LBB19_3:                               # %if.end
	vmovss	.LCPI19_0(%rip), %xmm0  # xmm0 = mem[0],zero,zero,zero
	vmovss	.LCPI19_1(%rip), %xmm1  # xmm1 = mem[0],zero,zero,zero
	vmovss	.LCPI19_2(%rip), %xmm2  # xmm2 = mem[0],zero,zero,zero
	movl	-4(%rbp), %ecx
                                        # kill: def $cl killed $ecx
	movl	$1, %eax
	shll	%cl, %eax
	subl	-8(%rbp), %eax
	movslq	-20(%rbp), %rcx
	shlq	$6, %rcx
	movabsq	$quant_coef, %rsi
	addq	%rcx, %rsi
	cltd
	idivl	(%rsi)
	movl	%eax, -16(%rbp)
	vcvtsi2ssl	-16(%rbp), %xmm0, %xmm3
	vdivss	%xmm2, %xmm3, %xmm2
	vmovss	%xmm2, Quantize_step
	vmulss	Quantize_step, %xmm1, %xmm1
	vmovss	%xmm1, Bsize+28
	vmulss	Bsize+28, %xmm0, %xmm1
	vmovss	%xmm1, Bsize+24
	vmulss	Bsize+28, %xmm0, %xmm1
	vmovss	%xmm1, Bsize+20
	vmulss	Bsize+20, %xmm0, %xmm1
	vmovss	%xmm1, Bsize+16
	vmulss	Bsize+16, %xmm0, %xmm1
	vmovss	%xmm1, Bsize+12
	vmulss	Bsize+16, %xmm0, %xmm1
	vmovss	%xmm1, Bsize+8
	vmulss	Bsize+8, %xmm0, %xmm0
	vmovss	%xmm0, Bsize+4
	cmpl	$754299536, -24(%rbp)   # imm = 0x2CF5B290
	jne	.LBB19_5
.LBB19_4:
	addq	$32, %rsp
	popq	%rbp
	.cfi_def_cfa %rsp, 8
	retq
.LBB19_5:                               # %func_exit
	.cfi_def_cfa %rbp, 16
	callq	detect_breach
	jmp	.LBB19_4
.Lfunc_end19:
	.size	DefineThresholdMB.6, .Lfunc_end19-DefineThresholdMB.6
	.cfi_endproc
                                        # -- End function
	.globl	skip_intrabk_SAD.7      # -- Begin function skip_intrabk_SAD.7
	.p2align	4, 0x90
	.type	skip_intrabk_SAD.7,@function
skip_intrabk_SAD.7:                     # @skip_intrabk_SAD.7
	.cfi_startproc
# %bb.0:                                # %entry
	pushq	%rbp
	.cfi_def_cfa_offset 16
	.cfi_offset %rbp, -16
	movq	%rsp, %rbp
	.cfi_def_cfa_register %rbp
	subq	$32, %rsp
	movl	$1002012579, -28(%rbp)  # imm = 0x3BB97FA3
	movl	%edi, -4(%rbp)
	movl	%esi, -24(%rbp)
	movq	img, %rax
	cmpl	$0, (%rax)
	jle	.LBB20_4
# %bb.1:                                # %if.then
	cmpl	$9, -4(%rbp)
	movb	$1, %al
	je	.LBB20_3
# %bb.2:                                # %lor.rhs
	cmpl	$10, -4(%rbp)
	sete	%al
.LBB20_3:                               # %lor.end
	xorl	%ecx, %ecx
	testb	$1, %al
	movl	$1, %eax
	cmovnel	%eax, %ecx
	movq	flag_intra, %rax
	movq	img, %rdx
	movl	152(%rdx), %edx
	sarl	$4, %edx
	movslq	%edx, %rdx
	movl	%ecx, (%rax,%rdx,4)
.LBB20_4:                               # %if.end
	movq	img, %rax
	cmpl	$0, 24(%rax)
	je	.LBB20_24
# %bb.5:                                # %land.lhs.true
	cmpl	$9, -4(%rbp)
	je	.LBB20_7
# %bb.6:                                # %lor.lhs.false
	cmpl	$10, -4(%rbp)
	jne	.LBB20_24
.LBB20_7:                               # %if.then6
	movl	$0, -16(%rbp)
.LBB20_8:                               # %for.cond
                                        # =>This Loop Header: Depth=1
                                        #     Child Loop BB20_10 Depth 2
                                        #       Child Loop BB20_12 Depth 3
                                        #         Child Loop BB20_14 Depth 4
	cmpl	$4, -16(%rbp)
	jge	.LBB20_23
# %bb.9:                                # %for.body
                                        #   in Loop: Header=BB20_8 Depth=1
	movl	$0, -20(%rbp)
.LBB20_10:                              # %for.cond8
                                        #   Parent Loop BB20_8 Depth=1
                                        # =>  This Loop Header: Depth=2
                                        #       Child Loop BB20_12 Depth 3
                                        #         Child Loop BB20_14 Depth 4
	cmpl	$4, -20(%rbp)
	jge	.LBB20_21
# %bb.11:                               # %for.body10
                                        #   in Loop: Header=BB20_10 Depth=2
	movl	$1, -12(%rbp)
.LBB20_12:                              # %for.cond11
                                        #   Parent Loop BB20_8 Depth=1
                                        #     Parent Loop BB20_10 Depth=2
                                        # =>    This Loop Header: Depth=3
                                        #         Child Loop BB20_14 Depth 4
	cmpl	$8, -12(%rbp)
	jge	.LBB20_19
# %bb.13:                               # %for.body13
                                        #   in Loop: Header=BB20_12 Depth=3
	movl	$0, -8(%rbp)
.LBB20_14:                              # %for.cond14
                                        #   Parent Loop BB20_8 Depth=1
                                        #     Parent Loop BB20_10 Depth=2
                                        #       Parent Loop BB20_12 Depth=3
                                        # =>      This Inner Loop Header: Depth=4
	movl	-8(%rbp), %eax
	cmpl	-24(%rbp), %eax
	jge	.LBB20_17
# %bb.15:                               # %for.body16
                                        #   in Loop: Header=BB20_14 Depth=4
	movq	all_mincost, %rax
	movq	img, %rcx
	movl	152(%rcx), %ecx
	sarl	$2, %ecx
	addl	-16(%rbp), %ecx
	movslq	%ecx, %rcx
	movq	(%rax,%rcx,8), %rax
	movq	img, %rcx
	movl	156(%rcx), %ecx
	sarl	$2, %ecx
	addl	-20(%rbp), %ecx
	movslq	%ecx, %rcx
	movq	(%rax,%rcx,8), %rax
	movslq	-8(%rbp), %rcx
	movq	(%rax,%rcx,8), %rax
	movslq	-12(%rbp), %rcx
	movq	(%rax,%rcx,8), %rax
	movl	$0, (%rax)
# %bb.16:                               # %for.inc
                                        #   in Loop: Header=BB20_14 Depth=4
	movl	-8(%rbp), %eax
	addl	$1, %eax
	movl	%eax, -8(%rbp)
	jmp	.LBB20_14
.LBB20_17:                              # %for.end
                                        #   in Loop: Header=BB20_12 Depth=3
	jmp	.LBB20_18
.LBB20_18:                              # %for.inc30
                                        #   in Loop: Header=BB20_12 Depth=3
	movl	-12(%rbp), %eax
	addl	$1, %eax
	movl	%eax, -12(%rbp)
	jmp	.LBB20_12
.LBB20_19:                              # %for.end32
                                        #   in Loop: Header=BB20_10 Depth=2
	jmp	.LBB20_20
.LBB20_20:                              # %for.inc33
                                        #   in Loop: Header=BB20_10 Depth=2
	movl	-20(%rbp), %eax
	addl	$1, %eax
	movl	%eax, -20(%rbp)
	jmp	.LBB20_10
.LBB20_21:                              # %for.end35
                                        #   in Loop: Header=BB20_8 Depth=1
	jmp	.LBB20_22
.LBB20_22:                              # %for.inc36
                                        #   in Loop: Header=BB20_8 Depth=1
	movl	-16(%rbp), %eax
	addl	$1, %eax
	movl	%eax, -16(%rbp)
	jmp	.LBB20_8
.LBB20_23:                              # %for.end38
	jmp	.LBB20_24
.LBB20_24:                              # %if.end39
	cmpl	$1002012579, -28(%rbp)  # imm = 0x3BB97FA3
	jne	.LBB20_26
.LBB20_25:
	addq	$32, %rsp
	popq	%rbp
	.cfi_def_cfa %rsp, 8
	retq
.LBB20_26:                              # %func_exit
	.cfi_def_cfa %rbp, 16
	callq	detect_breach
	jmp	.LBB20_25
.Lfunc_end20:
	.size	skip_intrabk_SAD.7, .Lfunc_end20-skip_intrabk_SAD.7
	.cfi_endproc
                                        # -- End function
	.globl	get_mem_mincost.8       # -- Begin function get_mem_mincost.8
	.p2align	4, 0x90
	.type	get_mem_mincost.8,@function
get_mem_mincost.8:                      # @get_mem_mincost.8
	.cfi_startproc
# %bb.0:                                # %entry
	pushq	%rbp
	.cfi_def_cfa_offset 16
	.cfi_offset %rbp, -16
	movq	%rsp, %rbp
	.cfi_def_cfa_register %rbp
	pushq	%rbx
	subq	$40, %rsp
	.cfi_offset %rbx, -24
	movl	$1064046974, -36(%rbp)  # imm = 0x3F6C117E
	movq	%rdi, -32(%rbp)
	movq	img, %rax
	movl	52(%rax), %eax
	cltd
	movl	$4, %ecx
	idivl	%ecx
	movslq	%eax, %rdi
	movl	$8, %esi
	callq	calloc
	movq	-32(%rbp), %rcx
	movq	%rax, (%rcx)
	cmpq	$0, %rax
	jne	.LBB21_2
# %bb.1:                                # %if.then
	movabsq	$.L.str, %rdi
	callq	no_mem_exit
.LBB21_2:                               # %if.end
	movl	$0, -12(%rbp)
.LBB21_3:                               # %for.cond
                                        # =>This Loop Header: Depth=1
                                        #     Child Loop BB21_7 Depth 2
                                        #       Child Loop BB21_11 Depth 3
                                        #         Child Loop BB21_15 Depth 4
	movl	-12(%rbp), %ecx
	movq	img, %rax
	movl	52(%rax), %eax
	cltd
	movl	$4, %esi
	idivl	%esi
	cmpl	%eax, %ecx
	jge	.LBB21_26
# %bb.4:                                # %for.body
                                        #   in Loop: Header=BB21_3 Depth=1
	movq	img, %rax
	movl	60(%rax), %eax
	cltd
	movl	$4, %ecx
	idivl	%ecx
	movslq	%eax, %rdi
	movl	$8, %esi
	callq	calloc
	movq	-32(%rbp), %rcx
	movq	(%rcx), %rcx
	movslq	-12(%rbp), %rdx
	movq	%rax, (%rcx,%rdx,8)
	cmpq	$0, %rax
	jne	.LBB21_6
# %bb.5:                                # %if.then11
                                        #   in Loop: Header=BB21_3 Depth=1
	movabsq	$.L.str, %rdi
	callq	no_mem_exit
.LBB21_6:                               # %if.end12
                                        #   in Loop: Header=BB21_3 Depth=1
	movl	$0, -16(%rbp)
.LBB21_7:                               # %for.cond13
                                        #   Parent Loop BB21_3 Depth=1
                                        # =>  This Loop Header: Depth=2
                                        #       Child Loop BB21_11 Depth 3
                                        #         Child Loop BB21_15 Depth 4
	movl	-16(%rbp), %ecx
	movq	img, %rax
	movl	60(%rax), %eax
	cltd
	movl	$4, %esi
	idivl	%esi
	cmpl	%eax, %ecx
	jge	.LBB21_24
# %bb.8:                                # %for.body18
                                        #   in Loop: Header=BB21_7 Depth=2
	movq	img, %rax
	movslq	36(%rax), %rdi
	movl	$8, %esi
	callq	calloc
	movq	-32(%rbp), %rcx
	movq	(%rcx), %rcx
	movslq	-12(%rbp), %rdx
	movq	(%rcx,%rdx,8), %rcx
	movslq	-16(%rbp), %rdx
	movq	%rax, (%rcx,%rdx,8)
	cmpq	$0, %rax
	jne	.LBB21_10
# %bb.9:                                # %if.then27
                                        #   in Loop: Header=BB21_7 Depth=2
	movabsq	$.L.str, %rdi
	callq	no_mem_exit
.LBB21_10:                              # %if.end28
                                        #   in Loop: Header=BB21_7 Depth=2
	movl	$0, -20(%rbp)
.LBB21_11:                              # %for.cond29
                                        #   Parent Loop BB21_3 Depth=1
                                        #     Parent Loop BB21_7 Depth=2
                                        # =>    This Loop Header: Depth=3
                                        #         Child Loop BB21_15 Depth 4
	movl	-20(%rbp), %eax
	movq	img, %rcx
	cmpl	36(%rcx), %eax
	jge	.LBB21_22
# %bb.12:                               # %for.body33
                                        #   in Loop: Header=BB21_11 Depth=3
	movl	$9, %edi
	movl	$8, %esi
	callq	calloc
	movq	-32(%rbp), %rcx
	movq	(%rcx), %rcx
	movslq	-12(%rbp), %rdx
	movq	(%rcx,%rdx,8), %rcx
	movslq	-16(%rbp), %rdx
	movq	(%rcx,%rdx,8), %rcx
	movslq	-20(%rbp), %rdx
	movq	%rax, (%rcx,%rdx,8)
	cmpq	$0, %rax
	jne	.LBB21_14
# %bb.13:                               # %if.then43
                                        #   in Loop: Header=BB21_11 Depth=3
	movabsq	$.L.str, %rdi
	callq	no_mem_exit
.LBB21_14:                              # %if.end44
                                        #   in Loop: Header=BB21_11 Depth=3
	movl	$0, -24(%rbp)
.LBB21_15:                              # %for.cond45
                                        #   Parent Loop BB21_3 Depth=1
                                        #     Parent Loop BB21_7 Depth=2
                                        #       Parent Loop BB21_11 Depth=3
                                        # =>      This Inner Loop Header: Depth=4
	cmpl	$9, -24(%rbp)
	jge	.LBB21_20
# %bb.16:                               # %for.body48
                                        #   in Loop: Header=BB21_15 Depth=4
	movl	$3, %edi
	movl	$4, %esi
	callq	calloc
	movq	-32(%rbp), %rcx
	movq	(%rcx), %rcx
	movslq	-12(%rbp), %rdx
	movq	(%rcx,%rdx,8), %rcx
	movslq	-16(%rbp), %rdx
	movq	(%rcx,%rdx,8), %rcx
	movslq	-20(%rbp), %rdx
	movq	(%rcx,%rdx,8), %rcx
	movslq	-24(%rbp), %rdx
	movq	%rax, (%rcx,%rdx,8)
	cmpq	$0, %rax
	jne	.LBB21_18
# %bb.17:                               # %if.then60
                                        #   in Loop: Header=BB21_15 Depth=4
	movabsq	$.L.str, %rdi
	callq	no_mem_exit
.LBB21_18:                              # %if.end61
                                        #   in Loop: Header=BB21_15 Depth=4
	jmp	.LBB21_19
.LBB21_19:                              # %for.inc
                                        #   in Loop: Header=BB21_15 Depth=4
	movl	-24(%rbp), %eax
	addl	$1, %eax
	movl	%eax, -24(%rbp)
	jmp	.LBB21_15
.LBB21_20:                              # %for.end
                                        #   in Loop: Header=BB21_11 Depth=3
	jmp	.LBB21_21
.LBB21_21:                              # %for.inc62
                                        #   in Loop: Header=BB21_11 Depth=3
	movl	-20(%rbp), %eax
	addl	$1, %eax
	movl	%eax, -20(%rbp)
	jmp	.LBB21_11
.LBB21_22:                              # %for.end64
                                        #   in Loop: Header=BB21_7 Depth=2
	jmp	.LBB21_23
.LBB21_23:                              # %for.inc65
                                        #   in Loop: Header=BB21_7 Depth=2
	movl	-16(%rbp), %eax
	addl	$1, %eax
	movl	%eax, -16(%rbp)
	jmp	.LBB21_7
.LBB21_24:                              # %for.end67
                                        #   in Loop: Header=BB21_3 Depth=1
	jmp	.LBB21_25
.LBB21_25:                              # %for.inc68
                                        #   in Loop: Header=BB21_3 Depth=1
	movl	-12(%rbp), %eax
	addl	$1, %eax
	movl	%eax, -12(%rbp)
	jmp	.LBB21_3
.LBB21_26:                              # %for.end70
	movq	img, %rax
	movl	52(%rax), %eax
	cltd
	movl	$4, %ecx
	idivl	%ecx
	movq	img, %rdx
	imull	60(%rdx), %eax
	cltd
	idivl	%ecx
	movq	img, %rcx
	imull	36(%rcx), %eax
	imull	$9, %eax, %eax
	imull	$3, %eax, %eax
	movslq	%eax, %rbx
	shlq	$2, %rbx
	cmpl	$1064046974, -36(%rbp)  # imm = 0x3F6C117E
	jne	.LBB21_28
.LBB21_27:
	movl	%ebx, %eax
	addq	$40, %rsp
	popq	%rbx
	popq	%rbp
	.cfi_def_cfa %rsp, 8
	retq
.LBB21_28:                              # %func_exit
	.cfi_def_cfa %rbp, 16
	callq	detect_breach
	jmp	.LBB21_27
.Lfunc_end21:
	.size	get_mem_mincost.8, .Lfunc_end21-get_mem_mincost.8
	.cfi_endproc
                                        # -- End function
	.globl	PartCalMad.9            # -- Begin function PartCalMad.9
	.p2align	4, 0x90
	.type	PartCalMad.9,@function
PartCalMad.9:                           # @PartCalMad.9
	.cfi_startproc
# %bb.0:                                # %entry
	pushq	%rbp
	.cfi_def_cfa_offset 16
	.cfi_offset %rbp, -16
	movq	%rsp, %rbp
	.cfi_def_cfa_register %rbp
	pushq	%rbx
	subq	$72, %rsp
	.cfi_offset %rbx, -24
	movl	40(%rbp), %eax
	movl	32(%rbp), %eax
	movl	24(%rbp), %eax
	movl	16(%rbp), %eax
	movl	$304589370, -56(%rbp)   # imm = 0x1227AA3A
	movq	%rdi, -72(%rbp)
	movq	%rsi, -64(%rbp)
	movq	%rdx, -80(%rbp)
	movl	%ecx, -44(%rbp)
	movl	%r8d, -40(%rbp)
	movl	%r9d, -48(%rbp)
	movq	img, %rax
	cmpl	$0, 72400(%rax)
	je	.LBB22_3
# %bb.1:                                # %land.lhs.true
	movq	img, %rax
	movq	14168(%rax), %rax
	movq	img, %rcx
	movslq	12(%rcx), %rcx
	imulq	$632, %rcx, %rcx        # imm = 0x278
	addq	%rcx, %rax
	cmpl	$0, 532(%rax)
	je	.LBB22_3
# %bb.2:                                # %cond.true
	movq	img, %rax
	movl	60(%rax), %eax
	cltd
	movl	$2, %ecx
	idivl	%ecx
	jmp	.LBB22_4
.LBB22_3:                               # %cond.false
	movq	img, %rax
	movl	60(%rax), %eax
.LBB22_4:                               # %cond.end
	movl	%eax, -52(%rbp)
	movl	$0, -12(%rbp)
.LBB22_5:                               # %for.cond
                                        # =>This Loop Header: Depth=1
                                        #     Child Loop BB22_7 Depth 2
	movl	-12(%rbp), %eax
	cmpl	-44(%rbp), %eax
	jge	.LBB22_14
# %bb.6:                                # %for.body
                                        #   in Loop: Header=BB22_5 Depth=1
	movq	-80(%rbp), %rax
	movl	-40(%rbp), %edi
	movq	-72(%rbp), %rsi
	movl	40(%rbp), %edx
	addl	-12(%rbp), %edx
	movl	32(%rbp), %ecx
	movl	-52(%rbp), %r8d
	movq	img, %rbx
	movl	52(%rbx), %r9d
	callq	*%rax
	movq	%rax, -24(%rbp)
	movq	-64(%rbp), %rax
	movslq	-12(%rbp), %rcx
	movq	(%rax,%rcx,8), %rax
	movq	%rax, -32(%rbp)
	movl	$0, -36(%rbp)
.LBB22_7:                               # %for.cond6
                                        #   Parent Loop BB22_5 Depth=1
                                        # =>  This Inner Loop Header: Depth=2
	movl	-36(%rbp), %eax
	cmpl	-48(%rbp), %eax
	jge	.LBB22_10
# %bb.8:                                # %for.body8
                                        #   in Loop: Header=BB22_7 Depth=2
	movq	byte_abs, %rax
	movq	-32(%rbp), %rcx
	movq	%rcx, %rdx
	addq	$2, %rdx
	movq	%rdx, -32(%rbp)
	movzwl	(%rcx), %ecx
	movq	-24(%rbp), %rdx
	movq	%rdx, %rsi
	addq	$2, %rsi
	movq	%rsi, -24(%rbp)
	movzwl	(%rdx), %edx
	subl	%edx, %ecx
	movslq	%ecx, %rcx
	movl	(%rax,%rcx,4), %eax
	addl	16(%rbp), %eax
	movl	%eax, 16(%rbp)
	movq	byte_abs, %rax
	movq	-32(%rbp), %rcx
	movq	%rcx, %rdx
	addq	$2, %rdx
	movq	%rdx, -32(%rbp)
	movzwl	(%rcx), %ecx
	movq	-24(%rbp), %rdx
	movq	%rdx, %rsi
	addq	$2, %rsi
	movq	%rsi, -24(%rbp)
	movzwl	(%rdx), %edx
	subl	%edx, %ecx
	movslq	%ecx, %rcx
	movl	(%rax,%rcx,4), %eax
	addl	16(%rbp), %eax
	movl	%eax, 16(%rbp)
	movq	byte_abs, %rax
	movq	-32(%rbp), %rcx
	movq	%rcx, %rdx
	addq	$2, %rdx
	movq	%rdx, -32(%rbp)
	movzwl	(%rcx), %ecx
	movq	-24(%rbp), %rdx
	movq	%rdx, %rsi
	addq	$2, %rsi
	movq	%rsi, -24(%rbp)
	movzwl	(%rdx), %edx
	subl	%edx, %ecx
	movslq	%ecx, %rcx
	movl	(%rax,%rcx,4), %eax
	addl	16(%rbp), %eax
	movl	%eax, 16(%rbp)
	movq	byte_abs, %rax
	movq	-32(%rbp), %rcx
	movq	%rcx, %rdx
	addq	$2, %rdx
	movq	%rdx, -32(%rbp)
	movzwl	(%rcx), %ecx
	movq	-24(%rbp), %rdx
	movq	%rdx, %rsi
	addq	$2, %rsi
	movq	%rsi, -24(%rbp)
	movzwl	(%rdx), %edx
	subl	%edx, %ecx
	movslq	%ecx, %rcx
	movl	(%rax,%rcx,4), %eax
	addl	16(%rbp), %eax
	movl	%eax, 16(%rbp)
# %bb.9:                                # %for.inc
                                        #   in Loop: Header=BB22_7 Depth=2
	movl	-36(%rbp), %eax
	addl	$1, %eax
	movl	%eax, -36(%rbp)
	jmp	.LBB22_7
.LBB22_10:                              # %for.end
                                        #   in Loop: Header=BB22_5 Depth=1
	movl	16(%rbp), %eax
	cmpl	24(%rbp), %eax
	jl	.LBB22_12
# %bb.11:                               # %if.then
	jmp	.LBB22_15
.LBB22_12:                              # %if.end
                                        #   in Loop: Header=BB22_5 Depth=1
	jmp	.LBB22_13
.LBB22_13:                              # %for.inc40
                                        #   in Loop: Header=BB22_5 Depth=1
	movl	-12(%rbp), %eax
	addl	$1, %eax
	movl	%eax, -12(%rbp)
	jmp	.LBB22_5
.LBB22_14:                              # %for.end42.loopexit
	jmp	.LBB22_15
.LBB22_15:                              # %for.end42
	movl	16(%rbp), %ebx
	cmpl	$304589370, -56(%rbp)   # imm = 0x1227AA3A
	jne	.LBB22_17
.LBB22_16:
	movl	%ebx, %eax
	addq	$72, %rsp
	popq	%rbx
	popq	%rbp
	.cfi_def_cfa %rsp, 8
	retq
.LBB22_17:                              # %func_exit
	.cfi_def_cfa %rbp, 16
	callq	detect_breach
	jmp	.LBB22_16
.Lfunc_end22:
	.size	PartCalMad.9, .Lfunc_end22-PartCalMad.9
	.cfi_endproc
                                        # -- End function
	.globl	free_mem_mincost.10     # -- Begin function free_mem_mincost.10
	.p2align	4, 0x90
	.type	free_mem_mincost.10,@function
free_mem_mincost.10:                    # @free_mem_mincost.10
	.cfi_startproc
# %bb.0:                                # %entry
	pushq	%rbp
	.cfi_def_cfa_offset 16
	.cfi_offset %rbp, -16
	movq	%rsp, %rbp
	.cfi_def_cfa_register %rbp
	subq	$32, %rsp
	movl	$667237719, -28(%rbp)   # imm = 0x27C53D57
	movq	%rdi, -24(%rbp)
	movl	$0, -4(%rbp)
.LBB23_1:                               # %for.cond
                                        # =>This Loop Header: Depth=1
                                        #     Child Loop BB23_3 Depth 2
                                        #       Child Loop BB23_5 Depth 3
                                        #         Child Loop BB23_7 Depth 4
	movl	-4(%rbp), %ecx
	movq	img, %rax
	movl	52(%rax), %eax
	cltd
	movl	$4, %esi
	idivl	%esi
	cmpl	%eax, %ecx
	jge	.LBB23_16
# %bb.2:                                # %for.body
                                        #   in Loop: Header=BB23_1 Depth=1
	movl	$0, -8(%rbp)
.LBB23_3:                               # %for.cond1
                                        #   Parent Loop BB23_1 Depth=1
                                        # =>  This Loop Header: Depth=2
                                        #       Child Loop BB23_5 Depth 3
                                        #         Child Loop BB23_7 Depth 4
	movl	-8(%rbp), %ecx
	movq	img, %rax
	movl	60(%rax), %eax
	cltd
	movl	$4, %esi
	idivl	%esi
	cmpl	%eax, %ecx
	jge	.LBB23_14
# %bb.4:                                # %for.body4
                                        #   in Loop: Header=BB23_3 Depth=2
	movl	$0, -12(%rbp)
.LBB23_5:                               # %for.cond5
                                        #   Parent Loop BB23_1 Depth=1
                                        #     Parent Loop BB23_3 Depth=2
                                        # =>    This Loop Header: Depth=3
                                        #         Child Loop BB23_7 Depth 4
	movl	-12(%rbp), %eax
	movq	img, %rcx
	cmpl	36(%rcx), %eax
	jge	.LBB23_12
# %bb.6:                                # %for.body7
                                        #   in Loop: Header=BB23_5 Depth=3
	movl	$0, -16(%rbp)
.LBB23_7:                               # %for.cond8
                                        #   Parent Loop BB23_1 Depth=1
                                        #     Parent Loop BB23_3 Depth=2
                                        #       Parent Loop BB23_5 Depth=3
                                        # =>      This Inner Loop Header: Depth=4
	cmpl	$9, -16(%rbp)
	jge	.LBB23_10
# %bb.8:                                # %for.body10
                                        #   in Loop: Header=BB23_7 Depth=4
	movq	-24(%rbp), %rax
	movslq	-4(%rbp), %rcx
	movq	(%rax,%rcx,8), %rax
	movslq	-8(%rbp), %rcx
	movq	(%rax,%rcx,8), %rax
	movslq	-12(%rbp), %rcx
	movq	(%rax,%rcx,8), %rax
	movslq	-16(%rbp), %rcx
	movq	(%rax,%rcx,8), %rdi
	callq	free
# %bb.9:                                # %for.inc
                                        #   in Loop: Header=BB23_7 Depth=4
	movl	-16(%rbp), %eax
	addl	$1, %eax
	movl	%eax, -16(%rbp)
	jmp	.LBB23_7
.LBB23_10:                              # %for.end
                                        #   in Loop: Header=BB23_5 Depth=3
	movq	-24(%rbp), %rax
	movslq	-4(%rbp), %rcx
	movq	(%rax,%rcx,8), %rax
	movslq	-8(%rbp), %rcx
	movq	(%rax,%rcx,8), %rax
	movslq	-12(%rbp), %rcx
	movq	(%rax,%rcx,8), %rdi
	callq	free
# %bb.11:                               # %for.inc23
                                        #   in Loop: Header=BB23_5 Depth=3
	movl	-12(%rbp), %eax
	addl	$1, %eax
	movl	%eax, -12(%rbp)
	jmp	.LBB23_5
.LBB23_12:                              # %for.end25
                                        #   in Loop: Header=BB23_3 Depth=2
	movq	-24(%rbp), %rax
	movslq	-4(%rbp), %rcx
	movq	(%rax,%rcx,8), %rax
	movslq	-8(%rbp), %rcx
	movq	(%rax,%rcx,8), %rdi
	callq	free
# %bb.13:                               # %for.inc30
                                        #   in Loop: Header=BB23_3 Depth=2
	movl	-8(%rbp), %eax
	addl	$1, %eax
	movl	%eax, -8(%rbp)
	jmp	.LBB23_3
.LBB23_14:                              # %for.end32
                                        #   in Loop: Header=BB23_1 Depth=1
	movq	-24(%rbp), %rax
	movslq	-4(%rbp), %rcx
	movq	(%rax,%rcx,8), %rdi
	callq	free
# %bb.15:                               # %for.inc35
                                        #   in Loop: Header=BB23_1 Depth=1
	movl	-4(%rbp), %eax
	addl	$1, %eax
	movl	%eax, -4(%rbp)
	jmp	.LBB23_1
.LBB23_16:                              # %for.end37
	movq	-24(%rbp), %rdi
	callq	free
	cmpl	$667237719, -28(%rbp)   # imm = 0x27C53D57
	jne	.LBB23_18
.LBB23_17:
	addq	$32, %rsp
	popq	%rbp
	.cfi_def_cfa %rsp, 8
	retq
.LBB23_18:                              # %func_exit
	.cfi_def_cfa %rbp, 16
	callq	detect_breach
	jmp	.LBB23_17
.Lfunc_end23:
	.size	free_mem_mincost.10, .Lfunc_end23-free_mem_mincost.10
	.cfi_endproc
                                        # -- End function
	.globl	get_mem_bwmincost.11    # -- Begin function get_mem_bwmincost.11
	.p2align	4, 0x90
	.type	get_mem_bwmincost.11,@function
get_mem_bwmincost.11:                   # @get_mem_bwmincost.11
	.cfi_startproc
# %bb.0:                                # %entry
	pushq	%rbp
	.cfi_def_cfa_offset 16
	.cfi_offset %rbp, -16
	movq	%rsp, %rbp
	.cfi_def_cfa_register %rbp
	pushq	%rbx
	subq	$40, %rsp
	.cfi_offset %rbx, -24
	movl	$1653754699, -36(%rbp)  # imm = 0x62924B4B
	movq	%rdi, -32(%rbp)
	movq	img, %rax
	movl	52(%rax), %eax
	cltd
	movl	$4, %ecx
	idivl	%ecx
	movslq	%eax, %rdi
	movl	$8, %esi
	callq	calloc
	movq	-32(%rbp), %rcx
	movq	%rax, (%rcx)
	cmpq	$0, %rax
	jne	.LBB24_2
# %bb.1:                                # %if.then
	movabsq	$.L.str, %rdi
	callq	no_mem_exit
.LBB24_2:                               # %if.end
	movl	$0, -12(%rbp)
.LBB24_3:                               # %for.cond
                                        # =>This Loop Header: Depth=1
                                        #     Child Loop BB24_7 Depth 2
                                        #       Child Loop BB24_11 Depth 3
                                        #         Child Loop BB24_15 Depth 4
	movl	-12(%rbp), %ecx
	movq	img, %rax
	movl	52(%rax), %eax
	cltd
	movl	$4, %esi
	idivl	%esi
	cmpl	%eax, %ecx
	jge	.LBB24_26
# %bb.4:                                # %for.body
                                        #   in Loop: Header=BB24_3 Depth=1
	movq	img, %rax
	movl	60(%rax), %eax
	cltd
	movl	$4, %ecx
	idivl	%ecx
	movslq	%eax, %rdi
	movl	$8, %esi
	callq	calloc
	movq	-32(%rbp), %rcx
	movq	(%rcx), %rcx
	movslq	-12(%rbp), %rdx
	movq	%rax, (%rcx,%rdx,8)
	cmpq	$0, %rax
	jne	.LBB24_6
# %bb.5:                                # %if.then11
                                        #   in Loop: Header=BB24_3 Depth=1
	movabsq	$.L.str, %rdi
	callq	no_mem_exit
.LBB24_6:                               # %if.end12
                                        #   in Loop: Header=BB24_3 Depth=1
	movl	$0, -16(%rbp)
.LBB24_7:                               # %for.cond13
                                        #   Parent Loop BB24_3 Depth=1
                                        # =>  This Loop Header: Depth=2
                                        #       Child Loop BB24_11 Depth 3
                                        #         Child Loop BB24_15 Depth 4
	movl	-16(%rbp), %ecx
	movq	img, %rax
	movl	60(%rax), %eax
	cltd
	movl	$4, %esi
	idivl	%esi
	cmpl	%eax, %ecx
	jge	.LBB24_24
# %bb.8:                                # %for.body18
                                        #   in Loop: Header=BB24_7 Depth=2
	movq	img, %rax
	movslq	36(%rax), %rdi
	movl	$8, %esi
	callq	calloc
	movq	-32(%rbp), %rcx
	movq	(%rcx), %rcx
	movslq	-12(%rbp), %rdx
	movq	(%rcx,%rdx,8), %rcx
	movslq	-16(%rbp), %rdx
	movq	%rax, (%rcx,%rdx,8)
	cmpq	$0, %rax
	jne	.LBB24_10
# %bb.9:                                # %if.then27
                                        #   in Loop: Header=BB24_7 Depth=2
	movabsq	$.L.str, %rdi
	callq	no_mem_exit
.LBB24_10:                              # %if.end28
                                        #   in Loop: Header=BB24_7 Depth=2
	movl	$0, -20(%rbp)
.LBB24_11:                              # %for.cond29
                                        #   Parent Loop BB24_3 Depth=1
                                        #     Parent Loop BB24_7 Depth=2
                                        # =>    This Loop Header: Depth=3
                                        #         Child Loop BB24_15 Depth 4
	movl	-20(%rbp), %eax
	movq	img, %rcx
	cmpl	36(%rcx), %eax
	jge	.LBB24_22
# %bb.12:                               # %for.body33
                                        #   in Loop: Header=BB24_11 Depth=3
	movl	$9, %edi
	movl	$8, %esi
	callq	calloc
	movq	-32(%rbp), %rcx
	movq	(%rcx), %rcx
	movslq	-12(%rbp), %rdx
	movq	(%rcx,%rdx,8), %rcx
	movslq	-16(%rbp), %rdx
	movq	(%rcx,%rdx,8), %rcx
	movslq	-20(%rbp), %rdx
	movq	%rax, (%rcx,%rdx,8)
	cmpq	$0, %rax
	jne	.LBB24_14
# %bb.13:                               # %if.then43
                                        #   in Loop: Header=BB24_11 Depth=3
	movabsq	$.L.str, %rdi
	callq	no_mem_exit
.LBB24_14:                              # %if.end44
                                        #   in Loop: Header=BB24_11 Depth=3
	movl	$0, -24(%rbp)
.LBB24_15:                              # %for.cond45
                                        #   Parent Loop BB24_3 Depth=1
                                        #     Parent Loop BB24_7 Depth=2
                                        #       Parent Loop BB24_11 Depth=3
                                        # =>      This Inner Loop Header: Depth=4
	cmpl	$9, -24(%rbp)
	jge	.LBB24_20
# %bb.16:                               # %for.body48
                                        #   in Loop: Header=BB24_15 Depth=4
	movl	$3, %edi
	movl	$4, %esi
	callq	calloc
	movq	-32(%rbp), %rcx
	movq	(%rcx), %rcx
	movslq	-12(%rbp), %rdx
	movq	(%rcx,%rdx,8), %rcx
	movslq	-16(%rbp), %rdx
	movq	(%rcx,%rdx,8), %rcx
	movslq	-20(%rbp), %rdx
	movq	(%rcx,%rdx,8), %rcx
	movslq	-24(%rbp), %rdx
	movq	%rax, (%rcx,%rdx,8)
	cmpq	$0, %rax
	jne	.LBB24_18
# %bb.17:                               # %if.then60
                                        #   in Loop: Header=BB24_15 Depth=4
	movabsq	$.L.str, %rdi
	callq	no_mem_exit
.LBB24_18:                              # %if.end61
                                        #   in Loop: Header=BB24_15 Depth=4
	jmp	.LBB24_19
.LBB24_19:                              # %for.inc
                                        #   in Loop: Header=BB24_15 Depth=4
	movl	-24(%rbp), %eax
	addl	$1, %eax
	movl	%eax, -24(%rbp)
	jmp	.LBB24_15
.LBB24_20:                              # %for.end
                                        #   in Loop: Header=BB24_11 Depth=3
	jmp	.LBB24_21
.LBB24_21:                              # %for.inc62
                                        #   in Loop: Header=BB24_11 Depth=3
	movl	-20(%rbp), %eax
	addl	$1, %eax
	movl	%eax, -20(%rbp)
	jmp	.LBB24_11
.LBB24_22:                              # %for.end64
                                        #   in Loop: Header=BB24_7 Depth=2
	jmp	.LBB24_23
.LBB24_23:                              # %for.inc65
                                        #   in Loop: Header=BB24_7 Depth=2
	movl	-16(%rbp), %eax
	addl	$1, %eax
	movl	%eax, -16(%rbp)
	jmp	.LBB24_7
.LBB24_24:                              # %for.end67
                                        #   in Loop: Header=BB24_3 Depth=1
	jmp	.LBB24_25
.LBB24_25:                              # %for.inc68
                                        #   in Loop: Header=BB24_3 Depth=1
	movl	-12(%rbp), %eax
	addl	$1, %eax
	movl	%eax, -12(%rbp)
	jmp	.LBB24_3
.LBB24_26:                              # %for.end70
	movq	img, %rax
	movl	52(%rax), %eax
	cltd
	movl	$4, %ecx
	idivl	%ecx
	movq	img, %rdx
	imull	60(%rdx), %eax
	cltd
	idivl	%ecx
	movq	img, %rcx
	imull	36(%rcx), %eax
	imull	$9, %eax, %eax
	imull	$3, %eax, %eax
	movslq	%eax, %rbx
	shlq	$2, %rbx
	cmpl	$1653754699, -36(%rbp)  # imm = 0x62924B4B
	jne	.LBB24_28
.LBB24_27:
	movl	%ebx, %eax
	addq	$40, %rsp
	popq	%rbx
	popq	%rbp
	.cfi_def_cfa %rsp, 8
	retq
.LBB24_28:                              # %func_exit
	.cfi_def_cfa %rbp, 16
	callq	detect_breach
	jmp	.LBB24_27
.Lfunc_end24:
	.size	get_mem_bwmincost.11, .Lfunc_end24-get_mem_bwmincost.11
	.cfi_endproc
                                        # -- End function
	.section	.rodata.cst8,"aM",@progbits,8
	.p2align	3               # -- Begin function FastIntegerPelBlockMotionSearch.12
.LCPI25_0:
	.quad	4602678819172646912     # double 0.5
.LCPI25_1:
	.quad	4679240012837945344     # double 65536
	.text
	.globl	FastIntegerPelBlockMotionSearch.12
	.p2align	4, 0x90
	.type	FastIntegerPelBlockMotionSearch.12,@function
FastIntegerPelBlockMotionSearch.12:     # @FastIntegerPelBlockMotionSearch.12
	.cfi_startproc
# %bb.0:                                # %entry
	pushq	%rbp
	.cfi_def_cfa_offset 16
	.cfi_offset %rbp, -16
	movq	%rsp, %rbp
	.cfi_def_cfa_register %rbp
	pushq	%rbx
	subq	$200, %rsp
	.cfi_offset %rbx, -24
	movl	56(%rbp), %eax
	movl	48(%rbp), %eax
	movq	40(%rbp), %rax
	movq	32(%rbp), %rax
	movw	24(%rbp), %ax
	movw	16(%rbp), %ax
	movl	$1624804901, -148(%rbp) # imm = 0x60D88E25
	movq	%rdi, -120(%rbp)
	movw	%si, -46(%rbp)
	movl	%edx, -136(%rbp)
	movl	%ecx, -104(%rbp)
	movl	%r8d, -100(%rbp)
	movl	%r9d, -56(%rbp)
	vmovsd	%xmm0, -168(%rbp)
	movq	img, %rax
	cmpl	$0, 72400(%rax)
	je	.LBB25_3
# %bb.1:                                # %land.lhs.true
	movq	img, %rax
	movq	14168(%rax), %rax
	movq	img, %rcx
	movslq	12(%rcx), %rcx
	imulq	$632, %rcx, %rcx        # imm = 0x278
	addq	%rcx, %rax
	cmpl	$0, 532(%rax)
	je	.LBB25_3
# %bb.2:                                # %cond.true
	movq	img, %rax
	movl	12(%rax), %eax
	cltd
	movl	$2, %ecx
	idivl	%ecx
	cmpl	$0, %edx
	movl	$4, %eax
	cmovnel	%eax, %ecx
	jmp	.LBB25_4
.LBB25_3:                               # %cond.false
	xorl	%ecx, %ecx
	jmp	.LBB25_4
.LBB25_4:                               # %cond.end
	vmovsd	.LCPI25_0(%rip), %xmm0  # xmm0 = mem[0],zero
	vmovsd	.LCPI25_1(%rip), %xmm1  # xmm1 = mem[0],zero
	movl	%ecx, -152(%rbp)
	movl	-136(%rbp), %eax
	addl	-152(%rbp), %eax
	cltq
	movq	listX(,%rax,8), %rax
	movswq	-46(%rbp), %rcx
	movq	(%rax,%rcx,8), %rax
	movq	6432(%rax), %rax
	movq	%rax, -128(%rbp)
	vmulsd	-168(%rbp), %xmm1, %xmm1
	vaddsd	%xmm0, %xmm1, %xmm0
	vcvttsd2si	%xmm0, %eax
	movl	%eax, -96(%rbp)
	movl	$2, -32(%rbp)
	movq	input, %rax
	movslq	-56(%rbp), %rcx
	movl	84(%rax,%rcx,8), %eax
	movl	%eax, -80(%rbp)
	movq	input, %rax
	movslq	-56(%rbp), %rcx
	movl	80(%rax,%rcx,8), %eax
	movl	%eax, -60(%rbp)
	movl	-60(%rbp), %eax
	sarl	$2, %eax
	movl	%eax, -92(%rbp)
	movl	-104(%rbp), %eax
	movl	-32(%rbp), %ecx
                                        # kill: def $cl killed $ecx
	shll	%cl, %eax
	movswl	16(%rbp), %ecx
	addl	%ecx, %eax
	movl	%eax, -84(%rbp)
	movl	-100(%rbp), %eax
	movl	-32(%rbp), %ecx
                                        # kill: def $cl killed $ecx
	shll	%cl, %eax
	movswl	24(%rbp), %ecx
	addl	%ecx, %eax
	movl	%eax, -88(%rbp)
	movl	-104(%rbp), %eax
	movq	32(%rbp), %rcx
	movswl	(%rcx), %ecx
	addl	%ecx, %eax
	movl	%eax, -24(%rbp)
	movl	-100(%rbp), %eax
	movq	40(%rbp), %rcx
	movswl	(%rcx), %ecx
	addl	%ecx, %eax
	movl	%eax, -28(%rbp)
	movl	$0, -44(%rbp)
	movl	$0, -40(%rbp)
	movq	input, %rax
	movl	1236(%rax), %eax
	movl	%eax, -160(%rbp)
	movq	img, %rax
	cmpl	$0, 72400(%rax)
	je	.LBB25_7
# %bb.5:                                # %land.lhs.true28
	movq	img, %rax
	movq	14168(%rax), %rax
	movq	img, %rcx
	movslq	12(%rcx), %rcx
	imulq	$632, %rcx, %rcx        # imm = 0x278
	addq	%rcx, %rax
	cmpl	$0, 532(%rax)
	je	.LBB25_7
# %bb.6:                                # %cond.true35
	movq	img, %rax
	movl	60(%rax), %eax
	cltd
	movl	$2, %ecx
	idivl	%ecx
	jmp	.LBB25_8
.LBB25_7:                               # %cond.false37
	movq	img, %rax
	movl	60(%rax), %eax
.LBB25_8:                               # %cond.end39
	movl	%eax, -156(%rbp)
	movl	-24(%rbp), %eax
	cmpl	48(%rbp), %eax
	jle	.LBB25_13
# %bb.9:                                # %land.lhs.true42
	movl	-24(%rbp), %eax
	movq	img, %rcx
	movl	52(%rcx), %ecx
	subl	$1, %ecx
	subl	48(%rbp), %ecx
	subl	-60(%rbp), %ecx
	cmpl	%ecx, %eax
	jge	.LBB25_13
# %bb.10:                               # %land.lhs.true47
	movl	-28(%rbp), %eax
	cmpl	48(%rbp), %eax
	jle	.LBB25_13
# %bb.11:                               # %land.lhs.true50
	movl	-28(%rbp), %eax
	movl	-156(%rbp), %ecx
	subl	$1, %ecx
	subl	48(%rbp), %ecx
	subl	-80(%rbp), %ecx
	cmpl	%ecx, %eax
	jge	.LBB25_13
# %bb.12:                               # %if.then
	movabsq	$FastLineX, %rax
	movq	%rax, -112(%rbp)
	jmp	.LBB25_14
.LBB25_13:                              # %if.else
	movabsq	$UMVLineX, %rax
	movq	%rax, -112(%rbp)
.LBB25_14:                              # %if.end
	movq	McostState, %rax
	movq	(%rax), %rdi
	movl	48(%rbp), %eax
	shll	$1, %eax
	addl	$1, %eax
	movl	48(%rbp), %ecx
	shll	$1, %ecx
	addl	$1, %ecx
	imull	%ecx, %eax
	shll	$2, %eax
	movslq	%eax, %rdx
	xorl	%esi, %esi
	callq	memset
	movswl	-46(%rbp), %eax
	cmpl	$0, %eax
	jle	.LBB25_19
# %bb.15:                               # %if.then67
	cmpl	$0, pred_SAD_ref
	je	.LBB25_17
# %bb.16:                               # %if.then70
	movslq	-56(%rbp), %rax
	vmovss	Bsize(,%rax,4), %xmm0   # xmm0 = mem[0],zero,zero,zero
	movl	pred_SAD_ref, %eax
	imull	pred_SAD_ref, %eax
	vcvtsi2ss	%eax, %xmm0, %xmm1
	vdivss	%xmm1, %xmm0, %xmm0
	movslq	-56(%rbp), %rax
	vsubss	AlphaSec(,%rax,4), %xmm0, %xmm0
	vmovss	%xmm0, -76(%rbp)
	movslq	-56(%rbp), %rax
	vmovss	Bsize(,%rax,4), %xmm0   # xmm0 = mem[0],zero,zero,zero
	movl	pred_SAD_ref, %eax
	imull	pred_SAD_ref, %eax
	vcvtsi2ss	%eax, %xmm0, %xmm1
	vdivss	%xmm1, %xmm0, %xmm0
	movslq	-56(%rbp), %rax
	vsubss	AlphaThird(,%rax,4), %xmm0, %xmm0
	vmovss	%xmm0, -72(%rbp)
	jmp	.LBB25_18
.LBB25_17:                              # %if.else87
	vxorps	%xmm0, %xmm0, %xmm0
	vmovss	%xmm0, -76(%rbp)
	vmovss	%xmm0, -72(%rbp)
.LBB25_18:                              # %if.end88
	jmp	.LBB25_29
.LBB25_19:                              # %if.else89
	cmpl	$1, -56(%rbp)
	jne	.LBB25_24
# %bb.20:                               # %if.then92
	cmpl	$0, pred_SAD_space
	je	.LBB25_22
# %bb.21:                               # %if.then95
	movslq	-56(%rbp), %rax
	vmovss	Bsize(,%rax,4), %xmm0   # xmm0 = mem[0],zero,zero,zero
	movl	pred_SAD_space, %eax
	imull	pred_SAD_space, %eax
	vcvtsi2ss	%eax, %xmm0, %xmm1
	vdivss	%xmm1, %xmm0, %xmm0
	movslq	-56(%rbp), %rax
	vsubss	AlphaSec(,%rax,4), %xmm0, %xmm0
	vmovss	%xmm0, -76(%rbp)
	movslq	-56(%rbp), %rax
	vmovss	Bsize(,%rax,4), %xmm0   # xmm0 = mem[0],zero,zero,zero
	movl	pred_SAD_space, %eax
	imull	pred_SAD_space, %eax
	vcvtsi2ss	%eax, %xmm0, %xmm1
	vdivss	%xmm1, %xmm0, %xmm0
	movslq	-56(%rbp), %rax
	vsubss	AlphaThird(,%rax,4), %xmm0, %xmm0
	vmovss	%xmm0, -72(%rbp)
	jmp	.LBB25_23
.LBB25_22:                              # %if.else112
	vxorps	%xmm0, %xmm0, %xmm0
	vmovss	%xmm0, -76(%rbp)
	vmovss	%xmm0, -72(%rbp)
.LBB25_23:                              # %if.end113
	jmp	.LBB25_28
.LBB25_24:                              # %if.else114
	cmpl	$0, pred_SAD_uplayer
	je	.LBB25_26
# %bb.25:                               # %if.then117
	movslq	-56(%rbp), %rax
	vmovss	Bsize(,%rax,4), %xmm0   # xmm0 = mem[0],zero,zero,zero
	movl	pred_SAD_uplayer, %eax
	imull	pred_SAD_uplayer, %eax
	vcvtsi2ss	%eax, %xmm0, %xmm1
	vdivss	%xmm1, %xmm0, %xmm0
	movslq	-56(%rbp), %rax
	vsubss	AlphaSec(,%rax,4), %xmm0, %xmm0
	vmovss	%xmm0, -76(%rbp)
	movslq	-56(%rbp), %rax
	vmovss	Bsize(,%rax,4), %xmm0   # xmm0 = mem[0],zero,zero,zero
	movl	pred_SAD_uplayer, %eax
	imull	pred_SAD_uplayer, %eax
	vcvtsi2ss	%eax, %xmm0, %xmm1
	vdivss	%xmm1, %xmm0, %xmm0
	movslq	-56(%rbp), %rax
	vsubss	AlphaThird(,%rax,4), %xmm0, %xmm0
	vmovss	%xmm0, -72(%rbp)
	jmp	.LBB25_27
.LBB25_26:                              # %if.else134
	vxorps	%xmm0, %xmm0, %xmm0
	vmovss	%xmm0, -76(%rbp)
	vmovss	%xmm0, -72(%rbp)
.LBB25_27:                              # %if.end135
	jmp	.LBB25_28
.LBB25_28:                              # %if.end136
	jmp	.LBB25_29
.LBB25_29:                              # %if.end137
	movl	-24(%rbp), %eax
	movl	%eax, -16(%rbp)
	movl	-28(%rbp), %eax
	movl	%eax, -12(%rbp)
	movl	-96(%rbp), %eax
	movq	mvbits, %rdx
	movl	-16(%rbp), %esi
	movl	-32(%rbp), %ecx
                                        # kill: def $cl killed $ecx
	shll	%cl, %esi
	subl	-84(%rbp), %esi
	movslq	%esi, %rcx
	movl	(%rdx,%rcx,4), %edx
	movq	mvbits, %rsi
	movl	-12(%rbp), %edi
	movl	-32(%rbp), %ecx
                                        # kill: def $cl killed $ecx
	shll	%cl, %edi
	subl	-88(%rbp), %edi
	movslq	%edi, %rcx
	addl	(%rsi,%rcx,4), %edx
	imull	%edx, %eax
	sarl	$16, %eax
	movl	%eax, -20(%rbp)
	movq	-128(%rbp), %rdi
	movq	-120(%rbp), %rsi
	movq	-112(%rbp), %rdx
	movl	-80(%rbp), %ecx
	movl	-60(%rbp), %r8d
	movl	-92(%rbp), %r9d
	movl	-20(%rbp), %eax
	movl	56(%rbp), %ebx
	movl	-16(%rbp), %r10d
	movl	-12(%rbp), %r11d
	movl	%eax, (%rsp)
	movl	%ebx, 8(%rsp)
	movl	%r10d, 16(%rsp)
	movl	%r11d, 24(%rsp)
	callq	PartCalMad
	movl	%eax, -20(%rbp)
	movl	-20(%rbp), %eax
	movq	McostState, %rcx
	movslq	48(%rbp), %rdx
	movq	(%rcx,%rdx,8), %rcx
	movslq	48(%rbp), %rdx
	movl	%eax, (%rcx,%rdx,4)
	movl	-20(%rbp), %eax
	cmpl	56(%rbp), %eax
	jge	.LBB25_31
# %bb.30:                               # %if.then155
	movl	-20(%rbp), %eax
	movl	%eax, 56(%rbp)
	movl	-16(%rbp), %eax
	movl	%eax, -44(%rbp)
	movl	-12(%rbp), %eax
	movl	%eax, -40(%rbp)
.LBB25_31:                              # %if.end156
	movl	-44(%rbp), %eax
	movl	%eax, -68(%rbp)
	movl	-40(%rbp), %eax
	movl	%eax, -64(%rbp)
	movl	$0, -36(%rbp)
.LBB25_32:                              # %for.cond
                                        # =>This Inner Loop Header: Depth=1
	cmpl	$4, -36(%rbp)
	jge	.LBB25_42
# %bb.33:                               # %for.body
                                        #   in Loop: Header=BB25_32 Depth=1
	movl	-68(%rbp), %eax
	movslq	-36(%rbp), %rcx
	addl	FastIntegerPelBlockMotionSearch.Diamond_x(,%rcx,4), %eax
	movl	%eax, -16(%rbp)
	movl	-64(%rbp), %eax
	movslq	-36(%rbp), %rcx
	addl	FastIntegerPelBlockMotionSearch.Diamond_y(,%rcx,4), %eax
	movl	%eax, -12(%rbp)
	movl	-16(%rbp), %edi
	subl	-24(%rbp), %edi
	callq	abs
	cmpl	48(%rbp), %eax
	jg	.LBB25_40
# %bb.34:                               # %land.lhs.true169
                                        #   in Loop: Header=BB25_32 Depth=1
	movl	-12(%rbp), %edi
	subl	-28(%rbp), %edi
	callq	abs
	cmpl	48(%rbp), %eax
	jg	.LBB25_40
# %bb.35:                               # %if.then174
                                        #   in Loop: Header=BB25_32 Depth=1
	movq	McostState, %rax
	movl	-12(%rbp), %ecx
	subl	-28(%rbp), %ecx
	addl	48(%rbp), %ecx
	movslq	%ecx, %rcx
	movq	(%rax,%rcx,8), %rax
	movl	-16(%rbp), %ecx
	subl	-24(%rbp), %ecx
	addl	48(%rbp), %ecx
	movslq	%ecx, %rcx
	cmpl	$0, (%rax,%rcx,4)
	jne	.LBB25_39
# %bb.36:                               # %if.then184
                                        #   in Loop: Header=BB25_32 Depth=1
	movl	-96(%rbp), %eax
	movq	mvbits, %rdx
	movl	-16(%rbp), %esi
	movl	-32(%rbp), %ecx
                                        # kill: def $cl killed $ecx
	shll	%cl, %esi
	subl	-84(%rbp), %esi
	movslq	%esi, %rcx
	movl	(%rdx,%rcx,4), %edx
	movq	mvbits, %rsi
	movl	-12(%rbp), %edi
	movl	-32(%rbp), %ecx
                                        # kill: def $cl killed $ecx
	shll	%cl, %edi
	subl	-88(%rbp), %edi
	movslq	%edi, %rcx
	addl	(%rsi,%rcx,4), %edx
	imull	%edx, %eax
	sarl	$16, %eax
	movl	%eax, -20(%rbp)
	movq	-128(%rbp), %rdi
	movq	-120(%rbp), %rsi
	movq	-112(%rbp), %rdx
	movl	-80(%rbp), %ecx
	movl	-60(%rbp), %r8d
	movl	-92(%rbp), %r9d
	movl	-20(%rbp), %eax
	movl	56(%rbp), %ebx
	movl	-16(%rbp), %r10d
	movl	-12(%rbp), %r11d
	movl	%eax, (%rsp)
	movl	%ebx, 8(%rsp)
	movl	%r10d, 16(%rsp)
	movl	%r11d, 24(%rsp)
	callq	PartCalMad
	movl	%eax, -20(%rbp)
	movl	-20(%rbp), %eax
	movq	McostState, %rcx
	movl	-12(%rbp), %edx
	subl	-28(%rbp), %edx
	addl	48(%rbp), %edx
	movslq	%edx, %rdx
	movq	(%rcx,%rdx,8), %rcx
	movl	-16(%rbp), %edx
	subl	-24(%rbp), %edx
	addl	48(%rbp), %edx
	movslq	%edx, %rdx
	movl	%eax, (%rcx,%rdx,4)
	movl	-20(%rbp), %eax
	cmpl	56(%rbp), %eax
	jge	.LBB25_38
# %bb.37:                               # %if.then207
                                        #   in Loop: Header=BB25_32 Depth=1
	movl	-16(%rbp), %eax
	movl	%eax, -44(%rbp)
	movl	-12(%rbp), %eax
	movl	%eax, -40(%rbp)
	movl	-20(%rbp), %eax
	movl	%eax, 56(%rbp)
.LBB25_38:                              # %if.end208
                                        #   in Loop: Header=BB25_32 Depth=1
	jmp	.LBB25_39
.LBB25_39:                              # %if.end209
                                        #   in Loop: Header=BB25_32 Depth=1
	jmp	.LBB25_40
.LBB25_40:                              # %if.end210
                                        #   in Loop: Header=BB25_32 Depth=1
	jmp	.LBB25_41
.LBB25_41:                              # %for.inc
                                        #   in Loop: Header=BB25_32 Depth=1
	movl	-36(%rbp), %eax
	addl	$1, %eax
	movl	%eax, -36(%rbp)
	jmp	.LBB25_32
.LBB25_42:                              # %for.end
	movl	-24(%rbp), %eax
	cmpl	-104(%rbp), %eax
	jne	.LBB25_44
# %bb.43:                               # %lor.lhs.false
	movl	-28(%rbp), %eax
	cmpl	-100(%rbp), %eax
	je	.LBB25_63
.LBB25_44:                              # %if.then215
	movl	-104(%rbp), %eax
	movl	%eax, -16(%rbp)
	movl	-100(%rbp), %eax
	movl	%eax, -12(%rbp)
	movl	-16(%rbp), %edi
	subl	-24(%rbp), %edi
	callq	abs
	cmpl	48(%rbp), %eax
	jg	.LBB25_51
# %bb.45:                               # %land.lhs.true220
	movl	-12(%rbp), %edi
	subl	-28(%rbp), %edi
	callq	abs
	cmpl	48(%rbp), %eax
	jg	.LBB25_51
# %bb.46:                               # %if.then225
	movq	McostState, %rax
	movl	-12(%rbp), %ecx
	subl	-28(%rbp), %ecx
	addl	48(%rbp), %ecx
	movslq	%ecx, %rcx
	movq	(%rax,%rcx,8), %rax
	movl	-16(%rbp), %ecx
	subl	-24(%rbp), %ecx
	addl	48(%rbp), %ecx
	movslq	%ecx, %rcx
	cmpl	$0, (%rax,%rcx,4)
	jne	.LBB25_50
# %bb.47:                               # %if.then235
	movl	-96(%rbp), %eax
	movq	mvbits, %rdx
	movl	-16(%rbp), %esi
	movl	-32(%rbp), %ecx
                                        # kill: def $cl killed $ecx
	shll	%cl, %esi
	subl	-84(%rbp), %esi
	movslq	%esi, %rcx
	movl	(%rdx,%rcx,4), %edx
	movq	mvbits, %rsi
	movl	-12(%rbp), %edi
	movl	-32(%rbp), %ecx
                                        # kill: def $cl killed $ecx
	shll	%cl, %edi
	subl	-88(%rbp), %edi
	movslq	%edi, %rcx
	addl	(%rsi,%rcx,4), %edx
	imull	%edx, %eax
	sarl	$16, %eax
	movl	%eax, -20(%rbp)
	movq	-128(%rbp), %rdi
	movq	-120(%rbp), %rsi
	movq	-112(%rbp), %rdx
	movl	-80(%rbp), %ecx
	movl	-60(%rbp), %r8d
	movl	-92(%rbp), %r9d
	movl	-20(%rbp), %eax
	movl	56(%rbp), %ebx
	movl	-16(%rbp), %r10d
	movl	-12(%rbp), %r11d
	movl	%eax, (%rsp)
	movl	%ebx, 8(%rsp)
	movl	%r10d, 16(%rsp)
	movl	%r11d, 24(%rsp)
	callq	PartCalMad
	movl	%eax, -20(%rbp)
	movl	-20(%rbp), %eax
	movq	McostState, %rcx
	movl	-12(%rbp), %edx
	subl	-28(%rbp), %edx
	addl	48(%rbp), %edx
	movslq	%edx, %rdx
	movq	(%rcx,%rdx,8), %rcx
	movl	-16(%rbp), %edx
	subl	-24(%rbp), %edx
	addl	48(%rbp), %edx
	movslq	%edx, %rdx
	movl	%eax, (%rcx,%rdx,4)
	movl	-20(%rbp), %eax
	cmpl	56(%rbp), %eax
	jge	.LBB25_49
# %bb.48:                               # %if.then258
	movl	-16(%rbp), %eax
	movl	%eax, -44(%rbp)
	movl	-12(%rbp), %eax
	movl	%eax, -40(%rbp)
	movl	-20(%rbp), %eax
	movl	%eax, 56(%rbp)
.LBB25_49:                              # %if.end259
	jmp	.LBB25_50
.LBB25_50:                              # %if.end260
	jmp	.LBB25_51
.LBB25_51:                              # %if.end261
	movl	-44(%rbp), %eax
	movl	%eax, -68(%rbp)
	movl	-40(%rbp), %eax
	movl	%eax, -64(%rbp)
	movl	$0, -36(%rbp)
.LBB25_52:                              # %for.cond262
                                        # =>This Inner Loop Header: Depth=1
	cmpl	$4, -36(%rbp)
	jge	.LBB25_62
# %bb.53:                               # %for.body265
                                        #   in Loop: Header=BB25_52 Depth=1
	movl	-68(%rbp), %eax
	movslq	-36(%rbp), %rcx
	addl	FastIntegerPelBlockMotionSearch.Diamond_x(,%rcx,4), %eax
	movl	%eax, -16(%rbp)
	movl	-64(%rbp), %eax
	movslq	-36(%rbp), %rcx
	addl	FastIntegerPelBlockMotionSearch.Diamond_y(,%rcx,4), %eax
	movl	%eax, -12(%rbp)
	movl	-16(%rbp), %edi
	subl	-24(%rbp), %edi
	callq	abs
	cmpl	48(%rbp), %eax
	jg	.LBB25_60
# %bb.54:                               # %land.lhs.true276
                                        #   in Loop: Header=BB25_52 Depth=1
	movl	-12(%rbp), %edi
	subl	-28(%rbp), %edi
	callq	abs
	cmpl	48(%rbp), %eax
	jg	.LBB25_60
# %bb.55:                               # %if.then281
                                        #   in Loop: Header=BB25_52 Depth=1
	movq	McostState, %rax
	movl	-12(%rbp), %ecx
	subl	-28(%rbp), %ecx
	addl	48(%rbp), %ecx
	movslq	%ecx, %rcx
	movq	(%rax,%rcx,8), %rax
	movl	-16(%rbp), %ecx
	subl	-24(%rbp), %ecx
	addl	48(%rbp), %ecx
	movslq	%ecx, %rcx
	cmpl	$0, (%rax,%rcx,4)
	jne	.LBB25_59
# %bb.56:                               # %if.then291
                                        #   in Loop: Header=BB25_52 Depth=1
	movl	-96(%rbp), %eax
	movq	mvbits, %rdx
	movl	-16(%rbp), %esi
	movl	-32(%rbp), %ecx
                                        # kill: def $cl killed $ecx
	shll	%cl, %esi
	subl	-84(%rbp), %esi
	movslq	%esi, %rcx
	movl	(%rdx,%rcx,4), %edx
	movq	mvbits, %rsi
	movl	-12(%rbp), %edi
	movl	-32(%rbp), %ecx
                                        # kill: def $cl killed $ecx
	shll	%cl, %edi
	subl	-88(%rbp), %edi
	movslq	%edi, %rcx
	addl	(%rsi,%rcx,4), %edx
	imull	%edx, %eax
	sarl	$16, %eax
	movl	%eax, -20(%rbp)
	movq	-128(%rbp), %rdi
	movq	-120(%rbp), %rsi
	movq	-112(%rbp), %rdx
	movl	-80(%rbp), %ecx
	movl	-60(%rbp), %r8d
	movl	-92(%rbp), %r9d
	movl	-20(%rbp), %eax
	movl	56(%rbp), %ebx
	movl	-16(%rbp), %r10d
	movl	-12(%rbp), %r11d
	movl	%eax, (%rsp)
	movl	%ebx, 8(%rsp)
	movl	%r10d, 16(%rsp)
	movl	%r11d, 24(%rsp)
	callq	PartCalMad
	movl	%eax, -20(%rbp)
	movl	-20(%rbp), %eax
	movq	McostState, %rcx
	movl	-12(%rbp), %edx
	subl	-28(%rbp), %edx
	addl	48(%rbp), %edx
	movslq	%edx, %rdx
	movq	(%rcx,%rdx,8), %rcx
	movl	-16(%rbp), %edx
	subl	-24(%rbp), %edx
	addl	48(%rbp), %edx
	movslq	%edx, %rdx
	movl	%eax, (%rcx,%rdx,4)
	movl	-20(%rbp), %eax
	cmpl	56(%rbp), %eax
	jge	.LBB25_58
# %bb.57:                               # %if.then314
                                        #   in Loop: Header=BB25_52 Depth=1
	movl	-16(%rbp), %eax
	movl	%eax, -44(%rbp)
	movl	-12(%rbp), %eax
	movl	%eax, -40(%rbp)
	movl	-20(%rbp), %eax
	movl	%eax, 56(%rbp)
.LBB25_58:                              # %if.end315
                                        #   in Loop: Header=BB25_52 Depth=1
	jmp	.LBB25_59
.LBB25_59:                              # %if.end316
                                        #   in Loop: Header=BB25_52 Depth=1
	jmp	.LBB25_60
.LBB25_60:                              # %if.end317
                                        #   in Loop: Header=BB25_52 Depth=1
	jmp	.LBB25_61
.LBB25_61:                              # %for.inc318
                                        #   in Loop: Header=BB25_52 Depth=1
	movl	-36(%rbp), %eax
	addl	$1, %eax
	movl	%eax, -36(%rbp)
	jmp	.LBB25_52
.LBB25_62:                              # %for.end320
	jmp	.LBB25_63
.LBB25_63:                              # %if.end321
	cmpl	$1, -56(%rbp)
	jle	.LBB25_77
# %bb.64:                               # %if.then324
	movl	-104(%rbp), %ecx
	movl	pred_MV_uplayer, %eax
	cltd
	movl	$4, %esi
	idivl	%esi
	addl	%eax, %ecx
	movl	%ecx, -16(%rbp)
	movl	-100(%rbp), %ecx
	movl	pred_MV_uplayer+4, %eax
	cltd
	idivl	%esi
	addl	%eax, %ecx
	movl	%ecx, -12(%rbp)
	movl	-16(%rbp), %edi
	subl	-24(%rbp), %edi
	callq	abs
	cmpl	48(%rbp), %eax
	jg	.LBB25_71
# %bb.65:                               # %land.lhs.true333
	movl	-12(%rbp), %edi
	subl	-28(%rbp), %edi
	callq	abs
	cmpl	48(%rbp), %eax
	jg	.LBB25_71
# %bb.66:                               # %if.then338
	movq	McostState, %rax
	movl	-12(%rbp), %ecx
	subl	-28(%rbp), %ecx
	addl	48(%rbp), %ecx
	movslq	%ecx, %rcx
	movq	(%rax,%rcx,8), %rax
	movl	-16(%rbp), %ecx
	subl	-24(%rbp), %ecx
	addl	48(%rbp), %ecx
	movslq	%ecx, %rcx
	cmpl	$0, (%rax,%rcx,4)
	jne	.LBB25_70
# %bb.67:                               # %if.then348
	movl	-96(%rbp), %eax
	movq	mvbits, %rdx
	movl	-16(%rbp), %esi
	movl	-32(%rbp), %ecx
                                        # kill: def $cl killed $ecx
	shll	%cl, %esi
	subl	-84(%rbp), %esi
	movslq	%esi, %rcx
	movl	(%rdx,%rcx,4), %edx
	movq	mvbits, %rsi
	movl	-12(%rbp), %edi
	movl	-32(%rbp), %ecx
                                        # kill: def $cl killed $ecx
	shll	%cl, %edi
	subl	-88(%rbp), %edi
	movslq	%edi, %rcx
	addl	(%rsi,%rcx,4), %edx
	imull	%edx, %eax
	sarl	$16, %eax
	movl	%eax, -20(%rbp)
	movq	-128(%rbp), %rdi
	movq	-120(%rbp), %rsi
	movq	-112(%rbp), %rdx
	movl	-80(%rbp), %ecx
	movl	-60(%rbp), %r8d
	movl	-92(%rbp), %r9d
	movl	-20(%rbp), %eax
	movl	56(%rbp), %ebx
	movl	-16(%rbp), %r10d
	movl	-12(%rbp), %r11d
	movl	%eax, (%rsp)
	movl	%ebx, 8(%rsp)
	movl	%r10d, 16(%rsp)
	movl	%r11d, 24(%rsp)
	callq	PartCalMad
	movl	%eax, -20(%rbp)
	movl	-20(%rbp), %eax
	movq	McostState, %rcx
	movl	-12(%rbp), %edx
	subl	-28(%rbp), %edx
	addl	48(%rbp), %edx
	movslq	%edx, %rdx
	movq	(%rcx,%rdx,8), %rcx
	movl	-16(%rbp), %edx
	subl	-24(%rbp), %edx
	addl	48(%rbp), %edx
	movslq	%edx, %rdx
	movl	%eax, (%rcx,%rdx,4)
	movl	-20(%rbp), %eax
	cmpl	56(%rbp), %eax
	jge	.LBB25_69
# %bb.68:                               # %if.then371
	movl	-16(%rbp), %eax
	movl	%eax, -44(%rbp)
	movl	-12(%rbp), %eax
	movl	%eax, -40(%rbp)
	movl	-20(%rbp), %eax
	movl	%eax, 56(%rbp)
.LBB25_69:                              # %if.end372
	jmp	.LBB25_70
.LBB25_70:                              # %if.end373
	jmp	.LBB25_71
.LBB25_71:                              # %if.end374
	movl	56(%rbp), %eax
	subl	pred_SAD_uplayer, %eax
	vcvtsi2ss	%eax, %xmm0, %xmm0
	vcvtsi2ssl	pred_SAD_uplayer, %xmm0, %xmm1
	vmulss	-72(%rbp), %xmm1, %xmm1
	vucomiss	%xmm0, %xmm1
	jbe	.LBB25_73
# %bb.72:                               # %if.then381
	jmp	.LBB25_301
.LBB25_73:                              # %if.else382
	movl	56(%rbp), %eax
	subl	pred_SAD_uplayer, %eax
	vcvtsi2ss	%eax, %xmm0, %xmm0
	vcvtsi2ssl	pred_SAD_uplayer, %xmm0, %xmm1
	vmulss	-76(%rbp), %xmm1, %xmm1
	vucomiss	%xmm0, %xmm1
	jbe	.LBB25_75
# %bb.74:                               # %if.then389
	jmp	.LBB25_282
.LBB25_75:                              # %if.end390
	jmp	.LBB25_76
.LBB25_76:                              # %if.end391
	jmp	.LBB25_77
.LBB25_77:                              # %if.end392
	movq	img, %rax
	movl	(%rax), %eax
	movswl	-46(%rbp), %ecx
	addl	$1, %ecx
	cmpl	%ecx, %eax
	jle	.LBB25_79
# %bb.78:                               # %land.lhs.true397
	movswl	-46(%rbp), %eax
	cmpl	$-1, %eax
	jne	.LBB25_81
.LBB25_79:                              # %lor.lhs.false401
	cmpl	$1, -136(%rbp)
	jne	.LBB25_89
# %bb.80:                               # %land.lhs.true404
	movl	Bframe_ctr, %eax
	cltd
	idivl	-160(%rbp)
	cmpl	$1, %edx
	jle	.LBB25_89
.LBB25_81:                              # %if.then408
	movl	-104(%rbp), %ecx
	movl	pred_MV_time, %eax
	cltd
	movl	$4, %esi
	idivl	%esi
	addl	%eax, %ecx
	movl	%ecx, -16(%rbp)
	movl	-100(%rbp), %ecx
	movl	pred_MV_time+4, %eax
	cltd
	idivl	%esi
	addl	%eax, %ecx
	movl	%ecx, -12(%rbp)
	movl	-16(%rbp), %edi
	subl	-24(%rbp), %edi
	callq	abs
	cmpl	48(%rbp), %eax
	jg	.LBB25_88
# %bb.82:                               # %land.lhs.true417
	movl	-12(%rbp), %edi
	subl	-28(%rbp), %edi
	callq	abs
	cmpl	48(%rbp), %eax
	jg	.LBB25_88
# %bb.83:                               # %if.then422
	movq	McostState, %rax
	movl	-12(%rbp), %ecx
	subl	-28(%rbp), %ecx
	addl	48(%rbp), %ecx
	movslq	%ecx, %rcx
	movq	(%rax,%rcx,8), %rax
	movl	-16(%rbp), %ecx
	subl	-24(%rbp), %ecx
	addl	48(%rbp), %ecx
	movslq	%ecx, %rcx
	cmpl	$0, (%rax,%rcx,4)
	jne	.LBB25_87
# %bb.84:                               # %if.then432
	movl	-96(%rbp), %eax
	movq	mvbits, %rdx
	movl	-16(%rbp), %esi
	movl	-32(%rbp), %ecx
                                        # kill: def $cl killed $ecx
	shll	%cl, %esi
	subl	-84(%rbp), %esi
	movslq	%esi, %rcx
	movl	(%rdx,%rcx,4), %edx
	movq	mvbits, %rsi
	movl	-12(%rbp), %edi
	movl	-32(%rbp), %ecx
                                        # kill: def $cl killed $ecx
	shll	%cl, %edi
	subl	-88(%rbp), %edi
	movslq	%edi, %rcx
	addl	(%rsi,%rcx,4), %edx
	imull	%edx, %eax
	sarl	$16, %eax
	movl	%eax, -20(%rbp)
	movq	-128(%rbp), %rdi
	movq	-120(%rbp), %rsi
	movq	-112(%rbp), %rdx
	movl	-80(%rbp), %ecx
	movl	-60(%rbp), %r8d
	movl	-92(%rbp), %r9d
	movl	-20(%rbp), %eax
	movl	56(%rbp), %ebx
	movl	-16(%rbp), %r10d
	movl	-12(%rbp), %r11d
	movl	%eax, (%rsp)
	movl	%ebx, 8(%rsp)
	movl	%r10d, 16(%rsp)
	movl	%r11d, 24(%rsp)
	callq	PartCalMad
	movl	%eax, -20(%rbp)
	movl	-20(%rbp), %eax
	movq	McostState, %rcx
	movl	-12(%rbp), %edx
	subl	-28(%rbp), %edx
	addl	48(%rbp), %edx
	movslq	%edx, %rdx
	movq	(%rcx,%rdx,8), %rcx
	movl	-16(%rbp), %edx
	subl	-24(%rbp), %edx
	addl	48(%rbp), %edx
	movslq	%edx, %rdx
	movl	%eax, (%rcx,%rdx,4)
	movl	-20(%rbp), %eax
	cmpl	56(%rbp), %eax
	jge	.LBB25_86
# %bb.85:                               # %if.then455
	movl	-16(%rbp), %eax
	movl	%eax, -44(%rbp)
	movl	-12(%rbp), %eax
	movl	%eax, -40(%rbp)
	movl	-20(%rbp), %eax
	movl	%eax, 56(%rbp)
.LBB25_86:                              # %if.end456
	jmp	.LBB25_87
.LBB25_87:                              # %if.end457
	jmp	.LBB25_88
.LBB25_88:                              # %if.end458
	jmp	.LBB25_89
.LBB25_89:                              # %if.end459
	movq	input, %rax
	cmpl	$1, 2880(%rax)
	jne	.LBB25_105
# %bb.90:                               # %if.then462
	cmpl	$0, -136(%rbp)
	jne	.LBB25_92
# %bb.91:                               # %land.lhs.true465
	movswl	-46(%rbp), %eax
	cmpl	$0, %eax
	jg	.LBB25_96
.LBB25_92:                              # %lor.lhs.false469
	movq	img, %rax
	cmpl	$1, 24(%rax)
	jne	.LBB25_104
# %bb.93:                               # %land.lhs.true472
	cmpl	$0, -136(%rbp)
	jne	.LBB25_104
# %bb.94:                               # %land.lhs.true475
	movswl	-46(%rbp), %eax
	cmpl	$0, %eax
	je	.LBB25_96
# %bb.95:                               # %lor.lhs.false479
	movswl	-46(%rbp), %eax
	cmpl	$2, %eax
	jne	.LBB25_104
.LBB25_96:                              # %if.then483
	movl	-104(%rbp), %ecx
	movl	pred_MV_ref, %eax
	cltd
	movl	$4, %esi
	idivl	%esi
	addl	%eax, %ecx
	movl	%ecx, -16(%rbp)
	movl	-100(%rbp), %ecx
	movl	pred_MV_ref+4, %eax
	cltd
	idivl	%esi
	addl	%eax, %ecx
	movl	%ecx, -12(%rbp)
	movl	-16(%rbp), %edi
	subl	-24(%rbp), %edi
	callq	abs
	cmpl	48(%rbp), %eax
	jg	.LBB25_103
# %bb.97:                               # %land.lhs.true492
	movl	-12(%rbp), %edi
	subl	-28(%rbp), %edi
	callq	abs
	cmpl	48(%rbp), %eax
	jg	.LBB25_103
# %bb.98:                               # %if.then497
	movq	McostState, %rax
	movl	-12(%rbp), %ecx
	subl	-28(%rbp), %ecx
	addl	48(%rbp), %ecx
	movslq	%ecx, %rcx
	movq	(%rax,%rcx,8), %rax
	movl	-16(%rbp), %ecx
	subl	-24(%rbp), %ecx
	addl	48(%rbp), %ecx
	movslq	%ecx, %rcx
	cmpl	$0, (%rax,%rcx,4)
	jne	.LBB25_102
# %bb.99:                               # %if.then507
	movl	-96(%rbp), %eax
	movq	mvbits, %rdx
	movl	-16(%rbp), %esi
	movl	-32(%rbp), %ecx
                                        # kill: def $cl killed $ecx
	shll	%cl, %esi
	subl	-84(%rbp), %esi
	movslq	%esi, %rcx
	movl	(%rdx,%rcx,4), %edx
	movq	mvbits, %rsi
	movl	-12(%rbp), %edi
	movl	-32(%rbp), %ecx
                                        # kill: def $cl killed $ecx
	shll	%cl, %edi
	subl	-88(%rbp), %edi
	movslq	%edi, %rcx
	addl	(%rsi,%rcx,4), %edx
	imull	%edx, %eax
	sarl	$16, %eax
	movl	%eax, -20(%rbp)
	movq	-128(%rbp), %rdi
	movq	-120(%rbp), %rsi
	movq	-112(%rbp), %rdx
	movl	-80(%rbp), %ecx
	movl	-60(%rbp), %r8d
	movl	-92(%rbp), %r9d
	movl	-20(%rbp), %eax
	movl	56(%rbp), %ebx
	movl	-16(%rbp), %r10d
	movl	-12(%rbp), %r11d
	movl	%eax, (%rsp)
	movl	%ebx, 8(%rsp)
	movl	%r10d, 16(%rsp)
	movl	%r11d, 24(%rsp)
	callq	PartCalMad
	movl	%eax, -20(%rbp)
	movl	-20(%rbp), %eax
	movq	McostState, %rcx
	movl	-12(%rbp), %edx
	subl	-28(%rbp), %edx
	addl	48(%rbp), %edx
	movslq	%edx, %rdx
	movq	(%rcx,%rdx,8), %rcx
	movl	-16(%rbp), %edx
	subl	-24(%rbp), %edx
	addl	48(%rbp), %edx
	movslq	%edx, %rdx
	movl	%eax, (%rcx,%rdx,4)
	movl	-20(%rbp), %eax
	cmpl	56(%rbp), %eax
	jge	.LBB25_101
# %bb.100:                              # %if.then530
	movl	-16(%rbp), %eax
	movl	%eax, -44(%rbp)
	movl	-12(%rbp), %eax
	movl	%eax, -40(%rbp)
	movl	-20(%rbp), %eax
	movl	%eax, 56(%rbp)
.LBB25_101:                             # %if.end531
	jmp	.LBB25_102
.LBB25_102:                             # %if.end532
	jmp	.LBB25_103
.LBB25_103:                             # %if.end533
	jmp	.LBB25_104
.LBB25_104:                             # %if.end534
	jmp	.LBB25_119
.LBB25_105:                             # %if.else535
	cmpl	$0, -136(%rbp)
	jne	.LBB25_107
# %bb.106:                              # %land.lhs.true538
	movswl	-46(%rbp), %eax
	cmpl	$0, %eax
	jg	.LBB25_110
.LBB25_107:                             # %lor.lhs.false542
	movq	img, %rax
	cmpl	$1, 24(%rax)
	jne	.LBB25_118
# %bb.108:                              # %land.lhs.true546
	cmpl	$0, -136(%rbp)
	jne	.LBB25_118
# %bb.109:                              # %land.lhs.true549
	movswl	-46(%rbp), %eax
	cmpl	$0, %eax
	jne	.LBB25_118
.LBB25_110:                             # %if.then553
	movl	-104(%rbp), %ecx
	movl	pred_MV_ref, %eax
	cltd
	movl	$4, %esi
	idivl	%esi
	addl	%eax, %ecx
	movl	%ecx, -16(%rbp)
	movl	-100(%rbp), %ecx
	movl	pred_MV_ref+4, %eax
	cltd
	idivl	%esi
	addl	%eax, %ecx
	movl	%ecx, -12(%rbp)
	movl	-16(%rbp), %edi
	subl	-24(%rbp), %edi
	callq	abs
	cmpl	48(%rbp), %eax
	jg	.LBB25_117
# %bb.111:                              # %land.lhs.true562
	movl	-12(%rbp), %edi
	subl	-28(%rbp), %edi
	callq	abs
	cmpl	48(%rbp), %eax
	jg	.LBB25_117
# %bb.112:                              # %if.then567
	movq	McostState, %rax
	movl	-12(%rbp), %ecx
	subl	-28(%rbp), %ecx
	addl	48(%rbp), %ecx
	movslq	%ecx, %rcx
	movq	(%rax,%rcx,8), %rax
	movl	-16(%rbp), %ecx
	subl	-24(%rbp), %ecx
	addl	48(%rbp), %ecx
	movslq	%ecx, %rcx
	cmpl	$0, (%rax,%rcx,4)
	jne	.LBB25_116
# %bb.113:                              # %if.then577
	movl	-96(%rbp), %eax
	movq	mvbits, %rdx
	movl	-16(%rbp), %esi
	movl	-32(%rbp), %ecx
                                        # kill: def $cl killed $ecx
	shll	%cl, %esi
	subl	-84(%rbp), %esi
	movslq	%esi, %rcx
	movl	(%rdx,%rcx,4), %edx
	movq	mvbits, %rsi
	movl	-12(%rbp), %edi
	movl	-32(%rbp), %ecx
                                        # kill: def $cl killed $ecx
	shll	%cl, %edi
	subl	-88(%rbp), %edi
	movslq	%edi, %rcx
	addl	(%rsi,%rcx,4), %edx
	imull	%edx, %eax
	sarl	$16, %eax
	movl	%eax, -20(%rbp)
	movq	-128(%rbp), %rdi
	movq	-120(%rbp), %rsi
	movq	-112(%rbp), %rdx
	movl	-80(%rbp), %ecx
	movl	-60(%rbp), %r8d
	movl	-92(%rbp), %r9d
	movl	-20(%rbp), %eax
	movl	56(%rbp), %ebx
	movl	-16(%rbp), %r10d
	movl	-12(%rbp), %r11d
	movl	%eax, (%rsp)
	movl	%ebx, 8(%rsp)
	movl	%r10d, 16(%rsp)
	movl	%r11d, 24(%rsp)
	callq	PartCalMad
	movl	%eax, -20(%rbp)
	movl	-20(%rbp), %eax
	movq	McostState, %rcx
	movl	-12(%rbp), %edx
	subl	-28(%rbp), %edx
	addl	48(%rbp), %edx
	movslq	%edx, %rdx
	movq	(%rcx,%rdx,8), %rcx
	movl	-16(%rbp), %edx
	subl	-24(%rbp), %edx
	addl	48(%rbp), %edx
	movslq	%edx, %rdx
	movl	%eax, (%rcx,%rdx,4)
	movl	-20(%rbp), %eax
	cmpl	56(%rbp), %eax
	jge	.LBB25_115
# %bb.114:                              # %if.then600
	movl	-16(%rbp), %eax
	movl	%eax, -44(%rbp)
	movl	-12(%rbp), %eax
	movl	%eax, -40(%rbp)
	movl	-20(%rbp), %eax
	movl	%eax, 56(%rbp)
.LBB25_115:                             # %if.end601
	jmp	.LBB25_116
.LBB25_116:                             # %if.end602
	jmp	.LBB25_117
.LBB25_117:                             # %if.end603
	jmp	.LBB25_118
.LBB25_118:                             # %if.end604
	jmp	.LBB25_119
.LBB25_119:                             # %if.end605
	movl	-44(%rbp), %eax
	movl	%eax, -68(%rbp)
	movl	-40(%rbp), %eax
	movl	%eax, -64(%rbp)
	movl	$0, -36(%rbp)
.LBB25_120:                             # %for.cond606
                                        # =>This Inner Loop Header: Depth=1
	cmpl	$4, -36(%rbp)
	jge	.LBB25_130
# %bb.121:                              # %for.body609
                                        #   in Loop: Header=BB25_120 Depth=1
	movl	-68(%rbp), %eax
	movslq	-36(%rbp), %rcx
	addl	FastIntegerPelBlockMotionSearch.Diamond_x(,%rcx,4), %eax
	movl	%eax, -16(%rbp)
	movl	-64(%rbp), %eax
	movslq	-36(%rbp), %rcx
	addl	FastIntegerPelBlockMotionSearch.Diamond_y(,%rcx,4), %eax
	movl	%eax, -12(%rbp)
	movl	-16(%rbp), %edi
	subl	-24(%rbp), %edi
	callq	abs
	cmpl	48(%rbp), %eax
	jg	.LBB25_128
# %bb.122:                              # %land.lhs.true620
                                        #   in Loop: Header=BB25_120 Depth=1
	movl	-12(%rbp), %edi
	subl	-28(%rbp), %edi
	callq	abs
	cmpl	48(%rbp), %eax
	jg	.LBB25_128
# %bb.123:                              # %if.then625
                                        #   in Loop: Header=BB25_120 Depth=1
	movq	McostState, %rax
	movl	-12(%rbp), %ecx
	subl	-28(%rbp), %ecx
	addl	48(%rbp), %ecx
	movslq	%ecx, %rcx
	movq	(%rax,%rcx,8), %rax
	movl	-16(%rbp), %ecx
	subl	-24(%rbp), %ecx
	addl	48(%rbp), %ecx
	movslq	%ecx, %rcx
	cmpl	$0, (%rax,%rcx,4)
	jne	.LBB25_127
# %bb.124:                              # %if.then635
                                        #   in Loop: Header=BB25_120 Depth=1
	movl	-96(%rbp), %eax
	movq	mvbits, %rdx
	movl	-16(%rbp), %esi
	movl	-32(%rbp), %ecx
                                        # kill: def $cl killed $ecx
	shll	%cl, %esi
	subl	-84(%rbp), %esi
	movslq	%esi, %rcx
	movl	(%rdx,%rcx,4), %edx
	movq	mvbits, %rsi
	movl	-12(%rbp), %edi
	movl	-32(%rbp), %ecx
                                        # kill: def $cl killed $ecx
	shll	%cl, %edi
	subl	-88(%rbp), %edi
	movslq	%edi, %rcx
	addl	(%rsi,%rcx,4), %edx
	imull	%edx, %eax
	sarl	$16, %eax
	movl	%eax, -20(%rbp)
	movq	-128(%rbp), %rdi
	movq	-120(%rbp), %rsi
	movq	-112(%rbp), %rdx
	movl	-80(%rbp), %ecx
	movl	-60(%rbp), %r8d
	movl	-92(%rbp), %r9d
	movl	-20(%rbp), %eax
	movl	56(%rbp), %ebx
	movl	-16(%rbp), %r10d
	movl	-12(%rbp), %r11d
	movl	%eax, (%rsp)
	movl	%ebx, 8(%rsp)
	movl	%r10d, 16(%rsp)
	movl	%r11d, 24(%rsp)
	callq	PartCalMad
	movl	%eax, -20(%rbp)
	movl	-20(%rbp), %eax
	movq	McostState, %rcx
	movl	-12(%rbp), %edx
	subl	-28(%rbp), %edx
	addl	48(%rbp), %edx
	movslq	%edx, %rdx
	movq	(%rcx,%rdx,8), %rcx
	movl	-16(%rbp), %edx
	subl	-24(%rbp), %edx
	addl	48(%rbp), %edx
	movslq	%edx, %rdx
	movl	%eax, (%rcx,%rdx,4)
	movl	-20(%rbp), %eax
	cmpl	56(%rbp), %eax
	jge	.LBB25_126
# %bb.125:                              # %if.then658
                                        #   in Loop: Header=BB25_120 Depth=1
	movl	-16(%rbp), %eax
	movl	%eax, -44(%rbp)
	movl	-12(%rbp), %eax
	movl	%eax, -40(%rbp)
	movl	-20(%rbp), %eax
	movl	%eax, 56(%rbp)
.LBB25_126:                             # %if.end659
                                        #   in Loop: Header=BB25_120 Depth=1
	jmp	.LBB25_127
.LBB25_127:                             # %if.end660
                                        #   in Loop: Header=BB25_120 Depth=1
	jmp	.LBB25_128
.LBB25_128:                             # %if.end661
                                        #   in Loop: Header=BB25_120 Depth=1
	jmp	.LBB25_129
.LBB25_129:                             # %for.inc662
                                        #   in Loop: Header=BB25_120 Depth=1
	movl	-36(%rbp), %eax
	addl	$1, %eax
	movl	%eax, -36(%rbp)
	jmp	.LBB25_120
.LBB25_130:                             # %for.end664
	movswl	-46(%rbp), %eax
	cmpl	$0, %eax
	jle	.LBB25_137
# %bb.131:                              # %if.then668
	movl	56(%rbp), %eax
	subl	pred_SAD_ref, %eax
	vcvtsi2ss	%eax, %xmm0, %xmm0
	vcvtsi2ssl	pred_SAD_ref, %xmm0, %xmm1
	vmulss	-72(%rbp), %xmm1, %xmm1
	vucomiss	%xmm0, %xmm1
	jbe	.LBB25_133
# %bb.132:                              # %if.then675
	jmp	.LBB25_301
.LBB25_133:                             # %if.else676
	movl	56(%rbp), %eax
	subl	pred_SAD_ref, %eax
	vcvtsi2ss	%eax, %xmm0, %xmm0
	vcvtsi2ssl	pred_SAD_ref, %xmm0, %xmm1
	vmulss	-76(%rbp), %xmm1, %xmm1
	vucomiss	%xmm0, %xmm1
	jbe	.LBB25_135
# %bb.134:                              # %if.then683
	jmp	.LBB25_282
.LBB25_135:                             # %if.end684
	jmp	.LBB25_136
.LBB25_136:                             # %if.end685
	jmp	.LBB25_151
.LBB25_137:                             # %if.else686
	cmpl	$1, -56(%rbp)
	jle	.LBB25_144
# %bb.138:                              # %if.then689
	movl	56(%rbp), %eax
	subl	pred_SAD_uplayer, %eax
	vcvtsi2ss	%eax, %xmm0, %xmm0
	vcvtsi2ssl	pred_SAD_uplayer, %xmm0, %xmm1
	vmulss	-72(%rbp), %xmm1, %xmm1
	vucomiss	%xmm0, %xmm1
	jbe	.LBB25_140
# %bb.139:                              # %if.then696
	jmp	.LBB25_301
.LBB25_140:                             # %if.else697
	movl	56(%rbp), %eax
	subl	pred_SAD_uplayer, %eax
	vcvtsi2ss	%eax, %xmm0, %xmm0
	vcvtsi2ssl	pred_SAD_uplayer, %xmm0, %xmm1
	vmulss	-76(%rbp), %xmm1, %xmm1
	vucomiss	%xmm0, %xmm1
	jbe	.LBB25_142
# %bb.141:                              # %if.then704
	jmp	.LBB25_282
.LBB25_142:                             # %if.end705
	jmp	.LBB25_143
.LBB25_143:                             # %if.end706
	jmp	.LBB25_150
.LBB25_144:                             # %if.else707
	movl	56(%rbp), %eax
	subl	pred_SAD_space, %eax
	vcvtsi2ss	%eax, %xmm0, %xmm0
	vcvtsi2ssl	pred_SAD_space, %xmm0, %xmm1
	vmulss	-72(%rbp), %xmm1, %xmm1
	vucomiss	%xmm0, %xmm1
	jbe	.LBB25_146
# %bb.145:                              # %if.then714
	jmp	.LBB25_301
.LBB25_146:                             # %if.else715
	movl	56(%rbp), %eax
	subl	pred_SAD_space, %eax
	vcvtsi2ss	%eax, %xmm0, %xmm0
	vcvtsi2ssl	pred_SAD_space, %xmm0, %xmm1
	vmulss	-76(%rbp), %xmm1, %xmm1
	vucomiss	%xmm0, %xmm1
	jbe	.LBB25_148
# %bb.147:                              # %if.then722
	jmp	.LBB25_282
.LBB25_148:                             # %if.end723
	jmp	.LBB25_149
.LBB25_149:                             # %if.end724
	jmp	.LBB25_150
.LBB25_150:                             # %if.end725
	jmp	.LBB25_151
.LBB25_151:                             # %if.end726
	cmpl	$6, -56(%rbp)
	jle	.LBB25_153
# %bb.152:                              # %if.then729
	jmp	.LBB25_282
.LBB25_153:                             # %if.else730
	jmp	.LBB25_154
.LBB25_154:                             # %first_step
	movl	-44(%rbp), %eax
	movl	%eax, -68(%rbp)
	movl	-40(%rbp), %eax
	movl	%eax, -64(%rbp)
	movl	$1, -52(%rbp)
.LBB25_155:                             # %for.cond731
                                        # =>This Inner Loop Header: Depth=1
	movl	-52(%rbp), %ecx
	movl	48(%rbp), %eax
	cltd
	movl	$2, %esi
	idivl	%esi
	cmpl	%eax, %ecx
	jg	.LBB25_172
# %bb.156:                              # %for.body735
                                        #   in Loop: Header=BB25_155 Depth=1
	movl	-52(%rbp), %eax
	shll	$1, %eax
	subl	$1, %eax
	movl	%eax, -144(%rbp)
	movl	-68(%rbp), %eax
	addl	-144(%rbp), %eax
	movl	%eax, -16(%rbp)
	movl	-64(%rbp), %eax
	movl	%eax, -12(%rbp)
	movl	-16(%rbp), %edi
	subl	-24(%rbp), %edi
	callq	abs
	cmpl	48(%rbp), %eax
	jg	.LBB25_163
# %bb.157:                              # %land.lhs.true743
                                        #   in Loop: Header=BB25_155 Depth=1
	movl	-12(%rbp), %edi
	subl	-28(%rbp), %edi
	callq	abs
	cmpl	48(%rbp), %eax
	jg	.LBB25_163
# %bb.158:                              # %if.then748
                                        #   in Loop: Header=BB25_155 Depth=1
	movq	McostState, %rax
	movl	-12(%rbp), %ecx
	subl	-28(%rbp), %ecx
	addl	48(%rbp), %ecx
	movslq	%ecx, %rcx
	movq	(%rax,%rcx,8), %rax
	movl	-16(%rbp), %ecx
	subl	-24(%rbp), %ecx
	addl	48(%rbp), %ecx
	movslq	%ecx, %rcx
	cmpl	$0, (%rax,%rcx,4)
	jne	.LBB25_162
# %bb.159:                              # %if.then758
                                        #   in Loop: Header=BB25_155 Depth=1
	movl	-96(%rbp), %eax
	movq	mvbits, %rdx
	movl	-16(%rbp), %esi
	movl	-32(%rbp), %ecx
                                        # kill: def $cl killed $ecx
	shll	%cl, %esi
	subl	-84(%rbp), %esi
	movslq	%esi, %rcx
	movl	(%rdx,%rcx,4), %edx
	movq	mvbits, %rsi
	movl	-12(%rbp), %edi
	movl	-32(%rbp), %ecx
                                        # kill: def $cl killed $ecx
	shll	%cl, %edi
	subl	-88(%rbp), %edi
	movslq	%edi, %rcx
	addl	(%rsi,%rcx,4), %edx
	imull	%edx, %eax
	sarl	$16, %eax
	movl	%eax, -20(%rbp)
	movq	-128(%rbp), %rdi
	movq	-120(%rbp), %rsi
	movq	-112(%rbp), %rdx
	movl	-80(%rbp), %ecx
	movl	-60(%rbp), %r8d
	movl	-92(%rbp), %r9d
	movl	-20(%rbp), %eax
	movl	56(%rbp), %ebx
	movl	-16(%rbp), %r10d
	movl	-12(%rbp), %r11d
	movl	%eax, (%rsp)
	movl	%ebx, 8(%rsp)
	movl	%r10d, 16(%rsp)
	movl	%r11d, 24(%rsp)
	callq	PartCalMad
	movl	%eax, -20(%rbp)
	movl	-20(%rbp), %eax
	movq	McostState, %rcx
	movl	-12(%rbp), %edx
	subl	-28(%rbp), %edx
	addl	48(%rbp), %edx
	movslq	%edx, %rdx
	movq	(%rcx,%rdx,8), %rcx
	movl	-16(%rbp), %edx
	subl	-24(%rbp), %edx
	addl	48(%rbp), %edx
	movslq	%edx, %rdx
	movl	%eax, (%rcx,%rdx,4)
	movl	-20(%rbp), %eax
	cmpl	56(%rbp), %eax
	jge	.LBB25_161
# %bb.160:                              # %if.then781
                                        #   in Loop: Header=BB25_155 Depth=1
	movl	-16(%rbp), %eax
	movl	%eax, -44(%rbp)
	movl	-12(%rbp), %eax
	movl	%eax, -40(%rbp)
	movl	-20(%rbp), %eax
	movl	%eax, 56(%rbp)
.LBB25_161:                             # %if.end782
                                        #   in Loop: Header=BB25_155 Depth=1
	jmp	.LBB25_162
.LBB25_162:                             # %if.end783
                                        #   in Loop: Header=BB25_155 Depth=1
	jmp	.LBB25_163
.LBB25_163:                             # %if.end784
                                        #   in Loop: Header=BB25_155 Depth=1
	movl	-68(%rbp), %eax
	subl	-144(%rbp), %eax
	movl	%eax, -16(%rbp)
	movl	-64(%rbp), %eax
	movl	%eax, -12(%rbp)
	movl	-16(%rbp), %edi
	subl	-24(%rbp), %edi
	callq	abs
	cmpl	48(%rbp), %eax
	jg	.LBB25_170
# %bb.164:                              # %land.lhs.true790
                                        #   in Loop: Header=BB25_155 Depth=1
	movl	-12(%rbp), %edi
	subl	-28(%rbp), %edi
	callq	abs
	cmpl	48(%rbp), %eax
	jg	.LBB25_170
# %bb.165:                              # %if.then795
                                        #   in Loop: Header=BB25_155 Depth=1
	movq	McostState, %rax
	movl	-12(%rbp), %ecx
	subl	-28(%rbp), %ecx
	addl	48(%rbp), %ecx
	movslq	%ecx, %rcx
	movq	(%rax,%rcx,8), %rax
	movl	-16(%rbp), %ecx
	subl	-24(%rbp), %ecx
	addl	48(%rbp), %ecx
	movslq	%ecx, %rcx
	cmpl	$0, (%rax,%rcx,4)
	jne	.LBB25_169
# %bb.166:                              # %if.then805
                                        #   in Loop: Header=BB25_155 Depth=1
	movl	-96(%rbp), %eax
	movq	mvbits, %rdx
	movl	-16(%rbp), %esi
	movl	-32(%rbp), %ecx
                                        # kill: def $cl killed $ecx
	shll	%cl, %esi
	subl	-84(%rbp), %esi
	movslq	%esi, %rcx
	movl	(%rdx,%rcx,4), %edx
	movq	mvbits, %rsi
	movl	-12(%rbp), %edi
	movl	-32(%rbp), %ecx
                                        # kill: def $cl killed $ecx
	shll	%cl, %edi
	subl	-88(%rbp), %edi
	movslq	%edi, %rcx
	addl	(%rsi,%rcx,4), %edx
	imull	%edx, %eax
	sarl	$16, %eax
	movl	%eax, -20(%rbp)
	movq	-128(%rbp), %rdi
	movq	-120(%rbp), %rsi
	movq	-112(%rbp), %rdx
	movl	-80(%rbp), %ecx
	movl	-60(%rbp), %r8d
	movl	-92(%rbp), %r9d
	movl	-20(%rbp), %eax
	movl	56(%rbp), %ebx
	movl	-16(%rbp), %r10d
	movl	-12(%rbp), %r11d
	movl	%eax, (%rsp)
	movl	%ebx, 8(%rsp)
	movl	%r10d, 16(%rsp)
	movl	%r11d, 24(%rsp)
	callq	PartCalMad
	movl	%eax, -20(%rbp)
	movl	-20(%rbp), %eax
	movq	McostState, %rcx
	movl	-12(%rbp), %edx
	subl	-28(%rbp), %edx
	addl	48(%rbp), %edx
	movslq	%edx, %rdx
	movq	(%rcx,%rdx,8), %rcx
	movl	-16(%rbp), %edx
	subl	-24(%rbp), %edx
	addl	48(%rbp), %edx
	movslq	%edx, %rdx
	movl	%eax, (%rcx,%rdx,4)
	movl	-20(%rbp), %eax
	cmpl	56(%rbp), %eax
	jge	.LBB25_168
# %bb.167:                              # %if.then828
                                        #   in Loop: Header=BB25_155 Depth=1
	movl	-16(%rbp), %eax
	movl	%eax, -44(%rbp)
	movl	-12(%rbp), %eax
	movl	%eax, -40(%rbp)
	movl	-20(%rbp), %eax
	movl	%eax, 56(%rbp)
.LBB25_168:                             # %if.end829
                                        #   in Loop: Header=BB25_155 Depth=1
	jmp	.LBB25_169
.LBB25_169:                             # %if.end830
                                        #   in Loop: Header=BB25_155 Depth=1
	jmp	.LBB25_170
.LBB25_170:                             # %if.end831
                                        #   in Loop: Header=BB25_155 Depth=1
	jmp	.LBB25_171
.LBB25_171:                             # %for.inc832
                                        #   in Loop: Header=BB25_155 Depth=1
	movl	-52(%rbp), %eax
	addl	$1, %eax
	movl	%eax, -52(%rbp)
	jmp	.LBB25_155
.LBB25_172:                             # %for.end834
	movl	$1, -52(%rbp)
.LBB25_173:                             # %for.cond835
                                        # =>This Inner Loop Header: Depth=1
	movl	-52(%rbp), %ecx
	movl	48(%rbp), %eax
	cltd
	movl	$4, %esi
	idivl	%esi
	cmpl	%eax, %ecx
	jg	.LBB25_190
# %bb.174:                              # %for.body839
                                        #   in Loop: Header=BB25_173 Depth=1
	movl	-52(%rbp), %eax
	shll	$1, %eax
	subl	$1, %eax
	movl	%eax, -144(%rbp)
	movl	-68(%rbp), %eax
	movl	%eax, -16(%rbp)
	movl	-64(%rbp), %eax
	addl	-144(%rbp), %eax
	movl	%eax, -12(%rbp)
	movl	-16(%rbp), %edi
	subl	-24(%rbp), %edi
	callq	abs
	cmpl	48(%rbp), %eax
	jg	.LBB25_181
# %bb.175:                              # %land.lhs.true847
                                        #   in Loop: Header=BB25_173 Depth=1
	movl	-12(%rbp), %edi
	subl	-28(%rbp), %edi
	callq	abs
	cmpl	48(%rbp), %eax
	jg	.LBB25_181
# %bb.176:                              # %if.then852
                                        #   in Loop: Header=BB25_173 Depth=1
	movq	McostState, %rax
	movl	-12(%rbp), %ecx
	subl	-28(%rbp), %ecx
	addl	48(%rbp), %ecx
	movslq	%ecx, %rcx
	movq	(%rax,%rcx,8), %rax
	movl	-16(%rbp), %ecx
	subl	-24(%rbp), %ecx
	addl	48(%rbp), %ecx
	movslq	%ecx, %rcx
	cmpl	$0, (%rax,%rcx,4)
	jne	.LBB25_180
# %bb.177:                              # %if.then862
                                        #   in Loop: Header=BB25_173 Depth=1
	movl	-96(%rbp), %eax
	movq	mvbits, %rdx
	movl	-16(%rbp), %esi
	movl	-32(%rbp), %ecx
                                        # kill: def $cl killed $ecx
	shll	%cl, %esi
	subl	-84(%rbp), %esi
	movslq	%esi, %rcx
	movl	(%rdx,%rcx,4), %edx
	movq	mvbits, %rsi
	movl	-12(%rbp), %edi
	movl	-32(%rbp), %ecx
                                        # kill: def $cl killed $ecx
	shll	%cl, %edi
	subl	-88(%rbp), %edi
	movslq	%edi, %rcx
	addl	(%rsi,%rcx,4), %edx
	imull	%edx, %eax
	sarl	$16, %eax
	movl	%eax, -20(%rbp)
	movq	-128(%rbp), %rdi
	movq	-120(%rbp), %rsi
	movq	-112(%rbp), %rdx
	movl	-80(%rbp), %ecx
	movl	-60(%rbp), %r8d
	movl	-92(%rbp), %r9d
	movl	-20(%rbp), %eax
	movl	56(%rbp), %ebx
	movl	-16(%rbp), %r10d
	movl	-12(%rbp), %r11d
	movl	%eax, (%rsp)
	movl	%ebx, 8(%rsp)
	movl	%r10d, 16(%rsp)
	movl	%r11d, 24(%rsp)
	callq	PartCalMad
	movl	%eax, -20(%rbp)
	movl	-20(%rbp), %eax
	movq	McostState, %rcx
	movl	-12(%rbp), %edx
	subl	-28(%rbp), %edx
	addl	48(%rbp), %edx
	movslq	%edx, %rdx
	movq	(%rcx,%rdx,8), %rcx
	movl	-16(%rbp), %edx
	subl	-24(%rbp), %edx
	addl	48(%rbp), %edx
	movslq	%edx, %rdx
	movl	%eax, (%rcx,%rdx,4)
	movl	-20(%rbp), %eax
	cmpl	56(%rbp), %eax
	jge	.LBB25_179
# %bb.178:                              # %if.then885
                                        #   in Loop: Header=BB25_173 Depth=1
	movl	-16(%rbp), %eax
	movl	%eax, -44(%rbp)
	movl	-12(%rbp), %eax
	movl	%eax, -40(%rbp)
	movl	-20(%rbp), %eax
	movl	%eax, 56(%rbp)
.LBB25_179:                             # %if.end886
                                        #   in Loop: Header=BB25_173 Depth=1
	jmp	.LBB25_180
.LBB25_180:                             # %if.end887
                                        #   in Loop: Header=BB25_173 Depth=1
	jmp	.LBB25_181
.LBB25_181:                             # %if.end888
                                        #   in Loop: Header=BB25_173 Depth=1
	movl	-68(%rbp), %eax
	movl	%eax, -16(%rbp)
	movl	-64(%rbp), %eax
	subl	-144(%rbp), %eax
	movl	%eax, -12(%rbp)
	movl	-16(%rbp), %edi
	subl	-24(%rbp), %edi
	callq	abs
	cmpl	48(%rbp), %eax
	jg	.LBB25_188
# %bb.182:                              # %land.lhs.true894
                                        #   in Loop: Header=BB25_173 Depth=1
	movl	-12(%rbp), %edi
	subl	-28(%rbp), %edi
	callq	abs
	cmpl	48(%rbp), %eax
	jg	.LBB25_188
# %bb.183:                              # %if.then899
                                        #   in Loop: Header=BB25_173 Depth=1
	movq	McostState, %rax
	movl	-12(%rbp), %ecx
	subl	-28(%rbp), %ecx
	addl	48(%rbp), %ecx
	movslq	%ecx, %rcx
	movq	(%rax,%rcx,8), %rax
	movl	-16(%rbp), %ecx
	subl	-24(%rbp), %ecx
	addl	48(%rbp), %ecx
	movslq	%ecx, %rcx
	cmpl	$0, (%rax,%rcx,4)
	jne	.LBB25_187
# %bb.184:                              # %if.then909
                                        #   in Loop: Header=BB25_173 Depth=1
	movl	-96(%rbp), %eax
	movq	mvbits, %rdx
	movl	-16(%rbp), %esi
	movl	-32(%rbp), %ecx
                                        # kill: def $cl killed $ecx
	shll	%cl, %esi
	subl	-84(%rbp), %esi
	movslq	%esi, %rcx
	movl	(%rdx,%rcx,4), %edx
	movq	mvbits, %rsi
	movl	-12(%rbp), %edi
	movl	-32(%rbp), %ecx
                                        # kill: def $cl killed $ecx
	shll	%cl, %edi
	subl	-88(%rbp), %edi
	movslq	%edi, %rcx
	addl	(%rsi,%rcx,4), %edx
	imull	%edx, %eax
	sarl	$16, %eax
	movl	%eax, -20(%rbp)
	movq	-128(%rbp), %rdi
	movq	-120(%rbp), %rsi
	movq	-112(%rbp), %rdx
	movl	-80(%rbp), %ecx
	movl	-60(%rbp), %r8d
	movl	-92(%rbp), %r9d
	movl	-20(%rbp), %eax
	movl	56(%rbp), %ebx
	movl	-16(%rbp), %r10d
	movl	-12(%rbp), %r11d
	movl	%eax, (%rsp)
	movl	%ebx, 8(%rsp)
	movl	%r10d, 16(%rsp)
	movl	%r11d, 24(%rsp)
	callq	PartCalMad
	movl	%eax, -20(%rbp)
	movl	-20(%rbp), %eax
	movq	McostState, %rcx
	movl	-12(%rbp), %edx
	subl	-28(%rbp), %edx
	addl	48(%rbp), %edx
	movslq	%edx, %rdx
	movq	(%rcx,%rdx,8), %rcx
	movl	-16(%rbp), %edx
	subl	-24(%rbp), %edx
	addl	48(%rbp), %edx
	movslq	%edx, %rdx
	movl	%eax, (%rcx,%rdx,4)
	movl	-20(%rbp), %eax
	cmpl	56(%rbp), %eax
	jge	.LBB25_186
# %bb.185:                              # %if.then932
                                        #   in Loop: Header=BB25_173 Depth=1
	movl	-16(%rbp), %eax
	movl	%eax, -44(%rbp)
	movl	-12(%rbp), %eax
	movl	%eax, -40(%rbp)
	movl	-20(%rbp), %eax
	movl	%eax, 56(%rbp)
.LBB25_186:                             # %if.end933
                                        #   in Loop: Header=BB25_173 Depth=1
	jmp	.LBB25_187
.LBB25_187:                             # %if.end934
                                        #   in Loop: Header=BB25_173 Depth=1
	jmp	.LBB25_188
.LBB25_188:                             # %if.end935
                                        #   in Loop: Header=BB25_173 Depth=1
	jmp	.LBB25_189
.LBB25_189:                             # %for.inc936
                                        #   in Loop: Header=BB25_173 Depth=1
	movl	-52(%rbp), %eax
	addl	$1, %eax
	movl	%eax, -52(%rbp)
	jmp	.LBB25_173
.LBB25_190:                             # %for.end938
	movswl	-46(%rbp), %eax
	cmpl	$0, %eax
	jle	.LBB25_197
# %bb.191:                              # %if.then942
	movl	56(%rbp), %eax
	subl	pred_SAD_ref, %eax
	vcvtsi2ss	%eax, %xmm0, %xmm0
	vcvtsi2ssl	pred_SAD_ref, %xmm0, %xmm1
	vmulss	-72(%rbp), %xmm1, %xmm1
	vucomiss	%xmm0, %xmm1
	jbe	.LBB25_193
# %bb.192:                              # %if.then949
	jmp	.LBB25_301
.LBB25_193:                             # %if.else950
	movl	56(%rbp), %eax
	subl	pred_SAD_ref, %eax
	vcvtsi2ss	%eax, %xmm0, %xmm0
	vcvtsi2ssl	pred_SAD_ref, %xmm0, %xmm1
	vmulss	-76(%rbp), %xmm1, %xmm1
	vucomiss	%xmm0, %xmm1
	jbe	.LBB25_195
# %bb.194:                              # %if.then957
	jmp	.LBB25_282
.LBB25_195:                             # %if.end958
	jmp	.LBB25_196
.LBB25_196:                             # %if.end959
	jmp	.LBB25_211
.LBB25_197:                             # %if.else960
	cmpl	$1, -56(%rbp)
	jle	.LBB25_204
# %bb.198:                              # %if.then963
	movl	56(%rbp), %eax
	subl	pred_SAD_uplayer, %eax
	vcvtsi2ss	%eax, %xmm0, %xmm0
	vcvtsi2ssl	pred_SAD_uplayer, %xmm0, %xmm1
	vmulss	-72(%rbp), %xmm1, %xmm1
	vucomiss	%xmm0, %xmm1
	jbe	.LBB25_200
# %bb.199:                              # %if.then970
	jmp	.LBB25_301
.LBB25_200:                             # %if.else971
	movl	56(%rbp), %eax
	subl	pred_SAD_uplayer, %eax
	vcvtsi2ss	%eax, %xmm0, %xmm0
	vcvtsi2ssl	pred_SAD_uplayer, %xmm0, %xmm1
	vmulss	-76(%rbp), %xmm1, %xmm1
	vucomiss	%xmm0, %xmm1
	jbe	.LBB25_202
# %bb.201:                              # %if.then978
	jmp	.LBB25_282
.LBB25_202:                             # %if.end979
	jmp	.LBB25_203
.LBB25_203:                             # %if.end980
	jmp	.LBB25_210
.LBB25_204:                             # %if.else981
	movl	56(%rbp), %eax
	subl	pred_SAD_space, %eax
	vcvtsi2ss	%eax, %xmm0, %xmm0
	vcvtsi2ssl	pred_SAD_space, %xmm0, %xmm1
	vmulss	-72(%rbp), %xmm1, %xmm1
	vucomiss	%xmm0, %xmm1
	jbe	.LBB25_206
# %bb.205:                              # %if.then988
	jmp	.LBB25_301
.LBB25_206:                             # %if.else989
	movl	56(%rbp), %eax
	subl	pred_SAD_space, %eax
	vcvtsi2ss	%eax, %xmm0, %xmm0
	vcvtsi2ssl	pred_SAD_space, %xmm0, %xmm1
	vmulss	-76(%rbp), %xmm1, %xmm1
	vucomiss	%xmm0, %xmm1
	jbe	.LBB25_208
# %bb.207:                              # %if.then996
	jmp	.LBB25_282
.LBB25_208:                             # %if.end997
	jmp	.LBB25_209
.LBB25_209:                             # %if.end998
	jmp	.LBB25_210
.LBB25_210:                             # %if.end999
	jmp	.LBB25_211
.LBB25_211:                             # %if.end1000
	movl	-44(%rbp), %eax
	movl	%eax, -68(%rbp)
	movl	-40(%rbp), %eax
	movl	%eax, -64(%rbp)
	movl	$1, -140(%rbp)
.LBB25_212:                             # %for.cond1001
                                        # =>This Inner Loop Header: Depth=1
	cmpl	$25, -140(%rbp)
	jge	.LBB25_222
# %bb.213:                              # %for.body1004
                                        #   in Loop: Header=BB25_212 Depth=1
	movl	-68(%rbp), %eax
	movq	spiral_search_x, %rcx
	movslq	-140(%rbp), %rdx
	addl	(%rcx,%rdx,4), %eax
	movl	%eax, -16(%rbp)
	movl	-64(%rbp), %eax
	movq	spiral_search_y, %rcx
	movslq	-140(%rbp), %rdx
	addl	(%rcx,%rdx,4), %eax
	movl	%eax, -12(%rbp)
	movl	-16(%rbp), %edi
	subl	-24(%rbp), %edi
	callq	abs
	cmpl	48(%rbp), %eax
	jg	.LBB25_220
# %bb.214:                              # %land.lhs.true1015
                                        #   in Loop: Header=BB25_212 Depth=1
	movl	-12(%rbp), %edi
	subl	-28(%rbp), %edi
	callq	abs
	cmpl	48(%rbp), %eax
	jg	.LBB25_220
# %bb.215:                              # %if.then1020
                                        #   in Loop: Header=BB25_212 Depth=1
	movq	McostState, %rax
	movl	-12(%rbp), %ecx
	subl	-28(%rbp), %ecx
	addl	48(%rbp), %ecx
	movslq	%ecx, %rcx
	movq	(%rax,%rcx,8), %rax
	movl	-16(%rbp), %ecx
	subl	-24(%rbp), %ecx
	addl	48(%rbp), %ecx
	movslq	%ecx, %rcx
	cmpl	$0, (%rax,%rcx,4)
	jne	.LBB25_219
# %bb.216:                              # %if.then1030
                                        #   in Loop: Header=BB25_212 Depth=1
	movl	-96(%rbp), %eax
	movq	mvbits, %rdx
	movl	-16(%rbp), %esi
	movl	-32(%rbp), %ecx
                                        # kill: def $cl killed $ecx
	shll	%cl, %esi
	subl	-84(%rbp), %esi
	movslq	%esi, %rcx
	movl	(%rdx,%rcx,4), %edx
	movq	mvbits, %rsi
	movl	-12(%rbp), %edi
	movl	-32(%rbp), %ecx
                                        # kill: def $cl killed $ecx
	shll	%cl, %edi
	subl	-88(%rbp), %edi
	movslq	%edi, %rcx
	addl	(%rsi,%rcx,4), %edx
	imull	%edx, %eax
	sarl	$16, %eax
	movl	%eax, -20(%rbp)
	movq	-128(%rbp), %rdi
	movq	-120(%rbp), %rsi
	movq	-112(%rbp), %rdx
	movl	-80(%rbp), %ecx
	movl	-60(%rbp), %r8d
	movl	-92(%rbp), %r9d
	movl	-20(%rbp), %eax
	movl	56(%rbp), %ebx
	movl	-16(%rbp), %r10d
	movl	-12(%rbp), %r11d
	movl	%eax, (%rsp)
	movl	%ebx, 8(%rsp)
	movl	%r10d, 16(%rsp)
	movl	%r11d, 24(%rsp)
	callq	PartCalMad
	movl	%eax, -20(%rbp)
	movl	-20(%rbp), %eax
	movq	McostState, %rcx
	movl	-12(%rbp), %edx
	subl	-28(%rbp), %edx
	addl	48(%rbp), %edx
	movslq	%edx, %rdx
	movq	(%rcx,%rdx,8), %rcx
	movl	-16(%rbp), %edx
	subl	-24(%rbp), %edx
	addl	48(%rbp), %edx
	movslq	%edx, %rdx
	movl	%eax, (%rcx,%rdx,4)
	movl	-20(%rbp), %eax
	cmpl	56(%rbp), %eax
	jge	.LBB25_218
# %bb.217:                              # %if.then1053
                                        #   in Loop: Header=BB25_212 Depth=1
	movl	-16(%rbp), %eax
	movl	%eax, -44(%rbp)
	movl	-12(%rbp), %eax
	movl	%eax, -40(%rbp)
	movl	-20(%rbp), %eax
	movl	%eax, 56(%rbp)
.LBB25_218:                             # %if.end1054
                                        #   in Loop: Header=BB25_212 Depth=1
	jmp	.LBB25_219
.LBB25_219:                             # %if.end1055
                                        #   in Loop: Header=BB25_212 Depth=1
	jmp	.LBB25_220
.LBB25_220:                             # %if.end1056
                                        #   in Loop: Header=BB25_212 Depth=1
	jmp	.LBB25_221
.LBB25_221:                             # %for.inc1057
                                        #   in Loop: Header=BB25_212 Depth=1
	movl	-140(%rbp), %eax
	addl	$1, %eax
	movl	%eax, -140(%rbp)
	jmp	.LBB25_212
.LBB25_222:                             # %for.end1059
	movswl	-46(%rbp), %eax
	cmpl	$0, %eax
	jle	.LBB25_229
# %bb.223:                              # %if.then1063
	movl	56(%rbp), %eax
	subl	pred_SAD_ref, %eax
	vcvtsi2ss	%eax, %xmm0, %xmm0
	vcvtsi2ssl	pred_SAD_ref, %xmm0, %xmm1
	vmulss	-72(%rbp), %xmm1, %xmm1
	vucomiss	%xmm0, %xmm1
	jbe	.LBB25_225
# %bb.224:                              # %if.then1070
	jmp	.LBB25_301
.LBB25_225:                             # %if.else1071
	movl	56(%rbp), %eax
	subl	pred_SAD_ref, %eax
	vcvtsi2ss	%eax, %xmm0, %xmm0
	vcvtsi2ssl	pred_SAD_ref, %xmm0, %xmm1
	vmulss	-76(%rbp), %xmm1, %xmm1
	vucomiss	%xmm0, %xmm1
	jbe	.LBB25_227
# %bb.226:                              # %if.then1078
	jmp	.LBB25_282
.LBB25_227:                             # %if.end1079
	jmp	.LBB25_228
.LBB25_228:                             # %if.end1080
	jmp	.LBB25_243
.LBB25_229:                             # %if.else1081
	cmpl	$1, -56(%rbp)
	jle	.LBB25_236
# %bb.230:                              # %if.then1084
	movl	56(%rbp), %eax
	subl	pred_SAD_uplayer, %eax
	vcvtsi2ss	%eax, %xmm0, %xmm0
	vcvtsi2ssl	pred_SAD_uplayer, %xmm0, %xmm1
	vmulss	-72(%rbp), %xmm1, %xmm1
	vucomiss	%xmm0, %xmm1
	jbe	.LBB25_232
# %bb.231:                              # %if.then1091
	jmp	.LBB25_301
.LBB25_232:                             # %if.else1092
	movl	56(%rbp), %eax
	subl	pred_SAD_uplayer, %eax
	vcvtsi2ss	%eax, %xmm0, %xmm0
	vcvtsi2ssl	pred_SAD_uplayer, %xmm0, %xmm1
	vmulss	-76(%rbp), %xmm1, %xmm1
	vucomiss	%xmm0, %xmm1
	jbe	.LBB25_234
# %bb.233:                              # %if.then1099
	jmp	.LBB25_282
.LBB25_234:                             # %if.end1100
	jmp	.LBB25_235
.LBB25_235:                             # %if.end1101
	jmp	.LBB25_242
.LBB25_236:                             # %if.else1102
	movl	56(%rbp), %eax
	subl	pred_SAD_space, %eax
	vcvtsi2ss	%eax, %xmm0, %xmm0
	vcvtsi2ssl	pred_SAD_space, %xmm0, %xmm1
	vmulss	-72(%rbp), %xmm1, %xmm1
	vucomiss	%xmm0, %xmm1
	jbe	.LBB25_238
# %bb.237:                              # %if.then1109
	jmp	.LBB25_301
.LBB25_238:                             # %if.else1110
	movl	56(%rbp), %eax
	subl	pred_SAD_space, %eax
	vcvtsi2ss	%eax, %xmm0, %xmm0
	vcvtsi2ssl	pred_SAD_space, %xmm0, %xmm1
	vmulss	-76(%rbp), %xmm1, %xmm1
	vucomiss	%xmm0, %xmm1
	jbe	.LBB25_240
# %bb.239:                              # %if.then1117
	jmp	.LBB25_282
.LBB25_240:                             # %if.end1118
	jmp	.LBB25_241
.LBB25_241:                             # %if.end1119
	jmp	.LBB25_242
.LBB25_242:                             # %if.end1120
	jmp	.LBB25_243
.LBB25_243:                             # %if.end1121
	movl	$1, -52(%rbp)
.LBB25_244:                             # %for.cond1122
                                        # =>This Loop Header: Depth=1
                                        #     Child Loop BB25_246 Depth 2
	movl	-52(%rbp), %ecx
	movl	48(%rbp), %eax
	cltd
	movl	$4, %esi
	idivl	%esi
	cmpl	%eax, %ecx
	jg	.LBB25_281
# %bb.245:                              # %for.body1126
                                        #   in Loop: Header=BB25_244 Depth=1
	movl	$0, -132(%rbp)
	movl	$0, -36(%rbp)
.LBB25_246:                             # %for.cond1127
                                        #   Parent Loop BB25_244 Depth=1
                                        # =>  This Inner Loop Header: Depth=2
	cmpl	$16, -36(%rbp)
	jge	.LBB25_256
# %bb.247:                              # %for.body1130
                                        #   in Loop: Header=BB25_246 Depth=2
	movl	-68(%rbp), %eax
	movslq	-36(%rbp), %rcx
	movl	FastIntegerPelBlockMotionSearch.Big_Hexagon_x(,%rcx,4), %ecx
	imull	-52(%rbp), %ecx
	addl	%ecx, %eax
	movl	%eax, -16(%rbp)
	movl	-64(%rbp), %eax
	movslq	-36(%rbp), %rcx
	movl	FastIntegerPelBlockMotionSearch.Big_Hexagon_y(,%rcx,4), %ecx
	imull	-52(%rbp), %ecx
	addl	%ecx, %eax
	movl	%eax, -12(%rbp)
	movl	-16(%rbp), %edi
	subl	-24(%rbp), %edi
	callq	abs
	cmpl	48(%rbp), %eax
	jg	.LBB25_254
# %bb.248:                              # %land.lhs.true1143
                                        #   in Loop: Header=BB25_246 Depth=2
	movl	-12(%rbp), %edi
	subl	-28(%rbp), %edi
	callq	abs
	cmpl	48(%rbp), %eax
	jg	.LBB25_254
# %bb.249:                              # %if.then1148
                                        #   in Loop: Header=BB25_246 Depth=2
	movq	McostState, %rax
	movl	-12(%rbp), %ecx
	subl	-28(%rbp), %ecx
	addl	48(%rbp), %ecx
	movslq	%ecx, %rcx
	movq	(%rax,%rcx,8), %rax
	movl	-16(%rbp), %ecx
	subl	-24(%rbp), %ecx
	addl	48(%rbp), %ecx
	movslq	%ecx, %rcx
	cmpl	$0, (%rax,%rcx,4)
	jne	.LBB25_253
# %bb.250:                              # %if.then1158
                                        #   in Loop: Header=BB25_246 Depth=2
	movl	-96(%rbp), %eax
	movq	mvbits, %rdx
	movl	-16(%rbp), %esi
	movl	-32(%rbp), %ecx
                                        # kill: def $cl killed $ecx
	shll	%cl, %esi
	subl	-84(%rbp), %esi
	movslq	%esi, %rcx
	movl	(%rdx,%rcx,4), %edx
	movq	mvbits, %rsi
	movl	-12(%rbp), %edi
	movl	-32(%rbp), %ecx
                                        # kill: def $cl killed $ecx
	shll	%cl, %edi
	subl	-88(%rbp), %edi
	movslq	%edi, %rcx
	addl	(%rsi,%rcx,4), %edx
	imull	%edx, %eax
	sarl	$16, %eax
	movl	%eax, -20(%rbp)
	movq	-128(%rbp), %rdi
	movq	-120(%rbp), %rsi
	movq	-112(%rbp), %rdx
	movl	-80(%rbp), %ecx
	movl	-60(%rbp), %r8d
	movl	-92(%rbp), %r9d
	movl	-20(%rbp), %eax
	movl	56(%rbp), %ebx
	movl	-16(%rbp), %r10d
	movl	-12(%rbp), %r11d
	movl	%eax, (%rsp)
	movl	%ebx, 8(%rsp)
	movl	%r10d, 16(%rsp)
	movl	%r11d, 24(%rsp)
	callq	PartCalMad
	movl	%eax, -20(%rbp)
	movl	-20(%rbp), %eax
	movq	McostState, %rcx
	movl	-12(%rbp), %edx
	subl	-28(%rbp), %edx
	addl	48(%rbp), %edx
	movslq	%edx, %rdx
	movq	(%rcx,%rdx,8), %rcx
	movl	-16(%rbp), %edx
	subl	-24(%rbp), %edx
	addl	48(%rbp), %edx
	movslq	%edx, %rdx
	movl	%eax, (%rcx,%rdx,4)
	movl	-20(%rbp), %eax
	cmpl	56(%rbp), %eax
	jge	.LBB25_252
# %bb.251:                              # %if.then1181
                                        #   in Loop: Header=BB25_246 Depth=2
	movl	-16(%rbp), %eax
	movl	%eax, -44(%rbp)
	movl	-12(%rbp), %eax
	movl	%eax, -40(%rbp)
	movl	-20(%rbp), %eax
	movl	%eax, 56(%rbp)
	movl	$1, -132(%rbp)
.LBB25_252:                             # %if.end1182
                                        #   in Loop: Header=BB25_246 Depth=2
	jmp	.LBB25_253
.LBB25_253:                             # %if.end1183
                                        #   in Loop: Header=BB25_246 Depth=2
	jmp	.LBB25_254
.LBB25_254:                             # %if.end1184
                                        #   in Loop: Header=BB25_246 Depth=2
	jmp	.LBB25_255
.LBB25_255:                             # %for.inc1185
                                        #   in Loop: Header=BB25_246 Depth=2
	movl	-36(%rbp), %eax
	addl	$1, %eax
	movl	%eax, -36(%rbp)
	jmp	.LBB25_246
.LBB25_256:                             # %for.end1187
                                        #   in Loop: Header=BB25_244 Depth=1
	cmpl	$0, -132(%rbp)
	je	.LBB25_279
# %bb.257:                              # %if.then1189
                                        #   in Loop: Header=BB25_244 Depth=1
	movswl	-46(%rbp), %eax
	cmpl	$0, %eax
	jle	.LBB25_264
# %bb.258:                              # %if.then1193
                                        #   in Loop: Header=BB25_244 Depth=1
	movl	56(%rbp), %eax
	subl	pred_SAD_ref, %eax
	vcvtsi2ss	%eax, %xmm0, %xmm0
	vcvtsi2ssl	pred_SAD_ref, %xmm0, %xmm1
	vmulss	-72(%rbp), %xmm1, %xmm1
	vucomiss	%xmm0, %xmm1
	jbe	.LBB25_260
# %bb.259:                              # %if.then1200
	jmp	.LBB25_301
.LBB25_260:                             # %if.else1201
                                        #   in Loop: Header=BB25_244 Depth=1
	movl	56(%rbp), %eax
	subl	pred_SAD_ref, %eax
	vcvtsi2ss	%eax, %xmm0, %xmm0
	vcvtsi2ssl	pred_SAD_ref, %xmm0, %xmm1
	vmulss	-76(%rbp), %xmm1, %xmm1
	vucomiss	%xmm0, %xmm1
	jbe	.LBB25_262
# %bb.261:                              # %if.then1208
	jmp	.LBB25_282
.LBB25_262:                             # %if.end1209
                                        #   in Loop: Header=BB25_244 Depth=1
	jmp	.LBB25_263
.LBB25_263:                             # %if.end1210
                                        #   in Loop: Header=BB25_244 Depth=1
	jmp	.LBB25_278
.LBB25_264:                             # %if.else1211
                                        #   in Loop: Header=BB25_244 Depth=1
	cmpl	$1, -56(%rbp)
	jle	.LBB25_271
# %bb.265:                              # %if.then1214
                                        #   in Loop: Header=BB25_244 Depth=1
	movl	56(%rbp), %eax
	subl	pred_SAD_uplayer, %eax
	vcvtsi2ss	%eax, %xmm0, %xmm0
	vcvtsi2ssl	pred_SAD_uplayer, %xmm0, %xmm1
	vmulss	-72(%rbp), %xmm1, %xmm1
	vucomiss	%xmm0, %xmm1
	jbe	.LBB25_267
# %bb.266:                              # %if.then1221
	jmp	.LBB25_301
.LBB25_267:                             # %if.else1222
                                        #   in Loop: Header=BB25_244 Depth=1
	movl	56(%rbp), %eax
	subl	pred_SAD_uplayer, %eax
	vcvtsi2ss	%eax, %xmm0, %xmm0
	vcvtsi2ssl	pred_SAD_uplayer, %xmm0, %xmm1
	vmulss	-76(%rbp), %xmm1, %xmm1
	vucomiss	%xmm0, %xmm1
	jbe	.LBB25_269
# %bb.268:                              # %if.then1229
	jmp	.LBB25_282
.LBB25_269:                             # %if.end1230
                                        #   in Loop: Header=BB25_244 Depth=1
	jmp	.LBB25_270
.LBB25_270:                             # %if.end1231
                                        #   in Loop: Header=BB25_244 Depth=1
	jmp	.LBB25_277
.LBB25_271:                             # %if.else1232
                                        #   in Loop: Header=BB25_244 Depth=1
	movl	56(%rbp), %eax
	subl	pred_SAD_space, %eax
	vcvtsi2ss	%eax, %xmm0, %xmm0
	vcvtsi2ssl	pred_SAD_space, %xmm0, %xmm1
	vmulss	-72(%rbp), %xmm1, %xmm1
	vucomiss	%xmm0, %xmm1
	jbe	.LBB25_273
# %bb.272:                              # %if.then1239
	jmp	.LBB25_301
.LBB25_273:                             # %if.else1240
                                        #   in Loop: Header=BB25_244 Depth=1
	movl	56(%rbp), %eax
	subl	pred_SAD_space, %eax
	vcvtsi2ss	%eax, %xmm0, %xmm0
	vcvtsi2ssl	pred_SAD_space, %xmm0, %xmm1
	vmulss	-76(%rbp), %xmm1, %xmm1
	vucomiss	%xmm0, %xmm1
	jbe	.LBB25_275
# %bb.274:                              # %if.then1247
	jmp	.LBB25_282
.LBB25_275:                             # %if.end1248
                                        #   in Loop: Header=BB25_244 Depth=1
	jmp	.LBB25_276
.LBB25_276:                             # %if.end1249
                                        #   in Loop: Header=BB25_244 Depth=1
	jmp	.LBB25_277
.LBB25_277:                             # %if.end1250
                                        #   in Loop: Header=BB25_244 Depth=1
	jmp	.LBB25_278
.LBB25_278:                             # %if.end1251
                                        #   in Loop: Header=BB25_244 Depth=1
	jmp	.LBB25_279
.LBB25_279:                             # %if.end1252
                                        #   in Loop: Header=BB25_244 Depth=1
	jmp	.LBB25_280
.LBB25_280:                             # %for.inc1253
                                        #   in Loop: Header=BB25_244 Depth=1
	movl	-52(%rbp), %eax
	addl	$1, %eax
	movl	%eax, -52(%rbp)
	jmp	.LBB25_244
.LBB25_281:                             # %for.end1255
	jmp	.LBB25_282
.LBB25_282:                             # %sec_step
	movl	-44(%rbp), %eax
	movl	%eax, -68(%rbp)
	movl	-40(%rbp), %eax
	movl	%eax, -64(%rbp)
	movl	$0, -52(%rbp)
.LBB25_283:                             # %for.cond1256
                                        # =>This Loop Header: Depth=1
                                        #     Child Loop BB25_285 Depth 2
	movl	-52(%rbp), %eax
	cmpl	48(%rbp), %eax
	jge	.LBB25_299
# %bb.284:                              # %for.body1259
                                        #   in Loop: Header=BB25_283 Depth=1
	movl	$1, -132(%rbp)
	movl	$0, -36(%rbp)
.LBB25_285:                             # %for.cond1260
                                        #   Parent Loop BB25_283 Depth=1
                                        # =>  This Inner Loop Header: Depth=2
	cmpl	$6, -36(%rbp)
	jge	.LBB25_295
# %bb.286:                              # %for.body1263
                                        #   in Loop: Header=BB25_285 Depth=2
	movl	-68(%rbp), %eax
	movslq	-36(%rbp), %rcx
	addl	FastIntegerPelBlockMotionSearch.Hexagon_x(,%rcx,4), %eax
	movl	%eax, -16(%rbp)
	movl	-64(%rbp), %eax
	movslq	-36(%rbp), %rcx
	addl	FastIntegerPelBlockMotionSearch.Hexagon_y(,%rcx,4), %eax
	movl	%eax, -12(%rbp)
	movl	-16(%rbp), %edi
	subl	-24(%rbp), %edi
	callq	abs
	cmpl	48(%rbp), %eax
	jg	.LBB25_293
# %bb.287:                              # %land.lhs.true1274
                                        #   in Loop: Header=BB25_285 Depth=2
	movl	-12(%rbp), %edi
	subl	-28(%rbp), %edi
	callq	abs
	cmpl	48(%rbp), %eax
	jg	.LBB25_293
# %bb.288:                              # %if.then1279
                                        #   in Loop: Header=BB25_285 Depth=2
	movq	McostState, %rax
	movl	-12(%rbp), %ecx
	subl	-28(%rbp), %ecx
	addl	48(%rbp), %ecx
	movslq	%ecx, %rcx
	movq	(%rax,%rcx,8), %rax
	movl	-16(%rbp), %ecx
	subl	-24(%rbp), %ecx
	addl	48(%rbp), %ecx
	movslq	%ecx, %rcx
	cmpl	$0, (%rax,%rcx,4)
	jne	.LBB25_292
# %bb.289:                              # %if.then1289
                                        #   in Loop: Header=BB25_285 Depth=2
	movl	-96(%rbp), %eax
	movq	mvbits, %rdx
	movl	-16(%rbp), %esi
	movl	-32(%rbp), %ecx
                                        # kill: def $cl killed $ecx
	shll	%cl, %esi
	subl	-84(%rbp), %esi
	movslq	%esi, %rcx
	movl	(%rdx,%rcx,4), %edx
	movq	mvbits, %rsi
	movl	-12(%rbp), %edi
	movl	-32(%rbp), %ecx
                                        # kill: def $cl killed $ecx
	shll	%cl, %edi
	subl	-88(%rbp), %edi
	movslq	%edi, %rcx
	addl	(%rsi,%rcx,4), %edx
	imull	%edx, %eax
	sarl	$16, %eax
	movl	%eax, -20(%rbp)
	movq	-128(%rbp), %rdi
	movq	-120(%rbp), %rsi
	movq	-112(%rbp), %rdx
	movl	-80(%rbp), %ecx
	movl	-60(%rbp), %r8d
	movl	-92(%rbp), %r9d
	movl	-20(%rbp), %eax
	movl	56(%rbp), %ebx
	movl	-16(%rbp), %r10d
	movl	-12(%rbp), %r11d
	movl	%eax, (%rsp)
	movl	%ebx, 8(%rsp)
	movl	%r10d, 16(%rsp)
	movl	%r11d, 24(%rsp)
	callq	PartCalMad
	movl	%eax, -20(%rbp)
	movl	-20(%rbp), %eax
	movq	McostState, %rcx
	movl	-12(%rbp), %edx
	subl	-28(%rbp), %edx
	addl	48(%rbp), %edx
	movslq	%edx, %rdx
	movq	(%rcx,%rdx,8), %rcx
	movl	-16(%rbp), %edx
	subl	-24(%rbp), %edx
	addl	48(%rbp), %edx
	movslq	%edx, %rdx
	movl	%eax, (%rcx,%rdx,4)
	movl	-20(%rbp), %eax
	cmpl	56(%rbp), %eax
	jge	.LBB25_291
# %bb.290:                              # %if.then1312
                                        #   in Loop: Header=BB25_285 Depth=2
	movl	-16(%rbp), %eax
	movl	%eax, -44(%rbp)
	movl	-12(%rbp), %eax
	movl	%eax, -40(%rbp)
	movl	-20(%rbp), %eax
	movl	%eax, 56(%rbp)
	movl	$0, -132(%rbp)
.LBB25_291:                             # %if.end1313
                                        #   in Loop: Header=BB25_285 Depth=2
	jmp	.LBB25_292
.LBB25_292:                             # %if.end1314
                                        #   in Loop: Header=BB25_285 Depth=2
	jmp	.LBB25_293
.LBB25_293:                             # %if.end1315
                                        #   in Loop: Header=BB25_285 Depth=2
	jmp	.LBB25_294
.LBB25_294:                             # %for.inc1316
                                        #   in Loop: Header=BB25_285 Depth=2
	movl	-36(%rbp), %eax
	addl	$1, %eax
	movl	%eax, -36(%rbp)
	jmp	.LBB25_285
.LBB25_295:                             # %for.end1318
                                        #   in Loop: Header=BB25_283 Depth=1
	cmpl	$0, -132(%rbp)
	je	.LBB25_297
# %bb.296:                              # %if.then1320
	jmp	.LBB25_300
.LBB25_297:                             # %if.end1321
                                        #   in Loop: Header=BB25_283 Depth=1
	movl	-44(%rbp), %eax
	movl	%eax, -68(%rbp)
	movl	-40(%rbp), %eax
	movl	%eax, -64(%rbp)
# %bb.298:                              # %for.inc1322
                                        #   in Loop: Header=BB25_283 Depth=1
	movl	-52(%rbp), %eax
	addl	$1, %eax
	movl	%eax, -52(%rbp)
	jmp	.LBB25_283
.LBB25_299:                             # %for.end1324.loopexit
	jmp	.LBB25_300
.LBB25_300:                             # %for.end1324
	jmp	.LBB25_301
.LBB25_301:                             # %third_step
	movl	-44(%rbp), %eax
	movl	%eax, -68(%rbp)
	movl	-40(%rbp), %eax
	movl	%eax, -64(%rbp)
	movl	$0, -52(%rbp)
.LBB25_302:                             # %for.cond1325
                                        # =>This Loop Header: Depth=1
                                        #     Child Loop BB25_304 Depth 2
	movl	-52(%rbp), %eax
	cmpl	48(%rbp), %eax
	jge	.LBB25_318
# %bb.303:                              # %for.body1328
                                        #   in Loop: Header=BB25_302 Depth=1
	movl	$65536, -172(%rbp)      # imm = 0x10000
	movl	$1, -132(%rbp)
	movl	$0, -36(%rbp)
.LBB25_304:                             # %for.cond1329
                                        #   Parent Loop BB25_302 Depth=1
                                        # =>  This Inner Loop Header: Depth=2
	cmpl	$4, -36(%rbp)
	jge	.LBB25_314
# %bb.305:                              # %for.body1332
                                        #   in Loop: Header=BB25_304 Depth=2
	movl	-68(%rbp), %eax
	movslq	-36(%rbp), %rcx
	addl	FastIntegerPelBlockMotionSearch.Diamond_x(,%rcx,4), %eax
	movl	%eax, -16(%rbp)
	movl	-64(%rbp), %eax
	movslq	-36(%rbp), %rcx
	addl	FastIntegerPelBlockMotionSearch.Diamond_y(,%rcx,4), %eax
	movl	%eax, -12(%rbp)
	movl	-16(%rbp), %edi
	subl	-24(%rbp), %edi
	callq	abs
	cmpl	48(%rbp), %eax
	jg	.LBB25_312
# %bb.306:                              # %land.lhs.true1343
                                        #   in Loop: Header=BB25_304 Depth=2
	movl	-12(%rbp), %edi
	subl	-28(%rbp), %edi
	callq	abs
	cmpl	48(%rbp), %eax
	jg	.LBB25_312
# %bb.307:                              # %if.then1348
                                        #   in Loop: Header=BB25_304 Depth=2
	movq	McostState, %rax
	movl	-12(%rbp), %ecx
	subl	-28(%rbp), %ecx
	addl	48(%rbp), %ecx
	movslq	%ecx, %rcx
	movq	(%rax,%rcx,8), %rax
	movl	-16(%rbp), %ecx
	subl	-24(%rbp), %ecx
	addl	48(%rbp), %ecx
	movslq	%ecx, %rcx
	cmpl	$0, (%rax,%rcx,4)
	jne	.LBB25_311
# %bb.308:                              # %if.then1358
                                        #   in Loop: Header=BB25_304 Depth=2
	movl	-96(%rbp), %eax
	movq	mvbits, %rdx
	movl	-16(%rbp), %esi
	movl	-32(%rbp), %ecx
                                        # kill: def $cl killed $ecx
	shll	%cl, %esi
	subl	-84(%rbp), %esi
	movslq	%esi, %rcx
	movl	(%rdx,%rcx,4), %edx
	movq	mvbits, %rsi
	movl	-12(%rbp), %edi
	movl	-32(%rbp), %ecx
                                        # kill: def $cl killed $ecx
	shll	%cl, %edi
	subl	-88(%rbp), %edi
	movslq	%edi, %rcx
	addl	(%rsi,%rcx,4), %edx
	imull	%edx, %eax
	sarl	$16, %eax
	movl	%eax, -20(%rbp)
	movq	-128(%rbp), %rdi
	movq	-120(%rbp), %rsi
	movq	-112(%rbp), %rdx
	movl	-80(%rbp), %ecx
	movl	-60(%rbp), %r8d
	movl	-92(%rbp), %r9d
	movl	-20(%rbp), %eax
	movl	56(%rbp), %ebx
	movl	-16(%rbp), %r10d
	movl	-12(%rbp), %r11d
	movl	%eax, (%rsp)
	movl	%ebx, 8(%rsp)
	movl	%r10d, 16(%rsp)
	movl	%r11d, 24(%rsp)
	callq	PartCalMad
	movl	%eax, -20(%rbp)
	movl	-20(%rbp), %eax
	movq	McostState, %rcx
	movl	-12(%rbp), %edx
	subl	-28(%rbp), %edx
	addl	48(%rbp), %edx
	movslq	%edx, %rdx
	movq	(%rcx,%rdx,8), %rcx
	movl	-16(%rbp), %edx
	subl	-24(%rbp), %edx
	addl	48(%rbp), %edx
	movslq	%edx, %rdx
	movl	%eax, (%rcx,%rdx,4)
	movl	-20(%rbp), %eax
	cmpl	56(%rbp), %eax
	jge	.LBB25_310
# %bb.309:                              # %if.then1381
                                        #   in Loop: Header=BB25_304 Depth=2
	movl	-16(%rbp), %eax
	movl	%eax, -44(%rbp)
	movl	-12(%rbp), %eax
	movl	%eax, -40(%rbp)
	movl	-20(%rbp), %eax
	movl	%eax, 56(%rbp)
	movl	$0, -132(%rbp)
.LBB25_310:                             # %if.end1382
                                        #   in Loop: Header=BB25_304 Depth=2
	jmp	.LBB25_311
.LBB25_311:                             # %if.end1383
                                        #   in Loop: Header=BB25_304 Depth=2
	jmp	.LBB25_312
.LBB25_312:                             # %if.end1384
                                        #   in Loop: Header=BB25_304 Depth=2
	jmp	.LBB25_313
.LBB25_313:                             # %for.inc1385
                                        #   in Loop: Header=BB25_304 Depth=2
	movl	-36(%rbp), %eax
	addl	$1, %eax
	movl	%eax, -36(%rbp)
	jmp	.LBB25_304
.LBB25_314:                             # %for.end1387
                                        #   in Loop: Header=BB25_302 Depth=1
	cmpl	$0, -132(%rbp)
	je	.LBB25_316
# %bb.315:                              # %if.then1389
	jmp	.LBB25_319
.LBB25_316:                             # %if.end1390
                                        #   in Loop: Header=BB25_302 Depth=1
	movl	-44(%rbp), %eax
	movl	%eax, -68(%rbp)
	movl	-40(%rbp), %eax
	movl	%eax, -64(%rbp)
# %bb.317:                              # %for.inc1391
                                        #   in Loop: Header=BB25_302 Depth=1
	movl	-52(%rbp), %eax
	addl	$1, %eax
	movl	%eax, -52(%rbp)
	jmp	.LBB25_302
.LBB25_318:                             # %for.end1393.loopexit
	jmp	.LBB25_319
.LBB25_319:                             # %for.end1393
	movl	-44(%rbp), %eax
	subl	-104(%rbp), %eax
	movq	32(%rbp), %rcx
	movw	%ax, (%rcx)
	movl	-40(%rbp), %eax
	subl	-100(%rbp), %eax
	movq	40(%rbp), %rcx
	movw	%ax, (%rcx)
	movl	56(%rbp), %ebx
	cmpl	$1624804901, -148(%rbp) # imm = 0x60D88E25
	jne	.LBB25_321
.LBB25_320:
	movl	%ebx, %eax
	addq	$200, %rsp
	popq	%rbx
	popq	%rbp
	.cfi_def_cfa %rsp, 8
	retq
.LBB25_321:                             # %func_exit
	.cfi_def_cfa %rbp, 16
	callq	detect_breach
	jmp	.LBB25_320
.Lfunc_end25:
	.size	FastIntegerPelBlockMotionSearch.12, .Lfunc_end25-FastIntegerPelBlockMotionSearch.12
	.cfi_endproc
                                        # -- End function
	.section	.rodata.cst8,"aM",@progbits,8
	.p2align	3               # -- Begin function FastSubPelBlockMotionSearch.13
.LCPI26_0:
	.quad	4602678819172646912     # double 0.5
.LCPI26_1:
	.quad	4679240012837945344     # double 65536
	.text
	.globl	FastSubPelBlockMotionSearch.13
	.p2align	4, 0x90
	.type	FastSubPelBlockMotionSearch.13,@function
FastSubPelBlockMotionSearch.13:         # @FastSubPelBlockMotionSearch.13
	.cfi_startproc
# %bb.0:                                # %entry
	pushq	%rbp
	.cfi_def_cfa_offset 16
	.cfi_offset %rbp, -16
	movq	%rsp, %rbp
	.cfi_def_cfa_register %rbp
	pushq	%r14
	pushq	%rbx
	subq	$208, %rsp
	.cfi_offset %rbx, -32
	.cfi_offset %r14, -24
	movl	72(%rbp), %eax
	movl	64(%rbp), %eax
	movl	56(%rbp), %eax
	movl	48(%rbp), %eax
	movq	40(%rbp), %rax
	movq	32(%rbp), %rax
	movw	24(%rbp), %ax
	movw	16(%rbp), %ax
	movl	$472631585, -132(%rbp)  # imm = 0x1C2BC921
	movq	%rdi, -128(%rbp)
	movw	%si, -78(%rbp)
	movl	%edx, -144(%rbp)
	movl	%ecx, -64(%rbp)
	movl	%r8d, -56(%rbp)
	movl	%r9d, -116(%rbp)
	vmovsd	%xmm0, -160(%rbp)
	movq	img, %rax
	cmpl	$0, 72400(%rax)
	je	.LBB26_3
# %bb.1:                                # %land.lhs.true
	movq	img, %rax
	movq	14168(%rax), %rax
	movq	img, %rcx
	movslq	12(%rcx), %rcx
	imulq	$632, %rcx, %rcx        # imm = 0x278
	addq	%rcx, %rax
	cmpl	$0, 532(%rax)
	je	.LBB26_3
# %bb.2:                                # %cond.true
	movq	img, %rax
	movl	12(%rax), %eax
	cltd
	movl	$2, %ecx
	idivl	%ecx
	cmpl	$0, %edx
	movl	$4, %eax
	cmovnel	%eax, %ecx
	jmp	.LBB26_4
.LBB26_3:                               # %cond.false
	xorl	%ecx, %ecx
	jmp	.LBB26_4
.LBB26_4:                               # %cond.end
	vmovsd	.LCPI26_0(%rip), %xmm0  # xmm0 = mem[0],zero
	vmovsd	.LCPI26_1(%rip), %xmm1  # xmm1 = mem[0],zero
	movl	%ecx, -148(%rbp)
	movl	-144(%rbp), %eax
	addl	-148(%rbp), %eax
	cltq
	movq	listX(,%rax,8), %rax
	movswq	-78(%rbp), %rcx
	movq	(%rax,%rcx,8), %rax
	movq	%rax, -88(%rbp)
	vmulsd	-160(%rbp), %xmm1, %xmm1
	vaddsd	%xmm0, %xmm1, %xmm0
	vcvttsd2si	%xmm0, %eax
	movl	%eax, -72(%rbp)
	movl	$0, -44(%rbp)
	movq	input, %rax
	movslq	-116(%rbp), %rcx
	movl	80(%rax,%rcx,8), %eax
	movl	%eax, -60(%rbp)
	movq	input, %rax
	movslq	-116(%rbp), %rcx
	movl	84(%rax,%rcx,8), %eax
	movl	%eax, -68(%rbp)
	movl	-64(%rbp), %eax
	shll	$2, %eax
	movl	%eax, -112(%rbp)
	movl	-56(%rbp), %eax
	shll	$2, %eax
	movl	%eax, -104(%rbp)
	movq	-88(%rbp), %rax
	movl	6392(%rax), %eax
	subl	-60(%rbp), %eax
	addl	$1, %eax
	shll	$2, %eax
	movl	%eax, -136(%rbp)
	movq	-88(%rbp), %rax
	movl	6396(%rax), %eax
	subl	-68(%rbp), %eax
	addl	$1, %eax
	shll	$2, %eax
	movl	%eax, -152(%rbp)
	movl	$0, -40(%rbp)
	movl	$0, -36(%rbp)
	movq	32(%rbp), %rax
	movswl	(%rax), %ecx
	shll	$2, %ecx
	movw	%cx, (%rax)
	movq	40(%rbp), %rax
	movswl	(%rax), %ecx
	shll	$2, %ecx
	movw	%cx, (%rax)
	movl	-112(%rbp), %eax
	movq	32(%rbp), %rcx
	movswl	(%rcx), %ecx
	addl	%ecx, %eax
	cmpl	$1, %eax
	jle	.LBB26_9
# %bb.5:                                # %land.lhs.true32
	movl	-112(%rbp), %eax
	movq	32(%rbp), %rcx
	movswl	(%rcx), %ecx
	addl	%ecx, %eax
	movl	-136(%rbp), %ecx
	subl	$2, %ecx
	cmpl	%ecx, %eax
	jge	.LBB26_9
# %bb.6:                                # %land.lhs.true38
	movl	-104(%rbp), %eax
	movq	40(%rbp), %rcx
	movswl	(%rcx), %ecx
	addl	%ecx, %eax
	cmpl	$1, %eax
	jle	.LBB26_9
# %bb.7:                                # %land.lhs.true43
	movl	-104(%rbp), %eax
	movq	40(%rbp), %rcx
	movswl	(%rcx), %ecx
	addl	%ecx, %eax
	movl	-152(%rbp), %ecx
	subl	$2, %ecx
	cmpl	%ecx, %eax
	jge	.LBB26_9
# %bb.8:                                # %if.then
	movabsq	$FastPelY_14, %rax
	movq	%rax, PelY_14
	jmp	.LBB26_10
.LBB26_9:                               # %if.else
	movabsq	$UMVPelY_14, %rax
	movq	%rax, PelY_14
.LBB26_10:                              # %if.end
	movl	$3, -20(%rbp)
	movswl	16(%rbp), %eax
	movq	32(%rbp), %rcx
	movswl	(%rcx), %ecx
	subl	%ecx, %eax
	cltd
	movl	$4, %ecx
	idivl	%ecx
	movl	%edx, -96(%rbp)
	movswl	24(%rbp), %eax
	movq	40(%rbp), %rdx
	movswl	(%rdx), %edx
	subl	%edx, %eax
	cltd
	idivl	%ecx
	movl	%edx, -100(%rbp)
	movl	pred_MV_uplayer, %eax
	movq	32(%rbp), %rdx
	movswl	(%rdx), %edx
	subl	%edx, %eax
	cltd
	idivl	%ecx
	movl	%edx, -172(%rbp)
	movl	pred_MV_uplayer+4, %eax
	movq	40(%rbp), %rdx
	movswl	(%rdx), %edx
	subl	%edx, %eax
	cltd
	idivl	%ecx
	movl	%edx, -164(%rbp)
	movq	SearchState, %rax
	movq	(%rax), %rdi
	movl	-20(%rbp), %eax
	shll	$1, %eax
	addl	$1, %eax
	movl	-20(%rbp), %ecx
	shll	$1, %ecx
	addl	$1, %ecx
	imull	%ecx, %eax
	movslq	%eax, %rdx
	xorl	%esi, %esi
	callq	memset
	movq	input, %rax
	cmpl	$0, 24(%rax)
	je	.LBB26_14
# %bb.11:                               # %if.then71
	movq	32(%rbp), %rax
	movswl	(%rax), %eax
	movl	%eax, -28(%rbp)
	movq	40(%rbp), %rax
	movswl	(%rax), %eax
	movl	%eax, -24(%rbp)
	movl	-72(%rbp), %eax
	movq	mvbits, %rdx
	movl	-28(%rbp), %esi
	movl	-44(%rbp), %ecx
                                        # kill: def $cl killed $ecx
	shll	%cl, %esi
	movswl	16(%rbp), %ecx
	subl	%ecx, %esi
	movslq	%esi, %rcx
	movl	(%rdx,%rcx,4), %edx
	movq	mvbits, %rsi
	movl	-24(%rbp), %edi
	movl	-44(%rbp), %ecx
                                        # kill: def $cl killed $ecx
	shll	%cl, %edi
	movswl	24(%rbp), %ecx
	subl	%ecx, %edi
	movslq	%edi, %rcx
	addl	(%rsi,%rcx,4), %edx
	imull	%edx, %eax
	sarl	$16, %eax
	movl	%eax, -48(%rbp)
	movl	-64(%rbp), %edi
	movl	-56(%rbp), %esi
	movl	-60(%rbp), %edx
	movl	-68(%rbp), %ecx
	movl	-28(%rbp), %r8d
	movl	-24(%rbp), %r9d
	movq	-88(%rbp), %rax
	movq	-128(%rbp), %rbx
	movl	-48(%rbp), %r10d
	movl	64(%rbp), %r11d
	movl	72(%rbp), %r14d
	movq	%rax, (%rsp)
	movq	%rbx, 8(%rsp)
	movl	%r10d, 16(%rsp)
	movl	%r11d, 24(%rsp)
	movl	%r14d, 32(%rsp)
	callq	AddUpSADQuarter
	movl	%eax, -32(%rbp)
	movq	SearchState, %rax
	movslq	-20(%rbp), %rcx
	movq	(%rax,%rcx,8), %rax
	movslq	-20(%rbp), %rcx
	movb	$1, (%rax,%rcx)
	movl	-32(%rbp), %eax
	cmpl	64(%rbp), %eax
	jge	.LBB26_13
# %bb.12:                               # %if.then92
	movl	-32(%rbp), %eax
	movl	%eax, 64(%rbp)
	movl	-28(%rbp), %eax
	movl	%eax, -40(%rbp)
	movl	-24(%rbp), %eax
	movl	%eax, -36(%rbp)
.LBB26_13:                              # %if.end93
	jmp	.LBB26_15
.LBB26_14:                              # %if.else94
	movq	SearchState, %rax
	movslq	-20(%rbp), %rcx
	movq	(%rax,%rcx,8), %rax
	movslq	-20(%rbp), %rcx
	movb	$1, (%rax,%rcx)
	movq	32(%rbp), %rax
	movswl	(%rax), %eax
	movl	%eax, -40(%rbp)
	movq	40(%rbp), %rax
	movswl	(%rax), %eax
	movl	%eax, -36(%rbp)
.LBB26_15:                              # %if.end101
	cmpl	$0, -96(%rbp)
	jne	.LBB26_17
# %bb.16:                               # %lor.lhs.false
	cmpl	$0, -100(%rbp)
	je	.LBB26_20
.LBB26_17:                              # %if.then106
	movq	32(%rbp), %rax
	movswl	(%rax), %eax
	addl	-96(%rbp), %eax
	movl	%eax, -28(%rbp)
	movq	40(%rbp), %rax
	movswl	(%rax), %eax
	addl	-100(%rbp), %eax
	movl	%eax, -24(%rbp)
	movl	-72(%rbp), %eax
	movq	mvbits, %rdx
	movl	-28(%rbp), %esi
	movl	-44(%rbp), %ecx
                                        # kill: def $cl killed $ecx
	shll	%cl, %esi
	movswl	16(%rbp), %ecx
	subl	%ecx, %esi
	movslq	%esi, %rcx
	movl	(%rdx,%rcx,4), %edx
	movq	mvbits, %rsi
	movl	-24(%rbp), %edi
	movl	-44(%rbp), %ecx
                                        # kill: def $cl killed $ecx
	shll	%cl, %edi
	movswl	24(%rbp), %ecx
	subl	%ecx, %edi
	movslq	%edi, %rcx
	addl	(%rsi,%rcx,4), %edx
	imull	%edx, %eax
	sarl	$16, %eax
	movl	%eax, -48(%rbp)
	movl	-64(%rbp), %edi
	movl	-56(%rbp), %esi
