	.text
	.file	"fast_me.c"
	.section	.rodata.cst4,"aM",@progbits,4
	.p2align	2               # -- Begin function DefineThreshold
.LCPI0_0:
	.long	1041865114              # float 0.150000006
.LCPI0_1:
	.long	1038174126              # float 0.109999999
.LCPI0_2:
	.long	1039516303              # float 0.119999997
.LCPI0_3:
	.long	1034147594              # float 0.0799999982
.LCPI0_4:
	.long	1032805417              # float 0.0700000003
.LCPI0_5:
	.long	1031127695              # float 0.0599999987
.LCPI0_6:
	.long	1025758986              # float 0.0399999991
.LCPI0_7:
	.long	1022739087              # float 0.0299999993
.LCPI0_8:
	.long	1017370378              # float 0.0199999996
.LCPI0_9:
	.long	1008981770              # float 0.00999999977
	.text
	.globl	DefineThreshold
	.p2align	4, 0x90
	.type	DefineThreshold,@function
DefineThreshold:                        # @DefineThreshold
	.cfi_startproc
# %bb.0:                                # %entry
	pushq	%rbp
	.cfi_def_cfa_offset 16
	.cfi_offset %rbp, -16
	movq	%rsp, %rbp
	.cfi_def_cfa_register %rbp
	vmovss	.LCPI0_0(%rip), %xmm8   # xmm8 = mem[0],zero,zero,zero
	vmovss	.LCPI0_1(%rip), %xmm9   # xmm9 = mem[0],zero,zero,zero
	vmovss	.LCPI0_2(%rip), %xmm2   # xmm2 = mem[0],zero,zero,zero
	vmovss	.LCPI0_3(%rip), %xmm3   # xmm3 = mem[0],zero,zero,zero
	vmovss	.LCPI0_4(%rip), %xmm4   # xmm4 = mem[0],zero,zero,zero
	vmovss	.LCPI0_5(%rip), %xmm5   # xmm5 = mem[0],zero,zero,zero
	vmovss	.LCPI0_6(%rip), %xmm6   # xmm6 = mem[0],zero,zero,zero
	vmovss	.LCPI0_7(%rip), %xmm7   # xmm7 = mem[0],zero,zero,zero
	vmovss	.LCPI0_8(%rip), %xmm0   # xmm0 = mem[0],zero,zero,zero
	vmovss	.LCPI0_9(%rip), %xmm1   # xmm1 = mem[0],zero,zero,zero
	vmovss	%xmm1, AlphaSec+4
	vmovss	%xmm1, AlphaSec+8
	vmovss	%xmm1, AlphaSec+12
	vmovss	%xmm0, AlphaSec+16
	vmovss	%xmm7, AlphaSec+20
	vmovss	%xmm7, AlphaSec+24
	vmovss	%xmm6, AlphaSec+28
	vmovss	%xmm5, AlphaThird+4
	vmovss	%xmm4, AlphaThird+8
	vmovss	%xmm4, AlphaThird+12
	vmovss	%xmm3, AlphaThird+16
	vmovss	%xmm2, AlphaThird+20
	vmovss	%xmm9, AlphaThird+24
	vmovss	%xmm8, AlphaThird+28
	callq	DefineThresholdMB
	popq	%rbp
	.cfi_def_cfa %rsp, 8
	retq
.Lfunc_end0:
	.size	DefineThreshold, .Lfunc_end0-DefineThreshold
	.cfi_endproc
                                        # -- End function
	.globl	DefineThresholdMB       # -- Begin function DefineThresholdMB
	.p2align	4, 0x90
	.type	DefineThresholdMB,@function
DefineThresholdMB:                      # @DefineThresholdMB
	.cfi_startproc
# %bb.0:                                # %rand_bb
	pushq	%rbp
	.cfi_def_cfa_offset 16
	.cfi_offset %rbp, -16
	movq	%rsp, %rbp
	.cfi_def_cfa_register %rbp
	callq	get_rand
	cmpl	$0, %eax
	jne	.LBB1_9
# %bb.1:                                # %func_DefineThresholdMB.12
	callq	DefineThresholdMB.12
	popq	%rbp
	.cfi_def_cfa %rsp, 8
	retq
.LBB1_2:                                # %func_DefineThresholdMB.14
	.cfi_def_cfa %rbp, 16
	callq	DefineThresholdMB.14
	popq	%rbp
	.cfi_def_cfa %rsp, 8
	retq
.LBB1_3:                                # %func_DefineThresholdMB.17
	.cfi_def_cfa %rbp, 16
	callq	DefineThresholdMB.17
	popq	%rbp
	.cfi_def_cfa %rsp, 8
	retq
.LBB1_4:                                # %func_DefineThresholdMB.29
	.cfi_def_cfa %rbp, 16
	callq	DefineThresholdMB.29
	popq	%rbp
	.cfi_def_cfa %rsp, 8
	retq
.LBB1_5:                                # %func_DefineThresholdMB.31
	.cfi_def_cfa %rbp, 16
	callq	DefineThresholdMB.31
	popq	%rbp
	.cfi_def_cfa %rsp, 8
	retq
.LBB1_6:                                # %func_DefineThresholdMB.33
	.cfi_def_cfa %rbp, 16
	callq	DefineThresholdMB.33
	popq	%rbp
	.cfi_def_cfa %rsp, 8
	retq
.LBB1_7:                                # %func_DefineThresholdMB.42
	.cfi_def_cfa %rbp, 16
	callq	DefineThresholdMB.42
	popq	%rbp
	.cfi_def_cfa %rsp, 8
	retq
.LBB1_8:                                # %func_DefineThresholdMB.43
	.cfi_def_cfa %rbp, 16
	callq	DefineThresholdMB.43
	popq	%rbp
	.cfi_def_cfa %rsp, 8
	retq
.LBB1_9:                                # %ctrl0
	.cfi_def_cfa %rbp, 16
	cmpl	$1, %eax
	je	.LBB1_2
# %bb.10:                               # %ctrl1
	cmpl	$2, %eax
	je	.LBB1_3
# %bb.11:                               # %ctrl2
	cmpl	$3, %eax
	je	.LBB1_4
# %bb.12:                               # %ctrl3
	cmpl	$4, %eax
	je	.LBB1_5
# %bb.13:                               # %ctrl4
	cmpl	$5, %eax
	je	.LBB1_6
# %bb.14:                               # %ctrl5
	cmpl	$6, %eax
	je	.LBB1_7
	jmp	.LBB1_8
.Lfunc_end1:
	.size	DefineThresholdMB, .Lfunc_end1-DefineThresholdMB
	.cfi_endproc
                                        # -- End function
	.globl	get_mem_mincost         # -- Begin function get_mem_mincost
	.p2align	4, 0x90
	.type	get_mem_mincost,@function
get_mem_mincost:                        # @get_mem_mincost
	.cfi_startproc
# %bb.0:                                # %rand_bb
	pushq	%rbp
	.cfi_def_cfa_offset 16
	.cfi_offset %rbp, -16
	movq	%rsp, %rbp
	.cfi_def_cfa_register %rbp
	pushq	%rbx
	pushq	%rax
	.cfi_offset %rbx, -24
	movq	%rdi, %rbx
	callq	get_rand
	cmpl	$0, %eax
	jne	.LBB2_9
# %bb.1:                                # %func_get_mem_mincost.5
	movq	%rbx, %rdi
	callq	get_mem_mincost.5
	addq	$8, %rsp
	popq	%rbx
	popq	%rbp
	.cfi_def_cfa %rsp, 8
	retq
.LBB2_2:                                # %func_get_mem_mincost.9
	.cfi_def_cfa %rbp, 16
	movq	%rbx, %rdi
	callq	get_mem_mincost.9
	addq	$8, %rsp
	popq	%rbx
	popq	%rbp
	.cfi_def_cfa %rsp, 8
	retq
.LBB2_3:                                # %func_get_mem_mincost.16
	.cfi_def_cfa %rbp, 16
	movq	%rbx, %rdi
	callq	get_mem_mincost.16
	addq	$8, %rsp
	popq	%rbx
	popq	%rbp
	.cfi_def_cfa %rsp, 8
	retq
.LBB2_4:                                # %func_get_mem_mincost.21
	.cfi_def_cfa %rbp, 16
	movq	%rbx, %rdi
	callq	get_mem_mincost.21
	addq	$8, %rsp
	popq	%rbx
	popq	%rbp
	.cfi_def_cfa %rsp, 8
	retq
.LBB2_5:                                # %func_get_mem_mincost.39
	.cfi_def_cfa %rbp, 16
	movq	%rbx, %rdi
	callq	get_mem_mincost.39
	addq	$8, %rsp
	popq	%rbx
	popq	%rbp
	.cfi_def_cfa %rsp, 8
	retq
.LBB2_6:                                # %func_get_mem_mincost.45
	.cfi_def_cfa %rbp, 16
	movq	%rbx, %rdi
	callq	get_mem_mincost.45
	addq	$8, %rsp
	popq	%rbx
	popq	%rbp
	.cfi_def_cfa %rsp, 8
	retq
.LBB2_7:                                # %func_get_mem_mincost.50
	.cfi_def_cfa %rbp, 16
	movq	%rbx, %rdi
	callq	get_mem_mincost.50
	addq	$8, %rsp
	popq	%rbx
	popq	%rbp
	.cfi_def_cfa %rsp, 8
	retq
.LBB2_8:                                # %func_get_mem_mincost.61
	.cfi_def_cfa %rbp, 16
	movq	%rbx, %rdi
	callq	get_mem_mincost.61
	addq	$8, %rsp
	popq	%rbx
	popq	%rbp
	.cfi_def_cfa %rsp, 8
	retq
.LBB2_9:                                # %ctrl0
	.cfi_def_cfa %rbp, 16
	cmpl	$1, %eax
	je	.LBB2_2
# %bb.10:                               # %ctrl1
	cmpl	$2, %eax
	je	.LBB2_3
# %bb.11:                               # %ctrl2
	cmpl	$3, %eax
	je	.LBB2_4
# %bb.12:                               # %ctrl3
	cmpl	$4, %eax
	je	.LBB2_5
# %bb.13:                               # %ctrl4
	cmpl	$5, %eax
	je	.LBB2_6
# %bb.14:                               # %ctrl5
	cmpl	$6, %eax
	je	.LBB2_7
	jmp	.LBB2_8
.Lfunc_end2:
	.size	get_mem_mincost, .Lfunc_end2-get_mem_mincost
	.cfi_endproc
                                        # -- End function
	.globl	get_mem_bwmincost       # -- Begin function get_mem_bwmincost
	.p2align	4, 0x90
	.type	get_mem_bwmincost,@function
get_mem_bwmincost:                      # @get_mem_bwmincost
	.cfi_startproc
# %bb.0:                                # %rand_bb
	pushq	%rbp
	.cfi_def_cfa_offset 16
	.cfi_offset %rbp, -16
	movq	%rsp, %rbp
	.cfi_def_cfa_register %rbp
	pushq	%rbx
	pushq	%rax
	.cfi_offset %rbx, -24
	movq	%rdi, %rbx
	callq	get_rand
	cmpl	$0, %eax
	jne	.LBB3_9
# %bb.1:                                # %func_get_mem_bwmincost.13
	movq	%rbx, %rdi
	callq	get_mem_bwmincost.13
	addq	$8, %rsp
	popq	%rbx
	popq	%rbp
	.cfi_def_cfa %rsp, 8
	retq
.LBB3_2:                                # %func_get_mem_bwmincost.22
	.cfi_def_cfa %rbp, 16
	movq	%rbx, %rdi
	callq	get_mem_bwmincost.22
	addq	$8, %rsp
	popq	%rbx
	popq	%rbp
	.cfi_def_cfa %rsp, 8
	retq
.LBB3_3:                                # %func_get_mem_bwmincost.24
	.cfi_def_cfa %rbp, 16
	movq	%rbx, %rdi
	callq	get_mem_bwmincost.24
	addq	$8, %rsp
	popq	%rbx
	popq	%rbp
	.cfi_def_cfa %rsp, 8
	retq
.LBB3_4:                                # %func_get_mem_bwmincost.51
	.cfi_def_cfa %rbp, 16
	movq	%rbx, %rdi
	callq	get_mem_bwmincost.51
	addq	$8, %rsp
	popq	%rbx
	popq	%rbp
	.cfi_def_cfa %rsp, 8
	retq
.LBB3_5:                                # %func_get_mem_bwmincost.66
	.cfi_def_cfa %rbp, 16
	movq	%rbx, %rdi
	callq	get_mem_bwmincost.66
	addq	$8, %rsp
	popq	%rbx
	popq	%rbp
	.cfi_def_cfa %rsp, 8
	retq
.LBB3_6:                                # %func_get_mem_bwmincost.69
	.cfi_def_cfa %rbp, 16
	movq	%rbx, %rdi
	callq	get_mem_bwmincost.69
	addq	$8, %rsp
	popq	%rbx
	popq	%rbp
	.cfi_def_cfa %rsp, 8
	retq
.LBB3_7:                                # %func_get_mem_bwmincost.74
	.cfi_def_cfa %rbp, 16
	movq	%rbx, %rdi
	callq	get_mem_bwmincost.74
	addq	$8, %rsp
	popq	%rbx
	popq	%rbp
	.cfi_def_cfa %rsp, 8
	retq
.LBB3_8:                                # %func_get_mem_bwmincost.75
	.cfi_def_cfa %rbp, 16
	movq	%rbx, %rdi
	callq	get_mem_bwmincost.75
	addq	$8, %rsp
	popq	%rbx
	popq	%rbp
	.cfi_def_cfa %rsp, 8
	retq
.LBB3_9:                                # %ctrl0
	.cfi_def_cfa %rbp, 16
	cmpl	$1, %eax
	je	.LBB3_2
# %bb.10:                               # %ctrl1
	cmpl	$2, %eax
	je	.LBB3_3
# %bb.11:                               # %ctrl2
	cmpl	$3, %eax
	je	.LBB3_4
# %bb.12:                               # %ctrl3
	cmpl	$4, %eax
	je	.LBB3_5
# %bb.13:                               # %ctrl4
	cmpl	$5, %eax
	je	.LBB3_6
# %bb.14:                               # %ctrl5
	cmpl	$6, %eax
	je	.LBB3_7
	jmp	.LBB3_8
.Lfunc_end3:
	.size	get_mem_bwmincost, .Lfunc_end3-get_mem_bwmincost
	.cfi_endproc
                                        # -- End function
	.globl	get_mem_FME             # -- Begin function get_mem_FME
	.p2align	4, 0x90
	.type	get_mem_FME,@function
get_mem_FME:                            # @get_mem_FME
	.cfi_startproc
# %bb.0:                                # %entry
	pushq	%rbp
	.cfi_def_cfa_offset 16
	.cfi_offset %rbp, -16
	movq	%rsp, %rbp
	.cfi_def_cfa_register %rbp
	subq	$16, %rsp
	movl	$0, -4(%rbp)
	movq	img, %rax
	movl	52(%rax), %eax
	sarl	$4, %eax
	addl	$1, %eax
	movslq	%eax, %rdi
	movl	$4, %esi
	callq	calloc
	xorl	%ecx, %ecx
	movq	%rax, flag_intra
	cmpq	%rax, %rcx
	jne	.LBB4_2
# %bb.1:                                # %if.then
	movabsq	$.L.str.1, %rdi
	callq	no_mem_exit
.LBB4_2:                                # %if.end
	movq	input, %rax
	movl	32(%rax), %esi
	shll	$1, %esi
	addl	$1, %esi
	movq	input, %rax
	movl	32(%rax), %edx
	shll	$1, %edx
	addl	$1, %edx
	movabsq	$McostState, %rdi
	callq	get_mem2Dint
	addl	-4(%rbp), %eax
	movl	%eax, -4(%rbp)
	movabsq	$all_mincost, %rdi
	callq	get_mem_mincost
	addl	-4(%rbp), %eax
	movl	%eax, -4(%rbp)
	movabsq	$all_bwmincost, %rdi
	callq	get_mem_bwmincost
	addl	-4(%rbp), %eax
	movl	%eax, -4(%rbp)
	movabsq	$SearchState, %rdi
	movl	$7, %esi
	movl	$7, %edx
	callq	get_mem2D
	addl	-4(%rbp), %eax
	movl	%eax, -4(%rbp)
	movl	-4(%rbp), %eax
	addq	$16, %rsp
	popq	%rbp
	.cfi_def_cfa %rsp, 8
	retq
.Lfunc_end4:
	.size	get_mem_FME, .Lfunc_end4-get_mem_FME
	.cfi_endproc
                                        # -- End function
	.globl	free_mem_mincost        # -- Begin function free_mem_mincost
	.p2align	4, 0x90
	.type	free_mem_mincost,@function
free_mem_mincost:                       # @free_mem_mincost
	.cfi_startproc
# %bb.0:                                # %rand_bb
	pushq	%rbp
	.cfi_def_cfa_offset 16
	.cfi_offset %rbp, -16
	movq	%rsp, %rbp
	.cfi_def_cfa_register %rbp
	pushq	%rbx
	pushq	%rax
	.cfi_offset %rbx, -24
	movq	%rdi, %rbx
	callq	get_rand
	cmpl	$0, %eax
	jne	.LBB5_9
# %bb.1:                                # %func_free_mem_mincost.7
	movq	%rbx, %rdi
	callq	free_mem_mincost.7
	addq	$8, %rsp
	popq	%rbx
	popq	%rbp
	.cfi_def_cfa %rsp, 8
	retq
.LBB5_2:                                # %func_free_mem_mincost.25
	.cfi_def_cfa %rbp, 16
	movq	%rbx, %rdi
	callq	free_mem_mincost.25
	addq	$8, %rsp
	popq	%rbx
	popq	%rbp
	.cfi_def_cfa %rsp, 8
	retq
.LBB5_3:                                # %func_free_mem_mincost.36
	.cfi_def_cfa %rbp, 16
	movq	%rbx, %rdi
	callq	free_mem_mincost.36
	addq	$8, %rsp
	popq	%rbx
	popq	%rbp
	.cfi_def_cfa %rsp, 8
	retq
.LBB5_4:                                # %func_free_mem_mincost.44
	.cfi_def_cfa %rbp, 16
	movq	%rbx, %rdi
	callq	free_mem_mincost.44
	addq	$8, %rsp
	popq	%rbx
	popq	%rbp
	.cfi_def_cfa %rsp, 8
	retq
.LBB5_5:                                # %func_free_mem_mincost.48
	.cfi_def_cfa %rbp, 16
	movq	%rbx, %rdi
	callq	free_mem_mincost.48
	addq	$8, %rsp
	popq	%rbx
	popq	%rbp
	.cfi_def_cfa %rsp, 8
	retq
.LBB5_6:                                # %func_free_mem_mincost.55
	.cfi_def_cfa %rbp, 16
	movq	%rbx, %rdi
	callq	free_mem_mincost.55
	addq	$8, %rsp
	popq	%rbx
	popq	%rbp
	.cfi_def_cfa %rsp, 8
	retq
.LBB5_7:                                # %func_free_mem_mincost.57
	.cfi_def_cfa %rbp, 16
	movq	%rbx, %rdi
	callq	free_mem_mincost.57
	addq	$8, %rsp
	popq	%rbx
	popq	%rbp
	.cfi_def_cfa %rsp, 8
	retq
.LBB5_8:                                # %func_free_mem_mincost.64
	.cfi_def_cfa %rbp, 16
	movq	%rbx, %rdi
	callq	free_mem_mincost.64
	addq	$8, %rsp
	popq	%rbx
	popq	%rbp
	.cfi_def_cfa %rsp, 8
	retq
.LBB5_9:                                # %ctrl0
	.cfi_def_cfa %rbp, 16
	cmpl	$1, %eax
	je	.LBB5_2
# %bb.10:                               # %ctrl1
	cmpl	$2, %eax
	je	.LBB5_3
# %bb.11:                               # %ctrl2
	cmpl	$3, %eax
	je	.LBB5_4
# %bb.12:                               # %ctrl3
	cmpl	$4, %eax
	je	.LBB5_5
# %bb.13:                               # %ctrl4
	cmpl	$5, %eax
	je	.LBB5_6
# %bb.14:                               # %ctrl5
	cmpl	$6, %eax
	je	.LBB5_7
	jmp	.LBB5_8
.Lfunc_end5:
	.size	free_mem_mincost, .Lfunc_end5-free_mem_mincost
	.cfi_endproc
                                        # -- End function
	.globl	free_mem_bwmincost      # -- Begin function free_mem_bwmincost
	.p2align	4, 0x90
	.type	free_mem_bwmincost,@function
free_mem_bwmincost:                     # @free_mem_bwmincost
	.cfi_startproc
# %bb.0:                                # %rand_bb
	pushq	%rbp
	.cfi_def_cfa_offset 16
	.cfi_offset %rbp, -16
	movq	%rsp, %rbp
	.cfi_def_cfa_register %rbp
	pushq	%rbx
	pushq	%rax
	.cfi_offset %rbx, -24
	movq	%rdi, %rbx
	callq	get_rand
	cmpl	$0, %eax
	jne	.LBB6_9
# %bb.1:                                # %func_free_mem_bwmincost.1
	movq	%rbx, %rdi
	callq	free_mem_bwmincost.1
	addq	$8, %rsp
	popq	%rbx
	popq	%rbp
	.cfi_def_cfa %rsp, 8
	retq
.LBB6_2:                                # %func_free_mem_bwmincost.26
	.cfi_def_cfa %rbp, 16
	movq	%rbx, %rdi
	callq	free_mem_bwmincost.26
	addq	$8, %rsp
	popq	%rbx
	popq	%rbp
	.cfi_def_cfa %rsp, 8
	retq
.LBB6_3:                                # %func_free_mem_bwmincost.27
	.cfi_def_cfa %rbp, 16
	movq	%rbx, %rdi
	callq	free_mem_bwmincost.27
	addq	$8, %rsp
	popq	%rbx
	popq	%rbp
	.cfi_def_cfa %rsp, 8
	retq
.LBB6_4:                                # %func_free_mem_bwmincost.32
	.cfi_def_cfa %rbp, 16
	movq	%rbx, %rdi
	callq	free_mem_bwmincost.32
	addq	$8, %rsp
	popq	%rbx
	popq	%rbp
	.cfi_def_cfa %rsp, 8
	retq
.LBB6_5:                                # %func_free_mem_bwmincost.35
	.cfi_def_cfa %rbp, 16
	movq	%rbx, %rdi
	callq	free_mem_bwmincost.35
	addq	$8, %rsp
	popq	%rbx
	popq	%rbp
	.cfi_def_cfa %rsp, 8
	retq
.LBB6_6:                                # %func_free_mem_bwmincost.54
	.cfi_def_cfa %rbp, 16
	movq	%rbx, %rdi
	callq	free_mem_bwmincost.54
	addq	$8, %rsp
	popq	%rbx
	popq	%rbp
	.cfi_def_cfa %rsp, 8
	retq
.LBB6_7:                                # %func_free_mem_bwmincost.62
	.cfi_def_cfa %rbp, 16
	movq	%rbx, %rdi
	callq	free_mem_bwmincost.62
	addq	$8, %rsp
	popq	%rbx
	popq	%rbp
	.cfi_def_cfa %rsp, 8
	retq
.LBB6_8:                                # %func_free_mem_bwmincost.63
	.cfi_def_cfa %rbp, 16
	movq	%rbx, %rdi
	callq	free_mem_bwmincost.63
	addq	$8, %rsp
	popq	%rbx
	popq	%rbp
	.cfi_def_cfa %rsp, 8
	retq
.LBB6_9:                                # %ctrl0
	.cfi_def_cfa %rbp, 16
	cmpl	$1, %eax
	je	.LBB6_2
# %bb.10:                               # %ctrl1
	cmpl	$2, %eax
	je	.LBB6_3
# %bb.11:                               # %ctrl2
	cmpl	$3, %eax
	je	.LBB6_4
# %bb.12:                               # %ctrl3
	cmpl	$4, %eax
	je	.LBB6_5
# %bb.13:                               # %ctrl4
	cmpl	$5, %eax
	je	.LBB6_6
# %bb.14:                               # %ctrl5
	cmpl	$6, %eax
	je	.LBB6_7
	jmp	.LBB6_8
.Lfunc_end6:
	.size	free_mem_bwmincost, .Lfunc_end6-free_mem_bwmincost
	.cfi_endproc
                                        # -- End function
	.globl	free_mem_FME            # -- Begin function free_mem_FME
	.p2align	4, 0x90
	.type	free_mem_FME,@function
free_mem_FME:                           # @free_mem_FME
	.cfi_startproc
# %bb.0:                                # %entry
	pushq	%rbp
	.cfi_def_cfa_offset 16
	.cfi_offset %rbp, -16
	movq	%rsp, %rbp
	.cfi_def_cfa_register %rbp
	movq	McostState, %rdi
	callq	free_mem2Dint
	movq	all_mincost, %rdi
	callq	free_mem_mincost
	movq	all_bwmincost, %rdi
	callq	free_mem_bwmincost
	movq	SearchState, %rdi
	callq	free_mem2D
	movq	flag_intra, %rdi
	callq	free
	popq	%rbp
	.cfi_def_cfa %rsp, 8
	retq
.Lfunc_end7:
	.size	free_mem_FME, .Lfunc_end7-free_mem_FME
	.cfi_endproc
                                        # -- End function
	.globl	PartCalMad              # -- Begin function PartCalMad
	.p2align	4, 0x90
	.type	PartCalMad,@function
PartCalMad:                             # @PartCalMad
	.cfi_startproc
# %bb.0:                                # %rand_bb
	pushq	%rbp
	.cfi_def_cfa_offset 16
	.cfi_offset %rbp, -16
	movq	%rsp, %rbp
	.cfi_def_cfa_register %rbp
	pushq	%r15
	pushq	%r14
	pushq	%r13
	pushq	%r12
	pushq	%rbx
	subq	$40, %rsp
	.cfi_offset %rbx, -56
	.cfi_offset %r12, -48
	.cfi_offset %r13, -40
	.cfi_offset %r14, -32
	.cfi_offset %r15, -24
	movl	%r9d, -44(%rbp)         # 4-byte Spill
	movl	%r8d, %r13d
	movl	%ecx, %r12d
	movq	%rdx, %rbx
	movq	%rsi, %r14
	movq	%rdi, %r15
	callq	get_rand
	cmpl	$0, %eax
	jne	.LBB8_9
# %bb.1:                                # %func_PartCalMad.2
	movq	%r15, %rdi
	movq	%r14, %rsi
	movq	%rbx, %rdx
	movl	%r12d, %ecx
	movl	%r13d, %r8d
	movl	-44(%rbp), %r9d         # 4-byte Reload
	movl	16(%rbp), %eax
	movl	%eax, (%rsp)
	movl	24(%rbp), %eax
	movl	%eax, 8(%rsp)
	movl	32(%rbp), %eax
	movl	%eax, 16(%rsp)
	movl	40(%rbp), %eax
	movl	%eax, 24(%rsp)
	callq	PartCalMad.2
	addq	$40, %rsp
	popq	%rbx
	popq	%r12
	popq	%r13
	popq	%r14
	popq	%r15
	popq	%rbp
	.cfi_def_cfa %rsp, 8
	retq
.LBB8_2:                                # %func_PartCalMad.8
	.cfi_def_cfa %rbp, 16
	movq	%r14, %rsi
	movq	%rbx, %rdx
	movl	%r13d, %r8d
	movl	%r11d, (%rsp)
	movl	%r10d, 8(%rsp)
	movl	%r15d, 16(%rsp)
	movl	%r12d, 24(%rsp)
	callq	PartCalMad.8
	addq	$40, %rsp
	popq	%rbx
	popq	%r12
	popq	%r13
	popq	%r14
	popq	%r15
	popq	%rbp
	.cfi_def_cfa %rsp, 8
	retq
.LBB8_3:                                # %func_PartCalMad.23
	.cfi_def_cfa %rbp, 16
	movq	%r14, %rsi
	movq	%rbx, %rdx
	movl	%r13d, %r8d
	movl	%r11d, (%rsp)
	movl	%r10d, 8(%rsp)
	movl	%r15d, 16(%rsp)
	movl	%r12d, 24(%rsp)
	callq	PartCalMad.23
	addq	$40, %rsp
	popq	%rbx
	popq	%r12
	popq	%r13
	popq	%r14
	popq	%r15
	popq	%rbp
	.cfi_def_cfa %rsp, 8
	retq
.LBB8_4:                                # %func_PartCalMad.28
	.cfi_def_cfa %rbp, 16
	movq	%r14, %rsi
	movq	%rbx, %rdx
	movl	%r13d, %r8d
	movl	%r11d, (%rsp)
	movl	%r10d, 8(%rsp)
	movl	%r15d, 16(%rsp)
	movl	%r12d, 24(%rsp)
	callq	PartCalMad.28
	addq	$40, %rsp
	popq	%rbx
	popq	%r12
	popq	%r13
	popq	%r14
	popq	%r15
	popq	%rbp
	.cfi_def_cfa %rsp, 8
	retq
.LBB8_5:                                # %func_PartCalMad.30
	.cfi_def_cfa %rbp, 16
	movq	%r14, %rsi
	movq	%rbx, %rdx
	movl	%r13d, %r8d
	movl	%r11d, (%rsp)
	movl	%r10d, 8(%rsp)
	movl	%r15d, 16(%rsp)
	movl	%r12d, 24(%rsp)
	callq	PartCalMad.30
	addq	$40, %rsp
	popq	%rbx
	popq	%r12
	popq	%r13
	popq	%r14
	popq	%r15
	popq	%rbp
	.cfi_def_cfa %rsp, 8
	retq
.LBB8_6:                                # %func_PartCalMad.47
	.cfi_def_cfa %rbp, 16
	movq	%r14, %rsi
	movq	%rbx, %rdx
	movl	%r13d, %r8d
	movl	%r11d, (%rsp)
	movl	%r10d, 8(%rsp)
	movl	%r15d, 16(%rsp)
	movl	%r12d, 24(%rsp)
	callq	PartCalMad.47
	addq	$40, %rsp
	popq	%rbx
	popq	%r12
	popq	%r13
	popq	%r14
	popq	%r15
	popq	%rbp
	.cfi_def_cfa %rsp, 8
	retq
.LBB8_7:                                # %func_PartCalMad.52
	.cfi_def_cfa %rbp, 16
	movl	%r11d, (%rsp)
	movl	%r10d, 8(%rsp)
	movl	%r15d, 16(%rsp)
	movl	%r12d, 24(%rsp)
	callq	PartCalMad.52
	addq	$40, %rsp
	popq	%rbx
	popq	%r12
	popq	%r13
	popq	%r14
	popq	%r15
	popq	%rbp
	.cfi_def_cfa %rsp, 8
	retq
.LBB8_8:                                # %func_PartCalMad.56
	.cfi_def_cfa %rbp, 16
	movl	%r11d, (%rsp)
	movl	%r10d, 8(%rsp)
	movl	%r15d, 16(%rsp)
	movl	%r12d, 24(%rsp)
	callq	PartCalMad.56
	addq	$40, %rsp
	popq	%rbx
	popq	%r12
	popq	%r13
	popq	%r14
	popq	%r15
	popq	%rbp
	.cfi_def_cfa %rsp, 8
	retq
.LBB8_9:                                # %ctrl0
	.cfi_def_cfa %rbp, 16
	movq	%r15, %rdi
	movl	%r12d, %ecx
	movl	16(%rbp), %r11d
	movl	-44(%rbp), %r9d         # 4-byte Reload
	movl	24(%rbp), %r10d
	movl	32(%rbp), %r15d
	movl	40(%rbp), %r12d
	cmpl	$1, %eax
	je	.LBB8_2
# %bb.10:                               # %ctrl1
	cmpl	$2, %eax
	je	.LBB8_3
# %bb.11:                               # %ctrl2
	cmpl	$3, %eax
	je	.LBB8_4
# %bb.12:                               # %ctrl3
	cmpl	$4, %eax
	je	.LBB8_5
# %bb.13:                               # %ctrl4
	cmpl	$5, %eax
	je	.LBB8_6
# %bb.14:                               # %ctrl5
	cmpl	$6, %eax
	movl	%r13d, %r8d
	movq	%rbx, %rdx
	movq	%r14, %rsi
	je	.LBB8_7
	jmp	.LBB8_8
.Lfunc_end8:
	.size	PartCalMad, .Lfunc_end8-PartCalMad
	.cfi_endproc
                                        # -- End function
	.globl	FastIntegerPelBlockMotionSearch # -- Begin function FastIntegerPelBlockMotionSearch
	.p2align	4, 0x90
	.type	FastIntegerPelBlockMotionSearch,@function
FastIntegerPelBlockMotionSearch:        # @FastIntegerPelBlockMotionSearch
	.cfi_startproc
# %bb.0:                                # %rand_bb
	pushq	%rbp
	.cfi_def_cfa_offset 16
	.cfi_offset %rbp, -16
	movq	%rsp, %rbp
	.cfi_def_cfa_register %rbp
	pushq	%r15
	pushq	%r14
	pushq	%r13
	pushq	%r12
	pushq	%rbx
	subq	$72, %rsp
	.cfi_offset %rbx, -56
	.cfi_offset %r12, -48
	.cfi_offset %r13, -40
	.cfi_offset %r14, -32
	.cfi_offset %r15, -24
	vmovsd	%xmm0, -56(%rbp)        # 8-byte Spill
	movl	%r9d, -44(%rbp)         # 4-byte Spill
	movl	%r8d, %r15d
	movl	%ecx, %ebx
	movl	%edx, %r12d
	movl	%esi, %r14d
	movq	%rdi, %r13
	callq	get_rand
	cmpl	$0, %eax
	jne	.LBB9_9
# %bb.1:                                # %func_FastIntegerPelBlockMotionSearch.15
	movq	%r13, %rdi
	movswl	%r14w, %esi
	movl	%r12d, %edx
	movl	%ebx, %ecx
	movl	%r15d, %r8d
	movl	-44(%rbp), %r9d         # 4-byte Reload
	movswl	16(%rbp), %eax
	movl	%eax, (%rsp)
	movswl	24(%rbp), %eax
	movl	%eax, 8(%rsp)
	movq	32(%rbp), %rax
	movq	%rax, 16(%rsp)
	movq	40(%rbp), %rax
	movq	%rax, 24(%rsp)
	movl	48(%rbp), %eax
	movl	%eax, 32(%rsp)
	movl	56(%rbp), %eax
	movl	%eax, 40(%rsp)
	vmovsd	-56(%rbp), %xmm0        # 8-byte Reload
                                        # xmm0 = mem[0],zero
	callq	FastIntegerPelBlockMotionSearch.15
	addq	$72, %rsp
	popq	%rbx
	popq	%r12
	popq	%r13
	popq	%r14
	popq	%r15
	popq	%rbp
	.cfi_def_cfa %rsp, 8
	retq
.LBB9_2:                                # %func_FastIntegerPelBlockMotionSearch.19
	.cfi_def_cfa %rbp, 16
	movswl	%r14w, %esi
	movl	%ebx, %ecx
	movswl	%r10w, %eax
	movl	%eax, (%rsp)
	movswl	24(%rbp), %eax
	movl	%eax, 8(%rsp)
	movq	%r11, 16(%rsp)
	movq	%r13, 24(%rsp)
	movl	%r12d, 32(%rsp)
	movl	%r15d, 40(%rsp)
	callq	FastIntegerPelBlockMotionSearch.19
	addq	$72, %rsp
	popq	%rbx
	popq	%r12
	popq	%r13
	popq	%r14
	popq	%r15
	popq	%rbp
	.cfi_def_cfa %rsp, 8
	retq
.LBB9_3:                                # %func_FastIntegerPelBlockMotionSearch.37
	.cfi_def_cfa %rbp, 16
	movswl	%r14w, %esi
	movl	%ebx, %ecx
	movswl	%r10w, %eax
	movl	%eax, (%rsp)
	movswl	24(%rbp), %eax
	movl	%eax, 8(%rsp)
	movq	%r11, 16(%rsp)
	movq	%r13, 24(%rsp)
	movl	%r12d, 32(%rsp)
	movl	%r15d, 40(%rsp)
	callq	FastIntegerPelBlockMotionSearch.37
	addq	$72, %rsp
	popq	%rbx
	popq	%r12
	popq	%r13
	popq	%r14
	popq	%r15
	popq	%rbp
	.cfi_def_cfa %rsp, 8
	retq
.LBB9_4:                                # %func_FastIntegerPelBlockMotionSearch.58
	.cfi_def_cfa %rbp, 16
	movswl	%r14w, %esi
	movl	%ebx, %ecx
	movswl	%r10w, %eax
	movl	%eax, (%rsp)
	movswl	24(%rbp), %eax
	movl	%eax, 8(%rsp)
	movq	%r11, 16(%rsp)
	movq	%r13, 24(%rsp)
	movl	%r12d, 32(%rsp)
	movl	%r15d, 40(%rsp)
	callq	FastIntegerPelBlockMotionSearch.58
	addq	$72, %rsp
	popq	%rbx
	popq	%r12
	popq	%r13
	popq	%r14
	popq	%r15
	popq	%rbp
	.cfi_def_cfa %rsp, 8
	retq
.LBB9_5:                                # %func_FastIntegerPelBlockMotionSearch.60
	.cfi_def_cfa %rbp, 16
	movswl	%r14w, %esi
	movl	%ebx, %ecx
	movswl	%r10w, %eax
	movl	%eax, (%rsp)
	movswl	24(%rbp), %eax
	movl	%eax, 8(%rsp)
	movq	%r11, 16(%rsp)
	movq	%r13, 24(%rsp)
	movl	%r12d, 32(%rsp)
	movl	%r15d, 40(%rsp)
	callq	FastIntegerPelBlockMotionSearch.60
	addq	$72, %rsp
	popq	%rbx
	popq	%r12
	popq	%r13
	popq	%r14
	popq	%r15
	popq	%rbp
	.cfi_def_cfa %rsp, 8
	retq
.LBB9_6:                                # %func_FastIntegerPelBlockMotionSearch.65
	.cfi_def_cfa %rbp, 16
	movswl	%r14w, %esi
	movl	%ebx, %ecx
	movswl	%r10w, %eax
	movl	%eax, (%rsp)
	movswl	24(%rbp), %eax
	movl	%eax, 8(%rsp)
	movq	%r11, 16(%rsp)
	movq	%r13, 24(%rsp)
	movl	%r12d, 32(%rsp)
	movl	%r15d, 40(%rsp)
	callq	FastIntegerPelBlockMotionSearch.65
	addq	$72, %rsp
	popq	%rbx
	popq	%r12
	popq	%r13
	popq	%r14
	popq	%r15
	popq	%rbp
	.cfi_def_cfa %rsp, 8
	retq
.LBB9_7:                                # %func_FastIntegerPelBlockMotionSearch.70
	.cfi_def_cfa %rbp, 16
	movswl	%r14w, %esi
	movswl	%r10w, %eax
	movl	%eax, (%rsp)
	movswl	24(%rbp), %eax
	movl	%eax, 8(%rsp)
	movq	%r11, 16(%rsp)
	movq	%r13, 24(%rsp)
	movl	%r12d, 32(%rsp)
	movl	%r15d, 40(%rsp)
	callq	FastIntegerPelBlockMotionSearch.70
	addq	$72, %rsp
	popq	%rbx
	popq	%r12
	popq	%r13
	popq	%r14
	popq	%r15
	popq	%rbp
	.cfi_def_cfa %rsp, 8
	retq
.LBB9_8:                                # %func_FastIntegerPelBlockMotionSearch.72
	.cfi_def_cfa %rbp, 16
	movswl	%r14w, %esi
	movswl	%r10w, %eax
	movl	%eax, (%rsp)
	movswl	24(%rbp), %eax
	movl	%eax, 8(%rsp)
	movq	%r11, 16(%rsp)
	movq	%r13, 24(%rsp)
	movl	%r12d, 32(%rsp)
	movl	%r15d, 40(%rsp)
	callq	FastIntegerPelBlockMotionSearch.72
	addq	$72, %rsp
	popq	%rbx
	popq	%r12
	popq	%r13
	popq	%r14
	popq	%r15
	popq	%rbp
	.cfi_def_cfa %rsp, 8
	retq
.LBB9_9:                                # %ctrl0
	.cfi_def_cfa %rbp, 16
	movq	%r13, %rdi
	movl	%r12d, %edx
	movl	%r15d, %r8d
	movw	16(%rbp), %r10w
	movl	-44(%rbp), %r9d         # 4-byte Reload
	movq	32(%rbp), %r11
	movq	40(%rbp), %r13
	movl	48(%rbp), %r12d
	movl	56(%rbp), %r15d
	vmovsd	-56(%rbp), %xmm0        # 8-byte Reload
                                        # xmm0 = mem[0],zero
	cmpl	$1, %eax
	je	.LBB9_2
# %bb.10:                               # %ctrl1
	cmpl	$2, %eax
	je	.LBB9_3
# %bb.11:                               # %ctrl2
	cmpl	$3, %eax
	je	.LBB9_4
# %bb.12:                               # %ctrl3
	cmpl	$4, %eax
	je	.LBB9_5
# %bb.13:                               # %ctrl4
	cmpl	$5, %eax
	je	.LBB9_6
# %bb.14:                               # %ctrl5
	cmpl	$6, %eax
	movl	%ebx, %ecx
	je	.LBB9_7
	jmp	.LBB9_8
.Lfunc_end9:
	.size	FastIntegerPelBlockMotionSearch, .Lfunc_end9-FastIntegerPelBlockMotionSearch
	.cfi_endproc
                                        # -- End function
	.globl	AddUpSADQuarter         # -- Begin function AddUpSADQuarter
	.p2align	4, 0x90
	.type	AddUpSADQuarter,@function
AddUpSADQuarter:                        # @AddUpSADQuarter
	.cfi_startproc
# %bb.0:                                # %rand_bb
	pushq	%rbp
	.cfi_def_cfa_offset 16
	.cfi_offset %rbp, -16
	movq	%rsp, %rbp
	.cfi_def_cfa_register %rbp
	pushq	%r15
	pushq	%r14
	pushq	%r13
	pushq	%r12
	pushq	%rbx
	subq	$56, %rsp
	.cfi_offset %rbx, -56
	.cfi_offset %r12, -48
	.cfi_offset %r13, -40
	.cfi_offset %r14, -32
	.cfi_offset %r15, -24
	movl	%r9d, -44(%rbp)         # 4-byte Spill
	movl	%r8d, %r15d
	movl	%ecx, %ebx
	movl	%edx, %r12d
	movl	%esi, %r14d
	movl	%edi, %r13d
	callq	get_rand
	cmpl	$0, %eax
	jne	.LBB10_9
# %bb.1:                                # %func_AddUpSADQuarter.6
	movl	%r13d, %edi
	movl	%r14d, %esi
	movl	%r12d, %edx
	movl	%ebx, %ecx
	movl	%r15d, %r8d
	movl	-44(%rbp), %r9d         # 4-byte Reload
	movq	16(%rbp), %rax
	movq	%rax, (%rsp)
	movq	24(%rbp), %rax
	movq	%rax, 8(%rsp)
	movl	32(%rbp), %eax
	movl	%eax, 16(%rsp)
	movl	40(%rbp), %eax
	movl	%eax, 24(%rsp)
	movl	48(%rbp), %eax
	movl	%eax, 32(%rsp)
	callq	AddUpSADQuarter.6
	addq	$56, %rsp
	popq	%rbx
	popq	%r12
	popq	%r13
	popq	%r14
	popq	%r15
	popq	%rbp
	.cfi_def_cfa %rsp, 8
	retq
.LBB10_2:                               # %func_AddUpSADQuarter.20
	.cfi_def_cfa %rbp, 16
	movl	%r14d, %esi
	movl	%ebx, %ecx
	movq	%r10, (%rsp)
	movq	%r11, 8(%rsp)
	movl	%r13d, 16(%rsp)
	movl	%r12d, 24(%rsp)
	movl	%r15d, 32(%rsp)
	callq	AddUpSADQuarter.20
	addq	$56, %rsp
	popq	%rbx
	popq	%r12
	popq	%r13
	popq	%r14
	popq	%r15
	popq	%rbp
	.cfi_def_cfa %rsp, 8
	retq
.LBB10_3:                               # %func_AddUpSADQuarter.53
	.cfi_def_cfa %rbp, 16
	movl	%r14d, %esi
	movl	%ebx, %ecx
	movq	%r10, (%rsp)
	movq	%r11, 8(%rsp)
	movl	%r13d, 16(%rsp)
	movl	%r12d, 24(%rsp)
	movl	%r15d, 32(%rsp)
	callq	AddUpSADQuarter.53
	addq	$56, %rsp
	popq	%rbx
	popq	%r12
	popq	%r13
	popq	%r14
	popq	%r15
	popq	%rbp
	.cfi_def_cfa %rsp, 8
	retq
.LBB10_4:                               # %func_AddUpSADQuarter.59
	.cfi_def_cfa %rbp, 16
	movl	%r14d, %esi
	movl	%ebx, %ecx
	movq	%r10, (%rsp)
	movq	%r11, 8(%rsp)
	movl	%r13d, 16(%rsp)
	movl	%r12d, 24(%rsp)
	movl	%r15d, 32(%rsp)
	callq	AddUpSADQuarter.59
	addq	$56, %rsp
	popq	%rbx
	popq	%r12
	popq	%r13
	popq	%r14
	popq	%r15
	popq	%rbp
	.cfi_def_cfa %rsp, 8
	retq
.LBB10_5:                               # %func_AddUpSADQuarter.67
	.cfi_def_cfa %rbp, 16
	movl	%r14d, %esi
	movl	%ebx, %ecx
	movq	%r10, (%rsp)
	movq	%r11, 8(%rsp)
	movl	%r13d, 16(%rsp)
	movl	%r12d, 24(%rsp)
	movl	%r15d, 32(%rsp)
	callq	AddUpSADQuarter.67
	addq	$56, %rsp
	popq	%rbx
	popq	%r12
	popq	%r13
	popq	%r14
	popq	%r15
	popq	%rbp
	.cfi_def_cfa %rsp, 8
	retq
.LBB10_6:                               # %func_AddUpSADQuarter.68
	.cfi_def_cfa %rbp, 16
	movl	%r14d, %esi
	movl	%ebx, %ecx
	movq	%r10, (%rsp)
	movq	%r11, 8(%rsp)
	movl	%r13d, 16(%rsp)
	movl	%r12d, 24(%rsp)
	movl	%r15d, 32(%rsp)
	callq	AddUpSADQuarter.68
	addq	$56, %rsp
	popq	%rbx
	popq	%r12
	popq	%r13
	popq	%r14
	popq	%r15
	popq	%rbp
	.cfi_def_cfa %rsp, 8
	retq
.LBB10_7:                               # %func_AddUpSADQuarter.71
	.cfi_def_cfa %rbp, 16
	movq	%r10, (%rsp)
	movq	%r11, 8(%rsp)
	movl	%r13d, 16(%rsp)
	movl	%r12d, 24(%rsp)
	movl	%r15d, 32(%rsp)
	callq	AddUpSADQuarter.71
	addq	$56, %rsp
	popq	%rbx
	popq	%r12
	popq	%r13
	popq	%r14
	popq	%r15
	popq	%rbp
	.cfi_def_cfa %rsp, 8
	retq
.LBB10_8:                               # %func_AddUpSADQuarter.73
	.cfi_def_cfa %rbp, 16
	movq	%r10, (%rsp)
	movq	%r11, 8(%rsp)
	movl	%r13d, 16(%rsp)
	movl	%r12d, 24(%rsp)
	movl	%r15d, 32(%rsp)
	callq	AddUpSADQuarter.73
	addq	$56, %rsp
	popq	%rbx
	popq	%r12
	popq	%r13
	popq	%r14
	popq	%r15
	popq	%rbp
	.cfi_def_cfa %rsp, 8
	retq
.LBB10_9:                               # %ctrl0
	.cfi_def_cfa %rbp, 16
	movl	%r13d, %edi
	movl	%r12d, %edx
	movl	%r15d, %r8d
	movq	16(%rbp), %r10
	movl	-44(%rbp), %r9d         # 4-byte Reload
	movq	24(%rbp), %r11
	movl	32(%rbp), %r13d
	movl	40(%rbp), %r12d
	movl	48(%rbp), %r15d
	cmpl	$1, %eax
	je	.LBB10_2
# %bb.10:                               # %ctrl1
	cmpl	$2, %eax
	je	.LBB10_3
# %bb.11:                               # %ctrl2
	cmpl	$3, %eax
	je	.LBB10_4
# %bb.12:                               # %ctrl3
	cmpl	$4, %eax
	je	.LBB10_5
# %bb.13:                               # %ctrl4
	cmpl	$5, %eax
	je	.LBB10_6
# %bb.14:                               # %ctrl5
	cmpl	$6, %eax
	movl	%ebx, %ecx
	movl	%r14d, %esi
	je	.LBB10_7
	jmp	.LBB10_8
.Lfunc_end10:
	.size	AddUpSADQuarter, .Lfunc_end10-AddUpSADQuarter
	.cfi_endproc
                                        # -- End function
	.globl	FastSubPelBlockMotionSearch # -- Begin function FastSubPelBlockMotionSearch
	.p2align	4, 0x90
	.type	FastSubPelBlockMotionSearch,@function
FastSubPelBlockMotionSearch:            # @FastSubPelBlockMotionSearch
	.cfi_startproc
# %bb.0:                                # %rand_bb
	pushq	%rbp
	.cfi_def_cfa_offset 16
	.cfi_offset %rbp, -16
	movq	%rsp, %rbp
	.cfi_def_cfa_register %rbp
	pushq	%r15
	pushq	%r14
	pushq	%r13
	pushq	%r12
	pushq	%rbx
	subq	$88, %rsp
	.cfi_offset %rbx, -56
	.cfi_offset %r12, -48
	.cfi_offset %r13, -40
	.cfi_offset %r14, -32
	.cfi_offset %r15, -24
	vmovsd	%xmm0, -56(%rbp)        # 8-byte Spill
	movl	%r9d, -44(%rbp)         # 4-byte Spill
	movl	%r8d, %ebx
	movl	%ecx, %r15d
	movl	%edx, %r14d
	movl	%esi, %r13d
	movq	%rdi, %r12
	callq	get_rand
	cmpl	$0, %eax
	jne	.LBB11_9
# %bb.1:                                # %func_FastSubPelBlockMotionSearch.18
	movq	%r12, %rdi
	movswl	%r13w, %esi
	movl	%r14d, %edx
	movl	%r15d, %ecx
	movl	%ebx, %r8d
	movl	-44(%rbp), %r9d         # 4-byte Reload
	movswl	16(%rbp), %eax
	movl	%eax, (%rsp)
	movswl	24(%rbp), %eax
	movl	%eax, 8(%rsp)
	movq	32(%rbp), %rax
	movq	%rax, 16(%rsp)
	movq	40(%rbp), %rax
	movq	%rax, 24(%rsp)
	movl	48(%rbp), %eax
	movl	%eax, 32(%rsp)
	movl	56(%rbp), %eax
	movl	%eax, 40(%rsp)
	movl	64(%rbp), %eax
	movl	%eax, 48(%rsp)
	vmovsd	-56(%rbp), %xmm0        # 8-byte Reload
                                        # xmm0 = mem[0],zero
	movl	72(%rbp), %eax
	movl	%eax, 56(%rsp)
	callq	FastSubPelBlockMotionSearch.18
	addq	$88, %rsp
	popq	%rbx
	popq	%r12
	popq	%r13
	popq	%r14
	popq	%r15
	popq	%rbp
	.cfi_def_cfa %rsp, 8
	retq
.LBB11_2:                               # %func_FastSubPelBlockMotionSearch.46
	.cfi_def_cfa %rbp, 16
	movswl	%r13w, %esi
	movswl	%bx, %eax
	movl	%eax, (%rsp)
	movswl	%r14w, %eax
	movl	%eax, 8(%rsp)
	movq	32(%rbp), %rax
	movq	%rax, 16(%rsp)
	movq	40(%rbp), %rax
	movq	%rax, 24(%rsp)
	movl	%r11d, 32(%rsp)
	movl	%r10d, 40(%rsp)
	movl	%r12d, 48(%rsp)
	movl	72(%rbp), %eax
	movl	%eax, 56(%rsp)
	callq	FastSubPelBlockMotionSearch.46
	addq	$88, %rsp
	popq	%rbx
	popq	%r12
	popq	%r13
	popq	%r14
	popq	%r15
	popq	%rbp
	.cfi_def_cfa %rsp, 8
	retq
.LBB11_3:                               # %func_FastSubPelBlockMotionSearch.49
	.cfi_def_cfa %rbp, 16
	movswl	%r13w, %esi
	movswl	%bx, %eax
	movl	%eax, (%rsp)
	movswl	%r14w, %eax
	movl	%eax, 8(%rsp)
	movq	32(%rbp), %rax
	movq	%rax, 16(%rsp)
	movq	40(%rbp), %rax
	movq	%rax, 24(%rsp)
	movl	%r11d, 32(%rsp)
	movl	%r10d, 40(%rsp)
	movl	%r12d, 48(%rsp)
	movl	72(%rbp), %eax
	movl	%eax, 56(%rsp)
	callq	FastSubPelBlockMotionSearch.49
	addq	$88, %rsp
	popq	%rbx
	popq	%r12
	popq	%r13
	popq	%r14
	popq	%r15
	popq	%rbp
	.cfi_def_cfa %rsp, 8
	retq
.LBB11_4:                               # %func_FastSubPelBlockMotionSearch.76
	.cfi_def_cfa %rbp, 16
	movswl	%r13w, %esi
	movswl	%bx, %eax
	movl	%eax, (%rsp)
	movswl	%r14w, %eax
	movl	%eax, 8(%rsp)
	movq	32(%rbp), %rax
	movq	%rax, 16(%rsp)
	movq	40(%rbp), %rax
	movq	%rax, 24(%rsp)
	movl	%r11d, 32(%rsp)
	movl	%r10d, 40(%rsp)
	movl	%r12d, 48(%rsp)
	movl	72(%rbp), %eax
	movl	%eax, 56(%rsp)
	callq	FastSubPelBlockMotionSearch.76
	addq	$88, %rsp
	popq	%rbx
	popq	%r12
	popq	%r13
	popq	%r14
	popq	%r15
	popq	%rbp
	.cfi_def_cfa %rsp, 8
	retq
.LBB11_5:                               # %func_FastSubPelBlockMotionSearch.77
	.cfi_def_cfa %rbp, 16
	movswl	%r13w, %esi
	movswl	%bx, %eax
	movl	%eax, (%rsp)
	movswl	%r14w, %eax
	movl	%eax, 8(%rsp)
	movq	32(%rbp), %rax
	movq	%rax, 16(%rsp)
	movq	40(%rbp), %rax
	movq	%rax, 24(%rsp)
	movl	%r11d, 32(%rsp)
	movl	%r10d, 40(%rsp)
	movl	%r12d, 48(%rsp)
	movl	72(%rbp), %eax
	movl	%eax, 56(%rsp)
	callq	FastSubPelBlockMotionSearch.77
	addq	$88, %rsp
	popq	%rbx
	popq	%r12
	popq	%r13
	popq	%r14
	popq	%r15
	popq	%rbp
	.cfi_def_cfa %rsp, 8
	retq
.LBB11_6:                               # %func_FastSubPelBlockMotionSearch.78
	.cfi_def_cfa %rbp, 16
	movswl	%r13w, %esi
	movswl	%bx, %eax
	movl	%eax, (%rsp)
	movswl	%r14w, %eax
	movl	%eax, 8(%rsp)
	movq	32(%rbp), %rax
	movq	%rax, 16(%rsp)
	movq	40(%rbp), %rax
	movq	%rax, 24(%rsp)
	movl	%r11d, 32(%rsp)
	movl	%r10d, 40(%rsp)
	movl	%r12d, 48(%rsp)
	movl	72(%rbp), %eax
	movl	%eax, 56(%rsp)
	callq	FastSubPelBlockMotionSearch.78
	addq	$88, %rsp
	popq	%rbx
	popq	%r12
	popq	%r13
	popq	%r14
	popq	%r15
	popq	%rbp
	.cfi_def_cfa %rsp, 8
	retq
.LBB11_7:                               # %func_FastSubPelBlockMotionSearch.79
	.cfi_def_cfa %rbp, 16
	movswl	%r13w, %esi
	movswl	%bx, %eax
	movl	%eax, (%rsp)
	movswl	%r14w, %eax
	movl	%eax, 8(%rsp)
	movq	32(%rbp), %rax
	movq	%rax, 16(%rsp)
	movq	40(%rbp), %rax
	movq	%rax, 24(%rsp)
	movl	%r11d, 32(%rsp)
	movl	%r10d, 40(%rsp)
	movl	%r12d, 48(%rsp)
	movl	%r15d, 56(%rsp)
	callq	FastSubPelBlockMotionSearch.79
	addq	$88, %rsp
	popq	%rbx
	popq	%r12
	popq	%r13
	popq	%r14
	popq	%r15
	popq	%rbp
	.cfi_def_cfa %rsp, 8
	retq
.LBB11_8:                               # %func_FastSubPelBlockMotionSearch.80
	.cfi_def_cfa %rbp, 16
	movswl	%r13w, %esi
	movswl	%bx, %eax
	movl	%eax, (%rsp)
	movswl	%r14w, %eax
	movl	%eax, 8(%rsp)
	movq	32(%rbp), %rax
	movq	%rax, 16(%rsp)
	movq	40(%rbp), %rax
	movq	%rax, 24(%rsp)
	movl	%r11d, 32(%rsp)
	movl	%r10d, 40(%rsp)
	movl	%r12d, 48(%rsp)
	movl	%r15d, 56(%rsp)
	callq	FastSubPelBlockMotionSearch.80
	addq	$88, %rsp
	popq	%rbx
	popq	%r12
	popq	%r13
	popq	%r14
	popq	%r15
	popq	%rbp
	.cfi_def_cfa %rsp, 8
	retq
.LBB11_9:                               # %ctrl0
	.cfi_def_cfa %rbp, 16
	movq	%r12, %rdi
	movl	%r14d, %edx
	movl	%r15d, %ecx
	movl	%ebx, %r8d
	movw	16(%rbp), %bx
	movl	-44(%rbp), %r9d         # 4-byte Reload
	movw	24(%rbp), %r14w
	movl	48(%rbp), %r11d
	movl	56(%rbp), %r10d
	movl	64(%rbp), %r12d
	vmovsd	-56(%rbp), %xmm0        # 8-byte Reload
                                        # xmm0 = mem[0],zero
	cmpl	$1, %eax
	je	.LBB11_2
# %bb.10:                               # %ctrl1
	cmpl	$2, %eax
	je	.LBB11_3
# %bb.11:                               # %ctrl2
	cmpl	$3, %eax
	je	.LBB11_4
# %bb.12:                               # %ctrl3
	cmpl	$4, %eax
	je	.LBB11_5
# %bb.13:                               # %ctrl4
	cmpl	$5, %eax
	je	.LBB11_6
# %bb.14:                               # %ctrl5
	cmpl	$6, %eax
	movl	72(%rbp), %eax
	movl	%eax, %r15d
	je	.LBB11_7
	jmp	.LBB11_8
.Lfunc_end11:
	.size	FastSubPelBlockMotionSearch, .Lfunc_end11-FastSubPelBlockMotionSearch
	.cfi_endproc
                                        # -- End function
	.globl	decide_intrabk_SAD      # -- Begin function decide_intrabk_SAD
	.p2align	4, 0x90
	.type	decide_intrabk_SAD,@function
decide_intrabk_SAD:                     # @decide_intrabk_SAD
	.cfi_startproc
# %bb.0:                                # %entry
	pushq	%rbp
	.cfi_def_cfa_offset 16
	.cfi_offset %rbp, -16
	movq	%rsp, %rbp
	.cfi_def_cfa_register %rbp
	movq	img, %rax
	cmpl	$0, 24(%rax)
	je	.LBB12_15
# %bb.1:                                # %if.then
	movq	img, %rax
	cmpl	$0, 152(%rax)
	jne	.LBB12_4
# %bb.2:                                # %land.lhs.true
	movq	img, %rax
	cmpl	$0, 156(%rax)
	jne	.LBB12_4
# %bb.3:                                # %if.then3
	movl	$0, flag_intra_SAD
	jmp	.LBB12_14
.LBB12_4:                               # %if.else
	movq	img, %rax
	cmpl	$0, 152(%rax)
	jne	.LBB12_6
# %bb.5:                                # %if.then6
	movq	flag_intra, %rax
	movq	img, %rcx
	movl	152(%rcx), %ecx
	sarl	$4, %ecx
	movslq	%ecx, %rcx
	movl	(%rax,%rcx,4), %eax
	movl	%eax, flag_intra_SAD
	jmp	.LBB12_13
.LBB12_6:                               # %if.else8
	movq	img, %rax
	cmpl	$0, 156(%rax)
	jne	.LBB12_8
# %bb.7:                                # %if.then11
	movq	flag_intra, %rax
	movq	img, %rcx
	movl	152(%rcx), %ecx
	sarl	$4, %ecx
	subl	$1, %ecx
	movslq	%ecx, %rcx
	movl	(%rax,%rcx,4), %eax
	movl	%eax, flag_intra_SAD
	jmp	.LBB12_12
.LBB12_8:                               # %if.else16
	movq	flag_intra, %rax
	movq	img, %rcx
	movl	152(%rcx), %ecx
	sarl	$4, %ecx
	movslq	%ecx, %rcx
	cmpl	$0, (%rax,%rcx,4)
	movb	$1, %al
	jne	.LBB12_11
# %bb.9:                                # %lor.lhs.false
	movq	flag_intra, %rax
	movq	img, %rcx
	movl	152(%rcx), %ecx
	sarl	$4, %ecx
	subl	$1, %ecx
	movslq	%ecx, %rcx
	cmpl	$0, (%rax,%rcx,4)
	movb	$1, %al
	jne	.LBB12_11
# %bb.10:                               # %lor.rhs
	movq	flag_intra, %rax
	movq	img, %rcx
	movl	152(%rcx), %ecx
	sarl	$4, %ecx
	addl	$1, %ecx
	movslq	%ecx, %rcx
	cmpl	$0, (%rax,%rcx,4)
	setne	%al
.LBB12_11:                              # %lor.end
	andb	$1, %al
	movzbl	%al, %eax
	movl	%eax, flag_intra_SAD
.LBB12_12:                              # %if.end
	jmp	.LBB12_13
.LBB12_13:                              # %if.end32
	jmp	.LBB12_14
.LBB12_14:                              # %if.end33
	jmp	.LBB12_15
.LBB12_15:                              # %if.end34
	popq	%rbp
	.cfi_def_cfa %rsp, 8
	retq
.Lfunc_end12:
	.size	decide_intrabk_SAD, .Lfunc_end12-decide_intrabk_SAD
	.cfi_endproc
                                        # -- End function
	.globl	skip_intrabk_SAD        # -- Begin function skip_intrabk_SAD
	.p2align	4, 0x90
	.type	skip_intrabk_SAD,@function
skip_intrabk_SAD:                       # @skip_intrabk_SAD
	.cfi_startproc
# %bb.0:                                # %rand_bb
	pushq	%rbp
	.cfi_def_cfa_offset 16
	.cfi_offset %rbp, -16
	movq	%rsp, %rbp
	.cfi_def_cfa_register %rbp
	pushq	%r14
	pushq	%rbx
	.cfi_offset %rbx, -32
	.cfi_offset %r14, -24
	movl	%esi, %r14d
	movl	%edi, %ebx
	callq	get_rand
	cmpl	$0, %eax
	jne	.LBB13_9
# %bb.1:                                # %func_skip_intrabk_SAD.3
	movl	%ebx, %edi
	movl	%r14d, %esi
	callq	skip_intrabk_SAD.3
	popq	%rbx
	popq	%r14
	popq	%rbp
	.cfi_def_cfa %rsp, 8
	retq
.LBB13_2:                               # %func_skip_intrabk_SAD.4
	.cfi_def_cfa %rbp, 16
	movl	%ebx, %edi
	movl	%r14d, %esi
	callq	skip_intrabk_SAD.4
	popq	%rbx
	popq	%r14
	popq	%rbp
	.cfi_def_cfa %rsp, 8
	retq
.LBB13_3:                               # %func_skip_intrabk_SAD.10
	.cfi_def_cfa %rbp, 16
	movl	%ebx, %edi
	movl	%r14d, %esi
	callq	skip_intrabk_SAD.10
	popq	%rbx
	popq	%r14
	popq	%rbp
	.cfi_def_cfa %rsp, 8
	retq
.LBB13_4:                               # %func_skip_intrabk_SAD.11
	.cfi_def_cfa %rbp, 16
	movl	%ebx, %edi
	movl	%r14d, %esi
	callq	skip_intrabk_SAD.11
	popq	%rbx
	popq	%r14
	popq	%rbp
	.cfi_def_cfa %rsp, 8
	retq
.LBB13_5:                               # %func_skip_intrabk_SAD.34
	.cfi_def_cfa %rbp, 16
	movl	%ebx, %edi
	movl	%r14d, %esi
	callq	skip_intrabk_SAD.34
	popq	%rbx
	popq	%r14
	popq	%rbp
	.cfi_def_cfa %rsp, 8
	retq
.LBB13_6:                               # %func_skip_intrabk_SAD.38
	.cfi_def_cfa %rbp, 16
	movl	%ebx, %edi
	movl	%r14d, %esi
	callq	skip_intrabk_SAD.38
	popq	%rbx
	popq	%r14
	popq	%rbp
	.cfi_def_cfa %rsp, 8
	retq
.LBB13_7:                               # %func_skip_intrabk_SAD.40
	.cfi_def_cfa %rbp, 16
	movl	%ebx, %edi
	movl	%r14d, %esi
	callq	skip_intrabk_SAD.40
	popq	%rbx
	popq	%r14
	popq	%rbp
	.cfi_def_cfa %rsp, 8
	retq
.LBB13_8:                               # %func_skip_intrabk_SAD.41
	.cfi_def_cfa %rbp, 16
	movl	%ebx, %edi
	movl	%r14d, %esi
	callq	skip_intrabk_SAD.41
	popq	%rbx
	popq	%r14
	popq	%rbp
	.cfi_def_cfa %rsp, 8
	retq
.LBB13_9:                               # %ctrl0
	.cfi_def_cfa %rbp, 16
	cmpl	$1, %eax
	je	.LBB13_2
# %bb.10:                               # %ctrl1
	cmpl	$2, %eax
	je	.LBB13_3
# %bb.11:                               # %ctrl2
	cmpl	$3, %eax
	je	.LBB13_4
# %bb.12:                               # %ctrl3
	cmpl	$4, %eax
	je	.LBB13_5
# %bb.13:                               # %ctrl4
	cmpl	$5, %eax
	je	.LBB13_6
# %bb.14:                               # %ctrl5
	cmpl	$6, %eax
	je	.LBB13_7
	jmp	.LBB13_8
.Lfunc_end13:
	.size	skip_intrabk_SAD, .Lfunc_end13-skip_intrabk_SAD
	.cfi_endproc
                                        # -- End function
	.globl	free_mem_bwmincost.1    # -- Begin function free_mem_bwmincost.1
	.p2align	4, 0x90
	.type	free_mem_bwmincost.1,@function
free_mem_bwmincost.1:                   # @free_mem_bwmincost.1
	.cfi_startproc
# %bb.0:                                # %entry
	pushq	%rbp
	.cfi_def_cfa_offset 16
	.cfi_offset %rbp, -16
	movq	%rsp, %rbp
	.cfi_def_cfa_register %rbp
	subq	$32, %rsp
	movl	$1650789251, -28(%rbp)  # imm = 0x62650B83
	movq	%rdi, -24(%rbp)
	movl	$0, -4(%rbp)
.LBB14_1:                               # %for.cond
                                        # =>This Loop Header: Depth=1
                                        #     Child Loop BB14_3 Depth 2
                                        #       Child Loop BB14_5 Depth 3
                                        #         Child Loop BB14_7 Depth 4
	movl	-4(%rbp), %ecx
	movq	img, %rax
	movl	52(%rax), %eax
	cltd
	movl	$4, %esi
	idivl	%esi
	cmpl	%eax, %ecx
	jge	.LBB14_16
# %bb.2:                                # %for.body
                                        #   in Loop: Header=BB14_1 Depth=1
	movl	$0, -8(%rbp)
.LBB14_3:                               # %for.cond1
                                        #   Parent Loop BB14_1 Depth=1
                                        # =>  This Loop Header: Depth=2
                                        #       Child Loop BB14_5 Depth 3
                                        #         Child Loop BB14_7 Depth 4
	movl	-8(%rbp), %ecx
	movq	img, %rax
	movl	60(%rax), %eax
	cltd
	movl	$4, %esi
	idivl	%esi
	cmpl	%eax, %ecx
	jge	.LBB14_14
# %bb.4:                                # %for.body4
                                        #   in Loop: Header=BB14_3 Depth=2
	movl	$0, -12(%rbp)
.LBB14_5:                               # %for.cond5
                                        #   Parent Loop BB14_1 Depth=1
                                        #     Parent Loop BB14_3 Depth=2
                                        # =>    This Loop Header: Depth=3
                                        #         Child Loop BB14_7 Depth 4
	movl	-12(%rbp), %eax
	movq	img, %rcx
	cmpl	36(%rcx), %eax
	jge	.LBB14_12
# %bb.6:                                # %for.body7
                                        #   in Loop: Header=BB14_5 Depth=3
	movl	$0, -16(%rbp)
.LBB14_7:                               # %for.cond8
                                        #   Parent Loop BB14_1 Depth=1
                                        #     Parent Loop BB14_3 Depth=2
                                        #       Parent Loop BB14_5 Depth=3
                                        # =>      This Inner Loop Header: Depth=4
	cmpl	$9, -16(%rbp)
	jge	.LBB14_10
# %bb.8:                                # %for.body10
                                        #   in Loop: Header=BB14_7 Depth=4
	movq	-24(%rbp), %rax
	movslq	-4(%rbp), %rcx
	movq	(%rax,%rcx,8), %rax
	movslq	-8(%rbp), %rcx
	movq	(%rax,%rcx,8), %rax
	movslq	-12(%rbp), %rcx
	movq	(%rax,%rcx,8), %rax
	movslq	-16(%rbp), %rcx
	movq	(%rax,%rcx,8), %rdi
	callq	free
# %bb.9:                                # %for.inc
                                        #   in Loop: Header=BB14_7 Depth=4
	movl	-16(%rbp), %eax
	addl	$1, %eax
	movl	%eax, -16(%rbp)
	jmp	.LBB14_7
.LBB14_10:                              # %for.end
                                        #   in Loop: Header=BB14_5 Depth=3
	movq	-24(%rbp), %rax
	movslq	-4(%rbp), %rcx
	movq	(%rax,%rcx,8), %rax
	movslq	-8(%rbp), %rcx
	movq	(%rax,%rcx,8), %rax
	movslq	-12(%rbp), %rcx
	movq	(%rax,%rcx,8), %rdi
	callq	free
# %bb.11:                               # %for.inc23
                                        #   in Loop: Header=BB14_5 Depth=3
	movl	-12(%rbp), %eax
	addl	$1, %eax
	movl	%eax, -12(%rbp)
	jmp	.LBB14_5
.LBB14_12:                              # %for.end25
                                        #   in Loop: Header=BB14_3 Depth=2
	movq	-24(%rbp), %rax
	movslq	-4(%rbp), %rcx
	movq	(%rax,%rcx,8), %rax
	movslq	-8(%rbp), %rcx
	movq	(%rax,%rcx,8), %rdi
	callq	free
# %bb.13:                               # %for.inc30
                                        #   in Loop: Header=BB14_3 Depth=2
	movl	-8(%rbp), %eax
	addl	$1, %eax
	movl	%eax, -8(%rbp)
	jmp	.LBB14_3
.LBB14_14:                              # %for.end32
                                        #   in Loop: Header=BB14_1 Depth=1
	movq	-24(%rbp), %rax
	movslq	-4(%rbp), %rcx
	movq	(%rax,%rcx,8), %rdi
	callq	free
# %bb.15:                               # %for.inc35
                                        #   in Loop: Header=BB14_1 Depth=1
	movl	-4(%rbp), %eax
	addl	$1, %eax
	movl	%eax, -4(%rbp)
	jmp	.LBB14_1
.LBB14_16:                              # %for.end37
	movq	-24(%rbp), %rdi
	callq	free
	cmpl	$1650789251, -28(%rbp)  # imm = 0x62650B83
	jne	.LBB14_18
.LBB14_17:
	addq	$32, %rsp
	popq	%rbp
	.cfi_def_cfa %rsp, 8
	retq
.LBB14_18:                              # %func_exit
	.cfi_def_cfa %rbp, 16
	callq	detect_breach
	jmp	.LBB14_17
.Lfunc_end14:
	.size	free_mem_bwmincost.1, .Lfunc_end14-free_mem_bwmincost.1
	.cfi_endproc
                                        # -- End function
	.globl	PartCalMad.2            # -- Begin function PartCalMad.2
	.p2align	4, 0x90
	.type	PartCalMad.2,@function
PartCalMad.2:                           # @PartCalMad.2
	.cfi_startproc
# %bb.0:                                # %entry
	pushq	%rbp
	.cfi_def_cfa_offset 16
	.cfi_offset %rbp, -16
	movq	%rsp, %rbp
	.cfi_def_cfa_register %rbp
	pushq	%rbx
	subq	$72, %rsp
	.cfi_offset %rbx, -24
	movl	40(%rbp), %eax
	movl	32(%rbp), %eax
	movl	24(%rbp), %eax
	movl	16(%rbp), %eax
	movl	$709333743, -44(%rbp)   # imm = 0x2A4792EF
	movq	%rdi, -80(%rbp)
	movq	%rsi, -72(%rbp)
	movq	%rdx, -64(%rbp)
	movl	%ecx, -56(%rbp)
	movl	%r8d, -40(%rbp)
	movl	%r9d, -52(%rbp)
	movq	img, %rax
	cmpl	$0, 72400(%rax)
	je	.LBB15_3
# %bb.1:                                # %land.lhs.true
	movq	img, %rax
	movq	14168(%rax), %rax
	movq	img, %rcx
	movslq	12(%rcx), %rcx
	imulq	$632, %rcx, %rcx        # imm = 0x278
	addq	%rcx, %rax
	cmpl	$0, 532(%rax)
	je	.LBB15_3
# %bb.2:                                # %cond.true
	movq	img, %rax
	movl	60(%rax), %eax
	cltd
	movl	$2, %ecx
	idivl	%ecx
	jmp	.LBB15_4
.LBB15_3:                               # %cond.false
	movq	img, %rax
	movl	60(%rax), %eax
.LBB15_4:                               # %cond.end
	movl	%eax, -48(%rbp)
	movl	$0, -12(%rbp)
.LBB15_5:                               # %for.cond
                                        # =>This Loop Header: Depth=1
                                        #     Child Loop BB15_7 Depth 2
	movl	-12(%rbp), %eax
	cmpl	-56(%rbp), %eax
	jge	.LBB15_14
# %bb.6:                                # %for.body
                                        #   in Loop: Header=BB15_5 Depth=1
	movq	-64(%rbp), %rax
	movl	-40(%rbp), %edi
	movq	-80(%rbp), %rsi
	movl	40(%rbp), %edx
	addl	-12(%rbp), %edx
	movl	32(%rbp), %ecx
	movl	-48(%rbp), %r8d
	movq	img, %rbx
	movl	52(%rbx), %r9d
	callq	*%rax
	movq	%rax, -24(%rbp)
	movq	-72(%rbp), %rax
	movslq	-12(%rbp), %rcx
	movq	(%rax,%rcx,8), %rax
	movq	%rax, -32(%rbp)
	movl	$0, -36(%rbp)
.LBB15_7:                               # %for.cond6
                                        #   Parent Loop BB15_5 Depth=1
                                        # =>  This Inner Loop Header: Depth=2
	movl	-36(%rbp), %eax
	cmpl	-52(%rbp), %eax
	jge	.LBB15_10
# %bb.8:                                # %for.body8
                                        #   in Loop: Header=BB15_7 Depth=2
	movq	byte_abs, %rax
	movq	-32(%rbp), %rcx
	movq	%rcx, %rdx
	addq	$2, %rdx
	movq	%rdx, -32(%rbp)
	movzwl	(%rcx), %ecx
	movq	-24(%rbp), %rdx
	movq	%rdx, %rsi
	addq	$2, %rsi
	movq	%rsi, -24(%rbp)
	movzwl	(%rdx), %edx
	subl	%edx, %ecx
	movslq	%ecx, %rcx
	movl	(%rax,%rcx,4), %eax
	addl	16(%rbp), %eax
	movl	%eax, 16(%rbp)
	movq	byte_abs, %rax
	movq	-32(%rbp), %rcx
	movq	%rcx, %rdx
	addq	$2, %rdx
	movq	%rdx, -32(%rbp)
	movzwl	(%rcx), %ecx
	movq	-24(%rbp), %rdx
	movq	%rdx, %rsi
	addq	$2, %rsi
	movq	%rsi, -24(%rbp)
	movzwl	(%rdx), %edx
	subl	%edx, %ecx
	movslq	%ecx, %rcx
	movl	(%rax,%rcx,4), %eax
	addl	16(%rbp), %eax
	movl	%eax, 16(%rbp)
	movq	byte_abs, %rax
	movq	-32(%rbp), %rcx
	movq	%rcx, %rdx
	addq	$2, %rdx
	movq	%rdx, -32(%rbp)
	movzwl	(%rcx), %ecx
	movq	-24(%rbp), %rdx
	movq	%rdx, %rsi
	addq	$2, %rsi
	movq	%rsi, -24(%rbp)
	movzwl	(%rdx), %edx
	subl	%edx, %ecx
	movslq	%ecx, %rcx
	movl	(%rax,%rcx,4), %eax
	addl	16(%rbp), %eax
	movl	%eax, 16(%rbp)
	movq	byte_abs, %rax
	movq	-32(%rbp), %rcx
	movq	%rcx, %rdx
	addq	$2, %rdx
	movq	%rdx, -32(%rbp)
	movzwl	(%rcx), %ecx
	movq	-24(%rbp), %rdx
	movq	%rdx, %rsi
	addq	$2, %rsi
	movq	%rsi, -24(%rbp)
	movzwl	(%rdx), %edx
	subl	%edx, %ecx
	movslq	%ecx, %rcx
	movl	(%rax,%rcx,4), %eax
	addl	16(%rbp), %eax
	movl	%eax, 16(%rbp)
# %bb.9:                                # %for.inc
                                        #   in Loop: Header=BB15_7 Depth=2
	movl	-36(%rbp), %eax
	addl	$1, %eax
	movl	%eax, -36(%rbp)
	jmp	.LBB15_7
.LBB15_10:                              # %for.end
                                        #   in Loop: Header=BB15_5 Depth=1
	movl	16(%rbp), %eax
	cmpl	24(%rbp), %eax
	jl	.LBB15_12
# %bb.11:                               # %if.then
	jmp	.LBB15_15
.LBB15_12:                              # %if.end
                                        #   in Loop: Header=BB15_5 Depth=1
	jmp	.LBB15_13
.LBB15_13:                              # %for.inc40
                                        #   in Loop: Header=BB15_5 Depth=1
	movl	-12(%rbp), %eax
	addl	$1, %eax
	movl	%eax, -12(%rbp)
	jmp	.LBB15_5
.LBB15_14:                              # %for.end42.loopexit
	jmp	.LBB15_15
.LBB15_15:                              # %for.end42
	movl	16(%rbp), %ebx
	cmpl	$709333743, -44(%rbp)   # imm = 0x2A4792EF
	jne	.LBB15_17
.LBB15_16:
	movl	%ebx, %eax
	addq	$72, %rsp
	popq	%rbx
	popq	%rbp
	.cfi_def_cfa %rsp, 8
	retq
.LBB15_17:                              # %func_exit
	.cfi_def_cfa %rbp, 16
	callq	detect_breach
	jmp	.LBB15_16
.Lfunc_end15:
	.size	PartCalMad.2, .Lfunc_end15-PartCalMad.2
	.cfi_endproc
                                        # -- End function
	.globl	skip_intrabk_SAD.3      # -- Begin function skip_intrabk_SAD.3
	.p2align	4, 0x90
	.type	skip_intrabk_SAD.3,@function
skip_intrabk_SAD.3:                     # @skip_intrabk_SAD.3
	.cfi_startproc
# %bb.0:                                # %entry
	pushq	%rbp
	.cfi_def_cfa_offset 16
	.cfi_offset %rbp, -16
	movq	%rsp, %rbp
	.cfi_def_cfa_register %rbp
	subq	$32, %rsp
	movl	$119866381, -24(%rbp)   # imm = 0x725040D
	movl	%edi, -16(%rbp)
	movl	%esi, -28(%rbp)
	movq	img, %rax
	cmpl	$0, (%rax)
	jle	.LBB16_4
# %bb.1:                                # %if.then
	cmpl	$9, -16(%rbp)
	movb	$1, %al
	je	.LBB16_3
# %bb.2:                                # %lor.rhs
	cmpl	$10, -16(%rbp)
	sete	%al
.LBB16_3:                               # %lor.end
	xorl	%ecx, %ecx
	testb	$1, %al
	movl	$1, %eax
	cmovnel	%eax, %ecx
	movq	flag_intra, %rax
	movq	img, %rdx
	movl	152(%rdx), %edx
	sarl	$4, %edx
	movslq	%edx, %rdx
	movl	%ecx, (%rax,%rdx,4)
.LBB16_4:                               # %if.end
	movq	img, %rax
	cmpl	$0, 24(%rax)
	je	.LBB16_24
# %bb.5:                                # %land.lhs.true
	cmpl	$9, -16(%rbp)
	je	.LBB16_7
# %bb.6:                                # %lor.lhs.false
	cmpl	$10, -16(%rbp)
	jne	.LBB16_24
.LBB16_7:                               # %if.then6
	movl	$0, -12(%rbp)
.LBB16_8:                               # %for.cond
                                        # =>This Loop Header: Depth=1
                                        #     Child Loop BB16_10 Depth 2
                                        #       Child Loop BB16_12 Depth 3
                                        #         Child Loop BB16_14 Depth 4
	cmpl	$4, -12(%rbp)
	jge	.LBB16_23
# %bb.9:                                # %for.body
                                        #   in Loop: Header=BB16_8 Depth=1
	movl	$0, -4(%rbp)
.LBB16_10:                              # %for.cond8
                                        #   Parent Loop BB16_8 Depth=1
                                        # =>  This Loop Header: Depth=2
                                        #       Child Loop BB16_12 Depth 3
                                        #         Child Loop BB16_14 Depth 4
	cmpl	$4, -4(%rbp)
	jge	.LBB16_21
# %bb.11:                               # %for.body10
                                        #   in Loop: Header=BB16_10 Depth=2
	movl	$1, -8(%rbp)
.LBB16_12:                              # %for.cond11
                                        #   Parent Loop BB16_8 Depth=1
                                        #     Parent Loop BB16_10 Depth=2
                                        # =>    This Loop Header: Depth=3
                                        #         Child Loop BB16_14 Depth 4
	cmpl	$8, -8(%rbp)
	jge	.LBB16_19
# %bb.13:                               # %for.body13
                                        #   in Loop: Header=BB16_12 Depth=3
	movl	$0, -20(%rbp)
.LBB16_14:                              # %for.cond14
                                        #   Parent Loop BB16_8 Depth=1
                                        #     Parent Loop BB16_10 Depth=2
                                        #       Parent Loop BB16_12 Depth=3
                                        # =>      This Inner Loop Header: Depth=4
	movl	-20(%rbp), %eax
	cmpl	-28(%rbp), %eax
	jge	.LBB16_17
# %bb.15:                               # %for.body16
                                        #   in Loop: Header=BB16_14 Depth=4
	movq	all_mincost, %rax
	movq	img, %rcx
	movl	152(%rcx), %ecx
	sarl	$2, %ecx
	addl	-12(%rbp), %ecx
	movslq	%ecx, %rcx
	movq	(%rax,%rcx,8), %rax
	movq	img, %rcx
	movl	156(%rcx), %ecx
	sarl	$2, %ecx
	addl	-4(%rbp), %ecx
	movslq	%ecx, %rcx
	movq	(%rax,%rcx,8), %rax
	movslq	-20(%rbp), %rcx
	movq	(%rax,%rcx,8), %rax
	movslq	-8(%rbp), %rcx
	movq	(%rax,%rcx,8), %rax
	movl	$0, (%rax)
# %bb.16:                               # %for.inc
                                        #   in Loop: Header=BB16_14 Depth=4
	movl	-20(%rbp), %eax
	addl	$1, %eax
	movl	%eax, -20(%rbp)
	jmp	.LBB16_14
.LBB16_17:                              # %for.end
                                        #   in Loop: Header=BB16_12 Depth=3
	jmp	.LBB16_18
.LBB16_18:                              # %for.inc30
                                        #   in Loop: Header=BB16_12 Depth=3
	movl	-8(%rbp), %eax
	addl	$1, %eax
	movl	%eax, -8(%rbp)
	jmp	.LBB16_12
.LBB16_19:                              # %for.end32
                                        #   in Loop: Header=BB16_10 Depth=2
	jmp	.LBB16_20
.LBB16_20:                              # %for.inc33
                                        #   in Loop: Header=BB16_10 Depth=2
	movl	-4(%rbp), %eax
	addl	$1, %eax
	movl	%eax, -4(%rbp)
	jmp	.LBB16_10
.LBB16_21:                              # %for.end35
                                        #   in Loop: Header=BB16_8 Depth=1
	jmp	.LBB16_22
.LBB16_22:                              # %for.inc36
                                        #   in Loop: Header=BB16_8 Depth=1
	movl	-12(%rbp), %eax
	addl	$1, %eax
	movl	%eax, -12(%rbp)
	jmp	.LBB16_8
.LBB16_23:                              # %for.end38
	jmp	.LBB16_24
.LBB16_24:                              # %if.end39
	cmpl	$119866381, -24(%rbp)   # imm = 0x725040D
	jne	.LBB16_26
.LBB16_25:
	addq	$32, %rsp
	popq	%rbp
	.cfi_def_cfa %rsp, 8
	retq
.LBB16_26:                              # %func_exit
	.cfi_def_cfa %rbp, 16
	callq	detect_breach
	jmp	.LBB16_25
.Lfunc_end16:
	.size	skip_intrabk_SAD.3, .Lfunc_end16-skip_intrabk_SAD.3
	.cfi_endproc
                                        # -- End function
	.globl	skip_intrabk_SAD.4      # -- Begin function skip_intrabk_SAD.4
	.p2align	4, 0x90
	.type	skip_intrabk_SAD.4,@function
skip_intrabk_SAD.4:                     # @skip_intrabk_SAD.4
	.cfi_startproc
# %bb.0:                                # %entry
	pushq	%rbp
	.cfi_def_cfa_offset 16
	.cfi_offset %rbp, -16
	movq	%rsp, %rbp
	.cfi_def_cfa_register %rbp
	subq	$32, %rsp
	movl	$35881101, -24(%rbp)    # imm = 0x223808D
	movl	%edi, -12(%rbp)
	movl	%esi, -28(%rbp)
	movq	img, %rax
	cmpl	$0, (%rax)
	jle	.LBB17_4
# %bb.1:                                # %if.then
	cmpl	$9, -12(%rbp)
	movb	$1, %al
	je	.LBB17_3
# %bb.2:                                # %lor.rhs
	cmpl	$10, -12(%rbp)
	sete	%al
.LBB17_3:                               # %lor.end
	xorl	%ecx, %ecx
	testb	$1, %al
	movl	$1, %eax
	cmovnel	%eax, %ecx
	movq	flag_intra, %rax
	movq	img, %rdx
	movl	152(%rdx), %edx
	sarl	$4, %edx
	movslq	%edx, %rdx
	movl	%ecx, (%rax,%rdx,4)
.LBB17_4:                               # %if.end
	movq	img, %rax
	cmpl	$0, 24(%rax)
	je	.LBB17_24
# %bb.5:                                # %land.lhs.true
	cmpl	$9, -12(%rbp)
	je	.LBB17_7
# %bb.6:                                # %lor.lhs.false
	cmpl	$10, -12(%rbp)
	jne	.LBB17_24
.LBB17_7:                               # %if.then6
	movl	$0, -8(%rbp)
.LBB17_8:                               # %for.cond
                                        # =>This Loop Header: Depth=1
                                        #     Child Loop BB17_10 Depth 2
                                        #       Child Loop BB17_12 Depth 3
                                        #         Child Loop BB17_14 Depth 4
	cmpl	$4, -8(%rbp)
	jge	.LBB17_23
# %bb.9:                                # %for.body
                                        #   in Loop: Header=BB17_8 Depth=1
	movl	$0, -4(%rbp)
.LBB17_10:                              # %for.cond8
                                        #   Parent Loop BB17_8 Depth=1
                                        # =>  This Loop Header: Depth=2
                                        #       Child Loop BB17_12 Depth 3
                                        #         Child Loop BB17_14 Depth 4
	cmpl	$4, -4(%rbp)
	jge	.LBB17_21
# %bb.11:                               # %for.body10
                                        #   in Loop: Header=BB17_10 Depth=2
	movl	$1, -16(%rbp)
.LBB17_12:                              # %for.cond11
                                        #   Parent Loop BB17_8 Depth=1
                                        #     Parent Loop BB17_10 Depth=2
                                        # =>    This Loop Header: Depth=3
                                        #         Child Loop BB17_14 Depth 4
	cmpl	$8, -16(%rbp)
	jge	.LBB17_19
# %bb.13:                               # %for.body13
                                        #   in Loop: Header=BB17_12 Depth=3
	movl	$0, -20(%rbp)
.LBB17_14:                              # %for.cond14
                                        #   Parent Loop BB17_8 Depth=1
                                        #     Parent Loop BB17_10 Depth=2
                                        #       Parent Loop BB17_12 Depth=3
                                        # =>      This Inner Loop Header: Depth=4
	movl	-20(%rbp), %eax
	cmpl	-28(%rbp), %eax
	jge	.LBB17_17
# %bb.15:                               # %for.body16
                                        #   in Loop: Header=BB17_14 Depth=4
	movq	all_mincost, %rax
	movq	img, %rcx
	movl	152(%rcx), %ecx
	sarl	$2, %ecx
	addl	-8(%rbp), %ecx
	movslq	%ecx, %rcx
	movq	(%rax,%rcx,8), %rax
	movq	img, %rcx
	movl	156(%rcx), %ecx
	sarl	$2, %ecx
	addl	-4(%rbp), %ecx
	movslq	%ecx, %rcx
	movq	(%rax,%rcx,8), %rax
	movslq	-20(%rbp), %rcx
	movq	(%rax,%rcx,8), %rax
	movslq	-16(%rbp), %rcx
	movq	(%rax,%rcx,8), %rax
	movl	$0, (%rax)
# %bb.16:                               # %for.inc
                                        #   in Loop: Header=BB17_14 Depth=4
	movl	-20(%rbp), %eax
	addl	$1, %eax
	movl	%eax, -20(%rbp)
	jmp	.LBB17_14
.LBB17_17:                              # %for.end
                                        #   in Loop: Header=BB17_12 Depth=3
	jmp	.LBB17_18
.LBB17_18:                              # %for.inc30
                                        #   in Loop: Header=BB17_12 Depth=3
	movl	-16(%rbp), %eax
	addl	$1, %eax
	movl	%eax, -16(%rbp)
	jmp	.LBB17_12
.LBB17_19:                              # %for.end32
                                        #   in Loop: Header=BB17_10 Depth=2
	jmp	.LBB17_20
.LBB17_20:                              # %for.inc33
                                        #   in Loop: Header=BB17_10 Depth=2
	movl	-4(%rbp), %eax
	addl	$1, %eax
	movl	%eax, -4(%rbp)
	jmp	.LBB17_10
.LBB17_21:                              # %for.end35
                                        #   in Loop: Header=BB17_8 Depth=1
	jmp	.LBB17_22
.LBB17_22:                              # %for.inc36
                                        #   in Loop: Header=BB17_8 Depth=1
	movl	-8(%rbp), %eax
	addl	$1, %eax
	movl	%eax, -8(%rbp)
	jmp	.LBB17_8
.LBB17_23:                              # %for.end38
	jmp	.LBB17_24
.LBB17_24:                              # %if.end39
	cmpl	$35881101, -24(%rbp)    # imm = 0x223808D
	jne	.LBB17_26
.LBB17_25:
	addq	$32, %rsp
	popq	%rbp
	.cfi_def_cfa %rsp, 8
	retq
.LBB17_26:                              # %func_exit
	.cfi_def_cfa %rbp, 16
	callq	detect_breach
	jmp	.LBB17_25
.Lfunc_end17:
	.size	skip_intrabk_SAD.4, .Lfunc_end17-skip_intrabk_SAD.4
	.cfi_endproc
                                        # -- End function
	.globl	get_mem_mincost.5       # -- Begin function get_mem_mincost.5
	.p2align	4, 0x90
	.type	get_mem_mincost.5,@function
get_mem_mincost.5:                      # @get_mem_mincost.5
	.cfi_startproc
# %bb.0:                                # %entry
	pushq	%rbp
	.cfi_def_cfa_offset 16
	.cfi_offset %rbp, -16
	movq	%rsp, %rbp
	.cfi_def_cfa_register %rbp
	pushq	%rbx
	subq	$40, %rsp
	.cfi_offset %rbx, -24
	movl	$214654958, -36(%rbp)   # imm = 0xCCB5FEE
	movq	%rdi, -32(%rbp)
	movq	img, %rax
	movl	52(%rax), %eax
	cltd
	movl	$4, %ecx
	idivl	%ecx
	movslq	%eax, %rdi
	movl	$8, %esi
	callq	calloc
	movq	-32(%rbp), %rcx
	movq	%rax, (%rcx)
	cmpq	$0, %rax
	jne	.LBB18_2
# %bb.1:                                # %if.then
	movabsq	$.L.str, %rdi
	callq	no_mem_exit
.LBB18_2:                               # %if.end
	movl	$0, -12(%rbp)
.LBB18_3:                               # %for.cond
                                        # =>This Loop Header: Depth=1
                                        #     Child Loop BB18_7 Depth 2
                                        #       Child Loop BB18_11 Depth 3
                                        #         Child Loop BB18_15 Depth 4
	movl	-12(%rbp), %ecx
	movq	img, %rax
	movl	52(%rax), %eax
	cltd
	movl	$4, %esi
	idivl	%esi
	cmpl	%eax, %ecx
	jge	.LBB18_26
# %bb.4:                                # %for.body
                                        #   in Loop: Header=BB18_3 Depth=1
	movq	img, %rax
	movl	60(%rax), %eax
	cltd
	movl	$4, %ecx
	idivl	%ecx
	movslq	%eax, %rdi
	movl	$8, %esi
	callq	calloc
	movq	-32(%rbp), %rcx
	movq	(%rcx), %rcx
	movslq	-12(%rbp), %rdx
	movq	%rax, (%rcx,%rdx,8)
	cmpq	$0, %rax
	jne	.LBB18_6
# %bb.5:                                # %if.then11
                                        #   in Loop: Header=BB18_3 Depth=1
	movabsq	$.L.str, %rdi
	callq	no_mem_exit
.LBB18_6:                               # %if.end12
                                        #   in Loop: Header=BB18_3 Depth=1
	movl	$0, -16(%rbp)
.LBB18_7:                               # %for.cond13
                                        #   Parent Loop BB18_3 Depth=1
                                        # =>  This Loop Header: Depth=2
                                        #       Child Loop BB18_11 Depth 3
                                        #         Child Loop BB18_15 Depth 4
	movl	-16(%rbp), %ecx
	movq	img, %rax
	movl	60(%rax), %eax
	cltd
	movl	$4, %esi
	idivl	%esi
	cmpl	%eax, %ecx
	jge	.LBB18_24
# %bb.8:                                # %for.body18
                                        #   in Loop: Header=BB18_7 Depth=2
	movq	img, %rax
	movslq	36(%rax), %rdi
	movl	$8, %esi
	callq	calloc
	movq	-32(%rbp), %rcx
	movq	(%rcx), %rcx
	movslq	-12(%rbp), %rdx
	movq	(%rcx,%rdx,8), %rcx
	movslq	-16(%rbp), %rdx
	movq	%rax, (%rcx,%rdx,8)
	cmpq	$0, %rax
	jne	.LBB18_10
# %bb.9:                                # %if.then27
                                        #   in Loop: Header=BB18_7 Depth=2
	movabsq	$.L.str, %rdi
	callq	no_mem_exit
.LBB18_10:                              # %if.end28
                                        #   in Loop: Header=BB18_7 Depth=2
	movl	$0, -20(%rbp)
.LBB18_11:                              # %for.cond29
                                        #   Parent Loop BB18_3 Depth=1
                                        #     Parent Loop BB18_7 Depth=2
                                        # =>    This Loop Header: Depth=3
                                        #         Child Loop BB18_15 Depth 4
	movl	-20(%rbp), %eax
	movq	img, %rcx
	cmpl	36(%rcx), %eax
	jge	.LBB18_22
# %bb.12:                               # %for.body33
                                        #   in Loop: Header=BB18_11 Depth=3
	movl	$9, %edi
	movl	$8, %esi
	callq	calloc
	movq	-32(%rbp), %rcx
	movq	(%rcx), %rcx
	movslq	-12(%rbp), %rdx
	movq	(%rcx,%rdx,8), %rcx
	movslq	-16(%rbp), %rdx
	movq	(%rcx,%rdx,8), %rcx
	movslq	-20(%rbp), %rdx
	movq	%rax, (%rcx,%rdx,8)
	cmpq	$0, %rax
	jne	.LBB18_14
# %bb.13:                               # %if.then43
                                        #   in Loop: Header=BB18_11 Depth=3
	movabsq	$.L.str, %rdi
	callq	no_mem_exit
.LBB18_14:                              # %if.end44
                                        #   in Loop: Header=BB18_11 Depth=3
	movl	$0, -24(%rbp)
.LBB18_15:                              # %for.cond45
                                        #   Parent Loop BB18_3 Depth=1
                                        #     Parent Loop BB18_7 Depth=2
                                        #       Parent Loop BB18_11 Depth=3
                                        # =>      This Inner Loop Header: Depth=4
	cmpl	$9, -24(%rbp)
	jge	.LBB18_20
# %bb.16:                               # %for.body48
                                        #   in Loop: Header=BB18_15 Depth=4
	movl	$3, %edi
	movl	$4, %esi
	callq	calloc
	movq	-32(%rbp), %rcx
	movq	(%rcx), %rcx
	movslq	-12(%rbp), %rdx
	movq	(%rcx,%rdx,8), %rcx
	movslq	-16(%rbp), %rdx
	movq	(%rcx,%rdx,8), %rcx
	movslq	-20(%rbp), %rdx
	movq	(%rcx,%rdx,8), %rcx
	movslq	-24(%rbp), %rdx
	movq	%rax, (%rcx,%rdx,8)
	cmpq	$0, %rax
	jne	.LBB18_18
# %bb.17:                               # %if.then60
                                        #   in Loop: Header=BB18_15 Depth=4
	movabsq	$.L.str, %rdi
	callq	no_mem_exit
.LBB18_18:                              # %if.end61
                                        #   in Loop: Header=BB18_15 Depth=4
	jmp	.LBB18_19
.LBB18_19:                              # %for.inc
                                        #   in Loop: Header=BB18_15 Depth=4
	movl	-24(%rbp), %eax
	addl	$1, %eax
	movl	%eax, -24(%rbp)
	jmp	.LBB18_15
.LBB18_20:                              # %for.end
                                        #   in Loop: Header=BB18_11 Depth=3
	jmp	.LBB18_21
.LBB18_21:                              # %for.inc62
                                        #   in Loop: Header=BB18_11 Depth=3
	movl	-20(%rbp), %eax
	addl	$1, %eax
	movl	%eax, -20(%rbp)
	jmp	.LBB18_11
.LBB18_22:                              # %for.end64
                                        #   in Loop: Header=BB18_7 Depth=2
	jmp	.LBB18_23
.LBB18_23:                              # %for.inc65
                                        #   in Loop: Header=BB18_7 Depth=2
	movl	-16(%rbp), %eax
	addl	$1, %eax
	movl	%eax, -16(%rbp)
	jmp	.LBB18_7
.LBB18_24:                              # %for.end67
                                        #   in Loop: Header=BB18_3 Depth=1
	jmp	.LBB18_25
.LBB18_25:                              # %for.inc68
                                        #   in Loop: Header=BB18_3 Depth=1
	movl	-12(%rbp), %eax
	addl	$1, %eax
	movl	%eax, -12(%rbp)
	jmp	.LBB18_3
.LBB18_26:                              # %for.end70
	movq	img, %rax
	movl	52(%rax), %eax
	cltd
	movl	$4, %ecx
	idivl	%ecx
	movq	img, %rdx
	imull	60(%rdx), %eax
	cltd
	idivl	%ecx
	movq	img, %rcx
	imull	36(%rcx), %eax
	imull	$9, %eax, %eax
	imull	$3, %eax, %eax
	movslq	%eax, %rbx
	shlq	$2, %rbx
	cmpl	$214654958, -36(%rbp)   # imm = 0xCCB5FEE
	jne	.LBB18_28
.LBB18_27:
	movl	%ebx, %eax
	addq	$40, %rsp
	popq	%rbx
	popq	%rbp
	.cfi_def_cfa %rsp, 8
	retq
.LBB18_28:                              # %func_exit
	.cfi_def_cfa %rbp, 16
	callq	detect_breach
	jmp	.LBB18_27
.Lfunc_end18:
	.size	get_mem_mincost.5, .Lfunc_end18-get_mem_mincost.5
	.cfi_endproc
                                        # -- End function
	.globl	AddUpSADQuarter.6       # -- Begin function AddUpSADQuarter.6
	.p2align	4, 0x90
	.type	AddUpSADQuarter.6,@function
AddUpSADQuarter.6:                      # @AddUpSADQuarter.6
	.cfi_startproc
# %bb.0:                                # %entry
	pushq	%rbp
	.cfi_def_cfa_offset 16
	.cfi_offset %rbp, -16
	movq	%rsp, %rbp
	.cfi_def_cfa_register %rbp
	pushq	%rbx
	subq	$1208, %rsp             # imm = 0x4B8
	.cfi_offset %rbx, -24
	movl	48(%rbp), %eax
	movl	40(%rbp), %eax
	movl	32(%rbp), %eax
	movq	24(%rbp), %rax
	movq	16(%rbp), %rax
	movl	$749730891, -108(%rbp)  # imm = 0x2CAFFC4B
	movl	%edi, -104(%rbp)
	movl	%esi, -112(%rbp)
	movl	%edx, -96(%rbp)
	movl	%ecx, -116(%rbp)
	movl	%r8d, -100(%rbp)
	movl	%r9d, -92(%rbp)
	movl	32(%rbp), %eax
	movl	%eax, -80(%rbp)
	movq	16(%rbp), %rax
	movq	6448(%rax), %rax
	movq	%rax, -64(%rbp)
	movq	16(%rbp), %rax
	movl	6392(%rax), %eax
	movl	%eax, -28(%rbp)
	movq	16(%rbp), %rax
	movl	6396(%rax), %eax
	movl	%eax, -20(%rbp)
	movl	$0, -44(%rbp)
	movl	$0, -88(%rbp)
.LBB19_1:                               # %for.cond
                                        # =>This Loop Header: Depth=1
                                        #     Child Loop BB19_5 Depth 2
                                        #       Child Loop BB19_11 Depth 3
                                        #         Child Loop BB19_13 Depth 4
	xorl	%eax, %eax
	movl	-44(%rbp), %ecx
	cmpl	-116(%rbp), %ecx
	jge	.LBB19_3
# %bb.2:                                # %land.rhs
                                        #   in Loop: Header=BB19_1 Depth=1
	cmpl	$0, -88(%rbp)
	setne	%al
	xorb	$-1, %al
.LBB19_3:                               # %land.end
                                        #   in Loop: Header=BB19_1 Depth=1
	testb	$1, %al
	jne	.LBB19_4
	jmp	.LBB19_24
.LBB19_4:                               # %for.body
                                        #   in Loop: Header=BB19_1 Depth=1
	movl	-112(%rbp), %eax
	addl	-44(%rbp), %eax
	shll	$2, %eax
	addl	-92(%rbp), %eax
	movl	%eax, -76(%rbp)
	movl	$0, -12(%rbp)
.LBB19_5:                               # %for.cond2
                                        #   Parent Loop BB19_1 Depth=1
                                        # =>  This Loop Header: Depth=2
                                        #       Child Loop BB19_11 Depth 3
                                        #         Child Loop BB19_13 Depth 4
	movl	-12(%rbp), %eax
	cmpl	-96(%rbp), %eax
	jge	.LBB19_21
# %bb.6:                                # %for.body4
                                        #   in Loop: Header=BB19_5 Depth=2
	leaq	-192(%rbp), %rax
	movl	-104(%rbp), %ecx
	addl	-12(%rbp), %ecx
	shll	$2, %ecx
	addl	-100(%rbp), %ecx
	movl	%ecx, -24(%rbp)
	movq	%rax, -40(%rbp)
	movq	24(%rbp), %rax
	movslq	-44(%rbp), %rcx
	movq	(%rax,%rcx,8), %rax
	movq	%rax, -56(%rbp)
	movl	-76(%rbp), %eax
	movl	%eax, -16(%rbp)
	movq	-56(%rbp), %rax
	movslq	-12(%rbp), %rcx
	movzwl	(%rax,%rcx,2), %ebx
	movq	PelY_14, %rax
	movq	-64(%rbp), %rdi
	movl	-16(%rbp), %esi
	movl	-24(%rbp), %edx
	movl	-20(%rbp), %ecx
	movl	-28(%rbp), %r8d
	callq	*%rax
	movzwl	%ax, %eax
	subl	%eax, %ebx
	movq	-40(%rbp), %rax
	movq	%rax, %rcx
	addq	$4, %rcx
	movq	%rcx, -40(%rbp)
	movl	%ebx, (%rax)
	movq	-56(%rbp), %rax
	movl	-12(%rbp), %ecx
	addl	$1, %ecx
	movslq	%ecx, %rcx
	movzwl	(%rax,%rcx,2), %ebx
	movq	PelY_14, %rax
	movq	-64(%rbp), %rdi
	movl	-16(%rbp), %esi
	movl	-24(%rbp), %edx
	addl	$4, %edx
	movl	-20(%rbp), %ecx
	movl	-28(%rbp), %r8d
	callq	*%rax
	movzwl	%ax, %eax
	subl	%eax, %ebx
	movq	-40(%rbp), %rax
	movq	%rax, %rcx
	addq	$4, %rcx
	movq	%rcx, -40(%rbp)
	movl	%ebx, (%rax)
	movq	-56(%rbp), %rax
	movl	-12(%rbp), %ecx
	addl	$2, %ecx
	movslq	%ecx, %rcx
	movzwl	(%rax,%rcx,2), %ebx
	movq	PelY_14, %rax
	movq	-64(%rbp), %rdi
	movl	-16(%rbp), %esi
	movl	-24(%rbp), %edx
	addl	$8, %edx
	movl	-20(%rbp), %ecx
	movl	-28(%rbp), %r8d
	callq	*%rax
	movzwl	%ax, %eax
	subl	%eax, %ebx
	movq	-40(%rbp), %rax
	movq	%rax, %rcx
	addq	$4, %rcx
	movq	%rcx, -40(%rbp)
	movl	%ebx, (%rax)
	movq	-56(%rbp), %rax
	movl	-12(%rbp), %ecx
	addl	$3, %ecx
	movslq	%ecx, %rcx
	movzwl	(%rax,%rcx,2), %ebx
	movq	PelY_14, %rax
	movq	-64(%rbp), %rdi
	movl	-16(%rbp), %esi
	movl	-24(%rbp), %edx
	addl	$12, %edx
	movl	-20(%rbp), %ecx
	movl	-28(%rbp), %r8d
	callq	*%rax
	movzwl	%ax, %eax
	subl	%eax, %ebx
	movq	-40(%rbp), %rax
	movq	%rax, %rcx
	addq	$4, %rcx
	movq	%rcx, -40(%rbp)
	movl	%ebx, (%rax)
	movq	24(%rbp), %rax
	movl	-44(%rbp), %ecx
	addl	$1, %ecx
	movslq	%ecx, %rcx
	movq	(%rax,%rcx,8), %rax
	movq	%rax, -56(%rbp)
	movl	-76(%rbp), %eax
	addl	$4, %eax
	movl	%eax, -16(%rbp)
	movq	-56(%rbp), %rax
	movslq	-12(%rbp), %rcx
	movzwl	(%rax,%rcx,2), %ebx
	movq	PelY_14, %rax
	movq	-64(%rbp), %rdi
	movl	-16(%rbp), %esi
	movl	-24(%rbp), %edx
	movl	-20(%rbp), %ecx
	movl	-28(%rbp), %r8d
	callq	*%rax
	movzwl	%ax, %eax
	subl	%eax, %ebx
	movq	-40(%rbp), %rax
	movq	%rax, %rcx
	addq	$4, %rcx
	movq	%rcx, -40(%rbp)
	movl	%ebx, (%rax)
	movq	-56(%rbp), %rax
	movl	-12(%rbp), %ecx
	addl	$1, %ecx
	movslq	%ecx, %rcx
	movzwl	(%rax,%rcx,2), %ebx
	movq	PelY_14, %rax
	movq	-64(%rbp), %rdi
	movl	-16(%rbp), %esi
	movl	-24(%rbp), %edx
	addl	$4, %edx
	movl	-20(%rbp), %ecx
	movl	-28(%rbp), %r8d
	callq	*%rax
	movzwl	%ax, %eax
	subl	%eax, %ebx
	movq	-40(%rbp), %rax
	movq	%rax, %rcx
	addq	$4, %rcx
	movq	%rcx, -40(%rbp)
	movl	%ebx, (%rax)
	movq	-56(%rbp), %rax
	movl	-12(%rbp), %ecx
	addl	$2, %ecx
	movslq	%ecx, %rcx
	movzwl	(%rax,%rcx,2), %ebx
	movq	PelY_14, %rax
	movq	-64(%rbp), %rdi
	movl	-16(%rbp), %esi
	movl	-24(%rbp), %edx
	addl	$8, %edx
	movl	-20(%rbp), %ecx
	movl	-28(%rbp), %r8d
	callq	*%rax
	movzwl	%ax, %eax
	subl	%eax, %ebx
	movq	-40(%rbp), %rax
	movq	%rax, %rcx
	addq	$4, %rcx
	movq	%rcx, -40(%rbp)
	movl	%ebx, (%rax)
	movq	-56(%rbp), %rax
	movl	-12(%rbp), %ecx
	addl	$3, %ecx
	movslq	%ecx, %rcx
	movzwl	(%rax,%rcx,2), %ebx
	movq	PelY_14, %rax
	movq	-64(%rbp), %rdi
	movl	-16(%rbp), %esi
	movl	-24(%rbp), %edx
	addl	$12, %edx
	movl	-20(%rbp), %ecx
	movl	-28(%rbp), %r8d
	callq	*%rax
	movzwl	%ax, %eax
	subl	%eax, %ebx
	movq	-40(%rbp), %rax
	movq	%rax, %rcx
	addq	$4, %rcx
	movq	%rcx, -40(%rbp)
	movl	%ebx, (%rax)
	movq	24(%rbp), %rax
	movl	-44(%rbp), %ecx
	addl	$2, %ecx
	movslq	%ecx, %rcx
	movq	(%rax,%rcx,8), %rax
	movq	%rax, -56(%rbp)
	movl	-76(%rbp), %eax
	addl	$8, %eax
	movl	%eax, -16(%rbp)
	movq	-56(%rbp), %rax
	movslq	-12(%rbp), %rcx
	movzwl	(%rax,%rcx,2), %ebx
	movq	PelY_14, %rax
	movq	-64(%rbp), %rdi
	movl	-16(%rbp), %esi
	movl	-24(%rbp), %edx
	movl	-20(%rbp), %ecx
	movl	-28(%rbp), %r8d
	callq	*%rax
	movzwl	%ax, %eax
	subl	%eax, %ebx
	movq	-40(%rbp), %rax
	movq	%rax, %rcx
	addq	$4, %rcx
	movq	%rcx, -40(%rbp)
	movl	%ebx, (%rax)
	movq	-56(%rbp), %rax
	movl	-12(%rbp), %ecx
	addl	$1, %ecx
	movslq	%ecx, %rcx
	movzwl	(%rax,%rcx,2), %ebx
	movq	PelY_14, %rax
	movq	-64(%rbp), %rdi
	movl	-16(%rbp), %esi
	movl	-24(%rbp), %edx
	addl	$4, %edx
	movl	-20(%rbp), %ecx
	movl	-28(%rbp), %r8d
	callq	*%rax
	movzwl	%ax, %eax
	subl	%eax, %ebx
	movq	-40(%rbp), %rax
	movq	%rax, %rcx
	addq	$4, %rcx
	movq	%rcx, -40(%rbp)
	movl	%ebx, (%rax)
	movq	-56(%rbp), %rax
	movl	-12(%rbp), %ecx
	addl	$2, %ecx
	movslq	%ecx, %rcx
	movzwl	(%rax,%rcx,2), %ebx
	movq	PelY_14, %rax
	movq	-64(%rbp), %rdi
	movl	-16(%rbp), %esi
	movl	-24(%rbp), %edx
	addl	$8, %edx
	movl	-20(%rbp), %ecx
	movl	-28(%rbp), %r8d
	callq	*%rax
	movzwl	%ax, %eax
	subl	%eax, %ebx
	movq	-40(%rbp), %rax
	movq	%rax, %rcx
	addq	$4, %rcx
	movq	%rcx, -40(%rbp)
	movl	%ebx, (%rax)
	movq	-56(%rbp), %rax
	movl	-12(%rbp), %ecx
	addl	$3, %ecx
	movslq	%ecx, %rcx
	movzwl	(%rax,%rcx,2), %ebx
	movq	PelY_14, %rax
	movq	-64(%rbp), %rdi
	movl	-16(%rbp), %esi
	movl	-24(%rbp), %edx
	addl	$12, %edx
	movl	-20(%rbp), %ecx
	movl	-28(%rbp), %r8d
	callq	*%rax
	movzwl	%ax, %eax
	subl	%eax, %ebx
	movq	-40(%rbp), %rax
	movq	%rax, %rcx
	addq	$4, %rcx
	movq	%rcx, -40(%rbp)
	movl	%ebx, (%rax)
	movq	24(%rbp), %rax
	movl	-44(%rbp), %ecx
	addl	$3, %ecx
	movslq	%ecx, %rcx
	movq	(%rax,%rcx,8), %rax
	movq	%rax, -56(%rbp)
	movl	-76(%rbp), %eax
	addl	$12, %eax
	movl	%eax, -16(%rbp)
	movq	-56(%rbp), %rax
	movslq	-12(%rbp), %rcx
	movzwl	(%rax,%rcx,2), %ebx
	movq	PelY_14, %rax
	movq	-64(%rbp), %rdi
	movl	-16(%rbp), %esi
	movl	-24(%rbp), %edx
	movl	-20(%rbp), %ecx
	movl	-28(%rbp), %r8d
	callq	*%rax
	movzwl	%ax, %eax
	subl	%eax, %ebx
	movq	-40(%rbp), %rax
	movq	%rax, %rcx
	addq	$4, %rcx
	movq	%rcx, -40(%rbp)
	movl	%ebx, (%rax)
	movq	-56(%rbp), %rax
	movl	-12(%rbp), %ecx
	addl	$1, %ecx
	movslq	%ecx, %rcx
	movzwl	(%rax,%rcx,2), %ebx
	movq	PelY_14, %rax
	movq	-64(%rbp), %rdi
	movl	-16(%rbp), %esi
	movl	-24(%rbp), %edx
	addl	$4, %edx
	movl	-20(%rbp), %ecx
	movl	-28(%rbp), %r8d
	callq	*%rax
	movzwl	%ax, %eax
	subl	%eax, %ebx
	movq	-40(%rbp), %rax
	movq	%rax, %rcx
	addq	$4, %rcx
	movq	%rcx, -40(%rbp)
	movl	%ebx, (%rax)
	movq	-56(%rbp), %rax
	movl	-12(%rbp), %ecx
	addl	$2, %ecx
	movslq	%ecx, %rcx
	movzwl	(%rax,%rcx,2), %ebx
	movq	PelY_14, %rax
	movq	-64(%rbp), %rdi
	movl	-16(%rbp), %esi
	movl	-24(%rbp), %edx
	addl	$8, %edx
	movl	-20(%rbp), %ecx
	movl	-28(%rbp), %r8d
	callq	*%rax
	movzwl	%ax, %eax
	subl	%eax, %ebx
	movq	-40(%rbp), %rax
	movq	%rax, %rcx
	addq	$4, %rcx
	movq	%rcx, -40(%rbp)
	movl	%ebx, (%rax)
	movq	-56(%rbp), %rax
	movl	-12(%rbp), %ecx
	addl	$3, %ecx
	movslq	%ecx, %rcx
	movzwl	(%rax,%rcx,2), %ebx
	movq	PelY_14, %rax
	movq	-64(%rbp), %rdi
	movl	-16(%rbp), %esi
	movl	-24(%rbp), %edx
	addl	$12, %edx
	movl	-20(%rbp), %ecx
	movl	-28(%rbp), %r8d
	callq	*%rax
	movzwl	%ax, %eax
	subl	%eax, %ebx
	movq	-40(%rbp), %rax
	movl	%ebx, (%rax)
	cmpl	$0, 48(%rbp)
	jne	.LBB19_10
# %bb.7:                                # %if.then
                                        #   in Loop: Header=BB19_5 Depth=2
	leaq	-192(%rbp), %rdi
	movq	input, %rax
	movl	24(%rax), %esi
	callq	SATD
	addl	-80(%rbp), %eax
	movl	%eax, -80(%rbp)
	cmpl	40(%rbp), %eax
	jle	.LBB19_9
# %bb.8:                                # %if.then157
                                        #   in Loop: Header=BB19_1 Depth=1
	movl	$1, -88(%rbp)
	jmp	.LBB19_22
.LBB19_9:                               # %if.end
                                        #   in Loop: Header=BB19_5 Depth=2
	jmp	.LBB19_19
.LBB19_10:                              # %if.else
                                        #   in Loop: Header=BB19_5 Depth=2
	movl	-44(%rbp), %eax
	movl	%eax, -72(%rbp)
	movl	$0, -84(%rbp)
.LBB19_11:                              # %for.cond158
                                        #   Parent Loop BB19_1 Depth=1
                                        #     Parent Loop BB19_5 Depth=2
                                        # =>    This Loop Header: Depth=3
                                        #         Child Loop BB19_13 Depth 4
	movl	-72(%rbp), %eax
	movl	-44(%rbp), %ecx
	addl	$4, %ecx
	cmpl	%ecx, %eax
	jge	.LBB19_18
# %bb.12:                               # %for.body162
                                        #   in Loop: Header=BB19_11 Depth=3
	movl	-12(%rbp), %eax
	movl	%eax, -68(%rbp)
.LBB19_13:                              # %for.cond163
                                        #   Parent Loop BB19_1 Depth=1
                                        #     Parent Loop BB19_5 Depth=2
                                        #       Parent Loop BB19_11 Depth=3
                                        # =>      This Inner Loop Header: Depth=4
	movl	-68(%rbp), %eax
	movl	-12(%rbp), %ecx
	addl	$4, %ecx
	cmpl	%ecx, %eax
	jge	.LBB19_16
# %bb.14:                               # %for.body167
                                        #   in Loop: Header=BB19_13 Depth=4
	movslq	-84(%rbp), %rax
	movl	-192(%rbp,%rax,4), %eax
	movslq	-72(%rbp), %rcx
	shlq	$6, %rcx
	leaq	-1216(%rbp), %rdx
	addq	%rcx, %rdx
	movslq	-68(%rbp), %rcx
	movl	%eax, (%rdx,%rcx,4)
# %bb.15:                               # %for.inc
                                        #   in Loop: Header=BB19_13 Depth=4
	movl	-68(%rbp), %eax
	addl	$1, %eax
	movl	%eax, -68(%rbp)
	movl	-84(%rbp), %eax
	addl	$1, %eax
	movl	%eax, -84(%rbp)
	jmp	.LBB19_13
.LBB19_16:                              # %for.end
                                        #   in Loop: Header=BB19_11 Depth=3
	jmp	.LBB19_17
.LBB19_17:                              # %for.inc175
                                        #   in Loop: Header=BB19_11 Depth=3
	movl	-72(%rbp), %eax
	addl	$1, %eax
	movl	%eax, -72(%rbp)
	jmp	.LBB19_11
.LBB19_18:                              # %for.end177
                                        #   in Loop: Header=BB19_5 Depth=2
	jmp	.LBB19_19
.LBB19_19:                              # %if.end178
                                        #   in Loop: Header=BB19_5 Depth=2
	jmp	.LBB19_20
.LBB19_20:                              # %for.inc179
                                        #   in Loop: Header=BB19_5 Depth=2
	movl	-12(%rbp), %eax
	addl	$4, %eax
	movl	%eax, -12(%rbp)
	jmp	.LBB19_5
.LBB19_21:                              # %for.end181.loopexit
                                        #   in Loop: Header=BB19_1 Depth=1
	jmp	.LBB19_22
.LBB19_22:                              # %for.end181
                                        #   in Loop: Header=BB19_1 Depth=1
	jmp	.LBB19_23
.LBB19_23:                              # %for.inc182
                                        #   in Loop: Header=BB19_1 Depth=1
	movl	-44(%rbp), %eax
	addl	$4, %eax
	movl	%eax, -44(%rbp)
	jmp	.LBB19_1
.LBB19_24:                              # %for.end184
	movl	-80(%rbp), %ebx
	cmpl	$749730891, -108(%rbp)  # imm = 0x2CAFFC4B
	jne	.LBB19_26
.LBB19_25:
	movl	%ebx, %eax
	addq	$1208, %rsp             # imm = 0x4B8
	popq	%rbx
	popq	%rbp
	.cfi_def_cfa %rsp, 8
	retq
.LBB19_26:                              # %func_exit
	.cfi_def_cfa %rbp, 16
	callq	detect_breach
	jmp	.LBB19_25
.Lfunc_end19:
	.size	AddUpSADQuarter.6, .Lfunc_end19-AddUpSADQuarter.6
	.cfi_endproc
                                        # -- End function
	.globl	free_mem_mincost.7      # -- Begin function free_mem_mincost.7
	.p2align	4, 0x90
	.type	free_mem_mincost.7,@function
free_mem_mincost.7:                     # @free_mem_mincost.7
	.cfi_startproc
# %bb.0:                                # %entry
	pushq	%rbp
	.cfi_def_cfa_offset 16
	.cfi_offset %rbp, -16
	movq	%rsp, %rbp
	.cfi_def_cfa_register %rbp
	subq	$32, %rsp
	movl	$905566957, -28(%rbp)   # imm = 0x35F9DAED
	movq	%rdi, -24(%rbp)
	movl	$0, -4(%rbp)
.LBB20_1:                               # %for.cond
                                        # =>This Loop Header: Depth=1
                                        #     Child Loop BB20_3 Depth 2
                                        #       Child Loop BB20_5 Depth 3
                                        #         Child Loop BB20_7 Depth 4
	movl	-4(%rbp), %ecx
	movq	img, %rax
	movl	52(%rax), %eax
	cltd
	movl	$4, %esi
	idivl	%esi
	cmpl	%eax, %ecx
	jge	.LBB20_16
# %bb.2:                                # %for.body
                                        #   in Loop: Header=BB20_1 Depth=1
	movl	$0, -8(%rbp)
.LBB20_3:                               # %for.cond1
                                        #   Parent Loop BB20_1 Depth=1
                                        # =>  This Loop Header: Depth=2
                                        #       Child Loop BB20_5 Depth 3
                                        #         Child Loop BB20_7 Depth 4
	movl	-8(%rbp), %ecx
	movq	img, %rax
	movl	60(%rax), %eax
	cltd
	movl	$4, %esi
	idivl	%esi
	cmpl	%eax, %ecx
	jge	.LBB20_14
# %bb.4:                                # %for.body4
                                        #   in Loop: Header=BB20_3 Depth=2
	movl	$0, -12(%rbp)
.LBB20_5:                               # %for.cond5
                                        #   Parent Loop BB20_1 Depth=1
                                        #     Parent Loop BB20_3 Depth=2
                                        # =>    This Loop Header: Depth=3
                                        #         Child Loop BB20_7 Depth 4
	movl	-12(%rbp), %eax
	movq	img, %rcx
	cmpl	36(%rcx), %eax
	jge	.LBB20_12
# %bb.6:                                # %for.body7
                                        #   in Loop: Header=BB20_5 Depth=3
	movl	$0, -16(%rbp)
.LBB20_7:                               # %for.cond8
                                        #   Parent Loop BB20_1 Depth=1
                                        #     Parent Loop BB20_3 Depth=2
                                        #       Parent Loop BB20_5 Depth=3
                                        # =>      This Inner Loop Header: Depth=4
	cmpl	$9, -16(%rbp)
	jge	.LBB20_10
# %bb.8:                                # %for.body10
                                        #   in Loop: Header=BB20_7 Depth=4
	movq	-24(%rbp), %rax
	movslq	-4(%rbp), %rcx
	movq	(%rax,%rcx,8), %rax
	movslq	-8(%rbp), %rcx
	movq	(%rax,%rcx,8), %rax
	movslq	-12(%rbp), %rcx
	movq	(%rax,%rcx,8), %rax
	movslq	-16(%rbp), %rcx
	movq	(%rax,%rcx,8), %rdi
	callq	free
# %bb.9:                                # %for.inc
                                        #   in Loop: Header=BB20_7 Depth=4
	movl	-16(%rbp), %eax
	addl	$1, %eax
	movl	%eax, -16(%rbp)
	jmp	.LBB20_7
.LBB20_10:                              # %for.end
                                        #   in Loop: Header=BB20_5 Depth=3
	movq	-24(%rbp), %rax
	movslq	-4(%rbp), %rcx
	movq	(%rax,%rcx,8), %rax
	movslq	-8(%rbp), %rcx
	movq	(%rax,%rcx,8), %rax
	movslq	-12(%rbp), %rcx
	movq	(%rax,%rcx,8), %rdi
	callq	free
# %bb.11:                               # %for.inc23
                                        #   in Loop: Header=BB20_5 Depth=3
	movl	-12(%rbp), %eax
	addl	$1, %eax
	movl	%eax, -12(%rbp)
	jmp	.LBB20_5
.LBB20_12:                              # %for.end25
                                        #   in Loop: Header=BB20_3 Depth=2
	movq	-24(%rbp), %rax
	movslq	-4(%rbp), %rcx
	movq	(%rax,%rcx,8), %rax
	movslq	-8(%rbp), %rcx
	movq	(%rax,%rcx,8), %rdi
	callq	free
# %bb.13:                               # %for.inc30
                                        #   in Loop: Header=BB20_3 Depth=2
	movl	-8(%rbp), %eax
	addl	$1, %eax
	movl	%eax, -8(%rbp)
	jmp	.LBB20_3
.LBB20_14:                              # %for.end32
                                        #   in Loop: Header=BB20_1 Depth=1
	movq	-24(%rbp), %rax
	movslq	-4(%rbp), %rcx
	movq	(%rax,%rcx,8), %rdi
	callq	free
# %bb.15:                               # %for.inc35
                                        #   in Loop: Header=BB20_1 Depth=1
	movl	-4(%rbp), %eax
	addl	$1, %eax
	movl	%eax, -4(%rbp)
	jmp	.LBB20_1
.LBB20_16:                              # %for.end37
	movq	-24(%rbp), %rdi
	callq	free
	cmpl	$905566957, -28(%rbp)   # imm = 0x35F9DAED
	jne	.LBB20_18
.LBB20_17:
	addq	$32, %rsp
	popq	%rbp
	.cfi_def_cfa %rsp, 8
	retq
.LBB20_18:                              # %func_exit
	.cfi_def_cfa %rbp, 16
	callq	detect_breach
	jmp	.LBB20_17
.Lfunc_end20:
	.size	free_mem_mincost.7, .Lfunc_end20-free_mem_mincost.7
	.cfi_endproc
                                        # -- End function
	.globl	PartCalMad.8            # -- Begin function PartCalMad.8
	.p2align	4, 0x90
	.type	PartCalMad.8,@function
PartCalMad.8:                           # @PartCalMad.8
	.cfi_startproc
# %bb.0:                                # %entry
	pushq	%rbp
	.cfi_def_cfa_offset 16
	.cfi_offset %rbp, -16
	movq	%rsp, %rbp
	.cfi_def_cfa_register %rbp
	pushq	%rbx
	subq	$72, %rsp
	.cfi_offset %rbx, -24
	movl	40(%rbp), %eax
	movl	32(%rbp), %eax
	movl	24(%rbp), %eax
	movl	16(%rbp), %eax
	movl	$883843998, -52(%rbp)   # imm = 0x34AE639E
	movq	%rdi, -72(%rbp)
	movq	%rsi, -80(%rbp)
	movq	%rdx, -64(%rbp)
	movl	%ecx, -48(%rbp)
	movl	%r8d, -44(%rbp)
	movl	%r9d, -40(%rbp)
	movq	img, %rax
	cmpl	$0, 72400(%rax)
	je	.LBB21_3
# %bb.1:                                # %land.lhs.true
	movq	img, %rax
	movq	14168(%rax), %rax
	movq	img, %rcx
	movslq	12(%rcx), %rcx
	imulq	$632, %rcx, %rcx        # imm = 0x278
	addq	%rcx, %rax
	cmpl	$0, 532(%rax)
	je	.LBB21_3
# %bb.2:                                # %cond.true
	movq	img, %rax
	movl	60(%rax), %eax
	cltd
	movl	$2, %ecx
	idivl	%ecx
	jmp	.LBB21_4
.LBB21_3:                               # %cond.false
	movq	img, %rax
	movl	60(%rax), %eax
.LBB21_4:                               # %cond.end
	movl	%eax, -56(%rbp)
	movl	$0, -12(%rbp)
.LBB21_5:                               # %for.cond
                                        # =>This Loop Header: Depth=1
                                        #     Child Loop BB21_7 Depth 2
	movl	-12(%rbp), %eax
	cmpl	-48(%rbp), %eax
	jge	.LBB21_14
# %bb.6:                                # %for.body
                                        #   in Loop: Header=BB21_5 Depth=1
	movq	-64(%rbp), %rax
	movl	-44(%rbp), %edi
	movq	-72(%rbp), %rsi
	movl	40(%rbp), %edx
	addl	-12(%rbp), %edx
	movl	32(%rbp), %ecx
	movl	-56(%rbp), %r8d
	movq	img, %rbx
	movl	52(%rbx), %r9d
	callq	*%rax
	movq	%rax, -24(%rbp)
	movq	-80(%rbp), %rax
	movslq	-12(%rbp), %rcx
	movq	(%rax,%rcx,8), %rax
	movq	%rax, -32(%rbp)
	movl	$0, -36(%rbp)
.LBB21_7:                               # %for.cond6
                                        #   Parent Loop BB21_5 Depth=1
                                        # =>  This Inner Loop Header: Depth=2
	movl	-36(%rbp), %eax
	cmpl	-40(%rbp), %eax
	jge	.LBB21_10
# %bb.8:                                # %for.body8
                                        #   in Loop: Header=BB21_7 Depth=2
	movq	byte_abs, %rax
	movq	-32(%rbp), %rcx
	movq	%rcx, %rdx
	addq	$2, %rdx
	movq	%rdx, -32(%rbp)
	movzwl	(%rcx), %ecx
	movq	-24(%rbp), %rdx
	movq	%rdx, %rsi
	addq	$2, %rsi
	movq	%rsi, -24(%rbp)
	movzwl	(%rdx), %edx
	subl	%edx, %ecx
	movslq	%ecx, %rcx
	movl	(%rax,%rcx,4), %eax
	addl	16(%rbp), %eax
	movl	%eax, 16(%rbp)
	movq	byte_abs, %rax
	movq	-32(%rbp), %rcx
	movq	%rcx, %rdx
	addq	$2, %rdx
	movq	%rdx, -32(%rbp)
	movzwl	(%rcx), %ecx
	movq	-24(%rbp), %rdx
	movq	%rdx, %rsi
	addq	$2, %rsi
	movq	%rsi, -24(%rbp)
	movzwl	(%rdx), %edx
	subl	%edx, %ecx
	movslq	%ecx, %rcx
	movl	(%rax,%rcx,4), %eax
	addl	16(%rbp), %eax
	movl	%eax, 16(%rbp)
	movq	byte_abs, %rax
	movq	-32(%rbp), %rcx
	movq	%rcx, %rdx
	addq	$2, %rdx
	movq	%rdx, -32(%rbp)
	movzwl	(%rcx), %ecx
	movq	-24(%rbp), %rdx
	movq	%rdx, %rsi
	addq	$2, %rsi
	movq	%rsi, -24(%rbp)
	movzwl	(%rdx), %edx
	subl	%edx, %ecx
	movslq	%ecx, %rcx
	movl	(%rax,%rcx,4), %eax
	addl	16(%rbp), %eax
	movl	%eax, 16(%rbp)
	movq	byte_abs, %rax
	movq	-32(%rbp), %rcx
	movq	%rcx, %rdx
	addq	$2, %rdx
	movq	%rdx, -32(%rbp)
	movzwl	(%rcx), %ecx
	movq	-24(%rbp), %rdx
	movq	%rdx, %rsi
	addq	$2, %rsi
	movq	%rsi, -24(%rbp)
	movzwl	(%rdx), %edx
	subl	%edx, %ecx
	movslq	%ecx, %rcx
	movl	(%rax,%rcx,4), %eax
	addl	16(%rbp), %eax
	movl	%eax, 16(%rbp)
# %bb.9:                                # %for.inc
                                        #   in Loop: Header=BB21_7 Depth=2
	movl	-36(%rbp), %eax
	addl	$1, %eax
	movl	%eax, -36(%rbp)
	jmp	.LBB21_7
.LBB21_10:                              # %for.end
                                        #   in Loop: Header=BB21_5 Depth=1
	movl	16(%rbp), %eax
	cmpl	24(%rbp), %eax
	jl	.LBB21_12
# %bb.11:                               # %if.then
	jmp	.LBB21_15
.LBB21_12:                              # %if.end
                                        #   in Loop: Header=BB21_5 Depth=1
	jmp	.LBB21_13
.LBB21_13:                              # %for.inc40
                                        #   in Loop: Header=BB21_5 Depth=1
	movl	-12(%rbp), %eax
	addl	$1, %eax
	movl	%eax, -12(%rbp)
	jmp	.LBB21_5
.LBB21_14:                              # %for.end42.loopexit
	jmp	.LBB21_15
.LBB21_15:                              # %for.end42
	movl	16(%rbp), %ebx
	cmpl	$883843998, -52(%rbp)   # imm = 0x34AE639E
	jne	.LBB21_17
.LBB21_16:
	movl	%ebx, %eax
	addq	$72, %rsp
	popq	%rbx
	popq	%rbp
	.cfi_def_cfa %rsp, 8
	retq
.LBB21_17:                              # %func_exit
	.cfi_def_cfa %rbp, 16
	callq	detect_breach
	jmp	.LBB21_16
.Lfunc_end21:
	.size	PartCalMad.8, .Lfunc_end21-PartCalMad.8
	.cfi_endproc
                                        # -- End function
	.globl	get_mem_mincost.9       # -- Begin function get_mem_mincost.9
	.p2align	4, 0x90
	.type	get_mem_mincost.9,@function
get_mem_mincost.9:                      # @get_mem_mincost.9
	.cfi_startproc
# %bb.0:                                # %entry
	pushq	%rbp
	.cfi_def_cfa_offset 16
	.cfi_offset %rbp, -16
	movq	%rsp, %rbp
	.cfi_def_cfa_register %rbp
	pushq	%rbx
	subq	$40, %rsp
	.cfi_offset %rbx, -24
	movl	$932112430, -36(%rbp)   # imm = 0x378EE82E
	movq	%rdi, -32(%rbp)
	movq	img, %rax
	movl	52(%rax), %eax
	cltd
	movl	$4, %ecx
	idivl	%ecx
	movslq	%eax, %rdi
	movl	$8, %esi
	callq	calloc
	movq	-32(%rbp), %rcx
	movq	%rax, (%rcx)
	cmpq	$0, %rax
	jne	.LBB22_2
# %bb.1:                                # %if.then
	movabsq	$.L.str, %rdi
	callq	no_mem_exit
.LBB22_2:                               # %if.end
	movl	$0, -12(%rbp)
.LBB22_3:                               # %for.cond
                                        # =>This Loop Header: Depth=1
                                        #     Child Loop BB22_7 Depth 2
                                        #       Child Loop BB22_11 Depth 3
                                        #         Child Loop BB22_15 Depth 4
	movl	-12(%rbp), %ecx
	movq	img, %rax
	movl	52(%rax), %eax
	cltd
	movl	$4, %esi
	idivl	%esi
	cmpl	%eax, %ecx
	jge	.LBB22_26
# %bb.4:                                # %for.body
                                        #   in Loop: Header=BB22_3 Depth=1
	movq	img, %rax
	movl	60(%rax), %eax
	cltd
	movl	$4, %ecx
	idivl	%ecx
	movslq	%eax, %rdi
	movl	$8, %esi
	callq	calloc
	movq	-32(%rbp), %rcx
	movq	(%rcx), %rcx
	movslq	-12(%rbp), %rdx
	movq	%rax, (%rcx,%rdx,8)
	cmpq	$0, %rax
	jne	.LBB22_6
# %bb.5:                                # %if.then11
                                        #   in Loop: Header=BB22_3 Depth=1
	movabsq	$.L.str, %rdi
	callq	no_mem_exit
.LBB22_6:                               # %if.end12
                                        #   in Loop: Header=BB22_3 Depth=1
	movl	$0, -16(%rbp)
.LBB22_7:                               # %for.cond13
                                        #   Parent Loop BB22_3 Depth=1
                                        # =>  This Loop Header: Depth=2
                                        #       Child Loop BB22_11 Depth 3
                                        #         Child Loop BB22_15 Depth 4
	movl	-16(%rbp), %ecx
	movq	img, %rax
	movl	60(%rax), %eax
	cltd
	movl	$4, %esi
	idivl	%esi
	cmpl	%eax, %ecx
	jge	.LBB22_24
# %bb.8:                                # %for.body18
                                        #   in Loop: Header=BB22_7 Depth=2
	movq	img, %rax
	movslq	36(%rax), %rdi
	movl	$8, %esi
	callq	calloc
	movq	-32(%rbp), %rcx
	movq	(%rcx), %rcx
	movslq	-12(%rbp), %rdx
	movq	(%rcx,%rdx,8), %rcx
	movslq	-16(%rbp), %rdx
	movq	%rax, (%rcx,%rdx,8)
	cmpq	$0, %rax
	jne	.LBB22_10
# %bb.9:                                # %if.then27
                                        #   in Loop: Header=BB22_7 Depth=2
	movabsq	$.L.str, %rdi
	callq	no_mem_exit
.LBB22_10:                              # %if.end28
                                        #   in Loop: Header=BB22_7 Depth=2
	movl	$0, -20(%rbp)
.LBB22_11:                              # %for.cond29
                                        #   Parent Loop BB22_3 Depth=1
                                        #     Parent Loop BB22_7 Depth=2
                                        # =>    This Loop Header: Depth=3
                                        #         Child Loop BB22_15 Depth 4
	movl	-20(%rbp), %eax
	movq	img, %rcx
	cmpl	36(%rcx), %eax
	jge	.LBB22_22
# %bb.12:                               # %for.body33
                                        #   in Loop: Header=BB22_11 Depth=3
	movl	$9, %edi
	movl	$8, %esi
	callq	calloc
	movq	-32(%rbp), %rcx
	movq	(%rcx), %rcx
	movslq	-12(%rbp), %rdx
	movq	(%rcx,%rdx,8), %rcx
	movslq	-16(%rbp), %rdx
	movq	(%rcx,%rdx,8), %rcx
	movslq	-20(%rbp), %rdx
	movq	%rax, (%rcx,%rdx,8)
	cmpq	$0, %rax
	jne	.LBB22_14
# %bb.13:                               # %if.then43
                                        #   in Loop: Header=BB22_11 Depth=3
	movabsq	$.L.str, %rdi
	callq	no_mem_exit
.LBB22_14:                              # %if.end44
                                        #   in Loop: Header=BB22_11 Depth=3
	movl	$0, -24(%rbp)
.LBB22_15:                              # %for.cond45
                                        #   Parent Loop BB22_3 Depth=1
                                        #     Parent Loop BB22_7 Depth=2
                                        #       Parent Loop BB22_11 Depth=3
                                        # =>      This Inner Loop Header: Depth=4
	cmpl	$9, -24(%rbp)
	jge	.LBB22_20
# %bb.16:                               # %for.body48
                                        #   in Loop: Header=BB22_15 Depth=4
	movl	$3, %edi
	movl	$4, %esi
	callq	calloc
	movq	-32(%rbp), %rcx
	movq	(%rcx), %rcx
	movslq	-12(%rbp), %rdx
	movq	(%rcx,%rdx,8), %rcx
	movslq	-16(%rbp), %rdx
	movq	(%rcx,%rdx,8), %rcx
	movslq	-20(%rbp), %rdx
	movq	(%rcx,%rdx,8), %rcx
	movslq	-24(%rbp), %rdx
	movq	%rax, (%rcx,%rdx,8)
	cmpq	$0, %rax
	jne	.LBB22_18
# %bb.17:                               # %if.then60
                                        #   in Loop: Header=BB22_15 Depth=4
	movabsq	$.L.str, %rdi
	callq	no_mem_exit
.LBB22_18:                              # %if.end61
                                        #   in Loop: Header=BB22_15 Depth=4
	jmp	.LBB22_19
.LBB22_19:                              # %for.inc
                                        #   in Loop: Header=BB22_15 Depth=4
	movl	-24(%rbp), %eax
	addl	$1, %eax
	movl	%eax, -24(%rbp)
	jmp	.LBB22_15
.LBB22_20:                              # %for.end
                                        #   in Loop: Header=BB22_11 Depth=3
	jmp	.LBB22_21
.LBB22_21:                              # %for.inc62
                                        #   in Loop: Header=BB22_11 Depth=3
	movl	-20(%rbp), %eax
	addl	$1, %eax
	movl	%eax, -20(%rbp)
	jmp	.LBB22_11
.LBB22_22:                              # %for.end64
                                        #   in Loop: Header=BB22_7 Depth=2
	jmp	.LBB22_23
.LBB22_23:                              # %for.inc65
                                        #   in Loop: Header=BB22_7 Depth=2
	movl	-16(%rbp), %eax
	addl	$1, %eax
	movl	%eax, -16(%rbp)
	jmp	.LBB22_7
.LBB22_24:                              # %for.end67
                                        #   in Loop: Header=BB22_3 Depth=1
	jmp	.LBB22_25
.LBB22_25:                              # %for.inc68
                                        #   in Loop: Header=BB22_3 Depth=1
	movl	-12(%rbp), %eax
	addl	$1, %eax
	movl	%eax, -12(%rbp)
	jmp	.LBB22_3
.LBB22_26:                              # %for.end70
	movq	img, %rax
	movl	52(%rax), %eax
	cltd
	movl	$4, %ecx
	idivl	%ecx
	movq	img, %rdx
	imull	60(%rdx), %eax
	cltd
	idivl	%ecx
	movq	img, %rcx
	imull	36(%rcx), %eax
	imull	$9, %eax, %eax
	imull	$3, %eax, %eax
	movslq	%eax, %rbx
	shlq	$2, %rbx
	cmpl	$932112430, -36(%rbp)   # imm = 0x378EE82E
	jne	.LBB22_28
.LBB22_27:
	movl	%ebx, %eax
	addq	$40, %rsp
	popq	%rbx
	popq	%rbp
	.cfi_def_cfa %rsp, 8
	retq
.LBB22_28:                              # %func_exit
	.cfi_def_cfa %rbp, 16
	callq	detect_breach
	jmp	.LBB22_27
.Lfunc_end22:
	.size	get_mem_mincost.9, .Lfunc_end22-get_mem_mincost.9
	.cfi_endproc
                                        # -- End function
	.globl	skip_intrabk_SAD.10     # -- Begin function skip_intrabk_SAD.10
	.p2align	4, 0x90
	.type	skip_intrabk_SAD.10,@function
skip_intrabk_SAD.10:                    # @skip_intrabk_SAD.10
	.cfi_startproc
# %bb.0:                                # %entry
	pushq	%rbp
	.cfi_def_cfa_offset 16
	.cfi_offset %rbp, -16
	movq	%rsp, %rbp
	.cfi_def_cfa_register %rbp
	subq	$32, %rsp
	movl	$1347519145, -24(%rbp)  # imm = 0x505182A9
	movl	%edi, -12(%rbp)
	movl	%esi, -28(%rbp)
	movq	img, %rax
	cmpl	$0, (%rax)
	jle	.LBB23_4
# %bb.1:                                # %if.then
	cmpl	$9, -12(%rbp)
	movb	$1, %al
	je	.LBB23_3
# %bb.2:                                # %lor.rhs
	cmpl	$10, -12(%rbp)
	sete	%al
.LBB23_3:                               # %lor.end
	xorl	%ecx, %ecx
	testb	$1, %al
	movl	$1, %eax
	cmovnel	%eax, %ecx
	movq	flag_intra, %rax
	movq	img, %rdx
	movl	152(%rdx), %edx
	sarl	$4, %edx
	movslq	%edx, %rdx
	movl	%ecx, (%rax,%rdx,4)
.LBB23_4:                               # %if.end
	movq	img, %rax
	cmpl	$0, 24(%rax)
	je	.LBB23_24
# %bb.5:                                # %land.lhs.true
	cmpl	$9, -12(%rbp)
	je	.LBB23_7
# %bb.6:                                # %lor.lhs.false
	cmpl	$10, -12(%rbp)
	jne	.LBB23_24
.LBB23_7:                               # %if.then6
	movl	$0, -8(%rbp)
.LBB23_8:                               # %for.cond
                                        # =>This Loop Header: Depth=1
                                        #     Child Loop BB23_10 Depth 2
                                        #       Child Loop BB23_12 Depth 3
                                        #         Child Loop BB23_14 Depth 4
	cmpl	$4, -8(%rbp)
	jge	.LBB23_23
# %bb.9:                                # %for.body
                                        #   in Loop: Header=BB23_8 Depth=1
	movl	$0, -4(%rbp)
.LBB23_10:                              # %for.cond8
                                        #   Parent Loop BB23_8 Depth=1
                                        # =>  This Loop Header: Depth=2
                                        #       Child Loop BB23_12 Depth 3
                                        #         Child Loop BB23_14 Depth 4
	cmpl	$4, -4(%rbp)
	jge	.LBB23_21
# %bb.11:                               # %for.body10
                                        #   in Loop: Header=BB23_10 Depth=2
	movl	$1, -16(%rbp)
.LBB23_12:                              # %for.cond11
                                        #   Parent Loop BB23_8 Depth=1
                                        #     Parent Loop BB23_10 Depth=2
                                        # =>    This Loop Header: Depth=3
                                        #         Child Loop BB23_14 Depth 4
	cmpl	$8, -16(%rbp)
	jge	.LBB23_19
# %bb.13:                               # %for.body13
                                        #   in Loop: Header=BB23_12 Depth=3
	movl	$0, -20(%rbp)
.LBB23_14:                              # %for.cond14
                                        #   Parent Loop BB23_8 Depth=1
                                        #     Parent Loop BB23_10 Depth=2
                                        #       Parent Loop BB23_12 Depth=3
                                        # =>      This Inner Loop Header: Depth=4
	movl	-20(%rbp), %eax
	cmpl	-28(%rbp), %eax
	jge	.LBB23_17
# %bb.15:                               # %for.body16
                                        #   in Loop: Header=BB23_14 Depth=4
	movq	all_mincost, %rax
	movq	img, %rcx
	movl	152(%rcx), %ecx
	sarl	$2, %ecx
	addl	-8(%rbp), %ecx
	movslq	%ecx, %rcx
	movq	(%rax,%rcx,8), %rax
	movq	img, %rcx
	movl	156(%rcx), %ecx
	sarl	$2, %ecx
	addl	-4(%rbp), %ecx
	movslq	%ecx, %rcx
	movq	(%rax,%rcx,8), %rax
	movslq	-20(%rbp), %rcx
	movq	(%rax,%rcx,8), %rax
	movslq	-16(%rbp), %rcx
	movq	(%rax,%rcx,8), %rax
	movl	$0, (%rax)
# %bb.16:                               # %for.inc
                                        #   in Loop: Header=BB23_14 Depth=4
	movl	-20(%rbp), %eax
	addl	$1, %eax
	movl	%eax, -20(%rbp)
	jmp	.LBB23_14
.LBB23_17:                              # %for.end
                                        #   in Loop: Header=BB23_12 Depth=3
	jmp	.LBB23_18
.LBB23_18:                              # %for.inc30
                                        #   in Loop: Header=BB23_12 Depth=3
	movl	-16(%rbp), %eax
	addl	$1, %eax
	movl	%eax, -16(%rbp)
	jmp	.LBB23_12
.LBB23_19:                              # %for.end32
                                        #   in Loop: Header=BB23_10 Depth=2
	jmp	.LBB23_20
.LBB23_20:                              # %for.inc33
                                        #   in Loop: Header=BB23_10 Depth=2
	movl	-4(%rbp), %eax
	addl	$1, %eax
	movl	%eax, -4(%rbp)
	jmp	.LBB23_10
.LBB23_21:                              # %for.end35
                                        #   in Loop: Header=BB23_8 Depth=1
	jmp	.LBB23_22
.LBB23_22:                              # %for.inc36
                                        #   in Loop: Header=BB23_8 Depth=1
	movl	-8(%rbp), %eax
	addl	$1, %eax
	movl	%eax, -8(%rbp)
	jmp	.LBB23_8
.LBB23_23:                              # %for.end38
	jmp	.LBB23_24
.LBB23_24:                              # %if.end39
	cmpl	$1347519145, -24(%rbp)  # imm = 0x505182A9
	jne	.LBB23_26
.LBB23_25:
	addq	$32, %rsp
	popq	%rbp
	.cfi_def_cfa %rsp, 8
	retq
.LBB23_26:                              # %func_exit
	.cfi_def_cfa %rbp, 16
	callq	detect_breach
	jmp	.LBB23_25
.Lfunc_end23:
	.size	skip_intrabk_SAD.10, .Lfunc_end23-skip_intrabk_SAD.10
	.cfi_endproc
                                        # -- End function
	.globl	skip_intrabk_SAD.11     # -- Begin function skip_intrabk_SAD.11
	.p2align	4, 0x90
	.type	skip_intrabk_SAD.11,@function
skip_intrabk_SAD.11:                    # @skip_intrabk_SAD.11
	.cfi_startproc
# %bb.0:                                # %entry
	pushq	%rbp
	.cfi_def_cfa_offset 16
	.cfi_offset %rbp, -16
	movq	%rsp, %rbp
	.cfi_def_cfa_register %rbp
	subq	$32, %rsp
	movl	$624670558, -28(%rbp)   # imm = 0x253BB75E
	movl	%edi, -8(%rbp)
	movl	%esi, -24(%rbp)
	movq	img, %rax
	cmpl	$0, (%rax)
	jle	.LBB24_4
# %bb.1:                                # %if.then
	cmpl	$9, -8(%rbp)
	movb	$1, %al
	je	.LBB24_3
# %bb.2:                                # %lor.rhs
	cmpl	$10, -8(%rbp)
	sete	%al
.LBB24_3:                               # %lor.end
	xorl	%ecx, %ecx
	testb	$1, %al
	movl	$1, %eax
	cmovnel	%eax, %ecx
	movq	flag_intra, %rax
	movq	img, %rdx
	movl	152(%rdx), %edx
	sarl	$4, %edx
	movslq	%edx, %rdx
	movl	%ecx, (%rax,%rdx,4)
.LBB24_4:                               # %if.end
	movq	img, %rax
	cmpl	$0, 24(%rax)
	je	.LBB24_24
# %bb.5:                                # %land.lhs.true
	cmpl	$9, -8(%rbp)
	je	.LBB24_7
# %bb.6:                                # %lor.lhs.false
	cmpl	$10, -8(%rbp)
	jne	.LBB24_24
.LBB24_7:                               # %if.then6
	movl	$0, -4(%rbp)
.LBB24_8:                               # %for.cond
                                        # =>This Loop Header: Depth=1
                                        #     Child Loop BB24_10 Depth 2
                                        #       Child Loop BB24_12 Depth 3
                                        #         Child Loop BB24_14 Depth 4
	cmpl	$4, -4(%rbp)
	jge	.LBB24_23
# %bb.9:                                # %for.body
                                        #   in Loop: Header=BB24_8 Depth=1
	movl	$0, -16(%rbp)
.LBB24_10:                              # %for.cond8
                                        #   Parent Loop BB24_8 Depth=1
                                        # =>  This Loop Header: Depth=2
                                        #       Child Loop BB24_12 Depth 3
                                        #         Child Loop BB24_14 Depth 4
	cmpl	$4, -16(%rbp)
	jge	.LBB24_21
# %bb.11:                               # %for.body10
                                        #   in Loop: Header=BB24_10 Depth=2
	movl	$1, -20(%rbp)
.LBB24_12:                              # %for.cond11
                                        #   Parent Loop BB24_8 Depth=1
                                        #     Parent Loop BB24_10 Depth=2
                                        # =>    This Loop Header: Depth=3
                                        #         Child Loop BB24_14 Depth 4
	cmpl	$8, -20(%rbp)
	jge	.LBB24_19
# %bb.13:                               # %for.body13
                                        #   in Loop: Header=BB24_12 Depth=3
	movl	$0, -12(%rbp)
.LBB24_14:                              # %for.cond14
                                        #   Parent Loop BB24_8 Depth=1
                                        #     Parent Loop BB24_10 Depth=2
                                        #       Parent Loop BB24_12 Depth=3
                                        # =>      This Inner Loop Header: Depth=4
	movl	-12(%rbp), %eax
	cmpl	-24(%rbp), %eax
	jge	.LBB24_17
# %bb.15:                               # %for.body16
                                        #   in Loop: Header=BB24_14 Depth=4
	movq	all_mincost, %rax
	movq	img, %rcx
	movl	152(%rcx), %ecx
	sarl	$2, %ecx
	addl	-4(%rbp), %ecx
	movslq	%ecx, %rcx
	movq	(%rax,%rcx,8), %rax
	movq	img, %rcx
	movl	156(%rcx), %ecx
	sarl	$2, %ecx
	addl	-16(%rbp), %ecx
	movslq	%ecx, %rcx
	movq	(%rax,%rcx,8), %rax
	movslq	-12(%rbp), %rcx
	movq	(%rax,%rcx,8), %rax
	movslq	-20(%rbp), %rcx
	movq	(%rax,%rcx,8), %rax
	movl	$0, (%rax)
# %bb.16:                               # %for.inc
                                        #   in Loop: Header=BB24_14 Depth=4
	movl	-12(%rbp), %eax
	addl	$1, %eax
	movl	%eax, -12(%rbp)
	jmp	.LBB24_14
.LBB24_17:                              # %for.end
                                        #   in Loop: Header=BB24_12 Depth=3
	jmp	.LBB24_18
.LBB24_18:                              # %for.inc30
                                        #   in Loop: Header=BB24_12 Depth=3
	movl	-20(%rbp), %eax
	addl	$1, %eax
	movl	%eax, -20(%rbp)
	jmp	.LBB24_12
.LBB24_19:                              # %for.end32
                                        #   in Loop: Header=BB24_10 Depth=2
	jmp	.LBB24_20
.LBB24_20:                              # %for.inc33
                                        #   in Loop: Header=BB24_10 Depth=2
	movl	-16(%rbp), %eax
	addl	$1, %eax
	movl	%eax, -16(%rbp)
	jmp	.LBB24_10
.LBB24_21:                              # %for.end35
                                        #   in Loop: Header=BB24_8 Depth=1
	jmp	.LBB24_22
.LBB24_22:                              # %for.inc36
                                        #   in Loop: Header=BB24_8 Depth=1
	movl	-4(%rbp), %eax
	addl	$1, %eax
	movl	%eax, -4(%rbp)
	jmp	.LBB24_8
.LBB24_23:                              # %for.end38
	jmp	.LBB24_24
.LBB24_24:                              # %if.end39
	cmpl	$624670558, -28(%rbp)   # imm = 0x253BB75E
	jne	.LBB24_26
.LBB24_25:
	addq	$32, %rsp
	popq	%rbp
	.cfi_def_cfa %rsp, 8
	retq
.LBB24_26:                              # %func_exit
	.cfi_def_cfa %rbp, 16
	callq	detect_breach
	jmp	.LBB24_25
.Lfunc_end24:
	.size	skip_intrabk_SAD.11, .Lfunc_end24-skip_intrabk_SAD.11
	.cfi_endproc
                                        # -- End function
	.section	.rodata.cst4,"aM",@progbits,4
	.p2align	2               # -- Begin function DefineThresholdMB.12
.LCPI25_0:
	.long	1082130432              # float 4
.LCPI25_1:
	.long	1132462080              # float 256
.LCPI25_2:
	.long	1102284063              # float 22.4400005
	.text
	.globl	DefineThresholdMB.12
	.p2align	4, 0x90
	.type	DefineThresholdMB.12,@function
DefineThresholdMB.12:                   # @DefineThresholdMB.12
	.cfi_startproc
# %bb.0:                                # %entry
	pushq	%rbp
	.cfi_def_cfa_offset 16
	.cfi_offset %rbp, -16
	movq	%rsp, %rbp
	.cfi_def_cfa_register %rbp
	subq	$32, %rsp
	movl	$88159635, -16(%rbp)    # imm = 0x5413593
	movq	input, %rax
	movl	16(%rax), %eax
	subl	$0, %eax
	cltd
	movl	$6, %ecx
	idivl	%ecx
	movl	%eax, -12(%rbp)
	movq	input, %rax
	movl	16(%rax), %eax
	subl	$0, %eax
	cltd
	idivl	%ecx
	movl	%edx, -20(%rbp)
	movl	-12(%rbp), %eax
	addl	$15, %eax
	movl	%eax, -4(%rbp)
	movq	img, %rax
	cmpl	$2, 24(%rax)
	jne	.LBB25_2
# %bb.1:                                # %if.then
	movl	-4(%rbp), %ecx
                                        # kill: def $cl killed $ecx
	movl	$1, %eax
	shll	%cl, %eax
	cltd
	movl	$3, %ecx
	idivl	%ecx
	movl	%eax, -8(%rbp)
	jmp	.LBB25_3
.LBB25_2:                               # %if.else
	movl	-4(%rbp), %ecx
                                        # kill: def $cl killed $ecx
	movl	$1, %eax
	shll	%cl, %eax
	cltd
	movl	$6, %ecx
	idivl	%ecx
	movl	%eax, -8(%rbp)
.LBB25_3:                               # %if.end
	vmovss	.LCPI25_0(%rip), %xmm0  # xmm0 = mem[0],zero,zero,zero
	vmovss	.LCPI25_1(%rip), %xmm1  # xmm1 = mem[0],zero,zero,zero
	vmovss	.LCPI25_2(%rip), %xmm2  # xmm2 = mem[0],zero,zero,zero
	movl	-4(%rbp), %ecx
                                        # kill: def $cl killed $ecx
	movl	$1, %eax
	shll	%cl, %eax
	subl	-8(%rbp), %eax
	movslq	-20(%rbp), %rcx
	shlq	$6, %rcx
	movabsq	$quant_coef, %rsi
	addq	%rcx, %rsi
	cltd
	idivl	(%rsi)
	movl	%eax, -24(%rbp)
	vcvtsi2ssl	-24(%rbp), %xmm0, %xmm3
	vdivss	%xmm2, %xmm3, %xmm2
	vmovss	%xmm2, Quantize_step
	vmulss	Quantize_step, %xmm1, %xmm1
	vmovss	%xmm1, Bsize+28
	vmulss	Bsize+28, %xmm0, %xmm1
	vmovss	%xmm1, Bsize+24
	vmulss	Bsize+28, %xmm0, %xmm1
	vmovss	%xmm1, Bsize+20
	vmulss	Bsize+20, %xmm0, %xmm1
	vmovss	%xmm1, Bsize+16
	vmulss	Bsize+16, %xmm0, %xmm1
	vmovss	%xmm1, Bsize+12
	vmulss	Bsize+16, %xmm0, %xmm1
	vmovss	%xmm1, Bsize+8
	vmulss	Bsize+8, %xmm0, %xmm0
	vmovss	%xmm0, Bsize+4
	cmpl	$88159635, -16(%rbp)    # imm = 0x5413593
	jne	.LBB25_5
.LBB25_4:
	addq	$32, %rsp
	popq	%rbp
	.cfi_def_cfa %rsp, 8
	retq
.LBB25_5:                               # %func_exit
	.cfi_def_cfa %rbp, 16
	callq	detect_breach
	jmp	.LBB25_4
.Lfunc_end25:
	.size	DefineThresholdMB.12, .Lfunc_end25-DefineThresholdMB.12
	.cfi_endproc
                                        # -- End function
	.globl	get_mem_bwmincost.13    # -- Begin function get_mem_bwmincost.13
	.p2align	4, 0x90
	.type	get_mem_bwmincost.13,@function
get_mem_bwmincost.13:                   # @get_mem_bwmincost.13
	.cfi_startproc
# %bb.0:                                # %entry
	pushq	%rbp
	.cfi_def_cfa_offset 16
	.cfi_offset %rbp, -16
	movq	%rsp, %rbp
	.cfi_def_cfa_register %rbp
	pushq	%rbx
	subq	$40, %rsp
	.cfi_offset %rbx, -24
	movl	$533986561, -36(%rbp)   # imm = 0x1FD3FD01
	movq	%rdi, -32(%rbp)
	movq	img, %rax
	movl	52(%rax), %eax
	cltd
	movl	$4, %ecx
	idivl	%ecx
	movslq	%eax, %rdi
	movl	$8, %esi
	callq	calloc
	movq	-32(%rbp), %rcx
	movq	%rax, (%rcx)
	cmpq	$0, %rax
	jne	.LBB26_2
# %bb.1:                                # %if.then
	movabsq	$.L.str, %rdi
	callq	no_mem_exit
.LBB26_2:                               # %if.end
	movl	$0, -12(%rbp)
.LBB26_3:                               # %for.cond
                                        # =>This Loop Header: Depth=1
                                        #     Child Loop BB26_7 Depth 2
                                        #       Child Loop BB26_11 Depth 3
                                        #         Child Loop BB26_15 Depth 4
	movl	-12(%rbp), %ecx
	movq	img, %rax
	movl	52(%rax), %eax
	cltd
	movl	$4, %esi
	idivl	%esi
	cmpl	%eax, %ecx
	jge	.LBB26_26
# %bb.4:                                # %for.body
                                        #   in Loop: Header=BB26_3 Depth=1
	movq	img, %rax
	movl	60(%rax), %eax
	cltd
	movl	$4, %ecx
	idivl	%ecx
	movslq	%eax, %rdi
	movl	$8, %esi
	callq	calloc
	movq	-32(%rbp), %rcx
	movq	(%rcx), %rcx
	movslq	-12(%rbp), %rdx
	movq	%rax, (%rcx,%rdx,8)
	cmpq	$0, %rax
	jne	.LBB26_6
# %bb.5:                                # %if.then11
                                        #   in Loop: Header=BB26_3 Depth=1
	movabsq	$.L.str, %rdi
	callq	no_mem_exit
.LBB26_6:                               # %if.end12
                                        #   in Loop: Header=BB26_3 Depth=1
	movl	$0, -16(%rbp)
.LBB26_7:                               # %for.cond13
                                        #   Parent Loop BB26_3 Depth=1
                                        # =>  This Loop Header: Depth=2
                                        #       Child Loop BB26_11 Depth 3
                                        #         Child Loop BB26_15 Depth 4
	movl	-16(%rbp), %ecx
	movq	img, %rax
	movl	60(%rax), %eax
	cltd
	movl	$4, %esi
	idivl	%esi
	cmpl	%eax, %ecx
	jge	.LBB26_24
# %bb.8:                                # %for.body18
                                        #   in Loop: Header=BB26_7 Depth=2
	movq	img, %rax
	movslq	36(%rax), %rdi
	movl	$8, %esi
	callq	calloc
	movq	-32(%rbp), %rcx
	movq	(%rcx), %rcx
	movslq	-12(%rbp), %rdx
	movq	(%rcx,%rdx,8), %rcx
	movslq	-16(%rbp), %rdx
	movq	%rax, (%rcx,%rdx,8)
	cmpq	$0, %rax
	jne	.LBB26_10
# %bb.9:                                # %if.then27
                                        #   in Loop: Header=BB26_7 Depth=2
	movabsq	$.L.str, %rdi
	callq	no_mem_exit
.LBB26_10:                              # %if.end28
                                        #   in Loop: Header=BB26_7 Depth=2
	movl	$0, -20(%rbp)
.LBB26_11:                              # %for.cond29
                                        #   Parent Loop BB26_3 Depth=1
                                        #     Parent Loop BB26_7 Depth=2
                                        # =>    This Loop Header: Depth=3
                                        #         Child Loop BB26_15 Depth 4
	movl	-20(%rbp), %eax
	movq	img, %rcx
	cmpl	36(%rcx), %eax
	jge	.LBB26_22
# %bb.12:                               # %for.body33
                                        #   in Loop: Header=BB26_11 Depth=3
	movl	$9, %edi
	movl	$8, %esi
	callq	calloc
	movq	-32(%rbp), %rcx
	movq	(%rcx), %rcx
	movslq	-12(%rbp), %rdx
	movq	(%rcx,%rdx,8), %rcx
	movslq	-16(%rbp), %rdx
	movq	(%rcx,%rdx,8), %rcx
	movslq	-20(%rbp), %rdx
	movq	%rax, (%rcx,%rdx,8)
	cmpq	$0, %rax
	jne	.LBB26_14
# %bb.13:                               # %if.then43
                                        #   in Loop: Header=BB26_11 Depth=3
	movabsq	$.L.str, %rdi
	callq	no_mem_exit
.LBB26_14:                              # %if.end44
                                        #   in Loop: Header=BB26_11 Depth=3
	movl	$0, -24(%rbp)
.LBB26_15:                              # %for.cond45
                                        #   Parent Loop BB26_3 Depth=1
                                        #     Parent Loop BB26_7 Depth=2
                                        #       Parent Loop BB26_11 Depth=3
                                        # =>      This Inner Loop Header: Depth=4
	cmpl	$9, -24(%rbp)
	jge	.LBB26_20
# %bb.16:                               # %for.body48
                                        #   in Loop: Header=BB26_15 Depth=4
	movl	$3, %edi
	movl	$4, %esi
	callq	calloc
	movq	-32(%rbp), %rcx
	movq	(%rcx), %rcx
	movslq	-12(%rbp), %rdx
	movq	(%rcx,%rdx,8), %rcx
	movslq	-16(%rbp), %rdx
	movq	(%rcx,%rdx,8), %rcx
	movslq	-20(%rbp), %rdx
	movq	(%rcx,%rdx,8), %rcx
	movslq	-24(%rbp), %rdx
	movq	%rax, (%rcx,%rdx,8)
	cmpq	$0, %rax
	jne	.LBB26_18
# %bb.17:                               # %if.then60
                                        #   in Loop: Header=BB26_15 Depth=4
	movabsq	$.L.str, %rdi
	callq	no_mem_exit
.LBB26_18:                              # %if.end61
                                        #   in Loop: Header=BB26_15 Depth=4
	jmp	.LBB26_19
.LBB26_19:                              # %for.inc
                                        #   in Loop: Header=BB26_15 Depth=4
	movl	-24(%rbp), %eax
	addl	$1, %eax
	movl	%eax, -24(%rbp)
	jmp	.LBB26_15
.LBB26_20:                              # %for.end
                                        #   in Loop: Header=BB26_11 Depth=3
	jmp	.LBB26_21
.LBB26_21:                              # %for.inc62
                                        #   in Loop: Header=BB26_11 Depth=3
	movl	-20(%rbp), %eax
	addl	$1, %eax
	movl	%eax, -20(%rbp)
	jmp	.LBB26_11
.LBB26_22:                              # %for.end64
                                        #   in Loop: Header=BB26_7 Depth=2
	jmp	.LBB26_23
.LBB26_23:                              # %for.inc65
                                        #   in Loop: Header=BB26_7 Depth=2
	movl	-16(%rbp), %eax
	addl	$1, %eax
	movl	%eax, -16(%rbp)
	jmp	.LBB26_7
.LBB26_24:                              # %for.end67
                                        #   in Loop: Header=BB26_3 Depth=1
	jmp	.LBB26_25
.LBB26_25:                              # %for.inc68
                                        #   in Loop: Header=BB26_3 Depth=1
	movl	-12(%rbp), %eax
	addl	$1, %eax
	movl	%eax, -12(%rbp)
	jmp	.LBB26_3
.LBB26_26:                              # %for.end70
	movq	img, %rax
	movl	52(%rax), %eax
	cltd
	movl	$4, %ecx
	idivl	%ecx
	movq	img, %rdx
	imull	60(%rdx), %eax
	cltd
	idivl	%ecx
	movq	img, %rcx
	imull	36(%rcx), %eax
	imull	$9, %eax, %eax
	imull	$3, %eax, %eax
	movslq	%eax, %rbx
	shlq	$2, %rbx
	cmpl	$533986561, -36(%rbp)   # imm = 0x1FD3FD01
	jne	.LBB26_28
.LBB26_27:
	movl	%ebx, %eax
	addq	$40, %rsp
	popq	%rbx
	popq	%rbp
	.cfi_def_cfa %rsp, 8
	retq
.LBB26_28:                              # %func_exit
	.cfi_def_cfa %rbp, 16
	callq	detect_breach
	jmp	.LBB26_27
.Lfunc_end26:
	.size	get_mem_bwmincost.13, .Lfunc_end26-get_mem_bwmincost.13
	.cfi_endproc
                                        # -- End function
	.section	.rodata.cst4,"aM",@progbits,4
	.p2align	2               # -- Begin function DefineThresholdMB.14
.LCPI27_0:
	.long	1082130432              # float 4
.LCPI27_1:
	.long	1132462080              # float 256
.LCPI27_2:
	.long	1102284063              # float 22.4400005
	.text
	.globl	DefineThresholdMB.14
	.p2align	4, 0x90
	.type	DefineThresholdMB.14,@function
DefineThresholdMB.14:                   # @DefineThresholdMB.14
	.cfi_startproc
# %bb.0:                                # %entry
	pushq	%rbp
	.cfi_def_cfa_offset 16
	.cfi_offset %rbp, -16
	movq	%rsp, %rbp
	.cfi_def_cfa_register %rbp
	subq	$32, %rsp
	movl	$260074672, -24(%rbp)   # imm = 0xF806CB0
	movq	input, %rax
	movl	16(%rax), %eax
	subl	$0, %eax
	cltd
	movl	$6, %ecx
	idivl	%ecx
	movl	%eax, -20(%rbp)
	movq	input, %rax
	movl	16(%rax), %eax
	subl	$0, %eax
	cltd
	idivl	%ecx
	movl	%edx, -16(%rbp)
	movl	-20(%rbp), %eax
	addl	$15, %eax
	movl	%eax, -4(%rbp)
	movq	img, %rax
	cmpl	$2, 24(%rax)
	jne	.LBB27_2
# %bb.1:                                # %if.then
	movl	-4(%rbp), %ecx
                                        # kill: def $cl killed $ecx
	movl	$1, %eax
	shll	%cl, %eax
	cltd
	movl	$3, %ecx
	idivl	%ecx
	movl	%eax, -8(%rbp)
	jmp	.LBB27_3
.LBB27_2:                               # %if.else
	movl	-4(%rbp), %ecx
                                        # kill: def $cl killed $ecx
	movl	$1, %eax
	shll	%cl, %eax
	cltd
	movl	$6, %ecx
	idivl	%ecx
	movl	%eax, -8(%rbp)
.LBB27_3:                               # %if.end
	vmovss	.LCPI27_0(%rip), %xmm0  # xmm0 = mem[0],zero,zero,zero
	vmovss	.LCPI27_1(%rip), %xmm1  # xmm1 = mem[0],zero,zero,zero
	vmovss	.LCPI27_2(%rip), %xmm2  # xmm2 = mem[0],zero,zero,zero
	movl	-4(%rbp), %ecx
                                        # kill: def $cl killed $ecx
	movl	$1, %eax
	shll	%cl, %eax
	subl	-8(%rbp), %eax
	movslq	-16(%rbp), %rcx
	shlq	$6, %rcx
	movabsq	$quant_coef, %rsi
	addq	%rcx, %rsi
	cltd
	idivl	(%rsi)
	movl	%eax, -12(%rbp)
	vcvtsi2ssl	-12(%rbp), %xmm0, %xmm3
	vdivss	%xmm2, %xmm3, %xmm2
	vmovss	%xmm2, Quantize_step
	vmulss	Quantize_step, %xmm1, %xmm1
	vmovss	%xmm1, Bsize+28
	vmulss	Bsize+28, %xmm0, %xmm1
	vmovss	%xmm1, Bsize+24
	vmulss	Bsize+28, %xmm0, %xmm1
	vmovss	%xmm1, Bsize+20
	vmulss	Bsize+20, %xmm0, %xmm1
	vmovss	%xmm1, Bsize+16
	vmulss	Bsize+16, %xmm0, %xmm1
	vmovss	%xmm1, Bsize+12
	vmulss	Bsize+16, %xmm0, %xmm1
	vmovss	%xmm1, Bsize+8
	vmulss	Bsize+8, %xmm0, %xmm0
	vmovss	%xmm0, Bsize+4
	cmpl	$260074672, -24(%rbp)   # imm = 0xF806CB0
	jne	.LBB27_5
.LBB27_4:
	addq	$32, %rsp
	popq	%rbp
	.cfi_def_cfa %rsp, 8
	retq
.LBB27_5:                               # %func_exit
	.cfi_def_cfa %rbp, 16
	callq	detect_breach
	jmp	.LBB27_4
.Lfunc_end27:
	.size	DefineThresholdMB.14, .Lfunc_end27-DefineThresholdMB.14
	.cfi_endproc
                                        # -- End function
	.section	.rodata.cst8,"aM",@progbits,8
	.p2align	3               # -- Begin function FastIntegerPelBlockMotionSearch.15
.LCPI28_0:
	.quad	4602678819172646912     # double 0.5
.LCPI28_1:
	.quad	4679240012837945344     # double 65536
	.text
	.globl	FastIntegerPelBlockMotionSearch.15
	.p2align	4, 0x90
	.type	FastIntegerPelBlockMotionSearch.15,@function
FastIntegerPelBlockMotionSearch.15:     # @FastIntegerPelBlockMotionSearch.15
	.cfi_startproc
# %bb.0:                                # %entry
	pushq	%rbp
	.cfi_def_cfa_offset 16
	.cfi_offset %rbp, -16
	movq	%rsp, %rbp
	.cfi_def_cfa_register %rbp
	pushq	%rbx
	subq	$200, %rsp
	.cfi_offset %rbx, -24
	movl	56(%rbp), %eax
	movl	48(%rbp), %eax
	movq	40(%rbp), %rax
	movq	32(%rbp), %rax
	movw	24(%rbp), %ax
	movw	16(%rbp), %ax
	movl	$1185736335, -160(%rbp) # imm = 0x46ACE68F
	movq	%rdi, -120(%rbp)
	movw	%si, -46(%rbp)
	movl	%edx, -136(%rbp)
	movl	%ecx, -100(%rbp)
	movl	%r8d, -104(%rbp)
	movl	%r9d, -56(%rbp)
	vmovsd	%xmm0, -168(%rbp)
	movq	img, %rax
	cmpl	$0, 72400(%rax)
	je	.LBB28_3
# %bb.1:                                # %land.lhs.true
	movq	img, %rax
	movq	14168(%rax), %rax
	movq	img, %rcx
	movslq	12(%rcx), %rcx
	imulq	$632, %rcx, %rcx        # imm = 0x278
	addq	%rcx, %rax
	cmpl	$0, 532(%rax)
	je	.LBB28_3
# %bb.2:                                # %cond.true
	movq	img, %rax
	movl	12(%rax), %eax
	cltd
	movl	$2, %ecx
	idivl	%ecx
	cmpl	$0, %edx
	movl	$4, %eax
	cmovnel	%eax, %ecx
	jmp	.LBB28_4
.LBB28_3:                               # %cond.false
	xorl	%ecx, %ecx
	jmp	.LBB28_4
.LBB28_4:                               # %cond.end
	vmovsd	.LCPI28_0(%rip), %xmm0  # xmm0 = mem[0],zero
	vmovsd	.LCPI28_1(%rip), %xmm1  # xmm1 = mem[0],zero
	movl	%ecx, -152(%rbp)
	movl	-136(%rbp), %eax
	addl	-152(%rbp), %eax
	cltq
	movq	listX(,%rax,8), %rax
	movswq	-46(%rbp), %rcx
	movq	(%rax,%rcx,8), %rax
	movq	6432(%rax), %rax
	movq	%rax, -128(%rbp)
	vmulsd	-168(%rbp), %xmm1, %xmm1
	vaddsd	%xmm0, %xmm1, %xmm0
	vcvttsd2si	%xmm0, %eax
	movl	%eax, -96(%rbp)
	movl	$2, -32(%rbp)
	movq	input, %rax
	movslq	-56(%rbp), %rcx
	movl	84(%rax,%rcx,8), %eax
	movl	%eax, -80(%rbp)
	movq	input, %rax
	movslq	-56(%rbp), %rcx
	movl	80(%rax,%rcx,8), %eax
	movl	%eax, -60(%rbp)
	movl	-60(%rbp), %eax
	sarl	$2, %eax
	movl	%eax, -92(%rbp)
	movl	-100(%rbp), %eax
	movl	-32(%rbp), %ecx
                                        # kill: def $cl killed $ecx
	shll	%cl, %eax
	movswl	16(%rbp), %ecx
	addl	%ecx, %eax
	movl	%eax, -88(%rbp)
	movl	-104(%rbp), %eax
	movl	-32(%rbp), %ecx
                                        # kill: def $cl killed $ecx
	shll	%cl, %eax
	movswl	24(%rbp), %ecx
	addl	%ecx, %eax
	movl	%eax, -84(%rbp)
	movl	-100(%rbp), %eax
	movq	32(%rbp), %rcx
	movswl	(%rcx), %ecx
	addl	%ecx, %eax
	movl	%eax, -28(%rbp)
	movl	-104(%rbp), %eax
	movq	40(%rbp), %rcx
	movswl	(%rcx), %ecx
	addl	%ecx, %eax
	movl	%eax, -24(%rbp)
	movl	$0, -44(%rbp)
	movl	$0, -40(%rbp)
	movq	input, %rax
	movl	1236(%rax), %eax
	movl	%eax, -156(%rbp)
	movq	img, %rax
	cmpl	$0, 72400(%rax)
	je	.LBB28_7
# %bb.5:                                # %land.lhs.true28
	movq	img, %rax
	movq	14168(%rax), %rax
	movq	img, %rcx
	movslq	12(%rcx), %rcx
	imulq	$632, %rcx, %rcx        # imm = 0x278
	addq	%rcx, %rax
	cmpl	$0, 532(%rax)
	je	.LBB28_7
# %bb.6:                                # %cond.true35
	movq	img, %rax
	movl	60(%rax), %eax
	cltd
	movl	$2, %ecx
	idivl	%ecx
	jmp	.LBB28_8
.LBB28_7:                               # %cond.false37
	movq	img, %rax
	movl	60(%rax), %eax
.LBB28_8:                               # %cond.end39
	movl	%eax, -148(%rbp)
	movl	-28(%rbp), %eax
	cmpl	48(%rbp), %eax
	jle	.LBB28_13
# %bb.9:                                # %land.lhs.true42
	movl	-28(%rbp), %eax
	movq	img, %rcx
	movl	52(%rcx), %ecx
	subl	$1, %ecx
	subl	48(%rbp), %ecx
	subl	-60(%rbp), %ecx
	cmpl	%ecx, %eax
	jge	.LBB28_13
# %bb.10:                               # %land.lhs.true47
	movl	-24(%rbp), %eax
	cmpl	48(%rbp), %eax
	jle	.LBB28_13
# %bb.11:                               # %land.lhs.true50
	movl	-24(%rbp), %eax
	movl	-148(%rbp), %ecx
	subl	$1, %ecx
	subl	48(%rbp), %ecx
	subl	-80(%rbp), %ecx
	cmpl	%ecx, %eax
	jge	.LBB28_13
# %bb.12:                               # %if.then
	movabsq	$FastLineX, %rax
	movq	%rax, -112(%rbp)
	jmp	.LBB28_14
.LBB28_13:                              # %if.else
	movabsq	$UMVLineX, %rax
	movq	%rax, -112(%rbp)
.LBB28_14:                              # %if.end
	movq	McostState, %rax
	movq	(%rax), %rdi
	movl	48(%rbp), %eax
	shll	$1, %eax
	addl	$1, %eax
	movl	48(%rbp), %ecx
	shll	$1, %ecx
	addl	$1, %ecx
	imull	%ecx, %eax
	shll	$2, %eax
	movslq	%eax, %rdx
	xorl	%esi, %esi
	callq	memset
	movswl	-46(%rbp), %eax
	cmpl	$0, %eax
	jle	.LBB28_19
# %bb.15:                               # %if.then67
	cmpl	$0, pred_SAD_ref
	je	.LBB28_17
# %bb.16:                               # %if.then70
	movslq	-56(%rbp), %rax
	vmovss	Bsize(,%rax,4), %xmm0   # xmm0 = mem[0],zero,zero,zero
	movl	pred_SAD_ref, %eax
	imull	pred_SAD_ref, %eax
	vcvtsi2ss	%eax, %xmm0, %xmm1
	vdivss	%xmm1, %xmm0, %xmm0
	movslq	-56(%rbp), %rax
	vsubss	AlphaSec(,%rax,4), %xmm0, %xmm0
	vmovss	%xmm0, -76(%rbp)
	movslq	-56(%rbp), %rax
	vmovss	Bsize(,%rax,4), %xmm0   # xmm0 = mem[0],zero,zero,zero
	movl	pred_SAD_ref, %eax
	imull	pred_SAD_ref, %eax
	vcvtsi2ss	%eax, %xmm0, %xmm1
	vdivss	%xmm1, %xmm0, %xmm0
	movslq	-56(%rbp), %rax
	vsubss	AlphaThird(,%rax,4), %xmm0, %xmm0
	vmovss	%xmm0, -72(%rbp)
	jmp	.LBB28_18
.LBB28_17:                              # %if.else87
	vxorps	%xmm0, %xmm0, %xmm0
	vmovss	%xmm0, -76(%rbp)
	vmovss	%xmm0, -72(%rbp)
.LBB28_18:                              # %if.end88
	jmp	.LBB28_29
.LBB28_19:                              # %if.else89
	cmpl	$1, -56(%rbp)
	jne	.LBB28_24
# %bb.20:                               # %if.then92
	cmpl	$0, pred_SAD_space
	je	.LBB28_22
# %bb.21:                               # %if.then95
	movslq	-56(%rbp), %rax
	vmovss	Bsize(,%rax,4), %xmm0   # xmm0 = mem[0],zero,zero,zero
	movl	pred_SAD_space, %eax
	imull	pred_SAD_space, %eax
	vcvtsi2ss	%eax, %xmm0, %xmm1
	vdivss	%xmm1, %xmm0, %xmm0
	movslq	-56(%rbp), %rax
	vsubss	AlphaSec(,%rax,4), %xmm0, %xmm0
	vmovss	%xmm0, -76(%rbp)
	movslq	-56(%rbp), %rax
	vmovss	Bsize(,%rax,4), %xmm0   # xmm0 = mem[0],zero,zero,zero
	movl	pred_SAD_space, %eax
	imull	pred_SAD_space, %eax
	vcvtsi2ss	%eax, %xmm0, %xmm1
	vdivss	%xmm1, %xmm0, %xmm0
	movslq	-56(%rbp), %rax
	vsubss	AlphaThird(,%rax,4), %xmm0, %xmm0
	vmovss	%xmm0, -72(%rbp)
	jmp	.LBB28_23
.LBB28_22:                              # %if.else112
	vxorps	%xmm0, %xmm0, %xmm0
	vmovss	%xmm0, -76(%rbp)
	vmovss	%xmm0, -72(%rbp)
.LBB28_23:                              # %if.end113
	jmp	.LBB28_28
.LBB28_24:                              # %if.else114
	cmpl	$0, pred_SAD_uplayer
	je	.LBB28_26
# %bb.25:                               # %if.then117
	movslq	-56(%rbp), %rax
	vmovss	Bsize(,%rax,4), %xmm0   # xmm0 = mem[0],zero,zero,zero
	movl	pred_SAD_uplayer, %eax
	imull	pred_SAD_uplayer, %eax
	vcvtsi2ss	%eax, %xmm0, %xmm1
	vdivss	%xmm1, %xmm0, %xmm0
	movslq	-56(%rbp), %rax
	vsubss	AlphaSec(,%rax,4), %xmm0, %xmm0
	vmovss	%xmm0, -76(%rbp)
	movslq	-56(%rbp), %rax
	vmovss	Bsize(,%rax,4), %xmm0   # xmm0 = mem[0],zero,zero,zero
	movl	pred_SAD_uplayer, %eax
	imull	pred_SAD_uplayer, %eax
	vcvtsi2ss	%eax, %xmm0, %xmm1
	vdivss	%xmm1, %xmm0, %xmm0
	movslq	-56(%rbp), %rax
	vsubss	AlphaThird(,%rax,4), %xmm0, %xmm0
	vmovss	%xmm0, -72(%rbp)
	jmp	.LBB28_27
.LBB28_26:                              # %if.else134
	vxorps	%xmm0, %xmm0, %xmm0
	vmovss	%xmm0, -76(%rbp)
	vmovss	%xmm0, -72(%rbp)
.LBB28_27:                              # %if.end135
	jmp	.LBB28_28
.LBB28_28:                              # %if.end136
	jmp	.LBB28_29
.LBB28_29:                              # %if.end137
	movl	-28(%rbp), %eax
	movl	%eax, -12(%rbp)
	movl	-24(%rbp), %eax
	movl	%eax, -16(%rbp)
	movl	-96(%rbp), %eax
	movq	mvbits, %rdx
	movl	-12(%rbp), %esi
	movl	-32(%rbp), %ecx
                                        # kill: def $cl killed $ecx
	shll	%cl, %esi
	subl	-88(%rbp), %esi
	movslq	%esi, %rcx
	movl	(%rdx,%rcx,4), %edx
	movq	mvbits, %rsi
	movl	-16(%rbp), %edi
	movl	-32(%rbp), %ecx
                                        # kill: def $cl killed $ecx
	shll	%cl, %edi
	subl	-84(%rbp), %edi
	movslq	%edi, %rcx
	addl	(%rsi,%rcx,4), %edx
	imull	%edx, %eax
	sarl	$16, %eax
	movl	%eax, -20(%rbp)
	movq	-128(%rbp), %rdi
	movq	-120(%rbp), %rsi
	movq	-112(%rbp), %rdx
	movl	-80(%rbp), %ecx
	movl	-60(%rbp), %r8d
	movl	-92(%rbp), %r9d
	movl	-20(%rbp), %eax
	movl	56(%rbp), %ebx
	movl	-12(%rbp), %r10d
	movl	-16(%rbp), %r11d
	movl	%eax, (%rsp)
	movl	%ebx, 8(%rsp)
	movl	%r10d, 16(%rsp)
	movl	%r11d, 24(%rsp)
	callq	PartCalMad
	movl	%eax, -20(%rbp)
	movl	-20(%rbp), %eax
	movq	McostState, %rcx
	movslq	48(%rbp), %rdx
	movq	(%rcx,%rdx,8), %rcx
	movslq	48(%rbp), %rdx
	movl	%eax, (%rcx,%rdx,4)
	movl	-20(%rbp), %eax
	cmpl	56(%rbp), %eax
	jge	.LBB28_31
# %bb.30:                               # %if.then155
	movl	-20(%rbp), %eax
	movl	%eax, 56(%rbp)
	movl	-12(%rbp), %eax
	movl	%eax, -44(%rbp)
	movl	-16(%rbp), %eax
	movl	%eax, -40(%rbp)
.LBB28_31:                              # %if.end156
	movl	-44(%rbp), %eax
	movl	%eax, -68(%rbp)
	movl	-40(%rbp), %eax
	movl	%eax, -64(%rbp)
	movl	$0, -36(%rbp)
.LBB28_32:                              # %for.cond
                                        # =>This Inner Loop Header: Depth=1
	cmpl	$4, -36(%rbp)
	jge	.LBB28_42
# %bb.33:                               # %for.body
                                        #   in Loop: Header=BB28_32 Depth=1
	movl	-68(%rbp), %eax
	movslq	-36(%rbp), %rcx
	addl	FastIntegerPelBlockMotionSearch.Diamond_x(,%rcx,4), %eax
	movl	%eax, -12(%rbp)
	movl	-64(%rbp), %eax
	movslq	-36(%rbp), %rcx
	addl	FastIntegerPelBlockMotionSearch.Diamond_y(,%rcx,4), %eax
	movl	%eax, -16(%rbp)
	movl	-12(%rbp), %edi
	subl	-28(%rbp), %edi
	callq	abs
	cmpl	48(%rbp), %eax
	jg	.LBB28_40
# %bb.34:                               # %land.lhs.true169
                                        #   in Loop: Header=BB28_32 Depth=1
	movl	-16(%rbp), %edi
	subl	-24(%rbp), %edi
	callq	abs
	cmpl	48(%rbp), %eax
	jg	.LBB28_40
# %bb.35:                               # %if.then174
                                        #   in Loop: Header=BB28_32 Depth=1
	movq	McostState, %rax
	movl	-16(%rbp), %ecx
	subl	-24(%rbp), %ecx
	addl	48(%rbp), %ecx
	movslq	%ecx, %rcx
	movq	(%rax,%rcx,8), %rax
	movl	-12(%rbp), %ecx
	subl	-28(%rbp), %ecx
	addl	48(%rbp), %ecx
	movslq	%ecx, %rcx
	cmpl	$0, (%rax,%rcx,4)
	jne	.LBB28_39
# %bb.36:                               # %if.then184
                                        #   in Loop: Header=BB28_32 Depth=1
	movl	-96(%rbp), %eax
	movq	mvbits, %rdx
	movl	-12(%rbp), %esi
	movl	-32(%rbp), %ecx
                                        # kill: def $cl killed $ecx
	shll	%cl, %esi
	subl	-88(%rbp), %esi
	movslq	%esi, %rcx
	movl	(%rdx,%rcx,4), %edx
	movq	mvbits, %rsi
	movl	-16(%rbp), %edi
	movl	-32(%rbp), %ecx
                                        # kill: def $cl killed $ecx
	shll	%cl, %edi
	subl	-84(%rbp), %edi
	movslq	%edi, %rcx
	addl	(%rsi,%rcx,4), %edx
	imull	%edx, %eax
	sarl	$16, %eax
	movl	%eax, -20(%rbp)
	movq	-128(%rbp), %rdi
	movq	-120(%rbp), %rsi
	movq	-112(%rbp), %rdx
	movl	-80(%rbp), %ecx
	movl	-60(%rbp), %r8d
	movl	-92(%rbp), %r9d
	movl	-20(%rbp), %eax
	movl	56(%rbp), %ebx
	movl	-12(%rbp), %r10d
	movl	-16(%rbp), %r11d
	movl	%eax, (%rsp)
	movl	%ebx, 8(%rsp)
	movl	%r10d, 16(%rsp)
	movl	%r11d, 24(%rsp)
	callq	PartCalMad
	movl	%eax, -20(%rbp)
	movl	-20(%rbp), %eax
	movq	McostState, %rcx
	movl	-16(%rbp), %edx
	subl	-24(%rbp), %edx
	addl	48(%rbp), %edx
	movslq	%edx, %rdx
	movq	(%rcx,%rdx,8), %rcx
	movl	-12(%rbp), %edx
	subl	-28(%rbp), %edx
	addl	48(%rbp), %edx
	movslq	%edx, %rdx
	movl	%eax, (%rcx,%rdx,4)
	movl	-20(%rbp), %eax
	cmpl	56(%rbp), %eax
	jge	.LBB28_38
# %bb.37:                               # %if.then207
                                        #   in Loop: Header=BB28_32 Depth=1
	movl	-12(%rbp), %eax
	movl	%eax, -44(%rbp)
	movl	-16(%rbp), %eax
	movl	%eax, -40(%rbp)
	movl	-20(%rbp), %eax
	movl	%eax, 56(%rbp)
.LBB28_38:                              # %if.end208
                                        #   in Loop: Header=BB28_32 Depth=1
	jmp	.LBB28_39
.LBB28_39:                              # %if.end209
                                        #   in Loop: Header=BB28_32 Depth=1
	jmp	.LBB28_40
.LBB28_40:                              # %if.end210
                                        #   in Loop: Header=BB28_32 Depth=1
	jmp	.LBB28_41
.LBB28_41:                              # %for.inc
                                        #   in Loop: Header=BB28_32 Depth=1
	movl	-36(%rbp), %eax
	addl	$1, %eax
	movl	%eax, -36(%rbp)
	jmp	.LBB28_32
.LBB28_42:                              # %for.end
	movl	-28(%rbp), %eax
	cmpl	-100(%rbp), %eax
	jne	.LBB28_44
# %bb.43:                               # %lor.lhs.false
	movl	-24(%rbp), %eax
	cmpl	-104(%rbp), %eax
	je	.LBB28_63
.LBB28_44:                              # %if.then215
	movl	-100(%rbp), %eax
	movl	%eax, -12(%rbp)
	movl	-104(%rbp), %eax
	movl	%eax, -16(%rbp)
	movl	-12(%rbp), %edi
	subl	-28(%rbp), %edi
	callq	abs
	cmpl	48(%rbp), %eax
	jg	.LBB28_51
# %bb.45:                               # %land.lhs.true220
	movl	-16(%rbp), %edi
	subl	-24(%rbp), %edi
	callq	abs
	cmpl	48(%rbp), %eax
	jg	.LBB28_51
# %bb.46:                               # %if.then225
	movq	McostState, %rax
	movl	-16(%rbp), %ecx
	subl	-24(%rbp), %ecx
	addl	48(%rbp), %ecx
	movslq	%ecx, %rcx
	movq	(%rax,%rcx,8), %rax
	movl	-12(%rbp), %ecx
	subl	-28(%rbp), %ecx
	addl	48(%rbp), %ecx
	movslq	%ecx, %rcx
	cmpl	$0, (%rax,%rcx,4)
	jne	.LBB28_50
# %bb.47:                               # %if.then235
	movl	-96(%rbp), %eax
	movq	mvbits, %rdx
	movl	-12(%rbp), %esi
	movl	-32(%rbp), %ecx
                                        # kill: def $cl killed $ecx
	shll	%cl, %esi
	subl	-88(%rbp), %esi
	movslq	%esi, %rcx
	movl	(%rdx,%rcx,4), %edx
	movq	mvbits, %rsi
	movl	-16(%rbp), %edi
	movl	-32(%rbp), %ecx
                                        # kill: def $cl killed $ecx
	shll	%cl, %edi
	subl	-84(%rbp), %edi
	movslq	%edi, %rcx
	addl	(%rsi,%rcx,4), %edx
	imull	%edx, %eax
	sarl	$16, %eax
	movl	%eax, -20(%rbp)
	movq	-128(%rbp), %rdi
	movq	-120(%rbp), %rsi
	movq	-112(%rbp), %rdx
	movl	-80(%rbp), %ecx
	movl	-60(%rbp), %r8d
	movl	-92(%rbp), %r9d
	movl	-20(%rbp), %eax
	movl	56(%rbp), %ebx
	movl	-12(%rbp), %r10d
	movl	-16(%rbp), %r11d
	movl	%eax, (%rsp)
	movl	%ebx, 8(%rsp)
	movl	%r10d, 16(%rsp)
	movl	%r11d, 24(%rsp)
	callq	PartCalMad
	movl	%eax, -20(%rbp)
	movl	-20(%rbp), %eax
	movq	McostState, %rcx
	movl	-16(%rbp), %edx
	subl	-24(%rbp), %edx
	addl	48(%rbp), %edx
	movslq	%edx, %rdx
	movq	(%rcx,%rdx,8), %rcx
	movl	-12(%rbp), %edx
	subl	-28(%rbp), %edx
	addl	48(%rbp), %edx
	movslq	%edx, %rdx
	movl	%eax, (%rcx,%rdx,4)
	movl	-20(%rbp), %eax
	cmpl	56(%rbp), %eax
	jge	.LBB28_49
# %bb.48:                               # %if.then258
	movl	-12(%rbp), %eax
	movl	%eax, -44(%rbp)
	movl	-16(%rbp), %eax
	movl	%eax, -40(%rbp)
	movl	-20(%rbp), %eax
	movl	%eax, 56(%rbp)
.LBB28_49:                              # %if.end259
	jmp	.LBB28_50
.LBB28_50:                              # %if.end260
	jmp	.LBB28_51
.LBB28_51:                              # %if.end261
	movl	-44(%rbp), %eax
	movl	%eax, -68(%rbp)
	movl	-40(%rbp), %eax
	movl	%eax, -64(%rbp)
	movl	$0, -36(%rbp)
.LBB28_52:                              # %for.cond262
                                        # =>This Inner Loop Header: Depth=1
	cmpl	$4, -36(%rbp)
	jge	.LBB28_62
# %bb.53:                               # %for.body265
                                        #   in Loop: Header=BB28_52 Depth=1
	movl	-68(%rbp), %eax
	movslq	-36(%rbp), %rcx
	addl	FastIntegerPelBlockMotionSearch.Diamond_x(,%rcx,4), %eax
	movl	%eax, -12(%rbp)
	movl	-64(%rbp), %eax
	movslq	-36(%rbp), %rcx
	addl	FastIntegerPelBlockMotionSearch.Diamond_y(,%rcx,4), %eax
	movl	%eax, -16(%rbp)
	movl	-12(%rbp), %edi
	subl	-28(%rbp), %edi
	callq	abs
	cmpl	48(%rbp), %eax
	jg	.LBB28_60
# %bb.54:                               # %land.lhs.true276
                                        #   in Loop: Header=BB28_52 Depth=1
	movl	-16(%rbp), %edi
	subl	-24(%rbp), %edi
	callq	abs
	cmpl	48(%rbp), %eax
	jg	.LBB28_60
# %bb.55:                               # %if.then281
                                        #   in Loop: Header=BB28_52 Depth=1
	movq	McostState, %rax
	movl	-16(%rbp), %ecx
	subl	-24(%rbp), %ecx
	addl	48(%rbp), %ecx
	movslq	%ecx, %rcx
	movq	(%rax,%rcx,8), %rax
	movl	-12(%rbp), %ecx
	subl	-28(%rbp), %ecx
	addl	48(%rbp), %ecx
	movslq	%ecx, %rcx
	cmpl	$0, (%rax,%rcx,4)
	jne	.LBB28_59
# %bb.56:                               # %if.then291
                                        #   in Loop: Header=BB28_52 Depth=1
	movl	-96(%rbp), %eax
	movq	mvbits, %rdx
	movl	-12(%rbp), %esi
	movl	-32(%rbp), %ecx
                                        # kill: def $cl killed $ecx
	shll	%cl, %esi
	subl	-88(%rbp), %esi
	movslq	%esi, %rcx
	movl	(%rdx,%rcx,4), %edx
	movq	mvbits, %rsi
	movl	-16(%rbp), %edi
	movl	-32(%rbp), %ecx
                                        # kill: def $cl killed $ecx
	shll	%cl, %edi
	subl	-84(%rbp), %edi
	movslq	%edi, %rcx
	addl	(%rsi,%rcx,4), %edx
	imull	%edx, %eax
	sarl	$16, %eax
	movl	%eax, -20(%rbp)
	movq	-128(%rbp), %rdi
	movq	-120(%rbp), %rsi
	movq	-112(%rbp), %rdx
	movl	-80(%rbp), %ecx
	movl	-60(%rbp), %r8d
	movl	-92(%rbp), %r9d
	movl	-20(%rbp), %eax
	movl	56(%rbp), %ebx
	movl	-12(%rbp), %r10d
	movl	-16(%rbp), %r11d
	movl	%eax, (%rsp)
	movl	%ebx, 8(%rsp)
	movl	%r10d, 16(%rsp)
	movl	%r11d, 24(%rsp)
	callq	PartCalMad
	movl	%eax, -20(%rbp)
	movl	-20(%rbp), %eax
	movq	McostState, %rcx
	movl	-16(%rbp), %edx
	subl	-24(%rbp), %edx
	addl	48(%rbp), %edx
	movslq	%edx, %rdx
	movq	(%rcx,%rdx,8), %rcx
	movl	-12(%rbp), %edx
	subl	-28(%rbp), %edx
	addl	48(%rbp), %edx
	movslq	%edx, %rdx
	movl	%eax, (%rcx,%rdx,4)
	movl	-20(%rbp), %eax
	cmpl	56(%rbp), %eax
	jge	.LBB28_58
# %bb.57:                               # %if.then314
                                        #   in Loop: Header=BB28_52 Depth=1
	movl	-12(%rbp), %eax
	movl	%eax, -44(%rbp)
	movl	-16(%rbp), %eax
	movl	%eax, -40(%rbp)
	movl	-20(%rbp), %eax
	movl	%eax, 56(%rbp)
.LBB28_58:                              # %if.end315
                                        #   in Loop: Header=BB28_52 Depth=1
	jmp	.LBB28_59
.LBB28_59:                              # %if.end316
                                        #   in Loop: Header=BB28_52 Depth=1
	jmp	.LBB28_60
.LBB28_60:                              # %if.end317
                                        #   in Loop: Header=BB28_52 Depth=1
	jmp	.LBB28_61
.LBB28_61:                              # %for.inc318
                                        #   in Loop: Header=BB28_52 Depth=1
	movl	-36(%rbp), %eax
	addl	$1, %eax
	movl	%eax, -36(%rbp)
	jmp	.LBB28_52
.LBB28_62:                              # %for.end320
	jmp	.LBB28_63
.LBB28_63:                              # %if.end321
	cmpl	$1, -56(%rbp)
	jle	.LBB28_77
# %bb.64:                               # %if.then324
	movl	-100(%rbp), %ecx
	movl	pred_MV_uplayer, %eax
	cltd
	movl	$4, %esi
	idivl	%esi
	addl	%eax, %ecx
	movl	%ecx, -12(%rbp)
	movl	-104(%rbp), %ecx
	movl	pred_MV_uplayer+4, %eax
	cltd
	idivl	%esi
	addl	%eax, %ecx
	movl	%ecx, -16(%rbp)
	movl	-12(%rbp), %edi
	subl	-28(%rbp), %edi
	callq	abs
	cmpl	48(%rbp), %eax
	jg	.LBB28_71
# %bb.65:                               # %land.lhs.true333
	movl	-16(%rbp), %edi
	subl	-24(%rbp), %edi
	callq	abs
	cmpl	48(%rbp), %eax
	jg	.LBB28_71
# %bb.66:                               # %if.then338
	movq	McostState, %rax
	movl	-16(%rbp), %ecx
	subl	-24(%rbp), %ecx
	addl	48(%rbp), %ecx
	movslq	%ecx, %rcx
	movq	(%rax,%rcx,8), %rax
	movl	-12(%rbp), %ecx
	subl	-28(%rbp), %ecx
	addl	48(%rbp), %ecx
	movslq	%ecx, %rcx
	cmpl	$0, (%rax,%rcx,4)
	jne	.LBB28_70
# %bb.67:                               # %if.then348
	movl	-96(%rbp), %eax
	movq	mvbits, %rdx
	movl	-12(%rbp), %esi
	movl	-32(%rbp), %ecx
                                        # kill: def $cl killed $ecx
	shll	%cl, %esi
	subl	-88(%rbp), %esi
	movslq	%esi, %rcx
	movl	(%rdx,%rcx,4), %edx
	movq	mvbits, %rsi
	movl	-16(%rbp), %edi
	movl	-32(%rbp), %ecx
                                        # kill: def $cl killed $ecx
	shll	%cl, %edi
	subl	-84(%rbp), %edi
	movslq	%edi, %rcx
	addl	(%rsi,%rcx,4), %edx
	imull	%edx, %eax
	sarl	$16, %eax
	movl	%eax, -20(%rbp)
	movq	-128(%rbp), %rdi
	movq	-120(%rbp), %rsi
	movq	-112(%rbp), %rdx
	movl	-80(%rbp), %ecx
	movl	-60(%rbp), %r8d
	movl	-92(%rbp), %r9d
	movl	-20(%rbp), %eax
	movl	56(%rbp), %ebx
	movl	-12(%rbp), %r10d
	movl	-16(%rbp), %r11d
	movl	%eax, (%rsp)
	movl	%ebx, 8(%rsp)
	movl	%r10d, 16(%rsp)
	movl	%r11d, 24(%rsp)
	callq	PartCalMad
	movl	%eax, -20(%rbp)
	movl	-20(%rbp), %eax
	movq	McostState, %rcx
	movl	-16(%rbp), %edx
	subl	-24(%rbp), %edx
	addl	48(%rbp), %edx
	movslq	%edx, %rdx
	movq	(%rcx,%rdx,8), %rcx
	movl	-12(%rbp), %edx
	subl	-28(%rbp), %edx
	addl	48(%rbp), %edx
	movslq	%edx, %rdx
	movl	%eax, (%rcx,%rdx,4)
	movl	-20(%rbp), %eax
	cmpl	56(%rbp), %eax
	jge	.LBB28_69
# %bb.68:                               # %if.then371
	movl	-12(%rbp), %eax
	movl	%eax, -44(%rbp)
	movl	-16(%rbp), %eax
	movl	%eax, -40(%rbp)
	movl	-20(%rbp), %eax
	movl	%eax, 56(%rbp)
.LBB28_69:                              # %if.end372
	jmp	.LBB28_70
.LBB28_70:                              # %if.end373
	jmp	.LBB28_71
.LBB28_71:                              # %if.end374
	movl	56(%rbp), %eax
	subl	pred_SAD_uplayer, %eax
	vcvtsi2ss	%eax, %xmm0, %xmm0
	vcvtsi2ssl	pred_SAD_uplayer, %xmm0, %xmm1
	vmulss	-72(%rbp), %xmm1, %xmm1
	vucomiss	%xmm0, %xmm1
	jbe	.LBB28_73
# %bb.72:                               # %if.then381
	jmp	.LBB28_301
.LBB28_73:                              # %if.else382
	movl	56(%rbp), %eax
	subl	pred_SAD_uplayer, %eax
	vcvtsi2ss	%eax, %xmm0, %xmm0
	vcvtsi2ssl	pred_SAD_uplayer, %xmm0, %xmm1
	vmulss	-76(%rbp), %xmm1, %xmm1
	vucomiss	%xmm0, %xmm1
	jbe	.LBB28_75
# %bb.74:                               # %if.then389
	jmp	.LBB28_282
.LBB28_75:                              # %if.end390
	jmp	.LBB28_76
.LBB28_76:                              # %if.end391
	jmp	.LBB28_77
.LBB28_77:                              # %if.end392
	movq	img, %rax
	movl	(%rax), %eax
	movswl	-46(%rbp), %ecx
	addl	$1, %ecx
	cmpl	%ecx, %eax
	jle	.LBB28_79
# %bb.78:                               # %land.lhs.true397
	movswl	-46(%rbp), %eax
	cmpl	$-1, %eax
	jne	.LBB28_81
.LBB28_79:                              # %lor.lhs.false401
	cmpl	$1, -136(%rbp)
	jne	.LBB28_89
# %bb.80:                               # %land.lhs.true404
	movl	Bframe_ctr, %eax
	cltd
	idivl	-156(%rbp)
	cmpl	$1, %edx
	jle	.LBB28_89
.LBB28_81:                              # %if.then408
	movl	-100(%rbp), %ecx
	movl	pred_MV_time, %eax
	cltd
	movl	$4, %esi
	idivl	%esi
	addl	%eax, %ecx
	movl	%ecx, -12(%rbp)
	movl	-104(%rbp), %ecx
	movl	pred_MV_time+4, %eax
	cltd
	idivl	%esi
	addl	%eax, %ecx
	movl	%ecx, -16(%rbp)
	movl	-12(%rbp), %edi
	subl	-28(%rbp), %edi
	callq	abs
	cmpl	48(%rbp), %eax
	jg	.LBB28_88
# %bb.82:                               # %land.lhs.true417
	movl	-16(%rbp), %edi
	subl	-24(%rbp), %edi
	callq	abs
	cmpl	48(%rbp), %eax
	jg	.LBB28_88
# %bb.83:                               # %if.then422
	movq	McostState, %rax
	movl	-16(%rbp), %ecx
	subl	-24(%rbp), %ecx
	addl	48(%rbp), %ecx
	movslq	%ecx, %rcx
	movq	(%rax,%rcx,8), %rax
	movl	-12(%rbp), %ecx
	subl	-28(%rbp), %ecx
	addl	48(%rbp), %ecx
	movslq	%ecx, %rcx
	cmpl	$0, (%rax,%rcx,4)
	jne	.LBB28_87
# %bb.84:                               # %if.then432
	movl	-96(%rbp), %eax
	movq	mvbits, %rdx
	movl	-12(%rbp), %esi
	movl	-32(%rbp), %ecx
                                        # kill: def $cl killed $ecx
	shll	%cl, %esi
	subl	-88(%rbp), %esi
	movslq	%esi, %rcx
	movl	(%rdx,%rcx,4), %edx
	movq	mvbits, %rsi
	movl	-16(%rbp), %edi
	movl	-32(%rbp), %ecx
                                        # kill: def $cl killed $ecx
	shll	%cl, %edi
	subl	-84(%rbp), %edi
	movslq	%edi, %rcx
	addl	(%rsi,%rcx,4), %edx
	imull	%edx, %eax
	sarl	$16, %eax
	movl	%eax, -20(%rbp)
	movq	-128(%rbp), %rdi
	movq	-120(%rbp), %rsi
	movq	-112(%rbp), %rdx
	movl	-80(%rbp), %ecx
	movl	-60(%rbp), %r8d
	movl	-92(%rbp), %r9d
	movl	-20(%rbp), %eax
	movl	56(%rbp), %ebx
	movl	-12(%rbp), %r10d
	movl	-16(%rbp), %r11d
	movl	%eax, (%rsp)
	movl	%ebx, 8(%rsp)
	movl	%r10d, 16(%rsp)
	movl	%r11d, 24(%rsp)
	callq	PartCalMad
	movl	%eax, -20(%rbp)
	movl	-20(%rbp), %eax
	movq	McostState, %rcx
	movl	-16(%rbp), %edx
	subl	-24(%rbp), %edx
	addl	48(%rbp), %edx
	movslq	%edx, %rdx
	movq	(%rcx,%rdx,8), %rcx
	movl	-12(%rbp), %edx
	subl	-28(%rbp), %edx
	addl	48(%rbp), %edx
	movslq	%edx, %rdx
	movl	%eax, (%rcx,%rdx,4)
	movl	-20(%rbp), %eax
	cmpl	56(%rbp), %eax
	jge	.LBB28_86
# %bb.85:                               # %if.then455
	movl	-12(%rbp), %eax
	movl	%eax, -44(%rbp)
	movl	-16(%rbp), %eax
	movl	%eax, -40(%rbp)
	movl	-20(%rbp), %eax
	movl	%eax, 56(%rbp)
.LBB28_86:                              # %if.end456
	jmp	.LBB28_87
.LBB28_87:                              # %if.end457
	jmp	.LBB28_88
.LBB28_88:                              # %if.end458
	jmp	.LBB28_89
.LBB28_89:                              # %if.end459
	movq	input, %rax
	cmpl	$1, 2880(%rax)
	jne	.LBB28_105
# %bb.90:                               # %if.then462
	cmpl	$0, -136(%rbp)
	jne	.LBB28_92
# %bb.91:                               # %land.lhs.true465
	movswl	-46(%rbp), %eax
	cmpl	$0, %eax
	jg	.LBB28_96
.LBB28_92:                              # %lor.lhs.false469
	movq	img, %rax
	cmpl	$1, 24(%rax)
	jne	.LBB28_104
# %bb.93:                               # %land.lhs.true472
	cmpl	$0, -136(%rbp)
	jne	.LBB28_104
# %bb.94:                               # %land.lhs.true475
	movswl	-46(%rbp), %eax
	cmpl	$0, %eax
	je	.LBB28_96
# %bb.95:                               # %lor.lhs.false479
	movswl	-46(%rbp), %eax
	cmpl	$2, %eax
	jne	.LBB28_104
.LBB28_96:                              # %if.then483
	movl	-100(%rbp), %ecx
	movl	pred_MV_ref, %eax
	cltd
	movl	$4, %esi
	idivl	%esi
	addl	%eax, %ecx
	movl	%ecx, -12(%rbp)
	movl	-104(%rbp), %ecx
	movl	pred_MV_ref+4, %eax
	cltd
	idivl	%esi
	addl	%eax, %ecx
	movl	%ecx, -16(%rbp)
	movl	-12(%rbp), %edi
	subl	-28(%rbp), %edi
	callq	abs
	cmpl	48(%rbp), %eax
	jg	.LBB28_103
# %bb.97:                               # %land.lhs.true492
	movl	-16(%rbp), %edi
	subl	-24(%rbp), %edi
	callq	abs
	cmpl	48(%rbp), %eax
	jg	.LBB28_103
# %bb.98:                               # %if.then497
	movq	McostState, %rax
	movl	-16(%rbp), %ecx
	subl	-24(%rbp), %ecx
	addl	48(%rbp), %ecx
	movslq	%ecx, %rcx
	movq	(%rax,%rcx,8), %rax
	movl	-12(%rbp), %ecx
	subl	-28(%rbp), %ecx
	addl	48(%rbp), %ecx
	movslq	%ecx, %rcx
	cmpl	$0, (%rax,%rcx,4)
	jne	.LBB28_102
# %bb.99:                               # %if.then507
	movl	-96(%rbp), %eax
	movq	mvbits, %rdx
	movl	-12(%rbp), %esi
	movl	-32(%rbp), %ecx
                                        # kill: def $cl killed $ecx
	shll	%cl, %esi
	subl	-88(%rbp), %esi
	movslq	%esi, %rcx
	movl	(%rdx,%rcx,4), %edx
	movq	mvbits, %rsi
	movl	-16(%rbp), %edi
	movl	-32(%rbp), %ecx
                                        # kill: def $cl killed $ecx
	shll	%cl, %edi
	subl	-84(%rbp), %edi
	movslq	%edi, %rcx
	addl	(%rsi,%rcx,4), %edx
	imull	%edx, %eax
	sarl	$16, %eax
	movl	%eax, -20(%rbp)
	movq	-128(%rbp), %rdi
	movq	-120(%rbp), %rsi
	movq	-112(%rbp), %rdx
	movl	-80(%rbp), %ecx
	movl	-60(%rbp), %r8d
	movl	-92(%rbp), %r9d
	movl	-20(%rbp), %eax
	movl	56(%rbp), %ebx
	movl	-12(%rbp), %r10d
	movl	-16(%rbp), %r11d
	movl	%eax, (%rsp)
	movl	%ebx, 8(%rsp)
	movl	%r10d, 16(%rsp)
	movl	%r11d, 24(%rsp)
	callq	PartCalMad
	movl	%eax, -20(%rbp)
	movl	-20(%rbp), %eax
	movq	McostState, %rcx
	movl	-16(%rbp), %edx
	subl	-24(%rbp), %edx
	addl	48(%rbp), %edx
	movslq	%edx, %rdx
	movq	(%rcx,%rdx,8), %rcx
	movl	-12(%rbp), %edx
	subl	-28(%rbp), %edx
	addl	48(%rbp), %edx
	movslq	%edx, %rdx
	movl	%eax, (%rcx,%rdx,4)
	movl	-20(%rbp), %eax
	cmpl	56(%rbp), %eax
	jge	.LBB28_101
# %bb.100:                              # %if.then530
	movl	-12(%rbp), %eax
	movl	%eax, -44(%rbp)
	movl	-16(%rbp), %eax
	movl	%eax, -40(%rbp)
	movl	-20(%rbp), %eax
	movl	%eax, 56(%rbp)
.LBB28_101:                             # %if.end531
	jmp	.LBB28_102
.LBB28_102:                             # %if.end532
	jmp	.LBB28_103
.LBB28_103:                             # %if.end533
	jmp	.LBB28_104
.LBB28_104:                             # %if.end534
	jmp	.LBB28_119
.LBB28_105:                             # %if.else535
	cmpl	$0, -136(%rbp)
	jne	.LBB28_107
# %bb.106:                              # %land.lhs.true538
	movswl	-46(%rbp), %eax
	cmpl	$0, %eax
	jg	.LBB28_110
.LBB28_107:                             # %lor.lhs.false542
	movq	img, %rax
	cmpl	$1, 24(%rax)
	jne	.LBB28_118
# %bb.108:                              # %land.lhs.true546
	cmpl	$0, -136(%rbp)
	jne	.LBB28_118
# %bb.109:                              # %land.lhs.true549
	movswl	-46(%rbp), %eax
	cmpl	$0, %eax
	jne	.LBB28_118
.LBB28_110:                             # %if.then553
	movl	-100(%rbp), %ecx
	movl	pred_MV_ref, %eax
	cltd
	movl	$4, %esi
	idivl	%esi
	addl	%eax, %ecx
	movl	%ecx, -12(%rbp)
	movl	-104(%rbp), %ecx
	movl	pred_MV_ref+4, %eax
	cltd
	idivl	%esi
	addl	%eax, %ecx
	movl	%ecx, -16(%rbp)
	movl	-12(%rbp), %edi
	subl	-28(%rbp), %edi
	callq	abs
	cmpl	48(%rbp), %eax
	jg	.LBB28_117
# %bb.111:                              # %land.lhs.true562
	movl	-16(%rbp), %edi
	subl	-24(%rbp), %edi
	callq	abs
	cmpl	48(%rbp), %eax
	jg	.LBB28_117
# %bb.112:                              # %if.then567
	movq	McostState, %rax
	movl	-16(%rbp), %ecx
	subl	-24(%rbp), %ecx
	addl	48(%rbp), %ecx
	movslq	%ecx, %rcx
	movq	(%rax,%rcx,8), %rax
	movl	-12(%rbp), %ecx
	subl	-28(%rbp), %ecx
	addl	48(%rbp), %ecx
	movslq	%ecx, %rcx
	cmpl	$0, (%rax,%rcx,4)
	jne	.LBB28_116
# %bb.113:                              # %if.then577
	movl	-96(%rbp), %eax
	movq	mvbits, %rdx
	movl	-12(%rbp), %esi
	movl	-32(%rbp), %ecx
                                        # kill: def $cl killed $ecx
	shll	%cl, %esi
	subl	-88(%rbp), %esi
	movslq	%esi, %rcx
	movl	(%rdx,%rcx,4), %edx
	movq	mvbits, %rsi
	movl	-16(%rbp), %edi
	movl	-32(%rbp), %ecx
                                        # kill: def $cl killed $ecx
	shll	%cl, %edi
	subl	-84(%rbp), %edi
	movslq	%edi, %rcx
	addl	(%rsi,%rcx,4), %edx
	imull	%edx, %eax
	sarl	$16, %eax
	movl	%eax, -20(%rbp)
	movq	-128(%rbp), %rdi
	movq	-120(%rbp), %rsi
	movq	-112(%rbp), %rdx
	movl	-80(%rbp), %ecx
	movl	-60(%rbp), %r8d
	movl	-92(%rbp), %r9d
	movl	-20(%rbp), %eax
	movl	56(%rbp), %ebx
	movl	-12(%rbp), %r10d
	movl	-16(%rbp), %r11d
	movl	%eax, (%rsp)
	movl	%ebx, 8(%rsp)
	movl	%r10d, 16(%rsp)
	movl	%r11d, 24(%rsp)
	callq	PartCalMad
	movl	%eax, -20(%rbp)
	movl	-20(%rbp), %eax
	movq	McostState, %rcx
	movl	-16(%rbp), %edx
	subl	-24(%rbp), %edx
	addl	48(%rbp), %edx
	movslq	%edx, %rdx
	movq	(%rcx,%rdx,8), %rcx
	movl	-12(%rbp), %edx
	subl	-28(%rbp), %edx
	addl	48(%rbp), %edx
	movslq	%edx, %rdx
	movl	%eax, (%rcx,%rdx,4)
	movl	-20(%rbp), %eax
	cmpl	56(%rbp), %eax
	jge	.LBB28_115
# %bb.114:                              # %if.then600
	movl	-12(%rbp), %eax
	movl	%eax, -44(%rbp)
	movl	-16(%rbp), %eax
	movl	%eax, -40(%rbp)
	movl	-20(%rbp), %eax
	movl	%eax, 56(%rbp)
.LBB28_115:                             # %if.end601
	jmp	.LBB28_116
.LBB28_116:                             # %if.end602
	jmp	.LBB28_117
.LBB28_117:                             # %if.end603
	jmp	.LBB28_118
.LBB28_118:                             # %if.end604
	jmp	.LBB28_119
.LBB28_119:                             # %if.end605
	movl	-44(%rbp), %eax
	movl	%eax, -68(%rbp)
	movl	-40(%rbp), %eax
	movl	%eax, -64(%rbp)
	movl	$0, -36(%rbp)
.LBB28_120:                             # %for.cond606
                                        # =>This Inner Loop Header: Depth=1
	cmpl	$4, -36(%rbp)
	jge	.LBB28_130
# %bb.121:                              # %for.body609
                                        #   in Loop: Header=BB28_120 Depth=1
	movl	-68(%rbp), %eax
	movslq	-36(%rbp), %rcx
	addl	FastIntegerPelBlockMotionSearch.Diamond_x(,%rcx,4), %eax
	movl	%eax, -12(%rbp)
	movl	-64(%rbp), %eax
	movslq	-36(%rbp), %rcx
	addl	FastIntegerPelBlockMotionSearch.Diamond_y(,%rcx,4), %eax
	movl	%eax, -16(%rbp)
	movl	-12(%rbp), %edi
	subl	-28(%rbp), %edi
	callq	abs
	cmpl	48(%rbp), %eax
	jg	.LBB28_128
# %bb.122:                              # %land.lhs.true620
                                        #   in Loop: Header=BB28_120 Depth=1
	movl	-16(%rbp), %edi
	subl	-24(%rbp), %edi
	callq	abs
	cmpl	48(%rbp), %eax
	jg	.LBB28_128
# %bb.123:                              # %if.then625
                                        #   in Loop: Header=BB28_120 Depth=1
	movq	McostState, %rax
	movl	-16(%rbp), %ecx
	subl	-24(%rbp), %ecx
	addl	48(%rbp), %ecx
	movslq	%ecx, %rcx
	movq	(%rax,%rcx,8), %rax
	movl	-12(%rbp), %ecx
	subl	-28(%rbp), %ecx
	addl	48(%rbp), %ecx
	movslq	%ecx, %rcx
	cmpl	$0, (%rax,%rcx,4)
	jne	.LBB28_127
# %bb.124:                              # %if.then635
                                        #   in Loop: Header=BB28_120 Depth=1
	movl	-96(%rbp), %eax
	movq	mvbits, %rdx
	movl	-12(%rbp), %esi
	movl	-32(%rbp), %ecx
                                        # kill: def $cl killed $ecx
	shll	%cl, %esi
	subl	-88(%rbp), %esi
	movslq	%esi, %rcx
	movl	(%rdx,%rcx,4), %edx
	movq	mvbits, %rsi
	movl	-16(%rbp), %edi
	movl	-32(%rbp), %ecx
                                        # kill: def $cl killed $ecx
	shll	%cl, %edi
	subl	-84(%rbp), %edi
	movslq	%edi, %rcx
	addl	(%rsi,%rcx,4), %edx
	imull	%edx, %eax
	sarl	$16, %eax
	movl	%eax, -20(%rbp)
	movq	-128(%rbp), %rdi
	movq	-120(%rbp), %rsi
	movq	-112(%rbp), %rdx
	movl	-80(%rbp), %ecx
	movl	-60(%rbp), %r8d
	movl	-92(%rbp), %r9d
	movl	-20(%rbp), %eax
	movl	56(%rbp), %ebx
	movl	-12(%rbp), %r10d
	movl	-16(%rbp), %r11d
	movl	%eax, (%rsp)
	movl	%ebx, 8(%rsp)
	movl	%r10d, 16(%rsp)
	movl	%r11d, 24(%rsp)
	callq	PartCalMad
	movl	%eax, -20(%rbp)
	movl	-20(%rbp), %eax
	movq	McostState, %rcx
	movl	-16(%rbp), %edx
	subl	-24(%rbp), %edx
	addl	48(%rbp), %edx
	movslq	%edx, %rdx
	movq	(%rcx,%rdx,8), %rcx
	movl	-12(%rbp), %edx
	subl	-28(%rbp), %edx
	addl	48(%rbp), %edx
	movslq	%edx, %rdx
	movl	%eax, (%rcx,%rdx,4)
	movl	-20(%rbp), %eax
	cmpl	56(%rbp), %eax
	jge	.LBB28_126
# %bb.125:                              # %if.then658
                                        #   in Loop: Header=BB28_120 Depth=1
	movl	-12(%rbp), %eax
	movl	%eax, -44(%rbp)
	movl	-16(%rbp), %eax
	movl	%eax, -40(%rbp)
	movl	-20(%rbp), %eax
	movl	%eax, 56(%rbp)
.LBB28_126:                             # %if.end659
                                        #   in Loop: Header=BB28_120 Depth=1
	jmp	.LBB28_127
.LBB28_127:                             # %if.end660
                                        #   in Loop: Header=BB28_120 Depth=1
	jmp	.LBB28_128
.LBB28_128:                             # %if.end661
                                        #   in Loop: Header=BB28_120 Depth=1
	jmp	.LBB28_129
.LBB28_129:                             # %for.inc662
                                        #   in Loop: Header=BB28_120 Depth=1
	movl	-36(%rbp), %eax
	addl	$1, %eax
	movl	%eax, -36(%rbp)
	jmp	.LBB28_120
.LBB28_130:                             # %for.end664
	movswl	-46(%rbp), %eax
	cmpl	$0, %eax
	jle	.LBB28_137
# %bb.131:                              # %if.then668
	movl	56(%rbp), %eax
	subl	pred_SAD_ref, %eax
	vcvtsi2ss	%eax, %xmm0, %xmm0
	vcvtsi2ssl	pred_SAD_ref, %xmm0, %xmm1
	vmulss	-72(%rbp), %xmm1, %xmm1
	vucomiss	%xmm0, %xmm1
	jbe	.LBB28_133
# %bb.132:                              # %if.then675
	jmp	.LBB28_301
.LBB28_133:                             # %if.else676
	movl	56(%rbp), %eax
	subl	pred_SAD_ref, %eax
	vcvtsi2ss	%eax, %xmm0, %xmm0
	vcvtsi2ssl	pred_SAD_ref, %xmm0, %xmm1
	vmulss	-76(%rbp), %xmm1, %xmm1
	vucomiss	%xmm0, %xmm1
	jbe	.LBB28_135
# %bb.134:                              # %if.then683
	jmp	.LBB28_282
.LBB28_135:                             # %if.end684
	jmp	.LBB28_136
.LBB28_136:                             # %if.end685
	jmp	.LBB28_151
.LBB28_137:                             # %if.else686
	cmpl	$1, -56(%rbp)
	jle	.LBB28_144
# %bb.138:                              # %if.then689
	movl	56(%rbp), %eax
	subl	pred_SAD_uplayer, %eax
	vcvtsi2ss	%eax, %xmm0, %xmm0
	vcvtsi2ssl	pred_SAD_uplayer, %xmm0, %xmm1
	vmulss	-72(%rbp), %xmm1, %xmm1
	vucomiss	%xmm0, %xmm1
	jbe	.LBB28_140
# %bb.139:                              # %if.then696
	jmp	.LBB28_301
.LBB28_140:                             # %if.else697
	movl	56(%rbp), %eax
	subl	pred_SAD_uplayer, %eax
	vcvtsi2ss	%eax, %xmm0, %xmm0
	vcvtsi2ssl	pred_SAD_uplayer, %xmm0, %xmm1
	vmulss	-76(%rbp), %xmm1, %xmm1
	vucomiss	%xmm0, %xmm1
	jbe	.LBB28_142
# %bb.141:                              # %if.then704
	jmp	.LBB28_282
.LBB28_142:                             # %if.end705
	jmp	.LBB28_143
.LBB28_143:                             # %if.end706
	jmp	.LBB28_150
.LBB28_144:                             # %if.else707
	movl	56(%rbp), %eax
	subl	pred_SAD_space, %eax
	vcvtsi2ss	%eax, %xmm0, %xmm0
	vcvtsi2ssl	pred_SAD_space, %xmm0, %xmm1
	vmulss	-72(%rbp), %xmm1, %xmm1
	vucomiss	%xmm0, %xmm1
	jbe	.LBB28_146
# %bb.145:                              # %if.then714
	jmp	.LBB28_301
.LBB28_146:                             # %if.else715
	movl	56(%rbp), %eax
	subl	pred_SAD_space, %eax
	vcvtsi2ss	%eax, %xmm0, %xmm0
	vcvtsi2ssl	pred_SAD_space, %xmm0, %xmm1
	vmulss	-76(%rbp), %xmm1, %xmm1
	vucomiss	%xmm0, %xmm1
	jbe	.LBB28_148
# %bb.147:                              # %if.then722
	jmp	.LBB28_282
.LBB28_148:                             # %if.end723
	jmp	.LBB28_149
.LBB28_149:                             # %if.end724
	jmp	.LBB28_150
.LBB28_150:                             # %if.end725
	jmp	.LBB28_151
.LBB28_151:                             # %if.end726
	cmpl	$6, -56(%rbp)
	jle	.LBB28_153
# %bb.152:                              # %if.then729
	jmp	.LBB28_282
.LBB28_153:                             # %if.else730
	jmp	.LBB28_154
.LBB28_154:                             # %first_step
	movl	-44(%rbp), %eax
	movl	%eax, -68(%rbp)
	movl	-40(%rbp), %eax
	movl	%eax, -64(%rbp)
	movl	$1, -52(%rbp)
.LBB28_155:                             # %for.cond731
                                        # =>This Inner Loop Header: Depth=1
	movl	-52(%rbp), %ecx
	movl	48(%rbp), %eax
	cltd
	movl	$2, %esi
	idivl	%esi
	cmpl	%eax, %ecx
	jg	.LBB28_172
# %bb.156:                              # %for.body735
                                        #   in Loop: Header=BB28_155 Depth=1
	movl	-52(%rbp), %eax
	shll	$1, %eax
	subl	$1, %eax
	movl	%eax, -140(%rbp)
	movl	-68(%rbp), %eax
	addl	-140(%rbp), %eax
	movl	%eax, -12(%rbp)
	movl	-64(%rbp), %eax
	movl	%eax, -16(%rbp)
	movl	-12(%rbp), %edi
	subl	-28(%rbp), %edi
	callq	abs
	cmpl	48(%rbp), %eax
	jg	.LBB28_163
# %bb.157:                              # %land.lhs.true743
                                        #   in Loop: Header=BB28_155 Depth=1
	movl	-16(%rbp), %edi
	subl	-24(%rbp), %edi
	callq	abs
	cmpl	48(%rbp), %eax
	jg	.LBB28_163
# %bb.158:                              # %if.then748
                                        #   in Loop: Header=BB28_155 Depth=1
	movq	McostState, %rax
	movl	-16(%rbp), %ecx
	subl	-24(%rbp), %ecx
	addl	48(%rbp), %ecx
	movslq	%ecx, %rcx
	movq	(%rax,%rcx,8), %rax
	movl	-12(%rbp), %ecx
	subl	-28(%rbp), %ecx
	addl	48(%rbp), %ecx
	movslq	%ecx, %rcx
	cmpl	$0, (%rax,%rcx,4)
	jne	.LBB28_162
# %bb.159:                              # %if.then758
                                        #   in Loop: Header=BB28_155 Depth=1
	movl	-96(%rbp), %eax
	movq	mvbits, %rdx
	movl	-12(%rbp), %esi
	movl	-32(%rbp), %ecx
                                        # kill: def $cl killed $ecx
	shll	%cl, %esi
	subl	-88(%rbp), %esi
	movslq	%esi, %rcx
	movl	(%rdx,%rcx,4), %edx
	movq	mvbits, %rsi
	movl	-16(%rbp), %edi
	movl	-32(%rbp), %ecx
                                        # kill: def $cl killed $ecx
	shll	%cl, %edi
	subl	-84(%rbp), %edi
	movslq	%edi, %rcx
	addl	(%rsi,%rcx,4), %edx
	imull	%edx, %eax
	sarl	$16, %eax
	movl	%eax, -20(%rbp)
	movq	-128(%rbp), %rdi
	movq	-120(%rbp), %rsi
	movq	-112(%rbp), %rdx
	movl	-80(%rbp), %ecx
	movl	-60(%rbp), %r8d
	movl	-92(%rbp), %r9d
	movl	-20(%rbp), %eax
	movl	56(%rbp), %ebx
	movl	-12(%rbp), %r10d
	movl	-16(%rbp), %r11d
	movl	%eax, (%rsp)
	movl	%ebx, 8(%rsp)
	movl	%r10d, 16(%rsp)
	movl	%r11d, 24(%rsp)
	callq	PartCalMad
	movl	%eax, -20(%rbp)
	movl	-20(%rbp), %eax
	movq	McostState, %rcx
	movl	-16(%rbp), %edx
	subl	-24(%rbp), %edx
	addl	48(%rbp), %edx
	movslq	%edx, %rdx
	movq	(%rcx,%rdx,8), %rcx
	movl	-12(%rbp), %edx
	subl	-28(%rbp), %edx
	addl	48(%rbp), %edx
	movslq	%edx, %rdx
	movl	%eax, (%rcx,%rdx,4)
	movl	-20(%rbp), %eax
	cmpl	56(%rbp), %eax
	jge	.LBB28_161
# %bb.160:                              # %if.then781
                                        #   in Loop: Header=BB28_155 Depth=1
	movl	-12(%rbp), %eax
	movl	%eax, -44(%rbp)
	movl	-16(%rbp), %eax
	movl	%eax, -40(%rbp)
	movl	-20(%rbp), %eax
	movl	%eax, 56(%rbp)
.LBB28_161:                             # %if.end782
                                        #   in Loop: Header=BB28_155 Depth=1
	jmp	.LBB28_162
.LBB28_162:                             # %if.end783
                                        #   in Loop: Header=BB28_155 Depth=1
	jmp	.LBB28_163
.LBB28_163:                             # %if.end784
                                        #   in Loop: Header=BB28_155 Depth=1
	movl	-68(%rbp), %eax
	subl	-140(%rbp), %eax
	movl	%eax, -12(%rbp)
	movl	-64(%rbp), %eax
	movl	%eax, -16(%rbp)
	movl	-12(%rbp), %edi
	subl	-28(%rbp), %edi
	callq	abs
	cmpl	48(%rbp), %eax
	jg	.LBB28_170
# %bb.164:                              # %land.lhs.true790
                                        #   in Loop: Header=BB28_155 Depth=1
	movl	-16(%rbp), %edi
	subl	-24(%rbp), %edi
	callq	abs
	cmpl	48(%rbp), %eax
	jg	.LBB28_170
# %bb.165:                              # %if.then795
                                        #   in Loop: Header=BB28_155 Depth=1
	movq	McostState, %rax
	movl	-16(%rbp), %ecx
	subl	-24(%rbp), %ecx
	addl	48(%rbp), %ecx
	movslq	%ecx, %rcx
	movq	(%rax,%rcx,8), %rax
	movl	-12(%rbp), %ecx
	subl	-28(%rbp), %ecx
	addl	48(%rbp), %ecx
	movslq	%ecx, %rcx
	cmpl	$0, (%rax,%rcx,4)
	jne	.LBB28_169
# %bb.166:                              # %if.then805
                                        #   in Loop: Header=BB28_155 Depth=1
	movl	-96(%rbp), %eax
	movq	mvbits, %rdx
	movl	-12(%rbp), %esi
	movl	-32(%rbp), %ecx
                                        # kill: def $cl killed $ecx
	shll	%cl, %esi
	subl	-88(%rbp), %esi
	movslq	%esi, %rcx
	movl	(%rdx,%rcx,4), %edx
	movq	mvbits, %rsi
	movl	-16(%rbp), %edi
	movl	-32(%rbp), %ecx
                                        # kill: def $cl killed $ecx
	shll	%cl, %edi
	subl	-84(%rbp), %edi
	movslq	%edi, %rcx
	addl	(%rsi,%rcx,4), %edx
	imull	%edx, %eax
	sarl	$16, %eax
	movl	%eax, -20(%rbp)
	movq	-128(%rbp), %rdi
	movq	-120(%rbp), %rsi
	movq	-112(%rbp), %rdx
	movl	-80(%rbp), %ecx
	movl	-60(%rbp), %r8d
	movl	-92(%rbp), %r9d
	movl	-20(%rbp), %eax
	movl	56(%rbp), %ebx
	movl	-12(%rbp), %r10d
	movl	-16(%rbp), %r11d
	movl	%eax, (%rsp)
	movl	%ebx, 8(%rsp)
	movl	%r10d, 16(%rsp)
	movl	%r11d, 24(%rsp)
	callq	PartCalMad
	movl	%eax, -20(%rbp)
	movl	-20(%rbp), %eax
	movq	McostState, %rcx
	movl	-16(%rbp), %edx
	subl	-24(%rbp), %edx
	addl	48(%rbp), %edx
	movslq	%edx, %rdx
	movq	(%rcx,%rdx,8), %rcx
	movl	-12(%rbp), %edx
	subl	-28(%rbp), %edx
	addl	48(%rbp), %edx
	movslq	%edx, %rdx
	movl	%eax, (%rcx,%rdx,4)
	movl	-20(%rbp), %eax
	cmpl	56(%rbp), %eax
	jge	.LBB28_168
# %bb.167:                              # %if.then828
                                        #   in Loop: Header=BB28_155 Depth=1
	movl	-12(%rbp), %eax
	movl	%eax, -44(%rbp)
	movl	-16(%rbp), %eax
	movl	%eax, -40(%rbp)
	movl	-20(%rbp), %eax
	movl	%eax, 56(%rbp)
.LBB28_168:                             # %if.end829
                                        #   in Loop: Header=BB28_155 Depth=1
	jmp	.LBB28_169
.LBB28_169:                             # %if.end830
                                        #   in Loop: Header=BB28_155 Depth=1
	jmp	.LBB28_170
.LBB28_170:                             # %if.end831
                                        #   in Loop: Header=BB28_155 Depth=1
	jmp	.LBB28_171
.LBB28_171:                             # %for.inc832
                                        #   in Loop: Header=BB28_155 Depth=1
	movl	-52(%rbp), %eax
	addl	$1, %eax
	movl	%eax, -52(%rbp)
	jmp	.LBB28_155
.LBB28_172:                             # %for.end834
	movl	$1, -52(%rbp)
.LBB28_173:                             # %for.cond835
                                        # =>This Inner Loop Header: Depth=1
	movl	-52(%rbp), %ecx
	movl	48(%rbp), %eax
	cltd
	movl	$4, %esi
	idivl	%esi
	cmpl	%eax, %ecx
	jg	.LBB28_190
# %bb.174:                              # %for.body839
                                        #   in Loop: Header=BB28_173 Depth=1
	movl	-52(%rbp), %eax
	shll	$1, %eax
	subl	$1, %eax
	movl	%eax, -140(%rbp)
	movl	-68(%rbp), %eax
	movl	%eax, -12(%rbp)
	movl	-64(%rbp), %eax
	addl	-140(%rbp), %eax
	movl	%eax, -16(%rbp)
	movl	-12(%rbp), %edi
	subl	-28(%rbp), %edi
	callq	abs
	cmpl	48(%rbp), %eax
	jg	.LBB28_181
# %bb.175:                              # %land.lhs.true847
                                        #   in Loop: Header=BB28_173 Depth=1
	movl	-16(%rbp), %edi
	subl	-24(%rbp), %edi
	callq	abs
	cmpl	48(%rbp), %eax
	jg	.LBB28_181
# %bb.176:                              # %if.then852
                                        #   in Loop: Header=BB28_173 Depth=1
	movq	McostState, %rax
	movl	-16(%rbp), %ecx
	subl	-24(%rbp), %ecx
	addl	48(%rbp), %ecx
	movslq	%ecx, %rcx
	movq	(%rax,%rcx,8), %rax
	movl	-12(%rbp), %ecx
	subl	-28(%rbp), %ecx
	addl	48(%rbp), %ecx
	movslq	%ecx, %rcx
	cmpl	$0, (%rax,%rcx,4)
	jne	.LBB28_180
# %bb.177:                              # %if.then862
                                        #   in Loop: Header=BB28_173 Depth=1
	movl	-96(%rbp), %eax
	movq	mvbits, %rdx
	movl	-12(%rbp), %esi
	movl	-32(%rbp), %ecx
                                        # kill: def $cl killed $ecx
	shll	%cl, %esi
	subl	-88(%rbp), %esi
	movslq	%esi, %rcx
	movl	(%rdx,%rcx,4), %edx
	movq	mvbits, %rsi
	movl	-16(%rbp), %edi
	movl	-32(%rbp), %ecx
                                        # kill: def $cl killed $ecx
	shll	%cl, %edi
	subl	-84(%rbp), %edi
	movslq	%edi, %rcx
	addl	(%rsi,%rcx,4), %edx
	imull	%edx, %eax
	sarl	$16, %eax
	movl	%eax, -20(%rbp)
	movq	-128(%rbp), %rdi
	movq	-120(%rbp), %rsi
	movq	-112(%rbp), %rdx
	movl	-80(%rbp), %ecx
	movl	-60(%rbp), %r8d
	movl	-92(%rbp), %r9d
	movl	-20(%rbp), %eax
	movl	56(%rbp), %ebx
	movl	-12(%rbp), %r10d
	movl	-16(%rbp), %r11d
	movl	%eax, (%rsp)
	movl	%ebx, 8(%rsp)
	movl	%r10d, 16(%rsp)
	movl	%r11d, 24(%rsp)
	callq	PartCalMad
	movl	%eax, -20(%rbp)
	movl	-20(%rbp), %eax
	movq	McostState, %rcx
	movl	-16(%rbp), %edx
	subl	-24(%rbp), %edx
	addl	48(%rbp), %edx
	movslq	%edx, %rdx
	movq	(%rcx,%rdx,8), %rcx
	movl	-12(%rbp), %edx
	subl	-28(%rbp), %edx
	addl	48(%rbp), %edx
	movslq	%edx, %rdx
	movl	%eax, (%rcx,%rdx,4)
	movl	-20(%rbp), %eax
	cmpl	56(%rbp), %eax
	jge	.LBB28_179
# %bb.178:                              # %if.then885
                                        #   in Loop: Header=BB28_173 Depth=1
	movl	-12(%rbp), %eax
	movl	%eax, -44(%rbp)
	movl	-16(%rbp), %eax
	movl	%eax, -40(%rbp)
	movl	-20(%rbp), %eax
	movl	%eax, 56(%rbp)
.LBB28_179:                             # %if.end886
                                        #   in Loop: Header=BB28_173 Depth=1
	jmp	.LBB28_180
.LBB28_180:                             # %if.end887
                                        #   in Loop: Header=BB28_173 Depth=1
	jmp	.LBB28_181
.LBB28_181:                             # %if.end888
                                        #   in Loop: Header=BB28_173 Depth=1
	movl	-68(%rbp), %eax
	movl	%eax, -12(%rbp)
	movl	-64(%rbp), %eax
	subl	-140(%rbp), %eax
	movl	%eax, -16(%rbp)
	movl	-12(%rbp), %edi
	subl	-28(%rbp), %edi
	callq	abs
	cmpl	48(%rbp), %eax
	jg	.LBB28_188
# %bb.182:                              # %land.lhs.true894
                                        #   in Loop: Header=BB28_173 Depth=1
	movl	-16(%rbp), %edi
	subl	-24(%rbp), %edi
	callq	abs
	cmpl	48(%rbp), %eax
	jg	.LBB28_188
# %bb.183:                              # %if.then899
                                        #   in Loop: Header=BB28_173 Depth=1
	movq	McostState, %rax
	movl	-16(%rbp), %ecx
	subl	-24(%rbp), %ecx
	addl	48(%rbp), %ecx
	movslq	%ecx, %rcx
	movq	(%rax,%rcx,8), %rax
	movl	-12(%rbp), %ecx
	subl	-28(%rbp), %ecx
	addl	48(%rbp), %ecx
	movslq	%ecx, %rcx
	cmpl	$0, (%rax,%rcx,4)
	jne	.LBB28_187
# %bb.184:                              # %if.then909
                                        #   in Loop: Header=BB28_173 Depth=1
	movl	-96(%rbp), %eax
	movq	mvbits, %rdx
	movl	-12(%rbp), %esi
	movl	-32(%rbp), %ecx
                                        # kill: def $cl killed $ecx
	shll	%cl, %esi
	subl	-88(%rbp), %esi
	movslq	%esi, %rcx
	movl	(%rdx,%rcx,4), %edx
	movq	mvbits, %rsi
	movl	-16(%rbp), %edi
	movl	-32(%rbp), %ecx
                                        # kill: def $cl killed $ecx
	shll	%cl, %edi
	subl	-84(%rbp), %edi
	movslq	%edi, %rcx
	addl	(%rsi,%rcx,4), %edx
	imull	%edx, %eax
	sarl	$16, %eax
	movl	%eax, -20(%rbp)
	movq	-128(%rbp), %rdi
	movq	-120(%rbp), %rsi
	movq	-112(%rbp), %rdx
	movl	-80(%rbp), %ecx
	movl	-60(%rbp), %r8d
	movl	-92(%rbp), %r9d
	movl	-20(%rbp), %eax
	movl	56(%rbp), %ebx
	movl	-12(%rbp), %r10d
	movl	-16(%rbp), %r11d
	movl	%eax, (%rsp)
	movl	%ebx, 8(%rsp)
	movl	%r10d, 16(%rsp)
	movl	%r11d, 24(%rsp)
	callq	PartCalMad
	movl	%eax, -20(%rbp)
	movl	-20(%rbp), %eax
	movq	McostState, %rcx
	movl	-16(%rbp), %edx
	subl	-24(%rbp), %edx
	addl	48(%rbp), %edx
	movslq	%edx, %rdx
	movq	(%rcx,%rdx,8), %rcx
	movl	-12(%rbp), %edx
	subl	-28(%rbp), %edx
	addl	48(%rbp), %edx
	movslq	%edx, %rdx
	movl	%eax, (%rcx,%rdx,4)
	movl	-20(%rbp), %eax
	cmpl	56(%rbp), %eax
	jge	.LBB28_186
# %bb.185:                              # %if.then932
                                        #   in Loop: Header=BB28_173 Depth=1
	movl	-12(%rbp), %eax
	movl	%eax, -44(%rbp)
	movl	-16(%rbp), %eax
	movl	%eax, -40(%rbp)
	movl	-20(%rbp), %eax
	movl	%eax, 56(%rbp)
.LBB28_186:                             # %if.end933
                                        #   in Loop: Header=BB28_173 Depth=1
	jmp	.LBB28_187
.LBB28_187:                             # %if.end934
                                        #   in Loop: Header=BB28_173 Depth=1
	jmp	.LBB28_188
.LBB28_188:                             # %if.end935
                                        #   in Loop: Header=BB28_173 Depth=1
	jmp	.LBB28_189
.LBB28_189:                             # %for.inc936
                                        #   in Loop: Header=BB28_173 Depth=1
	movl	-52(%rbp), %eax
	addl	$1, %eax
	movl	%eax, -52(%rbp)
	jmp	.LBB28_173
.LBB28_190:                             # %for.end938
	movswl	-46(%rbp), %eax
	cmpl	$0, %eax
	jle	.LBB28_197
# %bb.191:                              # %if.then942
	movl	56(%rbp), %eax
	subl	pred_SAD_ref, %eax
	vcvtsi2ss	%eax, %xmm0, %xmm0
	vcvtsi2ssl	pred_SAD_ref, %xmm0, %xmm1
	vmulss	-72(%rbp), %xmm1, %xmm1
	vucomiss	%xmm0, %xmm1
	jbe	.LBB28_193
# %bb.192:                              # %if.then949
	jmp	.LBB28_301
.LBB28_193:                             # %if.else950
	movl	56(%rbp), %eax
	subl	pred_SAD_ref, %eax
	vcvtsi2ss	%eax, %xmm0, %xmm0
	vcvtsi2ssl	pred_SAD_ref, %xmm0, %xmm1
	vmulss	-76(%rbp), %xmm1, %xmm1
	vucomiss	%xmm0, %xmm1
	jbe	.LBB28_195
# %bb.194:                              # %if.then957
	jmp	.LBB28_282
.LBB28_195:                             # %if.end958
	jmp	.LBB28_196
.LBB28_196:                             # %if.end959
	jmp	.LBB28_211
.LBB28_197:                             # %if.else960
	cmpl	$1, -56(%rbp)
	jle	.LBB28_204
# %bb.198:                              # %if.then963
	movl	56(%rbp), %eax
	subl	pred_SAD_uplayer, %eax
	vcvtsi2ss	%eax, %xmm0, %xmm0
	vcvtsi2ssl	pred_SAD_uplayer, %xmm0, %xmm1
	vmulss	-72(%rbp), %xmm1, %xmm1
	vucomiss	%xmm0, %xmm1
	jbe	.LBB28_200
# %bb.199:                              # %if.then970
	jmp	.LBB28_301
.LBB28_200:                             # %if.else971
	movl	56(%rbp), %eax
	subl	pred_SAD_uplayer, %eax
	vcvtsi2ss	%eax, %xmm0, %xmm0
	vcvtsi2ssl	pred_SAD_uplayer, %xmm0, %xmm1
	vmulss	-76(%rbp), %xmm1, %xmm1
	vucomiss	%xmm0, %xmm1
	jbe	.LBB28_202
# %bb.201:                              # %if.then978
	jmp	.LBB28_282
.LBB28_202:                             # %if.end979
	jmp	.LBB28_203
.LBB28_203:                             # %if.end980
	jmp	.LBB28_210
.LBB28_204:                             # %if.else981
	movl	56(%rbp), %eax
	subl	pred_SAD_space, %eax
	vcvtsi2ss	%eax, %xmm0, %xmm0
	vcvtsi2ssl	pred_SAD_space, %xmm0, %xmm1
	vmulss	-72(%rbp), %xmm1, %xmm1
	vucomiss	%xmm0, %xmm1
	jbe	.LBB28_206
# %bb.205:                              # %if.then988
	jmp	.LBB28_301
.LBB28_206:                             # %if.else989
	movl	56(%rbp), %eax
	subl	pred_SAD_space, %eax
	vcvtsi2ss	%eax, %xmm0, %xmm0
	vcvtsi2ssl	pred_SAD_space, %xmm0, %xmm1
	vmulss	-76(%rbp), %xmm1, %xmm1
	vucomiss	%xmm0, %xmm1
	jbe	.LBB28_208
# %bb.207:                              # %if.then996
	jmp	.LBB28_282
.LBB28_208:                             # %if.end997
	jmp	.LBB28_209
.LBB28_209:                             # %if.end998
	jmp	.LBB28_210
.LBB28_210:                             # %if.end999
	jmp	.LBB28_211
.LBB28_211:                             # %if.end1000
	movl	-44(%rbp), %eax
	movl	%eax, -68(%rbp)
	movl	-40(%rbp), %eax
	movl	%eax, -64(%rbp)
	movl	$1, -144(%rbp)
.LBB28_212:                             # %for.cond1001
                                        # =>This Inner Loop Header: Depth=1
	cmpl	$25, -144(%rbp)
	jge	.LBB28_222
# %bb.213:                              # %for.body1004
                                        #   in Loop: Header=BB28_212 Depth=1
	movl	-68(%rbp), %eax
	movq	spiral_search_x, %rcx
	movslq	-144(%rbp), %rdx
	addl	(%rcx,%rdx,4), %eax
	movl	%eax, -12(%rbp)
	movl	-64(%rbp), %eax
	movq	spiral_search_y, %rcx
	movslq	-144(%rbp), %rdx
	addl	(%rcx,%rdx,4), %eax
	movl	%eax, -16(%rbp)
	movl	-12(%rbp), %edi
	subl	-28(%rbp), %edi
	callq	abs
	cmpl	48(%rbp), %eax
	jg	.LBB28_220
# %bb.214:                              # %land.lhs.true1015
                                        #   in Loop: Header=BB28_212 Depth=1
	movl	-16(%rbp), %edi
	subl	-24(%rbp), %edi
	callq	abs
	cmpl	48(%rbp), %eax
	jg	.LBB28_220
# %bb.215:                              # %if.then1020
                                        #   in Loop: Header=BB28_212 Depth=1
	movq	McostState, %rax
	movl	-16(%rbp), %ecx
	subl	-24(%rbp), %ecx
	addl	48(%rbp), %ecx
	movslq	%ecx, %rcx
	movq	(%rax,%rcx,8), %rax
	movl	-12(%rbp), %ecx
	subl	-28(%rbp), %ecx
	addl	48(%rbp), %ecx
	movslq	%ecx, %rcx
	cmpl	$0, (%rax,%rcx,4)
	jne	.LBB28_219
# %bb.216:                              # %if.then1030
                                        #   in Loop: Header=BB28_212 Depth=1
	movl	-96(%rbp), %eax
	movq	mvbits, %rdx
	movl	-12(%rbp), %esi
	movl	-32(%rbp), %ecx
                                        # kill: def $cl killed $ecx
	shll	%cl, %esi
	subl	-88(%rbp), %esi
	movslq	%esi, %rcx
	movl	(%rdx,%rcx,4), %edx
	movq	mvbits, %rsi
	movl	-16(%rbp), %edi
	movl	-32(%rbp), %ecx
                                        # kill: def $cl killed $ecx
	shll	%cl, %edi
	subl	-84(%rbp), %edi
	movslq	%edi, %rcx
	addl	(%rsi,%rcx,4), %edx
	imull	%edx, %eax
	sarl	$16, %eax
	movl	%eax, -20(%rbp)
	movq	-128(%rbp), %rdi
	movq	-120(%rbp), %rsi
	movq	-112(%rbp), %rdx
	movl	-80(%rbp), %ecx
	movl	-60(%rbp), %r8d
	movl	-92(%rbp), %r9d
	movl	-20(%rbp), %eax
	movl	56(%rbp), %ebx
	movl	-12(%rbp), %r10d
	movl	-16(%rbp), %r11d
	movl	%eax, (%rsp)
	movl	%ebx, 8(%rsp)
	movl	%r10d, 16(%rsp)
	movl	%r11d, 24(%rsp)
	callq	PartCalMad
	movl	%eax, -20(%rbp)
	movl	-20(%rbp), %eax
	movq	McostState, %rcx
	movl	-16(%rbp), %edx
	subl	-24(%rbp), %edx
	addl	48(%rbp), %edx
	movslq	%edx, %rdx
	movq	(%rcx,%rdx,8), %rcx
	movl	-12(%rbp), %edx
	subl	-28(%rbp), %edx
	addl	48(%rbp), %edx
	movslq	%edx, %rdx
	movl	%eax, (%rcx,%rdx,4)
	movl	-20(%rbp), %eax
	cmpl	56(%rbp), %eax
	jge	.LBB28_218
# %bb.217:                              # %if.then1053
                                        #   in Loop: Header=BB28_212 Depth=1
	movl	-12(%rbp), %eax
	movl	%eax, -44(%rbp)
	movl	-16(%rbp), %eax
	movl	%eax, -40(%rbp)
	movl	-20(%rbp), %eax
	movl	%eax, 56(%rbp)
.LBB28_218:                             # %if.end1054
                                        #   in Loop: Header=BB28_212 Depth=1
	jmp	.LBB28_219
.LBB28_219:                             # %if.end1055
                                        #   in Loop: Header=BB28_212 Depth=1
	jmp	.LBB28_220
.LBB28_220:                             # %if.end1056
                                        #   in Loop: Header=BB28_212 Depth=1
	jmp	.LBB28_221
.LBB28_221:                             # %for.inc1057
                                        #   in Loop: Header=BB28_212 Depth=1
	movl	-144(%rbp), %eax
	addl	$1, %eax
	movl	%eax, -144(%rbp)
	jmp	.LBB28_212
.LBB28_222:                             # %for.end1059
	movswl	-46(%rbp), %eax
	cmpl	$0, %eax
	jle	.LBB28_229
# %bb.223:                              # %if.then1063
	movl	56(%rbp), %eax
	subl	pred_SAD_ref, %eax
	vcvtsi2ss	%eax, %xmm0, %xmm0
	vcvtsi2ssl	pred_SAD_ref, %xmm0, %xmm1
	vmulss	-72(%rbp), %xmm1, %xmm1
	vucomiss	%xmm0, %xmm1
	jbe	.LBB28_225
# %bb.224:                              # %if.then1070
	jmp	.LBB28_301
.LBB28_225:                             # %if.else1071
	movl	56(%rbp), %eax
	subl	pred_SAD_ref, %eax
	vcvtsi2ss	%eax, %xmm0, %xmm0
	vcvtsi2ssl	pred_SAD_ref, %xmm0, %xmm1
	vmulss	-76(%rbp), %xmm1, %xmm1
	vucomiss	%xmm0, %xmm1
	jbe	.LBB28_227
# %bb.226:                              # %if.then1078
	jmp	.LBB28_282
.LBB28_227:                             # %if.end1079
	jmp	.LBB28_228
.LBB28_228:                             # %if.end1080
	jmp	.LBB28_243
.LBB28_229:                             # %if.else1081
	cmpl	$1, -56(%rbp)
	jle	.LBB28_236
# %bb.230:                              # %if.then1084
	movl	56(%rbp), %eax
	subl	pred_SAD_uplayer, %eax
	vcvtsi2ss	%eax, %xmm0, %xmm0
	vcvtsi2ssl	pred_SAD_uplayer, %xmm0, %xmm1
	vmulss	-72(%rbp), %xmm1, %xmm1
	vucomiss	%xmm0, %xmm1
	jbe	.LBB28_232
# %bb.231:                              # %if.then1091
	jmp	.LBB28_301
.LBB28_232:                             # %if.else1092
	movl	56(%rbp), %eax
	subl	pred_SAD_uplayer, %eax
	vcvtsi2ss	%eax, %xmm0, %xmm0
	vcvtsi2ssl	pred_SAD_uplayer, %xmm0, %xmm1
	vmulss	-76(%rbp), %xmm1, %xmm1
	vucomiss	%xmm0, %xmm1
	jbe	.LBB28_234
# %bb.233:                              # %if.then1099
	jmp	.LBB28_282
.LBB28_234:                             # %if.end1100
	jmp	.LBB28_235
.LBB28_235:                             # %if.end1101
	jmp	.LBB28_242
.LBB28_236:                             # %if.else1102
	movl	56(%rbp), %eax
	subl	pred_SAD_space, %eax
	vcvtsi2ss	%eax, %xmm0, %xmm0
	vcvtsi2ssl	pred_SAD_space, %xmm0, %xmm1
	vmulss	-72(%rbp), %xmm1, %xmm1
	vucomiss	%xmm0, %xmm1
	jbe	.LBB28_238
# %bb.237:                              # %if.then1109
	jmp	.LBB28_301
.LBB28_238:                             # %if.else1110
	movl	56(%rbp), %eax
	subl	pred_SAD_space, %eax
	vcvtsi2ss	%eax, %xmm0, %xmm0
	vcvtsi2ssl	pred_SAD_space, %xmm0, %xmm1
	vmulss	-76(%rbp), %xmm1, %xmm1
	vucomiss	%xmm0, %xmm1
	jbe	.LBB28_240
# %bb.239:                              # %if.then1117
	jmp	.LBB28_282
.LBB28_240:                             # %if.end1118
	jmp	.LBB28_241
.LBB28_241:                             # %if.end1119
	jmp	.LBB28_242
.LBB28_242:                             # %if.end1120
	jmp	.LBB28_243
.LBB28_243:                             # %if.end1121
	movl	$1, -52(%rbp)
.LBB28_244:                             # %for.cond1122
                                        # =>This Loop Header: Depth=1
                                        #     Child Loop BB28_246 Depth 2
	movl	-52(%rbp), %ecx
	movl	48(%rbp), %eax
	cltd
	movl	$4, %esi
	idivl	%esi
	cmpl	%eax, %ecx
	jg	.LBB28_281
# %bb.245:                              # %for.body1126
                                        #   in Loop: Header=BB28_244 Depth=1
	movl	$0, -132(%rbp)
	movl	$0, -36(%rbp)
.LBB28_246:                             # %for.cond1127
                                        #   Parent Loop BB28_244 Depth=1
                                        # =>  This Inner Loop Header: Depth=2
	cmpl	$16, -36(%rbp)
	jge	.LBB28_256
# %bb.247:                              # %for.body1130
                                        #   in Loop: Header=BB28_246 Depth=2
	movl	-68(%rbp), %eax
	movslq	-36(%rbp), %rcx
	movl	FastIntegerPelBlockMotionSearch.Big_Hexagon_x(,%rcx,4), %ecx
	imull	-52(%rbp), %ecx
	addl	%ecx, %eax
	movl	%eax, -12(%rbp)
	movl	-64(%rbp), %eax
	movslq	-36(%rbp), %rcx
	movl	FastIntegerPelBlockMotionSearch.Big_Hexagon_y(,%rcx,4), %ecx
	imull	-52(%rbp), %ecx
	addl	%ecx, %eax
	movl	%eax, -16(%rbp)
	movl	-12(%rbp), %edi
	subl	-28(%rbp), %edi
	callq	abs
	cmpl	48(%rbp), %eax
	jg	.LBB28_254
# %bb.248:                              # %land.lhs.true1143
                                        #   in Loop: Header=BB28_246 Depth=2
	movl	-16(%rbp), %edi
	subl	-24(%rbp), %edi
	callq	abs
	cmpl	48(%rbp), %eax
	jg	.LBB28_254
# %bb.249:                              # %if.then1148
                                        #   in Loop: Header=BB28_246 Depth=2
	movq	McostState, %rax
	movl	-16(%rbp), %ecx
	subl	-24(%rbp), %ecx
	addl	48(%rbp), %ecx
	movslq	%ecx, %rcx
	movq	(%rax,%rcx,8), %rax
	movl	-12(%rbp), %ecx
	subl	-28(%rbp), %ecx
	addl	48(%rbp), %ecx
	movslq	%ecx, %rcx
	cmpl	$0, (%rax,%rcx,4)
	jne	.LBB28_253
# %bb.250:                              # %if.then1158
                                        #   in Loop: Header=BB28_246 Depth=2
	movl	-96(%rbp), %eax
	movq	mvbits, %rdx
	movl	-12(%rbp), %esi
	movl	-32(%rbp), %ecx
                                        # kill: def $cl killed $ecx
	shll	%cl, %esi
	subl	-88(%rbp), %esi
	movslq	%esi, %rcx
	movl	(%rdx,%rcx,4), %edx
	movq	mvbits, %rsi
	movl	-16(%rbp), %edi
	movl	-32(%rbp), %ecx
                                        # kill: def $cl killed $ecx
	shll	%cl, %edi
	subl	-84(%rbp), %edi
	movslq	%edi, %rcx
	addl	(%rsi,%rcx,4), %edx
	imull	%edx, %eax
	sarl	$16, %eax
	movl	%eax, -20(%rbp)
	movq	-128(%rbp), %rdi
	movq	-120(%rbp), %rsi
	movq	-112(%rbp), %rdx
	movl	-80(%rbp), %ecx
	movl	-60(%rbp), %r8d
	movl	-92(%rbp), %r9d
	movl	-20(%rbp), %eax
	movl	56(%rbp), %ebx
	movl	-12(%rbp), %r10d
	movl	-16(%rbp), %r11d
	movl	%eax, (%rsp)
	movl	%ebx, 8(%rsp)
	movl	%r10d, 16(%rsp)
	movl	%r11d, 24(%rsp)
	callq	PartCalMad
	movl	%eax, -20(%rbp)
	movl	-20(%rbp), %eax
	movq	McostState, %rcx
	movl	-16(%rbp), %edx
	subl	-24(%rbp), %edx
	addl	48(%rbp), %edx
	movslq	%edx, %rdx
	movq	(%rcx,%rdx,8), %rcx
	movl	-12(%rbp), %edx
	subl	-28(%rbp), %edx
	addl	48(%rbp), %edx
	movslq	%edx, %rdx
	movl	%eax, (%rcx,%rdx,4)
	movl	-20(%rbp), %eax
	cmpl	56(%rbp), %eax
	jge	.LBB28_252
# %bb.251:                              # %if.then1181
                                        #   in Loop: Header=BB28_246 Depth=2
	movl	-12(%rbp), %eax
	movl	%eax, -44(%rbp)
	movl	-16(%rbp), %eax
	movl	%eax, -40(%rbp)
	movl	-20(%rbp), %eax
	movl	%eax, 56(%rbp)
	movl	$1, -132(%rbp)
.LBB28_252:                             # %if.end1182
                                        #   in Loop: Header=BB28_246 Depth=2
	jmp	.LBB28_253
.LBB28_253:                             # %if.end1183
                                        #   in Loop: Header=BB28_246 Depth=2
	jmp	.LBB28_254
.LBB28_254:                             # %if.end1184
                                        #   in Loop: Header=BB28_246 Depth=2
	jmp	.LBB28_255
.LBB28_255:                             # %for.inc1185
                                        #   in Loop: Header=BB28_246 Depth=2
	movl	-36(%rbp), %eax
	addl	$1, %eax
	movl	%eax, -36(%rbp)
	jmp	.LBB28_246
.LBB28_256:                             # %for.end1187
                                        #   in Loop: Header=BB28_244 Depth=1
	cmpl	$0, -132(%rbp)
	je	.LBB28_279
# %bb.257:                              # %if.then1189
                                        #   in Loop: Header=BB28_244 Depth=1
	movswl	-46(%rbp), %eax
	cmpl	$0, %eax
	jle	.LBB28_264
# %bb.258:                              # %if.then1193
                                        #   in Loop: Header=BB28_244 Depth=1
	movl	56(%rbp), %eax
	subl	pred_SAD_ref, %eax
	vcvtsi2ss	%eax, %xmm0, %xmm0
	vcvtsi2ssl	pred_SAD_ref, %xmm0, %xmm1
	vmulss	-72(%rbp), %xmm1, %xmm1
	vucomiss	%xmm0, %xmm1
	jbe	.LBB28_260
# %bb.259:                              # %if.then1200
	jmp	.LBB28_301
.LBB28_260:                             # %if.else1201
                                        #   in Loop: Header=BB28_244 Depth=1
	movl	56(%rbp), %eax
	subl	pred_SAD_ref, %eax
	vcvtsi2ss	%eax, %xmm0, %xmm0
	vcvtsi2ssl	pred_SAD_ref, %xmm0, %xmm1
	vmulss	-76(%rbp), %xmm1, %xmm1
	vucomiss	%xmm0, %xmm1
	jbe	.LBB28_262
# %bb.261:                              # %if.then1208
	jmp	.LBB28_282
.LBB28_262:                             # %if.end1209
                                        #   in Loop: Header=BB28_244 Depth=1
	jmp	.LBB28_263
.LBB28_263:                             # %if.end1210
                                        #   in Loop: Header=BB28_244 Depth=1
	jmp	.LBB28_278
.LBB28_264:                             # %if.else1211
                                        #   in Loop: Header=BB28_244 Depth=1
	cmpl	$1, -56(%rbp)
	jle	.LBB28_271
# %bb.265:                              # %if.then1214
                                        #   in Loop: Header=BB28_244 Depth=1
	movl	56(%rbp), %eax
	subl	pred_SAD_uplayer, %eax
	vcvtsi2ss	%eax, %xmm0, %xmm0
	vcvtsi2ssl	pred_SAD_uplayer, %xmm0, %xmm1
	vmulss	-72(%rbp), %xmm1, %xmm1
	vucomiss	%xmm0, %xmm1
	jbe	.LBB28_267
# %bb.266:                              # %if.then1221
	jmp	.LBB28_301
.LBB28_267:                             # %if.else1222
                                        #   in Loop: Header=BB28_244 Depth=1
	movl	56(%rbp), %eax
	subl	pred_SAD_uplayer, %eax
	vcvtsi2ss	%eax, %xmm0, %xmm0
	vcvtsi2ssl	pred_SAD_uplayer, %xmm0, %xmm1
	vmulss	-76(%rbp), %xmm1, %xmm1
	vucomiss	%xmm0, %xmm1
	jbe	.LBB28_269
# %bb.268:                              # %if.then1229
	jmp	.LBB28_282
.LBB28_269:                             # %if.end1230
                                        #   in Loop: Header=BB28_244 Depth=1
	jmp	.LBB28_270
.LBB28_270:                             # %if.end1231
                                        #   in Loop: Header=BB28_244 Depth=1
	jmp	.LBB28_277
.LBB28_271:                             # %if.else1232
                                        #   in Loop: Header=BB28_244 Depth=1
	movl	56(%rbp), %eax
	subl	pred_SAD_space, %eax
	vcvtsi2ss	%eax, %xmm0, %xmm0
	vcvtsi2ssl	pred_SAD_space, %xmm0, %xmm1
	vmulss	-72(%rbp), %xmm1, %xmm1
	vucomiss	%xmm0, %xmm1
	jbe	.LBB28_273
# %bb.272:                              # %if.then1239
	jmp	.LBB28_301
.LBB28_273:                             # %if.else1240
                                        #   in Loop: Header=BB28_244 Depth=1
	movl	56(%rbp), %eax
	subl	pred_SAD_space, %eax
	vcvtsi2ss	%eax, %xmm0, %xmm0
	vcvtsi2ssl	pred_SAD_space, %xmm0, %xmm1
	vmulss	-76(%rbp), %xmm1, %xmm1
	vucomiss	%xmm0, %xmm1
	jbe	.LBB28_275
# %bb.274:                              # %if.then1247
	jmp	.LBB28_282
.LBB28_275:                             # %if.end1248
                                        #   in Loop: Header=BB28_244 Depth=1
	jmp	.LBB28_276
.LBB28_276:                             # %if.end1249
                                        #   in Loop: Header=BB28_244 Depth=1
	jmp	.LBB28_277
.LBB28_277:                             # %if.end1250
                                        #   in Loop: Header=BB28_244 Depth=1
	jmp	.LBB28_278
.LBB28_278:                             # %if.end1251
                                        #   in Loop: Header=BB28_244 Depth=1
	jmp	.LBB28_279
.LBB28_279:                             # %if.end1252
                                        #   in Loop: Header=BB28_244 Depth=1
	jmp	.LBB28_280
.LBB28_280:                             # %for.inc1253
                                        #   in Loop: Header=BB28_244 Depth=1
	movl	-52(%rbp), %eax
	addl	$1, %eax
	movl	%eax, -52(%rbp)
	jmp	.LBB28_244
.LBB28_281:                             # %for.end1255
	jmp	.LBB28_282
.LBB28_282:                             # %sec_step
	movl	-44(%rbp), %eax
	movl	%eax, -68(%rbp)
	movl	-40(%rbp), %eax
	movl	%eax, -64(%rbp)
	movl	$0, -52(%rbp)
.LBB28_283:                             # %for.cond1256
                                        # =>This Loop Header: Depth=1
                                        #     Child Loop BB28_285 Depth 2
	movl	-52(%rbp), %eax
	cmpl	48(%rbp), %eax
	jge	.LBB28_299
# %bb.284:                              # %for.body1259
                                        #   in Loop: Header=BB28_283 Depth=1
	movl	$1, -132(%rbp)
	movl	$0, -36(%rbp)
.LBB28_285:                             # %for.cond1260
                                        #   Parent Loop BB28_283 Depth=1
                                        # =>  This Inner Loop Header: Depth=2
	cmpl	$6, -36(%rbp)
	jge	.LBB28_295
# %bb.286:                              # %for.body1263
                                        #   in Loop: Header=BB28_285 Depth=2
	movl	-68(%rbp), %eax
	movslq	-36(%rbp), %rcx
	addl	FastIntegerPelBlockMotionSearch.Hexagon_x(,%rcx,4), %eax
	movl	%eax, -12(%rbp)
	movl	-64(%rbp), %eax
	movslq	-36(%rbp), %rcx
	addl	FastIntegerPelBlockMotionSearch.Hexagon_y(,%rcx,4), %eax
	movl	%eax, -16(%rbp)
	movl	-12(%rbp), %edi
	subl	-28(%rbp), %edi
	callq	abs
	cmpl	48(%rbp), %eax
	jg	.LBB28_293
# %bb.287:                              # %land.lhs.true1274
                                        #   in Loop: Header=BB28_285 Depth=2
	movl	-16(%rbp), %edi
	subl	-24(%rbp), %edi
	callq	abs
	cmpl	48(%rbp), %eax
	jg	.LBB28_293
# %bb.288:                              # %if.then1279
                                        #   in Loop: Header=BB28_285 Depth=2
	movq	McostState, %rax
	movl	-16(%rbp), %ecx
	subl	-24(%rbp), %ecx
	addl	48(%rbp), %ecx
	movslq	%ecx, %rcx
	movq	(%rax,%rcx,8), %rax
	movl	-12(%rbp), %ecx
	subl	-28(%rbp), %ecx
	addl	48(%rbp), %ecx
	movslq	%ecx, %rcx
	cmpl	$0, (%rax,%rcx,4)
	jne	.LBB28_292
# %bb.289:                              # %if.then1289
                                        #   in Loop: Header=BB28_285 Depth=2
	movl	-96(%rbp), %eax
	movq	mvbits, %rdx
	movl	-12(%rbp), %esi
	movl	-32(%rbp), %ecx
                                        # kill: def $cl killed $ecx
	shll	%cl, %esi
	subl	-88(%rbp), %esi
	movslq	%esi, %rcx
	movl	(%rdx,%rcx,4), %edx
	movq	mvbits, %rsi
	movl	-16(%rbp), %edi
	movl	-32(%rbp), %ecx
                                        # kill: def $cl killed $ecx
	shll	%cl, %edi
	subl	-84(%rbp), %edi
	movslq	%edi, %rcx
	addl	(%rsi,%rcx,4), %edx
	imull	%edx, %eax
	sarl	$16, %eax
	movl	%eax, -20(%rbp)
	movq	-128(%rbp), %rdi
	movq	-120(%rbp), %rsi
	movq	-112(%rbp), %rdx
	movl	-80(%rbp), %ecx
	movl	-60(%rbp), %r8d
	movl	-92(%rbp), %r9d
	movl	-20(%rbp), %eax
	movl	56(%rbp), %ebx
	movl	-12(%rbp), %r10d
	movl	-16(%rbp), %r11d
	movl	%eax, (%rsp)
	movl	%ebx, 8(%rsp)
	movl	%r10d, 16(%rsp)
	movl	%r11d, 24(%rsp)
	callq	PartCalMad
	movl	%eax, -20(%rbp)
	movl	-20(%rbp), %eax
	movq	McostState, %rcx
	movl	-16(%rbp), %edx
	subl	-24(%rbp), %edx
	addl	48(%rbp), %edx
	movslq	%edx, %rdx
	movq	(%rcx,%rdx,8), %rcx
	movl	-12(%rbp), %edx
	subl	-28(%rbp), %edx
	addl	48(%rbp), %edx
	movslq	%edx, %rdx
	movl	%eax, (%rcx,%rdx,4)
	movl	-20(%rbp), %eax
	cmpl	56(%rbp), %eax
	jge	.LBB28_291
# %bb.290:                              # %if.then1312
                                        #   in Loop: Header=BB28_285 Depth=2
	movl	-12(%rbp), %eax
	movl	%eax, -44(%rbp)
	movl	-16(%rbp), %eax
	movl	%eax, -40(%rbp)
	movl	-20(%rbp), %eax
	movl	%eax, 56(%rbp)
	movl	$0, -132(%rbp)
.LBB28_291:                             # %if.end1313
                                        #   in Loop: Header=BB28_285 Depth=2
	jmp	.LBB28_292
.LBB28_292:                             # %if.end1314
                                        #   in Loop: Header=BB28_285 Depth=2
	jmp	.LBB28_293
.LBB28_293:                             # %if.end1315
                                        #   in Loop: Header=BB28_285 Depth=2
	jmp	.LBB28_294
.LBB28_294:                             # %for.inc1316
                                        #   in Loop: Header=BB28_285 Depth=2
	movl	-36(%rbp), %eax
	addl	$1, %eax
	movl	%eax, -36(%rbp)
	jmp	.LBB28_285
.LBB28_295:                             # %for.end1318
                                        #   in Loop: Header=BB28_283 Depth=1
	cmpl	$0, -132(%rbp)
	je	.LBB28_297
# %bb.296:                              # %if.then1320
	jmp	.LBB28_300
.LBB28_297:                             # %if.end1321
                                        #   in Loop: Header=BB28_283 Depth=1
	movl	-44(%rbp), %eax
	movl	%eax, -68(%rbp)
	movl	-40(%rbp), %eax
	movl	%eax, -64(%rbp)
# %bb.298:                              # %for.inc1322
                                        #   in Loop: Header=BB28_283 Depth=1
	movl	-52(%rbp), %eax
	addl	$1, %eax
	movl	%eax, -52(%rbp)
	jmp	.LBB28_283
.LBB28_299:                             # %for.end1324.loopexit
	jmp	.LBB28_300
.LBB28_300:                             # %for.end1324
	jmp	.LBB28_301
.LBB28_301:                             # %third_step
	movl	-44(%rbp), %eax
	movl	%eax, -68(%rbp)
	movl	-40(%rbp), %eax
	movl	%eax, -64(%rbp)
	movl	$0, -52(%rbp)
.LBB28_302:                             # %for.cond1325
                                        # =>This Loop Header: Depth=1
                                        #     Child Loop BB28_304 Depth 2
	movl	-52(%rbp), %eax
	cmpl	48(%rbp), %eax
	jge	.LBB28_318
# %bb.303:                              # %for.body1328
                                        #   in Loop: Header=BB28_302 Depth=1
	movl	$65536, -172(%rbp)      # imm = 0x10000
	movl	$1, -132(%rbp)
	movl	$0, -36(%rbp)
.LBB28_304:                             # %for.cond1329
                                        #   Parent Loop BB28_302 Depth=1
                                        # =>  This Inner Loop Header: Depth=2
	cmpl	$4, -36(%rbp)
	jge	.LBB28_314
# %bb.305:                              # %for.body1332
                                        #   in Loop: Header=BB28_304 Depth=2
	movl	-68(%rbp), %eax
	movslq	-36(%rbp), %rcx
	addl	FastIntegerPelBlockMotionSearch.Diamond_x(,%rcx,4), %eax
	movl	%eax, -12(%rbp)
	movl	-64(%rbp), %eax
	movslq	-36(%rbp), %rcx
	addl	FastIntegerPelBlockMotionSearch.Diamond_y(,%rcx,4), %eax
	movl	%eax, -16(%rbp)
	movl	-12(%rbp), %edi
	subl	-28(%rbp), %edi
	callq	abs
	cmpl	48(%rbp), %eax
	jg	.LBB28_312
# %bb.306:                              # %land.lhs.true1343
                                        #   in Loop: Header=BB28_304 Depth=2
	movl	-16(%rbp), %edi
	subl	-24(%rbp), %edi
	callq	abs
	cmpl	48(%rbp), %eax
	jg	.LBB28_312
# %bb.307:                              # %if.then1348
                                        #   in Loop: Header=BB28_304 Depth=2
	movq	McostState, %rax
	movl	-16(%rbp), %ecx
	subl	-24(%rbp), %ecx
	addl	48(%rbp), %ecx
	movslq	%ecx, %rcx
	movq	(%rax,%rcx,8), %rax
	movl	-12(%rbp), %ecx
	subl	-28(%rbp), %ecx
	addl	48(%rbp), %ecx
	movslq	%ecx, %rcx
	cmpl	$0, (%rax,%rcx,4)
	jne	.LBB28_311
# %bb.308:                              # %if.then1358
                                        #   in Loop: Header=BB28_304 Depth=2
	movl	-96(%rbp), %eax
	movq	mvbits, %rdx
	movl	-12(%rbp), %esi
	movl	-32(%rbp), %ecx
                                        # kill: def $cl killed $ecx
	shll	%cl, %esi
	subl	-88(%rbp), %esi
	movslq	%esi, %rcx
	movl	(%rdx,%rcx,4), %edx
	movq	mvbits, %rsi
	movl	-16(%rbp), %edi
	movl	-32(%rbp), %ecx
                                        # kill: def $cl killed $ecx
	shll	%cl, %edi
	subl	-84(%rbp), %edi
	movslq	%edi, %rcx
	addl	(%rsi,%rcx,4), %edx
	imull	%edx, %eax
	sarl	$16, %eax
	movl	%eax, -20(%rbp)
	movq	-128(%rbp), %rdi
	movq	-120(%rbp), %rsi
	movq	-112(%rbp), %rdx
	movl	-80(%rbp), %ecx
	movl	-60(%rbp), %r8d
	movl	-92(%rbp), %r9d
	movl	-20(%rbp), %eax
	movl	56(%rbp), %ebx
	movl	-12(%rbp), %r10d
	movl	-16(%rbp), %r11d
	movl	%eax, (%rsp)
	movl	%ebx, 8(%rsp)
	movl	%r10d, 16(%rsp)
	movl	%r11d, 24(%rsp)
	callq	PartCalMad
	movl	%eax, -20(%rbp)
	movl	-20(%rbp), %eax
	movq	McostState, %rcx
	movl	-16(%rbp), %edx
	subl	-24(%rbp), %edx
	addl	48(%rbp), %edx
	movslq	%edx, %rdx
	movq	(%rcx,%rdx,8), %rcx
	movl	-12(%rbp), %edx
	subl	-28(%rbp), %edx
	addl	48(%rbp), %edx
	movslq	%edx, %rdx
	movl	%eax, (%rcx,%rdx,4)
	movl	-20(%rbp), %eax
	cmpl	56(%rbp), %eax
	jge	.LBB28_310
# %bb.309:                              # %if.then1381
                                        #   in Loop: Header=BB28_304 Depth=2
	movl	-12(%rbp), %eax
	movl	%eax, -44(%rbp)
	movl	-16(%rbp), %eax
	movl	%eax, -40(%rbp)
	movl	-20(%rbp), %eax
	movl	%eax, 56(%rbp)
	movl	$0, -132(%rbp)
.LBB28_310:                             # %if.end1382
                                        #   in Loop: Header=BB28_304 Depth=2
	jmp	.LBB28_311
.LBB28_311:                             # %if.end1383
                                        #   in Loop: Header=BB28_304 Depth=2
	jmp	.LBB28_312
.LBB28_312:                             # %if.end1384
                                        #   in Loop: Header=BB28_304 Depth=2
	jmp	.LBB28_313
.LBB28_313:                             # %for.inc1385
                                        #   in Loop: Header=BB28_304 Depth=2
	movl	-36(%rbp), %eax
	addl	$1, %eax
	movl	%eax, -36(%rbp)
	jmp	.LBB28_304
.LBB28_314:                             # %for.end1387
                                        #   in Loop: Header=BB28_302 Depth=1
	cmpl	$0, -132(%rbp)
	je	.LBB28_316
# %bb.315:                              # %if.then1389
	jmp	.LBB28_319
.LBB28_316:                             # %if.end1390
                                        #   in Loop: Header=BB28_302 Depth=1
	movl	-44(%rbp), %eax
	movl	%eax, -68(%rbp)
	movl	-40(%rbp), %eax
	movl	%eax, -64(%rbp)
# %bb.317:                              # %for.inc1391
                                        #   in Loop: Header=BB28_302 Depth=1
	movl	-52(%rbp), %eax
	addl	$1, %eax
	movl	%eax, -52(%rbp)
	jmp	.LBB28_302
.LBB28_318:                             # %for.end1393.loopexit
	jmp	.LBB28_319
.LBB28_319:                             # %for.end1393
	movl	-44(%rbp), %eax
	subl	-100(%rbp), %eax
	movq	32(%rbp), %rcx
	movw	%ax, (%rcx)
	movl	-40(%rbp), %eax
	subl	-104(%rbp), %eax
	movq	40(%rbp), %rcx
	movw	%ax, (%rcx)
	movl	56(%rbp), %ebx
	cmpl	$1185736335, -160(%rbp) # imm = 0x46ACE68F
	jne	.LBB28_321
.LBB28_320:
	movl	%ebx, %eax
	addq	$200, %rsp
	popq	%rbx
	popq	%rbp
	.cfi_def_cfa %rsp, 8
	retq
.LBB28_321:                             # %func_exit
	.cfi_def_cfa %rbp, 16
	callq	detect_breach
	jmp	.LBB28_320
.Lfunc_end28:
	.size	FastIntegerPelBlockMotionSearch.15, .Lfunc_end28-FastIntegerPelBlockMotionSearch.15
	.cfi_endproc
                                        # -- End function
	.globl	get_mem_mincost.16      # -- Begin function get_mem_mincost.16
	.p2align	4, 0x90
	.type	get_mem_mincost.16,@function
get_mem_mincost.16:                     # @get_mem_mincost.16
	.cfi_startproc
# %bb.0:                                # %entry
	pushq	%rbp
	.cfi_def_cfa_offset 16
	.cfi_offset %rbp, -16
	movq	%rsp, %rbp
	.cfi_def_cfa_register %rbp
	pushq	%rbx
	subq	$40, %rsp
	.cfi_offset %rbx, -24
	movl	$2133840682, -36(%rbp)  # imm = 0x7F2FD32A
	movq	%rdi, -32(%rbp)
	movq	img, %rax
	movl	52(%rax), %eax
	cltd
	movl	$4, %ecx
	idivl	%ecx
	movslq	%eax, %rdi
	movl	$8, %esi
	callq	calloc
	movq	-32(%rbp), %rcx
	movq	%rax, (%rcx)
	cmpq	$0, %rax
	jne	.LBB29_2
# %bb.1:                                # %if.then
	movabsq	$.L.str, %rdi
	callq	no_mem_exit
.LBB29_2:                               # %if.end
	movl	$0, -12(%rbp)
.LBB29_3:                               # %for.cond
                                        # =>This Loop Header: Depth=1
                                        #     Child Loop BB29_7 Depth 2
                                        #       Child Loop BB29_11 Depth 3
                                        #         Child Loop BB29_15 Depth 4
	movl	-12(%rbp), %ecx
	movq	img, %rax
	movl	52(%rax), %eax
	cltd
	movl	$4, %esi
	idivl	%esi
	cmpl	%eax, %ecx
	jge	.LBB29_26
# %bb.4:                                # %for.body
                                        #   in Loop: Header=BB29_3 Depth=1
	movq	img, %rax
	movl	60(%rax), %eax
	cltd
	movl	$4, %ecx
	idivl	%ecx
	movslq	%eax, %rdi
	movl	$8, %esi
	callq	calloc
	movq	-32(%rbp), %rcx
	movq	(%rcx), %rcx
	movslq	-12(%rbp), %rdx
	movq	%rax, (%rcx,%rdx,8)
	cmpq	$0, %rax
	jne	.LBB29_6
# %bb.5:                                # %if.then11
                                        #   in Loop: Header=BB29_3 Depth=1
	movabsq	$.L.str, %rdi
	callq	no_mem_exit
.LBB29_6:                               # %if.end12
                                        #   in Loop: Header=BB29_3 Depth=1
	movl	$0, -16(%rbp)
.LBB29_7:                               # %for.cond13
                                        #   Parent Loop BB29_3 Depth=1
                                        # =>  This Loop Header: Depth=2
                                        #       Child Loop BB29_11 Depth 3
                                        #         Child Loop BB29_15 Depth 4
	movl	-16(%rbp), %ecx
	movq	img, %rax
	movl	60(%rax), %eax
	cltd
	movl	$4, %esi
	idivl	%esi
	cmpl	%eax, %ecx
	jge	.LBB29_24
# %bb.8:                                # %for.body18
                                        #   in Loop: Header=BB29_7 Depth=2
	movq	img, %rax
	movslq	36(%rax), %rdi
	movl	$8, %esi
	callq	calloc
	movq	-32(%rbp), %rcx
	movq	(%rcx), %rcx
	movslq	-12(%rbp), %rdx
	movq	(%rcx,%rdx,8), %rcx
	movslq	-16(%rbp), %rdx
	movq	%rax, (%rcx,%rdx,8)
	cmpq	$0, %rax
	jne	.LBB29_10
# %bb.9:                                # %if.then27
                                        #   in Loop: Header=BB29_7 Depth=2
	movabsq	$.L.str, %rdi
	callq	no_mem_exit
.LBB29_10:                              # %if.end28
                                        #   in Loop: Header=BB29_7 Depth=2
	movl	$0, -20(%rbp)
.LBB29_11:                              # %for.cond29
                                        #   Parent Loop BB29_3 Depth=1
                                        #     Parent Loop BB29_7 Depth=2
                                        # =>    This Loop Header: Depth=3
                                        #         Child Loop BB29_15 Depth 4
	movl	-20(%rbp), %eax
	movq	img, %rcx
	cmpl	36(%rcx), %eax
	jge	.LBB29_22
# %bb.12:                               # %for.body33
                                        #   in Loop: Header=BB29_11 Depth=3
	movl	$9, %edi
	movl	$8, %esi
	callq	calloc
	movq	-32(%rbp), %rcx
	movq	(%rcx), %rcx
	movslq	-12(%rbp), %rdx
	movq	(%rcx,%rdx,8), %rcx
	movslq	-16(%rbp), %rdx
	movq	(%rcx,%rdx,8), %rcx
	movslq	-20(%rbp), %rdx
	movq	%rax, (%rcx,%rdx,8)
	cmpq	$0, %rax
	jne	.LBB29_14
# %bb.13:                               # %if.then43
                                        #   in Loop: Header=BB29_11 Depth=3
	movabsq	$.L.str, %rdi
	callq	no_mem_exit
.LBB29_14:                              # %if.end44
                                        #   in Loop: Header=BB29_11 Depth=3
	movl	$0, -24(%rbp)
.LBB29_15:                              # %for.cond45
                                        #   Parent Loop BB29_3 Depth=1
                                        #     Parent Loop BB29_7 Depth=2
                                        #       Parent Loop BB29_11 Depth=3
                                        # =>      This Inner Loop Header: Depth=4
	cmpl	$9, -24(%rbp)
	jge	.LBB29_20
# %bb.16:                               # %for.body48
                                        #   in Loop: Header=BB29_15 Depth=4
	movl	$3, %edi
	movl	$4, %esi
	callq	calloc
	movq	-32(%rbp), %rcx
	movq	(%rcx), %rcx
	movslq	-12(%rbp), %rdx
	movq	(%rcx,%rdx,8), %rcx
	movslq	-16(%rbp), %rdx
	movq	(%rcx,%rdx,8), %rcx
	movslq	-20(%rbp), %rdx
	movq	(%rcx,%rdx,8), %rcx
	movslq	-24(%rbp), %rdx
	movq	%rax, (%rcx,%rdx,8)
	cmpq	$0, %rax
	jne	.LBB29_18
# %bb.17:                               # %if.then60
                                        #   in Loop: Header=BB29_15 Depth=4
	movabsq	$.L.str, %rdi
	callq	no_mem_exit
.LBB29_18:                              # %if.end61
                                        #   in Loop: Header=BB29_15 Depth=4
	jmp	.LBB29_19
.LBB29_19:                              # %for.inc
                                        #   in Loop: Header=BB29_15 Depth=4
	movl	-24(%rbp), %eax
	addl	$1, %eax
	movl	%eax, -24(%rbp)
	jmp	.LBB29_15
.LBB29_20:                              # %for.end
                                        #   in Loop: Header=BB29_11 Depth=3
	jmp	.LBB29_21
.LBB29_21:                              # %for.inc62
                                        #   in Loop: Header=BB29_11 Depth=3
	movl	-20(%rbp), %eax
	addl	$1, %eax
	movl	%eax, -20(%rbp)
	jmp	.LBB29_11
.LBB29_22:                              # %for.end64
                                        #   in Loop: Header=BB29_7 Depth=2
	jmp	.LBB29_23
.LBB29_23:                              # %for.inc65
                                        #   in Loop: Header=BB29_7 Depth=2
	movl	-16(%rbp), %eax
	addl	$1, %eax
	movl	%eax, -16(%rbp)
	jmp	.LBB29_7
.LBB29_24:                              # %for.end67
                                        #   in Loop: Header=BB29_3 Depth=1
	jmp	.LBB29_25
.LBB29_25:                              # %for.inc68
                                        #   in Loop: Header=BB29_3 Depth=1
	movl	-12(%rbp), %eax
	addl	$1, %eax
	movl	%eax, -12(%rbp)
	jmp	.LBB29_3
.LBB29_26:                              # %for.end70
	movq	img, %rax
	movl	52(%rax), %eax
	cltd
	movl	$4, %ecx
	idivl	%ecx
	movq	img, %rdx
	imull	60(%rdx), %eax
	cltd
	idivl	%ecx
	movq	img, %rcx
	imull	36(%rcx), %eax
	imull	$9, %eax, %eax
	imull	$3, %eax, %eax
	movslq	%eax, %rbx
	shlq	$2, %rbx
	cmpl	$2133840682, -36(%rbp)  # imm = 0x7F2FD32A
	jne	.LBB29_28
.LBB29_27:
	movl	%ebx, %eax
	addq	$40, %rsp
	popq	%rbx
	popq	%rbp
	.cfi_def_cfa %rsp, 8
	retq
.LBB29_28:                              # %func_exit
	.cfi_def_cfa %rbp, 16
	callq	detect_breach
	jmp	.LBB29_27
.Lfunc_end29:
	.size	get_mem_mincost.16, .Lfunc_end29-get_mem_mincost.16
	.cfi_endproc
                                        # -- End function
	.section	.rodata.cst4,"aM",@progbits,4
	.p2align	2               # -- Begin function DefineThresholdMB.17
.LCPI30_0:
	.long	1082130432              # float 4
.LCPI30_1:
	.long	1132462080              # float 256
.LCPI30_2:
	.long	1102284063              # float 22.4400005
	.text
	.globl	DefineThresholdMB.17
	.p2align	4, 0x90
	.type	DefineThresholdMB.17,@function
DefineThresholdMB.17:                   # @DefineThresholdMB.17
	.cfi_startproc
# %bb.0:                                # %entry
	pushq	%rbp
	.cfi_def_cfa_offset 16
	.cfi_offset %rbp, -16
	movq	%rsp, %rbp
	.cfi_def_cfa_register %rbp
	subq	$32, %rsp
	movl	$2125982035, -24(%rbp)  # imm = 0x7EB7E953
	movq	input, %rax
	movl	16(%rax), %eax
	subl	$0, %eax
	cltd
	movl	$6, %ecx
	idivl	%ecx
	movl	%eax, -16(%rbp)
	movq	input, %rax
	movl	16(%rax), %eax
	subl	$0, %eax
	cltd
	idivl	%ecx
	movl	%edx, -12(%rbp)
	movl	-16(%rbp), %eax
	addl	$15, %eax
	movl	%eax, -4(%rbp)
	movq	img, %rax
	cmpl	$2, 24(%rax)
	jne	.LBB30_2
# %bb.1:                                # %if.then
	movl	-4(%rbp), %ecx
                                        # kill: def $cl killed $ecx
	movl	$1, %eax
	shll	%cl, %eax
	cltd
	movl	$3, %ecx
	idivl	%ecx
	movl	%eax, -8(%rbp)
	jmp	.LBB30_3
.LBB30_2:                               # %if.else
	movl	-4(%rbp), %ecx
                                        # kill: def $cl killed $ecx
	movl	$1, %eax
	shll	%cl, %eax
	cltd
	movl	$6, %ecx
	idivl	%ecx
	movl	%eax, -8(%rbp)
.LBB30_3:                               # %if.end
	vmovss	.LCPI30_0(%rip), %xmm0  # xmm0 = mem[0],zero,zero,zero
	vmovss	.LCPI30_1(%rip), %xmm1  # xmm1 = mem[0],zero,zero,zero
	vmovss	.LCPI30_2(%rip), %xmm2  # xmm2 = mem[0],zero,zero,zero
	movl	-4(%rbp), %ecx
                                        # kill: def $cl killed $ecx
	movl	$1, %eax
	shll	%cl, %eax
	subl	-8(%rbp), %eax
	movslq	-12(%rbp), %rcx
	shlq	$6, %rcx
	movabsq	$quant_coef, %rsi
	addq	%rcx, %rsi
	cltd
	idivl	(%rsi)
	movl	%eax, -20(%rbp)
	vcvtsi2ssl	-20(%rbp), %xmm0, %xmm3
	vdivss	%xmm2, %xmm3, %xmm2
	vmovss	%xmm2, Quantize_step
	vmulss	Quantize_step, %xmm1, %xmm1
	vmovss	%xmm1, Bsize+28
	vmulss	Bsize+28, %xmm0, %xmm1
	vmovss	%xmm1, Bsize+24
	vmulss	Bsize+28, %xmm0, %xmm1
	vmovss	%xmm1, Bsize+20
	vmulss	Bsize+20, %xmm0, %xmm1
	vmovss	%xmm1, Bsize+16
	vmulss	Bsize+16, %xmm0, %xmm1
	vmovss	%xmm1, Bsize+12
	vmulss	Bsize+16, %xmm0, %xmm1
	vmovss	%xmm1, Bsize+8
	vmulss	Bsize+8, %xmm0, %xmm0
	vmovss	%xmm0, Bsize+4
	cmpl	$2125982035, -24(%rbp)  # imm = 0x7EB7E953
	jne	.LBB30_5
.LBB30_4:
	addq	$32, %rsp
	popq	%rbp
	.cfi_def_cfa %rsp, 8
	retq
.LBB30_5:                               # %func_exit
	.cfi_def_cfa %rbp, 16
	callq	detect_breach
	jmp	.LBB30_4
.Lfunc_end30:
	.size	DefineThresholdMB.17, .Lfunc_end30-DefineThresholdMB.17
	.cfi_endproc
                                        # -- End function
	.section	.rodata.cst8,"aM",@progbits,8
	.p2align	3               # -- Begin function FastSubPelBlockMotionSearch.18
.LCPI31_0:
	.quad	4602678819172646912     # double 0.5
.LCPI31_1:
	.quad	4679240012837945344     # double 65536
	.text
	.globl	FastSubPelBlockMotionSearch.18
	.p2align	4, 0x90
	.type	FastSubPelBlockMotionSearch.18,@function
FastSubPelBlockMotionSearch.18:         # @FastSubPelBlockMotionSearch.18
	.cfi_startproc
# %bb.0:                                # %entry
	pushq	%rbp
	.cfi_def_cfa_offset 16
	.cfi_offset %rbp, -16
	movq	%rsp, %rbp
	.cfi_def_cfa_register %rbp
	pushq	%r14
	pushq	%rbx
	subq	$208, %rsp
	.cfi_offset %rbx, -32
	.cfi_offset %r14, -24
	movl	72(%rbp), %eax
	movl	64(%rbp), %eax
	movl	56(%rbp), %eax
	movl	48(%rbp), %eax
	movq	40(%rbp), %rax
	movq	32(%rbp), %rax
	movw	24(%rbp), %ax
	movw	16(%rbp), %ax
	movl	$1669071498, -152(%rbp) # imm = 0x637C028A
	movq	%rdi, -128(%rbp)
	movw	%si, -78(%rbp)
	movl	%edx, -136(%rbp)
	movl	%ecx, -60(%rbp)
	movl	%r8d, -68(%rbp)
	movl	%r9d, -120(%rbp)
	vmovsd	%xmm0, -160(%rbp)
	movq	img, %rax
	cmpl	$0, 72400(%rax)
	je	.LBB31_3
# %bb.1:                                # %land.lhs.true
	movq	img, %rax
	movq	14168(%rax), %rax
	movq	img, %rcx
	movslq	12(%rcx), %rcx
	imulq	$632, %rcx, %rcx        # imm = 0x278
	addq	%rcx, %rax
	cmpl	$0, 532(%rax)
	je	.LBB31_3
# %bb.2:                                # %cond.true
	movq	img, %rax
	movl	12(%rax), %eax
	cltd
	movl	$2, %ecx
	idivl	%ecx
	cmpl	$0, %edx
	movl	$4, %eax
	cmovnel	%eax, %ecx
	jmp	.LBB31_4
.LBB31_3:                               # %cond.false
	xorl	%ecx, %ecx
	jmp	.LBB31_4
.LBB31_4:                               # %cond.end
	vmovsd	.LCPI31_0(%rip), %xmm0  # xmm0 = mem[0],zero
	vmovsd	.LCPI31_1(%rip), %xmm1  # xmm1 = mem[0],zero
	movl	%ecx, -148(%rbp)
	movl	-136(%rbp), %eax
	addl	-148(%rbp), %eax
	cltq
	movq	listX(,%rax,8), %rax
	movswq	-78(%rbp), %rcx
	movq	(%rax,%rcx,8), %rax
	movq	%rax, -88(%rbp)
	vmulsd	-160(%rbp), %xmm1, %xmm1
	vaddsd	%xmm0, %xmm1, %xmm0
	vcvttsd2si	%xmm0, %eax
	movl	%eax, -72(%rbp)
	movl	$0, -44(%rbp)
	movq	input, %rax
	movslq	-120(%rbp), %rcx
	movl	80(%rax,%rcx,8), %eax
	movl	%eax, -56(%rbp)
	movq	input, %rax
	movslq	-120(%rbp), %rcx
	movl	84(%rax,%rcx,8), %eax
	movl	%eax, -64(%rbp)
	movl	-60(%rbp), %eax
	shll	$2, %eax
	movl	%eax, -104(%rbp)
	movl	-68(%rbp), %eax
	shll	$2, %eax
	movl	%eax, -96(%rbp)
	movq	-88(%rbp), %rax
	movl	6392(%rax), %eax
	subl	-56(%rbp), %eax
	addl	$1, %eax
	shll	$2, %eax
	movl	%eax, -140(%rbp)
	movq	-88(%rbp), %rax
	movl	6396(%rax), %eax
	subl	-64(%rbp), %eax
	addl	$1, %eax
	shll	$2, %eax
	movl	%eax, -144(%rbp)
	movl	$0, -36(%rbp)
	movl	$0, -40(%rbp)
	movq	32(%rbp), %rax
	movswl	(%rax), %ecx
	shll	$2, %ecx
	movw	%cx, (%rax)
	movq	40(%rbp), %rax
	movswl	(%rax), %ecx
	shll	$2, %ecx
	movw	%cx, (%rax)
	movl	-104(%rbp), %eax
	movq	32(%rbp), %rcx
	movswl	(%rcx), %ecx
	addl	%ecx, %eax
	cmpl	$1, %eax
	jle	.LBB31_9
# %bb.5:                                # %land.lhs.true32
	movl	-104(%rbp), %eax
	movq	32(%rbp), %rcx
	movswl	(%rcx), %ecx
	addl	%ecx, %eax
	movl	-140(%rbp), %ecx
	subl	$2, %ecx
	cmpl	%ecx, %eax
	jge	.LBB31_9
# %bb.6:                                # %land.lhs.true38
	movl	-96(%rbp), %eax
	movq	40(%rbp), %rcx
	movswl	(%rcx), %ecx
	addl	%ecx, %eax
	cmpl	$1, %eax
	jle	.LBB31_9
# %bb.7:                                # %land.lhs.true43
	movl	-96(%rbp), %eax
	movq	40(%rbp), %rcx
	movswl	(%rcx), %ecx
	addl	%ecx, %eax
	movl	-144(%rbp), %ecx
	subl	$2, %ecx
	cmpl	%ecx, %eax
	jge	.LBB31_9
# %bb.8:                                # %if.then
	movabsq	$FastPelY_14, %rax
	movq	%rax, PelY_14
	jmp	.LBB31_10
.LBB31_9:                               # %if.else
	movabsq	$UMVPelY_14, %rax
	movq	%rax, PelY_14
.LBB31_10:                              # %if.end
	movl	$3, -20(%rbp)
	movswl	16(%rbp), %eax
	movq	32(%rbp), %rcx
	movswl	(%rcx), %ecx
	subl	%ecx, %eax
	cltd
	movl	$4, %ecx
	idivl	%ecx
	movl	%edx, -100(%rbp)
	movswl	24(%rbp), %eax
	movq	40(%rbp), %rdx
	movswl	(%rdx), %edx
	subl	%edx, %eax
	cltd
	idivl	%ecx
	movl	%edx, -112(%rbp)
	movl	pred_MV_uplayer, %eax
	movq	32(%rbp), %rdx
	movswl	(%rdx), %edx
	subl	%edx, %eax
	cltd
	idivl	%ecx
	movl	%edx, -164(%rbp)
	movl	pred_MV_uplayer+4, %eax
	movq	40(%rbp), %rdx
	movswl	(%rdx), %edx
	subl	%edx, %eax
	cltd
	idivl	%ecx
	movl	%edx, -172(%rbp)
	movq	SearchState, %rax
	movq	(%rax), %rdi
	movl	-20(%rbp), %eax
	shll	$1, %eax
	addl	$1, %eax
	movl	-20(%rbp), %ecx
	shll	$1, %ecx
	addl	$1, %ecx
	imull	%ecx, %eax
	movslq	%eax, %rdx
	xorl	%esi, %esi
	callq	memset
	movq	input, %rax
	cmpl	$0, 24(%rax)
	je	.LBB31_14
# %bb.11:                               # %if.then71
	movq	32(%rbp), %rax
	movswl	(%rax), %eax
	movl	%eax, -24(%rbp)
	movq	40(%rbp), %rax
	movswl	(%rax), %eax
	movl	%eax, -28(%rbp)
	movl	-72(%rbp), %eax
	movq	mvbits, %rdx
	movl	-24(%rbp), %esi
	movl	-44(%rbp), %ecx
                                        # kill: def $cl killed $ecx
	shll	%cl, %esi
	movswl	16(%rbp), %ecx
	subl	%ecx, %esi
	movslq	%esi, %rcx
	movl	(%rdx,%rcx,4), %edx
	movq	mvbits, %rsi
	movl	-28(%rbp), %edi
	movl	-44(%rbp), %ecx
                                        # kill: def $cl killed $ecx
	shll	%cl, %edi
	movswl	24(%rbp), %ecx
	subl	%ecx, %edi
	movslq	%edi, %rcx
	addl	(%rsi,%rcx,4), %edx
	imull	%edx, %eax
	sarl	$16, %eax
	movl	%eax, -48(%rbp)
	movl	-60(%rbp), %edi
	movl	-68(%rbp), %esi
	movl	-56(%rbp), %edx
	movl	-64(%rbp), %ecx
	movl	-24(%rbp), %r8d
	movl	-28(%rbp), %r9d
	movq	-88(%rbp), %rax
	movq	-128(%rbp), %rbx
	movl	-48(%rbp), %r10d
	movl	64(%rbp), %r11d
	movl	72(%rbp), %r14d
	movq	%rax, (%rsp)
	movq	%rbx, 8(%rsp)
	movl	%r10d, 16(%rsp)
	movl	%r11d, 24(%rsp)
	movl	%r14d, 32(%rsp)
	callq	AddUpSADQuarter
	movl	%eax, -32(%rbp)
	movq	SearchState, %rax
	movslq	-20(%rbp), %rcx
	movq	(%rax,%rcx,8), %rax
	movslq	-20(%rbp), %rcx
	movb	$1, (%rax,%rcx)
	movl	-32(%rbp), %eax
	cmpl	64(%rbp), %eax
	jge	.LBB31_13
# %bb.12:                               # %if.then92
	movl	-32(%rbp), %eax
	movl	%eax, 64(%rbp)
	movl	-24(%rbp), %eax
	movl	%eax, -36(%rbp)
	movl	-28(%rbp), %eax
	movl	%eax, -40(%rbp)
.LBB31_13:                              # %if.end93
	jmp	.LBB31_15
.LBB31_14:                              # %if.else94
	movq	SearchState, %rax
	movslq	-20(%rbp), %rcx
	movq	(%rax,%rcx,8), %rax
	movslq	-20(%rbp), %rcx
	movb	$1, (%rax,%rcx)
	movq	32(%rbp), %rax
	movswl	(%rax), %eax
	movl	%eax, -36(%rbp)
	movq	40(%rbp), %rax
	movswl	(%rax), %eax
	movl	%eax, -40(%rbp)
.LBB31_15:                              # %if.end101
	cmpl	$0, -100(%rbp)
	jne	.LBB31_17
# %bb.16:                               # %lor.lhs.false
	cmpl	$0, -112(%rbp)
	je	.LBB31_20
.LBB31_17:                              # %if.then106
	movq	32(%rbp), %rax
	movswl	(%rax), %eax
	addl	-100(%rbp), %eax
	movl	%eax, -24(%rbp)
	movq	40(%rbp), %rax
	movswl	(%rax), %eax
	addl	-112(%rbp), %eax
	movl	%eax, -28(%rbp)
	movl	-72(%rbp), %eax
	movq	mvbits, %rdx
	movl	-24(%rbp), %esi
	movl	-44(%rbp), %ecx
                                        # kill: def $cl killed $ecx
	shll	%cl, %esi
	movswl	16(%rbp), %ecx
	subl	%ecx, %esi
	movslq	%esi, %rcx
	movl	(%rdx,%rcx,4), %edx
	movq	mvbits, %rsi
	movl	-28(%rbp), %edi
	movl	-44(%rbp), %ecx
                                        # kill: def $cl killed $ecx
	shll	%cl, %edi
	movswl	24(%rbp), %ecx
	subl	%ecx, %edi
	movslq	%edi, %rcx
	addl	(%rsi,%rcx,4), %edx
	imull	%edx, %eax
	sarl	$16, %eax
	movl	%eax, -48(%rbp)
	movl	-60(%rbp), %edi
	movl	-68(%rbp), %esi
	movl	-56(%rbp), %edx
	movl	-64(%rbp), %ecx
	movl	-24(%rbp), %r8d
	movl	-28(%rbp), %r9d
	movq	-88(%rbp), %rax
	movq	-128(%rbp), %rbx
	movl	-48(%rbp), %r10d
	movl	64(%rbp), %r11d
	movl	72(%rbp), %r14d
	movq	%rax, (%rsp)
	movq	%rbx, 8(%rsp)
	movl	%r10d, 16(%rsp)
	movl	%r11d, 24(%rsp)
	movl	%r14d, 32(%rsp)
	callq	AddUpSADQuarter
	movl	%eax, -32(%rbp)
	movq	SearchState, %rax
	movl	-28(%rbp), %ecx
	movq	40(%rbp), %rdx
	movswl	(%rdx), %edx
	subl	%edx, %ecx
	addl	-20(%rbp), %ecx
	movslq	%ecx, %rcx
	movq	(%rax,%rcx,8), %rax
	movl	-24(%rbp), %ecx
	movq	32(%rbp), %rdx
	movswl	(%rdx), %edx
	subl	%edx, %ecx
	addl	-20(%rbp), %ecx
	movslq	%ecx, %rcx
	movb	$1, (%rax,%rcx)
	movl	-32(%rbp), %eax
	cmpl	64(%rbp), %eax
	jge	.LBB31_19
# %bb.18:                               # %if.then137
	movl	-32(%rbp), %eax
	movl	%eax, 64(%rbp)
	movl	-24(%rbp), %eax
	movl	%eax, -36(%rbp)
	movl	-28(%rbp), %eax
	movl	%eax, -40(%rbp)
.LBB31_19:                              # %if.end138
	jmp	.LBB31_20
.LBB31_20:                              # %if.end139
	movl	-36(%rbp), %eax
	movl	%eax, -116(%rbp)
	movl	-40(%rbp), %eax
	movl	%eax, -108(%rbp)
	movl	-20(%rbp), %eax
	shll	$1, %eax
	addl	$1, %eax
	movl	%eax, -132(%rbp)
	movl	$0, -76(%rbp)
.LBB31_21:                              # %for.cond
                                        # =>This Loop Header: Depth=1
                                        #     Child Loop BB31_23 Depth 2
	movl	-76(%rbp), %eax
	cmpl	-132(%rbp), %eax
	jge	.LBB31_37
# %bb.22:                               # %for.body
                                        #   in Loop: Header=BB31_21 Depth=1
	movl	$1, -92(%rbp)
	movl	$65536, -168(%rbp)      # imm = 0x10000
	movl	$0, -52(%rbp)
.LBB31_23:                              # %for.cond144
                                        #   Parent Loop BB31_21 Depth=1
                                        # =>  This Inner Loop Header: Depth=2
	cmpl	$4, -52(%rbp)
	jge	.LBB31_33
# %bb.24:                               # %for.body147
                                        #   in Loop: Header=BB31_23 Depth=2
	movl	-116(%rbp), %eax
	movslq	-52(%rbp), %rcx
	addl	FastSubPelBlockMotionSearch.Diamond_x(,%rcx,4), %eax
	movl	%eax, -24(%rbp)
	movl	-108(%rbp), %eax
	movslq	-52(%rbp), %rcx
	addl	FastSubPelBlockMotionSearch.Diamond_y(,%rcx,4), %eax
	movl	%eax, -28(%rbp)
	movl	-24(%rbp), %edi
	movq	32(%rbp), %rax
	movswl	(%rax), %eax
	subl	%eax, %edi
	callq	abs
	cmpl	-20(%rbp), %eax
	jg	.LBB31_31
# %bb.25:                               # %land.lhs.true159
                                        #   in Loop: Header=BB31_23 Depth=2
	movl	-28(%rbp), %edi
	movq	40(%rbp), %rax
	movswl	(%rax), %eax
	subl	%eax, %edi
	callq	abs
	cmpl	-20(%rbp), %eax
	jg	.LBB31_31
# %bb.26:                               # %if.then165
                                        #   in Loop: Header=BB31_23 Depth=2
	movq	SearchState, %rax
	movl	-28(%rbp), %ecx
	movq	40(%rbp), %rdx
	movswl	(%rdx), %edx
	subl	%edx, %ecx
	addl	-20(%rbp), %ecx
	movslq	%ecx, %rcx
	movq	(%rax,%rcx,8), %rax
	movl	-24(%rbp), %ecx
	movq	32(%rbp), %rdx
	movswl	(%rdx), %edx
	subl	%edx, %ecx
	addl	-20(%rbp), %ecx
	movslq	%ecx, %rcx
	cmpb	$0, (%rax,%rcx)
	jne	.LBB31_30
# %bb.27:                               # %if.then177
                                        #   in Loop: Header=BB31_23 Depth=2
	movl	-72(%rbp), %eax
	movq	mvbits, %rdx
	movl	-24(%rbp), %esi
	movl	-44(%rbp), %ecx
                                        # kill: def $cl killed $ecx
	shll	%cl, %esi
	movswl	16(%rbp), %ecx
	subl	%ecx, %esi
	movslq	%esi, %rcx
	movl	(%rdx,%rcx,4), %edx
	movq	mvbits, %rsi
	movl	-28(%rbp), %edi
	movl	-44(%rbp), %ecx
                                        # kill: def $cl killed $ecx
	shll	%cl, %edi
	movswl	24(%rbp), %ecx
	subl	%ecx, %edi
	movslq	%edi, %rcx
	addl	(%rsi,%rcx,4), %edx
	imull	%edx, %eax
	sarl	$16, %eax
	movl	%eax, -48(%rbp)
	movl	-60(%rbp), %edi
	movl	-68(%rbp), %esi
	movl	-56(%rbp), %edx
	movl	-64(%rbp), %ecx
	movl	-24(%rbp), %r8d
	movl	-28(%rbp), %r9d
	movq	-88(%rbp), %rax
	movq	-128(%rbp), %rbx
	movl	-48(%rbp), %r10d
	movl	64(%rbp), %r11d
	movl	72(%rbp), %r14d
	movq	%rax, (%rsp)
	movq	%rbx, 8(%rsp)
	movl	%r10d, 16(%rsp)
	movl	%r11d, 24(%rsp)
	movl	%r14d, 32(%rsp)
	callq	AddUpSADQuarter
	movl	%eax, -32(%rbp)
	movq	SearchState, %rax
	movl	-28(%rbp), %ecx
	movq	40(%rbp), %rdx
	movswl	(%rdx), %edx
	subl	%edx, %ecx
	addl	-20(%rbp), %ecx
	movslq	%ecx, %rcx
	movq	(%rax,%rcx,8), %rax
	movl	-24(%rbp), %ecx
	movq	32(%rbp), %rdx
	movswl	(%rdx), %edx
	subl	%edx, %ecx
	addl	-20(%rbp), %ecx
	movslq	%ecx, %rcx
	movb	$1, (%rax,%rcx)
	movl	-32(%rbp), %eax
	cmpl	64(%rbp), %eax
	jge	.LBB31_29
# %bb.28:                               # %if.then204
                                        #   in Loop: Header=BB31_23 Depth=2
	movl	-32(%rbp), %eax
	movl	%eax, 64(%rbp)
	movl	-24(%rbp), %eax
	movl	%eax, -36(%rbp)
	movl	-28(%rbp), %eax
	movl	%eax, -40(%rbp)
	movl	$0, -92(%rbp)
.LBB31_29:                              # %if.end205
                                        #   in Loop: Header=BB31_23 Depth=2
	jmp	.LBB31_30
.LBB31_30:                              # %if.end206
                                        #   in Loop: Header=BB31_23 Depth=2
	jmp	.LBB31_31
.LBB31_31:                              # %if.end207
                                        #   in Loop: Header=BB31_23 Depth=2
	jmp	.LBB31_32
.LBB31_32:                              # %for.inc
                                        #   in Loop: Header=BB31_23 Depth=2
	movl	-52(%rbp), %eax
	addl	$1, %eax
	movl	%eax, -52(%rbp)
	jmp	.LBB31_23
.LBB31_33:                              # %for.end
                                        #   in Loop: Header=BB31_21 Depth=1
	movl	-36(%rbp), %eax
	movl	%eax, -116(%rbp)
	movl	-40(%rbp), %eax
	movl	%eax, -108(%rbp)
	cmpl	$0, -92(%rbp)
	je	.LBB31_35
# %bb.34:                               # %if.then209
	jmp	.LBB31_38
.LBB31_35:                              # %if.end210
                                        #   in Loop: Header=BB31_21 Depth=1
	jmp	.LBB31_36
.LBB31_36:                              # %for.inc211
                                        #   in Loop: Header=BB31_21 Depth=1
	movl	-76(%rbp), %eax
	addl	$1, %eax
	movl	%eax, -76(%rbp)
	jmp	.LBB31_21
.LBB31_37:                              # %for.end213.loopexit
	jmp	.LBB31_38
.LBB31_38:                              # %for.end213
	movl	-36(%rbp), %eax
	movq	32(%rbp), %rcx
	movw	%ax, (%rcx)
	movl	-40(%rbp), %eax
	movq	40(%rbp), %rcx
	movw	%ax, (%rcx)
	movl	64(%rbp), %ebx
	cmpl	$1669071498, -152(%rbp) # imm = 0x637C028A
	jne	.LBB31_40
.LBB31_39:
	movl	%ebx, %eax
	addq	$208, %rsp
	popq	%rbx
	popq	%r14
	popq	%rbp
	.cfi_def_cfa %rsp, 8
	retq
.LBB31_40:                              # %func_exit
	.cfi_def_cfa %rbp, 16
	callq	detect_breach
	jmp	.LBB31_39
.Lfunc_end31:
	.size	FastSubPelBlockMotionSearch.18, .Lfunc_end31-FastSubPelBlockMotionSearch.18
	.cfi_endproc
                                        # -- End function
	.section	.rodata.cst8,"aM",@progbits,8
	.p2align	3               # -- Begin function FastIntegerPelBlockMotionSearch.19
.LCPI32_0:
	.quad	4602678819172646912     # double 0.5
.LCPI32_1:
	.quad	4679240012837945344     # double 65536
	.text
	.globl	FastIntegerPelBlockMotionSearch.19
	.p2align	4, 0x90
	.type	FastIntegerPelBlockMotionSearch.19,@function
FastIntegerPelBlockMotionSearch.19:     # @FastIntegerPelBlockMotionSearch.19
	.cfi_startproc
# %bb.0:                                # %entry
	pushq	%rbp
	.cfi_def_cfa_offset 16
	.cfi_offset %rbp, -16
	movq	%rsp, %rbp
	.cfi_def_cfa_register %rbp
	pushq	%rbx
	subq	$200, %rsp
	.cfi_offset %rbx, -24
	movl	56(%rbp), %eax
	movl	48(%rbp), %eax
	movq	40(%rbp), %rax
	movq	32(%rbp), %rax
	movw	24(%rbp), %ax
	movw	16(%rbp), %ax
	movl	$271326976, -160(%rbp)  # imm = 0x102C1F00
	movq	%rdi, -120(%rbp)
	movw	%si, -46(%rbp)
	movl	%edx, -136(%rbp)
	movl	%ecx, -100(%rbp)
	movl	%r8d, -104(%rbp)
	movl	%r9d, -56(%rbp)
	vmovsd	%xmm0, -168(%rbp)
	movq	img, %rax
	cmpl	$0, 72400(%rax)
	je	.LBB32_3
# %bb.1:                                # %land.lhs.true
	movq	img, %rax
	movq	14168(%rax), %rax
	movq	img, %rcx
	movslq	12(%rcx), %rcx
	imulq	$632, %rcx, %rcx        # imm = 0x278
	addq	%rcx, %rax
	cmpl	$0, 532(%rax)
	je	.LBB32_3
# %bb.2:                                # %cond.true
	movq	img, %rax
	movl	12(%rax), %eax
	cltd
	movl	$2, %ecx
	idivl	%ecx
	cmpl	$0, %edx
	movl	$4, %eax
	cmovnel	%eax, %ecx
	jmp	.LBB32_4
.LBB32_3:                               # %cond.false
	xorl	%ecx, %ecx
	jmp	.LBB32_4
.LBB32_4:                               # %cond.end
	vmovsd	.LCPI32_0(%rip), %xmm0  # xmm0 = mem[0],zero
	vmovsd	.LCPI32_1(%rip), %xmm1  # xmm1 = mem[0],zero
	movl	%ecx, -152(%rbp)
	movl	-136(%rbp), %eax
	addl	-152(%rbp), %eax
	cltq
	movq	listX(,%rax,8), %rax
	movswq	-46(%rbp), %rcx
	movq	(%rax,%rcx,8), %rax
	movq	6432(%rax), %rax
	movq	%rax, -128(%rbp)
	vmulsd	-168(%rbp), %xmm1, %xmm1
	vaddsd	%xmm0, %xmm1, %xmm0
	vcvttsd2si	%xmm0, %eax
	movl	%eax, -96(%rbp)
	movl	$2, -32(%rbp)
	movq	input, %rax
	movslq	-56(%rbp), %rcx
	movl	84(%rax,%rcx,8), %eax
	movl	%eax, -80(%rbp)
	movq	input, %rax
	movslq	-56(%rbp), %rcx
	movl	80(%rax,%rcx,8), %eax
	movl	%eax, -64(%rbp)
	movl	-64(%rbp), %eax
	sarl	$2, %eax
	movl	%eax, -92(%rbp)
	movl	-100(%rbp), %eax
	movl	-32(%rbp), %ecx
                                        # kill: def $cl killed $ecx
	shll	%cl, %eax
	movswl	16(%rbp), %ecx
	addl	%ecx, %eax
	movl	%eax, -88(%rbp)
	movl	-104(%rbp), %eax
	movl	-32(%rbp), %ecx
                                        # kill: def $cl killed $ecx
	shll	%cl, %eax
	movswl	24(%rbp), %ecx
	addl	%ecx, %eax
	movl	%eax, -84(%rbp)
	movl	-100(%rbp), %eax
	movq	32(%rbp), %rcx
	movswl	(%rcx), %ecx
	addl	%ecx, %eax
	movl	%eax, -28(%rbp)
	movl	-104(%rbp), %eax
	movq	40(%rbp), %rcx
	movswl	(%rcx), %ecx
	addl	%ecx, %eax
	movl	%eax, -24(%rbp)
	movl	$0, -44(%rbp)
	movl	$0, -40(%rbp)
	movq	input, %rax
	movl	1236(%rax), %eax
	movl	%eax, -148(%rbp)
	movq	img, %rax
	cmpl	$0, 72400(%rax)
	je	.LBB32_7
# %bb.5:                                # %land.lhs.true28
	movq	img, %rax
	movq	14168(%rax), %rax
	movq	img, %rcx
	movslq	12(%rcx), %rcx
	imulq	$632, %rcx, %rcx        # imm = 0x278
	addq	%rcx, %rax
	cmpl	$0, 532(%rax)
	je	.LBB32_7
# %bb.6:                                # %cond.true35
	movq	img, %rax
	movl	60(%rax), %eax
	cltd
	movl	$2, %ecx
	idivl	%ecx
	jmp	.LBB32_8
.LBB32_7:                               # %cond.false37
	movq	img, %rax
	movl	60(%rax), %eax
.LBB32_8:                               # %cond.end39
	movl	%eax, -156(%rbp)
	movl	-28(%rbp), %eax
	cmpl	48(%rbp), %eax
	jle	.LBB32_13
# %bb.9:                                # %land.lhs.true42
	movl	-28(%rbp), %eax
	movq	img, %rcx
	movl	52(%rcx), %ecx
	subl	$1, %ecx
	subl	48(%rbp), %ecx
	subl	-64(%rbp), %ecx
	cmpl	%ecx, %eax
	jge	.LBB32_13
# %bb.10:                               # %land.lhs.true47
	movl	-24(%rbp), %eax
	cmpl	48(%rbp), %eax
	jle	.LBB32_13
# %bb.11:                               # %land.lhs.true50
	movl	-24(%rbp), %eax
	movl	-156(%rbp), %ecx
	subl	$1, %ecx
	subl	48(%rbp), %ecx
	subl	-80(%rbp), %ecx
	cmpl	%ecx, %eax
	jge	.LBB32_13
# %bb.12:                               # %if.then
	movabsq	$FastLineX, %rax
	movq	%rax, -112(%rbp)
	jmp	.LBB32_14
.LBB32_13:                              # %if.else
	movabsq	$UMVLineX, %rax
	movq	%rax, -112(%rbp)
.LBB32_14:                              # %if.end
	movq	McostState, %rax
	movq	(%rax), %rdi
	movl	48(%rbp), %eax
	shll	$1, %eax
	addl	$1, %eax
	movl	48(%rbp), %ecx
	shll	$1, %ecx
	addl	$1, %ecx
	imull	%ecx, %eax
	shll	$2, %eax
	movslq	%eax, %rdx
	xorl	%esi, %esi
	callq	memset
	movswl	-46(%rbp), %eax
	cmpl	$0, %eax
	jle	.LBB32_19
# %bb.15:                               # %if.then67
	cmpl	$0, pred_SAD_ref
	je	.LBB32_17
# %bb.16:                               # %if.then70
	movslq	-56(%rbp), %rax
	vmovss	Bsize(,%rax,4), %xmm0   # xmm0 = mem[0],zero,zero,zero
	movl	pred_SAD_ref, %eax
	imull	pred_SAD_ref, %eax
	vcvtsi2ss	%eax, %xmm0, %xmm1
	vdivss	%xmm1, %xmm0, %xmm0
	movslq	-56(%rbp), %rax
	vsubss	AlphaSec(,%rax,4), %xmm0, %xmm0
	vmovss	%xmm0, -72(%rbp)
	movslq	-56(%rbp), %rax
	vmovss	Bsize(,%rax,4), %xmm0   # xmm0 = mem[0],zero,zero,zero
	movl	pred_SAD_ref, %eax
	imull	pred_SAD_ref, %eax
	vcvtsi2ss	%eax, %xmm0, %xmm1
	vdivss	%xmm1, %xmm0, %xmm0
	movslq	-56(%rbp), %rax
	vsubss	AlphaThird(,%rax,4), %xmm0, %xmm0
	vmovss	%xmm0, -76(%rbp)
	jmp	.LBB32_18
.LBB32_17:                              # %if.else87
	vxorps	%xmm0, %xmm0, %xmm0
	vmovss	%xmm0, -72(%rbp)
	vmovss	%xmm0, -76(%rbp)
.LBB32_18:                              # %if.end88
	jmp	.LBB32_29
.LBB32_19:                              # %if.else89
	cmpl	$1, -56(%rbp)
	jne	.LBB32_24
# %bb.20:                               # %if.then92
	cmpl	$0, pred_SAD_space
	je	.LBB32_22
# %bb.21:                               # %if.then95
	movslq	-56(%rbp), %rax
	vmovss	Bsize(,%rax,4), %xmm0   # xmm0 = mem[0],zero,zero,zero
	movl	pred_SAD_space, %eax
	imull	pred_SAD_space, %eax
	vcvtsi2ss	%eax, %xmm0, %xmm1
	vdivss	%xmm1, %xmm0, %xmm0
	movslq	-56(%rbp), %rax
	vsubss	AlphaSec(,%rax,4), %xmm0, %xmm0
	vmovss	%xmm0, -72(%rbp)
	movslq	-56(%rbp), %rax
	vmovss	Bsize(,%rax,4), %xmm0   # xmm0 = mem[0],zero,zero,zero
	movl	pred_SAD_space, %eax
	imull	pred_SAD_space, %eax
	vcvtsi2ss	%eax, %xmm0, %xmm1
	vdivss	%xmm1, %xmm0, %xmm0
	movslq	-56(%rbp), %rax
	vsubss	AlphaThird(,%rax,4), %xmm0, %xmm0
	vmovss	%xmm0, -76(%rbp)
	jmp	.LBB32_23
.LBB32_22:                              # %if.else112
	vxorps	%xmm0, %xmm0, %xmm0
	vmovss	%xmm0, -72(%rbp)
	vmovss	%xmm0, -76(%rbp)
.LBB32_23:                              # %if.end113
	jmp	.LBB32_28
.LBB32_24:                              # %if.else114
	cmpl	$0, pred_SAD_uplayer
	je	.LBB32_26
# %bb.25:                               # %if.then117
	movslq	-56(%rbp), %rax
	vmovss	Bsize(,%rax,4), %xmm0   # xmm0 = mem[0],zero,zero,zero
	movl	pred_SAD_uplayer, %eax
	imull	pred_SAD_uplayer, %eax
	vcvtsi2ss	%eax, %xmm0, %xmm1
	vdivss	%xmm1, %xmm0, %xmm0
	movslq	-56(%rbp), %rax
	vsubss	AlphaSec(,%rax,4), %xmm0, %xmm0
	vmovss	%xmm0, -72(%rbp)
	movslq	-56(%rbp), %rax
	vmovss	Bsize(,%rax,4), %xmm0   # xmm0 = mem[0],zero,zero,zero
	movl	pred_SAD_uplayer, %eax
	imull	pred_SAD_uplayer, %eax
	vcvtsi2ss	%eax, %xmm0, %xmm1
	vdivss	%xmm1, %xmm0, %xmm0
	movslq	-56(%rbp), %rax
	vsubss	AlphaThird(,%rax,4), %xmm0, %xmm0
	vmovss	%xmm0, -76(%rbp)
	jmp	.LBB32_27
.LBB32_26:                              # %if.else134
	vxorps	%xmm0, %xmm0, %xmm0
	vmovss	%xmm0, -72(%rbp)
	vmovss	%xmm0, -76(%rbp)
.LBB32_27:                              # %if.end135
	jmp	.LBB32_28
.LBB32_28:                              # %if.end136
	jmp	.LBB32_29
.LBB32_29:                              # %if.end137
	movl	-28(%rbp), %eax
	movl	%eax, -12(%rbp)
	movl	-24(%rbp), %eax
	movl	%eax, -16(%rbp)
	movl	-96(%rbp), %eax
	movq	mvbits, %rdx
	movl	-12(%rbp), %esi
	movl	-32(%rbp), %ecx
                                        # kill: def $cl killed $ecx
	shll	%cl, %esi
	subl	-88(%rbp), %esi
	movslq	%esi, %rcx
	movl	(%rdx,%rcx,4), %edx
	movq	mvbits, %rsi
	movl	-16(%rbp), %edi
	movl	-32(%rbp), %ecx
                                        # kill: def $cl killed $ecx
	shll	%cl, %edi
	subl	-84(%rbp), %edi
	movslq	%edi, %rcx
	addl	(%rsi,%rcx,4), %edx
	imull	%edx, %eax
	sarl	$16, %eax
	movl	%eax, -20(%rbp)
	movq	-128(%rbp), %rdi
	movq	-120(%rbp), %rsi
	movq	-112(%rbp), %rdx
	movl	-80(%rbp), %ecx
	movl	-64(%rbp), %r8d
	movl	-92(%rbp), %r9d
	movl	-20(%rbp), %eax
	movl	56(%rbp), %ebx
	movl	-12(%rbp), %r10d
	movl	-16(%rbp), %r11d
	movl	%eax, (%rsp)
	movl	%ebx, 8(%rsp)
	movl	%r10d, 16(%rsp)
	movl	%r11d, 24(%rsp)
	callq	PartCalMad
	movl	%eax, -20(%rbp)
	movl	-20(%rbp), %eax
	movq	McostState, %rcx
	movslq	48(%rbp), %rdx
	movq	(%rcx,%rdx,8), %rcx
	movslq	48(%rbp), %rdx
	movl	%eax, (%rcx,%rdx,4)
	movl	-20(%rbp), %eax
	cmpl	56(%rbp), %eax
	jge	.LBB32_31
# %bb.30:                               # %if.then155
	movl	-20(%rbp), %eax
	movl	%eax, 56(%rbp)
	movl	-12(%rbp), %eax
	movl	%eax, -44(%rbp)
	movl	-16(%rbp), %eax
	movl	%eax, -40(%rbp)
.LBB32_31:                              # %if.end156
	movl	-44(%rbp), %eax
	movl	%eax, -60(%rbp)
	movl	-40(%rbp), %eax
	movl	%eax, -68(%rbp)
	movl	$0, -36(%rbp)
.LBB32_32:                              # %for.cond
                                        # =>This Inner Loop Header: Depth=1
	cmpl	$4, -36(%rbp)
	jge	.LBB32_42
# %bb.33:                               # %for.body
                                        #   in Loop: Header=BB32_32 Depth=1
	movl	-60(%rbp), %eax
	movslq	-36(%rbp), %rcx
	addl	FastIntegerPelBlockMotionSearch.Diamond_x(,%rcx,4), %eax
	movl	%eax, -12(%rbp)
	movl	-68(%rbp), %eax
	movslq	-36(%rbp), %rcx
	addl	FastIntegerPelBlockMotionSearch.Diamond_y(,%rcx,4), %eax
	movl	%eax, -16(%rbp)
	movl	-12(%rbp), %edi
	subl	-28(%rbp), %edi
	callq	abs
	cmpl	48(%rbp), %eax
	jg	.LBB32_40
# %bb.34:                               # %land.lhs.true169
                                        #   in Loop: Header=BB32_32 Depth=1
	movl	-16(%rbp), %edi
	subl	-24(%rbp), %edi
	callq	abs
	cmpl	48(%rbp), %eax
	jg	.LBB32_40
# %bb.35:                               # %if.then174
                                        #   in Loop: Header=BB32_32 Depth=1
	movq	McostState, %rax
	movl	-16(%rbp), %ecx
	subl	-24(%rbp), %ecx
	addl	48(%rbp), %ecx
	movslq	%ecx, %rcx
	movq	(%rax,%rcx,8), %rax
	movl	-12(%rbp), %ecx
	subl	-28(%rbp), %ecx
	addl	48(%rbp), %ecx
	movslq	%ecx, %rcx
	cmpl	$0, (%rax,%rcx,4)
	jne	.LBB32_39
# %bb.36:                               # %if.then184
                                        #   in Loop: Header=BB32_32 Depth=1
	movl	-96(%rbp), %eax
	movq	mvbits, %rdx
	movl	-12(%rbp), %esi
	movl	-32(%rbp), %ecx
                                        # kill: def $cl killed $ecx
	shll	%cl, %esi
	subl	-88(%rbp), %esi
	movslq	%esi, %rcx
	movl	(%rdx,%rcx,4), %edx
	movq	mvbits, %rsi
	movl	-16(%rbp), %edi
	movl	-32(%rbp), %ecx
                                        # kill: def $cl killed $ecx
	shll	%cl, %edi
	subl	-84(%rbp), %edi
	movslq	%edi, %rcx
	addl	(%rsi,%rcx,4), %edx
	imull	%edx, %eax
	sarl	$16, %eax
	movl	%eax, -20(%rbp)
	movq	-128(%rbp), %rdi
	movq	-120(%rbp), %rsi
	movq	-112(%rbp), %rdx
	movl	-80(%rbp), %ecx
	movl	-64(%rbp), %r8d
	movl	-92(%rbp), %r9d
	movl	-20(%rbp), %eax
	movl	56(%rbp), %ebx
	movl	-12(%rbp), %r10d
	movl	-16(%rbp), %r11d
	movl	%eax, (%rsp)
	movl	%ebx, 8(%rsp)
	movl	%r10d, 16(%rsp)
	movl	%r11d, 24(%rsp)
	callq	PartCalMad
	movl	%eax, -20(%rbp)
	movl	-20(%rbp), %eax
	movq	McostState, %rcx
	movl	-16(%rbp), %edx
	subl	-24(%rbp), %edx
	addl	48(%rbp), %edx
	movslq	%edx, %rdx
	movq	(%rcx,%rdx,8), %rcx
	movl	-12(%rbp), %edx
	subl	-28(%rbp), %edx
	addl	48(%rbp), %edx
	movslq	%edx, %rdx
	movl	%eax, (%rcx,%rdx,4)
	movl	-20(%rbp), %eax
	cmpl	56(%rbp), %eax
	jge	.LBB32_38
# %bb.37:                               # %if.then207
                                        #   in Loop: Header=BB32_32 Depth=1
	movl	-12(%rbp), %eax
	movl	%eax, -44(%rbp)
	movl	-16(%rbp), %eax
	movl	%eax, -40(%rbp)
	movl	-20(%rbp), %eax
	movl	%eax, 56(%rbp)
.LBB32_38:                              # %if.end208
                                        #   in Loop: Header=BB32_32 Depth=1
	jmp	.LBB32_39
.LBB32_39:                              # %if.end209
                                        #   in Loop: Header=BB32_32 Depth=1
	jmp	.LBB32_40
.LBB32_40:                              # %if.end210
                                        #   in Loop: Header=BB32_32 Depth=1
	jmp	.LBB32_41
.LBB32_41:                              # %for.inc
                                        #   in Loop: Header=BB32_32 Depth=1
	movl	-36(%rbp), %eax
	addl	$1, %eax
	movl	%eax, -36(%rbp)
	jmp	.LBB32_32
.LBB32_42:                              # %for.end
	movl	-28(%rbp), %eax
	cmpl	-100(%rbp), %eax
	jne	.LBB32_44
# %bb.43:                               # %lor.lhs.false
	movl	-24(%rbp), %eax
	cmpl	-104(%rbp), %eax
	je	.LBB32_63
.LBB32_44:                              # %if.then215
	movl	-100(%rbp), %eax
	movl	%eax, -12(%rbp)
	movl	-104(%rbp), %eax
	movl	%eax, -16(%rbp)
	movl	-12(%rbp), %edi
	subl	-28(%rbp), %edi
	callq	abs
	cmpl	48(%rbp), %eax
	jg	.LBB32_51
# %bb.45:                               # %land.lhs.true220
	movl	-16(%rbp), %edi
	subl	-24(%rbp), %edi
	callq	abs
	cmpl	48(%rbp), %eax
	jg	.LBB32_51
# %bb.46:                               # %if.then225
	movq	McostState, %rax
	movl	-16(%rbp), %ecx
	subl	-24(%rbp), %ecx
	addl	48(%rbp), %ecx
	movslq	%ecx, %rcx
	movq	(%rax,%rcx,8), %rax
	movl	-12(%rbp), %ecx
	subl	-28(%rbp), %ecx
	addl	48(%rbp), %ecx
	movslq	%ecx, %rcx
	cmpl	$0, (%rax,%rcx,4)
	jne	.LBB32_50
# %bb.47:                               # %if.then235
	movl	-96(%rbp), %eax
	movq	mvbits, %rdx
	movl	-12(%rbp), %esi
	movl	-32(%rbp), %ecx
                                        # kill: def $cl killed $ecx
	shll	%cl, %esi
	subl	-88(%rbp), %esi
	movslq	%esi, %rcx
	movl	(%rdx,%rcx,4), %edx
	movq	mvbits, %rsi
	movl	-16(%rbp), %edi
	movl	-32(%rbp), %ecx
                                        # kill: def $cl killed $ecx
	shll	%cl, %edi
	subl	-84(%rbp), %edi
	movslq	%edi, %rcx
	addl	(%rsi,%rcx,4), %edx
	imull	%edx, %eax
	sarl	$16, %eax
	movl	%eax, -20(%rbp)
	movq	-128(%rbp), %rdi
	movq	-120(%rbp), %rsi
	movq	-112(%rbp), %rdx
	movl	-80(%rbp), %ecx
	movl	-64(%rbp), %r8d
	movl	-92(%rbp), %r9d
	movl	-20(%rbp), %eax
	movl	56(%rbp), %ebx
	movl	-12(%rbp), %r10d
	movl	-16(%rbp), %r11d
	movl	%eax, (%rsp)
	movl	%ebx, 8(%rsp)
	movl	%r10d, 16(%rsp)
	movl	%r11d, 24(%rsp)
	callq	PartCalMad
	movl	%eax, -20(%rbp)
	movl	-20(%rbp), %eax
	movq	McostState, %rcx
	movl	-16(%rbp), %edx
	subl	-24(%rbp), %edx
	addl	48(%rbp), %edx
	movslq	%edx, %rdx
	movq	(%rcx,%rdx,8), %rcx
	movl	-12(%rbp), %edx
	subl	-28(%rbp), %edx
	addl	48(%rbp), %edx
	movslq	%edx, %rdx
	movl	%eax, (%rcx,%rdx,4)
	movl	-20(%rbp), %eax
	cmpl	56(%rbp), %eax
	jge	.LBB32_49
# %bb.48:                               # %if.then258
	movl	-12(%rbp), %eax
	movl	%eax, -44(%rbp)
	movl	-16(%rbp), %eax
	movl	%eax, -40(%rbp)
	movl	-20(%rbp), %eax
	movl	%eax, 56(%rbp)
.LBB32_49:                              # %if.end259
	jmp	.LBB32_50
.LBB32_50:                              # %if.end260
	jmp	.LBB32_51
.LBB32_51:                              # %if.end261
	movl	-44(%rbp), %eax
	movl	%eax, -60(%rbp)
	movl	-40(%rbp), %eax
	movl	%eax, -68(%rbp)
	movl	$0, -36(%rbp)
.LBB32_52:                              # %for.cond262
                                        # =>This Inner Loop Header: Depth=1
	cmpl	$4, -36(%rbp)
	jge	.LBB32_62
# %bb.53:                               # %for.body265
                                        #   in Loop: Header=BB32_52 Depth=1
	movl	-60(%rbp), %eax
	movslq	-36(%rbp), %rcx
	addl	FastIntegerPelBlockMotionSearch.Diamond_x(,%rcx,4), %eax
	movl	%eax, -12(%rbp)
	movl	-68(%rbp), %eax
	movslq	-36(%rbp), %rcx
	addl	FastIntegerPelBlockMotionSearch.Diamond_y(,%rcx,4), %eax
	movl	%eax, -16(%rbp)
	movl	-12(%rbp), %edi
	subl	-28(%rbp), %edi
	callq	abs
	cmpl	48(%rbp), %eax
	jg	.LBB32_60
# %bb.54:                               # %land.lhs.true276
                                        #   in Loop: Header=BB32_52 Depth=1
	movl	-16(%rbp), %edi
	subl	-24(%rbp), %edi
	callq	abs
	cmpl	48(%rbp), %eax
	jg	.LBB32_60
# %bb.55:                               # %if.then281
                                        #   in Loop: Header=BB32_52 Depth=1
	movq	McostState, %rax
	movl	-16(%rbp), %ecx
	subl	-24(%rbp), %ecx
	addl	48(%rbp), %ecx
	movslq	%ecx, %rcx
	movq	(%rax,%rcx,8), %rax
	movl	-12(%rbp), %ecx
	subl	-28(%rbp), %ecx
	addl	48(%rbp), %ecx
	movslq	%ecx, %rcx
	cmpl	$0, (%rax,%rcx,4)
	jne	.LBB32_59
# %bb.56:                               # %if.then291
                                        #   in Loop: Header=BB32_52 Depth=1
	movl	-96(%rbp), %eax
	movq	mvbits, %rdx
	movl	-12(%rbp), %esi
	movl	-32(%rbp), %ecx
                                        # kill: def $cl killed $ecx
	shll	%cl, %esi
	subl	-88(%rbp), %esi
	movslq	%esi, %rcx
	movl	(%rdx,%rcx,4), %edx
	movq	mvbits, %rsi
	movl	-16(%rbp), %edi
	movl	-32(%rbp), %ecx
                                        # kill: def $cl killed $ecx
	shll	%cl, %edi
	subl	-84(%rbp), %edi
	movslq	%edi, %rcx
	addl	(%rsi,%rcx,4), %edx
	imull	%edx, %eax
	sarl	$16, %eax
	movl	%eax, -20(%rbp)
	movq	-128(%rbp), %rdi
	movq	-120(%rbp), %rsi
	movq	-112(%rbp), %rdx
	movl	-80(%rbp), %ecx
	movl	-64(%rbp), %r8d
	movl	-92(%rbp), %r9d
	movl	-20(%rbp), %eax
	movl	56(%rbp), %ebx
	movl	-12(%rbp), %r10d
	movl	-16(%rbp), %r11d
	movl	%eax, (%rsp)
	movl	%ebx, 8(%rsp)
	movl	%r10d, 16(%rsp)
	movl	%r11d, 24(%rsp)
	callq	PartCalMad
	movl	%eax, -20(%rbp)
	movl	-20(%rbp), %eax
	movq	McostState, %rcx
	movl	-16(%rbp), %edx
	subl	-24(%rbp), %edx
	addl	48(%rbp), %edx
	movslq	%edx, %rdx
	movq	(%rcx,%rdx,8), %rcx
	movl	-12(%rbp), %edx
	subl	-28(%rbp), %edx
	addl	48(%rbp), %edx
	movslq	%edx, %rdx
	movl	%eax, (%rcx,%rdx,4)
	movl	-20(%rbp), %eax
	cmpl	56(%rbp), %eax
	jge	.LBB32_58
# %bb.57:                               # %if.then314
                                        #   in Loop: Header=BB32_52 Depth=1
	movl	-12(%rbp), %eax
	movl	%eax, -44(%rbp)
	movl	-16(%rbp), %eax
	movl	%eax, -40(%rbp)
	movl	-20(%rbp), %eax
	movl	%eax, 56(%rbp)
.LBB32_58:                              # %if.end315
                                        #   in Loop: Header=BB32_52 Depth=1
	jmp	.LBB32_59
.LBB32_59:                              # %if.end316
                                        #   in Loop: Header=BB32_52 Depth=1
	jmp	.LBB32_60
.LBB32_60:                              # %if.end317
                                        #   in Loop: Header=BB32_52 Depth=1
	jmp	.LBB32_61
.LBB32_61:                              # %for.inc318
                                        #   in Loop: Header=BB32_52 Depth=1
	movl	-36(%rbp), %eax
	addl	$1, %eax
	movl	%eax, -36(%rbp)
	jmp	.LBB32_52
.LBB32_62:                              # %for.end320
	jmp	.LBB32_63
.LBB32_63:                              # %if.end321
	cmpl	$1, -56(%rbp)
	jle	.LBB32_77
# %bb.64:                               # %if.then324
	movl	-100(%rbp), %ecx
	movl	pred_MV_uplayer, %eax
	cltd
	movl	$4, %esi
