	.text
	.file	"fast_me.c"
	.section	.rodata.cst4,"aM",@progbits,4
	.p2align	2               # -- Begin function DefineThreshold
.LCPI0_0:
	.long	1041865114              # float 0.150000006
.LCPI0_1:
	.long	1038174126              # float 0.109999999
.LCPI0_2:
	.long	1039516303              # float 0.119999997
.LCPI0_3:
	.long	1034147594              # float 0.0799999982
.LCPI0_4:
	.long	1032805417              # float 0.0700000003
.LCPI0_5:
	.long	1031127695              # float 0.0599999987
.LCPI0_6:
	.long	1025758986              # float 0.0399999991
.LCPI0_7:
	.long	1022739087              # float 0.0299999993
.LCPI0_8:
	.long	1017370378              # float 0.0199999996
.LCPI0_9:
	.long	1008981770              # float 0.00999999977
	.text
	.globl	DefineThreshold
	.p2align	4, 0x90
	.type	DefineThreshold,@function
DefineThreshold:                        # @DefineThreshold
	.cfi_startproc
# %bb.0:                                # %entry
	pushq	%rbp
	.cfi_def_cfa_offset 16
	.cfi_offset %rbp, -16
	movq	%rsp, %rbp
	.cfi_def_cfa_register %rbp
	vmovss	.LCPI0_0(%rip), %xmm8   # xmm8 = mem[0],zero,zero,zero
	vmovss	.LCPI0_1(%rip), %xmm9   # xmm9 = mem[0],zero,zero,zero
	vmovss	.LCPI0_2(%rip), %xmm2   # xmm2 = mem[0],zero,zero,zero
	vmovss	.LCPI0_3(%rip), %xmm3   # xmm3 = mem[0],zero,zero,zero
	vmovss	.LCPI0_4(%rip), %xmm4   # xmm4 = mem[0],zero,zero,zero
	vmovss	.LCPI0_5(%rip), %xmm5   # xmm5 = mem[0],zero,zero,zero
	vmovss	.LCPI0_6(%rip), %xmm6   # xmm6 = mem[0],zero,zero,zero
	vmovss	.LCPI0_7(%rip), %xmm7   # xmm7 = mem[0],zero,zero,zero
	vmovss	.LCPI0_8(%rip), %xmm0   # xmm0 = mem[0],zero,zero,zero
	vmovss	.LCPI0_9(%rip), %xmm1   # xmm1 = mem[0],zero,zero,zero
	vmovss	%xmm1, AlphaSec+4
	vmovss	%xmm1, AlphaSec+8
	vmovss	%xmm1, AlphaSec+12
	vmovss	%xmm0, AlphaSec+16
	vmovss	%xmm7, AlphaSec+20
	vmovss	%xmm7, AlphaSec+24
	vmovss	%xmm6, AlphaSec+28
	vmovss	%xmm5, AlphaThird+4
	vmovss	%xmm4, AlphaThird+8
	vmovss	%xmm4, AlphaThird+12
	vmovss	%xmm3, AlphaThird+16
	vmovss	%xmm2, AlphaThird+20
	vmovss	%xmm9, AlphaThird+24
	vmovss	%xmm8, AlphaThird+28
	callq	DefineThresholdMB
	popq	%rbp
	.cfi_def_cfa %rsp, 8
	retq
.Lfunc_end0:
	.size	DefineThreshold, .Lfunc_end0-DefineThreshold
	.cfi_endproc
                                        # -- End function
	.globl	DefineThresholdMB       # -- Begin function DefineThresholdMB
	.p2align	4, 0x90
	.type	DefineThresholdMB,@function
DefineThresholdMB:                      # @DefineThresholdMB
	.cfi_startproc
# %bb.0:                                # %rand_bb
	pushq	%rbp
	.cfi_def_cfa_offset 16
	.cfi_offset %rbp, -16
	movq	%rsp, %rbp
	.cfi_def_cfa_register %rbp
	callq	get_urand
	cmpl	$0, %eax
	jne	.LBB1_17
# %bb.1:                                # %func_DefineThresholdMB.1
	callq	DefineThresholdMB.1
	popq	%rbp
	.cfi_def_cfa %rsp, 8
	retq
.LBB1_2:                                # %func_DefineThresholdMB.2
	.cfi_def_cfa %rbp, 16
	callq	DefineThresholdMB.2
	popq	%rbp
	.cfi_def_cfa %rsp, 8
	retq
.LBB1_3:                                # %func_DefineThresholdMB.3
	.cfi_def_cfa %rbp, 16
	callq	DefineThresholdMB.3
	popq	%rbp
	.cfi_def_cfa %rsp, 8
	retq
.LBB1_4:                                # %func_DefineThresholdMB.9
	.cfi_def_cfa %rbp, 16
	callq	DefineThresholdMB.9
	popq	%rbp
	.cfi_def_cfa %rsp, 8
	retq
.LBB1_5:                                # %func_DefineThresholdMB.15
	.cfi_def_cfa %rbp, 16
	callq	DefineThresholdMB.15
	popq	%rbp
	.cfi_def_cfa %rsp, 8
	retq
.LBB1_6:                                # %func_DefineThresholdMB.17
	.cfi_def_cfa %rbp, 16
	callq	DefineThresholdMB.17
	popq	%rbp
	.cfi_def_cfa %rsp, 8
	retq
.LBB1_7:                                # %func_DefineThresholdMB.30
	.cfi_def_cfa %rbp, 16
	callq	DefineThresholdMB.30
	popq	%rbp
	.cfi_def_cfa %rsp, 8
	retq
.LBB1_8:                                # %func_DefineThresholdMB.42
	.cfi_def_cfa %rbp, 16
	callq	DefineThresholdMB.42
	popq	%rbp
	.cfi_def_cfa %rsp, 8
	retq
.LBB1_9:                                # %func_DefineThresholdMB.43
	.cfi_def_cfa %rbp, 16
	callq	DefineThresholdMB.43
	popq	%rbp
	.cfi_def_cfa %rsp, 8
	retq
.LBB1_10:                               # %func_DefineThresholdMB.50
	.cfi_def_cfa %rbp, 16
	callq	DefineThresholdMB.50
	popq	%rbp
	.cfi_def_cfa %rsp, 8
	retq
.LBB1_11:                               # %func_DefineThresholdMB.63
	.cfi_def_cfa %rbp, 16
	callq	DefineThresholdMB.63
	popq	%rbp
	.cfi_def_cfa %rsp, 8
	retq
.LBB1_12:                               # %func_DefineThresholdMB.67
	.cfi_def_cfa %rbp, 16
	callq	DefineThresholdMB.67
	popq	%rbp
	.cfi_def_cfa %rsp, 8
	retq
.LBB1_13:                               # %func_DefineThresholdMB.82
	.cfi_def_cfa %rbp, 16
	callq	DefineThresholdMB.82
	popq	%rbp
	.cfi_def_cfa %rsp, 8
	retq
.LBB1_14:                               # %func_DefineThresholdMB.89
	.cfi_def_cfa %rbp, 16
	callq	DefineThresholdMB.89
	popq	%rbp
	.cfi_def_cfa %rsp, 8
	retq
.LBB1_15:                               # %func_DefineThresholdMB.91
	.cfi_def_cfa %rbp, 16
	callq	DefineThresholdMB.91
	popq	%rbp
	.cfi_def_cfa %rsp, 8
	retq
.LBB1_16:                               # %func_DefineThresholdMB.94
	.cfi_def_cfa %rbp, 16
	callq	DefineThresholdMB.94
	popq	%rbp
	.cfi_def_cfa %rsp, 8
	retq
.LBB1_17:                               # %ctrl0
	.cfi_def_cfa %rbp, 16
	cmpl	$1, %eax
	je	.LBB1_2
# %bb.18:                               # %ctrl1
	cmpl	$2, %eax
	je	.LBB1_3
# %bb.19:                               # %ctrl2
	cmpl	$3, %eax
	je	.LBB1_4
# %bb.20:                               # %ctrl3
	cmpl	$4, %eax
	je	.LBB1_5
# %bb.21:                               # %ctrl4
	cmpl	$5, %eax
	je	.LBB1_6
# %bb.22:                               # %ctrl5
	cmpl	$6, %eax
	je	.LBB1_7
# %bb.23:                               # %ctrl6
	cmpl	$7, %eax
	je	.LBB1_8
# %bb.24:                               # %ctrl7
	cmpl	$8, %eax
	je	.LBB1_9
# %bb.25:                               # %ctrl8
	cmpl	$9, %eax
	je	.LBB1_10
# %bb.26:                               # %ctrl9
	cmpl	$10, %eax
	je	.LBB1_11
# %bb.27:                               # %ctrl10
	cmpl	$11, %eax
	je	.LBB1_12
# %bb.28:                               # %ctrl11
	cmpl	$12, %eax
	je	.LBB1_13
# %bb.29:                               # %ctrl12
	cmpl	$13, %eax
	je	.LBB1_14
# %bb.30:                               # %ctrl13
	cmpl	$14, %eax
	je	.LBB1_15
	jmp	.LBB1_16
.Lfunc_end1:
	.size	DefineThresholdMB, .Lfunc_end1-DefineThresholdMB
	.cfi_endproc
                                        # -- End function
	.globl	get_mem_mincost         # -- Begin function get_mem_mincost
	.p2align	4, 0x90
	.type	get_mem_mincost,@function
get_mem_mincost:                        # @get_mem_mincost
	.cfi_startproc
# %bb.0:                                # %rand_bb
	pushq	%rbp
	.cfi_def_cfa_offset 16
	.cfi_offset %rbp, -16
	movq	%rsp, %rbp
	.cfi_def_cfa_register %rbp
	pushq	%rbx
	pushq	%rax
	.cfi_offset %rbx, -24
	movq	%rdi, %rbx
	callq	get_urand
	cmpl	$0, %eax
	jne	.LBB2_17
# %bb.1:                                # %func_get_mem_mincost.10
	movq	%rbx, %rdi
	callq	get_mem_mincost.10
	addq	$8, %rsp
	popq	%rbx
	popq	%rbp
	.cfi_def_cfa %rsp, 8
	retq
.LBB2_2:                                # %func_get_mem_mincost.22
	.cfi_def_cfa %rbp, 16
	movq	%rbx, %rdi
	callq	get_mem_mincost.22
	addq	$8, %rsp
	popq	%rbx
	popq	%rbp
	.cfi_def_cfa %rsp, 8
	retq
.LBB2_3:                                # %func_get_mem_mincost.53
	.cfi_def_cfa %rbp, 16
	movq	%rbx, %rdi
	callq	get_mem_mincost.53
	addq	$8, %rsp
	popq	%rbx
	popq	%rbp
	.cfi_def_cfa %rsp, 8
	retq
.LBB2_4:                                # %func_get_mem_mincost.92
	.cfi_def_cfa %rbp, 16
	movq	%rbx, %rdi
	callq	get_mem_mincost.92
	addq	$8, %rsp
	popq	%rbx
	popq	%rbp
	.cfi_def_cfa %rsp, 8
	retq
.LBB2_5:                                # %func_get_mem_mincost.102
	.cfi_def_cfa %rbp, 16
	movq	%rbx, %rdi
	callq	get_mem_mincost.102
	addq	$8, %rsp
	popq	%rbx
	popq	%rbp
	.cfi_def_cfa %rsp, 8
	retq
.LBB2_6:                                # %func_get_mem_mincost.103
	.cfi_def_cfa %rbp, 16
	movq	%rbx, %rdi
	callq	get_mem_mincost.103
	addq	$8, %rsp
	popq	%rbx
	popq	%rbp
	.cfi_def_cfa %rsp, 8
	retq
.LBB2_7:                                # %func_get_mem_mincost.115
	.cfi_def_cfa %rbp, 16
	movq	%rbx, %rdi
	callq	get_mem_mincost.115
	addq	$8, %rsp
	popq	%rbx
	popq	%rbp
	.cfi_def_cfa %rsp, 8
	retq
.LBB2_8:                                # %func_get_mem_mincost.117
	.cfi_def_cfa %rbp, 16
	movq	%rbx, %rdi
	callq	get_mem_mincost.117
	addq	$8, %rsp
	popq	%rbx
	popq	%rbp
	.cfi_def_cfa %rsp, 8
	retq
.LBB2_9:                                # %func_get_mem_mincost.122
	.cfi_def_cfa %rbp, 16
	movq	%rbx, %rdi
	callq	get_mem_mincost.122
	addq	$8, %rsp
	popq	%rbx
	popq	%rbp
	.cfi_def_cfa %rsp, 8
	retq
.LBB2_10:                               # %func_get_mem_mincost.154
	.cfi_def_cfa %rbp, 16
	movq	%rbx, %rdi
	callq	get_mem_mincost.154
	addq	$8, %rsp
	popq	%rbx
	popq	%rbp
	.cfi_def_cfa %rsp, 8
	retq
.LBB2_11:                               # %func_get_mem_mincost.155
	.cfi_def_cfa %rbp, 16
	movq	%rbx, %rdi
	callq	get_mem_mincost.155
	addq	$8, %rsp
	popq	%rbx
	popq	%rbp
	.cfi_def_cfa %rsp, 8
	retq
.LBB2_12:                               # %func_get_mem_mincost.156
	.cfi_def_cfa %rbp, 16
	movq	%rbx, %rdi
	callq	get_mem_mincost.156
	addq	$8, %rsp
	popq	%rbx
	popq	%rbp
	.cfi_def_cfa %rsp, 8
	retq
.LBB2_13:                               # %func_get_mem_mincost.157
	.cfi_def_cfa %rbp, 16
	movq	%rbx, %rdi
	callq	get_mem_mincost.157
	addq	$8, %rsp
	popq	%rbx
	popq	%rbp
	.cfi_def_cfa %rsp, 8
	retq
.LBB2_14:                               # %func_get_mem_mincost.158
	.cfi_def_cfa %rbp, 16
	movq	%rbx, %rdi
	callq	get_mem_mincost.158
	addq	$8, %rsp
	popq	%rbx
	popq	%rbp
	.cfi_def_cfa %rsp, 8
	retq
.LBB2_15:                               # %func_get_mem_mincost.159
	.cfi_def_cfa %rbp, 16
	movq	%rbx, %rdi
	callq	get_mem_mincost.159
	addq	$8, %rsp
	popq	%rbx
	popq	%rbp
	.cfi_def_cfa %rsp, 8
	retq
.LBB2_16:                               # %func_get_mem_mincost.160
	.cfi_def_cfa %rbp, 16
	movq	%rbx, %rdi
	callq	get_mem_mincost.160
	addq	$8, %rsp
	popq	%rbx
	popq	%rbp
	.cfi_def_cfa %rsp, 8
	retq
.LBB2_17:                               # %ctrl0
	.cfi_def_cfa %rbp, 16
	cmpl	$1, %eax
	je	.LBB2_2
# %bb.18:                               # %ctrl1
	cmpl	$2, %eax
	je	.LBB2_3
# %bb.19:                               # %ctrl2
	cmpl	$3, %eax
	je	.LBB2_4
# %bb.20:                               # %ctrl3
	cmpl	$4, %eax
	je	.LBB2_5
# %bb.21:                               # %ctrl4
	cmpl	$5, %eax
	je	.LBB2_6
# %bb.22:                               # %ctrl5
	cmpl	$6, %eax
	je	.LBB2_7
# %bb.23:                               # %ctrl6
	cmpl	$7, %eax
	je	.LBB2_8
# %bb.24:                               # %ctrl7
	cmpl	$8, %eax
	je	.LBB2_9
# %bb.25:                               # %ctrl8
	cmpl	$9, %eax
	je	.LBB2_10
# %bb.26:                               # %ctrl9
	cmpl	$10, %eax
	je	.LBB2_11
# %bb.27:                               # %ctrl10
	cmpl	$11, %eax
	je	.LBB2_12
# %bb.28:                               # %ctrl11
	cmpl	$12, %eax
	je	.LBB2_13
# %bb.29:                               # %ctrl12
	cmpl	$13, %eax
	je	.LBB2_14
# %bb.30:                               # %ctrl13
	cmpl	$14, %eax
	je	.LBB2_15
	jmp	.LBB2_16
.Lfunc_end2:
	.size	get_mem_mincost, .Lfunc_end2-get_mem_mincost
	.cfi_endproc
                                        # -- End function
	.globl	get_mem_bwmincost       # -- Begin function get_mem_bwmincost
	.p2align	4, 0x90
	.type	get_mem_bwmincost,@function
get_mem_bwmincost:                      # @get_mem_bwmincost
	.cfi_startproc
# %bb.0:                                # %rand_bb
	pushq	%rbp
	.cfi_def_cfa_offset 16
	.cfi_offset %rbp, -16
	movq	%rsp, %rbp
	.cfi_def_cfa_register %rbp
	pushq	%rbx
	pushq	%rax
	.cfi_offset %rbx, -24
	movq	%rdi, %rbx
	callq	get_urand
	cmpl	$0, %eax
	jne	.LBB3_17
# %bb.1:                                # %func_get_mem_bwmincost.19
	movq	%rbx, %rdi
	callq	get_mem_bwmincost.19
	addq	$8, %rsp
	popq	%rbx
	popq	%rbp
	.cfi_def_cfa %rsp, 8
	retq
.LBB3_2:                                # %func_get_mem_bwmincost.29
	.cfi_def_cfa %rbp, 16
	movq	%rbx, %rdi
	callq	get_mem_bwmincost.29
	addq	$8, %rsp
	popq	%rbx
	popq	%rbp
	.cfi_def_cfa %rsp, 8
	retq
.LBB3_3:                                # %func_get_mem_bwmincost.32
	.cfi_def_cfa %rbp, 16
	movq	%rbx, %rdi
	callq	get_mem_bwmincost.32
	addq	$8, %rsp
	popq	%rbx
	popq	%rbp
	.cfi_def_cfa %rsp, 8
	retq
.LBB3_4:                                # %func_get_mem_bwmincost.51
	.cfi_def_cfa %rbp, 16
	movq	%rbx, %rdi
	callq	get_mem_bwmincost.51
	addq	$8, %rsp
	popq	%rbx
	popq	%rbp
	.cfi_def_cfa %rsp, 8
	retq
.LBB3_5:                                # %func_get_mem_bwmincost.64
	.cfi_def_cfa %rbp, 16
	movq	%rbx, %rdi
	callq	get_mem_bwmincost.64
	addq	$8, %rsp
	popq	%rbx
	popq	%rbp
	.cfi_def_cfa %rsp, 8
	retq
.LBB3_6:                                # %func_get_mem_bwmincost.77
	.cfi_def_cfa %rbp, 16
	movq	%rbx, %rdi
	callq	get_mem_bwmincost.77
	addq	$8, %rsp
	popq	%rbx
	popq	%rbp
	.cfi_def_cfa %rsp, 8
	retq
.LBB3_7:                                # %func_get_mem_bwmincost.88
	.cfi_def_cfa %rbp, 16
	movq	%rbx, %rdi
	callq	get_mem_bwmincost.88
	addq	$8, %rsp
	popq	%rbx
	popq	%rbp
	.cfi_def_cfa %rsp, 8
	retq
.LBB3_8:                                # %func_get_mem_bwmincost.107
	.cfi_def_cfa %rbp, 16
	movq	%rbx, %rdi
	callq	get_mem_bwmincost.107
	addq	$8, %rsp
	popq	%rbx
	popq	%rbp
	.cfi_def_cfa %rsp, 8
	retq
.LBB3_9:                                # %func_get_mem_bwmincost.110
	.cfi_def_cfa %rbp, 16
	movq	%rbx, %rdi
	callq	get_mem_bwmincost.110
	addq	$8, %rsp
	popq	%rbx
	popq	%rbp
	.cfi_def_cfa %rsp, 8
	retq
.LBB3_10:                               # %func_get_mem_bwmincost.119
	.cfi_def_cfa %rbp, 16
	movq	%rbx, %rdi
	callq	get_mem_bwmincost.119
	addq	$8, %rsp
	popq	%rbx
	popq	%rbp
	.cfi_def_cfa %rsp, 8
	retq
.LBB3_11:                               # %func_get_mem_bwmincost.120
	.cfi_def_cfa %rbp, 16
	movq	%rbx, %rdi
	callq	get_mem_bwmincost.120
	addq	$8, %rsp
	popq	%rbx
	popq	%rbp
	.cfi_def_cfa %rsp, 8
	retq
.LBB3_12:                               # %func_get_mem_bwmincost.124
	.cfi_def_cfa %rbp, 16
	movq	%rbx, %rdi
	callq	get_mem_bwmincost.124
	addq	$8, %rsp
	popq	%rbx
	popq	%rbp
	.cfi_def_cfa %rsp, 8
	retq
.LBB3_13:                               # %func_get_mem_bwmincost.126
	.cfi_def_cfa %rbp, 16
	movq	%rbx, %rdi
	callq	get_mem_bwmincost.126
	addq	$8, %rsp
	popq	%rbx
	popq	%rbp
	.cfi_def_cfa %rsp, 8
	retq
.LBB3_14:                               # %func_get_mem_bwmincost.141
	.cfi_def_cfa %rbp, 16
	movq	%rbx, %rdi
	callq	get_mem_bwmincost.141
	addq	$8, %rsp
	popq	%rbx
	popq	%rbp
	.cfi_def_cfa %rsp, 8
	retq
.LBB3_15:                               # %func_get_mem_bwmincost.144
	.cfi_def_cfa %rbp, 16
	movq	%rbx, %rdi
	callq	get_mem_bwmincost.144
	addq	$8, %rsp
	popq	%rbx
	popq	%rbp
	.cfi_def_cfa %rsp, 8
	retq
.LBB3_16:                               # %func_get_mem_bwmincost.145
	.cfi_def_cfa %rbp, 16
	movq	%rbx, %rdi
	callq	get_mem_bwmincost.145
	addq	$8, %rsp
	popq	%rbx
	popq	%rbp
	.cfi_def_cfa %rsp, 8
	retq
.LBB3_17:                               # %ctrl0
	.cfi_def_cfa %rbp, 16
	cmpl	$1, %eax
	je	.LBB3_2
# %bb.18:                               # %ctrl1
	cmpl	$2, %eax
	je	.LBB3_3
# %bb.19:                               # %ctrl2
	cmpl	$3, %eax
	je	.LBB3_4
# %bb.20:                               # %ctrl3
	cmpl	$4, %eax
	je	.LBB3_5
# %bb.21:                               # %ctrl4
	cmpl	$5, %eax
	je	.LBB3_6
# %bb.22:                               # %ctrl5
	cmpl	$6, %eax
	je	.LBB3_7
# %bb.23:                               # %ctrl6
	cmpl	$7, %eax
	je	.LBB3_8
# %bb.24:                               # %ctrl7
	cmpl	$8, %eax
	je	.LBB3_9
# %bb.25:                               # %ctrl8
	cmpl	$9, %eax
	je	.LBB3_10
# %bb.26:                               # %ctrl9
	cmpl	$10, %eax
	je	.LBB3_11
# %bb.27:                               # %ctrl10
	cmpl	$11, %eax
	je	.LBB3_12
# %bb.28:                               # %ctrl11
	cmpl	$12, %eax
	je	.LBB3_13
# %bb.29:                               # %ctrl12
	cmpl	$13, %eax
	je	.LBB3_14
# %bb.30:                               # %ctrl13
	cmpl	$14, %eax
	je	.LBB3_15
	jmp	.LBB3_16
.Lfunc_end3:
	.size	get_mem_bwmincost, .Lfunc_end3-get_mem_bwmincost
	.cfi_endproc
                                        # -- End function
	.globl	get_mem_FME             # -- Begin function get_mem_FME
	.p2align	4, 0x90
	.type	get_mem_FME,@function
get_mem_FME:                            # @get_mem_FME
	.cfi_startproc
# %bb.0:                                # %entry
	pushq	%rbp
	.cfi_def_cfa_offset 16
	.cfi_offset %rbp, -16
	movq	%rsp, %rbp
	.cfi_def_cfa_register %rbp
	subq	$16, %rsp
	movl	$0, -4(%rbp)
	movq	img, %rax
	movl	52(%rax), %eax
	sarl	$4, %eax
	addl	$1, %eax
	movslq	%eax, %rdi
	movl	$4, %esi
	callq	calloc
	xorl	%ecx, %ecx
	movq	%rax, flag_intra
	cmpq	%rax, %rcx
	jne	.LBB4_2
# %bb.1:                                # %if.then
	movabsq	$.L.str.1, %rdi
	callq	no_mem_exit
.LBB4_2:                                # %if.end
	movq	input, %rax
	movl	32(%rax), %esi
	shll	$1, %esi
	addl	$1, %esi
	movq	input, %rax
	movl	32(%rax), %edx
	shll	$1, %edx
	addl	$1, %edx
	movabsq	$McostState, %rdi
	callq	get_mem2Dint
	addl	-4(%rbp), %eax
	movl	%eax, -4(%rbp)
	movabsq	$all_mincost, %rdi
	callq	get_mem_mincost
	addl	-4(%rbp), %eax
	movl	%eax, -4(%rbp)
	movabsq	$all_bwmincost, %rdi
	callq	get_mem_bwmincost
	addl	-4(%rbp), %eax
	movl	%eax, -4(%rbp)
	movabsq	$SearchState, %rdi
	movl	$7, %esi
	movl	$7, %edx
	callq	get_mem2D
	addl	-4(%rbp), %eax
	movl	%eax, -4(%rbp)
	movl	-4(%rbp), %eax
	addq	$16, %rsp
	popq	%rbp
	.cfi_def_cfa %rsp, 8
	retq
.Lfunc_end4:
	.size	get_mem_FME, .Lfunc_end4-get_mem_FME
	.cfi_endproc
                                        # -- End function
	.globl	free_mem_mincost        # -- Begin function free_mem_mincost
	.p2align	4, 0x90
	.type	free_mem_mincost,@function
free_mem_mincost:                       # @free_mem_mincost
	.cfi_startproc
# %bb.0:                                # %rand_bb
	pushq	%rbp
	.cfi_def_cfa_offset 16
	.cfi_offset %rbp, -16
	movq	%rsp, %rbp
	.cfi_def_cfa_register %rbp
	pushq	%rbx
	pushq	%rax
	.cfi_offset %rbx, -24
	movq	%rdi, %rbx
	callq	get_urand
	cmpl	$0, %eax
	jne	.LBB5_17
# %bb.1:                                # %func_free_mem_mincost.11
	movq	%rbx, %rdi
	callq	free_mem_mincost.11
	addq	$8, %rsp
	popq	%rbx
	popq	%rbp
	.cfi_def_cfa %rsp, 8
	retq
.LBB5_2:                                # %func_free_mem_mincost.14
	.cfi_def_cfa %rbp, 16
	movq	%rbx, %rdi
	callq	free_mem_mincost.14
	addq	$8, %rsp
	popq	%rbx
	popq	%rbp
	.cfi_def_cfa %rsp, 8
	retq
.LBB5_3:                                # %func_free_mem_mincost.16
	.cfi_def_cfa %rbp, 16
	movq	%rbx, %rdi
	callq	free_mem_mincost.16
	addq	$8, %rsp
	popq	%rbx
	popq	%rbp
	.cfi_def_cfa %rsp, 8
	retq
.LBB5_4:                                # %func_free_mem_mincost.33
	.cfi_def_cfa %rbp, 16
	movq	%rbx, %rdi
	callq	free_mem_mincost.33
	addq	$8, %rsp
	popq	%rbx
	popq	%rbp
	.cfi_def_cfa %rsp, 8
	retq
.LBB5_5:                                # %func_free_mem_mincost.44
	.cfi_def_cfa %rbp, 16
	movq	%rbx, %rdi
	callq	free_mem_mincost.44
	addq	$8, %rsp
	popq	%rbx
	popq	%rbp
	.cfi_def_cfa %rsp, 8
	retq
.LBB5_6:                                # %func_free_mem_mincost.45
	.cfi_def_cfa %rbp, 16
	movq	%rbx, %rdi
	callq	free_mem_mincost.45
	addq	$8, %rsp
	popq	%rbx
	popq	%rbp
	.cfi_def_cfa %rsp, 8
	retq
.LBB5_7:                                # %func_free_mem_mincost.46
	.cfi_def_cfa %rbp, 16
	movq	%rbx, %rdi
	callq	free_mem_mincost.46
	addq	$8, %rsp
	popq	%rbx
	popq	%rbp
	.cfi_def_cfa %rsp, 8
	retq
.LBB5_8:                                # %func_free_mem_mincost.48
	.cfi_def_cfa %rbp, 16
	movq	%rbx, %rdi
	callq	free_mem_mincost.48
	addq	$8, %rsp
	popq	%rbx
	popq	%rbp
	.cfi_def_cfa %rsp, 8
	retq
.LBB5_9:                                # %func_free_mem_mincost.49
	.cfi_def_cfa %rbp, 16
	movq	%rbx, %rdi
	callq	free_mem_mincost.49
	addq	$8, %rsp
	popq	%rbx
	popq	%rbp
	.cfi_def_cfa %rsp, 8
	retq
.LBB5_10:                               # %func_free_mem_mincost.62
	.cfi_def_cfa %rbp, 16
	movq	%rbx, %rdi
	callq	free_mem_mincost.62
	addq	$8, %rsp
	popq	%rbx
	popq	%rbp
	.cfi_def_cfa %rsp, 8
	retq
.LBB5_11:                               # %func_free_mem_mincost.72
	.cfi_def_cfa %rbp, 16
	movq	%rbx, %rdi
	callq	free_mem_mincost.72
	addq	$8, %rsp
	popq	%rbx
	popq	%rbp
	.cfi_def_cfa %rsp, 8
	retq
.LBB5_12:                               # %func_free_mem_mincost.76
	.cfi_def_cfa %rbp, 16
	movq	%rbx, %rdi
	callq	free_mem_mincost.76
	addq	$8, %rsp
	popq	%rbx
	popq	%rbp
	.cfi_def_cfa %rsp, 8
	retq
.LBB5_13:                               # %func_free_mem_mincost.90
	.cfi_def_cfa %rbp, 16
	movq	%rbx, %rdi
	callq	free_mem_mincost.90
	addq	$8, %rsp
	popq	%rbx
	popq	%rbp
	.cfi_def_cfa %rsp, 8
	retq
.LBB5_14:                               # %func_free_mem_mincost.95
	.cfi_def_cfa %rbp, 16
	movq	%rbx, %rdi
	callq	free_mem_mincost.95
	addq	$8, %rsp
	popq	%rbx
	popq	%rbp
	.cfi_def_cfa %rsp, 8
	retq
.LBB5_15:                               # %func_free_mem_mincost.96
	.cfi_def_cfa %rbp, 16
	movq	%rbx, %rdi
	callq	free_mem_mincost.96
	addq	$8, %rsp
	popq	%rbx
	popq	%rbp
	.cfi_def_cfa %rsp, 8
	retq
.LBB5_16:                               # %func_free_mem_mincost.99
	.cfi_def_cfa %rbp, 16
	movq	%rbx, %rdi
	callq	free_mem_mincost.99
	addq	$8, %rsp
	popq	%rbx
	popq	%rbp
	.cfi_def_cfa %rsp, 8
	retq
.LBB5_17:                               # %ctrl0
	.cfi_def_cfa %rbp, 16
	cmpl	$1, %eax
	je	.LBB5_2
# %bb.18:                               # %ctrl1
	cmpl	$2, %eax
	je	.LBB5_3
# %bb.19:                               # %ctrl2
	cmpl	$3, %eax
	je	.LBB5_4
# %bb.20:                               # %ctrl3
	cmpl	$4, %eax
	je	.LBB5_5
# %bb.21:                               # %ctrl4
	cmpl	$5, %eax
	je	.LBB5_6
# %bb.22:                               # %ctrl5
	cmpl	$6, %eax
	je	.LBB5_7
# %bb.23:                               # %ctrl6
	cmpl	$7, %eax
	je	.LBB5_8
# %bb.24:                               # %ctrl7
	cmpl	$8, %eax
	je	.LBB5_9
# %bb.25:                               # %ctrl8
	cmpl	$9, %eax
	je	.LBB5_10
# %bb.26:                               # %ctrl9
	cmpl	$10, %eax
	je	.LBB5_11
# %bb.27:                               # %ctrl10
	cmpl	$11, %eax
	je	.LBB5_12
# %bb.28:                               # %ctrl11
	cmpl	$12, %eax
	je	.LBB5_13
# %bb.29:                               # %ctrl12
	cmpl	$13, %eax
	je	.LBB5_14
# %bb.30:                               # %ctrl13
	cmpl	$14, %eax
	je	.LBB5_15
	jmp	.LBB5_16
.Lfunc_end5:
	.size	free_mem_mincost, .Lfunc_end5-free_mem_mincost
	.cfi_endproc
                                        # -- End function
	.globl	free_mem_bwmincost      # -- Begin function free_mem_bwmincost
	.p2align	4, 0x90
	.type	free_mem_bwmincost,@function
free_mem_bwmincost:                     # @free_mem_bwmincost
	.cfi_startproc
# %bb.0:                                # %rand_bb
	pushq	%rbp
	.cfi_def_cfa_offset 16
	.cfi_offset %rbp, -16
	movq	%rsp, %rbp
	.cfi_def_cfa_register %rbp
	pushq	%rbx
	pushq	%rax
	.cfi_offset %rbx, -24
	movq	%rdi, %rbx
	callq	get_urand
	cmpl	$0, %eax
	jne	.LBB6_17
# %bb.1:                                # %func_free_mem_bwmincost.7
	movq	%rbx, %rdi
	callq	free_mem_bwmincost.7
	addq	$8, %rsp
	popq	%rbx
	popq	%rbp
	.cfi_def_cfa %rsp, 8
	retq
.LBB6_2:                                # %func_free_mem_bwmincost.12
	.cfi_def_cfa %rbp, 16
	movq	%rbx, %rdi
	callq	free_mem_bwmincost.12
	addq	$8, %rsp
	popq	%rbx
	popq	%rbp
	.cfi_def_cfa %rsp, 8
	retq
.LBB6_3:                                # %func_free_mem_bwmincost.13
	.cfi_def_cfa %rbp, 16
	movq	%rbx, %rdi
	callq	free_mem_bwmincost.13
	addq	$8, %rsp
	popq	%rbx
	popq	%rbp
	.cfi_def_cfa %rsp, 8
	retq
.LBB6_4:                                # %func_free_mem_bwmincost.37
	.cfi_def_cfa %rbp, 16
	movq	%rbx, %rdi
	callq	free_mem_bwmincost.37
	addq	$8, %rsp
	popq	%rbx
	popq	%rbp
	.cfi_def_cfa %rsp, 8
	retq
.LBB6_5:                                # %func_free_mem_bwmincost.57
	.cfi_def_cfa %rbp, 16
	movq	%rbx, %rdi
	callq	free_mem_bwmincost.57
	addq	$8, %rsp
	popq	%rbx
	popq	%rbp
	.cfi_def_cfa %rsp, 8
	retq
.LBB6_6:                                # %func_free_mem_bwmincost.65
	.cfi_def_cfa %rbp, 16
	movq	%rbx, %rdi
	callq	free_mem_bwmincost.65
	addq	$8, %rsp
	popq	%rbx
	popq	%rbp
	.cfi_def_cfa %rsp, 8
	retq
.LBB6_7:                                # %func_free_mem_bwmincost.69
	.cfi_def_cfa %rbp, 16
	movq	%rbx, %rdi
	callq	free_mem_bwmincost.69
	addq	$8, %rsp
	popq	%rbx
	popq	%rbp
	.cfi_def_cfa %rsp, 8
	retq
.LBB6_8:                                # %func_free_mem_bwmincost.86
	.cfi_def_cfa %rbp, 16
	movq	%rbx, %rdi
	callq	free_mem_bwmincost.86
	addq	$8, %rsp
	popq	%rbx
	popq	%rbp
	.cfi_def_cfa %rsp, 8
	retq
.LBB6_9:                                # %func_free_mem_bwmincost.101
	.cfi_def_cfa %rbp, 16
	movq	%rbx, %rdi
	callq	free_mem_bwmincost.101
	addq	$8, %rsp
	popq	%rbx
	popq	%rbp
	.cfi_def_cfa %rsp, 8
	retq
.LBB6_10:                               # %func_free_mem_bwmincost.104
	.cfi_def_cfa %rbp, 16
	movq	%rbx, %rdi
	callq	free_mem_bwmincost.104
	addq	$8, %rsp
	popq	%rbx
	popq	%rbp
	.cfi_def_cfa %rsp, 8
	retq
.LBB6_11:                               # %func_free_mem_bwmincost.108
	.cfi_def_cfa %rbp, 16
	movq	%rbx, %rdi
	callq	free_mem_bwmincost.108
	addq	$8, %rsp
	popq	%rbx
	popq	%rbp
	.cfi_def_cfa %rsp, 8
	retq
.LBB6_12:                               # %func_free_mem_bwmincost.129
	.cfi_def_cfa %rbp, 16
	movq	%rbx, %rdi
	callq	free_mem_bwmincost.129
	addq	$8, %rsp
	popq	%rbx
	popq	%rbp
	.cfi_def_cfa %rsp, 8
	retq
.LBB6_13:                               # %func_free_mem_bwmincost.146
	.cfi_def_cfa %rbp, 16
	movq	%rbx, %rdi
	callq	free_mem_bwmincost.146
	addq	$8, %rsp
	popq	%rbx
	popq	%rbp
	.cfi_def_cfa %rsp, 8
	retq
.LBB6_14:                               # %func_free_mem_bwmincost.148
	.cfi_def_cfa %rbp, 16
	movq	%rbx, %rdi
	callq	free_mem_bwmincost.148
	addq	$8, %rsp
	popq	%rbx
	popq	%rbp
	.cfi_def_cfa %rsp, 8
	retq
.LBB6_15:                               # %func_free_mem_bwmincost.149
	.cfi_def_cfa %rbp, 16
	movq	%rbx, %rdi
	callq	free_mem_bwmincost.149
	addq	$8, %rsp
	popq	%rbx
	popq	%rbp
	.cfi_def_cfa %rsp, 8
	retq
.LBB6_16:                               # %func_free_mem_bwmincost.152
	.cfi_def_cfa %rbp, 16
	movq	%rbx, %rdi
	callq	free_mem_bwmincost.152
	addq	$8, %rsp
	popq	%rbx
	popq	%rbp
	.cfi_def_cfa %rsp, 8
	retq
.LBB6_17:                               # %ctrl0
	.cfi_def_cfa %rbp, 16
	cmpl	$1, %eax
	je	.LBB6_2
# %bb.18:                               # %ctrl1
	cmpl	$2, %eax
	je	.LBB6_3
# %bb.19:                               # %ctrl2
	cmpl	$3, %eax
	je	.LBB6_4
# %bb.20:                               # %ctrl3
	cmpl	$4, %eax
	je	.LBB6_5
# %bb.21:                               # %ctrl4
	cmpl	$5, %eax
	je	.LBB6_6
# %bb.22:                               # %ctrl5
	cmpl	$6, %eax
	je	.LBB6_7
# %bb.23:                               # %ctrl6
	cmpl	$7, %eax
	je	.LBB6_8
# %bb.24:                               # %ctrl7
	cmpl	$8, %eax
	je	.LBB6_9
# %bb.25:                               # %ctrl8
	cmpl	$9, %eax
	je	.LBB6_10
# %bb.26:                               # %ctrl9
	cmpl	$10, %eax
	je	.LBB6_11
# %bb.27:                               # %ctrl10
	cmpl	$11, %eax
	je	.LBB6_12
# %bb.28:                               # %ctrl11
	cmpl	$12, %eax
	je	.LBB6_13
# %bb.29:                               # %ctrl12
	cmpl	$13, %eax
	je	.LBB6_14
# %bb.30:                               # %ctrl13
	cmpl	$14, %eax
	je	.LBB6_15
	jmp	.LBB6_16
.Lfunc_end6:
	.size	free_mem_bwmincost, .Lfunc_end6-free_mem_bwmincost
	.cfi_endproc
                                        # -- End function
	.globl	free_mem_FME            # -- Begin function free_mem_FME
	.p2align	4, 0x90
	.type	free_mem_FME,@function
free_mem_FME:                           # @free_mem_FME
	.cfi_startproc
# %bb.0:                                # %entry
	pushq	%rbp
	.cfi_def_cfa_offset 16
	.cfi_offset %rbp, -16
	movq	%rsp, %rbp
	.cfi_def_cfa_register %rbp
	movq	McostState, %rdi
	callq	free_mem2Dint
	movq	all_mincost, %rdi
	callq	free_mem_mincost
	movq	all_bwmincost, %rdi
	callq	free_mem_bwmincost
	movq	SearchState, %rdi
	callq	free_mem2D
	movq	flag_intra, %rdi
	callq	free
	popq	%rbp
	.cfi_def_cfa %rsp, 8
	retq
.Lfunc_end7:
	.size	free_mem_FME, .Lfunc_end7-free_mem_FME
	.cfi_endproc
                                        # -- End function
	.globl	PartCalMad              # -- Begin function PartCalMad
	.p2align	4, 0x90
	.type	PartCalMad,@function
PartCalMad:                             # @PartCalMad
	.cfi_startproc
# %bb.0:                                # %rand_bb
	pushq	%rbp
	.cfi_def_cfa_offset 16
	.cfi_offset %rbp, -16
	movq	%rsp, %rbp
	.cfi_def_cfa_register %rbp
	pushq	%r15
	pushq	%r14
	pushq	%r13
	pushq	%r12
	pushq	%rbx
	subq	$40, %rsp
	.cfi_offset %rbx, -56
	.cfi_offset %r12, -48
	.cfi_offset %r13, -40
	.cfi_offset %r14, -32
	.cfi_offset %r15, -24
	movl	%r9d, -44(%rbp)         # 4-byte Spill
	movl	%r8d, %r13d
	movl	%ecx, %r15d
	movq	%rdx, %r12
	movq	%rsi, %rbx
	movq	%rdi, %r14
	callq	get_urand
	cmpl	$0, %eax
	jne	.LBB8_17
# %bb.1:                                # %func_PartCalMad.5
	movq	%r14, %rdi
	movq	%rbx, %rsi
	movq	%r12, %rdx
	movl	%r15d, %ecx
	movl	%r13d, %r8d
	movl	-44(%rbp), %r9d         # 4-byte Reload
	movl	16(%rbp), %eax
	movl	%eax, (%rsp)
	movl	24(%rbp), %eax
	movl	%eax, 8(%rsp)
	movl	32(%rbp), %eax
	movl	%eax, 16(%rsp)
	movl	40(%rbp), %eax
	movl	%eax, 24(%rsp)
	callq	PartCalMad.5
	addq	$40, %rsp
	popq	%rbx
	popq	%r12
	popq	%r13
	popq	%r14
	popq	%r15
	popq	%rbp
	.cfi_def_cfa %rsp, 8
	retq
.LBB8_2:                                # %func_PartCalMad.6
	.cfi_def_cfa %rbp, 16
	movl	%r14d, %r9d
	movl	%r11d, (%rsp)
	movl	24(%rbp), %eax
	movl	%eax, 8(%rsp)
	movl	32(%rbp), %eax
	movl	%eax, 16(%rsp)
	movl	40(%rbp), %eax
	movl	%eax, 24(%rsp)
	callq	PartCalMad.6
	addq	$40, %rsp
	popq	%rbx
	popq	%r12
	popq	%r13
	popq	%r14
	popq	%r15
	popq	%rbp
	.cfi_def_cfa %rsp, 8
	retq
.LBB8_3:                                # %func_PartCalMad.23
	.cfi_def_cfa %rbp, 16
	movq	%rbx, %rdi
	movl	%r13d, %r8d
	movl	%r10d, (%rsp)
	movl	24(%rbp), %eax
	movl	%eax, 8(%rsp)
	movl	%r12d, 16(%rsp)
	movl	%r15d, 24(%rsp)
	callq	PartCalMad.23
	addq	$40, %rsp
	popq	%rbx
	popq	%r12
	popq	%r13
	popq	%r14
	popq	%r15
	popq	%rbp
	.cfi_def_cfa %rsp, 8
	retq
.LBB8_4:                                # %func_PartCalMad.24
	.cfi_def_cfa %rbp, 16
	movq	%rbx, %rdi
	movl	%r13d, %r8d
	movl	-44(%rbp), %r9d         # 4-byte Reload
	movl	%r10d, (%rsp)
	movl	24(%rbp), %eax
	movl	%eax, 8(%rsp)
	movl	%r12d, 16(%rsp)
	movl	%r15d, 24(%rsp)
	callq	PartCalMad.24
	addq	$40, %rsp
	popq	%rbx
	popq	%r12
	popq	%r13
	popq	%r14
	popq	%r15
	popq	%rbp
	.cfi_def_cfa %rsp, 8
	retq
.LBB8_5:                                # %func_PartCalMad.38
	.cfi_def_cfa %rbp, 16
	movq	%rbx, %rdi
	movl	%r13d, %r8d
	movl	-44(%rbp), %r9d         # 4-byte Reload
	movl	%r10d, (%rsp)
	movl	24(%rbp), %eax
	movl	%eax, 8(%rsp)
	movl	%r12d, 16(%rsp)
	movl	%r15d, 24(%rsp)
	callq	PartCalMad.38
	addq	$40, %rsp
	popq	%rbx
	popq	%r12
	popq	%r13
	popq	%r14
	popq	%r15
	popq	%rbp
	.cfi_def_cfa %rsp, 8
	retq
.LBB8_6:                                # %func_PartCalMad.39
	.cfi_def_cfa %rbp, 16
	movq	%rbx, %rdi
	movl	%r13d, %r8d
	movl	-44(%rbp), %r9d         # 4-byte Reload
	movl	%r10d, (%rsp)
	movl	24(%rbp), %eax
	movl	%eax, 8(%rsp)
	movl	%r12d, 16(%rsp)
	movl	%r15d, 24(%rsp)
	callq	PartCalMad.39
	addq	$40, %rsp
	popq	%rbx
	popq	%r12
	popq	%r13
	popq	%r14
	popq	%r15
	popq	%rbp
	.cfi_def_cfa %rsp, 8
	retq
.LBB8_7:                                # %func_PartCalMad.78
	.cfi_def_cfa %rbp, 16
	movq	%rbx, %rdi
	movl	%r13d, %r8d
	movl	-44(%rbp), %r9d         # 4-byte Reload
	movl	%r10d, (%rsp)
	movl	24(%rbp), %eax
	movl	%eax, 8(%rsp)
	movl	%r12d, 16(%rsp)
	movl	%r15d, 24(%rsp)
	callq	PartCalMad.78
	addq	$40, %rsp
	popq	%rbx
	popq	%r12
	popq	%r13
	popq	%r14
	popq	%r15
	popq	%rbp
	.cfi_def_cfa %rsp, 8
	retq
.LBB8_8:                                # %func_PartCalMad.80
	.cfi_def_cfa %rbp, 16
	movq	%rbx, %rdi
	movl	%r13d, %r8d
	movl	-44(%rbp), %r9d         # 4-byte Reload
	movl	%r10d, (%rsp)
	movl	24(%rbp), %eax
	movl	%eax, 8(%rsp)
	movl	%r12d, 16(%rsp)
	movl	%r15d, 24(%rsp)
	callq	PartCalMad.80
	addq	$40, %rsp
	popq	%rbx
	popq	%r12
	popq	%r13
	popq	%r14
	popq	%r15
	popq	%rbp
	.cfi_def_cfa %rsp, 8
	retq
.LBB8_9:                                # %func_PartCalMad.81
	.cfi_def_cfa %rbp, 16
	movq	%rbx, %rdi
	movl	%r13d, %r8d
	movl	-44(%rbp), %r9d         # 4-byte Reload
	movl	%r10d, (%rsp)
	movl	24(%rbp), %eax
	movl	%eax, 8(%rsp)
	movl	%r12d, 16(%rsp)
	movl	%r15d, 24(%rsp)
	callq	PartCalMad.81
	addq	$40, %rsp
	popq	%rbx
	popq	%r12
	popq	%r13
	popq	%r14
	popq	%r15
	popq	%rbp
	.cfi_def_cfa %rsp, 8
	retq
.LBB8_10:                               # %func_PartCalMad.98
	.cfi_def_cfa %rbp, 16
	movq	%rbx, %rdi
	movl	%r13d, %r8d
	movl	-44(%rbp), %r9d         # 4-byte Reload
	movl	%r10d, (%rsp)
	movl	24(%rbp), %eax
	movl	%eax, 8(%rsp)
	movl	%r12d, 16(%rsp)
	movl	%r15d, 24(%rsp)
	callq	PartCalMad.98
	addq	$40, %rsp
	popq	%rbx
	popq	%r12
	popq	%r13
	popq	%r14
	popq	%r15
	popq	%rbp
	.cfi_def_cfa %rsp, 8
	retq
.LBB8_11:                               # %func_PartCalMad.100
	.cfi_def_cfa %rbp, 16
	movq	%rbx, %rdi
	movl	%r13d, %r8d
	movl	-44(%rbp), %r9d         # 4-byte Reload
	movl	%r10d, (%rsp)
	movl	24(%rbp), %eax
	movl	%eax, 8(%rsp)
	movl	%r12d, 16(%rsp)
	movl	%r15d, 24(%rsp)
	callq	PartCalMad.100
	addq	$40, %rsp
	popq	%rbx
	popq	%r12
	popq	%r13
	popq	%r14
	popq	%r15
	popq	%rbp
	.cfi_def_cfa %rsp, 8
	retq
.LBB8_12:                               # %func_PartCalMad.118
	.cfi_def_cfa %rbp, 16
	movq	%rbx, %rdi
	movl	%r13d, %r8d
	movl	-44(%rbp), %r9d         # 4-byte Reload
	movl	%r10d, (%rsp)
	movl	24(%rbp), %eax
	movl	%eax, 8(%rsp)
	movl	%r12d, 16(%rsp)
	movl	%r15d, 24(%rsp)
	callq	PartCalMad.118
	addq	$40, %rsp
	popq	%rbx
	popq	%r12
	popq	%r13
	popq	%r14
	popq	%r15
	popq	%rbp
	.cfi_def_cfa %rsp, 8
	retq
.LBB8_13:                               # %func_PartCalMad.131
	.cfi_def_cfa %rbp, 16
	movq	%rbx, %rdi
	movl	%r13d, %r8d
	movl	-44(%rbp), %r9d         # 4-byte Reload
	movl	%r10d, (%rsp)
	movl	24(%rbp), %eax
	movl	%eax, 8(%rsp)
	movl	%r12d, 16(%rsp)
	movl	%r15d, 24(%rsp)
	callq	PartCalMad.131
	addq	$40, %rsp
	popq	%rbx
	popq	%r12
	popq	%r13
	popq	%r14
	popq	%r15
	popq	%rbp
	.cfi_def_cfa %rsp, 8
	retq
.LBB8_14:                               # %func_PartCalMad.133
	.cfi_def_cfa %rbp, 16
	movq	%rbx, %rdi
	movl	%r13d, %r8d
	movl	-44(%rbp), %r9d         # 4-byte Reload
	movl	16(%rbp), %eax
	movl	%eax, (%rsp)
	movl	24(%rbp), %eax
	movl	%eax, 8(%rsp)
	movl	32(%rbp), %eax
	movl	%eax, 16(%rsp)
	movl	40(%rbp), %eax
	movl	%eax, 24(%rsp)
	callq	PartCalMad.133
	addq	$40, %rsp
	popq	%rbx
	popq	%r12
	popq	%r13
	popq	%r14
	popq	%r15
	popq	%rbp
	.cfi_def_cfa %rsp, 8
	retq
.LBB8_15:                               # %func_PartCalMad.134
	.cfi_def_cfa %rbp, 16
	movl	%r14d, %r9d
	movl	%r11d, (%rsp)
	movl	24(%rbp), %eax
	movl	%eax, 8(%rsp)
	movl	32(%rbp), %eax
	movl	%eax, 16(%rsp)
	movl	40(%rbp), %eax
	movl	%eax, 24(%rsp)
	callq	PartCalMad.134
	addq	$40, %rsp
	popq	%rbx
	popq	%r12
	popq	%r13
	popq	%r14
	popq	%r15
	popq	%rbp
	.cfi_def_cfa %rsp, 8
	retq
.LBB8_16:                               # %func_PartCalMad.137
	.cfi_def_cfa %rbp, 16
	movl	%r14d, %r9d
	movl	%r11d, (%rsp)
	movl	24(%rbp), %eax
	movl	%eax, 8(%rsp)
	movl	32(%rbp), %eax
	movl	%eax, 16(%rsp)
	movl	40(%rbp), %eax
	movl	%eax, 24(%rsp)
	callq	PartCalMad.137
	addq	$40, %rsp
	popq	%rbx
	popq	%r12
	popq	%r13
	popq	%r14
	popq	%r15
	popq	%rbp
	.cfi_def_cfa %rsp, 8
	retq
.LBB8_17:                               # %ctrl0
	.cfi_def_cfa %rbp, 16
	movq	%r14, %rdi
	movq	%rbx, %rsi
	movq	%r12, %rdx
	movl	%r15d, %ecx
	movl	%r13d, %r8d
	movl	-44(%rbp), %r14d        # 4-byte Reload
	movl	16(%rbp), %r11d
	cmpl	$1, %eax
	je	.LBB8_2
# %bb.18:                               # %ctrl1
	cmpl	$2, %eax
	movl	40(%rbp), %r15d
	movl	32(%rbp), %r12d
	movl	%r11d, %r10d
	movl	%r14d, %r9d
	movl	%r8d, %r13d
	movq	%rdi, %rbx
	je	.LBB8_3
# %bb.19:                               # %ctrl2
	cmpl	$3, %eax
	je	.LBB8_4
# %bb.20:                               # %ctrl3
	cmpl	$4, %eax
	je	.LBB8_5
# %bb.21:                               # %ctrl4
	cmpl	$5, %eax
	je	.LBB8_6
# %bb.22:                               # %ctrl5
	cmpl	$6, %eax
	je	.LBB8_7
# %bb.23:                               # %ctrl6
	cmpl	$7, %eax
	je	.LBB8_8
# %bb.24:                               # %ctrl7
	cmpl	$8, %eax
	je	.LBB8_9
# %bb.25:                               # %ctrl8
	cmpl	$9, %eax
	je	.LBB8_10
# %bb.26:                               # %ctrl9
	cmpl	$10, %eax
	je	.LBB8_11
# %bb.27:                               # %ctrl10
	cmpl	$11, %eax
	je	.LBB8_12
# %bb.28:                               # %ctrl11
	cmpl	$12, %eax
	je	.LBB8_13
# %bb.29:                               # %ctrl12
	cmpl	$13, %eax
	je	.LBB8_14
# %bb.30:                               # %ctrl13
	cmpl	$14, %eax
	je	.LBB8_15
	jmp	.LBB8_16
.Lfunc_end8:
	.size	PartCalMad, .Lfunc_end8-PartCalMad
	.cfi_endproc
                                        # -- End function
	.globl	FastIntegerPelBlockMotionSearch # -- Begin function FastIntegerPelBlockMotionSearch
	.p2align	4, 0x90
	.type	FastIntegerPelBlockMotionSearch,@function
FastIntegerPelBlockMotionSearch:        # @FastIntegerPelBlockMotionSearch
	.cfi_startproc
# %bb.0:                                # %rand_bb
	pushq	%rbp
	.cfi_def_cfa_offset 16
	.cfi_offset %rbp, -16
	movq	%rsp, %rbp
	.cfi_def_cfa_register %rbp
	pushq	%r15
	pushq	%r14
	pushq	%r13
	pushq	%r12
	pushq	%rbx
	subq	$72, %rsp
	.cfi_offset %rbx, -56
	.cfi_offset %r12, -48
	.cfi_offset %r13, -40
	.cfi_offset %r14, -32
	.cfi_offset %r15, -24
	vmovsd	%xmm0, -56(%rbp)        # 8-byte Spill
	movl	%r9d, -44(%rbp)         # 4-byte Spill
	movl	%r8d, %r15d
	movl	%ecx, %r12d
	movl	%edx, %r13d
	movl	%esi, %r14d
	movq	%rdi, %rbx
	callq	get_urand
	cmpl	$0, %eax
	jne	.LBB9_17
# %bb.1:                                # %func_FastIntegerPelBlockMotionSearch.20
	movq	%rbx, %rdi
	movswl	%r14w, %esi
	movl	%r13d, %edx
	movl	%r12d, %ecx
	movl	%r15d, %r8d
	movl	-44(%rbp), %r9d         # 4-byte Reload
	movswl	16(%rbp), %eax
	movl	%eax, (%rsp)
	movswl	24(%rbp), %eax
	movl	%eax, 8(%rsp)
	movq	32(%rbp), %rax
	movq	%rax, 16(%rsp)
	movq	40(%rbp), %rax
	movq	%rax, 24(%rsp)
	movl	48(%rbp), %eax
	movl	%eax, 32(%rsp)
	movl	56(%rbp), %eax
	movl	%eax, 40(%rsp)
	vmovsd	-56(%rbp), %xmm0        # 8-byte Reload
                                        # xmm0 = mem[0],zero
	callq	FastIntegerPelBlockMotionSearch.20
	addq	$72, %rsp
	popq	%rbx
	popq	%r12
	popq	%r13
	popq	%r14
	popq	%r15
	popq	%rbp
	.cfi_def_cfa %rsp, 8
	retq
.LBB9_2:                                # %func_FastIntegerPelBlockMotionSearch.21
	.cfi_def_cfa %rbp, 16
	movswl	%r14w, %esi
	movl	%r15d, %r8d
	movl	%ebx, %r9d
	movswl	16(%rbp), %eax
	movl	%eax, (%rsp)
	movswl	%r11w, %eax
	movl	%eax, 8(%rsp)
	movq	32(%rbp), %rax
	movq	%rax, 16(%rsp)
	movq	40(%rbp), %rax
	movq	%rax, 24(%rsp)
	movl	48(%rbp), %eax
	movl	%eax, 32(%rsp)
	movl	56(%rbp), %eax
	movl	%eax, 40(%rsp)
	vmovaps	%xmm1, %xmm0
	callq	FastIntegerPelBlockMotionSearch.21
	addq	$72, %rsp
	popq	%rbx
	popq	%r12
	popq	%r13
	popq	%r14
	popq	%r15
	popq	%rbp
	.cfi_def_cfa %rsp, 8
	retq
.LBB9_3:                                # %func_FastIntegerPelBlockMotionSearch.25
	.cfi_def_cfa %rbp, 16
	movw	%si, %r15w
	movswl	%r14w, %esi
	movswl	16(%rbp), %eax
	movl	%eax, (%rsp)
	movswl	%r15w, %eax
	movl	%eax, 8(%rsp)
	movq	%r10, 16(%rsp)
	movq	%r13, 24(%rsp)
	movl	%r12d, 32(%rsp)
	movl	56(%rbp), %eax
	movl	%eax, 40(%rsp)
	callq	FastIntegerPelBlockMotionSearch.25
	addq	$72, %rsp
	popq	%rbx
	popq	%r12
	popq	%r13
	popq	%r14
	popq	%r15
	popq	%rbp
	.cfi_def_cfa %rsp, 8
	retq
.LBB9_4:                                # %func_FastIntegerPelBlockMotionSearch.26
	.cfi_def_cfa %rbp, 16
	movw	%si, %r12w
	movswl	%r14w, %esi
	movl	-48(%rbp), %r8d         # 4-byte Reload
	movl	-44(%rbp), %r9d         # 4-byte Reload
	movswl	16(%rbp), %eax
	movl	%eax, (%rsp)
	movswl	%r12w, %eax
	movl	%eax, 8(%rsp)
	movq	%r10, 16(%rsp)
	movq	%r13, 24(%rsp)
	movl	48(%rbp), %eax
	movl	%eax, 32(%rsp)
	movl	56(%rbp), %eax
	movl	%eax, 40(%rsp)
	callq	FastIntegerPelBlockMotionSearch.26
	addq	$72, %rsp
	popq	%rbx
	popq	%r12
	popq	%r13
	popq	%r14
	popq	%r15
	popq	%rbp
	.cfi_def_cfa %rsp, 8
	retq
.LBB9_5:                                # %func_FastIntegerPelBlockMotionSearch.31
	.cfi_def_cfa %rbp, 16
	movw	%si, %r12w
	movq	%r8, %rdi
	movswl	%r9w, %esi
	movl	-48(%rbp), %r8d         # 4-byte Reload
	movl	-44(%rbp), %r9d         # 4-byte Reload
	movswl	16(%rbp), %eax
	movl	%eax, (%rsp)
	movswl	%r12w, %eax
	movl	%eax, 8(%rsp)
	movq	%r10, 16(%rsp)
	movq	%r13, 24(%rsp)
	movl	48(%rbp), %eax
	movl	%eax, 32(%rsp)
	movl	56(%rbp), %eax
	movl	%eax, 40(%rsp)
	callq	FastIntegerPelBlockMotionSearch.31
	addq	$72, %rsp
	popq	%rbx
	popq	%r12
	popq	%r13
	popq	%r14
	popq	%r15
	popq	%rbp
	.cfi_def_cfa %rsp, 8
	retq
.LBB9_6:                                # %func_FastIntegerPelBlockMotionSearch.40
	.cfi_def_cfa %rbp, 16
	movw	%si, %r12w
	movq	%r8, %rdi
	movswl	%r9w, %esi
	movl	-48(%rbp), %r8d         # 4-byte Reload
	movl	-44(%rbp), %r9d         # 4-byte Reload
	movswl	16(%rbp), %eax
	movl	%eax, (%rsp)
	movswl	%r12w, %eax
	movl	%eax, 8(%rsp)
	movq	%r10, 16(%rsp)
	movq	%r13, 24(%rsp)
	movl	48(%rbp), %eax
	movl	%eax, 32(%rsp)
	movl	56(%rbp), %eax
	movl	%eax, 40(%rsp)
	callq	FastIntegerPelBlockMotionSearch.40
	addq	$72, %rsp
	popq	%rbx
	popq	%r12
	popq	%r13
	popq	%r14
	popq	%r15
	popq	%rbp
	.cfi_def_cfa %rsp, 8
	retq
.LBB9_7:                                # %func_FastIntegerPelBlockMotionSearch.47
	.cfi_def_cfa %rbp, 16
	movw	%si, %r12w
	movq	%r8, %rdi
	movswl	%r9w, %esi
	movl	-48(%rbp), %r8d         # 4-byte Reload
	movl	-44(%rbp), %r9d         # 4-byte Reload
	movswl	16(%rbp), %eax
	movl	%eax, (%rsp)
	movswl	%r12w, %eax
	movl	%eax, 8(%rsp)
	movq	%r10, 16(%rsp)
	movq	%r13, 24(%rsp)
	movl	48(%rbp), %eax
	movl	%eax, 32(%rsp)
	movl	56(%rbp), %eax
	movl	%eax, 40(%rsp)
	callq	FastIntegerPelBlockMotionSearch.47
	addq	$72, %rsp
	popq	%rbx
	popq	%r12
	popq	%r13
	popq	%r14
	popq	%r15
	popq	%rbp
	.cfi_def_cfa %rsp, 8
	retq
.LBB9_8:                                # %func_FastIntegerPelBlockMotionSearch.58
	.cfi_def_cfa %rbp, 16
	movw	%si, %r12w
	movq	%r8, %rdi
	movswl	%r9w, %esi
	movl	-48(%rbp), %r8d         # 4-byte Reload
	movl	-44(%rbp), %r9d         # 4-byte Reload
	movswl	16(%rbp), %eax
	movl	%eax, (%rsp)
	movswl	%r12w, %eax
	movl	%eax, 8(%rsp)
	movq	%r10, 16(%rsp)
	movq	%r13, 24(%rsp)
	movl	48(%rbp), %eax
	movl	%eax, 32(%rsp)
	movl	56(%rbp), %eax
	movl	%eax, 40(%rsp)
	callq	FastIntegerPelBlockMotionSearch.58
	addq	$72, %rsp
	popq	%rbx
	popq	%r12
	popq	%r13
	popq	%r14
	popq	%r15
	popq	%rbp
	.cfi_def_cfa %rsp, 8
	retq
.LBB9_9:                                # %func_FastIntegerPelBlockMotionSearch.60
	.cfi_def_cfa %rbp, 16
	movw	%si, %r12w
	movq	%r8, %rdi
	movswl	%r9w, %esi
	movl	-48(%rbp), %r8d         # 4-byte Reload
	movl	-44(%rbp), %r9d         # 4-byte Reload
	movswl	16(%rbp), %eax
	movl	%eax, (%rsp)
	movswl	%r12w, %eax
	movl	%eax, 8(%rsp)
	movq	%r10, 16(%rsp)
	movq	%r13, 24(%rsp)
	movl	48(%rbp), %eax
	movl	%eax, 32(%rsp)
	movl	56(%rbp), %eax
	movl	%eax, 40(%rsp)
	callq	FastIntegerPelBlockMotionSearch.60
	addq	$72, %rsp
	popq	%rbx
	popq	%r12
	popq	%r13
	popq	%r14
	popq	%r15
	popq	%rbp
	.cfi_def_cfa %rsp, 8
	retq
.LBB9_10:                               # %func_FastIntegerPelBlockMotionSearch.71
	.cfi_def_cfa %rbp, 16
	movw	%si, %r12w
	movq	%r8, %rdi
	movswl	%r9w, %esi
	movl	-48(%rbp), %r8d         # 4-byte Reload
	movl	-44(%rbp), %r9d         # 4-byte Reload
	movswl	16(%rbp), %eax
	movl	%eax, (%rsp)
	movswl	%r12w, %eax
	movl	%eax, 8(%rsp)
	movq	%r10, 16(%rsp)
	movq	%r13, 24(%rsp)
	movl	48(%rbp), %eax
	movl	%eax, 32(%rsp)
	movl	56(%rbp), %eax
	movl	%eax, 40(%rsp)
	callq	FastIntegerPelBlockMotionSearch.71
	addq	$72, %rsp
	popq	%rbx
	popq	%r12
	popq	%r13
	popq	%r14
	popq	%r15
	popq	%rbp
	.cfi_def_cfa %rsp, 8
	retq
.LBB9_11:                               # %func_FastIntegerPelBlockMotionSearch.75
	.cfi_def_cfa %rbp, 16
	movw	%si, %r12w
	movq	%r8, %rdi
	movswl	%r9w, %esi
	movl	-48(%rbp), %r8d         # 4-byte Reload
	movl	-44(%rbp), %r9d         # 4-byte Reload
	movswl	16(%rbp), %eax
	movl	%eax, (%rsp)
	movswl	%r12w, %eax
	movl	%eax, 8(%rsp)
	movq	%r10, 16(%rsp)
	movq	%r13, 24(%rsp)
	movl	48(%rbp), %eax
	movl	%eax, 32(%rsp)
	movl	56(%rbp), %eax
	movl	%eax, 40(%rsp)
	callq	FastIntegerPelBlockMotionSearch.75
	addq	$72, %rsp
	popq	%rbx
	popq	%r12
	popq	%r13
	popq	%r14
	popq	%r15
	popq	%rbp
	.cfi_def_cfa %rsp, 8
	retq
.LBB9_12:                               # %func_FastIntegerPelBlockMotionSearch.87
	.cfi_def_cfa %rbp, 16
	movw	%si, %r12w
	movq	%r8, %rdi
	movswl	%r9w, %esi
	movl	-48(%rbp), %r8d         # 4-byte Reload
	movl	-44(%rbp), %r9d         # 4-byte Reload
	movswl	16(%rbp), %eax
	movl	%eax, (%rsp)
	movswl	%r12w, %eax
	movl	%eax, 8(%rsp)
	movq	%r10, 16(%rsp)
	movq	%r13, 24(%rsp)
	movl	48(%rbp), %eax
	movl	%eax, 32(%rsp)
	movl	56(%rbp), %eax
	movl	%eax, 40(%rsp)
	callq	FastIntegerPelBlockMotionSearch.87
	addq	$72, %rsp
	popq	%rbx
	popq	%r12
	popq	%r13
	popq	%r14
	popq	%r15
	popq	%rbp
	.cfi_def_cfa %rsp, 8
	retq
.LBB9_13:                               # %func_FastIntegerPelBlockMotionSearch.123
	.cfi_def_cfa %rbp, 16
	movw	%si, %r12w
	movq	%r8, %rdi
	movswl	%r9w, %esi
	movl	-48(%rbp), %r8d         # 4-byte Reload
	movl	-44(%rbp), %r9d         # 4-byte Reload
	movswl	16(%rbp), %eax
	movl	%eax, (%rsp)
	movswl	%r12w, %eax
	movl	%eax, 8(%rsp)
	movq	%r10, 16(%rsp)
	movq	%r13, 24(%rsp)
	movl	48(%rbp), %eax
	movl	%eax, 32(%rsp)
	movl	56(%rbp), %eax
	movl	%eax, 40(%rsp)
	callq	FastIntegerPelBlockMotionSearch.123
	addq	$72, %rsp
	popq	%rbx
	popq	%r12
	popq	%r13
	popq	%r14
	popq	%r15
	popq	%rbp
	.cfi_def_cfa %rsp, 8
	retq
.LBB9_14:                               # %func_FastIntegerPelBlockMotionSearch.128
	.cfi_def_cfa %rbp, 16
	movq	%r8, %rdi
	movswl	%r9w, %esi
	movl	-48(%rbp), %r8d         # 4-byte Reload
	movl	-44(%rbp), %r9d         # 4-byte Reload
	movswl	16(%rbp), %eax
	movl	%eax, (%rsp)
	movswl	24(%rbp), %eax
	movl	%eax, 8(%rsp)
	movq	32(%rbp), %rax
	movq	%rax, 16(%rsp)
	movq	40(%rbp), %rax
	movq	%rax, 24(%rsp)
	movl	48(%rbp), %eax
	movl	%eax, 32(%rsp)
	movl	56(%rbp), %eax
	movl	%eax, 40(%rsp)
	callq	FastIntegerPelBlockMotionSearch.128
	addq	$72, %rsp
	popq	%rbx
	popq	%r12
	popq	%r13
	popq	%r14
	popq	%r15
	popq	%rbp
	.cfi_def_cfa %rsp, 8
	retq
.LBB9_15:                               # %func_FastIntegerPelBlockMotionSearch.140
	.cfi_def_cfa %rbp, 16
	movswl	%r14w, %esi
	movl	%r15d, %r8d
	movl	%ebx, %r9d
	movswl	16(%rbp), %eax
	movl	%eax, (%rsp)
	movswl	%r11w, %eax
	movl	%eax, 8(%rsp)
	movq	32(%rbp), %rax
	movq	%rax, 16(%rsp)
	movq	40(%rbp), %rax
	movq	%rax, 24(%rsp)
	movl	48(%rbp), %eax
	movl	%eax, 32(%rsp)
	movl	56(%rbp), %eax
	movl	%eax, 40(%rsp)
	vmovaps	%xmm1, %xmm0
	callq	FastIntegerPelBlockMotionSearch.140
	addq	$72, %rsp
	popq	%rbx
	popq	%r12
	popq	%r13
	popq	%r14
	popq	%r15
	popq	%rbp
	.cfi_def_cfa %rsp, 8
	retq
.LBB9_16:                               # %func_FastIntegerPelBlockMotionSearch.147
	.cfi_def_cfa %rbp, 16
	movswl	%r14w, %esi
	movl	%r15d, %r8d
	movl	%ebx, %r9d
	movswl	16(%rbp), %eax
	movl	%eax, (%rsp)
	movswl	%r11w, %eax
	movl	%eax, 8(%rsp)
	movq	32(%rbp), %rax
	movq	%rax, 16(%rsp)
	movq	40(%rbp), %rax
	movq	%rax, 24(%rsp)
	movl	48(%rbp), %eax
	movl	%eax, 32(%rsp)
	movl	56(%rbp), %eax
	movl	%eax, 40(%rsp)
	vmovaps	%xmm1, %xmm0
	callq	FastIntegerPelBlockMotionSearch.147
	addq	$72, %rsp
	popq	%rbx
	popq	%r12
	popq	%r13
	popq	%r14
	popq	%r15
	popq	%rbp
	.cfi_def_cfa %rsp, 8
	retq
.LBB9_17:                               # %ctrl0
	.cfi_def_cfa %rbp, 16
	movq	%rbx, %rdi
	movl	%r13d, %edx
	movl	%r12d, %ecx
	movl	-44(%rbp), %ebx         # 4-byte Reload
	movw	24(%rbp), %r11w
	vmovsd	-56(%rbp), %xmm1        # 8-byte Reload
                                        # xmm1 = mem[0],zero
	cmpl	$1, %eax
	je	.LBB9_2
# %bb.18:                               # %ctrl1
	cmpl	$2, %eax
	vmovaps	%xmm1, %xmm0
	movl	48(%rbp), %r12d
	movq	40(%rbp), %r13
	movq	32(%rbp), %r10
	movw	%r11w, %si
	movl	%ebx, %r9d
	movl	%r15d, %r8d
	je	.LBB9_3
# %bb.19:                               # %ctrl2
	movl	%r8d, -48(%rbp)         # 4-byte Spill
	cmpl	$3, %eax
	je	.LBB9_4
# %bb.20:                               # %ctrl3
	cmpl	$4, %eax
	movl	%r14d, %r9d
	movq	%rdi, %r8
	je	.LBB9_5
# %bb.21:                               # %ctrl4
	cmpl	$5, %eax
	je	.LBB9_6
# %bb.22:                               # %ctrl5
	cmpl	$6, %eax
	je	.LBB9_7
# %bb.23:                               # %ctrl6
	cmpl	$7, %eax
	je	.LBB9_8
# %bb.24:                               # %ctrl7
	cmpl	$8, %eax
	je	.LBB9_9
# %bb.25:                               # %ctrl8
	cmpl	$9, %eax
	je	.LBB9_10
# %bb.26:                               # %ctrl9
	cmpl	$10, %eax
	je	.LBB9_11
# %bb.27:                               # %ctrl10
	cmpl	$11, %eax
	je	.LBB9_12
# %bb.28:                               # %ctrl11
	cmpl	$12, %eax
	je	.LBB9_13
# %bb.29:                               # %ctrl12
	cmpl	$13, %eax
	je	.LBB9_14
# %bb.30:                               # %ctrl13
	cmpl	$14, %eax
	je	.LBB9_15
	jmp	.LBB9_16
.Lfunc_end9:
	.size	FastIntegerPelBlockMotionSearch, .Lfunc_end9-FastIntegerPelBlockMotionSearch
	.cfi_endproc
                                        # -- End function
	.globl	AddUpSADQuarter         # -- Begin function AddUpSADQuarter
	.p2align	4, 0x90
	.type	AddUpSADQuarter,@function
AddUpSADQuarter:                        # @AddUpSADQuarter
	.cfi_startproc
# %bb.0:                                # %rand_bb
	pushq	%rbp
	.cfi_def_cfa_offset 16
	.cfi_offset %rbp, -16
	movq	%rsp, %rbp
	.cfi_def_cfa_register %rbp
	pushq	%r15
	pushq	%r14
	pushq	%r13
	pushq	%r12
	pushq	%rbx
	subq	$56, %rsp
	.cfi_offset %rbx, -56
	.cfi_offset %r12, -48
	.cfi_offset %r13, -40
	.cfi_offset %r14, -32
	.cfi_offset %r15, -24
	movl	%r9d, -44(%rbp)         # 4-byte Spill
	movl	%r8d, %r15d
	movl	%ecx, %r12d
	movl	%edx, %r13d
	movl	%esi, %r14d
	movl	%edi, %ebx
	callq	get_urand
	cmpl	$0, %eax
	jne	.LBB10_17
# %bb.1:                                # %func_AddUpSADQuarter.4
	movl	%ebx, %edi
	movl	%r14d, %esi
	movl	%r13d, %edx
	movl	%r12d, %ecx
	movl	%r15d, %r8d
	movl	-44(%rbp), %r9d         # 4-byte Reload
	movq	16(%rbp), %rax
	movq	%rax, (%rsp)
	movq	24(%rbp), %rax
	movq	%rax, 8(%rsp)
	movl	32(%rbp), %eax
	movl	%eax, 16(%rsp)
	movl	40(%rbp), %eax
	movl	%eax, 24(%rsp)
	movl	48(%rbp), %eax
	movl	%eax, 32(%rsp)
	callq	AddUpSADQuarter.4
	addq	$56, %rsp
	popq	%rbx
	popq	%r12
	popq	%r13
	popq	%r14
	popq	%r15
	popq	%rbp
	.cfi_def_cfa %rsp, 8
	retq
.LBB10_2:                               # %func_AddUpSADQuarter.8
	.cfi_def_cfa %rbp, 16
	movl	%r15d, %r8d
	movl	%ebx, %r9d
	movq	%r13, (%rsp)
	movq	24(%rbp), %rax
	movq	%rax, 8(%rsp)
	movl	32(%rbp), %eax
	movl	%eax, 16(%rsp)
	movl	40(%rbp), %eax
	movl	%eax, 24(%rsp)
	movl	48(%rbp), %eax
	movl	%eax, 32(%rsp)
	callq	AddUpSADQuarter.8
	addq	$56, %rsp
	popq	%rbx
	popq	%r12
	popq	%r13
	popq	%r14
	popq	%r15
	popq	%rbp
	.cfi_def_cfa %rsp, 8
	retq
.LBB10_3:                               # %func_AddUpSADQuarter.41
	.cfi_def_cfa %rbp, 16
	movq	%r11, (%rsp)
	movq	%r10, 8(%rsp)
	movl	32(%rbp), %eax
	movl	%eax, 16(%rsp)
	movl	%r12d, 24(%rsp)
	movl	%r14d, 32(%rsp)
	callq	AddUpSADQuarter.41
	addq	$56, %rsp
	popq	%rbx
	popq	%r12
	popq	%r13
	popq	%r14
	popq	%r15
	popq	%rbp
	.cfi_def_cfa %rsp, 8
	retq
.LBB10_4:                               # %func_AddUpSADQuarter.54
	.cfi_def_cfa %rbp, 16
	movl	-48(%rbp), %r8d         # 4-byte Reload
	movl	-44(%rbp), %r9d         # 4-byte Reload
	movq	%r11, (%rsp)
	movq	%r10, 8(%rsp)
	movl	32(%rbp), %eax
	movl	%eax, 16(%rsp)
	movl	%r12d, 24(%rsp)
	movl	48(%rbp), %eax
	movl	%eax, 32(%rsp)
	callq	AddUpSADQuarter.54
	addq	$56, %rsp
	popq	%rbx
	popq	%r12
	popq	%r13
	popq	%r14
	popq	%r15
	popq	%rbp
	.cfi_def_cfa %rsp, 8
	retq
.LBB10_5:                               # %func_AddUpSADQuarter.55
	.cfi_def_cfa %rbp, 16
	movl	%r9d, %esi
	movl	-48(%rbp), %r8d         # 4-byte Reload
	movl	-44(%rbp), %r9d         # 4-byte Reload
	movq	%r11, (%rsp)
	movq	%r10, 8(%rsp)
	movl	32(%rbp), %eax
	movl	%eax, 16(%rsp)
	movl	%r12d, 24(%rsp)
	movl	48(%rbp), %eax
	movl	%eax, 32(%rsp)
	callq	AddUpSADQuarter.55
	addq	$56, %rsp
	popq	%rbx
	popq	%r12
	popq	%r13
	popq	%r14
	popq	%r15
	popq	%rbp
	.cfi_def_cfa %rsp, 8
	retq
.LBB10_6:                               # %func_AddUpSADQuarter.56
	.cfi_def_cfa %rbp, 16
	movl	%r9d, %esi
	movl	-48(%rbp), %r8d         # 4-byte Reload
	movl	-44(%rbp), %r9d         # 4-byte Reload
	movq	%r11, (%rsp)
	movq	%r10, 8(%rsp)
	movl	32(%rbp), %eax
	movl	%eax, 16(%rsp)
	movl	%r12d, 24(%rsp)
	movl	48(%rbp), %eax
	movl	%eax, 32(%rsp)
	callq	AddUpSADQuarter.56
	addq	$56, %rsp
	popq	%rbx
	popq	%r12
	popq	%r13
	popq	%r14
	popq	%r15
	popq	%rbp
	.cfi_def_cfa %rsp, 8
	retq
.LBB10_7:                               # %func_AddUpSADQuarter.59
	.cfi_def_cfa %rbp, 16
	movl	%r9d, %esi
	movl	-48(%rbp), %r8d         # 4-byte Reload
	movl	-44(%rbp), %r9d         # 4-byte Reload
	movq	%r11, (%rsp)
	movq	%r10, 8(%rsp)
	movl	32(%rbp), %eax
	movl	%eax, 16(%rsp)
	movl	%r12d, 24(%rsp)
	movl	48(%rbp), %eax
	movl	%eax, 32(%rsp)
	callq	AddUpSADQuarter.59
	addq	$56, %rsp
	popq	%rbx
	popq	%r12
	popq	%r13
	popq	%r14
	popq	%r15
	popq	%rbp
	.cfi_def_cfa %rsp, 8
	retq
.LBB10_8:                               # %func_AddUpSADQuarter.70
	.cfi_def_cfa %rbp, 16
	movl	%r9d, %esi
	movl	-48(%rbp), %r8d         # 4-byte Reload
	movl	-44(%rbp), %r9d         # 4-byte Reload
	movq	%r11, (%rsp)
	movq	%r10, 8(%rsp)
	movl	32(%rbp), %eax
	movl	%eax, 16(%rsp)
	movl	%r12d, 24(%rsp)
	movl	48(%rbp), %eax
	movl	%eax, 32(%rsp)
	callq	AddUpSADQuarter.70
	addq	$56, %rsp
	popq	%rbx
	popq	%r12
	popq	%r13
	popq	%r14
	popq	%r15
	popq	%rbp
	.cfi_def_cfa %rsp, 8
	retq
.LBB10_9:                               # %func_AddUpSADQuarter.74
	.cfi_def_cfa %rbp, 16
	movl	%r9d, %esi
	movl	-48(%rbp), %r8d         # 4-byte Reload
	movl	-44(%rbp), %r9d         # 4-byte Reload
	movq	%r11, (%rsp)
	movq	%r10, 8(%rsp)
	movl	32(%rbp), %eax
	movl	%eax, 16(%rsp)
	movl	%r12d, 24(%rsp)
	movl	48(%rbp), %eax
	movl	%eax, 32(%rsp)
	callq	AddUpSADQuarter.74
	addq	$56, %rsp
	popq	%rbx
	popq	%r12
	popq	%r13
	popq	%r14
	popq	%r15
	popq	%rbp
	.cfi_def_cfa %rsp, 8
	retq
.LBB10_10:                              # %func_AddUpSADQuarter.83
	.cfi_def_cfa %rbp, 16
	movl	%r9d, %esi
	movl	-48(%rbp), %r8d         # 4-byte Reload
	movl	-44(%rbp), %r9d         # 4-byte Reload
	movq	%r11, (%rsp)
	movq	%r10, 8(%rsp)
	movl	32(%rbp), %eax
	movl	%eax, 16(%rsp)
	movl	%r12d, 24(%rsp)
	movl	48(%rbp), %eax
	movl	%eax, 32(%rsp)
	callq	AddUpSADQuarter.83
	addq	$56, %rsp
	popq	%rbx
	popq	%r12
	popq	%r13
	popq	%r14
	popq	%r15
	popq	%rbp
	.cfi_def_cfa %rsp, 8
	retq
.LBB10_11:                              # %func_AddUpSADQuarter.84
	.cfi_def_cfa %rbp, 16
	movl	%r9d, %esi
	movl	-48(%rbp), %r8d         # 4-byte Reload
	movl	-44(%rbp), %r9d         # 4-byte Reload
	movq	%r11, (%rsp)
	movq	%r10, 8(%rsp)
	movl	32(%rbp), %eax
	movl	%eax, 16(%rsp)
	movl	%r12d, 24(%rsp)
	movl	48(%rbp), %eax
	movl	%eax, 32(%rsp)
	callq	AddUpSADQuarter.84
	addq	$56, %rsp
	popq	%rbx
	popq	%r12
	popq	%r13
	popq	%r14
	popq	%r15
	popq	%rbp
	.cfi_def_cfa %rsp, 8
	retq
.LBB10_12:                              # %func_AddUpSADQuarter.109
	.cfi_def_cfa %rbp, 16
	movl	%r9d, %esi
	movl	-48(%rbp), %r8d         # 4-byte Reload
	movl	-44(%rbp), %r9d         # 4-byte Reload
	movq	%r11, (%rsp)
	movq	%r10, 8(%rsp)
	movl	32(%rbp), %eax
	movl	%eax, 16(%rsp)
	movl	%r12d, 24(%rsp)
	movl	48(%rbp), %eax
	movl	%eax, 32(%rsp)
	callq	AddUpSADQuarter.109
	addq	$56, %rsp
	popq	%rbx
	popq	%r12
	popq	%r13
	popq	%r14
	popq	%r15
	popq	%rbp
	.cfi_def_cfa %rsp, 8
	retq
.LBB10_13:                              # %func_AddUpSADQuarter.112
	.cfi_def_cfa %rbp, 16
	movl	%r9d, %esi
	movl	-48(%rbp), %r8d         # 4-byte Reload
	movl	-44(%rbp), %r9d         # 4-byte Reload
	movq	%r11, (%rsp)
	movq	%r10, 8(%rsp)
	movl	32(%rbp), %eax
	movl	%eax, 16(%rsp)
	movl	%r12d, 24(%rsp)
	movl	48(%rbp), %eax
	movl	%eax, 32(%rsp)
	callq	AddUpSADQuarter.112
	addq	$56, %rsp
	popq	%rbx
	popq	%r12
	popq	%r13
	popq	%r14
	popq	%r15
	popq	%rbp
	.cfi_def_cfa %rsp, 8
	retq
.LBB10_14:                              # %func_AddUpSADQuarter.116
	.cfi_def_cfa %rbp, 16
	movl	%r9d, %esi
	movl	-48(%rbp), %r8d         # 4-byte Reload
	movl	-44(%rbp), %r9d         # 4-byte Reload
	movq	16(%rbp), %rax
	movq	%rax, (%rsp)
	movq	24(%rbp), %rax
	movq	%rax, 8(%rsp)
	movl	32(%rbp), %eax
	movl	%eax, 16(%rsp)
	movl	40(%rbp), %eax
	movl	%eax, 24(%rsp)
	movl	48(%rbp), %eax
	movl	%eax, 32(%rsp)
	callq	AddUpSADQuarter.116
	addq	$56, %rsp
	popq	%rbx
	popq	%r12
	popq	%r13
	popq	%r14
	popq	%r15
	popq	%rbp
	.cfi_def_cfa %rsp, 8
	retq
.LBB10_15:                              # %func_AddUpSADQuarter.121
	.cfi_def_cfa %rbp, 16
	movl	%r15d, %r8d
	movl	%ebx, %r9d
	movq	%r13, (%rsp)
	movq	24(%rbp), %rax
	movq	%rax, 8(%rsp)
	movl	32(%rbp), %eax
	movl	%eax, 16(%rsp)
	movl	40(%rbp), %eax
	movl	%eax, 24(%rsp)
	movl	48(%rbp), %eax
	movl	%eax, 32(%rsp)
	callq	AddUpSADQuarter.121
	addq	$56, %rsp
	popq	%rbx
	popq	%r12
	popq	%r13
	popq	%r14
	popq	%r15
	popq	%rbp
	.cfi_def_cfa %rsp, 8
	retq
.LBB10_16:                              # %func_AddUpSADQuarter.136
	.cfi_def_cfa %rbp, 16
	movl	%r15d, %r8d
	movl	%ebx, %r9d
	movq	%r13, (%rsp)
	movq	24(%rbp), %rax
	movq	%rax, 8(%rsp)
	movl	32(%rbp), %eax
	movl	%eax, 16(%rsp)
	movl	40(%rbp), %eax
	movl	%eax, 24(%rsp)
	movl	48(%rbp), %eax
	movl	%eax, 32(%rsp)
	callq	AddUpSADQuarter.136
	addq	$56, %rsp
	popq	%rbx
	popq	%r12
	popq	%r13
	popq	%r14
	popq	%r15
	popq	%rbp
	.cfi_def_cfa %rsp, 8
	retq
.LBB10_17:                              # %ctrl0
	.cfi_def_cfa %rbp, 16
	movl	%ebx, %edi
	movl	%r14d, %esi
	movl	%r13d, %edx
	movl	%r12d, %ecx
	movl	-44(%rbp), %ebx         # 4-byte Reload
	movq	16(%rbp), %r13
	cmpl	$1, %eax
	je	.LBB10_2
# %bb.18:                               # %ctrl1
	cmpl	$2, %eax
	movl	48(%rbp), %r14d
	movl	40(%rbp), %r12d
	movq	24(%rbp), %r10
	movq	%r13, %r11
	movl	%ebx, %r9d
	movl	%r15d, %r8d
	je	.LBB10_3
# %bb.19:                               # %ctrl2
	movl	%r8d, -48(%rbp)         # 4-byte Spill
	cmpl	$3, %eax
	je	.LBB10_4
# %bb.20:                               # %ctrl3
	cmpl	$4, %eax
	movl	%esi, %r9d
	je	.LBB10_5
# %bb.21:                               # %ctrl4
	cmpl	$5, %eax
	je	.LBB10_6
# %bb.22:                               # %ctrl5
	cmpl	$6, %eax
	je	.LBB10_7
# %bb.23:                               # %ctrl6
	cmpl	$7, %eax
	je	.LBB10_8
# %bb.24:                               # %ctrl7
	cmpl	$8, %eax
	je	.LBB10_9
# %bb.25:                               # %ctrl8
	cmpl	$9, %eax
	je	.LBB10_10
# %bb.26:                               # %ctrl9
	cmpl	$10, %eax
	je	.LBB10_11
# %bb.27:                               # %ctrl10
	cmpl	$11, %eax
	je	.LBB10_12
# %bb.28:                               # %ctrl11
	cmpl	$12, %eax
	je	.LBB10_13
# %bb.29:                               # %ctrl12
	cmpl	$13, %eax
	je	.LBB10_14
# %bb.30:                               # %ctrl13
	cmpl	$14, %eax
	je	.LBB10_15
	jmp	.LBB10_16
.Lfunc_end10:
	.size	AddUpSADQuarter, .Lfunc_end10-AddUpSADQuarter
	.cfi_endproc
                                        # -- End function
	.globl	FastSubPelBlockMotionSearch # -- Begin function FastSubPelBlockMotionSearch
	.p2align	4, 0x90
	.type	FastSubPelBlockMotionSearch,@function
FastSubPelBlockMotionSearch:            # @FastSubPelBlockMotionSearch
	.cfi_startproc
# %bb.0:                                # %rand_bb
	pushq	%rbp
	.cfi_def_cfa_offset 16
	.cfi_offset %rbp, -16
	movq	%rsp, %rbp
	.cfi_def_cfa_register %rbp
	pushq	%r15
	pushq	%r14
	pushq	%r13
	pushq	%r12
	pushq	%rbx
	subq	$88, %rsp
	.cfi_offset %rbx, -56
	.cfi_offset %r12, -48
	.cfi_offset %r13, -40
	.cfi_offset %r14, -32
	.cfi_offset %r15, -24
	vmovsd	%xmm0, -56(%rbp)        # 8-byte Spill
	movl	%r9d, -44(%rbp)         # 4-byte Spill
	movl	%r8d, %r12d
	movl	%ecx, %r13d
	movl	%edx, %r14d
	movl	%esi, %ebx
	movq	%rdi, %r15
	callq	get_urand
	cmpl	$0, %eax
	jne	.LBB11_17
# %bb.1:                                # %func_FastSubPelBlockMotionSearch.18
	movq	%r15, %rdi
	movswl	%bx, %esi
	movl	%r14d, %edx
	movl	%r13d, %ecx
	movl	%r12d, %r8d
	movl	-44(%rbp), %r9d         # 4-byte Reload
	movswl	16(%rbp), %eax
	movl	%eax, (%rsp)
	movswl	24(%rbp), %eax
	movl	%eax, 8(%rsp)
	movq	32(%rbp), %rax
	movq	%rax, 16(%rsp)
	movq	40(%rbp), %rax
	movq	%rax, 24(%rsp)
	movl	48(%rbp), %eax
	movl	%eax, 32(%rsp)
	movl	56(%rbp), %eax
	movl	%eax, 40(%rsp)
	movl	64(%rbp), %eax
	movl	%eax, 48(%rsp)
	vmovsd	-56(%rbp), %xmm0        # 8-byte Reload
                                        # xmm0 = mem[0],zero
	movl	72(%rbp), %eax
	movl	%eax, 56(%rsp)
	callq	FastSubPelBlockMotionSearch.18
	addq	$88, %rsp
	popq	%rbx
	popq	%r12
	popq	%r13
	popq	%r14
	popq	%r15
	popq	%rbp
	.cfi_def_cfa %rsp, 8
	retq
.LBB11_2:                               # %func_FastSubPelBlockMotionSearch.34
	.cfi_def_cfa %rbp, 16
	movswl	%bx, %esi
	movl	%r12d, %r8d
	movl	%r15d, %r9d
	movswl	16(%rbp), %eax
	movl	%eax, (%rsp)
	movswl	24(%rbp), %eax
	movl	%eax, 8(%rsp)
	movq	32(%rbp), %rax
	movq	%rax, 16(%rsp)
	movq	%r11, 24(%rsp)
	movl	48(%rbp), %eax
	movl	%eax, 32(%rsp)
	movl	56(%rbp), %eax
	movl	%eax, 40(%rsp)
	movl	64(%rbp), %eax
	movl	%eax, 48(%rsp)
	vmovaps	%xmm1, %xmm0
	movl	72(%rbp), %eax
	movl	%eax, 56(%rsp)
	callq	FastSubPelBlockMotionSearch.34
	addq	$88, %rsp
	popq	%rbx
	popq	%r12
	popq	%r13
	popq	%r14
	popq	%r15
	popq	%rbp
	.cfi_def_cfa %rsp, 8
	retq
.LBB11_3:                               # %func_FastSubPelBlockMotionSearch.36
	.cfi_def_cfa %rbp, 16
	movq	%rsi, %r12
	movswl	%bx, %esi
	movswl	16(%rbp), %eax
	movl	%eax, (%rsp)
	movswl	24(%rbp), %eax
	movl	%eax, 8(%rsp)
	movq	32(%rbp), %rax
	movq	%rax, 16(%rsp)
	movq	%r12, 24(%rsp)
	movl	%r10d, 32(%rsp)
	movl	%r13d, 40(%rsp)
	movl	%r14d, 48(%rsp)
	movl	72(%rbp), %eax
	movl	%eax, 56(%rsp)
	callq	FastSubPelBlockMotionSearch.36
	addq	$88, %rsp
	popq	%rbx
	popq	%r12
	popq	%r13
	popq	%r14
	popq	%r15
	popq	%rbp
	.cfi_def_cfa %rsp, 8
	retq
.LBB11_4:                               # %func_FastSubPelBlockMotionSearch.68
	.cfi_def_cfa %rbp, 16
	movq	%rsi, %r12
	movswl	%bx, %esi
	movl	-48(%rbp), %r8d         # 4-byte Reload
	movl	-44(%rbp), %r9d         # 4-byte Reload
	movswl	16(%rbp), %eax
	movl	%eax, (%rsp)
	movswl	24(%rbp), %eax
	movl	%eax, 8(%rsp)
	movq	32(%rbp), %rax
	movq	%rax, 16(%rsp)
	movq	%r12, 24(%rsp)
	movl	%r10d, 32(%rsp)
	movl	%r13d, 40(%rsp)
	movl	%r14d, 48(%rsp)
	movl	72(%rbp), %eax
	movl	%eax, 56(%rsp)
	callq	FastSubPelBlockMotionSearch.68
	addq	$88, %rsp
	popq	%rbx
	popq	%r12
	popq	%r13
	popq	%r14
	popq	%r15
	popq	%rbp
	.cfi_def_cfa %rsp, 8
	retq
.LBB11_5:                               # %func_FastSubPelBlockMotionSearch.79
	.cfi_def_cfa %rbp, 16
	movq	%rsi, %r12
	movq	%r8, %rdi
	movswl	%r9w, %esi
	movl	-48(%rbp), %r8d         # 4-byte Reload
	movl	-44(%rbp), %r9d         # 4-byte Reload
	movswl	16(%rbp), %eax
	movl	%eax, (%rsp)
	movswl	24(%rbp), %eax
	movl	%eax, 8(%rsp)
	movq	32(%rbp), %rax
	movq	%rax, 16(%rsp)
	movq	%r12, 24(%rsp)
	movl	%r10d, 32(%rsp)
	movl	%r13d, 40(%rsp)
	movl	%r14d, 48(%rsp)
	movl	72(%rbp), %eax
	movl	%eax, 56(%rsp)
	callq	FastSubPelBlockMotionSearch.79
	addq	$88, %rsp
	popq	%rbx
	popq	%r12
	popq	%r13
	popq	%r14
	popq	%r15
	popq	%rbp
	.cfi_def_cfa %rsp, 8
	retq
.LBB11_6:                               # %func_FastSubPelBlockMotionSearch.85
	.cfi_def_cfa %rbp, 16
	movq	%rsi, %r12
	movq	%r8, %rdi
	movswl	%r9w, %esi
	movl	-48(%rbp), %r8d         # 4-byte Reload
	movl	-44(%rbp), %r9d         # 4-byte Reload
	movswl	16(%rbp), %eax
	movl	%eax, (%rsp)
	movswl	24(%rbp), %eax
	movl	%eax, 8(%rsp)
	movq	32(%rbp), %rax
	movq	%rax, 16(%rsp)
	movq	%r12, 24(%rsp)
	movl	%r10d, 32(%rsp)
	movl	%r13d, 40(%rsp)
	movl	%r14d, 48(%rsp)
	movl	72(%rbp), %eax
	movl	%eax, 56(%rsp)
	callq	FastSubPelBlockMotionSearch.85
	addq	$88, %rsp
	popq	%rbx
	popq	%r12
	popq	%r13
	popq	%r14
	popq	%r15
	popq	%rbp
	.cfi_def_cfa %rsp, 8
	retq
.LBB11_7:                               # %func_FastSubPelBlockMotionSearch.111
	.cfi_def_cfa %rbp, 16
	movq	%rsi, %r12
	movq	%r8, %rdi
	movswl	%r9w, %esi
	movl	-48(%rbp), %r8d         # 4-byte Reload
	movl	-44(%rbp), %r9d         # 4-byte Reload
	movswl	16(%rbp), %eax
	movl	%eax, (%rsp)
	movswl	24(%rbp), %eax
	movl	%eax, 8(%rsp)
	movq	32(%rbp), %rax
	movq	%rax, 16(%rsp)
	movq	%r12, 24(%rsp)
	movl	%r10d, 32(%rsp)
	movl	%r13d, 40(%rsp)
	movl	%r14d, 48(%rsp)
	movl	72(%rbp), %eax
	movl	%eax, 56(%rsp)
	callq	FastSubPelBlockMotionSearch.111
	addq	$88, %rsp
	popq	%rbx
	popq	%r12
	popq	%r13
	popq	%r14
	popq	%r15
	popq	%rbp
	.cfi_def_cfa %rsp, 8
	retq
.LBB11_8:                               # %func_FastSubPelBlockMotionSearch.114
	.cfi_def_cfa %rbp, 16
	movq	%rsi, %r12
	movq	%r8, %rdi
	movswl	%r9w, %esi
	movl	-48(%rbp), %r8d         # 4-byte Reload
	movl	-44(%rbp), %r9d         # 4-byte Reload
	movswl	16(%rbp), %eax
	movl	%eax, (%rsp)
	movswl	24(%rbp), %eax
	movl	%eax, 8(%rsp)
	movq	32(%rbp), %rax
	movq	%rax, 16(%rsp)
	movq	%r12, 24(%rsp)
	movl	%r10d, 32(%rsp)
	movl	%r13d, 40(%rsp)
	movl	%r14d, 48(%rsp)
	movl	72(%rbp), %eax
	movl	%eax, 56(%rsp)
	callq	FastSubPelBlockMotionSearch.114
	addq	$88, %rsp
	popq	%rbx
	popq	%r12
	popq	%r13
	popq	%r14
	popq	%r15
	popq	%rbp
	.cfi_def_cfa %rsp, 8
	retq
.LBB11_9:                               # %func_FastSubPelBlockMotionSearch.125
	.cfi_def_cfa %rbp, 16
	movq	%rsi, %r12
	movq	%r8, %rdi
	movswl	%r9w, %esi
	movl	-48(%rbp), %r8d         # 4-byte Reload
	movl	-44(%rbp), %r9d         # 4-byte Reload
	movswl	16(%rbp), %eax
	movl	%eax, (%rsp)
	movswl	24(%rbp), %eax
	movl	%eax, 8(%rsp)
	movq	32(%rbp), %rax
	movq	%rax, 16(%rsp)
	movq	%r12, 24(%rsp)
	movl	%r10d, 32(%rsp)
	movl	%r13d, 40(%rsp)
	movl	%r14d, 48(%rsp)
	movl	72(%rbp), %eax
	movl	%eax, 56(%rsp)
	callq	FastSubPelBlockMotionSearch.125
	addq	$88, %rsp
	popq	%rbx
	popq	%r12
	popq	%r13
	popq	%r14
	popq	%r15
	popq	%rbp
	.cfi_def_cfa %rsp, 8
	retq
.LBB11_10:                              # %func_FastSubPelBlockMotionSearch.132
	.cfi_def_cfa %rbp, 16
	movq	%rsi, %r12
	movq	%r8, %rdi
	movswl	%r9w, %esi
	movl	-48(%rbp), %r8d         # 4-byte Reload
	movl	-44(%rbp), %r9d         # 4-byte Reload
	movswl	16(%rbp), %eax
	movl	%eax, (%rsp)
	movswl	24(%rbp), %eax
	movl	%eax, 8(%rsp)
	movq	32(%rbp), %rax
	movq	%rax, 16(%rsp)
	movq	%r12, 24(%rsp)
	movl	%r10d, 32(%rsp)
	movl	%r13d, 40(%rsp)
	movl	%r14d, 48(%rsp)
	movl	72(%rbp), %eax
	movl	%eax, 56(%rsp)
	callq	FastSubPelBlockMotionSearch.132
	addq	$88, %rsp
	popq	%rbx
	popq	%r12
	popq	%r13
	popq	%r14
	popq	%r15
	popq	%rbp
	.cfi_def_cfa %rsp, 8
	retq
.LBB11_11:                              # %func_FastSubPelBlockMotionSearch.135
	.cfi_def_cfa %rbp, 16
	movq	%rsi, %r12
	movq	%r8, %rdi
	movswl	%r9w, %esi
	movl	-48(%rbp), %r8d         # 4-byte Reload
	movl	-44(%rbp), %r9d         # 4-byte Reload
	movswl	16(%rbp), %eax
	movl	%eax, (%rsp)
	movswl	24(%rbp), %eax
	movl	%eax, 8(%rsp)
	movq	32(%rbp), %rax
	movq	%rax, 16(%rsp)
	movq	%r12, 24(%rsp)
	movl	%r10d, 32(%rsp)
	movl	%r13d, 40(%rsp)
	movl	%r14d, 48(%rsp)
	movl	72(%rbp), %eax
	movl	%eax, 56(%rsp)
	callq	FastSubPelBlockMotionSearch.135
	addq	$88, %rsp
	popq	%rbx
	popq	%r12
	popq	%r13
	popq	%r14
	popq	%r15
	popq	%rbp
	.cfi_def_cfa %rsp, 8
	retq
.LBB11_12:                              # %func_FastSubPelBlockMotionSearch.138
	.cfi_def_cfa %rbp, 16
	movq	%rsi, %r12
	movq	%r8, %rdi
	movswl	%r9w, %esi
	movl	-48(%rbp), %r8d         # 4-byte Reload
	movl	-44(%rbp), %r9d         # 4-byte Reload
	movswl	16(%rbp), %eax
	movl	%eax, (%rsp)
	movswl	24(%rbp), %eax
	movl	%eax, 8(%rsp)
	movq	32(%rbp), %rax
	movq	%rax, 16(%rsp)
	movq	%r12, 24(%rsp)
	movl	%r10d, 32(%rsp)
	movl	%r13d, 40(%rsp)
	movl	%r14d, 48(%rsp)
	movl	72(%rbp), %eax
	movl	%eax, 56(%rsp)
	callq	FastSubPelBlockMotionSearch.138
	addq	$88, %rsp
	popq	%rbx
	popq	%r12
	popq	%r13
	popq	%r14
	popq	%r15
	popq	%rbp
	.cfi_def_cfa %rsp, 8
	retq
.LBB11_13:                              # %func_FastSubPelBlockMotionSearch.139
	.cfi_def_cfa %rbp, 16
	movq	%rsi, %r12
	movq	%r8, %rdi
	movswl	%r9w, %esi
	movl	-48(%rbp), %r8d         # 4-byte Reload
	movl	-44(%rbp), %r9d         # 4-byte Reload
	movswl	16(%rbp), %eax
	movl	%eax, (%rsp)
	movswl	24(%rbp), %eax
	movl	%eax, 8(%rsp)
	movq	32(%rbp), %rax
	movq	%rax, 16(%rsp)
	movq	%r12, 24(%rsp)
	movl	%r10d, 32(%rsp)
	movl	%r13d, 40(%rsp)
	movl	%r14d, 48(%rsp)
	movl	72(%rbp), %eax
	movl	%eax, 56(%rsp)
	callq	FastSubPelBlockMotionSearch.139
	addq	$88, %rsp
	popq	%rbx
	popq	%r12
	popq	%r13
	popq	%r14
	popq	%r15
	popq	%rbp
	.cfi_def_cfa %rsp, 8
	retq
.LBB11_14:                              # %func_FastSubPelBlockMotionSearch.150
	.cfi_def_cfa %rbp, 16
	movq	%r8, %rdi
	movswl	%r9w, %esi
	movl	-48(%rbp), %r8d         # 4-byte Reload
	movl	-44(%rbp), %r9d         # 4-byte Reload
	movswl	16(%rbp), %eax
	movl	%eax, (%rsp)
	movswl	24(%rbp), %eax
	movl	%eax, 8(%rsp)
	movq	32(%rbp), %rax
	movq	%rax, 16(%rsp)
	movq	40(%rbp), %rax
	movq	%rax, 24(%rsp)
	movl	48(%rbp), %eax
	movl	%eax, 32(%rsp)
	movl	56(%rbp), %eax
	movl	%eax, 40(%rsp)
	movl	64(%rbp), %eax
	movl	%eax, 48(%rsp)
	movl	72(%rbp), %eax
	movl	%eax, 56(%rsp)
	callq	FastSubPelBlockMotionSearch.150
	addq	$88, %rsp
	popq	%rbx
	popq	%r12
	popq	%r13
	popq	%r14
	popq	%r15
	popq	%rbp
	.cfi_def_cfa %rsp, 8
	retq
.LBB11_15:                              # %func_FastSubPelBlockMotionSearch.151
	.cfi_def_cfa %rbp, 16
	movswl	%bx, %esi
	movl	%r12d, %r8d
	movl	%r15d, %r9d
	movswl	16(%rbp), %eax
	movl	%eax, (%rsp)
	movswl	24(%rbp), %eax
	movl	%eax, 8(%rsp)
	movq	32(%rbp), %rax
	movq	%rax, 16(%rsp)
	movq	%r11, 24(%rsp)
	movl	48(%rbp), %eax
	movl	%eax, 32(%rsp)
	movl	56(%rbp), %eax
	movl	%eax, 40(%rsp)
	movl	64(%rbp), %eax
	movl	%eax, 48(%rsp)
	vmovaps	%xmm1, %xmm0
	movl	72(%rbp), %eax
	movl	%eax, 56(%rsp)
	callq	FastSubPelBlockMotionSearch.151
	addq	$88, %rsp
	popq	%rbx
	popq	%r12
	popq	%r13
	popq	%r14
	popq	%r15
	popq	%rbp
	.cfi_def_cfa %rsp, 8
	retq
.LBB11_16:                              # %func_FastSubPelBlockMotionSearch.153
	.cfi_def_cfa %rbp, 16
	movswl	%bx, %esi
	movl	%r12d, %r8d
	movl	%r15d, %r9d
	movswl	16(%rbp), %eax
	movl	%eax, (%rsp)
	movswl	24(%rbp), %eax
	movl	%eax, 8(%rsp)
	movq	32(%rbp), %rax
	movq	%rax, 16(%rsp)
	movq	%r11, 24(%rsp)
	movl	48(%rbp), %eax
	movl	%eax, 32(%rsp)
	movl	56(%rbp), %eax
	movl	%eax, 40(%rsp)
	movl	64(%rbp), %eax
	movl	%eax, 48(%rsp)
	vmovaps	%xmm1, %xmm0
	movl	72(%rbp), %eax
	movl	%eax, 56(%rsp)
	callq	FastSubPelBlockMotionSearch.153
	addq	$88, %rsp
	popq	%rbx
	popq	%r12
	popq	%r13
	popq	%r14
	popq	%r15
	popq	%rbp
	.cfi_def_cfa %rsp, 8
	retq
.LBB11_17:                              # %ctrl0
	.cfi_def_cfa %rbp, 16
	movq	%r15, %rdi
	movl	%r14d, %edx
	movl	%r13d, %ecx
	movl	-44(%rbp), %r15d        # 4-byte Reload
	movq	40(%rbp), %r11
	vmovsd	-56(%rbp), %xmm1        # 8-byte Reload
                                        # xmm1 = mem[0],zero
	cmpl	$1, %eax
	je	.LBB11_2
# %bb.18:                               # %ctrl1
	cmpl	$2, %eax
	vmovaps	%xmm1, %xmm0
	movl	64(%rbp), %r14d
	movl	56(%rbp), %r13d
	movl	48(%rbp), %r10d
	movq	%r11, %rsi
	movl	%r15d, %r9d
	movl	%r12d, %r8d
	je	.LBB11_3
# %bb.19:                               # %ctrl2
	movl	%r8d, -48(%rbp)         # 4-byte Spill
	cmpl	$3, %eax
	je	.LBB11_4
# %bb.20:                               # %ctrl3
	cmpl	$4, %eax
	movl	%ebx, %r9d
	movq	%rdi, %r8
	je	.LBB11_5
# %bb.21:                               # %ctrl4
	cmpl	$5, %eax
	je	.LBB11_6
# %bb.22:                               # %ctrl5
	cmpl	$6, %eax
	je	.LBB11_7
# %bb.23:                               # %ctrl6
	cmpl	$7, %eax
	je	.LBB11_8
# %bb.24:                               # %ctrl7
	cmpl	$8, %eax
	je	.LBB11_9
# %bb.25:                               # %ctrl8
	cmpl	$9, %eax
	je	.LBB11_10
# %bb.26:                               # %ctrl9
	cmpl	$10, %eax
	je	.LBB11_11
# %bb.27:                               # %ctrl10
	cmpl	$11, %eax
	je	.LBB11_12
# %bb.28:                               # %ctrl11
	cmpl	$12, %eax
	je	.LBB11_13
# %bb.29:                               # %ctrl12
	cmpl	$13, %eax
	je	.LBB11_14
# %bb.30:                               # %ctrl13
	cmpl	$14, %eax
	je	.LBB11_15
	jmp	.LBB11_16
.Lfunc_end11:
	.size	FastSubPelBlockMotionSearch, .Lfunc_end11-FastSubPelBlockMotionSearch
	.cfi_endproc
                                        # -- End function
	.globl	decide_intrabk_SAD      # -- Begin function decide_intrabk_SAD
	.p2align	4, 0x90
	.type	decide_intrabk_SAD,@function
decide_intrabk_SAD:                     # @decide_intrabk_SAD
	.cfi_startproc
# %bb.0:                                # %entry
	pushq	%rbp
	.cfi_def_cfa_offset 16
	.cfi_offset %rbp, -16
	movq	%rsp, %rbp
	.cfi_def_cfa_register %rbp
	movq	img, %rax
	cmpl	$0, 24(%rax)
	je	.LBB12_15
# %bb.1:                                # %if.then
	movq	img, %rax
	cmpl	$0, 152(%rax)
	jne	.LBB12_4
# %bb.2:                                # %land.lhs.true
	movq	img, %rax
	cmpl	$0, 156(%rax)
	jne	.LBB12_4
# %bb.3:                                # %if.then3
	movl	$0, flag_intra_SAD
	jmp	.LBB12_14
.LBB12_4:                               # %if.else
	movq	img, %rax
	cmpl	$0, 152(%rax)
	jne	.LBB12_6
# %bb.5:                                # %if.then6
	movq	flag_intra, %rax
	movq	img, %rcx
	movl	152(%rcx), %ecx
	sarl	$4, %ecx
	movslq	%ecx, %rcx
	movl	(%rax,%rcx,4), %eax
	movl	%eax, flag_intra_SAD
	jmp	.LBB12_13
.LBB12_6:                               # %if.else8
	movq	img, %rax
	cmpl	$0, 156(%rax)
	jne	.LBB12_8
# %bb.7:                                # %if.then11
	movq	flag_intra, %rax
	movq	img, %rcx
	movl	152(%rcx), %ecx
	sarl	$4, %ecx
	subl	$1, %ecx
	movslq	%ecx, %rcx
	movl	(%rax,%rcx,4), %eax
	movl	%eax, flag_intra_SAD
	jmp	.LBB12_12
.LBB12_8:                               # %if.else16
	movq	flag_intra, %rax
	movq	img, %rcx
	movl	152(%rcx), %ecx
	sarl	$4, %ecx
	movslq	%ecx, %rcx
	cmpl	$0, (%rax,%rcx,4)
	movb	$1, %al
	jne	.LBB12_11
# %bb.9:                                # %lor.lhs.false
	movq	flag_intra, %rax
	movq	img, %rcx
	movl	152(%rcx), %ecx
	sarl	$4, %ecx
	subl	$1, %ecx
	movslq	%ecx, %rcx
	cmpl	$0, (%rax,%rcx,4)
	movb	$1, %al
	jne	.LBB12_11
# %bb.10:                               # %lor.rhs
	movq	flag_intra, %rax
	movq	img, %rcx
	movl	152(%rcx), %ecx
	sarl	$4, %ecx
	addl	$1, %ecx
	movslq	%ecx, %rcx
	cmpl	$0, (%rax,%rcx,4)
	setne	%al
.LBB12_11:                              # %lor.end
	andb	$1, %al
	movzbl	%al, %eax
	movl	%eax, flag_intra_SAD
.LBB12_12:                              # %if.end
	jmp	.LBB12_13
.LBB12_13:                              # %if.end32
	jmp	.LBB12_14
.LBB12_14:                              # %if.end33
	jmp	.LBB12_15
.LBB12_15:                              # %if.end34
	popq	%rbp
	.cfi_def_cfa %rsp, 8
	retq
.Lfunc_end12:
	.size	decide_intrabk_SAD, .Lfunc_end12-decide_intrabk_SAD
	.cfi_endproc
                                        # -- End function
	.globl	skip_intrabk_SAD        # -- Begin function skip_intrabk_SAD
	.p2align	4, 0x90
	.type	skip_intrabk_SAD,@function
skip_intrabk_SAD:                       # @skip_intrabk_SAD
	.cfi_startproc
# %bb.0:                                # %rand_bb
	pushq	%rbp
	.cfi_def_cfa_offset 16
	.cfi_offset %rbp, -16
	movq	%rsp, %rbp
	.cfi_def_cfa_register %rbp
	pushq	%r14
	pushq	%rbx
	.cfi_offset %rbx, -32
	.cfi_offset %r14, -24
	movl	%esi, %r14d
	movl	%edi, %ebx
	callq	get_urand
	cmpl	$0, %eax
	jne	.LBB13_17
# %bb.1:                                # %func_skip_intrabk_SAD.27
	movl	%ebx, %edi
	movl	%r14d, %esi
	callq	skip_intrabk_SAD.27
	popq	%rbx
	popq	%r14
	popq	%rbp
	.cfi_def_cfa %rsp, 8
	retq
.LBB13_2:                               # %func_skip_intrabk_SAD.28
	.cfi_def_cfa %rbp, 16
	movl	%ebx, %edi
	movl	%r14d, %esi
	callq	skip_intrabk_SAD.28
	popq	%rbx
	popq	%r14
	popq	%rbp
	.cfi_def_cfa %rsp, 8
	retq
.LBB13_3:                               # %func_skip_intrabk_SAD.35
	.cfi_def_cfa %rbp, 16
	movl	%ebx, %edi
	movl	%r14d, %esi
	callq	skip_intrabk_SAD.35
	popq	%rbx
	popq	%r14
	popq	%rbp
	.cfi_def_cfa %rsp, 8
	retq
.LBB13_4:                               # %func_skip_intrabk_SAD.52
	.cfi_def_cfa %rbp, 16
	movl	%ebx, %edi
	movl	%r14d, %esi
	callq	skip_intrabk_SAD.52
	popq	%rbx
	popq	%r14
	popq	%rbp
	.cfi_def_cfa %rsp, 8
	retq
.LBB13_5:                               # %func_skip_intrabk_SAD.61
	.cfi_def_cfa %rbp, 16
	movl	%ebx, %edi
	movl	%r14d, %esi
	callq	skip_intrabk_SAD.61
	popq	%rbx
	popq	%r14
	popq	%rbp
	.cfi_def_cfa %rsp, 8
	retq
.LBB13_6:                               # %func_skip_intrabk_SAD.66
	.cfi_def_cfa %rbp, 16
	movl	%ebx, %edi
	movl	%r14d, %esi
	callq	skip_intrabk_SAD.66
	popq	%rbx
	popq	%r14
	popq	%rbp
	.cfi_def_cfa %rsp, 8
	retq
.LBB13_7:                               # %func_skip_intrabk_SAD.73
	.cfi_def_cfa %rbp, 16
	movl	%ebx, %edi
	movl	%r14d, %esi
	callq	skip_intrabk_SAD.73
	popq	%rbx
	popq	%r14
	popq	%rbp
	.cfi_def_cfa %rsp, 8
	retq
.LBB13_8:                               # %func_skip_intrabk_SAD.93
	.cfi_def_cfa %rbp, 16
	movl	%ebx, %edi
	movl	%r14d, %esi
	callq	skip_intrabk_SAD.93
	popq	%rbx
	popq	%r14
	popq	%rbp
	.cfi_def_cfa %rsp, 8
	retq
.LBB13_9:                               # %func_skip_intrabk_SAD.97
	.cfi_def_cfa %rbp, 16
	movl	%ebx, %edi
	movl	%r14d, %esi
	callq	skip_intrabk_SAD.97
	popq	%rbx
	popq	%r14
	popq	%rbp
	.cfi_def_cfa %rsp, 8
	retq
.LBB13_10:                              # %func_skip_intrabk_SAD.105
	.cfi_def_cfa %rbp, 16
	movl	%ebx, %edi
	movl	%r14d, %esi
	callq	skip_intrabk_SAD.105
	popq	%rbx
	popq	%r14
	popq	%rbp
	.cfi_def_cfa %rsp, 8
	retq
.LBB13_11:                              # %func_skip_intrabk_SAD.106
	.cfi_def_cfa %rbp, 16
	movl	%ebx, %edi
	movl	%r14d, %esi
	callq	skip_intrabk_SAD.106
	popq	%rbx
	popq	%r14
	popq	%rbp
	.cfi_def_cfa %rsp, 8
	retq
.LBB13_12:                              # %func_skip_intrabk_SAD.113
	.cfi_def_cfa %rbp, 16
	movl	%ebx, %edi
	movl	%r14d, %esi
	callq	skip_intrabk_SAD.113
	popq	%rbx
	popq	%r14
	popq	%rbp
	.cfi_def_cfa %rsp, 8
	retq
.LBB13_13:                              # %func_skip_intrabk_SAD.127
	.cfi_def_cfa %rbp, 16
	movl	%ebx, %edi
	movl	%r14d, %esi
	callq	skip_intrabk_SAD.127
	popq	%rbx
	popq	%r14
	popq	%rbp
	.cfi_def_cfa %rsp, 8
	retq
.LBB13_14:                              # %func_skip_intrabk_SAD.130
	.cfi_def_cfa %rbp, 16
	movl	%ebx, %edi
	movl	%r14d, %esi
	callq	skip_intrabk_SAD.130
	popq	%rbx
	popq	%r14
	popq	%rbp
	.cfi_def_cfa %rsp, 8
	retq
.LBB13_15:                              # %func_skip_intrabk_SAD.142
	.cfi_def_cfa %rbp, 16
	movl	%ebx, %edi
	movl	%r14d, %esi
	callq	skip_intrabk_SAD.142
	popq	%rbx
	popq	%r14
	popq	%rbp
	.cfi_def_cfa %rsp, 8
	retq
.LBB13_16:                              # %func_skip_intrabk_SAD.143
	.cfi_def_cfa %rbp, 16
	movl	%ebx, %edi
	movl	%r14d, %esi
	callq	skip_intrabk_SAD.143
	popq	%rbx
	popq	%r14
	popq	%rbp
	.cfi_def_cfa %rsp, 8
	retq
.LBB13_17:                              # %ctrl0
	.cfi_def_cfa %rbp, 16
	cmpl	$1, %eax
	je	.LBB13_2
# %bb.18:                               # %ctrl1
	cmpl	$2, %eax
	je	.LBB13_3
# %bb.19:                               # %ctrl2
	cmpl	$3, %eax
	je	.LBB13_4
# %bb.20:                               # %ctrl3
	cmpl	$4, %eax
	je	.LBB13_5
# %bb.21:                               # %ctrl4
	cmpl	$5, %eax
	je	.LBB13_6
# %bb.22:                               # %ctrl5
	cmpl	$6, %eax
	je	.LBB13_7
# %bb.23:                               # %ctrl6
	cmpl	$7, %eax
	je	.LBB13_8
# %bb.24:                               # %ctrl7
	cmpl	$8, %eax
	je	.LBB13_9
# %bb.25:                               # %ctrl8
	cmpl	$9, %eax
	je	.LBB13_10
# %bb.26:                               # %ctrl9
	cmpl	$10, %eax
	je	.LBB13_11
# %bb.27:                               # %ctrl10
	cmpl	$11, %eax
	je	.LBB13_12
# %bb.28:                               # %ctrl11
	cmpl	$12, %eax
	je	.LBB13_13
# %bb.29:                               # %ctrl12
	cmpl	$13, %eax
	je	.LBB13_14
# %bb.30:                               # %ctrl13
	cmpl	$14, %eax
	je	.LBB13_15
	jmp	.LBB13_16
.Lfunc_end13:
	.size	skip_intrabk_SAD, .Lfunc_end13-skip_intrabk_SAD
	.cfi_endproc
                                        # -- End function
	.section	.rodata.cst4,"aM",@progbits,4
	.p2align	2               # -- Begin function DefineThresholdMB.1
.LCPI14_0:
	.long	1082130432              # float 4
.LCPI14_1:
	.long	1132462080              # float 256
.LCPI14_2:
	.long	1102284063              # float 22.4400005
	.text
	.globl	DefineThresholdMB.1
	.p2align	4, 0x90
	.type	DefineThresholdMB.1,@function
DefineThresholdMB.1:                    # @DefineThresholdMB.1
	.cfi_startproc
# %bb.0:                                # %entry
	pushq	%rbp
	.cfi_def_cfa_offset 16
	.cfi_offset %rbp, -16
	movq	%rsp, %rbp
	.cfi_def_cfa_register %rbp
	subq	$32, %rsp
	movl	$594511846, -12(%rbp)   # imm = 0x236F87E6
	movq	input, %rax
	movl	16(%rax), %eax
	subl	$0, %eax
	cltd
	movl	$6, %ecx
	idivl	%ecx
	movl	%eax, -16(%rbp)
	movq	input, %rax
	movl	16(%rax), %eax
	subl	$0, %eax
	cltd
	idivl	%ecx
	movl	%edx, -24(%rbp)
	movl	-16(%rbp), %eax
	addl	$15, %eax
	movl	%eax, -4(%rbp)
	movq	img, %rax
	cmpl	$2, 24(%rax)
	jne	.LBB14_2
# %bb.1:                                # %if.then
	movl	-4(%rbp), %ecx
                                        # kill: def $cl killed $ecx
	movl	$1, %eax
	shll	%cl, %eax
	cltd
	movl	$3, %ecx
	idivl	%ecx
	movl	%eax, -8(%rbp)
	jmp	.LBB14_3
.LBB14_2:                               # %if.else
	movl	-4(%rbp), %ecx
                                        # kill: def $cl killed $ecx
	movl	$1, %eax
	shll	%cl, %eax
	cltd
	movl	$6, %ecx
	idivl	%ecx
	movl	%eax, -8(%rbp)
.LBB14_3:                               # %if.end
	vmovss	.LCPI14_0(%rip), %xmm0  # xmm0 = mem[0],zero,zero,zero
	vmovss	.LCPI14_1(%rip), %xmm1  # xmm1 = mem[0],zero,zero,zero
	vmovss	.LCPI14_2(%rip), %xmm2  # xmm2 = mem[0],zero,zero,zero
	movl	-4(%rbp), %ecx
                                        # kill: def $cl killed $ecx
	movl	$1, %eax
	shll	%cl, %eax
	subl	-8(%rbp), %eax
	movslq	-24(%rbp), %rcx
	shlq	$6, %rcx
	movabsq	$quant_coef, %rsi
	addq	%rcx, %rsi
	cltd
	idivl	(%rsi)
	movl	%eax, -20(%rbp)
	vcvtsi2ssl	-20(%rbp), %xmm0, %xmm3
	vdivss	%xmm2, %xmm3, %xmm2
	vmovss	%xmm2, Quantize_step
	vmulss	Quantize_step, %xmm1, %xmm1
	vmovss	%xmm1, Bsize+28
	vmulss	Bsize+28, %xmm0, %xmm1
	vmovss	%xmm1, Bsize+24
	vmulss	Bsize+28, %xmm0, %xmm1
	vmovss	%xmm1, Bsize+20
	vmulss	Bsize+20, %xmm0, %xmm1
	vmovss	%xmm1, Bsize+16
	vmulss	Bsize+16, %xmm0, %xmm1
	vmovss	%xmm1, Bsize+12
	vmulss	Bsize+16, %xmm0, %xmm1
	vmovss	%xmm1, Bsize+8
	vmulss	Bsize+8, %xmm0, %xmm0
	vmovss	%xmm0, Bsize+4
	cmpl	$594511846, -12(%rbp)   # imm = 0x236F87E6
	jne	.LBB14_5
.LBB14_4:
	addq	$32, %rsp
	popq	%rbp
	.cfi_def_cfa %rsp, 8
	retq
.LBB14_5:                               # %func_exit
	.cfi_def_cfa %rbp, 16
	callq	detect_breach
	jmp	.LBB14_4
.Lfunc_end14:
	.size	DefineThresholdMB.1, .Lfunc_end14-DefineThresholdMB.1
	.cfi_endproc
                                        # -- End function
	.section	.rodata.cst4,"aM",@progbits,4
	.p2align	2               # -- Begin function DefineThresholdMB.2
.LCPI15_0:
	.long	1082130432              # float 4
.LCPI15_1:
	.long	1132462080              # float 256
.LCPI15_2:
	.long	1102284063              # float 22.4400005
	.text
	.globl	DefineThresholdMB.2
	.p2align	4, 0x90
	.type	DefineThresholdMB.2,@function
DefineThresholdMB.2:                    # @DefineThresholdMB.2
	.cfi_startproc
# %bb.0:                                # %entry
	pushq	%rbp
	.cfi_def_cfa_offset 16
	.cfi_offset %rbp, -16
	movq	%rsp, %rbp
	.cfi_def_cfa_register %rbp
	subq	$32, %rsp
	movl	$501637268, -20(%rbp)   # imm = 0x1DE66094
	movq	input, %rax
	movl	16(%rax), %eax
	subl	$0, %eax
	cltd
	movl	$6, %ecx
	idivl	%ecx
	movl	%eax, -24(%rbp)
	movq	input, %rax
	movl	16(%rax), %eax
	subl	$0, %eax
	cltd
	idivl	%ecx
	movl	%edx, -12(%rbp)
	movl	-24(%rbp), %eax
	addl	$15, %eax
	movl	%eax, -4(%rbp)
	movq	img, %rax
	cmpl	$2, 24(%rax)
	jne	.LBB15_2
# %bb.1:                                # %if.then
	movl	-4(%rbp), %ecx
                                        # kill: def $cl killed $ecx
	movl	$1, %eax
	shll	%cl, %eax
	cltd
	movl	$3, %ecx
	idivl	%ecx
	movl	%eax, -8(%rbp)
	jmp	.LBB15_3
.LBB15_2:                               # %if.else
	movl	-4(%rbp), %ecx
                                        # kill: def $cl killed $ecx
	movl	$1, %eax
	shll	%cl, %eax
	cltd
	movl	$6, %ecx
	idivl	%ecx
	movl	%eax, -8(%rbp)
.LBB15_3:                               # %if.end
	vmovss	.LCPI15_0(%rip), %xmm0  # xmm0 = mem[0],zero,zero,zero
	vmovss	.LCPI15_1(%rip), %xmm1  # xmm1 = mem[0],zero,zero,zero
	vmovss	.LCPI15_2(%rip), %xmm2  # xmm2 = mem[0],zero,zero,zero
	movl	-4(%rbp), %ecx
                                        # kill: def $cl killed $ecx
	movl	$1, %eax
	shll	%cl, %eax
	subl	-8(%rbp), %eax
	movslq	-12(%rbp), %rcx
	shlq	$6, %rcx
	movabsq	$quant_coef, %rsi
	addq	%rcx, %rsi
	cltd
	idivl	(%rsi)
	movl	%eax, -16(%rbp)
	vcvtsi2ssl	-16(%rbp), %xmm0, %xmm3
	vdivss	%xmm2, %xmm3, %xmm2
	vmovss	%xmm2, Quantize_step
	vmulss	Quantize_step, %xmm1, %xmm1
	vmovss	%xmm1, Bsize+28
	vmulss	Bsize+28, %xmm0, %xmm1
	vmovss	%xmm1, Bsize+24
	vmulss	Bsize+28, %xmm0, %xmm1
	vmovss	%xmm1, Bsize+20
	vmulss	Bsize+20, %xmm0, %xmm1
	vmovss	%xmm1, Bsize+16
	vmulss	Bsize+16, %xmm0, %xmm1
	vmovss	%xmm1, Bsize+12
	vmulss	Bsize+16, %xmm0, %xmm1
	vmovss	%xmm1, Bsize+8
	vmulss	Bsize+8, %xmm0, %xmm0
	vmovss	%xmm0, Bsize+4
	cmpl	$501637268, -20(%rbp)   # imm = 0x1DE66094
	jne	.LBB15_5
.LBB15_4:
	addq	$32, %rsp
	popq	%rbp
	.cfi_def_cfa %rsp, 8
	retq
.LBB15_5:                               # %func_exit
	.cfi_def_cfa %rbp, 16
	callq	detect_breach
	jmp	.LBB15_4
.Lfunc_end15:
	.size	DefineThresholdMB.2, .Lfunc_end15-DefineThresholdMB.2
	.cfi_endproc
                                        # -- End function
	.section	.rodata.cst4,"aM",@progbits,4
	.p2align	2               # -- Begin function DefineThresholdMB.3
.LCPI16_0:
	.long	1082130432              # float 4
.LCPI16_1:
	.long	1132462080              # float 256
.LCPI16_2:
	.long	1102284063              # float 22.4400005
	.text
	.globl	DefineThresholdMB.3
	.p2align	4, 0x90
	.type	DefineThresholdMB.3,@function
DefineThresholdMB.3:                    # @DefineThresholdMB.3
	.cfi_startproc
# %bb.0:                                # %entry
	pushq	%rbp
	.cfi_def_cfa_offset 16
	.cfi_offset %rbp, -16
	movq	%rsp, %rbp
	.cfi_def_cfa_register %rbp
	subq	$32, %rsp
	movl	$124902797, -16(%rbp)   # imm = 0x771DD8D
	movq	input, %rax
	movl	16(%rax), %eax
	subl	$0, %eax
	cltd
	movl	$6, %ecx
	idivl	%ecx
	movl	%eax, -12(%rbp)
	movq	input, %rax
	movl	16(%rax), %eax
	subl	$0, %eax
	cltd
	idivl	%ecx
	movl	%edx, -20(%rbp)
	movl	-12(%rbp), %eax
	addl	$15, %eax
	movl	%eax, -4(%rbp)
	movq	img, %rax
	cmpl	$2, 24(%rax)
	jne	.LBB16_2
# %bb.1:                                # %if.then
	movl	-4(%rbp), %ecx
                                        # kill: def $cl killed $ecx
	movl	$1, %eax
	shll	%cl, %eax
	cltd
	movl	$3, %ecx
	idivl	%ecx
	movl	%eax, -8(%rbp)
	jmp	.LBB16_3
.LBB16_2:                               # %if.else
	movl	-4(%rbp), %ecx
                                        # kill: def $cl killed $ecx
	movl	$1, %eax
	shll	%cl, %eax
	cltd
	movl	$6, %ecx
	idivl	%ecx
	movl	%eax, -8(%rbp)
.LBB16_3:                               # %if.end
	vmovss	.LCPI16_0(%rip), %xmm0  # xmm0 = mem[0],zero,zero,zero
	vmovss	.LCPI16_1(%rip), %xmm1  # xmm1 = mem[0],zero,zero,zero
	vmovss	.LCPI16_2(%rip), %xmm2  # xmm2 = mem[0],zero,zero,zero
	movl	-4(%rbp), %ecx
                                        # kill: def $cl killed $ecx
	movl	$1, %eax
	shll	%cl, %eax
	subl	-8(%rbp), %eax
	movslq	-20(%rbp), %rcx
	shlq	$6, %rcx
	movabsq	$quant_coef, %rsi
	addq	%rcx, %rsi
	cltd
	idivl	(%rsi)
	movl	%eax, -24(%rbp)
	vcvtsi2ssl	-24(%rbp), %xmm0, %xmm3
	vdivss	%xmm2, %xmm3, %xmm2
	vmovss	%xmm2, Quantize_step
	vmulss	Quantize_step, %xmm1, %xmm1
	vmovss	%xmm1, Bsize+28
	vmulss	Bsize+28, %xmm0, %xmm1
	vmovss	%xmm1, Bsize+24
	vmulss	Bsize+28, %xmm0, %xmm1
	vmovss	%xmm1, Bsize+20
	vmulss	Bsize+20, %xmm0, %xmm1
	vmovss	%xmm1, Bsize+16
	vmulss	Bsize+16, %xmm0, %xmm1
	vmovss	%xmm1, Bsize+12
	vmulss	Bsize+16, %xmm0, %xmm1
	vmovss	%xmm1, Bsize+8
	vmulss	Bsize+8, %xmm0, %xmm0
	vmovss	%xmm0, Bsize+4
	cmpl	$124902797, -16(%rbp)   # imm = 0x771DD8D
	jne	.LBB16_5
.LBB16_4:
	addq	$32, %rsp
	popq	%rbp
	.cfi_def_cfa %rsp, 8
	retq
.LBB16_5:                               # %func_exit
	.cfi_def_cfa %rbp, 16
	callq	detect_breach
	jmp	.LBB16_4
.Lfunc_end16:
	.size	DefineThresholdMB.3, .Lfunc_end16-DefineThresholdMB.3
	.cfi_endproc
                                        # -- End function
	.globl	AddUpSADQuarter.4       # -- Begin function AddUpSADQuarter.4
	.p2align	4, 0x90
	.type	AddUpSADQuarter.4,@function
AddUpSADQuarter.4:                      # @AddUpSADQuarter.4
	.cfi_startproc
# %bb.0:                                # %entry
	pushq	%rbp
	.cfi_def_cfa_offset 16
	.cfi_offset %rbp, -16
	movq	%rsp, %rbp
	.cfi_def_cfa_register %rbp
	pushq	%rbx
	subq	$1208, %rsp             # imm = 0x4B8
	.cfi_offset %rbx, -24
	movl	48(%rbp), %eax
	movl	40(%rbp), %eax
	movl	32(%rbp), %eax
	movq	24(%rbp), %rax
	movq	16(%rbp), %rax
	movl	$1651666511, -108(%rbp) # imm = 0x62726E4F
	movl	%edi, -112(%rbp)
	movl	%esi, -100(%rbp)
	movl	%edx, -92(%rbp)
	movl	%ecx, -96(%rbp)
	movl	%r8d, -116(%rbp)
	movl	%r9d, -104(%rbp)
	movl	32(%rbp), %eax
	movl	%eax, -80(%rbp)
	movq	16(%rbp), %rax
	movq	6448(%rax), %rax
	movq	%rax, -64(%rbp)
	movq	16(%rbp), %rax
	movl	6392(%rax), %eax
	movl	%eax, -28(%rbp)
	movq	16(%rbp), %rax
	movl	6396(%rax), %eax
	movl	%eax, -24(%rbp)
	movl	$0, -44(%rbp)
	movl	$0, -88(%rbp)
.LBB17_1:                               # %for.cond
                                        # =>This Loop Header: Depth=1
                                        #     Child Loop BB17_5 Depth 2
                                        #       Child Loop BB17_11 Depth 3
                                        #         Child Loop BB17_13 Depth 4
	xorl	%eax, %eax
	movl	-44(%rbp), %ecx
	cmpl	-96(%rbp), %ecx
	jge	.LBB17_3
# %bb.2:                                # %land.rhs
                                        #   in Loop: Header=BB17_1 Depth=1
	cmpl	$0, -88(%rbp)
	setne	%al
	xorb	$-1, %al
.LBB17_3:                               # %land.end
                                        #   in Loop: Header=BB17_1 Depth=1
	testb	$1, %al
	jne	.LBB17_4
	jmp	.LBB17_24
.LBB17_4:                               # %for.body
                                        #   in Loop: Header=BB17_1 Depth=1
	movl	-100(%rbp), %eax
	addl	-44(%rbp), %eax
	shll	$2, %eax
	addl	-104(%rbp), %eax
	movl	%eax, -76(%rbp)
	movl	$0, -12(%rbp)
.LBB17_5:                               # %for.cond2
                                        #   Parent Loop BB17_1 Depth=1
                                        # =>  This Loop Header: Depth=2
                                        #       Child Loop BB17_11 Depth 3
                                        #         Child Loop BB17_13 Depth 4
	movl	-12(%rbp), %eax
	cmpl	-92(%rbp), %eax
	jge	.LBB17_21
# %bb.6:                                # %for.body4
                                        #   in Loop: Header=BB17_5 Depth=2
	leaq	-192(%rbp), %rax
	movl	-112(%rbp), %ecx
	addl	-12(%rbp), %ecx
	shll	$2, %ecx
	addl	-116(%rbp), %ecx
	movl	%ecx, -20(%rbp)
	movq	%rax, -40(%rbp)
	movq	24(%rbp), %rax
	movslq	-44(%rbp), %rcx
	movq	(%rax,%rcx,8), %rax
	movq	%rax, -56(%rbp)
	movl	-76(%rbp), %eax
	movl	%eax, -16(%rbp)
	movq	-56(%rbp), %rax
	movslq	-12(%rbp), %rcx
	movzwl	(%rax,%rcx,2), %ebx
	movq	PelY_14, %rax
	movq	-64(%rbp), %rdi
	movl	-16(%rbp), %esi
	movl	-20(%rbp), %edx
	movl	-24(%rbp), %ecx
	movl	-28(%rbp), %r8d
	callq	*%rax
	movzwl	%ax, %eax
	subl	%eax, %ebx
	movq	-40(%rbp), %rax
	movq	%rax, %rcx
	addq	$4, %rcx
	movq	%rcx, -40(%rbp)
	movl	%ebx, (%rax)
	movq	-56(%rbp), %rax
	movl	-12(%rbp), %ecx
	addl	$1, %ecx
	movslq	%ecx, %rcx
	movzwl	(%rax,%rcx,2), %ebx
	movq	PelY_14, %rax
	movq	-64(%rbp), %rdi
	movl	-16(%rbp), %esi
	movl	-20(%rbp), %edx
	addl	$4, %edx
	movl	-24(%rbp), %ecx
	movl	-28(%rbp), %r8d
	callq	*%rax
	movzwl	%ax, %eax
	subl	%eax, %ebx
	movq	-40(%rbp), %rax
	movq	%rax, %rcx
	addq	$4, %rcx
	movq	%rcx, -40(%rbp)
	movl	%ebx, (%rax)
	movq	-56(%rbp), %rax
	movl	-12(%rbp), %ecx
	addl	$2, %ecx
	movslq	%ecx, %rcx
	movzwl	(%rax,%rcx,2), %ebx
	movq	PelY_14, %rax
	movq	-64(%rbp), %rdi
	movl	-16(%rbp), %esi
	movl	-20(%rbp), %edx
	addl	$8, %edx
	movl	-24(%rbp), %ecx
	movl	-28(%rbp), %r8d
	callq	*%rax
	movzwl	%ax, %eax
	subl	%eax, %ebx
	movq	-40(%rbp), %rax
	movq	%rax, %rcx
	addq	$4, %rcx
	movq	%rcx, -40(%rbp)
	movl	%ebx, (%rax)
	movq	-56(%rbp), %rax
	movl	-12(%rbp), %ecx
	addl	$3, %ecx
	movslq	%ecx, %rcx
	movzwl	(%rax,%rcx,2), %ebx
	movq	PelY_14, %rax
	movq	-64(%rbp), %rdi
	movl	-16(%rbp), %esi
	movl	-20(%rbp), %edx
	addl	$12, %edx
	movl	-24(%rbp), %ecx
	movl	-28(%rbp), %r8d
	callq	*%rax
	movzwl	%ax, %eax
	subl	%eax, %ebx
	movq	-40(%rbp), %rax
	movq	%rax, %rcx
	addq	$4, %rcx
	movq	%rcx, -40(%rbp)
	movl	%ebx, (%rax)
	movq	24(%rbp), %rax
	movl	-44(%rbp), %ecx
	addl	$1, %ecx
	movslq	%ecx, %rcx
	movq	(%rax,%rcx,8), %rax
	movq	%rax, -56(%rbp)
	movl	-76(%rbp), %eax
	addl	$4, %eax
	movl	%eax, -16(%rbp)
	movq	-56(%rbp), %rax
	movslq	-12(%rbp), %rcx
	movzwl	(%rax,%rcx,2), %ebx
	movq	PelY_14, %rax
	movq	-64(%rbp), %rdi
	movl	-16(%rbp), %esi
	movl	-20(%rbp), %edx
	movl	-24(%rbp), %ecx
	movl	-28(%rbp), %r8d
	callq	*%rax
	movzwl	%ax, %eax
	subl	%eax, %ebx
	movq	-40(%rbp), %rax
	movq	%rax, %rcx
	addq	$4, %rcx
	movq	%rcx, -40(%rbp)
	movl	%ebx, (%rax)
	movq	-56(%rbp), %rax
	movl	-12(%rbp), %ecx
	addl	$1, %ecx
	movslq	%ecx, %rcx
	movzwl	(%rax,%rcx,2), %ebx
	movq	PelY_14, %rax
	movq	-64(%rbp), %rdi
	movl	-16(%rbp), %esi
	movl	-20(%rbp), %edx
	addl	$4, %edx
	movl	-24(%rbp), %ecx
	movl	-28(%rbp), %r8d
	callq	*%rax
	movzwl	%ax, %eax
	subl	%eax, %ebx
	movq	-40(%rbp), %rax
	movq	%rax, %rcx
	addq	$4, %rcx
	movq	%rcx, -40(%rbp)
	movl	%ebx, (%rax)
	movq	-56(%rbp), %rax
	movl	-12(%rbp), %ecx
	addl	$2, %ecx
	movslq	%ecx, %rcx
	movzwl	(%rax,%rcx,2), %ebx
	movq	PelY_14, %rax
	movq	-64(%rbp), %rdi
	movl	-16(%rbp), %esi
	movl	-20(%rbp), %edx
	addl	$8, %edx
	movl	-24(%rbp), %ecx
	movl	-28(%rbp), %r8d
	callq	*%rax
	movzwl	%ax, %eax
	subl	%eax, %ebx
	movq	-40(%rbp), %rax
	movq	%rax, %rcx
	addq	$4, %rcx
	movq	%rcx, -40(%rbp)
	movl	%ebx, (%rax)
	movq	-56(%rbp), %rax
	movl	-12(%rbp), %ecx
	addl	$3, %ecx
	movslq	%ecx, %rcx
	movzwl	(%rax,%rcx,2), %ebx
	movq	PelY_14, %rax
	movq	-64(%rbp), %rdi
	movl	-16(%rbp), %esi
	movl	-20(%rbp), %edx
	addl	$12, %edx
	movl	-24(%rbp), %ecx
	movl	-28(%rbp), %r8d
	callq	*%rax
	movzwl	%ax, %eax
	subl	%eax, %ebx
	movq	-40(%rbp), %rax
	movq	%rax, %rcx
	addq	$4, %rcx
	movq	%rcx, -40(%rbp)
	movl	%ebx, (%rax)
	movq	24(%rbp), %rax
	movl	-44(%rbp), %ecx
	addl	$2, %ecx
	movslq	%ecx, %rcx
	movq	(%rax,%rcx,8), %rax
	movq	%rax, -56(%rbp)
	movl	-76(%rbp), %eax
	addl	$8, %eax
	movl	%eax, -16(%rbp)
	movq	-56(%rbp), %rax
	movslq	-12(%rbp), %rcx
	movzwl	(%rax,%rcx,2), %ebx
	movq	PelY_14, %rax
	movq	-64(%rbp), %rdi
	movl	-16(%rbp), %esi
	movl	-20(%rbp), %edx
	movl	-24(%rbp), %ecx
	movl	-28(%rbp), %r8d
	callq	*%rax
	movzwl	%ax, %eax
	subl	%eax, %ebx
	movq	-40(%rbp), %rax
	movq	%rax, %rcx
	addq	$4, %rcx
	movq	%rcx, -40(%rbp)
	movl	%ebx, (%rax)
	movq	-56(%rbp), %rax
	movl	-12(%rbp), %ecx
	addl	$1, %ecx
	movslq	%ecx, %rcx
	movzwl	(%rax,%rcx,2), %ebx
	movq	PelY_14, %rax
	movq	-64(%rbp), %rdi
	movl	-16(%rbp), %esi
	movl	-20(%rbp), %edx
	addl	$4, %edx
	movl	-24(%rbp), %ecx
	movl	-28(%rbp), %r8d
	callq	*%rax
	movzwl	%ax, %eax
	subl	%eax, %ebx
	movq	-40(%rbp), %rax
	movq	%rax, %rcx
	addq	$4, %rcx
	movq	%rcx, -40(%rbp)
	movl	%ebx, (%rax)
	movq	-56(%rbp), %rax
	movl	-12(%rbp), %ecx
	addl	$2, %ecx
	movslq	%ecx, %rcx
	movzwl	(%rax,%rcx,2), %ebx
	movq	PelY_14, %rax
	movq	-64(%rbp), %rdi
	movl	-16(%rbp), %esi
	movl	-20(%rbp), %edx
	addl	$8, %edx
	movl	-24(%rbp), %ecx
	movl	-28(%rbp), %r8d
	callq	*%rax
	movzwl	%ax, %eax
	subl	%eax, %ebx
	movq	-40(%rbp), %rax
	movq	%rax, %rcx
	addq	$4, %rcx
	movq	%rcx, -40(%rbp)
	movl	%ebx, (%rax)
	movq	-56(%rbp), %rax
	movl	-12(%rbp), %ecx
	addl	$3, %ecx
	movslq	%ecx, %rcx
	movzwl	(%rax,%rcx,2), %ebx
	movq	PelY_14, %rax
	movq	-64(%rbp), %rdi
	movl	-16(%rbp), %esi
	movl	-20(%rbp), %edx
	addl	$12, %edx
	movl	-24(%rbp), %ecx
	movl	-28(%rbp), %r8d
	callq	*%rax
	movzwl	%ax, %eax
	subl	%eax, %ebx
	movq	-40(%rbp), %rax
	movq	%rax, %rcx
	addq	$4, %rcx
	movq	%rcx, -40(%rbp)
	movl	%ebx, (%rax)
	movq	24(%rbp), %rax
	movl	-44(%rbp), %ecx
	addl	$3, %ecx
	movslq	%ecx, %rcx
	movq	(%rax,%rcx,8), %rax
	movq	%rax, -56(%rbp)
	movl	-76(%rbp), %eax
	addl	$12, %eax
	movl	%eax, -16(%rbp)
	movq	-56(%rbp), %rax
	movslq	-12(%rbp), %rcx
	movzwl	(%rax,%rcx,2), %ebx
	movq	PelY_14, %rax
	movq	-64(%rbp), %rdi
	movl	-16(%rbp), %esi
	movl	-20(%rbp), %edx
	movl	-24(%rbp), %ecx
	movl	-28(%rbp), %r8d
	callq	*%rax
	movzwl	%ax, %eax
	subl	%eax, %ebx
	movq	-40(%rbp), %rax
	movq	%rax, %rcx
	addq	$4, %rcx
	movq	%rcx, -40(%rbp)
	movl	%ebx, (%rax)
	movq	-56(%rbp), %rax
	movl	-12(%rbp), %ecx
	addl	$1, %ecx
	movslq	%ecx, %rcx
	movzwl	(%rax,%rcx,2), %ebx
	movq	PelY_14, %rax
	movq	-64(%rbp), %rdi
	movl	-16(%rbp), %esi
	movl	-20(%rbp), %edx
	addl	$4, %edx
	movl	-24(%rbp), %ecx
	movl	-28(%rbp), %r8d
	callq	*%rax
	movzwl	%ax, %eax
	subl	%eax, %ebx
	movq	-40(%rbp), %rax
	movq	%rax, %rcx
	addq	$4, %rcx
	movq	%rcx, -40(%rbp)
	movl	%ebx, (%rax)
	movq	-56(%rbp), %rax
	movl	-12(%rbp), %ecx
	addl	$2, %ecx
	movslq	%ecx, %rcx
	movzwl	(%rax,%rcx,2), %ebx
	movq	PelY_14, %rax
	movq	-64(%rbp), %rdi
	movl	-16(%rbp), %esi
	movl	-20(%rbp), %edx
	addl	$8, %edx
	movl	-24(%rbp), %ecx
	movl	-28(%rbp), %r8d
	callq	*%rax
	movzwl	%ax, %eax
	subl	%eax, %ebx
	movq	-40(%rbp), %rax
	movq	%rax, %rcx
	addq	$4, %rcx
	movq	%rcx, -40(%rbp)
	movl	%ebx, (%rax)
	movq	-56(%rbp), %rax
	movl	-12(%rbp), %ecx
	addl	$3, %ecx
	movslq	%ecx, %rcx
	movzwl	(%rax,%rcx,2), %ebx
	movq	PelY_14, %rax
	movq	-64(%rbp), %rdi
	movl	-16(%rbp), %esi
	movl	-20(%rbp), %edx
	addl	$12, %edx
	movl	-24(%rbp), %ecx
	movl	-28(%rbp), %r8d
	callq	*%rax
	movzwl	%ax, %eax
	subl	%eax, %ebx
	movq	-40(%rbp), %rax
	movl	%ebx, (%rax)
	cmpl	$0, 48(%rbp)
	jne	.LBB17_10
# %bb.7:                                # %if.then
                                        #   in Loop: Header=BB17_5 Depth=2
	leaq	-192(%rbp), %rdi
	movq	input, %rax
	movl	24(%rax), %esi
	callq	SATD
	addl	-80(%rbp), %eax
	movl	%eax, -80(%rbp)
	cmpl	40(%rbp), %eax
	jle	.LBB17_9
# %bb.8:                                # %if.then157
                                        #   in Loop: Header=BB17_1 Depth=1
	movl	$1, -88(%rbp)
	jmp	.LBB17_22
.LBB17_9:                               # %if.end
                                        #   in Loop: Header=BB17_5 Depth=2
	jmp	.LBB17_19
.LBB17_10:                              # %if.else
                                        #   in Loop: Header=BB17_5 Depth=2
	movl	-44(%rbp), %eax
	movl	%eax, -72(%rbp)
	movl	$0, -84(%rbp)
.LBB17_11:                              # %for.cond158
                                        #   Parent Loop BB17_1 Depth=1
                                        #     Parent Loop BB17_5 Depth=2
                                        # =>    This Loop Header: Depth=3
                                        #         Child Loop BB17_13 Depth 4
	movl	-72(%rbp), %eax
	movl	-44(%rbp), %ecx
	addl	$4, %ecx
	cmpl	%ecx, %eax
	jge	.LBB17_18
# %bb.12:                               # %for.body162
                                        #   in Loop: Header=BB17_11 Depth=3
	movl	-12(%rbp), %eax
	movl	%eax, -68(%rbp)
.LBB17_13:                              # %for.cond163
                                        #   Parent Loop BB17_1 Depth=1
                                        #     Parent Loop BB17_5 Depth=2
                                        #       Parent Loop BB17_11 Depth=3
                                        # =>      This Inner Loop Header: Depth=4
	movl	-68(%rbp), %eax
	movl	-12(%rbp), %ecx
	addl	$4, %ecx
	cmpl	%ecx, %eax
	jge	.LBB17_16
# %bb.14:                               # %for.body167
                                        #   in Loop: Header=BB17_13 Depth=4
	movslq	-84(%rbp), %rax
	movl	-192(%rbp,%rax,4), %eax
	movslq	-72(%rbp), %rcx
	shlq	$6, %rcx
	leaq	-1216(%rbp), %rdx
	addq	%rcx, %rdx
	movslq	-68(%rbp), %rcx
	movl	%eax, (%rdx,%rcx,4)
# %bb.15:                               # %for.inc
                                        #   in Loop: Header=BB17_13 Depth=4
	movl	-68(%rbp), %eax
	addl	$1, %eax
	movl	%eax, -68(%rbp)
	movl	-84(%rbp), %eax
	addl	$1, %eax
	movl	%eax, -84(%rbp)
	jmp	.LBB17_13
.LBB17_16:                              # %for.end
                                        #   in Loop: Header=BB17_11 Depth=3
	jmp	.LBB17_17
.LBB17_17:                              # %for.inc175
                                        #   in Loop: Header=BB17_11 Depth=3
	movl	-72(%rbp), %eax
	addl	$1, %eax
	movl	%eax, -72(%rbp)
	jmp	.LBB17_11
.LBB17_18:                              # %for.end177
                                        #   in Loop: Header=BB17_5 Depth=2
	jmp	.LBB17_19
.LBB17_19:                              # %if.end178
                                        #   in Loop: Header=BB17_5 Depth=2
	jmp	.LBB17_20
.LBB17_20:                              # %for.inc179
                                        #   in Loop: Header=BB17_5 Depth=2
	movl	-12(%rbp), %eax
	addl	$4, %eax
	movl	%eax, -12(%rbp)
	jmp	.LBB17_5
.LBB17_21:                              # %for.end181.loopexit
                                        #   in Loop: Header=BB17_1 Depth=1
	jmp	.LBB17_22
.LBB17_22:                              # %for.end181
                                        #   in Loop: Header=BB17_1 Depth=1
	jmp	.LBB17_23
.LBB17_23:                              # %for.inc182
                                        #   in Loop: Header=BB17_1 Depth=1
	movl	-44(%rbp), %eax
	addl	$4, %eax
	movl	%eax, -44(%rbp)
	jmp	.LBB17_1
.LBB17_24:                              # %for.end184
	movl	-80(%rbp), %ebx
	cmpl	$1651666511, -108(%rbp) # imm = 0x62726E4F
	jne	.LBB17_26
.LBB17_25:
	movl	%ebx, %eax
	addq	$1208, %rsp             # imm = 0x4B8
	popq	%rbx
	popq	%rbp
	.cfi_def_cfa %rsp, 8
	retq
.LBB17_26:                              # %func_exit
	.cfi_def_cfa %rbp, 16
	callq	detect_breach
	jmp	.LBB17_25
.Lfunc_end17:
	.size	AddUpSADQuarter.4, .Lfunc_end17-AddUpSADQuarter.4
	.cfi_endproc
                                        # -- End function
	.globl	PartCalMad.5            # -- Begin function PartCalMad.5
	.p2align	4, 0x90
	.type	PartCalMad.5,@function
PartCalMad.5:                           # @PartCalMad.5
	.cfi_startproc
# %bb.0:                                # %entry
	pushq	%rbp
	.cfi_def_cfa_offset 16
	.cfi_offset %rbp, -16
	movq	%rsp, %rbp
	.cfi_def_cfa_register %rbp
	pushq	%rbx
	subq	$72, %rsp
	.cfi_offset %rbx, -24
	movl	40(%rbp), %eax
	movl	32(%rbp), %eax
	movl	24(%rbp), %eax
	movl	16(%rbp), %eax
	movl	$1650024353, -44(%rbp)  # imm = 0x62595FA1
	movq	%rdi, -80(%rbp)
	movq	%rsi, -72(%rbp)
	movq	%rdx, -64(%rbp)
	movl	%ecx, -40(%rbp)
	movl	%r8d, -56(%rbp)
	movl	%r9d, -48(%rbp)
	movq	img, %rax
	cmpl	$0, 72400(%rax)
	je	.LBB18_3
# %bb.1:                                # %land.lhs.true
	movq	img, %rax
	movq	14168(%rax), %rax
	movq	img, %rcx
	movslq	12(%rcx), %rcx
	imulq	$632, %rcx, %rcx        # imm = 0x278
	addq	%rcx, %rax
	cmpl	$0, 532(%rax)
	je	.LBB18_3
# %bb.2:                                # %cond.true
	movq	img, %rax
	movl	60(%rax), %eax
	cltd
	movl	$2, %ecx
	idivl	%ecx
	jmp	.LBB18_4
.LBB18_3:                               # %cond.false
	movq	img, %rax
	movl	60(%rax), %eax
.LBB18_4:                               # %cond.end
	movl	%eax, -52(%rbp)
	movl	$0, -12(%rbp)
.LBB18_5:                               # %for.cond
                                        # =>This Loop Header: Depth=1
                                        #     Child Loop BB18_7 Depth 2
	movl	-12(%rbp), %eax
	cmpl	-40(%rbp), %eax
	jge	.LBB18_14
# %bb.6:                                # %for.body
                                        #   in Loop: Header=BB18_5 Depth=1
	movq	-64(%rbp), %rax
	movl	-56(%rbp), %edi
	movq	-80(%rbp), %rsi
	movl	40(%rbp), %edx
	addl	-12(%rbp), %edx
	movl	32(%rbp), %ecx
	movl	-52(%rbp), %r8d
	movq	img, %rbx
	movl	52(%rbx), %r9d
	callq	*%rax
	movq	%rax, -32(%rbp)
	movq	-72(%rbp), %rax
	movslq	-12(%rbp), %rcx
	movq	(%rax,%rcx,8), %rax
	movq	%rax, -24(%rbp)
	movl	$0, -36(%rbp)
.LBB18_7:                               # %for.cond6
                                        #   Parent Loop BB18_5 Depth=1
                                        # =>  This Inner Loop Header: Depth=2
	movl	-36(%rbp), %eax
	cmpl	-48(%rbp), %eax
	jge	.LBB18_10
# %bb.8:                                # %for.body8
                                        #   in Loop: Header=BB18_7 Depth=2
	movq	byte_abs, %rax
	movq	-24(%rbp), %rcx
	movq	%rcx, %rdx
	addq	$2, %rdx
	movq	%rdx, -24(%rbp)
	movzwl	(%rcx), %ecx
	movq	-32(%rbp), %rdx
	movq	%rdx, %rsi
	addq	$2, %rsi
	movq	%rsi, -32(%rbp)
	movzwl	(%rdx), %edx
	subl	%edx, %ecx
	movslq	%ecx, %rcx
	movl	(%rax,%rcx,4), %eax
	addl	16(%rbp), %eax
	movl	%eax, 16(%rbp)
	movq	byte_abs, %rax
	movq	-24(%rbp), %rcx
	movq	%rcx, %rdx
	addq	$2, %rdx
	movq	%rdx, -24(%rbp)
	movzwl	(%rcx), %ecx
	movq	-32(%rbp), %rdx
	movq	%rdx, %rsi
	addq	$2, %rsi
	movq	%rsi, -32(%rbp)
	movzwl	(%rdx), %edx
	subl	%edx, %ecx
	movslq	%ecx, %rcx
	movl	(%rax,%rcx,4), %eax
	addl	16(%rbp), %eax
	movl	%eax, 16(%rbp)
	movq	byte_abs, %rax
	movq	-24(%rbp), %rcx
	movq	%rcx, %rdx
	addq	$2, %rdx
	movq	%rdx, -24(%rbp)
	movzwl	(%rcx), %ecx
	movq	-32(%rbp), %rdx
	movq	%rdx, %rsi
	addq	$2, %rsi
	movq	%rsi, -32(%rbp)
	movzwl	(%rdx), %edx
	subl	%edx, %ecx
	movslq	%ecx, %rcx
	movl	(%rax,%rcx,4), %eax
	addl	16(%rbp), %eax
	movl	%eax, 16(%rbp)
	movq	byte_abs, %rax
	movq	-24(%rbp), %rcx
	movq	%rcx, %rdx
	addq	$2, %rdx
	movq	%rdx, -24(%rbp)
	movzwl	(%rcx), %ecx
	movq	-32(%rbp), %rdx
	movq	%rdx, %rsi
	addq	$2, %rsi
	movq	%rsi, -32(%rbp)
	movzwl	(%rdx), %edx
	subl	%edx, %ecx
	movslq	%ecx, %rcx
	movl	(%rax,%rcx,4), %eax
	addl	16(%rbp), %eax
	movl	%eax, 16(%rbp)
# %bb.9:                                # %for.inc
                                        #   in Loop: Header=BB18_7 Depth=2
	movl	-36(%rbp), %eax
	addl	$1, %eax
	movl	%eax, -36(%rbp)
	jmp	.LBB18_7
.LBB18_10:                              # %for.end
                                        #   in Loop: Header=BB18_5 Depth=1
	movl	16(%rbp), %eax
	cmpl	24(%rbp), %eax
	jl	.LBB18_12
# %bb.11:                               # %if.then
	jmp	.LBB18_15
.LBB18_12:                              # %if.end
                                        #   in Loop: Header=BB18_5 Depth=1
	jmp	.LBB18_13
.LBB18_13:                              # %for.inc40
                                        #   in Loop: Header=BB18_5 Depth=1
	movl	-12(%rbp), %eax
	addl	$1, %eax
	movl	%eax, -12(%rbp)
	jmp	.LBB18_5
.LBB18_14:                              # %for.end42.loopexit
	jmp	.LBB18_15
.LBB18_15:                              # %for.end42
	movl	16(%rbp), %ebx
	cmpl	$1650024353, -44(%rbp)  # imm = 0x62595FA1
	jne	.LBB18_17
.LBB18_16:
	movl	%ebx, %eax
	addq	$72, %rsp
	popq	%rbx
	popq	%rbp
	.cfi_def_cfa %rsp, 8
	retq
.LBB18_17:                              # %func_exit
	.cfi_def_cfa %rbp, 16
	callq	detect_breach
	jmp	.LBB18_16
.Lfunc_end18:
	.size	PartCalMad.5, .Lfunc_end18-PartCalMad.5
	.cfi_endproc
                                        # -- End function
	.globl	PartCalMad.6            # -- Begin function PartCalMad.6
	.p2align	4, 0x90
	.type	PartCalMad.6,@function
PartCalMad.6:                           # @PartCalMad.6
	.cfi_startproc
# %bb.0:                                # %entry
	pushq	%rbp
	.cfi_def_cfa_offset 16
	.cfi_offset %rbp, -16
	movq	%rsp, %rbp
	.cfi_def_cfa_register %rbp
	pushq	%rbx
	subq	$72, %rsp
	.cfi_offset %rbx, -24
	movl	40(%rbp), %eax
	movl	32(%rbp), %eax
	movl	24(%rbp), %eax
	movl	16(%rbp), %eax
	movl	$844222993, -48(%rbp)   # imm = 0x3251D211
	movq	%rdi, -72(%rbp)
	movq	%rsi, -80(%rbp)
	movq	%rdx, -64(%rbp)
	movl	%ecx, -44(%rbp)
	movl	%r8d, -40(%rbp)
	movl	%r9d, -52(%rbp)
	movq	img, %rax
	cmpl	$0, 72400(%rax)
	je	.LBB19_3
# %bb.1:                                # %land.lhs.true
	movq	img, %rax
	movq	14168(%rax), %rax
	movq	img, %rcx
	movslq	12(%rcx), %rcx
	imulq	$632, %rcx, %rcx        # imm = 0x278
	addq	%rcx, %rax
	cmpl	$0, 532(%rax)
	je	.LBB19_3
# %bb.2:                                # %cond.true
	movq	img, %rax
	movl	60(%rax), %eax
	cltd
	movl	$2, %ecx
	idivl	%ecx
	jmp	.LBB19_4
.LBB19_3:                               # %cond.false
	movq	img, %rax
	movl	60(%rax), %eax
.LBB19_4:                               # %cond.end
	movl	%eax, -56(%rbp)
	movl	$0, -12(%rbp)
.LBB19_5:                               # %for.cond
                                        # =>This Loop Header: Depth=1
                                        #     Child Loop BB19_7 Depth 2
	movl	-12(%rbp), %eax
	cmpl	-44(%rbp), %eax
	jge	.LBB19_14
# %bb.6:                                # %for.body
                                        #   in Loop: Header=BB19_5 Depth=1
	movq	-64(%rbp), %rax
	movl	-40(%rbp), %edi
	movq	-72(%rbp), %rsi
	movl	40(%rbp), %edx
	addl	-12(%rbp), %edx
	movl	32(%rbp), %ecx
	movl	-56(%rbp), %r8d
	movq	img, %rbx
	movl	52(%rbx), %r9d
	callq	*%rax
	movq	%rax, -32(%rbp)
	movq	-80(%rbp), %rax
	movslq	-12(%rbp), %rcx
	movq	(%rax,%rcx,8), %rax
	movq	%rax, -24(%rbp)
	movl	$0, -36(%rbp)
.LBB19_7:                               # %for.cond6
                                        #   Parent Loop BB19_5 Depth=1
                                        # =>  This Inner Loop Header: Depth=2
	movl	-36(%rbp), %eax
	cmpl	-52(%rbp), %eax
	jge	.LBB19_10
# %bb.8:                                # %for.body8
                                        #   in Loop: Header=BB19_7 Depth=2
	movq	byte_abs, %rax
	movq	-24(%rbp), %rcx
	movq	%rcx, %rdx
	addq	$2, %rdx
	movq	%rdx, -24(%rbp)
	movzwl	(%rcx), %ecx
	movq	-32(%rbp), %rdx
	movq	%rdx, %rsi
	addq	$2, %rsi
	movq	%rsi, -32(%rbp)
	movzwl	(%rdx), %edx
	subl	%edx, %ecx
	movslq	%ecx, %rcx
	movl	(%rax,%rcx,4), %eax
	addl	16(%rbp), %eax
	movl	%eax, 16(%rbp)
	movq	byte_abs, %rax
	movq	-24(%rbp), %rcx
	movq	%rcx, %rdx
	addq	$2, %rdx
	movq	%rdx, -24(%rbp)
	movzwl	(%rcx), %ecx
	movq	-32(%rbp), %rdx
	movq	%rdx, %rsi
	addq	$2, %rsi
	movq	%rsi, -32(%rbp)
	movzwl	(%rdx), %edx
	subl	%edx, %ecx
	movslq	%ecx, %rcx
	movl	(%rax,%rcx,4), %eax
	addl	16(%rbp), %eax
	movl	%eax, 16(%rbp)
	movq	byte_abs, %rax
	movq	-24(%rbp), %rcx
	movq	%rcx, %rdx
	addq	$2, %rdx
	movq	%rdx, -24(%rbp)
	movzwl	(%rcx), %ecx
	movq	-32(%rbp), %rdx
	movq	%rdx, %rsi
	addq	$2, %rsi
	movq	%rsi, -32(%rbp)
	movzwl	(%rdx), %edx
	subl	%edx, %ecx
	movslq	%ecx, %rcx
	movl	(%rax,%rcx,4), %eax
	addl	16(%rbp), %eax
	movl	%eax, 16(%rbp)
	movq	byte_abs, %rax
	movq	-24(%rbp), %rcx
	movq	%rcx, %rdx
	addq	$2, %rdx
	movq	%rdx, -24(%rbp)
	movzwl	(%rcx), %ecx
	movq	-32(%rbp), %rdx
	movq	%rdx, %rsi
	addq	$2, %rsi
	movq	%rsi, -32(%rbp)
	movzwl	(%rdx), %edx
	subl	%edx, %ecx
	movslq	%ecx, %rcx
	movl	(%rax,%rcx,4), %eax
	addl	16(%rbp), %eax
	movl	%eax, 16(%rbp)
# %bb.9:                                # %for.inc
                                        #   in Loop: Header=BB19_7 Depth=2
	movl	-36(%rbp), %eax
	addl	$1, %eax
	movl	%eax, -36(%rbp)
	jmp	.LBB19_7
.LBB19_10:                              # %for.end
                                        #   in Loop: Header=BB19_5 Depth=1
	movl	16(%rbp), %eax
	cmpl	24(%rbp), %eax
	jl	.LBB19_12
# %bb.11:                               # %if.then
	jmp	.LBB19_15
.LBB19_12:                              # %if.end
                                        #   in Loop: Header=BB19_5 Depth=1
	jmp	.LBB19_13
.LBB19_13:                              # %for.inc40
                                        #   in Loop: Header=BB19_5 Depth=1
	movl	-12(%rbp), %eax
	addl	$1, %eax
	movl	%eax, -12(%rbp)
	jmp	.LBB19_5
.LBB19_14:                              # %for.end42.loopexit
	jmp	.LBB19_15
.LBB19_15:                              # %for.end42
	movl	16(%rbp), %ebx
	cmpl	$844222993, -48(%rbp)   # imm = 0x3251D211
	jne	.LBB19_17
.LBB19_16:
	movl	%ebx, %eax
	addq	$72, %rsp
	popq	%rbx
	popq	%rbp
	.cfi_def_cfa %rsp, 8
	retq
.LBB19_17:                              # %func_exit
	.cfi_def_cfa %rbp, 16
	callq	detect_breach
	jmp	.LBB19_16
.Lfunc_end19:
	.size	PartCalMad.6, .Lfunc_end19-PartCalMad.6
	.cfi_endproc
                                        # -- End function
	.globl	free_mem_bwmincost.7    # -- Begin function free_mem_bwmincost.7
	.p2align	4, 0x90
	.type	free_mem_bwmincost.7,@function
free_mem_bwmincost.7:                   # @free_mem_bwmincost.7
	.cfi_startproc
# %bb.0:                                # %entry
	pushq	%rbp
	.cfi_def_cfa_offset 16
	.cfi_offset %rbp, -16
	movq	%rsp, %rbp
	.cfi_def_cfa_register %rbp
	subq	$32, %rsp
	movl	$2086199917, -28(%rbp)  # imm = 0x7C58E26D
	movq	%rdi, -24(%rbp)
	movl	$0, -4(%rbp)
.LBB20_1:                               # %for.cond
                                        # =>This Loop Header: Depth=1
                                        #     Child Loop BB20_3 Depth 2
                                        #       Child Loop BB20_5 Depth 3
                                        #         Child Loop BB20_7 Depth 4
	movl	-4(%rbp), %ecx
	movq	img, %rax
	movl	52(%rax), %eax
	cltd
	movl	$4, %esi
	idivl	%esi
	cmpl	%eax, %ecx
	jge	.LBB20_16
# %bb.2:                                # %for.body
                                        #   in Loop: Header=BB20_1 Depth=1
	movl	$0, -8(%rbp)
.LBB20_3:                               # %for.cond1
                                        #   Parent Loop BB20_1 Depth=1
                                        # =>  This Loop Header: Depth=2
                                        #       Child Loop BB20_5 Depth 3
                                        #         Child Loop BB20_7 Depth 4
	movl	-8(%rbp), %ecx
	movq	img, %rax
	movl	60(%rax), %eax
	cltd
	movl	$4, %esi
	idivl	%esi
	cmpl	%eax, %ecx
	jge	.LBB20_14
# %bb.4:                                # %for.body4
                                        #   in Loop: Header=BB20_3 Depth=2
	movl	$0, -12(%rbp)
.LBB20_5:                               # %for.cond5
                                        #   Parent Loop BB20_1 Depth=1
                                        #     Parent Loop BB20_3 Depth=2
                                        # =>    This Loop Header: Depth=3
                                        #         Child Loop BB20_7 Depth 4
	movl	-12(%rbp), %eax
	movq	img, %rcx
	cmpl	36(%rcx), %eax
	jge	.LBB20_12
# %bb.6:                                # %for.body7
                                        #   in Loop: Header=BB20_5 Depth=3
	movl	$0, -16(%rbp)
.LBB20_7:                               # %for.cond8
                                        #   Parent Loop BB20_1 Depth=1
                                        #     Parent Loop BB20_3 Depth=2
                                        #       Parent Loop BB20_5 Depth=3
                                        # =>      This Inner Loop Header: Depth=4
	cmpl	$9, -16(%rbp)
	jge	.LBB20_10
# %bb.8:                                # %for.body10
                                        #   in Loop: Header=BB20_7 Depth=4
	movq	-24(%rbp), %rax
	movslq	-4(%rbp), %rcx
	movq	(%rax,%rcx,8), %rax
	movslq	-8(%rbp), %rcx
	movq	(%rax,%rcx,8), %rax
	movslq	-12(%rbp), %rcx
	movq	(%rax,%rcx,8), %rax
	movslq	-16(%rbp), %rcx
	movq	(%rax,%rcx,8), %rdi
	callq	free
# %bb.9:                                # %for.inc
                                        #   in Loop: Header=BB20_7 Depth=4
	movl	-16(%rbp), %eax
	addl	$1, %eax
	movl	%eax, -16(%rbp)
	jmp	.LBB20_7
.LBB20_10:                              # %for.end
                                        #   in Loop: Header=BB20_5 Depth=3
	movq	-24(%rbp), %rax
	movslq	-4(%rbp), %rcx
	movq	(%rax,%rcx,8), %rax
	movslq	-8(%rbp), %rcx
	movq	(%rax,%rcx,8), %rax
	movslq	-12(%rbp), %rcx
	movq	(%rax,%rcx,8), %rdi
	callq	free
# %bb.11:                               # %for.inc23
                                        #   in Loop: Header=BB20_5 Depth=3
	movl	-12(%rbp), %eax
	addl	$1, %eax
	movl	%eax, -12(%rbp)
	jmp	.LBB20_5
.LBB20_12:                              # %for.end25
                                        #   in Loop: Header=BB20_3 Depth=2
	movq	-24(%rbp), %rax
	movslq	-4(%rbp), %rcx
	movq	(%rax,%rcx,8), %rax
	movslq	-8(%rbp), %rcx
	movq	(%rax,%rcx,8), %rdi
	callq	free
# %bb.13:                               # %for.inc30
                                        #   in Loop: Header=BB20_3 Depth=2
	movl	-8(%rbp), %eax
	addl	$1, %eax
	movl	%eax, -8(%rbp)
	jmp	.LBB20_3
.LBB20_14:                              # %for.end32
                                        #   in Loop: Header=BB20_1 Depth=1
	movq	-24(%rbp), %rax
	movslq	-4(%rbp), %rcx
	movq	(%rax,%rcx,8), %rdi
	callq	free
# %bb.15:                               # %for.inc35
                                        #   in Loop: Header=BB20_1 Depth=1
	movl	-4(%rbp), %eax
	addl	$1, %eax
	movl	%eax, -4(%rbp)
	jmp	.LBB20_1
.LBB20_16:                              # %for.end37
	movq	-24(%rbp), %rdi
	callq	free
	cmpl	$2086199917, -28(%rbp)  # imm = 0x7C58E26D
	jne	.LBB20_18
.LBB20_17:
	addq	$32, %rsp
	popq	%rbp
	.cfi_def_cfa %rsp, 8
	retq
.LBB20_18:                              # %func_exit
	.cfi_def_cfa %rbp, 16
	callq	detect_breach
	jmp	.LBB20_17
.Lfunc_end20:
	.size	free_mem_bwmincost.7, .Lfunc_end20-free_mem_bwmincost.7
	.cfi_endproc
                                        # -- End function
	.globl	AddUpSADQuarter.8       # -- Begin function AddUpSADQuarter.8
	.p2align	4, 0x90
	.type	AddUpSADQuarter.8,@function
AddUpSADQuarter.8:                      # @AddUpSADQuarter.8
	.cfi_startproc
# %bb.0:                                # %entry
	pushq	%rbp
	.cfi_def_cfa_offset 16
	.cfi_offset %rbp, -16
	movq	%rsp, %rbp
	.cfi_def_cfa_register %rbp
	pushq	%rbx
	subq	$1208, %rsp             # imm = 0x4B8
	.cfi_offset %rbx, -24
	movl	48(%rbp), %eax
	movl	40(%rbp), %eax
	movl	32(%rbp), %eax
	movq	24(%rbp), %rax
	movq	16(%rbp), %rax
	movl	$714261014, -104(%rbp)  # imm = 0x2A92C216
	movl	%edi, -116(%rbp)
	movl	%esi, -92(%rbp)
	movl	%edx, -108(%rbp)
	movl	%ecx, -100(%rbp)
	movl	%r8d, -96(%rbp)
	movl	%r9d, -112(%rbp)
	movl	32(%rbp), %eax
	movl	%eax, -80(%rbp)
	movq	16(%rbp), %rax
	movq	6448(%rax), %rax
	movq	%rax, -64(%rbp)
	movq	16(%rbp), %rax
	movl	6392(%rax), %eax
	movl	%eax, -28(%rbp)
	movq	16(%rbp), %rax
	movl	6396(%rax), %eax
	movl	%eax, -24(%rbp)
	movl	$0, -44(%rbp)
	movl	$0, -88(%rbp)
.LBB21_1:                               # %for.cond
                                        # =>This Loop Header: Depth=1
                                        #     Child Loop BB21_5 Depth 2
                                        #       Child Loop BB21_11 Depth 3
                                        #         Child Loop BB21_13 Depth 4
	xorl	%eax, %eax
	movl	-44(%rbp), %ecx
	cmpl	-100(%rbp), %ecx
	jge	.LBB21_3
# %bb.2:                                # %land.rhs
                                        #   in Loop: Header=BB21_1 Depth=1
	cmpl	$0, -88(%rbp)
	setne	%al
	xorb	$-1, %al
.LBB21_3:                               # %land.end
                                        #   in Loop: Header=BB21_1 Depth=1
	testb	$1, %al
	jne	.LBB21_4
	jmp	.LBB21_24
.LBB21_4:                               # %for.body
                                        #   in Loop: Header=BB21_1 Depth=1
	movl	-92(%rbp), %eax
	addl	-44(%rbp), %eax
	shll	$2, %eax
	addl	-112(%rbp), %eax
	movl	%eax, -76(%rbp)
	movl	$0, -12(%rbp)
.LBB21_5:                               # %for.cond2
                                        #   Parent Loop BB21_1 Depth=1
                                        # =>  This Loop Header: Depth=2
                                        #       Child Loop BB21_11 Depth 3
                                        #         Child Loop BB21_13 Depth 4
	movl	-12(%rbp), %eax
	cmpl	-108(%rbp), %eax
	jge	.LBB21_21
# %bb.6:                                # %for.body4
                                        #   in Loop: Header=BB21_5 Depth=2
	leaq	-192(%rbp), %rax
	movl	-116(%rbp), %ecx
	addl	-12(%rbp), %ecx
	shll	$2, %ecx
	addl	-96(%rbp), %ecx
	movl	%ecx, -20(%rbp)
	movq	%rax, -40(%rbp)
	movq	24(%rbp), %rax
	movslq	-44(%rbp), %rcx
	movq	(%rax,%rcx,8), %rax
	movq	%rax, -56(%rbp)
	movl	-76(%rbp), %eax
	movl	%eax, -16(%rbp)
	movq	-56(%rbp), %rax
	movslq	-12(%rbp), %rcx
	movzwl	(%rax,%rcx,2), %ebx
	movq	PelY_14, %rax
	movq	-64(%rbp), %rdi
	movl	-16(%rbp), %esi
	movl	-20(%rbp), %edx
	movl	-24(%rbp), %ecx
	movl	-28(%rbp), %r8d
	callq	*%rax
	movzwl	%ax, %eax
	subl	%eax, %ebx
	movq	-40(%rbp), %rax
	movq	%rax, %rcx
	addq	$4, %rcx
	movq	%rcx, -40(%rbp)
	movl	%ebx, (%rax)
	movq	-56(%rbp), %rax
	movl	-12(%rbp), %ecx
	addl	$1, %ecx
	movslq	%ecx, %rcx
	movzwl	(%rax,%rcx,2), %ebx
	movq	PelY_14, %rax
	movq	-64(%rbp), %rdi
	movl	-16(%rbp), %esi
	movl	-20(%rbp), %edx
	addl	$4, %edx
	movl	-24(%rbp), %ecx
	movl	-28(%rbp), %r8d
	callq	*%rax
	movzwl	%ax, %eax
	subl	%eax, %ebx
	movq	-40(%rbp), %rax
	movq	%rax, %rcx
	addq	$4, %rcx
	movq	%rcx, -40(%rbp)
	movl	%ebx, (%rax)
	movq	-56(%rbp), %rax
	movl	-12(%rbp), %ecx
	addl	$2, %ecx
	movslq	%ecx, %rcx
	movzwl	(%rax,%rcx,2), %ebx
	movq	PelY_14, %rax
	movq	-64(%rbp), %rdi
	movl	-16(%rbp), %esi
	movl	-20(%rbp), %edx
	addl	$8, %edx
	movl	-24(%rbp), %ecx
	movl	-28(%rbp), %r8d
	callq	*%rax
	movzwl	%ax, %eax
	subl	%eax, %ebx
	movq	-40(%rbp), %rax
	movq	%rax, %rcx
	addq	$4, %rcx
	movq	%rcx, -40(%rbp)
	movl	%ebx, (%rax)
	movq	-56(%rbp), %rax
	movl	-12(%rbp), %ecx
	addl	$3, %ecx
	movslq	%ecx, %rcx
	movzwl	(%rax,%rcx,2), %ebx
	movq	PelY_14, %rax
	movq	-64(%rbp), %rdi
	movl	-16(%rbp), %esi
	movl	-20(%rbp), %edx
	addl	$12, %edx
	movl	-24(%rbp), %ecx
	movl	-28(%rbp), %r8d
	callq	*%rax
	movzwl	%ax, %eax
	subl	%eax, %ebx
	movq	-40(%rbp), %rax
	movq	%rax, %rcx
	addq	$4, %rcx
	movq	%rcx, -40(%rbp)
	movl	%ebx, (%rax)
	movq	24(%rbp), %rax
	movl	-44(%rbp), %ecx
	addl	$1, %ecx
	movslq	%ecx, %rcx
	movq	(%rax,%rcx,8), %rax
	movq	%rax, -56(%rbp)
	movl	-76(%rbp), %eax
	addl	$4, %eax
	movl	%eax, -16(%rbp)
	movq	-56(%rbp), %rax
	movslq	-12(%rbp), %rcx
	movzwl	(%rax,%rcx,2), %ebx
	movq	PelY_14, %rax
	movq	-64(%rbp), %rdi
	movl	-16(%rbp), %esi
	movl	-20(%rbp), %edx
	movl	-24(%rbp), %ecx
	movl	-28(%rbp), %r8d
	callq	*%rax
	movzwl	%ax, %eax
	subl	%eax, %ebx
	movq	-40(%rbp), %rax
	movq	%rax, %rcx
	addq	$4, %rcx
	movq	%rcx, -40(%rbp)
	movl	%ebx, (%rax)
	movq	-56(%rbp), %rax
	movl	-12(%rbp), %ecx
	addl	$1, %ecx
	movslq	%ecx, %rcx
	movzwl	(%rax,%rcx,2), %ebx
	movq	PelY_14, %rax
	movq	-64(%rbp), %rdi
	movl	-16(%rbp), %esi
	movl	-20(%rbp), %edx
	addl	$4, %edx
	movl	-24(%rbp), %ecx
	movl	-28(%rbp), %r8d
	callq	*%rax
	movzwl	%ax, %eax
	subl	%eax, %ebx
	movq	-40(%rbp), %rax
	movq	%rax, %rcx
	addq	$4, %rcx
	movq	%rcx, -40(%rbp)
	movl	%ebx, (%rax)
	movq	-56(%rbp), %rax
	movl	-12(%rbp), %ecx
	addl	$2, %ecx
	movslq	%ecx, %rcx
	movzwl	(%rax,%rcx,2), %ebx
	movq	PelY_14, %rax
	movq	-64(%rbp), %rdi
	movl	-16(%rbp), %esi
	movl	-20(%rbp), %edx
	addl	$8, %edx
	movl	-24(%rbp), %ecx
	movl	-28(%rbp), %r8d
	callq	*%rax
	movzwl	%ax, %eax
	subl	%eax, %ebx
	movq	-40(%rbp), %rax
	movq	%rax, %rcx
	addq	$4, %rcx
	movq	%rcx, -40(%rbp)
	movl	%ebx, (%rax)
	movq	-56(%rbp), %rax
	movl	-12(%rbp), %ecx
	addl	$3, %ecx
	movslq	%ecx, %rcx
	movzwl	(%rax,%rcx,2), %ebx
	movq	PelY_14, %rax
	movq	-64(%rbp), %rdi
	movl	-16(%rbp), %esi
	movl	-20(%rbp), %edx
	addl	$12, %edx
	movl	-24(%rbp), %ecx
	movl	-28(%rbp), %r8d
	callq	*%rax
	movzwl	%ax, %eax
	subl	%eax, %ebx
	movq	-40(%rbp), %rax
	movq	%rax, %rcx
	addq	$4, %rcx
	movq	%rcx, -40(%rbp)
	movl	%ebx, (%rax)
	movq	24(%rbp), %rax
	movl	-44(%rbp), %ecx
	addl	$2, %ecx
	movslq	%ecx, %rcx
	movq	(%rax,%rcx,8), %rax
	movq	%rax, -56(%rbp)
	movl	-76(%rbp), %eax
	addl	$8, %eax
	movl	%eax, -16(%rbp)
	movq	-56(%rbp), %rax
	movslq	-12(%rbp), %rcx
	movzwl	(%rax,%rcx,2), %ebx
	movq	PelY_14, %rax
	movq	-64(%rbp), %rdi
	movl	-16(%rbp), %esi
	movl	-20(%rbp), %edx
	movl	-24(%rbp), %ecx
	movl	-28(%rbp), %r8d
	callq	*%rax
	movzwl	%ax, %eax
	subl	%eax, %ebx
	movq	-40(%rbp), %rax
	movq	%rax, %rcx
	addq	$4, %rcx
	movq	%rcx, -40(%rbp)
	movl	%ebx, (%rax)
	movq	-56(%rbp), %rax
	movl	-12(%rbp), %ecx
	addl	$1, %ecx
	movslq	%ecx, %rcx
	movzwl	(%rax,%rcx,2), %ebx
	movq	PelY_14, %rax
	movq	-64(%rbp), %rdi
	movl	-16(%rbp), %esi
	movl	-20(%rbp), %edx
	addl	$4, %edx
	movl	-24(%rbp), %ecx
	movl	-28(%rbp), %r8d
	callq	*%rax
	movzwl	%ax, %eax
	subl	%eax, %ebx
	movq	-40(%rbp), %rax
	movq	%rax, %rcx
	addq	$4, %rcx
	movq	%rcx, -40(%rbp)
	movl	%ebx, (%rax)
	movq	-56(%rbp), %rax
	movl	-12(%rbp), %ecx
	addl	$2, %ecx
	movslq	%ecx, %rcx
	movzwl	(%rax,%rcx,2), %ebx
	movq	PelY_14, %rax
	movq	-64(%rbp), %rdi
	movl	-16(%rbp), %esi
	movl	-20(%rbp), %edx
	addl	$8, %edx
	movl	-24(%rbp), %ecx
	movl	-28(%rbp), %r8d
	callq	*%rax
	movzwl	%ax, %eax
	subl	%eax, %ebx
	movq	-40(%rbp), %rax
	movq	%rax, %rcx
	addq	$4, %rcx
	movq	%rcx, -40(%rbp)
	movl	%ebx, (%rax)
	movq	-56(%rbp), %rax
	movl	-12(%rbp), %ecx
	addl	$3, %ecx
	movslq	%ecx, %rcx
	movzwl	(%rax,%rcx,2), %ebx
	movq	PelY_14, %rax
	movq	-64(%rbp), %rdi
	movl	-16(%rbp), %esi
	movl	-20(%rbp), %edx
	addl	$12, %edx
	movl	-24(%rbp), %ecx
	movl	-28(%rbp), %r8d
	callq	*%rax
	movzwl	%ax, %eax
	subl	%eax, %ebx
	movq	-40(%rbp), %rax
	movq	%rax, %rcx
	addq	$4, %rcx
	movq	%rcx, -40(%rbp)
	movl	%ebx, (%rax)
	movq	24(%rbp), %rax
	movl	-44(%rbp), %ecx
	addl	$3, %ecx
	movslq	%ecx, %rcx
	movq	(%rax,%rcx,8), %rax
	movq	%rax, -56(%rbp)
	movl	-76(%rbp), %eax
	addl	$12, %eax
	movl	%eax, -16(%rbp)
	movq	-56(%rbp), %rax
	movslq	-12(%rbp), %rcx
	movzwl	(%rax,%rcx,2), %ebx
	movq	PelY_14, %rax
	movq	-64(%rbp), %rdi
	movl	-16(%rbp), %esi
	movl	-20(%rbp), %edx
	movl	-24(%rbp), %ecx
	movl	-28(%rbp), %r8d
	callq	*%rax
	movzwl	%ax, %eax
	subl	%eax, %ebx
	movq	-40(%rbp), %rax
	movq	%rax, %rcx
	addq	$4, %rcx
	movq	%rcx, -40(%rbp)
	movl	%ebx, (%rax)
	movq	-56(%rbp), %rax
	movl	-12(%rbp), %ecx
	addl	$1, %ecx
	movslq	%ecx, %rcx
	movzwl	(%rax,%rcx,2), %ebx
	movq	PelY_14, %rax
	movq	-64(%rbp), %rdi
	movl	-16(%rbp), %esi
	movl	-20(%rbp), %edx
	addl	$4, %edx
	movl	-24(%rbp), %ecx
	movl	-28(%rbp), %r8d
	callq	*%rax
	movzwl	%ax, %eax
	subl	%eax, %ebx
	movq	-40(%rbp), %rax
	movq	%rax, %rcx
	addq	$4, %rcx
	movq	%rcx, -40(%rbp)
	movl	%ebx, (%rax)
	movq	-56(%rbp), %rax
	movl	-12(%rbp), %ecx
	addl	$2, %ecx
	movslq	%ecx, %rcx
	movzwl	(%rax,%rcx,2), %ebx
	movq	PelY_14, %rax
	movq	-64(%rbp), %rdi
	movl	-16(%rbp), %esi
	movl	-20(%rbp), %edx
	addl	$8, %edx
	movl	-24(%rbp), %ecx
	movl	-28(%rbp), %r8d
	callq	*%rax
	movzwl	%ax, %eax
	subl	%eax, %ebx
	movq	-40(%rbp), %rax
	movq	%rax, %rcx
	addq	$4, %rcx
	movq	%rcx, -40(%rbp)
	movl	%ebx, (%rax)
	movq	-56(%rbp), %rax
	movl	-12(%rbp), %ecx
	addl	$3, %ecx
	movslq	%ecx, %rcx
	movzwl	(%rax,%rcx,2), %ebx
	movq	PelY_14, %rax
	movq	-64(%rbp), %rdi
	movl	-16(%rbp), %esi
	movl	-20(%rbp), %edx
	addl	$12, %edx
	movl	-24(%rbp), %ecx
	movl	-28(%rbp), %r8d
	callq	*%rax
	movzwl	%ax, %eax
	subl	%eax, %ebx
	movq	-40(%rbp), %rax
	movl	%ebx, (%rax)
	cmpl	$0, 48(%rbp)
	jne	.LBB21_10
# %bb.7:                                # %if.then
                                        #   in Loop: Header=BB21_5 Depth=2
	leaq	-192(%rbp), %rdi
	movq	input, %rax
	movl	24(%rax), %esi
	callq	SATD
	addl	-80(%rbp), %eax
	movl	%eax, -80(%rbp)
	cmpl	40(%rbp), %eax
	jle	.LBB21_9
# %bb.8:                                # %if.then157
                                        #   in Loop: Header=BB21_1 Depth=1
	movl	$1, -88(%rbp)
	jmp	.LBB21_22
.LBB21_9:                               # %if.end
                                        #   in Loop: Header=BB21_5 Depth=2
	jmp	.LBB21_19
.LBB21_10:                              # %if.else
                                        #   in Loop: Header=BB21_5 Depth=2
	movl	-44(%rbp), %eax
	movl	%eax, -72(%rbp)
	movl	$0, -84(%rbp)
.LBB21_11:                              # %for.cond158
                                        #   Parent Loop BB21_1 Depth=1
                                        #     Parent Loop BB21_5 Depth=2
                                        # =>    This Loop Header: Depth=3
                                        #         Child Loop BB21_13 Depth 4
	movl	-72(%rbp), %eax
	movl	-44(%rbp), %ecx
	addl	$4, %ecx
	cmpl	%ecx, %eax
	jge	.LBB21_18
# %bb.12:                               # %for.body162
                                        #   in Loop: Header=BB21_11 Depth=3
	movl	-12(%rbp), %eax
	movl	%eax, -68(%rbp)
.LBB21_13:                              # %for.cond163
                                        #   Parent Loop BB21_1 Depth=1
                                        #     Parent Loop BB21_5 Depth=2
                                        #       Parent Loop BB21_11 Depth=3
                                        # =>      This Inner Loop Header: Depth=4
	movl	-68(%rbp), %eax
	movl	-12(%rbp), %ecx
	addl	$4, %ecx
	cmpl	%ecx, %eax
	jge	.LBB21_16
# %bb.14:                               # %for.body167
                                        #   in Loop: Header=BB21_13 Depth=4
	movslq	-84(%rbp), %rax
	movl	-192(%rbp,%rax,4), %eax
	movslq	-72(%rbp), %rcx
	shlq	$6, %rcx
	leaq	-1216(%rbp), %rdx
	addq	%rcx, %rdx
	movslq	-68(%rbp), %rcx
	movl	%eax, (%rdx,%rcx,4)
# %bb.15:                               # %for.inc
                                        #   in Loop: Header=BB21_13 Depth=4
	movl	-68(%rbp), %eax
	addl	$1, %eax
	movl	%eax, -68(%rbp)
	movl	-84(%rbp), %eax
	addl	$1, %eax
	movl	%eax, -84(%rbp)
	jmp	.LBB21_13
.LBB21_16:                              # %for.end
                                        #   in Loop: Header=BB21_11 Depth=3
	jmp	.LBB21_17
.LBB21_17:                              # %for.inc175
                                        #   in Loop: Header=BB21_11 Depth=3
	movl	-72(%rbp), %eax
	addl	$1, %eax
	movl	%eax, -72(%rbp)
	jmp	.LBB21_11
.LBB21_18:                              # %for.end177
                                        #   in Loop: Header=BB21_5 Depth=2
	jmp	.LBB21_19
.LBB21_19:                              # %if.end178
                                        #   in Loop: Header=BB21_5 Depth=2
	jmp	.LBB21_20
.LBB21_20:                              # %for.inc179
                                        #   in Loop: Header=BB21_5 Depth=2
	movl	-12(%rbp), %eax
	addl	$4, %eax
	movl	%eax, -12(%rbp)
	jmp	.LBB21_5
.LBB21_21:                              # %for.end181.loopexit
                                        #   in Loop: Header=BB21_1 Depth=1
	jmp	.LBB21_22
.LBB21_22:                              # %for.end181
                                        #   in Loop: Header=BB21_1 Depth=1
	jmp	.LBB21_23
.LBB21_23:                              # %for.inc182
                                        #   in Loop: Header=BB21_1 Depth=1
	movl	-44(%rbp), %eax
	addl	$4, %eax
	movl	%eax, -44(%rbp)
	jmp	.LBB21_1
.LBB21_24:                              # %for.end184
	movl	-80(%rbp), %ebx
	cmpl	$714261014, -104(%rbp)  # imm = 0x2A92C216
	jne	.LBB21_26
.LBB21_25:
	movl	%ebx, %eax
	addq	$1208, %rsp             # imm = 0x4B8
	popq	%rbx
	popq	%rbp
	.cfi_def_cfa %rsp, 8
	retq
.LBB21_26:                              # %func_exit
	.cfi_def_cfa %rbp, 16
	callq	detect_breach
	jmp	.LBB21_25
.Lfunc_end21:
	.size	AddUpSADQuarter.8, .Lfunc_end21-AddUpSADQuarter.8
	.cfi_endproc
                                        # -- End function
	.section	.rodata.cst4,"aM",@progbits,4
	.p2align	2               # -- Begin function DefineThresholdMB.9
.LCPI22_0:
	.long	1082130432              # float 4
.LCPI22_1:
	.long	1132462080              # float 256
.LCPI22_2:
	.long	1102284063              # float 22.4400005
	.text
	.globl	DefineThresholdMB.9
	.p2align	4, 0x90
	.type	DefineThresholdMB.9,@function
DefineThresholdMB.9:                    # @DefineThresholdMB.9
	.cfi_startproc
# %bb.0:                                # %entry
	pushq	%rbp
	.cfi_def_cfa_offset 16
	.cfi_offset %rbp, -16
	movq	%rsp, %rbp
	.cfi_def_cfa_register %rbp
	subq	$32, %rsp
	movl	$1867027034, -16(%rbp)  # imm = 0x6F48925A
	movq	input, %rax
	movl	16(%rax), %eax
	subl	$0, %eax
	cltd
	movl	$6, %ecx
	idivl	%ecx
	movl	%eax, -12(%rbp)
	movq	input, %rax
	movl	16(%rax), %eax
	subl	$0, %eax
	cltd
	idivl	%ecx
	movl	%edx, -20(%rbp)
	movl	-12(%rbp), %eax
	addl	$15, %eax
	movl	%eax, -4(%rbp)
	movq	img, %rax
	cmpl	$2, 24(%rax)
	jne	.LBB22_2
# %bb.1:                                # %if.then
	movl	-4(%rbp), %ecx
                                        # kill: def $cl killed $ecx
	movl	$1, %eax
	shll	%cl, %eax
	cltd
	movl	$3, %ecx
	idivl	%ecx
	movl	%eax, -8(%rbp)
	jmp	.LBB22_3
.LBB22_2:                               # %if.else
	movl	-4(%rbp), %ecx
                                        # kill: def $cl killed $ecx
	movl	$1, %eax
	shll	%cl, %eax
	cltd
	movl	$6, %ecx
	idivl	%ecx
	movl	%eax, -8(%rbp)
.LBB22_3:                               # %if.end
	vmovss	.LCPI22_0(%rip), %xmm0  # xmm0 = mem[0],zero,zero,zero
	vmovss	.LCPI22_1(%rip), %xmm1  # xmm1 = mem[0],zero,zero,zero
	vmovss	.LCPI22_2(%rip), %xmm2  # xmm2 = mem[0],zero,zero,zero
	movl	-4(%rbp), %ecx
                                        # kill: def $cl killed $ecx
	movl	$1, %eax
	shll	%cl, %eax
	subl	-8(%rbp), %eax
	movslq	-20(%rbp), %rcx
	shlq	$6, %rcx
	movabsq	$quant_coef, %rsi
	addq	%rcx, %rsi
	cltd
	idivl	(%rsi)
	movl	%eax, -24(%rbp)
	vcvtsi2ssl	-24(%rbp), %xmm0, %xmm3
	vdivss	%xmm2, %xmm3, %xmm2
	vmovss	%xmm2, Quantize_step
	vmulss	Quantize_step, %xmm1, %xmm1
	vmovss	%xmm1, Bsize+28
	vmulss	Bsize+28, %xmm0, %xmm1
	vmovss	%xmm1, Bsize+24
	vmulss	Bsize+28, %xmm0, %xmm1
	vmovss	%xmm1, Bsize+20
	vmulss	Bsize+20, %xmm0, %xmm1
	vmovss	%xmm1, Bsize+16
	vmulss	Bsize+16, %xmm0, %xmm1
	vmovss	%xmm1, Bsize+12
	vmulss	Bsize+16, %xmm0, %xmm1
	vmovss	%xmm1, Bsize+8
	vmulss	Bsize+8, %xmm0, %xmm0
	vmovss	%xmm0, Bsize+4
	cmpl	$1867027034, -16(%rbp)  # imm = 0x6F48925A
	jne	.LBB22_5
.LBB22_4:
	addq	$32, %rsp
	popq	%rbp
	.cfi_def_cfa %rsp, 8
	retq
.LBB22_5:                               # %func_exit
	.cfi_def_cfa %rbp, 16
	callq	detect_breach
	jmp	.LBB22_4
.Lfunc_end22:
	.size	DefineThresholdMB.9, .Lfunc_end22-DefineThresholdMB.9
	.cfi_endproc
                                        # -- End function
	.globl	get_mem_mincost.10      # -- Begin function get_mem_mincost.10
	.p2align	4, 0x90
	.type	get_mem_mincost.10,@function
get_mem_mincost.10:                     # @get_mem_mincost.10
	.cfi_startproc
# %bb.0:                                # %entry
	pushq	%rbp
	.cfi_def_cfa_offset 16
	.cfi_offset %rbp, -16
	movq	%rsp, %rbp
	.cfi_def_cfa_register %rbp
	pushq	%rbx
	subq	$40, %rsp
	.cfi_offset %rbx, -24
	movl	$292627988, -36(%rbp)   # imm = 0x11712614
	movq	%rdi, -32(%rbp)
	movq	img, %rax
	movl	52(%rax), %eax
	cltd
	movl	$4, %ecx
	idivl	%ecx
	movslq	%eax, %rdi
	movl	$8, %esi
	callq	calloc
	movq	-32(%rbp), %rcx
	movq	%rax, (%rcx)
	cmpq	$0, %rax
	jne	.LBB23_2
# %bb.1:                                # %if.then
	movabsq	$.L.str, %rdi
	callq	no_mem_exit
.LBB23_2:                               # %if.end
	movl	$0, -12(%rbp)
.LBB23_3:                               # %for.cond
                                        # =>This Loop Header: Depth=1
                                        #     Child Loop BB23_7 Depth 2
                                        #       Child Loop BB23_11 Depth 3
                                        #         Child Loop BB23_15 Depth 4
	movl	-12(%rbp), %ecx
	movq	img, %rax
	movl	52(%rax), %eax
	cltd
	movl	$4, %esi
	idivl	%esi
	cmpl	%eax, %ecx
	jge	.LBB23_26
# %bb.4:                                # %for.body
                                        #   in Loop: Header=BB23_3 Depth=1
	movq	img, %rax
	movl	60(%rax), %eax
	cltd
	movl	$4, %ecx
	idivl	%ecx
	movslq	%eax, %rdi
	movl	$8, %esi
	callq	calloc
	movq	-32(%rbp), %rcx
	movq	(%rcx), %rcx
	movslq	-12(%rbp), %rdx
	movq	%rax, (%rcx,%rdx,8)
	cmpq	$0, %rax
	jne	.LBB23_6
# %bb.5:                                # %if.then11
                                        #   in Loop: Header=BB23_3 Depth=1
	movabsq	$.L.str, %rdi
	callq	no_mem_exit
.LBB23_6:                               # %if.end12
                                        #   in Loop: Header=BB23_3 Depth=1
	movl	$0, -16(%rbp)
.LBB23_7:                               # %for.cond13
                                        #   Parent Loop BB23_3 Depth=1
                                        # =>  This Loop Header: Depth=2
                                        #       Child Loop BB23_11 Depth 3
                                        #         Child Loop BB23_15 Depth 4
	movl	-16(%rbp), %ecx
	movq	img, %rax
	movl	60(%rax), %eax
	cltd
	movl	$4, %esi
	idivl	%esi
	cmpl	%eax, %ecx
	jge	.LBB23_24
# %bb.8:                                # %for.body18
                                        #   in Loop: Header=BB23_7 Depth=2
	movq	img, %rax
	movslq	36(%rax), %rdi
	movl	$8, %esi
	callq	calloc
	movq	-32(%rbp), %rcx
	movq	(%rcx), %rcx
	movslq	-12(%rbp), %rdx
	movq	(%rcx,%rdx,8), %rcx
	movslq	-16(%rbp), %rdx
	movq	%rax, (%rcx,%rdx,8)
	cmpq	$0, %rax
	jne	.LBB23_10
# %bb.9:                                # %if.then27
                                        #   in Loop: Header=BB23_7 Depth=2
	movabsq	$.L.str, %rdi
	callq	no_mem_exit
.LBB23_10:                              # %if.end28
                                        #   in Loop: Header=BB23_7 Depth=2
	movl	$0, -20(%rbp)
.LBB23_11:                              # %for.cond29
                                        #   Parent Loop BB23_3 Depth=1
                                        #     Parent Loop BB23_7 Depth=2
                                        # =>    This Loop Header: Depth=3
                                        #         Child Loop BB23_15 Depth 4
	movl	-20(%rbp), %eax
	movq	img, %rcx
	cmpl	36(%rcx), %eax
	jge	.LBB23_22
# %bb.12:                               # %for.body33
                                        #   in Loop: Header=BB23_11 Depth=3
	movl	$9, %edi
	movl	$8, %esi
	callq	calloc
	movq	-32(%rbp), %rcx
	movq	(%rcx), %rcx
	movslq	-12(%rbp), %rdx
	movq	(%rcx,%rdx,8), %rcx
	movslq	-16(%rbp), %rdx
	movq	(%rcx,%rdx,8), %rcx
	movslq	-20(%rbp), %rdx
	movq	%rax, (%rcx,%rdx,8)
	cmpq	$0, %rax
	jne	.LBB23_14
# %bb.13:                               # %if.then43
                                        #   in Loop: Header=BB23_11 Depth=3
	movabsq	$.L.str, %rdi
	callq	no_mem_exit
.LBB23_14:                              # %if.end44
                                        #   in Loop: Header=BB23_11 Depth=3
	movl	$0, -24(%rbp)
.LBB23_15:                              # %for.cond45
                                        #   Parent Loop BB23_3 Depth=1
                                        #     Parent Loop BB23_7 Depth=2
                                        #       Parent Loop BB23_11 Depth=3
                                        # =>      This Inner Loop Header: Depth=4
	cmpl	$9, -24(%rbp)
	jge	.LBB23_20
# %bb.16:                               # %for.body48
                                        #   in Loop: Header=BB23_15 Depth=4
	movl	$3, %edi
	movl	$4, %esi
	callq	calloc
	movq	-32(%rbp), %rcx
	movq	(%rcx), %rcx
	movslq	-12(%rbp), %rdx
	movq	(%rcx,%rdx,8), %rcx
	movslq	-16(%rbp), %rdx
	movq	(%rcx,%rdx,8), %rcx
	movslq	-20(%rbp), %rdx
	movq	(%rcx,%rdx,8), %rcx
	movslq	-24(%rbp), %rdx
	movq	%rax, (%rcx,%rdx,8)
	cmpq	$0, %rax
	jne	.LBB23_18
# %bb.17:                               # %if.then60
                                        #   in Loop: Header=BB23_15 Depth=4
	movabsq	$.L.str, %rdi
	callq	no_mem_exit
.LBB23_18:                              # %if.end61
                                        #   in Loop: Header=BB23_15 Depth=4
	jmp	.LBB23_19
.LBB23_19:                              # %for.inc
                                        #   in Loop: Header=BB23_15 Depth=4
	movl	-24(%rbp), %eax
	addl	$1, %eax
	movl	%eax, -24(%rbp)
	jmp	.LBB23_15
.LBB23_20:                              # %for.end
                                        #   in Loop: Header=BB23_11 Depth=3
	jmp	.LBB23_21
.LBB23_21:                              # %for.inc62
                                        #   in Loop: Header=BB23_11 Depth=3
	movl	-20(%rbp), %eax
	addl	$1, %eax
	movl	%eax, -20(%rbp)
	jmp	.LBB23_11
.LBB23_22:                              # %for.end64
                                        #   in Loop: Header=BB23_7 Depth=2
	jmp	.LBB23_23
.LBB23_23:                              # %for.inc65
                                        #   in Loop: Header=BB23_7 Depth=2
	movl	-16(%rbp), %eax
	addl	$1, %eax
	movl	%eax, -16(%rbp)
	jmp	.LBB23_7
.LBB23_24:                              # %for.end67
                                        #   in Loop: Header=BB23_3 Depth=1
	jmp	.LBB23_25
.LBB23_25:                              # %for.inc68
                                        #   in Loop: Header=BB23_3 Depth=1
	movl	-12(%rbp), %eax
	addl	$1, %eax
	movl	%eax, -12(%rbp)
	jmp	.LBB23_3
.LBB23_26:                              # %for.end70
	movq	img, %rax
	movl	52(%rax), %eax
	cltd
	movl	$4, %ecx
	idivl	%ecx
	movq	img, %rdx
	imull	60(%rdx), %eax
	cltd
	idivl	%ecx
	movq	img, %rcx
	imull	36(%rcx), %eax
	imull	$9, %eax, %eax
	imull	$3, %eax, %eax
	movslq	%eax, %rbx
	shlq	$2, %rbx
	cmpl	$292627988, -36(%rbp)   # imm = 0x11712614
	jne	.LBB23_28
.LBB23_27:
	movl	%ebx, %eax
	addq	$40, %rsp
	popq	%rbx
	popq	%rbp
	.cfi_def_cfa %rsp, 8
	retq
.LBB23_28:                              # %func_exit
	.cfi_def_cfa %rbp, 16
	callq	detect_breach
	jmp	.LBB23_27
.Lfunc_end23:
	.size	get_mem_mincost.10, .Lfunc_end23-get_mem_mincost.10
	.cfi_endproc
                                        # -- End function
	.globl	free_mem_mincost.11     # -- Begin function free_mem_mincost.11
	.p2align	4, 0x90
	.type	free_mem_mincost.11,@function
free_mem_mincost.11:                    # @free_mem_mincost.11
	.cfi_startproc
# %bb.0:                                # %entry
	pushq	%rbp
	.cfi_def_cfa_offset 16
	.cfi_offset %rbp, -16
	movq	%rsp, %rbp
	.cfi_def_cfa_register %rbp
	subq	$32, %rsp
	movl	$904783955, -28(%rbp)   # imm = 0x35EDE853
	movq	%rdi, -24(%rbp)
	movl	$0, -4(%rbp)
.LBB24_1:                               # %for.cond
                                        # =>This Loop Header: Depth=1
                                        #     Child Loop BB24_3 Depth 2
                                        #       Child Loop BB24_5 Depth 3
                                        #         Child Loop BB24_7 Depth 4
	movl	-4(%rbp), %ecx
	movq	img, %rax
	movl	52(%rax), %eax
	cltd
	movl	$4, %esi
	idivl	%esi
	cmpl	%eax, %ecx
	jge	.LBB24_16
# %bb.2:                                # %for.body
                                        #   in Loop: Header=BB24_1 Depth=1
	movl	$0, -8(%rbp)
.LBB24_3:                               # %for.cond1
                                        #   Parent Loop BB24_1 Depth=1
                                        # =>  This Loop Header: Depth=2
                                        #       Child Loop BB24_5 Depth 3
                                        #         Child Loop BB24_7 Depth 4
	movl	-8(%rbp), %ecx
	movq	img, %rax
	movl	60(%rax), %eax
	cltd
	movl	$4, %esi
	idivl	%esi
	cmpl	%eax, %ecx
	jge	.LBB24_14
# %bb.4:                                # %for.body4
                                        #   in Loop: Header=BB24_3 Depth=2
	movl	$0, -12(%rbp)
.LBB24_5:                               # %for.cond5
                                        #   Parent Loop BB24_1 Depth=1
                                        #     Parent Loop BB24_3 Depth=2
                                        # =>    This Loop Header: Depth=3
                                        #         Child Loop BB24_7 Depth 4
	movl	-12(%rbp), %eax
	movq	img, %rcx
	cmpl	36(%rcx), %eax
	jge	.LBB24_12
# %bb.6:                                # %for.body7
                                        #   in Loop: Header=BB24_5 Depth=3
	movl	$0, -16(%rbp)
.LBB24_7:                               # %for.cond8
                                        #   Parent Loop BB24_1 Depth=1
                                        #     Parent Loop BB24_3 Depth=2
                                        #       Parent Loop BB24_5 Depth=3
                                        # =>      This Inner Loop Header: Depth=4
	cmpl	$9, -16(%rbp)
	jge	.LBB24_10
# %bb.8:                                # %for.body10
                                        #   in Loop: Header=BB24_7 Depth=4
	movq	-24(%rbp), %rax
	movslq	-4(%rbp), %rcx
	movq	(%rax,%rcx,8), %rax
	movslq	-8(%rbp), %rcx
	movq	(%rax,%rcx,8), %rax
	movslq	-12(%rbp), %rcx
	movq	(%rax,%rcx,8), %rax
	movslq	-16(%rbp), %rcx
	movq	(%rax,%rcx,8), %rdi
	callq	free
# %bb.9:                                # %for.inc
                                        #   in Loop: Header=BB24_7 Depth=4
	movl	-16(%rbp), %eax
	addl	$1, %eax
	movl	%eax, -16(%rbp)
	jmp	.LBB24_7
.LBB24_10:                              # %for.end
                                        #   in Loop: Header=BB24_5 Depth=3
	movq	-24(%rbp), %rax
	movslq	-4(%rbp), %rcx
	movq	(%rax,%rcx,8), %rax
	movslq	-8(%rbp), %rcx
	movq	(%rax,%rcx,8), %rax
	movslq	-12(%rbp), %rcx
	movq	(%rax,%rcx,8), %rdi
	callq	free
# %bb.11:                               # %for.inc23
                                        #   in Loop: Header=BB24_5 Depth=3
	movl	-12(%rbp), %eax
	addl	$1, %eax
	movl	%eax, -12(%rbp)
	jmp	.LBB24_5
.LBB24_12:                              # %for.end25
                                        #   in Loop: Header=BB24_3 Depth=2
	movq	-24(%rbp), %rax
	movslq	-4(%rbp), %rcx
	movq	(%rax,%rcx,8), %rax
	movslq	-8(%rbp), %rcx
	movq	(%rax,%rcx,8), %rdi
	callq	free
# %bb.13:                               # %for.inc30
                                        #   in Loop: Header=BB24_3 Depth=2
	movl	-8(%rbp), %eax
	addl	$1, %eax
	movl	%eax, -8(%rbp)
	jmp	.LBB24_3
.LBB24_14:                              # %for.end32
                                        #   in Loop: Header=BB24_1 Depth=1
	movq	-24(%rbp), %rax
	movslq	-4(%rbp), %rcx
	movq	(%rax,%rcx,8), %rdi
	callq	free
# %bb.15:                               # %for.inc35
                                        #   in Loop: Header=BB24_1 Depth=1
	movl	-4(%rbp), %eax
	addl	$1, %eax
	movl	%eax, -4(%rbp)
	jmp	.LBB24_1
.LBB24_16:                              # %for.end37
	movq	-24(%rbp), %rdi
	callq	free
	cmpl	$904783955, -28(%rbp)   # imm = 0x35EDE853
	jne	.LBB24_18
.LBB24_17:
	addq	$32, %rsp
	popq	%rbp
	.cfi_def_cfa %rsp, 8
	retq
.LBB24_18:                              # %func_exit
	.cfi_def_cfa %rbp, 16
	callq	detect_breach
	jmp	.LBB24_17
.Lfunc_end24:
	.size	free_mem_mincost.11, .Lfunc_end24-free_mem_mincost.11
	.cfi_endproc
                                        # -- End function
	.globl	free_mem_bwmincost.12   # -- Begin function free_mem_bwmincost.12
	.p2align	4, 0x90
	.type	free_mem_bwmincost.12,@function
free_mem_bwmincost.12:                  # @free_mem_bwmincost.12
	.cfi_startproc
# %bb.0:                                # %entry
	pushq	%rbp
	.cfi_def_cfa_offset 16
	.cfi_offset %rbp, -16
	movq	%rsp, %rbp
	.cfi_def_cfa_register %rbp
	subq	$32, %rsp
	movl	$314779386, -28(%rbp)   # imm = 0x12C326FA
	movq	%rdi, -24(%rbp)
	movl	$0, -4(%rbp)
.LBB25_1:                               # %for.cond
                                        # =>This Loop Header: Depth=1
                                        #     Child Loop BB25_3 Depth 2
                                        #       Child Loop BB25_5 Depth 3
                                        #         Child Loop BB25_7 Depth 4
	movl	-4(%rbp), %ecx
	movq	img, %rax
	movl	52(%rax), %eax
	cltd
	movl	$4, %esi
	idivl	%esi
	cmpl	%eax, %ecx
	jge	.LBB25_16
# %bb.2:                                # %for.body
                                        #   in Loop: Header=BB25_1 Depth=1
	movl	$0, -8(%rbp)
.LBB25_3:                               # %for.cond1
                                        #   Parent Loop BB25_1 Depth=1
                                        # =>  This Loop Header: Depth=2
                                        #       Child Loop BB25_5 Depth 3
                                        #         Child Loop BB25_7 Depth 4
	movl	-8(%rbp), %ecx
	movq	img, %rax
	movl	60(%rax), %eax
	cltd
	movl	$4, %esi
	idivl	%esi
	cmpl	%eax, %ecx
	jge	.LBB25_14
# %bb.4:                                # %for.body4
                                        #   in Loop: Header=BB25_3 Depth=2
	movl	$0, -12(%rbp)
.LBB25_5:                               # %for.cond5
                                        #   Parent Loop BB25_1 Depth=1
                                        #     Parent Loop BB25_3 Depth=2
                                        # =>    This Loop Header: Depth=3
                                        #         Child Loop BB25_7 Depth 4
	movl	-12(%rbp), %eax
	movq	img, %rcx
	cmpl	36(%rcx), %eax
	jge	.LBB25_12
# %bb.6:                                # %for.body7
                                        #   in Loop: Header=BB25_5 Depth=3
	movl	$0, -16(%rbp)
.LBB25_7:                               # %for.cond8
                                        #   Parent Loop BB25_1 Depth=1
                                        #     Parent Loop BB25_3 Depth=2
                                        #       Parent Loop BB25_5 Depth=3
                                        # =>      This Inner Loop Header: Depth=4
	cmpl	$9, -16(%rbp)
	jge	.LBB25_10
# %bb.8:                                # %for.body10
                                        #   in Loop: Header=BB25_7 Depth=4
	movq	-24(%rbp), %rax
	movslq	-4(%rbp), %rcx
	movq	(%rax,%rcx,8), %rax
	movslq	-8(%rbp), %rcx
	movq	(%rax,%rcx,8), %rax
	movslq	-12(%rbp), %rcx
	movq	(%rax,%rcx,8), %rax
	movslq	-16(%rbp), %rcx
	movq	(%rax,%rcx,8), %rdi
	callq	free
# %bb.9:                                # %for.inc
                                        #   in Loop: Header=BB25_7 Depth=4
	movl	-16(%rbp), %eax
	addl	$1, %eax
	movl	%eax, -16(%rbp)
	jmp	.LBB25_7
.LBB25_10:                              # %for.end
                                        #   in Loop: Header=BB25_5 Depth=3
	movq	-24(%rbp), %rax
	movslq	-4(%rbp), %rcx
	movq	(%rax,%rcx,8), %rax
	movslq	-8(%rbp), %rcx
	movq	(%rax,%rcx,8), %rax
	movslq	-12(%rbp), %rcx
	movq	(%rax,%rcx,8), %rdi
	callq	free
# %bb.11:                               # %for.inc23
                                        #   in Loop: Header=BB25_5 Depth=3
	movl	-12(%rbp), %eax
	addl	$1, %eax
	movl	%eax, -12(%rbp)
	jmp	.LBB25_5
.LBB25_12:                              # %for.end25
                                        #   in Loop: Header=BB25_3 Depth=2
	movq	-24(%rbp), %rax
	movslq	-4(%rbp), %rcx
	movq	(%rax,%rcx,8), %rax
	movslq	-8(%rbp), %rcx
	movq	(%rax,%rcx,8), %rdi
	callq	free
# %bb.13:                               # %for.inc30
                                        #   in Loop: Header=BB25_3 Depth=2
	movl	-8(%rbp), %eax
	addl	$1, %eax
	movl	%eax, -8(%rbp)
	jmp	.LBB25_3
.LBB25_14:                              # %for.end32
                                        #   in Loop: Header=BB25_1 Depth=1
	movq	-24(%rbp), %rax
	movslq	-4(%rbp), %rcx
	movq	(%rax,%rcx,8), %rdi
	callq	free
# %bb.15:                               # %for.inc35
                                        #   in Loop: Header=BB25_1 Depth=1
	movl	-4(%rbp), %eax
	addl	$1, %eax
	movl	%eax, -4(%rbp)
	jmp	.LBB25_1
.LBB25_16:                              # %for.end37
	movq	-24(%rbp), %rdi
	callq	free
	cmpl	$314779386, -28(%rbp)   # imm = 0x12C326FA
	jne	.LBB25_18
.LBB25_17:
	addq	$32, %rsp
	popq	%rbp
	.cfi_def_cfa %rsp, 8
	retq
.LBB25_18:                              # %func_exit
	.cfi_def_cfa %rbp, 16
	callq	detect_breach
	jmp	.LBB25_17
.Lfunc_end25:
	.size	free_mem_bwmincost.12, .Lfunc_end25-free_mem_bwmincost.12
	.cfi_endproc
                                        # -- End function
	.globl	free_mem_bwmincost.13   # -- Begin function free_mem_bwmincost.13
	.p2align	4, 0x90
	.type	free_mem_bwmincost.13,@function
free_mem_bwmincost.13:                  # @free_mem_bwmincost.13
	.cfi_startproc
# %bb.0:                                # %entry
	pushq	%rbp
	.cfi_def_cfa_offset 16
	.cfi_offset %rbp, -16
	movq	%rsp, %rbp
	.cfi_def_cfa_register %rbp
	subq	$32, %rsp
	movl	$530662309, -28(%rbp)   # imm = 0x1FA143A5
	movq	%rdi, -24(%rbp)
	movl	$0, -4(%rbp)
.LBB26_1:                               # %for.cond
                                        # =>This Loop Header: Depth=1
                                        #     Child Loop BB26_3 Depth 2
                                        #       Child Loop BB26_5 Depth 3
                                        #         Child Loop BB26_7 Depth 4
	movl	-4(%rbp), %ecx
	movq	img, %rax
	movl	52(%rax), %eax
	cltd
	movl	$4, %esi
	idivl	%esi
	cmpl	%eax, %ecx
	jge	.LBB26_16
# %bb.2:                                # %for.body
                                        #   in Loop: Header=BB26_1 Depth=1
	movl	$0, -8(%rbp)
.LBB26_3:                               # %for.cond1
                                        #   Parent Loop BB26_1 Depth=1
                                        # =>  This Loop Header: Depth=2
                                        #       Child Loop BB26_5 Depth 3
                                        #         Child Loop BB26_7 Depth 4
	movl	-8(%rbp), %ecx
	movq	img, %rax
	movl	60(%rax), %eax
	cltd
	movl	$4, %esi
	idivl	%esi
	cmpl	%eax, %ecx
	jge	.LBB26_14
# %bb.4:                                # %for.body4
                                        #   in Loop: Header=BB26_3 Depth=2
	movl	$0, -12(%rbp)
.LBB26_5:                               # %for.cond5
                                        #   Parent Loop BB26_1 Depth=1
                                        #     Parent Loop BB26_3 Depth=2
                                        # =>    This Loop Header: Depth=3
                                        #         Child Loop BB26_7 Depth 4
	movl	-12(%rbp), %eax
	movq	img, %rcx
	cmpl	36(%rcx), %eax
	jge	.LBB26_12
# %bb.6:                                # %for.body7
                                        #   in Loop: Header=BB26_5 Depth=3
	movl	$0, -16(%rbp)
.LBB26_7:                               # %for.cond8
                                        #   Parent Loop BB26_1 Depth=1
                                        #     Parent Loop BB26_3 Depth=2
                                        #       Parent Loop BB26_5 Depth=3
                                        # =>      This Inner Loop Header: Depth=4
	cmpl	$9, -16(%rbp)
	jge	.LBB26_10
# %bb.8:                                # %for.body10
                                        #   in Loop: Header=BB26_7 Depth=4
	movq	-24(%rbp), %rax
	movslq	-4(%rbp), %rcx
	movq	(%rax,%rcx,8), %rax
	movslq	-8(%rbp), %rcx
	movq	(%rax,%rcx,8), %rax
	movslq	-12(%rbp), %rcx
	movq	(%rax,%rcx,8), %rax
	movslq	-16(%rbp), %rcx
	movq	(%rax,%rcx,8), %rdi
	callq	free
# %bb.9:                                # %for.inc
                                        #   in Loop: Header=BB26_7 Depth=4
	movl	-16(%rbp), %eax
	addl	$1, %eax
	movl	%eax, -16(%rbp)
	jmp	.LBB26_7
.LBB26_10:                              # %for.end
                                        #   in Loop: Header=BB26_5 Depth=3
	movq	-24(%rbp), %rax
	movslq	-4(%rbp), %rcx
	movq	(%rax,%rcx,8), %rax
	movslq	-8(%rbp), %rcx
	movq	(%rax,%rcx,8), %rax
	movslq	-12(%rbp), %rcx
	movq	(%rax,%rcx,8), %rdi
	callq	free
# %bb.11:                               # %for.inc23
                                        #   in Loop: Header=BB26_5 Depth=3
	movl	-12(%rbp), %eax
	addl	$1, %eax
	movl	%eax, -12(%rbp)
	jmp	.LBB26_5
.LBB26_12:                              # %for.end25
                                        #   in Loop: Header=BB26_3 Depth=2
	movq	-24(%rbp), %rax
	movslq	-4(%rbp), %rcx
	movq	(%rax,%rcx,8), %rax
	movslq	-8(%rbp), %rcx
	movq	(%rax,%rcx,8), %rdi
	callq	free
# %bb.13:                               # %for.inc30
                                        #   in Loop: Header=BB26_3 Depth=2
	movl	-8(%rbp), %eax
	addl	$1, %eax
	movl	%eax, -8(%rbp)
	jmp	.LBB26_3
.LBB26_14:                              # %for.end32
                                        #   in Loop: Header=BB26_1 Depth=1
	movq	-24(%rbp), %rax
	movslq	-4(%rbp), %rcx
	movq	(%rax,%rcx,8), %rdi
	callq	free
# %bb.15:                               # %for.inc35
                                        #   in Loop: Header=BB26_1 Depth=1
	movl	-4(%rbp), %eax
	addl	$1, %eax
	movl	%eax, -4(%rbp)
	jmp	.LBB26_1
.LBB26_16:                              # %for.end37
	movq	-24(%rbp), %rdi
	callq	free
	cmpl	$530662309, -28(%rbp)   # imm = 0x1FA143A5
	jne	.LBB26_18
.LBB26_17:
	addq	$32, %rsp
	popq	%rbp
	.cfi_def_cfa %rsp, 8
	retq
.LBB26_18:                              # %func_exit
	.cfi_def_cfa %rbp, 16
	callq	detect_breach
	jmp	.LBB26_17
.Lfunc_end26:
	.size	free_mem_bwmincost.13, .Lfunc_end26-free_mem_bwmincost.13
	.cfi_endproc
                                        # -- End function
	.globl	free_mem_mincost.14     # -- Begin function free_mem_mincost.14
	.p2align	4, 0x90
	.type	free_mem_mincost.14,@function
free_mem_mincost.14:                    # @free_mem_mincost.14
	.cfi_startproc
# %bb.0:                                # %entry
	pushq	%rbp
	.cfi_def_cfa_offset 16
	.cfi_offset %rbp, -16
	movq	%rsp, %rbp
	.cfi_def_cfa_register %rbp
	subq	$32, %rsp
	movl	$1036658858, -28(%rbp)  # imm = 0x3DCA28AA
	movq	%rdi, -24(%rbp)
	movl	$0, -4(%rbp)
.LBB27_1:                               # %for.cond
                                        # =>This Loop Header: Depth=1
                                        #     Child Loop BB27_3 Depth 2
                                        #       Child Loop BB27_5 Depth 3
                                        #         Child Loop BB27_7 Depth 4
	movl	-4(%rbp), %ecx
	movq	img, %rax
	movl	52(%rax), %eax
	cltd
	movl	$4, %esi
	idivl	%esi
	cmpl	%eax, %ecx
	jge	.LBB27_16
# %bb.2:                                # %for.body
                                        #   in Loop: Header=BB27_1 Depth=1
	movl	$0, -8(%rbp)
.LBB27_3:                               # %for.cond1
                                        #   Parent Loop BB27_1 Depth=1
                                        # =>  This Loop Header: Depth=2
                                        #       Child Loop BB27_5 Depth 3
                                        #         Child Loop BB27_7 Depth 4
	movl	-8(%rbp), %ecx
	movq	img, %rax
	movl	60(%rax), %eax
	cltd
	movl	$4, %esi
	idivl	%esi
	cmpl	%eax, %ecx
	jge	.LBB27_14
# %bb.4:                                # %for.body4
                                        #   in Loop: Header=BB27_3 Depth=2
	movl	$0, -12(%rbp)
.LBB27_5:                               # %for.cond5
                                        #   Parent Loop BB27_1 Depth=1
                                        #     Parent Loop BB27_3 Depth=2
                                        # =>    This Loop Header: Depth=3
                                        #         Child Loop BB27_7 Depth 4
	movl	-12(%rbp), %eax
	movq	img, %rcx
	cmpl	36(%rcx), %eax
	jge	.LBB27_12
# %bb.6:                                # %for.body7
                                        #   in Loop: Header=BB27_5 Depth=3
	movl	$0, -16(%rbp)
.LBB27_7:                               # %for.cond8
                                        #   Parent Loop BB27_1 Depth=1
                                        #     Parent Loop BB27_3 Depth=2
                                        #       Parent Loop BB27_5 Depth=3
                                        # =>      This Inner Loop Header: Depth=4
	cmpl	$9, -16(%rbp)
	jge	.LBB27_10
# %bb.8:                                # %for.body10
                                        #   in Loop: Header=BB27_7 Depth=4
	movq	-24(%rbp), %rax
	movslq	-4(%rbp), %rcx
	movq	(%rax,%rcx,8), %rax
	movslq	-8(%rbp), %rcx
	movq	(%rax,%rcx,8), %rax
	movslq	-12(%rbp), %rcx
	movq	(%rax,%rcx,8), %rax
	movslq	-16(%rbp), %rcx
	movq	(%rax,%rcx,8), %rdi
	callq	free
# %bb.9:                                # %for.inc
                                        #   in Loop: Header=BB27_7 Depth=4
	movl	-16(%rbp), %eax
	addl	$1, %eax
	movl	%eax, -16(%rbp)
	jmp	.LBB27_7
.LBB27_10:                              # %for.end
                                        #   in Loop: Header=BB27_5 Depth=3
	movq	-24(%rbp), %rax
	movslq	-4(%rbp), %rcx
	movq	(%rax,%rcx,8), %rax
	movslq	-8(%rbp), %rcx
	movq	(%rax,%rcx,8), %rax
	movslq	-12(%rbp), %rcx
	movq	(%rax,%rcx,8), %rdi
	callq	free
# %bb.11:                               # %for.inc23
                                        #   in Loop: Header=BB27_5 Depth=3
	movl	-12(%rbp), %eax
	addl	$1, %eax
	movl	%eax, -12(%rbp)
	jmp	.LBB27_5
.LBB27_12:                              # %for.end25
                                        #   in Loop: Header=BB27_3 Depth=2
	movq	-24(%rbp), %rax
	movslq	-4(%rbp), %rcx
	movq	(%rax,%rcx,8), %rax
	movslq	-8(%rbp), %rcx
	movq	(%rax,%rcx,8), %rdi
	callq	free
# %bb.13:                               # %for.inc30
                                        #   in Loop: Header=BB27_3 Depth=2
	movl	-8(%rbp), %eax
	addl	$1, %eax
	movl	%eax, -8(%rbp)
	jmp	.LBB27_3
.LBB27_14:                              # %for.end32
                                        #   in Loop: Header=BB27_1 Depth=1
	movq	-24(%rbp), %rax
	movslq	-4(%rbp), %rcx
	movq	(%rax,%rcx,8), %rdi
	callq	free
# %bb.15:                               # %for.inc35
                                        #   in Loop: Header=BB27_1 Depth=1
	movl	-4(%rbp), %eax
	addl	$1, %eax
	movl	%eax, -4(%rbp)
	jmp	.LBB27_1
.LBB27_16:                              # %for.end37
	movq	-24(%rbp), %rdi
	callq	free
	cmpl	$1036658858, -28(%rbp)  # imm = 0x3DCA28AA
	jne	.LBB27_18
.LBB27_17:
	addq	$32, %rsp
	popq	%rbp
	.cfi_def_cfa %rsp, 8
	retq
.LBB27_18:                              # %func_exit
	.cfi_def_cfa %rbp, 16
	callq	detect_breach
	jmp	.LBB27_17
.Lfunc_end27:
	.size	free_mem_mincost.14, .Lfunc_end27-free_mem_mincost.14
	.cfi_endproc
                                        # -- End function
	.section	.rodata.cst4,"aM",@progbits,4
	.p2align	2               # -- Begin function DefineThresholdMB.15
.LCPI28_0:
	.long	1082130432              # float 4
.LCPI28_1:
	.long	1132462080              # float 256
.LCPI28_2:
	.long	1102284063              # float 22.4400005
	.text
	.globl	DefineThresholdMB.15
	.p2align	4, 0x90
	.type	DefineThresholdMB.15,@function
DefineThresholdMB.15:                   # @DefineThresholdMB.15
	.cfi_startproc
# %bb.0:                                # %entry
	pushq	%rbp
	.cfi_def_cfa_offset 16
	.cfi_offset %rbp, -16
	movq	%rsp, %rbp
	.cfi_def_cfa_register %rbp
	subq	$32, %rsp
	movl	$1980012919, -16(%rbp)  # imm = 0x76049977
	movq	input, %rax
	movl	16(%rax), %eax
	subl	$0, %eax
	cltd
	movl	$6, %ecx
	idivl	%ecx
	movl	%eax, -20(%rbp)
	movq	input, %rax
	movl	16(%rax), %eax
	subl	$0, %eax
	cltd
	idivl	%ecx
	movl	%edx, -12(%rbp)
	movl	-20(%rbp), %eax
	addl	$15, %eax
	movl	%eax, -4(%rbp)
	movq	img, %rax
	cmpl	$2, 24(%rax)
	jne	.LBB28_2
# %bb.1:                                # %if.then
	movl	-4(%rbp), %ecx
                                        # kill: def $cl killed $ecx
	movl	$1, %eax
	shll	%cl, %eax
	cltd
	movl	$3, %ecx
	idivl	%ecx
	movl	%eax, -8(%rbp)
	jmp	.LBB28_3
.LBB28_2:                               # %if.else
	movl	-4(%rbp), %ecx
                                        # kill: def $cl killed $ecx
	movl	$1, %eax
	shll	%cl, %eax
	cltd
	movl	$6, %ecx
	idivl	%ecx
	movl	%eax, -8(%rbp)
.LBB28_3:                               # %if.end
	vmovss	.LCPI28_0(%rip), %xmm0  # xmm0 = mem[0],zero,zero,zero
	vmovss	.LCPI28_1(%rip), %xmm1  # xmm1 = mem[0],zero,zero,zero
	vmovss	.LCPI28_2(%rip), %xmm2  # xmm2 = mem[0],zero,zero,zero
	movl	-4(%rbp), %ecx
                                        # kill: def $cl killed $ecx
	movl	$1, %eax
	shll	%cl, %eax
	subl	-8(%rbp), %eax
	movslq	-12(%rbp), %rcx
	shlq	$6, %rcx
	movabsq	$quant_coef, %rsi
	addq	%rcx, %rsi
	cltd
	idivl	(%rsi)
	movl	%eax, -24(%rbp)
	vcvtsi2ssl	-24(%rbp), %xmm0, %xmm3
	vdivss	%xmm2, %xmm3, %xmm2
	vmovss	%xmm2, Quantize_step
	vmulss	Quantize_step, %xmm1, %xmm1
	vmovss	%xmm1, Bsize+28
	vmulss	Bsize+28, %xmm0, %xmm1
	vmovss	%xmm1, Bsize+24
	vmulss	Bsize+28, %xmm0, %xmm1
	vmovss	%xmm1, Bsize+20
	vmulss	Bsize+20, %xmm0, %xmm1
	vmovss	%xmm1, Bsize+16
	vmulss	Bsize+16, %xmm0, %xmm1
	vmovss	%xmm1, Bsize+12
	vmulss	Bsize+16, %xmm0, %xmm1
	vmovss	%xmm1, Bsize+8
	vmulss	Bsize+8, %xmm0, %xmm0
	vmovss	%xmm0, Bsize+4
	cmpl	$1980012919, -16(%rbp)  # imm = 0x76049977
	jne	.LBB28_5
.LBB28_4:
	addq	$32, %rsp
	popq	%rbp
	.cfi_def_cfa %rsp, 8
	retq
.LBB28_5:                               # %func_exit
	.cfi_def_cfa %rbp, 16
	callq	detect_breach
	jmp	.LBB28_4
.Lfunc_end28:
	.size	DefineThresholdMB.15, .Lfunc_end28-DefineThresholdMB.15
	.cfi_endproc
                                        # -- End function
	.globl	free_mem_mincost.16     # -- Begin function free_mem_mincost.16
	.p2align	4, 0x90
	.type	free_mem_mincost.16,@function
free_mem_mincost.16:                    # @free_mem_mincost.16
	.cfi_startproc
# %bb.0:                                # %entry
	pushq	%rbp
	.cfi_def_cfa_offset 16
	.cfi_offset %rbp, -16
	movq	%rsp, %rbp
	.cfi_def_cfa_register %rbp
	subq	$32, %rsp
	movl	$1411593218, -28(%rbp)  # imm = 0x54233402
	movq	%rdi, -24(%rbp)
	movl	$0, -4(%rbp)
.LBB29_1:                               # %for.cond
                                        # =>This Loop Header: Depth=1
                                        #     Child Loop BB29_3 Depth 2
                                        #       Child Loop BB29_5 Depth 3
                                        #         Child Loop BB29_7 Depth 4
	movl	-4(%rbp), %ecx
	movq	img, %rax
	movl	52(%rax), %eax
	cltd
	movl	$4, %esi
	idivl	%esi
	cmpl	%eax, %ecx
	jge	.LBB29_16
# %bb.2:                                # %for.body
                                        #   in Loop: Header=BB29_1 Depth=1
	movl	$0, -8(%rbp)
.LBB29_3:                               # %for.cond1
                                        #   Parent Loop BB29_1 Depth=1
                                        # =>  This Loop Header: Depth=2
                                        #       Child Loop BB29_5 Depth 3
                                        #         Child Loop BB29_7 Depth 4
	movl	-8(%rbp), %ecx
	movq	img, %rax
	movl	60(%rax), %eax
	cltd
	movl	$4, %esi
	idivl	%esi
	cmpl	%eax, %ecx
	jge	.LBB29_14
# %bb.4:                                # %for.body4
                                        #   in Loop: Header=BB29_3 Depth=2
	movl	$0, -12(%rbp)
.LBB29_5:                               # %for.cond5
                                        #   Parent Loop BB29_1 Depth=1
                                        #     Parent Loop BB29_3 Depth=2
                                        # =>    This Loop Header: Depth=3
                                        #         Child Loop BB29_7 Depth 4
	movl	-12(%rbp), %eax
	movq	img, %rcx
	cmpl	36(%rcx), %eax
	jge	.LBB29_12
# %bb.6:                                # %for.body7
                                        #   in Loop: Header=BB29_5 Depth=3
	movl	$0, -16(%rbp)
.LBB29_7:                               # %for.cond8
                                        #   Parent Loop BB29_1 Depth=1
                                        #     Parent Loop BB29_3 Depth=2
                                        #       Parent Loop BB29_5 Depth=3
                                        # =>      This Inner Loop Header: Depth=4
	cmpl	$9, -16(%rbp)
	jge	.LBB29_10
# %bb.8:                                # %for.body10
                                        #   in Loop: Header=BB29_7 Depth=4
	movq	-24(%rbp), %rax
	movslq	-4(%rbp), %rcx
	movq	(%rax,%rcx,8), %rax
	movslq	-8(%rbp), %rcx
	movq	(%rax,%rcx,8), %rax
	movslq	-12(%rbp), %rcx
	movq	(%rax,%rcx,8), %rax
	movslq	-16(%rbp), %rcx
	movq	(%rax,%rcx,8), %rdi
	callq	free
# %bb.9:                                # %for.inc
                                        #   in Loop: Header=BB29_7 Depth=4
	movl	-16(%rbp), %eax
	addl	$1, %eax
	movl	%eax, -16(%rbp)
	jmp	.LBB29_7
.LBB29_10:                              # %for.end
                                        #   in Loop: Header=BB29_5 Depth=3
	movq	-24(%rbp), %rax
	movslq	-4(%rbp), %rcx
	movq	(%rax,%rcx,8), %rax
	movslq	-8(%rbp), %rcx
	movq	(%rax,%rcx,8), %rax
	movslq	-12(%rbp), %rcx
	movq	(%rax,%rcx,8), %rdi
	callq	free
# %bb.11:                               # %for.inc23
                                        #   in Loop: Header=BB29_5 Depth=3
	movl	-12(%rbp), %eax
	addl	$1, %eax
	movl	%eax, -12(%rbp)
	jmp	.LBB29_5
.LBB29_12:                              # %for.end25
                                        #   in Loop: Header=BB29_3 Depth=2
	movq	-24(%rbp), %rax
	movslq	-4(%rbp), %rcx
	movq	(%rax,%rcx,8), %rax
	movslq	-8(%rbp), %rcx
	movq	(%rax,%rcx,8), %rdi
	callq	free
# %bb.13:                               # %for.inc30
                                        #   in Loop: Header=BB29_3 Depth=2
	movl	-8(%rbp), %eax
	addl	$1, %eax
	movl	%eax, -8(%rbp)
	jmp	.LBB29_3
.LBB29_14:                              # %for.end32
                                        #   in Loop: Header=BB29_1 Depth=1
	movq	-24(%rbp), %rax
	movslq	-4(%rbp), %rcx
	movq	(%rax,%rcx,8), %rdi
	callq	free
# %bb.15:                               # %for.inc35
                                        #   in Loop: Header=BB29_1 Depth=1
	movl	-4(%rbp), %eax
	addl	$1, %eax
	movl	%eax, -4(%rbp)
	jmp	.LBB29_1
.LBB29_16:                              # %for.end37
	movq	-24(%rbp), %rdi
	callq	free
	cmpl	$1411593218, -28(%rbp)  # imm = 0x54233402
	jne	.LBB29_18
.LBB29_17:
	addq	$32, %rsp
	popq	%rbp
	.cfi_def_cfa %rsp, 8
	retq
.LBB29_18:                              # %func_exit
	.cfi_def_cfa %rbp, 16
	callq	detect_breach
	jmp	.LBB29_17
.Lfunc_end29:
	.size	free_mem_mincost.16, .Lfunc_end29-free_mem_mincost.16
	.cfi_endproc
                                        # -- End function
	.section	.rodata.cst4,"aM",@progbits,4
	.p2align	2               # -- Begin function DefineThresholdMB.17
.LCPI30_0:
	.long	1082130432              # float 4
.LCPI30_1:
	.long	1132462080              # float 256
.LCPI30_2:
	.long	1102284063              # float 22.4400005
	.text
	.globl	DefineThresholdMB.17
	.p2align	4, 0x90
	.type	DefineThresholdMB.17,@function
DefineThresholdMB.17:                   # @DefineThresholdMB.17
	.cfi_startproc
# %bb.0:                                # %entry
	pushq	%rbp
	.cfi_def_cfa_offset 16
	.cfi_offset %rbp, -16
	movq	%rsp, %rbp
	.cfi_def_cfa_register %rbp
	subq	$32, %rsp
	movl	$1203015686, -20(%rbp)  # imm = 0x47B49006
	movq	input, %rax
	movl	16(%rax), %eax
	subl	$0, %eax
	cltd
	movl	$6, %ecx
	idivl	%ecx
	movl	%eax, -24(%rbp)
	movq	input, %rax
	movl	16(%rax), %eax
	subl	$0, %eax
	cltd
	idivl	%ecx
	movl	%edx, -12(%rbp)
	movl	-24(%rbp), %eax
	addl	$15, %eax
	movl	%eax, -4(%rbp)
	movq	img, %rax
	cmpl	$2, 24(%rax)
	jne	.LBB30_2
# %bb.1:                                # %if.then
	movl	-4(%rbp), %ecx
                                        # kill: def $cl killed $ecx
	movl	$1, %eax
	shll	%cl, %eax
	cltd
	movl	$3, %ecx
	idivl	%ecx
	movl	%eax, -8(%rbp)
	jmp	.LBB30_3
.LBB30_2:                               # %if.else
	movl	-4(%rbp), %ecx
                                        # kill: def $cl killed $ecx
	movl	$1, %eax
	shll	%cl, %eax
	cltd
	movl	$6, %ecx
	idivl	%ecx
	movl	%eax, -8(%rbp)
.LBB30_3:                               # %if.end
	vmovss	.LCPI30_0(%rip), %xmm0  # xmm0 = mem[0],zero,zero,zero
	vmovss	.LCPI30_1(%rip), %xmm1  # xmm1 = mem[0],zero,zero,zero
	vmovss	.LCPI30_2(%rip), %xmm2  # xmm2 = mem[0],zero,zero,zero
	movl	-4(%rbp), %ecx
                                        # kill: def $cl killed $ecx
	movl	$1, %eax
	shll	%cl, %eax
	subl	-8(%rbp), %eax
	movslq	-12(%rbp), %rcx
	shlq	$6, %rcx
	movabsq	$quant_coef, %rsi
	addq	%rcx, %rsi
	cltd
	idivl	(%rsi)
	movl	%eax, -16(%rbp)
	vcvtsi2ssl	-16(%rbp), %xmm0, %xmm3
	vdivss	%xmm2, %xmm3, %xmm2
	vmovss	%xmm2, Quantize_step
	vmulss	Quantize_step, %xmm1, %xmm1
	vmovss	%xmm1, Bsize+28
	vmulss	Bsize+28, %xmm0, %xmm1
	vmovss	%xmm1, Bsize+24
	vmulss	Bsize+28, %xmm0, %xmm1
	vmovss	%xmm1, Bsize+20
	vmulss	Bsize+20, %xmm0, %xmm1
	vmovss	%xmm1, Bsize+16
	vmulss	Bsize+16, %xmm0, %xmm1
	vmovss	%xmm1, Bsize+12
	vmulss	Bsize+16, %xmm0, %xmm1
	vmovss	%xmm1, Bsize+8
	vmulss	Bsize+8, %xmm0, %xmm0
	vmovss	%xmm0, Bsize+4
	cmpl	$1203015686, -20(%rbp)  # imm = 0x47B49006
	jne	.LBB30_5
.LBB30_4:
	addq	$32, %rsp
	popq	%rbp
	.cfi_def_cfa %rsp, 8
	retq
.LBB30_5:                               # %func_exit
	.cfi_def_cfa %rbp, 16
	callq	detect_breach
	jmp	.LBB30_4
.Lfunc_end30:
	.size	DefineThresholdMB.17, .Lfunc_end30-DefineThresholdMB.17
	.cfi_endproc
                                        # -- End function
	.section	.rodata.cst8,"aM",@progbits,8
	.p2align	3               # -- Begin function FastSubPelBlockMotionSearch.18
.LCPI31_0:
	.quad	4602678819172646912     # double 0.5
.LCPI31_1:
	.quad	4679240012837945344     # double 65536
	.text
	.globl	FastSubPelBlockMotionSearch.18
	.p2align	4, 0x90
	.type	FastSubPelBlockMotionSearch.18,@function
FastSubPelBlockMotionSearch.18:         # @FastSubPelBlockMotionSearch.18
	.cfi_startproc
# %bb.0:                                # %entry
	pushq	%rbp
	.cfi_def_cfa_offset 16
	.cfi_offset %rbp, -16
	movq	%rsp, %rbp
	.cfi_def_cfa_register %rbp
	pushq	%r14
	pushq	%rbx
	subq	$208, %rsp
	.cfi_offset %rbx, -32
	.cfi_offset %r14, -24
	movl	72(%rbp), %eax
	movl	64(%rbp), %eax
	movl	56(%rbp), %eax
	movl	48(%rbp), %eax
	movq	40(%rbp), %rax
	movq	32(%rbp), %rax
	movw	24(%rbp), %ax
	movw	16(%rbp), %ax
	movl	$1630405851, -148(%rbp) # imm = 0x612E04DB
	movq	%rdi, -128(%rbp)
	movw	%si, -78(%rbp)
	movl	%edx, -132(%rbp)
	movl	%ecx, -64(%rbp)
	movl	%r8d, -60(%rbp)
	movl	%r9d, -92(%rbp)
	vmovsd	%xmm0, -160(%rbp)
	movq	img, %rax
	cmpl	$0, 72400(%rax)
	je	.LBB31_3
# %bb.1:                                # %land.lhs.true
	movq	img, %rax
	movq	14168(%rax), %rax
	movq	img, %rcx
	movslq	12(%rcx), %rcx
	imulq	$632, %rcx, %rcx        # imm = 0x278
	addq	%rcx, %rax
	cmpl	$0, 532(%rax)
	je	.LBB31_3
# %bb.2:                                # %cond.true
	movq	img, %rax
	movl	12(%rax), %eax
	cltd
	movl	$2, %ecx
	idivl	%ecx
	cmpl	$0, %edx
	movl	$4, %eax
	cmovnel	%eax, %ecx
	jmp	.LBB31_4
.LBB31_3:                               # %cond.false
	xorl	%ecx, %ecx
	jmp	.LBB31_4
.LBB31_4:                               # %cond.end
	vmovsd	.LCPI31_0(%rip), %xmm0  # xmm0 = mem[0],zero
	vmovsd	.LCPI31_1(%rip), %xmm1  # xmm1 = mem[0],zero
	movl	%ecx, -152(%rbp)
	movl	-132(%rbp), %eax
	addl	-152(%rbp), %eax
	cltq
	movq	listX(,%rax,8), %rax
	movswq	-78(%rbp), %rcx
	movq	(%rax,%rcx,8), %rax
	movq	%rax, -88(%rbp)
	vmulsd	-160(%rbp), %xmm1, %xmm1
	vaddsd	%xmm0, %xmm1, %xmm0
	vcvttsd2si	%xmm0, %eax
	movl	%eax, -72(%rbp)
	movl	$0, -44(%rbp)
	movq	input, %rax
	movslq	-92(%rbp), %rcx
	movl	80(%rax,%rcx,8), %eax
	movl	%eax, -68(%rbp)
	movq	input, %rax
	movslq	-92(%rbp), %rcx
	movl	84(%rax,%rcx,8), %eax
	movl	%eax, -56(%rbp)
	movl	-64(%rbp), %eax
	shll	$2, %eax
	movl	%eax, -104(%rbp)
	movl	-60(%rbp), %eax
	shll	$2, %eax
	movl	%eax, -120(%rbp)
	movq	-88(%rbp), %rax
	movl	6392(%rax), %eax
	subl	-68(%rbp), %eax
	addl	$1, %eax
	shll	$2, %eax
	movl	%eax, -140(%rbp)
	movq	-88(%rbp), %rax
	movl	6396(%rax), %eax
	subl	-56(%rbp), %eax
	addl	$1, %eax
	shll	$2, %eax
	movl	%eax, -136(%rbp)
	movl	$0, -36(%rbp)
	movl	$0, -40(%rbp)
	movq	32(%rbp), %rax
	movswl	(%rax), %ecx
	shll	$2, %ecx
	movw	%cx, (%rax)
	movq	40(%rbp), %rax
	movswl	(%rax), %ecx
	shll	$2, %ecx
	movw	%cx, (%rax)
	movl	-104(%rbp), %eax
	movq	32(%rbp), %rcx
	movswl	(%rcx), %ecx
	addl	%ecx, %eax
	cmpl	$1, %eax
	jle	.LBB31_9
# %bb.5:                                # %land.lhs.true32
	movl	-104(%rbp), %eax
	movq	32(%rbp), %rcx
	movswl	(%rcx), %ecx
	addl	%ecx, %eax
	movl	-140(%rbp), %ecx
	subl	$2, %ecx
	cmpl	%ecx, %eax
	jge	.LBB31_9
# %bb.6:                                # %land.lhs.true38
	movl	-120(%rbp), %eax
	movq	40(%rbp), %rcx
	movswl	(%rcx), %ecx
	addl	%ecx, %eax
	cmpl	$1, %eax
	jle	.LBB31_9
# %bb.7:                                # %land.lhs.true43
	movl	-120(%rbp), %eax
	movq	40(%rbp), %rcx
	movswl	(%rcx), %ecx
	addl	%ecx, %eax
	movl	-136(%rbp), %ecx
	subl	$2, %ecx
	cmpl	%ecx, %eax
	jge	.LBB31_9
# %bb.8:                                # %if.then
	movabsq	$FastPelY_14, %rax
	movq	%rax, PelY_14
	jmp	.LBB31_10
.LBB31_9:                               # %if.else
	movabsq	$UMVPelY_14, %rax
	movq	%rax, PelY_14
.LBB31_10:                              # %if.end
	movl	$3, -24(%rbp)
	movswl	16(%rbp), %eax
	movq	32(%rbp), %rcx
	movswl	(%rcx), %ecx
	subl	%ecx, %eax
	cltd
	movl	$4, %ecx
	idivl	%ecx
	movl	%edx, -108(%rbp)
	movswl	24(%rbp), %eax
	movq	40(%rbp), %rdx
	movswl	(%rdx), %edx
	subl	%edx, %eax
	cltd
	idivl	%ecx
	movl	%edx, -100(%rbp)
	movl	pred_MV_uplayer, %eax
	movq	32(%rbp), %rdx
	movswl	(%rdx), %edx
	subl	%edx, %eax
	cltd
	idivl	%ecx
	movl	%edx, -164(%rbp)
	movl	pred_MV_uplayer+4, %eax
	movq	40(%rbp), %rdx
	movswl	(%rdx), %edx
	subl	%edx, %eax
	cltd
	idivl	%ecx
	movl	%edx, -172(%rbp)
	movq	SearchState, %rax
	movq	(%rax), %rdi
	movl	-24(%rbp), %eax
	shll	$1, %eax
	addl	$1, %eax
	movl	-24(%rbp), %ecx
	shll	$1, %ecx
	addl	$1, %ecx
	imull	%ecx, %eax
	movslq	%eax, %rdx
	xorl	%esi, %esi
	callq	memset
	movq	input, %rax
	cmpl	$0, 24(%rax)
	je	.LBB31_14
# %bb.11:                               # %if.then71
	movq	32(%rbp), %rax
	movswl	(%rax), %eax
	movl	%eax, -28(%rbp)
	movq	40(%rbp), %rax
	movswl	(%rax), %eax
	movl	%eax, -20(%rbp)
	movl	-72(%rbp), %eax
	movq	mvbits, %rdx
	movl	-28(%rbp), %esi
	movl	-44(%rbp), %ecx
                                        # kill: def $cl killed $ecx
	shll	%cl, %esi
	movswl	16(%rbp), %ecx
	subl	%ecx, %esi
	movslq	%esi, %rcx
	movl	(%rdx,%rcx,4), %edx
	movq	mvbits, %rsi
	movl	-20(%rbp), %edi
	movl	-44(%rbp), %ecx
                                        # kill: def $cl killed $ecx
	shll	%cl, %edi
	movswl	24(%rbp), %ecx
	subl	%ecx, %edi
	movslq	%edi, %rcx
	addl	(%rsi,%rcx,4), %edx
	imull	%edx, %eax
	sarl	$16, %eax
	movl	%eax, -48(%rbp)
	movl	-64(%rbp), %edi
	movl	-60(%rbp), %esi
	movl	-68(%rbp), %edx
	movl	-56(%rbp), %ecx
	movl	-28(%rbp), %r8d
	movl	-20(%rbp), %r9d
	movq	-88(%rbp), %rax
	movq	-128(%rbp), %rbx
	movl	-48(%rbp), %r10d
	movl	64(%rbp), %r11d
	movl	72(%rbp), %r14d
	movq	%rax, (%rsp)
	movq	%rbx, 8(%rsp)
	movl	%r10d, 16(%rsp)
	movl	%r11d, 24(%rsp)
	movl	%r14d, 32(%rsp)
	callq	AddUpSADQuarter
	movl	%eax, -32(%rbp)
	movq	SearchState, %rax
	movslq	-24(%rbp), %rcx
	movq	(%rax,%rcx,8), %rax
	movslq	-24(%rbp), %rcx
	movb	$1, (%rax,%rcx)
	movl	-32(%rbp), %eax
	cmpl	64(%rbp), %eax
	jge	.LBB31_13
# %bb.12:                               # %if.then92
	movl	-32(%rbp), %eax
	movl	%eax, 64(%rbp)
	movl	-28(%rbp), %eax
	movl	%eax, -36(%rbp)
	movl	-20(%rbp), %eax
	movl	%eax, -40(%rbp)
.LBB31_13:                              # %if.end93
	jmp	.LBB31_15
.LBB31_14:                              # %if.else94
	movq	SearchState, %rax
	movslq	-24(%rbp), %rcx
	movq	(%rax,%rcx,8), %rax
	movslq	-24(%rbp), %rcx
	movb	$1, (%rax,%rcx)
	movq	32(%rbp), %rax
	movswl	(%rax), %eax
	movl	%eax, -36(%rbp)
	movq	40(%rbp), %rax
	movswl	(%rax), %eax
	movl	%eax, -40(%rbp)
.LBB31_15:                              # %if.end101
	cmpl	$0, -108(%rbp)
	jne	.LBB31_17
# %bb.16:                               # %lor.lhs.false
	cmpl	$0, -100(%rbp)
	je	.LBB31_20
.LBB31_17:                              # %if.then106
	movq	32(%rbp), %rax
	movswl	(%rax), %eax
	addl	-108(%rbp), %eax
	movl	%eax, -28(%rbp)
	movq	40(%rbp), %rax
	movswl	(%rax), %eax
	addl	-100(%rbp), %eax
	movl	%eax, -20(%rbp)
	movl	-72(%rbp), %eax
	movq	mvbits, %rdx
	movl	-28(%rbp), %esi
	movl	-44(%rbp), %ecx
                                        # kill: def $cl killed $ecx
	shll	%cl, %esi
	movswl	16(%rbp), %ecx
	subl	%ecx, %esi
	movslq	%esi, %rcx
	movl	(%rdx,%rcx,4), %edx
	movq	mvbits, %rsi
	movl	-20(%rbp), %edi
	movl	-44(%rbp), %ecx
                                        # kill: def $cl killed $ecx
	shll	%cl, %edi
	movswl	24(%rbp), %ecx
	subl	%ecx, %edi
	movslq	%edi, %rcx
	addl	(%rsi,%rcx,4), %edx
	imull	%edx, %eax
	sarl	$16, %eax
	movl	%eax, -48(%rbp)
	movl	-64(%rbp), %edi
	movl	-60(%rbp), %esi
	movl	-68(%rbp), %edx
	movl	-56(%rbp), %ecx
	movl	-28(%rbp), %r8d
	movl	-20(%rbp), %r9d
	movq	-88(%rbp), %rax
	movq	-128(%rbp), %rbx
	movl	-48(%rbp), %r10d
	movl	64(%rbp), %r11d
	movl	72(%rbp), %r14d
	movq	%rax, (%rsp)
	movq	%rbx, 8(%rsp)
	movl	%r10d, 16(%rsp)
	movl	%r11d, 24(%rsp)
	movl	%r14d, 32(%rsp)
	callq	AddUpSADQuarter
	movl	%eax, -32(%rbp)
	movq	SearchState, %rax
	movl	-20(%rbp), %ecx
	movq	40(%rbp), %rdx
	movswl	(%rdx), %edx
	subl	%edx, %ecx
	addl	-24(%rbp), %ecx
	movslq	%ecx, %rcx
	movq	(%rax,%rcx,8), %rax
	movl	-28(%rbp), %ecx
	movq	32(%rbp), %rdx
	movswl	(%rdx), %edx
	subl	%edx, %ecx
	addl	-24(%rbp), %ecx
	movslq	%ecx, %rcx
	movb	$1, (%rax,%rcx)
	movl	-32(%rbp), %eax
	cmpl	64(%rbp), %eax
	jge	.LBB31_19
# %bb.18:                               # %if.then137
	movl	-32(%rbp), %eax
	movl	%eax, 64(%rbp)
	movl	-28(%rbp), %eax
	movl	%eax, -36(%rbp)
	movl	-20(%rbp), %eax
	movl	%eax, -40(%rbp)
.LBB31_19:                              # %if.end138
	jmp	.LBB31_20
.LBB31_20:                              # %if.end139
	movl	-36(%rbp), %eax
	movl	%eax, -96(%rbp)
	movl	-40(%rbp), %eax
	movl	%eax, -116(%rbp)
	movl	-24(%rbp), %eax
	shll	$1, %eax
	addl	$1, %eax
	movl	%eax, -144(%rbp)
	movl	$0, -76(%rbp)
.LBB31_21:                              # %for.cond
                                        # =>This Loop Header: Depth=1
                                        #     Child Loop BB31_23 Depth 2
	movl	-76(%rbp), %eax
	cmpl	-144(%rbp), %eax
	jge	.LBB31_37
# %bb.22:                               # %for.body
                                        #   in Loop: Header=BB31_21 Depth=1
	movl	$1, -112(%rbp)
	movl	$65536, -168(%rbp)      # imm = 0x10000
	movl	$0, -52(%rbp)
.LBB31_23:                              # %for.cond144
                                        #   Parent Loop BB31_21 Depth=1
                                        # =>  This Inner Loop Header: Depth=2
	cmpl	$4, -52(%rbp)
	jge	.LBB31_33
# %bb.24:                               # %for.body147
                                        #   in Loop: Header=BB31_23 Depth=2
	movl	-96(%rbp), %eax
	movslq	-52(%rbp), %rcx
	addl	FastSubPelBlockMotionSearch.Diamond_x(,%rcx,4), %eax
	movl	%eax, -28(%rbp)
	movl	-116(%rbp), %eax
	movslq	-52(%rbp), %rcx
	addl	FastSubPelBlockMotionSearch.Diamond_y(,%rcx,4), %eax
	movl	%eax, -20(%rbp)
	movl	-28(%rbp), %edi
	movq	32(%rbp), %rax
	movswl	(%rax), %eax
	subl	%eax, %edi
	callq	abs
	cmpl	-24(%rbp), %eax
	jg	.LBB31_31
# %bb.25:                               # %land.lhs.true159
                                        #   in Loop: Header=BB31_23 Depth=2
	movl	-20(%rbp), %edi
	movq	40(%rbp), %rax
	movswl	(%rax), %eax
	subl	%eax, %edi
	callq	abs
	cmpl	-24(%rbp), %eax
	jg	.LBB31_31
# %bb.26:                               # %if.then165
                                        #   in Loop: Header=BB31_23 Depth=2
	movq	SearchState, %rax
	movl	-20(%rbp), %ecx
	movq	40(%rbp), %rdx
	movswl	(%rdx), %edx
	subl	%edx, %ecx
	addl	-24(%rbp), %ecx
	movslq	%ecx, %rcx
	movq	(%rax,%rcx,8), %rax
	movl	-28(%rbp), %ecx
	movq	32(%rbp), %rdx
	movswl	(%rdx), %edx
	subl	%edx, %ecx
	addl	-24(%rbp), %ecx
	movslq	%ecx, %rcx
	cmpb	$0, (%rax,%rcx)
	jne	.LBB31_30
# %bb.27:                               # %if.then177
                                        #   in Loop: Header=BB31_23 Depth=2
	movl	-72(%rbp), %eax
	movq	mvbits, %rdx
	movl	-28(%rbp), %esi
	movl	-44(%rbp), %ecx
                                        # kill: def $cl killed $ecx
	shll	%cl, %esi
	movswl	16(%rbp), %ecx
	subl	%ecx, %esi
	movslq	%esi, %rcx
	movl	(%rdx,%rcx,4), %edx
	movq	mvbits, %rsi
	movl	-20(%rbp), %edi
	movl	-44(%rbp), %ecx
                                        # kill: def $cl killed $ecx
	shll	%cl, %edi
	movswl	24(%rbp), %ecx
	subl	%ecx, %edi
	movslq	%edi, %rcx
	addl	(%rsi,%rcx,4), %edx
	imull	%edx, %eax
	sarl	$16, %eax
	movl	%eax, -48(%rbp)
	movl	-64(%rbp), %edi
	movl	-60(%rbp), %esi
	movl	-68(%rbp), %edx
	movl	-56(%rbp), %ecx
	movl	-28(%rbp), %r8d
	movl	-20(%rbp), %r9d
	movq	-88(%rbp), %rax
	movq	-128(%rbp), %rbx
	movl	-48(%rbp), %r10d
	movl	64(%rbp), %r11d
	movl	72(%rbp), %r14d
	movq	%rax, (%rsp)
	movq	%rbx, 8(%rsp)
	movl	%r10d, 16(%rsp)
	movl	%r11d, 24(%rsp)
	movl	%r14d, 32(%rsp)
	callq	AddUpSADQuarter
	movl	%eax, -32(%rbp)
	movq	SearchState, %rax
	movl	-20(%rbp), %ecx
	movq	40(%rbp), %rdx
	movswl	(%rdx), %edx
	subl	%edx, %ecx
	addl	-24(%rbp), %ecx
	movslq	%ecx, %rcx
	movq	(%rax,%rcx,8), %rax
	movl	-28(%rbp), %ecx
	movq	32(%rbp), %rdx
	movswl	(%rdx), %edx
	subl	%edx, %ecx
	addl	-24(%rbp), %ecx
	movslq	%ecx, %rcx
	movb	$1, (%rax,%rcx)
	movl	-32(%rbp), %eax
	cmpl	64(%rbp), %eax
	jge	.LBB31_29
# %bb.28:                               # %if.then204
                                        #   in Loop: Header=BB31_23 Depth=2
	movl	-32(%rbp), %eax
	movl	%eax, 64(%rbp)
	movl	-28(%rbp), %eax
	movl	%eax, -36(%rbp)
	movl	-20(%rbp), %eax
	movl	%eax, -40(%rbp)
	movl	$0, -112(%rbp)
.LBB31_29:                              # %if.end205
                                        #   in Loop: Header=BB31_23 Depth=2
	jmp	.LBB31_30
.LBB31_30:                              # %if.end206
                                        #   in Loop: Header=BB31_23 Depth=2
	jmp	.LBB31_31
.LBB31_31:                              # %if.end207
                                        #   in Loop: Header=BB31_23 Depth=2
	jmp	.LBB31_32
.LBB31_32:                              # %for.inc
                                        #   in Loop: Header=BB31_23 Depth=2
	movl	-52(%rbp), %eax
	addl	$1, %eax
	movl	%eax, -52(%rbp)
	jmp	.LBB31_23
.LBB31_33:                              # %for.end
                                        #   in Loop: Header=BB31_21 Depth=1
	movl	-36(%rbp), %eax
	movl	%eax, -96(%rbp)
	movl	-40(%rbp), %eax
	movl	%eax, -116(%rbp)
	cmpl	$0, -112(%rbp)
	je	.LBB31_35
# %bb.34:                               # %if.then209
	jmp	.LBB31_38
.LBB31_35:                              # %if.end210
                                        #   in Loop: Header=BB31_21 Depth=1
	jmp	.LBB31_36
.LBB31_36:                              # %for.inc211
                                        #   in Loop: Header=BB31_21 Depth=1
	movl	-76(%rbp), %eax
	addl	$1, %eax
	movl	%eax, -76(%rbp)
	jmp	.LBB31_21
.LBB31_37:                              # %for.end213.loopexit
	jmp	.LBB31_38
.LBB31_38:                              # %for.end213
	movl	-36(%rbp), %eax
	movq	32(%rbp), %rcx
	movw	%ax, (%rcx)
	movl	-40(%rbp), %eax
	movq	40(%rbp), %rcx
	movw	%ax, (%rcx)
	movl	64(%rbp), %ebx
	cmpl	$1630405851, -148(%rbp) # imm = 0x612E04DB
	jne	.LBB31_40
.LBB31_39:
	movl	%ebx, %eax
	addq	$208, %rsp
	popq	%rbx
	popq	%r14
	popq	%rbp
	.cfi_def_cfa %rsp, 8
	retq
.LBB31_40:                              # %func_exit
	.cfi_def_cfa %rbp, 16
	callq	detect_breach
	jmp	.LBB31_39
.Lfunc_end31:
	.size	FastSubPelBlockMotionSearch.18, .Lfunc_end31-FastSubPelBlockMotionSearch.18
	.cfi_endproc
                                        # -- End function
	.globl	get_mem_bwmincost.19    # -- Begin function get_mem_bwmincost.19
	.p2align	4, 0x90
	.type	get_mem_bwmincost.19,@function
get_mem_bwmincost.19:                   # @get_mem_bwmincost.19
	.cfi_startproc
# %bb.0:                                # %entry
	pushq	%rbp
	.cfi_def_cfa_offset 16
	.cfi_offset %rbp, -16
	movq	%rsp, %rbp
	.cfi_def_cfa_register %rbp
	pushq	%rbx
	subq	$40, %rsp
	.cfi_offset %rbx, -24
	movl	$153728190, -36(%rbp)   # imm = 0x929B4BE
	movq	%rdi, -32(%rbp)
	movq	img, %rax
	movl	52(%rax), %eax
	cltd
	movl	$4, %ecx
	idivl	%ecx
	movslq	%eax, %rdi
	movl	$8, %esi
	callq	calloc
	movq	-32(%rbp), %rcx
	movq	%rax, (%rcx)
	cmpq	$0, %rax
	jne	.LBB32_2
# %bb.1:                                # %if.then
	movabsq	$.L.str, %rdi
	callq	no_mem_exit
.LBB32_2:                               # %if.end
	movl	$0, -12(%rbp)
.LBB32_3:                               # %for.cond
                                        # =>This Loop Header: Depth=1
                                        #     Child Loop BB32_7 Depth 2
                                        #       Child Loop BB32_11 Depth 3
                                        #         Child Loop BB32_15 Depth 4
	movl	-12(%rbp), %ecx
	movq	img, %rax
	movl	52(%rax), %eax
	cltd
	movl	$4, %esi
	idivl	%esi
	cmpl	%eax, %ecx
	jge	.LBB32_26
# %bb.4:                                # %for.body
                                        #   in Loop: Header=BB32_3 Depth=1
	movq	img, %rax
	movl	60(%rax), %eax
	cltd
	movl	$4, %ecx
	idivl	%ecx
	movslq	%eax, %rdi
	movl	$8, %esi
	callq	calloc
	movq	-32(%rbp), %rcx
	movq	(%rcx), %rcx
	movslq	-12(%rbp), %rdx
	movq	%rax, (%rcx,%rdx,8)
	cmpq	$0, %rax
	jne	.LBB32_6
# %bb.5:                                # %if.then11
                                        #   in Loop: Header=BB32_3 Depth=1
	movabsq	$.L.str, %rdi
	callq	no_mem_exit
.LBB32_6:                               # %if.end12
                                        #   in Loop: Header=BB32_3 Depth=1
	movl	$0, -16(%rbp)
.LBB32_7:                               # %for.cond13
                                        #   Parent Loop BB32_3 Depth=1
                                        # =>  This Loop Header: Depth=2
                                        #       Child Loop BB32_11 Depth 3
                                        #         Child Loop BB32_15 Depth 4
	movl	-16(%rbp), %ecx
	movq	img, %rax
	movl	60(%rax), %eax
	cltd
	movl	$4, %esi
	idivl	%esi
	cmpl	%eax, %ecx
	jge	.LBB32_24
# %bb.8:                                # %for.body18
                                        #   in Loop: Header=BB32_7 Depth=2
	movq	img, %rax
	movslq	36(%rax), %rdi
	movl	$8, %esi
	callq	calloc
	movq	-32(%rbp), %rcx
	movq	(%rcx), %rcx
	movslq	-12(%rbp), %rdx
	movq	(%rcx,%rdx,8), %rcx
	movslq	-16(%rbp), %rdx
	movq	%rax, (%rcx,%rdx,8)
	cmpq	$0, %rax
	jne	.LBB32_10
# %bb.9:                                # %if.then27
                                        #   in Loop: Header=BB32_7 Depth=2
	movabsq	$.L.str, %rdi
	callq	no_mem_exit
.LBB32_10:                              # %if.end28
                                        #   in Loop: Header=BB32_7 Depth=2
	movl	$0, -20(%rbp)
.LBB32_11:                              # %for.cond29
                                        #   Parent Loop BB32_3 Depth=1
                                        #     Parent Loop BB32_7 Depth=2
                                        # =>    This Loop Header: Depth=3
                                        #         Child Loop BB32_15 Depth 4
	movl	-20(%rbp), %eax
	movq	img, %rcx
	cmpl	36(%rcx), %eax
	jge	.LBB32_22
# %bb.12:                               # %for.body33
                                        #   in Loop: Header=BB32_11 Depth=3
	movl	$9, %edi
	movl	$8, %esi
	callq	calloc
	movq	-32(%rbp), %rcx
	movq	(%rcx), %rcx
	movslq	-12(%rbp), %rdx
	movq	(%rcx,%rdx,8), %rcx
	movslq	-16(%rbp), %rdx
	movq	(%rcx,%rdx,8), %rcx
	movslq	-20(%rbp), %rdx
	movq	%rax, (%rcx,%rdx,8)
	cmpq	$0, %rax
	jne	.LBB32_14
# %bb.13:                               # %if.then43
                                        #   in Loop: Header=BB32_11 Depth=3
	movabsq	$.L.str, %rdi
	callq	no_mem_exit
.LBB32_14:                              # %if.end44
                                        #   in Loop: Header=BB32_11 Depth=3
	movl	$0, -24(%rbp)
.LBB32_15:                              # %for.cond45
                                        #   Parent Loop BB32_3 Depth=1
                                        #     Parent Loop BB32_7 Depth=2
                                        #       Parent Loop BB32_11 Depth=3
                                        # =>      This Inner Loop Header: Depth=4
	cmpl	$9, -24(%rbp)
	jge	.LBB32_20
# %bb.16:                               # %for.body48
                                        #   in Loop: Header=BB32_15 Depth=4
	movl	$3, %edi
	movl	$4, %esi
	callq	calloc
	movq	-32(%rbp), %rcx
	movq	(%rcx), %rcx
	movslq	-12(%rbp), %rdx
	movq	(%rcx,%rdx,8), %rcx
	movslq	-16(%rbp), %rdx
	movq	(%rcx,%rdx,8), %rcx
	movslq	-20(%rbp), %rdx
	movq	(%rcx,%rdx,8), %rcx
	movslq	-24(%rbp), %rdx
	movq	%rax, (%rcx,%rdx,8)
	cmpq	$0, %rax
	jne	.LBB32_18
# %bb.17:                               # %if.then60
                                        #   in Loop: Header=BB32_15 Depth=4
	movabsq	$.L.str, %rdi
	callq	no_mem_exit
.LBB32_18:                              # %if.end61
                                        #   in Loop: Header=BB32_15 Depth=4
	jmp	.LBB32_19
.LBB32_19:                              # %for.inc
                                        #   in Loop: Header=BB32_15 Depth=4
	movl	-24(%rbp), %eax
	addl	$1, %eax
	movl	%eax, -24(%rbp)
	jmp	.LBB32_15
.LBB32_20:                              # %for.end
                                        #   in Loop: Header=BB32_11 Depth=3
	jmp	.LBB32_21
.LBB32_21:                              # %for.inc62
                                        #   in Loop: Header=BB32_11 Depth=3
	movl	-20(%rbp), %eax
	addl	$1, %eax
	movl	%eax, -20(%rbp)
	jmp	.LBB32_11
.LBB32_22:                              # %for.end64
                                        #   in Loop: Header=BB32_7 Depth=2
	jmp	.LBB32_23
.LBB32_23:                              # %for.inc65
                                        #   in Loop: Header=BB32_7 Depth=2
	movl	-16(%rbp), %eax
	addl	$1, %eax
	movl	%eax, -16(%rbp)
	jmp	.LBB32_7
.LBB32_24:                              # %for.end67
                                        #   in Loop: Header=BB32_3 Depth=1
	jmp	.LBB32_25
.LBB32_25:                              # %for.inc68
                                        #   in Loop: Header=BB32_3 Depth=1
	movl	-12(%rbp), %eax
	addl	$1, %eax
	movl	%eax, -12(%rbp)
	jmp	.LBB32_3
.LBB32_26:                              # %for.end70
	movq	img, %rax
	movl	52(%rax), %eax
	cltd
	movl	$4, %ecx
	idivl	%ecx
	movq	img, %rdx
	imull	60(%rdx), %eax
	cltd
	idivl	%ecx
	movq	img, %rcx
	imull	36(%rcx), %eax
	imull	$9, %eax, %eax
	imull	$3, %eax, %eax
	movslq	%eax, %rbx
	shlq	$2, %rbx
	cmpl	$153728190, -36(%rbp)   # imm = 0x929B4BE
	jne	.LBB32_28
.LBB32_27:
	movl	%ebx, %eax
	addq	$40, %rsp
	popq	%rbx
	popq	%rbp
	.cfi_def_cfa %rsp, 8
	retq
.LBB32_28:                              # %func_exit
	.cfi_def_cfa %rbp, 16
	callq	detect_breach
	jmp	.LBB32_27
.Lfunc_end32:
	.size	get_mem_bwmincost.19, .Lfunc_end32-get_mem_bwmincost.19
	.cfi_endproc
                                        # -- End function
	.section	.rodata.cst8,"aM",@progbits,8
	.p2align	3               # -- Begin function FastIntegerPelBlockMotionSearch.20
.LCPI33_0:
	.quad	4602678819172646912     # double 0.5
.LCPI33_1:
	.quad	4679240012837945344     # double 65536
	.text
	.globl	FastIntegerPelBlockMotionSearch.20
	.p2align	4, 0x90
	.type	FastIntegerPelBlockMotionSearch.20,@function
FastIntegerPelBlockMotionSearch.20:     # @FastIntegerPelBlockMotionSearch.20
	.cfi_startproc
# %bb.0:                                # %entry
	pushq	%rbp
	.cfi_def_cfa_offset 16
	.cfi_offset %rbp, -16
	movq	%rsp, %rbp
	.cfi_def_cfa_register %rbp
	pushq	%rbx
	subq	$200, %rsp
	.cfi_offset %rbx, -24
	movl	56(%rbp), %eax
	movl	48(%rbp), %eax
	movq	40(%rbp), %rax
	movq	32(%rbp), %rax
	movw	24(%rbp), %ax
	movw	16(%rbp), %ax
	movl	$997616468, -160(%rbp)  # imm = 0x3B766B54
	movq	%rdi, -128(%rbp)
	movw	%si, -46(%rbp)
	movl	%edx, -136(%rbp)
	movl	%ecx, -100(%rbp)
	movl	%r8d, -104(%rbp)
	movl	%r9d, -56(%rbp)
	vmovsd	%xmm0, -168(%rbp)
	movq	img, %rax
	cmpl	$0, 72400(%rax)
	je	.LBB33_3
# %bb.1:                                # %land.lhs.true
	movq	img, %rax
	movq	14168(%rax), %rax
	movq	img, %rcx
	movslq	12(%rcx), %rcx
	imulq	$632, %rcx, %rcx        # imm = 0x278
	addq	%rcx, %rax
	cmpl	$0, 532(%rax)
	je	.LBB33_3
# %bb.2:                                # %cond.true
	movq	img, %rax
	movl	12(%rax), %eax
	cltd
	movl	$2, %ecx
	idivl	%ecx
	cmpl	$0, %edx
	movl	$4, %eax
	cmovnel	%eax, %ecx
	jmp	.LBB33_4
.LBB33_3:                               # %cond.false
	xorl	%ecx, %ecx
	jmp	.LBB33_4
.LBB33_4:                               # %cond.end
	vmovsd	.LCPI33_0(%rip), %xmm0  # xmm0 = mem[0],zero
	vmovsd	.LCPI33_1(%rip), %xmm1  # xmm1 = mem[0],zero
	movl	%ecx, -156(%rbp)
	movl	-136(%rbp), %eax
	addl	-156(%rbp), %eax
	cltq
	movq	listX(,%rax,8), %rax
	movswq	-46(%rbp), %rcx
	movq	(%rax,%rcx,8), %rax
	movq	6432(%rax), %rax
	movq	%rax, -120(%rbp)
	vmulsd	-168(%rbp), %xmm1, %xmm1
	vaddsd	%xmm0, %xmm1, %xmm0
	vcvttsd2si	%xmm0, %eax
	movl	%eax, -96(%rbp)
	movl	$2, -32(%rbp)
	movq	input, %rax
	movslq	-56(%rbp), %rcx
	movl	84(%rax,%rcx,8), %eax
	movl	%eax, -76(%rbp)
	movq	input, %rax
	movslq	-56(%rbp), %rcx
	movl	80(%rax,%rcx,8), %eax
	movl	%eax, -60(%rbp)
	movl	-60(%rbp), %eax
	sarl	$2, %eax
	movl	%eax, -84(%rbp)
	movl	-100(%rbp), %eax
	movl	-32(%rbp), %ecx
                                        # kill: def $cl killed $ecx
	shll	%cl, %eax
	movswl	16(%rbp), %ecx
	addl	%ecx, %eax
	movl	%eax, -88(%rbp)
	movl	-104(%rbp), %eax
	movl	-32(%rbp), %ecx
                                        # kill: def $cl killed $ecx
	shll	%cl, %eax
	movswl	24(%rbp), %ecx
	addl	%ecx, %eax
	movl	%eax, -92(%rbp)
	movl	-100(%rbp), %eax
	movq	32(%rbp), %rcx
	movswl	(%rcx), %ecx
	addl	%ecx, %eax
	movl	%eax, -28(%rbp)
	movl	-104(%rbp), %eax
	movq	40(%rbp), %rcx
	movswl	(%rcx), %ecx
	addl	%ecx, %eax
	movl	%eax, -24(%rbp)
	movl	$0, -44(%rbp)
	movl	$0, -40(%rbp)
	movq	input, %rax
	movl	1236(%rax), %eax
	movl	%eax, -152(%rbp)
	movq	img, %rax
	cmpl	$0, 72400(%rax)
	je	.LBB33_7
# %bb.5:                                # %land.lhs.true28
	movq	img, %rax
	movq	14168(%rax), %rax
	movq	img, %rcx
	movslq	12(%rcx), %rcx
	imulq	$632, %rcx, %rcx        # imm = 0x278
	addq	%rcx, %rax
	cmpl	$0, 532(%rax)
	je	.LBB33_7
# %bb.6:                                # %cond.true35
	movq	img, %rax
	movl	60(%rax), %eax
	cltd
	movl	$2, %ecx
	idivl	%ecx
	jmp	.LBB33_8
.LBB33_7:                               # %cond.false37
	movq	img, %rax
	movl	60(%rax), %eax
.LBB33_8:                               # %cond.end39
	movl	%eax, -148(%rbp)
	movl	-28(%rbp), %eax
	cmpl	48(%rbp), %eax
	jle	.LBB33_13
# %bb.9:                                # %land.lhs.true42
	movl	-28(%rbp), %eax
	movq	img, %rcx
	movl	52(%rcx), %ecx
	subl	$1, %ecx
	subl	48(%rbp), %ecx
	subl	-60(%rbp), %ecx
	cmpl	%ecx, %eax
	jge	.LBB33_13
# %bb.10:                               # %land.lhs.true47
	movl	-24(%rbp), %eax
	cmpl	48(%rbp), %eax
	jle	.LBB33_13
# %bb.11:                               # %land.lhs.true50
	movl	-24(%rbp), %eax
	movl	-148(%rbp), %ecx
	subl	$1, %ecx
	subl	48(%rbp), %ecx
	subl	-76(%rbp), %ecx
	cmpl	%ecx, %eax
	jge	.LBB33_13
# %bb.12:                               # %if.then
	movabsq	$FastLineX, %rax
	movq	%rax, -112(%rbp)
	jmp	.LBB33_14
.LBB33_13:                              # %if.else
	movabsq	$UMVLineX, %rax
	movq	%rax, -112(%rbp)
.LBB33_14:                              # %if.end
	movq	McostState, %rax
	movq	(%rax), %rdi
	movl	48(%rbp), %eax
	shll	$1, %eax
	addl	$1, %eax
	movl	48(%rbp), %ecx
	shll	$1, %ecx
	addl	$1, %ecx
	imull	%ecx, %eax
	shll	$2, %eax
	movslq	%eax, %rdx
	xorl	%esi, %esi
	callq	memset
	movswl	-46(%rbp), %eax
	cmpl	$0, %eax
	jle	.LBB33_19
# %bb.15:                               # %if.then67
	cmpl	$0, pred_SAD_ref
	je	.LBB33_17
# %bb.16:                               # %if.then70
	movslq	-56(%rbp), %rax
	vmovss	Bsize(,%rax,4), %xmm0   # xmm0 = mem[0],zero,zero,zero
	movl	pred_SAD_ref, %eax
	imull	pred_SAD_ref, %eax
	vcvtsi2ss	%eax, %xmm0, %xmm1
	vdivss	%xmm1, %xmm0, %xmm0
	movslq	-56(%rbp), %rax
	vsubss	AlphaSec(,%rax,4), %xmm0, %xmm0
	vmovss	%xmm0, -80(%rbp)
	movslq	-56(%rbp), %rax
	vmovss	Bsize(,%rax,4), %xmm0   # xmm0 = mem[0],zero,zero,zero
	movl	pred_SAD_ref, %eax
	imull	pred_SAD_ref, %eax
	vcvtsi2ss	%eax, %xmm0, %xmm1
	vdivss	%xmm1, %xmm0, %xmm0
	movslq	-56(%rbp), %rax
	vsubss	AlphaThird(,%rax,4), %xmm0, %xmm0
	vmovss	%xmm0, -72(%rbp)
	jmp	.LBB33_18
.LBB33_17:                              # %if.else87
	vxorps	%xmm0, %xmm0, %xmm0
	vmovss	%xmm0, -80(%rbp)
	vmovss	%xmm0, -72(%rbp)
.LBB33_18:                              # %if.end88
	jmp	.LBB33_29
.LBB33_19:                              # %if.else89
	cmpl	$1, -56(%rbp)
	jne	.LBB33_24
# %bb.20:                               # %if.then92
	cmpl	$0, pred_SAD_space
	je	.LBB33_22
# %bb.21:                               # %if.then95
	movslq	-56(%rbp), %rax
	vmovss	Bsize(,%rax,4), %xmm0   # xmm0 = mem[0],zero,zero,zero
	movl	pred_SAD_space, %eax
	imull	pred_SAD_space, %eax
	vcvtsi2ss	%eax, %xmm0, %xmm1
	vdivss	%xmm1, %xmm0, %xmm0
	movslq	-56(%rbp), %rax
	vsubss	AlphaSec(,%rax,4), %xmm0, %xmm0
	vmovss	%xmm0, -80(%rbp)
	movslq	-56(%rbp), %rax
	vmovss	Bsize(,%rax,4), %xmm0   # xmm0 = mem[0],zero,zero,zero
	movl	pred_SAD_space, %eax
	imull	pred_SAD_space, %eax
	vcvtsi2ss	%eax, %xmm0, %xmm1
	vdivss	%xmm1, %xmm0, %xmm0
	movslq	-56(%rbp), %rax
	vsubss	AlphaThird(,%rax,4), %xmm0, %xmm0
	vmovss	%xmm0, -72(%rbp)
	jmp	.LBB33_23
.LBB33_22:                              # %if.else112
	vxorps	%xmm0, %xmm0, %xmm0
	vmovss	%xmm0, -80(%rbp)
	vmovss	%xmm0, -72(%rbp)
.LBB33_23:                              # %if.end113
	jmp	.LBB33_28
.LBB33_24:                              # %if.else114
	cmpl	$0, pred_SAD_uplayer
	je	.LBB33_26
# %bb.25:                               # %if.then117
	movslq	-56(%rbp), %rax
	vmovss	Bsize(,%rax,4), %xmm0   # xmm0 = mem[0],zero,zero,zero
	movl	pred_SAD_uplayer, %eax
	imull	pred_SAD_uplayer, %eax
	vcvtsi2ss	%eax, %xmm0, %xmm1
	vdivss	%xmm1, %xmm0, %xmm0
	movslq	-56(%rbp), %rax
	vsubss	AlphaSec(,%rax,4), %xmm0, %xmm0
	vmovss	%xmm0, -80(%rbp)
	movslq	-56(%rbp), %rax
	vmovss	Bsize(,%rax,4), %xmm0   # xmm0 = mem[0],zero,zero,zero
	movl	pred_SAD_uplayer, %eax
	imull	pred_SAD_uplayer, %eax
	vcvtsi2ss	%eax, %xmm0, %xmm1
	vdivss	%xmm1, %xmm0, %xmm0
	movslq	-56(%rbp), %rax
	vsubss	AlphaThird(,%rax,4), %xmm0, %xmm0
	vmovss	%xmm0, -72(%rbp)
	jmp	.LBB33_27
.LBB33_26:                              # %if.else134
	vxorps	%xmm0, %xmm0, %xmm0
	vmovss	%xmm0, -80(%rbp)
	vmovss	%xmm0, -72(%rbp)
.LBB33_27:                              # %if.end135
	jmp	.LBB33_28
.LBB33_28:                              # %if.end136
	jmp	.LBB33_29
.LBB33_29:                              # %if.end137
	movl	-28(%rbp), %eax
	movl	%eax, -12(%rbp)
	movl	-24(%rbp), %eax
	movl	%eax, -16(%rbp)
	movl	-96(%rbp), %eax
	movq	mvbits, %rdx
	movl	-12(%rbp), %esi
	movl	-32(%rbp), %ecx
                                        # kill: def $cl killed $ecx
	shll	%cl, %esi
	subl	-88(%rbp), %esi
	movslq	%esi, %rcx
	movl	(%rdx,%rcx,4), %edx
	movq	mvbits, %rsi
	movl	-16(%rbp), %edi
	movl	-32(%rbp), %ecx
                                        # kill: def $cl killed $ecx
	shll	%cl, %edi
	subl	-92(%rbp), %edi
	movslq	%edi, %rcx
	addl	(%rsi,%rcx,4), %edx
	imull	%edx, %eax
	sarl	$16, %eax
	movl	%eax, -20(%rbp)
	movq	-120(%rbp), %rdi
	movq	-128(%rbp), %rsi
	movq	-112(%rbp), %rdx
	movl	-76(%rbp), %ecx
	movl	-60(%rbp), %r8d
	movl	-84(%rbp), %r9d
	movl	-20(%rbp), %eax
	movl	56(%rbp), %ebx
	movl	-12(%rbp), %r10d
	movl	-16(%rbp), %r11d
	movl	%eax, (%rsp)
	movl	%ebx, 8(%rsp)
	movl	%r10d, 16(%rsp)
	movl	%r11d, 24(%rsp)
	callq	PartCalMad
	movl	%eax, -20(%rbp)
	movl	-20(%rbp), %eax
	movq	McostState, %rcx
	movslq	48(%rbp), %rdx
	movq	(%rcx,%rdx,8), %rcx
	movslq	48(%rbp), %rdx
	movl	%eax, (%rcx,%rdx,4)
	movl	-20(%rbp), %eax
	cmpl	56(%rbp), %eax
	jge	.LBB33_31
# %bb.30:                               # %if.then155
	movl	-20(%rbp), %eax
	movl	%eax, 56(%rbp)
	movl	-12(%rbp), %eax
	movl	%eax, -44(%rbp)
	movl	-16(%rbp), %eax
	movl	%eax, -40(%rbp)
.LBB33_31:                              # %if.end156
	movl	-44(%rbp), %eax
	movl	%eax, -68(%rbp)
	movl	-40(%rbp), %eax
	movl	%eax, -64(%rbp)
	movl	$0, -36(%rbp)
.LBB33_32:                              # %for.cond
                                        # =>This Inner Loop Header: Depth=1
	cmpl	$4, -36(%rbp)
	jge	.LBB33_42
# %bb.33:                               # %for.body
                                        #   in Loop: Header=BB33_32 Depth=1
	movl	-68(%rbp), %eax
	movslq	-36(%rbp), %rcx
	addl	FastIntegerPelBlockMotionSearch.Diamond_x(,%rcx,4), %eax
	movl	%eax, -12(%rbp)
	movl	-64(%rbp), %eax
	movslq	-36(%rbp), %rcx
	addl	FastIntegerPelBlockMotionSearch.Diamond_y(,%rcx,4), %eax
	movl	%eax, -16(%rbp)
	movl	-12(%rbp), %edi
	subl	-28(%rbp), %edi
	callq	abs
	cmpl	48(%rbp), %eax
	jg	.LBB33_40
# %bb.34:                               # %land.lhs.true169
                                        #   in Loop: Header=BB33_32 Depth=1
	movl	-16(%rbp), %edi
	subl	-24(%rbp), %edi
	callq	abs
	cmpl	48(%rbp), %eax
	jg	.LBB33_40
# %bb.35:                               # %if.then174
                                        #   in Loop: Header=BB33_32 Depth=1
	movq	McostState, %rax
	movl	-16(%rbp), %ecx
	subl	-24(%rbp), %ecx
	addl	48(%rbp), %ecx
	movslq	%ecx, %rcx
	movq	(%rax,%rcx,8), %rax
	movl	-12(%rbp), %ecx
	subl	-28(%rbp), %ecx
	addl	48(%rbp), %ecx
	movslq	%ecx, %rcx
	cmpl	$0, (%rax,%rcx,4)
	jne	.LBB33_39
# %bb.36:                               # %if.then184
                                        #   in Loop: Header=BB33_32 Depth=1
	movl	-96(%rbp), %eax
	movq	mvbits, %rdx
	movl	-12(%rbp), %esi
	movl	-32(%rbp), %ecx
                                        # kill: def $cl killed $ecx
	shll	%cl, %esi
	subl	-88(%rbp), %esi
	movslq	%esi, %rcx
	movl	(%rdx,%rcx,4), %edx
	movq	mvbits, %rsi
	movl	-16(%rbp), %edi
	movl	-32(%rbp), %ecx
                                        # kill: def $cl killed $ecx
	shll	%cl, %edi
	subl	-92(%rbp), %edi
	movslq	%edi, %rcx
	addl	(%rsi,%rcx,4), %edx
	imull	%edx, %eax
	sarl	$16, %eax
	movl	%eax, -20(%rbp)
	movq	-120(%rbp), %rdi
	movq	-128(%rbp), %rsi
	movq	-112(%rbp), %rdx
	movl	-76(%rbp), %ecx
	movl	-60(%rbp), %r8d
	movl	-84(%rbp), %r9d
	movl	-20(%rbp), %eax
	movl	56(%rbp), %ebx
	movl	-12(%rbp), %r10d
	movl	-16(%rbp), %r11d
	movl	%eax, (%rsp)
	movl	%ebx, 8(%rsp)
	movl	%r10d, 16(%rsp)
	movl	%r11d, 24(%rsp)
	callq	PartCalMad
	movl	%eax, -20(%rbp)
	movl	-20(%rbp), %eax
	movq	McostState, %rcx
	movl	-16(%rbp), %edx
	subl	-24(%rbp), %edx
	addl	48(%rbp), %edx
	movslq	%edx, %rdx
	movq	(%rcx,%rdx,8), %rcx
	movl	-12(%rbp), %edx
	subl	-28(%rbp), %edx
	addl	48(%rbp), %edx
	movslq	%edx, %rdx
	movl	%eax, (%rcx,%rdx,4)
	movl	-20(%rbp), %eax
	cmpl	56(%rbp), %eax
	jge	.LBB33_38
# %bb.37:                               # %if.then207
                                        #   in Loop: Header=BB33_32 Depth=1
	movl	-12(%rbp), %eax
	movl	%eax, -44(%rbp)
	movl	-16(%rbp), %eax
	movl	%eax, -40(%rbp)
	movl	-20(%rbp), %eax
	movl	%eax, 56(%rbp)
.LBB33_38:                              # %if.end208
                                        #   in Loop: Header=BB33_32 Depth=1
	jmp	.LBB33_39
.LBB33_39:                              # %if.end209
                                        #   in Loop: Header=BB33_32 Depth=1
	jmp	.LBB33_40
.LBB33_40:                              # %if.end210
                                        #   in Loop: Header=BB33_32 Depth=1
	jmp	.LBB33_41
.LBB33_41:                              # %for.inc
                                        #   in Loop: Header=BB33_32 Depth=1
	movl	-36(%rbp), %eax
	addl	$1, %eax
	movl	%eax, -36(%rbp)
	jmp	.LBB33_32
.LBB33_42:                              # %for.end
	movl	-28(%rbp), %eax
	cmpl	-100(%rbp), %eax
	jne	.LBB33_44
# %bb.43:                               # %lor.lhs.false
	movl	-24(%rbp), %eax
	cmpl	-104(%rbp), %eax
	je	.LBB33_63
.LBB33_44:                              # %if.then215
	movl	-100(%rbp), %eax
	movl	%eax, -12(%rbp)
	movl	-104(%rbp), %eax
	movl	%eax, -16(%rbp)
	movl	-12(%rbp), %edi
	subl	-28(%rbp), %edi
	callq	abs
	cmpl	48(%rbp), %eax
	jg	.LBB33_51
# %bb.45:                               # %land.lhs.true220
	movl	-16(%rbp), %edi
	subl	-24(%rbp), %edi
	callq	abs
	cmpl	48(%rbp), %eax
	jg	.LBB33_51
# %bb.46:                               # %if.then225
	movq	McostState, %rax
	movl	-16(%rbp), %ecx
	subl	-24(%rbp), %ecx
	addl	48(%rbp), %ecx
	movslq	%ecx, %rcx
	movq	(%rax,%rcx,8), %rax
	movl	-12(%rbp), %ecx
	subl	-28(%rbp), %ecx
	addl	48(%rbp), %ecx
	movslq	%ecx, %rcx
	cmpl	$0, (%rax,%rcx,4)
	jne	.LBB33_50
# %bb.47:                               # %if.then235
	movl	-96(%rbp), %eax
	movq	mvbits, %rdx
	movl	-12(%rbp), %esi
	movl	-32(%rbp), %ecx
                                        # kill: def $cl killed $ecx
	shll	%cl, %esi
	subl	-88(%rbp), %esi
	movslq	%esi, %rcx
	movl	(%rdx,%rcx,4), %edx
	movq	mvbits, %rsi
	movl	-16(%rbp), %edi
	movl	-32(%rbp), %ecx
                                        # kill: def $cl killed $ecx
	shll	%cl, %edi
	subl	-92(%rbp), %edi
	movslq	%edi, %rcx
	addl	(%rsi,%rcx,4), %edx
	imull	%edx, %eax
	sarl	$16, %eax
	movl	%eax, -20(%rbp)
	movq	-120(%rbp), %rdi
	movq	-128(%rbp), %rsi
	movq	-112(%rbp), %rdx
	movl	-76(%rbp), %ecx
	movl	-60(%rbp), %r8d
	movl	-84(%rbp), %r9d
	movl	-20(%rbp), %eax
	movl	56(%rbp), %ebx
	movl	-12(%rbp), %r10d
	movl	-16(%rbp), %r11d
	movl	%eax, (%rsp)
	movl	%ebx, 8(%rsp)
	movl	%r10d, 16(%rsp)
	movl	%r11d, 24(%rsp)
	callq	PartCalMad
	movl	%eax, -20(%rbp)
	movl	-20(%rbp), %eax
	movq	McostState, %rcx
	movl	-16(%rbp), %edx
	subl	-24(%rbp), %edx
	addl	48(%rbp), %edx
	movslq	%edx, %rdx
	movq	(%rcx,%rdx,8), %rcx
	movl	-12(%rbp), %edx
	subl	-28(%rbp), %edx
	addl	48(%rbp), %edx
	movslq	%edx, %rdx
	movl	%eax, (%rcx,%rdx,4)
	movl	-20(%rbp), %eax
	cmpl	56(%rbp), %eax
	jge	.LBB33_49
# %bb.48:                               # %if.then258
	movl	-12(%rbp), %eax
	movl	%eax, -44(%rbp)
	movl	-16(%rbp), %eax
	movl	%eax, -40(%rbp)
	movl	-20(%rbp), %eax
	movl	%eax, 56(%rbp)
.LBB33_49:                              # %if.end259
	jmp	.LBB33_50
.LBB33_50:                              # %if.end260
	jmp	.LBB33_51
.LBB33_51:                              # %if.end261
	movl	-44(%rbp), %eax
	movl	%eax, -68(%rbp)
	movl	-40(%rbp), %eax
	movl	%eax, -64(%rbp)
	movl	$0, -36(%rbp)
.LBB33_52:                              # %for.cond262
                                        # =>This Inner Loop Header: Depth=1
	cmpl	$4, -36(%rbp)
	jge	.LBB33_62
# %bb.53:                               # %for.body265
                                        #   in Loop: Header=BB33_52 Depth=1
	movl	-68(%rbp), %eax
	movslq	-36(%rbp), %rcx
	addl	FastIntegerPelBlockMotionSearch.Diamond_x(,%rcx,4), %eax
	movl	%eax, -12(%rbp)
	movl	-64(%rbp), %eax
	movslq	-36(%rbp), %rcx
	addl	FastIntegerPelBlockMotionSearch.Diamond_y(,%rcx,4), %eax
	movl	%eax, -16(%rbp)
	movl	-12(%rbp), %edi
	subl	-28(%rbp), %edi
	callq	abs
	cmpl	48(%rbp), %eax
	jg	.LBB33_60
# %bb.54:                               # %land.lhs.true276
                                        #   in Loop: Header=BB33_52 Depth=1
	movl	-16(%rbp), %edi
	subl	-24(%rbp), %edi
	callq	abs
	cmpl	48(%rbp), %eax
	jg	.LBB33_60
# %bb.55:                               # %if.then281
                                        #   in Loop: Header=BB33_52 Depth=1
	movq	McostState, %rax
	movl	-16(%rbp), %ecx
	subl	-24(%rbp), %ecx
	addl	48(%rbp), %ecx
	movslq	%ecx, %rcx
	movq	(%rax,%rcx,8), %rax
	movl	-12(%rbp), %ecx
	subl	-28(%rbp), %ecx
	addl	48(%rbp), %ecx
	movslq	%ecx, %rcx
	cmpl	$0, (%rax,%rcx,4)
	jne	.LBB33_59
# %bb.56:                               # %if.then291
                                        #   in Loop: Header=BB33_52 Depth=1
	movl	-96(%rbp), %eax
	movq	mvbits, %rdx
	movl	-12(%rbp), %esi
	movl	-32(%rbp), %ecx
                                        # kill: def $cl killed $ecx
	shll	%cl, %esi
	subl	-88(%rbp), %esi
	movslq	%esi, %rcx
	movl	(%rdx,%rcx,4), %edx
	movq	mvbits, %rsi
	movl	-16(%rbp), %edi
	movl	-32(%rbp), %ecx
                                        # kill: def $cl killed $ecx
	shll	%cl, %edi
	subl	-92(%rbp), %edi
	movslq	%edi, %rcx
	addl	(%rsi,%rcx,4), %edx
	imull	%edx, %eax
	sarl	$16, %eax
	movl	%eax, -20(%rbp)
	movq	-120(%rbp), %rdi
	movq	-128(%rbp), %rsi
	movq	-112(%rbp), %rdx
	movl	-76(%rbp), %ecx
	movl	-60(%rbp), %r8d
	movl	-84(%rbp), %r9d
	movl	-20(%rbp), %eax
	movl	56(%rbp), %ebx
	movl	-12(%rbp), %r10d
	movl	-16(%rbp), %r11d
	movl	%eax, (%rsp)
	movl	%ebx, 8(%rsp)
	movl	%r10d, 16(%rsp)
	movl	%r11d, 24(%rsp)
	callq	PartCalMad
	movl	%eax, -20(%rbp)
	movl	-20(%rbp), %eax
	movq	McostState, %rcx
	movl	-16(%rbp), %edx
	subl	-24(%rbp), %edx
	addl	48(%rbp), %edx
	movslq	%edx, %rdx
	movq	(%rcx,%rdx,8), %rcx
	movl	-12(%rbp), %edx
	subl	-28(%rbp), %edx
	addl	48(%rbp), %edx
	movslq	%edx, %rdx
	movl	%eax, (%rcx,%rdx,4)
	movl	-20(%rbp), %eax
	cmpl	56(%rbp), %eax
	jge	.LBB33_58
# %bb.57:                               # %if.then314
                                        #   in Loop: Header=BB33_52 Depth=1
	movl	-12(%rbp), %eax
	movl	%eax, -44(%rbp)
	movl	-16(%rbp), %eax
	movl	%eax, -40(%rbp)
	movl	-20(%rbp), %eax
	movl	%eax, 56(%rbp)
.LBB33_58:                              # %if.end315
                                        #   in Loop: Header=BB33_52 Depth=1
	jmp	.LBB33_59
.LBB33_59:                              # %if.end316
                                        #   in Loop: Header=BB33_52 Depth=1
	jmp	.LBB33_60
.LBB33_60:                              # %if.end317
                                        #   in Loop: Header=BB33_52 Depth=1
	jmp	.LBB33_61
.LBB33_61:                              # %for.inc318
                                        #   in Loop: Header=BB33_52 Depth=1
	movl	-36(%rbp), %eax
	addl	$1, %eax
	movl	%eax, -36(%rbp)
	jmp	.LBB33_52
.LBB33_62:                              # %for.end320
	jmp	.LBB33_63
.LBB33_63:                              # %if.end321
	cmpl	$1, -56(%rbp)
	jle	.LBB33_77
# %bb.64:                               # %if.then324
	movl	-100(%rbp), %ecx
	movl	pred_MV_uplayer, %eax
	cltd
	movl	$4, %esi
	idivl	%esi
	addl	%eax, %ecx
	movl	%ecx, -12(%rbp)
	movl	-104(%rbp), %ecx
	movl	pred_MV_uplayer+4, %eax
	cltd
	idivl	%esi
	addl	%eax, %ecx
	movl	%ecx, -16(%rbp)
	movl	-12(%rbp), %edi
	subl	-28(%rbp), %edi
	callq	abs
	cmpl	48(%rbp), %eax
	jg	.LBB33_71
# %bb.65:                               # %land.lhs.true333
	movl	-16(%rbp), %edi
	subl	-24(%rbp), %edi
	callq	abs
	cmpl	48(%rbp), %eax
	jg	.LBB33_71
# %bb.66:                               # %if.then338
	movq	McostState, %rax
	movl	-16(%rbp), %ecx
	subl	-24(%rbp), %ecx
	addl	48(%rbp), %ecx
	movslq	%ecx, %rcx
	movq	(%rax,%rcx,8), %rax
	movl	-12(%rbp), %ecx
	subl	-28(%rbp), %ecx
	addl	48(%rbp), %ecx
	movslq	%ecx, %rcx
	cmpl	$0, (%rax,%rcx,4)
	jne	.LBB33_70
# %bb.67:                               # %if.then348
	movl	-96(%rbp), %eax
	movq	mvbits, %rdx
	movl	-12(%rbp), %esi
	movl	-32(%rbp), %ecx
                                        # kill: def $cl killed $ecx
	shll	%cl, %esi
	subl	-88(%rbp), %esi
	movslq	%esi, %rcx
	movl	(%rdx,%rcx,4), %edx
	movq	mvbits, %rsi
	movl	-16(%rbp), %edi
	movl	-32(%rbp), %ecx
                                        # kill: def $cl killed $ecx
	shll	%cl, %edi
	subl	-92(%rbp), %edi
	movslq	%edi, %rcx
	addl	(%rsi,%rcx,4), %edx
	imull	%edx, %eax
	sarl	$16, %eax
	movl	%eax, -20(%rbp)
	movq	-120(%rbp), %rdi
	movq	-128(%rbp), %rsi
	movq	-112(%rbp), %rdx
	movl	-76(%rbp), %ecx
	movl	-60(%rbp), %r8d
	movl	-84(%rbp), %r9d
	movl	-20(%rbp), %eax
	movl	56(%rbp), %ebx
	movl	-12(%rbp), %r10d
	movl	-16(%rbp), %r11d
	movl	%eax, (%rsp)
	movl	%ebx, 8(%rsp)
	movl	%r10d, 16(%rsp)
	movl	%r11d, 24(%rsp)
	callq	PartCalMad
	movl	%eax, -20(%rbp)
	movl	-20(%rbp), %eax
	movq	McostState, %rcx
	movl	-16(%rbp), %edx
	subl	-24(%rbp), %edx
	addl	48(%rbp), %edx
	movslq	%edx, %rdx
	movq	(%rcx,%rdx,8), %rcx
	movl	-12(%rbp), %edx
	subl	-28(%rbp), %edx
	addl	48(%rbp), %edx
	movslq	%edx, %rdx
	movl	%eax, (%rcx,%rdx,4)
	movl	-20(%rbp), %eax
	cmpl	56(%rbp), %eax
	jge	.LBB33_69
# %bb.68:                               # %if.then371
	movl	-12(%rbp), %eax
	movl	%eax, -44(%rbp)
	movl	-16(%rbp), %eax
	movl	%eax, -40(%rbp)
	movl	-20(%rbp), %eax
	movl	%eax, 56(%rbp)
.LBB33_69:                              # %if.end372
	jmp	.LBB33_70
.LBB33_70:                              # %if.end373
	jmp	.LBB33_71
.LBB33_71:                              # %if.end374
	movl	56(%rbp), %eax
	subl	pred_SAD_uplayer, %eax
	vcvtsi2ss	%eax, %xmm0, %xmm0
	vcvtsi2ssl	pred_SAD_uplayer, %xmm0, %xmm1
	vmulss	-72(%rbp), %xmm1, %xmm1
	vucomiss	%xmm0, %xmm1
	jbe	.LBB33_73
# %bb.72:                               # %if.then381
	jmp	.LBB33_301
.LBB33_73:                              # %if.else382
	movl	56(%rbp), %eax
	subl	pred_SAD_uplayer, %eax
	vcvtsi2ss	%eax, %xmm0, %xmm0
	vcvtsi2ssl	pred_SAD_uplayer, %xmm0, %xmm1
	vmulss	-80(%rbp), %xmm1, %xmm1
	vucomiss	%xmm0, %xmm1
	jbe	.LBB33_75
# %bb.74:                               # %if.then389
	jmp	.LBB33_282
.LBB33_75:                              # %if.end390
	jmp	.LBB33_76
.LBB33_76:                              # %if.end391
	jmp	.LBB33_77
.LBB33_77:                              # %if.end392
	movq	img, %rax
	movl	(%rax), %eax
	movswl	-46(%rbp), %ecx
	addl	$1, %ecx
	cmpl	%ecx, %eax
	jle	.LBB33_79
# %bb.78:                               # %land.lhs.true397
	movswl	-46(%rbp), %eax
	cmpl	$-1, %eax
	jne	.LBB33_81
.LBB33_79:                              # %lor.lhs.false401
	cmpl	$1, -136(%rbp)
	jne	.LBB33_89
# %bb.80:                               # %land.lhs.true404
	movl	Bframe_ctr, %eax
	cltd
	idivl	-152(%rbp)
	cmpl	$1, %edx
	jle	.LBB33_89
.LBB33_81:                              # %if.then408
	movl	-100(%rbp), %ecx
	movl	pred_MV_time, %eax
	cltd
	movl	$4, %esi
	idivl	%esi
	addl	%eax, %ecx
	movl	%ecx, -12(%rbp)
	movl	-104(%rbp), %ecx
	movl	pred_MV_time+4, %eax
	cltd
	idivl	%esi
	addl	%eax, %ecx
	movl	%ecx, -16(%rbp)
	movl	-12(%rbp), %edi
	subl	-28(%rbp), %edi
	callq	abs
	cmpl	48(%rbp), %eax
	jg	.LBB33_88
# %bb.82:                               # %land.lhs.true417
	movl	-16(%rbp), %edi
	subl	-24(%rbp), %edi
	callq	abs
	cmpl	48(%rbp), %eax
	jg	.LBB33_88
# %bb.83:                               # %if.then422
	movq	McostState, %rax
	movl	-16(%rbp), %ecx
	subl	-24(%rbp), %ecx
	addl	48(%rbp), %ecx
	movslq	%ecx, %rcx
	movq	(%rax,%rcx,8), %rax
	movl	-12(%rbp), %ecx
	subl	-28(%rbp), %ecx
	addl	48(%rbp), %ecx
	movslq	%ecx, %rcx
	cmpl	$0, (%rax,%rcx,4)
	jne	.LBB33_87
# %bb.84:                               # %if.then432
	movl	-96(%rbp), %eax
	movq	mvbits, %rdx
	movl	-12(%rbp), %esi
	movl	-32(%rbp), %ecx
                                        # kill: def $cl killed $ecx
	shll	%cl, %esi
	subl	-88(%rbp), %esi
	movslq	%esi, %rcx
	movl	(%rdx,%rcx,4), %edx
	movq	mvbits, %rsi
	movl	-16(%rbp), %edi
	movl	-32(%rbp), %ecx
                                        # kill: def $cl killed $ecx
	shll	%cl, %edi
	subl	-92(%rbp), %edi
	movslq	%edi, %rcx
	addl	(%rsi,%rcx,4), %edx
	imull	%edx, %eax
	sarl	$16, %eax
	movl	%eax, -20(%rbp)
	movq	-120(%rbp), %rdi
	movq	-128(%rbp), %rsi
	movq	-112(%rbp), %rdx
	movl	-76(%rbp), %ecx
	movl	-60(%rbp), %r8d
	movl	-84(%rbp), %r9d
	movl	-20(%rbp), %eax
	movl	56(%rbp), %ebx
	movl	-12(%rbp), %r10d
	movl	-16(%rbp), %r11d
	movl	%eax, (%rsp)
	movl	%ebx, 8(%rsp)
	movl	%r10d, 16(%rsp)
	movl	%r11d, 24(%rsp)
	callq	PartCalMad
	movl	%eax, -20(%rbp)
	movl	-20(%rbp), %eax
	movq	McostState, %rcx
	movl	-16(%rbp), %edx
	subl	-24(%rbp), %edx
	addl	48(%rbp), %edx
	movslq	%edx, %rdx
	movq	(%rcx,%rdx,8), %rcx
	movl	-12(%rbp), %edx
	subl	-28(%rbp), %edx
	addl	48(%rbp), %edx
	movslq	%edx, %rdx
	movl	%eax, (%rcx,%rdx,4)
	movl	-20(%rbp), %eax
	cmpl	56(%rbp), %eax
	jge	.LBB33_86
# %bb.85:                               # %if.then455
	movl	-12(%rbp), %eax
	movl	%eax, -44(%rbp)
	movl	-16(%rbp), %eax
	movl	%eax, -40(%rbp)
	movl	-20(%rbp), %eax
	movl	%eax, 56(%rbp)
.LBB33_86:                              # %if.end456
	jmp	.LBB33_87
.LBB33_87:                              # %if.end457
	jmp	.LBB33_88
.LBB33_88:                              # %if.end458
	jmp	.LBB33_89
.LBB33_89:                              # %if.end459
	movq	input, %rax
	cmpl	$1, 2880(%rax)
	jne	.LBB33_105
# %bb.90:                               # %if.then462
	cmpl	$0, -136(%rbp)
	jne	.LBB33_92
# %bb.91:                               # %land.lhs.true465
	movswl	-46(%rbp), %eax
	cmpl	$0, %eax
	jg	.LBB33_96
.LBB33_92:                              # %lor.lhs.false469
	movq	img, %rax
	cmpl	$1, 24(%rax)
	jne	.LBB33_104
# %bb.93:                               # %land.lhs.true472
	cmpl	$0, -136(%rbp)
	jne	.LBB33_104
# %bb.94:                               # %land.lhs.true475
	movswl	-46(%rbp), %eax
	cmpl	$0, %eax
	je	.LBB33_96
# %bb.95:                               # %lor.lhs.false479
	movswl	-46(%rbp), %eax
	cmpl	$2, %eax
	jne	.LBB33_104
.LBB33_96:                              # %if.then483
	movl	-100(%rbp), %ecx
	movl	pred_MV_ref, %eax
	cltd
	movl	$4, %esi
	idivl	%esi
	addl	%eax, %ecx
	movl	%ecx, -12(%rbp)
	movl	-104(%rbp), %ecx
	movl	pred_MV_ref+4, %eax
	cltd
	idivl	%esi
	addl	%eax, %ecx
	movl	%ecx, -16(%rbp)
	movl	-12(%rbp), %edi
	subl	-28(%rbp), %edi
	callq	abs
	cmpl	48(%rbp), %eax
	jg	.LBB33_103
# %bb.97:                               # %land.lhs.true492
	movl	-16(%rbp), %edi
	subl	-24(%rbp), %edi
	callq	abs
	cmpl	48(%rbp), %eax
	jg	.LBB33_103
# %bb.98:                               # %if.then497
	movq	McostState, %rax
	movl	-16(%rbp), %ecx
	subl	-24(%rbp), %ecx
	addl	48(%rbp), %ecx
	movslq	%ecx, %rcx
	movq	(%rax,%rcx,8), %rax
	movl	-12(%rbp), %ecx
	subl	-28(%rbp), %ecx
	addl	48(%rbp), %ecx
	movslq	%ecx, %rcx
	cmpl	$0, (%rax,%rcx,4)
	jne	.LBB33_102
# %bb.99:                               # %if.then507
	movl	-96(%rbp), %eax
	movq	mvbits, %rdx
	movl	-12(%rbp), %esi
	movl	-32(%rbp), %ecx
                                        # kill: def $cl killed $ecx
	shll	%cl, %esi
	subl	-88(%rbp), %esi
	movslq	%esi, %rcx
	movl	(%rdx,%rcx,4), %edx
	movq	mvbits, %rsi
	movl	-16(%rbp), %edi
	movl	-32(%rbp), %ecx
                                        # kill: def $cl killed $ecx
	shll	%cl, %edi
	subl	-92(%rbp), %edi
	movslq	%edi, %rcx
	addl	(%rsi,%rcx,4), %edx
	imull	%edx, %eax
	sarl	$16, %eax
	movl	%eax, -20(%rbp)
	movq	-120(%rbp), %rdi
	movq	-128(%rbp), %rsi
	movq	-112(%rbp), %rdx
	movl	-76(%rbp), %ecx
	movl	-60(%rbp), %r8d
	movl	-84(%rbp), %r9d
	movl	-20(%rbp), %eax
	movl	56(%rbp), %ebx
	movl	-12(%rbp), %r10d
	movl	-16(%rbp), %r11d
	movl	%eax, (%rsp)
	movl	%ebx, 8(%rsp)
	movl	%r10d, 16(%rsp)
	movl	%r11d, 24(%rsp)
	callq	PartCalMad
	movl	%eax, -20(%rbp)
	movl	-20(%rbp), %eax
	movq	McostState, %rcx
	movl	-16(%rbp), %edx
	subl	-24(%rbp), %edx
	addl	48(%rbp), %edx
	movslq	%edx, %rdx
	movq	(%rcx,%rdx,8), %rcx
	movl	-12(%rbp), %edx
	subl	-28(%rbp), %edx
	addl	48(%rbp), %edx
	movslq	%edx, %rdx
	movl	%eax, (%rcx,%rdx,4)
	movl	-20(%rbp), %eax
	cmpl	56(%rbp), %eax
	jge	.LBB33_101
# %bb.100:                              # %if.then530
	movl	-12(%rbp), %eax
	movl	%eax, -44(%rbp)
	movl	-16(%rbp), %eax
	movl	%eax, -40(%rbp)
	movl	-20(%rbp), %eax
	movl	%eax, 56(%rbp)
.LBB33_101:                             # %if.end531
	jmp	.LBB33_102
.LBB33_102:                             # %if.end532
	jmp	.LBB33_103
.LBB33_103:                             # %if.end533
	jmp	.LBB33_104
.LBB33_104:                             # %if.end534
	jmp	.LBB33_119
.LBB33_105:                             # %if.else535
	cmpl	$0, -136(%rbp)
	jne	.LBB33_107
# %bb.106:                              # %land.lhs.true538
	movswl	-46(%rbp), %eax
	cmpl	$0, %eax
	jg	.LBB33_110
.LBB33_107:                             # %lor.lhs.false542
	movq	img, %rax
	cmpl	$1, 24(%rax)
	jne	.LBB33_118
# %bb.108:                              # %land.lhs.true546
	cmpl	$0, -136(%rbp)
	jne	.LBB33_118
# %bb.109:                              # %land.lhs.true549
	movswl	-46(%rbp), %eax
	cmpl	$0, %eax
	jne	.LBB33_118
.LBB33_110:                             # %if.then553
	movl	-100(%rbp), %ecx
	movl	pred_MV_ref, %eax
	cltd
	movl	$4, %esi
	idivl	%esi
	addl	%eax, %ecx
	movl	%ecx, -12(%rbp)
	movl	-104(%rbp), %ecx
	movl	pred_MV_ref+4, %eax
	cltd
	idivl	%esi
	addl	%eax, %ecx
	movl	%ecx, -16(%rbp)
	movl	-12(%rbp), %edi
	subl	-28(%rbp), %edi
	callq	abs
	cmpl	48(%rbp), %eax
	jg	.LBB33_117
# %bb.111:                              # %land.lhs.true562
	movl	-16(%rbp), %edi
	subl	-24(%rbp), %edi
	callq	abs
	cmpl	48(%rbp), %eax
	jg	.LBB33_117
# %bb.112:                              # %if.then567
	movq	McostState, %rax
	movl	-16(%rbp), %ecx
	subl	-24(%rbp), %ecx
	addl	48(%rbp), %ecx
	movslq	%ecx, %rcx
	movq	(%rax,%rcx,8), %rax
	movl	-12(%rbp), %ecx
	subl	-28(%rbp), %ecx
	addl	48(%rbp), %ecx
	movslq	%ecx, %rcx
	cmpl	$0, (%rax,%rcx,4)
	jne	.LBB33_116
# %bb.113:                              # %if.then577
	movl	-96(%rbp), %eax
	movq	mvbits, %rdx
	movl	-12(%rbp), %esi
	movl	-32(%rbp), %ecx
                                        # kill: def $cl killed $ecx
	shll	%cl, %esi
	subl	-88(%rbp), %esi
	movslq	%esi, %rcx
	movl	(%rdx,%rcx,4), %edx
	movq	mvbits, %rsi
	movl	-16(%rbp), %edi
	movl	-32(%rbp), %ecx
                                        # kill: def $cl killed $ecx
	shll	%cl, %edi
	subl	-92(%rbp), %edi
	movslq	%edi, %rcx
	addl	(%rsi,%rcx,4), %edx
	imull	%edx, %eax
	sarl	$16, %eax
	movl	%eax, -20(%rbp)
	movq	-120(%rbp), %rdi
	movq	-128(%rbp), %rsi
	movq	-112(%rbp), %rdx
	movl	-76(%rbp), %ecx
	movl	-60(%rbp), %r8d
	movl	-84(%rbp), %r9d
	movl	-20(%rbp), %eax
	movl	56(%rbp), %ebx
	movl	-12(%rbp), %r10d
	movl	-16(%rbp), %r11d
	movl	%eax, (%rsp)
	movl	%ebx, 8(%rsp)
	movl	%r10d, 16(%rsp)
	movl	%r11d, 24(%rsp)
	callq	PartCalMad
	movl	%eax, -20(%rbp)
	movl	-20(%rbp), %eax
	movq	McostState, %rcx
	movl	-16(%rbp), %edx
	subl	-24(%rbp), %edx
	addl	48(%rbp), %edx
	movslq	%edx, %rdx
	movq	(%rcx,%rdx,8), %rcx
	movl	-12(%rbp), %edx
	subl	-28(%rbp), %edx
	addl	48(%rbp), %edx
	movslq	%edx, %rdx
	movl	%eax, (%rcx,%rdx,4)
	movl	-20(%rbp), %eax
	cmpl	56(%rbp), %eax
	jge	.LBB33_115
# %bb.114:                              # %if.then600
	movl	-12(%rbp), %eax
	movl	%eax, -44(%rbp)
	movl	-16(%rbp), %eax
	movl	%eax, -40(%rbp)
	movl	-20(%rbp), %eax
	movl	%eax, 56(%rbp)
.LBB33_115:                             # %if.end601
	jmp	.LBB33_116
.LBB33_116:                             # %if.end602
	jmp	.LBB33_117
.LBB33_117:                             # %if.end603
	jmp	.LBB33_118
.LBB33_118:                             # %if.end604
	jmp	.LBB33_119
.LBB33_119:                             # %if.end605
	movl	-44(%rbp), %eax
	movl	%eax, -68(%rbp)
	movl	-40(%rbp), %eax
	movl	%eax, -64(%rbp)
	movl	$0, -36(%rbp)
.LBB33_120:                             # %for.cond606
                                        # =>This Inner Loop Header: Depth=1
	cmpl	$4, -36(%rbp)
	jge	.LBB33_130
# %bb.121:                              # %for.body609
                                        #   in Loop: Header=BB33_120 Depth=1
	movl	-68(%rbp), %eax
	movslq	-36(%rbp), %rcx
	addl	FastIntegerPelBlockMotionSearch.Diamond_x(,%rcx,4), %eax
	movl	%eax, -12(%rbp)
	movl	-64(%rbp), %eax
	movslq	-36(%rbp), %rcx
	addl	FastIntegerPelBlockMotionSearch.Diamond_y(,%rcx,4), %eax
	movl	%eax, -16(%rbp)
	movl	-12(%rbp), %edi
	subl	-28(%rbp), %edi
	callq	abs
	cmpl	48(%rbp), %eax
	jg	.LBB33_128
# %bb.122:                              # %land.lhs.true620
                                        #   in Loop: Header=BB33_120 Depth=1
	movl	-16(%rbp), %edi
	subl	-24(%rbp), %edi
	callq	abs
	cmpl	48(%rbp), %eax
	jg	.LBB33_128
# %bb.123:                              # %if.then625
                                        #   in Loop: Header=BB33_120 Depth=1
	movq	McostState, %rax
	movl	-16(%rbp), %ecx
	subl	-24(%rbp), %ecx
	addl	48(%rbp), %ecx
	movslq	%ecx, %rcx
	movq	(%rax,%rcx,8), %rax
	movl	-12(%rbp), %ecx
	subl	-28(%rbp), %ecx
	addl	48(%rbp), %ecx
	movslq	%ecx, %rcx
	cmpl	$0, (%rax,%rcx,4)
	jne	.LBB33_127
# %bb.124:                              # %if.then635
                                        #   in Loop: Header=BB33_120 Depth=1
	movl	-96(%rbp), %eax
	movq	mvbits, %rdx
	movl	-12(%rbp), %esi
	movl	-32(%rbp), %ecx
                                        # kill: def $cl killed $ecx
	shll	%cl, %esi
	subl	-88(%rbp), %esi
	movslq	%esi, %rcx
	movl	(%rdx,%rcx,4), %edx
	movq	mvbits, %rsi
	movl	-16(%rbp), %edi
	movl	-32(%rbp), %ecx
                                        # kill: def $cl killed $ecx
	shll	%cl, %edi
	subl	-92(%rbp), %edi
	movslq	%edi, %rcx
	addl	(%rsi,%rcx,4), %edx
	imull	%edx, %eax
	sarl	$16, %eax
	movl	%eax, -20(%rbp)
	movq	-120(%rbp), %rdi
	movq	-128(%rbp), %rsi
	movq	-112(%rbp), %rdx
	movl	-76(%rbp), %ecx
	movl	-60(%rbp), %r8d
	movl	-84(%rbp), %r9d
	movl	-20(%rbp), %eax
	movl	56(%rbp), %ebx
	movl	-12(%rbp), %r10d
	movl	-16(%rbp), %r11d
	movl	%eax, (%rsp)
	movl	%ebx, 8(%rsp)
	movl	%r10d, 16(%rsp)
	movl	%r11d, 24(%rsp)
	callq	PartCalMad
	movl	%eax, -20(%rbp)
	movl	-20(%rbp), %eax
	movq	McostState, %rcx
	movl	-16(%rbp), %edx
	subl	-24(%rbp), %edx
	addl	48(%rbp), %edx
	movslq	%edx, %rdx
	movq	(%rcx,%rdx,8), %rcx
	movl	-12(%rbp), %edx
	subl	-28(%rbp), %edx
	addl	48(%rbp), %edx
	movslq	%edx, %rdx
	movl	%eax, (%rcx,%rdx,4)
	movl	-20(%rbp), %eax
	cmpl	56(%rbp), %eax
	jge	.LBB33_126
# %bb.125:                              # %if.then658
                                        #   in Loop: Header=BB33_120 Depth=1
	movl	-12(%rbp), %eax
	movl	%eax, -44(%rbp)
	movl	-16(%rbp), %eax
	movl	%eax, -40(%rbp)
	movl	-20(%rbp), %eax
	movl	%eax, 56(%rbp)
.LBB33_126:                             # %if.end659
                                        #   in Loop: Header=BB33_120 Depth=1
	jmp	.LBB33_127
.LBB33_127:                             # %if.end660
                                        #   in Loop: Header=BB33_120 Depth=1
	jmp	.LBB33_128
.LBB33_128:                             # %if.end661
                                        #   in Loop: Header=BB33_120 Depth=1
	jmp	.LBB33_129
.LBB33_129:                             # %for.inc662
                                        #   in Loop: Header=BB33_120 Depth=1
	movl	-36(%rbp), %eax
	addl	$1, %eax
	movl	%eax, -36(%rbp)
	jmp	.LBB33_120
.LBB33_130:                             # %for.end664
	movswl	-46(%rbp), %eax
	cmpl	$0, %eax
	jle	.LBB33_137
# %bb.131:                              # %if.then668
	movl	56(%rbp), %eax
	subl	pred_SAD_ref, %eax
	vcvtsi2ss	%eax, %xmm0, %xmm0
	vcvtsi2ssl	pred_SAD_ref, %xmm0, %xmm1
	vmulss	-72(%rbp), %xmm1, %xmm1
	vucomiss	%xmm0, %xmm1
	jbe	.LBB33_133
# %bb.132:                              # %if.then675
	jmp	.LBB33_301
.LBB33_133:                             # %if.else676
	movl	56(%rbp), %eax
	subl	pred_SAD_ref, %eax
	vcvtsi2ss	%eax, %xmm0, %xmm0
	vcvtsi2ssl	pred_SAD_ref, %xmm0, %xmm1
	vmulss	-80(%rbp), %xmm1, %xmm1
	vucomiss	%xmm0, %xmm1
	jbe	.LBB33_135
# %bb.134:                              # %if.then683
	jmp	.LBB33_282
.LBB33_135:                             # %if.end684
	jmp	.LBB33_136
.LBB33_136:                             # %if.end685
	jmp	.LBB33_151
.LBB33_137:                             # %if.else686
	cmpl	$1, -56(%rbp)
	jle	.LBB33_144
# %bb.138:                              # %if.then689
	movl	56(%rbp), %eax
	subl	pred_SAD_uplayer, %eax
	vcvtsi2ss	%eax, %xmm0, %xmm0
	vcvtsi2ssl	pred_SAD_uplayer, %xmm0, %xmm1
	vmulss	-72(%rbp), %xmm1, %xmm1
	vucomiss	%xmm0, %xmm1
	jbe	.LBB33_140
# %bb.139:                              # %if.then696
	jmp	.LBB33_301
.LBB33_140:                             # %if.else697
	movl	56(%rbp), %eax
	subl	pred_SAD_uplayer, %eax
	vcvtsi2ss	%eax, %xmm0, %xmm0
	vcvtsi2ssl	pred_SAD_uplayer, %xmm0, %xmm1
	vmulss	-80(%rbp), %xmm1, %xmm1
	vucomiss	%xmm0, %xmm1
	jbe	.LBB33_142
# %bb.141:                              # %if.then704
	jmp	.LBB33_282
.LBB33_142:                             # %if.end705
	jmp	.LBB33_143
.LBB33_143:                             # %if.end706
	jmp	.LBB33_150
.LBB33_144:                             # %if.else707
	movl	56(%rbp), %eax
	subl	pred_SAD_space, %eax
	vcvtsi2ss	%eax, %xmm0, %xmm0
	vcvtsi2ssl	pred_SAD_space, %xmm0, %xmm1
	vmulss	-72(%rbp), %xmm1, %xmm1
	vucomiss	%xmm0, %xmm1
	jbe	.LBB33_146
# %bb.145:                              # %if.then714
	jmp	.LBB33_301
.LBB33_146:                             # %if.else715
	movl	56(%rbp), %eax
	subl	pred_SAD_space, %eax
	vcvtsi2ss	%eax, %xmm0, %xmm0
	vcvtsi2ssl	pred_SAD_space, %xmm0, %xmm1
	vmulss	-80(%rbp), %xmm1, %xmm1
	vucomiss	%xmm0, %xmm1
	jbe	.LBB33_148
# %bb.147:                              # %if.then722
	jmp	.LBB33_282
.LBB33_148:                             # %if.end723
	jmp	.LBB33_149
.LBB33_149:                             # %if.end724
	jmp	.LBB33_150
.LBB33_150:                             # %if.end725
	jmp	.LBB33_151
.LBB33_151:                             # %if.end726
	cmpl	$6, -56(%rbp)
	jle	.LBB33_153
# %bb.152:                              # %if.then729
	jmp	.LBB33_282
.LBB33_153:                             # %if.else730
	jmp	.LBB33_154
.LBB33_154:                             # %first_step
	movl	-44(%rbp), %eax
	movl	%eax, -68(%rbp)
	movl	-40(%rbp), %eax
	movl	%eax, -64(%rbp)
	movl	$1, -52(%rbp)
.LBB33_155:                             # %for.cond731
                                        # =>This Inner Loop Header: Depth=1
	movl	-52(%rbp), %ecx
	movl	48(%rbp), %eax
	cltd
	movl	$2, %esi
	idivl	%esi
	cmpl	%eax, %ecx
	jg	.LBB33_172
# %bb.156:                              # %for.body735
                                        #   in Loop: Header=BB33_155 Depth=1
	movl	-52(%rbp), %eax
	shll	$1, %eax
	subl	$1, %eax
	movl	%eax, -144(%rbp)
	movl	-68(%rbp), %eax
	addl	-144(%rbp), %eax
	movl	%eax, -12(%rbp)
	movl	-64(%rbp), %eax
	movl	%eax, -16(%rbp)
	movl	-12(%rbp), %edi
	subl	-28(%rbp), %edi
	callq	abs
	cmpl	48(%rbp), %eax
	jg	.LBB33_163
# %bb.157:                              # %land.lhs.true743
                                        #   in Loop: Header=BB33_155 Depth=1
	movl	-16(%rbp), %edi
	subl	-24(%rbp), %edi
	callq	abs
	cmpl	48(%rbp), %eax
	jg	.LBB33_163
# %bb.158:                              # %if.then748
                                        #   in Loop: Header=BB33_155 Depth=1
	movq	McostState, %rax
	movl	-16(%rbp), %ecx
	subl	-24(%rbp), %ecx
	addl	48(%rbp), %ecx
	movslq	%ecx, %rcx
	movq	(%rax,%rcx,8), %rax
	movl	-12(%rbp), %ecx
	subl	-28(%rbp), %ecx
	addl	48(%rbp), %ecx
	movslq	%ecx, %rcx
	cmpl	$0, (%rax,%rcx,4)
	jne	.LBB33_162
# %bb.159:                              # %if.then758
                                        #   in Loop: Header=BB33_155 Depth=1
	movl	-96(%rbp), %eax
	movq	mvbits, %rdx
	movl	-12(%rbp), %esi
	movl	-32(%rbp), %ecx
                                        # kill: def $cl killed $ecx
	shll	%cl, %esi
	subl	-88(%rbp), %esi
	movslq	%esi, %rcx
	movl	(%rdx,%rcx,4), %edx
	movq	mvbits, %rsi
	movl	-16(%rbp), %edi
	movl	-32(%rbp), %ecx
                                        # kill: def $cl killed $ecx
	shll	%cl, %edi
	subl	-92(%rbp), %edi
	movslq	%edi, %rcx
	addl	(%rsi,%rcx,4), %edx
	imull	%edx, %eax
	sarl	$16, %eax
	movl	%eax, -20(%rbp)
	movq	-120(%rbp), %rdi
	movq	-128(%rbp), %rsi
	movq	-112(%rbp), %rdx
	movl	-76(%rbp), %ecx
	movl	-60(%rbp), %r8d
	movl	-84(%rbp), %r9d
	movl	-20(%rbp), %eax
	movl	56(%rbp), %ebx
	movl	-12(%rbp), %r10d
	movl	-16(%rbp), %r11d
	movl	%eax, (%rsp)
	movl	%ebx, 8(%rsp)
	movl	%r10d, 16(%rsp)
	movl	%r11d, 24(%rsp)
	callq	PartCalMad
	movl	%eax, -20(%rbp)
	movl	-20(%rbp), %eax
	movq	McostState, %rcx
	movl	-16(%rbp), %edx
	subl	-24(%rbp), %edx
	addl	48(%rbp), %edx
	movslq	%edx, %rdx
	movq	(%rcx,%rdx,8), %rcx
	movl	-12(%rbp), %edx
	subl	-28(%rbp), %edx
	addl	48(%rbp), %edx
	movslq	%edx, %rdx
	movl	%eax, (%rcx,%rdx,4)
	movl	-20(%rbp), %eax
	cmpl	56(%rbp), %eax
	jge	.LBB33_161
# %bb.160:                              # %if.then781
                                        #   in Loop: Header=BB33_155 Depth=1
	movl	-12(%rbp), %eax
	movl	%eax, -44(%rbp)
	movl	-16(%rbp), %eax
	movl	%eax, -40(%rbp)
	movl	-20(%rbp), %eax
	movl	%eax, 56(%rbp)
.LBB33_161:                             # %if.end782
                                        #   in Loop: Header=BB33_155 Depth=1
	jmp	.LBB33_162
.LBB33_162:                             # %if.end783
                                        #   in Loop: Header=BB33_155 Depth=1
	jmp	.LBB33_163
.LBB33_163:                             # %if.end784
                                        #   in Loop: Header=BB33_155 Depth=1
	movl	-68(%rbp), %eax
	subl	-144(%rbp), %eax
	movl	%eax, -12(%rbp)
	movl	-64(%rbp), %eax
	movl	%eax, -16(%rbp)
	movl	-12(%rbp), %edi
	subl	-28(%rbp), %edi
	callq	abs
	cmpl	48(%rbp), %eax
	jg	.LBB33_170
# %bb.164:                              # %land.lhs.true790
                                        #   in Loop: Header=BB33_155 Depth=1
	movl	-16(%rbp), %edi
	subl	-24(%rbp), %edi
	callq	abs
	cmpl	48(%rbp), %eax
	jg	.LBB33_170
# %bb.165:                              # %if.then795
                                        #   in Loop: Header=BB33_155 Depth=1
	movq	McostState, %rax
	movl	-16(%rbp), %ecx
	subl	-24(%rbp), %ecx
	addl	48(%rbp), %ecx
	movslq	%ecx, %rcx
	movq	(%rax,%rcx,8), %rax
	movl	-12(%rbp), %ecx
	subl	-28(%rbp), %ecx
	addl	48(%rbp), %ecx
	movslq	%ecx, %rcx
	cmpl	$0, (%rax,%rcx,4)
	jne	.LBB33_169
# %bb.166:                              # %if.then805
                                        #   in Loop: Header=BB33_155 Depth=1
	movl	-96(%rbp), %eax
	movq	mvbits, %rdx
	movl	-12(%rbp), %esi
	movl	-32(%rbp), %ecx
                                        # kill: def $cl killed $ecx
	shll	%cl, %esi
	subl	-88(%rbp), %esi
	movslq	%esi, %rcx
	movl	(%rdx,%rcx,4), %edx
	movq	mvbits, %rsi
	movl	-16(%rbp), %edi
	movl	-32(%rbp), %ecx
                                        # kill: def $cl killed $ecx
	shll	%cl, %edi
	subl	-92(%rbp), %edi
	movslq	%edi, %rcx
	addl	(%rsi,%rcx,4), %edx
	imull	%edx, %eax
	sarl	$16, %eax
	movl	%eax, -20(%rbp)
	movq	-120(%rbp), %rdi
	movq	-128(%rbp), %rsi
	movq	-112(%rbp), %rdx
	movl	-76(%rbp), %ecx
	movl	-60(%rbp), %r8d
	movl	-84(%rbp), %r9d
	movl	-20(%rbp), %eax
	movl	56(%rbp), %ebx
	movl	-12(%rbp), %r10d
	movl	-16(%rbp), %r11d
	movl	%eax, (%rsp)
	movl	%ebx, 8(%rsp)
	movl	%r10d, 16(%rsp)
	movl	%r11d, 24(%rsp)
	callq	PartCalMad
	movl	%eax, -20(%rbp)
	movl	-20(%rbp), %eax
	movq	McostState, %rcx
	movl	-16(%rbp), %edx
	subl	-24(%rbp), %edx
	addl	48(%rbp), %edx
	movslq	%edx, %rdx
	movq	(%rcx,%rdx,8), %rcx
	movl	-12(%rbp), %edx
	subl	-28(%rbp), %edx
	addl	48(%rbp), %edx
	movslq	%edx, %rdx
	movl	%eax, (%rcx,%rdx,4)
	movl	-20(%rbp), %eax
	cmpl	56(%rbp), %eax
	jge	.LBB33_168
# %bb.167:                              # %if.then828
                                        #   in Loop: Header=BB33_155 Depth=1
	movl	-12(%rbp), %eax
	movl	%eax, -44(%rbp)
	movl	-16(%rbp), %eax
	movl	%eax, -40(%rbp)
	movl	-20(%rbp), %eax
	movl	%eax, 56(%rbp)
.LBB33_168:                             # %if.end829
                                        #   in Loop: Header=BB33_155 Depth=1
	jmp	.LBB33_169
.LBB33_169:                             # %if.end830
                                        #   in Loop: Header=BB33_155 Depth=1
	jmp	.LBB33_170
.LBB33_170:                             # %if.end831
                                        #   in Loop: Header=BB33_155 Depth=1
	jmp	.LBB33_171
.LBB33_171:                             # %for.inc832
                                        #   in Loop: Header=BB33_155 Depth=1
	movl	-52(%rbp), %eax
	addl	$1, %eax
	movl	%eax, -52(%rbp)
	jmp	.LBB33_155
.LBB33_172:                             # %for.end834
	movl	$1, -52(%rbp)
.LBB33_173:                             # %for.cond835
                                        # =>This Inner Loop Header: Depth=1
	movl	-52(%rbp), %ecx
	movl	48(%rbp), %eax
	cltd
	movl	$4, %esi
	idivl	%esi
	cmpl	%eax, %ecx
	jg	.LBB33_190
# %bb.174:                              # %for.body839
                                        #   in Loop: Header=BB33_173 Depth=1
	movl	-52(%rbp), %eax
	shll	$1, %eax
	subl	$1, %eax
	movl	%eax, -144(%rbp)
	movl	-68(%rbp), %eax
	movl	%eax, -12(%rbp)
	movl	-64(%rbp), %eax
	addl	-144(%rbp), %eax
	movl	%eax, -16(%rbp)
	movl	-12(%rbp), %edi
	subl	-28(%rbp), %edi
	callq	abs
	cmpl	48(%rbp), %eax
	jg	.LBB33_181
# %bb.175:                              # %land.lhs.true847
                                        #   in Loop: Header=BB33_173 Depth=1
	movl	-16(%rbp), %edi
	subl	-24(%rbp), %edi
	callq	abs
	cmpl	48(%rbp), %eax
	jg	.LBB33_181
# %bb.176:                              # %if.then852
                                        #   in Loop: Header=BB33_173 Depth=1
	movq	McostState, %rax
	movl	-16(%rbp), %ecx
	subl	-24(%rbp), %ecx
	addl	48(%rbp), %ecx
	movslq	%ecx, %rcx
	movq	(%rax,%rcx,8), %rax
	movl	-12(%rbp), %ecx
	subl	-28(%rbp), %ecx
	addl	48(%rbp), %ecx
	movslq	%ecx, %rcx
	cmpl	$0, (%rax,%rcx,4)
	jne	.LBB33_180
# %bb.177:                              # %if.then862
                                        #   in Loop: Header=BB33_173 Depth=1
	movl	-96(%rbp), %eax
	movq	mvbits, %rdx
	movl	-12(%rbp), %esi
	movl	-32(%rbp), %ecx
                                        # kill: def $cl killed $ecx
	shll	%cl, %esi
	subl	-88(%rbp), %esi
	movslq	%esi, %rcx
	movl	(%rdx,%rcx,4), %edx
	movq	mvbits, %rsi
	movl	-16(%rbp), %edi
	movl	-32(%rbp), %ecx
                                        # kill: def $cl killed $ecx
	shll	%cl, %edi
	subl	-92(%rbp), %edi
	movslq	%edi, %rcx
	addl	(%rsi,%rcx,4), %edx
	imull	%edx, %eax
	sarl	$16, %eax
	movl	%eax, -20(%rbp)
	movq	-120(%rbp), %rdi
	movq	-128(%rbp), %rsi
	movq	-112(%rbp), %rdx
	movl	-76(%rbp), %ecx
	movl	-60(%rbp), %r8d
	movl	-84(%rbp), %r9d
	movl	-20(%rbp), %eax
	movl	56(%rbp), %ebx
	movl	-12(%rbp), %r10d
	movl	-16(%rbp), %r11d
	movl	%eax, (%rsp)
	movl	%ebx, 8(%rsp)
	movl	%r10d, 16(%rsp)
	movl	%r11d, 24(%rsp)
	callq	PartCalMad
	movl	%eax, -20(%rbp)
	movl	-20(%rbp), %eax
	movq	McostState, %rcx
	movl	-16(%rbp), %edx
	subl	-24(%rbp), %edx
	addl	48(%rbp), %edx
	movslq	%edx, %rdx
	movq	(%rcx,%rdx,8), %rcx
	movl	-12(%rbp), %edx
	subl	-28(%rbp), %edx
	addl	48(%rbp), %edx
	movslq	%edx, %rdx
	movl	%eax, (%rcx,%rdx,4)
	movl	-20(%rbp), %eax
	cmpl	56(%rbp), %eax
	jge	.LBB33_179
# %bb.178:                              # %if.then885
                                        #   in Loop: Header=BB33_173 Depth=1
	movl	-12(%rbp), %eax
	movl	%eax, -44(%rbp)
	movl	-16(%rbp), %eax
	movl	%eax, -40(%rbp)
	movl	-20(%rbp), %eax
	movl	%eax, 56(%rbp)
.LBB33_179:                             # %if.end886
                                        #   in Loop: Header=BB33_173 Depth=1
	jmp	.LBB33_180
.LBB33_180:                             # %if.end887
                                        #   in Loop: Header=BB33_173 Depth=1
	jmp	.LBB33_181
.LBB33_181:                             # %if.end888
                                        #   in Loop: Header=BB33_173 Depth=1
	movl	-68(%rbp), %eax
	movl	%eax, -12(%rbp)
	movl	-64(%rbp), %eax
	subl	-144(%rbp), %eax
	movl	%eax, -16(%rbp)
	movl	-12(%rbp), %edi
	subl	-28(%rbp), %edi
	callq	abs
	cmpl	48(%rbp), %eax
	jg	.LBB33_188
# %bb.182:                              # %land.lhs.true894
                                        #   in Loop: Header=BB33_173 Depth=1
	movl	-16(%rbp), %edi
	subl	-24(%rbp), %edi
	callq	abs
	cmpl	48(%rbp), %eax
	jg	.LBB33_188
# %bb.183:                              # %if.then899
                                        #   in Loop: Header=BB33_173 Depth=1
	movq	McostState, %rax
	movl	-16(%rbp), %ecx
	subl	-24(%rbp), %ecx
	addl	48(%rbp), %ecx
	movslq	%ecx, %rcx
	movq	(%rax,%rcx,8), %rax
	movl	-12(%rbp), %ecx
	subl	-28(%rbp), %ecx
	addl	48(%rbp), %ecx
	movslq	%ecx, %rcx
	cmpl	$0, (%rax,%rcx,4)
	jne	.LBB33_187
# %bb.184:                              # %if.then909
                                        #   in Loop: Header=BB33_173 Depth=1
	movl	-96(%rbp), %eax
	movq	mvbits, %rdx
	movl	-12(%rbp), %esi
	movl	-32(%rbp), %ecx
                                        # kill: def $cl killed $ecx
	shll	%cl, %esi
	subl	-88(%rbp), %esi
	movslq	%esi, %rcx
	movl	(%rdx,%rcx,4), %edx
	movq	mvbits, %rsi
	movl	-16(%rbp), %edi
	movl	-32(%rbp), %ecx
                                        # kill: def $cl killed $ecx
	shll	%cl, %edi
	subl	-92(%rbp), %edi
	movslq	%edi, %rcx
	addl	(%rsi,%rcx,4), %edx
	imull	%edx, %eax
	sarl	$16, %eax
	movl	%eax, -20(%rbp)
	movq	-120(%rbp), %rdi
	movq	-128(%rbp), %rsi
	movq	-112(%rbp), %rdx
	movl	-76(%rbp), %ecx
	movl	-60(%rbp), %r8d
	movl	-84(%rbp), %r9d
	movl	-20(%rbp), %eax
	movl	56(%rbp), %ebx
	movl	-12(%rbp), %r10d
	movl	-16(%rbp), %r11d
	movl	%eax, (%rsp)
	movl	%ebx, 8(%rsp)
	movl	%r10d, 16(%rsp)
	movl	%r11d, 24(%rsp)
	callq	PartCalMad
	movl	%eax, -20(%rbp)
	movl	-20(%rbp), %eax
	movq	McostState, %rcx
	movl	-16(%rbp), %edx
	subl	-24(%rbp), %edx
	addl	48(%rbp), %edx
	movslq	%edx, %rdx
	movq	(%rcx,%rdx,8), %rcx
	movl	-12(%rbp), %edx
	subl	-28(%rbp), %edx
	addl	48(%rbp), %edx
	movslq	%edx, %rdx
	movl	%eax, (%rcx,%rdx,4)
	movl	-20(%rbp), %eax
	cmpl	56(%rbp), %eax
	jge	.LBB33_186
# %bb.185:                              # %if.then932
                                        #   in Loop: Header=BB33_173 Depth=1
	movl	-12(%rbp), %eax
	movl	%eax, -44(%rbp)
	movl	-16(%rbp), %eax
	movl	%eax, -40(%rbp)
	movl	-20(%rbp), %eax
	movl	%eax, 56(%rbp)
.LBB33_186:                             # %if.end933
                                        #   in Loop: Header=BB33_173 Depth=1
	jmp	.LBB33_187
.LBB33_187:                             # %if.end934
                                        #   in Loop: Header=BB33_173 Depth=1
	jmp	.LBB33_188
.LBB33_188:                             # %if.end935
                                        #   in Loop: Header=BB33_173 Depth=1
	jmp	.LBB33_189
.LBB33_189:                             # %for.inc936
                                        #   in Loop: Header=BB33_173 Depth=1
	movl	-52(%rbp), %eax
	addl	$1, %eax
	movl	%eax, -52(%rbp)
	jmp	.LBB33_173
.LBB33_190:                             # %for.end938
	movswl	-46(%rbp), %eax
	cmpl	$0, %eax
	jle	.LBB33_197
# %bb.191:                              # %if.then942
	movl	56(%rbp), %eax
	subl	pred_SAD_ref, %eax
	vcvtsi2ss	%eax, %xmm0, %xmm0
	vcvtsi2ssl	pred_SAD_ref, %xmm0, %xmm1
	vmulss	-72(%rbp), %xmm1, %xmm1
	vucomiss	%xmm0, %xmm1
	jbe	.LBB33_193
# %bb.192:                              # %if.then949
	jmp	.LBB33_301
.LBB33_193:                             # %if.else950
	movl	56(%rbp), %eax
	subl	pred_SAD_ref, %eax
	vcvtsi2ss	%eax, %xmm0, %xmm0
	vcvtsi2ssl	pred_SAD_ref, %xmm0, %xmm1
	vmulss	-80(%rbp), %xmm1, %xmm1
	vucomiss	%xmm0, %xmm1
	jbe	.LBB33_195
# %bb.194:                              # %if.then957
	jmp	.LBB33_282
.LBB33_195:                             # %if.end958
	jmp	.LBB33_196
.LBB33_196:                             # %if.end959
	jmp	.LBB33_211
.LBB33_197:                             # %if.else960
	cmpl	$1, -56(%rbp)
	jle	.LBB33_204
# %bb.198:                              # %if.then963
	movl	56(%rbp), %eax
	subl	pred_SAD_uplayer, %eax
	vcvtsi2ss	%eax, %xmm0, %xmm0
	vcvtsi2ssl	pred_SAD_uplayer, %xmm0, %xmm1
	vmulss	-72(%rbp), %xmm1, %xmm1
	vucomiss	%xmm0, %xmm1
	jbe	.LBB33_200
# %bb.199:                              # %if.then970
	jmp	.LBB33_301
.LBB33_200:                             # %if.else971
	movl	56(%rbp), %eax
	subl	pred_SAD_uplayer, %eax
	vcvtsi2ss	%eax, %xmm0, %xmm0
	vcvtsi2ssl	pred_SAD_uplayer, %xmm0, %xmm1
	vmulss	-80(%rbp), %xmm1, %xmm1
	vucomiss	%xmm0, %xmm1
	jbe	.LBB33_202
# %bb.201:                              # %if.then978
	jmp	.LBB33_282
.LBB33_202:                             # %if.end979
	jmp	.LBB33_203
.LBB33_203:                             # %if.end980
	jmp	.LBB33_210
.LBB33_204:                             # %if.else981
	movl	56(%rbp), %eax
	subl	pred_SAD_space, %eax
	vcvtsi2ss	%eax, %xmm0, %xmm0
	vcvtsi2ssl	pred_SAD_space, %xmm0, %xmm1
	vmulss	-72(%rbp), %xmm1, %xmm1
	vucomiss	%xmm0, %xmm1
	jbe	.LBB33_206
# %bb.205:                              # %if.then988
	jmp	.LBB33_301
.LBB33_206:                             # %if.else989
	movl	56(%rbp), %eax
	subl	pred_SAD_space, %eax
	vcvtsi2ss	%eax, %xmm0, %xmm0
	vcvtsi2ssl	pred_SAD_space, %xmm0, %xmm1
	vmulss	-80(%rbp), %xmm1, %xmm1
	vucomiss	%xmm0, %xmm1
	jbe	.LBB33_208
# %bb.207:                              # %if.then996
	jmp	.LBB33_282
.LBB33_208:                             # %if.end997
	jmp	.LBB33_209
.LBB33_209:                             # %if.end998
	jmp	.LBB33_210
.LBB33_210:                             # %if.end999
	jmp	.LBB33_211
.LBB33_211:                             # %if.end1000
	movl	-44(%rbp), %eax
	movl	%eax, -68(%rbp)
	movl	-40(%rbp), %eax
	movl	%eax, -64(%rbp)
	movl	$1, -140(%rbp)
.LBB33_212:                             # %for.cond1001
                                        # =>This Inner Loop Header: Depth=1
	cmpl	$25, -140(%rbp)
	jge	.LBB33_222
# %bb.213:                              # %for.body1004
                                        #   in Loop: Header=BB33_212 Depth=1
	movl	-68(%rbp), %eax
	movq	spiral_search_x, %rcx
	movslq	-140(%rbp), %rdx
	addl	(%rcx,%rdx,4), %eax
	movl	%eax, -12(%rbp)
	movl	-64(%rbp), %eax
	movq	spiral_search_y, %rcx
	movslq	-140(%rbp), %rdx
	addl	(%rcx,%rdx,4), %eax
	movl	%eax, -16(%rbp)
	movl	-12(%rbp), %edi
	subl	-28(%rbp), %edi
	callq	abs
	cmpl	48(%rbp), %eax
	jg	.LBB33_220
# %bb.214:                              # %land.lhs.true1015
                                        #   in Loop: Header=BB33_212 Depth=1
	movl	-16(%rbp), %edi
	subl	-24(%rbp), %edi
	callq	abs
	cmpl	48(%rbp), %eax
	jg	.LBB33_220
# %bb.215:                              # %if.then1020
                                        #   in Loop: Header=BB33_212 Depth=1
	movq	McostState, %rax
	movl	-16(%rbp), %ecx
	subl	-24(%rbp), %ecx
	addl	48(%rbp), %ecx
	movslq	%ecx, %rcx
	movq	(%rax,%rcx,8), %rax
	movl	-12(%rbp), %ecx
	subl	-28(%rbp), %ecx
	addl	48(%rbp), %ecx
	movslq	%ecx, %rcx
	cmpl	$0, (%rax,%rcx,4)
	jne	.LBB33_219
# %bb.216:                              # %if.then1030
                                        #   in Loop: Header=BB33_212 Depth=1
	movl	-96(%rbp), %eax
	movq	mvbits, %rdx
	movl	-12(%rbp), %esi
	movl	-32(%rbp), %ecx
                                        # kill: def $cl killed $ecx
	shll	%cl, %esi
	subl	-88(%rbp), %esi
	movslq	%esi, %rcx
	movl	(%rdx,%rcx,4), %edx
	movq	mvbits, %rsi
	movl	-16(%rbp), %edi
	movl	-32(%rbp), %ecx
                                        # kill: def $cl killed $ecx
	shll	%cl, %edi
	subl	-92(%rbp), %edi
	movslq	%edi, %rcx
	addl	(%rsi,%rcx,4), %edx
	imull	%edx, %eax
	sarl	$16, %eax
	movl	%eax, -20(%rbp)
	movq	-120(%rbp), %rdi
	movq	-128(%rbp), %rsi
	movq	-112(%rbp), %rdx
	movl	-76(%rbp), %ecx
	movl	-60(%rbp), %r8d
	movl	-84(%rbp), %r9d
	movl	-20(%rbp), %eax
	movl	56(%rbp), %ebx
	movl	-12(%rbp), %r10d
	movl	-16(%rbp), %r11d
	movl	%eax, (%rsp)
	movl	%ebx, 8(%rsp)
	movl	%r10d, 16(%rsp)
	movl	%r11d, 24(%rsp)
	callq	PartCalMad
	movl	%eax, -20(%rbp)
	movl	-20(%rbp), %eax
	movq	McostState, %rcx
	movl	-16(%rbp), %edx
	subl	-24(%rbp), %edx
	addl	48(%rbp), %edx
	movslq	%edx, %rdx
	movq	(%rcx,%rdx,8), %rcx
	movl	-12(%rbp), %edx
	subl	-28(%rbp), %edx
	addl	48(%rbp), %edx
	movslq	%edx, %rdx
	movl	%eax, (%rcx,%rdx,4)
	movl	-20(%rbp), %eax
	cmpl	56(%rbp), %eax
	jge	.LBB33_218
# %bb.217:                              # %if.then1053
                                        #   in Loop: Header=BB33_212 Depth=1
	movl	-12(%rbp), %eax
	movl	%eax, -44(%rbp)
	movl	-16(%rbp), %eax
	movl	%eax, -40(%rbp)
	movl	-20(%rbp), %eax
	movl	%eax, 56(%rbp)
.LBB33_218:                             # %if.end1054
                                        #   in Loop: Header=BB33_212 Depth=1
