	.text
	.file	"fmo.c"
	.globl	FmoInit                 # -- Begin function FmoInit
	.p2align	4, 0x90
	.type	FmoInit,@function
FmoInit:                                # @FmoInit
	.cfi_startproc
# %bb.0:                                # %rand_bb
	pushq	%rbp
	.cfi_def_cfa_offset 16
	.cfi_offset %rbp, -16
	movq	%rsp, %rbp
	.cfi_def_cfa_register %rbp
	pushq	%r15
	pushq	%r14
	pushq	%rbx
	pushq	%rax
	.cfi_offset %rbx, -40
	.cfi_offset %r14, -32
	.cfi_offset %r15, -24
	movq	%rdx, %r14
	movq	%rsi, %r15
	movq	%rdi, %rbx
	callq	get_rand
	cmpl	$0, %eax
	jne	.LBB0_9
# %bb.1:                                # %func_FmoInit.10
	movq	%rbx, %rdi
	movq	%r15, %rsi
	movq	%r14, %rdx
	callq	FmoInit.10
	addq	$8, %rsp
	popq	%rbx
	popq	%r14
	popq	%r15
	popq	%rbp
	.cfi_def_cfa %rsp, 8
	retq
.LBB0_2:                                # %func_FmoInit.15
	.cfi_def_cfa %rbp, 16
	movq	%rbx, %rdi
	movq	%r15, %rsi
	movq	%r14, %rdx
	callq	FmoInit.15
	addq	$8, %rsp
	popq	%rbx
	popq	%r14
	popq	%r15
	popq	%rbp
	.cfi_def_cfa %rsp, 8
	retq
.LBB0_3:                                # %func_FmoInit.51
	.cfi_def_cfa %rbp, 16
	movq	%rbx, %rdi
	movq	%r15, %rsi
	movq	%r14, %rdx
	callq	FmoInit.51
	addq	$8, %rsp
	popq	%rbx
	popq	%r14
	popq	%r15
	popq	%rbp
	.cfi_def_cfa %rsp, 8
	retq
.LBB0_4:                                # %func_FmoInit.66
	.cfi_def_cfa %rbp, 16
	movq	%rbx, %rdi
	movq	%r15, %rsi
	movq	%r14, %rdx
	callq	FmoInit.66
	addq	$8, %rsp
	popq	%rbx
	popq	%r14
	popq	%r15
	popq	%rbp
	.cfi_def_cfa %rsp, 8
	retq
.LBB0_5:                                # %func_FmoInit.69
	.cfi_def_cfa %rbp, 16
	movq	%rbx, %rdi
	movq	%r15, %rsi
	movq	%r14, %rdx
	callq	FmoInit.69
	addq	$8, %rsp
	popq	%rbx
	popq	%r14
	popq	%r15
	popq	%rbp
	.cfi_def_cfa %rsp, 8
	retq
.LBB0_6:                                # %func_FmoInit.83
	.cfi_def_cfa %rbp, 16
	movq	%rbx, %rdi
	movq	%r15, %rsi
	movq	%r14, %rdx
	callq	FmoInit.83
	addq	$8, %rsp
	popq	%rbx
	popq	%r14
	popq	%r15
	popq	%rbp
	.cfi_def_cfa %rsp, 8
	retq
.LBB0_7:                                # %func_FmoInit.84
	.cfi_def_cfa %rbp, 16
	movq	%rbx, %rdi
	movq	%r15, %rsi
	movq	%r14, %rdx
	callq	FmoInit.84
	addq	$8, %rsp
	popq	%rbx
	popq	%r14
	popq	%r15
	popq	%rbp
	.cfi_def_cfa %rsp, 8
	retq
.LBB0_8:                                # %func_FmoInit.92
	.cfi_def_cfa %rbp, 16
	movq	%rbx, %rdi
	movq	%r15, %rsi
	movq	%r14, %rdx
	callq	FmoInit.92
	addq	$8, %rsp
	popq	%rbx
	popq	%r14
	popq	%r15
	popq	%rbp
	.cfi_def_cfa %rsp, 8
	retq
.LBB0_9:                                # %ctrl0
	.cfi_def_cfa %rbp, 16
	cmpl	$1, %eax
	je	.LBB0_2
# %bb.10:                               # %ctrl1
	cmpl	$2, %eax
	je	.LBB0_3
# %bb.11:                               # %ctrl2
	cmpl	$3, %eax
	je	.LBB0_4
# %bb.12:                               # %ctrl3
	cmpl	$4, %eax
	je	.LBB0_5
# %bb.13:                               # %ctrl4
	cmpl	$5, %eax
	je	.LBB0_6
# %bb.14:                               # %ctrl5
	cmpl	$6, %eax
	je	.LBB0_7
	jmp	.LBB0_8
.Lfunc_end0:
	.size	FmoInit, .Lfunc_end0-FmoInit
	.cfi_endproc
                                        # -- End function
	.p2align	4, 0x90         # -- Begin function FmoGenerateMapUnitToSliceGroupMap
	.type	FmoGenerateMapUnitToSliceGroupMap,@function
FmoGenerateMapUnitToSliceGroupMap:      # @FmoGenerateMapUnitToSliceGroupMap
	.cfi_startproc
# %bb.0:                                # %rand_bb
	pushq	%rbp
	.cfi_def_cfa_offset 16
	.cfi_offset %rbp, -16
	movq	%rsp, %rbp
	.cfi_def_cfa_register %rbp
	pushq	%r14
	pushq	%rbx
	.cfi_offset %rbx, -32
	.cfi_offset %r14, -24
	movq	%rsi, %r14
	movq	%rdi, %rbx
	callq	get_rand
	cmpl	$0, %eax
	jne	.LBB1_7
# %bb.1:                                # %func_FmoGenerateMapUnitToSliceGroupMap.18
	movq	%rbx, %rdi
	movq	%r14, %rsi
	callq	FmoGenerateMapUnitToSliceGroupMap.18
	popq	%rbx
	popq	%r14
	popq	%rbp
	.cfi_def_cfa %rsp, 8
	retq
.LBB1_2:                                # %func_FmoGenerateMapUnitToSliceGroupMap.28
	.cfi_def_cfa %rbp, 16
	movq	%rbx, %rdi
	movq	%r14, %rsi
	callq	FmoGenerateMapUnitToSliceGroupMap.28
	popq	%rbx
	popq	%r14
	popq	%rbp
	.cfi_def_cfa %rsp, 8
	retq
.LBB1_3:                                # %func_FmoGenerateMapUnitToSliceGroupMap.70
	.cfi_def_cfa %rbp, 16
	movq	%rbx, %rdi
	movq	%r14, %rsi
	callq	FmoGenerateMapUnitToSliceGroupMap.70
	popq	%rbx
	popq	%r14
	popq	%rbp
	.cfi_def_cfa %rsp, 8
	retq
.LBB1_4:                                # %func_FmoGenerateMapUnitToSliceGroupMap.72
	.cfi_def_cfa %rbp, 16
	movq	%rbx, %rdi
	movq	%r14, %rsi
	callq	FmoGenerateMapUnitToSliceGroupMap.72
	popq	%rbx
	popq	%r14
	popq	%rbp
	.cfi_def_cfa %rsp, 8
	retq
.LBB1_5:                                # %func_FmoGenerateMapUnitToSliceGroupMap.74
	.cfi_def_cfa %rbp, 16
	movq	%rbx, %rdi
	movq	%r14, %rsi
	callq	FmoGenerateMapUnitToSliceGroupMap.74
	popq	%rbx
	popq	%r14
	popq	%rbp
	.cfi_def_cfa %rsp, 8
	retq
.LBB1_6:                                # %func_FmoGenerateMapUnitToSliceGroupMap.82
	.cfi_def_cfa %rbp, 16
	movq	%rbx, %rdi
	movq	%r14, %rsi
	callq	FmoGenerateMapUnitToSliceGroupMap.82
	popq	%rbx
	popq	%r14
	popq	%rbp
	.cfi_def_cfa %rsp, 8
	retq
.LBB1_7:                                # %ctrl0
	.cfi_def_cfa %rbp, 16
	cmpl	$1, %eax
	je	.LBB1_2
# %bb.8:                                # %ctrl1
	cmpl	$2, %eax
	je	.LBB1_3
# %bb.9:                                # %ctrl2
	cmpl	$3, %eax
	je	.LBB1_4
# %bb.10:                               # %ctrl3
	cmpl	$4, %eax
	je	.LBB1_5
	jmp	.LBB1_6
.Lfunc_end1:
	.size	FmoGenerateMapUnitToSliceGroupMap, .Lfunc_end1-FmoGenerateMapUnitToSliceGroupMap
	.cfi_endproc
                                        # -- End function
	.p2align	4, 0x90         # -- Begin function FmoGenerateMBAmap
	.type	FmoGenerateMBAmap,@function
FmoGenerateMBAmap:                      # @FmoGenerateMBAmap
	.cfi_startproc
# %bb.0:                                # %rand_bb
	pushq	%rbp
	.cfi_def_cfa_offset 16
	.cfi_offset %rbp, -16
	movq	%rsp, %rbp
	.cfi_def_cfa_register %rbp
	pushq	%r14
	pushq	%rbx
	.cfi_offset %rbx, -32
	.cfi_offset %r14, -24
	movq	%rsi, %r14
	movq	%rdi, %rbx
	callq	get_rand
	cmpl	$0, %eax
	jne	.LBB2_7
# %bb.1:                                # %func_FmoGenerateMBAmap.9
	movq	%rbx, %rdi
	movq	%r14, %rsi
	callq	FmoGenerateMBAmap.9
	popq	%rbx
	popq	%r14
	popq	%rbp
	.cfi_def_cfa %rsp, 8
	retq
.LBB2_2:                                # %func_FmoGenerateMBAmap.25
	.cfi_def_cfa %rbp, 16
	movq	%rbx, %rdi
	movq	%r14, %rsi
	callq	FmoGenerateMBAmap.25
	popq	%rbx
	popq	%r14
	popq	%rbp
	.cfi_def_cfa %rsp, 8
	retq
.LBB2_3:                                # %func_FmoGenerateMBAmap.27
	.cfi_def_cfa %rbp, 16
	movq	%rbx, %rdi
	movq	%r14, %rsi
	callq	FmoGenerateMBAmap.27
	popq	%rbx
	popq	%r14
	popq	%rbp
	.cfi_def_cfa %rsp, 8
	retq
.LBB2_4:                                # %func_FmoGenerateMBAmap.33
	.cfi_def_cfa %rbp, 16
	movq	%rbx, %rdi
	movq	%r14, %rsi
	callq	FmoGenerateMBAmap.33
	popq	%rbx
	popq	%r14
	popq	%rbp
	.cfi_def_cfa %rsp, 8
	retq
.LBB2_5:                                # %func_FmoGenerateMBAmap.54
	.cfi_def_cfa %rbp, 16
	movq	%rbx, %rdi
	movq	%r14, %rsi
	callq	FmoGenerateMBAmap.54
	popq	%rbx
	popq	%r14
	popq	%rbp
	.cfi_def_cfa %rsp, 8
	retq
.LBB2_6:                                # %func_FmoGenerateMBAmap.73
	.cfi_def_cfa %rbp, 16
	movq	%rbx, %rdi
	movq	%r14, %rsi
	callq	FmoGenerateMBAmap.73
	popq	%rbx
	popq	%r14
	popq	%rbp
	.cfi_def_cfa %rsp, 8
	retq
.LBB2_7:                                # %ctrl0
	.cfi_def_cfa %rbp, 16
	cmpl	$1, %eax
	je	.LBB2_2
# %bb.8:                                # %ctrl1
	cmpl	$2, %eax
	je	.LBB2_3
# %bb.9:                                # %ctrl2
	cmpl	$3, %eax
	je	.LBB2_4
# %bb.10:                               # %ctrl3
	cmpl	$4, %eax
	je	.LBB2_5
	jmp	.LBB2_6
.Lfunc_end2:
	.size	FmoGenerateMBAmap, .Lfunc_end2-FmoGenerateMBAmap
	.cfi_endproc
                                        # -- End function
	.globl	FmoUninit               # -- Begin function FmoUninit
	.p2align	4, 0x90
	.type	FmoUninit,@function
FmoUninit:                              # @FmoUninit
	.cfi_startproc
# %bb.0:                                # %entry
	pushq	%rbp
	.cfi_def_cfa_offset 16
	.cfi_offset %rbp, -16
	movq	%rsp, %rbp
	.cfi_def_cfa_register %rbp
	cmpq	$0, MBAmap
	je	.LBB3_2
# %bb.1:                                # %if.then
	movq	MBAmap, %rdi
	callq	free
	movq	$0, MBAmap
.LBB3_2:                                # %if.end
	cmpq	$0, MapUnitToSliceGroupMap
	je	.LBB3_4
# %bb.3:                                # %if.then2
	movq	MapUnitToSliceGroupMap, %rdi
	callq	free
	movq	$0, MapUnitToSliceGroupMap
.LBB3_4:                                # %if.end3
	popq	%rbp
	.cfi_def_cfa %rsp, 8
	retq
.Lfunc_end3:
	.size	FmoUninit, .Lfunc_end3-FmoUninit
	.cfi_endproc
                                        # -- End function
	.globl	FmoStartPicture         # -- Begin function FmoStartPicture
	.p2align	4, 0x90
	.type	FmoStartPicture,@function
FmoStartPicture:                        # @FmoStartPicture
	.cfi_startproc
# %bb.0:                                # %entry
	pushq	%rbp
	.cfi_def_cfa_offset 16
	.cfi_offset %rbp, -16
	movq	%rsp, %rbp
	.cfi_def_cfa_register %rbp
	subq	$16, %rsp
	movl	$0, -4(%rbp)
.LBB4_1:                                # %for.cond
                                        # =>This Inner Loop Header: Depth=1
	cmpl	$8, -4(%rbp)
	jge	.LBB4_4
# %bb.2:                                # %for.body
                                        #   in Loop: Header=BB4_1 Depth=1
	movl	-4(%rbp), %edi
	callq	FmoGetFirstMBOfSliceGroup
	movslq	-4(%rbp), %rcx
	movl	%eax, FirstMBInSlice(,%rcx,4)
# %bb.3:                                # %for.inc
                                        #   in Loop: Header=BB4_1 Depth=1
	movl	-4(%rbp), %eax
	addl	$1, %eax
	movl	%eax, -4(%rbp)
	jmp	.LBB4_1
.LBB4_4:                                # %for.end
	xorl	%eax, %eax
	addq	$16, %rsp
	popq	%rbp
	.cfi_def_cfa %rsp, 8
	retq
.Lfunc_end4:
	.size	FmoStartPicture, .Lfunc_end4-FmoStartPicture
	.cfi_endproc
                                        # -- End function
	.globl	FmoGetFirstMBOfSliceGroup # -- Begin function FmoGetFirstMBOfSliceGroup
	.p2align	4, 0x90
	.type	FmoGetFirstMBOfSliceGroup,@function
FmoGetFirstMBOfSliceGroup:              # @FmoGetFirstMBOfSliceGroup
	.cfi_startproc
# %bb.0:                                # %rand_bb
	pushq	%rbp
	.cfi_def_cfa_offset 16
	.cfi_offset %rbp, -16
	movq	%rsp, %rbp
	.cfi_def_cfa_register %rbp
	pushq	%rbx
	pushq	%rax
	.cfi_offset %rbx, -24
	movl	%edi, %ebx
	callq	get_rand
	cmpl	$0, %eax
	jne	.LBB5_7
# %bb.1:                                # %func_FmoGetFirstMBOfSliceGroup.12
	movl	%ebx, %edi
	callq	FmoGetFirstMBOfSliceGroup.12
	addq	$8, %rsp
	popq	%rbx
	popq	%rbp
	.cfi_def_cfa %rsp, 8
	retq
.LBB5_2:                                # %func_FmoGetFirstMBOfSliceGroup.44
	.cfi_def_cfa %rbp, 16
	movl	%ebx, %edi
	callq	FmoGetFirstMBOfSliceGroup.44
	addq	$8, %rsp
	popq	%rbx
	popq	%rbp
	.cfi_def_cfa %rsp, 8
	retq
.LBB5_3:                                # %func_FmoGetFirstMBOfSliceGroup.50
	.cfi_def_cfa %rbp, 16
	movl	%ebx, %edi
	callq	FmoGetFirstMBOfSliceGroup.50
	addq	$8, %rsp
	popq	%rbx
	popq	%rbp
	.cfi_def_cfa %rsp, 8
	retq
.LBB5_4:                                # %func_FmoGetFirstMBOfSliceGroup.65
	.cfi_def_cfa %rbp, 16
	movl	%ebx, %edi
	callq	FmoGetFirstMBOfSliceGroup.65
	addq	$8, %rsp
	popq	%rbx
	popq	%rbp
	.cfi_def_cfa %rsp, 8
	retq
.LBB5_5:                                # %func_FmoGetFirstMBOfSliceGroup.77
	.cfi_def_cfa %rbp, 16
	movl	%ebx, %edi
	callq	FmoGetFirstMBOfSliceGroup.77
	addq	$8, %rsp
	popq	%rbx
	popq	%rbp
	.cfi_def_cfa %rsp, 8
	retq
.LBB5_6:                                # %func_FmoGetFirstMBOfSliceGroup.80
	.cfi_def_cfa %rbp, 16
	movl	%ebx, %edi
	callq	FmoGetFirstMBOfSliceGroup.80
	addq	$8, %rsp
	popq	%rbx
	popq	%rbp
	.cfi_def_cfa %rsp, 8
	retq
.LBB5_7:                                # %ctrl0
	.cfi_def_cfa %rbp, 16
	cmpl	$1, %eax
	je	.LBB5_2
# %bb.8:                                # %ctrl1
	cmpl	$2, %eax
	je	.LBB5_3
# %bb.9:                                # %ctrl2
	cmpl	$3, %eax
	je	.LBB5_4
# %bb.10:                               # %ctrl3
	cmpl	$4, %eax
	je	.LBB5_5
	jmp	.LBB5_6
.Lfunc_end5:
	.size	FmoGetFirstMBOfSliceGroup, .Lfunc_end5-FmoGetFirstMBOfSliceGroup
	.cfi_endproc
                                        # -- End function
	.globl	FmoEndPicture           # -- Begin function FmoEndPicture
	.p2align	4, 0x90
	.type	FmoEndPicture,@function
FmoEndPicture:                          # @FmoEndPicture
	.cfi_startproc
# %bb.0:                                # %entry
	pushq	%rbp
	.cfi_def_cfa_offset 16
	.cfi_offset %rbp, -16
	movq	%rsp, %rbp
	.cfi_def_cfa_register %rbp
	xorl	%eax, %eax
	popq	%rbp
	.cfi_def_cfa %rsp, 8
	retq
.Lfunc_end6:
	.size	FmoEndPicture, .Lfunc_end6-FmoEndPicture
	.cfi_endproc
                                        # -- End function
	.globl	FmoMB2SliceGroup        # -- Begin function FmoMB2SliceGroup
	.p2align	4, 0x90
	.type	FmoMB2SliceGroup,@function
FmoMB2SliceGroup:                       # @FmoMB2SliceGroup
	.cfi_startproc
# %bb.0:                                # %entry
	pushq	%rbp
	.cfi_def_cfa_offset 16
	.cfi_offset %rbp, -16
	movq	%rsp, %rbp
	.cfi_def_cfa_register %rbp
	movl	%edi, -4(%rbp)
	movq	MBAmap, %rax
	movslq	-4(%rbp), %rcx
	movzbl	(%rax,%rcx), %eax
	popq	%rbp
	.cfi_def_cfa %rsp, 8
	retq
.Lfunc_end7:
	.size	FmoMB2SliceGroup, .Lfunc_end7-FmoMB2SliceGroup
	.cfi_endproc
                                        # -- End function
	.globl	FmoGetNextMBNr          # -- Begin function FmoGetNextMBNr
	.p2align	4, 0x90
	.type	FmoGetNextMBNr,@function
FmoGetNextMBNr:                         # @FmoGetNextMBNr
	.cfi_startproc
# %bb.0:                                # %rand_bb
	pushq	%rbp
	.cfi_def_cfa_offset 16
	.cfi_offset %rbp, -16
	movq	%rsp, %rbp
	.cfi_def_cfa_register %rbp
	pushq	%rbx
	pushq	%rax
	.cfi_offset %rbx, -24
	movl	%edi, %ebx
	callq	get_rand
	cmpl	$0, %eax
	jne	.LBB8_7
# %bb.1:                                # %func_FmoGetNextMBNr.1
	movl	%ebx, %edi
	callq	FmoGetNextMBNr.1
	addq	$8, %rsp
	popq	%rbx
	popq	%rbp
	.cfi_def_cfa %rsp, 8
	retq
.LBB8_2:                                # %func_FmoGetNextMBNr.17
	.cfi_def_cfa %rbp, 16
	movl	%ebx, %edi
	callq	FmoGetNextMBNr.17
	addq	$8, %rsp
	popq	%rbx
	popq	%rbp
	.cfi_def_cfa %rsp, 8
	retq
.LBB8_3:                                # %func_FmoGetNextMBNr.42
	.cfi_def_cfa %rbp, 16
	movl	%ebx, %edi
	callq	FmoGetNextMBNr.42
	addq	$8, %rsp
	popq	%rbx
	popq	%rbp
	.cfi_def_cfa %rsp, 8
	retq
.LBB8_4:                                # %func_FmoGetNextMBNr.45
	.cfi_def_cfa %rbp, 16
	movl	%ebx, %edi
	callq	FmoGetNextMBNr.45
	addq	$8, %rsp
	popq	%rbx
	popq	%rbp
	.cfi_def_cfa %rsp, 8
	retq
.LBB8_5:                                # %func_FmoGetNextMBNr.63
	.cfi_def_cfa %rbp, 16
	movl	%ebx, %edi
	callq	FmoGetNextMBNr.63
	addq	$8, %rsp
	popq	%rbx
	popq	%rbp
	.cfi_def_cfa %rsp, 8
	retq
.LBB8_6:                                # %func_FmoGetNextMBNr.68
	.cfi_def_cfa %rbp, 16
	movl	%ebx, %edi
	callq	FmoGetNextMBNr.68
	addq	$8, %rsp
	popq	%rbx
	popq	%rbp
	.cfi_def_cfa %rsp, 8
	retq
.LBB8_7:                                # %ctrl0
	.cfi_def_cfa %rbp, 16
	cmpl	$1, %eax
	je	.LBB8_2
# %bb.8:                                # %ctrl1
	cmpl	$2, %eax
	je	.LBB8_3
# %bb.9:                                # %ctrl2
	cmpl	$3, %eax
	je	.LBB8_4
# %bb.10:                               # %ctrl3
	cmpl	$4, %eax
	je	.LBB8_5
	jmp	.LBB8_6
.Lfunc_end8:
	.size	FmoGetNextMBNr, .Lfunc_end8-FmoGetNextMBNr
	.cfi_endproc
                                        # -- End function
	.globl	FmoGetPreviousMBNr      # -- Begin function FmoGetPreviousMBNr
	.p2align	4, 0x90
	.type	FmoGetPreviousMBNr,@function
FmoGetPreviousMBNr:                     # @FmoGetPreviousMBNr
	.cfi_startproc
# %bb.0:                                # %rand_bb
	pushq	%rbp
	.cfi_def_cfa_offset 16
	.cfi_offset %rbp, -16
	movq	%rsp, %rbp
	.cfi_def_cfa_register %rbp
	pushq	%rbx
	pushq	%rax
	.cfi_offset %rbx, -24
	movl	%edi, %ebx
	callq	get_rand
	cmpl	$0, %eax
	jne	.LBB9_7
# %bb.1:                                # %func_FmoGetPreviousMBNr.19
	movl	%ebx, %edi
	callq	FmoGetPreviousMBNr.19
	addq	$8, %rsp
	popq	%rbx
	popq	%rbp
	.cfi_def_cfa %rsp, 8
	retq
.LBB9_2:                                # %func_FmoGetPreviousMBNr.20
	.cfi_def_cfa %rbp, 16
	movl	%ebx, %edi
	callq	FmoGetPreviousMBNr.20
	addq	$8, %rsp
	popq	%rbx
	popq	%rbp
	.cfi_def_cfa %rsp, 8
	retq
.LBB9_3:                                # %func_FmoGetPreviousMBNr.22
	.cfi_def_cfa %rbp, 16
	movl	%ebx, %edi
	callq	FmoGetPreviousMBNr.22
	addq	$8, %rsp
	popq	%rbx
	popq	%rbp
	.cfi_def_cfa %rsp, 8
	retq
.LBB9_4:                                # %func_FmoGetPreviousMBNr.35
	.cfi_def_cfa %rbp, 16
	movl	%ebx, %edi
	callq	FmoGetPreviousMBNr.35
	addq	$8, %rsp
	popq	%rbx
	popq	%rbp
	.cfi_def_cfa %rsp, 8
	retq
.LBB9_5:                                # %func_FmoGetPreviousMBNr.46
	.cfi_def_cfa %rbp, 16
	movl	%ebx, %edi
	callq	FmoGetPreviousMBNr.46
	addq	$8, %rsp
	popq	%rbx
	popq	%rbp
	.cfi_def_cfa %rsp, 8
	retq
.LBB9_6:                                # %func_FmoGetPreviousMBNr.52
	.cfi_def_cfa %rbp, 16
	movl	%ebx, %edi
	callq	FmoGetPreviousMBNr.52
	addq	$8, %rsp
	popq	%rbx
	popq	%rbp
	.cfi_def_cfa %rsp, 8
	retq
.LBB9_7:                                # %ctrl0
	.cfi_def_cfa %rbp, 16
	cmpl	$1, %eax
	je	.LBB9_2
# %bb.8:                                # %ctrl1
	cmpl	$2, %eax
	je	.LBB9_3
# %bb.9:                                # %ctrl2
	cmpl	$3, %eax
	je	.LBB9_4
# %bb.10:                               # %ctrl3
	cmpl	$4, %eax
	je	.LBB9_5
	jmp	.LBB9_6
.Lfunc_end9:
	.size	FmoGetPreviousMBNr, .Lfunc_end9-FmoGetPreviousMBNr
	.cfi_endproc
                                        # -- End function
	.globl	FmoGetLastCodedMBOfSliceGroup # -- Begin function FmoGetLastCodedMBOfSliceGroup
	.p2align	4, 0x90
	.type	FmoGetLastCodedMBOfSliceGroup,@function
FmoGetLastCodedMBOfSliceGroup:          # @FmoGetLastCodedMBOfSliceGroup
	.cfi_startproc
# %bb.0:                                # %rand_bb
	pushq	%rbp
	.cfi_def_cfa_offset 16
	.cfi_offset %rbp, -16
	movq	%rsp, %rbp
	.cfi_def_cfa_register %rbp
	pushq	%rbx
	pushq	%rax
	.cfi_offset %rbx, -24
	movl	%edi, %ebx
	callq	get_rand
	cmpl	$0, %eax
	jne	.LBB10_7
# %bb.1:                                # %func_FmoGetLastCodedMBOfSliceGroup.4
	movl	%ebx, %edi
	callq	FmoGetLastCodedMBOfSliceGroup.4
	addq	$8, %rsp
	popq	%rbx
	popq	%rbp
	.cfi_def_cfa %rsp, 8
	retq
.LBB10_2:                               # %func_FmoGetLastCodedMBOfSliceGroup.24
	.cfi_def_cfa %rbp, 16
	movl	%ebx, %edi
	callq	FmoGetLastCodedMBOfSliceGroup.24
	addq	$8, %rsp
	popq	%rbx
	popq	%rbp
	.cfi_def_cfa %rsp, 8
	retq
.LBB10_3:                               # %func_FmoGetLastCodedMBOfSliceGroup.34
	.cfi_def_cfa %rbp, 16
	movl	%ebx, %edi
	callq	FmoGetLastCodedMBOfSliceGroup.34
	addq	$8, %rsp
	popq	%rbx
	popq	%rbp
	.cfi_def_cfa %rsp, 8
	retq
.LBB10_4:                               # %func_FmoGetLastCodedMBOfSliceGroup.47
	.cfi_def_cfa %rbp, 16
	movl	%ebx, %edi
	callq	FmoGetLastCodedMBOfSliceGroup.47
	addq	$8, %rsp
	popq	%rbx
	popq	%rbp
	.cfi_def_cfa %rsp, 8
	retq
.LBB10_5:                               # %func_FmoGetLastCodedMBOfSliceGroup.59
	.cfi_def_cfa %rbp, 16
	movl	%ebx, %edi
	callq	FmoGetLastCodedMBOfSliceGroup.59
	addq	$8, %rsp
	popq	%rbx
	popq	%rbp
	.cfi_def_cfa %rsp, 8
	retq
.LBB10_6:                               # %func_FmoGetLastCodedMBOfSliceGroup.60
	.cfi_def_cfa %rbp, 16
	movl	%ebx, %edi
	callq	FmoGetLastCodedMBOfSliceGroup.60
	addq	$8, %rsp
	popq	%rbx
	popq	%rbp
	.cfi_def_cfa %rsp, 8
	retq
.LBB10_7:                               # %ctrl0
	.cfi_def_cfa %rbp, 16
	cmpl	$1, %eax
	je	.LBB10_2
# %bb.8:                                # %ctrl1
	cmpl	$2, %eax
	je	.LBB10_3
# %bb.9:                                # %ctrl2
	cmpl	$3, %eax
	je	.LBB10_4
# %bb.10:                               # %ctrl3
	cmpl	$4, %eax
	je	.LBB10_5
	jmp	.LBB10_6
.Lfunc_end10:
	.size	FmoGetLastCodedMBOfSliceGroup, .Lfunc_end10-FmoGetLastCodedMBOfSliceGroup
	.cfi_endproc
                                        # -- End function
	.globl	FmoSetLastMacroblockInSlice # -- Begin function FmoSetLastMacroblockInSlice
	.p2align	4, 0x90
	.type	FmoSetLastMacroblockInSlice,@function
FmoSetLastMacroblockInSlice:            # @FmoSetLastMacroblockInSlice
	.cfi_startproc
# %bb.0:                                # %rand_bb
	pushq	%rbp
	.cfi_def_cfa_offset 16
	.cfi_offset %rbp, -16
	movq	%rsp, %rbp
	.cfi_def_cfa_register %rbp
	pushq	%rbx
	pushq	%rax
	.cfi_offset %rbx, -24
	movl	%edi, %ebx
	callq	get_rand
	cmpl	$0, %eax
	jne	.LBB11_2
# %bb.1:                                # %func_FmoSetLastMacroblockInSlice.23
	movl	%ebx, %edi
	callq	FmoSetLastMacroblockInSlice.23
	addq	$8, %rsp
	popq	%rbx
	popq	%rbp
	.cfi_def_cfa %rsp, 8
	retq
.LBB11_2:                               # %func_FmoSetLastMacroblockInSlice.38
	.cfi_def_cfa %rbp, 16
	movl	%ebx, %edi
	callq	FmoSetLastMacroblockInSlice.38
	addq	$8, %rsp
	popq	%rbx
	popq	%rbp
	.cfi_def_cfa %rsp, 8
	retq
.Lfunc_end11:
	.size	FmoSetLastMacroblockInSlice, .Lfunc_end11-FmoSetLastMacroblockInSlice
	.cfi_endproc
                                        # -- End function
	.globl	FmoGetFirstMacroblockInSlice # -- Begin function FmoGetFirstMacroblockInSlice
	.p2align	4, 0x90
	.type	FmoGetFirstMacroblockInSlice,@function
FmoGetFirstMacroblockInSlice:           # @FmoGetFirstMacroblockInSlice
	.cfi_startproc
# %bb.0:                                # %entry
	pushq	%rbp
	.cfi_def_cfa_offset 16
	.cfi_offset %rbp, -16
	movq	%rsp, %rbp
	.cfi_def_cfa_register %rbp
	movl	%edi, -4(%rbp)
	movslq	-4(%rbp), %rax
	movl	FirstMBInSlice(,%rax,4), %eax
	popq	%rbp
	.cfi_def_cfa %rsp, 8
	retq
.Lfunc_end12:
	.size	FmoGetFirstMacroblockInSlice, .Lfunc_end12-FmoGetFirstMacroblockInSlice
	.cfi_endproc
                                        # -- End function
	.globl	FmoSliceGroupCompletelyCoded # -- Begin function FmoSliceGroupCompletelyCoded
	.p2align	4, 0x90
	.type	FmoSliceGroupCompletelyCoded,@function
FmoSliceGroupCompletelyCoded:           # @FmoSliceGroupCompletelyCoded
	.cfi_startproc
# %bb.0:                                # %rand_bb
	pushq	%rbp
	.cfi_def_cfa_offset 16
	.cfi_offset %rbp, -16
	movq	%rsp, %rbp
	.cfi_def_cfa_register %rbp
	pushq	%rbx
	pushq	%rax
	.cfi_offset %rbx, -24
	movl	%edi, %ebx
	callq	get_rand
	cmpl	$0, %eax
	jne	.LBB13_2
# %bb.1:                                # %func_FmoSliceGroupCompletelyCoded.2
	movl	%ebx, %edi
	callq	FmoSliceGroupCompletelyCoded.2
	addq	$8, %rsp
	popq	%rbx
	popq	%rbp
	.cfi_def_cfa %rsp, 8
	retq
.LBB13_2:                               # %func_FmoSliceGroupCompletelyCoded.6
	.cfi_def_cfa %rbp, 16
	movl	%ebx, %edi
	callq	FmoSliceGroupCompletelyCoded.6
	addq	$8, %rsp
	popq	%rbx
	popq	%rbp
	.cfi_def_cfa %rsp, 8
	retq
.Lfunc_end13:
	.size	FmoSliceGroupCompletelyCoded, .Lfunc_end13-FmoSliceGroupCompletelyCoded
	.cfi_endproc
                                        # -- End function
	.p2align	4, 0x90         # -- Begin function FmoGenerateType0MapUnitMap
	.type	FmoGenerateType0MapUnitMap,@function
FmoGenerateType0MapUnitMap:             # @FmoGenerateType0MapUnitMap
	.cfi_startproc
# %bb.0:                                # %rand_bb
	pushq	%rbp
	.cfi_def_cfa_offset 16
	.cfi_offset %rbp, -16
	movq	%rsp, %rbp
	.cfi_def_cfa_register %rbp
	pushq	%r14
	pushq	%rbx
	.cfi_offset %rbx, -32
	.cfi_offset %r14, -24
	movq	%rsi, %r14
	movq	%rdi, %rbx
	callq	get_rand
	cmpl	$0, %eax
	jne	.LBB14_9
# %bb.1:                                # %func_FmoGenerateType0MapUnitMap.7
	movq	%rbx, %rdi
	movq	%r14, %rsi
	callq	FmoGenerateType0MapUnitMap.7
	popq	%rbx
	popq	%r14
	popq	%rbp
	.cfi_def_cfa %rsp, 8
	retq
.LBB14_2:                               # %func_FmoGenerateType0MapUnitMap.8
	.cfi_def_cfa %rbp, 16
	movq	%rbx, %rdi
	movq	%r14, %rsi
	callq	FmoGenerateType0MapUnitMap.8
	popq	%rbx
	popq	%r14
	popq	%rbp
	.cfi_def_cfa %rsp, 8
	retq
.LBB14_3:                               # %func_FmoGenerateType0MapUnitMap.14
	.cfi_def_cfa %rbp, 16
	movq	%rbx, %rdi
	movq	%r14, %rsi
	callq	FmoGenerateType0MapUnitMap.14
	popq	%rbx
	popq	%r14
	popq	%rbp
	.cfi_def_cfa %rsp, 8
	retq
.LBB14_4:                               # %func_FmoGenerateType0MapUnitMap.26
	.cfi_def_cfa %rbp, 16
	movq	%rbx, %rdi
	movq	%r14, %rsi
	callq	FmoGenerateType0MapUnitMap.26
	popq	%rbx
	popq	%r14
	popq	%rbp
	.cfi_def_cfa %rsp, 8
	retq
.LBB14_5:                               # %func_FmoGenerateType0MapUnitMap.31
	.cfi_def_cfa %rbp, 16
	movq	%rbx, %rdi
	movq	%r14, %rsi
	callq	FmoGenerateType0MapUnitMap.31
	popq	%rbx
	popq	%r14
	popq	%rbp
	.cfi_def_cfa %rsp, 8
	retq
.LBB14_6:                               # %func_FmoGenerateType0MapUnitMap.40
	.cfi_def_cfa %rbp, 16
	movq	%rbx, %rdi
	movq	%r14, %rsi
	callq	FmoGenerateType0MapUnitMap.40
	popq	%rbx
	popq	%r14
	popq	%rbp
	.cfi_def_cfa %rsp, 8
	retq
.LBB14_7:                               # %func_FmoGenerateType0MapUnitMap.43
	.cfi_def_cfa %rbp, 16
	movq	%rbx, %rdi
	movq	%r14, %rsi
	callq	FmoGenerateType0MapUnitMap.43
	popq	%rbx
	popq	%r14
	popq	%rbp
	.cfi_def_cfa %rsp, 8
	retq
.LBB14_8:                               # %func_FmoGenerateType0MapUnitMap.53
	.cfi_def_cfa %rbp, 16
	movq	%rbx, %rdi
	movq	%r14, %rsi
	callq	FmoGenerateType0MapUnitMap.53
	popq	%rbx
	popq	%r14
	popq	%rbp
	.cfi_def_cfa %rsp, 8
	retq
.LBB14_9:                               # %ctrl0
	.cfi_def_cfa %rbp, 16
	cmpl	$1, %eax
	je	.LBB14_2
# %bb.10:                               # %ctrl1
	cmpl	$2, %eax
	je	.LBB14_3
# %bb.11:                               # %ctrl2
	cmpl	$3, %eax
	je	.LBB14_4
# %bb.12:                               # %ctrl3
	cmpl	$4, %eax
	je	.LBB14_5
# %bb.13:                               # %ctrl4
	cmpl	$5, %eax
	je	.LBB14_6
# %bb.14:                               # %ctrl5
	cmpl	$6, %eax
	je	.LBB14_7
	jmp	.LBB14_8
.Lfunc_end14:
	.size	FmoGenerateType0MapUnitMap, .Lfunc_end14-FmoGenerateType0MapUnitMap
	.cfi_endproc
                                        # -- End function
	.p2align	4, 0x90         # -- Begin function FmoGenerateType1MapUnitMap
	.type	FmoGenerateType1MapUnitMap,@function
FmoGenerateType1MapUnitMap:             # @FmoGenerateType1MapUnitMap
	.cfi_startproc
# %bb.0:                                # %rand_bb
	pushq	%rbp
	.cfi_def_cfa_offset 16
	.cfi_offset %rbp, -16
	movq	%rsp, %rbp
	.cfi_def_cfa_register %rbp
	pushq	%r14
	pushq	%rbx
	.cfi_offset %rbx, -32
	.cfi_offset %r14, -24
	movq	%rsi, %r14
	movq	%rdi, %rbx
	callq	get_rand
	cmpl	$0, %eax
	jne	.LBB15_7
# %bb.1:                                # %func_FmoGenerateType1MapUnitMap.11
	movq	%rbx, %rdi
	movq	%r14, %rsi
	callq	FmoGenerateType1MapUnitMap.11
	popq	%rbx
	popq	%r14
	popq	%rbp
	.cfi_def_cfa %rsp, 8
	retq
.LBB15_2:                               # %func_FmoGenerateType1MapUnitMap.41
	.cfi_def_cfa %rbp, 16
	movq	%rbx, %rdi
	movq	%r14, %rsi
	callq	FmoGenerateType1MapUnitMap.41
	popq	%rbx
	popq	%r14
	popq	%rbp
	.cfi_def_cfa %rsp, 8
	retq
.LBB15_3:                               # %func_FmoGenerateType1MapUnitMap.57
	.cfi_def_cfa %rbp, 16
	movq	%rbx, %rdi
	movq	%r14, %rsi
	callq	FmoGenerateType1MapUnitMap.57
	popq	%rbx
	popq	%r14
	popq	%rbp
	.cfi_def_cfa %rsp, 8
	retq
.LBB15_4:                               # %func_FmoGenerateType1MapUnitMap.91
	.cfi_def_cfa %rbp, 16
	movq	%rbx, %rdi
	movq	%r14, %rsi
	callq	FmoGenerateType1MapUnitMap.91
	popq	%rbx
	popq	%r14
	popq	%rbp
	.cfi_def_cfa %rsp, 8
	retq
.LBB15_5:                               # %func_FmoGenerateType1MapUnitMap.98
	.cfi_def_cfa %rbp, 16
	movq	%rbx, %rdi
	movq	%r14, %rsi
	callq	FmoGenerateType1MapUnitMap.98
	popq	%rbx
	popq	%r14
	popq	%rbp
	.cfi_def_cfa %rsp, 8
	retq
.LBB15_6:                               # %func_FmoGenerateType1MapUnitMap.100
	.cfi_def_cfa %rbp, 16
	movq	%rbx, %rdi
	movq	%r14, %rsi
	callq	FmoGenerateType1MapUnitMap.100
	popq	%rbx
	popq	%r14
	popq	%rbp
	.cfi_def_cfa %rsp, 8
	retq
.LBB15_7:                               # %ctrl0
	.cfi_def_cfa %rbp, 16
	cmpl	$1, %eax
	je	.LBB15_2
# %bb.8:                                # %ctrl1
	cmpl	$2, %eax
	je	.LBB15_3
# %bb.9:                                # %ctrl2
	cmpl	$3, %eax
	je	.LBB15_4
# %bb.10:                               # %ctrl3
	cmpl	$4, %eax
	je	.LBB15_5
	jmp	.LBB15_6
.Lfunc_end15:
	.size	FmoGenerateType1MapUnitMap, .Lfunc_end15-FmoGenerateType1MapUnitMap
	.cfi_endproc
                                        # -- End function
	.p2align	4, 0x90         # -- Begin function FmoGenerateType2MapUnitMap
	.type	FmoGenerateType2MapUnitMap,@function
FmoGenerateType2MapUnitMap:             # @FmoGenerateType2MapUnitMap
	.cfi_startproc
# %bb.0:                                # %rand_bb
	pushq	%rbp
	.cfi_def_cfa_offset 16
	.cfi_offset %rbp, -16
	movq	%rsp, %rbp
	.cfi_def_cfa_register %rbp
	pushq	%r14
	pushq	%rbx
	.cfi_offset %rbx, -32
	.cfi_offset %r14, -24
	movq	%rsi, %r14
	movq	%rdi, %rbx
	callq	get_rand
	cmpl	$0, %eax
	jne	.LBB16_9
# %bb.1:                                # %func_FmoGenerateType2MapUnitMap.48
	movq	%rbx, %rdi
	movq	%r14, %rsi
	callq	FmoGenerateType2MapUnitMap.48
	popq	%rbx
	popq	%r14
	popq	%rbp
	.cfi_def_cfa %rsp, 8
	retq
.LBB16_2:                               # %func_FmoGenerateType2MapUnitMap.56
	.cfi_def_cfa %rbp, 16
	movq	%rbx, %rdi
	movq	%r14, %rsi
	callq	FmoGenerateType2MapUnitMap.56
	popq	%rbx
	popq	%r14
	popq	%rbp
	.cfi_def_cfa %rsp, 8
	retq
.LBB16_3:                               # %func_FmoGenerateType2MapUnitMap.62
	.cfi_def_cfa %rbp, 16
	movq	%rbx, %rdi
	movq	%r14, %rsi
	callq	FmoGenerateType2MapUnitMap.62
	popq	%rbx
	popq	%r14
	popq	%rbp
	.cfi_def_cfa %rsp, 8
	retq
.LBB16_4:                               # %func_FmoGenerateType2MapUnitMap.75
	.cfi_def_cfa %rbp, 16
	movq	%rbx, %rdi
	movq	%r14, %rsi
	callq	FmoGenerateType2MapUnitMap.75
	popq	%rbx
	popq	%r14
	popq	%rbp
	.cfi_def_cfa %rsp, 8
	retq
.LBB16_5:                               # %func_FmoGenerateType2MapUnitMap.76
	.cfi_def_cfa %rbp, 16
	movq	%rbx, %rdi
	movq	%r14, %rsi
	callq	FmoGenerateType2MapUnitMap.76
	popq	%rbx
	popq	%r14
	popq	%rbp
	.cfi_def_cfa %rsp, 8
	retq
.LBB16_6:                               # %func_FmoGenerateType2MapUnitMap.81
	.cfi_def_cfa %rbp, 16
	movq	%rbx, %rdi
	movq	%r14, %rsi
	callq	FmoGenerateType2MapUnitMap.81
	popq	%rbx
	popq	%r14
	popq	%rbp
	.cfi_def_cfa %rsp, 8
	retq
.LBB16_7:                               # %func_FmoGenerateType2MapUnitMap.94
	.cfi_def_cfa %rbp, 16
	movq	%rbx, %rdi
	movq	%r14, %rsi
	callq	FmoGenerateType2MapUnitMap.94
	popq	%rbx
	popq	%r14
	popq	%rbp
	.cfi_def_cfa %rsp, 8
	retq
.LBB16_8:                               # %func_FmoGenerateType2MapUnitMap.97
	.cfi_def_cfa %rbp, 16
	movq	%rbx, %rdi
	movq	%r14, %rsi
	callq	FmoGenerateType2MapUnitMap.97
	popq	%rbx
	popq	%r14
	popq	%rbp
	.cfi_def_cfa %rsp, 8
	retq
.LBB16_9:                               # %ctrl0
	.cfi_def_cfa %rbp, 16
	cmpl	$1, %eax
	je	.LBB16_2
# %bb.10:                               # %ctrl1
	cmpl	$2, %eax
	je	.LBB16_3
# %bb.11:                               # %ctrl2
	cmpl	$3, %eax
	je	.LBB16_4
# %bb.12:                               # %ctrl3
	cmpl	$4, %eax
	je	.LBB16_5
# %bb.13:                               # %ctrl4
	cmpl	$5, %eax
	je	.LBB16_6
# %bb.14:                               # %ctrl5
	cmpl	$6, %eax
	je	.LBB16_7
	jmp	.LBB16_8
.Lfunc_end16:
	.size	FmoGenerateType2MapUnitMap, .Lfunc_end16-FmoGenerateType2MapUnitMap
	.cfi_endproc
                                        # -- End function
	.p2align	4, 0x90         # -- Begin function FmoGenerateType3MapUnitMap
	.type	FmoGenerateType3MapUnitMap,@function
FmoGenerateType3MapUnitMap:             # @FmoGenerateType3MapUnitMap
	.cfi_startproc
# %bb.0:                                # %rand_bb
	pushq	%rbp
	.cfi_def_cfa_offset 16
	.cfi_offset %rbp, -16
	movq	%rsp, %rbp
	.cfi_def_cfa_register %rbp
	pushq	%r14
	pushq	%rbx
	.cfi_offset %rbx, -32
	.cfi_offset %r14, -24
	movq	%rsi, %r14
	movq	%rdi, %rbx
	callq	get_rand
	cmpl	$0, %eax
	jne	.LBB17_9
# %bb.1:                                # %func_FmoGenerateType3MapUnitMap.5
	movq	%rbx, %rdi
	movq	%r14, %rsi
	callq	FmoGenerateType3MapUnitMap.5
	popq	%rbx
	popq	%r14
	popq	%rbp
	.cfi_def_cfa %rsp, 8
	retq
.LBB17_2:                               # %func_FmoGenerateType3MapUnitMap.16
	.cfi_def_cfa %rbp, 16
	movq	%rbx, %rdi
	movq	%r14, %rsi
	callq	FmoGenerateType3MapUnitMap.16
	popq	%rbx
	popq	%r14
	popq	%rbp
	.cfi_def_cfa %rsp, 8
	retq
.LBB17_3:                               # %func_FmoGenerateType3MapUnitMap.30
	.cfi_def_cfa %rbp, 16
	movq	%rbx, %rdi
	movq	%r14, %rsi
	callq	FmoGenerateType3MapUnitMap.30
	popq	%rbx
	popq	%r14
	popq	%rbp
	.cfi_def_cfa %rsp, 8
	retq
.LBB17_4:                               # %func_FmoGenerateType3MapUnitMap.36
	.cfi_def_cfa %rbp, 16
	movq	%rbx, %rdi
	movq	%r14, %rsi
	callq	FmoGenerateType3MapUnitMap.36
	popq	%rbx
	popq	%r14
	popq	%rbp
	.cfi_def_cfa %rsp, 8
	retq
.LBB17_5:                               # %func_FmoGenerateType3MapUnitMap.39
	.cfi_def_cfa %rbp, 16
	movq	%rbx, %rdi
	movq	%r14, %rsi
	callq	FmoGenerateType3MapUnitMap.39
	popq	%rbx
	popq	%r14
	popq	%rbp
	.cfi_def_cfa %rsp, 8
	retq
.LBB17_6:                               # %func_FmoGenerateType3MapUnitMap.87
	.cfi_def_cfa %rbp, 16
	movq	%rbx, %rdi
	movq	%r14, %rsi
	callq	FmoGenerateType3MapUnitMap.87
	popq	%rbx
	popq	%r14
	popq	%rbp
	.cfi_def_cfa %rsp, 8
	retq
.LBB17_7:                               # %func_FmoGenerateType3MapUnitMap.96
	.cfi_def_cfa %rbp, 16
	movq	%rbx, %rdi
	movq	%r14, %rsi
	callq	FmoGenerateType3MapUnitMap.96
	popq	%rbx
	popq	%r14
	popq	%rbp
	.cfi_def_cfa %rsp, 8
	retq
.LBB17_8:                               # %func_FmoGenerateType3MapUnitMap.99
	.cfi_def_cfa %rbp, 16
	movq	%rbx, %rdi
	movq	%r14, %rsi
	callq	FmoGenerateType3MapUnitMap.99
	popq	%rbx
	popq	%r14
	popq	%rbp
	.cfi_def_cfa %rsp, 8
	retq
.LBB17_9:                               # %ctrl0
	.cfi_def_cfa %rbp, 16
	cmpl	$1, %eax
	je	.LBB17_2
# %bb.10:                               # %ctrl1
	cmpl	$2, %eax
	je	.LBB17_3
# %bb.11:                               # %ctrl2
	cmpl	$3, %eax
	je	.LBB17_4
# %bb.12:                               # %ctrl3
	cmpl	$4, %eax
	je	.LBB17_5
# %bb.13:                               # %ctrl4
	cmpl	$5, %eax
	je	.LBB17_6
# %bb.14:                               # %ctrl5
	cmpl	$6, %eax
	je	.LBB17_7
	jmp	.LBB17_8
.Lfunc_end17:
	.size	FmoGenerateType3MapUnitMap, .Lfunc_end17-FmoGenerateType3MapUnitMap
	.cfi_endproc
                                        # -- End function
	.p2align	4, 0x90         # -- Begin function FmoGenerateType4MapUnitMap
	.type	FmoGenerateType4MapUnitMap,@function
FmoGenerateType4MapUnitMap:             # @FmoGenerateType4MapUnitMap
	.cfi_startproc
# %bb.0:                                # %rand_bb
	pushq	%rbp
	.cfi_def_cfa_offset 16
	.cfi_offset %rbp, -16
	movq	%rsp, %rbp
	.cfi_def_cfa_register %rbp
	pushq	%r14
	pushq	%rbx
	.cfi_offset %rbx, -32
	.cfi_offset %r14, -24
	movq	%rsi, %r14
	movq	%rdi, %rbx
	callq	get_rand
	cmpl	$0, %eax
	jne	.LBB18_9
# %bb.1:                                # %func_FmoGenerateType4MapUnitMap.21
	movq	%rbx, %rdi
	movq	%r14, %rsi
	callq	FmoGenerateType4MapUnitMap.21
	popq	%rbx
	popq	%r14
	popq	%rbp
	.cfi_def_cfa %rsp, 8
	retq
.LBB18_2:                               # %func_FmoGenerateType4MapUnitMap.32
	.cfi_def_cfa %rbp, 16
	movq	%rbx, %rdi
	movq	%r14, %rsi
	callq	FmoGenerateType4MapUnitMap.32
	popq	%rbx
	popq	%r14
	popq	%rbp
	.cfi_def_cfa %rsp, 8
	retq
.LBB18_3:                               # %func_FmoGenerateType4MapUnitMap.49
	.cfi_def_cfa %rbp, 16
	movq	%rbx, %rdi
	movq	%r14, %rsi
	callq	FmoGenerateType4MapUnitMap.49
	popq	%rbx
	popq	%r14
	popq	%rbp
	.cfi_def_cfa %rsp, 8
	retq
.LBB18_4:                               # %func_FmoGenerateType4MapUnitMap.67
	.cfi_def_cfa %rbp, 16
	movq	%rbx, %rdi
	movq	%r14, %rsi
	callq	FmoGenerateType4MapUnitMap.67
	popq	%rbx
	popq	%r14
	popq	%rbp
	.cfi_def_cfa %rsp, 8
	retq
.LBB18_5:                               # %func_FmoGenerateType4MapUnitMap.78
	.cfi_def_cfa %rbp, 16
	movq	%rbx, %rdi
	movq	%r14, %rsi
	callq	FmoGenerateType4MapUnitMap.78
	popq	%rbx
	popq	%r14
	popq	%rbp
	.cfi_def_cfa %rsp, 8
	retq
.LBB18_6:                               # %func_FmoGenerateType4MapUnitMap.86
	.cfi_def_cfa %rbp, 16
	movq	%rbx, %rdi
	movq	%r14, %rsi
	callq	FmoGenerateType4MapUnitMap.86
	popq	%rbx
	popq	%r14
	popq	%rbp
	.cfi_def_cfa %rsp, 8
	retq
.LBB18_7:                               # %func_FmoGenerateType4MapUnitMap.88
	.cfi_def_cfa %rbp, 16
	movq	%rbx, %rdi
	movq	%r14, %rsi
	callq	FmoGenerateType4MapUnitMap.88
	popq	%rbx
	popq	%r14
	popq	%rbp
	.cfi_def_cfa %rsp, 8
	retq
.LBB18_8:                               # %func_FmoGenerateType4MapUnitMap.93
	.cfi_def_cfa %rbp, 16
	movq	%rbx, %rdi
	movq	%r14, %rsi
	callq	FmoGenerateType4MapUnitMap.93
	popq	%rbx
	popq	%r14
	popq	%rbp
	.cfi_def_cfa %rsp, 8
	retq
.LBB18_9:                               # %ctrl0
	.cfi_def_cfa %rbp, 16
	cmpl	$1, %eax
	je	.LBB18_2
# %bb.10:                               # %ctrl1
	cmpl	$2, %eax
	je	.LBB18_3
# %bb.11:                               # %ctrl2
	cmpl	$3, %eax
	je	.LBB18_4
# %bb.12:                               # %ctrl3
	cmpl	$4, %eax
	je	.LBB18_5
# %bb.13:                               # %ctrl4
	cmpl	$5, %eax
	je	.LBB18_6
# %bb.14:                               # %ctrl5
	cmpl	$6, %eax
	je	.LBB18_7
	jmp	.LBB18_8
.Lfunc_end18:
	.size	FmoGenerateType4MapUnitMap, .Lfunc_end18-FmoGenerateType4MapUnitMap
	.cfi_endproc
                                        # -- End function
	.p2align	4, 0x90         # -- Begin function FmoGenerateType5MapUnitMap
	.type	FmoGenerateType5MapUnitMap,@function
FmoGenerateType5MapUnitMap:             # @FmoGenerateType5MapUnitMap
	.cfi_startproc
# %bb.0:                                # %rand_bb
	pushq	%rbp
	.cfi_def_cfa_offset 16
	.cfi_offset %rbp, -16
	movq	%rsp, %rbp
	.cfi_def_cfa_register %rbp
	pushq	%r14
	pushq	%rbx
	.cfi_offset %rbx, -32
	.cfi_offset %r14, -24
	movq	%rsi, %r14
	movq	%rdi, %rbx
	callq	get_rand
	cmpl	$0, %eax
	jne	.LBB19_9
# %bb.1:                                # %func_FmoGenerateType5MapUnitMap.3
	movq	%rbx, %rdi
	movq	%r14, %rsi
	callq	FmoGenerateType5MapUnitMap.3
	popq	%rbx
	popq	%r14
	popq	%rbp
	.cfi_def_cfa %rsp, 8
	retq
.LBB19_2:                               # %func_FmoGenerateType5MapUnitMap.29
	.cfi_def_cfa %rbp, 16
	movq	%rbx, %rdi
	movq	%r14, %rsi
	callq	FmoGenerateType5MapUnitMap.29
	popq	%rbx
	popq	%r14
	popq	%rbp
	.cfi_def_cfa %rsp, 8
	retq
.LBB19_3:                               # %func_FmoGenerateType5MapUnitMap.55
	.cfi_def_cfa %rbp, 16
	movq	%rbx, %rdi
	movq	%r14, %rsi
	callq	FmoGenerateType5MapUnitMap.55
	popq	%rbx
	popq	%r14
	popq	%rbp
	.cfi_def_cfa %rsp, 8
	retq
.LBB19_4:                               # %func_FmoGenerateType5MapUnitMap.64
	.cfi_def_cfa %rbp, 16
	movq	%rbx, %rdi
	movq	%r14, %rsi
	callq	FmoGenerateType5MapUnitMap.64
	popq	%rbx
	popq	%r14
	popq	%rbp
	.cfi_def_cfa %rsp, 8
	retq
.LBB19_5:                               # %func_FmoGenerateType5MapUnitMap.85
	.cfi_def_cfa %rbp, 16
	movq	%rbx, %rdi
	movq	%r14, %rsi
	callq	FmoGenerateType5MapUnitMap.85
	popq	%rbx
	popq	%r14
	popq	%rbp
	.cfi_def_cfa %rsp, 8
	retq
.LBB19_6:                               # %func_FmoGenerateType5MapUnitMap.89
	.cfi_def_cfa %rbp, 16
	movq	%rbx, %rdi
	movq	%r14, %rsi
	callq	FmoGenerateType5MapUnitMap.89
	popq	%rbx
	popq	%r14
	popq	%rbp
	.cfi_def_cfa %rsp, 8
	retq
.LBB19_7:                               # %func_FmoGenerateType5MapUnitMap.90
	.cfi_def_cfa %rbp, 16
	movq	%rbx, %rdi
	movq	%r14, %rsi
	callq	FmoGenerateType5MapUnitMap.90
	popq	%rbx
	popq	%r14
	popq	%rbp
	.cfi_def_cfa %rsp, 8
	retq
.LBB19_8:                               # %func_FmoGenerateType5MapUnitMap.95
	.cfi_def_cfa %rbp, 16
	movq	%rbx, %rdi
	movq	%r14, %rsi
	callq	FmoGenerateType5MapUnitMap.95
	popq	%rbx
	popq	%r14
	popq	%rbp
	.cfi_def_cfa %rsp, 8
	retq
.LBB19_9:                               # %ctrl0
	.cfi_def_cfa %rbp, 16
	cmpl	$1, %eax
	je	.LBB19_2
# %bb.10:                               # %ctrl1
	cmpl	$2, %eax
	je	.LBB19_3
# %bb.11:                               # %ctrl2
	cmpl	$3, %eax
	je	.LBB19_4
# %bb.12:                               # %ctrl3
	cmpl	$4, %eax
	je	.LBB19_5
# %bb.13:                               # %ctrl4
	cmpl	$5, %eax
	je	.LBB19_6
# %bb.14:                               # %ctrl5
	cmpl	$6, %eax
	je	.LBB19_7
	jmp	.LBB19_8
.Lfunc_end19:
	.size	FmoGenerateType5MapUnitMap, .Lfunc_end19-FmoGenerateType5MapUnitMap
	.cfi_endproc
                                        # -- End function
	.p2align	4, 0x90         # -- Begin function FmoGenerateType6MapUnitMap
	.type	FmoGenerateType6MapUnitMap,@function
FmoGenerateType6MapUnitMap:             # @FmoGenerateType6MapUnitMap
	.cfi_startproc
# %bb.0:                                # %rand_bb
	pushq	%rbp
	.cfi_def_cfa_offset 16
	.cfi_offset %rbp, -16
	movq	%rsp, %rbp
	.cfi_def_cfa_register %rbp
	pushq	%r14
	pushq	%rbx
	.cfi_offset %rbx, -32
	.cfi_offset %r14, -24
	movq	%rsi, %r14
	movq	%rdi, %rbx
	callq	get_rand
	cmpl	$0, %eax
	jne	.LBB20_7
# %bb.1:                                # %func_FmoGenerateType6MapUnitMap.13
	movq	%rbx, %rdi
	movq	%r14, %rsi
	callq	FmoGenerateType6MapUnitMap.13
	popq	%rbx
	popq	%r14
	popq	%rbp
	.cfi_def_cfa %rsp, 8
	retq
.LBB20_2:                               # %func_FmoGenerateType6MapUnitMap.37
	.cfi_def_cfa %rbp, 16
	movq	%rbx, %rdi
	movq	%r14, %rsi
	callq	FmoGenerateType6MapUnitMap.37
	popq	%rbx
	popq	%r14
	popq	%rbp
	.cfi_def_cfa %rsp, 8
	retq
.LBB20_3:                               # %func_FmoGenerateType6MapUnitMap.58
	.cfi_def_cfa %rbp, 16
	movq	%rbx, %rdi
	movq	%r14, %rsi
	callq	FmoGenerateType6MapUnitMap.58
	popq	%rbx
	popq	%r14
	popq	%rbp
	.cfi_def_cfa %rsp, 8
	retq
.LBB20_4:                               # %func_FmoGenerateType6MapUnitMap.61
	.cfi_def_cfa %rbp, 16
	movq	%rbx, %rdi
	movq	%r14, %rsi
	callq	FmoGenerateType6MapUnitMap.61
	popq	%rbx
	popq	%r14
	popq	%rbp
	.cfi_def_cfa %rsp, 8
	retq
.LBB20_5:                               # %func_FmoGenerateType6MapUnitMap.71
	.cfi_def_cfa %rbp, 16
	movq	%rbx, %rdi
	movq	%r14, %rsi
	callq	FmoGenerateType6MapUnitMap.71
	popq	%rbx
	popq	%r14
	popq	%rbp
	.cfi_def_cfa %rsp, 8
	retq
.LBB20_6:                               # %func_FmoGenerateType6MapUnitMap.79
	.cfi_def_cfa %rbp, 16
	movq	%rbx, %rdi
	movq	%r14, %rsi
	callq	FmoGenerateType6MapUnitMap.79
	popq	%rbx
	popq	%r14
	popq	%rbp
	.cfi_def_cfa %rsp, 8
	retq
.LBB20_7:                               # %ctrl0
	.cfi_def_cfa %rbp, 16
	cmpl	$1, %eax
	je	.LBB20_2
# %bb.8:                                # %ctrl1
	cmpl	$2, %eax
	je	.LBB20_3
# %bb.9:                                # %ctrl2
	cmpl	$3, %eax
	je	.LBB20_4
# %bb.10:                               # %ctrl3
	cmpl	$4, %eax
	je	.LBB20_5
	jmp	.LBB20_6
.Lfunc_end20:
	.size	FmoGenerateType6MapUnitMap, .Lfunc_end20-FmoGenerateType6MapUnitMap
	.cfi_endproc
                                        # -- End function
	.globl	FmoGetNextMBNr.1        # -- Begin function FmoGetNextMBNr.1
	.p2align	4, 0x90
	.type	FmoGetNextMBNr.1,@function
FmoGetNextMBNr.1:                       # @FmoGetNextMBNr.1
	.cfi_startproc
# %bb.0:                                # %entry
	pushq	%rbp
	.cfi_def_cfa_offset 16
	.cfi_offset %rbp, -16
	movq	%rsp, %rbp
	.cfi_def_cfa_register %rbp
	pushq	%rbx
	subq	$24, %rsp
	.cfi_offset %rbx, -24
	movl	$1363432851, -20(%rbp)  # imm = 0x51445593
	movl	%edi, -12(%rbp)
	movl	-12(%rbp), %edi
	callq	FmoMB2SliceGroup
	movl	%eax, -24(%rbp)
.LBB21_1:                               # %while.cond
                                        # =>This Inner Loop Header: Depth=1
	xorl	%eax, %eax
	movl	-12(%rbp), %ecx
	addl	$1, %ecx
	movl	%ecx, -12(%rbp)
	movq	img, %rdx
	cmpl	72484(%rdx), %ecx
	jge	.LBB21_3
# %bb.2:                                # %land.rhs
                                        #   in Loop: Header=BB21_1 Depth=1
	movq	MBAmap, %rax
	movslq	-12(%rbp), %rcx
	movzbl	(%rax,%rcx), %eax
	cmpl	-24(%rbp), %eax
	setne	%al
.LBB21_3:                               # %land.end
                                        #   in Loop: Header=BB21_1 Depth=1
	testb	$1, %al
	jne	.LBB21_4
	jmp	.LBB21_5
.LBB21_4:                               # %while.body
                                        #   in Loop: Header=BB21_1 Depth=1
	jmp	.LBB21_1
.LBB21_5:                               # %while.end
	movl	-12(%rbp), %eax
	movq	img, %rcx
	cmpl	72484(%rcx), %eax
	jl	.LBB21_7
# %bb.6:                                # %if.then
	movl	$-1, -16(%rbp)
	jmp	.LBB21_8
.LBB21_7:                               # %if.else
	movl	-12(%rbp), %eax
	movl	%eax, -16(%rbp)
.LBB21_8:                               # %return
	movl	-16(%rbp), %ebx
	cmpl	$1363432851, -20(%rbp)  # imm = 0x51445593
	jne	.LBB21_10
.LBB21_9:
	movl	%ebx, %eax
	addq	$24, %rsp
	popq	%rbx
	popq	%rbp
	.cfi_def_cfa %rsp, 8
	retq
.LBB21_10:                              # %func_exit
	.cfi_def_cfa %rbp, 16
	callq	detect_breach
	jmp	.LBB21_9
.Lfunc_end21:
	.size	FmoGetNextMBNr.1, .Lfunc_end21-FmoGetNextMBNr.1
	.cfi_endproc
                                        # -- End function
	.globl	FmoSliceGroupCompletelyCoded.2 # -- Begin function FmoSliceGroupCompletelyCoded.2
	.p2align	4, 0x90
	.type	FmoSliceGroupCompletelyCoded.2,@function
FmoSliceGroupCompletelyCoded.2:         # @FmoSliceGroupCompletelyCoded.2
	.cfi_startproc
# %bb.0:                                # %entry
	pushq	%rbp
	.cfi_def_cfa_offset 16
	.cfi_offset %rbp, -16
	movq	%rsp, %rbp
	.cfi_def_cfa_register %rbp
	pushq	%rbx
	subq	$24, %rsp
	.cfi_offset %rbx, -24
	movl	$966453258, -20(%rbp)   # imm = 0x399AE80A
	movl	%edi, -16(%rbp)
	movl	-16(%rbp), %edi
	callq	FmoGetFirstMacroblockInSlice
	cmpl	$0, %eax
	jge	.LBB22_2
# %bb.1:                                # %if.then
	movl	$1, -12(%rbp)
	jmp	.LBB22_3
.LBB22_2:                               # %if.else
	movl	$0, -12(%rbp)
.LBB22_3:                               # %return
	movl	-12(%rbp), %ebx
	cmpl	$966453258, -20(%rbp)   # imm = 0x399AE80A
	jne	.LBB22_5
.LBB22_4:
	movl	%ebx, %eax
	addq	$24, %rsp
	popq	%rbx
	popq	%rbp
	.cfi_def_cfa %rsp, 8
	retq
.LBB22_5:                               # %func_exit
	.cfi_def_cfa %rbp, 16
	callq	detect_breach
	jmp	.LBB22_4
.Lfunc_end22:
	.size	FmoSliceGroupCompletelyCoded.2, .Lfunc_end22-FmoSliceGroupCompletelyCoded.2
	.cfi_endproc
                                        # -- End function
	.p2align	4, 0x90         # -- Begin function FmoGenerateType5MapUnitMap.3
	.type	FmoGenerateType5MapUnitMap.3,@function
FmoGenerateType5MapUnitMap.3:           # @FmoGenerateType5MapUnitMap.3
	.cfi_startproc
# %bb.0:                                # %entry
	pushq	%rbp
	.cfi_def_cfa_offset 16
	.cfi_offset %rbp, -16
	movq	%rsp, %rbp
	.cfi_def_cfa_register %rbp
	subq	$48, %rsp
	movl	$519232824, -40(%rbp)   # imm = 0x1EF2DD38
	movq	%rdi, -16(%rbp)
	movq	%rsi, -24(%rbp)
	movq	-24(%rbp), %rax
	movl	168(%rax), %eax
	addl	$1, %eax
	movq	-16(%rbp), %rcx
	imull	72652(%rcx), %eax
	cmpl	PicSizeInMapUnits, %eax
	jae	.LBB23_2
# %bb.1:                                # %cond.true
	movq	-24(%rbp), %rax
	movl	168(%rax), %eax
	addl	$1, %eax
	movq	-16(%rbp), %rcx
	imull	72652(%rcx), %eax
	jmp	.LBB23_3
.LBB23_2:                               # %cond.false
	movl	PicSizeInMapUnits, %eax
.LBB23_3:                               # %cond.end
	movl	%eax, -28(%rbp)
	movq	-24(%rbp), %rax
	cmpl	$0, 164(%rax)
	je	.LBB23_5
# %bb.4:                                # %cond.true5
	movl	PicSizeInMapUnits, %eax
	subl	-28(%rbp), %eax
	jmp	.LBB23_6
.LBB23_5:                               # %cond.false6
	movl	-28(%rbp), %eax
.LBB23_6:                               # %cond.end7
	movl	%eax, -36(%rbp)
	movl	$0, -32(%rbp)
	movl	$0, -4(%rbp)
.LBB23_7:                               # %for.cond
                                        # =>This Loop Header: Depth=1
                                        #     Child Loop BB23_9 Depth 2
	movl	-4(%rbp), %eax
	movq	-16(%rbp), %rcx
	cmpl	72468(%rcx), %eax
	jae	.LBB23_17
# %bb.8:                                # %for.body
                                        #   in Loop: Header=BB23_7 Depth=1
	movl	$0, -8(%rbp)
.LBB23_9:                               # %for.cond10
                                        #   Parent Loop BB23_7 Depth=1
                                        # =>  This Inner Loop Header: Depth=2
	movl	-8(%rbp), %eax
	movq	-16(%rbp), %rcx
	cmpl	72472(%rcx), %eax
	jae	.LBB23_15
# %bb.10:                               # %for.body12
                                        #   in Loop: Header=BB23_9 Depth=2
	movl	-32(%rbp), %eax
	movl	%eax, %ecx
	addl	$1, %ecx
	movl	%ecx, -32(%rbp)
	cmpl	-36(%rbp), %eax
	jae	.LBB23_12
# %bb.11:                               # %if.then
                                        #   in Loop: Header=BB23_9 Depth=2
	movq	-24(%rbp), %rax
	movl	$1, %ecx
	subl	164(%rax), %ecx
	movq	MapUnitToSliceGroupMap, %rax
	movl	-8(%rbp), %edx
	movq	-16(%rbp), %rsi
	imull	72468(%rsi), %edx
	addl	-4(%rbp), %edx
	movl	%edx, %edx
	movb	%cl, (%rax,%rdx)
	jmp	.LBB23_13
.LBB23_12:                              # %if.else
                                        #   in Loop: Header=BB23_9 Depth=2
	movq	-24(%rbp), %rax
	movl	164(%rax), %eax
	movq	MapUnitToSliceGroupMap, %rcx
	movl	-8(%rbp), %edx
	movq	-16(%rbp), %rsi
	imull	72468(%rsi), %edx
	addl	-4(%rbp), %edx
	movl	%edx, %edx
	movb	%al, (%rcx,%rdx)
.LBB23_13:                              # %if.end
                                        #   in Loop: Header=BB23_9 Depth=2
	jmp	.LBB23_14
.LBB23_14:                              # %for.inc
                                        #   in Loop: Header=BB23_9 Depth=2
	movl	-8(%rbp), %eax
	addl	$1, %eax
	movl	%eax, -8(%rbp)
	jmp	.LBB23_9
.LBB23_15:                              # %for.end
                                        #   in Loop: Header=BB23_7 Depth=1
	jmp	.LBB23_16
.LBB23_16:                              # %for.inc27
                                        #   in Loop: Header=BB23_7 Depth=1
	movl	-4(%rbp), %eax
	addl	$1, %eax
	movl	%eax, -4(%rbp)
	jmp	.LBB23_7
.LBB23_17:                              # %for.end29
	cmpl	$519232824, -40(%rbp)   # imm = 0x1EF2DD38
	jne	.LBB23_19
.LBB23_18:
	addq	$48, %rsp
	popq	%rbp
	.cfi_def_cfa %rsp, 8
	retq
.LBB23_19:                              # %func_exit
	.cfi_def_cfa %rbp, 16
	callq	detect_breach
	jmp	.LBB23_18
.Lfunc_end23:
	.size	FmoGenerateType5MapUnitMap.3, .Lfunc_end23-FmoGenerateType5MapUnitMap.3
	.cfi_endproc
                                        # -- End function
	.globl	FmoGetLastCodedMBOfSliceGroup.4 # -- Begin function FmoGetLastCodedMBOfSliceGroup.4
	.p2align	4, 0x90
	.type	FmoGetLastCodedMBOfSliceGroup.4,@function
FmoGetLastCodedMBOfSliceGroup.4:        # @FmoGetLastCodedMBOfSliceGroup.4
	.cfi_startproc
# %bb.0:                                # %entry
	pushq	%rbp
	.cfi_def_cfa_offset 16
	.cfi_offset %rbp, -16
	movq	%rsp, %rbp
	.cfi_def_cfa_register %rbp
	pushq	%rbx
	subq	$24, %rsp
	.cfi_offset %rbx, -24
	movl	$1076969804, -20(%rbp)  # imm = 0x4031414C
	movl	%edi, -24(%rbp)
	movl	$-1, -16(%rbp)
	movl	$0, -12(%rbp)
.LBB24_1:                               # %for.cond
                                        # =>This Inner Loop Header: Depth=1
	movl	-12(%rbp), %eax
	movq	img, %rcx
	cmpl	72484(%rcx), %eax
	jge	.LBB24_6
# %bb.2:                                # %for.body
                                        #   in Loop: Header=BB24_1 Depth=1
	movl	-12(%rbp), %edi
	callq	FmoMB2SliceGroup
	cmpl	-24(%rbp), %eax
	jne	.LBB24_4
# %bb.3:                                # %if.then
                                        #   in Loop: Header=BB24_1 Depth=1
	movl	-12(%rbp), %eax
	movl	%eax, -16(%rbp)
.LBB24_4:                               # %if.end
                                        #   in Loop: Header=BB24_1 Depth=1
	jmp	.LBB24_5
.LBB24_5:                               # %for.inc
                                        #   in Loop: Header=BB24_1 Depth=1
	movl	-12(%rbp), %eax
	addl	$1, %eax
	movl	%eax, -12(%rbp)
	jmp	.LBB24_1
.LBB24_6:                               # %for.end
	movl	-16(%rbp), %ebx
	cmpl	$1076969804, -20(%rbp)  # imm = 0x4031414C
	jne	.LBB24_8
.LBB24_7:
	movl	%ebx, %eax
	addq	$24, %rsp
	popq	%rbx
	popq	%rbp
	.cfi_def_cfa %rsp, 8
	retq
.LBB24_8:                               # %func_exit
	.cfi_def_cfa %rbp, 16
	callq	detect_breach
	jmp	.LBB24_7
.Lfunc_end24:
	.size	FmoGetLastCodedMBOfSliceGroup.4, .Lfunc_end24-FmoGetLastCodedMBOfSliceGroup.4
	.cfi_endproc
                                        # -- End function
	.p2align	4, 0x90         # -- Begin function FmoGenerateType3MapUnitMap.5
	.type	FmoGenerateType3MapUnitMap.5,@function
FmoGenerateType3MapUnitMap.5:           # @FmoGenerateType3MapUnitMap.5
	.cfi_startproc
# %bb.0:                                # %entry
	pushq	%rbp
	.cfi_def_cfa_offset 16
	.cfi_offset %rbp, -16
	movq	%rsp, %rbp
	.cfi_def_cfa_register %rbp
	subq	$80, %rsp
	movl	$1454350444, -68(%rbp)  # imm = 0x56AFA06C
	movq	%rdi, -48(%rbp)
	movq	%rsi, -40(%rbp)
	movq	-40(%rbp), %rax
	movl	168(%rax), %eax
	addl	$1, %eax
	movq	-48(%rbp), %rcx
	imull	72652(%rcx), %eax
	cmpl	PicSizeInMapUnits, %eax
	jae	.LBB25_2
# %bb.1:                                # %cond.true
	movq	-40(%rbp), %rax
	movl	168(%rax), %eax
	addl	$1, %eax
	movq	-48(%rbp), %rcx
	imull	72652(%rcx), %eax
	jmp	.LBB25_3
.LBB25_2:                               # %cond.false
	movl	PicSizeInMapUnits, %eax
.LBB25_3:                               # %cond.end
	movl	%eax, -64(%rbp)
	movl	$0, -56(%rbp)
.LBB25_4:                               # %for.cond
                                        # =>This Inner Loop Header: Depth=1
	movl	-56(%rbp), %eax
	cmpl	PicSizeInMapUnits, %eax
	jae	.LBB25_7
# %bb.5:                                # %for.body
                                        #   in Loop: Header=BB25_4 Depth=1
	movq	MapUnitToSliceGroupMap, %rax
	movl	-56(%rbp), %ecx
	movb	$2, (%rax,%rcx)
# %bb.6:                                # %for.inc
                                        #   in Loop: Header=BB25_4 Depth=1
	movl	-56(%rbp), %eax
	addl	$1, %eax
	movl	%eax, -56(%rbp)
	jmp	.LBB25_4
.LBB25_7:                               # %for.end
	movq	-48(%rbp), %rax
	movl	72468(%rax), %eax
	movq	-40(%rbp), %rcx
	subl	164(%rcx), %eax
	shrl	$1, %eax
	movl	%eax, -4(%rbp)
	movq	-48(%rbp), %rax
	movl	72472(%rax), %eax
	movq	-40(%rbp), %rcx
	subl	164(%rcx), %eax
	shrl	$1, %eax
	movl	%eax, -8(%rbp)
	movl	-4(%rbp), %eax
	movl	%eax, -28(%rbp)
	movl	-8(%rbp), %eax
	movl	%eax, -24(%rbp)
	movl	-4(%rbp), %eax
	movl	%eax, -32(%rbp)
	movl	-8(%rbp), %eax
	movl	%eax, -20(%rbp)
	movq	-40(%rbp), %rax
	movl	164(%rax), %eax
	subl	$1, %eax
	movl	%eax, -12(%rbp)
	movq	-40(%rbp), %rax
	movl	164(%rax), %eax
	movl	%eax, -16(%rbp)
	movl	$0, -52(%rbp)
.LBB25_8:                               # %for.cond12
                                        # =>This Inner Loop Header: Depth=1
	movl	-52(%rbp), %eax
	cmpl	PicSizeInMapUnits, %eax
	jae	.LBB25_41
# %bb.9:                                # %for.body14
                                        #   in Loop: Header=BB25_8 Depth=1
	movq	MapUnitToSliceGroupMap, %rax
	movl	-8(%rbp), %ecx
	movq	-48(%rbp), %rdx
	imull	72468(%rdx), %ecx
	addl	-4(%rbp), %ecx
	movl	%ecx, %ecx
	movzbl	(%rax,%rcx), %eax
	cmpl	$2, %eax
	sete	%al
	andb	$1, %al
	movzbl	%al, %eax
	movl	%eax, -60(%rbp)
	cmpl	$0, -60(%rbp)
	je	.LBB25_11
# %bb.10:                               # %if.then
                                        #   in Loop: Header=BB25_8 Depth=1
	movl	-52(%rbp), %eax
	cmpl	-64(%rbp), %eax
	setae	%al
	andb	$1, %al
	movzbl	%al, %eax
	movq	MapUnitToSliceGroupMap, %rcx
	movl	-8(%rbp), %edx
	movq	-48(%rbp), %rsi
	imull	72468(%rsi), %edx
	addl	-4(%rbp), %edx
	movl	%edx, %edx
	movb	%al, (%rcx,%rdx)
.LBB25_11:                              # %if.end
                                        #   in Loop: Header=BB25_8 Depth=1
	cmpl	$-1, -12(%rbp)
	jne	.LBB25_17
# %bb.12:                               # %land.lhs.true
                                        #   in Loop: Header=BB25_8 Depth=1
	movl	-4(%rbp), %eax
	cmpl	-28(%rbp), %eax
	jne	.LBB25_17
# %bb.13:                               # %if.then34
                                        #   in Loop: Header=BB25_8 Depth=1
	movl	-28(%rbp), %eax
	subl	$1, %eax
	cmpl	$0, %eax
	jle	.LBB25_15
# %bb.14:                               # %cond.true38
                                        #   in Loop: Header=BB25_8 Depth=1
	movl	-28(%rbp), %eax
	subl	$1, %eax
	jmp	.LBB25_16
.LBB25_15:                              # %cond.false40
                                        #   in Loop: Header=BB25_8 Depth=1
	xorl	%eax, %eax
	jmp	.LBB25_16
.LBB25_16:                              # %cond.end41
                                        #   in Loop: Header=BB25_8 Depth=1
	movl	%eax, -28(%rbp)
	movl	-28(%rbp), %eax
	movl	%eax, -4(%rbp)
	movl	$0, -12(%rbp)
	movq	-40(%rbp), %rax
	movl	164(%rax), %eax
	shll	$1, %eax
	subl	$1, %eax
	movl	%eax, -16(%rbp)
	jmp	.LBB25_39
.LBB25_17:                              # %if.else
                                        #   in Loop: Header=BB25_8 Depth=1
	cmpl	$1, -12(%rbp)
	jne	.LBB25_23
# %bb.18:                               # %land.lhs.true48
                                        #   in Loop: Header=BB25_8 Depth=1
	movl	-4(%rbp), %eax
	cmpl	-32(%rbp), %eax
	jne	.LBB25_23
# %bb.19:                               # %if.then51
                                        #   in Loop: Header=BB25_8 Depth=1
	movl	-32(%rbp), %eax
	addl	$1, %eax
	movq	-48(%rbp), %rcx
	movl	72468(%rcx), %ecx
	subl	$1, %ecx
	cmpl	%ecx, %eax
	jge	.LBB25_21
# %bb.20:                               # %cond.true57
                                        #   in Loop: Header=BB25_8 Depth=1
	movl	-32(%rbp), %eax
	addl	$1, %eax
	jmp	.LBB25_22
.LBB25_21:                              # %cond.false59
                                        #   in Loop: Header=BB25_8 Depth=1
	movq	-48(%rbp), %rax
	movl	72468(%rax), %eax
	subl	$1, %eax
.LBB25_22:                              # %cond.end62
                                        #   in Loop: Header=BB25_8 Depth=1
	movl	%eax, -32(%rbp)
	movl	-32(%rbp), %eax
	movl	%eax, -4(%rbp)
	movl	$0, -12(%rbp)
	movq	-40(%rbp), %rax
	movl	164(%rax), %eax
	shll	$1, %eax
	movl	$1, %ecx
	subl	%eax, %ecx
	movl	%ecx, -16(%rbp)
	jmp	.LBB25_38
.LBB25_23:                              # %if.else67
                                        #   in Loop: Header=BB25_8 Depth=1
	cmpl	$-1, -16(%rbp)
	jne	.LBB25_29
# %bb.24:                               # %land.lhs.true70
                                        #   in Loop: Header=BB25_8 Depth=1
	movl	-8(%rbp), %eax
	cmpl	-24(%rbp), %eax
	jne	.LBB25_29
# %bb.25:                               # %if.then73
                                        #   in Loop: Header=BB25_8 Depth=1
	movl	-24(%rbp), %eax
	subl	$1, %eax
	cmpl	$0, %eax
	jle	.LBB25_27
# %bb.26:                               # %cond.true77
                                        #   in Loop: Header=BB25_8 Depth=1
	movl	-24(%rbp), %eax
	subl	$1, %eax
	jmp	.LBB25_28
.LBB25_27:                              # %cond.false79
                                        #   in Loop: Header=BB25_8 Depth=1
	xorl	%eax, %eax
	jmp	.LBB25_28
.LBB25_28:                              # %cond.end80
                                        #   in Loop: Header=BB25_8 Depth=1
	movl	%eax, -24(%rbp)
	movl	-24(%rbp), %eax
	movl	%eax, -8(%rbp)
	movq	-40(%rbp), %rax
	movl	164(%rax), %eax
	shll	$1, %eax
	movl	$1, %ecx
	subl	%eax, %ecx
	movl	%ecx, -12(%rbp)
	movl	$0, -16(%rbp)
	jmp	.LBB25_37
.LBB25_29:                              # %if.else85
                                        #   in Loop: Header=BB25_8 Depth=1
	cmpl	$1, -16(%rbp)
	jne	.LBB25_35
# %bb.30:                               # %land.lhs.true88
                                        #   in Loop: Header=BB25_8 Depth=1
	movl	-8(%rbp), %eax
	cmpl	-20(%rbp), %eax
	jne	.LBB25_35
# %bb.31:                               # %if.then91
                                        #   in Loop: Header=BB25_8 Depth=1
	movl	-20(%rbp), %eax
	addl	$1, %eax
	movq	-48(%rbp), %rcx
	movl	72472(%rcx), %ecx
	subl	$1, %ecx
	cmpl	%ecx, %eax
	jge	.LBB25_33
# %bb.32:                               # %cond.true97
                                        #   in Loop: Header=BB25_8 Depth=1
	movl	-20(%rbp), %eax
	addl	$1, %eax
	jmp	.LBB25_34
.LBB25_33:                              # %cond.false99
                                        #   in Loop: Header=BB25_8 Depth=1
	movq	-48(%rbp), %rax
	movl	72472(%rax), %eax
	subl	$1, %eax
.LBB25_34:                              # %cond.end102
                                        #   in Loop: Header=BB25_8 Depth=1
	movl	%eax, -20(%rbp)
	movl	-20(%rbp), %eax
	movl	%eax, -8(%rbp)
	movq	-40(%rbp), %rax
	movl	164(%rax), %eax
	shll	$1, %eax
	subl	$1, %eax
	movl	%eax, -12(%rbp)
	movl	$0, -16(%rbp)
	jmp	.LBB25_36
.LBB25_35:                              # %if.else107
                                        #   in Loop: Header=BB25_8 Depth=1
	movl	-4(%rbp), %eax
	addl	-12(%rbp), %eax
	movl	%eax, -4(%rbp)
	movl	-8(%rbp), %eax
	addl	-16(%rbp), %eax
	movl	%eax, -8(%rbp)
.LBB25_36:                              # %if.end110
                                        #   in Loop: Header=BB25_8 Depth=1
	jmp	.LBB25_37
.LBB25_37:                              # %if.end111
                                        #   in Loop: Header=BB25_8 Depth=1
	jmp	.LBB25_38
.LBB25_38:                              # %if.end112
                                        #   in Loop: Header=BB25_8 Depth=1
	jmp	.LBB25_39
.LBB25_39:                              # %if.end113
                                        #   in Loop: Header=BB25_8 Depth=1
	jmp	.LBB25_40
.LBB25_40:                              # %for.inc114
                                        #   in Loop: Header=BB25_8 Depth=1
	movl	-60(%rbp), %eax
	addl	-52(%rbp), %eax
	movl	%eax, -52(%rbp)
	jmp	.LBB25_8
.LBB25_41:                              # %for.end116
	cmpl	$1454350444, -68(%rbp)  # imm = 0x56AFA06C
	jne	.LBB25_43
.LBB25_42:
	addq	$80, %rsp
	popq	%rbp
	.cfi_def_cfa %rsp, 8
	retq
.LBB25_43:                              # %func_exit
	.cfi_def_cfa %rbp, 16
	callq	detect_breach
	jmp	.LBB25_42
.Lfunc_end25:
	.size	FmoGenerateType3MapUnitMap.5, .Lfunc_end25-FmoGenerateType3MapUnitMap.5
	.cfi_endproc
                                        # -- End function
	.globl	FmoSliceGroupCompletelyCoded.6 # -- Begin function FmoSliceGroupCompletelyCoded.6
	.p2align	4, 0x90
	.type	FmoSliceGroupCompletelyCoded.6,@function
FmoSliceGroupCompletelyCoded.6:         # @FmoSliceGroupCompletelyCoded.6
	.cfi_startproc
# %bb.0:                                # %entry
	pushq	%rbp
	.cfi_def_cfa_offset 16
	.cfi_offset %rbp, -16
	movq	%rsp, %rbp
	.cfi_def_cfa_register %rbp
	pushq	%rbx
	subq	$24, %rsp
	.cfi_offset %rbx, -24
	movl	$1372644795, -20(%rbp)  # imm = 0x51D0E5BB
	movl	%edi, -16(%rbp)
	movl	-16(%rbp), %edi
	callq	FmoGetFirstMacroblockInSlice
	cmpl	$0, %eax
	jge	.LBB26_2
# %bb.1:                                # %if.then
	movl	$1, -12(%rbp)
	jmp	.LBB26_3
.LBB26_2:                               # %if.else
	movl	$0, -12(%rbp)
.LBB26_3:                               # %return
	movl	-12(%rbp), %ebx
	cmpl	$1372644795, -20(%rbp)  # imm = 0x51D0E5BB
	jne	.LBB26_5
.LBB26_4:
	movl	%ebx, %eax
	addq	$24, %rsp
	popq	%rbx
	popq	%rbp
	.cfi_def_cfa %rsp, 8
	retq
.LBB26_5:                               # %func_exit
	.cfi_def_cfa %rbp, 16
	callq	detect_breach
	jmp	.LBB26_4
.Lfunc_end26:
	.size	FmoSliceGroupCompletelyCoded.6, .Lfunc_end26-FmoSliceGroupCompletelyCoded.6
	.cfi_endproc
                                        # -- End function
	.p2align	4, 0x90         # -- Begin function FmoGenerateType0MapUnitMap.7
	.type	FmoGenerateType0MapUnitMap.7,@function
FmoGenerateType0MapUnitMap.7:           # @FmoGenerateType0MapUnitMap.7
	.cfi_startproc
# %bb.0:                                # %entry
	pushq	%rbp
	.cfi_def_cfa_offset 16
	.cfi_offset %rbp, -16
	movq	%rsp, %rbp
	.cfi_def_cfa_register %rbp
	subq	$48, %rsp
	movl	$1131991291, -28(%rbp)  # imm = 0x4378D0FB
	movq	%rdi, -40(%rbp)
	movq	%rsi, -24(%rbp)
	movl	$0, -4(%rbp)
.LBB27_1:                               # %do.body
                                        # =>This Loop Header: Depth=1
                                        #     Child Loop BB27_2 Depth 2
                                        #       Child Loop BB27_6 Depth 3
	movl	$0, -8(%rbp)
.LBB27_2:                               # %for.cond
                                        #   Parent Loop BB27_1 Depth=1
                                        # =>  This Loop Header: Depth=2
                                        #       Child Loop BB27_6 Depth 3
	xorl	%eax, %eax
	movl	-8(%rbp), %ecx
	movq	-24(%rbp), %rdx
	cmpl	60(%rdx), %ecx
	ja	.LBB27_4
# %bb.3:                                # %land.rhs
                                        #   in Loop: Header=BB27_2 Depth=2
	movl	-4(%rbp), %eax
	cmpl	PicSizeInMapUnits, %eax
	setb	%al
.LBB27_4:                               # %land.end
                                        #   in Loop: Header=BB27_2 Depth=2
	testb	$1, %al
	jne	.LBB27_5
	jmp	.LBB27_13
.LBB27_5:                               # %for.body
                                        #   in Loop: Header=BB27_2 Depth=2
	movl	$0, -12(%rbp)
.LBB27_6:                               # %for.cond2
                                        #   Parent Loop BB27_1 Depth=1
                                        #     Parent Loop BB27_2 Depth=2
                                        # =>    This Inner Loop Header: Depth=3
	xorl	%eax, %eax
	movl	-12(%rbp), %ecx
	movq	-24(%rbp), %rdx
	movl	-8(%rbp), %esi
	cmpl	68(%rdx,%rsi,4), %ecx
	ja	.LBB27_8
# %bb.7:                                # %land.rhs4
                                        #   in Loop: Header=BB27_6 Depth=3
	movl	-4(%rbp), %eax
	addl	-12(%rbp), %eax
	cmpl	PicSizeInMapUnits, %eax
	setb	%al
.LBB27_8:                               # %land.end6
                                        #   in Loop: Header=BB27_6 Depth=3
	testb	$1, %al
	jne	.LBB27_9
	jmp	.LBB27_11
.LBB27_9:                               # %for.body7
                                        #   in Loop: Header=BB27_6 Depth=3
	movl	-8(%rbp), %eax
	movq	MapUnitToSliceGroupMap, %rcx
	movl	-4(%rbp), %edx
	addl	-12(%rbp), %edx
	movl	%edx, %edx
	movb	%al, (%rcx,%rdx)
# %bb.10:                               # %for.inc
                                        #   in Loop: Header=BB27_6 Depth=3
	movl	-12(%rbp), %eax
	addl	$1, %eax
	movl	%eax, -12(%rbp)
	jmp	.LBB27_6
.LBB27_11:                              # %for.end
                                        #   in Loop: Header=BB27_2 Depth=2
	jmp	.LBB27_12
.LBB27_12:                              # %for.inc11
                                        #   in Loop: Header=BB27_2 Depth=2
	movq	-24(%rbp), %rax
	movl	-8(%rbp), %ecx
	movl	%ecx, %edx
	addl	$1, %edx
	movl	%edx, -8(%rbp)
	movl	%ecx, %ecx
	movl	68(%rax,%rcx,4), %eax
	addl	$1, %eax
	addl	-4(%rbp), %eax
	movl	%eax, -4(%rbp)
	jmp	.LBB27_2
.LBB27_13:                              # %for.end18
                                        #   in Loop: Header=BB27_1 Depth=1
	jmp	.LBB27_14
.LBB27_14:                              # %do.cond
                                        #   in Loop: Header=BB27_1 Depth=1
	movl	-4(%rbp), %eax
	cmpl	PicSizeInMapUnits, %eax
	jb	.LBB27_1
# %bb.15:                               # %do.end
	cmpl	$1131991291, -28(%rbp)  # imm = 0x4378D0FB
	jne	.LBB27_17
.LBB27_16:
	addq	$48, %rsp
	popq	%rbp
	.cfi_def_cfa %rsp, 8
	retq
.LBB27_17:                              # %func_exit
	.cfi_def_cfa %rbp, 16
	callq	detect_breach
	jmp	.LBB27_16
.Lfunc_end27:
	.size	FmoGenerateType0MapUnitMap.7, .Lfunc_end27-FmoGenerateType0MapUnitMap.7
	.cfi_endproc
                                        # -- End function
	.p2align	4, 0x90         # -- Begin function FmoGenerateType0MapUnitMap.8
	.type	FmoGenerateType0MapUnitMap.8,@function
FmoGenerateType0MapUnitMap.8:           # @FmoGenerateType0MapUnitMap.8
	.cfi_startproc
# %bb.0:                                # %entry
	pushq	%rbp
	.cfi_def_cfa_offset 16
	.cfi_offset %rbp, -16
	movq	%rsp, %rbp
	.cfi_def_cfa_register %rbp
	subq	$48, %rsp
	movl	$217132564, -28(%rbp)   # imm = 0xCF12E14
	movq	%rdi, -40(%rbp)
	movq	%rsi, -24(%rbp)
	movl	$0, -4(%rbp)
.LBB28_1:                               # %do.body
                                        # =>This Loop Header: Depth=1
                                        #     Child Loop BB28_2 Depth 2
                                        #       Child Loop BB28_6 Depth 3
	movl	$0, -12(%rbp)
.LBB28_2:                               # %for.cond
                                        #   Parent Loop BB28_1 Depth=1
                                        # =>  This Loop Header: Depth=2
                                        #       Child Loop BB28_6 Depth 3
	xorl	%eax, %eax
	movl	-12(%rbp), %ecx
	movq	-24(%rbp), %rdx
	cmpl	60(%rdx), %ecx
	ja	.LBB28_4
# %bb.3:                                # %land.rhs
                                        #   in Loop: Header=BB28_2 Depth=2
	movl	-4(%rbp), %eax
	cmpl	PicSizeInMapUnits, %eax
	setb	%al
.LBB28_4:                               # %land.end
                                        #   in Loop: Header=BB28_2 Depth=2
	testb	$1, %al
	jne	.LBB28_5
	jmp	.LBB28_13
.LBB28_5:                               # %for.body
                                        #   in Loop: Header=BB28_2 Depth=2
	movl	$0, -8(%rbp)
.LBB28_6:                               # %for.cond2
                                        #   Parent Loop BB28_1 Depth=1
                                        #     Parent Loop BB28_2 Depth=2
                                        # =>    This Inner Loop Header: Depth=3
	xorl	%eax, %eax
	movl	-8(%rbp), %ecx
	movq	-24(%rbp), %rdx
	movl	-12(%rbp), %esi
	cmpl	68(%rdx,%rsi,4), %ecx
	ja	.LBB28_8
# %bb.7:                                # %land.rhs4
                                        #   in Loop: Header=BB28_6 Depth=3
	movl	-4(%rbp), %eax
	addl	-8(%rbp), %eax
	cmpl	PicSizeInMapUnits, %eax
	setb	%al
.LBB28_8:                               # %land.end6
                                        #   in Loop: Header=BB28_6 Depth=3
	testb	$1, %al
	jne	.LBB28_9
	jmp	.LBB28_11
.LBB28_9:                               # %for.body7
                                        #   in Loop: Header=BB28_6 Depth=3
	movl	-12(%rbp), %eax
	movq	MapUnitToSliceGroupMap, %rcx
	movl	-4(%rbp), %edx
	addl	-8(%rbp), %edx
	movl	%edx, %edx
	movb	%al, (%rcx,%rdx)
# %bb.10:                               # %for.inc
                                        #   in Loop: Header=BB28_6 Depth=3
	movl	-8(%rbp), %eax
	addl	$1, %eax
	movl	%eax, -8(%rbp)
	jmp	.LBB28_6
.LBB28_11:                              # %for.end
                                        #   in Loop: Header=BB28_2 Depth=2
	jmp	.LBB28_12
.LBB28_12:                              # %for.inc11
                                        #   in Loop: Header=BB28_2 Depth=2
	movq	-24(%rbp), %rax
	movl	-12(%rbp), %ecx
	movl	%ecx, %edx
	addl	$1, %edx
	movl	%edx, -12(%rbp)
	movl	%ecx, %ecx
	movl	68(%rax,%rcx,4), %eax
	addl	$1, %eax
	addl	-4(%rbp), %eax
	movl	%eax, -4(%rbp)
	jmp	.LBB28_2
.LBB28_13:                              # %for.end18
                                        #   in Loop: Header=BB28_1 Depth=1
	jmp	.LBB28_14
.LBB28_14:                              # %do.cond
                                        #   in Loop: Header=BB28_1 Depth=1
	movl	-4(%rbp), %eax
	cmpl	PicSizeInMapUnits, %eax
	jb	.LBB28_1
# %bb.15:                               # %do.end
	cmpl	$217132564, -28(%rbp)   # imm = 0xCF12E14
	jne	.LBB28_17
.LBB28_16:
	addq	$48, %rsp
	popq	%rbp
	.cfi_def_cfa %rsp, 8
	retq
.LBB28_17:                              # %func_exit
	.cfi_def_cfa %rbp, 16
	callq	detect_breach
	jmp	.LBB28_16
.Lfunc_end28:
	.size	FmoGenerateType0MapUnitMap.8, .Lfunc_end28-FmoGenerateType0MapUnitMap.8
	.cfi_endproc
                                        # -- End function
	.p2align	4, 0x90         # -- Begin function FmoGenerateMBAmap.9
	.type	FmoGenerateMBAmap.9,@function
FmoGenerateMBAmap.9:                    # @FmoGenerateMBAmap.9
	.cfi_startproc
# %bb.0:                                # %entry
	pushq	%rbp
	.cfi_def_cfa_offset 16
	.cfi_offset %rbp, -16
	movq	%rsp, %rbp
	.cfi_def_cfa_register %rbp
	subq	$32, %rsp
	movl	$563784017, -20(%rbp)   # imm = 0x219AA951
	movq	%rdi, -16(%rbp)
	movq	%rsi, -32(%rbp)
	cmpq	$0, MBAmap
	je	.LBB29_2
# %bb.1:                                # %if.then
	movq	MBAmap, %rdi
	callq	free
.LBB29_2:                               # %if.end
	movq	-16(%rbp), %rax
	movl	72484(%rax), %edi
	shlq	$0, %rdi
	callq	malloc
	movq	%rax, MBAmap
	cmpq	$0, %rax
	jne	.LBB29_4
# %bb.3:                                # %if.then2
	movq	-16(%rbp), %rax
	movl	72484(%rax), %esi
	shlq	$0, %rsi
	movabsq	$.L.str.3, %rdi
	movb	$0, %al
	callq	printf
	movl	$4294967295, %edi       # imm = 0xFFFFFFFF
	callq	exit
.LBB29_4:                               # %if.end7
	movq	-32(%rbp), %rax
	cmpl	$0, 1148(%rax)
	jne	.LBB29_6
# %bb.5:                                # %lor.lhs.false
	movq	-16(%rbp), %rax
	cmpl	$0, 72444(%rax)
	je	.LBB29_11
.LBB29_6:                               # %if.then10
	movl	$0, -4(%rbp)
.LBB29_7:                               # %for.cond
                                        # =>This Inner Loop Header: Depth=1
	movl	-4(%rbp), %eax
	movq	-16(%rbp), %rcx
	cmpl	72484(%rcx), %eax
	jae	.LBB29_10
# %bb.8:                                # %for.body
                                        #   in Loop: Header=BB29_7 Depth=1
	movq	MapUnitToSliceGroupMap, %rax
	movl	-4(%rbp), %ecx
	movb	(%rax,%rcx), %al
	movq	MBAmap, %rcx
	movl	-4(%rbp), %edx
	movb	%al, (%rcx,%rdx)
# %bb.9:                                # %for.inc
                                        #   in Loop: Header=BB29_7 Depth=1
	movl	-4(%rbp), %eax
	addl	$1, %eax
	movl	%eax, -4(%rbp)
	jmp	.LBB29_7
.LBB29_10:                              # %for.end
	jmp	.LBB29_24
.LBB29_11:                              # %if.else
	movq	-32(%rbp), %rax
	cmpl	$0, 1152(%rax)
	je	.LBB29_18
# %bb.12:                               # %land.lhs.true
	movq	-16(%rbp), %rax
	cmpl	$0, 72444(%rax)
	jne	.LBB29_18
# %bb.13:                               # %if.then19
	movl	$0, -4(%rbp)
.LBB29_14:                              # %for.cond20
                                        # =>This Inner Loop Header: Depth=1
	movl	-4(%rbp), %eax
	movq	-16(%rbp), %rcx
	cmpl	72484(%rcx), %eax
	jae	.LBB29_17
# %bb.15:                               # %for.body24
                                        #   in Loop: Header=BB29_14 Depth=1
	movq	MapUnitToSliceGroupMap, %rax
	movl	-4(%rbp), %ecx
	shrl	$1, %ecx
	movl	%ecx, %ecx
	movb	(%rax,%rcx), %al
	movq	MBAmap, %rcx
	movl	-4(%rbp), %edx
	movb	%al, (%rcx,%rdx)
# %bb.16:                               # %for.inc29
                                        #   in Loop: Header=BB29_14 Depth=1
	movl	-4(%rbp), %eax
	addl	$1, %eax
	movl	%eax, -4(%rbp)
	jmp	.LBB29_14
.LBB29_17:                              # %for.end31
	jmp	.LBB29_23
.LBB29_18:                              # %if.else32
	movl	$0, -4(%rbp)
.LBB29_19:                              # %for.cond33
                                        # =>This Inner Loop Header: Depth=1
	movl	-4(%rbp), %eax
	movq	-16(%rbp), %rcx
	cmpl	72484(%rcx), %eax
	jae	.LBB29_22
# %bb.20:                               # %for.body37
                                        #   in Loop: Header=BB29_19 Depth=1
	movq	MapUnitToSliceGroupMap, %rsi
	movl	-4(%rbp), %eax
	movq	-16(%rbp), %rcx
	movl	72468(%rcx), %ecx
	shll	$1, %ecx
	xorl	%edx, %edx
	divl	%ecx
	movl	%eax, %ecx
	movq	-16(%rbp), %rax
	imull	72468(%rax), %ecx
	movl	-4(%rbp), %eax
	movq	-16(%rbp), %rdi
	xorl	%edx, %edx
	divl	72468(%rdi)
	addl	%edx, %ecx
	movl	%ecx, %eax
	movb	(%rsi,%rax), %al
	movq	MBAmap, %rcx
	movl	-4(%rbp), %edx
	movb	%al, (%rcx,%rdx)
# %bb.21:                               # %for.inc47
                                        #   in Loop: Header=BB29_19 Depth=1
	movl	-4(%rbp), %eax
	addl	$1, %eax
	movl	%eax, -4(%rbp)
	jmp	.LBB29_19
.LBB29_22:                              # %for.end49
	jmp	.LBB29_23
.LBB29_23:                              # %if.end50
	jmp	.LBB29_24
.LBB29_24:                              # %if.end51
	cmpl	$563784017, -20(%rbp)   # imm = 0x219AA951
	jne	.LBB29_26
.LBB29_25:
	xorl	%eax, %eax
	addq	$32, %rsp
	popq	%rbp
	.cfi_def_cfa %rsp, 8
	retq
.LBB29_26:                              # %func_exit
	.cfi_def_cfa %rbp, 16
	callq	detect_breach
	jmp	.LBB29_25
.Lfunc_end29:
	.size	FmoGenerateMBAmap.9, .Lfunc_end29-FmoGenerateMBAmap.9
	.cfi_endproc
                                        # -- End function
	.globl	FmoInit.10              # -- Begin function FmoInit.10
	.p2align	4, 0x90
	.type	FmoInit.10,@function
FmoInit.10:                             # @FmoInit.10
	.cfi_startproc
# %bb.0:                                # %entry
	pushq	%rbp
	.cfi_def_cfa_offset 16
	.cfi_offset %rbp, -16
	movq	%rsp, %rbp
	.cfi_def_cfa_register %rbp
	subq	$32, %rsp
	movl	$1420771663, -8(%rbp)   # imm = 0x54AF414F
	movq	%rdi, -16(%rbp)
	movq	%rsi, -24(%rbp)
	movq	%rdx, -32(%rbp)
	movl	$0, -4(%rbp)
.LBB30_1:                               # %for.cond
                                        # =>This Inner Loop Header: Depth=1
	cmpl	$8, -4(%rbp)
	jge	.LBB30_4
# %bb.2:                                # %for.body
                                        #   in Loop: Header=BB30_1 Depth=1
	movslq	-4(%rbp), %rax
	movl	$-1, FirstMBInSlice(,%rax,4)
# %bb.3:                                # %for.inc
                                        #   in Loop: Header=BB30_1 Depth=1
	movl	-4(%rbp), %eax
	addl	$1, %eax
	movl	%eax, -4(%rbp)
	jmp	.LBB30_1
.LBB30_4:                               # %for.end
	movq	-16(%rbp), %rdi
	movq	-24(%rbp), %rsi
	callq	FmoGenerateMapUnitToSliceGroupMap
	movq	-16(%rbp), %rdi
	movq	-32(%rbp), %rsi
	callq	FmoGenerateMBAmap
	cmpl	$1420771663, -8(%rbp)   # imm = 0x54AF414F
	jne	.LBB30_6
.LBB30_5:
	xorl	%eax, %eax
	addq	$32, %rsp
	popq	%rbp
	.cfi_def_cfa %rsp, 8
	retq
.LBB30_6:                               # %func_exit
	.cfi_def_cfa %rbp, 16
	callq	detect_breach
	jmp	.LBB30_5
.Lfunc_end30:
	.size	FmoInit.10, .Lfunc_end30-FmoInit.10
	.cfi_endproc
                                        # -- End function
	.p2align	4, 0x90         # -- Begin function FmoGenerateType1MapUnitMap.11
	.type	FmoGenerateType1MapUnitMap.11,@function
FmoGenerateType1MapUnitMap.11:          # @FmoGenerateType1MapUnitMap.11
	.cfi_startproc
# %bb.0:                                # %entry
	pushq	%rbp
	.cfi_def_cfa_offset 16
	.cfi_offset %rbp, -16
	movq	%rsp, %rbp
	.cfi_def_cfa_register %rbp
	subq	$32, %rsp
	movl	$1768562711, -8(%rbp)   # imm = 0x696A2017
	movq	%rdi, -16(%rbp)
	movq	%rsi, -24(%rbp)
	movl	$0, -4(%rbp)
.LBB31_1:                               # %for.cond
                                        # =>This Inner Loop Header: Depth=1
	movl	-4(%rbp), %eax
	cmpl	PicSizeInMapUnits, %eax
	jae	.LBB31_4
# %bb.2:                                # %for.body
                                        #   in Loop: Header=BB31_1 Depth=1
	movl	-4(%rbp), %eax
	movq	-16(%rbp), %rcx
	xorl	%edx, %edx
	divl	72468(%rcx)
	movl	%edx, %ecx
	movl	-4(%rbp), %eax
	movq	-16(%rbp), %rsi
	xorl	%edx, %edx
	divl	72468(%rsi)
	movq	-24(%rbp), %rdx
	movl	60(%rdx), %edx
	addl	$1, %edx
	imull	%edx, %eax
	shrl	$1, %eax
	addl	%eax, %ecx
	movq	-24(%rbp), %rax
	movl	60(%rax), %esi
	addl	$1, %esi
	movl	%ecx, %eax
	xorl	%edx, %edx
	divl	%esi
	movq	MapUnitToSliceGroupMap, %rax
	movl	-4(%rbp), %ecx
	movb	%dl, (%rax,%rcx)
# %bb.3:                                # %for.inc
                                        #   in Loop: Header=BB31_1 Depth=1
	movl	-4(%rbp), %eax
	addl	$1, %eax
	movl	%eax, -4(%rbp)
	jmp	.LBB31_1
.LBB31_4:                               # %for.end
	cmpl	$1768562711, -8(%rbp)   # imm = 0x696A2017
	jne	.LBB31_6
.LBB31_5:
	addq	$32, %rsp
	popq	%rbp
	.cfi_def_cfa %rsp, 8
	retq
.LBB31_6:                               # %func_exit
	.cfi_def_cfa %rbp, 16
	callq	detect_breach
	jmp	.LBB31_5
.Lfunc_end31:
	.size	FmoGenerateType1MapUnitMap.11, .Lfunc_end31-FmoGenerateType1MapUnitMap.11
	.cfi_endproc
                                        # -- End function
	.globl	FmoGetFirstMBOfSliceGroup.12 # -- Begin function FmoGetFirstMBOfSliceGroup.12
	.p2align	4, 0x90
	.type	FmoGetFirstMBOfSliceGroup.12,@function
FmoGetFirstMBOfSliceGroup.12:           # @FmoGetFirstMBOfSliceGroup.12
	.cfi_startproc
# %bb.0:                                # %entry
	pushq	%rbp
	.cfi_def_cfa_offset 16
	.cfi_offset %rbp, -16
	movq	%rsp, %rbp
	.cfi_def_cfa_register %rbp
	pushq	%rbx
	subq	$24, %rsp
	.cfi_offset %rbx, -24
	movl	$291474330, -24(%rbp)   # imm = 0x115F8B9A
	movl	%edi, -20(%rbp)
	movl	$0, -12(%rbp)
.LBB32_1:                               # %while.cond
                                        # =>This Inner Loop Header: Depth=1
	xorl	%eax, %eax
	movl	-12(%rbp), %ecx
	movq	img, %rdx
	cmpl	72484(%rdx), %ecx
	jge	.LBB32_3
# %bb.2:                                # %land.rhs
                                        #   in Loop: Header=BB32_1 Depth=1
	movl	-12(%rbp), %edi
	callq	FmoMB2SliceGroup
	cmpl	-20(%rbp), %eax
	setne	%al
.LBB32_3:                               # %land.end
                                        #   in Loop: Header=BB32_1 Depth=1
	testb	$1, %al
	jne	.LBB32_4
	jmp	.LBB32_5
.LBB32_4:                               # %while.body
                                        #   in Loop: Header=BB32_1 Depth=1
	movl	-12(%rbp), %eax
	addl	$1, %eax
	movl	%eax, -12(%rbp)
	jmp	.LBB32_1
.LBB32_5:                               # %while.end
	movl	-12(%rbp), %eax
	movq	img, %rcx
	cmpl	72484(%rcx), %eax
	jge	.LBB32_7
# %bb.6:                                # %if.then
	movl	-12(%rbp), %eax
	movl	%eax, -16(%rbp)
	jmp	.LBB32_8
.LBB32_7:                               # %if.else
	movl	$-1, -16(%rbp)
.LBB32_8:                               # %return
	movl	-16(%rbp), %ebx
	cmpl	$291474330, -24(%rbp)   # imm = 0x115F8B9A
	jne	.LBB32_10
.LBB32_9:
	movl	%ebx, %eax
	addq	$24, %rsp
	popq	%rbx
	popq	%rbp
	.cfi_def_cfa %rsp, 8
	retq
.LBB32_10:                              # %func_exit
	.cfi_def_cfa %rbp, 16
	callq	detect_breach
	jmp	.LBB32_9
.Lfunc_end32:
	.size	FmoGetFirstMBOfSliceGroup.12, .Lfunc_end32-FmoGetFirstMBOfSliceGroup.12
	.cfi_endproc
                                        # -- End function
	.p2align	4, 0x90         # -- Begin function FmoGenerateType6MapUnitMap.13
	.type	FmoGenerateType6MapUnitMap.13,@function
FmoGenerateType6MapUnitMap.13:          # @FmoGenerateType6MapUnitMap.13
	.cfi_startproc
# %bb.0:                                # %entry
	pushq	%rbp
	.cfi_def_cfa_offset 16
	.cfi_offset %rbp, -16
	movq	%rsp, %rbp
	.cfi_def_cfa_register %rbp
	subq	$32, %rsp
	movl	$264667461, -8(%rbp)    # imm = 0xFC68145
	movq	%rdi, -24(%rbp)
	movq	%rsi, -16(%rbp)
	movl	$0, -4(%rbp)
.LBB33_1:                               # %for.cond
                                        # =>This Inner Loop Header: Depth=1
	movl	-4(%rbp), %eax
	cmpl	PicSizeInMapUnits, %eax
	jae	.LBB33_4
# %bb.2:                                # %for.body
                                        #   in Loop: Header=BB33_1 Depth=1
	movq	-16(%rbp), %rax
	movq	176(%rax), %rax
	movl	-4(%rbp), %ecx
	movb	(%rax,%rcx), %al
	movq	MapUnitToSliceGroupMap, %rcx
	movl	-4(%rbp), %edx
	movb	%al, (%rcx,%rdx)
# %bb.3:                                # %for.inc
                                        #   in Loop: Header=BB33_1 Depth=1
	movl	-4(%rbp), %eax
	addl	$1, %eax
	movl	%eax, -4(%rbp)
	jmp	.LBB33_1
.LBB33_4:                               # %for.end
	cmpl	$264667461, -8(%rbp)    # imm = 0xFC68145
	jne	.LBB33_6
.LBB33_5:
	addq	$32, %rsp
	popq	%rbp
	.cfi_def_cfa %rsp, 8
	retq
.LBB33_6:                               # %func_exit
	.cfi_def_cfa %rbp, 16
	callq	detect_breach
	jmp	.LBB33_5
.Lfunc_end33:
	.size	FmoGenerateType6MapUnitMap.13, .Lfunc_end33-FmoGenerateType6MapUnitMap.13
	.cfi_endproc
                                        # -- End function
	.p2align	4, 0x90         # -- Begin function FmoGenerateType0MapUnitMap.14
	.type	FmoGenerateType0MapUnitMap.14,@function
FmoGenerateType0MapUnitMap.14:          # @FmoGenerateType0MapUnitMap.14
	.cfi_startproc
# %bb.0:                                # %entry
	pushq	%rbp
	.cfi_def_cfa_offset 16
	.cfi_offset %rbp, -16
	movq	%rsp, %rbp
	.cfi_def_cfa_register %rbp
	subq	$48, %rsp
	movl	$1715110425, -28(%rbp)  # imm = 0x663A8219
	movq	%rdi, -40(%rbp)
	movq	%rsi, -24(%rbp)
	movl	$0, -4(%rbp)
.LBB34_1:                               # %do.body
                                        # =>This Loop Header: Depth=1
                                        #     Child Loop BB34_2 Depth 2
                                        #       Child Loop BB34_6 Depth 3
	movl	$0, -12(%rbp)
.LBB34_2:                               # %for.cond
                                        #   Parent Loop BB34_1 Depth=1
                                        # =>  This Loop Header: Depth=2
                                        #       Child Loop BB34_6 Depth 3
	xorl	%eax, %eax
	movl	-12(%rbp), %ecx
	movq	-24(%rbp), %rdx
	cmpl	60(%rdx), %ecx
	ja	.LBB34_4
# %bb.3:                                # %land.rhs
                                        #   in Loop: Header=BB34_2 Depth=2
	movl	-4(%rbp), %eax
	cmpl	PicSizeInMapUnits, %eax
	setb	%al
.LBB34_4:                               # %land.end
                                        #   in Loop: Header=BB34_2 Depth=2
	testb	$1, %al
	jne	.LBB34_5
	jmp	.LBB34_13
.LBB34_5:                               # %for.body
                                        #   in Loop: Header=BB34_2 Depth=2
	movl	$0, -8(%rbp)
.LBB34_6:                               # %for.cond2
                                        #   Parent Loop BB34_1 Depth=1
                                        #     Parent Loop BB34_2 Depth=2
                                        # =>    This Inner Loop Header: Depth=3
	xorl	%eax, %eax
	movl	-8(%rbp), %ecx
	movq	-24(%rbp), %rdx
	movl	-12(%rbp), %esi
	cmpl	68(%rdx,%rsi,4), %ecx
	ja	.LBB34_8
# %bb.7:                                # %land.rhs4
                                        #   in Loop: Header=BB34_6 Depth=3
	movl	-4(%rbp), %eax
	addl	-8(%rbp), %eax
	cmpl	PicSizeInMapUnits, %eax
	setb	%al
.LBB34_8:                               # %land.end6
                                        #   in Loop: Header=BB34_6 Depth=3
	testb	$1, %al
	jne	.LBB34_9
	jmp	.LBB34_11
.LBB34_9:                               # %for.body7
                                        #   in Loop: Header=BB34_6 Depth=3
	movl	-12(%rbp), %eax
	movq	MapUnitToSliceGroupMap, %rcx
	movl	-4(%rbp), %edx
	addl	-8(%rbp), %edx
	movl	%edx, %edx
	movb	%al, (%rcx,%rdx)
# %bb.10:                               # %for.inc
                                        #   in Loop: Header=BB34_6 Depth=3
	movl	-8(%rbp), %eax
	addl	$1, %eax
	movl	%eax, -8(%rbp)
	jmp	.LBB34_6
.LBB34_11:                              # %for.end
                                        #   in Loop: Header=BB34_2 Depth=2
	jmp	.LBB34_12
.LBB34_12:                              # %for.inc11
                                        #   in Loop: Header=BB34_2 Depth=2
	movq	-24(%rbp), %rax
	movl	-12(%rbp), %ecx
	movl	%ecx, %edx
	addl	$1, %edx
	movl	%edx, -12(%rbp)
	movl	%ecx, %ecx
	movl	68(%rax,%rcx,4), %eax
	addl	$1, %eax
	addl	-4(%rbp), %eax
	movl	%eax, -4(%rbp)
	jmp	.LBB34_2
.LBB34_13:                              # %for.end18
                                        #   in Loop: Header=BB34_1 Depth=1
	jmp	.LBB34_14
.LBB34_14:                              # %do.cond
                                        #   in Loop: Header=BB34_1 Depth=1
	movl	-4(%rbp), %eax
	cmpl	PicSizeInMapUnits, %eax
	jb	.LBB34_1
# %bb.15:                               # %do.end
	cmpl	$1715110425, -28(%rbp)  # imm = 0x663A8219
	jne	.LBB34_17
.LBB34_16:
	addq	$48, %rsp
	popq	%rbp
	.cfi_def_cfa %rsp, 8
	retq
.LBB34_17:                              # %func_exit
	.cfi_def_cfa %rbp, 16
	callq	detect_breach
	jmp	.LBB34_16
.Lfunc_end34:
	.size	FmoGenerateType0MapUnitMap.14, .Lfunc_end34-FmoGenerateType0MapUnitMap.14
	.cfi_endproc
                                        # -- End function
	.globl	FmoInit.15              # -- Begin function FmoInit.15
	.p2align	4, 0x90
	.type	FmoInit.15,@function
FmoInit.15:                             # @FmoInit.15
	.cfi_startproc
# %bb.0:                                # %entry
	pushq	%rbp
	.cfi_def_cfa_offset 16
	.cfi_offset %rbp, -16
	movq	%rsp, %rbp
	.cfi_def_cfa_register %rbp
	subq	$32, %rsp
	movl	$948310119, -8(%rbp)    # imm = 0x38861067
	movq	%rdi, -16(%rbp)
	movq	%rsi, -32(%rbp)
	movq	%rdx, -24(%rbp)
	movl	$0, -4(%rbp)
.LBB35_1:                               # %for.cond
                                        # =>This Inner Loop Header: Depth=1
	cmpl	$8, -4(%rbp)
	jge	.LBB35_4
# %bb.2:                                # %for.body
                                        #   in Loop: Header=BB35_1 Depth=1
	movslq	-4(%rbp), %rax
	movl	$-1, FirstMBInSlice(,%rax,4)
# %bb.3:                                # %for.inc
                                        #   in Loop: Header=BB35_1 Depth=1
	movl	-4(%rbp), %eax
	addl	$1, %eax
	movl	%eax, -4(%rbp)
	jmp	.LBB35_1
.LBB35_4:                               # %for.end
	movq	-16(%rbp), %rdi
	movq	-32(%rbp), %rsi
	callq	FmoGenerateMapUnitToSliceGroupMap
	movq	-16(%rbp), %rdi
	movq	-24(%rbp), %rsi
	callq	FmoGenerateMBAmap
	cmpl	$948310119, -8(%rbp)    # imm = 0x38861067
	jne	.LBB35_6
.LBB35_5:
	xorl	%eax, %eax
	addq	$32, %rsp
	popq	%rbp
	.cfi_def_cfa %rsp, 8
	retq
.LBB35_6:                               # %func_exit
	.cfi_def_cfa %rbp, 16
	callq	detect_breach
	jmp	.LBB35_5
.Lfunc_end35:
	.size	FmoInit.15, .Lfunc_end35-FmoInit.15
	.cfi_endproc
                                        # -- End function
	.p2align	4, 0x90         # -- Begin function FmoGenerateType3MapUnitMap.16
	.type	FmoGenerateType3MapUnitMap.16,@function
FmoGenerateType3MapUnitMap.16:          # @FmoGenerateType3MapUnitMap.16
	.cfi_startproc
# %bb.0:                                # %entry
	pushq	%rbp
	.cfi_def_cfa_offset 16
	.cfi_offset %rbp, -16
	movq	%rsp, %rbp
	.cfi_def_cfa_register %rbp
	subq	$80, %rsp
	movl	$696044860, -68(%rbp)   # imm = 0x297CCD3C
	movq	%rdi, -48(%rbp)
	movq	%rsi, -40(%rbp)
	movq	-40(%rbp), %rax
	movl	168(%rax), %eax
	addl	$1, %eax
	movq	-48(%rbp), %rcx
	imull	72652(%rcx), %eax
	cmpl	PicSizeInMapUnits, %eax
	jae	.LBB36_2
# %bb.1:                                # %cond.true
	movq	-40(%rbp), %rax
	movl	168(%rax), %eax
	addl	$1, %eax
	movq	-48(%rbp), %rcx
	imull	72652(%rcx), %eax
	jmp	.LBB36_3
.LBB36_2:                               # %cond.false
	movl	PicSizeInMapUnits, %eax
.LBB36_3:                               # %cond.end
	movl	%eax, -64(%rbp)
	movl	$0, -52(%rbp)
.LBB36_4:                               # %for.cond
                                        # =>This Inner Loop Header: Depth=1
	movl	-52(%rbp), %eax
	cmpl	PicSizeInMapUnits, %eax
	jae	.LBB36_7
# %bb.5:                                # %for.body
                                        #   in Loop: Header=BB36_4 Depth=1
	movq	MapUnitToSliceGroupMap, %rax
	movl	-52(%rbp), %ecx
	movb	$2, (%rax,%rcx)
# %bb.6:                                # %for.inc
                                        #   in Loop: Header=BB36_4 Depth=1
	movl	-52(%rbp), %eax
	addl	$1, %eax
	movl	%eax, -52(%rbp)
	jmp	.LBB36_4
.LBB36_7:                               # %for.end
	movq	-48(%rbp), %rax
	movl	72468(%rax), %eax
	movq	-40(%rbp), %rcx
	subl	164(%rcx), %eax
	shrl	$1, %eax
	movl	%eax, -4(%rbp)
	movq	-48(%rbp), %rax
	movl	72472(%rax), %eax
	movq	-40(%rbp), %rcx
	subl	164(%rcx), %eax
	shrl	$1, %eax
	movl	%eax, -8(%rbp)
	movl	-4(%rbp), %eax
	movl	%eax, -28(%rbp)
	movl	-8(%rbp), %eax
	movl	%eax, -32(%rbp)
	movl	-4(%rbp), %eax
	movl	%eax, -24(%rbp)
	movl	-8(%rbp), %eax
	movl	%eax, -20(%rbp)
	movq	-40(%rbp), %rax
	movl	164(%rax), %eax
	subl	$1, %eax
	movl	%eax, -12(%rbp)
	movq	-40(%rbp), %rax
	movl	164(%rax), %eax
	movl	%eax, -16(%rbp)
	movl	$0, -56(%rbp)
.LBB36_8:                               # %for.cond12
                                        # =>This Inner Loop Header: Depth=1
	movl	-56(%rbp), %eax
	cmpl	PicSizeInMapUnits, %eax
	jae	.LBB36_41
# %bb.9:                                # %for.body14
                                        #   in Loop: Header=BB36_8 Depth=1
	movq	MapUnitToSliceGroupMap, %rax
	movl	-8(%rbp), %ecx
	movq	-48(%rbp), %rdx
	imull	72468(%rdx), %ecx
	addl	-4(%rbp), %ecx
	movl	%ecx, %ecx
	movzbl	(%rax,%rcx), %eax
	cmpl	$2, %eax
	sete	%al
	andb	$1, %al
	movzbl	%al, %eax
	movl	%eax, -60(%rbp)
	cmpl	$0, -60(%rbp)
	je	.LBB36_11
# %bb.10:                               # %if.then
                                        #   in Loop: Header=BB36_8 Depth=1
	movl	-56(%rbp), %eax
	cmpl	-64(%rbp), %eax
	setae	%al
	andb	$1, %al
	movzbl	%al, %eax
	movq	MapUnitToSliceGroupMap, %rcx
	movl	-8(%rbp), %edx
	movq	-48(%rbp), %rsi
	imull	72468(%rsi), %edx
	addl	-4(%rbp), %edx
	movl	%edx, %edx
	movb	%al, (%rcx,%rdx)
.LBB36_11:                              # %if.end
                                        #   in Loop: Header=BB36_8 Depth=1
	cmpl	$-1, -12(%rbp)
	jne	.LBB36_17
# %bb.12:                               # %land.lhs.true
                                        #   in Loop: Header=BB36_8 Depth=1
	movl	-4(%rbp), %eax
	cmpl	-28(%rbp), %eax
	jne	.LBB36_17
# %bb.13:                               # %if.then34
                                        #   in Loop: Header=BB36_8 Depth=1
	movl	-28(%rbp), %eax
	subl	$1, %eax
	cmpl	$0, %eax
	jle	.LBB36_15
# %bb.14:                               # %cond.true38
                                        #   in Loop: Header=BB36_8 Depth=1
	movl	-28(%rbp), %eax
	subl	$1, %eax
	jmp	.LBB36_16
.LBB36_15:                              # %cond.false40
                                        #   in Loop: Header=BB36_8 Depth=1
	xorl	%eax, %eax
	jmp	.LBB36_16
.LBB36_16:                              # %cond.end41
                                        #   in Loop: Header=BB36_8 Depth=1
	movl	%eax, -28(%rbp)
	movl	-28(%rbp), %eax
	movl	%eax, -4(%rbp)
	movl	$0, -12(%rbp)
	movq	-40(%rbp), %rax
	movl	164(%rax), %eax
	shll	$1, %eax
	subl	$1, %eax
	movl	%eax, -16(%rbp)
	jmp	.LBB36_39
.LBB36_17:                              # %if.else
                                        #   in Loop: Header=BB36_8 Depth=1
	cmpl	$1, -12(%rbp)
	jne	.LBB36_23
# %bb.18:                               # %land.lhs.true48
                                        #   in Loop: Header=BB36_8 Depth=1
	movl	-4(%rbp), %eax
	cmpl	-24(%rbp), %eax
	jne	.LBB36_23
# %bb.19:                               # %if.then51
                                        #   in Loop: Header=BB36_8 Depth=1
	movl	-24(%rbp), %eax
	addl	$1, %eax
	movq	-48(%rbp), %rcx
	movl	72468(%rcx), %ecx
	subl	$1, %ecx
	cmpl	%ecx, %eax
	jge	.LBB36_21
# %bb.20:                               # %cond.true57
                                        #   in Loop: Header=BB36_8 Depth=1
	movl	-24(%rbp), %eax
	addl	$1, %eax
	jmp	.LBB36_22
.LBB36_21:                              # %cond.false59
                                        #   in Loop: Header=BB36_8 Depth=1
	movq	-48(%rbp), %rax
	movl	72468(%rax), %eax
	subl	$1, %eax
.LBB36_22:                              # %cond.end62
                                        #   in Loop: Header=BB36_8 Depth=1
	movl	%eax, -24(%rbp)
	movl	-24(%rbp), %eax
	movl	%eax, -4(%rbp)
	movl	$0, -12(%rbp)
	movq	-40(%rbp), %rax
	movl	164(%rax), %eax
	shll	$1, %eax
	movl	$1, %ecx
	subl	%eax, %ecx
	movl	%ecx, -16(%rbp)
	jmp	.LBB36_38
.LBB36_23:                              # %if.else67
                                        #   in Loop: Header=BB36_8 Depth=1
	cmpl	$-1, -16(%rbp)
	jne	.LBB36_29
# %bb.24:                               # %land.lhs.true70
                                        #   in Loop: Header=BB36_8 Depth=1
	movl	-8(%rbp), %eax
	cmpl	-32(%rbp), %eax
	jne	.LBB36_29
# %bb.25:                               # %if.then73
                                        #   in Loop: Header=BB36_8 Depth=1
	movl	-32(%rbp), %eax
	subl	$1, %eax
	cmpl	$0, %eax
	jle	.LBB36_27
# %bb.26:                               # %cond.true77
                                        #   in Loop: Header=BB36_8 Depth=1
	movl	-32(%rbp), %eax
	subl	$1, %eax
	jmp	.LBB36_28
.LBB36_27:                              # %cond.false79
                                        #   in Loop: Header=BB36_8 Depth=1
	xorl	%eax, %eax
	jmp	.LBB36_28
.LBB36_28:                              # %cond.end80
                                        #   in Loop: Header=BB36_8 Depth=1
	movl	%eax, -32(%rbp)
	movl	-32(%rbp), %eax
	movl	%eax, -8(%rbp)
	movq	-40(%rbp), %rax
	movl	164(%rax), %eax
	shll	$1, %eax
	movl	$1, %ecx
	subl	%eax, %ecx
	movl	%ecx, -12(%rbp)
	movl	$0, -16(%rbp)
	jmp	.LBB36_37
.LBB36_29:                              # %if.else85
                                        #   in Loop: Header=BB36_8 Depth=1
	cmpl	$1, -16(%rbp)
	jne	.LBB36_35
# %bb.30:                               # %land.lhs.true88
                                        #   in Loop: Header=BB36_8 Depth=1
	movl	-8(%rbp), %eax
	cmpl	-20(%rbp), %eax
	jne	.LBB36_35
# %bb.31:                               # %if.then91
                                        #   in Loop: Header=BB36_8 Depth=1
	movl	-20(%rbp), %eax
	addl	$1, %eax
	movq	-48(%rbp), %rcx
	movl	72472(%rcx), %ecx
	subl	$1, %ecx
	cmpl	%ecx, %eax
	jge	.LBB36_33
# %bb.32:                               # %cond.true97
                                        #   in Loop: Header=BB36_8 Depth=1
	movl	-20(%rbp), %eax
	addl	$1, %eax
	jmp	.LBB36_34
.LBB36_33:                              # %cond.false99
                                        #   in Loop: Header=BB36_8 Depth=1
	movq	-48(%rbp), %rax
	movl	72472(%rax), %eax
	subl	$1, %eax
.LBB36_34:                              # %cond.end102
                                        #   in Loop: Header=BB36_8 Depth=1
	movl	%eax, -20(%rbp)
	movl	-20(%rbp), %eax
	movl	%eax, -8(%rbp)
	movq	-40(%rbp), %rax
	movl	164(%rax), %eax
	shll	$1, %eax
	subl	$1, %eax
	movl	%eax, -12(%rbp)
	movl	$0, -16(%rbp)
	jmp	.LBB36_36
.LBB36_35:                              # %if.else107
                                        #   in Loop: Header=BB36_8 Depth=1
	movl	-4(%rbp), %eax
	addl	-12(%rbp), %eax
	movl	%eax, -4(%rbp)
	movl	-8(%rbp), %eax
	addl	-16(%rbp), %eax
	movl	%eax, -8(%rbp)
.LBB36_36:                              # %if.end110
                                        #   in Loop: Header=BB36_8 Depth=1
	jmp	.LBB36_37
.LBB36_37:                              # %if.end111
                                        #   in Loop: Header=BB36_8 Depth=1
	jmp	.LBB36_38
.LBB36_38:                              # %if.end112
                                        #   in Loop: Header=BB36_8 Depth=1
	jmp	.LBB36_39
.LBB36_39:                              # %if.end113
                                        #   in Loop: Header=BB36_8 Depth=1
	jmp	.LBB36_40
.LBB36_40:                              # %for.inc114
                                        #   in Loop: Header=BB36_8 Depth=1
	movl	-60(%rbp), %eax
	addl	-56(%rbp), %eax
	movl	%eax, -56(%rbp)
	jmp	.LBB36_8
.LBB36_41:                              # %for.end116
	cmpl	$696044860, -68(%rbp)   # imm = 0x297CCD3C
	jne	.LBB36_43
.LBB36_42:
	addq	$80, %rsp
	popq	%rbp
	.cfi_def_cfa %rsp, 8
	retq
.LBB36_43:                              # %func_exit
	.cfi_def_cfa %rbp, 16
	callq	detect_breach
	jmp	.LBB36_42
.Lfunc_end36:
	.size	FmoGenerateType3MapUnitMap.16, .Lfunc_end36-FmoGenerateType3MapUnitMap.16
	.cfi_endproc
                                        # -- End function
	.globl	FmoGetNextMBNr.17       # -- Begin function FmoGetNextMBNr.17
	.p2align	4, 0x90
	.type	FmoGetNextMBNr.17,@function
FmoGetNextMBNr.17:                      # @FmoGetNextMBNr.17
	.cfi_startproc
# %bb.0:                                # %entry
	pushq	%rbp
	.cfi_def_cfa_offset 16
	.cfi_offset %rbp, -16
	movq	%rsp, %rbp
	.cfi_def_cfa_register %rbp
	pushq	%rbx
	subq	$24, %rsp
	.cfi_offset %rbx, -24
	movl	$442194638, -20(%rbp)   # imm = 0x1A5B5ACE
	movl	%edi, -12(%rbp)
	movl	-12(%rbp), %edi
	callq	FmoMB2SliceGroup
	movl	%eax, -24(%rbp)
.LBB37_1:                               # %while.cond
                                        # =>This Inner Loop Header: Depth=1
	xorl	%eax, %eax
	movl	-12(%rbp), %ecx
	addl	$1, %ecx
	movl	%ecx, -12(%rbp)
	movq	img, %rdx
	cmpl	72484(%rdx), %ecx
	jge	.LBB37_3
# %bb.2:                                # %land.rhs
                                        #   in Loop: Header=BB37_1 Depth=1
	movq	MBAmap, %rax
	movslq	-12(%rbp), %rcx
	movzbl	(%rax,%rcx), %eax
	cmpl	-24(%rbp), %eax
	setne	%al
.LBB37_3:                               # %land.end
                                        #   in Loop: Header=BB37_1 Depth=1
	testb	$1, %al
	jne	.LBB37_4
	jmp	.LBB37_5
.LBB37_4:                               # %while.body
                                        #   in Loop: Header=BB37_1 Depth=1
	jmp	.LBB37_1
.LBB37_5:                               # %while.end
	movl	-12(%rbp), %eax
	movq	img, %rcx
	cmpl	72484(%rcx), %eax
	jl	.LBB37_7
# %bb.6:                                # %if.then
	movl	$-1, -16(%rbp)
	jmp	.LBB37_8
.LBB37_7:                               # %if.else
	movl	-12(%rbp), %eax
	movl	%eax, -16(%rbp)
.LBB37_8:                               # %return
	movl	-16(%rbp), %ebx
	cmpl	$442194638, -20(%rbp)   # imm = 0x1A5B5ACE
	jne	.LBB37_10
.LBB37_9:
	movl	%ebx, %eax
	addq	$24, %rsp
	popq	%rbx
	popq	%rbp
	.cfi_def_cfa %rsp, 8
	retq
.LBB37_10:                              # %func_exit
	.cfi_def_cfa %rbp, 16
	callq	detect_breach
	jmp	.LBB37_9
.Lfunc_end37:
	.size	FmoGetNextMBNr.17, .Lfunc_end37-FmoGetNextMBNr.17
	.cfi_endproc
                                        # -- End function
	.p2align	4, 0x90         # -- Begin function FmoGenerateMapUnitToSliceGroupMap.18
	.type	FmoGenerateMapUnitToSliceGroupMap.18,@function
FmoGenerateMapUnitToSliceGroupMap.18:   # @FmoGenerateMapUnitToSliceGroupMap.18
	.cfi_startproc
# %bb.0:                                # %entry
	pushq	%rbp
	.cfi_def_cfa_offset 16
	.cfi_offset %rbp, -16
	movq	%rsp, %rbp
	.cfi_def_cfa_register %rbp
	pushq	%rbx
	subq	$24, %rsp
	.cfi_offset %rbx, -24
	movl	$1985035671, -32(%rbp)  # imm = 0x76513D97
	movq	%rdi, -24(%rbp)
	movq	%rsi, -16(%rbp)
	movq	-24(%rbp), %rax
	movl	72472(%rax), %eax
	movq	-24(%rbp), %rcx
	imull	72468(%rcx), %eax
	movl	%eax, PicSizeInMapUnits
	movq	-16(%rbp), %rax
	cmpl	$6, 64(%rax)
	jne	.LBB38_4
# %bb.1:                                # %if.then
	movq	-16(%rbp), %rax
	movl	172(%rax), %eax
	addl	$1, %eax
	cmpl	PicSizeInMapUnits, %eax
	je	.LBB38_3
# %bb.2:                                # %if.then2
	movabsq	$.L.str, %rdi
	movl	$500, %esi              # imm = 0x1F4
	callq	error
.LBB38_3:                               # %if.end
	jmp	.LBB38_4
.LBB38_4:                               # %if.end3
	cmpq	$0, MapUnitToSliceGroupMap
	je	.LBB38_6
# %bb.5:                                # %if.then4
	movq	MapUnitToSliceGroupMap, %rdi
	callq	free
.LBB38_6:                               # %if.end5
	movl	PicSizeInMapUnits, %edi
	shlq	$0, %rdi
	callq	malloc
	movq	%rax, MapUnitToSliceGroupMap
	cmpq	$0, %rax
	jne	.LBB38_8
# %bb.7:                                # %if.then9
	movl	PicSizeInMapUnits, %esi
	shlq	$0, %rsi
	movabsq	$.L.str.1, %rdi
	movb	$0, %al
	callq	printf
	movl	$4294967295, %edi       # imm = 0xFFFFFFFF
	callq	exit
.LBB38_8:                               # %if.end13
	movq	-16(%rbp), %rax
	cmpl	$0, 60(%rax)
	jne	.LBB38_10
# %bb.9:                                # %if.then16
	movq	MapUnitToSliceGroupMap, %rdi
	movl	PicSizeInMapUnits, %edx
	shlq	$0, %rdx
	xorl	%esi, %esi
	callq	memset
	movl	$0, -28(%rbp)
	jmp	.LBB38_21
.LBB38_10:                              # %if.end19
	movq	-16(%rbp), %rax
	movl	64(%rax), %eax
	movq	%rax, %rcx
	subq	$6, %rcx
	ja	.LBB38_19
# %bb.11:                               # %if.end19
	movq	.LJTI38_0(,%rax,8), %rax
	jmpq	*%rax
.LBB38_12:                              # %sw.bb
	movq	-24(%rbp), %rdi
	movq	-16(%rbp), %rsi
	callq	FmoGenerateType0MapUnitMap
	jmp	.LBB38_20
.LBB38_13:                              # %sw.bb21
	movq	-24(%rbp), %rdi
	movq	-16(%rbp), %rsi
	callq	FmoGenerateType1MapUnitMap
	jmp	.LBB38_20
.LBB38_14:                              # %sw.bb22
	movq	-24(%rbp), %rdi
	movq	-16(%rbp), %rsi
	callq	FmoGenerateType2MapUnitMap
	jmp	.LBB38_20
.LBB38_15:                              # %sw.bb23
	movq	-24(%rbp), %rdi
	movq	-16(%rbp), %rsi
	callq	FmoGenerateType3MapUnitMap
	jmp	.LBB38_20
.LBB38_16:                              # %sw.bb24
	movq	-24(%rbp), %rdi
	movq	-16(%rbp), %rsi
	callq	FmoGenerateType4MapUnitMap
	jmp	.LBB38_20
.LBB38_17:                              # %sw.bb25
	movq	-24(%rbp), %rdi
	movq	-16(%rbp), %rsi
	callq	FmoGenerateType5MapUnitMap
	jmp	.LBB38_20
.LBB38_18:                              # %sw.bb26
	movq	-24(%rbp), %rdi
	movq	-16(%rbp), %rsi
	callq	FmoGenerateType6MapUnitMap
	jmp	.LBB38_20
.LBB38_19:                              # %sw.default
	movq	-16(%rbp), %rax
	movl	64(%rax), %esi
	movabsq	$.L.str.2, %rdi
	movb	$0, %al
	callq	printf
	movl	$4294967295, %edi       # imm = 0xFFFFFFFF
	callq	exit
.LBB38_20:                              # %sw.epilog
	movl	$0, -28(%rbp)
.LBB38_21:                              # %return
	movl	-28(%rbp), %ebx
	cmpl	$1985035671, -32(%rbp)  # imm = 0x76513D97
	jne	.LBB38_23
.LBB38_22:
	movl	%ebx, %eax
	addq	$24, %rsp
	popq	%rbx
	popq	%rbp
	.cfi_def_cfa %rsp, 8
	retq
.LBB38_23:                              # %func_exit
	.cfi_def_cfa %rbp, 16
	callq	detect_breach
	jmp	.LBB38_22
.Lfunc_end38:
	.size	FmoGenerateMapUnitToSliceGroupMap.18, .Lfunc_end38-FmoGenerateMapUnitToSliceGroupMap.18
	.cfi_endproc
	.section	.rodata,"a",@progbits
	.p2align	3
.LJTI38_0:
	.quad	.LBB38_12
	.quad	.LBB38_13
	.quad	.LBB38_14
	.quad	.LBB38_15
	.quad	.LBB38_16
	.quad	.LBB38_17
	.quad	.LBB38_18
                                        # -- End function
	.text
	.globl	FmoGetPreviousMBNr.19   # -- Begin function FmoGetPreviousMBNr.19
	.p2align	4, 0x90
	.type	FmoGetPreviousMBNr.19,@function
FmoGetPreviousMBNr.19:                  # @FmoGetPreviousMBNr.19
	.cfi_startproc
# %bb.0:                                # %entry
	pushq	%rbp
	.cfi_def_cfa_offset 16
	.cfi_offset %rbp, -16
	movq	%rsp, %rbp
	.cfi_def_cfa_register %rbp
	pushq	%rbx
	subq	$24, %rsp
	.cfi_offset %rbx, -24
	movl	$592970942, -24(%rbp)   # imm = 0x235804BE
	movl	%edi, -12(%rbp)
	movl	-12(%rbp), %edi
	callq	FmoMB2SliceGroup
	movl	%eax, -20(%rbp)
	movl	-12(%rbp), %eax
	addl	$-1, %eax
	movl	%eax, -12(%rbp)
.LBB39_1:                               # %while.cond
                                        # =>This Inner Loop Header: Depth=1
	xorl	%eax, %eax
	cmpl	$0, -12(%rbp)
	jl	.LBB39_3
# %bb.2:                                # %land.rhs
                                        #   in Loop: Header=BB39_1 Depth=1
	movq	MBAmap, %rax
	movslq	-12(%rbp), %rcx
	movzbl	(%rax,%rcx), %eax
	cmpl	-20(%rbp), %eax
	setne	%al
.LBB39_3:                               # %land.end
                                        #   in Loop: Header=BB39_1 Depth=1
	testb	$1, %al
	jne	.LBB39_4
	jmp	.LBB39_5
.LBB39_4:                               # %while.body
                                        #   in Loop: Header=BB39_1 Depth=1
	movl	-12(%rbp), %eax
	addl	$-1, %eax
	movl	%eax, -12(%rbp)
	jmp	.LBB39_1
.LBB39_5:                               # %while.end
	cmpl	$0, -12(%rbp)
	jge	.LBB39_7
# %bb.6:                                # %if.then
	movl	$-1, -16(%rbp)
	jmp	.LBB39_8
.LBB39_7:                               # %if.else
	movl	-12(%rbp), %eax
	movl	%eax, -16(%rbp)
.LBB39_8:                               # %return
	movl	-16(%rbp), %ebx
	cmpl	$592970942, -24(%rbp)   # imm = 0x235804BE
	jne	.LBB39_10
.LBB39_9:
	movl	%ebx, %eax
	addq	$24, %rsp
	popq	%rbx
	popq	%rbp
	.cfi_def_cfa %rsp, 8
	retq
.LBB39_10:                              # %func_exit
	.cfi_def_cfa %rbp, 16
	callq	detect_breach
	jmp	.LBB39_9
.Lfunc_end39:
	.size	FmoGetPreviousMBNr.19, .Lfunc_end39-FmoGetPreviousMBNr.19
	.cfi_endproc
                                        # -- End function
	.globl	FmoGetPreviousMBNr.20   # -- Begin function FmoGetPreviousMBNr.20
	.p2align	4, 0x90
	.type	FmoGetPreviousMBNr.20,@function
FmoGetPreviousMBNr.20:                  # @FmoGetPreviousMBNr.20
	.cfi_startproc
# %bb.0:                                # %entry
	pushq	%rbp
	.cfi_def_cfa_offset 16
	.cfi_offset %rbp, -16
	movq	%rsp, %rbp
	.cfi_def_cfa_register %rbp
	pushq	%rbx
	subq	$24, %rsp
	.cfi_offset %rbx, -24
	movl	$695797839, -24(%rbp)   # imm = 0x2979084F
	movl	%edi, -12(%rbp)
	movl	-12(%rbp), %edi
	callq	FmoMB2SliceGroup
	movl	%eax, -20(%rbp)
	movl	-12(%rbp), %eax
	addl	$-1, %eax
	movl	%eax, -12(%rbp)
.LBB40_1:                               # %while.cond
                                        # =>This Inner Loop Header: Depth=1
	xorl	%eax, %eax
	cmpl	$0, -12(%rbp)
	jl	.LBB40_3
# %bb.2:                                # %land.rhs
                                        #   in Loop: Header=BB40_1 Depth=1
	movq	MBAmap, %rax
	movslq	-12(%rbp), %rcx
	movzbl	(%rax,%rcx), %eax
	cmpl	-20(%rbp), %eax
	setne	%al
.LBB40_3:                               # %land.end
                                        #   in Loop: Header=BB40_1 Depth=1
	testb	$1, %al
	jne	.LBB40_4
	jmp	.LBB40_5
.LBB40_4:                               # %while.body
                                        #   in Loop: Header=BB40_1 Depth=1
	movl	-12(%rbp), %eax
	addl	$-1, %eax
	movl	%eax, -12(%rbp)
	jmp	.LBB40_1
.LBB40_5:                               # %while.end
	cmpl	$0, -12(%rbp)
	jge	.LBB40_7
# %bb.6:                                # %if.then
	movl	$-1, -16(%rbp)
	jmp	.LBB40_8
.LBB40_7:                               # %if.else
	movl	-12(%rbp), %eax
	movl	%eax, -16(%rbp)
.LBB40_8:                               # %return
	movl	-16(%rbp), %ebx
	cmpl	$695797839, -24(%rbp)   # imm = 0x2979084F
	jne	.LBB40_10
.LBB40_9:
	movl	%ebx, %eax
	addq	$24, %rsp
	popq	%rbx
	popq	%rbp
	.cfi_def_cfa %rsp, 8
	retq
.LBB40_10:                              # %func_exit
	.cfi_def_cfa %rbp, 16
	callq	detect_breach
	jmp	.LBB40_9
.Lfunc_end40:
	.size	FmoGetPreviousMBNr.20, .Lfunc_end40-FmoGetPreviousMBNr.20
	.cfi_endproc
                                        # -- End function
	.p2align	4, 0x90         # -- Begin function FmoGenerateType4MapUnitMap.21
	.type	FmoGenerateType4MapUnitMap.21,@function
FmoGenerateType4MapUnitMap.21:          # @FmoGenerateType4MapUnitMap.21
	.cfi_startproc
# %bb.0:                                # %entry
	pushq	%rbp
	.cfi_def_cfa_offset 16
	.cfi_offset %rbp, -16
	movq	%rsp, %rbp
	.cfi_def_cfa_register %rbp
	subq	$48, %rsp
	movl	$402200903, -28(%rbp)   # imm = 0x17F91947
	movq	%rdi, -40(%rbp)
	movq	%rsi, -16(%rbp)
	movq	-16(%rbp), %rax
	movl	168(%rax), %eax
	addl	$1, %eax
	movq	-40(%rbp), %rcx
	imull	72652(%rcx), %eax
	cmpl	PicSizeInMapUnits, %eax
	jae	.LBB41_2
# %bb.1:                                # %cond.true
	movq	-16(%rbp), %rax
	movl	168(%rax), %eax
	addl	$1, %eax
	movq	-40(%rbp), %rcx
	imull	72652(%rcx), %eax
	jmp	.LBB41_3
.LBB41_2:                               # %cond.false
	movl	PicSizeInMapUnits, %eax
.LBB41_3:                               # %cond.end
	movl	%eax, -20(%rbp)
	movq	-16(%rbp), %rax
	cmpl	$0, 164(%rax)
	je	.LBB41_5
# %bb.4:                                # %cond.true5
	movl	PicSizeInMapUnits, %eax
	subl	-20(%rbp), %eax
	jmp	.LBB41_6
.LBB41_5:                               # %cond.false6
	movl	-20(%rbp), %eax
.LBB41_6:                               # %cond.end7
	movl	%eax, -24(%rbp)
	movl	$0, -4(%rbp)
.LBB41_7:                               # %for.cond
                                        # =>This Inner Loop Header: Depth=1
	movl	-4(%rbp), %eax
	cmpl	PicSizeInMapUnits, %eax
	jae	.LBB41_13
# %bb.8:                                # %for.body
                                        #   in Loop: Header=BB41_7 Depth=1
	movl	-4(%rbp), %eax
	cmpl	-24(%rbp), %eax
	jae	.LBB41_10
# %bb.9:                                # %if.then
                                        #   in Loop: Header=BB41_7 Depth=1
	movq	-16(%rbp), %rax
	movl	164(%rax), %eax
	movq	MapUnitToSliceGroupMap, %rcx
	movl	-4(%rbp), %edx
	movb	%al, (%rcx,%rdx)
	jmp	.LBB41_11
.LBB41_10:                              # %if.else
                                        #   in Loop: Header=BB41_7 Depth=1
	movq	-16(%rbp), %rax
	movl	$1, %ecx
	subl	164(%rax), %ecx
	movq	MapUnitToSliceGroupMap, %rax
	movl	-4(%rbp), %edx
	movb	%cl, (%rax,%rdx)
.LBB41_11:                              # %if.end
                                        #   in Loop: Header=BB41_7 Depth=1
	jmp	.LBB41_12
.LBB41_12:                              # %for.inc
                                        #   in Loop: Header=BB41_7 Depth=1
	movl	-4(%rbp), %eax
	addl	$1, %eax
	movl	%eax, -4(%rbp)
	jmp	.LBB41_7
.LBB41_13:                              # %for.end
	cmpl	$402200903, -28(%rbp)   # imm = 0x17F91947
	jne	.LBB41_15
.LBB41_14:
	addq	$48, %rsp
	popq	%rbp
	.cfi_def_cfa %rsp, 8
	retq
.LBB41_15:                              # %func_exit
	.cfi_def_cfa %rbp, 16
	callq	detect_breach
	jmp	.LBB41_14
.Lfunc_end41:
	.size	FmoGenerateType4MapUnitMap.21, .Lfunc_end41-FmoGenerateType4MapUnitMap.21
	.cfi_endproc
                                        # -- End function
	.globl	FmoGetPreviousMBNr.22   # -- Begin function FmoGetPreviousMBNr.22
	.p2align	4, 0x90
	.type	FmoGetPreviousMBNr.22,@function
FmoGetPreviousMBNr.22:                  # @FmoGetPreviousMBNr.22
	.cfi_startproc
# %bb.0:                                # %entry
	pushq	%rbp
	.cfi_def_cfa_offset 16
	.cfi_offset %rbp, -16
	movq	%rsp, %rbp
	.cfi_def_cfa_register %rbp
	pushq	%rbx
	subq	$24, %rsp
	.cfi_offset %rbx, -24
	movl	$1728891736, -20(%rbp)  # imm = 0x670CCB58
	movl	%edi, -12(%rbp)
	movl	-12(%rbp), %edi
	callq	FmoMB2SliceGroup
	movl	%eax, -24(%rbp)
	movl	-12(%rbp), %eax
	addl	$-1, %eax
	movl	%eax, -12(%rbp)
.LBB42_1:                               # %while.cond
                                        # =>This Inner Loop Header: Depth=1
	xorl	%eax, %eax
	cmpl	$0, -12(%rbp)
	jl	.LBB42_3
# %bb.2:                                # %land.rhs
                                        #   in Loop: Header=BB42_1 Depth=1
	movq	MBAmap, %rax
	movslq	-12(%rbp), %rcx
	movzbl	(%rax,%rcx), %eax
	cmpl	-24(%rbp), %eax
	setne	%al
.LBB42_3:                               # %land.end
                                        #   in Loop: Header=BB42_1 Depth=1
	testb	$1, %al
	jne	.LBB42_4
	jmp	.LBB42_5
.LBB42_4:                               # %while.body
                                        #   in Loop: Header=BB42_1 Depth=1
	movl	-12(%rbp), %eax
	addl	$-1, %eax
	movl	%eax, -12(%rbp)
	jmp	.LBB42_1
.LBB42_5:                               # %while.end
	cmpl	$0, -12(%rbp)
	jge	.LBB42_7
# %bb.6:                                # %if.then
	movl	$-1, -16(%rbp)
	jmp	.LBB42_8
.LBB42_7:                               # %if.else
	movl	-12(%rbp), %eax
	movl	%eax, -16(%rbp)
.LBB42_8:                               # %return
	movl	-16(%rbp), %ebx
	cmpl	$1728891736, -20(%rbp)  # imm = 0x670CCB58
	jne	.LBB42_10
.LBB42_9:
	movl	%ebx, %eax
	addq	$24, %rsp
	popq	%rbx
	popq	%rbp
	.cfi_def_cfa %rsp, 8
	retq
.LBB42_10:                              # %func_exit
	.cfi_def_cfa %rbp, 16
	callq	detect_breach
	jmp	.LBB42_9
.Lfunc_end42:
	.size	FmoGetPreviousMBNr.22, .Lfunc_end42-FmoGetPreviousMBNr.22
	.cfi_endproc
                                        # -- End function
	.globl	FmoSetLastMacroblockInSlice.23 # -- Begin function FmoSetLastMacroblockInSlice.23
	.p2align	4, 0x90
	.type	FmoSetLastMacroblockInSlice.23,@function
FmoSetLastMacroblockInSlice.23:         # @FmoSetLastMacroblockInSlice.23
	.cfi_startproc
# %bb.0:                                # %entry
	pushq	%rbp
	.cfi_def_cfa_offset 16
	.cfi_offset %rbp, -16
	movq	%rsp, %rbp
	.cfi_def_cfa_register %rbp
	subq	$16, %rsp
	movl	$261105182, -12(%rbp)   # imm = 0xF90261E
	movl	%edi, -4(%rbp)
	movl	-4(%rbp), %edi
	callq	FmoMB2SliceGroup
	movl	%eax, -8(%rbp)
	movl	-4(%rbp), %edi
	callq	FmoGetNextMBNr
	movl	%eax, -4(%rbp)
	movl	-4(%rbp), %eax
	movslq	-8(%rbp), %rcx
	movl	%eax, FirstMBInSlice(,%rcx,4)
	cmpl	$261105182, -12(%rbp)   # imm = 0xF90261E
	jne	.LBB43_2
.LBB43_1:
	addq	$16, %rsp
	popq	%rbp
	.cfi_def_cfa %rsp, 8
	retq
.LBB43_2:                               # %func_exit
	.cfi_def_cfa %rbp, 16
	callq	detect_breach
	jmp	.LBB43_1
.Lfunc_end43:
	.size	FmoSetLastMacroblockInSlice.23, .Lfunc_end43-FmoSetLastMacroblockInSlice.23
	.cfi_endproc
                                        # -- End function
	.globl	FmoGetLastCodedMBOfSliceGroup.24 # -- Begin function FmoGetLastCodedMBOfSliceGroup.24
	.p2align	4, 0x90
	.type	FmoGetLastCodedMBOfSliceGroup.24,@function
FmoGetLastCodedMBOfSliceGroup.24:       # @FmoGetLastCodedMBOfSliceGroup.24
	.cfi_startproc
# %bb.0:                                # %entry
	pushq	%rbp
	.cfi_def_cfa_offset 16
	.cfi_offset %rbp, -16
	movq	%rsp, %rbp
	.cfi_def_cfa_register %rbp
	pushq	%rbx
	subq	$24, %rsp
	.cfi_offset %rbx, -24
	movl	$1656371350, -24(%rbp)  # imm = 0x62BA3896
	movl	%edi, -20(%rbp)
	movl	$-1, -16(%rbp)
	movl	$0, -12(%rbp)
.LBB44_1:                               # %for.cond
                                        # =>This Inner Loop Header: Depth=1
	movl	-12(%rbp), %eax
	movq	img, %rcx
	cmpl	72484(%rcx), %eax
	jge	.LBB44_6
# %bb.2:                                # %for.body
                                        #   in Loop: Header=BB44_1 Depth=1
	movl	-12(%rbp), %edi
	callq	FmoMB2SliceGroup
	cmpl	-20(%rbp), %eax
	jne	.LBB44_4
# %bb.3:                                # %if.then
                                        #   in Loop: Header=BB44_1 Depth=1
	movl	-12(%rbp), %eax
	movl	%eax, -16(%rbp)
.LBB44_4:                               # %if.end
                                        #   in Loop: Header=BB44_1 Depth=1
	jmp	.LBB44_5
.LBB44_5:                               # %for.inc
                                        #   in Loop: Header=BB44_1 Depth=1
	movl	-12(%rbp), %eax
	addl	$1, %eax
	movl	%eax, -12(%rbp)
	jmp	.LBB44_1
.LBB44_6:                               # %for.end
	movl	-16(%rbp), %ebx
	cmpl	$1656371350, -24(%rbp)  # imm = 0x62BA3896
	jne	.LBB44_8
.LBB44_7:
	movl	%ebx, %eax
	addq	$24, %rsp
	popq	%rbx
	popq	%rbp
	.cfi_def_cfa %rsp, 8
	retq
.LBB44_8:                               # %func_exit
	.cfi_def_cfa %rbp, 16
	callq	detect_breach
	jmp	.LBB44_7
.Lfunc_end44:
	.size	FmoGetLastCodedMBOfSliceGroup.24, .Lfunc_end44-FmoGetLastCodedMBOfSliceGroup.24
	.cfi_endproc
                                        # -- End function
	.p2align	4, 0x90         # -- Begin function FmoGenerateMBAmap.25
	.type	FmoGenerateMBAmap.25,@function
FmoGenerateMBAmap.25:                   # @FmoGenerateMBAmap.25
	.cfi_startproc
# %bb.0:                                # %entry
	pushq	%rbp
	.cfi_def_cfa_offset 16
	.cfi_offset %rbp, -16
	movq	%rsp, %rbp
	.cfi_def_cfa_register %rbp
	subq	$32, %rsp
	movl	$856870955, -20(%rbp)   # imm = 0x3312D02B
	movq	%rdi, -16(%rbp)
	movq	%rsi, -32(%rbp)
	cmpq	$0, MBAmap
	je	.LBB45_2
# %bb.1:                                # %if.then
	movq	MBAmap, %rdi
	callq	free
.LBB45_2:                               # %if.end
	movq	-16(%rbp), %rax
	movl	72484(%rax), %edi
	shlq	$0, %rdi
	callq	malloc
	movq	%rax, MBAmap
	cmpq	$0, %rax
	jne	.LBB45_4
# %bb.3:                                # %if.then2
	movq	-16(%rbp), %rax
	movl	72484(%rax), %esi
	shlq	$0, %rsi
	movabsq	$.L.str.3, %rdi
	movb	$0, %al
	callq	printf
	movl	$4294967295, %edi       # imm = 0xFFFFFFFF
	callq	exit
.LBB45_4:                               # %if.end7
	movq	-32(%rbp), %rax
	cmpl	$0, 1148(%rax)
	jne	.LBB45_6
# %bb.5:                                # %lor.lhs.false
	movq	-16(%rbp), %rax
	cmpl	$0, 72444(%rax)
	je	.LBB45_11
.LBB45_6:                               # %if.then10
	movl	$0, -4(%rbp)
.LBB45_7:                               # %for.cond
                                        # =>This Inner Loop Header: Depth=1
	movl	-4(%rbp), %eax
	movq	-16(%rbp), %rcx
	cmpl	72484(%rcx), %eax
	jae	.LBB45_10
# %bb.8:                                # %for.body
                                        #   in Loop: Header=BB45_7 Depth=1
	movq	MapUnitToSliceGroupMap, %rax
	movl	-4(%rbp), %ecx
	movb	(%rax,%rcx), %al
	movq	MBAmap, %rcx
	movl	-4(%rbp), %edx
	movb	%al, (%rcx,%rdx)
# %bb.9:                                # %for.inc
                                        #   in Loop: Header=BB45_7 Depth=1
	movl	-4(%rbp), %eax
	addl	$1, %eax
	movl	%eax, -4(%rbp)
	jmp	.LBB45_7
.LBB45_10:                              # %for.end
	jmp	.LBB45_24
.LBB45_11:                              # %if.else
	movq	-32(%rbp), %rax
	cmpl	$0, 1152(%rax)
	je	.LBB45_18
# %bb.12:                               # %land.lhs.true
	movq	-16(%rbp), %rax
	cmpl	$0, 72444(%rax)
	jne	.LBB45_18
# %bb.13:                               # %if.then19
	movl	$0, -4(%rbp)
.LBB45_14:                              # %for.cond20
                                        # =>This Inner Loop Header: Depth=1
	movl	-4(%rbp), %eax
	movq	-16(%rbp), %rcx
	cmpl	72484(%rcx), %eax
	jae	.LBB45_17
# %bb.15:                               # %for.body24
                                        #   in Loop: Header=BB45_14 Depth=1
	movq	MapUnitToSliceGroupMap, %rax
	movl	-4(%rbp), %ecx
	shrl	$1, %ecx
	movl	%ecx, %ecx
	movb	(%rax,%rcx), %al
	movq	MBAmap, %rcx
	movl	-4(%rbp), %edx
	movb	%al, (%rcx,%rdx)
# %bb.16:                               # %for.inc29
                                        #   in Loop: Header=BB45_14 Depth=1
	movl	-4(%rbp), %eax
	addl	$1, %eax
	movl	%eax, -4(%rbp)
	jmp	.LBB45_14
.LBB45_17:                              # %for.end31
	jmp	.LBB45_23
.LBB45_18:                              # %if.else32
	movl	$0, -4(%rbp)
.LBB45_19:                              # %for.cond33
                                        # =>This Inner Loop Header: Depth=1
	movl	-4(%rbp), %eax
	movq	-16(%rbp), %rcx
	cmpl	72484(%rcx), %eax
	jae	.LBB45_22
# %bb.20:                               # %for.body37
                                        #   in Loop: Header=BB45_19 Depth=1
	movq	MapUnitToSliceGroupMap, %rsi
	movl	-4(%rbp), %eax
	movq	-16(%rbp), %rcx
	movl	72468(%rcx), %ecx
	shll	$1, %ecx
	xorl	%edx, %edx
	divl	%ecx
	movl	%eax, %ecx
	movq	-16(%rbp), %rax
	imull	72468(%rax), %ecx
	movl	-4(%rbp), %eax
	movq	-16(%rbp), %rdi
	xorl	%edx, %edx
	divl	72468(%rdi)
	addl	%edx, %ecx
	movl	%ecx, %eax
	movb	(%rsi,%rax), %al
	movq	MBAmap, %rcx
	movl	-4(%rbp), %edx
	movb	%al, (%rcx,%rdx)
# %bb.21:                               # %for.inc47
                                        #   in Loop: Header=BB45_19 Depth=1
	movl	-4(%rbp), %eax
	addl	$1, %eax
	movl	%eax, -4(%rbp)
	jmp	.LBB45_19
.LBB45_22:                              # %for.end49
	jmp	.LBB45_23
.LBB45_23:                              # %if.end50
	jmp	.LBB45_24
.LBB45_24:                              # %if.end51
	cmpl	$856870955, -20(%rbp)   # imm = 0x3312D02B
	jne	.LBB45_26
.LBB45_25:
	xorl	%eax, %eax
	addq	$32, %rsp
	popq	%rbp
	.cfi_def_cfa %rsp, 8
	retq
.LBB45_26:                              # %func_exit
	.cfi_def_cfa %rbp, 16
	callq	detect_breach
	jmp	.LBB45_25
.Lfunc_end45:
	.size	FmoGenerateMBAmap.25, .Lfunc_end45-FmoGenerateMBAmap.25
	.cfi_endproc
                                        # -- End function
	.p2align	4, 0x90         # -- Begin function FmoGenerateType0MapUnitMap.26
	.type	FmoGenerateType0MapUnitMap.26,@function
FmoGenerateType0MapUnitMap.26:          # @FmoGenerateType0MapUnitMap.26
	.cfi_startproc
# %bb.0:                                # %entry
	pushq	%rbp
	.cfi_def_cfa_offset 16
	.cfi_offset %rbp, -16
	movq	%rsp, %rbp
	.cfi_def_cfa_register %rbp
	subq	$48, %rsp
	movl	$724484953, -28(%rbp)   # imm = 0x2B2EC359
	movq	%rdi, -40(%rbp)
	movq	%rsi, -24(%rbp)
	movl	$0, -4(%rbp)
.LBB46_1:                               # %do.body
                                        # =>This Loop Header: Depth=1
                                        #     Child Loop BB46_2 Depth 2
                                        #       Child Loop BB46_6 Depth 3
	movl	$0, -12(%rbp)
.LBB46_2:                               # %for.cond
                                        #   Parent Loop BB46_1 Depth=1
                                        # =>  This Loop Header: Depth=2
                                        #       Child Loop BB46_6 Depth 3
	xorl	%eax, %eax
	movl	-12(%rbp), %ecx
	movq	-24(%rbp), %rdx
	cmpl	60(%rdx), %ecx
	ja	.LBB46_4
# %bb.3:                                # %land.rhs
                                        #   in Loop: Header=BB46_2 Depth=2
	movl	-4(%rbp), %eax
	cmpl	PicSizeInMapUnits, %eax
	setb	%al
.LBB46_4:                               # %land.end
                                        #   in Loop: Header=BB46_2 Depth=2
	testb	$1, %al
	jne	.LBB46_5
	jmp	.LBB46_13
.LBB46_5:                               # %for.body
                                        #   in Loop: Header=BB46_2 Depth=2
	movl	$0, -8(%rbp)
.LBB46_6:                               # %for.cond2
                                        #   Parent Loop BB46_1 Depth=1
                                        #     Parent Loop BB46_2 Depth=2
                                        # =>    This Inner Loop Header: Depth=3
	xorl	%eax, %eax
	movl	-8(%rbp), %ecx
	movq	-24(%rbp), %rdx
	movl	-12(%rbp), %esi
	cmpl	68(%rdx,%rsi,4), %ecx
	ja	.LBB46_8
# %bb.7:                                # %land.rhs4
                                        #   in Loop: Header=BB46_6 Depth=3
	movl	-4(%rbp), %eax
	addl	-8(%rbp), %eax
	cmpl	PicSizeInMapUnits, %eax
	setb	%al
.LBB46_8:                               # %land.end6
                                        #   in Loop: Header=BB46_6 Depth=3
	testb	$1, %al
	jne	.LBB46_9
	jmp	.LBB46_11
.LBB46_9:                               # %for.body7
                                        #   in Loop: Header=BB46_6 Depth=3
	movl	-12(%rbp), %eax
	movq	MapUnitToSliceGroupMap, %rcx
	movl	-4(%rbp), %edx
	addl	-8(%rbp), %edx
	movl	%edx, %edx
	movb	%al, (%rcx,%rdx)
# %bb.10:                               # %for.inc
                                        #   in Loop: Header=BB46_6 Depth=3
	movl	-8(%rbp), %eax
	addl	$1, %eax
	movl	%eax, -8(%rbp)
	jmp	.LBB46_6
.LBB46_11:                              # %for.end
                                        #   in Loop: Header=BB46_2 Depth=2
	jmp	.LBB46_12
.LBB46_12:                              # %for.inc11
                                        #   in Loop: Header=BB46_2 Depth=2
	movq	-24(%rbp), %rax
	movl	-12(%rbp), %ecx
	movl	%ecx, %edx
	addl	$1, %edx
	movl	%edx, -12(%rbp)
	movl	%ecx, %ecx
	movl	68(%rax,%rcx,4), %eax
	addl	$1, %eax
	addl	-4(%rbp), %eax
	movl	%eax, -4(%rbp)
	jmp	.LBB46_2
.LBB46_13:                              # %for.end18
                                        #   in Loop: Header=BB46_1 Depth=1
	jmp	.LBB46_14
.LBB46_14:                              # %do.cond
                                        #   in Loop: Header=BB46_1 Depth=1
	movl	-4(%rbp), %eax
	cmpl	PicSizeInMapUnits, %eax
	jb	.LBB46_1
# %bb.15:                               # %do.end
	cmpl	$724484953, -28(%rbp)   # imm = 0x2B2EC359
	jne	.LBB46_17
.LBB46_16:
	addq	$48, %rsp
	popq	%rbp
	.cfi_def_cfa %rsp, 8
	retq
.LBB46_17:                              # %func_exit
	.cfi_def_cfa %rbp, 16
	callq	detect_breach
	jmp	.LBB46_16
.Lfunc_end46:
	.size	FmoGenerateType0MapUnitMap.26, .Lfunc_end46-FmoGenerateType0MapUnitMap.26
	.cfi_endproc
                                        # -- End function
	.p2align	4, 0x90         # -- Begin function FmoGenerateMBAmap.27
	.type	FmoGenerateMBAmap.27,@function
FmoGenerateMBAmap.27:                   # @FmoGenerateMBAmap.27
	.cfi_startproc
# %bb.0:                                # %entry
	pushq	%rbp
	.cfi_def_cfa_offset 16
	.cfi_offset %rbp, -16
	movq	%rsp, %rbp
	.cfi_def_cfa_register %rbp
	subq	$32, %rsp
	movl	$1408273403, -20(%rbp)  # imm = 0x53F08BFB
	movq	%rdi, -16(%rbp)
	movq	%rsi, -32(%rbp)
	cmpq	$0, MBAmap
	je	.LBB47_2
# %bb.1:                                # %if.then
	movq	MBAmap, %rdi
	callq	free
.LBB47_2:                               # %if.end
	movq	-16(%rbp), %rax
	movl	72484(%rax), %edi
	shlq	$0, %rdi
	callq	malloc
	movq	%rax, MBAmap
	cmpq	$0, %rax
	jne	.LBB47_4
# %bb.3:                                # %if.then2
	movq	-16(%rbp), %rax
	movl	72484(%rax), %esi
	shlq	$0, %rsi
	movabsq	$.L.str.3, %rdi
	movb	$0, %al
	callq	printf
	movl	$4294967295, %edi       # imm = 0xFFFFFFFF
	callq	exit
.LBB47_4:                               # %if.end7
	movq	-32(%rbp), %rax
	cmpl	$0, 1148(%rax)
	jne	.LBB47_6
# %bb.5:                                # %lor.lhs.false
	movq	-16(%rbp), %rax
	cmpl	$0, 72444(%rax)
	je	.LBB47_11
.LBB47_6:                               # %if.then10
	movl	$0, -4(%rbp)
.LBB47_7:                               # %for.cond
                                        # =>This Inner Loop Header: Depth=1
	movl	-4(%rbp), %eax
	movq	-16(%rbp), %rcx
	cmpl	72484(%rcx), %eax
	jae	.LBB47_10
# %bb.8:                                # %for.body
                                        #   in Loop: Header=BB47_7 Depth=1
	movq	MapUnitToSliceGroupMap, %rax
	movl	-4(%rbp), %ecx
	movb	(%rax,%rcx), %al
	movq	MBAmap, %rcx
	movl	-4(%rbp), %edx
	movb	%al, (%rcx,%rdx)
# %bb.9:                                # %for.inc
                                        #   in Loop: Header=BB47_7 Depth=1
	movl	-4(%rbp), %eax
	addl	$1, %eax
	movl	%eax, -4(%rbp)
	jmp	.LBB47_7
.LBB47_10:                              # %for.end
	jmp	.LBB47_24
.LBB47_11:                              # %if.else
	movq	-32(%rbp), %rax
	cmpl	$0, 1152(%rax)
	je	.LBB47_18
# %bb.12:                               # %land.lhs.true
	movq	-16(%rbp), %rax
	cmpl	$0, 72444(%rax)
	jne	.LBB47_18
# %bb.13:                               # %if.then19
	movl	$0, -4(%rbp)
.LBB47_14:                              # %for.cond20
                                        # =>This Inner Loop Header: Depth=1
	movl	-4(%rbp), %eax
	movq	-16(%rbp), %rcx
	cmpl	72484(%rcx), %eax
	jae	.LBB47_17
# %bb.15:                               # %for.body24
                                        #   in Loop: Header=BB47_14 Depth=1
	movq	MapUnitToSliceGroupMap, %rax
	movl	-4(%rbp), %ecx
	shrl	$1, %ecx
	movl	%ecx, %ecx
	movb	(%rax,%rcx), %al
	movq	MBAmap, %rcx
	movl	-4(%rbp), %edx
	movb	%al, (%rcx,%rdx)
# %bb.16:                               # %for.inc29
                                        #   in Loop: Header=BB47_14 Depth=1
	movl	-4(%rbp), %eax
	addl	$1, %eax
	movl	%eax, -4(%rbp)
	jmp	.LBB47_14
.LBB47_17:                              # %for.end31
	jmp	.LBB47_23
.LBB47_18:                              # %if.else32
	movl	$0, -4(%rbp)
.LBB47_19:                              # %for.cond33
                                        # =>This Inner Loop Header: Depth=1
	movl	-4(%rbp), %eax
	movq	-16(%rbp), %rcx
	cmpl	72484(%rcx), %eax
	jae	.LBB47_22
# %bb.20:                               # %for.body37
                                        #   in Loop: Header=BB47_19 Depth=1
	movq	MapUnitToSliceGroupMap, %rsi
	movl	-4(%rbp), %eax
	movq	-16(%rbp), %rcx
	movl	72468(%rcx), %ecx
	shll	$1, %ecx
	xorl	%edx, %edx
	divl	%ecx
	movl	%eax, %ecx
	movq	-16(%rbp), %rax
	imull	72468(%rax), %ecx
	movl	-4(%rbp), %eax
	movq	-16(%rbp), %rdi
	xorl	%edx, %edx
	divl	72468(%rdi)
	addl	%edx, %ecx
	movl	%ecx, %eax
	movb	(%rsi,%rax), %al
	movq	MBAmap, %rcx
	movl	-4(%rbp), %edx
	movb	%al, (%rcx,%rdx)
# %bb.21:                               # %for.inc47
                                        #   in Loop: Header=BB47_19 Depth=1
	movl	-4(%rbp), %eax
	addl	$1, %eax
	movl	%eax, -4(%rbp)
	jmp	.LBB47_19
.LBB47_22:                              # %for.end49
	jmp	.LBB47_23
.LBB47_23:                              # %if.end50
	jmp	.LBB47_24
.LBB47_24:                              # %if.end51
	cmpl	$1408273403, -20(%rbp)  # imm = 0x53F08BFB
	jne	.LBB47_26
.LBB47_25:
	xorl	%eax, %eax
	addq	$32, %rsp
	popq	%rbp
	.cfi_def_cfa %rsp, 8
	retq
.LBB47_26:                              # %func_exit
	.cfi_def_cfa %rbp, 16
	callq	detect_breach
	jmp	.LBB47_25
.Lfunc_end47:
	.size	FmoGenerateMBAmap.27, .Lfunc_end47-FmoGenerateMBAmap.27
	.cfi_endproc
                                        # -- End function
	.p2align	4, 0x90         # -- Begin function FmoGenerateMapUnitToSliceGroupMap.28
	.type	FmoGenerateMapUnitToSliceGroupMap.28,@function
FmoGenerateMapUnitToSliceGroupMap.28:   # @FmoGenerateMapUnitToSliceGroupMap.28
	.cfi_startproc
# %bb.0:                                # %entry
	pushq	%rbp
	.cfi_def_cfa_offset 16
	.cfi_offset %rbp, -16
	movq	%rsp, %rbp
	.cfi_def_cfa_register %rbp
	pushq	%rbx
	subq	$24, %rsp
	.cfi_offset %rbx, -24
	movl	$63546429, -32(%rbp)    # imm = 0x3C9A43D
	movq	%rdi, -24(%rbp)
	movq	%rsi, -16(%rbp)
	movq	-24(%rbp), %rax
	movl	72472(%rax), %eax
	movq	-24(%rbp), %rcx
	imull	72468(%rcx), %eax
	movl	%eax, PicSizeInMapUnits
	movq	-16(%rbp), %rax
	cmpl	$6, 64(%rax)
	jne	.LBB48_4
# %bb.1:                                # %if.then
	movq	-16(%rbp), %rax
	movl	172(%rax), %eax
	addl	$1, %eax
	cmpl	PicSizeInMapUnits, %eax
	je	.LBB48_3
# %bb.2:                                # %if.then2
	movabsq	$.L.str, %rdi
	movl	$500, %esi              # imm = 0x1F4
	callq	error
.LBB48_3:                               # %if.end
	jmp	.LBB48_4
.LBB48_4:                               # %if.end3
	cmpq	$0, MapUnitToSliceGroupMap
	je	.LBB48_6
# %bb.5:                                # %if.then4
	movq	MapUnitToSliceGroupMap, %rdi
	callq	free
.LBB48_6:                               # %if.end5
	movl	PicSizeInMapUnits, %edi
	shlq	$0, %rdi
	callq	malloc
	movq	%rax, MapUnitToSliceGroupMap
	cmpq	$0, %rax
	jne	.LBB48_8
# %bb.7:                                # %if.then9
	movl	PicSizeInMapUnits, %esi
	shlq	$0, %rsi
	movabsq	$.L.str.1, %rdi
	movb	$0, %al
	callq	printf
	movl	$4294967295, %edi       # imm = 0xFFFFFFFF
	callq	exit
.LBB48_8:                               # %if.end13
	movq	-16(%rbp), %rax
	cmpl	$0, 60(%rax)
	jne	.LBB48_10
# %bb.9:                                # %if.then16
	movq	MapUnitToSliceGroupMap, %rdi
	movl	PicSizeInMapUnits, %edx
	shlq	$0, %rdx
	xorl	%esi, %esi
	callq	memset
	movl	$0, -28(%rbp)
	jmp	.LBB48_21
.LBB48_10:                              # %if.end19
	movq	-16(%rbp), %rax
	movl	64(%rax), %eax
	movq	%rax, %rcx
	subq	$6, %rcx
	ja	.LBB48_19
# %bb.11:                               # %if.end19
	movq	.LJTI48_0(,%rax,8), %rax
	jmpq	*%rax
.LBB48_12:                              # %sw.bb
	movq	-24(%rbp), %rdi
	movq	-16(%rbp), %rsi
	callq	FmoGenerateType0MapUnitMap
	jmp	.LBB48_20
.LBB48_13:                              # %sw.bb21
	movq	-24(%rbp), %rdi
	movq	-16(%rbp), %rsi
	callq	FmoGenerateType1MapUnitMap
	jmp	.LBB48_20
.LBB48_14:                              # %sw.bb22
	movq	-24(%rbp), %rdi
	movq	-16(%rbp), %rsi
	callq	FmoGenerateType2MapUnitMap
	jmp	.LBB48_20
.LBB48_15:                              # %sw.bb23
	movq	-24(%rbp), %rdi
	movq	-16(%rbp), %rsi
	callq	FmoGenerateType3MapUnitMap
	jmp	.LBB48_20
.LBB48_16:                              # %sw.bb24
	movq	-24(%rbp), %rdi
	movq	-16(%rbp), %rsi
	callq	FmoGenerateType4MapUnitMap
	jmp	.LBB48_20
.LBB48_17:                              # %sw.bb25
	movq	-24(%rbp), %rdi
	movq	-16(%rbp), %rsi
	callq	FmoGenerateType5MapUnitMap
	jmp	.LBB48_20
.LBB48_18:                              # %sw.bb26
	movq	-24(%rbp), %rdi
	movq	-16(%rbp), %rsi
	callq	FmoGenerateType6MapUnitMap
	jmp	.LBB48_20
.LBB48_19:                              # %sw.default
	movq	-16(%rbp), %rax
	movl	64(%rax), %esi
	movabsq	$.L.str.2, %rdi
	movb	$0, %al
	callq	printf
	movl	$4294967295, %edi       # imm = 0xFFFFFFFF
	callq	exit
.LBB48_20:                              # %sw.epilog
	movl	$0, -28(%rbp)
.LBB48_21:                              # %return
	movl	-28(%rbp), %ebx
	cmpl	$63546429, -32(%rbp)    # imm = 0x3C9A43D
	jne	.LBB48_23
.LBB48_22:
	movl	%ebx, %eax
	addq	$24, %rsp
	popq	%rbx
	popq	%rbp
	.cfi_def_cfa %rsp, 8
	retq
.LBB48_23:                              # %func_exit
	.cfi_def_cfa %rbp, 16
	callq	detect_breach
	jmp	.LBB48_22
.Lfunc_end48:
	.size	FmoGenerateMapUnitToSliceGroupMap.28, .Lfunc_end48-FmoGenerateMapUnitToSliceGroupMap.28
	.cfi_endproc
	.section	.rodata,"a",@progbits
	.p2align	3
.LJTI48_0:
	.quad	.LBB48_12
	.quad	.LBB48_13
	.quad	.LBB48_14
	.quad	.LBB48_15
	.quad	.LBB48_16
	.quad	.LBB48_17
	.quad	.LBB48_18
                                        # -- End function
	.text
	.p2align	4, 0x90         # -- Begin function FmoGenerateType5MapUnitMap.29
	.type	FmoGenerateType5MapUnitMap.29,@function
FmoGenerateType5MapUnitMap.29:          # @FmoGenerateType5MapUnitMap.29
	.cfi_startproc
# %bb.0:                                # %entry
	pushq	%rbp
	.cfi_def_cfa_offset 16
	.cfi_offset %rbp, -16
	movq	%rsp, %rbp
	.cfi_def_cfa_register %rbp
	subq	$48, %rsp
	movl	$836251247, -36(%rbp)   # imm = 0x31D82E6F
	movq	%rdi, -16(%rbp)
	movq	%rsi, -24(%rbp)
	movq	-24(%rbp), %rax
	movl	168(%rax), %eax
	addl	$1, %eax
	movq	-16(%rbp), %rcx
	imull	72652(%rcx), %eax
	cmpl	PicSizeInMapUnits, %eax
	jae	.LBB49_2
# %bb.1:                                # %cond.true
	movq	-24(%rbp), %rax
	movl	168(%rax), %eax
	addl	$1, %eax
	movq	-16(%rbp), %rcx
	imull	72652(%rcx), %eax
	jmp	.LBB49_3
.LBB49_2:                               # %cond.false
	movl	PicSizeInMapUnits, %eax
.LBB49_3:                               # %cond.end
	movl	%eax, -28(%rbp)
	movq	-24(%rbp), %rax
	cmpl	$0, 164(%rax)
	je	.LBB49_5
# %bb.4:                                # %cond.true5
	movl	PicSizeInMapUnits, %eax
	subl	-28(%rbp), %eax
	jmp	.LBB49_6
.LBB49_5:                               # %cond.false6
	movl	-28(%rbp), %eax
.LBB49_6:                               # %cond.end7
	movl	%eax, -40(%rbp)
	movl	$0, -32(%rbp)
	movl	$0, -4(%rbp)
.LBB49_7:                               # %for.cond
                                        # =>This Loop Header: Depth=1
                                        #     Child Loop BB49_9 Depth 2
	movl	-4(%rbp), %eax
	movq	-16(%rbp), %rcx
	cmpl	72468(%rcx), %eax
	jae	.LBB49_17
# %bb.8:                                # %for.body
                                        #   in Loop: Header=BB49_7 Depth=1
	movl	$0, -8(%rbp)
.LBB49_9:                               # %for.cond10
                                        #   Parent Loop BB49_7 Depth=1
                                        # =>  This Inner Loop Header: Depth=2
	movl	-8(%rbp), %eax
	movq	-16(%rbp), %rcx
	cmpl	72472(%rcx), %eax
	jae	.LBB49_15
# %bb.10:                               # %for.body12
                                        #   in Loop: Header=BB49_9 Depth=2
	movl	-32(%rbp), %eax
	movl	%eax, %ecx
	addl	$1, %ecx
	movl	%ecx, -32(%rbp)
	cmpl	-40(%rbp), %eax
	jae	.LBB49_12
# %bb.11:                               # %if.then
                                        #   in Loop: Header=BB49_9 Depth=2
	movq	-24(%rbp), %rax
	movl	$1, %ecx
	subl	164(%rax), %ecx
	movq	MapUnitToSliceGroupMap, %rax
	movl	-8(%rbp), %edx
	movq	-16(%rbp), %rsi
	imull	72468(%rsi), %edx
	addl	-4(%rbp), %edx
	movl	%edx, %edx
	movb	%cl, (%rax,%rdx)
	jmp	.LBB49_13
.LBB49_12:                              # %if.else
                                        #   in Loop: Header=BB49_9 Depth=2
	movq	-24(%rbp), %rax
	movl	164(%rax), %eax
	movq	MapUnitToSliceGroupMap, %rcx
	movl	-8(%rbp), %edx
	movq	-16(%rbp), %rsi
	imull	72468(%rsi), %edx
	addl	-4(%rbp), %edx
	movl	%edx, %edx
	movb	%al, (%rcx,%rdx)
.LBB49_13:                              # %if.end
                                        #   in Loop: Header=BB49_9 Depth=2
	jmp	.LBB49_14
.LBB49_14:                              # %for.inc
                                        #   in Loop: Header=BB49_9 Depth=2
	movl	-8(%rbp), %eax
	addl	$1, %eax
	movl	%eax, -8(%rbp)
	jmp	.LBB49_9
.LBB49_15:                              # %for.end
                                        #   in Loop: Header=BB49_7 Depth=1
	jmp	.LBB49_16
.LBB49_16:                              # %for.inc27
                                        #   in Loop: Header=BB49_7 Depth=1
	movl	-4(%rbp), %eax
	addl	$1, %eax
	movl	%eax, -4(%rbp)
	jmp	.LBB49_7
.LBB49_17:                              # %for.end29
	cmpl	$836251247, -36(%rbp)   # imm = 0x31D82E6F
	jne	.LBB49_19
.LBB49_18:
	addq	$48, %rsp
	popq	%rbp
	.cfi_def_cfa %rsp, 8
	retq
.LBB49_19:                              # %func_exit
	.cfi_def_cfa %rbp, 16
	callq	detect_breach
	jmp	.LBB49_18
.Lfunc_end49:
	.size	FmoGenerateType5MapUnitMap.29, .Lfunc_end49-FmoGenerateType5MapUnitMap.29
	.cfi_endproc
                                        # -- End function
	.p2align	4, 0x90         # -- Begin function FmoGenerateType3MapUnitMap.30
	.type	FmoGenerateType3MapUnitMap.30,@function
FmoGenerateType3MapUnitMap.30:          # @FmoGenerateType3MapUnitMap.30
	.cfi_startproc
# %bb.0:                                # %entry
	pushq	%rbp
	.cfi_def_cfa_offset 16
	.cfi_offset %rbp, -16
	movq	%rsp, %rbp
	.cfi_def_cfa_register %rbp
	subq	$80, %rsp
	movl	$832213147, -64(%rbp)   # imm = 0x319A909B
	movq	%rdi, -40(%rbp)
	movq	%rsi, -48(%rbp)
	movq	-48(%rbp), %rax
	movl	168(%rax), %eax
	addl	$1, %eax
	movq	-40(%rbp), %rcx
	imull	72652(%rcx), %eax
	cmpl	PicSizeInMapUnits, %eax
	jae	.LBB50_2
# %bb.1:                                # %cond.true
	movq	-48(%rbp), %rax
	movl	168(%rax), %eax
	addl	$1, %eax
	movq	-40(%rbp), %rcx
	imull	72652(%rcx), %eax
	jmp	.LBB50_3
.LBB50_2:                               # %cond.false
	movl	PicSizeInMapUnits, %eax
.LBB50_3:                               # %cond.end
	movl	%eax, -68(%rbp)
	movl	$0, -52(%rbp)
.LBB50_4:                               # %for.cond
                                        # =>This Inner Loop Header: Depth=1
	movl	-52(%rbp), %eax
	cmpl	PicSizeInMapUnits, %eax
	jae	.LBB50_7
# %bb.5:                                # %for.body
                                        #   in Loop: Header=BB50_4 Depth=1
	movq	MapUnitToSliceGroupMap, %rax
	movl	-52(%rbp), %ecx
	movb	$2, (%rax,%rcx)
# %bb.6:                                # %for.inc
                                        #   in Loop: Header=BB50_4 Depth=1
	movl	-52(%rbp), %eax
	addl	$1, %eax
	movl	%eax, -52(%rbp)
	jmp	.LBB50_4
.LBB50_7:                               # %for.end
	movq	-40(%rbp), %rax
	movl	72468(%rax), %eax
	movq	-48(%rbp), %rcx
	subl	164(%rcx), %eax
	shrl	$1, %eax
	movl	%eax, -4(%rbp)
	movq	-40(%rbp), %rax
	movl	72472(%rax), %eax
	movq	-48(%rbp), %rcx
	subl	164(%rcx), %eax
	shrl	$1, %eax
	movl	%eax, -8(%rbp)
	movl	-4(%rbp), %eax
	movl	%eax, -24(%rbp)
	movl	-8(%rbp), %eax
	movl	%eax, -20(%rbp)
	movl	-4(%rbp), %eax
	movl	%eax, -32(%rbp)
	movl	-8(%rbp), %eax
	movl	%eax, -28(%rbp)
	movq	-48(%rbp), %rax
	movl	164(%rax), %eax
	subl	$1, %eax
	movl	%eax, -16(%rbp)
	movq	-48(%rbp), %rax
	movl	164(%rax), %eax
	movl	%eax, -12(%rbp)
	movl	$0, -56(%rbp)
.LBB50_8:                               # %for.cond12
                                        # =>This Inner Loop Header: Depth=1
	movl	-56(%rbp), %eax
	cmpl	PicSizeInMapUnits, %eax
	jae	.LBB50_41
# %bb.9:                                # %for.body14
                                        #   in Loop: Header=BB50_8 Depth=1
	movq	MapUnitToSliceGroupMap, %rax
	movl	-8(%rbp), %ecx
	movq	-40(%rbp), %rdx
	imull	72468(%rdx), %ecx
	addl	-4(%rbp), %ecx
	movl	%ecx, %ecx
	movzbl	(%rax,%rcx), %eax
	cmpl	$2, %eax
	sete	%al
	andb	$1, %al
	movzbl	%al, %eax
	movl	%eax, -60(%rbp)
	cmpl	$0, -60(%rbp)
	je	.LBB50_11
# %bb.10:                               # %if.then
                                        #   in Loop: Header=BB50_8 Depth=1
	movl	-56(%rbp), %eax
	cmpl	-68(%rbp), %eax
	setae	%al
	andb	$1, %al
	movzbl	%al, %eax
	movq	MapUnitToSliceGroupMap, %rcx
	movl	-8(%rbp), %edx
	movq	-40(%rbp), %rsi
	imull	72468(%rsi), %edx
	addl	-4(%rbp), %edx
	movl	%edx, %edx
	movb	%al, (%rcx,%rdx)
.LBB50_11:                              # %if.end
                                        #   in Loop: Header=BB50_8 Depth=1
	cmpl	$-1, -16(%rbp)
	jne	.LBB50_17
# %bb.12:                               # %land.lhs.true
                                        #   in Loop: Header=BB50_8 Depth=1
	movl	-4(%rbp), %eax
	cmpl	-24(%rbp), %eax
	jne	.LBB50_17
# %bb.13:                               # %if.then34
                                        #   in Loop: Header=BB50_8 Depth=1
	movl	-24(%rbp), %eax
	subl	$1, %eax
	cmpl	$0, %eax
	jle	.LBB50_15
# %bb.14:                               # %cond.true38
                                        #   in Loop: Header=BB50_8 Depth=1
	movl	-24(%rbp), %eax
	subl	$1, %eax
	jmp	.LBB50_16
.LBB50_15:                              # %cond.false40
                                        #   in Loop: Header=BB50_8 Depth=1
	xorl	%eax, %eax
	jmp	.LBB50_16
.LBB50_16:                              # %cond.end41
                                        #   in Loop: Header=BB50_8 Depth=1
	movl	%eax, -24(%rbp)
	movl	-24(%rbp), %eax
	movl	%eax, -4(%rbp)
	movl	$0, -16(%rbp)
	movq	-48(%rbp), %rax
	movl	164(%rax), %eax
	shll	$1, %eax
	subl	$1, %eax
	movl	%eax, -12(%rbp)
	jmp	.LBB50_39
.LBB50_17:                              # %if.else
                                        #   in Loop: Header=BB50_8 Depth=1
	cmpl	$1, -16(%rbp)
	jne	.LBB50_23
# %bb.18:                               # %land.lhs.true48
                                        #   in Loop: Header=BB50_8 Depth=1
	movl	-4(%rbp), %eax
	cmpl	-32(%rbp), %eax
	jne	.LBB50_23
# %bb.19:                               # %if.then51
                                        #   in Loop: Header=BB50_8 Depth=1
	movl	-32(%rbp), %eax
	addl	$1, %eax
	movq	-40(%rbp), %rcx
	movl	72468(%rcx), %ecx
	subl	$1, %ecx
	cmpl	%ecx, %eax
	jge	.LBB50_21
# %bb.20:                               # %cond.true57
                                        #   in Loop: Header=BB50_8 Depth=1
	movl	-32(%rbp), %eax
	addl	$1, %eax
	jmp	.LBB50_22
.LBB50_21:                              # %cond.false59
                                        #   in Loop: Header=BB50_8 Depth=1
	movq	-40(%rbp), %rax
	movl	72468(%rax), %eax
	subl	$1, %eax
.LBB50_22:                              # %cond.end62
                                        #   in Loop: Header=BB50_8 Depth=1
	movl	%eax, -32(%rbp)
	movl	-32(%rbp), %eax
	movl	%eax, -4(%rbp)
	movl	$0, -16(%rbp)
	movq	-48(%rbp), %rax
	movl	164(%rax), %eax
	shll	$1, %eax
	movl	$1, %ecx
	subl	%eax, %ecx
	movl	%ecx, -12(%rbp)
	jmp	.LBB50_38
.LBB50_23:                              # %if.else67
                                        #   in Loop: Header=BB50_8 Depth=1
	cmpl	$-1, -12(%rbp)
	jne	.LBB50_29
# %bb.24:                               # %land.lhs.true70
                                        #   in Loop: Header=BB50_8 Depth=1
	movl	-8(%rbp), %eax
	cmpl	-20(%rbp), %eax
	jne	.LBB50_29
# %bb.25:                               # %if.then73
                                        #   in Loop: Header=BB50_8 Depth=1
	movl	-20(%rbp), %eax
	subl	$1, %eax
	cmpl	$0, %eax
	jle	.LBB50_27
# %bb.26:                               # %cond.true77
                                        #   in Loop: Header=BB50_8 Depth=1
	movl	-20(%rbp), %eax
	subl	$1, %eax
	jmp	.LBB50_28
.LBB50_27:                              # %cond.false79
                                        #   in Loop: Header=BB50_8 Depth=1
	xorl	%eax, %eax
	jmp	.LBB50_28
.LBB50_28:                              # %cond.end80
                                        #   in Loop: Header=BB50_8 Depth=1
	movl	%eax, -20(%rbp)
	movl	-20(%rbp), %eax
	movl	%eax, -8(%rbp)
	movq	-48(%rbp), %rax
	movl	164(%rax), %eax
	shll	$1, %eax
	movl	$1, %ecx
	subl	%eax, %ecx
	movl	%ecx, -16(%rbp)
	movl	$0, -12(%rbp)
	jmp	.LBB50_37
.LBB50_29:                              # %if.else85
                                        #   in Loop: Header=BB50_8 Depth=1
	cmpl	$1, -12(%rbp)
	jne	.LBB50_35
# %bb.30:                               # %land.lhs.true88
                                        #   in Loop: Header=BB50_8 Depth=1
	movl	-8(%rbp), %eax
	cmpl	-28(%rbp), %eax
	jne	.LBB50_35
# %bb.31:                               # %if.then91
                                        #   in Loop: Header=BB50_8 Depth=1
	movl	-28(%rbp), %eax
	addl	$1, %eax
	movq	-40(%rbp), %rcx
	movl	72472(%rcx), %ecx
	subl	$1, %ecx
	cmpl	%ecx, %eax
	jge	.LBB50_33
# %bb.32:                               # %cond.true97
                                        #   in Loop: Header=BB50_8 Depth=1
	movl	-28(%rbp), %eax
	addl	$1, %eax
	jmp	.LBB50_34
.LBB50_33:                              # %cond.false99
                                        #   in Loop: Header=BB50_8 Depth=1
	movq	-40(%rbp), %rax
	movl	72472(%rax), %eax
	subl	$1, %eax
.LBB50_34:                              # %cond.end102
                                        #   in Loop: Header=BB50_8 Depth=1
	movl	%eax, -28(%rbp)
	movl	-28(%rbp), %eax
	movl	%eax, -8(%rbp)
	movq	-48(%rbp), %rax
	movl	164(%rax), %eax
	shll	$1, %eax
	subl	$1, %eax
	movl	%eax, -16(%rbp)
	movl	$0, -12(%rbp)
	jmp	.LBB50_36
.LBB50_35:                              # %if.else107
                                        #   in Loop: Header=BB50_8 Depth=1
	movl	-4(%rbp), %eax
	addl	-16(%rbp), %eax
	movl	%eax, -4(%rbp)
	movl	-8(%rbp), %eax
	addl	-12(%rbp), %eax
	movl	%eax, -8(%rbp)
.LBB50_36:                              # %if.end110
                                        #   in Loop: Header=BB50_8 Depth=1
	jmp	.LBB50_37
.LBB50_37:                              # %if.end111
                                        #   in Loop: Header=BB50_8 Depth=1
	jmp	.LBB50_38
.LBB50_38:                              # %if.end112
                                        #   in Loop: Header=BB50_8 Depth=1
	jmp	.LBB50_39
.LBB50_39:                              # %if.end113
                                        #   in Loop: Header=BB50_8 Depth=1
	jmp	.LBB50_40
.LBB50_40:                              # %for.inc114
                                        #   in Loop: Header=BB50_8 Depth=1
	movl	-60(%rbp), %eax
	addl	-56(%rbp), %eax
	movl	%eax, -56(%rbp)
	jmp	.LBB50_8
.LBB50_41:                              # %for.end116
	cmpl	$832213147, -64(%rbp)   # imm = 0x319A909B
	jne	.LBB50_43
.LBB50_42:
	addq	$80, %rsp
	popq	%rbp
	.cfi_def_cfa %rsp, 8
	retq
.LBB50_43:                              # %func_exit
	.cfi_def_cfa %rbp, 16
	callq	detect_breach
	jmp	.LBB50_42
.Lfunc_end50:
	.size	FmoGenerateType3MapUnitMap.30, .Lfunc_end50-FmoGenerateType3MapUnitMap.30
	.cfi_endproc
                                        # -- End function
	.p2align	4, 0x90         # -- Begin function FmoGenerateType0MapUnitMap.31
	.type	FmoGenerateType0MapUnitMap.31,@function
FmoGenerateType0MapUnitMap.31:          # @FmoGenerateType0MapUnitMap.31
	.cfi_startproc
# %bb.0:                                # %entry
	pushq	%rbp
	.cfi_def_cfa_offset 16
	.cfi_offset %rbp, -16
	movq	%rsp, %rbp
	.cfi_def_cfa_register %rbp
	subq	$48, %rsp
	movl	$1445349031, -28(%rbp)  # imm = 0x562646A7
	movq	%rdi, -40(%rbp)
	movq	%rsi, -24(%rbp)
	movl	$0, -4(%rbp)
.LBB51_1:                               # %do.body
                                        # =>This Loop Header: Depth=1
                                        #     Child Loop BB51_2 Depth 2
                                        #       Child Loop BB51_6 Depth 3
	movl	$0, -12(%rbp)
.LBB51_2:                               # %for.cond
                                        #   Parent Loop BB51_1 Depth=1
                                        # =>  This Loop Header: Depth=2
                                        #       Child Loop BB51_6 Depth 3
	xorl	%eax, %eax
	movl	-12(%rbp), %ecx
	movq	-24(%rbp), %rdx
	cmpl	60(%rdx), %ecx
	ja	.LBB51_4
# %bb.3:                                # %land.rhs
                                        #   in Loop: Header=BB51_2 Depth=2
	movl	-4(%rbp), %eax
	cmpl	PicSizeInMapUnits, %eax
	setb	%al
.LBB51_4:                               # %land.end
                                        #   in Loop: Header=BB51_2 Depth=2
	testb	$1, %al
	jne	.LBB51_5
	jmp	.LBB51_13
.LBB51_5:                               # %for.body
                                        #   in Loop: Header=BB51_2 Depth=2
	movl	$0, -8(%rbp)
.LBB51_6:                               # %for.cond2
                                        #   Parent Loop BB51_1 Depth=1
                                        #     Parent Loop BB51_2 Depth=2
                                        # =>    This Inner Loop Header: Depth=3
	xorl	%eax, %eax
	movl	-8(%rbp), %ecx
	movq	-24(%rbp), %rdx
	movl	-12(%rbp), %esi
	cmpl	68(%rdx,%rsi,4), %ecx
	ja	.LBB51_8
# %bb.7:                                # %land.rhs4
                                        #   in Loop: Header=BB51_6 Depth=3
	movl	-4(%rbp), %eax
	addl	-8(%rbp), %eax
	cmpl	PicSizeInMapUnits, %eax
	setb	%al
.LBB51_8:                               # %land.end6
                                        #   in Loop: Header=BB51_6 Depth=3
	testb	$1, %al
	jne	.LBB51_9
	jmp	.LBB51_11
.LBB51_9:                               # %for.body7
                                        #   in Loop: Header=BB51_6 Depth=3
	movl	-12(%rbp), %eax
	movq	MapUnitToSliceGroupMap, %rcx
	movl	-4(%rbp), %edx
	addl	-8(%rbp), %edx
	movl	%edx, %edx
	movb	%al, (%rcx,%rdx)
# %bb.10:                               # %for.inc
                                        #   in Loop: Header=BB51_6 Depth=3
	movl	-8(%rbp), %eax
	addl	$1, %eax
	movl	%eax, -8(%rbp)
	jmp	.LBB51_6
.LBB51_11:                              # %for.end
                                        #   in Loop: Header=BB51_2 Depth=2
	jmp	.LBB51_12
.LBB51_12:                              # %for.inc11
                                        #   in Loop: Header=BB51_2 Depth=2
	movq	-24(%rbp), %rax
	movl	-12(%rbp), %ecx
	movl	%ecx, %edx
	addl	$1, %edx
	movl	%edx, -12(%rbp)
	movl	%ecx, %ecx
	movl	68(%rax,%rcx,4), %eax
	addl	$1, %eax
	addl	-4(%rbp), %eax
	movl	%eax, -4(%rbp)
	jmp	.LBB51_2
.LBB51_13:                              # %for.end18
                                        #   in Loop: Header=BB51_1 Depth=1
	jmp	.LBB51_14
.LBB51_14:                              # %do.cond
                                        #   in Loop: Header=BB51_1 Depth=1
	movl	-4(%rbp), %eax
	cmpl	PicSizeInMapUnits, %eax
	jb	.LBB51_1
# %bb.15:                               # %do.end
	cmpl	$1445349031, -28(%rbp)  # imm = 0x562646A7
	jne	.LBB51_17
.LBB51_16:
	addq	$48, %rsp
	popq	%rbp
	.cfi_def_cfa %rsp, 8
	retq
.LBB51_17:                              # %func_exit
	.cfi_def_cfa %rbp, 16
	callq	detect_breach
	jmp	.LBB51_16
.Lfunc_end51:
	.size	FmoGenerateType0MapUnitMap.31, .Lfunc_end51-FmoGenerateType0MapUnitMap.31
	.cfi_endproc
                                        # -- End function
	.p2align	4, 0x90         # -- Begin function FmoGenerateType4MapUnitMap.32
	.type	FmoGenerateType4MapUnitMap.32,@function
FmoGenerateType4MapUnitMap.32:          # @FmoGenerateType4MapUnitMap.32
	.cfi_startproc
# %bb.0:                                # %entry
	pushq	%rbp
	.cfi_def_cfa_offset 16
	.cfi_offset %rbp, -16
	movq	%rsp, %rbp
	.cfi_def_cfa_register %rbp
	subq	$48, %rsp
	movl	$1632963771, -28(%rbp)  # imm = 0x61550CBB
	movq	%rdi, -40(%rbp)
	movq	%rsi, -16(%rbp)
	movq	-16(%rbp), %rax
	movl	168(%rax), %eax
	addl	$1, %eax
	movq	-40(%rbp), %rcx
	imull	72652(%rcx), %eax
	cmpl	PicSizeInMapUnits, %eax
	jae	.LBB52_2
# %bb.1:                                # %cond.true
	movq	-16(%rbp), %rax
	movl	168(%rax), %eax
	addl	$1, %eax
	movq	-40(%rbp), %rcx
	imull	72652(%rcx), %eax
	jmp	.LBB52_3
.LBB52_2:                               # %cond.false
	movl	PicSizeInMapUnits, %eax
.LBB52_3:                               # %cond.end
	movl	%eax, -20(%rbp)
	movq	-16(%rbp), %rax
	cmpl	$0, 164(%rax)
	je	.LBB52_5
# %bb.4:                                # %cond.true5
	movl	PicSizeInMapUnits, %eax
	subl	-20(%rbp), %eax
	jmp	.LBB52_6
.LBB52_5:                               # %cond.false6
	movl	-20(%rbp), %eax
.LBB52_6:                               # %cond.end7
	movl	%eax, -24(%rbp)
	movl	$0, -4(%rbp)
.LBB52_7:                               # %for.cond
                                        # =>This Inner Loop Header: Depth=1
	movl	-4(%rbp), %eax
	cmpl	PicSizeInMapUnits, %eax
	jae	.LBB52_13
# %bb.8:                                # %for.body
                                        #   in Loop: Header=BB52_7 Depth=1
	movl	-4(%rbp), %eax
	cmpl	-24(%rbp), %eax
	jae	.LBB52_10
# %bb.9:                                # %if.then
                                        #   in Loop: Header=BB52_7 Depth=1
	movq	-16(%rbp), %rax
	movl	164(%rax), %eax
	movq	MapUnitToSliceGroupMap, %rcx
	movl	-4(%rbp), %edx
	movb	%al, (%rcx,%rdx)
	jmp	.LBB52_11
.LBB52_10:                              # %if.else
                                        #   in Loop: Header=BB52_7 Depth=1
	movq	-16(%rbp), %rax
	movl	$1, %ecx
	subl	164(%rax), %ecx
	movq	MapUnitToSliceGroupMap, %rax
	movl	-4(%rbp), %edx
	movb	%cl, (%rax,%rdx)
.LBB52_11:                              # %if.end
                                        #   in Loop: Header=BB52_7 Depth=1
	jmp	.LBB52_12
.LBB52_12:                              # %for.inc
                                        #   in Loop: Header=BB52_7 Depth=1
	movl	-4(%rbp), %eax
	addl	$1, %eax
	movl	%eax, -4(%rbp)
	jmp	.LBB52_7
.LBB52_13:                              # %for.end
	cmpl	$1632963771, -28(%rbp)  # imm = 0x61550CBB
	jne	.LBB52_15
.LBB52_14:
	addq	$48, %rsp
	popq	%rbp
	.cfi_def_cfa %rsp, 8
	retq
.LBB52_15:                              # %func_exit
	.cfi_def_cfa %rbp, 16
	callq	detect_breach
	jmp	.LBB52_14
.Lfunc_end52:
	.size	FmoGenerateType4MapUnitMap.32, .Lfunc_end52-FmoGenerateType4MapUnitMap.32
	.cfi_endproc
                                        # -- End function
	.p2align	4, 0x90         # -- Begin function FmoGenerateMBAmap.33
	.type	FmoGenerateMBAmap.33,@function
FmoGenerateMBAmap.33:                   # @FmoGenerateMBAmap.33
	.cfi_startproc
# %bb.0:                                # %entry
	pushq	%rbp
	.cfi_def_cfa_offset 16
	.cfi_offset %rbp, -16
	movq	%rsp, %rbp
	.cfi_def_cfa_register %rbp
	subq	$32, %rsp
	movl	$956142015, -20(%rbp)   # imm = 0x38FD91BF
	movq	%rdi, -16(%rbp)
	movq	%rsi, -32(%rbp)
	cmpq	$0, MBAmap
	je	.LBB53_2
# %bb.1:                                # %if.then
	movq	MBAmap, %rdi
	callq	free
.LBB53_2:                               # %if.end
	movq	-16(%rbp), %rax
	movl	72484(%rax), %edi
	shlq	$0, %rdi
	callq	malloc
	movq	%rax, MBAmap
	cmpq	$0, %rax
	jne	.LBB53_4
# %bb.3:                                # %if.then2
	movq	-16(%rbp), %rax
	movl	72484(%rax), %esi
	shlq	$0, %rsi
	movabsq	$.L.str.3, %rdi
	movb	$0, %al
	callq	printf
	movl	$4294967295, %edi       # imm = 0xFFFFFFFF
	callq	exit
.LBB53_4:                               # %if.end7
	movq	-32(%rbp), %rax
	cmpl	$0, 1148(%rax)
	jne	.LBB53_6
# %bb.5:                                # %lor.lhs.false
	movq	-16(%rbp), %rax
	cmpl	$0, 72444(%rax)
	je	.LBB53_11
.LBB53_6:                               # %if.then10
	movl	$0, -4(%rbp)
.LBB53_7:                               # %for.cond
                                        # =>This Inner Loop Header: Depth=1
	movl	-4(%rbp), %eax
	movq	-16(%rbp), %rcx
	cmpl	72484(%rcx), %eax
	jae	.LBB53_10
# %bb.8:                                # %for.body
                                        #   in Loop: Header=BB53_7 Depth=1
	movq	MapUnitToSliceGroupMap, %rax
	movl	-4(%rbp), %ecx
	movb	(%rax,%rcx), %al
	movq	MBAmap, %rcx
	movl	-4(%rbp), %edx
	movb	%al, (%rcx,%rdx)
# %bb.9:                                # %for.inc
                                        #   in Loop: Header=BB53_7 Depth=1
	movl	-4(%rbp), %eax
	addl	$1, %eax
	movl	%eax, -4(%rbp)
	jmp	.LBB53_7
.LBB53_10:                              # %for.end
	jmp	.LBB53_24
.LBB53_11:                              # %if.else
	movq	-32(%rbp), %rax
	cmpl	$0, 1152(%rax)
	je	.LBB53_18
# %bb.12:                               # %land.lhs.true
	movq	-16(%rbp), %rax
	cmpl	$0, 72444(%rax)
	jne	.LBB53_18
# %bb.13:                               # %if.then19
	movl	$0, -4(%rbp)
.LBB53_14:                              # %for.cond20
                                        # =>This Inner Loop Header: Depth=1
	movl	-4(%rbp), %eax
	movq	-16(%rbp), %rcx
	cmpl	72484(%rcx), %eax
	jae	.LBB53_17
# %bb.15:                               # %for.body24
                                        #   in Loop: Header=BB53_14 Depth=1
	movq	MapUnitToSliceGroupMap, %rax
	movl	-4(%rbp), %ecx
	shrl	$1, %ecx
	movl	%ecx, %ecx
	movb	(%rax,%rcx), %al
	movq	MBAmap, %rcx
	movl	-4(%rbp), %edx
	movb	%al, (%rcx,%rdx)
# %bb.16:                               # %for.inc29
                                        #   in Loop: Header=BB53_14 Depth=1
	movl	-4(%rbp), %eax
	addl	$1, %eax
	movl	%eax, -4(%rbp)
	jmp	.LBB53_14
.LBB53_17:                              # %for.end31
	jmp	.LBB53_23
.LBB53_18:                              # %if.else32
	movl	$0, -4(%rbp)
.LBB53_19:                              # %for.cond33
                                        # =>This Inner Loop Header: Depth=1
	movl	-4(%rbp), %eax
	movq	-16(%rbp), %rcx
	cmpl	72484(%rcx), %eax
	jae	.LBB53_22
# %bb.20:                               # %for.body37
                                        #   in Loop: Header=BB53_19 Depth=1
	movq	MapUnitToSliceGroupMap, %rsi
	movl	-4(%rbp), %eax
	movq	-16(%rbp), %rcx
	movl	72468(%rcx), %ecx
	shll	$1, %ecx
	xorl	%edx, %edx
	divl	%ecx
	movl	%eax, %ecx
	movq	-16(%rbp), %rax
	imull	72468(%rax), %ecx
	movl	-4(%rbp), %eax
	movq	-16(%rbp), %rdi
	xorl	%edx, %edx
	divl	72468(%rdi)
	addl	%edx, %ecx
	movl	%ecx, %eax
	movb	(%rsi,%rax), %al
	movq	MBAmap, %rcx
	movl	-4(%rbp), %edx
	movb	%al, (%rcx,%rdx)
# %bb.21:                               # %for.inc47
                                        #   in Loop: Header=BB53_19 Depth=1
	movl	-4(%rbp), %eax
	addl	$1, %eax
	movl	%eax, -4(%rbp)
	jmp	.LBB53_19
.LBB53_22:                              # %for.end49
	jmp	.LBB53_23
.LBB53_23:                              # %if.end50
	jmp	.LBB53_24
.LBB53_24:                              # %if.end51
	cmpl	$956142015, -20(%rbp)   # imm = 0x38FD91BF
	jne	.LBB53_26
.LBB53_25:
	xorl	%eax, %eax
	addq	$32, %rsp
	popq	%rbp
	.cfi_def_cfa %rsp, 8
	retq
.LBB53_26:                              # %func_exit
	.cfi_def_cfa %rbp, 16
	callq	detect_breach
	jmp	.LBB53_25
.Lfunc_end53:
	.size	FmoGenerateMBAmap.33, .Lfunc_end53-FmoGenerateMBAmap.33
	.cfi_endproc
                                        # -- End function
	.globl	FmoGetLastCodedMBOfSliceGroup.34 # -- Begin function FmoGetLastCodedMBOfSliceGroup.34
	.p2align	4, 0x90
	.type	FmoGetLastCodedMBOfSliceGroup.34,@function
FmoGetLastCodedMBOfSliceGroup.34:       # @FmoGetLastCodedMBOfSliceGroup.34
	.cfi_startproc
# %bb.0:                                # %entry
	pushq	%rbp
	.cfi_def_cfa_offset 16
	.cfi_offset %rbp, -16
	movq	%rsp, %rbp
	.cfi_def_cfa_register %rbp
	pushq	%rbx
	subq	$24, %rsp
	.cfi_offset %rbx, -24
	movl	$1522770085, -24(%rbp)  # imm = 0x5AC3A0A5
	movl	%edi, -20(%rbp)
	movl	$-1, -16(%rbp)
	movl	$0, -12(%rbp)
.LBB54_1:                               # %for.cond
                                        # =>This Inner Loop Header: Depth=1
	movl	-12(%rbp), %eax
	movq	img, %rcx
	cmpl	72484(%rcx), %eax
	jge	.LBB54_6
# %bb.2:                                # %for.body
                                        #   in Loop: Header=BB54_1 Depth=1
	movl	-12(%rbp), %edi
	callq	FmoMB2SliceGroup
	cmpl	-20(%rbp), %eax
	jne	.LBB54_4
# %bb.3:                                # %if.then
                                        #   in Loop: Header=BB54_1 Depth=1
	movl	-12(%rbp), %eax
	movl	%eax, -16(%rbp)
.LBB54_4:                               # %if.end
                                        #   in Loop: Header=BB54_1 Depth=1
	jmp	.LBB54_5
.LBB54_5:                               # %for.inc
                                        #   in Loop: Header=BB54_1 Depth=1
	movl	-12(%rbp), %eax
	addl	$1, %eax
	movl	%eax, -12(%rbp)
	jmp	.LBB54_1
.LBB54_6:                               # %for.end
	movl	-16(%rbp), %ebx
	cmpl	$1522770085, -24(%rbp)  # imm = 0x5AC3A0A5
	jne	.LBB54_8
.LBB54_7:
	movl	%ebx, %eax
	addq	$24, %rsp
	popq	%rbx
	popq	%rbp
	.cfi_def_cfa %rsp, 8
	retq
.LBB54_8:                               # %func_exit
	.cfi_def_cfa %rbp, 16
	callq	detect_breach
	jmp	.LBB54_7
.Lfunc_end54:
	.size	FmoGetLastCodedMBOfSliceGroup.34, .Lfunc_end54-FmoGetLastCodedMBOfSliceGroup.34
	.cfi_endproc
                                        # -- End function
	.globl	FmoGetPreviousMBNr.35   # -- Begin function FmoGetPreviousMBNr.35
	.p2align	4, 0x90
	.type	FmoGetPreviousMBNr.35,@function
FmoGetPreviousMBNr.35:                  # @FmoGetPreviousMBNr.35
	.cfi_startproc
# %bb.0:                                # %entry
	pushq	%rbp
	.cfi_def_cfa_offset 16
	.cfi_offset %rbp, -16
	movq	%rsp, %rbp
	.cfi_def_cfa_register %rbp
	pushq	%rbx
	subq	$24, %rsp
	.cfi_offset %rbx, -24
	movl	$812610863, -24(%rbp)   # imm = 0x306F752F
	movl	%edi, -12(%rbp)
	movl	-12(%rbp), %edi
	callq	FmoMB2SliceGroup
	movl	%eax, -20(%rbp)
	movl	-12(%rbp), %eax
	addl	$-1, %eax
	movl	%eax, -12(%rbp)
.LBB55_1:                               # %while.cond
                                        # =>This Inner Loop Header: Depth=1
	xorl	%eax, %eax
	cmpl	$0, -12(%rbp)
	jl	.LBB55_3
# %bb.2:                                # %land.rhs
                                        #   in Loop: Header=BB55_1 Depth=1
	movq	MBAmap, %rax
	movslq	-12(%rbp), %rcx
	movzbl	(%rax,%rcx), %eax
	cmpl	-20(%rbp), %eax
	setne	%al
.LBB55_3:                               # %land.end
                                        #   in Loop: Header=BB55_1 Depth=1
	testb	$1, %al
	jne	.LBB55_4
	jmp	.LBB55_5
.LBB55_4:                               # %while.body
                                        #   in Loop: Header=BB55_1 Depth=1
	movl	-12(%rbp), %eax
	addl	$-1, %eax
	movl	%eax, -12(%rbp)
	jmp	.LBB55_1
.LBB55_5:                               # %while.end
	cmpl	$0, -12(%rbp)
	jge	.LBB55_7
# %bb.6:                                # %if.then
	movl	$-1, -16(%rbp)
	jmp	.LBB55_8
.LBB55_7:                               # %if.else
	movl	-12(%rbp), %eax
	movl	%eax, -16(%rbp)
.LBB55_8:                               # %return
	movl	-16(%rbp), %ebx
	cmpl	$812610863, -24(%rbp)   # imm = 0x306F752F
	jne	.LBB55_10
.LBB55_9:
	movl	%ebx, %eax
	addq	$24, %rsp
	popq	%rbx
	popq	%rbp
	.cfi_def_cfa %rsp, 8
	retq
.LBB55_10:                              # %func_exit
	.cfi_def_cfa %rbp, 16
	callq	detect_breach
	jmp	.LBB55_9
.Lfunc_end55:
	.size	FmoGetPreviousMBNr.35, .Lfunc_end55-FmoGetPreviousMBNr.35
	.cfi_endproc
                                        # -- End function
	.p2align	4, 0x90         # -- Begin function FmoGenerateType3MapUnitMap.36
	.type	FmoGenerateType3MapUnitMap.36,@function
FmoGenerateType3MapUnitMap.36:          # @FmoGenerateType3MapUnitMap.36
	.cfi_startproc
# %bb.0:                                # %entry
	pushq	%rbp
	.cfi_def_cfa_offset 16
	.cfi_offset %rbp, -16
	movq	%rsp, %rbp
	.cfi_def_cfa_register %rbp
	subq	$80, %rsp
	movl	$2087695400, -68(%rbp)  # imm = 0x7C6FB428
	movq	%rdi, -40(%rbp)
	movq	%rsi, -48(%rbp)
	movq	-48(%rbp), %rax
	movl	168(%rax), %eax
	addl	$1, %eax
	movq	-40(%rbp), %rcx
	imull	72652(%rcx), %eax
	cmpl	PicSizeInMapUnits, %eax
	jae	.LBB56_2
# %bb.1:                                # %cond.true
	movq	-48(%rbp), %rax
	movl	168(%rax), %eax
	addl	$1, %eax
	movq	-40(%rbp), %rcx
	imull	72652(%rcx), %eax
	jmp	.LBB56_3
.LBB56_2:                               # %cond.false
	movl	PicSizeInMapUnits, %eax
.LBB56_3:                               # %cond.end
	movl	%eax, -64(%rbp)
	movl	$0, -52(%rbp)
.LBB56_4:                               # %for.cond
                                        # =>This Inner Loop Header: Depth=1
	movl	-52(%rbp), %eax
	cmpl	PicSizeInMapUnits, %eax
	jae	.LBB56_7
# %bb.5:                                # %for.body
                                        #   in Loop: Header=BB56_4 Depth=1
	movq	MapUnitToSliceGroupMap, %rax
	movl	-52(%rbp), %ecx
	movb	$2, (%rax,%rcx)
# %bb.6:                                # %for.inc
                                        #   in Loop: Header=BB56_4 Depth=1
	movl	-52(%rbp), %eax
	addl	$1, %eax
	movl	%eax, -52(%rbp)
	jmp	.LBB56_4
.LBB56_7:                               # %for.end
	movq	-40(%rbp), %rax
	movl	72468(%rax), %eax
	movq	-48(%rbp), %rcx
	subl	164(%rcx), %eax
	shrl	$1, %eax
	movl	%eax, -4(%rbp)
	movq	-40(%rbp), %rax
	movl	72472(%rax), %eax
	movq	-48(%rbp), %rcx
	subl	164(%rcx), %eax
	shrl	$1, %eax
	movl	%eax, -8(%rbp)
	movl	-4(%rbp), %eax
	movl	%eax, -20(%rbp)
	movl	-8(%rbp), %eax
	movl	%eax, -28(%rbp)
	movl	-4(%rbp), %eax
	movl	%eax, -32(%rbp)
	movl	-8(%rbp), %eax
	movl	%eax, -24(%rbp)
	movq	-48(%rbp), %rax
	movl	164(%rax), %eax
	subl	$1, %eax
	movl	%eax, -12(%rbp)
	movq	-48(%rbp), %rax
	movl	164(%rax), %eax
	movl	%eax, -16(%rbp)
	movl	$0, -56(%rbp)
.LBB56_8:                               # %for.cond12
                                        # =>This Inner Loop Header: Depth=1
	movl	-56(%rbp), %eax
	cmpl	PicSizeInMapUnits, %eax
	jae	.LBB56_41
# %bb.9:                                # %for.body14
                                        #   in Loop: Header=BB56_8 Depth=1
	movq	MapUnitToSliceGroupMap, %rax
	movl	-8(%rbp), %ecx
	movq	-40(%rbp), %rdx
	imull	72468(%rdx), %ecx
	addl	-4(%rbp), %ecx
	movl	%ecx, %ecx
	movzbl	(%rax,%rcx), %eax
	cmpl	$2, %eax
	sete	%al
	andb	$1, %al
	movzbl	%al, %eax
	movl	%eax, -60(%rbp)
	cmpl	$0, -60(%rbp)
	je	.LBB56_11
# %bb.10:                               # %if.then
                                        #   in Loop: Header=BB56_8 Depth=1
	movl	-56(%rbp), %eax
	cmpl	-64(%rbp), %eax
	setae	%al
	andb	$1, %al
	movzbl	%al, %eax
	movq	MapUnitToSliceGroupMap, %rcx
	movl	-8(%rbp), %edx
	movq	-40(%rbp), %rsi
	imull	72468(%rsi), %edx
	addl	-4(%rbp), %edx
	movl	%edx, %edx
	movb	%al, (%rcx,%rdx)
.LBB56_11:                              # %if.end
                                        #   in Loop: Header=BB56_8 Depth=1
	cmpl	$-1, -12(%rbp)
	jne	.LBB56_17
# %bb.12:                               # %land.lhs.true
                                        #   in Loop: Header=BB56_8 Depth=1
	movl	-4(%rbp), %eax
	cmpl	-20(%rbp), %eax
	jne	.LBB56_17
# %bb.13:                               # %if.then34
                                        #   in Loop: Header=BB56_8 Depth=1
	movl	-20(%rbp), %eax
	subl	$1, %eax
	cmpl	$0, %eax
	jle	.LBB56_15
# %bb.14:                               # %cond.true38
                                        #   in Loop: Header=BB56_8 Depth=1
	movl	-20(%rbp), %eax
	subl	$1, %eax
	jmp	.LBB56_16
.LBB56_15:                              # %cond.false40
                                        #   in Loop: Header=BB56_8 Depth=1
	xorl	%eax, %eax
	jmp	.LBB56_16
.LBB56_16:                              # %cond.end41
                                        #   in Loop: Header=BB56_8 Depth=1
	movl	%eax, -20(%rbp)
	movl	-20(%rbp), %eax
	movl	%eax, -4(%rbp)
	movl	$0, -12(%rbp)
	movq	-48(%rbp), %rax
	movl	164(%rax), %eax
	shll	$1, %eax
	subl	$1, %eax
	movl	%eax, -16(%rbp)
	jmp	.LBB56_39
.LBB56_17:                              # %if.else
                                        #   in Loop: Header=BB56_8 Depth=1
	cmpl	$1, -12(%rbp)
	jne	.LBB56_23
# %bb.18:                               # %land.lhs.true48
                                        #   in Loop: Header=BB56_8 Depth=1
	movl	-4(%rbp), %eax
	cmpl	-32(%rbp), %eax
	jne	.LBB56_23
# %bb.19:                               # %if.then51
                                        #   in Loop: Header=BB56_8 Depth=1
	movl	-32(%rbp), %eax
	addl	$1, %eax
	movq	-40(%rbp), %rcx
	movl	72468(%rcx), %ecx
	subl	$1, %ecx
	cmpl	%ecx, %eax
	jge	.LBB56_21
# %bb.20:                               # %cond.true57
                                        #   in Loop: Header=BB56_8 Depth=1
	movl	-32(%rbp), %eax
	addl	$1, %eax
	jmp	.LBB56_22
.LBB56_21:                              # %cond.false59
                                        #   in Loop: Header=BB56_8 Depth=1
	movq	-40(%rbp), %rax
	movl	72468(%rax), %eax
	subl	$1, %eax
.LBB56_22:                              # %cond.end62
                                        #   in Loop: Header=BB56_8 Depth=1
	movl	%eax, -32(%rbp)
	movl	-32(%rbp), %eax
	movl	%eax, -4(%rbp)
	movl	$0, -12(%rbp)
	movq	-48(%rbp), %rax
	movl	164(%rax), %eax
	shll	$1, %eax
	movl	$1, %ecx
	subl	%eax, %ecx
	movl	%ecx, -16(%rbp)
	jmp	.LBB56_38
.LBB56_23:                              # %if.else67
                                        #   in Loop: Header=BB56_8 Depth=1
	cmpl	$-1, -16(%rbp)
	jne	.LBB56_29
# %bb.24:                               # %land.lhs.true70
                                        #   in Loop: Header=BB56_8 Depth=1
	movl	-8(%rbp), %eax
	cmpl	-28(%rbp), %eax
	jne	.LBB56_29
# %bb.25:                               # %if.then73
                                        #   in Loop: Header=BB56_8 Depth=1
	movl	-28(%rbp), %eax
	subl	$1, %eax
	cmpl	$0, %eax
	jle	.LBB56_27
# %bb.26:                               # %cond.true77
                                        #   in Loop: Header=BB56_8 Depth=1
	movl	-28(%rbp), %eax
	subl	$1, %eax
	jmp	.LBB56_28
.LBB56_27:                              # %cond.false79
                                        #   in Loop: Header=BB56_8 Depth=1
	xorl	%eax, %eax
	jmp	.LBB56_28
.LBB56_28:                              # %cond.end80
                                        #   in Loop: Header=BB56_8 Depth=1
	movl	%eax, -28(%rbp)
	movl	-28(%rbp), %eax
	movl	%eax, -8(%rbp)
	movq	-48(%rbp), %rax
	movl	164(%rax), %eax
	shll	$1, %eax
	movl	$1, %ecx
	subl	%eax, %ecx
	movl	%ecx, -12(%rbp)
	movl	$0, -16(%rbp)
	jmp	.LBB56_37
.LBB56_29:                              # %if.else85
                                        #   in Loop: Header=BB56_8 Depth=1
	cmpl	$1, -16(%rbp)
	jne	.LBB56_35
# %bb.30:                               # %land.lhs.true88
                                        #   in Loop: Header=BB56_8 Depth=1
	movl	-8(%rbp), %eax
	cmpl	-24(%rbp), %eax
	jne	.LBB56_35
# %bb.31:                               # %if.then91
                                        #   in Loop: Header=BB56_8 Depth=1
	movl	-24(%rbp), %eax
	addl	$1, %eax
	movq	-40(%rbp), %rcx
	movl	72472(%rcx), %ecx
	subl	$1, %ecx
	cmpl	%ecx, %eax
	jge	.LBB56_33
# %bb.32:                               # %cond.true97
                                        #   in Loop: Header=BB56_8 Depth=1
	movl	-24(%rbp), %eax
	addl	$1, %eax
	jmp	.LBB56_34
.LBB56_33:                              # %cond.false99
                                        #   in Loop: Header=BB56_8 Depth=1
	movq	-40(%rbp), %rax
	movl	72472(%rax), %eax
	subl	$1, %eax
.LBB56_34:                              # %cond.end102
                                        #   in Loop: Header=BB56_8 Depth=1
	movl	%eax, -24(%rbp)
	movl	-24(%rbp), %eax
	movl	%eax, -8(%rbp)
	movq	-48(%rbp), %rax
	movl	164(%rax), %eax
	shll	$1, %eax
	subl	$1, %eax
	movl	%eax, -12(%rbp)
	movl	$0, -16(%rbp)
	jmp	.LBB56_36
.LBB56_35:                              # %if.else107
                                        #   in Loop: Header=BB56_8 Depth=1
	movl	-4(%rbp), %eax
	addl	-12(%rbp), %eax
	movl	%eax, -4(%rbp)
	movl	-8(%rbp), %eax
	addl	-16(%rbp), %eax
	movl	%eax, -8(%rbp)
.LBB56_36:                              # %if.end110
                                        #   in Loop: Header=BB56_8 Depth=1
	jmp	.LBB56_37
.LBB56_37:                              # %if.end111
                                        #   in Loop: Header=BB56_8 Depth=1
	jmp	.LBB56_38
.LBB56_38:                              # %if.end112
                                        #   in Loop: Header=BB56_8 Depth=1
	jmp	.LBB56_39
.LBB56_39:                              # %if.end113
                                        #   in Loop: Header=BB56_8 Depth=1
	jmp	.LBB56_40
.LBB56_40:                              # %for.inc114
                                        #   in Loop: Header=BB56_8 Depth=1
	movl	-60(%rbp), %eax
	addl	-56(%rbp), %eax
	movl	%eax, -56(%rbp)
	jmp	.LBB56_8
.LBB56_41:                              # %for.end116
	cmpl	$2087695400, -68(%rbp)  # imm = 0x7C6FB428
	jne	.LBB56_43
.LBB56_42:
	addq	$80, %rsp
	popq	%rbp
	.cfi_def_cfa %rsp, 8
	retq
.LBB56_43:                              # %func_exit
	.cfi_def_cfa %rbp, 16
	callq	detect_breach
	jmp	.LBB56_42
.Lfunc_end56:
	.size	FmoGenerateType3MapUnitMap.36, .Lfunc_end56-FmoGenerateType3MapUnitMap.36
	.cfi_endproc
                                        # -- End function
	.p2align	4, 0x90         # -- Begin function FmoGenerateType6MapUnitMap.37
	.type	FmoGenerateType6MapUnitMap.37,@function
FmoGenerateType6MapUnitMap.37:          # @FmoGenerateType6MapUnitMap.37
	.cfi_startproc
# %bb.0:                                # %entry
	pushq	%rbp
	.cfi_def_cfa_offset 16
	.cfi_offset %rbp, -16
	movq	%rsp, %rbp
	.cfi_def_cfa_register %rbp
	subq	$32, %rsp
	movl	$23064411, -8(%rbp)     # imm = 0x15FEF5B
	movq	%rdi, -24(%rbp)
	movq	%rsi, -16(%rbp)
	movl	$0, -4(%rbp)
.LBB57_1:                               # %for.cond
                                        # =>This Inner Loop Header: Depth=1
	movl	-4(%rbp), %eax
	cmpl	PicSizeInMapUnits, %eax
	jae	.LBB57_4
# %bb.2:                                # %for.body
                                        #   in Loop: Header=BB57_1 Depth=1
	movq	-16(%rbp), %rax
	movq	176(%rax), %rax
	movl	-4(%rbp), %ecx
	movb	(%rax,%rcx), %al
	movq	MapUnitToSliceGroupMap, %rcx
	movl	-4(%rbp), %edx
	movb	%al, (%rcx,%rdx)
# %bb.3:                                # %for.inc
                                        #   in Loop: Header=BB57_1 Depth=1
	movl	-4(%rbp), %eax
	addl	$1, %eax
	movl	%eax, -4(%rbp)
	jmp	.LBB57_1
.LBB57_4:                               # %for.end
	cmpl	$23064411, -8(%rbp)     # imm = 0x15FEF5B
	jne	.LBB57_6
.LBB57_5:
	addq	$32, %rsp
	popq	%rbp
	.cfi_def_cfa %rsp, 8
	retq
.LBB57_6:                               # %func_exit
	.cfi_def_cfa %rbp, 16
	callq	detect_breach
	jmp	.LBB57_5
.Lfunc_end57:
	.size	FmoGenerateType6MapUnitMap.37, .Lfunc_end57-FmoGenerateType6MapUnitMap.37
	.cfi_endproc
                                        # -- End function
	.globl	FmoSetLastMacroblockInSlice.38 # -- Begin function FmoSetLastMacroblockInSlice.38
	.p2align	4, 0x90
	.type	FmoSetLastMacroblockInSlice.38,@function
FmoSetLastMacroblockInSlice.38:         # @FmoSetLastMacroblockInSlice.38
	.cfi_startproc
# %bb.0:                                # %entry
	pushq	%rbp
	.cfi_def_cfa_offset 16
	.cfi_offset %rbp, -16
	movq	%rsp, %rbp
	.cfi_def_cfa_register %rbp
	subq	$16, %rsp
	movl	$259938267, -12(%rbp)   # imm = 0xF7E57DB
	movl	%edi, -4(%rbp)
	movl	-4(%rbp), %edi
	callq	FmoMB2SliceGroup
	movl	%eax, -8(%rbp)
	movl	-4(%rbp), %edi
	callq	FmoGetNextMBNr
	movl	%eax, -4(%rbp)
	movl	-4(%rbp), %eax
	movslq	-8(%rbp), %rcx
	movl	%eax, FirstMBInSlice(,%rcx,4)
	cmpl	$259938267, -12(%rbp)   # imm = 0xF7E57DB
	jne	.LBB58_2
.LBB58_1:
	addq	$16, %rsp
	popq	%rbp
	.cfi_def_cfa %rsp, 8
	retq
.LBB58_2:                               # %func_exit
	.cfi_def_cfa %rbp, 16
	callq	detect_breach
	jmp	.LBB58_1
.Lfunc_end58:
	.size	FmoSetLastMacroblockInSlice.38, .Lfunc_end58-FmoSetLastMacroblockInSlice.38
	.cfi_endproc
                                        # -- End function
	.p2align	4, 0x90         # -- Begin function FmoGenerateType3MapUnitMap.39
	.type	FmoGenerateType3MapUnitMap.39,@function
FmoGenerateType3MapUnitMap.39:          # @FmoGenerateType3MapUnitMap.39
	.cfi_startproc
# %bb.0:                                # %entry
	pushq	%rbp
	.cfi_def_cfa_offset 16
	.cfi_offset %rbp, -16
	movq	%rsp, %rbp
	.cfi_def_cfa_register %rbp
	subq	$80, %rsp
	movl	$1769130809, -68(%rbp)  # imm = 0x6972CB39
	movq	%rdi, -48(%rbp)
	movq	%rsi, -40(%rbp)
	movq	-40(%rbp), %rax
	movl	168(%rax), %eax
	addl	$1, %eax
	movq	-48(%rbp), %rcx
	imull	72652(%rcx), %eax
	cmpl	PicSizeInMapUnits, %eax
	jae	.LBB59_2
# %bb.1:                                # %cond.true
	movq	-40(%rbp), %rax
	movl	168(%rax), %eax
	addl	$1, %eax
	movq	-48(%rbp), %rcx
	imull	72652(%rcx), %eax
	jmp	.LBB59_3
.LBB59_2:                               # %cond.false
	movl	PicSizeInMapUnits, %eax
.LBB59_3:                               # %cond.end
	movl	%eax, -64(%rbp)
	movl	$0, -56(%rbp)
.LBB59_4:                               # %for.cond
                                        # =>This Inner Loop Header: Depth=1
	movl	-56(%rbp), %eax
	cmpl	PicSizeInMapUnits, %eax
	jae	.LBB59_7
# %bb.5:                                # %for.body
                                        #   in Loop: Header=BB59_4 Depth=1
	movq	MapUnitToSliceGroupMap, %rax
	movl	-56(%rbp), %ecx
	movb	$2, (%rax,%rcx)
# %bb.6:                                # %for.inc
                                        #   in Loop: Header=BB59_4 Depth=1
	movl	-56(%rbp), %eax
	addl	$1, %eax
	movl	%eax, -56(%rbp)
	jmp	.LBB59_4
.LBB59_7:                               # %for.end
	movq	-48(%rbp), %rax
	movl	72468(%rax), %eax
	movq	-40(%rbp), %rcx
	subl	164(%rcx), %eax
	shrl	$1, %eax
	movl	%eax, -8(%rbp)
	movq	-48(%rbp), %rax
	movl	72472(%rax), %eax
	movq	-40(%rbp), %rcx
	subl	164(%rcx), %eax
	shrl	$1, %eax
	movl	%eax, -4(%rbp)
	movl	-8(%rbp), %eax
	movl	%eax, -20(%rbp)
	movl	-4(%rbp), %eax
	movl	%eax, -32(%rbp)
	movl	-8(%rbp), %eax
	movl	%eax, -28(%rbp)
	movl	-4(%rbp), %eax
	movl	%eax, -24(%rbp)
	movq	-40(%rbp), %rax
	movl	164(%rax), %eax
	subl	$1, %eax
	movl	%eax, -16(%rbp)
	movq	-40(%rbp), %rax
	movl	164(%rax), %eax
	movl	%eax, -12(%rbp)
	movl	$0, -52(%rbp)
.LBB59_8:                               # %for.cond12
                                        # =>This Inner Loop Header: Depth=1
	movl	-52(%rbp), %eax
	cmpl	PicSizeInMapUnits, %eax
	jae	.LBB59_41
# %bb.9:                                # %for.body14
                                        #   in Loop: Header=BB59_8 Depth=1
	movq	MapUnitToSliceGroupMap, %rax
	movl	-4(%rbp), %ecx
	movq	-48(%rbp), %rdx
	imull	72468(%rdx), %ecx
	addl	-8(%rbp), %ecx
	movl	%ecx, %ecx
	movzbl	(%rax,%rcx), %eax
	cmpl	$2, %eax
	sete	%al
	andb	$1, %al
	movzbl	%al, %eax
	movl	%eax, -60(%rbp)
	cmpl	$0, -60(%rbp)
	je	.LBB59_11
# %bb.10:                               # %if.then
                                        #   in Loop: Header=BB59_8 Depth=1
	movl	-52(%rbp), %eax
	cmpl	-64(%rbp), %eax
	setae	%al
	andb	$1, %al
	movzbl	%al, %eax
	movq	MapUnitToSliceGroupMap, %rcx
	movl	-4(%rbp), %edx
	movq	-48(%rbp), %rsi
	imull	72468(%rsi), %edx
	addl	-8(%rbp), %edx
	movl	%edx, %edx
	movb	%al, (%rcx,%rdx)
.LBB59_11:                              # %if.end
                                        #   in Loop: Header=BB59_8 Depth=1
	cmpl	$-1, -16(%rbp)
	jne	.LBB59_17
# %bb.12:                               # %land.lhs.true
                                        #   in Loop: Header=BB59_8 Depth=1
	movl	-8(%rbp), %eax
	cmpl	-20(%rbp), %eax
	jne	.LBB59_17
# %bb.13:                               # %if.then34
                                        #   in Loop: Header=BB59_8 Depth=1
	movl	-20(%rbp), %eax
	subl	$1, %eax
	cmpl	$0, %eax
	jle	.LBB59_15
# %bb.14:                               # %cond.true38
                                        #   in Loop: Header=BB59_8 Depth=1
	movl	-20(%rbp), %eax
	subl	$1, %eax
	jmp	.LBB59_16
.LBB59_15:                              # %cond.false40
                                        #   in Loop: Header=BB59_8 Depth=1
	xorl	%eax, %eax
	jmp	.LBB59_16
.LBB59_16:                              # %cond.end41
                                        #   in Loop: Header=BB59_8 Depth=1
	movl	%eax, -20(%rbp)
	movl	-20(%rbp), %eax
	movl	%eax, -8(%rbp)
	movl	$0, -16(%rbp)
	movq	-40(%rbp), %rax
	movl	164(%rax), %eax
	shll	$1, %eax
	subl	$1, %eax
	movl	%eax, -12(%rbp)
	jmp	.LBB59_39
.LBB59_17:                              # %if.else
                                        #   in Loop: Header=BB59_8 Depth=1
	cmpl	$1, -16(%rbp)
	jne	.LBB59_23
# %bb.18:                               # %land.lhs.true48
                                        #   in Loop: Header=BB59_8 Depth=1
	movl	-8(%rbp), %eax
	cmpl	-28(%rbp), %eax
	jne	.LBB59_23
# %bb.19:                               # %if.then51
                                        #   in Loop: Header=BB59_8 Depth=1
	movl	-28(%rbp), %eax
	addl	$1, %eax
	movq	-48(%rbp), %rcx
	movl	72468(%rcx), %ecx
	subl	$1, %ecx
	cmpl	%ecx, %eax
	jge	.LBB59_21
# %bb.20:                               # %cond.true57
                                        #   in Loop: Header=BB59_8 Depth=1
	movl	-28(%rbp), %eax
	addl	$1, %eax
	jmp	.LBB59_22
.LBB59_21:                              # %cond.false59
                                        #   in Loop: Header=BB59_8 Depth=1
	movq	-48(%rbp), %rax
	movl	72468(%rax), %eax
	subl	$1, %eax
.LBB59_22:                              # %cond.end62
                                        #   in Loop: Header=BB59_8 Depth=1
	movl	%eax, -28(%rbp)
	movl	-28(%rbp), %eax
	movl	%eax, -8(%rbp)
	movl	$0, -16(%rbp)
	movq	-40(%rbp), %rax
	movl	164(%rax), %eax
	shll	$1, %eax
	movl	$1, %ecx
	subl	%eax, %ecx
	movl	%ecx, -12(%rbp)
	jmp	.LBB59_38
.LBB59_23:                              # %if.else67
                                        #   in Loop: Header=BB59_8 Depth=1
	cmpl	$-1, -12(%rbp)
	jne	.LBB59_29
# %bb.24:                               # %land.lhs.true70
                                        #   in Loop: Header=BB59_8 Depth=1
	movl	-4(%rbp), %eax
	cmpl	-32(%rbp), %eax
	jne	.LBB59_29
# %bb.25:                               # %if.then73
                                        #   in Loop: Header=BB59_8 Depth=1
	movl	-32(%rbp), %eax
	subl	$1, %eax
	cmpl	$0, %eax
	jle	.LBB59_27
# %bb.26:                               # %cond.true77
                                        #   in Loop: Header=BB59_8 Depth=1
	movl	-32(%rbp), %eax
	subl	$1, %eax
	jmp	.LBB59_28
.LBB59_27:                              # %cond.false79
                                        #   in Loop: Header=BB59_8 Depth=1
	xorl	%eax, %eax
	jmp	.LBB59_28
.LBB59_28:                              # %cond.end80
                                        #   in Loop: Header=BB59_8 Depth=1
	movl	%eax, -32(%rbp)
	movl	-32(%rbp), %eax
	movl	%eax, -4(%rbp)
	movq	-40(%rbp), %rax
	movl	164(%rax), %eax
	shll	$1, %eax
	movl	$1, %ecx
	subl	%eax, %ecx
	movl	%ecx, -16(%rbp)
	movl	$0, -12(%rbp)
	jmp	.LBB59_37
.LBB59_29:                              # %if.else85
                                        #   in Loop: Header=BB59_8 Depth=1
	cmpl	$1, -12(%rbp)
	jne	.LBB59_35
# %bb.30:                               # %land.lhs.true88
                                        #   in Loop: Header=BB59_8 Depth=1
	movl	-4(%rbp), %eax
	cmpl	-24(%rbp), %eax
	jne	.LBB59_35
# %bb.31:                               # %if.then91
                                        #   in Loop: Header=BB59_8 Depth=1
	movl	-24(%rbp), %eax
	addl	$1, %eax
	movq	-48(%rbp), %rcx
	movl	72472(%rcx), %ecx
	subl	$1, %ecx
	cmpl	%ecx, %eax
	jge	.LBB59_33
# %bb.32:                               # %cond.true97
                                        #   in Loop: Header=BB59_8 Depth=1
	movl	-24(%rbp), %eax
	addl	$1, %eax
	jmp	.LBB59_34
.LBB59_33:                              # %cond.false99
                                        #   in Loop: Header=BB59_8 Depth=1
	movq	-48(%rbp), %rax
	movl	72472(%rax), %eax
	subl	$1, %eax
.LBB59_34:                              # %cond.end102
                                        #   in Loop: Header=BB59_8 Depth=1
	movl	%eax, -24(%rbp)
	movl	-24(%rbp), %eax
	movl	%eax, -4(%rbp)
	movq	-40(%rbp), %rax
	movl	164(%rax), %eax
	shll	$1, %eax
	subl	$1, %eax
	movl	%eax, -16(%rbp)
	movl	$0, -12(%rbp)
	jmp	.LBB59_36
.LBB59_35:                              # %if.else107
                                        #   in Loop: Header=BB59_8 Depth=1
	movl	-8(%rbp), %eax
	addl	-16(%rbp), %eax
	movl	%eax, -8(%rbp)
	movl	-4(%rbp), %eax
	addl	-12(%rbp), %eax
	movl	%eax, -4(%rbp)
.LBB59_36:                              # %if.end110
                                        #   in Loop: Header=BB59_8 Depth=1
	jmp	.LBB59_37
.LBB59_37:                              # %if.end111
                                        #   in Loop: Header=BB59_8 Depth=1
	jmp	.LBB59_38
.LBB59_38:                              # %if.end112
                                        #   in Loop: Header=BB59_8 Depth=1
	jmp	.LBB59_39
.LBB59_39:                              # %if.end113
                                        #   in Loop: Header=BB59_8 Depth=1
	jmp	.LBB59_40
.LBB59_40:                              # %for.inc114
                                        #   in Loop: Header=BB59_8 Depth=1
	movl	-60(%rbp), %eax
	addl	-52(%rbp), %eax
	movl	%eax, -52(%rbp)
	jmp	.LBB59_8
.LBB59_41:                              # %for.end116
	cmpl	$1769130809, -68(%rbp)  # imm = 0x6972CB39
	jne	.LBB59_43
.LBB59_42:
	addq	$80, %rsp
	popq	%rbp
	.cfi_def_cfa %rsp, 8
	retq
.LBB59_43:                              # %func_exit
	.cfi_def_cfa %rbp, 16
	callq	detect_breach
	jmp	.LBB59_42
.Lfunc_end59:
	.size	FmoGenerateType3MapUnitMap.39, .Lfunc_end59-FmoGenerateType3MapUnitMap.39
	.cfi_endproc
                                        # -- End function
	.p2align	4, 0x90         # -- Begin function FmoGenerateType0MapUnitMap.40
	.type	FmoGenerateType0MapUnitMap.40,@function
FmoGenerateType0MapUnitMap.40:          # @FmoGenerateType0MapUnitMap.40
	.cfi_startproc
# %bb.0:                                # %entry
	pushq	%rbp
	.cfi_def_cfa_offset 16
	.cfi_offset %rbp, -16
	movq	%rsp, %rbp
	.cfi_def_cfa_register %rbp
	subq	$48, %rsp
	movl	$676878564, -28(%rbp)   # imm = 0x285858E4
	movq	%rdi, -40(%rbp)
	movq	%rsi, -24(%rbp)
	movl	$0, -4(%rbp)
.LBB60_1:                               # %do.body
                                        # =>This Loop Header: Depth=1
                                        #     Child Loop BB60_2 Depth 2
                                        #       Child Loop BB60_6 Depth 3
	movl	$0, -12(%rbp)
.LBB60_2:                               # %for.cond
                                        #   Parent Loop BB60_1 Depth=1
                                        # =>  This Loop Header: Depth=2
                                        #       Child Loop BB60_6 Depth 3
	xorl	%eax, %eax
	movl	-12(%rbp), %ecx
	movq	-24(%rbp), %rdx
	cmpl	60(%rdx), %ecx
	ja	.LBB60_4
# %bb.3:                                # %land.rhs
                                        #   in Loop: Header=BB60_2 Depth=2
	movl	-4(%rbp), %eax
	cmpl	PicSizeInMapUnits, %eax
	setb	%al
.LBB60_4:                               # %land.end
                                        #   in Loop: Header=BB60_2 Depth=2
	testb	$1, %al
	jne	.LBB60_5
	jmp	.LBB60_13
.LBB60_5:                               # %for.body
                                        #   in Loop: Header=BB60_2 Depth=2
	movl	$0, -8(%rbp)
.LBB60_6:                               # %for.cond2
                                        #   Parent Loop BB60_1 Depth=1
                                        #     Parent Loop BB60_2 Depth=2
                                        # =>    This Inner Loop Header: Depth=3
	xorl	%eax, %eax
	movl	-8(%rbp), %ecx
	movq	-24(%rbp), %rdx
	movl	-12(%rbp), %esi
	cmpl	68(%rdx,%rsi,4), %ecx
	ja	.LBB60_8
# %bb.7:                                # %land.rhs4
                                        #   in Loop: Header=BB60_6 Depth=3
	movl	-4(%rbp), %eax
	addl	-8(%rbp), %eax
	cmpl	PicSizeInMapUnits, %eax
	setb	%al
.LBB60_8:                               # %land.end6
                                        #   in Loop: Header=BB60_6 Depth=3
	testb	$1, %al
	jne	.LBB60_9
	jmp	.LBB60_11
.LBB60_9:                               # %for.body7
                                        #   in Loop: Header=BB60_6 Depth=3
	movl	-12(%rbp), %eax
	movq	MapUnitToSliceGroupMap, %rcx
	movl	-4(%rbp), %edx
	addl	-8(%rbp), %edx
	movl	%edx, %edx
	movb	%al, (%rcx,%rdx)
# %bb.10:                               # %for.inc
                                        #   in Loop: Header=BB60_6 Depth=3
	movl	-8(%rbp), %eax
	addl	$1, %eax
	movl	%eax, -8(%rbp)
	jmp	.LBB60_6
.LBB60_11:                              # %for.end
                                        #   in Loop: Header=BB60_2 Depth=2
	jmp	.LBB60_12
.LBB60_12:                              # %for.inc11
                                        #   in Loop: Header=BB60_2 Depth=2
	movq	-24(%rbp), %rax
	movl	-12(%rbp), %ecx
	movl	%ecx, %edx
	addl	$1, %edx
	movl	%edx, -12(%rbp)
	movl	%ecx, %ecx
	movl	68(%rax,%rcx,4), %eax
	addl	$1, %eax
	addl	-4(%rbp), %eax
	movl	%eax, -4(%rbp)
	jmp	.LBB60_2
.LBB60_13:                              # %for.end18
                                        #   in Loop: Header=BB60_1 Depth=1
	jmp	.LBB60_14
.LBB60_14:                              # %do.cond
                                        #   in Loop: Header=BB60_1 Depth=1
	movl	-4(%rbp), %eax
	cmpl	PicSizeInMapUnits, %eax
	jb	.LBB60_1
# %bb.15:                               # %do.end
	cmpl	$676878564, -28(%rbp)   # imm = 0x285858E4
	jne	.LBB60_17
.LBB60_16:
	addq	$48, %rsp
	popq	%rbp
	.cfi_def_cfa %rsp, 8
	retq
.LBB60_17:                              # %func_exit
	.cfi_def_cfa %rbp, 16
	callq	detect_breach
	jmp	.LBB60_16
.Lfunc_end60:
	.size	FmoGenerateType0MapUnitMap.40, .Lfunc_end60-FmoGenerateType0MapUnitMap.40
	.cfi_endproc
                                        # -- End function
	.p2align	4, 0x90         # -- Begin function FmoGenerateType1MapUnitMap.41
	.type	FmoGenerateType1MapUnitMap.41,@function
FmoGenerateType1MapUnitMap.41:          # @FmoGenerateType1MapUnitMap.41
	.cfi_startproc
# %bb.0:                                # %entry
	pushq	%rbp
	.cfi_def_cfa_offset 16
	.cfi_offset %rbp, -16
	movq	%rsp, %rbp
	.cfi_def_cfa_register %rbp
	subq	$32, %rsp
	movl	$1641491698, -8(%rbp)   # imm = 0x61D72CF2
	movq	%rdi, -16(%rbp)
	movq	%rsi, -24(%rbp)
	movl	$0, -4(%rbp)
.LBB61_1:                               # %for.cond
                                        # =>This Inner Loop Header: Depth=1
	movl	-4(%rbp), %eax
	cmpl	PicSizeInMapUnits, %eax
	jae	.LBB61_4
# %bb.2:                                # %for.body
                                        #   in Loop: Header=BB61_1 Depth=1
	movl	-4(%rbp), %eax
	movq	-16(%rbp), %rcx
	xorl	%edx, %edx
	divl	72468(%rcx)
	movl	%edx, %ecx
	movl	-4(%rbp), %eax
	movq	-16(%rbp), %rsi
	xorl	%edx, %edx
	divl	72468(%rsi)
	movq	-24(%rbp), %rdx
	movl	60(%rdx), %edx
	addl	$1, %edx
	imull	%edx, %eax
	shrl	$1, %eax
	addl	%eax, %ecx
	movq	-24(%rbp), %rax
	movl	60(%rax), %esi
	addl	$1, %esi
	movl	%ecx, %eax
	xorl	%edx, %edx
	divl	%esi
	movq	MapUnitToSliceGroupMap, %rax
	movl	-4(%rbp), %ecx
	movb	%dl, (%rax,%rcx)
# %bb.3:                                # %for.inc
                                        #   in Loop: Header=BB61_1 Depth=1
	movl	-4(%rbp), %eax
	addl	$1, %eax
	movl	%eax, -4(%rbp)
	jmp	.LBB61_1
.LBB61_4:                               # %for.end
	cmpl	$1641491698, -8(%rbp)   # imm = 0x61D72CF2
	jne	.LBB61_6
.LBB61_5:
	addq	$32, %rsp
	popq	%rbp
	.cfi_def_cfa %rsp, 8
	retq
.LBB61_6:                               # %func_exit
	.cfi_def_cfa %rbp, 16
	callq	detect_breach
	jmp	.LBB61_5
.Lfunc_end61:
	.size	FmoGenerateType1MapUnitMap.41, .Lfunc_end61-FmoGenerateType1MapUnitMap.41
	.cfi_endproc
                                        # -- End function
	.globl	FmoGetNextMBNr.42       # -- Begin function FmoGetNextMBNr.42
	.p2align	4, 0x90
	.type	FmoGetNextMBNr.42,@function
FmoGetNextMBNr.42:                      # @FmoGetNextMBNr.42
	.cfi_startproc
# %bb.0:                                # %entry
	pushq	%rbp
	.cfi_def_cfa_offset 16
	.cfi_offset %rbp, -16
	movq	%rsp, %rbp
	.cfi_def_cfa_register %rbp
	pushq	%rbx
	subq	$24, %rsp
	.cfi_offset %rbx, -24
	movl	$1966310173, -24(%rbp)  # imm = 0x7533831D
	movl	%edi, -12(%rbp)
	movl	-12(%rbp), %edi
	callq	FmoMB2SliceGroup
	movl	%eax, -20(%rbp)
.LBB62_1:                               # %while.cond
                                        # =>This Inner Loop Header: Depth=1
	xorl	%eax, %eax
	movl	-12(%rbp), %ecx
	addl	$1, %ecx
	movl	%ecx, -12(%rbp)
	movq	img, %rdx
	cmpl	72484(%rdx), %ecx
	jge	.LBB62_3
# %bb.2:                                # %land.rhs
                                        #   in Loop: Header=BB62_1 Depth=1
	movq	MBAmap, %rax
	movslq	-12(%rbp), %rcx
	movzbl	(%rax,%rcx), %eax
	cmpl	-20(%rbp), %eax
	setne	%al
.LBB62_3:                               # %land.end
                                        #   in Loop: Header=BB62_1 Depth=1
	testb	$1, %al
	jne	.LBB62_4
	jmp	.LBB62_5
.LBB62_4:                               # %while.body
                                        #   in Loop: Header=BB62_1 Depth=1
	jmp	.LBB62_1
.LBB62_5:                               # %while.end
	movl	-12(%rbp), %eax
	movq	img, %rcx
	cmpl	72484(%rcx), %eax
	jl	.LBB62_7
# %bb.6:                                # %if.then
	movl	$-1, -16(%rbp)
	jmp	.LBB62_8
.LBB62_7:                               # %if.else
	movl	-12(%rbp), %eax
	movl	%eax, -16(%rbp)
.LBB62_8:                               # %return
	movl	-16(%rbp), %ebx
	cmpl	$1966310173, -24(%rbp)  # imm = 0x7533831D
	jne	.LBB62_10
.LBB62_9:
	movl	%ebx, %eax
	addq	$24, %rsp
	popq	%rbx
	popq	%rbp
	.cfi_def_cfa %rsp, 8
	retq
.LBB62_10:                              # %func_exit
	.cfi_def_cfa %rbp, 16
	callq	detect_breach
	jmp	.LBB62_9
.Lfunc_end62:
	.size	FmoGetNextMBNr.42, .Lfunc_end62-FmoGetNextMBNr.42
	.cfi_endproc
                                        # -- End function
	.p2align	4, 0x90         # -- Begin function FmoGenerateType0MapUnitMap.43
	.type	FmoGenerateType0MapUnitMap.43,@function
FmoGenerateType0MapUnitMap.43:          # @FmoGenerateType0MapUnitMap.43
	.cfi_startproc
# %bb.0:                                # %entry
	pushq	%rbp
	.cfi_def_cfa_offset 16
	.cfi_offset %rbp, -16
	movq	%rsp, %rbp
	.cfi_def_cfa_register %rbp
	subq	$48, %rsp
	movl	$186317184, -28(%rbp)   # imm = 0xB1AF980
	movq	%rdi, -40(%rbp)
	movq	%rsi, -24(%rbp)
	movl	$0, -4(%rbp)
.LBB63_1:                               # %do.body
                                        # =>This Loop Header: Depth=1
                                        #     Child Loop BB63_2 Depth 2
                                        #       Child Loop BB63_6 Depth 3
	movl	$0, -12(%rbp)
.LBB63_2:                               # %for.cond
                                        #   Parent Loop BB63_1 Depth=1
                                        # =>  This Loop Header: Depth=2
                                        #       Child Loop BB63_6 Depth 3
	xorl	%eax, %eax
	movl	-12(%rbp), %ecx
	movq	-24(%rbp), %rdx
	cmpl	60(%rdx), %ecx
	ja	.LBB63_4
# %bb.3:                                # %land.rhs
                                        #   in Loop: Header=BB63_2 Depth=2
	movl	-4(%rbp), %eax
	cmpl	PicSizeInMapUnits, %eax
	setb	%al
.LBB63_4:                               # %land.end
                                        #   in Loop: Header=BB63_2 Depth=2
	testb	$1, %al
	jne	.LBB63_5
	jmp	.LBB63_13
.LBB63_5:                               # %for.body
                                        #   in Loop: Header=BB63_2 Depth=2
	movl	$0, -8(%rbp)
.LBB63_6:                               # %for.cond2
                                        #   Parent Loop BB63_1 Depth=1
                                        #     Parent Loop BB63_2 Depth=2
                                        # =>    This Inner Loop Header: Depth=3
	xorl	%eax, %eax
	movl	-8(%rbp), %ecx
	movq	-24(%rbp), %rdx
	movl	-12(%rbp), %esi
	cmpl	68(%rdx,%rsi,4), %ecx
	ja	.LBB63_8
# %bb.7:                                # %land.rhs4
                                        #   in Loop: Header=BB63_6 Depth=3
	movl	-4(%rbp), %eax
	addl	-8(%rbp), %eax
	cmpl	PicSizeInMapUnits, %eax
	setb	%al
.LBB63_8:                               # %land.end6
                                        #   in Loop: Header=BB63_6 Depth=3
	testb	$1, %al
	jne	.LBB63_9
	jmp	.LBB63_11
.LBB63_9:                               # %for.body7
                                        #   in Loop: Header=BB63_6 Depth=3
	movl	-12(%rbp), %eax
	movq	MapUnitToSliceGroupMap, %rcx
	movl	-4(%rbp), %edx
	addl	-8(%rbp), %edx
	movl	%edx, %edx
	movb	%al, (%rcx,%rdx)
# %bb.10:                               # %for.inc
                                        #   in Loop: Header=BB63_6 Depth=3
	movl	-8(%rbp), %eax
	addl	$1, %eax
	movl	%eax, -8(%rbp)
	jmp	.LBB63_6
.LBB63_11:                              # %for.end
                                        #   in Loop: Header=BB63_2 Depth=2
	jmp	.LBB63_12
.LBB63_12:                              # %for.inc11
                                        #   in Loop: Header=BB63_2 Depth=2
	movq	-24(%rbp), %rax
	movl	-12(%rbp), %ecx
	movl	%ecx, %edx
	addl	$1, %edx
	movl	%edx, -12(%rbp)
	movl	%ecx, %ecx
	movl	68(%rax,%rcx,4), %eax
	addl	$1, %eax
	addl	-4(%rbp), %eax
	movl	%eax, -4(%rbp)
	jmp	.LBB63_2
.LBB63_13:                              # %for.end18
                                        #   in Loop: Header=BB63_1 Depth=1
	jmp	.LBB63_14
.LBB63_14:                              # %do.cond
                                        #   in Loop: Header=BB63_1 Depth=1
	movl	-4(%rbp), %eax
	cmpl	PicSizeInMapUnits, %eax
	jb	.LBB63_1
# %bb.15:                               # %do.end
	cmpl	$186317184, -28(%rbp)   # imm = 0xB1AF980
	jne	.LBB63_17
.LBB63_16:
	addq	$48, %rsp
	popq	%rbp
	.cfi_def_cfa %rsp, 8
	retq
.LBB63_17:                              # %func_exit
	.cfi_def_cfa %rbp, 16
	callq	detect_breach
	jmp	.LBB63_16
.Lfunc_end63:
	.size	FmoGenerateType0MapUnitMap.43, .Lfunc_end63-FmoGenerateType0MapUnitMap.43
	.cfi_endproc
                                        # -- End function
	.globl	FmoGetFirstMBOfSliceGroup.44 # -- Begin function FmoGetFirstMBOfSliceGroup.44
	.p2align	4, 0x90
	.type	FmoGetFirstMBOfSliceGroup.44,@function
FmoGetFirstMBOfSliceGroup.44:           # @FmoGetFirstMBOfSliceGroup.44
	.cfi_startproc
# %bb.0:                                # %entry
	pushq	%rbp
	.cfi_def_cfa_offset 16
	.cfi_offset %rbp, -16
	movq	%rsp, %rbp
	.cfi_def_cfa_register %rbp
	pushq	%rbx
	subq	$24, %rsp
	.cfi_offset %rbx, -24
	movl	$76926033, -20(%rbp)    # imm = 0x495CC51
	movl	%edi, -24(%rbp)
	movl	$0, -12(%rbp)
.LBB64_1:                               # %while.cond
                                        # =>This Inner Loop Header: Depth=1
	xorl	%eax, %eax
	movl	-12(%rbp), %ecx
	movq	img, %rdx
	cmpl	72484(%rdx), %ecx
	jge	.LBB64_3
# %bb.2:                                # %land.rhs
                                        #   in Loop: Header=BB64_1 Depth=1
	movl	-12(%rbp), %edi
	callq	FmoMB2SliceGroup
	cmpl	-24(%rbp), %eax
	setne	%al
.LBB64_3:                               # %land.end
                                        #   in Loop: Header=BB64_1 Depth=1
	testb	$1, %al
	jne	.LBB64_4
	jmp	.LBB64_5
.LBB64_4:                               # %while.body
                                        #   in Loop: Header=BB64_1 Depth=1
	movl	-12(%rbp), %eax
	addl	$1, %eax
	movl	%eax, -12(%rbp)
	jmp	.LBB64_1
.LBB64_5:                               # %while.end
	movl	-12(%rbp), %eax
	movq	img, %rcx
	cmpl	72484(%rcx), %eax
	jge	.LBB64_7
# %bb.6:                                # %if.then
	movl	-12(%rbp), %eax
	movl	%eax, -16(%rbp)
	jmp	.LBB64_8
.LBB64_7:                               # %if.else
	movl	$-1, -16(%rbp)
.LBB64_8:                               # %return
	movl	-16(%rbp), %ebx
	cmpl	$76926033, -20(%rbp)    # imm = 0x495CC51
	jne	.LBB64_10
.LBB64_9:
	movl	%ebx, %eax
	addq	$24, %rsp
	popq	%rbx
	popq	%rbp
	.cfi_def_cfa %rsp, 8
	retq
.LBB64_10:                              # %func_exit
	.cfi_def_cfa %rbp, 16
	callq	detect_breach
	jmp	.LBB64_9
.Lfunc_end64:
	.size	FmoGetFirstMBOfSliceGroup.44, .Lfunc_end64-FmoGetFirstMBOfSliceGroup.44
	.cfi_endproc
                                        # -- End function
	.globl	FmoGetNextMBNr.45       # -- Begin function FmoGetNextMBNr.45
	.p2align	4, 0x90
	.type	FmoGetNextMBNr.45,@function
FmoGetNextMBNr.45:                      # @FmoGetNextMBNr.45
	.cfi_startproc
# %bb.0:                                # %entry
	pushq	%rbp
	.cfi_def_cfa_offset 16
	.cfi_offset %rbp, -16
	movq	%rsp, %rbp
	.cfi_def_cfa_register %rbp
	pushq	%rbx
	subq	$24, %rsp
	.cfi_offset %rbx, -24
	movl	$2145885877, -24(%rbp)  # imm = 0x7FE79EB5
	movl	%edi, -12(%rbp)
	movl	-12(%rbp), %edi
	callq	FmoMB2SliceGroup
	movl	%eax, -20(%rbp)
.LBB65_1:                               # %while.cond
                                        # =>This Inner Loop Header: Depth=1
	xorl	%eax, %eax
	movl	-12(%rbp), %ecx
	addl	$1, %ecx
	movl	%ecx, -12(%rbp)
	movq	img, %rdx
	cmpl	72484(%rdx), %ecx
	jge	.LBB65_3
# %bb.2:                                # %land.rhs
                                        #   in Loop: Header=BB65_1 Depth=1
	movq	MBAmap, %rax
	movslq	-12(%rbp), %rcx
	movzbl	(%rax,%rcx), %eax
	cmpl	-20(%rbp), %eax
	setne	%al
.LBB65_3:                               # %land.end
                                        #   in Loop: Header=BB65_1 Depth=1
	testb	$1, %al
	jne	.LBB65_4
	jmp	.LBB65_5
.LBB65_4:                               # %while.body
                                        #   in Loop: Header=BB65_1 Depth=1
	jmp	.LBB65_1
.LBB65_5:                               # %while.end
	movl	-12(%rbp), %eax
	movq	img, %rcx
	cmpl	72484(%rcx), %eax
	jl	.LBB65_7
# %bb.6:                                # %if.then
	movl	$-1, -16(%rbp)
	jmp	.LBB65_8
.LBB65_7:                               # %if.else
	movl	-12(%rbp), %eax
	movl	%eax, -16(%rbp)
.LBB65_8:                               # %return
	movl	-16(%rbp), %ebx
	cmpl	$2145885877, -24(%rbp)  # imm = 0x7FE79EB5
	jne	.LBB65_10
.LBB65_9:
	movl	%ebx, %eax
	addq	$24, %rsp
	popq	%rbx
	popq	%rbp
	.cfi_def_cfa %rsp, 8
	retq
.LBB65_10:                              # %func_exit
	.cfi_def_cfa %rbp, 16
	callq	detect_breach
	jmp	.LBB65_9
.Lfunc_end65:
	.size	FmoGetNextMBNr.45, .Lfunc_end65-FmoGetNextMBNr.45
	.cfi_endproc
                                        # -- End function
	.globl	FmoGetPreviousMBNr.46   # -- Begin function FmoGetPreviousMBNr.46
	.p2align	4, 0x90
	.type	FmoGetPreviousMBNr.46,@function
FmoGetPreviousMBNr.46:                  # @FmoGetPreviousMBNr.46
	.cfi_startproc
# %bb.0:                                # %entry
	pushq	%rbp
	.cfi_def_cfa_offset 16
	.cfi_offset %rbp, -16
	movq	%rsp, %rbp
	.cfi_def_cfa_register %rbp
	pushq	%rbx
	subq	$24, %rsp
	.cfi_offset %rbx, -24
	movl	$1001918606, -24(%rbp)  # imm = 0x3BB8108E
	movl	%edi, -12(%rbp)
	movl	-12(%rbp), %edi
	callq	FmoMB2SliceGroup
	movl	%eax, -20(%rbp)
	movl	-12(%rbp), %eax
	addl	$-1, %eax
	movl	%eax, -12(%rbp)
.LBB66_1:                               # %while.cond
                                        # =>This Inner Loop Header: Depth=1
	xorl	%eax, %eax
	cmpl	$0, -12(%rbp)
	jl	.LBB66_3
# %bb.2:                                # %land.rhs
                                        #   in Loop: Header=BB66_1 Depth=1
	movq	MBAmap, %rax
	movslq	-12(%rbp), %rcx
	movzbl	(%rax,%rcx), %eax
	cmpl	-20(%rbp), %eax
	setne	%al
.LBB66_3:                               # %land.end
                                        #   in Loop: Header=BB66_1 Depth=1
	testb	$1, %al
	jne	.LBB66_4
	jmp	.LBB66_5
.LBB66_4:                               # %while.body
                                        #   in Loop: Header=BB66_1 Depth=1
	movl	-12(%rbp), %eax
	addl	$-1, %eax
	movl	%eax, -12(%rbp)
	jmp	.LBB66_1
.LBB66_5:                               # %while.end
	cmpl	$0, -12(%rbp)
	jge	.LBB66_7
# %bb.6:                                # %if.then
	movl	$-1, -16(%rbp)
	jmp	.LBB66_8
.LBB66_7:                               # %if.else
	movl	-12(%rbp), %eax
	movl	%eax, -16(%rbp)
.LBB66_8:                               # %return
	movl	-16(%rbp), %ebx
	cmpl	$1001918606, -24(%rbp)  # imm = 0x3BB8108E
	jne	.LBB66_10
.LBB66_9:
	movl	%ebx, %eax
	addq	$24, %rsp
	popq	%rbx
	popq	%rbp
	.cfi_def_cfa %rsp, 8
	retq
.LBB66_10:                              # %func_exit
	.cfi_def_cfa %rbp, 16
	callq	detect_breach
	jmp	.LBB66_9
.Lfunc_end66:
	.size	FmoGetPreviousMBNr.46, .Lfunc_end66-FmoGetPreviousMBNr.46
	.cfi_endproc
                                        # -- End function
	.globl	FmoGetLastCodedMBOfSliceGroup.47 # -- Begin function FmoGetLastCodedMBOfSliceGroup.47
	.p2align	4, 0x90
	.type	FmoGetLastCodedMBOfSliceGroup.47,@function
FmoGetLastCodedMBOfSliceGroup.47:       # @FmoGetLastCodedMBOfSliceGroup.47
	.cfi_startproc
# %bb.0:                                # %entry
	pushq	%rbp
	.cfi_def_cfa_offset 16
	.cfi_offset %rbp, -16
	movq	%rsp, %rbp
	.cfi_def_cfa_register %rbp
	pushq	%rbx
	subq	$24, %rsp
	.cfi_offset %rbx, -24
	movl	$1116339430, -20(%rbp)  # imm = 0x4289FCE6
	movl	%edi, -24(%rbp)
	movl	$-1, -16(%rbp)
	movl	$0, -12(%rbp)
.LBB67_1:                               # %for.cond
                                        # =>This Inner Loop Header: Depth=1
	movl	-12(%rbp), %eax
	movq	img, %rcx
	cmpl	72484(%rcx), %eax
	jge	.LBB67_6
# %bb.2:                                # %for.body
                                        #   in Loop: Header=BB67_1 Depth=1
	movl	-12(%rbp), %edi
	callq	FmoMB2SliceGroup
	cmpl	-24(%rbp), %eax
	jne	.LBB67_4
# %bb.3:                                # %if.then
                                        #   in Loop: Header=BB67_1 Depth=1
	movl	-12(%rbp), %eax
	movl	%eax, -16(%rbp)
.LBB67_4:                               # %if.end
                                        #   in Loop: Header=BB67_1 Depth=1
	jmp	.LBB67_5
.LBB67_5:                               # %for.inc
                                        #   in Loop: Header=BB67_1 Depth=1
	movl	-12(%rbp), %eax
	addl	$1, %eax
	movl	%eax, -12(%rbp)
	jmp	.LBB67_1
.LBB67_6:                               # %for.end
	movl	-16(%rbp), %ebx
	cmpl	$1116339430, -20(%rbp)  # imm = 0x4289FCE6
	jne	.LBB67_8
.LBB67_7:
	movl	%ebx, %eax
	addq	$24, %rsp
	popq	%rbx
	popq	%rbp
	.cfi_def_cfa %rsp, 8
	retq
.LBB67_8:                               # %func_exit
	.cfi_def_cfa %rbp, 16
	callq	detect_breach
	jmp	.LBB67_7
.Lfunc_end67:
	.size	FmoGetLastCodedMBOfSliceGroup.47, .Lfunc_end67-FmoGetLastCodedMBOfSliceGroup.47
	.cfi_endproc
                                        # -- End function
	.p2align	4, 0x90         # -- Begin function FmoGenerateType2MapUnitMap.48
	.type	FmoGenerateType2MapUnitMap.48,@function
FmoGenerateType2MapUnitMap.48:          # @FmoGenerateType2MapUnitMap.48
	.cfi_startproc
# %bb.0:                                # %entry
	pushq	%rbp
	.cfi_def_cfa_offset 16
	.cfi_offset %rbp, -16
	movq	%rsp, %rbp
	.cfi_def_cfa_register %rbp
	subq	$64, %rsp
	movl	$415416012, -44(%rbp)   # imm = 0x18C2BECC
	movq	%rdi, -32(%rbp)
	movq	%rsi, -24(%rbp)
	movl	$0, -8(%rbp)
.LBB68_1:                               # %for.cond
                                        # =>This Inner Loop Header: Depth=1
	movl	-8(%rbp), %eax
	cmpl	PicSizeInMapUnits, %eax
	jae	.LBB68_4
# %bb.2:                                # %for.body
                                        #   in Loop: Header=BB68_1 Depth=1
	movq	-24(%rbp), %rax
	movl	60(%rax), %eax
	movq	MapUnitToSliceGroupMap, %rcx
	movl	-8(%rbp), %edx
	movb	%al, (%rcx,%rdx)
# %bb.3:                                # %for.inc
                                        #   in Loop: Header=BB68_1 Depth=1
	movl	-8(%rbp), %eax
	addl	$1, %eax
	movl	%eax, -8(%rbp)
	jmp	.LBB68_1
.LBB68_4:                               # %for.end
	movq	-24(%rbp), %rax
	movl	60(%rax), %eax
	subl	$1, %eax
	movl	%eax, -4(%rbp)
.LBB68_5:                               # %for.cond2
                                        # =>This Loop Header: Depth=1
                                        #     Child Loop BB68_7 Depth 2
                                        #       Child Loop BB68_9 Depth 3
	cmpl	$0, -4(%rbp)
	jl	.LBB68_16
# %bb.6:                                # %for.body5
                                        #   in Loop: Header=BB68_5 Depth=1
	movq	-24(%rbp), %rax
	movslq	-4(%rbp), %rcx
	movl	100(%rax,%rcx,4), %eax
	movq	-32(%rbp), %rcx
	xorl	%edx, %edx
	divl	72468(%rcx)
	movl	%eax, -48(%rbp)
	movq	-24(%rbp), %rax
	movslq	-4(%rbp), %rcx
	movl	100(%rax,%rcx,4), %eax
	movq	-32(%rbp), %rcx
	xorl	%edx, %edx
	divl	72468(%rcx)
	movl	%edx, -52(%rbp)
	movq	-24(%rbp), %rax
	movslq	-4(%rbp), %rcx
	movl	132(%rax,%rcx,4), %eax
	movq	-32(%rbp), %rcx
	xorl	%edx, %edx
	divl	72468(%rcx)
	movl	%eax, -40(%rbp)
	movq	-24(%rbp), %rax
	movslq	-4(%rbp), %rcx
	movl	132(%rax,%rcx,4), %eax
	movq	-32(%rbp), %rcx
	xorl	%edx, %edx
	divl	72468(%rcx)
	movl	%edx, -36(%rbp)
	movl	-48(%rbp), %eax
	movl	%eax, -12(%rbp)
.LBB68_7:                               # %for.cond21
                                        #   Parent Loop BB68_5 Depth=1
                                        # =>  This Loop Header: Depth=2
                                        #       Child Loop BB68_9 Depth 3
	movl	-12(%rbp), %eax
	cmpl	-40(%rbp), %eax
	ja	.LBB68_14
# %bb.8:                                # %for.body24
                                        #   in Loop: Header=BB68_7 Depth=2
	movl	-52(%rbp), %eax
	movl	%eax, -16(%rbp)
.LBB68_9:                               # %for.cond25
                                        #   Parent Loop BB68_5 Depth=1
                                        #     Parent Loop BB68_7 Depth=2
                                        # =>    This Inner Loop Header: Depth=3
	movl	-16(%rbp), %eax
	cmpl	-36(%rbp), %eax
	ja	.LBB68_12
# %bb.10:                               # %for.body28
                                        #   in Loop: Header=BB68_9 Depth=3
	movl	-4(%rbp), %eax
	movq	MapUnitToSliceGroupMap, %rcx
	movl	-12(%rbp), %edx
	movq	-32(%rbp), %rsi
	imull	72468(%rsi), %edx
	addl	-16(%rbp), %edx
	movl	%edx, %edx
	movb	%al, (%rcx,%rdx)
# %bb.11:                               # %for.inc33
                                        #   in Loop: Header=BB68_9 Depth=3
	movl	-16(%rbp), %eax
	addl	$1, %eax
	movl	%eax, -16(%rbp)
	jmp	.LBB68_9
.LBB68_12:                              # %for.end35
                                        #   in Loop: Header=BB68_7 Depth=2
	jmp	.LBB68_13
.LBB68_13:                              # %for.inc36
                                        #   in Loop: Header=BB68_7 Depth=2
	movl	-12(%rbp), %eax
	addl	$1, %eax
	movl	%eax, -12(%rbp)
	jmp	.LBB68_7
.LBB68_14:                              # %for.end38
                                        #   in Loop: Header=BB68_5 Depth=1
	jmp	.LBB68_15
.LBB68_15:                              # %for.inc39
                                        #   in Loop: Header=BB68_5 Depth=1
	movl	-4(%rbp), %eax
	addl	$-1, %eax
	movl	%eax, -4(%rbp)
	jmp	.LBB68_5
.LBB68_16:                              # %for.end40
	cmpl	$415416012, -44(%rbp)   # imm = 0x18C2BECC
	jne	.LBB68_18
.LBB68_17:
	addq	$64, %rsp
	popq	%rbp
	.cfi_def_cfa %rsp, 8
	retq
.LBB68_18:                              # %func_exit
	.cfi_def_cfa %rbp, 16
	callq	detect_breach
	jmp	.LBB68_17
.Lfunc_end68:
	.size	FmoGenerateType2MapUnitMap.48, .Lfunc_end68-FmoGenerateType2MapUnitMap.48
	.cfi_endproc
                                        # -- End function
	.p2align	4, 0x90         # -- Begin function FmoGenerateType4MapUnitMap.49
	.type	FmoGenerateType4MapUnitMap.49,@function
FmoGenerateType4MapUnitMap.49:          # @FmoGenerateType4MapUnitMap.49
	.cfi_startproc
# %bb.0:                                # %entry
	pushq	%rbp
	.cfi_def_cfa_offset 16
	.cfi_offset %rbp, -16
	movq	%rsp, %rbp
	.cfi_def_cfa_register %rbp
	subq	$48, %rsp
	movl	$256353581, -24(%rbp)   # imm = 0xF47A52D
	movq	%rdi, -40(%rbp)
	movq	%rsi, -16(%rbp)
	movq	-16(%rbp), %rax
	movl	168(%rax), %eax
	addl	$1, %eax
	movq	-40(%rbp), %rcx
	imull	72652(%rcx), %eax
	cmpl	PicSizeInMapUnits, %eax
	jae	.LBB69_2
# %bb.1:                                # %cond.true
	movq	-16(%rbp), %rax
	movl	168(%rax), %eax
	addl	$1, %eax
	movq	-40(%rbp), %rcx
	imull	72652(%rcx), %eax
	jmp	.LBB69_3
.LBB69_2:                               # %cond.false
	movl	PicSizeInMapUnits, %eax
.LBB69_3:                               # %cond.end
	movl	%eax, -20(%rbp)
	movq	-16(%rbp), %rax
	cmpl	$0, 164(%rax)
	je	.LBB69_5
# %bb.4:                                # %cond.true5
	movl	PicSizeInMapUnits, %eax
	subl	-20(%rbp), %eax
	jmp	.LBB69_6
.LBB69_5:                               # %cond.false6
	movl	-20(%rbp), %eax
.LBB69_6:                               # %cond.end7
	movl	%eax, -28(%rbp)
	movl	$0, -4(%rbp)
.LBB69_7:                               # %for.cond
                                        # =>This Inner Loop Header: Depth=1
	movl	-4(%rbp), %eax
	cmpl	PicSizeInMapUnits, %eax
	jae	.LBB69_13
# %bb.8:                                # %for.body
                                        #   in Loop: Header=BB69_7 Depth=1
	movl	-4(%rbp), %eax
	cmpl	-28(%rbp), %eax
	jae	.LBB69_10
# %bb.9:                                # %if.then
                                        #   in Loop: Header=BB69_7 Depth=1
	movq	-16(%rbp), %rax
	movl	164(%rax), %eax
	movq	MapUnitToSliceGroupMap, %rcx
	movl	-4(%rbp), %edx
	movb	%al, (%rcx,%rdx)
	jmp	.LBB69_11
.LBB69_10:                              # %if.else
                                        #   in Loop: Header=BB69_7 Depth=1
	movq	-16(%rbp), %rax
	movl	$1, %ecx
	subl	164(%rax), %ecx
	movq	MapUnitToSliceGroupMap, %rax
	movl	-4(%rbp), %edx
	movb	%cl, (%rax,%rdx)
.LBB69_11:                              # %if.end
                                        #   in Loop: Header=BB69_7 Depth=1
	jmp	.LBB69_12
.LBB69_12:                              # %for.inc
                                        #   in Loop: Header=BB69_7 Depth=1
	movl	-4(%rbp), %eax
	addl	$1, %eax
	movl	%eax, -4(%rbp)
	jmp	.LBB69_7
.LBB69_13:                              # %for.end
	cmpl	$256353581, -24(%rbp)   # imm = 0xF47A52D
	jne	.LBB69_15
.LBB69_14:
	addq	$48, %rsp
	popq	%rbp
	.cfi_def_cfa %rsp, 8
	retq
.LBB69_15:                              # %func_exit
	.cfi_def_cfa %rbp, 16
	callq	detect_breach
	jmp	.LBB69_14
.Lfunc_end69:
	.size	FmoGenerateType4MapUnitMap.49, .Lfunc_end69-FmoGenerateType4MapUnitMap.49
	.cfi_endproc
                                        # -- End function
	.globl	FmoGetFirstMBOfSliceGroup.50 # -- Begin function FmoGetFirstMBOfSliceGroup.50
	.p2align	4, 0x90
	.type	FmoGetFirstMBOfSliceGroup.50,@function
FmoGetFirstMBOfSliceGroup.50:           # @FmoGetFirstMBOfSliceGroup.50
	.cfi_startproc
# %bb.0:                                # %entry
	pushq	%rbp
	.cfi_def_cfa_offset 16
	.cfi_offset %rbp, -16
	movq	%rsp, %rbp
	.cfi_def_cfa_register %rbp
	pushq	%rbx
	subq	$24, %rsp
	.cfi_offset %rbx, -24
	movl	$826816275, -20(%rbp)   # imm = 0x31483713
	movl	%edi, -24(%rbp)
	movl	$0, -12(%rbp)
.LBB70_1:                               # %while.cond
                                        # =>This Inner Loop Header: Depth=1
	xorl	%eax, %eax
	movl	-12(%rbp), %ecx
	movq	img, %rdx
	cmpl	72484(%rdx), %ecx
	jge	.LBB70_3
# %bb.2:                                # %land.rhs
                                        #   in Loop: Header=BB70_1 Depth=1
	movl	-12(%rbp), %edi
	callq	FmoMB2SliceGroup
	cmpl	-24(%rbp), %eax
	setne	%al
.LBB70_3:                               # %land.end
                                        #   in Loop: Header=BB70_1 Depth=1
	testb	$1, %al
	jne	.LBB70_4
	jmp	.LBB70_5
.LBB70_4:                               # %while.body
                                        #   in Loop: Header=BB70_1 Depth=1
	movl	-12(%rbp), %eax
	addl	$1, %eax
	movl	%eax, -12(%rbp)
	jmp	.LBB70_1
.LBB70_5:                               # %while.end
	movl	-12(%rbp), %eax
	movq	img, %rcx
	cmpl	72484(%rcx), %eax
	jge	.LBB70_7
# %bb.6:                                # %if.then
	movl	-12(%rbp), %eax
	movl	%eax, -16(%rbp)
	jmp	.LBB70_8
.LBB70_7:                               # %if.else
	movl	$-1, -16(%rbp)
.LBB70_8:                               # %return
	movl	-16(%rbp), %ebx
	cmpl	$826816275, -20(%rbp)   # imm = 0x31483713
	jne	.LBB70_10
.LBB70_9:
	movl	%ebx, %eax
	addq	$24, %rsp
	popq	%rbx
	popq	%rbp
	.cfi_def_cfa %rsp, 8
	retq
.LBB70_10:                              # %func_exit
	.cfi_def_cfa %rbp, 16
	callq	detect_breach
	jmp	.LBB70_9
.Lfunc_end70:
	.size	FmoGetFirstMBOfSliceGroup.50, .Lfunc_end70-FmoGetFirstMBOfSliceGroup.50
	.cfi_endproc
                                        # -- End function
	.globl	FmoInit.51              # -- Begin function FmoInit.51
	.p2align	4, 0x90
	.type	FmoInit.51,@function
FmoInit.51:                             # @FmoInit.51
	.cfi_startproc
# %bb.0:                                # %entry
	pushq	%rbp
	.cfi_def_cfa_offset 16
	.cfi_offset %rbp, -16
	movq	%rsp, %rbp
	.cfi_def_cfa_register %rbp
	subq	$32, %rsp
	movl	$1428089397, -8(%rbp)   # imm = 0x551EEA35
	movq	%rdi, -16(%rbp)
	movq	%rsi, -32(%rbp)
	movq	%rdx, -24(%rbp)
	movl	$0, -4(%rbp)
.LBB71_1:                               # %for.cond
                                        # =>This Inner Loop Header: Depth=1
	cmpl	$8, -4(%rbp)
	jge	.LBB71_4
# %bb.2:                                # %for.body
                                        #   in Loop: Header=BB71_1 Depth=1
	movslq	-4(%rbp), %rax
	movl	$-1, FirstMBInSlice(,%rax,4)
# %bb.3:                                # %for.inc
                                        #   in Loop: Header=BB71_1 Depth=1
	movl	-4(%rbp), %eax
	addl	$1, %eax
	movl	%eax, -4(%rbp)
	jmp	.LBB71_1
.LBB71_4:                               # %for.end
	movq	-16(%rbp), %rdi
	movq	-32(%rbp), %rsi
	callq	FmoGenerateMapUnitToSliceGroupMap
	movq	-16(%rbp), %rdi
	movq	-24(%rbp), %rsi
	callq	FmoGenerateMBAmap
	cmpl	$1428089397, -8(%rbp)   # imm = 0x551EEA35
	jne	.LBB71_6
.LBB71_5:
	xorl	%eax, %eax
	addq	$32, %rsp
	popq	%rbp
	.cfi_def_cfa %rsp, 8
	retq
.LBB71_6:                               # %func_exit
	.cfi_def_cfa %rbp, 16
	callq	detect_breach
	jmp	.LBB71_5
.Lfunc_end71:
	.size	FmoInit.51, .Lfunc_end71-FmoInit.51
	.cfi_endproc
                                        # -- End function
	.globl	FmoGetPreviousMBNr.52   # -- Begin function FmoGetPreviousMBNr.52
	.p2align	4, 0x90
	.type	FmoGetPreviousMBNr.52,@function
FmoGetPreviousMBNr.52:                  # @FmoGetPreviousMBNr.52
	.cfi_startproc
# %bb.0:                                # %entry
	pushq	%rbp
	.cfi_def_cfa_offset 16
	.cfi_offset %rbp, -16
	movq	%rsp, %rbp
	.cfi_def_cfa_register %rbp
	pushq	%rbx
	subq	$24, %rsp
	.cfi_offset %rbx, -24
	movl	$1969925053, -24(%rbp)  # imm = 0x756AABBD
	movl	%edi, -12(%rbp)
	movl	-12(%rbp), %edi
	callq	FmoMB2SliceGroup
	movl	%eax, -20(%rbp)
	movl	-12(%rbp), %eax
	addl	$-1, %eax
	movl	%eax, -12(%rbp)
.LBB72_1:                               # %while.cond
                                        # =>This Inner Loop Header: Depth=1
	xorl	%eax, %eax
	cmpl	$0, -12(%rbp)
	jl	.LBB72_3
# %bb.2:                                # %land.rhs
                                        #   in Loop: Header=BB72_1 Depth=1
	movq	MBAmap, %rax
	movslq	-12(%rbp), %rcx
	movzbl	(%rax,%rcx), %eax
	cmpl	-20(%rbp), %eax
	setne	%al
.LBB72_3:                               # %land.end
                                        #   in Loop: Header=BB72_1 Depth=1
	testb	$1, %al
	jne	.LBB72_4
	jmp	.LBB72_5
.LBB72_4:                               # %while.body
                                        #   in Loop: Header=BB72_1 Depth=1
	movl	-12(%rbp), %eax
	addl	$-1, %eax
	movl	%eax, -12(%rbp)
	jmp	.LBB72_1
.LBB72_5:                               # %while.end
	cmpl	$0, -12(%rbp)
	jge	.LBB72_7
# %bb.6:                                # %if.then
	movl	$-1, -16(%rbp)
	jmp	.LBB72_8
.LBB72_7:                               # %if.else
	movl	-12(%rbp), %eax
	movl	%eax, -16(%rbp)
.LBB72_8:                               # %return
	movl	-16(%rbp), %ebx
	cmpl	$1969925053, -24(%rbp)  # imm = 0x756AABBD
	jne	.LBB72_10
.LBB72_9:
	movl	%ebx, %eax
	addq	$24, %rsp
	popq	%rbx
	popq	%rbp
	.cfi_def_cfa %rsp, 8
	retq
.LBB72_10:                              # %func_exit
	.cfi_def_cfa %rbp, 16
	callq	detect_breach
	jmp	.LBB72_9
.Lfunc_end72:
	.size	FmoGetPreviousMBNr.52, .Lfunc_end72-FmoGetPreviousMBNr.52
	.cfi_endproc
                                        # -- End function
	.p2align	4, 0x90         # -- Begin function FmoGenerateType0MapUnitMap.53
	.type	FmoGenerateType0MapUnitMap.53,@function
FmoGenerateType0MapUnitMap.53:          # @FmoGenerateType0MapUnitMap.53
	.cfi_startproc
# %bb.0:                                # %entry
	pushq	%rbp
	.cfi_def_cfa_offset 16
	.cfi_offset %rbp, -16
	movq	%rsp, %rbp
	.cfi_def_cfa_register %rbp
	subq	$48, %rsp
	movl	$541449708, -28(%rbp)   # imm = 0x2045DDEC
	movq	%rdi, -40(%rbp)
	movq	%rsi, -24(%rbp)
	movl	$0, -4(%rbp)
.LBB73_1:                               # %do.body
                                        # =>This Loop Header: Depth=1
                                        #     Child Loop BB73_2 Depth 2
                                        #       Child Loop BB73_6 Depth 3
	movl	$0, -12(%rbp)
.LBB73_2:                               # %for.cond
                                        #   Parent Loop BB73_1 Depth=1
                                        # =>  This Loop Header: Depth=2
                                        #       Child Loop BB73_6 Depth 3
	xorl	%eax, %eax
	movl	-12(%rbp), %ecx
	movq	-24(%rbp), %rdx
	cmpl	60(%rdx), %ecx
	ja	.LBB73_4
# %bb.3:                                # %land.rhs
                                        #   in Loop: Header=BB73_2 Depth=2
	movl	-4(%rbp), %eax
	cmpl	PicSizeInMapUnits, %eax
	setb	%al
.LBB73_4:                               # %land.end
                                        #   in Loop: Header=BB73_2 Depth=2
	testb	$1, %al
	jne	.LBB73_5
	jmp	.LBB73_13
.LBB73_5:                               # %for.body
                                        #   in Loop: Header=BB73_2 Depth=2
	movl	$0, -8(%rbp)
.LBB73_6:                               # %for.cond2
                                        #   Parent Loop BB73_1 Depth=1
                                        #     Parent Loop BB73_2 Depth=2
                                        # =>    This Inner Loop Header: Depth=3
	xorl	%eax, %eax
	movl	-8(%rbp), %ecx
	movq	-24(%rbp), %rdx
	movl	-12(%rbp), %esi
	cmpl	68(%rdx,%rsi,4), %ecx
	ja	.LBB73_8
# %bb.7:                                # %land.rhs4
                                        #   in Loop: Header=BB73_6 Depth=3
	movl	-4(%rbp), %eax
	addl	-8(%rbp), %eax
	cmpl	PicSizeInMapUnits, %eax
	setb	%al
.LBB73_8:                               # %land.end6
                                        #   in Loop: Header=BB73_6 Depth=3
	testb	$1, %al
	jne	.LBB73_9
	jmp	.LBB73_11
.LBB73_9:                               # %for.body7
                                        #   in Loop: Header=BB73_6 Depth=3
	movl	-12(%rbp), %eax
	movq	MapUnitToSliceGroupMap, %rcx
	movl	-4(%rbp), %edx
	addl	-8(%rbp), %edx
	movl	%edx, %edx
	movb	%al, (%rcx,%rdx)
# %bb.10:                               # %for.inc
                                        #   in Loop: Header=BB73_6 Depth=3
	movl	-8(%rbp), %eax
	addl	$1, %eax
	movl	%eax, -8(%rbp)
	jmp	.LBB73_6
.LBB73_11:                              # %for.end
                                        #   in Loop: Header=BB73_2 Depth=2
	jmp	.LBB73_12
.LBB73_12:                              # %for.inc11
                                        #   in Loop: Header=BB73_2 Depth=2
	movq	-24(%rbp), %rax
	movl	-12(%rbp), %ecx
	movl	%ecx, %edx
	addl	$1, %edx
	movl	%edx, -12(%rbp)
	movl	%ecx, %ecx
	movl	68(%rax,%rcx,4), %eax
	addl	$1, %eax
	addl	-4(%rbp), %eax
	movl	%eax, -4(%rbp)
	jmp	.LBB73_2
.LBB73_13:                              # %for.end18
                                        #   in Loop: Header=BB73_1 Depth=1
	jmp	.LBB73_14
.LBB73_14:                              # %do.cond
                                        #   in Loop: Header=BB73_1 Depth=1
	movl	-4(%rbp), %eax
	cmpl	PicSizeInMapUnits, %eax
	jb	.LBB73_1
# %bb.15:                               # %do.end
	cmpl	$541449708, -28(%rbp)   # imm = 0x2045DDEC
	jne	.LBB73_17
.LBB73_16:
	addq	$48, %rsp
	popq	%rbp
	.cfi_def_cfa %rsp, 8
	retq
.LBB73_17:                              # %func_exit
	.cfi_def_cfa %rbp, 16
	callq	detect_breach
	jmp	.LBB73_16
.Lfunc_end73:
	.size	FmoGenerateType0MapUnitMap.53, .Lfunc_end73-FmoGenerateType0MapUnitMap.53
	.cfi_endproc
                                        # -- End function
	.p2align	4, 0x90         # -- Begin function FmoGenerateMBAmap.54
	.type	FmoGenerateMBAmap.54,@function
FmoGenerateMBAmap.54:                   # @FmoGenerateMBAmap.54
	.cfi_startproc
# %bb.0:                                # %entry
	pushq	%rbp
	.cfi_def_cfa_offset 16
	.cfi_offset %rbp, -16
	movq	%rsp, %rbp
	.cfi_def_cfa_register %rbp
	subq	$32, %rsp
	movl	$391975781, -20(%rbp)   # imm = 0x175D1365
	movq	%rdi, -16(%rbp)
	movq	%rsi, -32(%rbp)
	cmpq	$0, MBAmap
	je	.LBB74_2
# %bb.1:                                # %if.then
	movq	MBAmap, %rdi
	callq	free
.LBB74_2:                               # %if.end
	movq	-16(%rbp), %rax
	movl	72484(%rax), %edi
	shlq	$0, %rdi
	callq	malloc
	movq	%rax, MBAmap
	cmpq	$0, %rax
	jne	.LBB74_4
# %bb.3:                                # %if.then2
	movq	-16(%rbp), %rax
	movl	72484(%rax), %esi
	shlq	$0, %rsi
	movabsq	$.L.str.3, %rdi
	movb	$0, %al
	callq	printf
	movl	$4294967295, %edi       # imm = 0xFFFFFFFF
	callq	exit
.LBB74_4:                               # %if.end7
	movq	-32(%rbp), %rax
	cmpl	$0, 1148(%rax)
	jne	.LBB74_6
# %bb.5:                                # %lor.lhs.false
	movq	-16(%rbp), %rax
	cmpl	$0, 72444(%rax)
	je	.LBB74_11
.LBB74_6:                               # %if.then10
	movl	$0, -4(%rbp)
.LBB74_7:                               # %for.cond
                                        # =>This Inner Loop Header: Depth=1
	movl	-4(%rbp), %eax
	movq	-16(%rbp), %rcx
	cmpl	72484(%rcx), %eax
	jae	.LBB74_10
# %bb.8:                                # %for.body
                                        #   in Loop: Header=BB74_7 Depth=1
	movq	MapUnitToSliceGroupMap, %rax
	movl	-4(%rbp), %ecx
	movb	(%rax,%rcx), %al
	movq	MBAmap, %rcx
	movl	-4(%rbp), %edx
	movb	%al, (%rcx,%rdx)
# %bb.9:                                # %for.inc
                                        #   in Loop: Header=BB74_7 Depth=1
	movl	-4(%rbp), %eax
	addl	$1, %eax
	movl	%eax, -4(%rbp)
	jmp	.LBB74_7
.LBB74_10:                              # %for.end
	jmp	.LBB74_24
.LBB74_11:                              # %if.else
	movq	-32(%rbp), %rax
	cmpl	$0, 1152(%rax)
	je	.LBB74_18
# %bb.12:                               # %land.lhs.true
	movq	-16(%rbp), %rax
	cmpl	$0, 72444(%rax)
	jne	.LBB74_18
# %bb.13:                               # %if.then19
	movl	$0, -4(%rbp)
.LBB74_14:                              # %for.cond20
                                        # =>This Inner Loop Header: Depth=1
	movl	-4(%rbp), %eax
	movq	-16(%rbp), %rcx
	cmpl	72484(%rcx), %eax
	jae	.LBB74_17
# %bb.15:                               # %for.body24
                                        #   in Loop: Header=BB74_14 Depth=1
	movq	MapUnitToSliceGroupMap, %rax
	movl	-4(%rbp), %ecx
	shrl	$1, %ecx
	movl	%ecx, %ecx
	movb	(%rax,%rcx), %al
	movq	MBAmap, %rcx
	movl	-4(%rbp), %edx
	movb	%al, (%rcx,%rdx)
# %bb.16:                               # %for.inc29
                                        #   in Loop: Header=BB74_14 Depth=1
	movl	-4(%rbp), %eax
	addl	$1, %eax
	movl	%eax, -4(%rbp)
	jmp	.LBB74_14
.LBB74_17:                              # %for.end31
	jmp	.LBB74_23
.LBB74_18:                              # %if.else32
	movl	$0, -4(%rbp)
.LBB74_19:                              # %for.cond33
                                        # =>This Inner Loop Header: Depth=1
	movl	-4(%rbp), %eax
	movq	-16(%rbp), %rcx
	cmpl	72484(%rcx), %eax
	jae	.LBB74_22
# %bb.20:                               # %for.body37
                                        #   in Loop: Header=BB74_19 Depth=1
	movq	MapUnitToSliceGroupMap, %rsi
	movl	-4(%rbp), %eax
	movq	-16(%rbp), %rcx
	movl	72468(%rcx), %ecx
	shll	$1, %ecx
	xorl	%edx, %edx
	divl	%ecx
	movl	%eax, %ecx
	movq	-16(%rbp), %rax
	imull	72468(%rax), %ecx
	movl	-4(%rbp), %eax
	movq	-16(%rbp), %rdi
	xorl	%edx, %edx
	divl	72468(%rdi)
	addl	%edx, %ecx
	movl	%ecx, %eax
	movb	(%rsi,%rax), %al
	movq	MBAmap, %rcx
	movl	-4(%rbp), %edx
	movb	%al, (%rcx,%rdx)
# %bb.21:                               # %for.inc47
                                        #   in Loop: Header=BB74_19 Depth=1
	movl	-4(%rbp), %eax
	addl	$1, %eax
	movl	%eax, -4(%rbp)
	jmp	.LBB74_19
.LBB74_22:                              # %for.end49
	jmp	.LBB74_23
.LBB74_23:                              # %if.end50
	jmp	.LBB74_24
.LBB74_24:                              # %if.end51
	cmpl	$391975781, -20(%rbp)   # imm = 0x175D1365
	jne	.LBB74_26
.LBB74_25:
	xorl	%eax, %eax
	addq	$32, %rsp
	popq	%rbp
	.cfi_def_cfa %rsp, 8
	retq
.LBB74_26:                              # %func_exit
	.cfi_def_cfa %rbp, 16
	callq	detect_breach
	jmp	.LBB74_25
.Lfunc_end74:
	.size	FmoGenerateMBAmap.54, .Lfunc_end74-FmoGenerateMBAmap.54
	.cfi_endproc
                                        # -- End function
	.p2align	4, 0x90         # -- Begin function FmoGenerateType5MapUnitMap.55
	.type	FmoGenerateType5MapUnitMap.55,@function
FmoGenerateType5MapUnitMap.55:          # @FmoGenerateType5MapUnitMap.55
	.cfi_startproc
# %bb.0:                                # %entry
	pushq	%rbp
	.cfi_def_cfa_offset 16
	.cfi_offset %rbp, -16
	movq	%rsp, %rbp
	.cfi_def_cfa_register %rbp
	subq	$48, %rsp
	movl	$611673152, -40(%rbp)   # imm = 0x24756440
	movq	%rdi, -16(%rbp)
	movq	%rsi, -24(%rbp)
	movq	-24(%rbp), %rax
	movl	168(%rax), %eax
	addl	$1, %eax
	movq	-16(%rbp), %rcx
	imull	72652(%rcx), %eax
	cmpl	PicSizeInMapUnits, %eax
	jae	.LBB75_2
# %bb.1:                                # %cond.true
	movq	-24(%rbp), %rax
	movl	168(%rax), %eax
	addl	$1, %eax
	movq	-16(%rbp), %rcx
	imull	72652(%rcx), %eax
	jmp	.LBB75_3
.LBB75_2:                               # %cond.false
	movl	PicSizeInMapUnits, %eax
.LBB75_3:                               # %cond.end
	movl	%eax, -32(%rbp)
	movq	-24(%rbp), %rax
	cmpl	$0, 164(%rax)
	je	.LBB75_5
# %bb.4:                                # %cond.true5
	movl	PicSizeInMapUnits, %eax
	subl	-32(%rbp), %eax
	jmp	.LBB75_6
.LBB75_5:                               # %cond.false6
	movl	-32(%rbp), %eax
.LBB75_6:                               # %cond.end7
	movl	%eax, -36(%rbp)
	movl	$0, -28(%rbp)
	movl	$0, -8(%rbp)
.LBB75_7:                               # %for.cond
                                        # =>This Loop Header: Depth=1
                                        #     Child Loop BB75_9 Depth 2
	movl	-8(%rbp), %eax
	movq	-16(%rbp), %rcx
	cmpl	72468(%rcx), %eax
	jae	.LBB75_17
# %bb.8:                                # %for.body
                                        #   in Loop: Header=BB75_7 Depth=1
	movl	$0, -4(%rbp)
.LBB75_9:                               # %for.cond10
                                        #   Parent Loop BB75_7 Depth=1
                                        # =>  This Inner Loop Header: Depth=2
	movl	-4(%rbp), %eax
	movq	-16(%rbp), %rcx
	cmpl	72472(%rcx), %eax
	jae	.LBB75_15
# %bb.10:                               # %for.body12
                                        #   in Loop: Header=BB75_9 Depth=2
	movl	-28(%rbp), %eax
	movl	%eax, %ecx
	addl	$1, %ecx
	movl	%ecx, -28(%rbp)
	cmpl	-36(%rbp), %eax
	jae	.LBB75_12
# %bb.11:                               # %if.then
                                        #   in Loop: Header=BB75_9 Depth=2
	movq	-24(%rbp), %rax
	movl	$1, %ecx
	subl	164(%rax), %ecx
	movq	MapUnitToSliceGroupMap, %rax
	movl	-4(%rbp), %edx
	movq	-16(%rbp), %rsi
	imull	72468(%rsi), %edx
	addl	-8(%rbp), %edx
	movl	%edx, %edx
	movb	%cl, (%rax,%rdx)
	jmp	.LBB75_13
.LBB75_12:                              # %if.else
                                        #   in Loop: Header=BB75_9 Depth=2
	movq	-24(%rbp), %rax
	movl	164(%rax), %eax
	movq	MapUnitToSliceGroupMap, %rcx
	movl	-4(%rbp), %edx
	movq	-16(%rbp), %rsi
	imull	72468(%rsi), %edx
	addl	-8(%rbp), %edx
	movl	%edx, %edx
	movb	%al, (%rcx,%rdx)
.LBB75_13:                              # %if.end
                                        #   in Loop: Header=BB75_9 Depth=2
	jmp	.LBB75_14
.LBB75_14:                              # %for.inc
                                        #   in Loop: Header=BB75_9 Depth=2
	movl	-4(%rbp), %eax
	addl	$1, %eax
	movl	%eax, -4(%rbp)
	jmp	.LBB75_9
.LBB75_15:                              # %for.end
                                        #   in Loop: Header=BB75_7 Depth=1
	jmp	.LBB75_16
.LBB75_16:                              # %for.inc27
                                        #   in Loop: Header=BB75_7 Depth=1
	movl	-8(%rbp), %eax
	addl	$1, %eax
	movl	%eax, -8(%rbp)
	jmp	.LBB75_7
.LBB75_17:                              # %for.end29
	cmpl	$611673152, -40(%rbp)   # imm = 0x24756440
	jne	.LBB75_19
.LBB75_18:
	addq	$48, %rsp
	popq	%rbp
	.cfi_def_cfa %rsp, 8
	retq
.LBB75_19:                              # %func_exit
	.cfi_def_cfa %rbp, 16
	callq	detect_breach
	jmp	.LBB75_18
.Lfunc_end75:
	.size	FmoGenerateType5MapUnitMap.55, .Lfunc_end75-FmoGenerateType5MapUnitMap.55
	.cfi_endproc
                                        # -- End function
	.p2align	4, 0x90         # -- Begin function FmoGenerateType2MapUnitMap.56
	.type	FmoGenerateType2MapUnitMap.56,@function
FmoGenerateType2MapUnitMap.56:          # @FmoGenerateType2MapUnitMap.56
	.cfi_startproc
# %bb.0:                                # %entry
	pushq	%rbp
	.cfi_def_cfa_offset 16
	.cfi_offset %rbp, -16
	movq	%rsp, %rbp
	.cfi_def_cfa_register %rbp
	subq	$64, %rsp
	movl	$1594782444, -40(%rbp)  # imm = 0x5F0E72EC
	movq	%rdi, -32(%rbp)
	movq	%rsi, -24(%rbp)
	movl	$0, -16(%rbp)
.LBB76_1:                               # %for.cond
                                        # =>This Inner Loop Header: Depth=1
	movl	-16(%rbp), %eax
	cmpl	PicSizeInMapUnits, %eax
	jae	.LBB76_4
# %bb.2:                                # %for.body
                                        #   in Loop: Header=BB76_1 Depth=1
	movq	-24(%rbp), %rax
	movl	60(%rax), %eax
	movq	MapUnitToSliceGroupMap, %rcx
	movl	-16(%rbp), %edx
	movb	%al, (%rcx,%rdx)
# %bb.3:                                # %for.inc
                                        #   in Loop: Header=BB76_1 Depth=1
	movl	-16(%rbp), %eax
	addl	$1, %eax
	movl	%eax, -16(%rbp)
	jmp	.LBB76_1
.LBB76_4:                               # %for.end
	movq	-24(%rbp), %rax
	movl	60(%rax), %eax
	subl	$1, %eax
	movl	%eax, -4(%rbp)
.LBB76_5:                               # %for.cond2
                                        # =>This Loop Header: Depth=1
                                        #     Child Loop BB76_7 Depth 2
                                        #       Child Loop BB76_9 Depth 3
	cmpl	$0, -4(%rbp)
	jl	.LBB76_16
# %bb.6:                                # %for.body5
                                        #   in Loop: Header=BB76_5 Depth=1
	movq	-24(%rbp), %rax
	movslq	-4(%rbp), %rcx
	movl	100(%rax,%rcx,4), %eax
	movq	-32(%rbp), %rcx
	xorl	%edx, %edx
	divl	72468(%rcx)
	movl	%eax, -52(%rbp)
	movq	-24(%rbp), %rax
	movslq	-4(%rbp), %rcx
	movl	100(%rax,%rcx,4), %eax
	movq	-32(%rbp), %rcx
	xorl	%edx, %edx
	divl	72468(%rcx)
	movl	%edx, -44(%rbp)
	movq	-24(%rbp), %rax
	movslq	-4(%rbp), %rcx
	movl	132(%rax,%rcx,4), %eax
	movq	-32(%rbp), %rcx
	xorl	%edx, %edx
	divl	72468(%rcx)
	movl	%eax, -48(%rbp)
	movq	-24(%rbp), %rax
	movslq	-4(%rbp), %rcx
	movl	132(%rax,%rcx,4), %eax
	movq	-32(%rbp), %rcx
	xorl	%edx, %edx
	divl	72468(%rcx)
	movl	%edx, -36(%rbp)
	movl	-52(%rbp), %eax
	movl	%eax, -8(%rbp)
.LBB76_7:                               # %for.cond21
                                        #   Parent Loop BB76_5 Depth=1
                                        # =>  This Loop Header: Depth=2
                                        #       Child Loop BB76_9 Depth 3
	movl	-8(%rbp), %eax
	cmpl	-48(%rbp), %eax
	ja	.LBB76_14
# %bb.8:                                # %for.body24
                                        #   in Loop: Header=BB76_7 Depth=2
	movl	-44(%rbp), %eax
	movl	%eax, -12(%rbp)
.LBB76_9:                               # %for.cond25
                                        #   Parent Loop BB76_5 Depth=1
                                        #     Parent Loop BB76_7 Depth=2
                                        # =>    This Inner Loop Header: Depth=3
	movl	-12(%rbp), %eax
	cmpl	-36(%rbp), %eax
	ja	.LBB76_12
# %bb.10:                               # %for.body28
                                        #   in Loop: Header=BB76_9 Depth=3
	movl	-4(%rbp), %eax
	movq	MapUnitToSliceGroupMap, %rcx
	movl	-8(%rbp), %edx
	movq	-32(%rbp), %rsi
	imull	72468(%rsi), %edx
	addl	-12(%rbp), %edx
	movl	%edx, %edx
	movb	%al, (%rcx,%rdx)
# %bb.11:                               # %for.inc33
                                        #   in Loop: Header=BB76_9 Depth=3
	movl	-12(%rbp), %eax
	addl	$1, %eax
	movl	%eax, -12(%rbp)
	jmp	.LBB76_9
.LBB76_12:                              # %for.end35
                                        #   in Loop: Header=BB76_7 Depth=2
	jmp	.LBB76_13
.LBB76_13:                              # %for.inc36
                                        #   in Loop: Header=BB76_7 Depth=2
	movl	-8(%rbp), %eax
	addl	$1, %eax
	movl	%eax, -8(%rbp)
	jmp	.LBB76_7
.LBB76_14:                              # %for.end38
                                        #   in Loop: Header=BB76_5 Depth=1
	jmp	.LBB76_15
.LBB76_15:                              # %for.inc39
                                        #   in Loop: Header=BB76_5 Depth=1
	movl	-4(%rbp), %eax
	addl	$-1, %eax
	movl	%eax, -4(%rbp)
	jmp	.LBB76_5
.LBB76_16:                              # %for.end40
	cmpl	$1594782444, -40(%rbp)  # imm = 0x5F0E72EC
	jne	.LBB76_18
.LBB76_17:
	addq	$64, %rsp
	popq	%rbp
	.cfi_def_cfa %rsp, 8
	retq
.LBB76_18:                              # %func_exit
	.cfi_def_cfa %rbp, 16
	callq	detect_breach
	jmp	.LBB76_17
.Lfunc_end76:
	.size	FmoGenerateType2MapUnitMap.56, .Lfunc_end76-FmoGenerateType2MapUnitMap.56
	.cfi_endproc
                                        # -- End function
	.p2align	4, 0x90         # -- Begin function FmoGenerateType1MapUnitMap.57
	.type	FmoGenerateType1MapUnitMap.57,@function
FmoGenerateType1MapUnitMap.57:          # @FmoGenerateType1MapUnitMap.57
	.cfi_startproc
# %bb.0:                                # %entry
	pushq	%rbp
	.cfi_def_cfa_offset 16
	.cfi_offset %rbp, -16
	movq	%rsp, %rbp
	.cfi_def_cfa_register %rbp
	subq	$32, %rsp
	movl	$1960040551, -8(%rbp)   # imm = 0x74D3D867
	movq	%rdi, -16(%rbp)
	movq	%rsi, -24(%rbp)
	movl	$0, -4(%rbp)
.LBB77_1:                               # %for.cond
                                        # =>This Inner Loop Header: Depth=1
	movl	-4(%rbp), %eax
	cmpl	PicSizeInMapUnits, %eax
	jae	.LBB77_4
# %bb.2:                                # %for.body
                                        #   in Loop: Header=BB77_1 Depth=1
	movl	-4(%rbp), %eax
	movq	-16(%rbp), %rcx
	xorl	%edx, %edx
	divl	72468(%rcx)
	movl	%edx, %ecx
	movl	-4(%rbp), %eax
	movq	-16(%rbp), %rsi
	xorl	%edx, %edx
	divl	72468(%rsi)
	movq	-24(%rbp), %rdx
	movl	60(%rdx), %edx
	addl	$1, %edx
	imull	%edx, %eax
	shrl	$1, %eax
	addl	%eax, %ecx
	movq	-24(%rbp), %rax
	movl	60(%rax), %esi
	addl	$1, %esi
	movl	%ecx, %eax
	xorl	%edx, %edx
	divl	%esi
	movq	MapUnitToSliceGroupMap, %rax
	movl	-4(%rbp), %ecx
	movb	%dl, (%rax,%rcx)
# %bb.3:                                # %for.inc
                                        #   in Loop: Header=BB77_1 Depth=1
	movl	-4(%rbp), %eax
	addl	$1, %eax
	movl	%eax, -4(%rbp)
	jmp	.LBB77_1
.LBB77_4:                               # %for.end
	cmpl	$1960040551, -8(%rbp)   # imm = 0x74D3D867
	jne	.LBB77_6
.LBB77_5:
	addq	$32, %rsp
	popq	%rbp
	.cfi_def_cfa %rsp, 8
	retq
.LBB77_6:                               # %func_exit
	.cfi_def_cfa %rbp, 16
	callq	detect_breach
	jmp	.LBB77_5
.Lfunc_end77:
	.size	FmoGenerateType1MapUnitMap.57, .Lfunc_end77-FmoGenerateType1MapUnitMap.57
	.cfi_endproc
                                        # -- End function
	.p2align	4, 0x90         # -- Begin function FmoGenerateType6MapUnitMap.58
	.type	FmoGenerateType6MapUnitMap.58,@function
FmoGenerateType6MapUnitMap.58:          # @FmoGenerateType6MapUnitMap.58
	.cfi_startproc
# %bb.0:                                # %entry
	pushq	%rbp
	.cfi_def_cfa_offset 16
	.cfi_offset %rbp, -16
	movq	%rsp, %rbp
	.cfi_def_cfa_register %rbp
	subq	$32, %rsp
	movl	$956023131, -8(%rbp)    # imm = 0x38FBC15B
	movq	%rdi, -24(%rbp)
	movq	%rsi, -16(%rbp)
	movl	$0, -4(%rbp)
.LBB78_1:                               # %for.cond
                                        # =>This Inner Loop Header: Depth=1
	movl	-4(%rbp), %eax
	cmpl	PicSizeInMapUnits, %eax
	jae	.LBB78_4
# %bb.2:                                # %for.body
                                        #   in Loop: Header=BB78_1 Depth=1
	movq	-16(%rbp), %rax
	movq	176(%rax), %rax
	movl	-4(%rbp), %ecx
	movb	(%rax,%rcx), %al
	movq	MapUnitToSliceGroupMap, %rcx
	movl	-4(%rbp), %edx
	movb	%al, (%rcx,%rdx)
# %bb.3:                                # %for.inc
                                        #   in Loop: Header=BB78_1 Depth=1
	movl	-4(%rbp), %eax
	addl	$1, %eax
	movl	%eax, -4(%rbp)
	jmp	.LBB78_1
.LBB78_4:                               # %for.end
	cmpl	$956023131, -8(%rbp)    # imm = 0x38FBC15B
	jne	.LBB78_6
.LBB78_5:
	addq	$32, %rsp
	popq	%rbp
	.cfi_def_cfa %rsp, 8
	retq
.LBB78_6:                               # %func_exit
	.cfi_def_cfa %rbp, 16
	callq	detect_breach
	jmp	.LBB78_5
.Lfunc_end78:
	.size	FmoGenerateType6MapUnitMap.58, .Lfunc_end78-FmoGenerateType6MapUnitMap.58
	.cfi_endproc
                                        # -- End function
	.globl	FmoGetLastCodedMBOfSliceGroup.59 # -- Begin function FmoGetLastCodedMBOfSliceGroup.59
	.p2align	4, 0x90
	.type	FmoGetLastCodedMBOfSliceGroup.59,@function
FmoGetLastCodedMBOfSliceGroup.59:       # @FmoGetLastCodedMBOfSliceGroup.59
	.cfi_startproc
# %bb.0:                                # %entry
	pushq	%rbp
	.cfi_def_cfa_offset 16
	.cfi_offset %rbp, -16
	movq	%rsp, %rbp
	.cfi_def_cfa_register %rbp
	pushq	%rbx
	subq	$24, %rsp
	.cfi_offset %rbx, -24
	movl	$126693689, -24(%rbp)   # imm = 0x78D3139
	movl	%edi, -20(%rbp)
	movl	$-1, -16(%rbp)
	movl	$0, -12(%rbp)
.LBB79_1:                               # %for.cond
                                        # =>This Inner Loop Header: Depth=1
	movl	-12(%rbp), %eax
	movq	img, %rcx
	cmpl	72484(%rcx), %eax
	jge	.LBB79_6
# %bb.2:                                # %for.body
                                        #   in Loop: Header=BB79_1 Depth=1
	movl	-12(%rbp), %edi
	callq	FmoMB2SliceGroup
	cmpl	-20(%rbp), %eax
	jne	.LBB79_4
# %bb.3:                                # %if.then
                                        #   in Loop: Header=BB79_1 Depth=1
	movl	-12(%rbp), %eax
	movl	%eax, -16(%rbp)
.LBB79_4:                               # %if.end
                                        #   in Loop: Header=BB79_1 Depth=1
	jmp	.LBB79_5
.LBB79_5:                               # %for.inc
                                        #   in Loop: Header=BB79_1 Depth=1
	movl	-12(%rbp), %eax
	addl	$1, %eax
	movl	%eax, -12(%rbp)
	jmp	.LBB79_1
.LBB79_6:                               # %for.end
	movl	-16(%rbp), %ebx
	cmpl	$126693689, -24(%rbp)   # imm = 0x78D3139
	jne	.LBB79_8
.LBB79_7:
	movl	%ebx, %eax
	addq	$24, %rsp
	popq	%rbx
	popq	%rbp
	.cfi_def_cfa %rsp, 8
	retq
.LBB79_8:                               # %func_exit
	.cfi_def_cfa %rbp, 16
	callq	detect_breach
	jmp	.LBB79_7
.Lfunc_end79:
	.size	FmoGetLastCodedMBOfSliceGroup.59, .Lfunc_end79-FmoGetLastCodedMBOfSliceGroup.59
	.cfi_endproc
                                        # -- End function
	.globl	FmoGetLastCodedMBOfSliceGroup.60 # -- Begin function FmoGetLastCodedMBOfSliceGroup.60
	.p2align	4, 0x90
	.type	FmoGetLastCodedMBOfSliceGroup.60,@function
FmoGetLastCodedMBOfSliceGroup.60:       # @FmoGetLastCodedMBOfSliceGroup.60
	.cfi_startproc
# %bb.0:                                # %entry
	pushq	%rbp
	.cfi_def_cfa_offset 16
	.cfi_offset %rbp, -16
	movq	%rsp, %rbp
	.cfi_def_cfa_register %rbp
	pushq	%rbx
	subq	$24, %rsp
	.cfi_offset %rbx, -24
	movl	$307555588, -24(%rbp)   # imm = 0x1254ED04
	movl	%edi, -20(%rbp)
	movl	$-1, -16(%rbp)
	movl	$0, -12(%rbp)
.LBB80_1:                               # %for.cond
                                        # =>This Inner Loop Header: Depth=1
	movl	-12(%rbp), %eax
	movq	img, %rcx
	cmpl	72484(%rcx), %eax
	jge	.LBB80_6
# %bb.2:                                # %for.body
                                        #   in Loop: Header=BB80_1 Depth=1
	movl	-12(%rbp), %edi
	callq	FmoMB2SliceGroup
	cmpl	-20(%rbp), %eax
	jne	.LBB80_4
# %bb.3:                                # %if.then
                                        #   in Loop: Header=BB80_1 Depth=1
	movl	-12(%rbp), %eax
	movl	%eax, -16(%rbp)
.LBB80_4:                               # %if.end
                                        #   in Loop: Header=BB80_1 Depth=1
	jmp	.LBB80_5
.LBB80_5:                               # %for.inc
                                        #   in Loop: Header=BB80_1 Depth=1
	movl	-12(%rbp), %eax
	addl	$1, %eax
	movl	%eax, -12(%rbp)
	jmp	.LBB80_1
.LBB80_6:                               # %for.end
	movl	-16(%rbp), %ebx
	cmpl	$307555588, -24(%rbp)   # imm = 0x1254ED04
	jne	.LBB80_8
.LBB80_7:
	movl	%ebx, %eax
	addq	$24, %rsp
	popq	%rbx
	popq	%rbp
	.cfi_def_cfa %rsp, 8
	retq
.LBB80_8:                               # %func_exit
	.cfi_def_cfa %rbp, 16
	callq	detect_breach
	jmp	.LBB80_7
.Lfunc_end80:
	.size	FmoGetLastCodedMBOfSliceGroup.60, .Lfunc_end80-FmoGetLastCodedMBOfSliceGroup.60
	.cfi_endproc
                                        # -- End function
	.p2align	4, 0x90         # -- Begin function FmoGenerateType6MapUnitMap.61
	.type	FmoGenerateType6MapUnitMap.61,@function
FmoGenerateType6MapUnitMap.61:          # @FmoGenerateType6MapUnitMap.61
	.cfi_startproc
# %bb.0:                                # %entry
	pushq	%rbp
	.cfi_def_cfa_offset 16
	.cfi_offset %rbp, -16
	movq	%rsp, %rbp
	.cfi_def_cfa_register %rbp
	subq	$32, %rsp
	movl	$1807573905, -8(%rbp)   # imm = 0x6BBD6391
	movq	%rdi, -24(%rbp)
	movq	%rsi, -16(%rbp)
	movl	$0, -4(%rbp)
.LBB81_1:                               # %for.cond
                                        # =>This Inner Loop Header: Depth=1
	movl	-4(%rbp), %eax
	cmpl	PicSizeInMapUnits, %eax
	jae	.LBB81_4
# %bb.2:                                # %for.body
                                        #   in Loop: Header=BB81_1 Depth=1
	movq	-16(%rbp), %rax
	movq	176(%rax), %rax
	movl	-4(%rbp), %ecx
	movb	(%rax,%rcx), %al
	movq	MapUnitToSliceGroupMap, %rcx
	movl	-4(%rbp), %edx
	movb	%al, (%rcx,%rdx)
# %bb.3:                                # %for.inc
                                        #   in Loop: Header=BB81_1 Depth=1
	movl	-4(%rbp), %eax
	addl	$1, %eax
	movl	%eax, -4(%rbp)
	jmp	.LBB81_1
.LBB81_4:                               # %for.end
	cmpl	$1807573905, -8(%rbp)   # imm = 0x6BBD6391
	jne	.LBB81_6
.LBB81_5:
	addq	$32, %rsp
	popq	%rbp
	.cfi_def_cfa %rsp, 8
	retq
.LBB81_6:                               # %func_exit
	.cfi_def_cfa %rbp, 16
	callq	detect_breach
	jmp	.LBB81_5
.Lfunc_end81:
	.size	FmoGenerateType6MapUnitMap.61, .Lfunc_end81-FmoGenerateType6MapUnitMap.61
	.cfi_endproc
                                        # -- End function
	.p2align	4, 0x90         # -- Begin function FmoGenerateType2MapUnitMap.62
	.type	FmoGenerateType2MapUnitMap.62,@function
FmoGenerateType2MapUnitMap.62:          # @FmoGenerateType2MapUnitMap.62
	.cfi_startproc
# %bb.0:                                # %entry
	pushq	%rbp
	.cfi_def_cfa_offset 16
	.cfi_offset %rbp, -16
	movq	%rsp, %rbp
	.cfi_def_cfa_register %rbp
	subq	$64, %rsp
