	.text
	.file	"fmo.c"
	.globl	FmoInit                 # -- Begin function FmoInit
	.p2align	4, 0x90
	.type	FmoInit,@function
FmoInit:                                # @FmoInit
	.cfi_startproc
# %bb.0:                                # %rand_bb
	pushq	%rbp
	.cfi_def_cfa_offset 16
	.cfi_offset %rbp, -16
	movq	%rsp, %rbp
	.cfi_def_cfa_register %rbp
	pushq	%r15
	pushq	%r14
	pushq	%rbx
	pushq	%rax
	.cfi_offset %rbx, -40
	.cfi_offset %r14, -32
	.cfi_offset %r15, -24
	movq	%rdx, %r14
	movq	%rsi, %r15
	movq	%rdi, %rbx
	callq	get_urand
	cmpl	$0, %eax
	jne	.LBB0_17
# %bb.1:                                # %func_FmoInit.1
	movq	%rbx, %rdi
	movq	%r15, %rsi
	movq	%r14, %rdx
	callq	FmoInit.1
	addq	$8, %rsp
	popq	%rbx
	popq	%r14
	popq	%r15
	popq	%rbp
	.cfi_def_cfa %rsp, 8
	retq
.LBB0_2:                                # %func_FmoInit.4
	.cfi_def_cfa %rbp, 16
	movq	%rbx, %rdi
	movq	%r15, %rsi
	movq	%r14, %rdx
	callq	FmoInit.4
	addq	$8, %rsp
	popq	%rbx
	popq	%r14
	popq	%r15
	popq	%rbp
	.cfi_def_cfa %rsp, 8
	retq
.LBB0_3:                                # %func_FmoInit.10
	.cfi_def_cfa %rbp, 16
	movq	%rbx, %rdi
	movq	%r15, %rsi
	movq	%r14, %rdx
	callq	FmoInit.10
	addq	$8, %rsp
	popq	%rbx
	popq	%r14
	popq	%r15
	popq	%rbp
	.cfi_def_cfa %rsp, 8
	retq
.LBB0_4:                                # %func_FmoInit.11
	.cfi_def_cfa %rbp, 16
	movq	%rbx, %rdi
	movq	%r15, %rsi
	movq	%r14, %rdx
	callq	FmoInit.11
	addq	$8, %rsp
	popq	%rbx
	popq	%r14
	popq	%r15
	popq	%rbp
	.cfi_def_cfa %rsp, 8
	retq
.LBB0_5:                                # %func_FmoInit.31
	.cfi_def_cfa %rbp, 16
	movq	%rbx, %rdi
	movq	%r15, %rsi
	movq	%r14, %rdx
	callq	FmoInit.31
	addq	$8, %rsp
	popq	%rbx
	popq	%r14
	popq	%r15
	popq	%rbp
	.cfi_def_cfa %rsp, 8
	retq
.LBB0_6:                                # %func_FmoInit.40
	.cfi_def_cfa %rbp, 16
	movq	%rbx, %rdi
	movq	%r15, %rsi
	movq	%r14, %rdx
	callq	FmoInit.40
	addq	$8, %rsp
	popq	%rbx
	popq	%r14
	popq	%r15
	popq	%rbp
	.cfi_def_cfa %rsp, 8
	retq
.LBB0_7:                                # %func_FmoInit.50
	.cfi_def_cfa %rbp, 16
	movq	%rbx, %rdi
	movq	%r15, %rsi
	movq	%r14, %rdx
	callq	FmoInit.50
	addq	$8, %rsp
	popq	%rbx
	popq	%r14
	popq	%r15
	popq	%rbp
	.cfi_def_cfa %rsp, 8
	retq
.LBB0_8:                                # %func_FmoInit.61
	.cfi_def_cfa %rbp, 16
	movq	%rbx, %rdi
	movq	%r15, %rsi
	movq	%r14, %rdx
	callq	FmoInit.61
	addq	$8, %rsp
	popq	%rbx
	popq	%r14
	popq	%r15
	popq	%rbp
	.cfi_def_cfa %rsp, 8
	retq
.LBB0_9:                                # %func_FmoInit.63
	.cfi_def_cfa %rbp, 16
	movq	%rbx, %rdi
	movq	%r15, %rsi
	movq	%r14, %rdx
	callq	FmoInit.63
	addq	$8, %rsp
	popq	%rbx
	popq	%r14
	popq	%r15
	popq	%rbp
	.cfi_def_cfa %rsp, 8
	retq
.LBB0_10:                               # %func_FmoInit.68
	.cfi_def_cfa %rbp, 16
	movq	%rbx, %rdi
	movq	%r15, %rsi
	movq	%r14, %rdx
	callq	FmoInit.68
	addq	$8, %rsp
	popq	%rbx
	popq	%r14
	popq	%r15
	popq	%rbp
	.cfi_def_cfa %rsp, 8
	retq
.LBB0_11:                               # %func_FmoInit.75
	.cfi_def_cfa %rbp, 16
	movq	%rbx, %rdi
	movq	%r15, %rsi
	movq	%r14, %rdx
	callq	FmoInit.75
	addq	$8, %rsp
	popq	%rbx
	popq	%r14
	popq	%r15
	popq	%rbp
	.cfi_def_cfa %rsp, 8
	retq
.LBB0_12:                               # %func_FmoInit.76
	.cfi_def_cfa %rbp, 16
	movq	%rbx, %rdi
	movq	%r15, %rsi
	movq	%r14, %rdx
	callq	FmoInit.76
	addq	$8, %rsp
	popq	%rbx
	popq	%r14
	popq	%r15
	popq	%rbp
	.cfi_def_cfa %rsp, 8
	retq
.LBB0_13:                               # %func_FmoInit.87
	.cfi_def_cfa %rbp, 16
	movq	%rbx, %rdi
	movq	%r15, %rsi
	movq	%r14, %rdx
	callq	FmoInit.87
	addq	$8, %rsp
	popq	%rbx
	popq	%r14
	popq	%r15
	popq	%rbp
	.cfi_def_cfa %rsp, 8
	retq
.LBB0_14:                               # %func_FmoInit.88
	.cfi_def_cfa %rbp, 16
	movq	%rbx, %rdi
	movq	%r15, %rsi
	movq	%r14, %rdx
	callq	FmoInit.88
	addq	$8, %rsp
	popq	%rbx
	popq	%r14
	popq	%r15
	popq	%rbp
	.cfi_def_cfa %rsp, 8
	retq
.LBB0_15:                               # %func_FmoInit.103
	.cfi_def_cfa %rbp, 16
	movq	%rbx, %rdi
	movq	%r15, %rsi
	movq	%r14, %rdx
	callq	FmoInit.103
	addq	$8, %rsp
	popq	%rbx
	popq	%r14
	popq	%r15
	popq	%rbp
	.cfi_def_cfa %rsp, 8
	retq
.LBB0_16:                               # %func_FmoInit.114
	.cfi_def_cfa %rbp, 16
	movq	%rbx, %rdi
	movq	%r15, %rsi
	movq	%r14, %rdx
	callq	FmoInit.114
	addq	$8, %rsp
	popq	%rbx
	popq	%r14
	popq	%r15
	popq	%rbp
	.cfi_def_cfa %rsp, 8
	retq
.LBB0_17:                               # %ctrl0
	.cfi_def_cfa %rbp, 16
	cmpl	$1, %eax
	je	.LBB0_2
# %bb.18:                               # %ctrl1
	cmpl	$2, %eax
	je	.LBB0_3
# %bb.19:                               # %ctrl2
	cmpl	$3, %eax
	je	.LBB0_4
# %bb.20:                               # %ctrl3
	cmpl	$4, %eax
	je	.LBB0_5
# %bb.21:                               # %ctrl4
	cmpl	$5, %eax
	je	.LBB0_6
# %bb.22:                               # %ctrl5
	cmpl	$6, %eax
	je	.LBB0_7
# %bb.23:                               # %ctrl6
	cmpl	$7, %eax
	je	.LBB0_8
# %bb.24:                               # %ctrl7
	cmpl	$8, %eax
	je	.LBB0_9
# %bb.25:                               # %ctrl8
	cmpl	$9, %eax
	je	.LBB0_10
# %bb.26:                               # %ctrl9
	cmpl	$10, %eax
	je	.LBB0_11
# %bb.27:                               # %ctrl10
	cmpl	$11, %eax
	je	.LBB0_12
# %bb.28:                               # %ctrl11
	cmpl	$12, %eax
	je	.LBB0_13
# %bb.29:                               # %ctrl12
	cmpl	$13, %eax
	je	.LBB0_14
# %bb.30:                               # %ctrl13
	cmpl	$14, %eax
	je	.LBB0_15
	jmp	.LBB0_16
.Lfunc_end0:
	.size	FmoInit, .Lfunc_end0-FmoInit
	.cfi_endproc
                                        # -- End function
	.p2align	4, 0x90         # -- Begin function FmoGenerateMapUnitToSliceGroupMap
	.type	FmoGenerateMapUnitToSliceGroupMap,@function
FmoGenerateMapUnitToSliceGroupMap:      # @FmoGenerateMapUnitToSliceGroupMap
	.cfi_startproc
# %bb.0:                                # %rand_bb
	pushq	%rbp
	.cfi_def_cfa_offset 16
	.cfi_offset %rbp, -16
	movq	%rsp, %rbp
	.cfi_def_cfa_register %rbp
	pushq	%r14
	pushq	%rbx
	.cfi_offset %rbx, -32
	.cfi_offset %r14, -24
	movq	%rsi, %r14
	movq	%rdi, %rbx
	callq	get_urand
	cmpl	$0, %eax
	jne	.LBB1_7
# %bb.1:                                # %func_FmoGenerateMapUnitToSliceGroupMap.7
	movq	%rbx, %rdi
	movq	%r14, %rsi
	callq	FmoGenerateMapUnitToSliceGroupMap.7
	popq	%rbx
	popq	%r14
	popq	%rbp
	.cfi_def_cfa %rsp, 8
	retq
.LBB1_2:                                # %func_FmoGenerateMapUnitToSliceGroupMap.17
	.cfi_def_cfa %rbp, 16
	movq	%rbx, %rdi
	movq	%r14, %rsi
	callq	FmoGenerateMapUnitToSliceGroupMap.17
	popq	%rbx
	popq	%r14
	popq	%rbp
	.cfi_def_cfa %rsp, 8
	retq
.LBB1_3:                                # %func_FmoGenerateMapUnitToSliceGroupMap.25
	.cfi_def_cfa %rbp, 16
	movq	%rbx, %rdi
	movq	%r14, %rsi
	callq	FmoGenerateMapUnitToSliceGroupMap.25
	popq	%rbx
	popq	%r14
	popq	%rbp
	.cfi_def_cfa %rsp, 8
	retq
.LBB1_4:                                # %func_FmoGenerateMapUnitToSliceGroupMap.26
	.cfi_def_cfa %rbp, 16
	movq	%rbx, %rdi
	movq	%r14, %rsi
	callq	FmoGenerateMapUnitToSliceGroupMap.26
	popq	%rbx
	popq	%r14
	popq	%rbp
	.cfi_def_cfa %rsp, 8
	retq
.LBB1_5:                                # %func_FmoGenerateMapUnitToSliceGroupMap.47
	.cfi_def_cfa %rbp, 16
	movq	%rbx, %rdi
	movq	%r14, %rsi
	callq	FmoGenerateMapUnitToSliceGroupMap.47
	popq	%rbx
	popq	%r14
	popq	%rbp
	.cfi_def_cfa %rsp, 8
	retq
.LBB1_6:                                # %func_FmoGenerateMapUnitToSliceGroupMap.51
	.cfi_def_cfa %rbp, 16
	movq	%rbx, %rdi
	movq	%r14, %rsi
	callq	FmoGenerateMapUnitToSliceGroupMap.51
	popq	%rbx
	popq	%r14
	popq	%rbp
	.cfi_def_cfa %rsp, 8
	retq
.LBB1_7:                                # %ctrl0
	.cfi_def_cfa %rbp, 16
	cmpl	$1, %eax
	je	.LBB1_2
# %bb.8:                                # %ctrl1
	cmpl	$2, %eax
	je	.LBB1_3
# %bb.9:                                # %ctrl2
	cmpl	$3, %eax
	je	.LBB1_4
# %bb.10:                               # %ctrl3
	cmpl	$4, %eax
	je	.LBB1_5
	jmp	.LBB1_6
.Lfunc_end1:
	.size	FmoGenerateMapUnitToSliceGroupMap, .Lfunc_end1-FmoGenerateMapUnitToSliceGroupMap
	.cfi_endproc
                                        # -- End function
	.p2align	4, 0x90         # -- Begin function FmoGenerateMBAmap
	.type	FmoGenerateMBAmap,@function
FmoGenerateMBAmap:                      # @FmoGenerateMBAmap
	.cfi_startproc
# %bb.0:                                # %rand_bb
	pushq	%rbp
	.cfi_def_cfa_offset 16
	.cfi_offset %rbp, -16
	movq	%rsp, %rbp
	.cfi_def_cfa_register %rbp
	pushq	%r14
	pushq	%rbx
	.cfi_offset %rbx, -32
	.cfi_offset %r14, -24
	movq	%rsi, %r14
	movq	%rdi, %rbx
	callq	get_urand
	cmpl	$0, %eax
	jne	.LBB2_7
# %bb.1:                                # %func_FmoGenerateMBAmap.12
	movq	%rbx, %rdi
	movq	%r14, %rsi
	callq	FmoGenerateMBAmap.12
	popq	%rbx
	popq	%r14
	popq	%rbp
	.cfi_def_cfa %rsp, 8
	retq
.LBB2_2:                                # %func_FmoGenerateMBAmap.43
	.cfi_def_cfa %rbp, 16
	movq	%rbx, %rdi
	movq	%r14, %rsi
	callq	FmoGenerateMBAmap.43
	popq	%rbx
	popq	%r14
	popq	%rbp
	.cfi_def_cfa %rsp, 8
	retq
.LBB2_3:                                # %func_FmoGenerateMBAmap.70
	.cfi_def_cfa %rbp, 16
	movq	%rbx, %rdi
	movq	%r14, %rsi
	callq	FmoGenerateMBAmap.70
	popq	%rbx
	popq	%r14
	popq	%rbp
	.cfi_def_cfa %rsp, 8
	retq
.LBB2_4:                                # %func_FmoGenerateMBAmap.82
	.cfi_def_cfa %rbp, 16
	movq	%rbx, %rdi
	movq	%r14, %rsi
	callq	FmoGenerateMBAmap.82
	popq	%rbx
	popq	%r14
	popq	%rbp
	.cfi_def_cfa %rsp, 8
	retq
.LBB2_5:                                # %func_FmoGenerateMBAmap.84
	.cfi_def_cfa %rbp, 16
	movq	%rbx, %rdi
	movq	%r14, %rsi
	callq	FmoGenerateMBAmap.84
	popq	%rbx
	popq	%r14
	popq	%rbp
	.cfi_def_cfa %rsp, 8
	retq
.LBB2_6:                                # %func_FmoGenerateMBAmap.94
	.cfi_def_cfa %rbp, 16
	movq	%rbx, %rdi
	movq	%r14, %rsi
	callq	FmoGenerateMBAmap.94
	popq	%rbx
	popq	%r14
	popq	%rbp
	.cfi_def_cfa %rsp, 8
	retq
.LBB2_7:                                # %ctrl0
	.cfi_def_cfa %rbp, 16
	cmpl	$1, %eax
	je	.LBB2_2
# %bb.8:                                # %ctrl1
	cmpl	$2, %eax
	je	.LBB2_3
# %bb.9:                                # %ctrl2
	cmpl	$3, %eax
	je	.LBB2_4
# %bb.10:                               # %ctrl3
	cmpl	$4, %eax
	je	.LBB2_5
	jmp	.LBB2_6
.Lfunc_end2:
	.size	FmoGenerateMBAmap, .Lfunc_end2-FmoGenerateMBAmap
	.cfi_endproc
                                        # -- End function
	.globl	FmoUninit               # -- Begin function FmoUninit
	.p2align	4, 0x90
	.type	FmoUninit,@function
FmoUninit:                              # @FmoUninit
	.cfi_startproc
# %bb.0:                                # %entry
	pushq	%rbp
	.cfi_def_cfa_offset 16
	.cfi_offset %rbp, -16
	movq	%rsp, %rbp
	.cfi_def_cfa_register %rbp
	cmpq	$0, MBAmap
	je	.LBB3_2
# %bb.1:                                # %if.then
	movq	MBAmap, %rdi
	callq	free
	movq	$0, MBAmap
.LBB3_2:                                # %if.end
	cmpq	$0, MapUnitToSliceGroupMap
	je	.LBB3_4
# %bb.3:                                # %if.then2
	movq	MapUnitToSliceGroupMap, %rdi
	callq	free
	movq	$0, MapUnitToSliceGroupMap
.LBB3_4:                                # %if.end3
	popq	%rbp
	.cfi_def_cfa %rsp, 8
	retq
.Lfunc_end3:
	.size	FmoUninit, .Lfunc_end3-FmoUninit
	.cfi_endproc
                                        # -- End function
	.globl	FmoStartPicture         # -- Begin function FmoStartPicture
	.p2align	4, 0x90
	.type	FmoStartPicture,@function
FmoStartPicture:                        # @FmoStartPicture
	.cfi_startproc
# %bb.0:                                # %entry
	pushq	%rbp
	.cfi_def_cfa_offset 16
	.cfi_offset %rbp, -16
	movq	%rsp, %rbp
	.cfi_def_cfa_register %rbp
	subq	$16, %rsp
	movl	$0, -4(%rbp)
.LBB4_1:                                # %for.cond
                                        # =>This Inner Loop Header: Depth=1
	cmpl	$8, -4(%rbp)
	jge	.LBB4_4
# %bb.2:                                # %for.body
                                        #   in Loop: Header=BB4_1 Depth=1
	movl	-4(%rbp), %edi
	callq	FmoGetFirstMBOfSliceGroup
	movslq	-4(%rbp), %rcx
	movl	%eax, FirstMBInSlice(,%rcx,4)
# %bb.3:                                # %for.inc
                                        #   in Loop: Header=BB4_1 Depth=1
	movl	-4(%rbp), %eax
	addl	$1, %eax
	movl	%eax, -4(%rbp)
	jmp	.LBB4_1
.LBB4_4:                                # %for.end
	xorl	%eax, %eax
	addq	$16, %rsp
	popq	%rbp
	.cfi_def_cfa %rsp, 8
	retq
.Lfunc_end4:
	.size	FmoStartPicture, .Lfunc_end4-FmoStartPicture
	.cfi_endproc
                                        # -- End function
	.globl	FmoGetFirstMBOfSliceGroup # -- Begin function FmoGetFirstMBOfSliceGroup
	.p2align	4, 0x90
	.type	FmoGetFirstMBOfSliceGroup,@function
FmoGetFirstMBOfSliceGroup:              # @FmoGetFirstMBOfSliceGroup
	.cfi_startproc
# %bb.0:                                # %rand_bb
	pushq	%rbp
	.cfi_def_cfa_offset 16
	.cfi_offset %rbp, -16
	movq	%rsp, %rbp
	.cfi_def_cfa_register %rbp
	pushq	%rbx
	pushq	%rax
	.cfi_offset %rbx, -24
	movl	%edi, %ebx
	callq	get_urand
	cmpl	$0, %eax
	jne	.LBB5_7
# %bb.1:                                # %func_FmoGetFirstMBOfSliceGroup.6
	movl	%ebx, %edi
	callq	FmoGetFirstMBOfSliceGroup.6
	addq	$8, %rsp
	popq	%rbx
	popq	%rbp
	.cfi_def_cfa %rsp, 8
	retq
.LBB5_2:                                # %func_FmoGetFirstMBOfSliceGroup.52
	.cfi_def_cfa %rbp, 16
	movl	%ebx, %edi
	callq	FmoGetFirstMBOfSliceGroup.52
	addq	$8, %rsp
	popq	%rbx
	popq	%rbp
	.cfi_def_cfa %rsp, 8
	retq
.LBB5_3:                                # %func_FmoGetFirstMBOfSliceGroup.97
	.cfi_def_cfa %rbp, 16
	movl	%ebx, %edi
	callq	FmoGetFirstMBOfSliceGroup.97
	addq	$8, %rsp
	popq	%rbx
	popq	%rbp
	.cfi_def_cfa %rsp, 8
	retq
.LBB5_4:                                # %func_FmoGetFirstMBOfSliceGroup.98
	.cfi_def_cfa %rbp, 16
	movl	%ebx, %edi
	callq	FmoGetFirstMBOfSliceGroup.98
	addq	$8, %rsp
	popq	%rbx
	popq	%rbp
	.cfi_def_cfa %rsp, 8
	retq
.LBB5_5:                                # %func_FmoGetFirstMBOfSliceGroup.102
	.cfi_def_cfa %rbp, 16
	movl	%ebx, %edi
	callq	FmoGetFirstMBOfSliceGroup.102
	addq	$8, %rsp
	popq	%rbx
	popq	%rbp
	.cfi_def_cfa %rsp, 8
	retq
.LBB5_6:                                # %func_FmoGetFirstMBOfSliceGroup.115
	.cfi_def_cfa %rbp, 16
	movl	%ebx, %edi
	callq	FmoGetFirstMBOfSliceGroup.115
	addq	$8, %rsp
	popq	%rbx
	popq	%rbp
	.cfi_def_cfa %rsp, 8
	retq
.LBB5_7:                                # %ctrl0
	.cfi_def_cfa %rbp, 16
	cmpl	$1, %eax
	je	.LBB5_2
# %bb.8:                                # %ctrl1
	cmpl	$2, %eax
	je	.LBB5_3
# %bb.9:                                # %ctrl2
	cmpl	$3, %eax
	je	.LBB5_4
# %bb.10:                               # %ctrl3
	cmpl	$4, %eax
	je	.LBB5_5
	jmp	.LBB5_6
.Lfunc_end5:
	.size	FmoGetFirstMBOfSliceGroup, .Lfunc_end5-FmoGetFirstMBOfSliceGroup
	.cfi_endproc
                                        # -- End function
	.globl	FmoEndPicture           # -- Begin function FmoEndPicture
	.p2align	4, 0x90
	.type	FmoEndPicture,@function
FmoEndPicture:                          # @FmoEndPicture
	.cfi_startproc
# %bb.0:                                # %entry
	pushq	%rbp
	.cfi_def_cfa_offset 16
	.cfi_offset %rbp, -16
	movq	%rsp, %rbp
	.cfi_def_cfa_register %rbp
	xorl	%eax, %eax
	popq	%rbp
	.cfi_def_cfa %rsp, 8
	retq
.Lfunc_end6:
	.size	FmoEndPicture, .Lfunc_end6-FmoEndPicture
	.cfi_endproc
                                        # -- End function
	.globl	FmoMB2SliceGroup        # -- Begin function FmoMB2SliceGroup
	.p2align	4, 0x90
	.type	FmoMB2SliceGroup,@function
FmoMB2SliceGroup:                       # @FmoMB2SliceGroup
	.cfi_startproc
# %bb.0:                                # %entry
	pushq	%rbp
	.cfi_def_cfa_offset 16
	.cfi_offset %rbp, -16
	movq	%rsp, %rbp
	.cfi_def_cfa_register %rbp
	movl	%edi, -4(%rbp)
	movq	MBAmap, %rax
	movslq	-4(%rbp), %rcx
	movzbl	(%rax,%rcx), %eax
	popq	%rbp
	.cfi_def_cfa %rsp, 8
	retq
.Lfunc_end7:
	.size	FmoMB2SliceGroup, .Lfunc_end7-FmoMB2SliceGroup
	.cfi_endproc
                                        # -- End function
	.globl	FmoGetNextMBNr          # -- Begin function FmoGetNextMBNr
	.p2align	4, 0x90
	.type	FmoGetNextMBNr,@function
FmoGetNextMBNr:                         # @FmoGetNextMBNr
	.cfi_startproc
# %bb.0:                                # %rand_bb
	pushq	%rbp
	.cfi_def_cfa_offset 16
	.cfi_offset %rbp, -16
	movq	%rsp, %rbp
	.cfi_def_cfa_register %rbp
	pushq	%rbx
	pushq	%rax
	.cfi_offset %rbx, -24
	movl	%edi, %ebx
	callq	get_urand
	cmpl	$0, %eax
	jne	.LBB8_7
# %bb.1:                                # %func_FmoGetNextMBNr.45
	movl	%ebx, %edi
	callq	FmoGetNextMBNr.45
	addq	$8, %rsp
	popq	%rbx
	popq	%rbp
	.cfi_def_cfa %rsp, 8
	retq
.LBB8_2:                                # %func_FmoGetNextMBNr.54
	.cfi_def_cfa %rbp, 16
	movl	%ebx, %edi
	callq	FmoGetNextMBNr.54
	addq	$8, %rsp
	popq	%rbx
	popq	%rbp
	.cfi_def_cfa %rsp, 8
	retq
.LBB8_3:                                # %func_FmoGetNextMBNr.57
	.cfi_def_cfa %rbp, 16
	movl	%ebx, %edi
	callq	FmoGetNextMBNr.57
	addq	$8, %rsp
	popq	%rbx
	popq	%rbp
	.cfi_def_cfa %rsp, 8
	retq
.LBB8_4:                                # %func_FmoGetNextMBNr.59
	.cfi_def_cfa %rbp, 16
	movl	%ebx, %edi
	callq	FmoGetNextMBNr.59
	addq	$8, %rsp
	popq	%rbx
	popq	%rbp
	.cfi_def_cfa %rsp, 8
	retq
.LBB8_5:                                # %func_FmoGetNextMBNr.60
	.cfi_def_cfa %rbp, 16
	movl	%ebx, %edi
	callq	FmoGetNextMBNr.60
	addq	$8, %rsp
	popq	%rbx
	popq	%rbp
	.cfi_def_cfa %rsp, 8
	retq
.LBB8_6:                                # %func_FmoGetNextMBNr.81
	.cfi_def_cfa %rbp, 16
	movl	%ebx, %edi
	callq	FmoGetNextMBNr.81
	addq	$8, %rsp
	popq	%rbx
	popq	%rbp
	.cfi_def_cfa %rsp, 8
	retq
.LBB8_7:                                # %ctrl0
	.cfi_def_cfa %rbp, 16
	cmpl	$1, %eax
	je	.LBB8_2
# %bb.8:                                # %ctrl1
	cmpl	$2, %eax
	je	.LBB8_3
# %bb.9:                                # %ctrl2
	cmpl	$3, %eax
	je	.LBB8_4
# %bb.10:                               # %ctrl3
	cmpl	$4, %eax
	je	.LBB8_5
	jmp	.LBB8_6
.Lfunc_end8:
	.size	FmoGetNextMBNr, .Lfunc_end8-FmoGetNextMBNr
	.cfi_endproc
                                        # -- End function
	.globl	FmoGetPreviousMBNr      # -- Begin function FmoGetPreviousMBNr
	.p2align	4, 0x90
	.type	FmoGetPreviousMBNr,@function
FmoGetPreviousMBNr:                     # @FmoGetPreviousMBNr
	.cfi_startproc
# %bb.0:                                # %rand_bb
	pushq	%rbp
	.cfi_def_cfa_offset 16
	.cfi_offset %rbp, -16
	movq	%rsp, %rbp
	.cfi_def_cfa_register %rbp
	pushq	%rbx
	pushq	%rax
	.cfi_offset %rbx, -24
	movl	%edi, %ebx
	callq	get_urand
	cmpl	$0, %eax
	jne	.LBB9_7
# %bb.1:                                # %func_FmoGetPreviousMBNr.8
	movl	%ebx, %edi
	callq	FmoGetPreviousMBNr.8
	addq	$8, %rsp
	popq	%rbx
	popq	%rbp
	.cfi_def_cfa %rsp, 8
	retq
.LBB9_2:                                # %func_FmoGetPreviousMBNr.9
	.cfi_def_cfa %rbp, 16
	movl	%ebx, %edi
	callq	FmoGetPreviousMBNr.9
	addq	$8, %rsp
	popq	%rbx
	popq	%rbp
	.cfi_def_cfa %rsp, 8
	retq
.LBB9_3:                                # %func_FmoGetPreviousMBNr.15
	.cfi_def_cfa %rbp, 16
	movl	%ebx, %edi
	callq	FmoGetPreviousMBNr.15
	addq	$8, %rsp
	popq	%rbx
	popq	%rbp
	.cfi_def_cfa %rsp, 8
	retq
.LBB9_4:                                # %func_FmoGetPreviousMBNr.36
	.cfi_def_cfa %rbp, 16
	movl	%ebx, %edi
	callq	FmoGetPreviousMBNr.36
	addq	$8, %rsp
	popq	%rbx
	popq	%rbp
	.cfi_def_cfa %rsp, 8
	retq
.LBB9_5:                                # %func_FmoGetPreviousMBNr.64
	.cfi_def_cfa %rbp, 16
	movl	%ebx, %edi
	callq	FmoGetPreviousMBNr.64
	addq	$8, %rsp
	popq	%rbx
	popq	%rbp
	.cfi_def_cfa %rsp, 8
	retq
.LBB9_6:                                # %func_FmoGetPreviousMBNr.71
	.cfi_def_cfa %rbp, 16
	movl	%ebx, %edi
	callq	FmoGetPreviousMBNr.71
	addq	$8, %rsp
	popq	%rbx
	popq	%rbp
	.cfi_def_cfa %rsp, 8
	retq
.LBB9_7:                                # %ctrl0
	.cfi_def_cfa %rbp, 16
	cmpl	$1, %eax
	je	.LBB9_2
# %bb.8:                                # %ctrl1
	cmpl	$2, %eax
	je	.LBB9_3
# %bb.9:                                # %ctrl2
	cmpl	$3, %eax
	je	.LBB9_4
# %bb.10:                               # %ctrl3
	cmpl	$4, %eax
	je	.LBB9_5
	jmp	.LBB9_6
.Lfunc_end9:
	.size	FmoGetPreviousMBNr, .Lfunc_end9-FmoGetPreviousMBNr
	.cfi_endproc
                                        # -- End function
	.globl	FmoGetLastCodedMBOfSliceGroup # -- Begin function FmoGetLastCodedMBOfSliceGroup
	.p2align	4, 0x90
	.type	FmoGetLastCodedMBOfSliceGroup,@function
FmoGetLastCodedMBOfSliceGroup:          # @FmoGetLastCodedMBOfSliceGroup
	.cfi_startproc
# %bb.0:                                # %rand_bb
	pushq	%rbp
	.cfi_def_cfa_offset 16
	.cfi_offset %rbp, -16
	movq	%rsp, %rbp
	.cfi_def_cfa_register %rbp
	pushq	%rbx
	pushq	%rax
	.cfi_offset %rbx, -24
	movl	%edi, %ebx
	callq	get_urand
	cmpl	$0, %eax
	jne	.LBB10_7
# %bb.1:                                # %func_FmoGetLastCodedMBOfSliceGroup.33
	movl	%ebx, %edi
	callq	FmoGetLastCodedMBOfSliceGroup.33
	addq	$8, %rsp
	popq	%rbx
	popq	%rbp
	.cfi_def_cfa %rsp, 8
	retq
.LBB10_2:                               # %func_FmoGetLastCodedMBOfSliceGroup.44
	.cfi_def_cfa %rbp, 16
	movl	%ebx, %edi
	callq	FmoGetLastCodedMBOfSliceGroup.44
	addq	$8, %rsp
	popq	%rbx
	popq	%rbp
	.cfi_def_cfa %rsp, 8
	retq
.LBB10_3:                               # %func_FmoGetLastCodedMBOfSliceGroup.48
	.cfi_def_cfa %rbp, 16
	movl	%ebx, %edi
	callq	FmoGetLastCodedMBOfSliceGroup.48
	addq	$8, %rsp
	popq	%rbx
	popq	%rbp
	.cfi_def_cfa %rsp, 8
	retq
.LBB10_4:                               # %func_FmoGetLastCodedMBOfSliceGroup.99
	.cfi_def_cfa %rbp, 16
	movl	%ebx, %edi
	callq	FmoGetLastCodedMBOfSliceGroup.99
	addq	$8, %rsp
	popq	%rbx
	popq	%rbp
	.cfi_def_cfa %rsp, 8
	retq
.LBB10_5:                               # %func_FmoGetLastCodedMBOfSliceGroup.105
	.cfi_def_cfa %rbp, 16
	movl	%ebx, %edi
	callq	FmoGetLastCodedMBOfSliceGroup.105
	addq	$8, %rsp
	popq	%rbx
	popq	%rbp
	.cfi_def_cfa %rsp, 8
	retq
.LBB10_6:                               # %func_FmoGetLastCodedMBOfSliceGroup.107
	.cfi_def_cfa %rbp, 16
	movl	%ebx, %edi
	callq	FmoGetLastCodedMBOfSliceGroup.107
	addq	$8, %rsp
	popq	%rbx
	popq	%rbp
	.cfi_def_cfa %rsp, 8
	retq
.LBB10_7:                               # %ctrl0
	.cfi_def_cfa %rbp, 16
	cmpl	$1, %eax
	je	.LBB10_2
# %bb.8:                                # %ctrl1
	cmpl	$2, %eax
	je	.LBB10_3
# %bb.9:                                # %ctrl2
	cmpl	$3, %eax
	je	.LBB10_4
# %bb.10:                               # %ctrl3
	cmpl	$4, %eax
	je	.LBB10_5
	jmp	.LBB10_6
.Lfunc_end10:
	.size	FmoGetLastCodedMBOfSliceGroup, .Lfunc_end10-FmoGetLastCodedMBOfSliceGroup
	.cfi_endproc
                                        # -- End function
	.globl	FmoSetLastMacroblockInSlice # -- Begin function FmoSetLastMacroblockInSlice
	.p2align	4, 0x90
	.type	FmoSetLastMacroblockInSlice,@function
FmoSetLastMacroblockInSlice:            # @FmoSetLastMacroblockInSlice
	.cfi_startproc
# %bb.0:                                # %rand_bb
	pushq	%rbp
	.cfi_def_cfa_offset 16
	.cfi_offset %rbp, -16
	movq	%rsp, %rbp
	.cfi_def_cfa_register %rbp
	pushq	%rbx
	pushq	%rax
	.cfi_offset %rbx, -24
	movl	%edi, %ebx
	callq	get_urand
	cmpl	$0, %eax
	jne	.LBB11_2
# %bb.1:                                # %func_FmoSetLastMacroblockInSlice.22
	movl	%ebx, %edi
	callq	FmoSetLastMacroblockInSlice.22
	addq	$8, %rsp
	popq	%rbx
	popq	%rbp
	.cfi_def_cfa %rsp, 8
	retq
.LBB11_2:                               # %func_FmoSetLastMacroblockInSlice.46
	.cfi_def_cfa %rbp, 16
	movl	%ebx, %edi
	callq	FmoSetLastMacroblockInSlice.46
	addq	$8, %rsp
	popq	%rbx
	popq	%rbp
	.cfi_def_cfa %rsp, 8
	retq
.Lfunc_end11:
	.size	FmoSetLastMacroblockInSlice, .Lfunc_end11-FmoSetLastMacroblockInSlice
	.cfi_endproc
                                        # -- End function
	.globl	FmoGetFirstMacroblockInSlice # -- Begin function FmoGetFirstMacroblockInSlice
	.p2align	4, 0x90
	.type	FmoGetFirstMacroblockInSlice,@function
FmoGetFirstMacroblockInSlice:           # @FmoGetFirstMacroblockInSlice
	.cfi_startproc
# %bb.0:                                # %entry
	pushq	%rbp
	.cfi_def_cfa_offset 16
	.cfi_offset %rbp, -16
	movq	%rsp, %rbp
	.cfi_def_cfa_register %rbp
	movl	%edi, -4(%rbp)
	movslq	-4(%rbp), %rax
	movl	FirstMBInSlice(,%rax,4), %eax
	popq	%rbp
	.cfi_def_cfa %rsp, 8
	retq
.Lfunc_end12:
	.size	FmoGetFirstMacroblockInSlice, .Lfunc_end12-FmoGetFirstMacroblockInSlice
	.cfi_endproc
                                        # -- End function
	.globl	FmoSliceGroupCompletelyCoded # -- Begin function FmoSliceGroupCompletelyCoded
	.p2align	4, 0x90
	.type	FmoSliceGroupCompletelyCoded,@function
FmoSliceGroupCompletelyCoded:           # @FmoSliceGroupCompletelyCoded
	.cfi_startproc
# %bb.0:                                # %rand_bb
	pushq	%rbp
	.cfi_def_cfa_offset 16
	.cfi_offset %rbp, -16
	movq	%rsp, %rbp
	.cfi_def_cfa_register %rbp
	pushq	%rbx
	pushq	%rax
	.cfi_offset %rbx, -24
	movl	%edi, %ebx
	callq	get_urand
	cmpl	$0, %eax
	jne	.LBB13_2
# %bb.1:                                # %func_FmoSliceGroupCompletelyCoded.3
	movl	%ebx, %edi
	callq	FmoSliceGroupCompletelyCoded.3
	addq	$8, %rsp
	popq	%rbx
	popq	%rbp
	.cfi_def_cfa %rsp, 8
	retq
.LBB13_2:                               # %func_FmoSliceGroupCompletelyCoded.34
	.cfi_def_cfa %rbp, 16
	movl	%ebx, %edi
	callq	FmoSliceGroupCompletelyCoded.34
	addq	$8, %rsp
	popq	%rbx
	popq	%rbp
	.cfi_def_cfa %rsp, 8
	retq
.Lfunc_end13:
	.size	FmoSliceGroupCompletelyCoded, .Lfunc_end13-FmoSliceGroupCompletelyCoded
	.cfi_endproc
                                        # -- End function
	.p2align	4, 0x90         # -- Begin function FmoGenerateType0MapUnitMap
	.type	FmoGenerateType0MapUnitMap,@function
FmoGenerateType0MapUnitMap:             # @FmoGenerateType0MapUnitMap
	.cfi_startproc
# %bb.0:                                # %rand_bb
	pushq	%rbp
	.cfi_def_cfa_offset 16
	.cfi_offset %rbp, -16
	movq	%rsp, %rbp
	.cfi_def_cfa_register %rbp
	pushq	%r14
	pushq	%rbx
	.cfi_offset %rbx, -32
	.cfi_offset %r14, -24
	movq	%rsi, %r14
	movq	%rdi, %rbx
	callq	get_urand
	cmpl	$0, %eax
	jne	.LBB14_17
# %bb.1:                                # %func_FmoGenerateType0MapUnitMap.13
	movq	%rbx, %rdi
	movq	%r14, %rsi
	callq	FmoGenerateType0MapUnitMap.13
	popq	%rbx
	popq	%r14
	popq	%rbp
	.cfi_def_cfa %rsp, 8
	retq
.LBB14_2:                               # %func_FmoGenerateType0MapUnitMap.14
	.cfi_def_cfa %rbp, 16
	movq	%rbx, %rdi
	movq	%r14, %rsi
	callq	FmoGenerateType0MapUnitMap.14
	popq	%rbx
	popq	%r14
	popq	%rbp
	.cfi_def_cfa %rsp, 8
	retq
.LBB14_3:                               # %func_FmoGenerateType0MapUnitMap.58
	.cfi_def_cfa %rbp, 16
	movq	%rbx, %rdi
	movq	%r14, %rsi
	callq	FmoGenerateType0MapUnitMap.58
	popq	%rbx
	popq	%r14
	popq	%rbp
	.cfi_def_cfa %rsp, 8
	retq
.LBB14_4:                               # %func_FmoGenerateType0MapUnitMap.72
	.cfi_def_cfa %rbp, 16
	movq	%rbx, %rdi
	movq	%r14, %rsi
	callq	FmoGenerateType0MapUnitMap.72
	popq	%rbx
	popq	%r14
	popq	%rbp
	.cfi_def_cfa %rsp, 8
	retq
.LBB14_5:                               # %func_FmoGenerateType0MapUnitMap.79
	.cfi_def_cfa %rbp, 16
	movq	%rbx, %rdi
	movq	%r14, %rsi
	callq	FmoGenerateType0MapUnitMap.79
	popq	%rbx
	popq	%r14
	popq	%rbp
	.cfi_def_cfa %rsp, 8
	retq
.LBB14_6:                               # %func_FmoGenerateType0MapUnitMap.80
	.cfi_def_cfa %rbp, 16
	movq	%rbx, %rdi
	movq	%r14, %rsi
	callq	FmoGenerateType0MapUnitMap.80
	popq	%rbx
	popq	%r14
	popq	%rbp
	.cfi_def_cfa %rsp, 8
	retq
.LBB14_7:                               # %func_FmoGenerateType0MapUnitMap.85
	.cfi_def_cfa %rbp, 16
	movq	%rbx, %rdi
	movq	%r14, %rsi
	callq	FmoGenerateType0MapUnitMap.85
	popq	%rbx
	popq	%r14
	popq	%rbp
	.cfi_def_cfa %rsp, 8
	retq
.LBB14_8:                               # %func_FmoGenerateType0MapUnitMap.113
	.cfi_def_cfa %rbp, 16
	movq	%rbx, %rdi
	movq	%r14, %rsi
	callq	FmoGenerateType0MapUnitMap.113
	popq	%rbx
	popq	%r14
	popq	%rbp
	.cfi_def_cfa %rsp, 8
	retq
.LBB14_9:                               # %func_FmoGenerateType0MapUnitMap.116
	.cfi_def_cfa %rbp, 16
	movq	%rbx, %rdi
	movq	%r14, %rsi
	callq	FmoGenerateType0MapUnitMap.116
	popq	%rbx
	popq	%r14
	popq	%rbp
	.cfi_def_cfa %rsp, 8
	retq
.LBB14_10:                              # %func_FmoGenerateType0MapUnitMap.120
	.cfi_def_cfa %rbp, 16
	movq	%rbx, %rdi
	movq	%r14, %rsi
	callq	FmoGenerateType0MapUnitMap.120
	popq	%rbx
	popq	%r14
	popq	%rbp
	.cfi_def_cfa %rsp, 8
	retq
.LBB14_11:                              # %func_FmoGenerateType0MapUnitMap.126
	.cfi_def_cfa %rbp, 16
	movq	%rbx, %rdi
	movq	%r14, %rsi
	callq	FmoGenerateType0MapUnitMap.126
	popq	%rbx
	popq	%r14
	popq	%rbp
	.cfi_def_cfa %rsp, 8
	retq
.LBB14_12:                              # %func_FmoGenerateType0MapUnitMap.133
	.cfi_def_cfa %rbp, 16
	movq	%rbx, %rdi
	movq	%r14, %rsi
	callq	FmoGenerateType0MapUnitMap.133
	popq	%rbx
	popq	%r14
	popq	%rbp
	.cfi_def_cfa %rsp, 8
	retq
.LBB14_13:                              # %func_FmoGenerateType0MapUnitMap.135
	.cfi_def_cfa %rbp, 16
	movq	%rbx, %rdi
	movq	%r14, %rsi
	callq	FmoGenerateType0MapUnitMap.135
	popq	%rbx
	popq	%r14
	popq	%rbp
	.cfi_def_cfa %rsp, 8
	retq
.LBB14_14:                              # %func_FmoGenerateType0MapUnitMap.138
	.cfi_def_cfa %rbp, 16
	movq	%rbx, %rdi
	movq	%r14, %rsi
	callq	FmoGenerateType0MapUnitMap.138
	popq	%rbx
	popq	%r14
	popq	%rbp
	.cfi_def_cfa %rsp, 8
	retq
.LBB14_15:                              # %func_FmoGenerateType0MapUnitMap.140
	.cfi_def_cfa %rbp, 16
	movq	%rbx, %rdi
	movq	%r14, %rsi
	callq	FmoGenerateType0MapUnitMap.140
	popq	%rbx
	popq	%r14
	popq	%rbp
	.cfi_def_cfa %rsp, 8
	retq
.LBB14_16:                              # %func_FmoGenerateType0MapUnitMap.141
	.cfi_def_cfa %rbp, 16
	movq	%rbx, %rdi
	movq	%r14, %rsi
	callq	FmoGenerateType0MapUnitMap.141
	popq	%rbx
	popq	%r14
	popq	%rbp
	.cfi_def_cfa %rsp, 8
	retq
.LBB14_17:                              # %ctrl0
	.cfi_def_cfa %rbp, 16
	cmpl	$1, %eax
	je	.LBB14_2
# %bb.18:                               # %ctrl1
	cmpl	$2, %eax
	je	.LBB14_3
# %bb.19:                               # %ctrl2
	cmpl	$3, %eax
	je	.LBB14_4
# %bb.20:                               # %ctrl3
	cmpl	$4, %eax
	je	.LBB14_5
# %bb.21:                               # %ctrl4
	cmpl	$5, %eax
	je	.LBB14_6
# %bb.22:                               # %ctrl5
	cmpl	$6, %eax
	je	.LBB14_7
# %bb.23:                               # %ctrl6
	cmpl	$7, %eax
	je	.LBB14_8
# %bb.24:                               # %ctrl7
	cmpl	$8, %eax
	je	.LBB14_9
# %bb.25:                               # %ctrl8
	cmpl	$9, %eax
	je	.LBB14_10
# %bb.26:                               # %ctrl9
	cmpl	$10, %eax
	je	.LBB14_11
# %bb.27:                               # %ctrl10
	cmpl	$11, %eax
	je	.LBB14_12
# %bb.28:                               # %ctrl11
	cmpl	$12, %eax
	je	.LBB14_13
# %bb.29:                               # %ctrl12
	cmpl	$13, %eax
	je	.LBB14_14
# %bb.30:                               # %ctrl13
	cmpl	$14, %eax
	je	.LBB14_15
	jmp	.LBB14_16
.Lfunc_end14:
	.size	FmoGenerateType0MapUnitMap, .Lfunc_end14-FmoGenerateType0MapUnitMap
	.cfi_endproc
                                        # -- End function
	.p2align	4, 0x90         # -- Begin function FmoGenerateType1MapUnitMap
	.type	FmoGenerateType1MapUnitMap,@function
FmoGenerateType1MapUnitMap:             # @FmoGenerateType1MapUnitMap
	.cfi_startproc
# %bb.0:                                # %rand_bb
	pushq	%rbp
	.cfi_def_cfa_offset 16
	.cfi_offset %rbp, -16
	movq	%rsp, %rbp
	.cfi_def_cfa_register %rbp
	pushq	%r14
	pushq	%rbx
	.cfi_offset %rbx, -32
	.cfi_offset %r14, -24
	movq	%rsi, %r14
	movq	%rdi, %rbx
	callq	get_urand
	cmpl	$0, %eax
	jne	.LBB15_7
# %bb.1:                                # %func_FmoGenerateType1MapUnitMap.2
	movq	%rbx, %rdi
	movq	%r14, %rsi
	callq	FmoGenerateType1MapUnitMap.2
	popq	%rbx
	popq	%r14
	popq	%rbp
	.cfi_def_cfa %rsp, 8
	retq
.LBB15_2:                               # %func_FmoGenerateType1MapUnitMap.20
	.cfi_def_cfa %rbp, 16
	movq	%rbx, %rdi
	movq	%r14, %rsi
	callq	FmoGenerateType1MapUnitMap.20
	popq	%rbx
	popq	%r14
	popq	%rbp
	.cfi_def_cfa %rsp, 8
	retq
.LBB15_3:                               # %func_FmoGenerateType1MapUnitMap.21
	.cfi_def_cfa %rbp, 16
	movq	%rbx, %rdi
	movq	%r14, %rsi
	callq	FmoGenerateType1MapUnitMap.21
	popq	%rbx
	popq	%r14
	popq	%rbp
	.cfi_def_cfa %rsp, 8
	retq
.LBB15_4:                               # %func_FmoGenerateType1MapUnitMap.23
	.cfi_def_cfa %rbp, 16
	movq	%rbx, %rdi
	movq	%r14, %rsi
	callq	FmoGenerateType1MapUnitMap.23
	popq	%rbx
	popq	%r14
	popq	%rbp
	.cfi_def_cfa %rsp, 8
	retq
.LBB15_5:                               # %func_FmoGenerateType1MapUnitMap.39
	.cfi_def_cfa %rbp, 16
	movq	%rbx, %rdi
	movq	%r14, %rsi
	callq	FmoGenerateType1MapUnitMap.39
	popq	%rbx
	popq	%r14
	popq	%rbp
	.cfi_def_cfa %rsp, 8
	retq
.LBB15_6:                               # %func_FmoGenerateType1MapUnitMap.53
	.cfi_def_cfa %rbp, 16
	movq	%rbx, %rdi
	movq	%r14, %rsi
	callq	FmoGenerateType1MapUnitMap.53
	popq	%rbx
	popq	%r14
	popq	%rbp
	.cfi_def_cfa %rsp, 8
	retq
.LBB15_7:                               # %ctrl0
	.cfi_def_cfa %rbp, 16
	cmpl	$1, %eax
	je	.LBB15_2
# %bb.8:                                # %ctrl1
	cmpl	$2, %eax
	je	.LBB15_3
# %bb.9:                                # %ctrl2
	cmpl	$3, %eax
	je	.LBB15_4
# %bb.10:                               # %ctrl3
	cmpl	$4, %eax
	je	.LBB15_5
	jmp	.LBB15_6
.Lfunc_end15:
	.size	FmoGenerateType1MapUnitMap, .Lfunc_end15-FmoGenerateType1MapUnitMap
	.cfi_endproc
                                        # -- End function
	.p2align	4, 0x90         # -- Begin function FmoGenerateType2MapUnitMap
	.type	FmoGenerateType2MapUnitMap,@function
FmoGenerateType2MapUnitMap:             # @FmoGenerateType2MapUnitMap
	.cfi_startproc
# %bb.0:                                # %rand_bb
	pushq	%rbp
	.cfi_def_cfa_offset 16
	.cfi_offset %rbp, -16
	movq	%rsp, %rbp
	.cfi_def_cfa_register %rbp
	pushq	%r14
	pushq	%rbx
	.cfi_offset %rbx, -32
	.cfi_offset %r14, -24
	movq	%rsi, %r14
	movq	%rdi, %rbx
	callq	get_urand
	cmpl	$0, %eax
	jne	.LBB16_17
# %bb.1:                                # %func_FmoGenerateType2MapUnitMap.16
	movq	%rbx, %rdi
	movq	%r14, %rsi
	callq	FmoGenerateType2MapUnitMap.16
	popq	%rbx
	popq	%r14
	popq	%rbp
	.cfi_def_cfa %rsp, 8
	retq
.LBB16_2:                               # %func_FmoGenerateType2MapUnitMap.19
	.cfi_def_cfa %rbp, 16
	movq	%rbx, %rdi
	movq	%r14, %rsi
	callq	FmoGenerateType2MapUnitMap.19
	popq	%rbx
	popq	%r14
	popq	%rbp
	.cfi_def_cfa %rsp, 8
	retq
.LBB16_3:                               # %func_FmoGenerateType2MapUnitMap.37
	.cfi_def_cfa %rbp, 16
	movq	%rbx, %rdi
	movq	%r14, %rsi
	callq	FmoGenerateType2MapUnitMap.37
	popq	%rbx
	popq	%r14
	popq	%rbp
	.cfi_def_cfa %rsp, 8
	retq
.LBB16_4:                               # %func_FmoGenerateType2MapUnitMap.42
	.cfi_def_cfa %rbp, 16
	movq	%rbx, %rdi
	movq	%r14, %rsi
	callq	FmoGenerateType2MapUnitMap.42
	popq	%rbx
	popq	%r14
	popq	%rbp
	.cfi_def_cfa %rsp, 8
	retq
.LBB16_5:                               # %func_FmoGenerateType2MapUnitMap.67
	.cfi_def_cfa %rbp, 16
	movq	%rbx, %rdi
	movq	%r14, %rsi
	callq	FmoGenerateType2MapUnitMap.67
	popq	%rbx
	popq	%r14
	popq	%rbp
	.cfi_def_cfa %rsp, 8
	retq
.LBB16_6:                               # %func_FmoGenerateType2MapUnitMap.74
	.cfi_def_cfa %rbp, 16
	movq	%rbx, %rdi
	movq	%r14, %rsi
	callq	FmoGenerateType2MapUnitMap.74
	popq	%rbx
	popq	%r14
	popq	%rbp
	.cfi_def_cfa %rsp, 8
	retq
.LBB16_7:                               # %func_FmoGenerateType2MapUnitMap.90
	.cfi_def_cfa %rbp, 16
	movq	%rbx, %rdi
	movq	%r14, %rsi
	callq	FmoGenerateType2MapUnitMap.90
	popq	%rbx
	popq	%r14
	popq	%rbp
	.cfi_def_cfa %rsp, 8
	retq
.LBB16_8:                               # %func_FmoGenerateType2MapUnitMap.93
	.cfi_def_cfa %rbp, 16
	movq	%rbx, %rdi
	movq	%r14, %rsi
	callq	FmoGenerateType2MapUnitMap.93
	popq	%rbx
	popq	%r14
	popq	%rbp
	.cfi_def_cfa %rsp, 8
	retq
.LBB16_9:                               # %func_FmoGenerateType2MapUnitMap.95
	.cfi_def_cfa %rbp, 16
	movq	%rbx, %rdi
	movq	%r14, %rsi
	callq	FmoGenerateType2MapUnitMap.95
	popq	%rbx
	popq	%r14
	popq	%rbp
	.cfi_def_cfa %rsp, 8
	retq
.LBB16_10:                              # %func_FmoGenerateType2MapUnitMap.96
	.cfi_def_cfa %rbp, 16
	movq	%rbx, %rdi
	movq	%r14, %rsi
	callq	FmoGenerateType2MapUnitMap.96
	popq	%rbx
	popq	%r14
	popq	%rbp
	.cfi_def_cfa %rsp, 8
	retq
.LBB16_11:                              # %func_FmoGenerateType2MapUnitMap.100
	.cfi_def_cfa %rbp, 16
	movq	%rbx, %rdi
	movq	%r14, %rsi
	callq	FmoGenerateType2MapUnitMap.100
	popq	%rbx
	popq	%r14
	popq	%rbp
	.cfi_def_cfa %rsp, 8
	retq
.LBB16_12:                              # %func_FmoGenerateType2MapUnitMap.110
	.cfi_def_cfa %rbp, 16
	movq	%rbx, %rdi
	movq	%r14, %rsi
	callq	FmoGenerateType2MapUnitMap.110
	popq	%rbx
	popq	%r14
	popq	%rbp
	.cfi_def_cfa %rsp, 8
	retq
.LBB16_13:                              # %func_FmoGenerateType2MapUnitMap.111
	.cfi_def_cfa %rbp, 16
	movq	%rbx, %rdi
	movq	%r14, %rsi
	callq	FmoGenerateType2MapUnitMap.111
	popq	%rbx
	popq	%r14
	popq	%rbp
	.cfi_def_cfa %rsp, 8
	retq
.LBB16_14:                              # %func_FmoGenerateType2MapUnitMap.112
	.cfi_def_cfa %rbp, 16
	movq	%rbx, %rdi
	movq	%r14, %rsi
	callq	FmoGenerateType2MapUnitMap.112
	popq	%rbx
	popq	%r14
	popq	%rbp
	.cfi_def_cfa %rsp, 8
	retq
.LBB16_15:                              # %func_FmoGenerateType2MapUnitMap.117
	.cfi_def_cfa %rbp, 16
	movq	%rbx, %rdi
	movq	%r14, %rsi
	callq	FmoGenerateType2MapUnitMap.117
	popq	%rbx
	popq	%r14
	popq	%rbp
	.cfi_def_cfa %rsp, 8
	retq
.LBB16_16:                              # %func_FmoGenerateType2MapUnitMap.121
	.cfi_def_cfa %rbp, 16
	movq	%rbx, %rdi
	movq	%r14, %rsi
	callq	FmoGenerateType2MapUnitMap.121
	popq	%rbx
	popq	%r14
	popq	%rbp
	.cfi_def_cfa %rsp, 8
	retq
.LBB16_17:                              # %ctrl0
	.cfi_def_cfa %rbp, 16
	cmpl	$1, %eax
	je	.LBB16_2
# %bb.18:                               # %ctrl1
	cmpl	$2, %eax
	je	.LBB16_3
# %bb.19:                               # %ctrl2
	cmpl	$3, %eax
	je	.LBB16_4
# %bb.20:                               # %ctrl3
	cmpl	$4, %eax
	je	.LBB16_5
# %bb.21:                               # %ctrl4
	cmpl	$5, %eax
	je	.LBB16_6
# %bb.22:                               # %ctrl5
	cmpl	$6, %eax
	je	.LBB16_7
# %bb.23:                               # %ctrl6
	cmpl	$7, %eax
	je	.LBB16_8
# %bb.24:                               # %ctrl7
	cmpl	$8, %eax
	je	.LBB16_9
# %bb.25:                               # %ctrl8
	cmpl	$9, %eax
	je	.LBB16_10
# %bb.26:                               # %ctrl9
	cmpl	$10, %eax
	je	.LBB16_11
# %bb.27:                               # %ctrl10
	cmpl	$11, %eax
	je	.LBB16_12
# %bb.28:                               # %ctrl11
	cmpl	$12, %eax
	je	.LBB16_13
# %bb.29:                               # %ctrl12
	cmpl	$13, %eax
	je	.LBB16_14
# %bb.30:                               # %ctrl13
	cmpl	$14, %eax
	je	.LBB16_15
	jmp	.LBB16_16
.Lfunc_end16:
	.size	FmoGenerateType2MapUnitMap, .Lfunc_end16-FmoGenerateType2MapUnitMap
	.cfi_endproc
                                        # -- End function
	.p2align	4, 0x90         # -- Begin function FmoGenerateType3MapUnitMap
	.type	FmoGenerateType3MapUnitMap,@function
FmoGenerateType3MapUnitMap:             # @FmoGenerateType3MapUnitMap
	.cfi_startproc
# %bb.0:                                # %rand_bb
	pushq	%rbp
	.cfi_def_cfa_offset 16
	.cfi_offset %rbp, -16
	movq	%rsp, %rbp
	.cfi_def_cfa_register %rbp
	pushq	%r14
	pushq	%rbx
	.cfi_offset %rbx, -32
	.cfi_offset %r14, -24
	movq	%rsi, %r14
	movq	%rdi, %rbx
	callq	get_urand
	cmpl	$0, %eax
	jne	.LBB17_17
# %bb.1:                                # %func_FmoGenerateType3MapUnitMap.27
	movq	%rbx, %rdi
	movq	%r14, %rsi
	callq	FmoGenerateType3MapUnitMap.27
	popq	%rbx
	popq	%r14
	popq	%rbp
	.cfi_def_cfa %rsp, 8
	retq
.LBB17_2:                               # %func_FmoGenerateType3MapUnitMap.29
	.cfi_def_cfa %rbp, 16
	movq	%rbx, %rdi
	movq	%r14, %rsi
	callq	FmoGenerateType3MapUnitMap.29
	popq	%rbx
	popq	%r14
	popq	%rbp
	.cfi_def_cfa %rsp, 8
	retq
.LBB17_3:                               # %func_FmoGenerateType3MapUnitMap.30
	.cfi_def_cfa %rbp, 16
	movq	%rbx, %rdi
	movq	%r14, %rsi
	callq	FmoGenerateType3MapUnitMap.30
	popq	%rbx
	popq	%r14
	popq	%rbp
	.cfi_def_cfa %rsp, 8
	retq
.LBB17_4:                               # %func_FmoGenerateType3MapUnitMap.32
	.cfi_def_cfa %rbp, 16
	movq	%rbx, %rdi
	movq	%r14, %rsi
	callq	FmoGenerateType3MapUnitMap.32
	popq	%rbx
	popq	%r14
	popq	%rbp
	.cfi_def_cfa %rsp, 8
	retq
.LBB17_5:                               # %func_FmoGenerateType3MapUnitMap.35
	.cfi_def_cfa %rbp, 16
	movq	%rbx, %rdi
	movq	%r14, %rsi
	callq	FmoGenerateType3MapUnitMap.35
	popq	%rbx
	popq	%r14
	popq	%rbp
	.cfi_def_cfa %rsp, 8
	retq
.LBB17_6:                               # %func_FmoGenerateType3MapUnitMap.49
	.cfi_def_cfa %rbp, 16
	movq	%rbx, %rdi
	movq	%r14, %rsi
	callq	FmoGenerateType3MapUnitMap.49
	popq	%rbx
	popq	%r14
	popq	%rbp
	.cfi_def_cfa %rsp, 8
	retq
.LBB17_7:                               # %func_FmoGenerateType3MapUnitMap.55
	.cfi_def_cfa %rbp, 16
	movq	%rbx, %rdi
	movq	%r14, %rsi
	callq	FmoGenerateType3MapUnitMap.55
	popq	%rbx
	popq	%r14
	popq	%rbp
	.cfi_def_cfa %rsp, 8
	retq
.LBB17_8:                               # %func_FmoGenerateType3MapUnitMap.62
	.cfi_def_cfa %rbp, 16
	movq	%rbx, %rdi
	movq	%r14, %rsi
	callq	FmoGenerateType3MapUnitMap.62
	popq	%rbx
	popq	%r14
	popq	%rbp
	.cfi_def_cfa %rsp, 8
	retq
.LBB17_9:                               # %func_FmoGenerateType3MapUnitMap.77
	.cfi_def_cfa %rbp, 16
	movq	%rbx, %rdi
	movq	%r14, %rsi
	callq	FmoGenerateType3MapUnitMap.77
	popq	%rbx
	popq	%r14
	popq	%rbp
	.cfi_def_cfa %rsp, 8
	retq
.LBB17_10:                              # %func_FmoGenerateType3MapUnitMap.78
	.cfi_def_cfa %rbp, 16
	movq	%rbx, %rdi
	movq	%r14, %rsi
	callq	FmoGenerateType3MapUnitMap.78
	popq	%rbx
	popq	%r14
	popq	%rbp
	.cfi_def_cfa %rsp, 8
	retq
.LBB17_11:                              # %func_FmoGenerateType3MapUnitMap.91
	.cfi_def_cfa %rbp, 16
	movq	%rbx, %rdi
	movq	%r14, %rsi
	callq	FmoGenerateType3MapUnitMap.91
	popq	%rbx
	popq	%r14
	popq	%rbp
	.cfi_def_cfa %rsp, 8
	retq
.LBB17_12:                              # %func_FmoGenerateType3MapUnitMap.109
	.cfi_def_cfa %rbp, 16
	movq	%rbx, %rdi
	movq	%r14, %rsi
	callq	FmoGenerateType3MapUnitMap.109
	popq	%rbx
	popq	%r14
	popq	%rbp
	.cfi_def_cfa %rsp, 8
	retq
.LBB17_13:                              # %func_FmoGenerateType3MapUnitMap.123
	.cfi_def_cfa %rbp, 16
	movq	%rbx, %rdi
	movq	%r14, %rsi
	callq	FmoGenerateType3MapUnitMap.123
	popq	%rbx
	popq	%r14
	popq	%rbp
	.cfi_def_cfa %rsp, 8
	retq
.LBB17_14:                              # %func_FmoGenerateType3MapUnitMap.125
	.cfi_def_cfa %rbp, 16
	movq	%rbx, %rdi
	movq	%r14, %rsi
	callq	FmoGenerateType3MapUnitMap.125
	popq	%rbx
	popq	%r14
	popq	%rbp
	.cfi_def_cfa %rsp, 8
	retq
.LBB17_15:                              # %func_FmoGenerateType3MapUnitMap.128
	.cfi_def_cfa %rbp, 16
	movq	%rbx, %rdi
	movq	%r14, %rsi
	callq	FmoGenerateType3MapUnitMap.128
	popq	%rbx
	popq	%r14
	popq	%rbp
	.cfi_def_cfa %rsp, 8
	retq
.LBB17_16:                              # %func_FmoGenerateType3MapUnitMap.132
	.cfi_def_cfa %rbp, 16
	movq	%rbx, %rdi
	movq	%r14, %rsi
	callq	FmoGenerateType3MapUnitMap.132
	popq	%rbx
	popq	%r14
	popq	%rbp
	.cfi_def_cfa %rsp, 8
	retq
.LBB17_17:                              # %ctrl0
	.cfi_def_cfa %rbp, 16
	cmpl	$1, %eax
	je	.LBB17_2
# %bb.18:                               # %ctrl1
	cmpl	$2, %eax
	je	.LBB17_3
# %bb.19:                               # %ctrl2
	cmpl	$3, %eax
	je	.LBB17_4
# %bb.20:                               # %ctrl3
	cmpl	$4, %eax
	je	.LBB17_5
# %bb.21:                               # %ctrl4
	cmpl	$5, %eax
	je	.LBB17_6
# %bb.22:                               # %ctrl5
	cmpl	$6, %eax
	je	.LBB17_7
# %bb.23:                               # %ctrl6
	cmpl	$7, %eax
	je	.LBB17_8
# %bb.24:                               # %ctrl7
	cmpl	$8, %eax
	je	.LBB17_9
# %bb.25:                               # %ctrl8
	cmpl	$9, %eax
	je	.LBB17_10
# %bb.26:                               # %ctrl9
	cmpl	$10, %eax
	je	.LBB17_11
# %bb.27:                               # %ctrl10
	cmpl	$11, %eax
	je	.LBB17_12
# %bb.28:                               # %ctrl11
	cmpl	$12, %eax
	je	.LBB17_13
# %bb.29:                               # %ctrl12
	cmpl	$13, %eax
	je	.LBB17_14
# %bb.30:                               # %ctrl13
	cmpl	$14, %eax
	je	.LBB17_15
	jmp	.LBB17_16
.Lfunc_end17:
	.size	FmoGenerateType3MapUnitMap, .Lfunc_end17-FmoGenerateType3MapUnitMap
	.cfi_endproc
                                        # -- End function
	.p2align	4, 0x90         # -- Begin function FmoGenerateType4MapUnitMap
	.type	FmoGenerateType4MapUnitMap,@function
FmoGenerateType4MapUnitMap:             # @FmoGenerateType4MapUnitMap
	.cfi_startproc
# %bb.0:                                # %rand_bb
	pushq	%rbp
	.cfi_def_cfa_offset 16
	.cfi_offset %rbp, -16
	movq	%rsp, %rbp
	.cfi_def_cfa_register %rbp
	pushq	%r14
	pushq	%rbx
	.cfi_offset %rbx, -32
	.cfi_offset %r14, -24
	movq	%rsi, %r14
	movq	%rdi, %rbx
	callq	get_urand
	cmpl	$0, %eax
	jne	.LBB18_17
# %bb.1:                                # %func_FmoGenerateType4MapUnitMap.38
	movq	%rbx, %rdi
	movq	%r14, %rsi
	callq	FmoGenerateType4MapUnitMap.38
	popq	%rbx
	popq	%r14
	popq	%rbp
	.cfi_def_cfa %rsp, 8
	retq
.LBB18_2:                               # %func_FmoGenerateType4MapUnitMap.41
	.cfi_def_cfa %rbp, 16
	movq	%rbx, %rdi
	movq	%r14, %rsi
	callq	FmoGenerateType4MapUnitMap.41
	popq	%rbx
	popq	%r14
	popq	%rbp
	.cfi_def_cfa %rsp, 8
	retq
.LBB18_3:                               # %func_FmoGenerateType4MapUnitMap.56
	.cfi_def_cfa %rbp, 16
	movq	%rbx, %rdi
	movq	%r14, %rsi
	callq	FmoGenerateType4MapUnitMap.56
	popq	%rbx
	popq	%r14
	popq	%rbp
	.cfi_def_cfa %rsp, 8
	retq
.LBB18_4:                               # %func_FmoGenerateType4MapUnitMap.65
	.cfi_def_cfa %rbp, 16
	movq	%rbx, %rdi
	movq	%r14, %rsi
	callq	FmoGenerateType4MapUnitMap.65
	popq	%rbx
	popq	%r14
	popq	%rbp
	.cfi_def_cfa %rsp, 8
	retq
.LBB18_5:                               # %func_FmoGenerateType4MapUnitMap.73
	.cfi_def_cfa %rbp, 16
	movq	%rbx, %rdi
	movq	%r14, %rsi
	callq	FmoGenerateType4MapUnitMap.73
	popq	%rbx
	popq	%r14
	popq	%rbp
	.cfi_def_cfa %rsp, 8
	retq
.LBB18_6:                               # %func_FmoGenerateType4MapUnitMap.83
	.cfi_def_cfa %rbp, 16
	movq	%rbx, %rdi
	movq	%r14, %rsi
	callq	FmoGenerateType4MapUnitMap.83
	popq	%rbx
	popq	%r14
	popq	%rbp
	.cfi_def_cfa %rsp, 8
	retq
.LBB18_7:                               # %func_FmoGenerateType4MapUnitMap.89
	.cfi_def_cfa %rbp, 16
	movq	%rbx, %rdi
	movq	%r14, %rsi
	callq	FmoGenerateType4MapUnitMap.89
	popq	%rbx
	popq	%r14
	popq	%rbp
	.cfi_def_cfa %rsp, 8
	retq
.LBB18_8:                               # %func_FmoGenerateType4MapUnitMap.92
	.cfi_def_cfa %rbp, 16
	movq	%rbx, %rdi
	movq	%r14, %rsi
	callq	FmoGenerateType4MapUnitMap.92
	popq	%rbx
	popq	%r14
	popq	%rbp
	.cfi_def_cfa %rsp, 8
	retq
.LBB18_9:                               # %func_FmoGenerateType4MapUnitMap.101
	.cfi_def_cfa %rbp, 16
	movq	%rbx, %rdi
	movq	%r14, %rsi
	callq	FmoGenerateType4MapUnitMap.101
	popq	%rbx
	popq	%r14
	popq	%rbp
	.cfi_def_cfa %rsp, 8
	retq
.LBB18_10:                              # %func_FmoGenerateType4MapUnitMap.104
	.cfi_def_cfa %rbp, 16
	movq	%rbx, %rdi
	movq	%r14, %rsi
	callq	FmoGenerateType4MapUnitMap.104
	popq	%rbx
	popq	%r14
	popq	%rbp
	.cfi_def_cfa %rsp, 8
	retq
.LBB18_11:                              # %func_FmoGenerateType4MapUnitMap.119
	.cfi_def_cfa %rbp, 16
	movq	%rbx, %rdi
	movq	%r14, %rsi
	callq	FmoGenerateType4MapUnitMap.119
	popq	%rbx
	popq	%r14
	popq	%rbp
	.cfi_def_cfa %rsp, 8
	retq
.LBB18_12:                              # %func_FmoGenerateType4MapUnitMap.122
	.cfi_def_cfa %rbp, 16
	movq	%rbx, %rdi
	movq	%r14, %rsi
	callq	FmoGenerateType4MapUnitMap.122
	popq	%rbx
	popq	%r14
	popq	%rbp
	.cfi_def_cfa %rsp, 8
	retq
.LBB18_13:                              # %func_FmoGenerateType4MapUnitMap.124
	.cfi_def_cfa %rbp, 16
	movq	%rbx, %rdi
	movq	%r14, %rsi
	callq	FmoGenerateType4MapUnitMap.124
	popq	%rbx
	popq	%r14
	popq	%rbp
	.cfi_def_cfa %rsp, 8
	retq
.LBB18_14:                              # %func_FmoGenerateType4MapUnitMap.127
	.cfi_def_cfa %rbp, 16
	movq	%rbx, %rdi
	movq	%r14, %rsi
	callq	FmoGenerateType4MapUnitMap.127
	popq	%rbx
	popq	%r14
	popq	%rbp
	.cfi_def_cfa %rsp, 8
	retq
.LBB18_15:                              # %func_FmoGenerateType4MapUnitMap.129
	.cfi_def_cfa %rbp, 16
	movq	%rbx, %rdi
	movq	%r14, %rsi
	callq	FmoGenerateType4MapUnitMap.129
	popq	%rbx
	popq	%r14
	popq	%rbp
	.cfi_def_cfa %rsp, 8
	retq
.LBB18_16:                              # %func_FmoGenerateType4MapUnitMap.130
	.cfi_def_cfa %rbp, 16
	movq	%rbx, %rdi
	movq	%r14, %rsi
	callq	FmoGenerateType4MapUnitMap.130
	popq	%rbx
	popq	%r14
	popq	%rbp
	.cfi_def_cfa %rsp, 8
	retq
.LBB18_17:                              # %ctrl0
	.cfi_def_cfa %rbp, 16
	cmpl	$1, %eax
	je	.LBB18_2
# %bb.18:                               # %ctrl1
	cmpl	$2, %eax
	je	.LBB18_3
# %bb.19:                               # %ctrl2
	cmpl	$3, %eax
	je	.LBB18_4
# %bb.20:                               # %ctrl3
	cmpl	$4, %eax
	je	.LBB18_5
# %bb.21:                               # %ctrl4
	cmpl	$5, %eax
	je	.LBB18_6
# %bb.22:                               # %ctrl5
	cmpl	$6, %eax
	je	.LBB18_7
# %bb.23:                               # %ctrl6
	cmpl	$7, %eax
	je	.LBB18_8
# %bb.24:                               # %ctrl7
	cmpl	$8, %eax
	je	.LBB18_9
# %bb.25:                               # %ctrl8
	cmpl	$9, %eax
	je	.LBB18_10
# %bb.26:                               # %ctrl9
	cmpl	$10, %eax
	je	.LBB18_11
# %bb.27:                               # %ctrl10
	cmpl	$11, %eax
	je	.LBB18_12
# %bb.28:                               # %ctrl11
	cmpl	$12, %eax
	je	.LBB18_13
# %bb.29:                               # %ctrl12
	cmpl	$13, %eax
	je	.LBB18_14
# %bb.30:                               # %ctrl13
	cmpl	$14, %eax
	je	.LBB18_15
	jmp	.LBB18_16
.Lfunc_end18:
	.size	FmoGenerateType4MapUnitMap, .Lfunc_end18-FmoGenerateType4MapUnitMap
	.cfi_endproc
                                        # -- End function
	.p2align	4, 0x90         # -- Begin function FmoGenerateType5MapUnitMap
	.type	FmoGenerateType5MapUnitMap,@function
FmoGenerateType5MapUnitMap:             # @FmoGenerateType5MapUnitMap
	.cfi_startproc
# %bb.0:                                # %rand_bb
	pushq	%rbp
	.cfi_def_cfa_offset 16
	.cfi_offset %rbp, -16
	movq	%rsp, %rbp
	.cfi_def_cfa_register %rbp
	pushq	%r14
	pushq	%rbx
	.cfi_offset %rbx, -32
	.cfi_offset %r14, -24
	movq	%rsi, %r14
	movq	%rdi, %rbx
	callq	get_urand
	cmpl	$0, %eax
	jne	.LBB19_17
# %bb.1:                                # %func_FmoGenerateType5MapUnitMap.5
	movq	%rbx, %rdi
	movq	%r14, %rsi
	callq	FmoGenerateType5MapUnitMap.5
	popq	%rbx
	popq	%r14
	popq	%rbp
	.cfi_def_cfa %rsp, 8
	retq
.LBB19_2:                               # %func_FmoGenerateType5MapUnitMap.106
	.cfi_def_cfa %rbp, 16
	movq	%rbx, %rdi
	movq	%r14, %rsi
	callq	FmoGenerateType5MapUnitMap.106
	popq	%rbx
	popq	%r14
	popq	%rbp
	.cfi_def_cfa %rsp, 8
	retq
.LBB19_3:                               # %func_FmoGenerateType5MapUnitMap.108
	.cfi_def_cfa %rbp, 16
	movq	%rbx, %rdi
	movq	%r14, %rsi
	callq	FmoGenerateType5MapUnitMap.108
	popq	%rbx
	popq	%r14
	popq	%rbp
	.cfi_def_cfa %rsp, 8
	retq
.LBB19_4:                               # %func_FmoGenerateType5MapUnitMap.118
	.cfi_def_cfa %rbp, 16
	movq	%rbx, %rdi
	movq	%r14, %rsi
	callq	FmoGenerateType5MapUnitMap.118
	popq	%rbx
	popq	%r14
	popq	%rbp
	.cfi_def_cfa %rsp, 8
	retq
.LBB19_5:                               # %func_FmoGenerateType5MapUnitMap.131
	.cfi_def_cfa %rbp, 16
	movq	%rbx, %rdi
	movq	%r14, %rsi
	callq	FmoGenerateType5MapUnitMap.131
	popq	%rbx
	popq	%r14
	popq	%rbp
	.cfi_def_cfa %rsp, 8
	retq
.LBB19_6:                               # %func_FmoGenerateType5MapUnitMap.134
	.cfi_def_cfa %rbp, 16
	movq	%rbx, %rdi
	movq	%r14, %rsi
	callq	FmoGenerateType5MapUnitMap.134
	popq	%rbx
	popq	%r14
	popq	%rbp
	.cfi_def_cfa %rsp, 8
	retq
.LBB19_7:                               # %func_FmoGenerateType5MapUnitMap.136
	.cfi_def_cfa %rbp, 16
	movq	%rbx, %rdi
	movq	%r14, %rsi
	callq	FmoGenerateType5MapUnitMap.136
	popq	%rbx
	popq	%r14
	popq	%rbp
	.cfi_def_cfa %rsp, 8
	retq
.LBB19_8:                               # %func_FmoGenerateType5MapUnitMap.137
	.cfi_def_cfa %rbp, 16
	movq	%rbx, %rdi
	movq	%r14, %rsi
	callq	FmoGenerateType5MapUnitMap.137
	popq	%rbx
	popq	%r14
	popq	%rbp
	.cfi_def_cfa %rsp, 8
	retq
.LBB19_9:                               # %func_FmoGenerateType5MapUnitMap.139
	.cfi_def_cfa %rbp, 16
	movq	%rbx, %rdi
	movq	%r14, %rsi
	callq	FmoGenerateType5MapUnitMap.139
	popq	%rbx
	popq	%r14
	popq	%rbp
	.cfi_def_cfa %rsp, 8
	retq
.LBB19_10:                              # %func_FmoGenerateType5MapUnitMap.142
	.cfi_def_cfa %rbp, 16
	movq	%rbx, %rdi
	movq	%r14, %rsi
	callq	FmoGenerateType5MapUnitMap.142
	popq	%rbx
	popq	%r14
	popq	%rbp
	.cfi_def_cfa %rsp, 8
	retq
.LBB19_11:                              # %func_FmoGenerateType5MapUnitMap.143
	.cfi_def_cfa %rbp, 16
	movq	%rbx, %rdi
	movq	%r14, %rsi
	callq	FmoGenerateType5MapUnitMap.143
	popq	%rbx
	popq	%r14
	popq	%rbp
	.cfi_def_cfa %rsp, 8
	retq
.LBB19_12:                              # %func_FmoGenerateType5MapUnitMap.144
	.cfi_def_cfa %rbp, 16
	movq	%rbx, %rdi
	movq	%r14, %rsi
	callq	FmoGenerateType5MapUnitMap.144
	popq	%rbx
	popq	%r14
	popq	%rbp
	.cfi_def_cfa %rsp, 8
	retq
.LBB19_13:                              # %func_FmoGenerateType5MapUnitMap.145
	.cfi_def_cfa %rbp, 16
	movq	%rbx, %rdi
	movq	%r14, %rsi
	callq	FmoGenerateType5MapUnitMap.145
	popq	%rbx
	popq	%r14
	popq	%rbp
	.cfi_def_cfa %rsp, 8
	retq
.LBB19_14:                              # %func_FmoGenerateType5MapUnitMap.146
	.cfi_def_cfa %rbp, 16
	movq	%rbx, %rdi
	movq	%r14, %rsi
	callq	FmoGenerateType5MapUnitMap.146
	popq	%rbx
	popq	%r14
	popq	%rbp
	.cfi_def_cfa %rsp, 8
	retq
.LBB19_15:                              # %func_FmoGenerateType5MapUnitMap.147
	.cfi_def_cfa %rbp, 16
	movq	%rbx, %rdi
	movq	%r14, %rsi
	callq	FmoGenerateType5MapUnitMap.147
	popq	%rbx
	popq	%r14
	popq	%rbp
	.cfi_def_cfa %rsp, 8
	retq
.LBB19_16:                              # %func_FmoGenerateType5MapUnitMap.148
	.cfi_def_cfa %rbp, 16
	movq	%rbx, %rdi
	movq	%r14, %rsi
	callq	FmoGenerateType5MapUnitMap.148
	popq	%rbx
	popq	%r14
	popq	%rbp
	.cfi_def_cfa %rsp, 8
	retq
.LBB19_17:                              # %ctrl0
	.cfi_def_cfa %rbp, 16
	cmpl	$1, %eax
	je	.LBB19_2
# %bb.18:                               # %ctrl1
	cmpl	$2, %eax
	je	.LBB19_3
# %bb.19:                               # %ctrl2
	cmpl	$3, %eax
	je	.LBB19_4
# %bb.20:                               # %ctrl3
	cmpl	$4, %eax
	je	.LBB19_5
# %bb.21:                               # %ctrl4
	cmpl	$5, %eax
	je	.LBB19_6
# %bb.22:                               # %ctrl5
	cmpl	$6, %eax
	je	.LBB19_7
# %bb.23:                               # %ctrl6
	cmpl	$7, %eax
	je	.LBB19_8
# %bb.24:                               # %ctrl7
	cmpl	$8, %eax
	je	.LBB19_9
# %bb.25:                               # %ctrl8
	cmpl	$9, %eax
	je	.LBB19_10
# %bb.26:                               # %ctrl9
	cmpl	$10, %eax
	je	.LBB19_11
# %bb.27:                               # %ctrl10
	cmpl	$11, %eax
	je	.LBB19_12
# %bb.28:                               # %ctrl11
	cmpl	$12, %eax
	je	.LBB19_13
# %bb.29:                               # %ctrl12
	cmpl	$13, %eax
	je	.LBB19_14
# %bb.30:                               # %ctrl13
	cmpl	$14, %eax
	je	.LBB19_15
	jmp	.LBB19_16
.Lfunc_end19:
	.size	FmoGenerateType5MapUnitMap, .Lfunc_end19-FmoGenerateType5MapUnitMap
	.cfi_endproc
                                        # -- End function
	.p2align	4, 0x90         # -- Begin function FmoGenerateType6MapUnitMap
	.type	FmoGenerateType6MapUnitMap,@function
FmoGenerateType6MapUnitMap:             # @FmoGenerateType6MapUnitMap
	.cfi_startproc
# %bb.0:                                # %rand_bb
	pushq	%rbp
	.cfi_def_cfa_offset 16
	.cfi_offset %rbp, -16
	movq	%rsp, %rbp
	.cfi_def_cfa_register %rbp
	pushq	%r14
	pushq	%rbx
	.cfi_offset %rbx, -32
	.cfi_offset %r14, -24
	movq	%rsi, %r14
	movq	%rdi, %rbx
	callq	get_urand
	cmpl	$0, %eax
	jne	.LBB20_7
# %bb.1:                                # %func_FmoGenerateType6MapUnitMap.18
	movq	%rbx, %rdi
	movq	%r14, %rsi
	callq	FmoGenerateType6MapUnitMap.18
	popq	%rbx
	popq	%r14
	popq	%rbp
	.cfi_def_cfa %rsp, 8
	retq
.LBB20_2:                               # %func_FmoGenerateType6MapUnitMap.24
	.cfi_def_cfa %rbp, 16
	movq	%rbx, %rdi
	movq	%r14, %rsi
	callq	FmoGenerateType6MapUnitMap.24
	popq	%rbx
	popq	%r14
	popq	%rbp
	.cfi_def_cfa %rsp, 8
	retq
.LBB20_3:                               # %func_FmoGenerateType6MapUnitMap.28
	.cfi_def_cfa %rbp, 16
	movq	%rbx, %rdi
	movq	%r14, %rsi
	callq	FmoGenerateType6MapUnitMap.28
	popq	%rbx
	popq	%r14
	popq	%rbp
	.cfi_def_cfa %rsp, 8
	retq
.LBB20_4:                               # %func_FmoGenerateType6MapUnitMap.66
	.cfi_def_cfa %rbp, 16
	movq	%rbx, %rdi
	movq	%r14, %rsi
	callq	FmoGenerateType6MapUnitMap.66
	popq	%rbx
	popq	%r14
	popq	%rbp
	.cfi_def_cfa %rsp, 8
	retq
.LBB20_5:                               # %func_FmoGenerateType6MapUnitMap.69
	.cfi_def_cfa %rbp, 16
	movq	%rbx, %rdi
	movq	%r14, %rsi
	callq	FmoGenerateType6MapUnitMap.69
	popq	%rbx
	popq	%r14
	popq	%rbp
	.cfi_def_cfa %rsp, 8
	retq
.LBB20_6:                               # %func_FmoGenerateType6MapUnitMap.86
	.cfi_def_cfa %rbp, 16
	movq	%rbx, %rdi
	movq	%r14, %rsi
	callq	FmoGenerateType6MapUnitMap.86
	popq	%rbx
	popq	%r14
	popq	%rbp
	.cfi_def_cfa %rsp, 8
	retq
.LBB20_7:                               # %ctrl0
	.cfi_def_cfa %rbp, 16
	cmpl	$1, %eax
	je	.LBB20_2
# %bb.8:                                # %ctrl1
	cmpl	$2, %eax
	je	.LBB20_3
# %bb.9:                                # %ctrl2
	cmpl	$3, %eax
	je	.LBB20_4
# %bb.10:                               # %ctrl3
	cmpl	$4, %eax
	je	.LBB20_5
	jmp	.LBB20_6
.Lfunc_end20:
	.size	FmoGenerateType6MapUnitMap, .Lfunc_end20-FmoGenerateType6MapUnitMap
	.cfi_endproc
                                        # -- End function
	.globl	FmoInit.1               # -- Begin function FmoInit.1
	.p2align	4, 0x90
	.type	FmoInit.1,@function
FmoInit.1:                              # @FmoInit.1
	.cfi_startproc
# %bb.0:                                # %entry
	pushq	%rbp
	.cfi_def_cfa_offset 16
	.cfi_offset %rbp, -16
	movq	%rsp, %rbp
	.cfi_def_cfa_register %rbp
	subq	$32, %rsp
	movl	$1931914508, -8(%rbp)   # imm = 0x7326AD0C
	movq	%rdi, -16(%rbp)
	movq	%rsi, -24(%rbp)
	movq	%rdx, -32(%rbp)
	movl	$0, -4(%rbp)
.LBB21_1:                               # %for.cond
                                        # =>This Inner Loop Header: Depth=1
	cmpl	$8, -4(%rbp)
	jge	.LBB21_4
# %bb.2:                                # %for.body
                                        #   in Loop: Header=BB21_1 Depth=1
	movslq	-4(%rbp), %rax
	movl	$-1, FirstMBInSlice(,%rax,4)
# %bb.3:                                # %for.inc
                                        #   in Loop: Header=BB21_1 Depth=1
	movl	-4(%rbp), %eax
	addl	$1, %eax
	movl	%eax, -4(%rbp)
	jmp	.LBB21_1
.LBB21_4:                               # %for.end
	movq	-16(%rbp), %rdi
	movq	-24(%rbp), %rsi
	callq	FmoGenerateMapUnitToSliceGroupMap
	movq	-16(%rbp), %rdi
	movq	-32(%rbp), %rsi
	callq	FmoGenerateMBAmap
	cmpl	$1931914508, -8(%rbp)   # imm = 0x7326AD0C
	jne	.LBB21_6
.LBB21_5:
	xorl	%eax, %eax
	addq	$32, %rsp
	popq	%rbp
	.cfi_def_cfa %rsp, 8
	retq
.LBB21_6:                               # %func_exit
	.cfi_def_cfa %rbp, 16
	callq	detect_breach
	jmp	.LBB21_5
.Lfunc_end21:
	.size	FmoInit.1, .Lfunc_end21-FmoInit.1
	.cfi_endproc
                                        # -- End function
	.p2align	4, 0x90         # -- Begin function FmoGenerateType1MapUnitMap.2
	.type	FmoGenerateType1MapUnitMap.2,@function
FmoGenerateType1MapUnitMap.2:           # @FmoGenerateType1MapUnitMap.2
	.cfi_startproc
# %bb.0:                                # %entry
	pushq	%rbp
	.cfi_def_cfa_offset 16
	.cfi_offset %rbp, -16
	movq	%rsp, %rbp
	.cfi_def_cfa_register %rbp
	subq	$32, %rsp
	movl	$955678228, -8(%rbp)    # imm = 0x38F67E14
	movq	%rdi, -16(%rbp)
	movq	%rsi, -24(%rbp)
	movl	$0, -4(%rbp)
.LBB22_1:                               # %for.cond
                                        # =>This Inner Loop Header: Depth=1
	movl	-4(%rbp), %eax
	cmpl	PicSizeInMapUnits, %eax
	jae	.LBB22_4
# %bb.2:                                # %for.body
                                        #   in Loop: Header=BB22_1 Depth=1
	movl	-4(%rbp), %eax
	movq	-16(%rbp), %rcx
	xorl	%edx, %edx
	divl	72468(%rcx)
	movl	%edx, %ecx
	movl	-4(%rbp), %eax
	movq	-16(%rbp), %rsi
	xorl	%edx, %edx
	divl	72468(%rsi)
	movq	-24(%rbp), %rdx
	movl	60(%rdx), %edx
	addl	$1, %edx
	imull	%edx, %eax
	shrl	$1, %eax
	addl	%eax, %ecx
	movq	-24(%rbp), %rax
	movl	60(%rax), %esi
	addl	$1, %esi
	movl	%ecx, %eax
	xorl	%edx, %edx
	divl	%esi
	movq	MapUnitToSliceGroupMap, %rax
	movl	-4(%rbp), %ecx
	movb	%dl, (%rax,%rcx)
# %bb.3:                                # %for.inc
                                        #   in Loop: Header=BB22_1 Depth=1
	movl	-4(%rbp), %eax
	addl	$1, %eax
	movl	%eax, -4(%rbp)
	jmp	.LBB22_1
.LBB22_4:                               # %for.end
	cmpl	$955678228, -8(%rbp)    # imm = 0x38F67E14
	jne	.LBB22_6
.LBB22_5:
	addq	$32, %rsp
	popq	%rbp
	.cfi_def_cfa %rsp, 8
	retq
.LBB22_6:                               # %func_exit
	.cfi_def_cfa %rbp, 16
	callq	detect_breach
	jmp	.LBB22_5
.Lfunc_end22:
	.size	FmoGenerateType1MapUnitMap.2, .Lfunc_end22-FmoGenerateType1MapUnitMap.2
	.cfi_endproc
                                        # -- End function
	.globl	FmoSliceGroupCompletelyCoded.3 # -- Begin function FmoSliceGroupCompletelyCoded.3
	.p2align	4, 0x90
	.type	FmoSliceGroupCompletelyCoded.3,@function
FmoSliceGroupCompletelyCoded.3:         # @FmoSliceGroupCompletelyCoded.3
	.cfi_startproc
# %bb.0:                                # %entry
	pushq	%rbp
	.cfi_def_cfa_offset 16
	.cfi_offset %rbp, -16
	movq	%rsp, %rbp
	.cfi_def_cfa_register %rbp
	pushq	%rbx
	subq	$24, %rsp
	.cfi_offset %rbx, -24
	movl	$855033166, -16(%rbp)   # imm = 0x32F6C54E
	movl	%edi, -20(%rbp)
	movl	-20(%rbp), %edi
	callq	FmoGetFirstMacroblockInSlice
	cmpl	$0, %eax
	jge	.LBB23_2
# %bb.1:                                # %if.then
	movl	$1, -12(%rbp)
	jmp	.LBB23_3
.LBB23_2:                               # %if.else
	movl	$0, -12(%rbp)
.LBB23_3:                               # %return
	movl	-12(%rbp), %ebx
	cmpl	$855033166, -16(%rbp)   # imm = 0x32F6C54E
	jne	.LBB23_5
.LBB23_4:
	movl	%ebx, %eax
	addq	$24, %rsp
	popq	%rbx
	popq	%rbp
	.cfi_def_cfa %rsp, 8
	retq
.LBB23_5:                               # %func_exit
	.cfi_def_cfa %rbp, 16
	callq	detect_breach
	jmp	.LBB23_4
.Lfunc_end23:
	.size	FmoSliceGroupCompletelyCoded.3, .Lfunc_end23-FmoSliceGroupCompletelyCoded.3
	.cfi_endproc
                                        # -- End function
	.globl	FmoInit.4               # -- Begin function FmoInit.4
	.p2align	4, 0x90
	.type	FmoInit.4,@function
FmoInit.4:                              # @FmoInit.4
	.cfi_startproc
# %bb.0:                                # %entry
	pushq	%rbp
	.cfi_def_cfa_offset 16
	.cfi_offset %rbp, -16
	movq	%rsp, %rbp
	.cfi_def_cfa_register %rbp
	subq	$32, %rsp
	movl	$1414287304, -8(%rbp)   # imm = 0x544C4FC8
	movq	%rdi, -16(%rbp)
	movq	%rsi, -32(%rbp)
	movq	%rdx, -24(%rbp)
	movl	$0, -4(%rbp)
.LBB24_1:                               # %for.cond
                                        # =>This Inner Loop Header: Depth=1
	cmpl	$8, -4(%rbp)
	jge	.LBB24_4
# %bb.2:                                # %for.body
                                        #   in Loop: Header=BB24_1 Depth=1
	movslq	-4(%rbp), %rax
	movl	$-1, FirstMBInSlice(,%rax,4)
# %bb.3:                                # %for.inc
                                        #   in Loop: Header=BB24_1 Depth=1
	movl	-4(%rbp), %eax
	addl	$1, %eax
	movl	%eax, -4(%rbp)
	jmp	.LBB24_1
.LBB24_4:                               # %for.end
	movq	-16(%rbp), %rdi
	movq	-32(%rbp), %rsi
	callq	FmoGenerateMapUnitToSliceGroupMap
	movq	-16(%rbp), %rdi
	movq	-24(%rbp), %rsi
	callq	FmoGenerateMBAmap
	cmpl	$1414287304, -8(%rbp)   # imm = 0x544C4FC8
	jne	.LBB24_6
.LBB24_5:
	xorl	%eax, %eax
	addq	$32, %rsp
	popq	%rbp
	.cfi_def_cfa %rsp, 8
	retq
.LBB24_6:                               # %func_exit
	.cfi_def_cfa %rbp, 16
	callq	detect_breach
	jmp	.LBB24_5
.Lfunc_end24:
	.size	FmoInit.4, .Lfunc_end24-FmoInit.4
	.cfi_endproc
                                        # -- End function
	.p2align	4, 0x90         # -- Begin function FmoGenerateType5MapUnitMap.5
	.type	FmoGenerateType5MapUnitMap.5,@function
FmoGenerateType5MapUnitMap.5:           # @FmoGenerateType5MapUnitMap.5
	.cfi_startproc
# %bb.0:                                # %entry
	pushq	%rbp
	.cfi_def_cfa_offset 16
	.cfi_offset %rbp, -16
	movq	%rsp, %rbp
	.cfi_def_cfa_register %rbp
	subq	$48, %rsp
	movl	$1964438645, -40(%rbp)  # imm = 0x7516F475
	movq	%rdi, -16(%rbp)
	movq	%rsi, -24(%rbp)
	movq	-24(%rbp), %rax
	movl	168(%rax), %eax
	addl	$1, %eax
	movq	-16(%rbp), %rcx
	imull	72652(%rcx), %eax
	cmpl	PicSizeInMapUnits, %eax
	jae	.LBB25_2
# %bb.1:                                # %cond.true
	movq	-24(%rbp), %rax
	movl	168(%rax), %eax
	addl	$1, %eax
	movq	-16(%rbp), %rcx
	imull	72652(%rcx), %eax
	jmp	.LBB25_3
.LBB25_2:                               # %cond.false
	movl	PicSizeInMapUnits, %eax
.LBB25_3:                               # %cond.end
	movl	%eax, -32(%rbp)
	movq	-24(%rbp), %rax
	cmpl	$0, 164(%rax)
	je	.LBB25_5
# %bb.4:                                # %cond.true5
	movl	PicSizeInMapUnits, %eax
	subl	-32(%rbp), %eax
	jmp	.LBB25_6
.LBB25_5:                               # %cond.false6
	movl	-32(%rbp), %eax
.LBB25_6:                               # %cond.end7
	movl	%eax, -36(%rbp)
	movl	$0, -28(%rbp)
	movl	$0, -4(%rbp)
.LBB25_7:                               # %for.cond
                                        # =>This Loop Header: Depth=1
                                        #     Child Loop BB25_9 Depth 2
	movl	-4(%rbp), %eax
	movq	-16(%rbp), %rcx
	cmpl	72468(%rcx), %eax
	jae	.LBB25_17
# %bb.8:                                # %for.body
                                        #   in Loop: Header=BB25_7 Depth=1
	movl	$0, -8(%rbp)
.LBB25_9:                               # %for.cond10
                                        #   Parent Loop BB25_7 Depth=1
                                        # =>  This Inner Loop Header: Depth=2
	movl	-8(%rbp), %eax
	movq	-16(%rbp), %rcx
	cmpl	72472(%rcx), %eax
	jae	.LBB25_15
# %bb.10:                               # %for.body12
                                        #   in Loop: Header=BB25_9 Depth=2
	movl	-28(%rbp), %eax
	movl	%eax, %ecx
	addl	$1, %ecx
	movl	%ecx, -28(%rbp)
	cmpl	-36(%rbp), %eax
	jae	.LBB25_12
# %bb.11:                               # %if.then
                                        #   in Loop: Header=BB25_9 Depth=2
	movq	-24(%rbp), %rax
	movl	$1, %ecx
	subl	164(%rax), %ecx
	movq	MapUnitToSliceGroupMap, %rax
	movl	-8(%rbp), %edx
	movq	-16(%rbp), %rsi
	imull	72468(%rsi), %edx
	addl	-4(%rbp), %edx
	movl	%edx, %edx
	movb	%cl, (%rax,%rdx)
	jmp	.LBB25_13
.LBB25_12:                              # %if.else
                                        #   in Loop: Header=BB25_9 Depth=2
	movq	-24(%rbp), %rax
	movl	164(%rax), %eax
	movq	MapUnitToSliceGroupMap, %rcx
	movl	-8(%rbp), %edx
	movq	-16(%rbp), %rsi
	imull	72468(%rsi), %edx
	addl	-4(%rbp), %edx
	movl	%edx, %edx
	movb	%al, (%rcx,%rdx)
.LBB25_13:                              # %if.end
                                        #   in Loop: Header=BB25_9 Depth=2
	jmp	.LBB25_14
.LBB25_14:                              # %for.inc
                                        #   in Loop: Header=BB25_9 Depth=2
	movl	-8(%rbp), %eax
	addl	$1, %eax
	movl	%eax, -8(%rbp)
	jmp	.LBB25_9
.LBB25_15:                              # %for.end
                                        #   in Loop: Header=BB25_7 Depth=1
	jmp	.LBB25_16
.LBB25_16:                              # %for.inc27
                                        #   in Loop: Header=BB25_7 Depth=1
	movl	-4(%rbp), %eax
	addl	$1, %eax
	movl	%eax, -4(%rbp)
	jmp	.LBB25_7
.LBB25_17:                              # %for.end29
	cmpl	$1964438645, -40(%rbp)  # imm = 0x7516F475
	jne	.LBB25_19
.LBB25_18:
	addq	$48, %rsp
	popq	%rbp
	.cfi_def_cfa %rsp, 8
	retq
.LBB25_19:                              # %func_exit
	.cfi_def_cfa %rbp, 16
	callq	detect_breach
	jmp	.LBB25_18
.Lfunc_end25:
	.size	FmoGenerateType5MapUnitMap.5, .Lfunc_end25-FmoGenerateType5MapUnitMap.5
	.cfi_endproc
                                        # -- End function
	.globl	FmoGetFirstMBOfSliceGroup.6 # -- Begin function FmoGetFirstMBOfSliceGroup.6
	.p2align	4, 0x90
	.type	FmoGetFirstMBOfSliceGroup.6,@function
FmoGetFirstMBOfSliceGroup.6:            # @FmoGetFirstMBOfSliceGroup.6
	.cfi_startproc
# %bb.0:                                # %entry
	pushq	%rbp
	.cfi_def_cfa_offset 16
	.cfi_offset %rbp, -16
	movq	%rsp, %rbp
	.cfi_def_cfa_register %rbp
	pushq	%rbx
	subq	$24, %rsp
	.cfi_offset %rbx, -24
	movl	$1950135245, -24(%rbp)  # imm = 0x743CB3CD
	movl	%edi, -20(%rbp)
	movl	$0, -12(%rbp)
.LBB26_1:                               # %while.cond
                                        # =>This Inner Loop Header: Depth=1
	xorl	%eax, %eax
	movl	-12(%rbp), %ecx
	movq	img, %rdx
	cmpl	72484(%rdx), %ecx
	jge	.LBB26_3
# %bb.2:                                # %land.rhs
                                        #   in Loop: Header=BB26_1 Depth=1
	movl	-12(%rbp), %edi
	callq	FmoMB2SliceGroup
	cmpl	-20(%rbp), %eax
	setne	%al
.LBB26_3:                               # %land.end
                                        #   in Loop: Header=BB26_1 Depth=1
	testb	$1, %al
	jne	.LBB26_4
	jmp	.LBB26_5
.LBB26_4:                               # %while.body
                                        #   in Loop: Header=BB26_1 Depth=1
	movl	-12(%rbp), %eax
	addl	$1, %eax
	movl	%eax, -12(%rbp)
	jmp	.LBB26_1
.LBB26_5:                               # %while.end
	movl	-12(%rbp), %eax
	movq	img, %rcx
	cmpl	72484(%rcx), %eax
	jge	.LBB26_7
# %bb.6:                                # %if.then
	movl	-12(%rbp), %eax
	movl	%eax, -16(%rbp)
	jmp	.LBB26_8
.LBB26_7:                               # %if.else
	movl	$-1, -16(%rbp)
.LBB26_8:                               # %return
	movl	-16(%rbp), %ebx
	cmpl	$1950135245, -24(%rbp)  # imm = 0x743CB3CD
	jne	.LBB26_10
.LBB26_9:
	movl	%ebx, %eax
	addq	$24, %rsp
	popq	%rbx
	popq	%rbp
	.cfi_def_cfa %rsp, 8
	retq
.LBB26_10:                              # %func_exit
	.cfi_def_cfa %rbp, 16
	callq	detect_breach
	jmp	.LBB26_9
.Lfunc_end26:
	.size	FmoGetFirstMBOfSliceGroup.6, .Lfunc_end26-FmoGetFirstMBOfSliceGroup.6
	.cfi_endproc
                                        # -- End function
	.p2align	4, 0x90         # -- Begin function FmoGenerateMapUnitToSliceGroupMap.7
	.type	FmoGenerateMapUnitToSliceGroupMap.7,@function
FmoGenerateMapUnitToSliceGroupMap.7:    # @FmoGenerateMapUnitToSliceGroupMap.7
	.cfi_startproc
# %bb.0:                                # %entry
	pushq	%rbp
	.cfi_def_cfa_offset 16
	.cfi_offset %rbp, -16
	movq	%rsp, %rbp
	.cfi_def_cfa_register %rbp
	pushq	%rbx
	subq	$24, %rsp
	.cfi_offset %rbx, -24
	movl	$1037651419, -32(%rbp)  # imm = 0x3DD94DDB
	movq	%rdi, -24(%rbp)
	movq	%rsi, -16(%rbp)
	movq	-24(%rbp), %rax
	movl	72472(%rax), %eax
	movq	-24(%rbp), %rcx
	imull	72468(%rcx), %eax
	movl	%eax, PicSizeInMapUnits
	movq	-16(%rbp), %rax
	cmpl	$6, 64(%rax)
	jne	.LBB27_4
# %bb.1:                                # %if.then
	movq	-16(%rbp), %rax
	movl	172(%rax), %eax
	addl	$1, %eax
	cmpl	PicSizeInMapUnits, %eax
	je	.LBB27_3
# %bb.2:                                # %if.then2
	movabsq	$.L.str, %rdi
	movl	$500, %esi              # imm = 0x1F4
	callq	error
.LBB27_3:                               # %if.end
	jmp	.LBB27_4
.LBB27_4:                               # %if.end3
	cmpq	$0, MapUnitToSliceGroupMap
	je	.LBB27_6
# %bb.5:                                # %if.then4
	movq	MapUnitToSliceGroupMap, %rdi
	callq	free
.LBB27_6:                               # %if.end5
	movl	PicSizeInMapUnits, %edi
	shlq	$0, %rdi
	callq	malloc
	movq	%rax, MapUnitToSliceGroupMap
	cmpq	$0, %rax
	jne	.LBB27_8
# %bb.7:                                # %if.then9
	movl	PicSizeInMapUnits, %esi
	shlq	$0, %rsi
	movabsq	$.L.str.1, %rdi
	movb	$0, %al
	callq	printf
	movl	$4294967295, %edi       # imm = 0xFFFFFFFF
	callq	exit
.LBB27_8:                               # %if.end13
	movq	-16(%rbp), %rax
	cmpl	$0, 60(%rax)
	jne	.LBB27_10
# %bb.9:                                # %if.then16
	movq	MapUnitToSliceGroupMap, %rdi
	movl	PicSizeInMapUnits, %edx
	shlq	$0, %rdx
	xorl	%esi, %esi
	callq	memset
	movl	$0, -28(%rbp)
	jmp	.LBB27_21
.LBB27_10:                              # %if.end19
	movq	-16(%rbp), %rax
	movl	64(%rax), %eax
	movq	%rax, %rcx
	subq	$6, %rcx
	ja	.LBB27_19
# %bb.11:                               # %if.end19
	movq	.LJTI27_0(,%rax,8), %rax
	jmpq	*%rax
.LBB27_12:                              # %sw.bb
	movq	-24(%rbp), %rdi
	movq	-16(%rbp), %rsi
	callq	FmoGenerateType0MapUnitMap
	jmp	.LBB27_20
.LBB27_13:                              # %sw.bb21
	movq	-24(%rbp), %rdi
	movq	-16(%rbp), %rsi
	callq	FmoGenerateType1MapUnitMap
	jmp	.LBB27_20
.LBB27_14:                              # %sw.bb22
	movq	-24(%rbp), %rdi
	movq	-16(%rbp), %rsi
	callq	FmoGenerateType2MapUnitMap
	jmp	.LBB27_20
.LBB27_15:                              # %sw.bb23
	movq	-24(%rbp), %rdi
	movq	-16(%rbp), %rsi
	callq	FmoGenerateType3MapUnitMap
	jmp	.LBB27_20
.LBB27_16:                              # %sw.bb24
	movq	-24(%rbp), %rdi
	movq	-16(%rbp), %rsi
	callq	FmoGenerateType4MapUnitMap
	jmp	.LBB27_20
.LBB27_17:                              # %sw.bb25
	movq	-24(%rbp), %rdi
	movq	-16(%rbp), %rsi
	callq	FmoGenerateType5MapUnitMap
	jmp	.LBB27_20
.LBB27_18:                              # %sw.bb26
	movq	-24(%rbp), %rdi
	movq	-16(%rbp), %rsi
	callq	FmoGenerateType6MapUnitMap
	jmp	.LBB27_20
.LBB27_19:                              # %sw.default
	movq	-16(%rbp), %rax
	movl	64(%rax), %esi
	movabsq	$.L.str.2, %rdi
	movb	$0, %al
	callq	printf
	movl	$4294967295, %edi       # imm = 0xFFFFFFFF
	callq	exit
.LBB27_20:                              # %sw.epilog
	movl	$0, -28(%rbp)
.LBB27_21:                              # %return
	movl	-28(%rbp), %ebx
	cmpl	$1037651419, -32(%rbp)  # imm = 0x3DD94DDB
	jne	.LBB27_23
.LBB27_22:
	movl	%ebx, %eax
	addq	$24, %rsp
	popq	%rbx
	popq	%rbp
	.cfi_def_cfa %rsp, 8
	retq
.LBB27_23:                              # %func_exit
	.cfi_def_cfa %rbp, 16
	callq	detect_breach
	jmp	.LBB27_22
.Lfunc_end27:
	.size	FmoGenerateMapUnitToSliceGroupMap.7, .Lfunc_end27-FmoGenerateMapUnitToSliceGroupMap.7
	.cfi_endproc
	.section	.rodata,"a",@progbits
	.p2align	3
.LJTI27_0:
	.quad	.LBB27_12
	.quad	.LBB27_13
	.quad	.LBB27_14
	.quad	.LBB27_15
	.quad	.LBB27_16
	.quad	.LBB27_17
	.quad	.LBB27_18
                                        # -- End function
	.text
	.globl	FmoGetPreviousMBNr.8    # -- Begin function FmoGetPreviousMBNr.8
	.p2align	4, 0x90
	.type	FmoGetPreviousMBNr.8,@function
FmoGetPreviousMBNr.8:                   # @FmoGetPreviousMBNr.8
	.cfi_startproc
# %bb.0:                                # %entry
	pushq	%rbp
	.cfi_def_cfa_offset 16
	.cfi_offset %rbp, -16
	movq	%rsp, %rbp
	.cfi_def_cfa_register %rbp
	pushq	%rbx
	subq	$24, %rsp
	.cfi_offset %rbx, -24
	movl	$1530817983, -24(%rbp)  # imm = 0x5B3E6DBF
	movl	%edi, -12(%rbp)
	movl	-12(%rbp), %edi
	callq	FmoMB2SliceGroup
	movl	%eax, -20(%rbp)
	movl	-12(%rbp), %eax
	addl	$-1, %eax
	movl	%eax, -12(%rbp)
.LBB28_1:                               # %while.cond
                                        # =>This Inner Loop Header: Depth=1
	xorl	%eax, %eax
	cmpl	$0, -12(%rbp)
	jl	.LBB28_3
# %bb.2:                                # %land.rhs
                                        #   in Loop: Header=BB28_1 Depth=1
	movq	MBAmap, %rax
	movslq	-12(%rbp), %rcx
	movzbl	(%rax,%rcx), %eax
	cmpl	-20(%rbp), %eax
	setne	%al
.LBB28_3:                               # %land.end
                                        #   in Loop: Header=BB28_1 Depth=1
	testb	$1, %al
	jne	.LBB28_4
	jmp	.LBB28_5
.LBB28_4:                               # %while.body
                                        #   in Loop: Header=BB28_1 Depth=1
	movl	-12(%rbp), %eax
	addl	$-1, %eax
	movl	%eax, -12(%rbp)
	jmp	.LBB28_1
.LBB28_5:                               # %while.end
	cmpl	$0, -12(%rbp)
	jge	.LBB28_7
# %bb.6:                                # %if.then
	movl	$-1, -16(%rbp)
	jmp	.LBB28_8
.LBB28_7:                               # %if.else
	movl	-12(%rbp), %eax
	movl	%eax, -16(%rbp)
.LBB28_8:                               # %return
	movl	-16(%rbp), %ebx
	cmpl	$1530817983, -24(%rbp)  # imm = 0x5B3E6DBF
	jne	.LBB28_10
.LBB28_9:
	movl	%ebx, %eax
	addq	$24, %rsp
	popq	%rbx
	popq	%rbp
	.cfi_def_cfa %rsp, 8
	retq
.LBB28_10:                              # %func_exit
	.cfi_def_cfa %rbp, 16
	callq	detect_breach
	jmp	.LBB28_9
.Lfunc_end28:
	.size	FmoGetPreviousMBNr.8, .Lfunc_end28-FmoGetPreviousMBNr.8
	.cfi_endproc
                                        # -- End function
	.globl	FmoGetPreviousMBNr.9    # -- Begin function FmoGetPreviousMBNr.9
	.p2align	4, 0x90
	.type	FmoGetPreviousMBNr.9,@function
FmoGetPreviousMBNr.9:                   # @FmoGetPreviousMBNr.9
	.cfi_startproc
# %bb.0:                                # %entry
	pushq	%rbp
	.cfi_def_cfa_offset 16
	.cfi_offset %rbp, -16
	movq	%rsp, %rbp
	.cfi_def_cfa_register %rbp
	pushq	%rbx
	subq	$24, %rsp
	.cfi_offset %rbx, -24
	movl	$1544629228, -20(%rbp)  # imm = 0x5C112BEC
	movl	%edi, -12(%rbp)
	movl	-12(%rbp), %edi
	callq	FmoMB2SliceGroup
	movl	%eax, -24(%rbp)
	movl	-12(%rbp), %eax
	addl	$-1, %eax
	movl	%eax, -12(%rbp)
.LBB29_1:                               # %while.cond
                                        # =>This Inner Loop Header: Depth=1
	xorl	%eax, %eax
	cmpl	$0, -12(%rbp)
	jl	.LBB29_3
# %bb.2:                                # %land.rhs
                                        #   in Loop: Header=BB29_1 Depth=1
	movq	MBAmap, %rax
	movslq	-12(%rbp), %rcx
	movzbl	(%rax,%rcx), %eax
	cmpl	-24(%rbp), %eax
	setne	%al
.LBB29_3:                               # %land.end
                                        #   in Loop: Header=BB29_1 Depth=1
	testb	$1, %al
	jne	.LBB29_4
	jmp	.LBB29_5
.LBB29_4:                               # %while.body
                                        #   in Loop: Header=BB29_1 Depth=1
	movl	-12(%rbp), %eax
	addl	$-1, %eax
	movl	%eax, -12(%rbp)
	jmp	.LBB29_1
.LBB29_5:                               # %while.end
	cmpl	$0, -12(%rbp)
	jge	.LBB29_7
# %bb.6:                                # %if.then
	movl	$-1, -16(%rbp)
	jmp	.LBB29_8
.LBB29_7:                               # %if.else
	movl	-12(%rbp), %eax
	movl	%eax, -16(%rbp)
.LBB29_8:                               # %return
	movl	-16(%rbp), %ebx
	cmpl	$1544629228, -20(%rbp)  # imm = 0x5C112BEC
	jne	.LBB29_10
.LBB29_9:
	movl	%ebx, %eax
	addq	$24, %rsp
	popq	%rbx
	popq	%rbp
	.cfi_def_cfa %rsp, 8
	retq
.LBB29_10:                              # %func_exit
	.cfi_def_cfa %rbp, 16
	callq	detect_breach
	jmp	.LBB29_9
.Lfunc_end29:
	.size	FmoGetPreviousMBNr.9, .Lfunc_end29-FmoGetPreviousMBNr.9
	.cfi_endproc
                                        # -- End function
	.globl	FmoInit.10              # -- Begin function FmoInit.10
	.p2align	4, 0x90
	.type	FmoInit.10,@function
FmoInit.10:                             # @FmoInit.10
	.cfi_startproc
# %bb.0:                                # %entry
	pushq	%rbp
	.cfi_def_cfa_offset 16
	.cfi_offset %rbp, -16
	movq	%rsp, %rbp
	.cfi_def_cfa_register %rbp
	subq	$32, %rsp
	movl	$1151454972, -8(%rbp)   # imm = 0x44A1CEFC
	movq	%rdi, -16(%rbp)
	movq	%rsi, -32(%rbp)
	movq	%rdx, -24(%rbp)
	movl	$0, -4(%rbp)
.LBB30_1:                               # %for.cond
                                        # =>This Inner Loop Header: Depth=1
	cmpl	$8, -4(%rbp)
	jge	.LBB30_4
# %bb.2:                                # %for.body
                                        #   in Loop: Header=BB30_1 Depth=1
	movslq	-4(%rbp), %rax
	movl	$-1, FirstMBInSlice(,%rax,4)
# %bb.3:                                # %for.inc
                                        #   in Loop: Header=BB30_1 Depth=1
	movl	-4(%rbp), %eax
	addl	$1, %eax
	movl	%eax, -4(%rbp)
	jmp	.LBB30_1
.LBB30_4:                               # %for.end
	movq	-16(%rbp), %rdi
	movq	-32(%rbp), %rsi
	callq	FmoGenerateMapUnitToSliceGroupMap
	movq	-16(%rbp), %rdi
	movq	-24(%rbp), %rsi
	callq	FmoGenerateMBAmap
	cmpl	$1151454972, -8(%rbp)   # imm = 0x44A1CEFC
	jne	.LBB30_6
.LBB30_5:
	xorl	%eax, %eax
	addq	$32, %rsp
	popq	%rbp
	.cfi_def_cfa %rsp, 8
	retq
.LBB30_6:                               # %func_exit
	.cfi_def_cfa %rbp, 16
	callq	detect_breach
	jmp	.LBB30_5
.Lfunc_end30:
	.size	FmoInit.10, .Lfunc_end30-FmoInit.10
	.cfi_endproc
                                        # -- End function
	.globl	FmoInit.11              # -- Begin function FmoInit.11
	.p2align	4, 0x90
	.type	FmoInit.11,@function
FmoInit.11:                             # @FmoInit.11
	.cfi_startproc
# %bb.0:                                # %entry
	pushq	%rbp
	.cfi_def_cfa_offset 16
	.cfi_offset %rbp, -16
	movq	%rsp, %rbp
	.cfi_def_cfa_register %rbp
	subq	$32, %rsp
	movl	$1152421512, -8(%rbp)   # imm = 0x44B08E88
	movq	%rdi, -16(%rbp)
	movq	%rsi, -24(%rbp)
	movq	%rdx, -32(%rbp)
	movl	$0, -4(%rbp)
.LBB31_1:                               # %for.cond
                                        # =>This Inner Loop Header: Depth=1
	cmpl	$8, -4(%rbp)
	jge	.LBB31_4
# %bb.2:                                # %for.body
                                        #   in Loop: Header=BB31_1 Depth=1
	movslq	-4(%rbp), %rax
	movl	$-1, FirstMBInSlice(,%rax,4)
# %bb.3:                                # %for.inc
                                        #   in Loop: Header=BB31_1 Depth=1
	movl	-4(%rbp), %eax
	addl	$1, %eax
	movl	%eax, -4(%rbp)
	jmp	.LBB31_1
.LBB31_4:                               # %for.end
	movq	-16(%rbp), %rdi
	movq	-24(%rbp), %rsi
	callq	FmoGenerateMapUnitToSliceGroupMap
	movq	-16(%rbp), %rdi
	movq	-32(%rbp), %rsi
	callq	FmoGenerateMBAmap
	cmpl	$1152421512, -8(%rbp)   # imm = 0x44B08E88
	jne	.LBB31_6
.LBB31_5:
	xorl	%eax, %eax
	addq	$32, %rsp
	popq	%rbp
	.cfi_def_cfa %rsp, 8
	retq
.LBB31_6:                               # %func_exit
	.cfi_def_cfa %rbp, 16
	callq	detect_breach
	jmp	.LBB31_5
.Lfunc_end31:
	.size	FmoInit.11, .Lfunc_end31-FmoInit.11
	.cfi_endproc
                                        # -- End function
	.p2align	4, 0x90         # -- Begin function FmoGenerateMBAmap.12
	.type	FmoGenerateMBAmap.12,@function
FmoGenerateMBAmap.12:                   # @FmoGenerateMBAmap.12
	.cfi_startproc
# %bb.0:                                # %entry
	pushq	%rbp
	.cfi_def_cfa_offset 16
	.cfi_offset %rbp, -16
	movq	%rsp, %rbp
	.cfi_def_cfa_register %rbp
	subq	$32, %rsp
	movl	$1572614872, -20(%rbp)  # imm = 0x5DBC32D8
	movq	%rdi, -16(%rbp)
	movq	%rsi, -32(%rbp)
	cmpq	$0, MBAmap
	je	.LBB32_2
# %bb.1:                                # %if.then
	movq	MBAmap, %rdi
	callq	free
.LBB32_2:                               # %if.end
	movq	-16(%rbp), %rax
	movl	72484(%rax), %edi
	shlq	$0, %rdi
	callq	malloc
	movq	%rax, MBAmap
	cmpq	$0, %rax
	jne	.LBB32_4
# %bb.3:                                # %if.then2
	movq	-16(%rbp), %rax
	movl	72484(%rax), %esi
	shlq	$0, %rsi
	movabsq	$.L.str.3, %rdi
	movb	$0, %al
	callq	printf
	movl	$4294967295, %edi       # imm = 0xFFFFFFFF
	callq	exit
.LBB32_4:                               # %if.end7
	movq	-32(%rbp), %rax
	cmpl	$0, 1148(%rax)
	jne	.LBB32_6
# %bb.5:                                # %lor.lhs.false
	movq	-16(%rbp), %rax
	cmpl	$0, 72444(%rax)
	je	.LBB32_11
.LBB32_6:                               # %if.then10
	movl	$0, -4(%rbp)
.LBB32_7:                               # %for.cond
                                        # =>This Inner Loop Header: Depth=1
	movl	-4(%rbp), %eax
	movq	-16(%rbp), %rcx
	cmpl	72484(%rcx), %eax
	jae	.LBB32_10
# %bb.8:                                # %for.body
                                        #   in Loop: Header=BB32_7 Depth=1
	movq	MapUnitToSliceGroupMap, %rax
	movl	-4(%rbp), %ecx
	movb	(%rax,%rcx), %al
	movq	MBAmap, %rcx
	movl	-4(%rbp), %edx
	movb	%al, (%rcx,%rdx)
# %bb.9:                                # %for.inc
                                        #   in Loop: Header=BB32_7 Depth=1
	movl	-4(%rbp), %eax
	addl	$1, %eax
	movl	%eax, -4(%rbp)
	jmp	.LBB32_7
.LBB32_10:                              # %for.end
	jmp	.LBB32_24
.LBB32_11:                              # %if.else
	movq	-32(%rbp), %rax
	cmpl	$0, 1152(%rax)
	je	.LBB32_18
# %bb.12:                               # %land.lhs.true
	movq	-16(%rbp), %rax
	cmpl	$0, 72444(%rax)
	jne	.LBB32_18
# %bb.13:                               # %if.then19
	movl	$0, -4(%rbp)
.LBB32_14:                              # %for.cond20
                                        # =>This Inner Loop Header: Depth=1
	movl	-4(%rbp), %eax
	movq	-16(%rbp), %rcx
	cmpl	72484(%rcx), %eax
	jae	.LBB32_17
# %bb.15:                               # %for.body24
                                        #   in Loop: Header=BB32_14 Depth=1
	movq	MapUnitToSliceGroupMap, %rax
	movl	-4(%rbp), %ecx
	shrl	$1, %ecx
	movl	%ecx, %ecx
	movb	(%rax,%rcx), %al
	movq	MBAmap, %rcx
	movl	-4(%rbp), %edx
	movb	%al, (%rcx,%rdx)
# %bb.16:                               # %for.inc29
                                        #   in Loop: Header=BB32_14 Depth=1
	movl	-4(%rbp), %eax
	addl	$1, %eax
	movl	%eax, -4(%rbp)
	jmp	.LBB32_14
.LBB32_17:                              # %for.end31
	jmp	.LBB32_23
.LBB32_18:                              # %if.else32
	movl	$0, -4(%rbp)
.LBB32_19:                              # %for.cond33
                                        # =>This Inner Loop Header: Depth=1
	movl	-4(%rbp), %eax
	movq	-16(%rbp), %rcx
	cmpl	72484(%rcx), %eax
	jae	.LBB32_22
# %bb.20:                               # %for.body37
                                        #   in Loop: Header=BB32_19 Depth=1
	movq	MapUnitToSliceGroupMap, %rsi
	movl	-4(%rbp), %eax
	movq	-16(%rbp), %rcx
	movl	72468(%rcx), %ecx
	shll	$1, %ecx
	xorl	%edx, %edx
	divl	%ecx
	movl	%eax, %ecx
	movq	-16(%rbp), %rax
	imull	72468(%rax), %ecx
	movl	-4(%rbp), %eax
	movq	-16(%rbp), %rdi
	xorl	%edx, %edx
	divl	72468(%rdi)
	addl	%edx, %ecx
	movl	%ecx, %eax
	movb	(%rsi,%rax), %al
	movq	MBAmap, %rcx
	movl	-4(%rbp), %edx
	movb	%al, (%rcx,%rdx)
# %bb.21:                               # %for.inc47
                                        #   in Loop: Header=BB32_19 Depth=1
	movl	-4(%rbp), %eax
	addl	$1, %eax
	movl	%eax, -4(%rbp)
	jmp	.LBB32_19
.LBB32_22:                              # %for.end49
	jmp	.LBB32_23
.LBB32_23:                              # %if.end50
	jmp	.LBB32_24
.LBB32_24:                              # %if.end51
	cmpl	$1572614872, -20(%rbp)  # imm = 0x5DBC32D8
	jne	.LBB32_26
.LBB32_25:
	xorl	%eax, %eax
	addq	$32, %rsp
	popq	%rbp
	.cfi_def_cfa %rsp, 8
	retq
.LBB32_26:                              # %func_exit
	.cfi_def_cfa %rbp, 16
	callq	detect_breach
	jmp	.LBB32_25
.Lfunc_end32:
	.size	FmoGenerateMBAmap.12, .Lfunc_end32-FmoGenerateMBAmap.12
	.cfi_endproc
                                        # -- End function
	.p2align	4, 0x90         # -- Begin function FmoGenerateType0MapUnitMap.13
	.type	FmoGenerateType0MapUnitMap.13,@function
FmoGenerateType0MapUnitMap.13:          # @FmoGenerateType0MapUnitMap.13
	.cfi_startproc
# %bb.0:                                # %entry
	pushq	%rbp
	.cfi_def_cfa_offset 16
	.cfi_offset %rbp, -16
	movq	%rsp, %rbp
	.cfi_def_cfa_register %rbp
	subq	$48, %rsp
	movl	$84512451, -28(%rbp)    # imm = 0x5098EC3
	movq	%rdi, -40(%rbp)
	movq	%rsi, -24(%rbp)
	movl	$0, -4(%rbp)
.LBB33_1:                               # %do.body
                                        # =>This Loop Header: Depth=1
                                        #     Child Loop BB33_2 Depth 2
                                        #       Child Loop BB33_6 Depth 3
	movl	$0, -12(%rbp)
.LBB33_2:                               # %for.cond
                                        #   Parent Loop BB33_1 Depth=1
                                        # =>  This Loop Header: Depth=2
                                        #       Child Loop BB33_6 Depth 3
	xorl	%eax, %eax
	movl	-12(%rbp), %ecx
	movq	-24(%rbp), %rdx
	cmpl	60(%rdx), %ecx
	ja	.LBB33_4
# %bb.3:                                # %land.rhs
                                        #   in Loop: Header=BB33_2 Depth=2
	movl	-4(%rbp), %eax
	cmpl	PicSizeInMapUnits, %eax
	setb	%al
.LBB33_4:                               # %land.end
                                        #   in Loop: Header=BB33_2 Depth=2
	testb	$1, %al
	jne	.LBB33_5
	jmp	.LBB33_13
.LBB33_5:                               # %for.body
                                        #   in Loop: Header=BB33_2 Depth=2
	movl	$0, -8(%rbp)
.LBB33_6:                               # %for.cond2
                                        #   Parent Loop BB33_1 Depth=1
                                        #     Parent Loop BB33_2 Depth=2
                                        # =>    This Inner Loop Header: Depth=3
	xorl	%eax, %eax
	movl	-8(%rbp), %ecx
	movq	-24(%rbp), %rdx
	movl	-12(%rbp), %esi
	cmpl	68(%rdx,%rsi,4), %ecx
	ja	.LBB33_8
# %bb.7:                                # %land.rhs4
                                        #   in Loop: Header=BB33_6 Depth=3
	movl	-4(%rbp), %eax
	addl	-8(%rbp), %eax
	cmpl	PicSizeInMapUnits, %eax
	setb	%al
.LBB33_8:                               # %land.end6
                                        #   in Loop: Header=BB33_6 Depth=3
	testb	$1, %al
	jne	.LBB33_9
	jmp	.LBB33_11
.LBB33_9:                               # %for.body7
                                        #   in Loop: Header=BB33_6 Depth=3
	movl	-12(%rbp), %eax
	movq	MapUnitToSliceGroupMap, %rcx
	movl	-4(%rbp), %edx
	addl	-8(%rbp), %edx
	movl	%edx, %edx
	movb	%al, (%rcx,%rdx)
# %bb.10:                               # %for.inc
                                        #   in Loop: Header=BB33_6 Depth=3
	movl	-8(%rbp), %eax
	addl	$1, %eax
	movl	%eax, -8(%rbp)
	jmp	.LBB33_6
.LBB33_11:                              # %for.end
                                        #   in Loop: Header=BB33_2 Depth=2
	jmp	.LBB33_12
.LBB33_12:                              # %for.inc11
                                        #   in Loop: Header=BB33_2 Depth=2
	movq	-24(%rbp), %rax
	movl	-12(%rbp), %ecx
	movl	%ecx, %edx
	addl	$1, %edx
	movl	%edx, -12(%rbp)
	movl	%ecx, %ecx
	movl	68(%rax,%rcx,4), %eax
	addl	$1, %eax
	addl	-4(%rbp), %eax
	movl	%eax, -4(%rbp)
	jmp	.LBB33_2
.LBB33_13:                              # %for.end18
                                        #   in Loop: Header=BB33_1 Depth=1
	jmp	.LBB33_14
.LBB33_14:                              # %do.cond
                                        #   in Loop: Header=BB33_1 Depth=1
	movl	-4(%rbp), %eax
	cmpl	PicSizeInMapUnits, %eax
	jb	.LBB33_1
# %bb.15:                               # %do.end
	cmpl	$84512451, -28(%rbp)    # imm = 0x5098EC3
	jne	.LBB33_17
.LBB33_16:
	addq	$48, %rsp
	popq	%rbp
	.cfi_def_cfa %rsp, 8
	retq
.LBB33_17:                              # %func_exit
	.cfi_def_cfa %rbp, 16
	callq	detect_breach
	jmp	.LBB33_16
.Lfunc_end33:
	.size	FmoGenerateType0MapUnitMap.13, .Lfunc_end33-FmoGenerateType0MapUnitMap.13
	.cfi_endproc
                                        # -- End function
	.p2align	4, 0x90         # -- Begin function FmoGenerateType0MapUnitMap.14
	.type	FmoGenerateType0MapUnitMap.14,@function
FmoGenerateType0MapUnitMap.14:          # @FmoGenerateType0MapUnitMap.14
	.cfi_startproc
# %bb.0:                                # %entry
	pushq	%rbp
	.cfi_def_cfa_offset 16
	.cfi_offset %rbp, -16
	movq	%rsp, %rbp
	.cfi_def_cfa_register %rbp
	subq	$48, %rsp
	movl	$1200212705, -28(%rbp)  # imm = 0x4789CAE1
	movq	%rdi, -40(%rbp)
	movq	%rsi, -24(%rbp)
	movl	$0, -4(%rbp)
.LBB34_1:                               # %do.body
                                        # =>This Loop Header: Depth=1
                                        #     Child Loop BB34_2 Depth 2
                                        #       Child Loop BB34_6 Depth 3
	movl	$0, -12(%rbp)
.LBB34_2:                               # %for.cond
                                        #   Parent Loop BB34_1 Depth=1
                                        # =>  This Loop Header: Depth=2
                                        #       Child Loop BB34_6 Depth 3
	xorl	%eax, %eax
	movl	-12(%rbp), %ecx
	movq	-24(%rbp), %rdx
	cmpl	60(%rdx), %ecx
	ja	.LBB34_4
# %bb.3:                                # %land.rhs
                                        #   in Loop: Header=BB34_2 Depth=2
	movl	-4(%rbp), %eax
	cmpl	PicSizeInMapUnits, %eax
	setb	%al
.LBB34_4:                               # %land.end
                                        #   in Loop: Header=BB34_2 Depth=2
	testb	$1, %al
	jne	.LBB34_5
	jmp	.LBB34_13
.LBB34_5:                               # %for.body
                                        #   in Loop: Header=BB34_2 Depth=2
	movl	$0, -8(%rbp)
.LBB34_6:                               # %for.cond2
                                        #   Parent Loop BB34_1 Depth=1
                                        #     Parent Loop BB34_2 Depth=2
                                        # =>    This Inner Loop Header: Depth=3
	xorl	%eax, %eax
	movl	-8(%rbp), %ecx
	movq	-24(%rbp), %rdx
	movl	-12(%rbp), %esi
	cmpl	68(%rdx,%rsi,4), %ecx
	ja	.LBB34_8
# %bb.7:                                # %land.rhs4
                                        #   in Loop: Header=BB34_6 Depth=3
	movl	-4(%rbp), %eax
	addl	-8(%rbp), %eax
	cmpl	PicSizeInMapUnits, %eax
	setb	%al
.LBB34_8:                               # %land.end6
                                        #   in Loop: Header=BB34_6 Depth=3
	testb	$1, %al
	jne	.LBB34_9
	jmp	.LBB34_11
.LBB34_9:                               # %for.body7
                                        #   in Loop: Header=BB34_6 Depth=3
	movl	-12(%rbp), %eax
	movq	MapUnitToSliceGroupMap, %rcx
	movl	-4(%rbp), %edx
	addl	-8(%rbp), %edx
	movl	%edx, %edx
	movb	%al, (%rcx,%rdx)
# %bb.10:                               # %for.inc
                                        #   in Loop: Header=BB34_6 Depth=3
	movl	-8(%rbp), %eax
	addl	$1, %eax
	movl	%eax, -8(%rbp)
	jmp	.LBB34_6
.LBB34_11:                              # %for.end
                                        #   in Loop: Header=BB34_2 Depth=2
	jmp	.LBB34_12
.LBB34_12:                              # %for.inc11
                                        #   in Loop: Header=BB34_2 Depth=2
	movq	-24(%rbp), %rax
	movl	-12(%rbp), %ecx
	movl	%ecx, %edx
	addl	$1, %edx
	movl	%edx, -12(%rbp)
	movl	%ecx, %ecx
	movl	68(%rax,%rcx,4), %eax
	addl	$1, %eax
	addl	-4(%rbp), %eax
	movl	%eax, -4(%rbp)
	jmp	.LBB34_2
.LBB34_13:                              # %for.end18
                                        #   in Loop: Header=BB34_1 Depth=1
	jmp	.LBB34_14
.LBB34_14:                              # %do.cond
                                        #   in Loop: Header=BB34_1 Depth=1
	movl	-4(%rbp), %eax
	cmpl	PicSizeInMapUnits, %eax
	jb	.LBB34_1
# %bb.15:                               # %do.end
	cmpl	$1200212705, -28(%rbp)  # imm = 0x4789CAE1
	jne	.LBB34_17
.LBB34_16:
	addq	$48, %rsp
	popq	%rbp
	.cfi_def_cfa %rsp, 8
	retq
.LBB34_17:                              # %func_exit
	.cfi_def_cfa %rbp, 16
	callq	detect_breach
	jmp	.LBB34_16
.Lfunc_end34:
	.size	FmoGenerateType0MapUnitMap.14, .Lfunc_end34-FmoGenerateType0MapUnitMap.14
	.cfi_endproc
                                        # -- End function
	.globl	FmoGetPreviousMBNr.15   # -- Begin function FmoGetPreviousMBNr.15
	.p2align	4, 0x90
	.type	FmoGetPreviousMBNr.15,@function
FmoGetPreviousMBNr.15:                  # @FmoGetPreviousMBNr.15
	.cfi_startproc
# %bb.0:                                # %entry
	pushq	%rbp
	.cfi_def_cfa_offset 16
	.cfi_offset %rbp, -16
	movq	%rsp, %rbp
	.cfi_def_cfa_register %rbp
	pushq	%rbx
	subq	$24, %rsp
	.cfi_offset %rbx, -24
	movl	$1597274904, -20(%rbp)  # imm = 0x5F347B18
	movl	%edi, -12(%rbp)
	movl	-12(%rbp), %edi
	callq	FmoMB2SliceGroup
	movl	%eax, -24(%rbp)
	movl	-12(%rbp), %eax
	addl	$-1, %eax
	movl	%eax, -12(%rbp)
.LBB35_1:                               # %while.cond
                                        # =>This Inner Loop Header: Depth=1
	xorl	%eax, %eax
	cmpl	$0, -12(%rbp)
	jl	.LBB35_3
# %bb.2:                                # %land.rhs
                                        #   in Loop: Header=BB35_1 Depth=1
	movq	MBAmap, %rax
	movslq	-12(%rbp), %rcx
	movzbl	(%rax,%rcx), %eax
	cmpl	-24(%rbp), %eax
	setne	%al
.LBB35_3:                               # %land.end
                                        #   in Loop: Header=BB35_1 Depth=1
	testb	$1, %al
	jne	.LBB35_4
	jmp	.LBB35_5
.LBB35_4:                               # %while.body
                                        #   in Loop: Header=BB35_1 Depth=1
	movl	-12(%rbp), %eax
	addl	$-1, %eax
	movl	%eax, -12(%rbp)
	jmp	.LBB35_1
.LBB35_5:                               # %while.end
	cmpl	$0, -12(%rbp)
	jge	.LBB35_7
# %bb.6:                                # %if.then
	movl	$-1, -16(%rbp)
	jmp	.LBB35_8
.LBB35_7:                               # %if.else
	movl	-12(%rbp), %eax
	movl	%eax, -16(%rbp)
.LBB35_8:                               # %return
	movl	-16(%rbp), %ebx
	cmpl	$1597274904, -20(%rbp)  # imm = 0x5F347B18
	jne	.LBB35_10
.LBB35_9:
	movl	%ebx, %eax
	addq	$24, %rsp
	popq	%rbx
	popq	%rbp
	.cfi_def_cfa %rsp, 8
	retq
.LBB35_10:                              # %func_exit
	.cfi_def_cfa %rbp, 16
	callq	detect_breach
	jmp	.LBB35_9
.Lfunc_end35:
	.size	FmoGetPreviousMBNr.15, .Lfunc_end35-FmoGetPreviousMBNr.15
	.cfi_endproc
                                        # -- End function
	.p2align	4, 0x90         # -- Begin function FmoGenerateType2MapUnitMap.16
	.type	FmoGenerateType2MapUnitMap.16,@function
FmoGenerateType2MapUnitMap.16:          # @FmoGenerateType2MapUnitMap.16
	.cfi_startproc
# %bb.0:                                # %entry
	pushq	%rbp
	.cfi_def_cfa_offset 16
	.cfi_offset %rbp, -16
	movq	%rsp, %rbp
	.cfi_def_cfa_register %rbp
	subq	$64, %rsp
	movl	$1649476147, -44(%rbp)  # imm = 0x62510233
	movq	%rdi, -32(%rbp)
	movq	%rsi, -24(%rbp)
	movl	$0, -8(%rbp)
.LBB36_1:                               # %for.cond
                                        # =>This Inner Loop Header: Depth=1
	movl	-8(%rbp), %eax
	cmpl	PicSizeInMapUnits, %eax
	jae	.LBB36_4
# %bb.2:                                # %for.body
                                        #   in Loop: Header=BB36_1 Depth=1
	movq	-24(%rbp), %rax
	movl	60(%rax), %eax
	movq	MapUnitToSliceGroupMap, %rcx
	movl	-8(%rbp), %edx
	movb	%al, (%rcx,%rdx)
# %bb.3:                                # %for.inc
                                        #   in Loop: Header=BB36_1 Depth=1
	movl	-8(%rbp), %eax
	addl	$1, %eax
	movl	%eax, -8(%rbp)
	jmp	.LBB36_1
.LBB36_4:                               # %for.end
	movq	-24(%rbp), %rax
	movl	60(%rax), %eax
	subl	$1, %eax
	movl	%eax, -4(%rbp)
.LBB36_5:                               # %for.cond2
                                        # =>This Loop Header: Depth=1
                                        #     Child Loop BB36_7 Depth 2
                                        #       Child Loop BB36_9 Depth 3
	cmpl	$0, -4(%rbp)
	jl	.LBB36_16
# %bb.6:                                # %for.body5
                                        #   in Loop: Header=BB36_5 Depth=1
	movq	-24(%rbp), %rax
	movslq	-4(%rbp), %rcx
	movl	100(%rax,%rcx,4), %eax
	movq	-32(%rbp), %rcx
	xorl	%edx, %edx
	divl	72468(%rcx)
	movl	%eax, -40(%rbp)
	movq	-24(%rbp), %rax
	movslq	-4(%rbp), %rcx
	movl	100(%rax,%rcx,4), %eax
	movq	-32(%rbp), %rcx
	xorl	%edx, %edx
	divl	72468(%rcx)
	movl	%edx, -52(%rbp)
	movq	-24(%rbp), %rax
	movslq	-4(%rbp), %rcx
	movl	132(%rax,%rcx,4), %eax
	movq	-32(%rbp), %rcx
	xorl	%edx, %edx
	divl	72468(%rcx)
	movl	%eax, -48(%rbp)
	movq	-24(%rbp), %rax
	movslq	-4(%rbp), %rcx
	movl	132(%rax,%rcx,4), %eax
	movq	-32(%rbp), %rcx
	xorl	%edx, %edx
	divl	72468(%rcx)
	movl	%edx, -36(%rbp)
	movl	-40(%rbp), %eax
	movl	%eax, -16(%rbp)
.LBB36_7:                               # %for.cond21
                                        #   Parent Loop BB36_5 Depth=1
                                        # =>  This Loop Header: Depth=2
                                        #       Child Loop BB36_9 Depth 3
	movl	-16(%rbp), %eax
	cmpl	-48(%rbp), %eax
	ja	.LBB36_14
# %bb.8:                                # %for.body24
                                        #   in Loop: Header=BB36_7 Depth=2
	movl	-52(%rbp), %eax
	movl	%eax, -12(%rbp)
.LBB36_9:                               # %for.cond25
                                        #   Parent Loop BB36_5 Depth=1
                                        #     Parent Loop BB36_7 Depth=2
                                        # =>    This Inner Loop Header: Depth=3
	movl	-12(%rbp), %eax
	cmpl	-36(%rbp), %eax
	ja	.LBB36_12
# %bb.10:                               # %for.body28
                                        #   in Loop: Header=BB36_9 Depth=3
	movl	-4(%rbp), %eax
	movq	MapUnitToSliceGroupMap, %rcx
	movl	-16(%rbp), %edx
	movq	-32(%rbp), %rsi
	imull	72468(%rsi), %edx
	addl	-12(%rbp), %edx
	movl	%edx, %edx
	movb	%al, (%rcx,%rdx)
# %bb.11:                               # %for.inc33
                                        #   in Loop: Header=BB36_9 Depth=3
	movl	-12(%rbp), %eax
	addl	$1, %eax
	movl	%eax, -12(%rbp)
	jmp	.LBB36_9
.LBB36_12:                              # %for.end35
                                        #   in Loop: Header=BB36_7 Depth=2
	jmp	.LBB36_13
.LBB36_13:                              # %for.inc36
                                        #   in Loop: Header=BB36_7 Depth=2
	movl	-16(%rbp), %eax
	addl	$1, %eax
	movl	%eax, -16(%rbp)
	jmp	.LBB36_7
.LBB36_14:                              # %for.end38
                                        #   in Loop: Header=BB36_5 Depth=1
	jmp	.LBB36_15
.LBB36_15:                              # %for.inc39
                                        #   in Loop: Header=BB36_5 Depth=1
	movl	-4(%rbp), %eax
	addl	$-1, %eax
	movl	%eax, -4(%rbp)
	jmp	.LBB36_5
.LBB36_16:                              # %for.end40
	cmpl	$1649476147, -44(%rbp)  # imm = 0x62510233
	jne	.LBB36_18
.LBB36_17:
	addq	$64, %rsp
	popq	%rbp
	.cfi_def_cfa %rsp, 8
	retq
.LBB36_18:                              # %func_exit
	.cfi_def_cfa %rbp, 16
	callq	detect_breach
	jmp	.LBB36_17
.Lfunc_end36:
	.size	FmoGenerateType2MapUnitMap.16, .Lfunc_end36-FmoGenerateType2MapUnitMap.16
	.cfi_endproc
                                        # -- End function
	.p2align	4, 0x90         # -- Begin function FmoGenerateMapUnitToSliceGroupMap.17
	.type	FmoGenerateMapUnitToSliceGroupMap.17,@function
FmoGenerateMapUnitToSliceGroupMap.17:   # @FmoGenerateMapUnitToSliceGroupMap.17
	.cfi_startproc
# %bb.0:                                # %entry
	pushq	%rbp
	.cfi_def_cfa_offset 16
	.cfi_offset %rbp, -16
	movq	%rsp, %rbp
	.cfi_def_cfa_register %rbp
	pushq	%rbx
	subq	$24, %rsp
	.cfi_offset %rbx, -24
	movl	$309167380, -32(%rbp)   # imm = 0x126D8514
	movq	%rdi, -24(%rbp)
	movq	%rsi, -16(%rbp)
	movq	-24(%rbp), %rax
	movl	72472(%rax), %eax
	movq	-24(%rbp), %rcx
	imull	72468(%rcx), %eax
	movl	%eax, PicSizeInMapUnits
	movq	-16(%rbp), %rax
	cmpl	$6, 64(%rax)
	jne	.LBB37_4
# %bb.1:                                # %if.then
	movq	-16(%rbp), %rax
	movl	172(%rax), %eax
	addl	$1, %eax
	cmpl	PicSizeInMapUnits, %eax
	je	.LBB37_3
# %bb.2:                                # %if.then2
	movabsq	$.L.str, %rdi
	movl	$500, %esi              # imm = 0x1F4
	callq	error
.LBB37_3:                               # %if.end
	jmp	.LBB37_4
.LBB37_4:                               # %if.end3
	cmpq	$0, MapUnitToSliceGroupMap
	je	.LBB37_6
# %bb.5:                                # %if.then4
	movq	MapUnitToSliceGroupMap, %rdi
	callq	free
.LBB37_6:                               # %if.end5
	movl	PicSizeInMapUnits, %edi
	shlq	$0, %rdi
	callq	malloc
	movq	%rax, MapUnitToSliceGroupMap
	cmpq	$0, %rax
	jne	.LBB37_8
# %bb.7:                                # %if.then9
	movl	PicSizeInMapUnits, %esi
	shlq	$0, %rsi
	movabsq	$.L.str.1, %rdi
	movb	$0, %al
	callq	printf
	movl	$4294967295, %edi       # imm = 0xFFFFFFFF
	callq	exit
.LBB37_8:                               # %if.end13
	movq	-16(%rbp), %rax
	cmpl	$0, 60(%rax)
	jne	.LBB37_10
# %bb.9:                                # %if.then16
	movq	MapUnitToSliceGroupMap, %rdi
	movl	PicSizeInMapUnits, %edx
	shlq	$0, %rdx
	xorl	%esi, %esi
	callq	memset
	movl	$0, -28(%rbp)
	jmp	.LBB37_21
.LBB37_10:                              # %if.end19
	movq	-16(%rbp), %rax
	movl	64(%rax), %eax
	movq	%rax, %rcx
	subq	$6, %rcx
	ja	.LBB37_19
# %bb.11:                               # %if.end19
	movq	.LJTI37_0(,%rax,8), %rax
	jmpq	*%rax
.LBB37_12:                              # %sw.bb
	movq	-24(%rbp), %rdi
	movq	-16(%rbp), %rsi
	callq	FmoGenerateType0MapUnitMap
	jmp	.LBB37_20
.LBB37_13:                              # %sw.bb21
	movq	-24(%rbp), %rdi
	movq	-16(%rbp), %rsi
	callq	FmoGenerateType1MapUnitMap
	jmp	.LBB37_20
.LBB37_14:                              # %sw.bb22
	movq	-24(%rbp), %rdi
	movq	-16(%rbp), %rsi
	callq	FmoGenerateType2MapUnitMap
	jmp	.LBB37_20
.LBB37_15:                              # %sw.bb23
	movq	-24(%rbp), %rdi
	movq	-16(%rbp), %rsi
	callq	FmoGenerateType3MapUnitMap
	jmp	.LBB37_20
.LBB37_16:                              # %sw.bb24
	movq	-24(%rbp), %rdi
	movq	-16(%rbp), %rsi
	callq	FmoGenerateType4MapUnitMap
	jmp	.LBB37_20
.LBB37_17:                              # %sw.bb25
	movq	-24(%rbp), %rdi
	movq	-16(%rbp), %rsi
	callq	FmoGenerateType5MapUnitMap
	jmp	.LBB37_20
.LBB37_18:                              # %sw.bb26
	movq	-24(%rbp), %rdi
	movq	-16(%rbp), %rsi
	callq	FmoGenerateType6MapUnitMap
	jmp	.LBB37_20
.LBB37_19:                              # %sw.default
	movq	-16(%rbp), %rax
	movl	64(%rax), %esi
	movabsq	$.L.str.2, %rdi
	movb	$0, %al
	callq	printf
	movl	$4294967295, %edi       # imm = 0xFFFFFFFF
	callq	exit
.LBB37_20:                              # %sw.epilog
	movl	$0, -28(%rbp)
.LBB37_21:                              # %return
	movl	-28(%rbp), %ebx
	cmpl	$309167380, -32(%rbp)   # imm = 0x126D8514
	jne	.LBB37_23
.LBB37_22:
	movl	%ebx, %eax
	addq	$24, %rsp
	popq	%rbx
	popq	%rbp
	.cfi_def_cfa %rsp, 8
	retq
.LBB37_23:                              # %func_exit
	.cfi_def_cfa %rbp, 16
	callq	detect_breach
	jmp	.LBB37_22
.Lfunc_end37:
	.size	FmoGenerateMapUnitToSliceGroupMap.17, .Lfunc_end37-FmoGenerateMapUnitToSliceGroupMap.17
	.cfi_endproc
	.section	.rodata,"a",@progbits
	.p2align	3
.LJTI37_0:
	.quad	.LBB37_12
	.quad	.LBB37_13
	.quad	.LBB37_14
	.quad	.LBB37_15
	.quad	.LBB37_16
	.quad	.LBB37_17
	.quad	.LBB37_18
                                        # -- End function
	.text
	.p2align	4, 0x90         # -- Begin function FmoGenerateType6MapUnitMap.18
	.type	FmoGenerateType6MapUnitMap.18,@function
FmoGenerateType6MapUnitMap.18:          # @FmoGenerateType6MapUnitMap.18
	.cfi_startproc
# %bb.0:                                # %entry
	pushq	%rbp
	.cfi_def_cfa_offset 16
	.cfi_offset %rbp, -16
	movq	%rsp, %rbp
	.cfi_def_cfa_register %rbp
	subq	$32, %rsp
	movl	$874523509, -8(%rbp)    # imm = 0x34202B75
	movq	%rdi, -24(%rbp)
	movq	%rsi, -16(%rbp)
	movl	$0, -4(%rbp)
.LBB38_1:                               # %for.cond
                                        # =>This Inner Loop Header: Depth=1
	movl	-4(%rbp), %eax
	cmpl	PicSizeInMapUnits, %eax
	jae	.LBB38_4
# %bb.2:                                # %for.body
                                        #   in Loop: Header=BB38_1 Depth=1
	movq	-16(%rbp), %rax
	movq	176(%rax), %rax
	movl	-4(%rbp), %ecx
	movb	(%rax,%rcx), %al
	movq	MapUnitToSliceGroupMap, %rcx
	movl	-4(%rbp), %edx
	movb	%al, (%rcx,%rdx)
# %bb.3:                                # %for.inc
                                        #   in Loop: Header=BB38_1 Depth=1
	movl	-4(%rbp), %eax
	addl	$1, %eax
	movl	%eax, -4(%rbp)
	jmp	.LBB38_1
.LBB38_4:                               # %for.end
	cmpl	$874523509, -8(%rbp)    # imm = 0x34202B75
	jne	.LBB38_6
.LBB38_5:
	addq	$32, %rsp
	popq	%rbp
	.cfi_def_cfa %rsp, 8
	retq
.LBB38_6:                               # %func_exit
	.cfi_def_cfa %rbp, 16
	callq	detect_breach
	jmp	.LBB38_5
.Lfunc_end38:
	.size	FmoGenerateType6MapUnitMap.18, .Lfunc_end38-FmoGenerateType6MapUnitMap.18
	.cfi_endproc
                                        # -- End function
	.p2align	4, 0x90         # -- Begin function FmoGenerateType2MapUnitMap.19
	.type	FmoGenerateType2MapUnitMap.19,@function
FmoGenerateType2MapUnitMap.19:          # @FmoGenerateType2MapUnitMap.19
	.cfi_startproc
# %bb.0:                                # %entry
	pushq	%rbp
	.cfi_def_cfa_offset 16
	.cfi_offset %rbp, -16
	movq	%rsp, %rbp
	.cfi_def_cfa_register %rbp
	subq	$64, %rsp
	movl	$2070354220, -40(%rbp)  # imm = 0x7B67192C
	movq	%rdi, -32(%rbp)
	movq	%rsi, -24(%rbp)
	movl	$0, -12(%rbp)
.LBB39_1:                               # %for.cond
                                        # =>This Inner Loop Header: Depth=1
	movl	-12(%rbp), %eax
	cmpl	PicSizeInMapUnits, %eax
	jae	.LBB39_4
# %bb.2:                                # %for.body
                                        #   in Loop: Header=BB39_1 Depth=1
	movq	-24(%rbp), %rax
	movl	60(%rax), %eax
	movq	MapUnitToSliceGroupMap, %rcx
	movl	-12(%rbp), %edx
	movb	%al, (%rcx,%rdx)
# %bb.3:                                # %for.inc
                                        #   in Loop: Header=BB39_1 Depth=1
	movl	-12(%rbp), %eax
	addl	$1, %eax
	movl	%eax, -12(%rbp)
	jmp	.LBB39_1
.LBB39_4:                               # %for.end
	movq	-24(%rbp), %rax
	movl	60(%rax), %eax
	subl	$1, %eax
	movl	%eax, -4(%rbp)
.LBB39_5:                               # %for.cond2
                                        # =>This Loop Header: Depth=1
                                        #     Child Loop BB39_7 Depth 2
                                        #       Child Loop BB39_9 Depth 3
	cmpl	$0, -4(%rbp)
	jl	.LBB39_16
# %bb.6:                                # %for.body5
                                        #   in Loop: Header=BB39_5 Depth=1
	movq	-24(%rbp), %rax
	movslq	-4(%rbp), %rcx
	movl	100(%rax,%rcx,4), %eax
	movq	-32(%rbp), %rcx
	xorl	%edx, %edx
	divl	72468(%rcx)
	movl	%eax, -36(%rbp)
	movq	-24(%rbp), %rax
	movslq	-4(%rbp), %rcx
	movl	100(%rax,%rcx,4), %eax
	movq	-32(%rbp), %rcx
	xorl	%edx, %edx
	divl	72468(%rcx)
	movl	%edx, -52(%rbp)
	movq	-24(%rbp), %rax
	movslq	-4(%rbp), %rcx
	movl	132(%rax,%rcx,4), %eax
	movq	-32(%rbp), %rcx
	xorl	%edx, %edx
	divl	72468(%rcx)
	movl	%eax, -44(%rbp)
	movq	-24(%rbp), %rax
	movslq	-4(%rbp), %rcx
	movl	132(%rax,%rcx,4), %eax
	movq	-32(%rbp), %rcx
	xorl	%edx, %edx
	divl	72468(%rcx)
	movl	%edx, -48(%rbp)
	movl	-36(%rbp), %eax
	movl	%eax, -8(%rbp)
.LBB39_7:                               # %for.cond21
                                        #   Parent Loop BB39_5 Depth=1
                                        # =>  This Loop Header: Depth=2
                                        #       Child Loop BB39_9 Depth 3
	movl	-8(%rbp), %eax
	cmpl	-44(%rbp), %eax
	ja	.LBB39_14
# %bb.8:                                # %for.body24
                                        #   in Loop: Header=BB39_7 Depth=2
	movl	-52(%rbp), %eax
	movl	%eax, -16(%rbp)
.LBB39_9:                               # %for.cond25
                                        #   Parent Loop BB39_5 Depth=1
                                        #     Parent Loop BB39_7 Depth=2
                                        # =>    This Inner Loop Header: Depth=3
	movl	-16(%rbp), %eax
	cmpl	-48(%rbp), %eax
	ja	.LBB39_12
# %bb.10:                               # %for.body28
                                        #   in Loop: Header=BB39_9 Depth=3
	movl	-4(%rbp), %eax
	movq	MapUnitToSliceGroupMap, %rcx
	movl	-8(%rbp), %edx
	movq	-32(%rbp), %rsi
	imull	72468(%rsi), %edx
	addl	-16(%rbp), %edx
	movl	%edx, %edx
	movb	%al, (%rcx,%rdx)
# %bb.11:                               # %for.inc33
                                        #   in Loop: Header=BB39_9 Depth=3
	movl	-16(%rbp), %eax
	addl	$1, %eax
	movl	%eax, -16(%rbp)
	jmp	.LBB39_9
.LBB39_12:                              # %for.end35
                                        #   in Loop: Header=BB39_7 Depth=2
	jmp	.LBB39_13
.LBB39_13:                              # %for.inc36
                                        #   in Loop: Header=BB39_7 Depth=2
	movl	-8(%rbp), %eax
	addl	$1, %eax
	movl	%eax, -8(%rbp)
	jmp	.LBB39_7
.LBB39_14:                              # %for.end38
                                        #   in Loop: Header=BB39_5 Depth=1
	jmp	.LBB39_15
.LBB39_15:                              # %for.inc39
                                        #   in Loop: Header=BB39_5 Depth=1
	movl	-4(%rbp), %eax
	addl	$-1, %eax
	movl	%eax, -4(%rbp)
	jmp	.LBB39_5
.LBB39_16:                              # %for.end40
	cmpl	$2070354220, -40(%rbp)  # imm = 0x7B67192C
	jne	.LBB39_18
.LBB39_17:
	addq	$64, %rsp
	popq	%rbp
	.cfi_def_cfa %rsp, 8
	retq
.LBB39_18:                              # %func_exit
	.cfi_def_cfa %rbp, 16
	callq	detect_breach
	jmp	.LBB39_17
.Lfunc_end39:
	.size	FmoGenerateType2MapUnitMap.19, .Lfunc_end39-FmoGenerateType2MapUnitMap.19
	.cfi_endproc
                                        # -- End function
	.p2align	4, 0x90         # -- Begin function FmoGenerateType1MapUnitMap.20
	.type	FmoGenerateType1MapUnitMap.20,@function
FmoGenerateType1MapUnitMap.20:          # @FmoGenerateType1MapUnitMap.20
	.cfi_startproc
# %bb.0:                                # %entry
	pushq	%rbp
	.cfi_def_cfa_offset 16
	.cfi_offset %rbp, -16
	movq	%rsp, %rbp
	.cfi_def_cfa_register %rbp
	subq	$32, %rsp
	movl	$302719797, -8(%rbp)    # imm = 0x120B2335
	movq	%rdi, -24(%rbp)
	movq	%rsi, -16(%rbp)
	movl	$0, -4(%rbp)
.LBB40_1:                               # %for.cond
                                        # =>This Inner Loop Header: Depth=1
	movl	-4(%rbp), %eax
	cmpl	PicSizeInMapUnits, %eax
	jae	.LBB40_4
# %bb.2:                                # %for.body
                                        #   in Loop: Header=BB40_1 Depth=1
	movl	-4(%rbp), %eax
	movq	-24(%rbp), %rcx
	xorl	%edx, %edx
	divl	72468(%rcx)
	movl	%edx, %ecx
	movl	-4(%rbp), %eax
	movq	-24(%rbp), %rsi
	xorl	%edx, %edx
	divl	72468(%rsi)
	movq	-16(%rbp), %rdx
	movl	60(%rdx), %edx
	addl	$1, %edx
	imull	%edx, %eax
	shrl	$1, %eax
	addl	%eax, %ecx
	movq	-16(%rbp), %rax
	movl	60(%rax), %esi
	addl	$1, %esi
	movl	%ecx, %eax
	xorl	%edx, %edx
	divl	%esi
	movq	MapUnitToSliceGroupMap, %rax
	movl	-4(%rbp), %ecx
	movb	%dl, (%rax,%rcx)
# %bb.3:                                # %for.inc
                                        #   in Loop: Header=BB40_1 Depth=1
	movl	-4(%rbp), %eax
	addl	$1, %eax
	movl	%eax, -4(%rbp)
	jmp	.LBB40_1
.LBB40_4:                               # %for.end
	cmpl	$302719797, -8(%rbp)    # imm = 0x120B2335
	jne	.LBB40_6
.LBB40_5:
	addq	$32, %rsp
	popq	%rbp
	.cfi_def_cfa %rsp, 8
	retq
.LBB40_6:                               # %func_exit
	.cfi_def_cfa %rbp, 16
	callq	detect_breach
	jmp	.LBB40_5
.Lfunc_end40:
	.size	FmoGenerateType1MapUnitMap.20, .Lfunc_end40-FmoGenerateType1MapUnitMap.20
	.cfi_endproc
                                        # -- End function
	.p2align	4, 0x90         # -- Begin function FmoGenerateType1MapUnitMap.21
	.type	FmoGenerateType1MapUnitMap.21,@function
FmoGenerateType1MapUnitMap.21:          # @FmoGenerateType1MapUnitMap.21
	.cfi_startproc
# %bb.0:                                # %entry
	pushq	%rbp
	.cfi_def_cfa_offset 16
	.cfi_offset %rbp, -16
	movq	%rsp, %rbp
	.cfi_def_cfa_register %rbp
	subq	$32, %rsp
	movl	$723145430, -8(%rbp)    # imm = 0x2B1A52D6
	movq	%rdi, -16(%rbp)
	movq	%rsi, -24(%rbp)
	movl	$0, -4(%rbp)
.LBB41_1:                               # %for.cond
                                        # =>This Inner Loop Header: Depth=1
	movl	-4(%rbp), %eax
	cmpl	PicSizeInMapUnits, %eax
	jae	.LBB41_4
# %bb.2:                                # %for.body
                                        #   in Loop: Header=BB41_1 Depth=1
	movl	-4(%rbp), %eax
	movq	-16(%rbp), %rcx
	xorl	%edx, %edx
	divl	72468(%rcx)
	movl	%edx, %ecx
	movl	-4(%rbp), %eax
	movq	-16(%rbp), %rsi
	xorl	%edx, %edx
	divl	72468(%rsi)
	movq	-24(%rbp), %rdx
	movl	60(%rdx), %edx
	addl	$1, %edx
	imull	%edx, %eax
	shrl	$1, %eax
	addl	%eax, %ecx
	movq	-24(%rbp), %rax
	movl	60(%rax), %esi
	addl	$1, %esi
	movl	%ecx, %eax
	xorl	%edx, %edx
	divl	%esi
	movq	MapUnitToSliceGroupMap, %rax
	movl	-4(%rbp), %ecx
	movb	%dl, (%rax,%rcx)
# %bb.3:                                # %for.inc
                                        #   in Loop: Header=BB41_1 Depth=1
	movl	-4(%rbp), %eax
	addl	$1, %eax
	movl	%eax, -4(%rbp)
	jmp	.LBB41_1
.LBB41_4:                               # %for.end
	cmpl	$723145430, -8(%rbp)    # imm = 0x2B1A52D6
	jne	.LBB41_6
.LBB41_5:
	addq	$32, %rsp
	popq	%rbp
	.cfi_def_cfa %rsp, 8
	retq
.LBB41_6:                               # %func_exit
	.cfi_def_cfa %rbp, 16
	callq	detect_breach
	jmp	.LBB41_5
.Lfunc_end41:
	.size	FmoGenerateType1MapUnitMap.21, .Lfunc_end41-FmoGenerateType1MapUnitMap.21
	.cfi_endproc
                                        # -- End function
	.globl	FmoSetLastMacroblockInSlice.22 # -- Begin function FmoSetLastMacroblockInSlice.22
	.p2align	4, 0x90
	.type	FmoSetLastMacroblockInSlice.22,@function
FmoSetLastMacroblockInSlice.22:         # @FmoSetLastMacroblockInSlice.22
	.cfi_startproc
# %bb.0:                                # %entry
	pushq	%rbp
	.cfi_def_cfa_offset 16
	.cfi_offset %rbp, -16
	movq	%rsp, %rbp
	.cfi_def_cfa_register %rbp
	subq	$16, %rsp
	movl	$1863041818, -12(%rbp)  # imm = 0x6F0BC31A
	movl	%edi, -4(%rbp)
	movl	-4(%rbp), %edi
	callq	FmoMB2SliceGroup
	movl	%eax, -8(%rbp)
	movl	-4(%rbp), %edi
	callq	FmoGetNextMBNr
	movl	%eax, -4(%rbp)
	movl	-4(%rbp), %eax
	movslq	-8(%rbp), %rcx
	movl	%eax, FirstMBInSlice(,%rcx,4)
	cmpl	$1863041818, -12(%rbp)  # imm = 0x6F0BC31A
	jne	.LBB42_2
.LBB42_1:
	addq	$16, %rsp
	popq	%rbp
	.cfi_def_cfa %rsp, 8
	retq
.LBB42_2:                               # %func_exit
	.cfi_def_cfa %rbp, 16
	callq	detect_breach
	jmp	.LBB42_1
.Lfunc_end42:
	.size	FmoSetLastMacroblockInSlice.22, .Lfunc_end42-FmoSetLastMacroblockInSlice.22
	.cfi_endproc
                                        # -- End function
	.p2align	4, 0x90         # -- Begin function FmoGenerateType1MapUnitMap.23
	.type	FmoGenerateType1MapUnitMap.23,@function
FmoGenerateType1MapUnitMap.23:          # @FmoGenerateType1MapUnitMap.23
	.cfi_startproc
# %bb.0:                                # %entry
	pushq	%rbp
	.cfi_def_cfa_offset 16
	.cfi_offset %rbp, -16
	movq	%rsp, %rbp
	.cfi_def_cfa_register %rbp
	subq	$32, %rsp
	movl	$603659211, -8(%rbp)    # imm = 0x23FB1BCB
	movq	%rdi, -24(%rbp)
	movq	%rsi, -16(%rbp)
	movl	$0, -4(%rbp)
.LBB43_1:                               # %for.cond
                                        # =>This Inner Loop Header: Depth=1
	movl	-4(%rbp), %eax
	cmpl	PicSizeInMapUnits, %eax
	jae	.LBB43_4
# %bb.2:                                # %for.body
                                        #   in Loop: Header=BB43_1 Depth=1
	movl	-4(%rbp), %eax
	movq	-24(%rbp), %rcx
	xorl	%edx, %edx
	divl	72468(%rcx)
	movl	%edx, %ecx
	movl	-4(%rbp), %eax
	movq	-24(%rbp), %rsi
	xorl	%edx, %edx
	divl	72468(%rsi)
	movq	-16(%rbp), %rdx
	movl	60(%rdx), %edx
	addl	$1, %edx
	imull	%edx, %eax
	shrl	$1, %eax
	addl	%eax, %ecx
	movq	-16(%rbp), %rax
	movl	60(%rax), %esi
	addl	$1, %esi
	movl	%ecx, %eax
	xorl	%edx, %edx
	divl	%esi
	movq	MapUnitToSliceGroupMap, %rax
	movl	-4(%rbp), %ecx
	movb	%dl, (%rax,%rcx)
# %bb.3:                                # %for.inc
                                        #   in Loop: Header=BB43_1 Depth=1
	movl	-4(%rbp), %eax
	addl	$1, %eax
	movl	%eax, -4(%rbp)
	jmp	.LBB43_1
.LBB43_4:                               # %for.end
	cmpl	$603659211, -8(%rbp)    # imm = 0x23FB1BCB
	jne	.LBB43_6
.LBB43_5:
	addq	$32, %rsp
	popq	%rbp
	.cfi_def_cfa %rsp, 8
	retq
.LBB43_6:                               # %func_exit
	.cfi_def_cfa %rbp, 16
	callq	detect_breach
	jmp	.LBB43_5
.Lfunc_end43:
	.size	FmoGenerateType1MapUnitMap.23, .Lfunc_end43-FmoGenerateType1MapUnitMap.23
	.cfi_endproc
                                        # -- End function
	.p2align	4, 0x90         # -- Begin function FmoGenerateType6MapUnitMap.24
	.type	FmoGenerateType6MapUnitMap.24,@function
FmoGenerateType6MapUnitMap.24:          # @FmoGenerateType6MapUnitMap.24
	.cfi_startproc
# %bb.0:                                # %entry
	pushq	%rbp
	.cfi_def_cfa_offset 16
	.cfi_offset %rbp, -16
	movq	%rsp, %rbp
	.cfi_def_cfa_register %rbp
	subq	$32, %rsp
	movl	$1897998115, -8(%rbp)   # imm = 0x71212723
	movq	%rdi, -24(%rbp)
	movq	%rsi, -16(%rbp)
	movl	$0, -4(%rbp)
.LBB44_1:                               # %for.cond
                                        # =>This Inner Loop Header: Depth=1
	movl	-4(%rbp), %eax
	cmpl	PicSizeInMapUnits, %eax
	jae	.LBB44_4
# %bb.2:                                # %for.body
                                        #   in Loop: Header=BB44_1 Depth=1
	movq	-16(%rbp), %rax
	movq	176(%rax), %rax
	movl	-4(%rbp), %ecx
	movb	(%rax,%rcx), %al
	movq	MapUnitToSliceGroupMap, %rcx
	movl	-4(%rbp), %edx
	movb	%al, (%rcx,%rdx)
# %bb.3:                                # %for.inc
                                        #   in Loop: Header=BB44_1 Depth=1
	movl	-4(%rbp), %eax
	addl	$1, %eax
	movl	%eax, -4(%rbp)
	jmp	.LBB44_1
.LBB44_4:                               # %for.end
	cmpl	$1897998115, -8(%rbp)   # imm = 0x71212723
	jne	.LBB44_6
.LBB44_5:
	addq	$32, %rsp
	popq	%rbp
	.cfi_def_cfa %rsp, 8
	retq
.LBB44_6:                               # %func_exit
	.cfi_def_cfa %rbp, 16
	callq	detect_breach
	jmp	.LBB44_5
.Lfunc_end44:
	.size	FmoGenerateType6MapUnitMap.24, .Lfunc_end44-FmoGenerateType6MapUnitMap.24
	.cfi_endproc
                                        # -- End function
	.p2align	4, 0x90         # -- Begin function FmoGenerateMapUnitToSliceGroupMap.25
	.type	FmoGenerateMapUnitToSliceGroupMap.25,@function
FmoGenerateMapUnitToSliceGroupMap.25:   # @FmoGenerateMapUnitToSliceGroupMap.25
	.cfi_startproc
# %bb.0:                                # %entry
	pushq	%rbp
	.cfi_def_cfa_offset 16
	.cfi_offset %rbp, -16
	movq	%rsp, %rbp
	.cfi_def_cfa_register %rbp
	pushq	%rbx
	subq	$24, %rsp
	.cfi_offset %rbx, -24
	movl	$2107177284, -32(%rbp)  # imm = 0x7D98F944
	movq	%rdi, -24(%rbp)
	movq	%rsi, -16(%rbp)
	movq	-24(%rbp), %rax
	movl	72472(%rax), %eax
	movq	-24(%rbp), %rcx
	imull	72468(%rcx), %eax
	movl	%eax, PicSizeInMapUnits
	movq	-16(%rbp), %rax
	cmpl	$6, 64(%rax)
	jne	.LBB45_4
# %bb.1:                                # %if.then
	movq	-16(%rbp), %rax
	movl	172(%rax), %eax
	addl	$1, %eax
	cmpl	PicSizeInMapUnits, %eax
	je	.LBB45_3
# %bb.2:                                # %if.then2
	movabsq	$.L.str, %rdi
	movl	$500, %esi              # imm = 0x1F4
	callq	error
.LBB45_3:                               # %if.end
	jmp	.LBB45_4
.LBB45_4:                               # %if.end3
	cmpq	$0, MapUnitToSliceGroupMap
	je	.LBB45_6
# %bb.5:                                # %if.then4
	movq	MapUnitToSliceGroupMap, %rdi
	callq	free
.LBB45_6:                               # %if.end5
	movl	PicSizeInMapUnits, %edi
	shlq	$0, %rdi
	callq	malloc
	movq	%rax, MapUnitToSliceGroupMap
	cmpq	$0, %rax
	jne	.LBB45_8
# %bb.7:                                # %if.then9
	movl	PicSizeInMapUnits, %esi
	shlq	$0, %rsi
	movabsq	$.L.str.1, %rdi
	movb	$0, %al
	callq	printf
	movl	$4294967295, %edi       # imm = 0xFFFFFFFF
	callq	exit
.LBB45_8:                               # %if.end13
	movq	-16(%rbp), %rax
	cmpl	$0, 60(%rax)
	jne	.LBB45_10
# %bb.9:                                # %if.then16
	movq	MapUnitToSliceGroupMap, %rdi
	movl	PicSizeInMapUnits, %edx
	shlq	$0, %rdx
	xorl	%esi, %esi
	callq	memset
	movl	$0, -28(%rbp)
	jmp	.LBB45_21
.LBB45_10:                              # %if.end19
	movq	-16(%rbp), %rax
	movl	64(%rax), %eax
	movq	%rax, %rcx
	subq	$6, %rcx
	ja	.LBB45_19
# %bb.11:                               # %if.end19
	movq	.LJTI45_0(,%rax,8), %rax
	jmpq	*%rax
.LBB45_12:                              # %sw.bb
	movq	-24(%rbp), %rdi
	movq	-16(%rbp), %rsi
	callq	FmoGenerateType0MapUnitMap
	jmp	.LBB45_20
.LBB45_13:                              # %sw.bb21
	movq	-24(%rbp), %rdi
	movq	-16(%rbp), %rsi
	callq	FmoGenerateType1MapUnitMap
	jmp	.LBB45_20
.LBB45_14:                              # %sw.bb22
	movq	-24(%rbp), %rdi
	movq	-16(%rbp), %rsi
	callq	FmoGenerateType2MapUnitMap
	jmp	.LBB45_20
.LBB45_15:                              # %sw.bb23
	movq	-24(%rbp), %rdi
	movq	-16(%rbp), %rsi
	callq	FmoGenerateType3MapUnitMap
	jmp	.LBB45_20
.LBB45_16:                              # %sw.bb24
	movq	-24(%rbp), %rdi
	movq	-16(%rbp), %rsi
	callq	FmoGenerateType4MapUnitMap
	jmp	.LBB45_20
.LBB45_17:                              # %sw.bb25
	movq	-24(%rbp), %rdi
	movq	-16(%rbp), %rsi
	callq	FmoGenerateType5MapUnitMap
	jmp	.LBB45_20
.LBB45_18:                              # %sw.bb26
	movq	-24(%rbp), %rdi
	movq	-16(%rbp), %rsi
	callq	FmoGenerateType6MapUnitMap
	jmp	.LBB45_20
.LBB45_19:                              # %sw.default
	movq	-16(%rbp), %rax
	movl	64(%rax), %esi
	movabsq	$.L.str.2, %rdi
	movb	$0, %al
	callq	printf
	movl	$4294967295, %edi       # imm = 0xFFFFFFFF
	callq	exit
.LBB45_20:                              # %sw.epilog
	movl	$0, -28(%rbp)
.LBB45_21:                              # %return
	movl	-28(%rbp), %ebx
	cmpl	$2107177284, -32(%rbp)  # imm = 0x7D98F944
	jne	.LBB45_23
.LBB45_22:
	movl	%ebx, %eax
	addq	$24, %rsp
	popq	%rbx
	popq	%rbp
	.cfi_def_cfa %rsp, 8
	retq
.LBB45_23:                              # %func_exit
	.cfi_def_cfa %rbp, 16
	callq	detect_breach
	jmp	.LBB45_22
.Lfunc_end45:
	.size	FmoGenerateMapUnitToSliceGroupMap.25, .Lfunc_end45-FmoGenerateMapUnitToSliceGroupMap.25
	.cfi_endproc
	.section	.rodata,"a",@progbits
	.p2align	3
.LJTI45_0:
	.quad	.LBB45_12
	.quad	.LBB45_13
	.quad	.LBB45_14
	.quad	.LBB45_15
	.quad	.LBB45_16
	.quad	.LBB45_17
	.quad	.LBB45_18
                                        # -- End function
	.text
	.p2align	4, 0x90         # -- Begin function FmoGenerateMapUnitToSliceGroupMap.26
	.type	FmoGenerateMapUnitToSliceGroupMap.26,@function
FmoGenerateMapUnitToSliceGroupMap.26:   # @FmoGenerateMapUnitToSliceGroupMap.26
	.cfi_startproc
# %bb.0:                                # %entry
	pushq	%rbp
	.cfi_def_cfa_offset 16
	.cfi_offset %rbp, -16
	movq	%rsp, %rbp
	.cfi_def_cfa_register %rbp
	pushq	%rbx
	subq	$24, %rsp
	.cfi_offset %rbx, -24
	movl	$850356741, -32(%rbp)   # imm = 0x32AF6A05
	movq	%rdi, -24(%rbp)
	movq	%rsi, -16(%rbp)
	movq	-24(%rbp), %rax
	movl	72472(%rax), %eax
	movq	-24(%rbp), %rcx
	imull	72468(%rcx), %eax
	movl	%eax, PicSizeInMapUnits
	movq	-16(%rbp), %rax
	cmpl	$6, 64(%rax)
	jne	.LBB46_4
# %bb.1:                                # %if.then
	movq	-16(%rbp), %rax
	movl	172(%rax), %eax
	addl	$1, %eax
	cmpl	PicSizeInMapUnits, %eax
	je	.LBB46_3
# %bb.2:                                # %if.then2
	movabsq	$.L.str, %rdi
	movl	$500, %esi              # imm = 0x1F4
	callq	error
.LBB46_3:                               # %if.end
	jmp	.LBB46_4
.LBB46_4:                               # %if.end3
	cmpq	$0, MapUnitToSliceGroupMap
	je	.LBB46_6
# %bb.5:                                # %if.then4
	movq	MapUnitToSliceGroupMap, %rdi
	callq	free
.LBB46_6:                               # %if.end5
	movl	PicSizeInMapUnits, %edi
	shlq	$0, %rdi
	callq	malloc
	movq	%rax, MapUnitToSliceGroupMap
	cmpq	$0, %rax
	jne	.LBB46_8
# %bb.7:                                # %if.then9
	movl	PicSizeInMapUnits, %esi
	shlq	$0, %rsi
	movabsq	$.L.str.1, %rdi
	movb	$0, %al
	callq	printf
	movl	$4294967295, %edi       # imm = 0xFFFFFFFF
	callq	exit
.LBB46_8:                               # %if.end13
	movq	-16(%rbp), %rax
	cmpl	$0, 60(%rax)
	jne	.LBB46_10
# %bb.9:                                # %if.then16
	movq	MapUnitToSliceGroupMap, %rdi
	movl	PicSizeInMapUnits, %edx
	shlq	$0, %rdx
	xorl	%esi, %esi
	callq	memset
	movl	$0, -28(%rbp)
	jmp	.LBB46_21
.LBB46_10:                              # %if.end19
	movq	-16(%rbp), %rax
	movl	64(%rax), %eax
	movq	%rax, %rcx
	subq	$6, %rcx
	ja	.LBB46_19
# %bb.11:                               # %if.end19
	movq	.LJTI46_0(,%rax,8), %rax
	jmpq	*%rax
.LBB46_12:                              # %sw.bb
	movq	-24(%rbp), %rdi
	movq	-16(%rbp), %rsi
	callq	FmoGenerateType0MapUnitMap
	jmp	.LBB46_20
.LBB46_13:                              # %sw.bb21
	movq	-24(%rbp), %rdi
	movq	-16(%rbp), %rsi
	callq	FmoGenerateType1MapUnitMap
	jmp	.LBB46_20
.LBB46_14:                              # %sw.bb22
	movq	-24(%rbp), %rdi
	movq	-16(%rbp), %rsi
	callq	FmoGenerateType2MapUnitMap
	jmp	.LBB46_20
.LBB46_15:                              # %sw.bb23
	movq	-24(%rbp), %rdi
	movq	-16(%rbp), %rsi
	callq	FmoGenerateType3MapUnitMap
	jmp	.LBB46_20
.LBB46_16:                              # %sw.bb24
	movq	-24(%rbp), %rdi
	movq	-16(%rbp), %rsi
	callq	FmoGenerateType4MapUnitMap
	jmp	.LBB46_20
.LBB46_17:                              # %sw.bb25
	movq	-24(%rbp), %rdi
	movq	-16(%rbp), %rsi
	callq	FmoGenerateType5MapUnitMap
	jmp	.LBB46_20
.LBB46_18:                              # %sw.bb26
	movq	-24(%rbp), %rdi
	movq	-16(%rbp), %rsi
	callq	FmoGenerateType6MapUnitMap
	jmp	.LBB46_20
.LBB46_19:                              # %sw.default
	movq	-16(%rbp), %rax
	movl	64(%rax), %esi
	movabsq	$.L.str.2, %rdi
	movb	$0, %al
	callq	printf
	movl	$4294967295, %edi       # imm = 0xFFFFFFFF
	callq	exit
.LBB46_20:                              # %sw.epilog
	movl	$0, -28(%rbp)
.LBB46_21:                              # %return
	movl	-28(%rbp), %ebx
	cmpl	$850356741, -32(%rbp)   # imm = 0x32AF6A05
	jne	.LBB46_23
.LBB46_22:
	movl	%ebx, %eax
	addq	$24, %rsp
	popq	%rbx
	popq	%rbp
	.cfi_def_cfa %rsp, 8
	retq
.LBB46_23:                              # %func_exit
	.cfi_def_cfa %rbp, 16
	callq	detect_breach
	jmp	.LBB46_22
.Lfunc_end46:
	.size	FmoGenerateMapUnitToSliceGroupMap.26, .Lfunc_end46-FmoGenerateMapUnitToSliceGroupMap.26
	.cfi_endproc
	.section	.rodata,"a",@progbits
	.p2align	3
.LJTI46_0:
	.quad	.LBB46_12
	.quad	.LBB46_13
	.quad	.LBB46_14
	.quad	.LBB46_15
	.quad	.LBB46_16
	.quad	.LBB46_17
	.quad	.LBB46_18
                                        # -- End function
	.text
	.p2align	4, 0x90         # -- Begin function FmoGenerateType3MapUnitMap.27
	.type	FmoGenerateType3MapUnitMap.27,@function
FmoGenerateType3MapUnitMap.27:          # @FmoGenerateType3MapUnitMap.27
	.cfi_startproc
# %bb.0:                                # %entry
	pushq	%rbp
	.cfi_def_cfa_offset 16
	.cfi_offset %rbp, -16
	movq	%rsp, %rbp
	.cfi_def_cfa_register %rbp
	subq	$80, %rsp
	movl	$1276429344, -68(%rbp)  # imm = 0x4C14C420
	movq	%rdi, -48(%rbp)
	movq	%rsi, -40(%rbp)
	movq	-40(%rbp), %rax
	movl	168(%rax), %eax
	addl	$1, %eax
	movq	-48(%rbp), %rcx
	imull	72652(%rcx), %eax
	cmpl	PicSizeInMapUnits, %eax
	jae	.LBB47_2
# %bb.1:                                # %cond.true
	movq	-40(%rbp), %rax
	movl	168(%rax), %eax
	addl	$1, %eax
	movq	-48(%rbp), %rcx
	imull	72652(%rcx), %eax
	jmp	.LBB47_3
.LBB47_2:                               # %cond.false
	movl	PicSizeInMapUnits, %eax
.LBB47_3:                               # %cond.end
	movl	%eax, -64(%rbp)
	movl	$0, -56(%rbp)
.LBB47_4:                               # %for.cond
                                        # =>This Inner Loop Header: Depth=1
	movl	-56(%rbp), %eax
	cmpl	PicSizeInMapUnits, %eax
	jae	.LBB47_7
# %bb.5:                                # %for.body
                                        #   in Loop: Header=BB47_4 Depth=1
	movq	MapUnitToSliceGroupMap, %rax
	movl	-56(%rbp), %ecx
	movb	$2, (%rax,%rcx)
# %bb.6:                                # %for.inc
                                        #   in Loop: Header=BB47_4 Depth=1
	movl	-56(%rbp), %eax
	addl	$1, %eax
	movl	%eax, -56(%rbp)
	jmp	.LBB47_4
.LBB47_7:                               # %for.end
	movq	-48(%rbp), %rax
	movl	72468(%rax), %eax
	movq	-40(%rbp), %rcx
	subl	164(%rcx), %eax
	shrl	$1, %eax
	movl	%eax, -8(%rbp)
	movq	-48(%rbp), %rax
	movl	72472(%rax), %eax
	movq	-40(%rbp), %rcx
	subl	164(%rcx), %eax
	shrl	$1, %eax
	movl	%eax, -4(%rbp)
	movl	-8(%rbp), %eax
	movl	%eax, -32(%rbp)
	movl	-4(%rbp), %eax
	movl	%eax, -24(%rbp)
	movl	-8(%rbp), %eax
	movl	%eax, -20(%rbp)
	movl	-4(%rbp), %eax
	movl	%eax, -28(%rbp)
	movq	-40(%rbp), %rax
	movl	164(%rax), %eax
	subl	$1, %eax
	movl	%eax, -16(%rbp)
	movq	-40(%rbp), %rax
	movl	164(%rax), %eax
	movl	%eax, -12(%rbp)
	movl	$0, -52(%rbp)
.LBB47_8:                               # %for.cond12
                                        # =>This Inner Loop Header: Depth=1
	movl	-52(%rbp), %eax
	cmpl	PicSizeInMapUnits, %eax
	jae	.LBB47_41
# %bb.9:                                # %for.body14
                                        #   in Loop: Header=BB47_8 Depth=1
	movq	MapUnitToSliceGroupMap, %rax
	movl	-4(%rbp), %ecx
	movq	-48(%rbp), %rdx
	imull	72468(%rdx), %ecx
	addl	-8(%rbp), %ecx
	movl	%ecx, %ecx
	movzbl	(%rax,%rcx), %eax
	cmpl	$2, %eax
	sete	%al
	andb	$1, %al
	movzbl	%al, %eax
	movl	%eax, -60(%rbp)
	cmpl	$0, -60(%rbp)
	je	.LBB47_11
# %bb.10:                               # %if.then
                                        #   in Loop: Header=BB47_8 Depth=1
	movl	-52(%rbp), %eax
	cmpl	-64(%rbp), %eax
	setae	%al
	andb	$1, %al
	movzbl	%al, %eax
	movq	MapUnitToSliceGroupMap, %rcx
	movl	-4(%rbp), %edx
	movq	-48(%rbp), %rsi
	imull	72468(%rsi), %edx
	addl	-8(%rbp), %edx
	movl	%edx, %edx
	movb	%al, (%rcx,%rdx)
.LBB47_11:                              # %if.end
                                        #   in Loop: Header=BB47_8 Depth=1
	cmpl	$-1, -16(%rbp)
	jne	.LBB47_17
# %bb.12:                               # %land.lhs.true
                                        #   in Loop: Header=BB47_8 Depth=1
	movl	-8(%rbp), %eax
	cmpl	-32(%rbp), %eax
	jne	.LBB47_17
# %bb.13:                               # %if.then34
                                        #   in Loop: Header=BB47_8 Depth=1
	movl	-32(%rbp), %eax
	subl	$1, %eax
	cmpl	$0, %eax
	jle	.LBB47_15
# %bb.14:                               # %cond.true38
                                        #   in Loop: Header=BB47_8 Depth=1
	movl	-32(%rbp), %eax
	subl	$1, %eax
	jmp	.LBB47_16
.LBB47_15:                              # %cond.false40
                                        #   in Loop: Header=BB47_8 Depth=1
	xorl	%eax, %eax
	jmp	.LBB47_16
.LBB47_16:                              # %cond.end41
                                        #   in Loop: Header=BB47_8 Depth=1
	movl	%eax, -32(%rbp)
	movl	-32(%rbp), %eax
	movl	%eax, -8(%rbp)
	movl	$0, -16(%rbp)
	movq	-40(%rbp), %rax
	movl	164(%rax), %eax
	shll	$1, %eax
	subl	$1, %eax
	movl	%eax, -12(%rbp)
	jmp	.LBB47_39
.LBB47_17:                              # %if.else
                                        #   in Loop: Header=BB47_8 Depth=1
	cmpl	$1, -16(%rbp)
	jne	.LBB47_23
# %bb.18:                               # %land.lhs.true48
                                        #   in Loop: Header=BB47_8 Depth=1
	movl	-8(%rbp), %eax
	cmpl	-20(%rbp), %eax
	jne	.LBB47_23
# %bb.19:                               # %if.then51
                                        #   in Loop: Header=BB47_8 Depth=1
	movl	-20(%rbp), %eax
	addl	$1, %eax
	movq	-48(%rbp), %rcx
	movl	72468(%rcx), %ecx
	subl	$1, %ecx
	cmpl	%ecx, %eax
	jge	.LBB47_21
# %bb.20:                               # %cond.true57
                                        #   in Loop: Header=BB47_8 Depth=1
	movl	-20(%rbp), %eax
	addl	$1, %eax
	jmp	.LBB47_22
.LBB47_21:                              # %cond.false59
                                        #   in Loop: Header=BB47_8 Depth=1
	movq	-48(%rbp), %rax
	movl	72468(%rax), %eax
	subl	$1, %eax
.LBB47_22:                              # %cond.end62
                                        #   in Loop: Header=BB47_8 Depth=1
	movl	%eax, -20(%rbp)
	movl	-20(%rbp), %eax
	movl	%eax, -8(%rbp)
	movl	$0, -16(%rbp)
	movq	-40(%rbp), %rax
	movl	164(%rax), %eax
	shll	$1, %eax
	movl	$1, %ecx
	subl	%eax, %ecx
	movl	%ecx, -12(%rbp)
	jmp	.LBB47_38
.LBB47_23:                              # %if.else67
                                        #   in Loop: Header=BB47_8 Depth=1
	cmpl	$-1, -12(%rbp)
	jne	.LBB47_29
# %bb.24:                               # %land.lhs.true70
                                        #   in Loop: Header=BB47_8 Depth=1
	movl	-4(%rbp), %eax
	cmpl	-24(%rbp), %eax
	jne	.LBB47_29
# %bb.25:                               # %if.then73
                                        #   in Loop: Header=BB47_8 Depth=1
	movl	-24(%rbp), %eax
	subl	$1, %eax
	cmpl	$0, %eax
	jle	.LBB47_27
# %bb.26:                               # %cond.true77
                                        #   in Loop: Header=BB47_8 Depth=1
	movl	-24(%rbp), %eax
	subl	$1, %eax
	jmp	.LBB47_28
.LBB47_27:                              # %cond.false79
                                        #   in Loop: Header=BB47_8 Depth=1
	xorl	%eax, %eax
	jmp	.LBB47_28
.LBB47_28:                              # %cond.end80
                                        #   in Loop: Header=BB47_8 Depth=1
	movl	%eax, -24(%rbp)
	movl	-24(%rbp), %eax
	movl	%eax, -4(%rbp)
	movq	-40(%rbp), %rax
	movl	164(%rax), %eax
	shll	$1, %eax
	movl	$1, %ecx
	subl	%eax, %ecx
	movl	%ecx, -16(%rbp)
	movl	$0, -12(%rbp)
	jmp	.LBB47_37
.LBB47_29:                              # %if.else85
                                        #   in Loop: Header=BB47_8 Depth=1
	cmpl	$1, -12(%rbp)
	jne	.LBB47_35
# %bb.30:                               # %land.lhs.true88
                                        #   in Loop: Header=BB47_8 Depth=1
	movl	-4(%rbp), %eax
	cmpl	-28(%rbp), %eax
	jne	.LBB47_35
# %bb.31:                               # %if.then91
                                        #   in Loop: Header=BB47_8 Depth=1
	movl	-28(%rbp), %eax
	addl	$1, %eax
	movq	-48(%rbp), %rcx
	movl	72472(%rcx), %ecx
	subl	$1, %ecx
	cmpl	%ecx, %eax
	jge	.LBB47_33
# %bb.32:                               # %cond.true97
                                        #   in Loop: Header=BB47_8 Depth=1
	movl	-28(%rbp), %eax
	addl	$1, %eax
	jmp	.LBB47_34
.LBB47_33:                              # %cond.false99
                                        #   in Loop: Header=BB47_8 Depth=1
	movq	-48(%rbp), %rax
	movl	72472(%rax), %eax
	subl	$1, %eax
.LBB47_34:                              # %cond.end102
                                        #   in Loop: Header=BB47_8 Depth=1
	movl	%eax, -28(%rbp)
	movl	-28(%rbp), %eax
	movl	%eax, -4(%rbp)
	movq	-40(%rbp), %rax
	movl	164(%rax), %eax
	shll	$1, %eax
	subl	$1, %eax
	movl	%eax, -16(%rbp)
	movl	$0, -12(%rbp)
	jmp	.LBB47_36
.LBB47_35:                              # %if.else107
                                        #   in Loop: Header=BB47_8 Depth=1
	movl	-8(%rbp), %eax
	addl	-16(%rbp), %eax
	movl	%eax, -8(%rbp)
	movl	-4(%rbp), %eax
	addl	-12(%rbp), %eax
	movl	%eax, -4(%rbp)
.LBB47_36:                              # %if.end110
                                        #   in Loop: Header=BB47_8 Depth=1
	jmp	.LBB47_37
.LBB47_37:                              # %if.end111
                                        #   in Loop: Header=BB47_8 Depth=1
	jmp	.LBB47_38
.LBB47_38:                              # %if.end112
                                        #   in Loop: Header=BB47_8 Depth=1
	jmp	.LBB47_39
.LBB47_39:                              # %if.end113
                                        #   in Loop: Header=BB47_8 Depth=1
	jmp	.LBB47_40
.LBB47_40:                              # %for.inc114
                                        #   in Loop: Header=BB47_8 Depth=1
	movl	-60(%rbp), %eax
	addl	-52(%rbp), %eax
	movl	%eax, -52(%rbp)
	jmp	.LBB47_8
.LBB47_41:                              # %for.end116
	cmpl	$1276429344, -68(%rbp)  # imm = 0x4C14C420
	jne	.LBB47_43
.LBB47_42:
	addq	$80, %rsp
	popq	%rbp
	.cfi_def_cfa %rsp, 8
	retq
.LBB47_43:                              # %func_exit
	.cfi_def_cfa %rbp, 16
	callq	detect_breach
	jmp	.LBB47_42
.Lfunc_end47:
	.size	FmoGenerateType3MapUnitMap.27, .Lfunc_end47-FmoGenerateType3MapUnitMap.27
	.cfi_endproc
                                        # -- End function
	.p2align	4, 0x90         # -- Begin function FmoGenerateType6MapUnitMap.28
	.type	FmoGenerateType6MapUnitMap.28,@function
FmoGenerateType6MapUnitMap.28:          # @FmoGenerateType6MapUnitMap.28
	.cfi_startproc
# %bb.0:                                # %entry
	pushq	%rbp
	.cfi_def_cfa_offset 16
	.cfi_offset %rbp, -16
	movq	%rsp, %rbp
	.cfi_def_cfa_register %rbp
	subq	$32, %rsp
	movl	$2083357148, -8(%rbp)   # imm = 0x7C2D81DC
	movq	%rdi, -24(%rbp)
	movq	%rsi, -16(%rbp)
	movl	$0, -4(%rbp)
.LBB48_1:                               # %for.cond
                                        # =>This Inner Loop Header: Depth=1
	movl	-4(%rbp), %eax
	cmpl	PicSizeInMapUnits, %eax
	jae	.LBB48_4
# %bb.2:                                # %for.body
                                        #   in Loop: Header=BB48_1 Depth=1
	movq	-16(%rbp), %rax
	movq	176(%rax), %rax
	movl	-4(%rbp), %ecx
	movb	(%rax,%rcx), %al
	movq	MapUnitToSliceGroupMap, %rcx
	movl	-4(%rbp), %edx
	movb	%al, (%rcx,%rdx)
# %bb.3:                                # %for.inc
                                        #   in Loop: Header=BB48_1 Depth=1
	movl	-4(%rbp), %eax
	addl	$1, %eax
	movl	%eax, -4(%rbp)
	jmp	.LBB48_1
.LBB48_4:                               # %for.end
	cmpl	$2083357148, -8(%rbp)   # imm = 0x7C2D81DC
	jne	.LBB48_6
.LBB48_5:
	addq	$32, %rsp
	popq	%rbp
	.cfi_def_cfa %rsp, 8
	retq
.LBB48_6:                               # %func_exit
	.cfi_def_cfa %rbp, 16
	callq	detect_breach
	jmp	.LBB48_5
.Lfunc_end48:
	.size	FmoGenerateType6MapUnitMap.28, .Lfunc_end48-FmoGenerateType6MapUnitMap.28
	.cfi_endproc
                                        # -- End function
	.p2align	4, 0x90         # -- Begin function FmoGenerateType3MapUnitMap.29
	.type	FmoGenerateType3MapUnitMap.29,@function
FmoGenerateType3MapUnitMap.29:          # @FmoGenerateType3MapUnitMap.29
	.cfi_startproc
# %bb.0:                                # %entry
	pushq	%rbp
	.cfi_def_cfa_offset 16
	.cfi_offset %rbp, -16
	movq	%rsp, %rbp
	.cfi_def_cfa_register %rbp
	subq	$80, %rsp
	movl	$297409253, -68(%rbp)   # imm = 0x11BA1AE5
	movq	%rdi, -40(%rbp)
	movq	%rsi, -48(%rbp)
	movq	-48(%rbp), %rax
	movl	168(%rax), %eax
	addl	$1, %eax
	movq	-40(%rbp), %rcx
	imull	72652(%rcx), %eax
	cmpl	PicSizeInMapUnits, %eax
	jae	.LBB49_2
# %bb.1:                                # %cond.true
	movq	-48(%rbp), %rax
	movl	168(%rax), %eax
	addl	$1, %eax
	movq	-40(%rbp), %rcx
	imull	72652(%rcx), %eax
	jmp	.LBB49_3
.LBB49_2:                               # %cond.false
	movl	PicSizeInMapUnits, %eax
.LBB49_3:                               # %cond.end
	movl	%eax, -64(%rbp)
	movl	$0, -56(%rbp)
.LBB49_4:                               # %for.cond
                                        # =>This Inner Loop Header: Depth=1
	movl	-56(%rbp), %eax
	cmpl	PicSizeInMapUnits, %eax
	jae	.LBB49_7
# %bb.5:                                # %for.body
                                        #   in Loop: Header=BB49_4 Depth=1
	movq	MapUnitToSliceGroupMap, %rax
	movl	-56(%rbp), %ecx
	movb	$2, (%rax,%rcx)
# %bb.6:                                # %for.inc
                                        #   in Loop: Header=BB49_4 Depth=1
	movl	-56(%rbp), %eax
	addl	$1, %eax
	movl	%eax, -56(%rbp)
	jmp	.LBB49_4
.LBB49_7:                               # %for.end
	movq	-40(%rbp), %rax
	movl	72468(%rax), %eax
	movq	-48(%rbp), %rcx
	subl	164(%rcx), %eax
	shrl	$1, %eax
	movl	%eax, -4(%rbp)
	movq	-40(%rbp), %rax
	movl	72472(%rax), %eax
	movq	-48(%rbp), %rcx
	subl	164(%rcx), %eax
	shrl	$1, %eax
	movl	%eax, -8(%rbp)
	movl	-4(%rbp), %eax
	movl	%eax, -32(%rbp)
	movl	-8(%rbp), %eax
	movl	%eax, -28(%rbp)
	movl	-4(%rbp), %eax
	movl	%eax, -24(%rbp)
	movl	-8(%rbp), %eax
	movl	%eax, -20(%rbp)
	movq	-48(%rbp), %rax
	movl	164(%rax), %eax
	subl	$1, %eax
	movl	%eax, -12(%rbp)
	movq	-48(%rbp), %rax
	movl	164(%rax), %eax
	movl	%eax, -16(%rbp)
	movl	$0, -52(%rbp)
.LBB49_8:                               # %for.cond12
                                        # =>This Inner Loop Header: Depth=1
	movl	-52(%rbp), %eax
	cmpl	PicSizeInMapUnits, %eax
	jae	.LBB49_41
# %bb.9:                                # %for.body14
                                        #   in Loop: Header=BB49_8 Depth=1
	movq	MapUnitToSliceGroupMap, %rax
	movl	-8(%rbp), %ecx
	movq	-40(%rbp), %rdx
	imull	72468(%rdx), %ecx
	addl	-4(%rbp), %ecx
	movl	%ecx, %ecx
	movzbl	(%rax,%rcx), %eax
	cmpl	$2, %eax
	sete	%al
	andb	$1, %al
	movzbl	%al, %eax
	movl	%eax, -60(%rbp)
	cmpl	$0, -60(%rbp)
	je	.LBB49_11
# %bb.10:                               # %if.then
                                        #   in Loop: Header=BB49_8 Depth=1
	movl	-52(%rbp), %eax
	cmpl	-64(%rbp), %eax
	setae	%al
	andb	$1, %al
	movzbl	%al, %eax
	movq	MapUnitToSliceGroupMap, %rcx
	movl	-8(%rbp), %edx
	movq	-40(%rbp), %rsi
	imull	72468(%rsi), %edx
	addl	-4(%rbp), %edx
	movl	%edx, %edx
	movb	%al, (%rcx,%rdx)
.LBB49_11:                              # %if.end
                                        #   in Loop: Header=BB49_8 Depth=1
	cmpl	$-1, -12(%rbp)
	jne	.LBB49_17
# %bb.12:                               # %land.lhs.true
                                        #   in Loop: Header=BB49_8 Depth=1
	movl	-4(%rbp), %eax
	cmpl	-32(%rbp), %eax
	jne	.LBB49_17
# %bb.13:                               # %if.then34
                                        #   in Loop: Header=BB49_8 Depth=1
	movl	-32(%rbp), %eax
	subl	$1, %eax
	cmpl	$0, %eax
	jle	.LBB49_15
# %bb.14:                               # %cond.true38
                                        #   in Loop: Header=BB49_8 Depth=1
	movl	-32(%rbp), %eax
	subl	$1, %eax
	jmp	.LBB49_16
.LBB49_15:                              # %cond.false40
                                        #   in Loop: Header=BB49_8 Depth=1
	xorl	%eax, %eax
	jmp	.LBB49_16
.LBB49_16:                              # %cond.end41
                                        #   in Loop: Header=BB49_8 Depth=1
	movl	%eax, -32(%rbp)
	movl	-32(%rbp), %eax
	movl	%eax, -4(%rbp)
	movl	$0, -12(%rbp)
	movq	-48(%rbp), %rax
	movl	164(%rax), %eax
	shll	$1, %eax
	subl	$1, %eax
	movl	%eax, -16(%rbp)
	jmp	.LBB49_39
.LBB49_17:                              # %if.else
                                        #   in Loop: Header=BB49_8 Depth=1
	cmpl	$1, -12(%rbp)
	jne	.LBB49_23
# %bb.18:                               # %land.lhs.true48
                                        #   in Loop: Header=BB49_8 Depth=1
	movl	-4(%rbp), %eax
	cmpl	-24(%rbp), %eax
	jne	.LBB49_23
# %bb.19:                               # %if.then51
                                        #   in Loop: Header=BB49_8 Depth=1
	movl	-24(%rbp), %eax
	addl	$1, %eax
	movq	-40(%rbp), %rcx
	movl	72468(%rcx), %ecx
	subl	$1, %ecx
	cmpl	%ecx, %eax
	jge	.LBB49_21
# %bb.20:                               # %cond.true57
                                        #   in Loop: Header=BB49_8 Depth=1
	movl	-24(%rbp), %eax
	addl	$1, %eax
	jmp	.LBB49_22
.LBB49_21:                              # %cond.false59
                                        #   in Loop: Header=BB49_8 Depth=1
	movq	-40(%rbp), %rax
	movl	72468(%rax), %eax
	subl	$1, %eax
.LBB49_22:                              # %cond.end62
                                        #   in Loop: Header=BB49_8 Depth=1
	movl	%eax, -24(%rbp)
	movl	-24(%rbp), %eax
	movl	%eax, -4(%rbp)
	movl	$0, -12(%rbp)
	movq	-48(%rbp), %rax
	movl	164(%rax), %eax
	shll	$1, %eax
	movl	$1, %ecx
	subl	%eax, %ecx
	movl	%ecx, -16(%rbp)
	jmp	.LBB49_38
.LBB49_23:                              # %if.else67
                                        #   in Loop: Header=BB49_8 Depth=1
	cmpl	$-1, -16(%rbp)
	jne	.LBB49_29
# %bb.24:                               # %land.lhs.true70
                                        #   in Loop: Header=BB49_8 Depth=1
	movl	-8(%rbp), %eax
	cmpl	-28(%rbp), %eax
	jne	.LBB49_29
# %bb.25:                               # %if.then73
                                        #   in Loop: Header=BB49_8 Depth=1
	movl	-28(%rbp), %eax
	subl	$1, %eax
	cmpl	$0, %eax
	jle	.LBB49_27
# %bb.26:                               # %cond.true77
                                        #   in Loop: Header=BB49_8 Depth=1
	movl	-28(%rbp), %eax
	subl	$1, %eax
	jmp	.LBB49_28
.LBB49_27:                              # %cond.false79
                                        #   in Loop: Header=BB49_8 Depth=1
	xorl	%eax, %eax
	jmp	.LBB49_28
.LBB49_28:                              # %cond.end80
                                        #   in Loop: Header=BB49_8 Depth=1
	movl	%eax, -28(%rbp)
	movl	-28(%rbp), %eax
	movl	%eax, -8(%rbp)
	movq	-48(%rbp), %rax
	movl	164(%rax), %eax
	shll	$1, %eax
	movl	$1, %ecx
	subl	%eax, %ecx
	movl	%ecx, -12(%rbp)
	movl	$0, -16(%rbp)
	jmp	.LBB49_37
.LBB49_29:                              # %if.else85
                                        #   in Loop: Header=BB49_8 Depth=1
	cmpl	$1, -16(%rbp)
	jne	.LBB49_35
# %bb.30:                               # %land.lhs.true88
                                        #   in Loop: Header=BB49_8 Depth=1
	movl	-8(%rbp), %eax
	cmpl	-20(%rbp), %eax
	jne	.LBB49_35
# %bb.31:                               # %if.then91
                                        #   in Loop: Header=BB49_8 Depth=1
	movl	-20(%rbp), %eax
	addl	$1, %eax
	movq	-40(%rbp), %rcx
	movl	72472(%rcx), %ecx
	subl	$1, %ecx
	cmpl	%ecx, %eax
	jge	.LBB49_33
# %bb.32:                               # %cond.true97
                                        #   in Loop: Header=BB49_8 Depth=1
	movl	-20(%rbp), %eax
	addl	$1, %eax
	jmp	.LBB49_34
.LBB49_33:                              # %cond.false99
                                        #   in Loop: Header=BB49_8 Depth=1
	movq	-40(%rbp), %rax
	movl	72472(%rax), %eax
	subl	$1, %eax
.LBB49_34:                              # %cond.end102
                                        #   in Loop: Header=BB49_8 Depth=1
	movl	%eax, -20(%rbp)
	movl	-20(%rbp), %eax
	movl	%eax, -8(%rbp)
	movq	-48(%rbp), %rax
	movl	164(%rax), %eax
	shll	$1, %eax
	subl	$1, %eax
	movl	%eax, -12(%rbp)
	movl	$0, -16(%rbp)
	jmp	.LBB49_36
.LBB49_35:                              # %if.else107
                                        #   in Loop: Header=BB49_8 Depth=1
	movl	-4(%rbp), %eax
	addl	-12(%rbp), %eax
	movl	%eax, -4(%rbp)
	movl	-8(%rbp), %eax
	addl	-16(%rbp), %eax
	movl	%eax, -8(%rbp)
.LBB49_36:                              # %if.end110
                                        #   in Loop: Header=BB49_8 Depth=1
	jmp	.LBB49_37
.LBB49_37:                              # %if.end111
                                        #   in Loop: Header=BB49_8 Depth=1
	jmp	.LBB49_38
.LBB49_38:                              # %if.end112
                                        #   in Loop: Header=BB49_8 Depth=1
	jmp	.LBB49_39
.LBB49_39:                              # %if.end113
                                        #   in Loop: Header=BB49_8 Depth=1
	jmp	.LBB49_40
.LBB49_40:                              # %for.inc114
                                        #   in Loop: Header=BB49_8 Depth=1
	movl	-60(%rbp), %eax
	addl	-52(%rbp), %eax
	movl	%eax, -52(%rbp)
	jmp	.LBB49_8
.LBB49_41:                              # %for.end116
	cmpl	$297409253, -68(%rbp)   # imm = 0x11BA1AE5
	jne	.LBB49_43
.LBB49_42:
	addq	$80, %rsp
	popq	%rbp
	.cfi_def_cfa %rsp, 8
	retq
.LBB49_43:                              # %func_exit
	.cfi_def_cfa %rbp, 16
	callq	detect_breach
	jmp	.LBB49_42
.Lfunc_end49:
	.size	FmoGenerateType3MapUnitMap.29, .Lfunc_end49-FmoGenerateType3MapUnitMap.29
	.cfi_endproc
                                        # -- End function
	.p2align	4, 0x90         # -- Begin function FmoGenerateType3MapUnitMap.30
	.type	FmoGenerateType3MapUnitMap.30,@function
FmoGenerateType3MapUnitMap.30:          # @FmoGenerateType3MapUnitMap.30
	.cfi_startproc
# %bb.0:                                # %entry
	pushq	%rbp
	.cfi_def_cfa_offset 16
	.cfi_offset %rbp, -16
	movq	%rsp, %rbp
	.cfi_def_cfa_register %rbp
	subq	$80, %rsp
	movl	$1440844089, -68(%rbp)  # imm = 0x55E18939
	movq	%rdi, -40(%rbp)
	movq	%rsi, -48(%rbp)
	movq	-48(%rbp), %rax
	movl	168(%rax), %eax
	addl	$1, %eax
	movq	-40(%rbp), %rcx
	imull	72652(%rcx), %eax
	cmpl	PicSizeInMapUnits, %eax
	jae	.LBB50_2
# %bb.1:                                # %cond.true
	movq	-48(%rbp), %rax
	movl	168(%rax), %eax
	addl	$1, %eax
	movq	-40(%rbp), %rcx
	imull	72652(%rcx), %eax
	jmp	.LBB50_3
.LBB50_2:                               # %cond.false
	movl	PicSizeInMapUnits, %eax
.LBB50_3:                               # %cond.end
	movl	%eax, -64(%rbp)
	movl	$0, -52(%rbp)
.LBB50_4:                               # %for.cond
                                        # =>This Inner Loop Header: Depth=1
	movl	-52(%rbp), %eax
	cmpl	PicSizeInMapUnits, %eax
	jae	.LBB50_7
# %bb.5:                                # %for.body
                                        #   in Loop: Header=BB50_4 Depth=1
	movq	MapUnitToSliceGroupMap, %rax
	movl	-52(%rbp), %ecx
	movb	$2, (%rax,%rcx)
# %bb.6:                                # %for.inc
                                        #   in Loop: Header=BB50_4 Depth=1
	movl	-52(%rbp), %eax
	addl	$1, %eax
	movl	%eax, -52(%rbp)
	jmp	.LBB50_4
.LBB50_7:                               # %for.end
	movq	-40(%rbp), %rax
	movl	72468(%rax), %eax
	movq	-48(%rbp), %rcx
	subl	164(%rcx), %eax
	shrl	$1, %eax
	movl	%eax, -8(%rbp)
	movq	-40(%rbp), %rax
	movl	72472(%rax), %eax
	movq	-48(%rbp), %rcx
	subl	164(%rcx), %eax
	shrl	$1, %eax
	movl	%eax, -4(%rbp)
	movl	-8(%rbp), %eax
	movl	%eax, -28(%rbp)
	movl	-4(%rbp), %eax
	movl	%eax, -20(%rbp)
	movl	-8(%rbp), %eax
	movl	%eax, -24(%rbp)
	movl	-4(%rbp), %eax
	movl	%eax, -32(%rbp)
	movq	-48(%rbp), %rax
	movl	164(%rax), %eax
	subl	$1, %eax
	movl	%eax, -16(%rbp)
	movq	-48(%rbp), %rax
	movl	164(%rax), %eax
	movl	%eax, -12(%rbp)
	movl	$0, -56(%rbp)
.LBB50_8:                               # %for.cond12
                                        # =>This Inner Loop Header: Depth=1
	movl	-56(%rbp), %eax
	cmpl	PicSizeInMapUnits, %eax
	jae	.LBB50_41
# %bb.9:                                # %for.body14
                                        #   in Loop: Header=BB50_8 Depth=1
	movq	MapUnitToSliceGroupMap, %rax
	movl	-4(%rbp), %ecx
	movq	-40(%rbp), %rdx
	imull	72468(%rdx), %ecx
	addl	-8(%rbp), %ecx
	movl	%ecx, %ecx
	movzbl	(%rax,%rcx), %eax
	cmpl	$2, %eax
	sete	%al
	andb	$1, %al
	movzbl	%al, %eax
	movl	%eax, -60(%rbp)
	cmpl	$0, -60(%rbp)
	je	.LBB50_11
# %bb.10:                               # %if.then
                                        #   in Loop: Header=BB50_8 Depth=1
	movl	-56(%rbp), %eax
	cmpl	-64(%rbp), %eax
	setae	%al
	andb	$1, %al
	movzbl	%al, %eax
	movq	MapUnitToSliceGroupMap, %rcx
	movl	-4(%rbp), %edx
	movq	-40(%rbp), %rsi
	imull	72468(%rsi), %edx
	addl	-8(%rbp), %edx
	movl	%edx, %edx
	movb	%al, (%rcx,%rdx)
.LBB50_11:                              # %if.end
                                        #   in Loop: Header=BB50_8 Depth=1
	cmpl	$-1, -16(%rbp)
	jne	.LBB50_17
# %bb.12:                               # %land.lhs.true
                                        #   in Loop: Header=BB50_8 Depth=1
	movl	-8(%rbp), %eax
	cmpl	-28(%rbp), %eax
	jne	.LBB50_17
# %bb.13:                               # %if.then34
                                        #   in Loop: Header=BB50_8 Depth=1
	movl	-28(%rbp), %eax
	subl	$1, %eax
	cmpl	$0, %eax
	jle	.LBB50_15
# %bb.14:                               # %cond.true38
                                        #   in Loop: Header=BB50_8 Depth=1
	movl	-28(%rbp), %eax
	subl	$1, %eax
	jmp	.LBB50_16
.LBB50_15:                              # %cond.false40
                                        #   in Loop: Header=BB50_8 Depth=1
	xorl	%eax, %eax
	jmp	.LBB50_16
.LBB50_16:                              # %cond.end41
                                        #   in Loop: Header=BB50_8 Depth=1
	movl	%eax, -28(%rbp)
	movl	-28(%rbp), %eax
	movl	%eax, -8(%rbp)
	movl	$0, -16(%rbp)
	movq	-48(%rbp), %rax
	movl	164(%rax), %eax
	shll	$1, %eax
	subl	$1, %eax
	movl	%eax, -12(%rbp)
	jmp	.LBB50_39
.LBB50_17:                              # %if.else
                                        #   in Loop: Header=BB50_8 Depth=1
	cmpl	$1, -16(%rbp)
	jne	.LBB50_23
# %bb.18:                               # %land.lhs.true48
                                        #   in Loop: Header=BB50_8 Depth=1
	movl	-8(%rbp), %eax
	cmpl	-24(%rbp), %eax
	jne	.LBB50_23
# %bb.19:                               # %if.then51
                                        #   in Loop: Header=BB50_8 Depth=1
	movl	-24(%rbp), %eax
	addl	$1, %eax
	movq	-40(%rbp), %rcx
	movl	72468(%rcx), %ecx
	subl	$1, %ecx
	cmpl	%ecx, %eax
	jge	.LBB50_21
# %bb.20:                               # %cond.true57
                                        #   in Loop: Header=BB50_8 Depth=1
	movl	-24(%rbp), %eax
	addl	$1, %eax
	jmp	.LBB50_22
.LBB50_21:                              # %cond.false59
                                        #   in Loop: Header=BB50_8 Depth=1
	movq	-40(%rbp), %rax
	movl	72468(%rax), %eax
	subl	$1, %eax
.LBB50_22:                              # %cond.end62
                                        #   in Loop: Header=BB50_8 Depth=1
	movl	%eax, -24(%rbp)
	movl	-24(%rbp), %eax
	movl	%eax, -8(%rbp)
	movl	$0, -16(%rbp)
	movq	-48(%rbp), %rax
	movl	164(%rax), %eax
	shll	$1, %eax
	movl	$1, %ecx
	subl	%eax, %ecx
	movl	%ecx, -12(%rbp)
	jmp	.LBB50_38
.LBB50_23:                              # %if.else67
                                        #   in Loop: Header=BB50_8 Depth=1
	cmpl	$-1, -12(%rbp)
	jne	.LBB50_29
# %bb.24:                               # %land.lhs.true70
                                        #   in Loop: Header=BB50_8 Depth=1
	movl	-4(%rbp), %eax
	cmpl	-20(%rbp), %eax
	jne	.LBB50_29
# %bb.25:                               # %if.then73
                                        #   in Loop: Header=BB50_8 Depth=1
	movl	-20(%rbp), %eax
	subl	$1, %eax
	cmpl	$0, %eax
	jle	.LBB50_27
# %bb.26:                               # %cond.true77
                                        #   in Loop: Header=BB50_8 Depth=1
	movl	-20(%rbp), %eax
	subl	$1, %eax
	jmp	.LBB50_28
.LBB50_27:                              # %cond.false79
                                        #   in Loop: Header=BB50_8 Depth=1
	xorl	%eax, %eax
	jmp	.LBB50_28
.LBB50_28:                              # %cond.end80
                                        #   in Loop: Header=BB50_8 Depth=1
	movl	%eax, -20(%rbp)
	movl	-20(%rbp), %eax
	movl	%eax, -4(%rbp)
	movq	-48(%rbp), %rax
	movl	164(%rax), %eax
	shll	$1, %eax
	movl	$1, %ecx
	subl	%eax, %ecx
	movl	%ecx, -16(%rbp)
	movl	$0, -12(%rbp)
	jmp	.LBB50_37
.LBB50_29:                              # %if.else85
                                        #   in Loop: Header=BB50_8 Depth=1
	cmpl	$1, -12(%rbp)
	jne	.LBB50_35
# %bb.30:                               # %land.lhs.true88
                                        #   in Loop: Header=BB50_8 Depth=1
	movl	-4(%rbp), %eax
	cmpl	-32(%rbp), %eax
	jne	.LBB50_35
# %bb.31:                               # %if.then91
                                        #   in Loop: Header=BB50_8 Depth=1
	movl	-32(%rbp), %eax
	addl	$1, %eax
	movq	-40(%rbp), %rcx
	movl	72472(%rcx), %ecx
	subl	$1, %ecx
	cmpl	%ecx, %eax
	jge	.LBB50_33
# %bb.32:                               # %cond.true97
                                        #   in Loop: Header=BB50_8 Depth=1
	movl	-32(%rbp), %eax
	addl	$1, %eax
	jmp	.LBB50_34
.LBB50_33:                              # %cond.false99
                                        #   in Loop: Header=BB50_8 Depth=1
	movq	-40(%rbp), %rax
	movl	72472(%rax), %eax
	subl	$1, %eax
.LBB50_34:                              # %cond.end102
                                        #   in Loop: Header=BB50_8 Depth=1
	movl	%eax, -32(%rbp)
	movl	-32(%rbp), %eax
	movl	%eax, -4(%rbp)
	movq	-48(%rbp), %rax
	movl	164(%rax), %eax
	shll	$1, %eax
	subl	$1, %eax
	movl	%eax, -16(%rbp)
	movl	$0, -12(%rbp)
	jmp	.LBB50_36
.LBB50_35:                              # %if.else107
                                        #   in Loop: Header=BB50_8 Depth=1
	movl	-8(%rbp), %eax
	addl	-16(%rbp), %eax
	movl	%eax, -8(%rbp)
	movl	-4(%rbp), %eax
	addl	-12(%rbp), %eax
	movl	%eax, -4(%rbp)
.LBB50_36:                              # %if.end110
                                        #   in Loop: Header=BB50_8 Depth=1
	jmp	.LBB50_37
.LBB50_37:                              # %if.end111
                                        #   in Loop: Header=BB50_8 Depth=1
	jmp	.LBB50_38
.LBB50_38:                              # %if.end112
                                        #   in Loop: Header=BB50_8 Depth=1
	jmp	.LBB50_39
.LBB50_39:                              # %if.end113
                                        #   in Loop: Header=BB50_8 Depth=1
	jmp	.LBB50_40
.LBB50_40:                              # %for.inc114
                                        #   in Loop: Header=BB50_8 Depth=1
	movl	-60(%rbp), %eax
	addl	-56(%rbp), %eax
	movl	%eax, -56(%rbp)
	jmp	.LBB50_8
.LBB50_41:                              # %for.end116
	cmpl	$1440844089, -68(%rbp)  # imm = 0x55E18939
	jne	.LBB50_43
.LBB50_42:
	addq	$80, %rsp
	popq	%rbp
	.cfi_def_cfa %rsp, 8
	retq
.LBB50_43:                              # %func_exit
	.cfi_def_cfa %rbp, 16
	callq	detect_breach
	jmp	.LBB50_42
.Lfunc_end50:
	.size	FmoGenerateType3MapUnitMap.30, .Lfunc_end50-FmoGenerateType3MapUnitMap.30
	.cfi_endproc
                                        # -- End function
	.globl	FmoInit.31              # -- Begin function FmoInit.31
	.p2align	4, 0x90
	.type	FmoInit.31,@function
FmoInit.31:                             # @FmoInit.31
	.cfi_startproc
# %bb.0:                                # %entry
	pushq	%rbp
	.cfi_def_cfa_offset 16
	.cfi_offset %rbp, -16
	movq	%rsp, %rbp
	.cfi_def_cfa_register %rbp
	subq	$32, %rsp
	movl	$683355535, -8(%rbp)    # imm = 0x28BB2D8F
	movq	%rdi, -16(%rbp)
	movq	%rsi, -32(%rbp)
	movq	%rdx, -24(%rbp)
	movl	$0, -4(%rbp)
.LBB51_1:                               # %for.cond
                                        # =>This Inner Loop Header: Depth=1
	cmpl	$8, -4(%rbp)
	jge	.LBB51_4
# %bb.2:                                # %for.body
                                        #   in Loop: Header=BB51_1 Depth=1
	movslq	-4(%rbp), %rax
	movl	$-1, FirstMBInSlice(,%rax,4)
# %bb.3:                                # %for.inc
                                        #   in Loop: Header=BB51_1 Depth=1
	movl	-4(%rbp), %eax
	addl	$1, %eax
	movl	%eax, -4(%rbp)
	jmp	.LBB51_1
.LBB51_4:                               # %for.end
	movq	-16(%rbp), %rdi
	movq	-32(%rbp), %rsi
	callq	FmoGenerateMapUnitToSliceGroupMap
	movq	-16(%rbp), %rdi
	movq	-24(%rbp), %rsi
	callq	FmoGenerateMBAmap
	cmpl	$683355535, -8(%rbp)    # imm = 0x28BB2D8F
	jne	.LBB51_6
.LBB51_5:
	xorl	%eax, %eax
	addq	$32, %rsp
	popq	%rbp
	.cfi_def_cfa %rsp, 8
	retq
.LBB51_6:                               # %func_exit
	.cfi_def_cfa %rbp, 16
	callq	detect_breach
	jmp	.LBB51_5
.Lfunc_end51:
	.size	FmoInit.31, .Lfunc_end51-FmoInit.31
	.cfi_endproc
                                        # -- End function
	.p2align	4, 0x90         # -- Begin function FmoGenerateType3MapUnitMap.32
	.type	FmoGenerateType3MapUnitMap.32,@function
FmoGenerateType3MapUnitMap.32:          # @FmoGenerateType3MapUnitMap.32
	.cfi_startproc
# %bb.0:                                # %entry
	pushq	%rbp
	.cfi_def_cfa_offset 16
	.cfi_offset %rbp, -16
	movq	%rsp, %rbp
	.cfi_def_cfa_register %rbp
	subq	$80, %rsp
	movl	$457521130, -64(%rbp)   # imm = 0x1B4537EA
	movq	%rdi, -48(%rbp)
	movq	%rsi, -40(%rbp)
	movq	-40(%rbp), %rax
	movl	168(%rax), %eax
	addl	$1, %eax
	movq	-48(%rbp), %rcx
	imull	72652(%rcx), %eax
	cmpl	PicSizeInMapUnits, %eax
	jae	.LBB52_2
# %bb.1:                                # %cond.true
	movq	-40(%rbp), %rax
	movl	168(%rax), %eax
	addl	$1, %eax
	movq	-48(%rbp), %rcx
	imull	72652(%rcx), %eax
	jmp	.LBB52_3
.LBB52_2:                               # %cond.false
	movl	PicSizeInMapUnits, %eax
.LBB52_3:                               # %cond.end
	movl	%eax, -68(%rbp)
	movl	$0, -52(%rbp)
.LBB52_4:                               # %for.cond
                                        # =>This Inner Loop Header: Depth=1
	movl	-52(%rbp), %eax
	cmpl	PicSizeInMapUnits, %eax
	jae	.LBB52_7
# %bb.5:                                # %for.body
                                        #   in Loop: Header=BB52_4 Depth=1
	movq	MapUnitToSliceGroupMap, %rax
	movl	-52(%rbp), %ecx
	movb	$2, (%rax,%rcx)
# %bb.6:                                # %for.inc
                                        #   in Loop: Header=BB52_4 Depth=1
	movl	-52(%rbp), %eax
	addl	$1, %eax
	movl	%eax, -52(%rbp)
	jmp	.LBB52_4
.LBB52_7:                               # %for.end
	movq	-48(%rbp), %rax
	movl	72468(%rax), %eax
	movq	-40(%rbp), %rcx
	subl	164(%rcx), %eax
	shrl	$1, %eax
	movl	%eax, -8(%rbp)
	movq	-48(%rbp), %rax
	movl	72472(%rax), %eax
	movq	-40(%rbp), %rcx
	subl	164(%rcx), %eax
	shrl	$1, %eax
	movl	%eax, -4(%rbp)
	movl	-8(%rbp), %eax
	movl	%eax, -32(%rbp)
	movl	-4(%rbp), %eax
	movl	%eax, -28(%rbp)
	movl	-8(%rbp), %eax
	movl	%eax, -24(%rbp)
	movl	-4(%rbp), %eax
	movl	%eax, -20(%rbp)
	movq	-40(%rbp), %rax
	movl	164(%rax), %eax
	subl	$1, %eax
	movl	%eax, -12(%rbp)
	movq	-40(%rbp), %rax
	movl	164(%rax), %eax
	movl	%eax, -16(%rbp)
	movl	$0, -56(%rbp)
.LBB52_8:                               # %for.cond12
                                        # =>This Inner Loop Header: Depth=1
	movl	-56(%rbp), %eax
	cmpl	PicSizeInMapUnits, %eax
	jae	.LBB52_41
# %bb.9:                                # %for.body14
                                        #   in Loop: Header=BB52_8 Depth=1
	movq	MapUnitToSliceGroupMap, %rax
	movl	-4(%rbp), %ecx
	movq	-48(%rbp), %rdx
	imull	72468(%rdx), %ecx
	addl	-8(%rbp), %ecx
	movl	%ecx, %ecx
	movzbl	(%rax,%rcx), %eax
	cmpl	$2, %eax
	sete	%al
	andb	$1, %al
	movzbl	%al, %eax
	movl	%eax, -60(%rbp)
	cmpl	$0, -60(%rbp)
	je	.LBB52_11
# %bb.10:                               # %if.then
                                        #   in Loop: Header=BB52_8 Depth=1
	movl	-56(%rbp), %eax
	cmpl	-68(%rbp), %eax
	setae	%al
	andb	$1, %al
	movzbl	%al, %eax
	movq	MapUnitToSliceGroupMap, %rcx
	movl	-4(%rbp), %edx
	movq	-48(%rbp), %rsi
	imull	72468(%rsi), %edx
	addl	-8(%rbp), %edx
	movl	%edx, %edx
	movb	%al, (%rcx,%rdx)
.LBB52_11:                              # %if.end
                                        #   in Loop: Header=BB52_8 Depth=1
	cmpl	$-1, -12(%rbp)
	jne	.LBB52_17
# %bb.12:                               # %land.lhs.true
                                        #   in Loop: Header=BB52_8 Depth=1
	movl	-8(%rbp), %eax
	cmpl	-32(%rbp), %eax
	jne	.LBB52_17
# %bb.13:                               # %if.then34
                                        #   in Loop: Header=BB52_8 Depth=1
	movl	-32(%rbp), %eax
	subl	$1, %eax
	cmpl	$0, %eax
	jle	.LBB52_15
# %bb.14:                               # %cond.true38
                                        #   in Loop: Header=BB52_8 Depth=1
	movl	-32(%rbp), %eax
	subl	$1, %eax
	jmp	.LBB52_16
.LBB52_15:                              # %cond.false40
                                        #   in Loop: Header=BB52_8 Depth=1
	xorl	%eax, %eax
	jmp	.LBB52_16
.LBB52_16:                              # %cond.end41
                                        #   in Loop: Header=BB52_8 Depth=1
	movl	%eax, -32(%rbp)
	movl	-32(%rbp), %eax
	movl	%eax, -8(%rbp)
	movl	$0, -12(%rbp)
	movq	-40(%rbp), %rax
	movl	164(%rax), %eax
	shll	$1, %eax
	subl	$1, %eax
	movl	%eax, -16(%rbp)
	jmp	.LBB52_39
.LBB52_17:                              # %if.else
                                        #   in Loop: Header=BB52_8 Depth=1
	cmpl	$1, -12(%rbp)
	jne	.LBB52_23
# %bb.18:                               # %land.lhs.true48
                                        #   in Loop: Header=BB52_8 Depth=1
	movl	-8(%rbp), %eax
	cmpl	-24(%rbp), %eax
	jne	.LBB52_23
# %bb.19:                               # %if.then51
                                        #   in Loop: Header=BB52_8 Depth=1
	movl	-24(%rbp), %eax
	addl	$1, %eax
	movq	-48(%rbp), %rcx
	movl	72468(%rcx), %ecx
	subl	$1, %ecx
	cmpl	%ecx, %eax
	jge	.LBB52_21
# %bb.20:                               # %cond.true57
                                        #   in Loop: Header=BB52_8 Depth=1
	movl	-24(%rbp), %eax
	addl	$1, %eax
	jmp	.LBB52_22
.LBB52_21:                              # %cond.false59
                                        #   in Loop: Header=BB52_8 Depth=1
	movq	-48(%rbp), %rax
	movl	72468(%rax), %eax
	subl	$1, %eax
.LBB52_22:                              # %cond.end62
                                        #   in Loop: Header=BB52_8 Depth=1
	movl	%eax, -24(%rbp)
	movl	-24(%rbp), %eax
	movl	%eax, -8(%rbp)
	movl	$0, -12(%rbp)
	movq	-40(%rbp), %rax
	movl	164(%rax), %eax
	shll	$1, %eax
	movl	$1, %ecx
	subl	%eax, %ecx
	movl	%ecx, -16(%rbp)
	jmp	.LBB52_38
.LBB52_23:                              # %if.else67
                                        #   in Loop: Header=BB52_8 Depth=1
	cmpl	$-1, -16(%rbp)
	jne	.LBB52_29
# %bb.24:                               # %land.lhs.true70
                                        #   in Loop: Header=BB52_8 Depth=1
	movl	-4(%rbp), %eax
	cmpl	-28(%rbp), %eax
	jne	.LBB52_29
# %bb.25:                               # %if.then73
                                        #   in Loop: Header=BB52_8 Depth=1
	movl	-28(%rbp), %eax
	subl	$1, %eax
	cmpl	$0, %eax
	jle	.LBB52_27
# %bb.26:                               # %cond.true77
                                        #   in Loop: Header=BB52_8 Depth=1
	movl	-28(%rbp), %eax
	subl	$1, %eax
	jmp	.LBB52_28
.LBB52_27:                              # %cond.false79
                                        #   in Loop: Header=BB52_8 Depth=1
	xorl	%eax, %eax
	jmp	.LBB52_28
.LBB52_28:                              # %cond.end80
                                        #   in Loop: Header=BB52_8 Depth=1
	movl	%eax, -28(%rbp)
	movl	-28(%rbp), %eax
	movl	%eax, -4(%rbp)
	movq	-40(%rbp), %rax
	movl	164(%rax), %eax
	shll	$1, %eax
	movl	$1, %ecx
	subl	%eax, %ecx
	movl	%ecx, -12(%rbp)
	movl	$0, -16(%rbp)
	jmp	.LBB52_37
.LBB52_29:                              # %if.else85
                                        #   in Loop: Header=BB52_8 Depth=1
	cmpl	$1, -16(%rbp)
	jne	.LBB52_35
# %bb.30:                               # %land.lhs.true88
                                        #   in Loop: Header=BB52_8 Depth=1
	movl	-4(%rbp), %eax
	cmpl	-20(%rbp), %eax
	jne	.LBB52_35
# %bb.31:                               # %if.then91
                                        #   in Loop: Header=BB52_8 Depth=1
	movl	-20(%rbp), %eax
	addl	$1, %eax
	movq	-48(%rbp), %rcx
	movl	72472(%rcx), %ecx
	subl	$1, %ecx
	cmpl	%ecx, %eax
	jge	.LBB52_33
# %bb.32:                               # %cond.true97
                                        #   in Loop: Header=BB52_8 Depth=1
	movl	-20(%rbp), %eax
	addl	$1, %eax
	jmp	.LBB52_34
.LBB52_33:                              # %cond.false99
                                        #   in Loop: Header=BB52_8 Depth=1
	movq	-48(%rbp), %rax
	movl	72472(%rax), %eax
	subl	$1, %eax
.LBB52_34:                              # %cond.end102
                                        #   in Loop: Header=BB52_8 Depth=1
	movl	%eax, -20(%rbp)
	movl	-20(%rbp), %eax
	movl	%eax, -4(%rbp)
	movq	-40(%rbp), %rax
	movl	164(%rax), %eax
	shll	$1, %eax
	subl	$1, %eax
	movl	%eax, -12(%rbp)
	movl	$0, -16(%rbp)
	jmp	.LBB52_36
.LBB52_35:                              # %if.else107
                                        #   in Loop: Header=BB52_8 Depth=1
	movl	-8(%rbp), %eax
	addl	-12(%rbp), %eax
	movl	%eax, -8(%rbp)
	movl	-4(%rbp), %eax
	addl	-16(%rbp), %eax
	movl	%eax, -4(%rbp)
.LBB52_36:                              # %if.end110
                                        #   in Loop: Header=BB52_8 Depth=1
	jmp	.LBB52_37
.LBB52_37:                              # %if.end111
                                        #   in Loop: Header=BB52_8 Depth=1
	jmp	.LBB52_38
.LBB52_38:                              # %if.end112
                                        #   in Loop: Header=BB52_8 Depth=1
	jmp	.LBB52_39
.LBB52_39:                              # %if.end113
                                        #   in Loop: Header=BB52_8 Depth=1
	jmp	.LBB52_40
.LBB52_40:                              # %for.inc114
                                        #   in Loop: Header=BB52_8 Depth=1
	movl	-60(%rbp), %eax
	addl	-56(%rbp), %eax
	movl	%eax, -56(%rbp)
	jmp	.LBB52_8
.LBB52_41:                              # %for.end116
	cmpl	$457521130, -64(%rbp)   # imm = 0x1B4537EA
	jne	.LBB52_43
.LBB52_42:
	addq	$80, %rsp
	popq	%rbp
	.cfi_def_cfa %rsp, 8
	retq
.LBB52_43:                              # %func_exit
	.cfi_def_cfa %rbp, 16
	callq	detect_breach
	jmp	.LBB52_42
.Lfunc_end52:
	.size	FmoGenerateType3MapUnitMap.32, .Lfunc_end52-FmoGenerateType3MapUnitMap.32
	.cfi_endproc
                                        # -- End function
	.globl	FmoGetLastCodedMBOfSliceGroup.33 # -- Begin function FmoGetLastCodedMBOfSliceGroup.33
	.p2align	4, 0x90
	.type	FmoGetLastCodedMBOfSliceGroup.33,@function
FmoGetLastCodedMBOfSliceGroup.33:       # @FmoGetLastCodedMBOfSliceGroup.33
	.cfi_startproc
# %bb.0:                                # %entry
	pushq	%rbp
	.cfi_def_cfa_offset 16
	.cfi_offset %rbp, -16
	movq	%rsp, %rbp
	.cfi_def_cfa_register %rbp
	pushq	%rbx
	subq	$24, %rsp
	.cfi_offset %rbx, -24
	movl	$388703594, -20(%rbp)   # imm = 0x172B256A
	movl	%edi, -24(%rbp)
	movl	$-1, -16(%rbp)
	movl	$0, -12(%rbp)
.LBB53_1:                               # %for.cond
                                        # =>This Inner Loop Header: Depth=1
	movl	-12(%rbp), %eax
	movq	img, %rcx
	cmpl	72484(%rcx), %eax
	jge	.LBB53_6
# %bb.2:                                # %for.body
                                        #   in Loop: Header=BB53_1 Depth=1
	movl	-12(%rbp), %edi
	callq	FmoMB2SliceGroup
	cmpl	-24(%rbp), %eax
	jne	.LBB53_4
# %bb.3:                                # %if.then
                                        #   in Loop: Header=BB53_1 Depth=1
	movl	-12(%rbp), %eax
	movl	%eax, -16(%rbp)
.LBB53_4:                               # %if.end
                                        #   in Loop: Header=BB53_1 Depth=1
	jmp	.LBB53_5
.LBB53_5:                               # %for.inc
                                        #   in Loop: Header=BB53_1 Depth=1
	movl	-12(%rbp), %eax
	addl	$1, %eax
	movl	%eax, -12(%rbp)
	jmp	.LBB53_1
.LBB53_6:                               # %for.end
	movl	-16(%rbp), %ebx
	cmpl	$388703594, -20(%rbp)   # imm = 0x172B256A
	jne	.LBB53_8
.LBB53_7:
	movl	%ebx, %eax
	addq	$24, %rsp
	popq	%rbx
	popq	%rbp
	.cfi_def_cfa %rsp, 8
	retq
.LBB53_8:                               # %func_exit
	.cfi_def_cfa %rbp, 16
	callq	detect_breach
	jmp	.LBB53_7
.Lfunc_end53:
	.size	FmoGetLastCodedMBOfSliceGroup.33, .Lfunc_end53-FmoGetLastCodedMBOfSliceGroup.33
	.cfi_endproc
                                        # -- End function
	.globl	FmoSliceGroupCompletelyCoded.34 # -- Begin function FmoSliceGroupCompletelyCoded.34
	.p2align	4, 0x90
	.type	FmoSliceGroupCompletelyCoded.34,@function
FmoSliceGroupCompletelyCoded.34:        # @FmoSliceGroupCompletelyCoded.34
	.cfi_startproc
# %bb.0:                                # %entry
	pushq	%rbp
	.cfi_def_cfa_offset 16
	.cfi_offset %rbp, -16
	movq	%rsp, %rbp
	.cfi_def_cfa_register %rbp
	pushq	%rbx
	subq	$24, %rsp
	.cfi_offset %rbx, -24
	movl	$2027409702, -20(%rbp)  # imm = 0x78D7D126
	movl	%edi, -16(%rbp)
	movl	-16(%rbp), %edi
	callq	FmoGetFirstMacroblockInSlice
	cmpl	$0, %eax
	jge	.LBB54_2
# %bb.1:                                # %if.then
	movl	$1, -12(%rbp)
	jmp	.LBB54_3
.LBB54_2:                               # %if.else
	movl	$0, -12(%rbp)
.LBB54_3:                               # %return
	movl	-12(%rbp), %ebx
	cmpl	$2027409702, -20(%rbp)  # imm = 0x78D7D126
	jne	.LBB54_5
.LBB54_4:
	movl	%ebx, %eax
	addq	$24, %rsp
	popq	%rbx
	popq	%rbp
	.cfi_def_cfa %rsp, 8
	retq
.LBB54_5:                               # %func_exit
	.cfi_def_cfa %rbp, 16
	callq	detect_breach
	jmp	.LBB54_4
.Lfunc_end54:
	.size	FmoSliceGroupCompletelyCoded.34, .Lfunc_end54-FmoSliceGroupCompletelyCoded.34
	.cfi_endproc
                                        # -- End function
	.p2align	4, 0x90         # -- Begin function FmoGenerateType3MapUnitMap.35
	.type	FmoGenerateType3MapUnitMap.35,@function
FmoGenerateType3MapUnitMap.35:          # @FmoGenerateType3MapUnitMap.35
	.cfi_startproc
# %bb.0:                                # %entry
	pushq	%rbp
	.cfi_def_cfa_offset 16
	.cfi_offset %rbp, -16
	movq	%rsp, %rbp
	.cfi_def_cfa_register %rbp
	subq	$80, %rsp
	movl	$187453224, -68(%rbp)   # imm = 0xB2C4F28
	movq	%rdi, -48(%rbp)
	movq	%rsi, -40(%rbp)
	movq	-40(%rbp), %rax
	movl	168(%rax), %eax
	addl	$1, %eax
	movq	-48(%rbp), %rcx
	imull	72652(%rcx), %eax
	cmpl	PicSizeInMapUnits, %eax
	jae	.LBB55_2
# %bb.1:                                # %cond.true
	movq	-40(%rbp), %rax
	movl	168(%rax), %eax
	addl	$1, %eax
	movq	-48(%rbp), %rcx
	imull	72652(%rcx), %eax
	jmp	.LBB55_3
.LBB55_2:                               # %cond.false
	movl	PicSizeInMapUnits, %eax
.LBB55_3:                               # %cond.end
	movl	%eax, -64(%rbp)
	movl	$0, -56(%rbp)
.LBB55_4:                               # %for.cond
                                        # =>This Inner Loop Header: Depth=1
	movl	-56(%rbp), %eax
	cmpl	PicSizeInMapUnits, %eax
	jae	.LBB55_7
# %bb.5:                                # %for.body
                                        #   in Loop: Header=BB55_4 Depth=1
	movq	MapUnitToSliceGroupMap, %rax
	movl	-56(%rbp), %ecx
	movb	$2, (%rax,%rcx)
# %bb.6:                                # %for.inc
                                        #   in Loop: Header=BB55_4 Depth=1
	movl	-56(%rbp), %eax
	addl	$1, %eax
	movl	%eax, -56(%rbp)
	jmp	.LBB55_4
.LBB55_7:                               # %for.end
	movq	-48(%rbp), %rax
	movl	72468(%rax), %eax
	movq	-40(%rbp), %rcx
	subl	164(%rcx), %eax
	shrl	$1, %eax
	movl	%eax, -4(%rbp)
	movq	-48(%rbp), %rax
	movl	72472(%rax), %eax
	movq	-40(%rbp), %rcx
	subl	164(%rcx), %eax
	shrl	$1, %eax
	movl	%eax, -8(%rbp)
	movl	-4(%rbp), %eax
	movl	%eax, -20(%rbp)
	movl	-8(%rbp), %eax
	movl	%eax, -32(%rbp)
	movl	-4(%rbp), %eax
	movl	%eax, -24(%rbp)
	movl	-8(%rbp), %eax
	movl	%eax, -28(%rbp)
	movq	-40(%rbp), %rax
	movl	164(%rax), %eax
	subl	$1, %eax
	movl	%eax, -12(%rbp)
	movq	-40(%rbp), %rax
	movl	164(%rax), %eax
	movl	%eax, -16(%rbp)
	movl	$0, -52(%rbp)
.LBB55_8:                               # %for.cond12
                                        # =>This Inner Loop Header: Depth=1
	movl	-52(%rbp), %eax
	cmpl	PicSizeInMapUnits, %eax
	jae	.LBB55_41
# %bb.9:                                # %for.body14
                                        #   in Loop: Header=BB55_8 Depth=1
	movq	MapUnitToSliceGroupMap, %rax
	movl	-8(%rbp), %ecx
	movq	-48(%rbp), %rdx
	imull	72468(%rdx), %ecx
	addl	-4(%rbp), %ecx
	movl	%ecx, %ecx
	movzbl	(%rax,%rcx), %eax
	cmpl	$2, %eax
	sete	%al
	andb	$1, %al
	movzbl	%al, %eax
	movl	%eax, -60(%rbp)
	cmpl	$0, -60(%rbp)
	je	.LBB55_11
# %bb.10:                               # %if.then
                                        #   in Loop: Header=BB55_8 Depth=1
	movl	-52(%rbp), %eax
	cmpl	-64(%rbp), %eax
	setae	%al
	andb	$1, %al
	movzbl	%al, %eax
	movq	MapUnitToSliceGroupMap, %rcx
	movl	-8(%rbp), %edx
	movq	-48(%rbp), %rsi
	imull	72468(%rsi), %edx
	addl	-4(%rbp), %edx
	movl	%edx, %edx
	movb	%al, (%rcx,%rdx)
.LBB55_11:                              # %if.end
                                        #   in Loop: Header=BB55_8 Depth=1
	cmpl	$-1, -12(%rbp)
	jne	.LBB55_17
# %bb.12:                               # %land.lhs.true
                                        #   in Loop: Header=BB55_8 Depth=1
	movl	-4(%rbp), %eax
	cmpl	-20(%rbp), %eax
	jne	.LBB55_17
# %bb.13:                               # %if.then34
                                        #   in Loop: Header=BB55_8 Depth=1
	movl	-20(%rbp), %eax
	subl	$1, %eax
	cmpl	$0, %eax
	jle	.LBB55_15
# %bb.14:                               # %cond.true38
                                        #   in Loop: Header=BB55_8 Depth=1
	movl	-20(%rbp), %eax
	subl	$1, %eax
	jmp	.LBB55_16
.LBB55_15:                              # %cond.false40
                                        #   in Loop: Header=BB55_8 Depth=1
	xorl	%eax, %eax
	jmp	.LBB55_16
.LBB55_16:                              # %cond.end41
                                        #   in Loop: Header=BB55_8 Depth=1
	movl	%eax, -20(%rbp)
	movl	-20(%rbp), %eax
	movl	%eax, -4(%rbp)
	movl	$0, -12(%rbp)
	movq	-40(%rbp), %rax
	movl	164(%rax), %eax
	shll	$1, %eax
	subl	$1, %eax
	movl	%eax, -16(%rbp)
	jmp	.LBB55_39
.LBB55_17:                              # %if.else
                                        #   in Loop: Header=BB55_8 Depth=1
	cmpl	$1, -12(%rbp)
	jne	.LBB55_23
# %bb.18:                               # %land.lhs.true48
                                        #   in Loop: Header=BB55_8 Depth=1
	movl	-4(%rbp), %eax
	cmpl	-24(%rbp), %eax
	jne	.LBB55_23
# %bb.19:                               # %if.then51
                                        #   in Loop: Header=BB55_8 Depth=1
	movl	-24(%rbp), %eax
	addl	$1, %eax
	movq	-48(%rbp), %rcx
	movl	72468(%rcx), %ecx
	subl	$1, %ecx
	cmpl	%ecx, %eax
	jge	.LBB55_21
# %bb.20:                               # %cond.true57
                                        #   in Loop: Header=BB55_8 Depth=1
	movl	-24(%rbp), %eax
	addl	$1, %eax
	jmp	.LBB55_22
.LBB55_21:                              # %cond.false59
                                        #   in Loop: Header=BB55_8 Depth=1
	movq	-48(%rbp), %rax
	movl	72468(%rax), %eax
	subl	$1, %eax
.LBB55_22:                              # %cond.end62
                                        #   in Loop: Header=BB55_8 Depth=1
	movl	%eax, -24(%rbp)
	movl	-24(%rbp), %eax
	movl	%eax, -4(%rbp)
	movl	$0, -12(%rbp)
	movq	-40(%rbp), %rax
	movl	164(%rax), %eax
	shll	$1, %eax
	movl	$1, %ecx
	subl	%eax, %ecx
	movl	%ecx, -16(%rbp)
	jmp	.LBB55_38
.LBB55_23:                              # %if.else67
                                        #   in Loop: Header=BB55_8 Depth=1
	cmpl	$-1, -16(%rbp)
	jne	.LBB55_29
# %bb.24:                               # %land.lhs.true70
                                        #   in Loop: Header=BB55_8 Depth=1
	movl	-8(%rbp), %eax
	cmpl	-32(%rbp), %eax
	jne	.LBB55_29
# %bb.25:                               # %if.then73
                                        #   in Loop: Header=BB55_8 Depth=1
	movl	-32(%rbp), %eax
	subl	$1, %eax
	cmpl	$0, %eax
	jle	.LBB55_27
# %bb.26:                               # %cond.true77
                                        #   in Loop: Header=BB55_8 Depth=1
	movl	-32(%rbp), %eax
	subl	$1, %eax
	jmp	.LBB55_28
.LBB55_27:                              # %cond.false79
                                        #   in Loop: Header=BB55_8 Depth=1
	xorl	%eax, %eax
	jmp	.LBB55_28
.LBB55_28:                              # %cond.end80
                                        #   in Loop: Header=BB55_8 Depth=1
	movl	%eax, -32(%rbp)
	movl	-32(%rbp), %eax
	movl	%eax, -8(%rbp)
	movq	-40(%rbp), %rax
	movl	164(%rax), %eax
	shll	$1, %eax
	movl	$1, %ecx
	subl	%eax, %ecx
	movl	%ecx, -12(%rbp)
	movl	$0, -16(%rbp)
	jmp	.LBB55_37
.LBB55_29:                              # %if.else85
                                        #   in Loop: Header=BB55_8 Depth=1
	cmpl	$1, -16(%rbp)
	jne	.LBB55_35
# %bb.30:                               # %land.lhs.true88
                                        #   in Loop: Header=BB55_8 Depth=1
	movl	-8(%rbp), %eax
	cmpl	-28(%rbp), %eax
	jne	.LBB55_35
# %bb.31:                               # %if.then91
                                        #   in Loop: Header=BB55_8 Depth=1
	movl	-28(%rbp), %eax
	addl	$1, %eax
	movq	-48(%rbp), %rcx
	movl	72472(%rcx), %ecx
	subl	$1, %ecx
	cmpl	%ecx, %eax
	jge	.LBB55_33
# %bb.32:                               # %cond.true97
                                        #   in Loop: Header=BB55_8 Depth=1
	movl	-28(%rbp), %eax
	addl	$1, %eax
	jmp	.LBB55_34
.LBB55_33:                              # %cond.false99
                                        #   in Loop: Header=BB55_8 Depth=1
	movq	-48(%rbp), %rax
	movl	72472(%rax), %eax
	subl	$1, %eax
.LBB55_34:                              # %cond.end102
                                        #   in Loop: Header=BB55_8 Depth=1
	movl	%eax, -28(%rbp)
	movl	-28(%rbp), %eax
	movl	%eax, -8(%rbp)
	movq	-40(%rbp), %rax
	movl	164(%rax), %eax
	shll	$1, %eax
	subl	$1, %eax
	movl	%eax, -12(%rbp)
	movl	$0, -16(%rbp)
	jmp	.LBB55_36
.LBB55_35:                              # %if.else107
                                        #   in Loop: Header=BB55_8 Depth=1
	movl	-4(%rbp), %eax
	addl	-12(%rbp), %eax
	movl	%eax, -4(%rbp)
	movl	-8(%rbp), %eax
	addl	-16(%rbp), %eax
	movl	%eax, -8(%rbp)
.LBB55_36:                              # %if.end110
                                        #   in Loop: Header=BB55_8 Depth=1
	jmp	.LBB55_37
.LBB55_37:                              # %if.end111
                                        #   in Loop: Header=BB55_8 Depth=1
	jmp	.LBB55_38
.LBB55_38:                              # %if.end112
                                        #   in Loop: Header=BB55_8 Depth=1
	jmp	.LBB55_39
.LBB55_39:                              # %if.end113
                                        #   in Loop: Header=BB55_8 Depth=1
	jmp	.LBB55_40
.LBB55_40:                              # %for.inc114
                                        #   in Loop: Header=BB55_8 Depth=1
	movl	-60(%rbp), %eax
	addl	-52(%rbp), %eax
	movl	%eax, -52(%rbp)
	jmp	.LBB55_8
.LBB55_41:                              # %for.end116
	cmpl	$187453224, -68(%rbp)   # imm = 0xB2C4F28
	jne	.LBB55_43
.LBB55_42:
	addq	$80, %rsp
	popq	%rbp
	.cfi_def_cfa %rsp, 8
	retq
.LBB55_43:                              # %func_exit
	.cfi_def_cfa %rbp, 16
	callq	detect_breach
	jmp	.LBB55_42
.Lfunc_end55:
	.size	FmoGenerateType3MapUnitMap.35, .Lfunc_end55-FmoGenerateType3MapUnitMap.35
	.cfi_endproc
                                        # -- End function
	.globl	FmoGetPreviousMBNr.36   # -- Begin function FmoGetPreviousMBNr.36
	.p2align	4, 0x90
	.type	FmoGetPreviousMBNr.36,@function
FmoGetPreviousMBNr.36:                  # @FmoGetPreviousMBNr.36
	.cfi_startproc
# %bb.0:                                # %entry
	pushq	%rbp
	.cfi_def_cfa_offset 16
	.cfi_offset %rbp, -16
	movq	%rsp, %rbp
	.cfi_def_cfa_register %rbp
	pushq	%rbx
	subq	$24, %rsp
	.cfi_offset %rbx, -24
	movl	$650721142, -24(%rbp)   # imm = 0x26C93776
	movl	%edi, -12(%rbp)
	movl	-12(%rbp), %edi
	callq	FmoMB2SliceGroup
	movl	%eax, -20(%rbp)
	movl	-12(%rbp), %eax
	addl	$-1, %eax
	movl	%eax, -12(%rbp)
.LBB56_1:                               # %while.cond
                                        # =>This Inner Loop Header: Depth=1
	xorl	%eax, %eax
	cmpl	$0, -12(%rbp)
	jl	.LBB56_3
# %bb.2:                                # %land.rhs
                                        #   in Loop: Header=BB56_1 Depth=1
	movq	MBAmap, %rax
	movslq	-12(%rbp), %rcx
	movzbl	(%rax,%rcx), %eax
	cmpl	-20(%rbp), %eax
	setne	%al
.LBB56_3:                               # %land.end
                                        #   in Loop: Header=BB56_1 Depth=1
	testb	$1, %al
	jne	.LBB56_4
	jmp	.LBB56_5
.LBB56_4:                               # %while.body
                                        #   in Loop: Header=BB56_1 Depth=1
	movl	-12(%rbp), %eax
	addl	$-1, %eax
	movl	%eax, -12(%rbp)
	jmp	.LBB56_1
.LBB56_5:                               # %while.end
	cmpl	$0, -12(%rbp)
	jge	.LBB56_7
# %bb.6:                                # %if.then
	movl	$-1, -16(%rbp)
	jmp	.LBB56_8
.LBB56_7:                               # %if.else
	movl	-12(%rbp), %eax
	movl	%eax, -16(%rbp)
.LBB56_8:                               # %return
	movl	-16(%rbp), %ebx
	cmpl	$650721142, -24(%rbp)   # imm = 0x26C93776
	jne	.LBB56_10
.LBB56_9:
	movl	%ebx, %eax
	addq	$24, %rsp
	popq	%rbx
	popq	%rbp
	.cfi_def_cfa %rsp, 8
	retq
.LBB56_10:                              # %func_exit
	.cfi_def_cfa %rbp, 16
	callq	detect_breach
	jmp	.LBB56_9
.Lfunc_end56:
	.size	FmoGetPreviousMBNr.36, .Lfunc_end56-FmoGetPreviousMBNr.36
	.cfi_endproc
                                        # -- End function
	.p2align	4, 0x90         # -- Begin function FmoGenerateType2MapUnitMap.37
	.type	FmoGenerateType2MapUnitMap.37,@function
FmoGenerateType2MapUnitMap.37:          # @FmoGenerateType2MapUnitMap.37
	.cfi_startproc
# %bb.0:                                # %entry
	pushq	%rbp
	.cfi_def_cfa_offset 16
	.cfi_offset %rbp, -16
	movq	%rsp, %rbp
	.cfi_def_cfa_register %rbp
	subq	$64, %rsp
	movl	$926654126, -52(%rbp)   # imm = 0x373B9EAE
	movq	%rdi, -32(%rbp)
	movq	%rsi, -24(%rbp)
	movl	$0, -8(%rbp)
.LBB57_1:                               # %for.cond
                                        # =>This Inner Loop Header: Depth=1
	movl	-8(%rbp), %eax
	cmpl	PicSizeInMapUnits, %eax
	jae	.LBB57_4
# %bb.2:                                # %for.body
                                        #   in Loop: Header=BB57_1 Depth=1
	movq	-24(%rbp), %rax
	movl	60(%rax), %eax
	movq	MapUnitToSliceGroupMap, %rcx
	movl	-8(%rbp), %edx
	movb	%al, (%rcx,%rdx)
# %bb.3:                                # %for.inc
                                        #   in Loop: Header=BB57_1 Depth=1
	movl	-8(%rbp), %eax
	addl	$1, %eax
	movl	%eax, -8(%rbp)
	jmp	.LBB57_1
.LBB57_4:                               # %for.end
	movq	-24(%rbp), %rax
	movl	60(%rax), %eax
	subl	$1, %eax
	movl	%eax, -4(%rbp)
.LBB57_5:                               # %for.cond2
                                        # =>This Loop Header: Depth=1
                                        #     Child Loop BB57_7 Depth 2
                                        #       Child Loop BB57_9 Depth 3
	cmpl	$0, -4(%rbp)
	jl	.LBB57_16
# %bb.6:                                # %for.body5
                                        #   in Loop: Header=BB57_5 Depth=1
	movq	-24(%rbp), %rax
	movslq	-4(%rbp), %rcx
	movl	100(%rax,%rcx,4), %eax
	movq	-32(%rbp), %rcx
	xorl	%edx, %edx
	divl	72468(%rcx)
	movl	%eax, -36(%rbp)
	movq	-24(%rbp), %rax
	movslq	-4(%rbp), %rcx
	movl	100(%rax,%rcx,4), %eax
	movq	-32(%rbp), %rcx
	xorl	%edx, %edx
	divl	72468(%rcx)
	movl	%edx, -44(%rbp)
	movq	-24(%rbp), %rax
	movslq	-4(%rbp), %rcx
	movl	132(%rax,%rcx,4), %eax
	movq	-32(%rbp), %rcx
	xorl	%edx, %edx
	divl	72468(%rcx)
	movl	%eax, -40(%rbp)
	movq	-24(%rbp), %rax
	movslq	-4(%rbp), %rcx
	movl	132(%rax,%rcx,4), %eax
	movq	-32(%rbp), %rcx
	xorl	%edx, %edx
	divl	72468(%rcx)
	movl	%edx, -48(%rbp)
	movl	-36(%rbp), %eax
	movl	%eax, -12(%rbp)
.LBB57_7:                               # %for.cond21
                                        #   Parent Loop BB57_5 Depth=1
                                        # =>  This Loop Header: Depth=2
                                        #       Child Loop BB57_9 Depth 3
	movl	-12(%rbp), %eax
	cmpl	-40(%rbp), %eax
	ja	.LBB57_14
# %bb.8:                                # %for.body24
                                        #   in Loop: Header=BB57_7 Depth=2
	movl	-44(%rbp), %eax
	movl	%eax, -16(%rbp)
.LBB57_9:                               # %for.cond25
                                        #   Parent Loop BB57_5 Depth=1
                                        #     Parent Loop BB57_7 Depth=2
                                        # =>    This Inner Loop Header: Depth=3
	movl	-16(%rbp), %eax
	cmpl	-48(%rbp), %eax
	ja	.LBB57_12
# %bb.10:                               # %for.body28
                                        #   in Loop: Header=BB57_9 Depth=3
	movl	-4(%rbp), %eax
	movq	MapUnitToSliceGroupMap, %rcx
	movl	-12(%rbp), %edx
	movq	-32(%rbp), %rsi
	imull	72468(%rsi), %edx
	addl	-16(%rbp), %edx
	movl	%edx, %edx
	movb	%al, (%rcx,%rdx)
# %bb.11:                               # %for.inc33
                                        #   in Loop: Header=BB57_9 Depth=3
	movl	-16(%rbp), %eax
	addl	$1, %eax
	movl	%eax, -16(%rbp)
	jmp	.LBB57_9
.LBB57_12:                              # %for.end35
                                        #   in Loop: Header=BB57_7 Depth=2
	jmp	.LBB57_13
.LBB57_13:                              # %for.inc36
                                        #   in Loop: Header=BB57_7 Depth=2
	movl	-12(%rbp), %eax
	addl	$1, %eax
	movl	%eax, -12(%rbp)
	jmp	.LBB57_7
.LBB57_14:                              # %for.end38
                                        #   in Loop: Header=BB57_5 Depth=1
	jmp	.LBB57_15
.LBB57_15:                              # %for.inc39
                                        #   in Loop: Header=BB57_5 Depth=1
	movl	-4(%rbp), %eax
	addl	$-1, %eax
	movl	%eax, -4(%rbp)
	jmp	.LBB57_5
.LBB57_16:                              # %for.end40
	cmpl	$926654126, -52(%rbp)   # imm = 0x373B9EAE
	jne	.LBB57_18
.LBB57_17:
	addq	$64, %rsp
	popq	%rbp
	.cfi_def_cfa %rsp, 8
	retq
.LBB57_18:                              # %func_exit
	.cfi_def_cfa %rbp, 16
	callq	detect_breach
	jmp	.LBB57_17
.Lfunc_end57:
	.size	FmoGenerateType2MapUnitMap.37, .Lfunc_end57-FmoGenerateType2MapUnitMap.37
	.cfi_endproc
                                        # -- End function
	.p2align	4, 0x90         # -- Begin function FmoGenerateType4MapUnitMap.38
	.type	FmoGenerateType4MapUnitMap.38,@function
FmoGenerateType4MapUnitMap.38:          # @FmoGenerateType4MapUnitMap.38
	.cfi_startproc
# %bb.0:                                # %entry
	pushq	%rbp
	.cfi_def_cfa_offset 16
	.cfi_offset %rbp, -16
	movq	%rsp, %rbp
	.cfi_def_cfa_register %rbp
	subq	$48, %rsp
	movl	$1871711021, -28(%rbp)  # imm = 0x6F900B2D
	movq	%rdi, -40(%rbp)
	movq	%rsi, -16(%rbp)
	movq	-16(%rbp), %rax
	movl	168(%rax), %eax
	addl	$1, %eax
	movq	-40(%rbp), %rcx
	imull	72652(%rcx), %eax
	cmpl	PicSizeInMapUnits, %eax
	jae	.LBB58_2
# %bb.1:                                # %cond.true
	movq	-16(%rbp), %rax
	movl	168(%rax), %eax
	addl	$1, %eax
	movq	-40(%rbp), %rcx
	imull	72652(%rcx), %eax
	jmp	.LBB58_3
.LBB58_2:                               # %cond.false
	movl	PicSizeInMapUnits, %eax
.LBB58_3:                               # %cond.end
	movl	%eax, -20(%rbp)
	movq	-16(%rbp), %rax
	cmpl	$0, 164(%rax)
	je	.LBB58_5
# %bb.4:                                # %cond.true5
	movl	PicSizeInMapUnits, %eax
	subl	-20(%rbp), %eax
	jmp	.LBB58_6
.LBB58_5:                               # %cond.false6
	movl	-20(%rbp), %eax
.LBB58_6:                               # %cond.end7
	movl	%eax, -24(%rbp)
	movl	$0, -4(%rbp)
.LBB58_7:                               # %for.cond
                                        # =>This Inner Loop Header: Depth=1
	movl	-4(%rbp), %eax
	cmpl	PicSizeInMapUnits, %eax
	jae	.LBB58_13
# %bb.8:                                # %for.body
                                        #   in Loop: Header=BB58_7 Depth=1
	movl	-4(%rbp), %eax
	cmpl	-24(%rbp), %eax
	jae	.LBB58_10
# %bb.9:                                # %if.then
                                        #   in Loop: Header=BB58_7 Depth=1
	movq	-16(%rbp), %rax
	movl	164(%rax), %eax
	movq	MapUnitToSliceGroupMap, %rcx
	movl	-4(%rbp), %edx
	movb	%al, (%rcx,%rdx)
	jmp	.LBB58_11
.LBB58_10:                              # %if.else
                                        #   in Loop: Header=BB58_7 Depth=1
	movq	-16(%rbp), %rax
	movl	$1, %ecx
	subl	164(%rax), %ecx
	movq	MapUnitToSliceGroupMap, %rax
	movl	-4(%rbp), %edx
	movb	%cl, (%rax,%rdx)
.LBB58_11:                              # %if.end
                                        #   in Loop: Header=BB58_7 Depth=1
	jmp	.LBB58_12
.LBB58_12:                              # %for.inc
                                        #   in Loop: Header=BB58_7 Depth=1
	movl	-4(%rbp), %eax
	addl	$1, %eax
	movl	%eax, -4(%rbp)
	jmp	.LBB58_7
.LBB58_13:                              # %for.end
	cmpl	$1871711021, -28(%rbp)  # imm = 0x6F900B2D
	jne	.LBB58_15
.LBB58_14:
	addq	$48, %rsp
	popq	%rbp
	.cfi_def_cfa %rsp, 8
	retq
.LBB58_15:                              # %func_exit
	.cfi_def_cfa %rbp, 16
	callq	detect_breach
	jmp	.LBB58_14
.Lfunc_end58:
	.size	FmoGenerateType4MapUnitMap.38, .Lfunc_end58-FmoGenerateType4MapUnitMap.38
	.cfi_endproc
                                        # -- End function
	.p2align	4, 0x90         # -- Begin function FmoGenerateType1MapUnitMap.39
	.type	FmoGenerateType1MapUnitMap.39,@function
FmoGenerateType1MapUnitMap.39:          # @FmoGenerateType1MapUnitMap.39
	.cfi_startproc
# %bb.0:                                # %entry
	pushq	%rbp
	.cfi_def_cfa_offset 16
	.cfi_offset %rbp, -16
	movq	%rsp, %rbp
	.cfi_def_cfa_register %rbp
	subq	$32, %rsp
	movl	$1215494545, -8(%rbp)   # imm = 0x4872F991
	movq	%rdi, -24(%rbp)
	movq	%rsi, -16(%rbp)
	movl	$0, -4(%rbp)
.LBB59_1:                               # %for.cond
                                        # =>This Inner Loop Header: Depth=1
	movl	-4(%rbp), %eax
	cmpl	PicSizeInMapUnits, %eax
	jae	.LBB59_4
# %bb.2:                                # %for.body
                                        #   in Loop: Header=BB59_1 Depth=1
	movl	-4(%rbp), %eax
	movq	-24(%rbp), %rcx
	xorl	%edx, %edx
	divl	72468(%rcx)
	movl	%edx, %ecx
	movl	-4(%rbp), %eax
	movq	-24(%rbp), %rsi
	xorl	%edx, %edx
	divl	72468(%rsi)
	movq	-16(%rbp), %rdx
	movl	60(%rdx), %edx
	addl	$1, %edx
	imull	%edx, %eax
	shrl	$1, %eax
	addl	%eax, %ecx
	movq	-16(%rbp), %rax
	movl	60(%rax), %esi
	addl	$1, %esi
	movl	%ecx, %eax
	xorl	%edx, %edx
	divl	%esi
	movq	MapUnitToSliceGroupMap, %rax
	movl	-4(%rbp), %ecx
	movb	%dl, (%rax,%rcx)
# %bb.3:                                # %for.inc
                                        #   in Loop: Header=BB59_1 Depth=1
	movl	-4(%rbp), %eax
	addl	$1, %eax
	movl	%eax, -4(%rbp)
	jmp	.LBB59_1
.LBB59_4:                               # %for.end
	cmpl	$1215494545, -8(%rbp)   # imm = 0x4872F991
	jne	.LBB59_6
.LBB59_5:
	addq	$32, %rsp
	popq	%rbp
	.cfi_def_cfa %rsp, 8
	retq
.LBB59_6:                               # %func_exit
	.cfi_def_cfa %rbp, 16
	callq	detect_breach
	jmp	.LBB59_5
.Lfunc_end59:
	.size	FmoGenerateType1MapUnitMap.39, .Lfunc_end59-FmoGenerateType1MapUnitMap.39
	.cfi_endproc
                                        # -- End function
	.globl	FmoInit.40              # -- Begin function FmoInit.40
	.p2align	4, 0x90
	.type	FmoInit.40,@function
FmoInit.40:                             # @FmoInit.40
	.cfi_startproc
# %bb.0:                                # %entry
	pushq	%rbp
	.cfi_def_cfa_offset 16
	.cfi_offset %rbp, -16
	movq	%rsp, %rbp
	.cfi_def_cfa_register %rbp
	subq	$32, %rsp
	movl	$1132371334, -8(%rbp)   # imm = 0x437E9D86
	movq	%rdi, -16(%rbp)
	movq	%rsi, -32(%rbp)
	movq	%rdx, -24(%rbp)
	movl	$0, -4(%rbp)
.LBB60_1:                               # %for.cond
                                        # =>This Inner Loop Header: Depth=1
	cmpl	$8, -4(%rbp)
	jge	.LBB60_4
# %bb.2:                                # %for.body
                                        #   in Loop: Header=BB60_1 Depth=1
	movslq	-4(%rbp), %rax
	movl	$-1, FirstMBInSlice(,%rax,4)
# %bb.3:                                # %for.inc
                                        #   in Loop: Header=BB60_1 Depth=1
	movl	-4(%rbp), %eax
	addl	$1, %eax
	movl	%eax, -4(%rbp)
	jmp	.LBB60_1
.LBB60_4:                               # %for.end
	movq	-16(%rbp), %rdi
	movq	-32(%rbp), %rsi
	callq	FmoGenerateMapUnitToSliceGroupMap
	movq	-16(%rbp), %rdi
	movq	-24(%rbp), %rsi
	callq	FmoGenerateMBAmap
	cmpl	$1132371334, -8(%rbp)   # imm = 0x437E9D86
	jne	.LBB60_6
.LBB60_5:
	xorl	%eax, %eax
	addq	$32, %rsp
	popq	%rbp
	.cfi_def_cfa %rsp, 8
	retq
.LBB60_6:                               # %func_exit
	.cfi_def_cfa %rbp, 16
	callq	detect_breach
	jmp	.LBB60_5
.Lfunc_end60:
	.size	FmoInit.40, .Lfunc_end60-FmoInit.40
	.cfi_endproc
                                        # -- End function
	.p2align	4, 0x90         # -- Begin function FmoGenerateType4MapUnitMap.41
	.type	FmoGenerateType4MapUnitMap.41,@function
FmoGenerateType4MapUnitMap.41:          # @FmoGenerateType4MapUnitMap.41
	.cfi_startproc
# %bb.0:                                # %entry
	pushq	%rbp
	.cfi_def_cfa_offset 16
	.cfi_offset %rbp, -16
	movq	%rsp, %rbp
	.cfi_def_cfa_register %rbp
	subq	$48, %rsp
	movl	$1492608769, -28(%rbp)  # imm = 0x58F76701
	movq	%rdi, -40(%rbp)
	movq	%rsi, -16(%rbp)
	movq	-16(%rbp), %rax
	movl	168(%rax), %eax
	addl	$1, %eax
	movq	-40(%rbp), %rcx
	imull	72652(%rcx), %eax
	cmpl	PicSizeInMapUnits, %eax
	jae	.LBB61_2
# %bb.1:                                # %cond.true
	movq	-16(%rbp), %rax
	movl	168(%rax), %eax
	addl	$1, %eax
	movq	-40(%rbp), %rcx
	imull	72652(%rcx), %eax
	jmp	.LBB61_3
.LBB61_2:                               # %cond.false
	movl	PicSizeInMapUnits, %eax
.LBB61_3:                               # %cond.end
	movl	%eax, -20(%rbp)
	movq	-16(%rbp), %rax
	cmpl	$0, 164(%rax)
	je	.LBB61_5
# %bb.4:                                # %cond.true5
	movl	PicSizeInMapUnits, %eax
	subl	-20(%rbp), %eax
	jmp	.LBB61_6
.LBB61_5:                               # %cond.false6
	movl	-20(%rbp), %eax
.LBB61_6:                               # %cond.end7
	movl	%eax, -24(%rbp)
	movl	$0, -4(%rbp)
.LBB61_7:                               # %for.cond
                                        # =>This Inner Loop Header: Depth=1
	movl	-4(%rbp), %eax
	cmpl	PicSizeInMapUnits, %eax
	jae	.LBB61_13
# %bb.8:                                # %for.body
                                        #   in Loop: Header=BB61_7 Depth=1
	movl	-4(%rbp), %eax
	cmpl	-24(%rbp), %eax
	jae	.LBB61_10
# %bb.9:                                # %if.then
                                        #   in Loop: Header=BB61_7 Depth=1
	movq	-16(%rbp), %rax
	movl	164(%rax), %eax
	movq	MapUnitToSliceGroupMap, %rcx
	movl	-4(%rbp), %edx
	movb	%al, (%rcx,%rdx)
	jmp	.LBB61_11
.LBB61_10:                              # %if.else
                                        #   in Loop: Header=BB61_7 Depth=1
	movq	-16(%rbp), %rax
	movl	$1, %ecx
	subl	164(%rax), %ecx
	movq	MapUnitToSliceGroupMap, %rax
	movl	-4(%rbp), %edx
	movb	%cl, (%rax,%rdx)
.LBB61_11:                              # %if.end
                                        #   in Loop: Header=BB61_7 Depth=1
	jmp	.LBB61_12
.LBB61_12:                              # %for.inc
                                        #   in Loop: Header=BB61_7 Depth=1
	movl	-4(%rbp), %eax
	addl	$1, %eax
	movl	%eax, -4(%rbp)
	jmp	.LBB61_7
.LBB61_13:                              # %for.end
	cmpl	$1492608769, -28(%rbp)  # imm = 0x58F76701
	jne	.LBB61_15
.LBB61_14:
	addq	$48, %rsp
	popq	%rbp
	.cfi_def_cfa %rsp, 8
	retq
.LBB61_15:                              # %func_exit
	.cfi_def_cfa %rbp, 16
	callq	detect_breach
	jmp	.LBB61_14
.Lfunc_end61:
	.size	FmoGenerateType4MapUnitMap.41, .Lfunc_end61-FmoGenerateType4MapUnitMap.41
	.cfi_endproc
                                        # -- End function
	.p2align	4, 0x90         # -- Begin function FmoGenerateType2MapUnitMap.42
	.type	FmoGenerateType2MapUnitMap.42,@function
FmoGenerateType2MapUnitMap.42:          # @FmoGenerateType2MapUnitMap.42
	.cfi_startproc
# %bb.0:                                # %entry
	pushq	%rbp
	.cfi_def_cfa_offset 16
	.cfi_offset %rbp, -16
	movq	%rsp, %rbp
	.cfi_def_cfa_register %rbp
	subq	$64, %rsp
	movl	$391158458, -52(%rbp)   # imm = 0x17509ABA
	movq	%rdi, -32(%rbp)
	movq	%rsi, -24(%rbp)
	movl	$0, -12(%rbp)
.LBB62_1:                               # %for.cond
                                        # =>This Inner Loop Header: Depth=1
	movl	-12(%rbp), %eax
	cmpl	PicSizeInMapUnits, %eax
	jae	.LBB62_4
# %bb.2:                                # %for.body
                                        #   in Loop: Header=BB62_1 Depth=1
	movq	-24(%rbp), %rax
	movl	60(%rax), %eax
	movq	MapUnitToSliceGroupMap, %rcx
	movl	-12(%rbp), %edx
	movb	%al, (%rcx,%rdx)
# %bb.3:                                # %for.inc
                                        #   in Loop: Header=BB62_1 Depth=1
	movl	-12(%rbp), %eax
	addl	$1, %eax
	movl	%eax, -12(%rbp)
	jmp	.LBB62_1
.LBB62_4:                               # %for.end
	movq	-24(%rbp), %rax
	movl	60(%rax), %eax
	subl	$1, %eax
	movl	%eax, -4(%rbp)
.LBB62_5:                               # %for.cond2
                                        # =>This Loop Header: Depth=1
                                        #     Child Loop BB62_7 Depth 2
                                        #       Child Loop BB62_9 Depth 3
	cmpl	$0, -4(%rbp)
	jl	.LBB62_16
# %bb.6:                                # %for.body5
                                        #   in Loop: Header=BB62_5 Depth=1
	movq	-24(%rbp), %rax
	movslq	-4(%rbp), %rcx
	movl	100(%rax,%rcx,4), %eax
	movq	-32(%rbp), %rcx
	xorl	%edx, %edx
	divl	72468(%rcx)
	movl	%eax, -48(%rbp)
	movq	-24(%rbp), %rax
	movslq	-4(%rbp), %rcx
	movl	100(%rax,%rcx,4), %eax
	movq	-32(%rbp), %rcx
	xorl	%edx, %edx
	divl	72468(%rcx)
	movl	%edx, -40(%rbp)
	movq	-24(%rbp), %rax
	movslq	-4(%rbp), %rcx
	movl	132(%rax,%rcx,4), %eax
	movq	-32(%rbp), %rcx
	xorl	%edx, %edx
	divl	72468(%rcx)
	movl	%eax, -36(%rbp)
	movq	-24(%rbp), %rax
	movslq	-4(%rbp), %rcx
	movl	132(%rax,%rcx,4), %eax
	movq	-32(%rbp), %rcx
	xorl	%edx, %edx
	divl	72468(%rcx)
	movl	%edx, -44(%rbp)
	movl	-48(%rbp), %eax
	movl	%eax, -8(%rbp)
.LBB62_7:                               # %for.cond21
                                        #   Parent Loop BB62_5 Depth=1
                                        # =>  This Loop Header: Depth=2
                                        #       Child Loop BB62_9 Depth 3
	movl	-8(%rbp), %eax
	cmpl	-36(%rbp), %eax
	ja	.LBB62_14
# %bb.8:                                # %for.body24
                                        #   in Loop: Header=BB62_7 Depth=2
	movl	-40(%rbp), %eax
	movl	%eax, -16(%rbp)
.LBB62_9:                               # %for.cond25
                                        #   Parent Loop BB62_5 Depth=1
                                        #     Parent Loop BB62_7 Depth=2
                                        # =>    This Inner Loop Header: Depth=3
	movl	-16(%rbp), %eax
	cmpl	-44(%rbp), %eax
	ja	.LBB62_12
# %bb.10:                               # %for.body28
                                        #   in Loop: Header=BB62_9 Depth=3
	movl	-4(%rbp), %eax
	movq	MapUnitToSliceGroupMap, %rcx
	movl	-8(%rbp), %edx
	movq	-32(%rbp), %rsi
	imull	72468(%rsi), %edx
	addl	-16(%rbp), %edx
	movl	%edx, %edx
	movb	%al, (%rcx,%rdx)
# %bb.11:                               # %for.inc33
                                        #   in Loop: Header=BB62_9 Depth=3
	movl	-16(%rbp), %eax
	addl	$1, %eax
	movl	%eax, -16(%rbp)
	jmp	.LBB62_9
.LBB62_12:                              # %for.end35
                                        #   in Loop: Header=BB62_7 Depth=2
	jmp	.LBB62_13
.LBB62_13:                              # %for.inc36
                                        #   in Loop: Header=BB62_7 Depth=2
	movl	-8(%rbp), %eax
	addl	$1, %eax
	movl	%eax, -8(%rbp)
	jmp	.LBB62_7
.LBB62_14:                              # %for.end38
                                        #   in Loop: Header=BB62_5 Depth=1
	jmp	.LBB62_15
.LBB62_15:                              # %for.inc39
                                        #   in Loop: Header=BB62_5 Depth=1
	movl	-4(%rbp), %eax
	addl	$-1, %eax
	movl	%eax, -4(%rbp)
	jmp	.LBB62_5
.LBB62_16:                              # %for.end40
	cmpl	$391158458, -52(%rbp)   # imm = 0x17509ABA
	jne	.LBB62_18
.LBB62_17:
	addq	$64, %rsp
	popq	%rbp
	.cfi_def_cfa %rsp, 8
	retq
.LBB62_18:                              # %func_exit
	.cfi_def_cfa %rbp, 16
	callq	detect_breach
	jmp	.LBB62_17
.Lfunc_end62:
	.size	FmoGenerateType2MapUnitMap.42, .Lfunc_end62-FmoGenerateType2MapUnitMap.42
	.cfi_endproc
                                        # -- End function
	.p2align	4, 0x90         # -- Begin function FmoGenerateMBAmap.43
	.type	FmoGenerateMBAmap.43,@function
FmoGenerateMBAmap.43:                   # @FmoGenerateMBAmap.43
	.cfi_startproc
# %bb.0:                                # %entry
	pushq	%rbp
	.cfi_def_cfa_offset 16
	.cfi_offset %rbp, -16
	movq	%rsp, %rbp
	.cfi_def_cfa_register %rbp
	subq	$32, %rsp
	movl	$1903603949, -20(%rbp)  # imm = 0x7176B0ED
	movq	%rdi, -16(%rbp)
	movq	%rsi, -32(%rbp)
	cmpq	$0, MBAmap
	je	.LBB63_2
# %bb.1:                                # %if.then
	movq	MBAmap, %rdi
	callq	free
.LBB63_2:                               # %if.end
	movq	-16(%rbp), %rax
	movl	72484(%rax), %edi
	shlq	$0, %rdi
	callq	malloc
	movq	%rax, MBAmap
	cmpq	$0, %rax
	jne	.LBB63_4
# %bb.3:                                # %if.then2
	movq	-16(%rbp), %rax
	movl	72484(%rax), %esi
	shlq	$0, %rsi
	movabsq	$.L.str.3, %rdi
	movb	$0, %al
	callq	printf
	movl	$4294967295, %edi       # imm = 0xFFFFFFFF
	callq	exit
.LBB63_4:                               # %if.end7
	movq	-32(%rbp), %rax
	cmpl	$0, 1148(%rax)
	jne	.LBB63_6
# %bb.5:                                # %lor.lhs.false
	movq	-16(%rbp), %rax
	cmpl	$0, 72444(%rax)
	je	.LBB63_11
.LBB63_6:                               # %if.then10
	movl	$0, -4(%rbp)
.LBB63_7:                               # %for.cond
                                        # =>This Inner Loop Header: Depth=1
	movl	-4(%rbp), %eax
	movq	-16(%rbp), %rcx
	cmpl	72484(%rcx), %eax
	jae	.LBB63_10
# %bb.8:                                # %for.body
                                        #   in Loop: Header=BB63_7 Depth=1
	movq	MapUnitToSliceGroupMap, %rax
	movl	-4(%rbp), %ecx
	movb	(%rax,%rcx), %al
	movq	MBAmap, %rcx
	movl	-4(%rbp), %edx
	movb	%al, (%rcx,%rdx)
# %bb.9:                                # %for.inc
                                        #   in Loop: Header=BB63_7 Depth=1
	movl	-4(%rbp), %eax
	addl	$1, %eax
	movl	%eax, -4(%rbp)
	jmp	.LBB63_7
.LBB63_10:                              # %for.end
	jmp	.LBB63_24
.LBB63_11:                              # %if.else
	movq	-32(%rbp), %rax
	cmpl	$0, 1152(%rax)
	je	.LBB63_18
# %bb.12:                               # %land.lhs.true
	movq	-16(%rbp), %rax
	cmpl	$0, 72444(%rax)
	jne	.LBB63_18
# %bb.13:                               # %if.then19
	movl	$0, -4(%rbp)
.LBB63_14:                              # %for.cond20
                                        # =>This Inner Loop Header: Depth=1
	movl	-4(%rbp), %eax
	movq	-16(%rbp), %rcx
	cmpl	72484(%rcx), %eax
	jae	.LBB63_17
# %bb.15:                               # %for.body24
                                        #   in Loop: Header=BB63_14 Depth=1
	movq	MapUnitToSliceGroupMap, %rax
	movl	-4(%rbp), %ecx
	shrl	$1, %ecx
	movl	%ecx, %ecx
	movb	(%rax,%rcx), %al
	movq	MBAmap, %rcx
	movl	-4(%rbp), %edx
	movb	%al, (%rcx,%rdx)
# %bb.16:                               # %for.inc29
                                        #   in Loop: Header=BB63_14 Depth=1
	movl	-4(%rbp), %eax
	addl	$1, %eax
	movl	%eax, -4(%rbp)
	jmp	.LBB63_14
.LBB63_17:                              # %for.end31
	jmp	.LBB63_23
.LBB63_18:                              # %if.else32
	movl	$0, -4(%rbp)
.LBB63_19:                              # %for.cond33
                                        # =>This Inner Loop Header: Depth=1
	movl	-4(%rbp), %eax
	movq	-16(%rbp), %rcx
	cmpl	72484(%rcx), %eax
	jae	.LBB63_22
# %bb.20:                               # %for.body37
                                        #   in Loop: Header=BB63_19 Depth=1
	movq	MapUnitToSliceGroupMap, %rsi
	movl	-4(%rbp), %eax
	movq	-16(%rbp), %rcx
	movl	72468(%rcx), %ecx
	shll	$1, %ecx
	xorl	%edx, %edx
	divl	%ecx
	movl	%eax, %ecx
	movq	-16(%rbp), %rax
	imull	72468(%rax), %ecx
	movl	-4(%rbp), %eax
	movq	-16(%rbp), %rdi
	xorl	%edx, %edx
	divl	72468(%rdi)
	addl	%edx, %ecx
	movl	%ecx, %eax
	movb	(%rsi,%rax), %al
	movq	MBAmap, %rcx
	movl	-4(%rbp), %edx
	movb	%al, (%rcx,%rdx)
# %bb.21:                               # %for.inc47
                                        #   in Loop: Header=BB63_19 Depth=1
	movl	-4(%rbp), %eax
	addl	$1, %eax
	movl	%eax, -4(%rbp)
	jmp	.LBB63_19
.LBB63_22:                              # %for.end49
	jmp	.LBB63_23
.LBB63_23:                              # %if.end50
	jmp	.LBB63_24
.LBB63_24:                              # %if.end51
	cmpl	$1903603949, -20(%rbp)  # imm = 0x7176B0ED
	jne	.LBB63_26
.LBB63_25:
	xorl	%eax, %eax
	addq	$32, %rsp
	popq	%rbp
	.cfi_def_cfa %rsp, 8
	retq
.LBB63_26:                              # %func_exit
	.cfi_def_cfa %rbp, 16
	callq	detect_breach
	jmp	.LBB63_25
.Lfunc_end63:
	.size	FmoGenerateMBAmap.43, .Lfunc_end63-FmoGenerateMBAmap.43
	.cfi_endproc
                                        # -- End function
	.globl	FmoGetLastCodedMBOfSliceGroup.44 # -- Begin function FmoGetLastCodedMBOfSliceGroup.44
	.p2align	4, 0x90
	.type	FmoGetLastCodedMBOfSliceGroup.44,@function
FmoGetLastCodedMBOfSliceGroup.44:       # @FmoGetLastCodedMBOfSliceGroup.44
	.cfi_startproc
# %bb.0:                                # %entry
	pushq	%rbp
	.cfi_def_cfa_offset 16
	.cfi_offset %rbp, -16
	movq	%rsp, %rbp
	.cfi_def_cfa_register %rbp
	pushq	%rbx
	subq	$24, %rsp
	.cfi_offset %rbx, -24
	movl	$1489316787, -24(%rbp)  # imm = 0x58C52BB3
	movl	%edi, -20(%rbp)
	movl	$-1, -16(%rbp)
	movl	$0, -12(%rbp)
.LBB64_1:                               # %for.cond
                                        # =>This Inner Loop Header: Depth=1
	movl	-12(%rbp), %eax
	movq	img, %rcx
	cmpl	72484(%rcx), %eax
	jge	.LBB64_6
# %bb.2:                                # %for.body
                                        #   in Loop: Header=BB64_1 Depth=1
	movl	-12(%rbp), %edi
	callq	FmoMB2SliceGroup
	cmpl	-20(%rbp), %eax
	jne	.LBB64_4
# %bb.3:                                # %if.then
                                        #   in Loop: Header=BB64_1 Depth=1
	movl	-12(%rbp), %eax
	movl	%eax, -16(%rbp)
.LBB64_4:                               # %if.end
                                        #   in Loop: Header=BB64_1 Depth=1
	jmp	.LBB64_5
.LBB64_5:                               # %for.inc
                                        #   in Loop: Header=BB64_1 Depth=1
	movl	-12(%rbp), %eax
	addl	$1, %eax
	movl	%eax, -12(%rbp)
	jmp	.LBB64_1
.LBB64_6:                               # %for.end
	movl	-16(%rbp), %ebx
	cmpl	$1489316787, -24(%rbp)  # imm = 0x58C52BB3
	jne	.LBB64_8
.LBB64_7:
	movl	%ebx, %eax
	addq	$24, %rsp
	popq	%rbx
	popq	%rbp
	.cfi_def_cfa %rsp, 8
	retq
.LBB64_8:                               # %func_exit
	.cfi_def_cfa %rbp, 16
	callq	detect_breach
	jmp	.LBB64_7
.Lfunc_end64:
	.size	FmoGetLastCodedMBOfSliceGroup.44, .Lfunc_end64-FmoGetLastCodedMBOfSliceGroup.44
	.cfi_endproc
                                        # -- End function
	.globl	FmoGetNextMBNr.45       # -- Begin function FmoGetNextMBNr.45
	.p2align	4, 0x90
	.type	FmoGetNextMBNr.45,@function
FmoGetNextMBNr.45:                      # @FmoGetNextMBNr.45
	.cfi_startproc
# %bb.0:                                # %entry
	pushq	%rbp
	.cfi_def_cfa_offset 16
	.cfi_offset %rbp, -16
	movq	%rsp, %rbp
	.cfi_def_cfa_register %rbp
	pushq	%rbx
	subq	$24, %rsp
	.cfi_offset %rbx, -24
	movl	$1830311692, -24(%rbp)  # imm = 0x6D18570C
	movl	%edi, -12(%rbp)
	movl	-12(%rbp), %edi
	callq	FmoMB2SliceGroup
	movl	%eax, -20(%rbp)
.LBB65_1:                               # %while.cond
                                        # =>This Inner Loop Header: Depth=1
	xorl	%eax, %eax
	movl	-12(%rbp), %ecx
	addl	$1, %ecx
	movl	%ecx, -12(%rbp)
	movq	img, %rdx
	cmpl	72484(%rdx), %ecx
	jge	.LBB65_3
# %bb.2:                                # %land.rhs
                                        #   in Loop: Header=BB65_1 Depth=1
	movq	MBAmap, %rax
	movslq	-12(%rbp), %rcx
	movzbl	(%rax,%rcx), %eax
	cmpl	-20(%rbp), %eax
	setne	%al
.LBB65_3:                               # %land.end
                                        #   in Loop: Header=BB65_1 Depth=1
	testb	$1, %al
	jne	.LBB65_4
	jmp	.LBB65_5
.LBB65_4:                               # %while.body
                                        #   in Loop: Header=BB65_1 Depth=1
	jmp	.LBB65_1
.LBB65_5:                               # %while.end
	movl	-12(%rbp), %eax
	movq	img, %rcx
	cmpl	72484(%rcx), %eax
	jl	.LBB65_7
# %bb.6:                                # %if.then
	movl	$-1, -16(%rbp)
	jmp	.LBB65_8
.LBB65_7:                               # %if.else
	movl	-12(%rbp), %eax
	movl	%eax, -16(%rbp)
.LBB65_8:                               # %return
	movl	-16(%rbp), %ebx
	cmpl	$1830311692, -24(%rbp)  # imm = 0x6D18570C
	jne	.LBB65_10
.LBB65_9:
	movl	%ebx, %eax
	addq	$24, %rsp
	popq	%rbx
	popq	%rbp
	.cfi_def_cfa %rsp, 8
	retq
.LBB65_10:                              # %func_exit
	.cfi_def_cfa %rbp, 16
	callq	detect_breach
	jmp	.LBB65_9
.Lfunc_end65:
	.size	FmoGetNextMBNr.45, .Lfunc_end65-FmoGetNextMBNr.45
	.cfi_endproc
                                        # -- End function
	.globl	FmoSetLastMacroblockInSlice.46 # -- Begin function FmoSetLastMacroblockInSlice.46
	.p2align	4, 0x90
	.type	FmoSetLastMacroblockInSlice.46,@function
FmoSetLastMacroblockInSlice.46:         # @FmoSetLastMacroblockInSlice.46
	.cfi_startproc
# %bb.0:                                # %entry
	pushq	%rbp
	.cfi_def_cfa_offset 16
	.cfi_offset %rbp, -16
	movq	%rsp, %rbp
	.cfi_def_cfa_register %rbp
	subq	$16, %rsp
	movl	$818802475, -12(%rbp)   # imm = 0x30CDEF2B
	movl	%edi, -4(%rbp)
	movl	-4(%rbp), %edi
	callq	FmoMB2SliceGroup
	movl	%eax, -8(%rbp)
	movl	-4(%rbp), %edi
	callq	FmoGetNextMBNr
	movl	%eax, -4(%rbp)
	movl	-4(%rbp), %eax
	movslq	-8(%rbp), %rcx
	movl	%eax, FirstMBInSlice(,%rcx,4)
	cmpl	$818802475, -12(%rbp)   # imm = 0x30CDEF2B
	jne	.LBB66_2
.LBB66_1:
	addq	$16, %rsp
	popq	%rbp
	.cfi_def_cfa %rsp, 8
	retq
.LBB66_2:                               # %func_exit
	.cfi_def_cfa %rbp, 16
	callq	detect_breach
	jmp	.LBB66_1
.Lfunc_end66:
	.size	FmoSetLastMacroblockInSlice.46, .Lfunc_end66-FmoSetLastMacroblockInSlice.46
	.cfi_endproc
                                        # -- End function
	.p2align	4, 0x90         # -- Begin function FmoGenerateMapUnitToSliceGroupMap.47
	.type	FmoGenerateMapUnitToSliceGroupMap.47,@function
FmoGenerateMapUnitToSliceGroupMap.47:   # @FmoGenerateMapUnitToSliceGroupMap.47
	.cfi_startproc
# %bb.0:                                # %entry
	pushq	%rbp
	.cfi_def_cfa_offset 16
	.cfi_offset %rbp, -16
	movq	%rsp, %rbp
	.cfi_def_cfa_register %rbp
	pushq	%rbx
	subq	$24, %rsp
	.cfi_offset %rbx, -24
	movl	$892967600, -32(%rbp)   # imm = 0x35399AB0
	movq	%rdi, -24(%rbp)
	movq	%rsi, -16(%rbp)
	movq	-24(%rbp), %rax
	movl	72472(%rax), %eax
	movq	-24(%rbp), %rcx
	imull	72468(%rcx), %eax
	movl	%eax, PicSizeInMapUnits
	movq	-16(%rbp), %rax
	cmpl	$6, 64(%rax)
	jne	.LBB67_4
# %bb.1:                                # %if.then
	movq	-16(%rbp), %rax
	movl	172(%rax), %eax
	addl	$1, %eax
	cmpl	PicSizeInMapUnits, %eax
	je	.LBB67_3
# %bb.2:                                # %if.then2
	movabsq	$.L.str, %rdi
	movl	$500, %esi              # imm = 0x1F4
	callq	error
.LBB67_3:                               # %if.end
	jmp	.LBB67_4
.LBB67_4:                               # %if.end3
	cmpq	$0, MapUnitToSliceGroupMap
	je	.LBB67_6
# %bb.5:                                # %if.then4
	movq	MapUnitToSliceGroupMap, %rdi
	callq	free
.LBB67_6:                               # %if.end5
	movl	PicSizeInMapUnits, %edi
	shlq	$0, %rdi
	callq	malloc
	movq	%rax, MapUnitToSliceGroupMap
	cmpq	$0, %rax
	jne	.LBB67_8
# %bb.7:                                # %if.then9
	movl	PicSizeInMapUnits, %esi
	shlq	$0, %rsi
	movabsq	$.L.str.1, %rdi
	movb	$0, %al
	callq	printf
	movl	$4294967295, %edi       # imm = 0xFFFFFFFF
	callq	exit
.LBB67_8:                               # %if.end13
	movq	-16(%rbp), %rax
	cmpl	$0, 60(%rax)
	jne	.LBB67_10
# %bb.9:                                # %if.then16
	movq	MapUnitToSliceGroupMap, %rdi
	movl	PicSizeInMapUnits, %edx
	shlq	$0, %rdx
	xorl	%esi, %esi
	callq	memset
	movl	$0, -28(%rbp)
	jmp	.LBB67_21
.LBB67_10:                              # %if.end19
	movq	-16(%rbp), %rax
	movl	64(%rax), %eax
	movq	%rax, %rcx
	subq	$6, %rcx
	ja	.LBB67_19
# %bb.11:                               # %if.end19
	movq	.LJTI67_0(,%rax,8), %rax
	jmpq	*%rax
.LBB67_12:                              # %sw.bb
	movq	-24(%rbp), %rdi
	movq	-16(%rbp), %rsi
	callq	FmoGenerateType0MapUnitMap
	jmp	.LBB67_20
.LBB67_13:                              # %sw.bb21
	movq	-24(%rbp), %rdi
	movq	-16(%rbp), %rsi
	callq	FmoGenerateType1MapUnitMap
	jmp	.LBB67_20
.LBB67_14:                              # %sw.bb22
	movq	-24(%rbp), %rdi
	movq	-16(%rbp), %rsi
	callq	FmoGenerateType2MapUnitMap
	jmp	.LBB67_20
.LBB67_15:                              # %sw.bb23
	movq	-24(%rbp), %rdi
	movq	-16(%rbp), %rsi
	callq	FmoGenerateType3MapUnitMap
	jmp	.LBB67_20
.LBB67_16:                              # %sw.bb24
	movq	-24(%rbp), %rdi
	movq	-16(%rbp), %rsi
	callq	FmoGenerateType4MapUnitMap
	jmp	.LBB67_20
.LBB67_17:                              # %sw.bb25
	movq	-24(%rbp), %rdi
	movq	-16(%rbp), %rsi
	callq	FmoGenerateType5MapUnitMap
	jmp	.LBB67_20
.LBB67_18:                              # %sw.bb26
	movq	-24(%rbp), %rdi
	movq	-16(%rbp), %rsi
	callq	FmoGenerateType6MapUnitMap
	jmp	.LBB67_20
.LBB67_19:                              # %sw.default
	movq	-16(%rbp), %rax
	movl	64(%rax), %esi
	movabsq	$.L.str.2, %rdi
	movb	$0, %al
	callq	printf
	movl	$4294967295, %edi       # imm = 0xFFFFFFFF
	callq	exit
.LBB67_20:                              # %sw.epilog
	movl	$0, -28(%rbp)
.LBB67_21:                              # %return
	movl	-28(%rbp), %ebx
	cmpl	$892967600, -32(%rbp)   # imm = 0x35399AB0
	jne	.LBB67_23
.LBB67_22:
	movl	%ebx, %eax
	addq	$24, %rsp
	popq	%rbx
	popq	%rbp
	.cfi_def_cfa %rsp, 8
	retq
.LBB67_23:                              # %func_exit
	.cfi_def_cfa %rbp, 16
	callq	detect_breach
	jmp	.LBB67_22
.Lfunc_end67:
	.size	FmoGenerateMapUnitToSliceGroupMap.47, .Lfunc_end67-FmoGenerateMapUnitToSliceGroupMap.47
	.cfi_endproc
	.section	.rodata,"a",@progbits
	.p2align	3
.LJTI67_0:
	.quad	.LBB67_12
	.quad	.LBB67_13
	.quad	.LBB67_14
	.quad	.LBB67_15
	.quad	.LBB67_16
	.quad	.LBB67_17
	.quad	.LBB67_18
                                        # -- End function
	.text
	.globl	FmoGetLastCodedMBOfSliceGroup.48 # -- Begin function FmoGetLastCodedMBOfSliceGroup.48
	.p2align	4, 0x90
	.type	FmoGetLastCodedMBOfSliceGroup.48,@function
FmoGetLastCodedMBOfSliceGroup.48:       # @FmoGetLastCodedMBOfSliceGroup.48
	.cfi_startproc
# %bb.0:                                # %entry
	pushq	%rbp
	.cfi_def_cfa_offset 16
	.cfi_offset %rbp, -16
	movq	%rsp, %rbp
	.cfi_def_cfa_register %rbp
	pushq	%rbx
	subq	$24, %rsp
	.cfi_offset %rbx, -24
	movl	$9102543, -24(%rbp)     # imm = 0x8AE4CF
	movl	%edi, -20(%rbp)
	movl	$-1, -16(%rbp)
	movl	$0, -12(%rbp)
.LBB68_1:                               # %for.cond
                                        # =>This Inner Loop Header: Depth=1
	movl	-12(%rbp), %eax
	movq	img, %rcx
	cmpl	72484(%rcx), %eax
	jge	.LBB68_6
# %bb.2:                                # %for.body
                                        #   in Loop: Header=BB68_1 Depth=1
	movl	-12(%rbp), %edi
	callq	FmoMB2SliceGroup
	cmpl	-20(%rbp), %eax
	jne	.LBB68_4
# %bb.3:                                # %if.then
                                        #   in Loop: Header=BB68_1 Depth=1
	movl	-12(%rbp), %eax
	movl	%eax, -16(%rbp)
.LBB68_4:                               # %if.end
                                        #   in Loop: Header=BB68_1 Depth=1
	jmp	.LBB68_5
.LBB68_5:                               # %for.inc
                                        #   in Loop: Header=BB68_1 Depth=1
	movl	-12(%rbp), %eax
	addl	$1, %eax
	movl	%eax, -12(%rbp)
	jmp	.LBB68_1
.LBB68_6:                               # %for.end
	movl	-16(%rbp), %ebx
	cmpl	$9102543, -24(%rbp)     # imm = 0x8AE4CF
	jne	.LBB68_8
.LBB68_7:
	movl	%ebx, %eax
	addq	$24, %rsp
	popq	%rbx
	popq	%rbp
	.cfi_def_cfa %rsp, 8
	retq
.LBB68_8:                               # %func_exit
	.cfi_def_cfa %rbp, 16
	callq	detect_breach
	jmp	.LBB68_7
.Lfunc_end68:
	.size	FmoGetLastCodedMBOfSliceGroup.48, .Lfunc_end68-FmoGetLastCodedMBOfSliceGroup.48
	.cfi_endproc
                                        # -- End function
	.p2align	4, 0x90         # -- Begin function FmoGenerateType3MapUnitMap.49
	.type	FmoGenerateType3MapUnitMap.49,@function
FmoGenerateType3MapUnitMap.49:          # @FmoGenerateType3MapUnitMap.49
	.cfi_startproc
# %bb.0:                                # %entry
	pushq	%rbp
	.cfi_def_cfa_offset 16
	.cfi_offset %rbp, -16
	movq	%rsp, %rbp
	.cfi_def_cfa_register %rbp
	subq	$80, %rsp
	movl	$35858428, -68(%rbp)    # imm = 0x22327FC
	movq	%rdi, -40(%rbp)
	movq	%rsi, -48(%rbp)
	movq	-48(%rbp), %rax
	movl	168(%rax), %eax
	addl	$1, %eax
	movq	-40(%rbp), %rcx
	imull	72652(%rcx), %eax
	cmpl	PicSizeInMapUnits, %eax
	jae	.LBB69_2
# %bb.1:                                # %cond.true
	movq	-48(%rbp), %rax
	movl	168(%rax), %eax
	addl	$1, %eax
	movq	-40(%rbp), %rcx
	imull	72652(%rcx), %eax
	jmp	.LBB69_3
.LBB69_2:                               # %cond.false
	movl	PicSizeInMapUnits, %eax
.LBB69_3:                               # %cond.end
	movl	%eax, -64(%rbp)
	movl	$0, -52(%rbp)
.LBB69_4:                               # %for.cond
                                        # =>This Inner Loop Header: Depth=1
	movl	-52(%rbp), %eax
	cmpl	PicSizeInMapUnits, %eax
	jae	.LBB69_7
# %bb.5:                                # %for.body
                                        #   in Loop: Header=BB69_4 Depth=1
	movq	MapUnitToSliceGroupMap, %rax
	movl	-52(%rbp), %ecx
	movb	$2, (%rax,%rcx)
# %bb.6:                                # %for.inc
                                        #   in Loop: Header=BB69_4 Depth=1
	movl	-52(%rbp), %eax
	addl	$1, %eax
	movl	%eax, -52(%rbp)
	jmp	.LBB69_4
.LBB69_7:                               # %for.end
	movq	-40(%rbp), %rax
	movl	72468(%rax), %eax
	movq	-48(%rbp), %rcx
	subl	164(%rcx), %eax
	shrl	$1, %eax
	movl	%eax, -8(%rbp)
	movq	-40(%rbp), %rax
	movl	72472(%rax), %eax
	movq	-48(%rbp), %rcx
	subl	164(%rcx), %eax
	shrl	$1, %eax
	movl	%eax, -4(%rbp)
	movl	-8(%rbp), %eax
	movl	%eax, -28(%rbp)
	movl	-4(%rbp), %eax
	movl	%eax, -20(%rbp)
	movl	-8(%rbp), %eax
	movl	%eax, -24(%rbp)
	movl	-4(%rbp), %eax
	movl	%eax, -32(%rbp)
	movq	-48(%rbp), %rax
	movl	164(%rax), %eax
	subl	$1, %eax
	movl	%eax, -12(%rbp)
	movq	-48(%rbp), %rax
	movl	164(%rax), %eax
	movl	%eax, -16(%rbp)
	movl	$0, -56(%rbp)
.LBB69_8:                               # %for.cond12
                                        # =>This Inner Loop Header: Depth=1
	movl	-56(%rbp), %eax
	cmpl	PicSizeInMapUnits, %eax
	jae	.LBB69_41
# %bb.9:                                # %for.body14
                                        #   in Loop: Header=BB69_8 Depth=1
	movq	MapUnitToSliceGroupMap, %rax
	movl	-4(%rbp), %ecx
	movq	-40(%rbp), %rdx
	imull	72468(%rdx), %ecx
	addl	-8(%rbp), %ecx
	movl	%ecx, %ecx
	movzbl	(%rax,%rcx), %eax
	cmpl	$2, %eax
	sete	%al
	andb	$1, %al
	movzbl	%al, %eax
	movl	%eax, -60(%rbp)
	cmpl	$0, -60(%rbp)
	je	.LBB69_11
# %bb.10:                               # %if.then
                                        #   in Loop: Header=BB69_8 Depth=1
	movl	-56(%rbp), %eax
	cmpl	-64(%rbp), %eax
	setae	%al
	andb	$1, %al
	movzbl	%al, %eax
	movq	MapUnitToSliceGroupMap, %rcx
	movl	-4(%rbp), %edx
	movq	-40(%rbp), %rsi
	imull	72468(%rsi), %edx
	addl	-8(%rbp), %edx
	movl	%edx, %edx
	movb	%al, (%rcx,%rdx)
.LBB69_11:                              # %if.end
                                        #   in Loop: Header=BB69_8 Depth=1
	cmpl	$-1, -12(%rbp)
	jne	.LBB69_17
# %bb.12:                               # %land.lhs.true
                                        #   in Loop: Header=BB69_8 Depth=1
	movl	-8(%rbp), %eax
	cmpl	-28(%rbp), %eax
	jne	.LBB69_17
# %bb.13:                               # %if.then34
                                        #   in Loop: Header=BB69_8 Depth=1
	movl	-28(%rbp), %eax
	subl	$1, %eax
	cmpl	$0, %eax
	jle	.LBB69_15
# %bb.14:                               # %cond.true38
                                        #   in Loop: Header=BB69_8 Depth=1
	movl	-28(%rbp), %eax
	subl	$1, %eax
	jmp	.LBB69_16
.LBB69_15:                              # %cond.false40
                                        #   in Loop: Header=BB69_8 Depth=1
	xorl	%eax, %eax
	jmp	.LBB69_16
.LBB69_16:                              # %cond.end41
                                        #   in Loop: Header=BB69_8 Depth=1
	movl	%eax, -28(%rbp)
	movl	-28(%rbp), %eax
	movl	%eax, -8(%rbp)
	movl	$0, -12(%rbp)
	movq	-48(%rbp), %rax
	movl	164(%rax), %eax
	shll	$1, %eax
	subl	$1, %eax
	movl	%eax, -16(%rbp)
	jmp	.LBB69_39
.LBB69_17:                              # %if.else
                                        #   in Loop: Header=BB69_8 Depth=1
	cmpl	$1, -12(%rbp)
	jne	.LBB69_23
# %bb.18:                               # %land.lhs.true48
                                        #   in Loop: Header=BB69_8 Depth=1
	movl	-8(%rbp), %eax
	cmpl	-24(%rbp), %eax
	jne	.LBB69_23
# %bb.19:                               # %if.then51
                                        #   in Loop: Header=BB69_8 Depth=1
	movl	-24(%rbp), %eax
	addl	$1, %eax
	movq	-40(%rbp), %rcx
	movl	72468(%rcx), %ecx
	subl	$1, %ecx
	cmpl	%ecx, %eax
	jge	.LBB69_21
# %bb.20:                               # %cond.true57
                                        #   in Loop: Header=BB69_8 Depth=1
	movl	-24(%rbp), %eax
	addl	$1, %eax
	jmp	.LBB69_22
.LBB69_21:                              # %cond.false59
                                        #   in Loop: Header=BB69_8 Depth=1
	movq	-40(%rbp), %rax
	movl	72468(%rax), %eax
	subl	$1, %eax
.LBB69_22:                              # %cond.end62
                                        #   in Loop: Header=BB69_8 Depth=1
	movl	%eax, -24(%rbp)
	movl	-24(%rbp), %eax
	movl	%eax, -8(%rbp)
	movl	$0, -12(%rbp)
	movq	-48(%rbp), %rax
	movl	164(%rax), %eax
	shll	$1, %eax
	movl	$1, %ecx
	subl	%eax, %ecx
	movl	%ecx, -16(%rbp)
	jmp	.LBB69_38
.LBB69_23:                              # %if.else67
                                        #   in Loop: Header=BB69_8 Depth=1
	cmpl	$-1, -16(%rbp)
	jne	.LBB69_29
# %bb.24:                               # %land.lhs.true70
                                        #   in Loop: Header=BB69_8 Depth=1
	movl	-4(%rbp), %eax
	cmpl	-20(%rbp), %eax
	jne	.LBB69_29
# %bb.25:                               # %if.then73
                                        #   in Loop: Header=BB69_8 Depth=1
	movl	-20(%rbp), %eax
	subl	$1, %eax
	cmpl	$0, %eax
	jle	.LBB69_27
# %bb.26:                               # %cond.true77
                                        #   in Loop: Header=BB69_8 Depth=1
	movl	-20(%rbp), %eax
	subl	$1, %eax
	jmp	.LBB69_28
.LBB69_27:                              # %cond.false79
                                        #   in Loop: Header=BB69_8 Depth=1
	xorl	%eax, %eax
	jmp	.LBB69_28
.LBB69_28:                              # %cond.end80
                                        #   in Loop: Header=BB69_8 Depth=1
	movl	%eax, -20(%rbp)
	movl	-20(%rbp), %eax
	movl	%eax, -4(%rbp)
	movq	-48(%rbp), %rax
	movl	164(%rax), %eax
	shll	$1, %eax
	movl	$1, %ecx
	subl	%eax, %ecx
	movl	%ecx, -12(%rbp)
	movl	$0, -16(%rbp)
	jmp	.LBB69_37
.LBB69_29:                              # %if.else85
                                        #   in Loop: Header=BB69_8 Depth=1
	cmpl	$1, -16(%rbp)
	jne	.LBB69_35
# %bb.30:                               # %land.lhs.true88
                                        #   in Loop: Header=BB69_8 Depth=1
	movl	-4(%rbp), %eax
	cmpl	-32(%rbp), %eax
	jne	.LBB69_35
# %bb.31:                               # %if.then91
                                        #   in Loop: Header=BB69_8 Depth=1
	movl	-32(%rbp), %eax
	addl	$1, %eax
	movq	-40(%rbp), %rcx
	movl	72472(%rcx), %ecx
	subl	$1, %ecx
	cmpl	%ecx, %eax
	jge	.LBB69_33
# %bb.32:                               # %cond.true97
                                        #   in Loop: Header=BB69_8 Depth=1
	movl	-32(%rbp), %eax
	addl	$1, %eax
	jmp	.LBB69_34
.LBB69_33:                              # %cond.false99
                                        #   in Loop: Header=BB69_8 Depth=1
	movq	-40(%rbp), %rax
	movl	72472(%rax), %eax
	subl	$1, %eax
.LBB69_34:                              # %cond.end102
                                        #   in Loop: Header=BB69_8 Depth=1
	movl	%eax, -32(%rbp)
	movl	-32(%rbp), %eax
	movl	%eax, -4(%rbp)
	movq	-48(%rbp), %rax
	movl	164(%rax), %eax
	shll	$1, %eax
	subl	$1, %eax
	movl	%eax, -12(%rbp)
	movl	$0, -16(%rbp)
	jmp	.LBB69_36
.LBB69_35:                              # %if.else107
                                        #   in Loop: Header=BB69_8 Depth=1
	movl	-8(%rbp), %eax
	addl	-12(%rbp), %eax
	movl	%eax, -8(%rbp)
	movl	-4(%rbp), %eax
	addl	-16(%rbp), %eax
	movl	%eax, -4(%rbp)
.LBB69_36:                              # %if.end110
                                        #   in Loop: Header=BB69_8 Depth=1
	jmp	.LBB69_37
.LBB69_37:                              # %if.end111
                                        #   in Loop: Header=BB69_8 Depth=1
	jmp	.LBB69_38
.LBB69_38:                              # %if.end112
                                        #   in Loop: Header=BB69_8 Depth=1
	jmp	.LBB69_39
.LBB69_39:                              # %if.end113
                                        #   in Loop: Header=BB69_8 Depth=1
	jmp	.LBB69_40
.LBB69_40:                              # %for.inc114
                                        #   in Loop: Header=BB69_8 Depth=1
	movl	-60(%rbp), %eax
	addl	-56(%rbp), %eax
	movl	%eax, -56(%rbp)
	jmp	.LBB69_8
.LBB69_41:                              # %for.end116
	cmpl	$35858428, -68(%rbp)    # imm = 0x22327FC
	jne	.LBB69_43
.LBB69_42:
	addq	$80, %rsp
	popq	%rbp
	.cfi_def_cfa %rsp, 8
	retq
.LBB69_43:                              # %func_exit
	.cfi_def_cfa %rbp, 16
	callq	detect_breach
	jmp	.LBB69_42
.Lfunc_end69:
	.size	FmoGenerateType3MapUnitMap.49, .Lfunc_end69-FmoGenerateType3MapUnitMap.49
	.cfi_endproc
                                        # -- End function
	.globl	FmoInit.50              # -- Begin function FmoInit.50
	.p2align	4, 0x90
	.type	FmoInit.50,@function
FmoInit.50:                             # @FmoInit.50
	.cfi_startproc
# %bb.0:                                # %entry
	pushq	%rbp
	.cfi_def_cfa_offset 16
	.cfi_offset %rbp, -16
	movq	%rsp, %rbp
	.cfi_def_cfa_register %rbp
	subq	$32, %rsp
	movl	$111083589, -8(%rbp)    # imm = 0x69F0045
	movq	%rdi, -16(%rbp)
	movq	%rsi, -24(%rbp)
	movq	%rdx, -32(%rbp)
	movl	$0, -4(%rbp)
.LBB70_1:                               # %for.cond
                                        # =>This Inner Loop Header: Depth=1
	cmpl	$8, -4(%rbp)
	jge	.LBB70_4
# %bb.2:                                # %for.body
                                        #   in Loop: Header=BB70_1 Depth=1
	movslq	-4(%rbp), %rax
	movl	$-1, FirstMBInSlice(,%rax,4)
# %bb.3:                                # %for.inc
                                        #   in Loop: Header=BB70_1 Depth=1
	movl	-4(%rbp), %eax
	addl	$1, %eax
	movl	%eax, -4(%rbp)
	jmp	.LBB70_1
.LBB70_4:                               # %for.end
	movq	-16(%rbp), %rdi
	movq	-24(%rbp), %rsi
	callq	FmoGenerateMapUnitToSliceGroupMap
	movq	-16(%rbp), %rdi
	movq	-32(%rbp), %rsi
	callq	FmoGenerateMBAmap
	cmpl	$111083589, -8(%rbp)    # imm = 0x69F0045
	jne	.LBB70_6
.LBB70_5:
	xorl	%eax, %eax
	addq	$32, %rsp
	popq	%rbp
	.cfi_def_cfa %rsp, 8
	retq
.LBB70_6:                               # %func_exit
	.cfi_def_cfa %rbp, 16
	callq	detect_breach
	jmp	.LBB70_5
.Lfunc_end70:
	.size	FmoInit.50, .Lfunc_end70-FmoInit.50
	.cfi_endproc
                                        # -- End function
	.p2align	4, 0x90         # -- Begin function FmoGenerateMapUnitToSliceGroupMap.51
	.type	FmoGenerateMapUnitToSliceGroupMap.51,@function
FmoGenerateMapUnitToSliceGroupMap.51:   # @FmoGenerateMapUnitToSliceGroupMap.51
	.cfi_startproc
# %bb.0:                                # %entry
	pushq	%rbp
	.cfi_def_cfa_offset 16
	.cfi_offset %rbp, -16
	movq	%rsp, %rbp
	.cfi_def_cfa_register %rbp
	pushq	%rbx
	subq	$24, %rsp
	.cfi_offset %rbx, -24
	movl	$1573326580, -32(%rbp)  # imm = 0x5DC70EF4
	movq	%rdi, -24(%rbp)
	movq	%rsi, -16(%rbp)
	movq	-24(%rbp), %rax
	movl	72472(%rax), %eax
	movq	-24(%rbp), %rcx
	imull	72468(%rcx), %eax
	movl	%eax, PicSizeInMapUnits
	movq	-16(%rbp), %rax
	cmpl	$6, 64(%rax)
	jne	.LBB71_4
# %bb.1:                                # %if.then
	movq	-16(%rbp), %rax
	movl	172(%rax), %eax
	addl	$1, %eax
	cmpl	PicSizeInMapUnits, %eax
	je	.LBB71_3
# %bb.2:                                # %if.then2
	movabsq	$.L.str, %rdi
	movl	$500, %esi              # imm = 0x1F4
	callq	error
.LBB71_3:                               # %if.end
	jmp	.LBB71_4
.LBB71_4:                               # %if.end3
	cmpq	$0, MapUnitToSliceGroupMap
	je	.LBB71_6
# %bb.5:                                # %if.then4
	movq	MapUnitToSliceGroupMap, %rdi
	callq	free
.LBB71_6:                               # %if.end5
	movl	PicSizeInMapUnits, %edi
	shlq	$0, %rdi
	callq	malloc
	movq	%rax, MapUnitToSliceGroupMap
	cmpq	$0, %rax
	jne	.LBB71_8
# %bb.7:                                # %if.then9
	movl	PicSizeInMapUnits, %esi
	shlq	$0, %rsi
	movabsq	$.L.str.1, %rdi
	movb	$0, %al
	callq	printf
	movl	$4294967295, %edi       # imm = 0xFFFFFFFF
	callq	exit
.LBB71_8:                               # %if.end13
	movq	-16(%rbp), %rax
	cmpl	$0, 60(%rax)
	jne	.LBB71_10
# %bb.9:                                # %if.then16
	movq	MapUnitToSliceGroupMap, %rdi
	movl	PicSizeInMapUnits, %edx
	shlq	$0, %rdx
	xorl	%esi, %esi
	callq	memset
	movl	$0, -28(%rbp)
	jmp	.LBB71_21
.LBB71_10:                              # %if.end19
	movq	-16(%rbp), %rax
	movl	64(%rax), %eax
	movq	%rax, %rcx
	subq	$6, %rcx
	ja	.LBB71_19
# %bb.11:                               # %if.end19
	movq	.LJTI71_0(,%rax,8), %rax
	jmpq	*%rax
.LBB71_12:                              # %sw.bb
	movq	-24(%rbp), %rdi
	movq	-16(%rbp), %rsi
	callq	FmoGenerateType0MapUnitMap
	jmp	.LBB71_20
.LBB71_13:                              # %sw.bb21
	movq	-24(%rbp), %rdi
	movq	-16(%rbp), %rsi
	callq	FmoGenerateType1MapUnitMap
	jmp	.LBB71_20
.LBB71_14:                              # %sw.bb22
	movq	-24(%rbp), %rdi
	movq	-16(%rbp), %rsi
	callq	FmoGenerateType2MapUnitMap
	jmp	.LBB71_20
.LBB71_15:                              # %sw.bb23
	movq	-24(%rbp), %rdi
	movq	-16(%rbp), %rsi
	callq	FmoGenerateType3MapUnitMap
	jmp	.LBB71_20
.LBB71_16:                              # %sw.bb24
	movq	-24(%rbp), %rdi
	movq	-16(%rbp), %rsi
	callq	FmoGenerateType4MapUnitMap
	jmp	.LBB71_20
.LBB71_17:                              # %sw.bb25
	movq	-24(%rbp), %rdi
	movq	-16(%rbp), %rsi
	callq	FmoGenerateType5MapUnitMap
	jmp	.LBB71_20
.LBB71_18:                              # %sw.bb26
	movq	-24(%rbp), %rdi
	movq	-16(%rbp), %rsi
	callq	FmoGenerateType6MapUnitMap
	jmp	.LBB71_20
.LBB71_19:                              # %sw.default
	movq	-16(%rbp), %rax
	movl	64(%rax), %esi
	movabsq	$.L.str.2, %rdi
	movb	$0, %al
	callq	printf
	movl	$4294967295, %edi       # imm = 0xFFFFFFFF
	callq	exit
.LBB71_20:                              # %sw.epilog
	movl	$0, -28(%rbp)
.LBB71_21:                              # %return
	movl	-28(%rbp), %ebx
	cmpl	$1573326580, -32(%rbp)  # imm = 0x5DC70EF4
	jne	.LBB71_23
.LBB71_22:
	movl	%ebx, %eax
	addq	$24, %rsp
	popq	%rbx
	popq	%rbp
	.cfi_def_cfa %rsp, 8
	retq
.LBB71_23:                              # %func_exit
	.cfi_def_cfa %rbp, 16
	callq	detect_breach
	jmp	.LBB71_22
.Lfunc_end71:
	.size	FmoGenerateMapUnitToSliceGroupMap.51, .Lfunc_end71-FmoGenerateMapUnitToSliceGroupMap.51
	.cfi_endproc
	.section	.rodata,"a",@progbits
	.p2align	3
.LJTI71_0:
	.quad	.LBB71_12
	.quad	.LBB71_13
	.quad	.LBB71_14
	.quad	.LBB71_15
	.quad	.LBB71_16
	.quad	.LBB71_17
	.quad	.LBB71_18
                                        # -- End function
	.text
	.globl	FmoGetFirstMBOfSliceGroup.52 # -- Begin function FmoGetFirstMBOfSliceGroup.52
	.p2align	4, 0x90
	.type	FmoGetFirstMBOfSliceGroup.52,@function
FmoGetFirstMBOfSliceGroup.52:           # @FmoGetFirstMBOfSliceGroup.52
	.cfi_startproc
# %bb.0:                                # %entry
	pushq	%rbp
	.cfi_def_cfa_offset 16
	.cfi_offset %rbp, -16
	movq	%rsp, %rbp
	.cfi_def_cfa_register %rbp
	pushq	%rbx
	subq	$24, %rsp
	.cfi_offset %rbx, -24
	movl	$398911263, -20(%rbp)   # imm = 0x17C6E71F
	movl	%edi, -24(%rbp)
	movl	$0, -12(%rbp)
.LBB72_1:                               # %while.cond
                                        # =>This Inner Loop Header: Depth=1
	xorl	%eax, %eax
	movl	-12(%rbp), %ecx
	movq	img, %rdx
	cmpl	72484(%rdx), %ecx
	jge	.LBB72_3
# %bb.2:                                # %land.rhs
                                        #   in Loop: Header=BB72_1 Depth=1
	movl	-12(%rbp), %edi
	callq	FmoMB2SliceGroup
	cmpl	-24(%rbp), %eax
	setne	%al
.LBB72_3:                               # %land.end
                                        #   in Loop: Header=BB72_1 Depth=1
	testb	$1, %al
	jne	.LBB72_4
	jmp	.LBB72_5
.LBB72_4:                               # %while.body
                                        #   in Loop: Header=BB72_1 Depth=1
	movl	-12(%rbp), %eax
	addl	$1, %eax
	movl	%eax, -12(%rbp)
	jmp	.LBB72_1
.LBB72_5:                               # %while.end
	movl	-12(%rbp), %eax
	movq	img, %rcx
	cmpl	72484(%rcx), %eax
	jge	.LBB72_7
# %bb.6:                                # %if.then
	movl	-12(%rbp), %eax
	movl	%eax, -16(%rbp)
	jmp	.LBB72_8
.LBB72_7:                               # %if.else
	movl	$-1, -16(%rbp)
.LBB72_8:                               # %return
	movl	-16(%rbp), %ebx
	cmpl	$398911263, -20(%rbp)   # imm = 0x17C6E71F
	jne	.LBB72_10
.LBB72_9:
	movl	%ebx, %eax
	addq	$24, %rsp
	popq	%rbx
	popq	%rbp
	.cfi_def_cfa %rsp, 8
	retq
.LBB72_10:                              # %func_exit
	.cfi_def_cfa %rbp, 16
	callq	detect_breach
	jmp	.LBB72_9
.Lfunc_end72:
	.size	FmoGetFirstMBOfSliceGroup.52, .Lfunc_end72-FmoGetFirstMBOfSliceGroup.52
	.cfi_endproc
                                        # -- End function
	.p2align	4, 0x90         # -- Begin function FmoGenerateType1MapUnitMap.53
	.type	FmoGenerateType1MapUnitMap.53,@function
FmoGenerateType1MapUnitMap.53:          # @FmoGenerateType1MapUnitMap.53
	.cfi_startproc
# %bb.0:                                # %entry
	pushq	%rbp
	.cfi_def_cfa_offset 16
	.cfi_offset %rbp, -16
	movq	%rsp, %rbp
	.cfi_def_cfa_register %rbp
	subq	$32, %rsp
	movl	$709349165, -8(%rbp)    # imm = 0x2A47CF2D
	movq	%rdi, -16(%rbp)
	movq	%rsi, -24(%rbp)
	movl	$0, -4(%rbp)
.LBB73_1:                               # %for.cond
                                        # =>This Inner Loop Header: Depth=1
	movl	-4(%rbp), %eax
	cmpl	PicSizeInMapUnits, %eax
	jae	.LBB73_4
# %bb.2:                                # %for.body
                                        #   in Loop: Header=BB73_1 Depth=1
	movl	-4(%rbp), %eax
	movq	-16(%rbp), %rcx
	xorl	%edx, %edx
	divl	72468(%rcx)
	movl	%edx, %ecx
	movl	-4(%rbp), %eax
	movq	-16(%rbp), %rsi
	xorl	%edx, %edx
	divl	72468(%rsi)
	movq	-24(%rbp), %rdx
	movl	60(%rdx), %edx
	addl	$1, %edx
	imull	%edx, %eax
	shrl	$1, %eax
	addl	%eax, %ecx
	movq	-24(%rbp), %rax
	movl	60(%rax), %esi
	addl	$1, %esi
	movl	%ecx, %eax
	xorl	%edx, %edx
	divl	%esi
	movq	MapUnitToSliceGroupMap, %rax
	movl	-4(%rbp), %ecx
	movb	%dl, (%rax,%rcx)
# %bb.3:                                # %for.inc
                                        #   in Loop: Header=BB73_1 Depth=1
	movl	-4(%rbp), %eax
	addl	$1, %eax
	movl	%eax, -4(%rbp)
	jmp	.LBB73_1
.LBB73_4:                               # %for.end
	cmpl	$709349165, -8(%rbp)    # imm = 0x2A47CF2D
	jne	.LBB73_6
.LBB73_5:
	addq	$32, %rsp
	popq	%rbp
	.cfi_def_cfa %rsp, 8
	retq
.LBB73_6:                               # %func_exit
	.cfi_def_cfa %rbp, 16
	callq	detect_breach
	jmp	.LBB73_5
.Lfunc_end73:
	.size	FmoGenerateType1MapUnitMap.53, .Lfunc_end73-FmoGenerateType1MapUnitMap.53
	.cfi_endproc
                                        # -- End function
	.globl	FmoGetNextMBNr.54       # -- Begin function FmoGetNextMBNr.54
	.p2align	4, 0x90
	.type	FmoGetNextMBNr.54,@function
FmoGetNextMBNr.54:                      # @FmoGetNextMBNr.54
	.cfi_startproc
# %bb.0:                                # %entry
	pushq	%rbp
	.cfi_def_cfa_offset 16
	.cfi_offset %rbp, -16
	movq	%rsp, %rbp
	.cfi_def_cfa_register %rbp
	pushq	%rbx
	subq	$24, %rsp
	.cfi_offset %rbx, -24
	movl	$1064411445, -24(%rbp)  # imm = 0x3F71A135
	movl	%edi, -12(%rbp)
	movl	-12(%rbp), %edi
	callq	FmoMB2SliceGroup
	movl	%eax, -20(%rbp)
.LBB74_1:                               # %while.cond
                                        # =>This Inner Loop Header: Depth=1
	xorl	%eax, %eax
	movl	-12(%rbp), %ecx
	addl	$1, %ecx
	movl	%ecx, -12(%rbp)
	movq	img, %rdx
	cmpl	72484(%rdx), %ecx
	jge	.LBB74_3
# %bb.2:                                # %land.rhs
                                        #   in Loop: Header=BB74_1 Depth=1
	movq	MBAmap, %rax
	movslq	-12(%rbp), %rcx
	movzbl	(%rax,%rcx), %eax
	cmpl	-20(%rbp), %eax
	setne	%al
.LBB74_3:                               # %land.end
                                        #   in Loop: Header=BB74_1 Depth=1
	testb	$1, %al
	jne	.LBB74_4
	jmp	.LBB74_5
.LBB74_4:                               # %while.body
                                        #   in Loop: Header=BB74_1 Depth=1
	jmp	.LBB74_1
.LBB74_5:                               # %while.end
	movl	-12(%rbp), %eax
	movq	img, %rcx
	cmpl	72484(%rcx), %eax
	jl	.LBB74_7
# %bb.6:                                # %if.then
	movl	$-1, -16(%rbp)
	jmp	.LBB74_8
.LBB74_7:                               # %if.else
	movl	-12(%rbp), %eax
	movl	%eax, -16(%rbp)
.LBB74_8:                               # %return
	movl	-16(%rbp), %ebx
	cmpl	$1064411445, -24(%rbp)  # imm = 0x3F71A135
	jne	.LBB74_10
.LBB74_9:
	movl	%ebx, %eax
	addq	$24, %rsp
	popq	%rbx
	popq	%rbp
	.cfi_def_cfa %rsp, 8
	retq
.LBB74_10:                              # %func_exit
	.cfi_def_cfa %rbp, 16
	callq	detect_breach
	jmp	.LBB74_9
.Lfunc_end74:
	.size	FmoGetNextMBNr.54, .Lfunc_end74-FmoGetNextMBNr.54
	.cfi_endproc
                                        # -- End function
	.p2align	4, 0x90         # -- Begin function FmoGenerateType3MapUnitMap.55
	.type	FmoGenerateType3MapUnitMap.55,@function
FmoGenerateType3MapUnitMap.55:          # @FmoGenerateType3MapUnitMap.55
	.cfi_startproc
# %bb.0:                                # %entry
	pushq	%rbp
	.cfi_def_cfa_offset 16
	.cfi_offset %rbp, -16
	movq	%rsp, %rbp
	.cfi_def_cfa_register %rbp
	subq	$80, %rsp
	movl	$235103537, -68(%rbp)   # imm = 0xE036531
	movq	%rdi, -40(%rbp)
	movq	%rsi, -48(%rbp)
	movq	-48(%rbp), %rax
	movl	168(%rax), %eax
	addl	$1, %eax
	movq	-40(%rbp), %rcx
	imull	72652(%rcx), %eax
	cmpl	PicSizeInMapUnits, %eax
	jae	.LBB75_2
# %bb.1:                                # %cond.true
	movq	-48(%rbp), %rax
	movl	168(%rax), %eax
	addl	$1, %eax
	movq	-40(%rbp), %rcx
	imull	72652(%rcx), %eax
	jmp	.LBB75_3
.LBB75_2:                               # %cond.false
	movl	PicSizeInMapUnits, %eax
.LBB75_3:                               # %cond.end
	movl	%eax, -64(%rbp)
	movl	$0, -56(%rbp)
.LBB75_4:                               # %for.cond
                                        # =>This Inner Loop Header: Depth=1
	movl	-56(%rbp), %eax
	cmpl	PicSizeInMapUnits, %eax
	jae	.LBB75_7
# %bb.5:                                # %for.body
                                        #   in Loop: Header=BB75_4 Depth=1
	movq	MapUnitToSliceGroupMap, %rax
	movl	-56(%rbp), %ecx
	movb	$2, (%rax,%rcx)
# %bb.6:                                # %for.inc
                                        #   in Loop: Header=BB75_4 Depth=1
	movl	-56(%rbp), %eax
	addl	$1, %eax
	movl	%eax, -56(%rbp)
	jmp	.LBB75_4
.LBB75_7:                               # %for.end
	movq	-40(%rbp), %rax
	movl	72468(%rax), %eax
	movq	-48(%rbp), %rcx
	subl	164(%rcx), %eax
	shrl	$1, %eax
	movl	%eax, -4(%rbp)
	movq	-40(%rbp), %rax
	movl	72472(%rax), %eax
	movq	-48(%rbp), %rcx
	subl	164(%rcx), %eax
	shrl	$1, %eax
	movl	%eax, -8(%rbp)
	movl	-4(%rbp), %eax
	movl	%eax, -32(%rbp)
	movl	-8(%rbp), %eax
	movl	%eax, -24(%rbp)
	movl	-4(%rbp), %eax
	movl	%eax, -28(%rbp)
	movl	-8(%rbp), %eax
	movl	%eax, -20(%rbp)
	movq	-48(%rbp), %rax
	movl	164(%rax), %eax
	subl	$1, %eax
	movl	%eax, -12(%rbp)
	movq	-48(%rbp), %rax
	movl	164(%rax), %eax
	movl	%eax, -16(%rbp)
	movl	$0, -52(%rbp)
.LBB75_8:                               # %for.cond12
                                        # =>This Inner Loop Header: Depth=1
	movl	-52(%rbp), %eax
	cmpl	PicSizeInMapUnits, %eax
	jae	.LBB75_41
# %bb.9:                                # %for.body14
                                        #   in Loop: Header=BB75_8 Depth=1
	movq	MapUnitToSliceGroupMap, %rax
	movl	-8(%rbp), %ecx
	movq	-40(%rbp), %rdx
	imull	72468(%rdx), %ecx
	addl	-4(%rbp), %ecx
	movl	%ecx, %ecx
	movzbl	(%rax,%rcx), %eax
	cmpl	$2, %eax
	sete	%al
	andb	$1, %al
	movzbl	%al, %eax
	movl	%eax, -60(%rbp)
	cmpl	$0, -60(%rbp)
	je	.LBB75_11
# %bb.10:                               # %if.then
                                        #   in Loop: Header=BB75_8 Depth=1
	movl	-52(%rbp), %eax
	cmpl	-64(%rbp), %eax
	setae	%al
	andb	$1, %al
	movzbl	%al, %eax
	movq	MapUnitToSliceGroupMap, %rcx
	movl	-8(%rbp), %edx
	movq	-40(%rbp), %rsi
	imull	72468(%rsi), %edx
	addl	-4(%rbp), %edx
	movl	%edx, %edx
	movb	%al, (%rcx,%rdx)
.LBB75_11:                              # %if.end
                                        #   in Loop: Header=BB75_8 Depth=1
	cmpl	$-1, -12(%rbp)
	jne	.LBB75_17
# %bb.12:                               # %land.lhs.true
                                        #   in Loop: Header=BB75_8 Depth=1
	movl	-4(%rbp), %eax
	cmpl	-32(%rbp), %eax
	jne	.LBB75_17
# %bb.13:                               # %if.then34
                                        #   in Loop: Header=BB75_8 Depth=1
	movl	-32(%rbp), %eax
	subl	$1, %eax
	cmpl	$0, %eax
	jle	.LBB75_15
# %bb.14:                               # %cond.true38
                                        #   in Loop: Header=BB75_8 Depth=1
	movl	-32(%rbp), %eax
	subl	$1, %eax
	jmp	.LBB75_16
.LBB75_15:                              # %cond.false40
                                        #   in Loop: Header=BB75_8 Depth=1
	xorl	%eax, %eax
	jmp	.LBB75_16
.LBB75_16:                              # %cond.end41
                                        #   in Loop: Header=BB75_8 Depth=1
	movl	%eax, -32(%rbp)
	movl	-32(%rbp), %eax
	movl	%eax, -4(%rbp)
	movl	$0, -12(%rbp)
	movq	-48(%rbp), %rax
	movl	164(%rax), %eax
	shll	$1, %eax
	subl	$1, %eax
	movl	%eax, -16(%rbp)
	jmp	.LBB75_39
.LBB75_17:                              # %if.else
                                        #   in Loop: Header=BB75_8 Depth=1
	cmpl	$1, -12(%rbp)
	jne	.LBB75_23
# %bb.18:                               # %land.lhs.true48
                                        #   in Loop: Header=BB75_8 Depth=1
	movl	-4(%rbp), %eax
	cmpl	-28(%rbp), %eax
	jne	.LBB75_23
# %bb.19:                               # %if.then51
                                        #   in Loop: Header=BB75_8 Depth=1
	movl	-28(%rbp), %eax
	addl	$1, %eax
	movq	-40(%rbp), %rcx
	movl	72468(%rcx), %ecx
	subl	$1, %ecx
	cmpl	%ecx, %eax
	jge	.LBB75_21
# %bb.20:                               # %cond.true57
                                        #   in Loop: Header=BB75_8 Depth=1
	movl	-28(%rbp), %eax
	addl	$1, %eax
	jmp	.LBB75_22
.LBB75_21:                              # %cond.false59
                                        #   in Loop: Header=BB75_8 Depth=1
	movq	-40(%rbp), %rax
	movl	72468(%rax), %eax
	subl	$1, %eax
.LBB75_22:                              # %cond.end62
                                        #   in Loop: Header=BB75_8 Depth=1
