	.text
	.file	"fmo.c"
	.globl	FmoInit                 # -- Begin function FmoInit
	.p2align	4, 0x90
	.type	FmoInit,@function
FmoInit:                                # @FmoInit
	.cfi_startproc
# %bb.0:                                # %rand_bb
	pushq	%rbp
	.cfi_def_cfa_offset 16
	.cfi_offset %rbp, -16
	movq	%rsp, %rbp
	.cfi_def_cfa_register %rbp
	pushq	%r15
	pushq	%r14
	pushq	%rbx
	pushq	%rax
	.cfi_offset %rbx, -40
	.cfi_offset %r14, -32
	.cfi_offset %r15, -24
	movq	%rdx, %r14
	movq	%rsi, %r15
	movq	%rdi, %rbx
	callq	get_urand
	cmpl	$0, %eax
	jne	.LBB0_17
# %bb.1:                                # %func_FmoInit.14
	movq	%rbx, %rdi
	movq	%r15, %rsi
	movq	%r14, %rdx
	callq	FmoInit.14
	addq	$8, %rsp
	popq	%rbx
	popq	%r14
	popq	%r15
	popq	%rbp
	.cfi_def_cfa %rsp, 8
	retq
.LBB0_2:                                # %func_FmoInit.21
	.cfi_def_cfa %rbp, 16
	movq	%rbx, %rdi
	movq	%r15, %rsi
	movq	%r14, %rdx
	callq	FmoInit.21
	addq	$8, %rsp
	popq	%rbx
	popq	%r14
	popq	%r15
	popq	%rbp
	.cfi_def_cfa %rsp, 8
	retq
.LBB0_3:                                # %func_FmoInit.30
	.cfi_def_cfa %rbp, 16
	movq	%rbx, %rdi
	movq	%r15, %rsi
	movq	%r14, %rdx
	callq	FmoInit.30
	addq	$8, %rsp
	popq	%rbx
	popq	%r14
	popq	%r15
	popq	%rbp
	.cfi_def_cfa %rsp, 8
	retq
.LBB0_4:                                # %func_FmoInit.34
	.cfi_def_cfa %rbp, 16
	movq	%rbx, %rdi
	movq	%r15, %rsi
	movq	%r14, %rdx
	callq	FmoInit.34
	addq	$8, %rsp
	popq	%rbx
	popq	%r14
	popq	%r15
	popq	%rbp
	.cfi_def_cfa %rsp, 8
	retq
.LBB0_5:                                # %func_FmoInit.60
	.cfi_def_cfa %rbp, 16
	movq	%rbx, %rdi
	movq	%r15, %rsi
	movq	%r14, %rdx
	callq	FmoInit.60
	addq	$8, %rsp
	popq	%rbx
	popq	%r14
	popq	%r15
	popq	%rbp
	.cfi_def_cfa %rsp, 8
	retq
.LBB0_6:                                # %func_FmoInit.65
	.cfi_def_cfa %rbp, 16
	movq	%rbx, %rdi
	movq	%r15, %rsi
	movq	%r14, %rdx
	callq	FmoInit.65
	addq	$8, %rsp
	popq	%rbx
	popq	%r14
	popq	%r15
	popq	%rbp
	.cfi_def_cfa %rsp, 8
	retq
.LBB0_7:                                # %func_FmoInit.70
	.cfi_def_cfa %rbp, 16
	movq	%rbx, %rdi
	movq	%r15, %rsi
	movq	%r14, %rdx
	callq	FmoInit.70
	addq	$8, %rsp
	popq	%rbx
	popq	%r14
	popq	%r15
	popq	%rbp
	.cfi_def_cfa %rsp, 8
	retq
.LBB0_8:                                # %func_FmoInit.82
	.cfi_def_cfa %rbp, 16
	movq	%rbx, %rdi
	movq	%r15, %rsi
	movq	%r14, %rdx
	callq	FmoInit.82
	addq	$8, %rsp
	popq	%rbx
	popq	%r14
	popq	%r15
	popq	%rbp
	.cfi_def_cfa %rsp, 8
	retq
.LBB0_9:                                # %func_FmoInit.88
	.cfi_def_cfa %rbp, 16
	movq	%rbx, %rdi
	movq	%r15, %rsi
	movq	%r14, %rdx
	callq	FmoInit.88
	addq	$8, %rsp
	popq	%rbx
	popq	%r14
	popq	%r15
	popq	%rbp
	.cfi_def_cfa %rsp, 8
	retq
.LBB0_10:                               # %func_FmoInit.99
	.cfi_def_cfa %rbp, 16
	movq	%rbx, %rdi
	movq	%r15, %rsi
	movq	%r14, %rdx
	callq	FmoInit.99
	addq	$8, %rsp
	popq	%rbx
	popq	%r14
	popq	%r15
	popq	%rbp
	.cfi_def_cfa %rsp, 8
	retq
.LBB0_11:                               # %func_FmoInit.104
	.cfi_def_cfa %rbp, 16
	movq	%rbx, %rdi
	movq	%r15, %rsi
	movq	%r14, %rdx
	callq	FmoInit.104
	addq	$8, %rsp
	popq	%rbx
	popq	%r14
	popq	%r15
	popq	%rbp
	.cfi_def_cfa %rsp, 8
	retq
.LBB0_12:                               # %func_FmoInit.111
	.cfi_def_cfa %rbp, 16
	movq	%rbx, %rdi
	movq	%r15, %rsi
	movq	%r14, %rdx
	callq	FmoInit.111
	addq	$8, %rsp
	popq	%rbx
	popq	%r14
	popq	%r15
	popq	%rbp
	.cfi_def_cfa %rsp, 8
	retq
.LBB0_13:                               # %func_FmoInit.119
	.cfi_def_cfa %rbp, 16
	movq	%rbx, %rdi
	movq	%r15, %rsi
	movq	%r14, %rdx
	callq	FmoInit.119
	addq	$8, %rsp
	popq	%rbx
	popq	%r14
	popq	%r15
	popq	%rbp
	.cfi_def_cfa %rsp, 8
	retq
.LBB0_14:                               # %func_FmoInit.130
	.cfi_def_cfa %rbp, 16
	movq	%rbx, %rdi
	movq	%r15, %rsi
	movq	%r14, %rdx
	callq	FmoInit.130
	addq	$8, %rsp
	popq	%rbx
	popq	%r14
	popq	%r15
	popq	%rbp
	.cfi_def_cfa %rsp, 8
	retq
.LBB0_15:                               # %func_FmoInit.132
	.cfi_def_cfa %rbp, 16
	movq	%rbx, %rdi
	movq	%r15, %rsi
	movq	%r14, %rdx
	callq	FmoInit.132
	addq	$8, %rsp
	popq	%rbx
	popq	%r14
	popq	%r15
	popq	%rbp
	.cfi_def_cfa %rsp, 8
	retq
.LBB0_16:                               # %func_FmoInit.138
	.cfi_def_cfa %rbp, 16
	movq	%rbx, %rdi
	movq	%r15, %rsi
	movq	%r14, %rdx
	callq	FmoInit.138
	addq	$8, %rsp
	popq	%rbx
	popq	%r14
	popq	%r15
	popq	%rbp
	.cfi_def_cfa %rsp, 8
	retq
.LBB0_17:                               # %ctrl0
	.cfi_def_cfa %rbp, 16
	cmpl	$1, %eax
	je	.LBB0_2
# %bb.18:                               # %ctrl1
	cmpl	$2, %eax
	je	.LBB0_3
# %bb.19:                               # %ctrl2
	cmpl	$3, %eax
	je	.LBB0_4
# %bb.20:                               # %ctrl3
	cmpl	$4, %eax
	je	.LBB0_5
# %bb.21:                               # %ctrl4
	cmpl	$5, %eax
	je	.LBB0_6
# %bb.22:                               # %ctrl5
	cmpl	$6, %eax
	je	.LBB0_7
# %bb.23:                               # %ctrl6
	cmpl	$7, %eax
	je	.LBB0_8
# %bb.24:                               # %ctrl7
	cmpl	$8, %eax
	je	.LBB0_9
# %bb.25:                               # %ctrl8
	cmpl	$9, %eax
	je	.LBB0_10
# %bb.26:                               # %ctrl9
	cmpl	$10, %eax
	je	.LBB0_11
# %bb.27:                               # %ctrl10
	cmpl	$11, %eax
	je	.LBB0_12
# %bb.28:                               # %ctrl11
	cmpl	$12, %eax
	je	.LBB0_13
# %bb.29:                               # %ctrl12
	cmpl	$13, %eax
	je	.LBB0_14
# %bb.30:                               # %ctrl13
	cmpl	$14, %eax
	je	.LBB0_15
	jmp	.LBB0_16
.Lfunc_end0:
	.size	FmoInit, .Lfunc_end0-FmoInit
	.cfi_endproc
                                        # -- End function
	.p2align	4, 0x90         # -- Begin function FmoGenerateMapUnitToSliceGroupMap
	.type	FmoGenerateMapUnitToSliceGroupMap,@function
FmoGenerateMapUnitToSliceGroupMap:      # @FmoGenerateMapUnitToSliceGroupMap
	.cfi_startproc
# %bb.0:                                # %rand_bb
	pushq	%rbp
	.cfi_def_cfa_offset 16
	.cfi_offset %rbp, -16
	movq	%rsp, %rbp
	.cfi_def_cfa_register %rbp
	pushq	%r14
	pushq	%rbx
	.cfi_offset %rbx, -32
	.cfi_offset %r14, -24
	movq	%rsi, %r14
	movq	%rdi, %rbx
	callq	get_urand
	cmpl	$0, %eax
	jne	.LBB1_7
# %bb.1:                                # %func_FmoGenerateMapUnitToSliceGroupMap.6
	movq	%rbx, %rdi
	movq	%r14, %rsi
	callq	FmoGenerateMapUnitToSliceGroupMap.6
	popq	%rbx
	popq	%r14
	popq	%rbp
	.cfi_def_cfa %rsp, 8
	retq
.LBB1_2:                                # %func_FmoGenerateMapUnitToSliceGroupMap.9
	.cfi_def_cfa %rbp, 16
	movq	%rbx, %rdi
	movq	%r14, %rsi
	callq	FmoGenerateMapUnitToSliceGroupMap.9
	popq	%rbx
	popq	%r14
	popq	%rbp
	.cfi_def_cfa %rsp, 8
	retq
.LBB1_3:                                # %func_FmoGenerateMapUnitToSliceGroupMap.33
	.cfi_def_cfa %rbp, 16
	movq	%rbx, %rdi
	movq	%r14, %rsi
	callq	FmoGenerateMapUnitToSliceGroupMap.33
	popq	%rbx
	popq	%r14
	popq	%rbp
	.cfi_def_cfa %rsp, 8
	retq
.LBB1_4:                                # %func_FmoGenerateMapUnitToSliceGroupMap.51
	.cfi_def_cfa %rbp, 16
	movq	%rbx, %rdi
	movq	%r14, %rsi
	callq	FmoGenerateMapUnitToSliceGroupMap.51
	popq	%rbx
	popq	%r14
	popq	%rbp
	.cfi_def_cfa %rsp, 8
	retq
.LBB1_5:                                # %func_FmoGenerateMapUnitToSliceGroupMap.62
	.cfi_def_cfa %rbp, 16
	movq	%rbx, %rdi
	movq	%r14, %rsi
	callq	FmoGenerateMapUnitToSliceGroupMap.62
	popq	%rbx
	popq	%r14
	popq	%rbp
	.cfi_def_cfa %rsp, 8
	retq
.LBB1_6:                                # %func_FmoGenerateMapUnitToSliceGroupMap.67
	.cfi_def_cfa %rbp, 16
	movq	%rbx, %rdi
	movq	%r14, %rsi
	callq	FmoGenerateMapUnitToSliceGroupMap.67
	popq	%rbx
	popq	%r14
	popq	%rbp
	.cfi_def_cfa %rsp, 8
	retq
.LBB1_7:                                # %ctrl0
	.cfi_def_cfa %rbp, 16
	cmpl	$1, %eax
	je	.LBB1_2
# %bb.8:                                # %ctrl1
	cmpl	$2, %eax
	je	.LBB1_3
# %bb.9:                                # %ctrl2
	cmpl	$3, %eax
	je	.LBB1_4
# %bb.10:                               # %ctrl3
	cmpl	$4, %eax
	je	.LBB1_5
	jmp	.LBB1_6
.Lfunc_end1:
	.size	FmoGenerateMapUnitToSliceGroupMap, .Lfunc_end1-FmoGenerateMapUnitToSliceGroupMap
	.cfi_endproc
                                        # -- End function
	.p2align	4, 0x90         # -- Begin function FmoGenerateMBAmap
	.type	FmoGenerateMBAmap,@function
FmoGenerateMBAmap:                      # @FmoGenerateMBAmap
	.cfi_startproc
# %bb.0:                                # %rand_bb
	pushq	%rbp
	.cfi_def_cfa_offset 16
	.cfi_offset %rbp, -16
	movq	%rsp, %rbp
	.cfi_def_cfa_register %rbp
	pushq	%r14
	pushq	%rbx
	.cfi_offset %rbx, -32
	.cfi_offset %r14, -24
	movq	%rsi, %r14
	movq	%rdi, %rbx
	callq	get_urand
	cmpl	$0, %eax
	jne	.LBB2_7
# %bb.1:                                # %func_FmoGenerateMBAmap.19
	movq	%rbx, %rdi
	movq	%r14, %rsi
	callq	FmoGenerateMBAmap.19
	popq	%rbx
	popq	%r14
	popq	%rbp
	.cfi_def_cfa %rsp, 8
	retq
.LBB2_2:                                # %func_FmoGenerateMBAmap.36
	.cfi_def_cfa %rbp, 16
	movq	%rbx, %rdi
	movq	%r14, %rsi
	callq	FmoGenerateMBAmap.36
	popq	%rbx
	popq	%r14
	popq	%rbp
	.cfi_def_cfa %rsp, 8
	retq
.LBB2_3:                                # %func_FmoGenerateMBAmap.76
	.cfi_def_cfa %rbp, 16
	movq	%rbx, %rdi
	movq	%r14, %rsi
	callq	FmoGenerateMBAmap.76
	popq	%rbx
	popq	%r14
	popq	%rbp
	.cfi_def_cfa %rsp, 8
	retq
.LBB2_4:                                # %func_FmoGenerateMBAmap.83
	.cfi_def_cfa %rbp, 16
	movq	%rbx, %rdi
	movq	%r14, %rsi
	callq	FmoGenerateMBAmap.83
	popq	%rbx
	popq	%r14
	popq	%rbp
	.cfi_def_cfa %rsp, 8
	retq
.LBB2_5:                                # %func_FmoGenerateMBAmap.113
	.cfi_def_cfa %rbp, 16
	movq	%rbx, %rdi
	movq	%r14, %rsi
	callq	FmoGenerateMBAmap.113
	popq	%rbx
	popq	%r14
	popq	%rbp
	.cfi_def_cfa %rsp, 8
	retq
.LBB2_6:                                # %func_FmoGenerateMBAmap.123
	.cfi_def_cfa %rbp, 16
	movq	%rbx, %rdi
	movq	%r14, %rsi
	callq	FmoGenerateMBAmap.123
	popq	%rbx
	popq	%r14
	popq	%rbp
	.cfi_def_cfa %rsp, 8
	retq
.LBB2_7:                                # %ctrl0
	.cfi_def_cfa %rbp, 16
	cmpl	$1, %eax
	je	.LBB2_2
# %bb.8:                                # %ctrl1
	cmpl	$2, %eax
	je	.LBB2_3
# %bb.9:                                # %ctrl2
	cmpl	$3, %eax
	je	.LBB2_4
# %bb.10:                               # %ctrl3
	cmpl	$4, %eax
	je	.LBB2_5
	jmp	.LBB2_6
.Lfunc_end2:
	.size	FmoGenerateMBAmap, .Lfunc_end2-FmoGenerateMBAmap
	.cfi_endproc
                                        # -- End function
	.globl	FmoUninit               # -- Begin function FmoUninit
	.p2align	4, 0x90
	.type	FmoUninit,@function
FmoUninit:                              # @FmoUninit
	.cfi_startproc
# %bb.0:                                # %entry
	pushq	%rbp
	.cfi_def_cfa_offset 16
	.cfi_offset %rbp, -16
	movq	%rsp, %rbp
	.cfi_def_cfa_register %rbp
	cmpq	$0, MBAmap
	je	.LBB3_2
# %bb.1:                                # %if.then
	movq	MBAmap, %rdi
	callq	free
	movq	$0, MBAmap
.LBB3_2:                                # %if.end
	cmpq	$0, MapUnitToSliceGroupMap
	je	.LBB3_4
# %bb.3:                                # %if.then2
	movq	MapUnitToSliceGroupMap, %rdi
	callq	free
	movq	$0, MapUnitToSliceGroupMap
.LBB3_4:                                # %if.end3
	popq	%rbp
	.cfi_def_cfa %rsp, 8
	retq
.Lfunc_end3:
	.size	FmoUninit, .Lfunc_end3-FmoUninit
	.cfi_endproc
                                        # -- End function
	.globl	FmoStartPicture         # -- Begin function FmoStartPicture
	.p2align	4, 0x90
	.type	FmoStartPicture,@function
FmoStartPicture:                        # @FmoStartPicture
	.cfi_startproc
# %bb.0:                                # %entry
	pushq	%rbp
	.cfi_def_cfa_offset 16
	.cfi_offset %rbp, -16
	movq	%rsp, %rbp
	.cfi_def_cfa_register %rbp
	subq	$16, %rsp
	movl	$0, -4(%rbp)
.LBB4_1:                                # %for.cond
                                        # =>This Inner Loop Header: Depth=1
	cmpl	$8, -4(%rbp)
	jge	.LBB4_4
# %bb.2:                                # %for.body
                                        #   in Loop: Header=BB4_1 Depth=1
	movl	-4(%rbp), %edi
	callq	FmoGetFirstMBOfSliceGroup
	movslq	-4(%rbp), %rcx
	movl	%eax, FirstMBInSlice(,%rcx,4)
# %bb.3:                                # %for.inc
                                        #   in Loop: Header=BB4_1 Depth=1
	movl	-4(%rbp), %eax
	addl	$1, %eax
	movl	%eax, -4(%rbp)
	jmp	.LBB4_1
.LBB4_4:                                # %for.end
	xorl	%eax, %eax
	addq	$16, %rsp
	popq	%rbp
	.cfi_def_cfa %rsp, 8
	retq
.Lfunc_end4:
	.size	FmoStartPicture, .Lfunc_end4-FmoStartPicture
	.cfi_endproc
                                        # -- End function
	.globl	FmoGetFirstMBOfSliceGroup # -- Begin function FmoGetFirstMBOfSliceGroup
	.p2align	4, 0x90
	.type	FmoGetFirstMBOfSliceGroup,@function
FmoGetFirstMBOfSliceGroup:              # @FmoGetFirstMBOfSliceGroup
	.cfi_startproc
# %bb.0:                                # %rand_bb
	pushq	%rbp
	.cfi_def_cfa_offset 16
	.cfi_offset %rbp, -16
	movq	%rsp, %rbp
	.cfi_def_cfa_register %rbp
	pushq	%rbx
	pushq	%rax
	.cfi_offset %rbx, -24
	movl	%edi, %ebx
	callq	get_urand
	cmpl	$0, %eax
	jne	.LBB5_7
# %bb.1:                                # %func_FmoGetFirstMBOfSliceGroup.22
	movl	%ebx, %edi
	callq	FmoGetFirstMBOfSliceGroup.22
	addq	$8, %rsp
	popq	%rbx
	popq	%rbp
	.cfi_def_cfa %rsp, 8
	retq
.LBB5_2:                                # %func_FmoGetFirstMBOfSliceGroup.28
	.cfi_def_cfa %rbp, 16
	movl	%ebx, %edi
	callq	FmoGetFirstMBOfSliceGroup.28
	addq	$8, %rsp
	popq	%rbx
	popq	%rbp
	.cfi_def_cfa %rsp, 8
	retq
.LBB5_3:                                # %func_FmoGetFirstMBOfSliceGroup.52
	.cfi_def_cfa %rbp, 16
	movl	%ebx, %edi
	callq	FmoGetFirstMBOfSliceGroup.52
	addq	$8, %rsp
	popq	%rbx
	popq	%rbp
	.cfi_def_cfa %rsp, 8
	retq
.LBB5_4:                                # %func_FmoGetFirstMBOfSliceGroup.66
	.cfi_def_cfa %rbp, 16
	movl	%ebx, %edi
	callq	FmoGetFirstMBOfSliceGroup.66
	addq	$8, %rsp
	popq	%rbx
	popq	%rbp
	.cfi_def_cfa %rsp, 8
	retq
.LBB5_5:                                # %func_FmoGetFirstMBOfSliceGroup.116
	.cfi_def_cfa %rbp, 16
	movl	%ebx, %edi
	callq	FmoGetFirstMBOfSliceGroup.116
	addq	$8, %rsp
	popq	%rbx
	popq	%rbp
	.cfi_def_cfa %rsp, 8
	retq
.LBB5_6:                                # %func_FmoGetFirstMBOfSliceGroup.122
	.cfi_def_cfa %rbp, 16
	movl	%ebx, %edi
	callq	FmoGetFirstMBOfSliceGroup.122
	addq	$8, %rsp
	popq	%rbx
	popq	%rbp
	.cfi_def_cfa %rsp, 8
	retq
.LBB5_7:                                # %ctrl0
	.cfi_def_cfa %rbp, 16
	cmpl	$1, %eax
	je	.LBB5_2
# %bb.8:                                # %ctrl1
	cmpl	$2, %eax
	je	.LBB5_3
# %bb.9:                                # %ctrl2
	cmpl	$3, %eax
	je	.LBB5_4
# %bb.10:                               # %ctrl3
	cmpl	$4, %eax
	je	.LBB5_5
	jmp	.LBB5_6
.Lfunc_end5:
	.size	FmoGetFirstMBOfSliceGroup, .Lfunc_end5-FmoGetFirstMBOfSliceGroup
	.cfi_endproc
                                        # -- End function
	.globl	FmoEndPicture           # -- Begin function FmoEndPicture
	.p2align	4, 0x90
	.type	FmoEndPicture,@function
FmoEndPicture:                          # @FmoEndPicture
	.cfi_startproc
# %bb.0:                                # %entry
	pushq	%rbp
	.cfi_def_cfa_offset 16
	.cfi_offset %rbp, -16
	movq	%rsp, %rbp
	.cfi_def_cfa_register %rbp
	xorl	%eax, %eax
	popq	%rbp
	.cfi_def_cfa %rsp, 8
	retq
.Lfunc_end6:
	.size	FmoEndPicture, .Lfunc_end6-FmoEndPicture
	.cfi_endproc
                                        # -- End function
	.globl	FmoMB2SliceGroup        # -- Begin function FmoMB2SliceGroup
	.p2align	4, 0x90
	.type	FmoMB2SliceGroup,@function
FmoMB2SliceGroup:                       # @FmoMB2SliceGroup
	.cfi_startproc
# %bb.0:                                # %entry
	pushq	%rbp
	.cfi_def_cfa_offset 16
	.cfi_offset %rbp, -16
	movq	%rsp, %rbp
	.cfi_def_cfa_register %rbp
	movl	%edi, -4(%rbp)
	movq	MBAmap, %rax
	movslq	-4(%rbp), %rcx
	movzbl	(%rax,%rcx), %eax
	popq	%rbp
	.cfi_def_cfa %rsp, 8
	retq
.Lfunc_end7:
	.size	FmoMB2SliceGroup, .Lfunc_end7-FmoMB2SliceGroup
	.cfi_endproc
                                        # -- End function
	.globl	FmoGetNextMBNr          # -- Begin function FmoGetNextMBNr
	.p2align	4, 0x90
	.type	FmoGetNextMBNr,@function
FmoGetNextMBNr:                         # @FmoGetNextMBNr
	.cfi_startproc
# %bb.0:                                # %rand_bb
	pushq	%rbp
	.cfi_def_cfa_offset 16
	.cfi_offset %rbp, -16
	movq	%rsp, %rbp
	.cfi_def_cfa_register %rbp
	pushq	%rbx
	pushq	%rax
	.cfi_offset %rbx, -24
	movl	%edi, %ebx
	callq	get_urand
	cmpl	$0, %eax
	jne	.LBB8_7
# %bb.1:                                # %func_FmoGetNextMBNr.38
	movl	%ebx, %edi
	callq	FmoGetNextMBNr.38
	addq	$8, %rsp
	popq	%rbx
	popq	%rbp
	.cfi_def_cfa %rsp, 8
	retq
.LBB8_2:                                # %func_FmoGetNextMBNr.50
	.cfi_def_cfa %rbp, 16
	movl	%ebx, %edi
	callq	FmoGetNextMBNr.50
	addq	$8, %rsp
	popq	%rbx
	popq	%rbp
	.cfi_def_cfa %rsp, 8
	retq
.LBB8_3:                                # %func_FmoGetNextMBNr.73
	.cfi_def_cfa %rbp, 16
	movl	%ebx, %edi
	callq	FmoGetNextMBNr.73
	addq	$8, %rsp
	popq	%rbx
	popq	%rbp
	.cfi_def_cfa %rsp, 8
	retq
.LBB8_4:                                # %func_FmoGetNextMBNr.81
	.cfi_def_cfa %rbp, 16
	movl	%ebx, %edi
	callq	FmoGetNextMBNr.81
	addq	$8, %rsp
	popq	%rbx
	popq	%rbp
	.cfi_def_cfa %rsp, 8
	retq
.LBB8_5:                                # %func_FmoGetNextMBNr.101
	.cfi_def_cfa %rbp, 16
	movl	%ebx, %edi
	callq	FmoGetNextMBNr.101
	addq	$8, %rsp
	popq	%rbx
	popq	%rbp
	.cfi_def_cfa %rsp, 8
	retq
.LBB8_6:                                # %func_FmoGetNextMBNr.114
	.cfi_def_cfa %rbp, 16
	movl	%ebx, %edi
	callq	FmoGetNextMBNr.114
	addq	$8, %rsp
	popq	%rbx
	popq	%rbp
	.cfi_def_cfa %rsp, 8
	retq
.LBB8_7:                                # %ctrl0
	.cfi_def_cfa %rbp, 16
	cmpl	$1, %eax
	je	.LBB8_2
# %bb.8:                                # %ctrl1
	cmpl	$2, %eax
	je	.LBB8_3
# %bb.9:                                # %ctrl2
	cmpl	$3, %eax
	je	.LBB8_4
# %bb.10:                               # %ctrl3
	cmpl	$4, %eax
	je	.LBB8_5
	jmp	.LBB8_6
.Lfunc_end8:
	.size	FmoGetNextMBNr, .Lfunc_end8-FmoGetNextMBNr
	.cfi_endproc
                                        # -- End function
	.globl	FmoGetPreviousMBNr      # -- Begin function FmoGetPreviousMBNr
	.p2align	4, 0x90
	.type	FmoGetPreviousMBNr,@function
FmoGetPreviousMBNr:                     # @FmoGetPreviousMBNr
	.cfi_startproc
# %bb.0:                                # %rand_bb
	pushq	%rbp
	.cfi_def_cfa_offset 16
	.cfi_offset %rbp, -16
	movq	%rsp, %rbp
	.cfi_def_cfa_register %rbp
	pushq	%rbx
	pushq	%rax
	.cfi_offset %rbx, -24
	movl	%edi, %ebx
	callq	get_urand
	cmpl	$0, %eax
	jne	.LBB9_7
# %bb.1:                                # %func_FmoGetPreviousMBNr.25
	movl	%ebx, %edi
	callq	FmoGetPreviousMBNr.25
	addq	$8, %rsp
	popq	%rbx
	popq	%rbp
	.cfi_def_cfa %rsp, 8
	retq
.LBB9_2:                                # %func_FmoGetPreviousMBNr.26
	.cfi_def_cfa %rbp, 16
	movl	%ebx, %edi
	callq	FmoGetPreviousMBNr.26
	addq	$8, %rsp
	popq	%rbx
	popq	%rbp
	.cfi_def_cfa %rsp, 8
	retq
.LBB9_3:                                # %func_FmoGetPreviousMBNr.40
	.cfi_def_cfa %rbp, 16
	movl	%ebx, %edi
	callq	FmoGetPreviousMBNr.40
	addq	$8, %rsp
	popq	%rbx
	popq	%rbp
	.cfi_def_cfa %rsp, 8
	retq
.LBB9_4:                                # %func_FmoGetPreviousMBNr.63
	.cfi_def_cfa %rbp, 16
	movl	%ebx, %edi
	callq	FmoGetPreviousMBNr.63
	addq	$8, %rsp
	popq	%rbx
	popq	%rbp
	.cfi_def_cfa %rsp, 8
	retq
.LBB9_5:                                # %func_FmoGetPreviousMBNr.75
	.cfi_def_cfa %rbp, 16
	movl	%ebx, %edi
	callq	FmoGetPreviousMBNr.75
	addq	$8, %rsp
	popq	%rbx
	popq	%rbp
	.cfi_def_cfa %rsp, 8
	retq
.LBB9_6:                                # %func_FmoGetPreviousMBNr.84
	.cfi_def_cfa %rbp, 16
	movl	%ebx, %edi
	callq	FmoGetPreviousMBNr.84
	addq	$8, %rsp
	popq	%rbx
	popq	%rbp
	.cfi_def_cfa %rsp, 8
	retq
.LBB9_7:                                # %ctrl0
	.cfi_def_cfa %rbp, 16
	cmpl	$1, %eax
	je	.LBB9_2
# %bb.8:                                # %ctrl1
	cmpl	$2, %eax
	je	.LBB9_3
# %bb.9:                                # %ctrl2
	cmpl	$3, %eax
	je	.LBB9_4
# %bb.10:                               # %ctrl3
	cmpl	$4, %eax
	je	.LBB9_5
	jmp	.LBB9_6
.Lfunc_end9:
	.size	FmoGetPreviousMBNr, .Lfunc_end9-FmoGetPreviousMBNr
	.cfi_endproc
                                        # -- End function
	.globl	FmoGetLastCodedMBOfSliceGroup # -- Begin function FmoGetLastCodedMBOfSliceGroup
	.p2align	4, 0x90
	.type	FmoGetLastCodedMBOfSliceGroup,@function
FmoGetLastCodedMBOfSliceGroup:          # @FmoGetLastCodedMBOfSliceGroup
	.cfi_startproc
# %bb.0:                                # %rand_bb
	pushq	%rbp
	.cfi_def_cfa_offset 16
	.cfi_offset %rbp, -16
	movq	%rsp, %rbp
	.cfi_def_cfa_register %rbp
	pushq	%rbx
	pushq	%rax
	.cfi_offset %rbx, -24
	movl	%edi, %ebx
	callq	get_urand
	cmpl	$0, %eax
	jne	.LBB10_7
# %bb.1:                                # %func_FmoGetLastCodedMBOfSliceGroup.2
	movl	%ebx, %edi
	callq	FmoGetLastCodedMBOfSliceGroup.2
	addq	$8, %rsp
	popq	%rbx
	popq	%rbp
	.cfi_def_cfa %rsp, 8
	retq
.LBB10_2:                               # %func_FmoGetLastCodedMBOfSliceGroup.7
	.cfi_def_cfa %rbp, 16
	movl	%ebx, %edi
	callq	FmoGetLastCodedMBOfSliceGroup.7
	addq	$8, %rsp
	popq	%rbx
	popq	%rbp
	.cfi_def_cfa %rsp, 8
	retq
.LBB10_3:                               # %func_FmoGetLastCodedMBOfSliceGroup.15
	.cfi_def_cfa %rbp, 16
	movl	%ebx, %edi
	callq	FmoGetLastCodedMBOfSliceGroup.15
	addq	$8, %rsp
	popq	%rbx
	popq	%rbp
	.cfi_def_cfa %rsp, 8
	retq
.LBB10_4:                               # %func_FmoGetLastCodedMBOfSliceGroup.20
	.cfi_def_cfa %rbp, 16
	movl	%ebx, %edi
	callq	FmoGetLastCodedMBOfSliceGroup.20
	addq	$8, %rsp
	popq	%rbx
	popq	%rbp
	.cfi_def_cfa %rsp, 8
	retq
.LBB10_5:                               # %func_FmoGetLastCodedMBOfSliceGroup.24
	.cfi_def_cfa %rbp, 16
	movl	%ebx, %edi
	callq	FmoGetLastCodedMBOfSliceGroup.24
	addq	$8, %rsp
	popq	%rbx
	popq	%rbp
	.cfi_def_cfa %rsp, 8
	retq
.LBB10_6:                               # %func_FmoGetLastCodedMBOfSliceGroup.64
	.cfi_def_cfa %rbp, 16
	movl	%ebx, %edi
	callq	FmoGetLastCodedMBOfSliceGroup.64
	addq	$8, %rsp
	popq	%rbx
	popq	%rbp
	.cfi_def_cfa %rsp, 8
	retq
.LBB10_7:                               # %ctrl0
	.cfi_def_cfa %rbp, 16
	cmpl	$1, %eax
	je	.LBB10_2
# %bb.8:                                # %ctrl1
	cmpl	$2, %eax
	je	.LBB10_3
# %bb.9:                                # %ctrl2
	cmpl	$3, %eax
	je	.LBB10_4
# %bb.10:                               # %ctrl3
	cmpl	$4, %eax
	je	.LBB10_5
	jmp	.LBB10_6
.Lfunc_end10:
	.size	FmoGetLastCodedMBOfSliceGroup, .Lfunc_end10-FmoGetLastCodedMBOfSliceGroup
	.cfi_endproc
                                        # -- End function
	.globl	FmoSetLastMacroblockInSlice # -- Begin function FmoSetLastMacroblockInSlice
	.p2align	4, 0x90
	.type	FmoSetLastMacroblockInSlice,@function
FmoSetLastMacroblockInSlice:            # @FmoSetLastMacroblockInSlice
	.cfi_startproc
# %bb.0:                                # %rand_bb
	pushq	%rbp
	.cfi_def_cfa_offset 16
	.cfi_offset %rbp, -16
	movq	%rsp, %rbp
	.cfi_def_cfa_register %rbp
	pushq	%rbx
	pushq	%rax
	.cfi_offset %rbx, -24
	movl	%edi, %ebx
	callq	get_urand
	cmpl	$0, %eax
	jne	.LBB11_2
# %bb.1:                                # %func_FmoSetLastMacroblockInSlice.4
	movl	%ebx, %edi
	callq	FmoSetLastMacroblockInSlice.4
	addq	$8, %rsp
	popq	%rbx
	popq	%rbp
	.cfi_def_cfa %rsp, 8
	retq
.LBB11_2:                               # %func_FmoSetLastMacroblockInSlice.13
	.cfi_def_cfa %rbp, 16
	movl	%ebx, %edi
	callq	FmoSetLastMacroblockInSlice.13
	addq	$8, %rsp
	popq	%rbx
	popq	%rbp
	.cfi_def_cfa %rsp, 8
	retq
.Lfunc_end11:
	.size	FmoSetLastMacroblockInSlice, .Lfunc_end11-FmoSetLastMacroblockInSlice
	.cfi_endproc
                                        # -- End function
	.globl	FmoGetFirstMacroblockInSlice # -- Begin function FmoGetFirstMacroblockInSlice
	.p2align	4, 0x90
	.type	FmoGetFirstMacroblockInSlice,@function
FmoGetFirstMacroblockInSlice:           # @FmoGetFirstMacroblockInSlice
	.cfi_startproc
# %bb.0:                                # %entry
	pushq	%rbp
	.cfi_def_cfa_offset 16
	.cfi_offset %rbp, -16
	movq	%rsp, %rbp
	.cfi_def_cfa_register %rbp
	movl	%edi, -4(%rbp)
	movslq	-4(%rbp), %rax
	movl	FirstMBInSlice(,%rax,4), %eax
	popq	%rbp
	.cfi_def_cfa %rsp, 8
	retq
.Lfunc_end12:
	.size	FmoGetFirstMacroblockInSlice, .Lfunc_end12-FmoGetFirstMacroblockInSlice
	.cfi_endproc
                                        # -- End function
	.globl	FmoSliceGroupCompletelyCoded # -- Begin function FmoSliceGroupCompletelyCoded
	.p2align	4, 0x90
	.type	FmoSliceGroupCompletelyCoded,@function
FmoSliceGroupCompletelyCoded:           # @FmoSliceGroupCompletelyCoded
	.cfi_startproc
# %bb.0:                                # %rand_bb
	pushq	%rbp
	.cfi_def_cfa_offset 16
	.cfi_offset %rbp, -16
	movq	%rsp, %rbp
	.cfi_def_cfa_register %rbp
	pushq	%rbx
	pushq	%rax
	.cfi_offset %rbx, -24
	movl	%edi, %ebx
	callq	get_urand
	cmpl	$0, %eax
	jne	.LBB13_2
# %bb.1:                                # %func_FmoSliceGroupCompletelyCoded.3
	movl	%ebx, %edi
	callq	FmoSliceGroupCompletelyCoded.3
	addq	$8, %rsp
	popq	%rbx
	popq	%rbp
	.cfi_def_cfa %rsp, 8
	retq
.LBB13_2:                               # %func_FmoSliceGroupCompletelyCoded.10
	.cfi_def_cfa %rbp, 16
	movl	%ebx, %edi
	callq	FmoSliceGroupCompletelyCoded.10
	addq	$8, %rsp
	popq	%rbx
	popq	%rbp
	.cfi_def_cfa %rsp, 8
	retq
.Lfunc_end13:
	.size	FmoSliceGroupCompletelyCoded, .Lfunc_end13-FmoSliceGroupCompletelyCoded
	.cfi_endproc
                                        # -- End function
	.p2align	4, 0x90         # -- Begin function FmoGenerateType0MapUnitMap
	.type	FmoGenerateType0MapUnitMap,@function
FmoGenerateType0MapUnitMap:             # @FmoGenerateType0MapUnitMap
	.cfi_startproc
# %bb.0:                                # %rand_bb
	pushq	%rbp
	.cfi_def_cfa_offset 16
	.cfi_offset %rbp, -16
	movq	%rsp, %rbp
	.cfi_def_cfa_register %rbp
	pushq	%r14
	pushq	%rbx
	.cfi_offset %rbx, -32
	.cfi_offset %r14, -24
	movq	%rsi, %r14
	movq	%rdi, %rbx
	callq	get_urand
	cmpl	$0, %eax
	jne	.LBB14_17
# %bb.1:                                # %func_FmoGenerateType0MapUnitMap.23
	movq	%rbx, %rdi
	movq	%r14, %rsi
	callq	FmoGenerateType0MapUnitMap.23
	popq	%rbx
	popq	%r14
	popq	%rbp
	.cfi_def_cfa %rsp, 8
	retq
.LBB14_2:                               # %func_FmoGenerateType0MapUnitMap.27
	.cfi_def_cfa %rbp, 16
	movq	%rbx, %rdi
	movq	%r14, %rsi
	callq	FmoGenerateType0MapUnitMap.27
	popq	%rbx
	popq	%r14
	popq	%rbp
	.cfi_def_cfa %rsp, 8
	retq
.LBB14_3:                               # %func_FmoGenerateType0MapUnitMap.35
	.cfi_def_cfa %rbp, 16
	movq	%rbx, %rdi
	movq	%r14, %rsi
	callq	FmoGenerateType0MapUnitMap.35
	popq	%rbx
	popq	%r14
	popq	%rbp
	.cfi_def_cfa %rsp, 8
	retq
.LBB14_4:                               # %func_FmoGenerateType0MapUnitMap.37
	.cfi_def_cfa %rbp, 16
	movq	%rbx, %rdi
	movq	%r14, %rsi
	callq	FmoGenerateType0MapUnitMap.37
	popq	%rbx
	popq	%r14
	popq	%rbp
	.cfi_def_cfa %rsp, 8
	retq
.LBB14_5:                               # %func_FmoGenerateType0MapUnitMap.44
	.cfi_def_cfa %rbp, 16
	movq	%rbx, %rdi
	movq	%r14, %rsi
	callq	FmoGenerateType0MapUnitMap.44
	popq	%rbx
	popq	%r14
	popq	%rbp
	.cfi_def_cfa %rsp, 8
	retq
.LBB14_6:                               # %func_FmoGenerateType0MapUnitMap.45
	.cfi_def_cfa %rbp, 16
	movq	%rbx, %rdi
	movq	%r14, %rsi
	callq	FmoGenerateType0MapUnitMap.45
	popq	%rbx
	popq	%r14
	popq	%rbp
	.cfi_def_cfa %rsp, 8
	retq
.LBB14_7:                               # %func_FmoGenerateType0MapUnitMap.48
	.cfi_def_cfa %rbp, 16
	movq	%rbx, %rdi
	movq	%r14, %rsi
	callq	FmoGenerateType0MapUnitMap.48
	popq	%rbx
	popq	%r14
	popq	%rbp
	.cfi_def_cfa %rsp, 8
	retq
.LBB14_8:                               # %func_FmoGenerateType0MapUnitMap.53
	.cfi_def_cfa %rbp, 16
	movq	%rbx, %rdi
	movq	%r14, %rsi
	callq	FmoGenerateType0MapUnitMap.53
	popq	%rbx
	popq	%r14
	popq	%rbp
	.cfi_def_cfa %rsp, 8
	retq
.LBB14_9:                               # %func_FmoGenerateType0MapUnitMap.57
	.cfi_def_cfa %rbp, 16
	movq	%rbx, %rdi
	movq	%r14, %rsi
	callq	FmoGenerateType0MapUnitMap.57
	popq	%rbx
	popq	%r14
	popq	%rbp
	.cfi_def_cfa %rsp, 8
	retq
.LBB14_10:                              # %func_FmoGenerateType0MapUnitMap.69
	.cfi_def_cfa %rbp, 16
	movq	%rbx, %rdi
	movq	%r14, %rsi
	callq	FmoGenerateType0MapUnitMap.69
	popq	%rbx
	popq	%r14
	popq	%rbp
	.cfi_def_cfa %rsp, 8
	retq
.LBB14_11:                              # %func_FmoGenerateType0MapUnitMap.90
	.cfi_def_cfa %rbp, 16
	movq	%rbx, %rdi
	movq	%r14, %rsi
	callq	FmoGenerateType0MapUnitMap.90
	popq	%rbx
	popq	%r14
	popq	%rbp
	.cfi_def_cfa %rsp, 8
	retq
.LBB14_12:                              # %func_FmoGenerateType0MapUnitMap.91
	.cfi_def_cfa %rbp, 16
	movq	%rbx, %rdi
	movq	%r14, %rsi
	callq	FmoGenerateType0MapUnitMap.91
	popq	%rbx
	popq	%r14
	popq	%rbp
	.cfi_def_cfa %rsp, 8
	retq
.LBB14_13:                              # %func_FmoGenerateType0MapUnitMap.94
	.cfi_def_cfa %rbp, 16
	movq	%rbx, %rdi
	movq	%r14, %rsi
	callq	FmoGenerateType0MapUnitMap.94
	popq	%rbx
	popq	%r14
	popq	%rbp
	.cfi_def_cfa %rsp, 8
	retq
.LBB14_14:                              # %func_FmoGenerateType0MapUnitMap.95
	.cfi_def_cfa %rbp, 16
	movq	%rbx, %rdi
	movq	%r14, %rsi
	callq	FmoGenerateType0MapUnitMap.95
	popq	%rbx
	popq	%r14
	popq	%rbp
	.cfi_def_cfa %rsp, 8
	retq
.LBB14_15:                              # %func_FmoGenerateType0MapUnitMap.112
	.cfi_def_cfa %rbp, 16
	movq	%rbx, %rdi
	movq	%r14, %rsi
	callq	FmoGenerateType0MapUnitMap.112
	popq	%rbx
	popq	%r14
	popq	%rbp
	.cfi_def_cfa %rsp, 8
	retq
.LBB14_16:                              # %func_FmoGenerateType0MapUnitMap.115
	.cfi_def_cfa %rbp, 16
	movq	%rbx, %rdi
	movq	%r14, %rsi
	callq	FmoGenerateType0MapUnitMap.115
	popq	%rbx
	popq	%r14
	popq	%rbp
	.cfi_def_cfa %rsp, 8
	retq
.LBB14_17:                              # %ctrl0
	.cfi_def_cfa %rbp, 16
	cmpl	$1, %eax
	je	.LBB14_2
# %bb.18:                               # %ctrl1
	cmpl	$2, %eax
	je	.LBB14_3
# %bb.19:                               # %ctrl2
	cmpl	$3, %eax
	je	.LBB14_4
# %bb.20:                               # %ctrl3
	cmpl	$4, %eax
	je	.LBB14_5
# %bb.21:                               # %ctrl4
	cmpl	$5, %eax
	je	.LBB14_6
# %bb.22:                               # %ctrl5
	cmpl	$6, %eax
	je	.LBB14_7
# %bb.23:                               # %ctrl6
	cmpl	$7, %eax
	je	.LBB14_8
# %bb.24:                               # %ctrl7
	cmpl	$8, %eax
	je	.LBB14_9
# %bb.25:                               # %ctrl8
	cmpl	$9, %eax
	je	.LBB14_10
# %bb.26:                               # %ctrl9
	cmpl	$10, %eax
	je	.LBB14_11
# %bb.27:                               # %ctrl10
	cmpl	$11, %eax
	je	.LBB14_12
# %bb.28:                               # %ctrl11
	cmpl	$12, %eax
	je	.LBB14_13
# %bb.29:                               # %ctrl12
	cmpl	$13, %eax
	je	.LBB14_14
# %bb.30:                               # %ctrl13
	cmpl	$14, %eax
	je	.LBB14_15
	jmp	.LBB14_16
.Lfunc_end14:
	.size	FmoGenerateType0MapUnitMap, .Lfunc_end14-FmoGenerateType0MapUnitMap
	.cfi_endproc
                                        # -- End function
	.p2align	4, 0x90         # -- Begin function FmoGenerateType1MapUnitMap
	.type	FmoGenerateType1MapUnitMap,@function
FmoGenerateType1MapUnitMap:             # @FmoGenerateType1MapUnitMap
	.cfi_startproc
# %bb.0:                                # %rand_bb
	pushq	%rbp
	.cfi_def_cfa_offset 16
	.cfi_offset %rbp, -16
	movq	%rsp, %rbp
	.cfi_def_cfa_register %rbp
	pushq	%r14
	pushq	%rbx
	.cfi_offset %rbx, -32
	.cfi_offset %r14, -24
	movq	%rsi, %r14
	movq	%rdi, %rbx
	callq	get_urand
	cmpl	$0, %eax
	jne	.LBB15_7
# %bb.1:                                # %func_FmoGenerateType1MapUnitMap.31
	movq	%rbx, %rdi
	movq	%r14, %rsi
	callq	FmoGenerateType1MapUnitMap.31
	popq	%rbx
	popq	%r14
	popq	%rbp
	.cfi_def_cfa %rsp, 8
	retq
.LBB15_2:                               # %func_FmoGenerateType1MapUnitMap.39
	.cfi_def_cfa %rbp, 16
	movq	%rbx, %rdi
	movq	%r14, %rsi
	callq	FmoGenerateType1MapUnitMap.39
	popq	%rbx
	popq	%r14
	popq	%rbp
	.cfi_def_cfa %rsp, 8
	retq
.LBB15_3:                               # %func_FmoGenerateType1MapUnitMap.42
	.cfi_def_cfa %rbp, 16
	movq	%rbx, %rdi
	movq	%r14, %rsi
	callq	FmoGenerateType1MapUnitMap.42
	popq	%rbx
	popq	%r14
	popq	%rbp
	.cfi_def_cfa %rsp, 8
	retq
.LBB15_4:                               # %func_FmoGenerateType1MapUnitMap.54
	.cfi_def_cfa %rbp, 16
	movq	%rbx, %rdi
	movq	%r14, %rsi
	callq	FmoGenerateType1MapUnitMap.54
	popq	%rbx
	popq	%r14
	popq	%rbp
	.cfi_def_cfa %rsp, 8
	retq
.LBB15_5:                               # %func_FmoGenerateType1MapUnitMap.85
	.cfi_def_cfa %rbp, 16
	movq	%rbx, %rdi
	movq	%r14, %rsi
	callq	FmoGenerateType1MapUnitMap.85
	popq	%rbx
	popq	%r14
	popq	%rbp
	.cfi_def_cfa %rsp, 8
	retq
.LBB15_6:                               # %func_FmoGenerateType1MapUnitMap.93
	.cfi_def_cfa %rbp, 16
	movq	%rbx, %rdi
	movq	%r14, %rsi
	callq	FmoGenerateType1MapUnitMap.93
	popq	%rbx
	popq	%r14
	popq	%rbp
	.cfi_def_cfa %rsp, 8
	retq
.LBB15_7:                               # %ctrl0
	.cfi_def_cfa %rbp, 16
	cmpl	$1, %eax
	je	.LBB15_2
# %bb.8:                                # %ctrl1
	cmpl	$2, %eax
	je	.LBB15_3
# %bb.9:                                # %ctrl2
	cmpl	$3, %eax
	je	.LBB15_4
# %bb.10:                               # %ctrl3
	cmpl	$4, %eax
	je	.LBB15_5
	jmp	.LBB15_6
.Lfunc_end15:
	.size	FmoGenerateType1MapUnitMap, .Lfunc_end15-FmoGenerateType1MapUnitMap
	.cfi_endproc
                                        # -- End function
	.p2align	4, 0x90         # -- Begin function FmoGenerateType2MapUnitMap
	.type	FmoGenerateType2MapUnitMap,@function
FmoGenerateType2MapUnitMap:             # @FmoGenerateType2MapUnitMap
	.cfi_startproc
# %bb.0:                                # %rand_bb
	pushq	%rbp
	.cfi_def_cfa_offset 16
	.cfi_offset %rbp, -16
	movq	%rsp, %rbp
	.cfi_def_cfa_register %rbp
	pushq	%r14
	pushq	%rbx
	.cfi_offset %rbx, -32
	.cfi_offset %r14, -24
	movq	%rsi, %r14
	movq	%rdi, %rbx
	callq	get_urand
	cmpl	$0, %eax
	jne	.LBB16_17
# %bb.1:                                # %func_FmoGenerateType2MapUnitMap.8
	movq	%rbx, %rdi
	movq	%r14, %rsi
	callq	FmoGenerateType2MapUnitMap.8
	popq	%rbx
	popq	%r14
	popq	%rbp
	.cfi_def_cfa %rsp, 8
	retq
.LBB16_2:                               # %func_FmoGenerateType2MapUnitMap.11
	.cfi_def_cfa %rbp, 16
	movq	%rbx, %rdi
	movq	%r14, %rsi
	callq	FmoGenerateType2MapUnitMap.11
	popq	%rbx
	popq	%r14
	popq	%rbp
	.cfi_def_cfa %rsp, 8
	retq
.LBB16_3:                               # %func_FmoGenerateType2MapUnitMap.16
	.cfi_def_cfa %rbp, 16
	movq	%rbx, %rdi
	movq	%r14, %rsi
	callq	FmoGenerateType2MapUnitMap.16
	popq	%rbx
	popq	%r14
	popq	%rbp
	.cfi_def_cfa %rsp, 8
	retq
.LBB16_4:                               # %func_FmoGenerateType2MapUnitMap.41
	.cfi_def_cfa %rbp, 16
	movq	%rbx, %rdi
	movq	%r14, %rsi
	callq	FmoGenerateType2MapUnitMap.41
	popq	%rbx
	popq	%r14
	popq	%rbp
	.cfi_def_cfa %rsp, 8
	retq
.LBB16_5:                               # %func_FmoGenerateType2MapUnitMap.43
	.cfi_def_cfa %rbp, 16
	movq	%rbx, %rdi
	movq	%r14, %rsi
	callq	FmoGenerateType2MapUnitMap.43
	popq	%rbx
	popq	%r14
	popq	%rbp
	.cfi_def_cfa %rsp, 8
	retq
.LBB16_6:                               # %func_FmoGenerateType2MapUnitMap.55
	.cfi_def_cfa %rbp, 16
	movq	%rbx, %rdi
	movq	%r14, %rsi
	callq	FmoGenerateType2MapUnitMap.55
	popq	%rbx
	popq	%r14
	popq	%rbp
	.cfi_def_cfa %rsp, 8
	retq
.LBB16_7:                               # %func_FmoGenerateType2MapUnitMap.58
	.cfi_def_cfa %rbp, 16
	movq	%rbx, %rdi
	movq	%r14, %rsi
	callq	FmoGenerateType2MapUnitMap.58
	popq	%rbx
	popq	%r14
	popq	%rbp
	.cfi_def_cfa %rsp, 8
	retq
.LBB16_8:                               # %func_FmoGenerateType2MapUnitMap.71
	.cfi_def_cfa %rbp, 16
	movq	%rbx, %rdi
	movq	%r14, %rsi
	callq	FmoGenerateType2MapUnitMap.71
	popq	%rbx
	popq	%r14
	popq	%rbp
	.cfi_def_cfa %rsp, 8
	retq
.LBB16_9:                               # %func_FmoGenerateType2MapUnitMap.77
	.cfi_def_cfa %rbp, 16
	movq	%rbx, %rdi
	movq	%r14, %rsi
	callq	FmoGenerateType2MapUnitMap.77
	popq	%rbx
	popq	%r14
	popq	%rbp
	.cfi_def_cfa %rsp, 8
	retq
.LBB16_10:                              # %func_FmoGenerateType2MapUnitMap.97
	.cfi_def_cfa %rbp, 16
	movq	%rbx, %rdi
	movq	%r14, %rsi
	callq	FmoGenerateType2MapUnitMap.97
	popq	%rbx
	popq	%r14
	popq	%rbp
	.cfi_def_cfa %rsp, 8
	retq
.LBB16_11:                              # %func_FmoGenerateType2MapUnitMap.103
	.cfi_def_cfa %rbp, 16
	movq	%rbx, %rdi
	movq	%r14, %rsi
	callq	FmoGenerateType2MapUnitMap.103
	popq	%rbx
	popq	%r14
	popq	%rbp
	.cfi_def_cfa %rsp, 8
	retq
.LBB16_12:                              # %func_FmoGenerateType2MapUnitMap.109
	.cfi_def_cfa %rbp, 16
	movq	%rbx, %rdi
	movq	%r14, %rsi
	callq	FmoGenerateType2MapUnitMap.109
	popq	%rbx
	popq	%r14
	popq	%rbp
	.cfi_def_cfa %rsp, 8
	retq
.LBB16_13:                              # %func_FmoGenerateType2MapUnitMap.121
	.cfi_def_cfa %rbp, 16
	movq	%rbx, %rdi
	movq	%r14, %rsi
	callq	FmoGenerateType2MapUnitMap.121
	popq	%rbx
	popq	%r14
	popq	%rbp
	.cfi_def_cfa %rsp, 8
	retq
.LBB16_14:                              # %func_FmoGenerateType2MapUnitMap.125
	.cfi_def_cfa %rbp, 16
	movq	%rbx, %rdi
	movq	%r14, %rsi
	callq	FmoGenerateType2MapUnitMap.125
	popq	%rbx
	popq	%r14
	popq	%rbp
	.cfi_def_cfa %rsp, 8
	retq
.LBB16_15:                              # %func_FmoGenerateType2MapUnitMap.127
	.cfi_def_cfa %rbp, 16
	movq	%rbx, %rdi
	movq	%r14, %rsi
	callq	FmoGenerateType2MapUnitMap.127
	popq	%rbx
	popq	%r14
	popq	%rbp
	.cfi_def_cfa %rsp, 8
	retq
.LBB16_16:                              # %func_FmoGenerateType2MapUnitMap.139
	.cfi_def_cfa %rbp, 16
	movq	%rbx, %rdi
	movq	%r14, %rsi
	callq	FmoGenerateType2MapUnitMap.139
	popq	%rbx
	popq	%r14
	popq	%rbp
	.cfi_def_cfa %rsp, 8
	retq
.LBB16_17:                              # %ctrl0
	.cfi_def_cfa %rbp, 16
	cmpl	$1, %eax
	je	.LBB16_2
# %bb.18:                               # %ctrl1
	cmpl	$2, %eax
	je	.LBB16_3
# %bb.19:                               # %ctrl2
	cmpl	$3, %eax
	je	.LBB16_4
# %bb.20:                               # %ctrl3
	cmpl	$4, %eax
	je	.LBB16_5
# %bb.21:                               # %ctrl4
	cmpl	$5, %eax
	je	.LBB16_6
# %bb.22:                               # %ctrl5
	cmpl	$6, %eax
	je	.LBB16_7
# %bb.23:                               # %ctrl6
	cmpl	$7, %eax
	je	.LBB16_8
# %bb.24:                               # %ctrl7
	cmpl	$8, %eax
	je	.LBB16_9
# %bb.25:                               # %ctrl8
	cmpl	$9, %eax
	je	.LBB16_10
# %bb.26:                               # %ctrl9
	cmpl	$10, %eax
	je	.LBB16_11
# %bb.27:                               # %ctrl10
	cmpl	$11, %eax
	je	.LBB16_12
# %bb.28:                               # %ctrl11
	cmpl	$12, %eax
	je	.LBB16_13
# %bb.29:                               # %ctrl12
	cmpl	$13, %eax
	je	.LBB16_14
# %bb.30:                               # %ctrl13
	cmpl	$14, %eax
	je	.LBB16_15
	jmp	.LBB16_16
.Lfunc_end16:
	.size	FmoGenerateType2MapUnitMap, .Lfunc_end16-FmoGenerateType2MapUnitMap
	.cfi_endproc
                                        # -- End function
	.p2align	4, 0x90         # -- Begin function FmoGenerateType3MapUnitMap
	.type	FmoGenerateType3MapUnitMap,@function
FmoGenerateType3MapUnitMap:             # @FmoGenerateType3MapUnitMap
	.cfi_startproc
# %bb.0:                                # %rand_bb
	pushq	%rbp
	.cfi_def_cfa_offset 16
	.cfi_offset %rbp, -16
	movq	%rsp, %rbp
	.cfi_def_cfa_register %rbp
	pushq	%r14
	pushq	%rbx
	.cfi_offset %rbx, -32
	.cfi_offset %r14, -24
	movq	%rsi, %r14
	movq	%rdi, %rbx
	callq	get_urand
	cmpl	$0, %eax
	jne	.LBB17_17
# %bb.1:                                # %func_FmoGenerateType3MapUnitMap.12
	movq	%rbx, %rdi
	movq	%r14, %rsi
	callq	FmoGenerateType3MapUnitMap.12
	popq	%rbx
	popq	%r14
	popq	%rbp
	.cfi_def_cfa %rsp, 8
	retq
.LBB17_2:                               # %func_FmoGenerateType3MapUnitMap.18
	.cfi_def_cfa %rbp, 16
	movq	%rbx, %rdi
	movq	%r14, %rsi
	callq	FmoGenerateType3MapUnitMap.18
	popq	%rbx
	popq	%r14
	popq	%rbp
	.cfi_def_cfa %rsp, 8
	retq
.LBB17_3:                               # %func_FmoGenerateType3MapUnitMap.47
	.cfi_def_cfa %rbp, 16
	movq	%rbx, %rdi
	movq	%r14, %rsi
	callq	FmoGenerateType3MapUnitMap.47
	popq	%rbx
	popq	%r14
	popq	%rbp
	.cfi_def_cfa %rsp, 8
	retq
.LBB17_4:                               # %func_FmoGenerateType3MapUnitMap.59
	.cfi_def_cfa %rbp, 16
	movq	%rbx, %rdi
	movq	%r14, %rsi
	callq	FmoGenerateType3MapUnitMap.59
	popq	%rbx
	popq	%r14
	popq	%rbp
	.cfi_def_cfa %rsp, 8
	retq
.LBB17_5:                               # %func_FmoGenerateType3MapUnitMap.68
	.cfi_def_cfa %rbp, 16
	movq	%rbx, %rdi
	movq	%r14, %rsi
	callq	FmoGenerateType3MapUnitMap.68
	popq	%rbx
	popq	%r14
	popq	%rbp
	.cfi_def_cfa %rsp, 8
	retq
.LBB17_6:                               # %func_FmoGenerateType3MapUnitMap.96
	.cfi_def_cfa %rbp, 16
	movq	%rbx, %rdi
	movq	%r14, %rsi
	callq	FmoGenerateType3MapUnitMap.96
	popq	%rbx
	popq	%r14
	popq	%rbp
	.cfi_def_cfa %rsp, 8
	retq
.LBB17_7:                               # %func_FmoGenerateType3MapUnitMap.110
	.cfi_def_cfa %rbp, 16
	movq	%rbx, %rdi
	movq	%r14, %rsi
	callq	FmoGenerateType3MapUnitMap.110
	popq	%rbx
	popq	%r14
	popq	%rbp
	.cfi_def_cfa %rsp, 8
	retq
.LBB17_8:                               # %func_FmoGenerateType3MapUnitMap.117
	.cfi_def_cfa %rbp, 16
	movq	%rbx, %rdi
	movq	%r14, %rsi
	callq	FmoGenerateType3MapUnitMap.117
	popq	%rbx
	popq	%r14
	popq	%rbp
	.cfi_def_cfa %rsp, 8
	retq
.LBB17_9:                               # %func_FmoGenerateType3MapUnitMap.118
	.cfi_def_cfa %rbp, 16
	movq	%rbx, %rdi
	movq	%r14, %rsi
	callq	FmoGenerateType3MapUnitMap.118
	popq	%rbx
	popq	%r14
	popq	%rbp
	.cfi_def_cfa %rsp, 8
	retq
.LBB17_10:                              # %func_FmoGenerateType3MapUnitMap.120
	.cfi_def_cfa %rbp, 16
	movq	%rbx, %rdi
	movq	%r14, %rsi
	callq	FmoGenerateType3MapUnitMap.120
	popq	%rbx
	popq	%r14
	popq	%rbp
	.cfi_def_cfa %rsp, 8
	retq
.LBB17_11:                              # %func_FmoGenerateType3MapUnitMap.124
	.cfi_def_cfa %rbp, 16
	movq	%rbx, %rdi
	movq	%r14, %rsi
	callq	FmoGenerateType3MapUnitMap.124
	popq	%rbx
	popq	%r14
	popq	%rbp
	.cfi_def_cfa %rsp, 8
	retq
.LBB17_12:                              # %func_FmoGenerateType3MapUnitMap.134
	.cfi_def_cfa %rbp, 16
	movq	%rbx, %rdi
	movq	%r14, %rsi
	callq	FmoGenerateType3MapUnitMap.134
	popq	%rbx
	popq	%r14
	popq	%rbp
	.cfi_def_cfa %rsp, 8
	retq
.LBB17_13:                              # %func_FmoGenerateType3MapUnitMap.135
	.cfi_def_cfa %rbp, 16
	movq	%rbx, %rdi
	movq	%r14, %rsi
	callq	FmoGenerateType3MapUnitMap.135
	popq	%rbx
	popq	%r14
	popq	%rbp
	.cfi_def_cfa %rsp, 8
	retq
.LBB17_14:                              # %func_FmoGenerateType3MapUnitMap.137
	.cfi_def_cfa %rbp, 16
	movq	%rbx, %rdi
	movq	%r14, %rsi
	callq	FmoGenerateType3MapUnitMap.137
	popq	%rbx
	popq	%r14
	popq	%rbp
	.cfi_def_cfa %rsp, 8
	retq
.LBB17_15:                              # %func_FmoGenerateType3MapUnitMap.142
	.cfi_def_cfa %rbp, 16
	movq	%rbx, %rdi
	movq	%r14, %rsi
	callq	FmoGenerateType3MapUnitMap.142
	popq	%rbx
	popq	%r14
	popq	%rbp
	.cfi_def_cfa %rsp, 8
	retq
.LBB17_16:                              # %func_FmoGenerateType3MapUnitMap.148
	.cfi_def_cfa %rbp, 16
	movq	%rbx, %rdi
	movq	%r14, %rsi
	callq	FmoGenerateType3MapUnitMap.148
	popq	%rbx
	popq	%r14
	popq	%rbp
	.cfi_def_cfa %rsp, 8
	retq
.LBB17_17:                              # %ctrl0
	.cfi_def_cfa %rbp, 16
	cmpl	$1, %eax
	je	.LBB17_2
# %bb.18:                               # %ctrl1
	cmpl	$2, %eax
	je	.LBB17_3
# %bb.19:                               # %ctrl2
	cmpl	$3, %eax
	je	.LBB17_4
# %bb.20:                               # %ctrl3
	cmpl	$4, %eax
	je	.LBB17_5
# %bb.21:                               # %ctrl4
	cmpl	$5, %eax
	je	.LBB17_6
# %bb.22:                               # %ctrl5
	cmpl	$6, %eax
	je	.LBB17_7
# %bb.23:                               # %ctrl6
	cmpl	$7, %eax
	je	.LBB17_8
# %bb.24:                               # %ctrl7
	cmpl	$8, %eax
	je	.LBB17_9
# %bb.25:                               # %ctrl8
	cmpl	$9, %eax
	je	.LBB17_10
# %bb.26:                               # %ctrl9
	cmpl	$10, %eax
	je	.LBB17_11
# %bb.27:                               # %ctrl10
	cmpl	$11, %eax
	je	.LBB17_12
# %bb.28:                               # %ctrl11
	cmpl	$12, %eax
	je	.LBB17_13
# %bb.29:                               # %ctrl12
	cmpl	$13, %eax
	je	.LBB17_14
# %bb.30:                               # %ctrl13
	cmpl	$14, %eax
	je	.LBB17_15
	jmp	.LBB17_16
.Lfunc_end17:
	.size	FmoGenerateType3MapUnitMap, .Lfunc_end17-FmoGenerateType3MapUnitMap
	.cfi_endproc
                                        # -- End function
	.p2align	4, 0x90         # -- Begin function FmoGenerateType4MapUnitMap
	.type	FmoGenerateType4MapUnitMap,@function
FmoGenerateType4MapUnitMap:             # @FmoGenerateType4MapUnitMap
	.cfi_startproc
# %bb.0:                                # %rand_bb
	pushq	%rbp
	.cfi_def_cfa_offset 16
	.cfi_offset %rbp, -16
	movq	%rsp, %rbp
	.cfi_def_cfa_register %rbp
	pushq	%r14
	pushq	%rbx
	.cfi_offset %rbx, -32
	.cfi_offset %r14, -24
	movq	%rsi, %r14
	movq	%rdi, %rbx
	callq	get_urand
	cmpl	$0, %eax
	jne	.LBB18_17
# %bb.1:                                # %func_FmoGenerateType4MapUnitMap.56
	movq	%rbx, %rdi
	movq	%r14, %rsi
	callq	FmoGenerateType4MapUnitMap.56
	popq	%rbx
	popq	%r14
	popq	%rbp
	.cfi_def_cfa %rsp, 8
	retq
.LBB18_2:                               # %func_FmoGenerateType4MapUnitMap.72
	.cfi_def_cfa %rbp, 16
	movq	%rbx, %rdi
	movq	%r14, %rsi
	callq	FmoGenerateType4MapUnitMap.72
	popq	%rbx
	popq	%r14
	popq	%rbp
	.cfi_def_cfa %rsp, 8
	retq
.LBB18_3:                               # %func_FmoGenerateType4MapUnitMap.79
	.cfi_def_cfa %rbp, 16
	movq	%rbx, %rdi
	movq	%r14, %rsi
	callq	FmoGenerateType4MapUnitMap.79
	popq	%rbx
	popq	%r14
	popq	%rbp
	.cfi_def_cfa %rsp, 8
	retq
.LBB18_4:                               # %func_FmoGenerateType4MapUnitMap.87
	.cfi_def_cfa %rbp, 16
	movq	%rbx, %rdi
	movq	%r14, %rsi
	callq	FmoGenerateType4MapUnitMap.87
	popq	%rbx
	popq	%r14
	popq	%rbp
	.cfi_def_cfa %rsp, 8
	retq
.LBB18_5:                               # %func_FmoGenerateType4MapUnitMap.89
	.cfi_def_cfa %rbp, 16
	movq	%rbx, %rdi
	movq	%r14, %rsi
	callq	FmoGenerateType4MapUnitMap.89
	popq	%rbx
	popq	%r14
	popq	%rbp
	.cfi_def_cfa %rsp, 8
	retq
.LBB18_6:                               # %func_FmoGenerateType4MapUnitMap.92
	.cfi_def_cfa %rbp, 16
	movq	%rbx, %rdi
	movq	%r14, %rsi
	callq	FmoGenerateType4MapUnitMap.92
	popq	%rbx
	popq	%r14
	popq	%rbp
	.cfi_def_cfa %rsp, 8
	retq
.LBB18_7:                               # %func_FmoGenerateType4MapUnitMap.105
	.cfi_def_cfa %rbp, 16
	movq	%rbx, %rdi
	movq	%r14, %rsi
	callq	FmoGenerateType4MapUnitMap.105
	popq	%rbx
	popq	%r14
	popq	%rbp
	.cfi_def_cfa %rsp, 8
	retq
.LBB18_8:                               # %func_FmoGenerateType4MapUnitMap.107
	.cfi_def_cfa %rbp, 16
	movq	%rbx, %rdi
	movq	%r14, %rsi
	callq	FmoGenerateType4MapUnitMap.107
	popq	%rbx
	popq	%r14
	popq	%rbp
	.cfi_def_cfa %rsp, 8
	retq
.LBB18_9:                               # %func_FmoGenerateType4MapUnitMap.126
	.cfi_def_cfa %rbp, 16
	movq	%rbx, %rdi
	movq	%r14, %rsi
	callq	FmoGenerateType4MapUnitMap.126
	popq	%rbx
	popq	%r14
	popq	%rbp
	.cfi_def_cfa %rsp, 8
	retq
.LBB18_10:                              # %func_FmoGenerateType4MapUnitMap.131
	.cfi_def_cfa %rbp, 16
	movq	%rbx, %rdi
	movq	%r14, %rsi
	callq	FmoGenerateType4MapUnitMap.131
	popq	%rbx
	popq	%r14
	popq	%rbp
	.cfi_def_cfa %rsp, 8
	retq
.LBB18_11:                              # %func_FmoGenerateType4MapUnitMap.133
	.cfi_def_cfa %rbp, 16
	movq	%rbx, %rdi
	movq	%r14, %rsi
	callq	FmoGenerateType4MapUnitMap.133
	popq	%rbx
	popq	%r14
	popq	%rbp
	.cfi_def_cfa %rsp, 8
	retq
.LBB18_12:                              # %func_FmoGenerateType4MapUnitMap.136
	.cfi_def_cfa %rbp, 16
	movq	%rbx, %rdi
	movq	%r14, %rsi
	callq	FmoGenerateType4MapUnitMap.136
	popq	%rbx
	popq	%r14
	popq	%rbp
	.cfi_def_cfa %rsp, 8
	retq
.LBB18_13:                              # %func_FmoGenerateType4MapUnitMap.143
	.cfi_def_cfa %rbp, 16
	movq	%rbx, %rdi
	movq	%r14, %rsi
	callq	FmoGenerateType4MapUnitMap.143
	popq	%rbx
	popq	%r14
	popq	%rbp
	.cfi_def_cfa %rsp, 8
	retq
.LBB18_14:                              # %func_FmoGenerateType4MapUnitMap.144
	.cfi_def_cfa %rbp, 16
	movq	%rbx, %rdi
	movq	%r14, %rsi
	callq	FmoGenerateType4MapUnitMap.144
	popq	%rbx
	popq	%r14
	popq	%rbp
	.cfi_def_cfa %rsp, 8
	retq
.LBB18_15:                              # %func_FmoGenerateType4MapUnitMap.146
	.cfi_def_cfa %rbp, 16
	movq	%rbx, %rdi
	movq	%r14, %rsi
	callq	FmoGenerateType4MapUnitMap.146
	popq	%rbx
	popq	%r14
	popq	%rbp
	.cfi_def_cfa %rsp, 8
	retq
.LBB18_16:                              # %func_FmoGenerateType4MapUnitMap.147
	.cfi_def_cfa %rbp, 16
	movq	%rbx, %rdi
	movq	%r14, %rsi
	callq	FmoGenerateType4MapUnitMap.147
	popq	%rbx
	popq	%r14
	popq	%rbp
	.cfi_def_cfa %rsp, 8
	retq
.LBB18_17:                              # %ctrl0
	.cfi_def_cfa %rbp, 16
	cmpl	$1, %eax
	je	.LBB18_2
# %bb.18:                               # %ctrl1
	cmpl	$2, %eax
	je	.LBB18_3
# %bb.19:                               # %ctrl2
	cmpl	$3, %eax
	je	.LBB18_4
# %bb.20:                               # %ctrl3
	cmpl	$4, %eax
	je	.LBB18_5
# %bb.21:                               # %ctrl4
	cmpl	$5, %eax
	je	.LBB18_6
# %bb.22:                               # %ctrl5
	cmpl	$6, %eax
	je	.LBB18_7
# %bb.23:                               # %ctrl6
	cmpl	$7, %eax
	je	.LBB18_8
# %bb.24:                               # %ctrl7
	cmpl	$8, %eax
	je	.LBB18_9
# %bb.25:                               # %ctrl8
	cmpl	$9, %eax
	je	.LBB18_10
# %bb.26:                               # %ctrl9
	cmpl	$10, %eax
	je	.LBB18_11
# %bb.27:                               # %ctrl10
	cmpl	$11, %eax
	je	.LBB18_12
# %bb.28:                               # %ctrl11
	cmpl	$12, %eax
	je	.LBB18_13
# %bb.29:                               # %ctrl12
	cmpl	$13, %eax
	je	.LBB18_14
# %bb.30:                               # %ctrl13
	cmpl	$14, %eax
	je	.LBB18_15
	jmp	.LBB18_16
.Lfunc_end18:
	.size	FmoGenerateType4MapUnitMap, .Lfunc_end18-FmoGenerateType4MapUnitMap
	.cfi_endproc
                                        # -- End function
	.p2align	4, 0x90         # -- Begin function FmoGenerateType5MapUnitMap
	.type	FmoGenerateType5MapUnitMap,@function
FmoGenerateType5MapUnitMap:             # @FmoGenerateType5MapUnitMap
	.cfi_startproc
# %bb.0:                                # %rand_bb
	pushq	%rbp
	.cfi_def_cfa_offset 16
	.cfi_offset %rbp, -16
	movq	%rsp, %rbp
	.cfi_def_cfa_register %rbp
	pushq	%r14
	pushq	%rbx
	.cfi_offset %rbx, -32
	.cfi_offset %r14, -24
	movq	%rsi, %r14
	movq	%rdi, %rbx
	callq	get_urand
	cmpl	$0, %eax
	jne	.LBB19_17
# %bb.1:                                # %func_FmoGenerateType5MapUnitMap.1
	movq	%rbx, %rdi
	movq	%r14, %rsi
	callq	FmoGenerateType5MapUnitMap.1
	popq	%rbx
	popq	%r14
	popq	%rbp
	.cfi_def_cfa %rsp, 8
	retq
.LBB19_2:                               # %func_FmoGenerateType5MapUnitMap.17
	.cfi_def_cfa %rbp, 16
	movq	%rbx, %rdi
	movq	%r14, %rsi
	callq	FmoGenerateType5MapUnitMap.17
	popq	%rbx
	popq	%r14
	popq	%rbp
	.cfi_def_cfa %rsp, 8
	retq
.LBB19_3:                               # %func_FmoGenerateType5MapUnitMap.32
	.cfi_def_cfa %rbp, 16
	movq	%rbx, %rdi
	movq	%r14, %rsi
	callq	FmoGenerateType5MapUnitMap.32
	popq	%rbx
	popq	%r14
	popq	%rbp
	.cfi_def_cfa %rsp, 8
	retq
.LBB19_4:                               # %func_FmoGenerateType5MapUnitMap.49
	.cfi_def_cfa %rbp, 16
	movq	%rbx, %rdi
	movq	%r14, %rsi
	callq	FmoGenerateType5MapUnitMap.49
	popq	%rbx
	popq	%r14
	popq	%rbp
	.cfi_def_cfa %rsp, 8
	retq
.LBB19_5:                               # %func_FmoGenerateType5MapUnitMap.61
	.cfi_def_cfa %rbp, 16
	movq	%rbx, %rdi
	movq	%r14, %rsi
	callq	FmoGenerateType5MapUnitMap.61
	popq	%rbx
	popq	%r14
	popq	%rbp
	.cfi_def_cfa %rsp, 8
	retq
.LBB19_6:                               # %func_FmoGenerateType5MapUnitMap.86
	.cfi_def_cfa %rbp, 16
	movq	%rbx, %rdi
	movq	%r14, %rsi
	callq	FmoGenerateType5MapUnitMap.86
	popq	%rbx
	popq	%r14
	popq	%rbp
	.cfi_def_cfa %rsp, 8
	retq
.LBB19_7:                               # %func_FmoGenerateType5MapUnitMap.98
	.cfi_def_cfa %rbp, 16
	movq	%rbx, %rdi
	movq	%r14, %rsi
	callq	FmoGenerateType5MapUnitMap.98
	popq	%rbx
	popq	%r14
	popq	%rbp
	.cfi_def_cfa %rsp, 8
	retq
.LBB19_8:                               # %func_FmoGenerateType5MapUnitMap.100
	.cfi_def_cfa %rbp, 16
	movq	%rbx, %rdi
	movq	%r14, %rsi
	callq	FmoGenerateType5MapUnitMap.100
	popq	%rbx
	popq	%r14
	popq	%rbp
	.cfi_def_cfa %rsp, 8
	retq
.LBB19_9:                               # %func_FmoGenerateType5MapUnitMap.102
	.cfi_def_cfa %rbp, 16
	movq	%rbx, %rdi
	movq	%r14, %rsi
	callq	FmoGenerateType5MapUnitMap.102
	popq	%rbx
	popq	%r14
	popq	%rbp
	.cfi_def_cfa %rsp, 8
	retq
.LBB19_10:                              # %func_FmoGenerateType5MapUnitMap.106
	.cfi_def_cfa %rbp, 16
	movq	%rbx, %rdi
	movq	%r14, %rsi
	callq	FmoGenerateType5MapUnitMap.106
	popq	%rbx
	popq	%r14
	popq	%rbp
	.cfi_def_cfa %rsp, 8
	retq
.LBB19_11:                              # %func_FmoGenerateType5MapUnitMap.108
	.cfi_def_cfa %rbp, 16
	movq	%rbx, %rdi
	movq	%r14, %rsi
	callq	FmoGenerateType5MapUnitMap.108
	popq	%rbx
	popq	%r14
	popq	%rbp
	.cfi_def_cfa %rsp, 8
	retq
.LBB19_12:                              # %func_FmoGenerateType5MapUnitMap.128
	.cfi_def_cfa %rbp, 16
	movq	%rbx, %rdi
	movq	%r14, %rsi
	callq	FmoGenerateType5MapUnitMap.128
	popq	%rbx
	popq	%r14
	popq	%rbp
	.cfi_def_cfa %rsp, 8
	retq
.LBB19_13:                              # %func_FmoGenerateType5MapUnitMap.129
	.cfi_def_cfa %rbp, 16
	movq	%rbx, %rdi
	movq	%r14, %rsi
	callq	FmoGenerateType5MapUnitMap.129
	popq	%rbx
	popq	%r14
	popq	%rbp
	.cfi_def_cfa %rsp, 8
	retq
.LBB19_14:                              # %func_FmoGenerateType5MapUnitMap.140
	.cfi_def_cfa %rbp, 16
	movq	%rbx, %rdi
	movq	%r14, %rsi
	callq	FmoGenerateType5MapUnitMap.140
	popq	%rbx
	popq	%r14
	popq	%rbp
	.cfi_def_cfa %rsp, 8
	retq
.LBB19_15:                              # %func_FmoGenerateType5MapUnitMap.141
	.cfi_def_cfa %rbp, 16
	movq	%rbx, %rdi
	movq	%r14, %rsi
	callq	FmoGenerateType5MapUnitMap.141
	popq	%rbx
	popq	%r14
	popq	%rbp
	.cfi_def_cfa %rsp, 8
	retq
.LBB19_16:                              # %func_FmoGenerateType5MapUnitMap.145
	.cfi_def_cfa %rbp, 16
	movq	%rbx, %rdi
	movq	%r14, %rsi
	callq	FmoGenerateType5MapUnitMap.145
	popq	%rbx
	popq	%r14
	popq	%rbp
	.cfi_def_cfa %rsp, 8
	retq
.LBB19_17:                              # %ctrl0
	.cfi_def_cfa %rbp, 16
	cmpl	$1, %eax
	je	.LBB19_2
# %bb.18:                               # %ctrl1
	cmpl	$2, %eax
	je	.LBB19_3
# %bb.19:                               # %ctrl2
	cmpl	$3, %eax
	je	.LBB19_4
# %bb.20:                               # %ctrl3
	cmpl	$4, %eax
	je	.LBB19_5
# %bb.21:                               # %ctrl4
	cmpl	$5, %eax
	je	.LBB19_6
# %bb.22:                               # %ctrl5
	cmpl	$6, %eax
	je	.LBB19_7
# %bb.23:                               # %ctrl6
	cmpl	$7, %eax
	je	.LBB19_8
# %bb.24:                               # %ctrl7
	cmpl	$8, %eax
	je	.LBB19_9
# %bb.25:                               # %ctrl8
	cmpl	$9, %eax
	je	.LBB19_10
# %bb.26:                               # %ctrl9
	cmpl	$10, %eax
	je	.LBB19_11
# %bb.27:                               # %ctrl10
	cmpl	$11, %eax
	je	.LBB19_12
# %bb.28:                               # %ctrl11
	cmpl	$12, %eax
	je	.LBB19_13
# %bb.29:                               # %ctrl12
	cmpl	$13, %eax
	je	.LBB19_14
# %bb.30:                               # %ctrl13
	cmpl	$14, %eax
	je	.LBB19_15
	jmp	.LBB19_16
.Lfunc_end19:
	.size	FmoGenerateType5MapUnitMap, .Lfunc_end19-FmoGenerateType5MapUnitMap
	.cfi_endproc
                                        # -- End function
	.p2align	4, 0x90         # -- Begin function FmoGenerateType6MapUnitMap
	.type	FmoGenerateType6MapUnitMap,@function
FmoGenerateType6MapUnitMap:             # @FmoGenerateType6MapUnitMap
	.cfi_startproc
# %bb.0:                                # %rand_bb
	pushq	%rbp
	.cfi_def_cfa_offset 16
	.cfi_offset %rbp, -16
	movq	%rsp, %rbp
	.cfi_def_cfa_register %rbp
	pushq	%r14
	pushq	%rbx
	.cfi_offset %rbx, -32
	.cfi_offset %r14, -24
	movq	%rsi, %r14
	movq	%rdi, %rbx
	callq	get_urand
	cmpl	$0, %eax
	jne	.LBB20_7
# %bb.1:                                # %func_FmoGenerateType6MapUnitMap.5
	movq	%rbx, %rdi
	movq	%r14, %rsi
	callq	FmoGenerateType6MapUnitMap.5
	popq	%rbx
	popq	%r14
	popq	%rbp
	.cfi_def_cfa %rsp, 8
	retq
.LBB20_2:                               # %func_FmoGenerateType6MapUnitMap.29
	.cfi_def_cfa %rbp, 16
	movq	%rbx, %rdi
	movq	%r14, %rsi
	callq	FmoGenerateType6MapUnitMap.29
	popq	%rbx
	popq	%r14
	popq	%rbp
	.cfi_def_cfa %rsp, 8
	retq
.LBB20_3:                               # %func_FmoGenerateType6MapUnitMap.46
	.cfi_def_cfa %rbp, 16
	movq	%rbx, %rdi
	movq	%r14, %rsi
	callq	FmoGenerateType6MapUnitMap.46
	popq	%rbx
	popq	%r14
	popq	%rbp
	.cfi_def_cfa %rsp, 8
	retq
.LBB20_4:                               # %func_FmoGenerateType6MapUnitMap.74
	.cfi_def_cfa %rbp, 16
	movq	%rbx, %rdi
	movq	%r14, %rsi
	callq	FmoGenerateType6MapUnitMap.74
	popq	%rbx
	popq	%r14
	popq	%rbp
	.cfi_def_cfa %rsp, 8
	retq
.LBB20_5:                               # %func_FmoGenerateType6MapUnitMap.78
	.cfi_def_cfa %rbp, 16
	movq	%rbx, %rdi
	movq	%r14, %rsi
	callq	FmoGenerateType6MapUnitMap.78
	popq	%rbx
	popq	%r14
	popq	%rbp
	.cfi_def_cfa %rsp, 8
	retq
.LBB20_6:                               # %func_FmoGenerateType6MapUnitMap.80
	.cfi_def_cfa %rbp, 16
	movq	%rbx, %rdi
	movq	%r14, %rsi
	callq	FmoGenerateType6MapUnitMap.80
	popq	%rbx
	popq	%r14
	popq	%rbp
	.cfi_def_cfa %rsp, 8
	retq
.LBB20_7:                               # %ctrl0
	.cfi_def_cfa %rbp, 16
	cmpl	$1, %eax
	je	.LBB20_2
# %bb.8:                                # %ctrl1
	cmpl	$2, %eax
	je	.LBB20_3
# %bb.9:                                # %ctrl2
	cmpl	$3, %eax
	je	.LBB20_4
# %bb.10:                               # %ctrl3
	cmpl	$4, %eax
	je	.LBB20_5
	jmp	.LBB20_6
.Lfunc_end20:
	.size	FmoGenerateType6MapUnitMap, .Lfunc_end20-FmoGenerateType6MapUnitMap
	.cfi_endproc
                                        # -- End function
	.p2align	4, 0x90         # -- Begin function FmoGenerateType5MapUnitMap.1
	.type	FmoGenerateType5MapUnitMap.1,@function
FmoGenerateType5MapUnitMap.1:           # @FmoGenerateType5MapUnitMap.1
	.cfi_startproc
# %bb.0:                                # %entry
	pushq	%rbp
	.cfi_def_cfa_offset 16
	.cfi_offset %rbp, -16
	movq	%rsp, %rbp
	.cfi_def_cfa_register %rbp
	subq	$48, %rsp
	movl	$1902960587, -40(%rbp)  # imm = 0x716CDFCB
	movq	%rdi, -16(%rbp)
	movq	%rsi, -24(%rbp)
	movq	-24(%rbp), %rax
	movl	168(%rax), %eax
	addl	$1, %eax
	movq	-16(%rbp), %rcx
	imull	72652(%rcx), %eax
	cmpl	PicSizeInMapUnits, %eax
	jae	.LBB21_2
# %bb.1:                                # %cond.true
	movq	-24(%rbp), %rax
	movl	168(%rax), %eax
	addl	$1, %eax
	movq	-16(%rbp), %rcx
	imull	72652(%rcx), %eax
	jmp	.LBB21_3
.LBB21_2:                               # %cond.false
	movl	PicSizeInMapUnits, %eax
.LBB21_3:                               # %cond.end
	movl	%eax, -32(%rbp)
	movq	-24(%rbp), %rax
	cmpl	$0, 164(%rax)
	je	.LBB21_5
# %bb.4:                                # %cond.true5
	movl	PicSizeInMapUnits, %eax
	subl	-32(%rbp), %eax
	jmp	.LBB21_6
.LBB21_5:                               # %cond.false6
	movl	-32(%rbp), %eax
.LBB21_6:                               # %cond.end7
	movl	%eax, -36(%rbp)
	movl	$0, -28(%rbp)
	movl	$0, -4(%rbp)
.LBB21_7:                               # %for.cond
                                        # =>This Loop Header: Depth=1
                                        #     Child Loop BB21_9 Depth 2
	movl	-4(%rbp), %eax
	movq	-16(%rbp), %rcx
	cmpl	72468(%rcx), %eax
	jae	.LBB21_17
# %bb.8:                                # %for.body
                                        #   in Loop: Header=BB21_7 Depth=1
	movl	$0, -8(%rbp)
.LBB21_9:                               # %for.cond10
                                        #   Parent Loop BB21_7 Depth=1
                                        # =>  This Inner Loop Header: Depth=2
	movl	-8(%rbp), %eax
	movq	-16(%rbp), %rcx
	cmpl	72472(%rcx), %eax
	jae	.LBB21_15
# %bb.10:                               # %for.body12
                                        #   in Loop: Header=BB21_9 Depth=2
	movl	-28(%rbp), %eax
	movl	%eax, %ecx
	addl	$1, %ecx
	movl	%ecx, -28(%rbp)
	cmpl	-36(%rbp), %eax
	jae	.LBB21_12
# %bb.11:                               # %if.then
                                        #   in Loop: Header=BB21_9 Depth=2
	movq	-24(%rbp), %rax
	movl	$1, %ecx
	subl	164(%rax), %ecx
	movq	MapUnitToSliceGroupMap, %rax
	movl	-8(%rbp), %edx
	movq	-16(%rbp), %rsi
	imull	72468(%rsi), %edx
	addl	-4(%rbp), %edx
	movl	%edx, %edx
	movb	%cl, (%rax,%rdx)
	jmp	.LBB21_13
.LBB21_12:                              # %if.else
                                        #   in Loop: Header=BB21_9 Depth=2
	movq	-24(%rbp), %rax
	movl	164(%rax), %eax
	movq	MapUnitToSliceGroupMap, %rcx
	movl	-8(%rbp), %edx
	movq	-16(%rbp), %rsi
	imull	72468(%rsi), %edx
	addl	-4(%rbp), %edx
	movl	%edx, %edx
	movb	%al, (%rcx,%rdx)
.LBB21_13:                              # %if.end
                                        #   in Loop: Header=BB21_9 Depth=2
	jmp	.LBB21_14
.LBB21_14:                              # %for.inc
                                        #   in Loop: Header=BB21_9 Depth=2
	movl	-8(%rbp), %eax
	addl	$1, %eax
	movl	%eax, -8(%rbp)
	jmp	.LBB21_9
.LBB21_15:                              # %for.end
                                        #   in Loop: Header=BB21_7 Depth=1
	jmp	.LBB21_16
.LBB21_16:                              # %for.inc27
                                        #   in Loop: Header=BB21_7 Depth=1
	movl	-4(%rbp), %eax
	addl	$1, %eax
	movl	%eax, -4(%rbp)
	jmp	.LBB21_7
.LBB21_17:                              # %for.end29
	cmpl	$1902960587, -40(%rbp)  # imm = 0x716CDFCB
	jne	.LBB21_19
.LBB21_18:
	addq	$48, %rsp
	popq	%rbp
	.cfi_def_cfa %rsp, 8
	retq
.LBB21_19:                              # %func_exit
	.cfi_def_cfa %rbp, 16
	callq	detect_breach
	jmp	.LBB21_18
.Lfunc_end21:
	.size	FmoGenerateType5MapUnitMap.1, .Lfunc_end21-FmoGenerateType5MapUnitMap.1
	.cfi_endproc
                                        # -- End function
	.globl	FmoGetLastCodedMBOfSliceGroup.2 # -- Begin function FmoGetLastCodedMBOfSliceGroup.2
	.p2align	4, 0x90
	.type	FmoGetLastCodedMBOfSliceGroup.2,@function
FmoGetLastCodedMBOfSliceGroup.2:        # @FmoGetLastCodedMBOfSliceGroup.2
	.cfi_startproc
# %bb.0:                                # %entry
	pushq	%rbp
	.cfi_def_cfa_offset 16
	.cfi_offset %rbp, -16
	movq	%rsp, %rbp
	.cfi_def_cfa_register %rbp
	pushq	%rbx
	subq	$24, %rsp
	.cfi_offset %rbx, -24
	movl	$911932875, -24(%rbp)   # imm = 0x365AFDCB
	movl	%edi, -20(%rbp)
	movl	$-1, -16(%rbp)
	movl	$0, -12(%rbp)
.LBB22_1:                               # %for.cond
                                        # =>This Inner Loop Header: Depth=1
	movl	-12(%rbp), %eax
	movq	img, %rcx
	cmpl	72484(%rcx), %eax
	jge	.LBB22_6
# %bb.2:                                # %for.body
                                        #   in Loop: Header=BB22_1 Depth=1
	movl	-12(%rbp), %edi
	callq	FmoMB2SliceGroup
	cmpl	-20(%rbp), %eax
	jne	.LBB22_4
# %bb.3:                                # %if.then
                                        #   in Loop: Header=BB22_1 Depth=1
	movl	-12(%rbp), %eax
	movl	%eax, -16(%rbp)
.LBB22_4:                               # %if.end
                                        #   in Loop: Header=BB22_1 Depth=1
	jmp	.LBB22_5
.LBB22_5:                               # %for.inc
                                        #   in Loop: Header=BB22_1 Depth=1
	movl	-12(%rbp), %eax
	addl	$1, %eax
	movl	%eax, -12(%rbp)
	jmp	.LBB22_1
.LBB22_6:                               # %for.end
	movl	-16(%rbp), %ebx
	cmpl	$911932875, -24(%rbp)   # imm = 0x365AFDCB
	jne	.LBB22_8
.LBB22_7:
	movl	%ebx, %eax
	addq	$24, %rsp
	popq	%rbx
	popq	%rbp
	.cfi_def_cfa %rsp, 8
	retq
.LBB22_8:                               # %func_exit
	.cfi_def_cfa %rbp, 16
	callq	detect_breach
	jmp	.LBB22_7
.Lfunc_end22:
	.size	FmoGetLastCodedMBOfSliceGroup.2, .Lfunc_end22-FmoGetLastCodedMBOfSliceGroup.2
	.cfi_endproc
                                        # -- End function
	.globl	FmoSliceGroupCompletelyCoded.3 # -- Begin function FmoSliceGroupCompletelyCoded.3
	.p2align	4, 0x90
	.type	FmoSliceGroupCompletelyCoded.3,@function
FmoSliceGroupCompletelyCoded.3:         # @FmoSliceGroupCompletelyCoded.3
	.cfi_startproc
# %bb.0:                                # %entry
	pushq	%rbp
	.cfi_def_cfa_offset 16
	.cfi_offset %rbp, -16
	movq	%rsp, %rbp
	.cfi_def_cfa_register %rbp
	pushq	%rbx
	subq	$24, %rsp
	.cfi_offset %rbx, -24
	movl	$1320766820, -20(%rbp)  # imm = 0x4EB94D64
	movl	%edi, -16(%rbp)
	movl	-16(%rbp), %edi
	callq	FmoGetFirstMacroblockInSlice
	cmpl	$0, %eax
	jge	.LBB23_2
# %bb.1:                                # %if.then
	movl	$1, -12(%rbp)
	jmp	.LBB23_3
.LBB23_2:                               # %if.else
	movl	$0, -12(%rbp)
.LBB23_3:                               # %return
	movl	-12(%rbp), %ebx
	cmpl	$1320766820, -20(%rbp)  # imm = 0x4EB94D64
	jne	.LBB23_5
.LBB23_4:
	movl	%ebx, %eax
	addq	$24, %rsp
	popq	%rbx
	popq	%rbp
	.cfi_def_cfa %rsp, 8
	retq
.LBB23_5:                               # %func_exit
	.cfi_def_cfa %rbp, 16
	callq	detect_breach
	jmp	.LBB23_4
.Lfunc_end23:
	.size	FmoSliceGroupCompletelyCoded.3, .Lfunc_end23-FmoSliceGroupCompletelyCoded.3
	.cfi_endproc
                                        # -- End function
	.globl	FmoSetLastMacroblockInSlice.4 # -- Begin function FmoSetLastMacroblockInSlice.4
	.p2align	4, 0x90
	.type	FmoSetLastMacroblockInSlice.4,@function
FmoSetLastMacroblockInSlice.4:          # @FmoSetLastMacroblockInSlice.4
	.cfi_startproc
# %bb.0:                                # %entry
	pushq	%rbp
	.cfi_def_cfa_offset 16
	.cfi_offset %rbp, -16
	movq	%rsp, %rbp
	.cfi_def_cfa_register %rbp
	subq	$16, %rsp
	movl	$731359638, -12(%rbp)   # imm = 0x2B97A996
	movl	%edi, -4(%rbp)
	movl	-4(%rbp), %edi
	callq	FmoMB2SliceGroup
	movl	%eax, -8(%rbp)
	movl	-4(%rbp), %edi
	callq	FmoGetNextMBNr
	movl	%eax, -4(%rbp)
	movl	-4(%rbp), %eax
	movslq	-8(%rbp), %rcx
	movl	%eax, FirstMBInSlice(,%rcx,4)
	cmpl	$731359638, -12(%rbp)   # imm = 0x2B97A996
	jne	.LBB24_2
.LBB24_1:
	addq	$16, %rsp
	popq	%rbp
	.cfi_def_cfa %rsp, 8
	retq
.LBB24_2:                               # %func_exit
	.cfi_def_cfa %rbp, 16
	callq	detect_breach
	jmp	.LBB24_1
.Lfunc_end24:
	.size	FmoSetLastMacroblockInSlice.4, .Lfunc_end24-FmoSetLastMacroblockInSlice.4
	.cfi_endproc
                                        # -- End function
	.p2align	4, 0x90         # -- Begin function FmoGenerateType6MapUnitMap.5
	.type	FmoGenerateType6MapUnitMap.5,@function
FmoGenerateType6MapUnitMap.5:           # @FmoGenerateType6MapUnitMap.5
	.cfi_startproc
# %bb.0:                                # %entry
	pushq	%rbp
	.cfi_def_cfa_offset 16
	.cfi_offset %rbp, -16
	movq	%rsp, %rbp
	.cfi_def_cfa_register %rbp
	subq	$32, %rsp
	movl	$1146322821, -8(%rbp)   # imm = 0x44537F85
	movq	%rdi, -24(%rbp)
	movq	%rsi, -16(%rbp)
	movl	$0, -4(%rbp)
.LBB25_1:                               # %for.cond
                                        # =>This Inner Loop Header: Depth=1
	movl	-4(%rbp), %eax
	cmpl	PicSizeInMapUnits, %eax
	jae	.LBB25_4
# %bb.2:                                # %for.body
                                        #   in Loop: Header=BB25_1 Depth=1
	movq	-16(%rbp), %rax
	movq	176(%rax), %rax
	movl	-4(%rbp), %ecx
	movb	(%rax,%rcx), %al
	movq	MapUnitToSliceGroupMap, %rcx
	movl	-4(%rbp), %edx
	movb	%al, (%rcx,%rdx)
# %bb.3:                                # %for.inc
                                        #   in Loop: Header=BB25_1 Depth=1
	movl	-4(%rbp), %eax
	addl	$1, %eax
	movl	%eax, -4(%rbp)
	jmp	.LBB25_1
.LBB25_4:                               # %for.end
	cmpl	$1146322821, -8(%rbp)   # imm = 0x44537F85
	jne	.LBB25_6
.LBB25_5:
	addq	$32, %rsp
	popq	%rbp
	.cfi_def_cfa %rsp, 8
	retq
.LBB25_6:                               # %func_exit
	.cfi_def_cfa %rbp, 16
	callq	detect_breach
	jmp	.LBB25_5
.Lfunc_end25:
	.size	FmoGenerateType6MapUnitMap.5, .Lfunc_end25-FmoGenerateType6MapUnitMap.5
	.cfi_endproc
                                        # -- End function
	.p2align	4, 0x90         # -- Begin function FmoGenerateMapUnitToSliceGroupMap.6
	.type	FmoGenerateMapUnitToSliceGroupMap.6,@function
FmoGenerateMapUnitToSliceGroupMap.6:    # @FmoGenerateMapUnitToSliceGroupMap.6
	.cfi_startproc
# %bb.0:                                # %entry
	pushq	%rbp
	.cfi_def_cfa_offset 16
	.cfi_offset %rbp, -16
	movq	%rsp, %rbp
	.cfi_def_cfa_register %rbp
	pushq	%rbx
	subq	$24, %rsp
	.cfi_offset %rbx, -24
	movl	$3984934, -32(%rbp)     # imm = 0x3CCE26
	movq	%rdi, -24(%rbp)
	movq	%rsi, -16(%rbp)
	movq	-24(%rbp), %rax
	movl	72472(%rax), %eax
	movq	-24(%rbp), %rcx
	imull	72468(%rcx), %eax
	movl	%eax, PicSizeInMapUnits
	movq	-16(%rbp), %rax
	cmpl	$6, 64(%rax)
	jne	.LBB26_4
# %bb.1:                                # %if.then
	movq	-16(%rbp), %rax
	movl	172(%rax), %eax
	addl	$1, %eax
	cmpl	PicSizeInMapUnits, %eax
	je	.LBB26_3
# %bb.2:                                # %if.then2
	movabsq	$.L.str, %rdi
	movl	$500, %esi              # imm = 0x1F4
	callq	error
.LBB26_3:                               # %if.end
	jmp	.LBB26_4
.LBB26_4:                               # %if.end3
	cmpq	$0, MapUnitToSliceGroupMap
	je	.LBB26_6
# %bb.5:                                # %if.then4
	movq	MapUnitToSliceGroupMap, %rdi
	callq	free
.LBB26_6:                               # %if.end5
	movl	PicSizeInMapUnits, %edi
	shlq	$0, %rdi
	callq	malloc
	movq	%rax, MapUnitToSliceGroupMap
	cmpq	$0, %rax
	jne	.LBB26_8
# %bb.7:                                # %if.then9
	movl	PicSizeInMapUnits, %esi
	shlq	$0, %rsi
	movabsq	$.L.str.1, %rdi
	movb	$0, %al
	callq	printf
	movl	$4294967295, %edi       # imm = 0xFFFFFFFF
	callq	exit
.LBB26_8:                               # %if.end13
	movq	-16(%rbp), %rax
	cmpl	$0, 60(%rax)
	jne	.LBB26_10
# %bb.9:                                # %if.then16
	movq	MapUnitToSliceGroupMap, %rdi
	movl	PicSizeInMapUnits, %edx
	shlq	$0, %rdx
	xorl	%esi, %esi
	callq	memset
	movl	$0, -28(%rbp)
	jmp	.LBB26_21
.LBB26_10:                              # %if.end19
	movq	-16(%rbp), %rax
	movl	64(%rax), %eax
	movq	%rax, %rcx
	subq	$6, %rcx
	ja	.LBB26_19
# %bb.11:                               # %if.end19
	movq	.LJTI26_0(,%rax,8), %rax
	jmpq	*%rax
.LBB26_12:                              # %sw.bb
	movq	-24(%rbp), %rdi
	movq	-16(%rbp), %rsi
	callq	FmoGenerateType0MapUnitMap
	jmp	.LBB26_20
.LBB26_13:                              # %sw.bb21
	movq	-24(%rbp), %rdi
	movq	-16(%rbp), %rsi
	callq	FmoGenerateType1MapUnitMap
	jmp	.LBB26_20
.LBB26_14:                              # %sw.bb22
	movq	-24(%rbp), %rdi
	movq	-16(%rbp), %rsi
	callq	FmoGenerateType2MapUnitMap
	jmp	.LBB26_20
.LBB26_15:                              # %sw.bb23
	movq	-24(%rbp), %rdi
	movq	-16(%rbp), %rsi
	callq	FmoGenerateType3MapUnitMap
	jmp	.LBB26_20
.LBB26_16:                              # %sw.bb24
	movq	-24(%rbp), %rdi
	movq	-16(%rbp), %rsi
	callq	FmoGenerateType4MapUnitMap
	jmp	.LBB26_20
.LBB26_17:                              # %sw.bb25
	movq	-24(%rbp), %rdi
	movq	-16(%rbp), %rsi
	callq	FmoGenerateType5MapUnitMap
	jmp	.LBB26_20
.LBB26_18:                              # %sw.bb26
	movq	-24(%rbp), %rdi
	movq	-16(%rbp), %rsi
	callq	FmoGenerateType6MapUnitMap
	jmp	.LBB26_20
.LBB26_19:                              # %sw.default
	movq	-16(%rbp), %rax
	movl	64(%rax), %esi
	movabsq	$.L.str.2, %rdi
	movb	$0, %al
	callq	printf
	movl	$4294967295, %edi       # imm = 0xFFFFFFFF
	callq	exit
.LBB26_20:                              # %sw.epilog
	movl	$0, -28(%rbp)
.LBB26_21:                              # %return
	movl	-28(%rbp), %ebx
	cmpl	$3984934, -32(%rbp)     # imm = 0x3CCE26
	jne	.LBB26_23
.LBB26_22:
	movl	%ebx, %eax
	addq	$24, %rsp
	popq	%rbx
	popq	%rbp
	.cfi_def_cfa %rsp, 8
	retq
.LBB26_23:                              # %func_exit
	.cfi_def_cfa %rbp, 16
	callq	detect_breach
	jmp	.LBB26_22
.Lfunc_end26:
	.size	FmoGenerateMapUnitToSliceGroupMap.6, .Lfunc_end26-FmoGenerateMapUnitToSliceGroupMap.6
	.cfi_endproc
	.section	.rodata,"a",@progbits
	.p2align	3
.LJTI26_0:
	.quad	.LBB26_12
	.quad	.LBB26_13
	.quad	.LBB26_14
	.quad	.LBB26_15
	.quad	.LBB26_16
	.quad	.LBB26_17
	.quad	.LBB26_18
                                        # -- End function
	.text
	.globl	FmoGetLastCodedMBOfSliceGroup.7 # -- Begin function FmoGetLastCodedMBOfSliceGroup.7
	.p2align	4, 0x90
	.type	FmoGetLastCodedMBOfSliceGroup.7,@function
FmoGetLastCodedMBOfSliceGroup.7:        # @FmoGetLastCodedMBOfSliceGroup.7
	.cfi_startproc
# %bb.0:                                # %entry
	pushq	%rbp
	.cfi_def_cfa_offset 16
	.cfi_offset %rbp, -16
	movq	%rsp, %rbp
	.cfi_def_cfa_register %rbp
	pushq	%rbx
	subq	$24, %rsp
	.cfi_offset %rbx, -24
	movl	$820900857, -24(%rbp)   # imm = 0x30EDF3F9
	movl	%edi, -20(%rbp)
	movl	$-1, -16(%rbp)
	movl	$0, -12(%rbp)
.LBB27_1:                               # %for.cond
                                        # =>This Inner Loop Header: Depth=1
	movl	-12(%rbp), %eax
	movq	img, %rcx
	cmpl	72484(%rcx), %eax
	jge	.LBB27_6
# %bb.2:                                # %for.body
                                        #   in Loop: Header=BB27_1 Depth=1
	movl	-12(%rbp), %edi
	callq	FmoMB2SliceGroup
	cmpl	-20(%rbp), %eax
	jne	.LBB27_4
# %bb.3:                                # %if.then
                                        #   in Loop: Header=BB27_1 Depth=1
	movl	-12(%rbp), %eax
	movl	%eax, -16(%rbp)
.LBB27_4:                               # %if.end
                                        #   in Loop: Header=BB27_1 Depth=1
	jmp	.LBB27_5
.LBB27_5:                               # %for.inc
                                        #   in Loop: Header=BB27_1 Depth=1
	movl	-12(%rbp), %eax
	addl	$1, %eax
	movl	%eax, -12(%rbp)
	jmp	.LBB27_1
.LBB27_6:                               # %for.end
	movl	-16(%rbp), %ebx
	cmpl	$820900857, -24(%rbp)   # imm = 0x30EDF3F9
	jne	.LBB27_8
.LBB27_7:
	movl	%ebx, %eax
	addq	$24, %rsp
	popq	%rbx
	popq	%rbp
	.cfi_def_cfa %rsp, 8
	retq
.LBB27_8:                               # %func_exit
	.cfi_def_cfa %rbp, 16
	callq	detect_breach
	jmp	.LBB27_7
.Lfunc_end27:
	.size	FmoGetLastCodedMBOfSliceGroup.7, .Lfunc_end27-FmoGetLastCodedMBOfSliceGroup.7
	.cfi_endproc
                                        # -- End function
	.p2align	4, 0x90         # -- Begin function FmoGenerateType2MapUnitMap.8
	.type	FmoGenerateType2MapUnitMap.8,@function
FmoGenerateType2MapUnitMap.8:           # @FmoGenerateType2MapUnitMap.8
	.cfi_startproc
# %bb.0:                                # %entry
	pushq	%rbp
	.cfi_def_cfa_offset 16
	.cfi_offset %rbp, -16
	movq	%rsp, %rbp
	.cfi_def_cfa_register %rbp
	subq	$64, %rsp
	movl	$1946615894, -48(%rbp)  # imm = 0x74070056
	movq	%rdi, -32(%rbp)
	movq	%rsi, -24(%rbp)
	movl	$0, -16(%rbp)
.LBB28_1:                               # %for.cond
                                        # =>This Inner Loop Header: Depth=1
	movl	-16(%rbp), %eax
	cmpl	PicSizeInMapUnits, %eax
	jae	.LBB28_4
# %bb.2:                                # %for.body
                                        #   in Loop: Header=BB28_1 Depth=1
	movq	-24(%rbp), %rax
	movl	60(%rax), %eax
	movq	MapUnitToSliceGroupMap, %rcx
	movl	-16(%rbp), %edx
	movb	%al, (%rcx,%rdx)
# %bb.3:                                # %for.inc
                                        #   in Loop: Header=BB28_1 Depth=1
	movl	-16(%rbp), %eax
	addl	$1, %eax
	movl	%eax, -16(%rbp)
	jmp	.LBB28_1
.LBB28_4:                               # %for.end
	movq	-24(%rbp), %rax
	movl	60(%rax), %eax
	subl	$1, %eax
	movl	%eax, -4(%rbp)
.LBB28_5:                               # %for.cond2
                                        # =>This Loop Header: Depth=1
                                        #     Child Loop BB28_7 Depth 2
                                        #       Child Loop BB28_9 Depth 3
	cmpl	$0, -4(%rbp)
	jl	.LBB28_16
# %bb.6:                                # %for.body5
                                        #   in Loop: Header=BB28_5 Depth=1
	movq	-24(%rbp), %rax
	movslq	-4(%rbp), %rcx
	movl	100(%rax,%rcx,4), %eax
	movq	-32(%rbp), %rcx
	xorl	%edx, %edx
	divl	72468(%rcx)
	movl	%eax, -40(%rbp)
	movq	-24(%rbp), %rax
	movslq	-4(%rbp), %rcx
	movl	100(%rax,%rcx,4), %eax
	movq	-32(%rbp), %rcx
	xorl	%edx, %edx
	divl	72468(%rcx)
	movl	%edx, -52(%rbp)
	movq	-24(%rbp), %rax
	movslq	-4(%rbp), %rcx
	movl	132(%rax,%rcx,4), %eax
	movq	-32(%rbp), %rcx
	xorl	%edx, %edx
	divl	72468(%rcx)
	movl	%eax, -44(%rbp)
	movq	-24(%rbp), %rax
	movslq	-4(%rbp), %rcx
	movl	132(%rax,%rcx,4), %eax
	movq	-32(%rbp), %rcx
	xorl	%edx, %edx
	divl	72468(%rcx)
	movl	%edx, -36(%rbp)
	movl	-40(%rbp), %eax
	movl	%eax, -8(%rbp)
.LBB28_7:                               # %for.cond21
                                        #   Parent Loop BB28_5 Depth=1
                                        # =>  This Loop Header: Depth=2
                                        #       Child Loop BB28_9 Depth 3
	movl	-8(%rbp), %eax
	cmpl	-44(%rbp), %eax
	ja	.LBB28_14
# %bb.8:                                # %for.body24
                                        #   in Loop: Header=BB28_7 Depth=2
	movl	-52(%rbp), %eax
	movl	%eax, -12(%rbp)
.LBB28_9:                               # %for.cond25
                                        #   Parent Loop BB28_5 Depth=1
                                        #     Parent Loop BB28_7 Depth=2
                                        # =>    This Inner Loop Header: Depth=3
	movl	-12(%rbp), %eax
	cmpl	-36(%rbp), %eax
	ja	.LBB28_12
# %bb.10:                               # %for.body28
                                        #   in Loop: Header=BB28_9 Depth=3
	movl	-4(%rbp), %eax
	movq	MapUnitToSliceGroupMap, %rcx
	movl	-8(%rbp), %edx
	movq	-32(%rbp), %rsi
	imull	72468(%rsi), %edx
	addl	-12(%rbp), %edx
	movl	%edx, %edx
	movb	%al, (%rcx,%rdx)
# %bb.11:                               # %for.inc33
                                        #   in Loop: Header=BB28_9 Depth=3
	movl	-12(%rbp), %eax
	addl	$1, %eax
	movl	%eax, -12(%rbp)
	jmp	.LBB28_9
.LBB28_12:                              # %for.end35
                                        #   in Loop: Header=BB28_7 Depth=2
	jmp	.LBB28_13
.LBB28_13:                              # %for.inc36
                                        #   in Loop: Header=BB28_7 Depth=2
	movl	-8(%rbp), %eax
	addl	$1, %eax
	movl	%eax, -8(%rbp)
	jmp	.LBB28_7
.LBB28_14:                              # %for.end38
                                        #   in Loop: Header=BB28_5 Depth=1
	jmp	.LBB28_15
.LBB28_15:                              # %for.inc39
                                        #   in Loop: Header=BB28_5 Depth=1
	movl	-4(%rbp), %eax
	addl	$-1, %eax
	movl	%eax, -4(%rbp)
	jmp	.LBB28_5
.LBB28_16:                              # %for.end40
	cmpl	$1946615894, -48(%rbp)  # imm = 0x74070056
	jne	.LBB28_18
.LBB28_17:
	addq	$64, %rsp
	popq	%rbp
	.cfi_def_cfa %rsp, 8
	retq
.LBB28_18:                              # %func_exit
	.cfi_def_cfa %rbp, 16
	callq	detect_breach
	jmp	.LBB28_17
.Lfunc_end28:
	.size	FmoGenerateType2MapUnitMap.8, .Lfunc_end28-FmoGenerateType2MapUnitMap.8
	.cfi_endproc
                                        # -- End function
	.p2align	4, 0x90         # -- Begin function FmoGenerateMapUnitToSliceGroupMap.9
	.type	FmoGenerateMapUnitToSliceGroupMap.9,@function
FmoGenerateMapUnitToSliceGroupMap.9:    # @FmoGenerateMapUnitToSliceGroupMap.9
	.cfi_startproc
# %bb.0:                                # %entry
	pushq	%rbp
	.cfi_def_cfa_offset 16
	.cfi_offset %rbp, -16
	movq	%rsp, %rbp
	.cfi_def_cfa_register %rbp
	pushq	%rbx
	subq	$24, %rsp
	.cfi_offset %rbx, -24
	movl	$1635123556, -32(%rbp)  # imm = 0x61760164
	movq	%rdi, -24(%rbp)
	movq	%rsi, -16(%rbp)
	movq	-24(%rbp), %rax
	movl	72472(%rax), %eax
	movq	-24(%rbp), %rcx
	imull	72468(%rcx), %eax
	movl	%eax, PicSizeInMapUnits
	movq	-16(%rbp), %rax
	cmpl	$6, 64(%rax)
	jne	.LBB29_4
# %bb.1:                                # %if.then
	movq	-16(%rbp), %rax
	movl	172(%rax), %eax
	addl	$1, %eax
	cmpl	PicSizeInMapUnits, %eax
	je	.LBB29_3
# %bb.2:                                # %if.then2
	movabsq	$.L.str, %rdi
	movl	$500, %esi              # imm = 0x1F4
	callq	error
.LBB29_3:                               # %if.end
	jmp	.LBB29_4
.LBB29_4:                               # %if.end3
	cmpq	$0, MapUnitToSliceGroupMap
	je	.LBB29_6
# %bb.5:                                # %if.then4
	movq	MapUnitToSliceGroupMap, %rdi
	callq	free
.LBB29_6:                               # %if.end5
	movl	PicSizeInMapUnits, %edi
	shlq	$0, %rdi
	callq	malloc
	movq	%rax, MapUnitToSliceGroupMap
	cmpq	$0, %rax
	jne	.LBB29_8
# %bb.7:                                # %if.then9
	movl	PicSizeInMapUnits, %esi
	shlq	$0, %rsi
	movabsq	$.L.str.1, %rdi
	movb	$0, %al
	callq	printf
	movl	$4294967295, %edi       # imm = 0xFFFFFFFF
	callq	exit
.LBB29_8:                               # %if.end13
	movq	-16(%rbp), %rax
	cmpl	$0, 60(%rax)
	jne	.LBB29_10
# %bb.9:                                # %if.then16
	movq	MapUnitToSliceGroupMap, %rdi
	movl	PicSizeInMapUnits, %edx
	shlq	$0, %rdx
	xorl	%esi, %esi
	callq	memset
	movl	$0, -28(%rbp)
	jmp	.LBB29_21
.LBB29_10:                              # %if.end19
	movq	-16(%rbp), %rax
	movl	64(%rax), %eax
	movq	%rax, %rcx
	subq	$6, %rcx
	ja	.LBB29_19
# %bb.11:                               # %if.end19
	movq	.LJTI29_0(,%rax,8), %rax
	jmpq	*%rax
.LBB29_12:                              # %sw.bb
	movq	-24(%rbp), %rdi
	movq	-16(%rbp), %rsi
	callq	FmoGenerateType0MapUnitMap
	jmp	.LBB29_20
.LBB29_13:                              # %sw.bb21
	movq	-24(%rbp), %rdi
	movq	-16(%rbp), %rsi
	callq	FmoGenerateType1MapUnitMap
	jmp	.LBB29_20
.LBB29_14:                              # %sw.bb22
	movq	-24(%rbp), %rdi
	movq	-16(%rbp), %rsi
	callq	FmoGenerateType2MapUnitMap
	jmp	.LBB29_20
.LBB29_15:                              # %sw.bb23
	movq	-24(%rbp), %rdi
	movq	-16(%rbp), %rsi
	callq	FmoGenerateType3MapUnitMap
	jmp	.LBB29_20
.LBB29_16:                              # %sw.bb24
	movq	-24(%rbp), %rdi
	movq	-16(%rbp), %rsi
	callq	FmoGenerateType4MapUnitMap
	jmp	.LBB29_20
.LBB29_17:                              # %sw.bb25
	movq	-24(%rbp), %rdi
	movq	-16(%rbp), %rsi
	callq	FmoGenerateType5MapUnitMap
	jmp	.LBB29_20
.LBB29_18:                              # %sw.bb26
	movq	-24(%rbp), %rdi
	movq	-16(%rbp), %rsi
	callq	FmoGenerateType6MapUnitMap
	jmp	.LBB29_20
.LBB29_19:                              # %sw.default
	movq	-16(%rbp), %rax
	movl	64(%rax), %esi
	movabsq	$.L.str.2, %rdi
	movb	$0, %al
	callq	printf
	movl	$4294967295, %edi       # imm = 0xFFFFFFFF
	callq	exit
.LBB29_20:                              # %sw.epilog
	movl	$0, -28(%rbp)
.LBB29_21:                              # %return
	movl	-28(%rbp), %ebx
	cmpl	$1635123556, -32(%rbp)  # imm = 0x61760164
	jne	.LBB29_23
.LBB29_22:
	movl	%ebx, %eax
	addq	$24, %rsp
	popq	%rbx
	popq	%rbp
	.cfi_def_cfa %rsp, 8
	retq
.LBB29_23:                              # %func_exit
	.cfi_def_cfa %rbp, 16
	callq	detect_breach
	jmp	.LBB29_22
.Lfunc_end29:
	.size	FmoGenerateMapUnitToSliceGroupMap.9, .Lfunc_end29-FmoGenerateMapUnitToSliceGroupMap.9
	.cfi_endproc
	.section	.rodata,"a",@progbits
	.p2align	3
.LJTI29_0:
	.quad	.LBB29_12
	.quad	.LBB29_13
	.quad	.LBB29_14
	.quad	.LBB29_15
	.quad	.LBB29_16
	.quad	.LBB29_17
	.quad	.LBB29_18
                                        # -- End function
	.text
	.globl	FmoSliceGroupCompletelyCoded.10 # -- Begin function FmoSliceGroupCompletelyCoded.10
	.p2align	4, 0x90
	.type	FmoSliceGroupCompletelyCoded.10,@function
FmoSliceGroupCompletelyCoded.10:        # @FmoSliceGroupCompletelyCoded.10
	.cfi_startproc
# %bb.0:                                # %entry
	pushq	%rbp
	.cfi_def_cfa_offset 16
	.cfi_offset %rbp, -16
	movq	%rsp, %rbp
	.cfi_def_cfa_register %rbp
	pushq	%rbx
	subq	$24, %rsp
	.cfi_offset %rbx, -24
	movl	$1158723155, -16(%rbp)  # imm = 0x4510B653
	movl	%edi, -20(%rbp)
	movl	-20(%rbp), %edi
	callq	FmoGetFirstMacroblockInSlice
	cmpl	$0, %eax
	jge	.LBB30_2
# %bb.1:                                # %if.then
	movl	$1, -12(%rbp)
	jmp	.LBB30_3
.LBB30_2:                               # %if.else
	movl	$0, -12(%rbp)
.LBB30_3:                               # %return
	movl	-12(%rbp), %ebx
	cmpl	$1158723155, -16(%rbp)  # imm = 0x4510B653
	jne	.LBB30_5
.LBB30_4:
	movl	%ebx, %eax
	addq	$24, %rsp
	popq	%rbx
	popq	%rbp
	.cfi_def_cfa %rsp, 8
	retq
.LBB30_5:                               # %func_exit
	.cfi_def_cfa %rbp, 16
	callq	detect_breach
	jmp	.LBB30_4
.Lfunc_end30:
	.size	FmoSliceGroupCompletelyCoded.10, .Lfunc_end30-FmoSliceGroupCompletelyCoded.10
	.cfi_endproc
                                        # -- End function
	.p2align	4, 0x90         # -- Begin function FmoGenerateType2MapUnitMap.11
	.type	FmoGenerateType2MapUnitMap.11,@function
FmoGenerateType2MapUnitMap.11:          # @FmoGenerateType2MapUnitMap.11
	.cfi_startproc
# %bb.0:                                # %entry
	pushq	%rbp
	.cfi_def_cfa_offset 16
	.cfi_offset %rbp, -16
	movq	%rsp, %rbp
	.cfi_def_cfa_register %rbp
	subq	$64, %rsp
	movl	$1910891744, -36(%rbp)  # imm = 0x71E5E4E0
	movq	%rdi, -32(%rbp)
	movq	%rsi, -24(%rbp)
	movl	$0, -8(%rbp)
.LBB31_1:                               # %for.cond
                                        # =>This Inner Loop Header: Depth=1
	movl	-8(%rbp), %eax
	cmpl	PicSizeInMapUnits, %eax
	jae	.LBB31_4
# %bb.2:                                # %for.body
                                        #   in Loop: Header=BB31_1 Depth=1
	movq	-24(%rbp), %rax
	movl	60(%rax), %eax
	movq	MapUnitToSliceGroupMap, %rcx
	movl	-8(%rbp), %edx
	movb	%al, (%rcx,%rdx)
# %bb.3:                                # %for.inc
                                        #   in Loop: Header=BB31_1 Depth=1
	movl	-8(%rbp), %eax
	addl	$1, %eax
	movl	%eax, -8(%rbp)
	jmp	.LBB31_1
.LBB31_4:                               # %for.end
	movq	-24(%rbp), %rax
	movl	60(%rax), %eax
	subl	$1, %eax
	movl	%eax, -4(%rbp)
.LBB31_5:                               # %for.cond2
                                        # =>This Loop Header: Depth=1
                                        #     Child Loop BB31_7 Depth 2
                                        #       Child Loop BB31_9 Depth 3
	cmpl	$0, -4(%rbp)
	jl	.LBB31_16
# %bb.6:                                # %for.body5
                                        #   in Loop: Header=BB31_5 Depth=1
	movq	-24(%rbp), %rax
	movslq	-4(%rbp), %rcx
	movl	100(%rax,%rcx,4), %eax
	movq	-32(%rbp), %rcx
	xorl	%edx, %edx
	divl	72468(%rcx)
	movl	%eax, -52(%rbp)
	movq	-24(%rbp), %rax
	movslq	-4(%rbp), %rcx
	movl	100(%rax,%rcx,4), %eax
	movq	-32(%rbp), %rcx
	xorl	%edx, %edx
	divl	72468(%rcx)
	movl	%edx, -48(%rbp)
	movq	-24(%rbp), %rax
	movslq	-4(%rbp), %rcx
	movl	132(%rax,%rcx,4), %eax
	movq	-32(%rbp), %rcx
	xorl	%edx, %edx
	divl	72468(%rcx)
	movl	%eax, -44(%rbp)
	movq	-24(%rbp), %rax
	movslq	-4(%rbp), %rcx
	movl	132(%rax,%rcx,4), %eax
	movq	-32(%rbp), %rcx
	xorl	%edx, %edx
	divl	72468(%rcx)
	movl	%edx, -40(%rbp)
	movl	-52(%rbp), %eax
	movl	%eax, -16(%rbp)
.LBB31_7:                               # %for.cond21
                                        #   Parent Loop BB31_5 Depth=1
                                        # =>  This Loop Header: Depth=2
                                        #       Child Loop BB31_9 Depth 3
	movl	-16(%rbp), %eax
	cmpl	-44(%rbp), %eax
	ja	.LBB31_14
# %bb.8:                                # %for.body24
                                        #   in Loop: Header=BB31_7 Depth=2
	movl	-48(%rbp), %eax
	movl	%eax, -12(%rbp)
.LBB31_9:                               # %for.cond25
                                        #   Parent Loop BB31_5 Depth=1
                                        #     Parent Loop BB31_7 Depth=2
                                        # =>    This Inner Loop Header: Depth=3
	movl	-12(%rbp), %eax
	cmpl	-40(%rbp), %eax
	ja	.LBB31_12
# %bb.10:                               # %for.body28
                                        #   in Loop: Header=BB31_9 Depth=3
	movl	-4(%rbp), %eax
	movq	MapUnitToSliceGroupMap, %rcx
	movl	-16(%rbp), %edx
	movq	-32(%rbp), %rsi
	imull	72468(%rsi), %edx
	addl	-12(%rbp), %edx
	movl	%edx, %edx
	movb	%al, (%rcx,%rdx)
# %bb.11:                               # %for.inc33
                                        #   in Loop: Header=BB31_9 Depth=3
	movl	-12(%rbp), %eax
	addl	$1, %eax
	movl	%eax, -12(%rbp)
	jmp	.LBB31_9
.LBB31_12:                              # %for.end35
                                        #   in Loop: Header=BB31_7 Depth=2
	jmp	.LBB31_13
.LBB31_13:                              # %for.inc36
                                        #   in Loop: Header=BB31_7 Depth=2
	movl	-16(%rbp), %eax
	addl	$1, %eax
	movl	%eax, -16(%rbp)
	jmp	.LBB31_7
.LBB31_14:                              # %for.end38
                                        #   in Loop: Header=BB31_5 Depth=1
	jmp	.LBB31_15
.LBB31_15:                              # %for.inc39
                                        #   in Loop: Header=BB31_5 Depth=1
	movl	-4(%rbp), %eax
	addl	$-1, %eax
	movl	%eax, -4(%rbp)
	jmp	.LBB31_5
.LBB31_16:                              # %for.end40
	cmpl	$1910891744, -36(%rbp)  # imm = 0x71E5E4E0
	jne	.LBB31_18
.LBB31_17:
	addq	$64, %rsp
	popq	%rbp
	.cfi_def_cfa %rsp, 8
	retq
.LBB31_18:                              # %func_exit
	.cfi_def_cfa %rbp, 16
	callq	detect_breach
	jmp	.LBB31_17
.Lfunc_end31:
	.size	FmoGenerateType2MapUnitMap.11, .Lfunc_end31-FmoGenerateType2MapUnitMap.11
	.cfi_endproc
                                        # -- End function
	.p2align	4, 0x90         # -- Begin function FmoGenerateType3MapUnitMap.12
	.type	FmoGenerateType3MapUnitMap.12,@function
FmoGenerateType3MapUnitMap.12:          # @FmoGenerateType3MapUnitMap.12
	.cfi_startproc
# %bb.0:                                # %entry
	pushq	%rbp
	.cfi_def_cfa_offset 16
	.cfi_offset %rbp, -16
	movq	%rsp, %rbp
	.cfi_def_cfa_register %rbp
	subq	$80, %rsp
	movl	$1332490918, -68(%rbp)  # imm = 0x4F6C32A6
	movq	%rdi, -48(%rbp)
	movq	%rsi, -40(%rbp)
	movq	-40(%rbp), %rax
	movl	168(%rax), %eax
	addl	$1, %eax
	movq	-48(%rbp), %rcx
	imull	72652(%rcx), %eax
	cmpl	PicSizeInMapUnits, %eax
	jae	.LBB32_2
# %bb.1:                                # %cond.true
	movq	-40(%rbp), %rax
	movl	168(%rax), %eax
	addl	$1, %eax
	movq	-48(%rbp), %rcx
	imull	72652(%rcx), %eax
	jmp	.LBB32_3
.LBB32_2:                               # %cond.false
	movl	PicSizeInMapUnits, %eax
.LBB32_3:                               # %cond.end
	movl	%eax, -64(%rbp)
	movl	$0, -56(%rbp)
.LBB32_4:                               # %for.cond
                                        # =>This Inner Loop Header: Depth=1
	movl	-56(%rbp), %eax
	cmpl	PicSizeInMapUnits, %eax
	jae	.LBB32_7
# %bb.5:                                # %for.body
                                        #   in Loop: Header=BB32_4 Depth=1
	movq	MapUnitToSliceGroupMap, %rax
	movl	-56(%rbp), %ecx
	movb	$2, (%rax,%rcx)
# %bb.6:                                # %for.inc
                                        #   in Loop: Header=BB32_4 Depth=1
	movl	-56(%rbp), %eax
	addl	$1, %eax
	movl	%eax, -56(%rbp)
	jmp	.LBB32_4
.LBB32_7:                               # %for.end
	movq	-48(%rbp), %rax
	movl	72468(%rax), %eax
	movq	-40(%rbp), %rcx
	subl	164(%rcx), %eax
	shrl	$1, %eax
	movl	%eax, -8(%rbp)
	movq	-48(%rbp), %rax
	movl	72472(%rax), %eax
	movq	-40(%rbp), %rcx
	subl	164(%rcx), %eax
	shrl	$1, %eax
	movl	%eax, -4(%rbp)
	movl	-8(%rbp), %eax
	movl	%eax, -20(%rbp)
	movl	-4(%rbp), %eax
	movl	%eax, -32(%rbp)
	movl	-8(%rbp), %eax
	movl	%eax, -24(%rbp)
	movl	-4(%rbp), %eax
	movl	%eax, -28(%rbp)
	movq	-40(%rbp), %rax
	movl	164(%rax), %eax
	subl	$1, %eax
	movl	%eax, -16(%rbp)
	movq	-40(%rbp), %rax
	movl	164(%rax), %eax
	movl	%eax, -12(%rbp)
	movl	$0, -52(%rbp)
.LBB32_8:                               # %for.cond12
                                        # =>This Inner Loop Header: Depth=1
	movl	-52(%rbp), %eax
	cmpl	PicSizeInMapUnits, %eax
	jae	.LBB32_41
# %bb.9:                                # %for.body14
                                        #   in Loop: Header=BB32_8 Depth=1
	movq	MapUnitToSliceGroupMap, %rax
	movl	-4(%rbp), %ecx
	movq	-48(%rbp), %rdx
	imull	72468(%rdx), %ecx
	addl	-8(%rbp), %ecx
	movl	%ecx, %ecx
	movzbl	(%rax,%rcx), %eax
	cmpl	$2, %eax
	sete	%al
	andb	$1, %al
	movzbl	%al, %eax
	movl	%eax, -60(%rbp)
	cmpl	$0, -60(%rbp)
	je	.LBB32_11
# %bb.10:                               # %if.then
                                        #   in Loop: Header=BB32_8 Depth=1
	movl	-52(%rbp), %eax
	cmpl	-64(%rbp), %eax
	setae	%al
	andb	$1, %al
	movzbl	%al, %eax
	movq	MapUnitToSliceGroupMap, %rcx
	movl	-4(%rbp), %edx
	movq	-48(%rbp), %rsi
	imull	72468(%rsi), %edx
	addl	-8(%rbp), %edx
	movl	%edx, %edx
	movb	%al, (%rcx,%rdx)
.LBB32_11:                              # %if.end
                                        #   in Loop: Header=BB32_8 Depth=1
	cmpl	$-1, -16(%rbp)
	jne	.LBB32_17
# %bb.12:                               # %land.lhs.true
                                        #   in Loop: Header=BB32_8 Depth=1
	movl	-8(%rbp), %eax
	cmpl	-20(%rbp), %eax
	jne	.LBB32_17
# %bb.13:                               # %if.then34
                                        #   in Loop: Header=BB32_8 Depth=1
	movl	-20(%rbp), %eax
	subl	$1, %eax
	cmpl	$0, %eax
	jle	.LBB32_15
# %bb.14:                               # %cond.true38
                                        #   in Loop: Header=BB32_8 Depth=1
	movl	-20(%rbp), %eax
	subl	$1, %eax
	jmp	.LBB32_16
.LBB32_15:                              # %cond.false40
                                        #   in Loop: Header=BB32_8 Depth=1
	xorl	%eax, %eax
	jmp	.LBB32_16
.LBB32_16:                              # %cond.end41
                                        #   in Loop: Header=BB32_8 Depth=1
	movl	%eax, -20(%rbp)
	movl	-20(%rbp), %eax
	movl	%eax, -8(%rbp)
	movl	$0, -16(%rbp)
	movq	-40(%rbp), %rax
	movl	164(%rax), %eax
	shll	$1, %eax
	subl	$1, %eax
	movl	%eax, -12(%rbp)
	jmp	.LBB32_39
.LBB32_17:                              # %if.else
                                        #   in Loop: Header=BB32_8 Depth=1
	cmpl	$1, -16(%rbp)
	jne	.LBB32_23
# %bb.18:                               # %land.lhs.true48
                                        #   in Loop: Header=BB32_8 Depth=1
	movl	-8(%rbp), %eax
	cmpl	-24(%rbp), %eax
	jne	.LBB32_23
# %bb.19:                               # %if.then51
                                        #   in Loop: Header=BB32_8 Depth=1
	movl	-24(%rbp), %eax
	addl	$1, %eax
	movq	-48(%rbp), %rcx
	movl	72468(%rcx), %ecx
	subl	$1, %ecx
	cmpl	%ecx, %eax
	jge	.LBB32_21
# %bb.20:                               # %cond.true57
                                        #   in Loop: Header=BB32_8 Depth=1
	movl	-24(%rbp), %eax
	addl	$1, %eax
	jmp	.LBB32_22
.LBB32_21:                              # %cond.false59
                                        #   in Loop: Header=BB32_8 Depth=1
	movq	-48(%rbp), %rax
	movl	72468(%rax), %eax
	subl	$1, %eax
.LBB32_22:                              # %cond.end62
                                        #   in Loop: Header=BB32_8 Depth=1
	movl	%eax, -24(%rbp)
	movl	-24(%rbp), %eax
	movl	%eax, -8(%rbp)
	movl	$0, -16(%rbp)
	movq	-40(%rbp), %rax
	movl	164(%rax), %eax
	shll	$1, %eax
	movl	$1, %ecx
	subl	%eax, %ecx
	movl	%ecx, -12(%rbp)
	jmp	.LBB32_38
.LBB32_23:                              # %if.else67
                                        #   in Loop: Header=BB32_8 Depth=1
	cmpl	$-1, -12(%rbp)
	jne	.LBB32_29
# %bb.24:                               # %land.lhs.true70
                                        #   in Loop: Header=BB32_8 Depth=1
	movl	-4(%rbp), %eax
	cmpl	-32(%rbp), %eax
	jne	.LBB32_29
# %bb.25:                               # %if.then73
                                        #   in Loop: Header=BB32_8 Depth=1
	movl	-32(%rbp), %eax
	subl	$1, %eax
	cmpl	$0, %eax
	jle	.LBB32_27
# %bb.26:                               # %cond.true77
                                        #   in Loop: Header=BB32_8 Depth=1
	movl	-32(%rbp), %eax
	subl	$1, %eax
	jmp	.LBB32_28
.LBB32_27:                              # %cond.false79
                                        #   in Loop: Header=BB32_8 Depth=1
	xorl	%eax, %eax
	jmp	.LBB32_28
.LBB32_28:                              # %cond.end80
                                        #   in Loop: Header=BB32_8 Depth=1
	movl	%eax, -32(%rbp)
	movl	-32(%rbp), %eax
	movl	%eax, -4(%rbp)
	movq	-40(%rbp), %rax
	movl	164(%rax), %eax
	shll	$1, %eax
	movl	$1, %ecx
	subl	%eax, %ecx
	movl	%ecx, -16(%rbp)
	movl	$0, -12(%rbp)
	jmp	.LBB32_37
.LBB32_29:                              # %if.else85
                                        #   in Loop: Header=BB32_8 Depth=1
	cmpl	$1, -12(%rbp)
	jne	.LBB32_35
# %bb.30:                               # %land.lhs.true88
                                        #   in Loop: Header=BB32_8 Depth=1
	movl	-4(%rbp), %eax
	cmpl	-28(%rbp), %eax
	jne	.LBB32_35
# %bb.31:                               # %if.then91
                                        #   in Loop: Header=BB32_8 Depth=1
	movl	-28(%rbp), %eax
	addl	$1, %eax
	movq	-48(%rbp), %rcx
	movl	72472(%rcx), %ecx
	subl	$1, %ecx
	cmpl	%ecx, %eax
	jge	.LBB32_33
# %bb.32:                               # %cond.true97
                                        #   in Loop: Header=BB32_8 Depth=1
	movl	-28(%rbp), %eax
	addl	$1, %eax
	jmp	.LBB32_34
.LBB32_33:                              # %cond.false99
                                        #   in Loop: Header=BB32_8 Depth=1
	movq	-48(%rbp), %rax
	movl	72472(%rax), %eax
	subl	$1, %eax
.LBB32_34:                              # %cond.end102
                                        #   in Loop: Header=BB32_8 Depth=1
	movl	%eax, -28(%rbp)
	movl	-28(%rbp), %eax
	movl	%eax, -4(%rbp)
	movq	-40(%rbp), %rax
	movl	164(%rax), %eax
	shll	$1, %eax
	subl	$1, %eax
	movl	%eax, -16(%rbp)
	movl	$0, -12(%rbp)
	jmp	.LBB32_36
.LBB32_35:                              # %if.else107
                                        #   in Loop: Header=BB32_8 Depth=1
	movl	-8(%rbp), %eax
	addl	-16(%rbp), %eax
	movl	%eax, -8(%rbp)
	movl	-4(%rbp), %eax
	addl	-12(%rbp), %eax
	movl	%eax, -4(%rbp)
.LBB32_36:                              # %if.end110
                                        #   in Loop: Header=BB32_8 Depth=1
	jmp	.LBB32_37
.LBB32_37:                              # %if.end111
                                        #   in Loop: Header=BB32_8 Depth=1
	jmp	.LBB32_38
.LBB32_38:                              # %if.end112
                                        #   in Loop: Header=BB32_8 Depth=1
	jmp	.LBB32_39
.LBB32_39:                              # %if.end113
                                        #   in Loop: Header=BB32_8 Depth=1
	jmp	.LBB32_40
.LBB32_40:                              # %for.inc114
                                        #   in Loop: Header=BB32_8 Depth=1
	movl	-60(%rbp), %eax
	addl	-52(%rbp), %eax
	movl	%eax, -52(%rbp)
	jmp	.LBB32_8
.LBB32_41:                              # %for.end116
	cmpl	$1332490918, -68(%rbp)  # imm = 0x4F6C32A6
	jne	.LBB32_43
.LBB32_42:
	addq	$80, %rsp
	popq	%rbp
	.cfi_def_cfa %rsp, 8
	retq
.LBB32_43:                              # %func_exit
	.cfi_def_cfa %rbp, 16
	callq	detect_breach
	jmp	.LBB32_42
.Lfunc_end32:
	.size	FmoGenerateType3MapUnitMap.12, .Lfunc_end32-FmoGenerateType3MapUnitMap.12
	.cfi_endproc
                                        # -- End function
	.globl	FmoSetLastMacroblockInSlice.13 # -- Begin function FmoSetLastMacroblockInSlice.13
	.p2align	4, 0x90
	.type	FmoSetLastMacroblockInSlice.13,@function
FmoSetLastMacroblockInSlice.13:         # @FmoSetLastMacroblockInSlice.13
	.cfi_startproc
# %bb.0:                                # %entry
	pushq	%rbp
	.cfi_def_cfa_offset 16
	.cfi_offset %rbp, -16
	movq	%rsp, %rbp
	.cfi_def_cfa_register %rbp
	subq	$16, %rsp
	movl	$802781113, -12(%rbp)   # imm = 0x2FD977B9
	movl	%edi, -4(%rbp)
	movl	-4(%rbp), %edi
	callq	FmoMB2SliceGroup
	movl	%eax, -8(%rbp)
	movl	-4(%rbp), %edi
	callq	FmoGetNextMBNr
	movl	%eax, -4(%rbp)
	movl	-4(%rbp), %eax
	movslq	-8(%rbp), %rcx
	movl	%eax, FirstMBInSlice(,%rcx,4)
	cmpl	$802781113, -12(%rbp)   # imm = 0x2FD977B9
	jne	.LBB33_2
.LBB33_1:
	addq	$16, %rsp
	popq	%rbp
	.cfi_def_cfa %rsp, 8
	retq
.LBB33_2:                               # %func_exit
	.cfi_def_cfa %rbp, 16
	callq	detect_breach
	jmp	.LBB33_1
.Lfunc_end33:
	.size	FmoSetLastMacroblockInSlice.13, .Lfunc_end33-FmoSetLastMacroblockInSlice.13
	.cfi_endproc
                                        # -- End function
	.globl	FmoInit.14              # -- Begin function FmoInit.14
	.p2align	4, 0x90
	.type	FmoInit.14,@function
FmoInit.14:                             # @FmoInit.14
	.cfi_startproc
# %bb.0:                                # %entry
	pushq	%rbp
	.cfi_def_cfa_offset 16
	.cfi_offset %rbp, -16
	movq	%rsp, %rbp
	.cfi_def_cfa_register %rbp
	subq	$32, %rsp
	movl	$1692093403, -8(%rbp)   # imm = 0x64DB4BDB
	movq	%rdi, -16(%rbp)
	movq	%rsi, -32(%rbp)
	movq	%rdx, -24(%rbp)
	movl	$0, -4(%rbp)
.LBB34_1:                               # %for.cond
                                        # =>This Inner Loop Header: Depth=1
	cmpl	$8, -4(%rbp)
	jge	.LBB34_4
# %bb.2:                                # %for.body
                                        #   in Loop: Header=BB34_1 Depth=1
	movslq	-4(%rbp), %rax
	movl	$-1, FirstMBInSlice(,%rax,4)
# %bb.3:                                # %for.inc
                                        #   in Loop: Header=BB34_1 Depth=1
	movl	-4(%rbp), %eax
	addl	$1, %eax
	movl	%eax, -4(%rbp)
	jmp	.LBB34_1
.LBB34_4:                               # %for.end
	movq	-16(%rbp), %rdi
	movq	-32(%rbp), %rsi
	callq	FmoGenerateMapUnitToSliceGroupMap
	movq	-16(%rbp), %rdi
	movq	-24(%rbp), %rsi
	callq	FmoGenerateMBAmap
	cmpl	$1692093403, -8(%rbp)   # imm = 0x64DB4BDB
	jne	.LBB34_6
.LBB34_5:
	xorl	%eax, %eax
	addq	$32, %rsp
	popq	%rbp
	.cfi_def_cfa %rsp, 8
	retq
.LBB34_6:                               # %func_exit
	.cfi_def_cfa %rbp, 16
	callq	detect_breach
	jmp	.LBB34_5
.Lfunc_end34:
	.size	FmoInit.14, .Lfunc_end34-FmoInit.14
	.cfi_endproc
                                        # -- End function
	.globl	FmoGetLastCodedMBOfSliceGroup.15 # -- Begin function FmoGetLastCodedMBOfSliceGroup.15
	.p2align	4, 0x90
	.type	FmoGetLastCodedMBOfSliceGroup.15,@function
FmoGetLastCodedMBOfSliceGroup.15:       # @FmoGetLastCodedMBOfSliceGroup.15
	.cfi_startproc
# %bb.0:                                # %entry
	pushq	%rbp
	.cfi_def_cfa_offset 16
	.cfi_offset %rbp, -16
	movq	%rsp, %rbp
	.cfi_def_cfa_register %rbp
	pushq	%rbx
	subq	$24, %rsp
	.cfi_offset %rbx, -24
	movl	$524235927, -24(%rbp)   # imm = 0x1F3F3497
	movl	%edi, -20(%rbp)
	movl	$-1, -16(%rbp)
	movl	$0, -12(%rbp)
.LBB35_1:                               # %for.cond
                                        # =>This Inner Loop Header: Depth=1
	movl	-12(%rbp), %eax
	movq	img, %rcx
	cmpl	72484(%rcx), %eax
	jge	.LBB35_6
# %bb.2:                                # %for.body
                                        #   in Loop: Header=BB35_1 Depth=1
	movl	-12(%rbp), %edi
	callq	FmoMB2SliceGroup
	cmpl	-20(%rbp), %eax
	jne	.LBB35_4
# %bb.3:                                # %if.then
                                        #   in Loop: Header=BB35_1 Depth=1
	movl	-12(%rbp), %eax
	movl	%eax, -16(%rbp)
.LBB35_4:                               # %if.end
                                        #   in Loop: Header=BB35_1 Depth=1
	jmp	.LBB35_5
.LBB35_5:                               # %for.inc
                                        #   in Loop: Header=BB35_1 Depth=1
	movl	-12(%rbp), %eax
	addl	$1, %eax
	movl	%eax, -12(%rbp)
	jmp	.LBB35_1
.LBB35_6:                               # %for.end
	movl	-16(%rbp), %ebx
	cmpl	$524235927, -24(%rbp)   # imm = 0x1F3F3497
	jne	.LBB35_8
.LBB35_7:
	movl	%ebx, %eax
	addq	$24, %rsp
	popq	%rbx
	popq	%rbp
	.cfi_def_cfa %rsp, 8
	retq
.LBB35_8:                               # %func_exit
	.cfi_def_cfa %rbp, 16
	callq	detect_breach
	jmp	.LBB35_7
.Lfunc_end35:
	.size	FmoGetLastCodedMBOfSliceGroup.15, .Lfunc_end35-FmoGetLastCodedMBOfSliceGroup.15
	.cfi_endproc
                                        # -- End function
	.p2align	4, 0x90         # -- Begin function FmoGenerateType2MapUnitMap.16
	.type	FmoGenerateType2MapUnitMap.16,@function
FmoGenerateType2MapUnitMap.16:          # @FmoGenerateType2MapUnitMap.16
	.cfi_startproc
# %bb.0:                                # %entry
	pushq	%rbp
	.cfi_def_cfa_offset 16
	.cfi_offset %rbp, -16
	movq	%rsp, %rbp
	.cfi_def_cfa_register %rbp
	subq	$64, %rsp
	movl	$1576518248, -52(%rbp)  # imm = 0x5DF7C268
	movq	%rdi, -32(%rbp)
	movq	%rsi, -24(%rbp)
	movl	$0, -16(%rbp)
.LBB36_1:                               # %for.cond
                                        # =>This Inner Loop Header: Depth=1
	movl	-16(%rbp), %eax
	cmpl	PicSizeInMapUnits, %eax
	jae	.LBB36_4
# %bb.2:                                # %for.body
                                        #   in Loop: Header=BB36_1 Depth=1
	movq	-24(%rbp), %rax
	movl	60(%rax), %eax
	movq	MapUnitToSliceGroupMap, %rcx
	movl	-16(%rbp), %edx
	movb	%al, (%rcx,%rdx)
# %bb.3:                                # %for.inc
                                        #   in Loop: Header=BB36_1 Depth=1
	movl	-16(%rbp), %eax
	addl	$1, %eax
	movl	%eax, -16(%rbp)
	jmp	.LBB36_1
.LBB36_4:                               # %for.end
	movq	-24(%rbp), %rax
	movl	60(%rax), %eax
	subl	$1, %eax
	movl	%eax, -4(%rbp)
.LBB36_5:                               # %for.cond2
                                        # =>This Loop Header: Depth=1
                                        #     Child Loop BB36_7 Depth 2
                                        #       Child Loop BB36_9 Depth 3
	cmpl	$0, -4(%rbp)
	jl	.LBB36_16
# %bb.6:                                # %for.body5
                                        #   in Loop: Header=BB36_5 Depth=1
	movq	-24(%rbp), %rax
	movslq	-4(%rbp), %rcx
	movl	100(%rax,%rcx,4), %eax
	movq	-32(%rbp), %rcx
	xorl	%edx, %edx
	divl	72468(%rcx)
	movl	%eax, -44(%rbp)
	movq	-24(%rbp), %rax
	movslq	-4(%rbp), %rcx
	movl	100(%rax,%rcx,4), %eax
	movq	-32(%rbp), %rcx
	xorl	%edx, %edx
	divl	72468(%rcx)
	movl	%edx, -36(%rbp)
	movq	-24(%rbp), %rax
	movslq	-4(%rbp), %rcx
	movl	132(%rax,%rcx,4), %eax
	movq	-32(%rbp), %rcx
	xorl	%edx, %edx
	divl	72468(%rcx)
	movl	%eax, -48(%rbp)
	movq	-24(%rbp), %rax
	movslq	-4(%rbp), %rcx
	movl	132(%rax,%rcx,4), %eax
	movq	-32(%rbp), %rcx
	xorl	%edx, %edx
	divl	72468(%rcx)
	movl	%edx, -40(%rbp)
	movl	-44(%rbp), %eax
	movl	%eax, -12(%rbp)
.LBB36_7:                               # %for.cond21
                                        #   Parent Loop BB36_5 Depth=1
                                        # =>  This Loop Header: Depth=2
                                        #       Child Loop BB36_9 Depth 3
	movl	-12(%rbp), %eax
	cmpl	-48(%rbp), %eax
	ja	.LBB36_14
# %bb.8:                                # %for.body24
                                        #   in Loop: Header=BB36_7 Depth=2
	movl	-36(%rbp), %eax
	movl	%eax, -8(%rbp)
.LBB36_9:                               # %for.cond25
                                        #   Parent Loop BB36_5 Depth=1
                                        #     Parent Loop BB36_7 Depth=2
                                        # =>    This Inner Loop Header: Depth=3
	movl	-8(%rbp), %eax
	cmpl	-40(%rbp), %eax
	ja	.LBB36_12
# %bb.10:                               # %for.body28
                                        #   in Loop: Header=BB36_9 Depth=3
	movl	-4(%rbp), %eax
	movq	MapUnitToSliceGroupMap, %rcx
	movl	-12(%rbp), %edx
	movq	-32(%rbp), %rsi
	imull	72468(%rsi), %edx
	addl	-8(%rbp), %edx
	movl	%edx, %edx
	movb	%al, (%rcx,%rdx)
# %bb.11:                               # %for.inc33
                                        #   in Loop: Header=BB36_9 Depth=3
	movl	-8(%rbp), %eax
	addl	$1, %eax
	movl	%eax, -8(%rbp)
	jmp	.LBB36_9
.LBB36_12:                              # %for.end35
                                        #   in Loop: Header=BB36_7 Depth=2
	jmp	.LBB36_13
.LBB36_13:                              # %for.inc36
                                        #   in Loop: Header=BB36_7 Depth=2
	movl	-12(%rbp), %eax
	addl	$1, %eax
	movl	%eax, -12(%rbp)
	jmp	.LBB36_7
.LBB36_14:                              # %for.end38
                                        #   in Loop: Header=BB36_5 Depth=1
	jmp	.LBB36_15
.LBB36_15:                              # %for.inc39
                                        #   in Loop: Header=BB36_5 Depth=1
	movl	-4(%rbp), %eax
	addl	$-1, %eax
	movl	%eax, -4(%rbp)
	jmp	.LBB36_5
.LBB36_16:                              # %for.end40
	cmpl	$1576518248, -52(%rbp)  # imm = 0x5DF7C268
	jne	.LBB36_18
.LBB36_17:
	addq	$64, %rsp
	popq	%rbp
	.cfi_def_cfa %rsp, 8
	retq
.LBB36_18:                              # %func_exit
	.cfi_def_cfa %rbp, 16
	callq	detect_breach
	jmp	.LBB36_17
.Lfunc_end36:
	.size	FmoGenerateType2MapUnitMap.16, .Lfunc_end36-FmoGenerateType2MapUnitMap.16
	.cfi_endproc
                                        # -- End function
	.p2align	4, 0x90         # -- Begin function FmoGenerateType5MapUnitMap.17
	.type	FmoGenerateType5MapUnitMap.17,@function
FmoGenerateType5MapUnitMap.17:          # @FmoGenerateType5MapUnitMap.17
	.cfi_startproc
# %bb.0:                                # %entry
	pushq	%rbp
	.cfi_def_cfa_offset 16
	.cfi_offset %rbp, -16
	movq	%rsp, %rbp
	.cfi_def_cfa_register %rbp
	subq	$48, %rsp
	movl	$1655837432, -36(%rbp)  # imm = 0x62B212F8
	movq	%rdi, -16(%rbp)
	movq	%rsi, -24(%rbp)
	movq	-24(%rbp), %rax
	movl	168(%rax), %eax
	addl	$1, %eax
	movq	-16(%rbp), %rcx
	imull	72652(%rcx), %eax
	cmpl	PicSizeInMapUnits, %eax
	jae	.LBB37_2
# %bb.1:                                # %cond.true
	movq	-24(%rbp), %rax
	movl	168(%rax), %eax
	addl	$1, %eax
	movq	-16(%rbp), %rcx
	imull	72652(%rcx), %eax
	jmp	.LBB37_3
.LBB37_2:                               # %cond.false
	movl	PicSizeInMapUnits, %eax
.LBB37_3:                               # %cond.end
	movl	%eax, -28(%rbp)
	movq	-24(%rbp), %rax
	cmpl	$0, 164(%rax)
	je	.LBB37_5
# %bb.4:                                # %cond.true5
	movl	PicSizeInMapUnits, %eax
	subl	-28(%rbp), %eax
	jmp	.LBB37_6
.LBB37_5:                               # %cond.false6
	movl	-28(%rbp), %eax
.LBB37_6:                               # %cond.end7
	movl	%eax, -40(%rbp)
	movl	$0, -32(%rbp)
	movl	$0, -8(%rbp)
.LBB37_7:                               # %for.cond
                                        # =>This Loop Header: Depth=1
                                        #     Child Loop BB37_9 Depth 2
	movl	-8(%rbp), %eax
	movq	-16(%rbp), %rcx
	cmpl	72468(%rcx), %eax
	jae	.LBB37_17
# %bb.8:                                # %for.body
                                        #   in Loop: Header=BB37_7 Depth=1
	movl	$0, -4(%rbp)
.LBB37_9:                               # %for.cond10
                                        #   Parent Loop BB37_7 Depth=1
                                        # =>  This Inner Loop Header: Depth=2
	movl	-4(%rbp), %eax
	movq	-16(%rbp), %rcx
	cmpl	72472(%rcx), %eax
	jae	.LBB37_15
# %bb.10:                               # %for.body12
                                        #   in Loop: Header=BB37_9 Depth=2
	movl	-32(%rbp), %eax
	movl	%eax, %ecx
	addl	$1, %ecx
	movl	%ecx, -32(%rbp)
	cmpl	-40(%rbp), %eax
	jae	.LBB37_12
# %bb.11:                               # %if.then
                                        #   in Loop: Header=BB37_9 Depth=2
	movq	-24(%rbp), %rax
	movl	$1, %ecx
	subl	164(%rax), %ecx
	movq	MapUnitToSliceGroupMap, %rax
	movl	-4(%rbp), %edx
	movq	-16(%rbp), %rsi
	imull	72468(%rsi), %edx
	addl	-8(%rbp), %edx
	movl	%edx, %edx
	movb	%cl, (%rax,%rdx)
	jmp	.LBB37_13
.LBB37_12:                              # %if.else
                                        #   in Loop: Header=BB37_9 Depth=2
	movq	-24(%rbp), %rax
	movl	164(%rax), %eax
	movq	MapUnitToSliceGroupMap, %rcx
	movl	-4(%rbp), %edx
	movq	-16(%rbp), %rsi
	imull	72468(%rsi), %edx
	addl	-8(%rbp), %edx
	movl	%edx, %edx
	movb	%al, (%rcx,%rdx)
.LBB37_13:                              # %if.end
                                        #   in Loop: Header=BB37_9 Depth=2
	jmp	.LBB37_14
.LBB37_14:                              # %for.inc
                                        #   in Loop: Header=BB37_9 Depth=2
	movl	-4(%rbp), %eax
	addl	$1, %eax
	movl	%eax, -4(%rbp)
	jmp	.LBB37_9
.LBB37_15:                              # %for.end
                                        #   in Loop: Header=BB37_7 Depth=1
	jmp	.LBB37_16
.LBB37_16:                              # %for.inc27
                                        #   in Loop: Header=BB37_7 Depth=1
	movl	-8(%rbp), %eax
	addl	$1, %eax
	movl	%eax, -8(%rbp)
	jmp	.LBB37_7
.LBB37_17:                              # %for.end29
	cmpl	$1655837432, -36(%rbp)  # imm = 0x62B212F8
	jne	.LBB37_19
.LBB37_18:
	addq	$48, %rsp
	popq	%rbp
	.cfi_def_cfa %rsp, 8
	retq
.LBB37_19:                              # %func_exit
	.cfi_def_cfa %rbp, 16
	callq	detect_breach
	jmp	.LBB37_18
.Lfunc_end37:
	.size	FmoGenerateType5MapUnitMap.17, .Lfunc_end37-FmoGenerateType5MapUnitMap.17
	.cfi_endproc
                                        # -- End function
	.p2align	4, 0x90         # -- Begin function FmoGenerateType3MapUnitMap.18
	.type	FmoGenerateType3MapUnitMap.18,@function
FmoGenerateType3MapUnitMap.18:          # @FmoGenerateType3MapUnitMap.18
	.cfi_startproc
# %bb.0:                                # %entry
	pushq	%rbp
	.cfi_def_cfa_offset 16
	.cfi_offset %rbp, -16
	movq	%rsp, %rbp
	.cfi_def_cfa_register %rbp
	subq	$80, %rsp
	movl	$1770641304, -68(%rbp)  # imm = 0x6989D798
	movq	%rdi, -48(%rbp)
	movq	%rsi, -40(%rbp)
	movq	-40(%rbp), %rax
	movl	168(%rax), %eax
	addl	$1, %eax
	movq	-48(%rbp), %rcx
	imull	72652(%rcx), %eax
	cmpl	PicSizeInMapUnits, %eax
	jae	.LBB38_2
# %bb.1:                                # %cond.true
	movq	-40(%rbp), %rax
	movl	168(%rax), %eax
	addl	$1, %eax
	movq	-48(%rbp), %rcx
	imull	72652(%rcx), %eax
	jmp	.LBB38_3
.LBB38_2:                               # %cond.false
	movl	PicSizeInMapUnits, %eax
.LBB38_3:                               # %cond.end
	movl	%eax, -64(%rbp)
	movl	$0, -52(%rbp)
.LBB38_4:                               # %for.cond
                                        # =>This Inner Loop Header: Depth=1
	movl	-52(%rbp), %eax
	cmpl	PicSizeInMapUnits, %eax
	jae	.LBB38_7
# %bb.5:                                # %for.body
                                        #   in Loop: Header=BB38_4 Depth=1
	movq	MapUnitToSliceGroupMap, %rax
	movl	-52(%rbp), %ecx
	movb	$2, (%rax,%rcx)
# %bb.6:                                # %for.inc
                                        #   in Loop: Header=BB38_4 Depth=1
	movl	-52(%rbp), %eax
	addl	$1, %eax
	movl	%eax, -52(%rbp)
	jmp	.LBB38_4
.LBB38_7:                               # %for.end
	movq	-48(%rbp), %rax
	movl	72468(%rax), %eax
	movq	-40(%rbp), %rcx
	subl	164(%rcx), %eax
	shrl	$1, %eax
	movl	%eax, -4(%rbp)
	movq	-48(%rbp), %rax
	movl	72472(%rax), %eax
	movq	-40(%rbp), %rcx
	subl	164(%rcx), %eax
	shrl	$1, %eax
	movl	%eax, -8(%rbp)
	movl	-4(%rbp), %eax
	movl	%eax, -20(%rbp)
	movl	-8(%rbp), %eax
	movl	%eax, -32(%rbp)
	movl	-4(%rbp), %eax
	movl	%eax, -24(%rbp)
	movl	-8(%rbp), %eax
	movl	%eax, -28(%rbp)
	movq	-40(%rbp), %rax
	movl	164(%rax), %eax
	subl	$1, %eax
	movl	%eax, -12(%rbp)
	movq	-40(%rbp), %rax
	movl	164(%rax), %eax
	movl	%eax, -16(%rbp)
	movl	$0, -56(%rbp)
.LBB38_8:                               # %for.cond12
                                        # =>This Inner Loop Header: Depth=1
	movl	-56(%rbp), %eax
	cmpl	PicSizeInMapUnits, %eax
	jae	.LBB38_41
# %bb.9:                                # %for.body14
                                        #   in Loop: Header=BB38_8 Depth=1
	movq	MapUnitToSliceGroupMap, %rax
	movl	-8(%rbp), %ecx
	movq	-48(%rbp), %rdx
	imull	72468(%rdx), %ecx
	addl	-4(%rbp), %ecx
	movl	%ecx, %ecx
	movzbl	(%rax,%rcx), %eax
	cmpl	$2, %eax
	sete	%al
	andb	$1, %al
	movzbl	%al, %eax
	movl	%eax, -60(%rbp)
	cmpl	$0, -60(%rbp)
	je	.LBB38_11
# %bb.10:                               # %if.then
                                        #   in Loop: Header=BB38_8 Depth=1
	movl	-56(%rbp), %eax
	cmpl	-64(%rbp), %eax
	setae	%al
	andb	$1, %al
	movzbl	%al, %eax
	movq	MapUnitToSliceGroupMap, %rcx
	movl	-8(%rbp), %edx
	movq	-48(%rbp), %rsi
	imull	72468(%rsi), %edx
	addl	-4(%rbp), %edx
	movl	%edx, %edx
	movb	%al, (%rcx,%rdx)
.LBB38_11:                              # %if.end
                                        #   in Loop: Header=BB38_8 Depth=1
	cmpl	$-1, -12(%rbp)
	jne	.LBB38_17
# %bb.12:                               # %land.lhs.true
                                        #   in Loop: Header=BB38_8 Depth=1
	movl	-4(%rbp), %eax
	cmpl	-20(%rbp), %eax
	jne	.LBB38_17
# %bb.13:                               # %if.then34
                                        #   in Loop: Header=BB38_8 Depth=1
	movl	-20(%rbp), %eax
	subl	$1, %eax
	cmpl	$0, %eax
	jle	.LBB38_15
# %bb.14:                               # %cond.true38
                                        #   in Loop: Header=BB38_8 Depth=1
	movl	-20(%rbp), %eax
	subl	$1, %eax
	jmp	.LBB38_16
.LBB38_15:                              # %cond.false40
                                        #   in Loop: Header=BB38_8 Depth=1
	xorl	%eax, %eax
	jmp	.LBB38_16
.LBB38_16:                              # %cond.end41
                                        #   in Loop: Header=BB38_8 Depth=1
	movl	%eax, -20(%rbp)
	movl	-20(%rbp), %eax
	movl	%eax, -4(%rbp)
	movl	$0, -12(%rbp)
	movq	-40(%rbp), %rax
	movl	164(%rax), %eax
	shll	$1, %eax
	subl	$1, %eax
	movl	%eax, -16(%rbp)
	jmp	.LBB38_39
.LBB38_17:                              # %if.else
                                        #   in Loop: Header=BB38_8 Depth=1
	cmpl	$1, -12(%rbp)
	jne	.LBB38_23
# %bb.18:                               # %land.lhs.true48
                                        #   in Loop: Header=BB38_8 Depth=1
	movl	-4(%rbp), %eax
	cmpl	-24(%rbp), %eax
	jne	.LBB38_23
# %bb.19:                               # %if.then51
                                        #   in Loop: Header=BB38_8 Depth=1
	movl	-24(%rbp), %eax
	addl	$1, %eax
	movq	-48(%rbp), %rcx
	movl	72468(%rcx), %ecx
	subl	$1, %ecx
	cmpl	%ecx, %eax
	jge	.LBB38_21
# %bb.20:                               # %cond.true57
                                        #   in Loop: Header=BB38_8 Depth=1
	movl	-24(%rbp), %eax
	addl	$1, %eax
	jmp	.LBB38_22
.LBB38_21:                              # %cond.false59
                                        #   in Loop: Header=BB38_8 Depth=1
	movq	-48(%rbp), %rax
	movl	72468(%rax), %eax
	subl	$1, %eax
.LBB38_22:                              # %cond.end62
                                        #   in Loop: Header=BB38_8 Depth=1
	movl	%eax, -24(%rbp)
	movl	-24(%rbp), %eax
	movl	%eax, -4(%rbp)
	movl	$0, -12(%rbp)
	movq	-40(%rbp), %rax
	movl	164(%rax), %eax
	shll	$1, %eax
	movl	$1, %ecx
	subl	%eax, %ecx
	movl	%ecx, -16(%rbp)
	jmp	.LBB38_38
.LBB38_23:                              # %if.else67
                                        #   in Loop: Header=BB38_8 Depth=1
	cmpl	$-1, -16(%rbp)
	jne	.LBB38_29
# %bb.24:                               # %land.lhs.true70
                                        #   in Loop: Header=BB38_8 Depth=1
	movl	-8(%rbp), %eax
	cmpl	-32(%rbp), %eax
	jne	.LBB38_29
# %bb.25:                               # %if.then73
                                        #   in Loop: Header=BB38_8 Depth=1
	movl	-32(%rbp), %eax
	subl	$1, %eax
	cmpl	$0, %eax
	jle	.LBB38_27
# %bb.26:                               # %cond.true77
                                        #   in Loop: Header=BB38_8 Depth=1
	movl	-32(%rbp), %eax
	subl	$1, %eax
	jmp	.LBB38_28
.LBB38_27:                              # %cond.false79
                                        #   in Loop: Header=BB38_8 Depth=1
	xorl	%eax, %eax
	jmp	.LBB38_28
.LBB38_28:                              # %cond.end80
                                        #   in Loop: Header=BB38_8 Depth=1
	movl	%eax, -32(%rbp)
	movl	-32(%rbp), %eax
	movl	%eax, -8(%rbp)
	movq	-40(%rbp), %rax
	movl	164(%rax), %eax
	shll	$1, %eax
	movl	$1, %ecx
	subl	%eax, %ecx
	movl	%ecx, -12(%rbp)
	movl	$0, -16(%rbp)
	jmp	.LBB38_37
.LBB38_29:                              # %if.else85
                                        #   in Loop: Header=BB38_8 Depth=1
	cmpl	$1, -16(%rbp)
	jne	.LBB38_35
# %bb.30:                               # %land.lhs.true88
                                        #   in Loop: Header=BB38_8 Depth=1
	movl	-8(%rbp), %eax
	cmpl	-28(%rbp), %eax
	jne	.LBB38_35
# %bb.31:                               # %if.then91
                                        #   in Loop: Header=BB38_8 Depth=1
	movl	-28(%rbp), %eax
	addl	$1, %eax
	movq	-48(%rbp), %rcx
	movl	72472(%rcx), %ecx
	subl	$1, %ecx
	cmpl	%ecx, %eax
	jge	.LBB38_33
# %bb.32:                               # %cond.true97
                                        #   in Loop: Header=BB38_8 Depth=1
	movl	-28(%rbp), %eax
	addl	$1, %eax
	jmp	.LBB38_34
.LBB38_33:                              # %cond.false99
                                        #   in Loop: Header=BB38_8 Depth=1
	movq	-48(%rbp), %rax
	movl	72472(%rax), %eax
	subl	$1, %eax
.LBB38_34:                              # %cond.end102
                                        #   in Loop: Header=BB38_8 Depth=1
	movl	%eax, -28(%rbp)
	movl	-28(%rbp), %eax
	movl	%eax, -8(%rbp)
	movq	-40(%rbp), %rax
	movl	164(%rax), %eax
	shll	$1, %eax
	subl	$1, %eax
	movl	%eax, -12(%rbp)
	movl	$0, -16(%rbp)
	jmp	.LBB38_36
.LBB38_35:                              # %if.else107
                                        #   in Loop: Header=BB38_8 Depth=1
	movl	-4(%rbp), %eax
	addl	-12(%rbp), %eax
	movl	%eax, -4(%rbp)
	movl	-8(%rbp), %eax
	addl	-16(%rbp), %eax
	movl	%eax, -8(%rbp)
.LBB38_36:                              # %if.end110
                                        #   in Loop: Header=BB38_8 Depth=1
	jmp	.LBB38_37
.LBB38_37:                              # %if.end111
                                        #   in Loop: Header=BB38_8 Depth=1
	jmp	.LBB38_38
.LBB38_38:                              # %if.end112
                                        #   in Loop: Header=BB38_8 Depth=1
	jmp	.LBB38_39
.LBB38_39:                              # %if.end113
                                        #   in Loop: Header=BB38_8 Depth=1
	jmp	.LBB38_40
.LBB38_40:                              # %for.inc114
                                        #   in Loop: Header=BB38_8 Depth=1
	movl	-60(%rbp), %eax
	addl	-56(%rbp), %eax
	movl	%eax, -56(%rbp)
	jmp	.LBB38_8
.LBB38_41:                              # %for.end116
	cmpl	$1770641304, -68(%rbp)  # imm = 0x6989D798
	jne	.LBB38_43
.LBB38_42:
	addq	$80, %rsp
	popq	%rbp
	.cfi_def_cfa %rsp, 8
	retq
.LBB38_43:                              # %func_exit
	.cfi_def_cfa %rbp, 16
	callq	detect_breach
	jmp	.LBB38_42
.Lfunc_end38:
	.size	FmoGenerateType3MapUnitMap.18, .Lfunc_end38-FmoGenerateType3MapUnitMap.18
	.cfi_endproc
                                        # -- End function
	.p2align	4, 0x90         # -- Begin function FmoGenerateMBAmap.19
	.type	FmoGenerateMBAmap.19,@function
FmoGenerateMBAmap.19:                   # @FmoGenerateMBAmap.19
	.cfi_startproc
# %bb.0:                                # %entry
	pushq	%rbp
	.cfi_def_cfa_offset 16
	.cfi_offset %rbp, -16
	movq	%rsp, %rbp
	.cfi_def_cfa_register %rbp
	subq	$32, %rsp
	movl	$633966452, -20(%rbp)   # imm = 0x25C98F74
	movq	%rdi, -16(%rbp)
	movq	%rsi, -32(%rbp)
	cmpq	$0, MBAmap
	je	.LBB39_2
# %bb.1:                                # %if.then
	movq	MBAmap, %rdi
	callq	free
.LBB39_2:                               # %if.end
	movq	-16(%rbp), %rax
	movl	72484(%rax), %edi
	shlq	$0, %rdi
	callq	malloc
	movq	%rax, MBAmap
	cmpq	$0, %rax
	jne	.LBB39_4
# %bb.3:                                # %if.then2
	movq	-16(%rbp), %rax
	movl	72484(%rax), %esi
	shlq	$0, %rsi
	movabsq	$.L.str.3, %rdi
	movb	$0, %al
	callq	printf
	movl	$4294967295, %edi       # imm = 0xFFFFFFFF
	callq	exit
.LBB39_4:                               # %if.end7
	movq	-32(%rbp), %rax
	cmpl	$0, 1148(%rax)
	jne	.LBB39_6
# %bb.5:                                # %lor.lhs.false
	movq	-16(%rbp), %rax
	cmpl	$0, 72444(%rax)
	je	.LBB39_11
.LBB39_6:                               # %if.then10
	movl	$0, -4(%rbp)
.LBB39_7:                               # %for.cond
                                        # =>This Inner Loop Header: Depth=1
	movl	-4(%rbp), %eax
	movq	-16(%rbp), %rcx
	cmpl	72484(%rcx), %eax
	jae	.LBB39_10
# %bb.8:                                # %for.body
                                        #   in Loop: Header=BB39_7 Depth=1
	movq	MapUnitToSliceGroupMap, %rax
	movl	-4(%rbp), %ecx
	movb	(%rax,%rcx), %al
	movq	MBAmap, %rcx
	movl	-4(%rbp), %edx
	movb	%al, (%rcx,%rdx)
# %bb.9:                                # %for.inc
                                        #   in Loop: Header=BB39_7 Depth=1
	movl	-4(%rbp), %eax
	addl	$1, %eax
	movl	%eax, -4(%rbp)
	jmp	.LBB39_7
.LBB39_10:                              # %for.end
	jmp	.LBB39_24
.LBB39_11:                              # %if.else
	movq	-32(%rbp), %rax
	cmpl	$0, 1152(%rax)
	je	.LBB39_18
# %bb.12:                               # %land.lhs.true
	movq	-16(%rbp), %rax
	cmpl	$0, 72444(%rax)
	jne	.LBB39_18
# %bb.13:                               # %if.then19
	movl	$0, -4(%rbp)
.LBB39_14:                              # %for.cond20
                                        # =>This Inner Loop Header: Depth=1
	movl	-4(%rbp), %eax
	movq	-16(%rbp), %rcx
	cmpl	72484(%rcx), %eax
	jae	.LBB39_17
# %bb.15:                               # %for.body24
                                        #   in Loop: Header=BB39_14 Depth=1
	movq	MapUnitToSliceGroupMap, %rax
	movl	-4(%rbp), %ecx
	shrl	$1, %ecx
	movl	%ecx, %ecx
	movb	(%rax,%rcx), %al
	movq	MBAmap, %rcx
	movl	-4(%rbp), %edx
	movb	%al, (%rcx,%rdx)
# %bb.16:                               # %for.inc29
                                        #   in Loop: Header=BB39_14 Depth=1
	movl	-4(%rbp), %eax
	addl	$1, %eax
	movl	%eax, -4(%rbp)
	jmp	.LBB39_14
.LBB39_17:                              # %for.end31
	jmp	.LBB39_23
.LBB39_18:                              # %if.else32
	movl	$0, -4(%rbp)
.LBB39_19:                              # %for.cond33
                                        # =>This Inner Loop Header: Depth=1
	movl	-4(%rbp), %eax
	movq	-16(%rbp), %rcx
	cmpl	72484(%rcx), %eax
	jae	.LBB39_22
# %bb.20:                               # %for.body37
                                        #   in Loop: Header=BB39_19 Depth=1
	movq	MapUnitToSliceGroupMap, %rsi
	movl	-4(%rbp), %eax
	movq	-16(%rbp), %rcx
	movl	72468(%rcx), %ecx
	shll	$1, %ecx
	xorl	%edx, %edx
	divl	%ecx
	movl	%eax, %ecx
	movq	-16(%rbp), %rax
	imull	72468(%rax), %ecx
	movl	-4(%rbp), %eax
	movq	-16(%rbp), %rdi
	xorl	%edx, %edx
	divl	72468(%rdi)
	addl	%edx, %ecx
	movl	%ecx, %eax
	movb	(%rsi,%rax), %al
	movq	MBAmap, %rcx
	movl	-4(%rbp), %edx
	movb	%al, (%rcx,%rdx)
# %bb.21:                               # %for.inc47
                                        #   in Loop: Header=BB39_19 Depth=1
	movl	-4(%rbp), %eax
	addl	$1, %eax
	movl	%eax, -4(%rbp)
	jmp	.LBB39_19
.LBB39_22:                              # %for.end49
	jmp	.LBB39_23
.LBB39_23:                              # %if.end50
	jmp	.LBB39_24
.LBB39_24:                              # %if.end51
	cmpl	$633966452, -20(%rbp)   # imm = 0x25C98F74
	jne	.LBB39_26
.LBB39_25:
	xorl	%eax, %eax
	addq	$32, %rsp
	popq	%rbp
	.cfi_def_cfa %rsp, 8
	retq
.LBB39_26:                              # %func_exit
	.cfi_def_cfa %rbp, 16
	callq	detect_breach
	jmp	.LBB39_25
.Lfunc_end39:
	.size	FmoGenerateMBAmap.19, .Lfunc_end39-FmoGenerateMBAmap.19
	.cfi_endproc
                                        # -- End function
	.globl	FmoGetLastCodedMBOfSliceGroup.20 # -- Begin function FmoGetLastCodedMBOfSliceGroup.20
	.p2align	4, 0x90
	.type	FmoGetLastCodedMBOfSliceGroup.20,@function
FmoGetLastCodedMBOfSliceGroup.20:       # @FmoGetLastCodedMBOfSliceGroup.20
	.cfi_startproc
# %bb.0:                                # %entry
	pushq	%rbp
	.cfi_def_cfa_offset 16
	.cfi_offset %rbp, -16
	movq	%rsp, %rbp
	.cfi_def_cfa_register %rbp
	pushq	%rbx
	subq	$24, %rsp
	.cfi_offset %rbx, -24
	movl	$24855201, -24(%rbp)    # imm = 0x17B42A1
	movl	%edi, -20(%rbp)
	movl	$-1, -16(%rbp)
	movl	$0, -12(%rbp)
.LBB40_1:                               # %for.cond
                                        # =>This Inner Loop Header: Depth=1
	movl	-12(%rbp), %eax
	movq	img, %rcx
	cmpl	72484(%rcx), %eax
	jge	.LBB40_6
# %bb.2:                                # %for.body
                                        #   in Loop: Header=BB40_1 Depth=1
	movl	-12(%rbp), %edi
	callq	FmoMB2SliceGroup
	cmpl	-20(%rbp), %eax
	jne	.LBB40_4
# %bb.3:                                # %if.then
                                        #   in Loop: Header=BB40_1 Depth=1
	movl	-12(%rbp), %eax
	movl	%eax, -16(%rbp)
.LBB40_4:                               # %if.end
                                        #   in Loop: Header=BB40_1 Depth=1
	jmp	.LBB40_5
.LBB40_5:                               # %for.inc
                                        #   in Loop: Header=BB40_1 Depth=1
	movl	-12(%rbp), %eax
	addl	$1, %eax
	movl	%eax, -12(%rbp)
	jmp	.LBB40_1
.LBB40_6:                               # %for.end
	movl	-16(%rbp), %ebx
	cmpl	$24855201, -24(%rbp)    # imm = 0x17B42A1
	jne	.LBB40_8
.LBB40_7:
	movl	%ebx, %eax
	addq	$24, %rsp
	popq	%rbx
	popq	%rbp
	.cfi_def_cfa %rsp, 8
	retq
.LBB40_8:                               # %func_exit
	.cfi_def_cfa %rbp, 16
	callq	detect_breach
	jmp	.LBB40_7
.Lfunc_end40:
	.size	FmoGetLastCodedMBOfSliceGroup.20, .Lfunc_end40-FmoGetLastCodedMBOfSliceGroup.20
	.cfi_endproc
                                        # -- End function
	.globl	FmoInit.21              # -- Begin function FmoInit.21
	.p2align	4, 0x90
	.type	FmoInit.21,@function
FmoInit.21:                             # @FmoInit.21
	.cfi_startproc
# %bb.0:                                # %entry
	pushq	%rbp
	.cfi_def_cfa_offset 16
	.cfi_offset %rbp, -16
	movq	%rsp, %rbp
	.cfi_def_cfa_register %rbp
	subq	$32, %rsp
	movl	$574814420, -8(%rbp)    # imm = 0x2242F8D4
	movq	%rdi, -16(%rbp)
	movq	%rsi, -24(%rbp)
	movq	%rdx, -32(%rbp)
	movl	$0, -4(%rbp)
.LBB41_1:                               # %for.cond
                                        # =>This Inner Loop Header: Depth=1
	cmpl	$8, -4(%rbp)
	jge	.LBB41_4
# %bb.2:                                # %for.body
                                        #   in Loop: Header=BB41_1 Depth=1
	movslq	-4(%rbp), %rax
	movl	$-1, FirstMBInSlice(,%rax,4)
# %bb.3:                                # %for.inc
                                        #   in Loop: Header=BB41_1 Depth=1
	movl	-4(%rbp), %eax
	addl	$1, %eax
	movl	%eax, -4(%rbp)
	jmp	.LBB41_1
.LBB41_4:                               # %for.end
	movq	-16(%rbp), %rdi
	movq	-24(%rbp), %rsi
	callq	FmoGenerateMapUnitToSliceGroupMap
	movq	-16(%rbp), %rdi
	movq	-32(%rbp), %rsi
	callq	FmoGenerateMBAmap
	cmpl	$574814420, -8(%rbp)    # imm = 0x2242F8D4
	jne	.LBB41_6
.LBB41_5:
	xorl	%eax, %eax
	addq	$32, %rsp
	popq	%rbp
	.cfi_def_cfa %rsp, 8
	retq
.LBB41_6:                               # %func_exit
	.cfi_def_cfa %rbp, 16
	callq	detect_breach
	jmp	.LBB41_5
.Lfunc_end41:
	.size	FmoInit.21, .Lfunc_end41-FmoInit.21
	.cfi_endproc
                                        # -- End function
	.globl	FmoGetFirstMBOfSliceGroup.22 # -- Begin function FmoGetFirstMBOfSliceGroup.22
	.p2align	4, 0x90
	.type	FmoGetFirstMBOfSliceGroup.22,@function
FmoGetFirstMBOfSliceGroup.22:           # @FmoGetFirstMBOfSliceGroup.22
	.cfi_startproc
# %bb.0:                                # %entry
	pushq	%rbp
	.cfi_def_cfa_offset 16
	.cfi_offset %rbp, -16
	movq	%rsp, %rbp
	.cfi_def_cfa_register %rbp
	pushq	%rbx
	subq	$24, %rsp
	.cfi_offset %rbx, -24
	movl	$2029025472, -24(%rbp)  # imm = 0x78F078C0
	movl	%edi, -20(%rbp)
	movl	$0, -12(%rbp)
.LBB42_1:                               # %while.cond
                                        # =>This Inner Loop Header: Depth=1
	xorl	%eax, %eax
	movl	-12(%rbp), %ecx
	movq	img, %rdx
	cmpl	72484(%rdx), %ecx
	jge	.LBB42_3
# %bb.2:                                # %land.rhs
                                        #   in Loop: Header=BB42_1 Depth=1
	movl	-12(%rbp), %edi
	callq	FmoMB2SliceGroup
	cmpl	-20(%rbp), %eax
	setne	%al
.LBB42_3:                               # %land.end
                                        #   in Loop: Header=BB42_1 Depth=1
	testb	$1, %al
	jne	.LBB42_4
	jmp	.LBB42_5
.LBB42_4:                               # %while.body
                                        #   in Loop: Header=BB42_1 Depth=1
	movl	-12(%rbp), %eax
	addl	$1, %eax
	movl	%eax, -12(%rbp)
	jmp	.LBB42_1
.LBB42_5:                               # %while.end
	movl	-12(%rbp), %eax
	movq	img, %rcx
	cmpl	72484(%rcx), %eax
	jge	.LBB42_7
# %bb.6:                                # %if.then
	movl	-12(%rbp), %eax
	movl	%eax, -16(%rbp)
	jmp	.LBB42_8
.LBB42_7:                               # %if.else
	movl	$-1, -16(%rbp)
.LBB42_8:                               # %return
	movl	-16(%rbp), %ebx
	cmpl	$2029025472, -24(%rbp)  # imm = 0x78F078C0
	jne	.LBB42_10
.LBB42_9:
	movl	%ebx, %eax
	addq	$24, %rsp
	popq	%rbx
	popq	%rbp
	.cfi_def_cfa %rsp, 8
	retq
.LBB42_10:                              # %func_exit
	.cfi_def_cfa %rbp, 16
	callq	detect_breach
	jmp	.LBB42_9
.Lfunc_end42:
	.size	FmoGetFirstMBOfSliceGroup.22, .Lfunc_end42-FmoGetFirstMBOfSliceGroup.22
	.cfi_endproc
                                        # -- End function
	.p2align	4, 0x90         # -- Begin function FmoGenerateType0MapUnitMap.23
	.type	FmoGenerateType0MapUnitMap.23,@function
FmoGenerateType0MapUnitMap.23:          # @FmoGenerateType0MapUnitMap.23
	.cfi_startproc
# %bb.0:                                # %entry
	pushq	%rbp
	.cfi_def_cfa_offset 16
	.cfi_offset %rbp, -16
	movq	%rsp, %rbp
	.cfi_def_cfa_register %rbp
	subq	$48, %rsp
	movl	$1430463817, -28(%rbp)  # imm = 0x55432549
	movq	%rdi, -40(%rbp)
	movq	%rsi, -24(%rbp)
	movl	$0, -4(%rbp)
.LBB43_1:                               # %do.body
                                        # =>This Loop Header: Depth=1
                                        #     Child Loop BB43_2 Depth 2
                                        #       Child Loop BB43_6 Depth 3
	movl	$0, -12(%rbp)
.LBB43_2:                               # %for.cond
                                        #   Parent Loop BB43_1 Depth=1
                                        # =>  This Loop Header: Depth=2
                                        #       Child Loop BB43_6 Depth 3
	xorl	%eax, %eax
	movl	-12(%rbp), %ecx
	movq	-24(%rbp), %rdx
	cmpl	60(%rdx), %ecx
	ja	.LBB43_4
# %bb.3:                                # %land.rhs
                                        #   in Loop: Header=BB43_2 Depth=2
	movl	-4(%rbp), %eax
	cmpl	PicSizeInMapUnits, %eax
	setb	%al
.LBB43_4:                               # %land.end
                                        #   in Loop: Header=BB43_2 Depth=2
	testb	$1, %al
	jne	.LBB43_5
	jmp	.LBB43_13
.LBB43_5:                               # %for.body
                                        #   in Loop: Header=BB43_2 Depth=2
	movl	$0, -8(%rbp)
.LBB43_6:                               # %for.cond2
                                        #   Parent Loop BB43_1 Depth=1
                                        #     Parent Loop BB43_2 Depth=2
                                        # =>    This Inner Loop Header: Depth=3
	xorl	%eax, %eax
	movl	-8(%rbp), %ecx
	movq	-24(%rbp), %rdx
	movl	-12(%rbp), %esi
	cmpl	68(%rdx,%rsi,4), %ecx
	ja	.LBB43_8
# %bb.7:                                # %land.rhs4
                                        #   in Loop: Header=BB43_6 Depth=3
	movl	-4(%rbp), %eax
	addl	-8(%rbp), %eax
	cmpl	PicSizeInMapUnits, %eax
	setb	%al
.LBB43_8:                               # %land.end6
                                        #   in Loop: Header=BB43_6 Depth=3
	testb	$1, %al
	jne	.LBB43_9
	jmp	.LBB43_11
.LBB43_9:                               # %for.body7
                                        #   in Loop: Header=BB43_6 Depth=3
	movl	-12(%rbp), %eax
	movq	MapUnitToSliceGroupMap, %rcx
	movl	-4(%rbp), %edx
	addl	-8(%rbp), %edx
	movl	%edx, %edx
	movb	%al, (%rcx,%rdx)
# %bb.10:                               # %for.inc
                                        #   in Loop: Header=BB43_6 Depth=3
	movl	-8(%rbp), %eax
	addl	$1, %eax
	movl	%eax, -8(%rbp)
	jmp	.LBB43_6
.LBB43_11:                              # %for.end
                                        #   in Loop: Header=BB43_2 Depth=2
	jmp	.LBB43_12
.LBB43_12:                              # %for.inc11
                                        #   in Loop: Header=BB43_2 Depth=2
	movq	-24(%rbp), %rax
	movl	-12(%rbp), %ecx
	movl	%ecx, %edx
	addl	$1, %edx
	movl	%edx, -12(%rbp)
	movl	%ecx, %ecx
	movl	68(%rax,%rcx,4), %eax
	addl	$1, %eax
	addl	-4(%rbp), %eax
	movl	%eax, -4(%rbp)
	jmp	.LBB43_2
.LBB43_13:                              # %for.end18
                                        #   in Loop: Header=BB43_1 Depth=1
	jmp	.LBB43_14
.LBB43_14:                              # %do.cond
                                        #   in Loop: Header=BB43_1 Depth=1
	movl	-4(%rbp), %eax
	cmpl	PicSizeInMapUnits, %eax
	jb	.LBB43_1
# %bb.15:                               # %do.end
	cmpl	$1430463817, -28(%rbp)  # imm = 0x55432549
	jne	.LBB43_17
.LBB43_16:
	addq	$48, %rsp
	popq	%rbp
	.cfi_def_cfa %rsp, 8
	retq
.LBB43_17:                              # %func_exit
	.cfi_def_cfa %rbp, 16
	callq	detect_breach
	jmp	.LBB43_16
.Lfunc_end43:
	.size	FmoGenerateType0MapUnitMap.23, .Lfunc_end43-FmoGenerateType0MapUnitMap.23
	.cfi_endproc
                                        # -- End function
	.globl	FmoGetLastCodedMBOfSliceGroup.24 # -- Begin function FmoGetLastCodedMBOfSliceGroup.24
	.p2align	4, 0x90
	.type	FmoGetLastCodedMBOfSliceGroup.24,@function
FmoGetLastCodedMBOfSliceGroup.24:       # @FmoGetLastCodedMBOfSliceGroup.24
	.cfi_startproc
# %bb.0:                                # %entry
	pushq	%rbp
	.cfi_def_cfa_offset 16
	.cfi_offset %rbp, -16
	movq	%rsp, %rbp
	.cfi_def_cfa_register %rbp
	pushq	%rbx
	subq	$24, %rsp
	.cfi_offset %rbx, -24
	movl	$659686724, -24(%rbp)   # imm = 0x27520544
	movl	%edi, -20(%rbp)
	movl	$-1, -16(%rbp)
	movl	$0, -12(%rbp)
.LBB44_1:                               # %for.cond
                                        # =>This Inner Loop Header: Depth=1
	movl	-12(%rbp), %eax
	movq	img, %rcx
	cmpl	72484(%rcx), %eax
	jge	.LBB44_6
# %bb.2:                                # %for.body
                                        #   in Loop: Header=BB44_1 Depth=1
	movl	-12(%rbp), %edi
	callq	FmoMB2SliceGroup
	cmpl	-20(%rbp), %eax
	jne	.LBB44_4
# %bb.3:                                # %if.then
                                        #   in Loop: Header=BB44_1 Depth=1
	movl	-12(%rbp), %eax
	movl	%eax, -16(%rbp)
.LBB44_4:                               # %if.end
                                        #   in Loop: Header=BB44_1 Depth=1
	jmp	.LBB44_5
.LBB44_5:                               # %for.inc
                                        #   in Loop: Header=BB44_1 Depth=1
	movl	-12(%rbp), %eax
	addl	$1, %eax
	movl	%eax, -12(%rbp)
	jmp	.LBB44_1
.LBB44_6:                               # %for.end
	movl	-16(%rbp), %ebx
	cmpl	$659686724, -24(%rbp)   # imm = 0x27520544
	jne	.LBB44_8
.LBB44_7:
	movl	%ebx, %eax
	addq	$24, %rsp
	popq	%rbx
	popq	%rbp
	.cfi_def_cfa %rsp, 8
	retq
.LBB44_8:                               # %func_exit
	.cfi_def_cfa %rbp, 16
	callq	detect_breach
	jmp	.LBB44_7
.Lfunc_end44:
	.size	FmoGetLastCodedMBOfSliceGroup.24, .Lfunc_end44-FmoGetLastCodedMBOfSliceGroup.24
	.cfi_endproc
                                        # -- End function
	.globl	FmoGetPreviousMBNr.25   # -- Begin function FmoGetPreviousMBNr.25
	.p2align	4, 0x90
	.type	FmoGetPreviousMBNr.25,@function
FmoGetPreviousMBNr.25:                  # @FmoGetPreviousMBNr.25
	.cfi_startproc
# %bb.0:                                # %entry
	pushq	%rbp
	.cfi_def_cfa_offset 16
	.cfi_offset %rbp, -16
	movq	%rsp, %rbp
	.cfi_def_cfa_register %rbp
	pushq	%rbx
	subq	$24, %rsp
	.cfi_offset %rbx, -24
	movl	$531050507, -24(%rbp)   # imm = 0x1FA7300B
	movl	%edi, -12(%rbp)
	movl	-12(%rbp), %edi
	callq	FmoMB2SliceGroup
	movl	%eax, -20(%rbp)
	movl	-12(%rbp), %eax
	addl	$-1, %eax
	movl	%eax, -12(%rbp)
.LBB45_1:                               # %while.cond
                                        # =>This Inner Loop Header: Depth=1
	xorl	%eax, %eax
	cmpl	$0, -12(%rbp)
	jl	.LBB45_3
# %bb.2:                                # %land.rhs
                                        #   in Loop: Header=BB45_1 Depth=1
	movq	MBAmap, %rax
	movslq	-12(%rbp), %rcx
	movzbl	(%rax,%rcx), %eax
	cmpl	-20(%rbp), %eax
	setne	%al
.LBB45_3:                               # %land.end
                                        #   in Loop: Header=BB45_1 Depth=1
	testb	$1, %al
	jne	.LBB45_4
	jmp	.LBB45_5
.LBB45_4:                               # %while.body
                                        #   in Loop: Header=BB45_1 Depth=1
	movl	-12(%rbp), %eax
	addl	$-1, %eax
	movl	%eax, -12(%rbp)
	jmp	.LBB45_1
.LBB45_5:                               # %while.end
	cmpl	$0, -12(%rbp)
	jge	.LBB45_7
# %bb.6:                                # %if.then
	movl	$-1, -16(%rbp)
	jmp	.LBB45_8
.LBB45_7:                               # %if.else
	movl	-12(%rbp), %eax
	movl	%eax, -16(%rbp)
.LBB45_8:                               # %return
	movl	-16(%rbp), %ebx
	cmpl	$531050507, -24(%rbp)   # imm = 0x1FA7300B
	jne	.LBB45_10
.LBB45_9:
	movl	%ebx, %eax
	addq	$24, %rsp
	popq	%rbx
	popq	%rbp
	.cfi_def_cfa %rsp, 8
	retq
.LBB45_10:                              # %func_exit
	.cfi_def_cfa %rbp, 16
	callq	detect_breach
	jmp	.LBB45_9
.Lfunc_end45:
	.size	FmoGetPreviousMBNr.25, .Lfunc_end45-FmoGetPreviousMBNr.25
	.cfi_endproc
                                        # -- End function
	.globl	FmoGetPreviousMBNr.26   # -- Begin function FmoGetPreviousMBNr.26
	.p2align	4, 0x90
	.type	FmoGetPreviousMBNr.26,@function
FmoGetPreviousMBNr.26:                  # @FmoGetPreviousMBNr.26
	.cfi_startproc
# %bb.0:                                # %entry
	pushq	%rbp
	.cfi_def_cfa_offset 16
	.cfi_offset %rbp, -16
	movq	%rsp, %rbp
	.cfi_def_cfa_register %rbp
	pushq	%rbx
	subq	$24, %rsp
	.cfi_offset %rbx, -24
	movl	$964967657, -24(%rbp)   # imm = 0x39843CE9
	movl	%edi, -12(%rbp)
	movl	-12(%rbp), %edi
	callq	FmoMB2SliceGroup
	movl	%eax, -20(%rbp)
	movl	-12(%rbp), %eax
	addl	$-1, %eax
	movl	%eax, -12(%rbp)
.LBB46_1:                               # %while.cond
                                        # =>This Inner Loop Header: Depth=1
	xorl	%eax, %eax
	cmpl	$0, -12(%rbp)
	jl	.LBB46_3
# %bb.2:                                # %land.rhs
                                        #   in Loop: Header=BB46_1 Depth=1
	movq	MBAmap, %rax
	movslq	-12(%rbp), %rcx
	movzbl	(%rax,%rcx), %eax
	cmpl	-20(%rbp), %eax
	setne	%al
.LBB46_3:                               # %land.end
                                        #   in Loop: Header=BB46_1 Depth=1
	testb	$1, %al
	jne	.LBB46_4
	jmp	.LBB46_5
.LBB46_4:                               # %while.body
                                        #   in Loop: Header=BB46_1 Depth=1
	movl	-12(%rbp), %eax
	addl	$-1, %eax
	movl	%eax, -12(%rbp)
	jmp	.LBB46_1
.LBB46_5:                               # %while.end
	cmpl	$0, -12(%rbp)
	jge	.LBB46_7
# %bb.6:                                # %if.then
	movl	$-1, -16(%rbp)
	jmp	.LBB46_8
.LBB46_7:                               # %if.else
	movl	-12(%rbp), %eax
	movl	%eax, -16(%rbp)
.LBB46_8:                               # %return
	movl	-16(%rbp), %ebx
	cmpl	$964967657, -24(%rbp)   # imm = 0x39843CE9
	jne	.LBB46_10
.LBB46_9:
	movl	%ebx, %eax
	addq	$24, %rsp
	popq	%rbx
	popq	%rbp
	.cfi_def_cfa %rsp, 8
	retq
.LBB46_10:                              # %func_exit
	.cfi_def_cfa %rbp, 16
	callq	detect_breach
	jmp	.LBB46_9
.Lfunc_end46:
	.size	FmoGetPreviousMBNr.26, .Lfunc_end46-FmoGetPreviousMBNr.26
	.cfi_endproc
                                        # -- End function
	.p2align	4, 0x90         # -- Begin function FmoGenerateType0MapUnitMap.27
	.type	FmoGenerateType0MapUnitMap.27,@function
FmoGenerateType0MapUnitMap.27:          # @FmoGenerateType0MapUnitMap.27
	.cfi_startproc
# %bb.0:                                # %entry
	pushq	%rbp
	.cfi_def_cfa_offset 16
	.cfi_offset %rbp, -16
	movq	%rsp, %rbp
	.cfi_def_cfa_register %rbp
	subq	$48, %rsp
	movl	$1962406444, -28(%rbp)  # imm = 0x74F7F22C
	movq	%rdi, -40(%rbp)
	movq	%rsi, -24(%rbp)
	movl	$0, -4(%rbp)
.LBB47_1:                               # %do.body
                                        # =>This Loop Header: Depth=1
                                        #     Child Loop BB47_2 Depth 2
                                        #       Child Loop BB47_6 Depth 3
	movl	$0, -12(%rbp)
.LBB47_2:                               # %for.cond
                                        #   Parent Loop BB47_1 Depth=1
                                        # =>  This Loop Header: Depth=2
                                        #       Child Loop BB47_6 Depth 3
	xorl	%eax, %eax
	movl	-12(%rbp), %ecx
	movq	-24(%rbp), %rdx
	cmpl	60(%rdx), %ecx
	ja	.LBB47_4
# %bb.3:                                # %land.rhs
                                        #   in Loop: Header=BB47_2 Depth=2
	movl	-4(%rbp), %eax
	cmpl	PicSizeInMapUnits, %eax
	setb	%al
.LBB47_4:                               # %land.end
                                        #   in Loop: Header=BB47_2 Depth=2
	testb	$1, %al
	jne	.LBB47_5
	jmp	.LBB47_13
.LBB47_5:                               # %for.body
                                        #   in Loop: Header=BB47_2 Depth=2
	movl	$0, -8(%rbp)
.LBB47_6:                               # %for.cond2
                                        #   Parent Loop BB47_1 Depth=1
                                        #     Parent Loop BB47_2 Depth=2
                                        # =>    This Inner Loop Header: Depth=3
	xorl	%eax, %eax
	movl	-8(%rbp), %ecx
	movq	-24(%rbp), %rdx
	movl	-12(%rbp), %esi
	cmpl	68(%rdx,%rsi,4), %ecx
	ja	.LBB47_8
# %bb.7:                                # %land.rhs4
                                        #   in Loop: Header=BB47_6 Depth=3
	movl	-4(%rbp), %eax
	addl	-8(%rbp), %eax
	cmpl	PicSizeInMapUnits, %eax
	setb	%al
.LBB47_8:                               # %land.end6
                                        #   in Loop: Header=BB47_6 Depth=3
	testb	$1, %al
	jne	.LBB47_9
	jmp	.LBB47_11
.LBB47_9:                               # %for.body7
                                        #   in Loop: Header=BB47_6 Depth=3
	movl	-12(%rbp), %eax
	movq	MapUnitToSliceGroupMap, %rcx
	movl	-4(%rbp), %edx
	addl	-8(%rbp), %edx
	movl	%edx, %edx
	movb	%al, (%rcx,%rdx)
# %bb.10:                               # %for.inc
                                        #   in Loop: Header=BB47_6 Depth=3
	movl	-8(%rbp), %eax
	addl	$1, %eax
	movl	%eax, -8(%rbp)
	jmp	.LBB47_6
.LBB47_11:                              # %for.end
                                        #   in Loop: Header=BB47_2 Depth=2
	jmp	.LBB47_12
.LBB47_12:                              # %for.inc11
                                        #   in Loop: Header=BB47_2 Depth=2
	movq	-24(%rbp), %rax
	movl	-12(%rbp), %ecx
	movl	%ecx, %edx
	addl	$1, %edx
	movl	%edx, -12(%rbp)
	movl	%ecx, %ecx
	movl	68(%rax,%rcx,4), %eax
	addl	$1, %eax
	addl	-4(%rbp), %eax
	movl	%eax, -4(%rbp)
	jmp	.LBB47_2
.LBB47_13:                              # %for.end18
                                        #   in Loop: Header=BB47_1 Depth=1
	jmp	.LBB47_14
.LBB47_14:                              # %do.cond
                                        #   in Loop: Header=BB47_1 Depth=1
	movl	-4(%rbp), %eax
	cmpl	PicSizeInMapUnits, %eax
	jb	.LBB47_1
# %bb.15:                               # %do.end
	cmpl	$1962406444, -28(%rbp)  # imm = 0x74F7F22C
	jne	.LBB47_17
.LBB47_16:
	addq	$48, %rsp
	popq	%rbp
	.cfi_def_cfa %rsp, 8
	retq
.LBB47_17:                              # %func_exit
	.cfi_def_cfa %rbp, 16
	callq	detect_breach
	jmp	.LBB47_16
.Lfunc_end47:
	.size	FmoGenerateType0MapUnitMap.27, .Lfunc_end47-FmoGenerateType0MapUnitMap.27
	.cfi_endproc
                                        # -- End function
	.globl	FmoGetFirstMBOfSliceGroup.28 # -- Begin function FmoGetFirstMBOfSliceGroup.28
	.p2align	4, 0x90
	.type	FmoGetFirstMBOfSliceGroup.28,@function
FmoGetFirstMBOfSliceGroup.28:           # @FmoGetFirstMBOfSliceGroup.28
	.cfi_startproc
# %bb.0:                                # %entry
	pushq	%rbp
	.cfi_def_cfa_offset 16
	.cfi_offset %rbp, -16
	movq	%rsp, %rbp
	.cfi_def_cfa_register %rbp
	pushq	%rbx
	subq	$24, %rsp
	.cfi_offset %rbx, -24
	movl	$721072176, -20(%rbp)   # imm = 0x2AFAB030
	movl	%edi, -24(%rbp)
	movl	$0, -12(%rbp)
.LBB48_1:                               # %while.cond
                                        # =>This Inner Loop Header: Depth=1
	xorl	%eax, %eax
	movl	-12(%rbp), %ecx
	movq	img, %rdx
	cmpl	72484(%rdx), %ecx
	jge	.LBB48_3
# %bb.2:                                # %land.rhs
                                        #   in Loop: Header=BB48_1 Depth=1
	movl	-12(%rbp), %edi
	callq	FmoMB2SliceGroup
	cmpl	-24(%rbp), %eax
	setne	%al
.LBB48_3:                               # %land.end
                                        #   in Loop: Header=BB48_1 Depth=1
	testb	$1, %al
	jne	.LBB48_4
	jmp	.LBB48_5
.LBB48_4:                               # %while.body
                                        #   in Loop: Header=BB48_1 Depth=1
	movl	-12(%rbp), %eax
	addl	$1, %eax
	movl	%eax, -12(%rbp)
	jmp	.LBB48_1
.LBB48_5:                               # %while.end
	movl	-12(%rbp), %eax
	movq	img, %rcx
	cmpl	72484(%rcx), %eax
	jge	.LBB48_7
# %bb.6:                                # %if.then
	movl	-12(%rbp), %eax
	movl	%eax, -16(%rbp)
	jmp	.LBB48_8
.LBB48_7:                               # %if.else
	movl	$-1, -16(%rbp)
.LBB48_8:                               # %return
	movl	-16(%rbp), %ebx
	cmpl	$721072176, -20(%rbp)   # imm = 0x2AFAB030
	jne	.LBB48_10
.LBB48_9:
	movl	%ebx, %eax
	addq	$24, %rsp
	popq	%rbx
	popq	%rbp
	.cfi_def_cfa %rsp, 8
	retq
.LBB48_10:                              # %func_exit
	.cfi_def_cfa %rbp, 16
	callq	detect_breach
	jmp	.LBB48_9
.Lfunc_end48:
	.size	FmoGetFirstMBOfSliceGroup.28, .Lfunc_end48-FmoGetFirstMBOfSliceGroup.28
	.cfi_endproc
                                        # -- End function
	.p2align	4, 0x90         # -- Begin function FmoGenerateType6MapUnitMap.29
	.type	FmoGenerateType6MapUnitMap.29,@function
FmoGenerateType6MapUnitMap.29:          # @FmoGenerateType6MapUnitMap.29
	.cfi_startproc
# %bb.0:                                # %entry
	pushq	%rbp
	.cfi_def_cfa_offset 16
	.cfi_offset %rbp, -16
	movq	%rsp, %rbp
	.cfi_def_cfa_register %rbp
	subq	$32, %rsp
	movl	$234994619, -8(%rbp)    # imm = 0xE01BBBB
	movq	%rdi, -24(%rbp)
	movq	%rsi, -16(%rbp)
	movl	$0, -4(%rbp)
.LBB49_1:                               # %for.cond
                                        # =>This Inner Loop Header: Depth=1
	movl	-4(%rbp), %eax
	cmpl	PicSizeInMapUnits, %eax
	jae	.LBB49_4
# %bb.2:                                # %for.body
                                        #   in Loop: Header=BB49_1 Depth=1
	movq	-16(%rbp), %rax
	movq	176(%rax), %rax
	movl	-4(%rbp), %ecx
	movb	(%rax,%rcx), %al
	movq	MapUnitToSliceGroupMap, %rcx
	movl	-4(%rbp), %edx
	movb	%al, (%rcx,%rdx)
# %bb.3:                                # %for.inc
                                        #   in Loop: Header=BB49_1 Depth=1
	movl	-4(%rbp), %eax
	addl	$1, %eax
	movl	%eax, -4(%rbp)
	jmp	.LBB49_1
.LBB49_4:                               # %for.end
	cmpl	$234994619, -8(%rbp)    # imm = 0xE01BBBB
	jne	.LBB49_6
.LBB49_5:
	addq	$32, %rsp
	popq	%rbp
	.cfi_def_cfa %rsp, 8
	retq
.LBB49_6:                               # %func_exit
	.cfi_def_cfa %rbp, 16
	callq	detect_breach
	jmp	.LBB49_5
.Lfunc_end49:
	.size	FmoGenerateType6MapUnitMap.29, .Lfunc_end49-FmoGenerateType6MapUnitMap.29
	.cfi_endproc
                                        # -- End function
	.globl	FmoInit.30              # -- Begin function FmoInit.30
	.p2align	4, 0x90
	.type	FmoInit.30,@function
FmoInit.30:                             # @FmoInit.30
	.cfi_startproc
# %bb.0:                                # %entry
	pushq	%rbp
	.cfi_def_cfa_offset 16
	.cfi_offset %rbp, -16
	movq	%rsp, %rbp
	.cfi_def_cfa_register %rbp
	subq	$32, %rsp
	movl	$348623980, -8(%rbp)    # imm = 0x14C7946C
	movq	%rdi, -16(%rbp)
	movq	%rsi, -24(%rbp)
	movq	%rdx, -32(%rbp)
	movl	$0, -4(%rbp)
.LBB50_1:                               # %for.cond
                                        # =>This Inner Loop Header: Depth=1
	cmpl	$8, -4(%rbp)
	jge	.LBB50_4
# %bb.2:                                # %for.body
                                        #   in Loop: Header=BB50_1 Depth=1
	movslq	-4(%rbp), %rax
	movl	$-1, FirstMBInSlice(,%rax,4)
# %bb.3:                                # %for.inc
                                        #   in Loop: Header=BB50_1 Depth=1
	movl	-4(%rbp), %eax
	addl	$1, %eax
	movl	%eax, -4(%rbp)
	jmp	.LBB50_1
.LBB50_4:                               # %for.end
	movq	-16(%rbp), %rdi
	movq	-24(%rbp), %rsi
	callq	FmoGenerateMapUnitToSliceGroupMap
	movq	-16(%rbp), %rdi
	movq	-32(%rbp), %rsi
	callq	FmoGenerateMBAmap
	cmpl	$348623980, -8(%rbp)    # imm = 0x14C7946C
	jne	.LBB50_6
.LBB50_5:
	xorl	%eax, %eax
	addq	$32, %rsp
	popq	%rbp
	.cfi_def_cfa %rsp, 8
	retq
.LBB50_6:                               # %func_exit
	.cfi_def_cfa %rbp, 16
	callq	detect_breach
	jmp	.LBB50_5
.Lfunc_end50:
	.size	FmoInit.30, .Lfunc_end50-FmoInit.30
	.cfi_endproc
                                        # -- End function
	.p2align	4, 0x90         # -- Begin function FmoGenerateType1MapUnitMap.31
	.type	FmoGenerateType1MapUnitMap.31,@function
FmoGenerateType1MapUnitMap.31:          # @FmoGenerateType1MapUnitMap.31
	.cfi_startproc
# %bb.0:                                # %entry
	pushq	%rbp
	.cfi_def_cfa_offset 16
	.cfi_offset %rbp, -16
	movq	%rsp, %rbp
	.cfi_def_cfa_register %rbp
	subq	$32, %rsp
	movl	$381467842, -8(%rbp)    # imm = 0x16BCBCC2
	movq	%rdi, -16(%rbp)
	movq	%rsi, -24(%rbp)
	movl	$0, -4(%rbp)
.LBB51_1:                               # %for.cond
                                        # =>This Inner Loop Header: Depth=1
	movl	-4(%rbp), %eax
	cmpl	PicSizeInMapUnits, %eax
	jae	.LBB51_4
# %bb.2:                                # %for.body
                                        #   in Loop: Header=BB51_1 Depth=1
	movl	-4(%rbp), %eax
	movq	-16(%rbp), %rcx
	xorl	%edx, %edx
	divl	72468(%rcx)
	movl	%edx, %ecx
	movl	-4(%rbp), %eax
	movq	-16(%rbp), %rsi
	xorl	%edx, %edx
	divl	72468(%rsi)
	movq	-24(%rbp), %rdx
	movl	60(%rdx), %edx
	addl	$1, %edx
	imull	%edx, %eax
	shrl	$1, %eax
	addl	%eax, %ecx
	movq	-24(%rbp), %rax
	movl	60(%rax), %esi
	addl	$1, %esi
	movl	%ecx, %eax
	xorl	%edx, %edx
	divl	%esi
	movq	MapUnitToSliceGroupMap, %rax
	movl	-4(%rbp), %ecx
	movb	%dl, (%rax,%rcx)
# %bb.3:                                # %for.inc
                                        #   in Loop: Header=BB51_1 Depth=1
	movl	-4(%rbp), %eax
	addl	$1, %eax
	movl	%eax, -4(%rbp)
	jmp	.LBB51_1
.LBB51_4:                               # %for.end
	cmpl	$381467842, -8(%rbp)    # imm = 0x16BCBCC2
	jne	.LBB51_6
.LBB51_5:
	addq	$32, %rsp
	popq	%rbp
	.cfi_def_cfa %rsp, 8
	retq
.LBB51_6:                               # %func_exit
	.cfi_def_cfa %rbp, 16
	callq	detect_breach
	jmp	.LBB51_5
.Lfunc_end51:
	.size	FmoGenerateType1MapUnitMap.31, .Lfunc_end51-FmoGenerateType1MapUnitMap.31
	.cfi_endproc
                                        # -- End function
	.p2align	4, 0x90         # -- Begin function FmoGenerateType5MapUnitMap.32
	.type	FmoGenerateType5MapUnitMap.32,@function
FmoGenerateType5MapUnitMap.32:          # @FmoGenerateType5MapUnitMap.32
	.cfi_startproc
# %bb.0:                                # %entry
	pushq	%rbp
	.cfi_def_cfa_offset 16
	.cfi_offset %rbp, -16
	movq	%rsp, %rbp
	.cfi_def_cfa_register %rbp
	subq	$48, %rsp
	movl	$838610865, -40(%rbp)   # imm = 0x31FC2FB1
	movq	%rdi, -16(%rbp)
	movq	%rsi, -24(%rbp)
	movq	-24(%rbp), %rax
	movl	168(%rax), %eax
	addl	$1, %eax
	movq	-16(%rbp), %rcx
	imull	72652(%rcx), %eax
	cmpl	PicSizeInMapUnits, %eax
	jae	.LBB52_2
# %bb.1:                                # %cond.true
	movq	-24(%rbp), %rax
	movl	168(%rax), %eax
	addl	$1, %eax
	movq	-16(%rbp), %rcx
	imull	72652(%rcx), %eax
	jmp	.LBB52_3
.LBB52_2:                               # %cond.false
	movl	PicSizeInMapUnits, %eax
.LBB52_3:                               # %cond.end
	movl	%eax, -32(%rbp)
	movq	-24(%rbp), %rax
	cmpl	$0, 164(%rax)
	je	.LBB52_5
# %bb.4:                                # %cond.true5
	movl	PicSizeInMapUnits, %eax
	subl	-32(%rbp), %eax
	jmp	.LBB52_6
.LBB52_5:                               # %cond.false6
	movl	-32(%rbp), %eax
.LBB52_6:                               # %cond.end7
	movl	%eax, -36(%rbp)
	movl	$0, -28(%rbp)
	movl	$0, -8(%rbp)
.LBB52_7:                               # %for.cond
                                        # =>This Loop Header: Depth=1
                                        #     Child Loop BB52_9 Depth 2
	movl	-8(%rbp), %eax
	movq	-16(%rbp), %rcx
	cmpl	72468(%rcx), %eax
	jae	.LBB52_17
# %bb.8:                                # %for.body
                                        #   in Loop: Header=BB52_7 Depth=1
	movl	$0, -4(%rbp)
.LBB52_9:                               # %for.cond10
                                        #   Parent Loop BB52_7 Depth=1
                                        # =>  This Inner Loop Header: Depth=2
	movl	-4(%rbp), %eax
	movq	-16(%rbp), %rcx
	cmpl	72472(%rcx), %eax
	jae	.LBB52_15
# %bb.10:                               # %for.body12
                                        #   in Loop: Header=BB52_9 Depth=2
	movl	-28(%rbp), %eax
	movl	%eax, %ecx
	addl	$1, %ecx
	movl	%ecx, -28(%rbp)
	cmpl	-36(%rbp), %eax
	jae	.LBB52_12
# %bb.11:                               # %if.then
                                        #   in Loop: Header=BB52_9 Depth=2
	movq	-24(%rbp), %rax
	movl	$1, %ecx
	subl	164(%rax), %ecx
	movq	MapUnitToSliceGroupMap, %rax
	movl	-4(%rbp), %edx
	movq	-16(%rbp), %rsi
	imull	72468(%rsi), %edx
	addl	-8(%rbp), %edx
	movl	%edx, %edx
	movb	%cl, (%rax,%rdx)
	jmp	.LBB52_13
.LBB52_12:                              # %if.else
                                        #   in Loop: Header=BB52_9 Depth=2
	movq	-24(%rbp), %rax
	movl	164(%rax), %eax
	movq	MapUnitToSliceGroupMap, %rcx
	movl	-4(%rbp), %edx
	movq	-16(%rbp), %rsi
	imull	72468(%rsi), %edx
	addl	-8(%rbp), %edx
	movl	%edx, %edx
	movb	%al, (%rcx,%rdx)
.LBB52_13:                              # %if.end
                                        #   in Loop: Header=BB52_9 Depth=2
	jmp	.LBB52_14
.LBB52_14:                              # %for.inc
                                        #   in Loop: Header=BB52_9 Depth=2
	movl	-4(%rbp), %eax
	addl	$1, %eax
	movl	%eax, -4(%rbp)
	jmp	.LBB52_9
.LBB52_15:                              # %for.end
                                        #   in Loop: Header=BB52_7 Depth=1
	jmp	.LBB52_16
.LBB52_16:                              # %for.inc27
                                        #   in Loop: Header=BB52_7 Depth=1
	movl	-8(%rbp), %eax
	addl	$1, %eax
	movl	%eax, -8(%rbp)
	jmp	.LBB52_7
.LBB52_17:                              # %for.end29
	cmpl	$838610865, -40(%rbp)   # imm = 0x31FC2FB1
	jne	.LBB52_19
.LBB52_18:
	addq	$48, %rsp
	popq	%rbp
	.cfi_def_cfa %rsp, 8
	retq
.LBB52_19:                              # %func_exit
	.cfi_def_cfa %rbp, 16
	callq	detect_breach
	jmp	.LBB52_18
.Lfunc_end52:
	.size	FmoGenerateType5MapUnitMap.32, .Lfunc_end52-FmoGenerateType5MapUnitMap.32
	.cfi_endproc
                                        # -- End function
	.p2align	4, 0x90         # -- Begin function FmoGenerateMapUnitToSliceGroupMap.33
	.type	FmoGenerateMapUnitToSliceGroupMap.33,@function
FmoGenerateMapUnitToSliceGroupMap.33:   # @FmoGenerateMapUnitToSliceGroupMap.33
	.cfi_startproc
# %bb.0:                                # %entry
	pushq	%rbp
	.cfi_def_cfa_offset 16
	.cfi_offset %rbp, -16
	movq	%rsp, %rbp
	.cfi_def_cfa_register %rbp
	pushq	%rbx
	subq	$24, %rsp
	.cfi_offset %rbx, -24
	movl	$1895176210, -32(%rbp)  # imm = 0x70F61812
	movq	%rdi, -24(%rbp)
	movq	%rsi, -16(%rbp)
	movq	-24(%rbp), %rax
	movl	72472(%rax), %eax
	movq	-24(%rbp), %rcx
	imull	72468(%rcx), %eax
	movl	%eax, PicSizeInMapUnits
	movq	-16(%rbp), %rax
	cmpl	$6, 64(%rax)
	jne	.LBB53_4
# %bb.1:                                # %if.then
	movq	-16(%rbp), %rax
	movl	172(%rax), %eax
	addl	$1, %eax
	cmpl	PicSizeInMapUnits, %eax
	je	.LBB53_3
# %bb.2:                                # %if.then2
	movabsq	$.L.str, %rdi
	movl	$500, %esi              # imm = 0x1F4
	callq	error
.LBB53_3:                               # %if.end
	jmp	.LBB53_4
.LBB53_4:                               # %if.end3
	cmpq	$0, MapUnitToSliceGroupMap
	je	.LBB53_6
# %bb.5:                                # %if.then4
	movq	MapUnitToSliceGroupMap, %rdi
	callq	free
.LBB53_6:                               # %if.end5
	movl	PicSizeInMapUnits, %edi
	shlq	$0, %rdi
	callq	malloc
	movq	%rax, MapUnitToSliceGroupMap
	cmpq	$0, %rax
	jne	.LBB53_8
# %bb.7:                                # %if.then9
	movl	PicSizeInMapUnits, %esi
	shlq	$0, %rsi
	movabsq	$.L.str.1, %rdi
	movb	$0, %al
	callq	printf
	movl	$4294967295, %edi       # imm = 0xFFFFFFFF
	callq	exit
.LBB53_8:                               # %if.end13
	movq	-16(%rbp), %rax
	cmpl	$0, 60(%rax)
	jne	.LBB53_10
# %bb.9:                                # %if.then16
	movq	MapUnitToSliceGroupMap, %rdi
	movl	PicSizeInMapUnits, %edx
	shlq	$0, %rdx
	xorl	%esi, %esi
	callq	memset
	movl	$0, -28(%rbp)
	jmp	.LBB53_21
.LBB53_10:                              # %if.end19
	movq	-16(%rbp), %rax
	movl	64(%rax), %eax
	movq	%rax, %rcx
	subq	$6, %rcx
	ja	.LBB53_19
# %bb.11:                               # %if.end19
	movq	.LJTI53_0(,%rax,8), %rax
	jmpq	*%rax
.LBB53_12:                              # %sw.bb
	movq	-24(%rbp), %rdi
	movq	-16(%rbp), %rsi
	callq	FmoGenerateType0MapUnitMap
	jmp	.LBB53_20
.LBB53_13:                              # %sw.bb21
	movq	-24(%rbp), %rdi
	movq	-16(%rbp), %rsi
	callq	FmoGenerateType1MapUnitMap
	jmp	.LBB53_20
.LBB53_14:                              # %sw.bb22
	movq	-24(%rbp), %rdi
	movq	-16(%rbp), %rsi
	callq	FmoGenerateType2MapUnitMap
	jmp	.LBB53_20
.LBB53_15:                              # %sw.bb23
	movq	-24(%rbp), %rdi
	movq	-16(%rbp), %rsi
	callq	FmoGenerateType3MapUnitMap
	jmp	.LBB53_20
.LBB53_16:                              # %sw.bb24
	movq	-24(%rbp), %rdi
	movq	-16(%rbp), %rsi
	callq	FmoGenerateType4MapUnitMap
	jmp	.LBB53_20
.LBB53_17:                              # %sw.bb25
	movq	-24(%rbp), %rdi
	movq	-16(%rbp), %rsi
	callq	FmoGenerateType5MapUnitMap
	jmp	.LBB53_20
.LBB53_18:                              # %sw.bb26
	movq	-24(%rbp), %rdi
	movq	-16(%rbp), %rsi
	callq	FmoGenerateType6MapUnitMap
	jmp	.LBB53_20
.LBB53_19:                              # %sw.default
	movq	-16(%rbp), %rax
	movl	64(%rax), %esi
	movabsq	$.L.str.2, %rdi
	movb	$0, %al
	callq	printf
	movl	$4294967295, %edi       # imm = 0xFFFFFFFF
	callq	exit
.LBB53_20:                              # %sw.epilog
	movl	$0, -28(%rbp)
.LBB53_21:                              # %return
	movl	-28(%rbp), %ebx
	cmpl	$1895176210, -32(%rbp)  # imm = 0x70F61812
	jne	.LBB53_23
.LBB53_22:
	movl	%ebx, %eax
	addq	$24, %rsp
	popq	%rbx
	popq	%rbp
	.cfi_def_cfa %rsp, 8
	retq
.LBB53_23:                              # %func_exit
	.cfi_def_cfa %rbp, 16
	callq	detect_breach
	jmp	.LBB53_22
.Lfunc_end53:
	.size	FmoGenerateMapUnitToSliceGroupMap.33, .Lfunc_end53-FmoGenerateMapUnitToSliceGroupMap.33
	.cfi_endproc
	.section	.rodata,"a",@progbits
	.p2align	3
.LJTI53_0:
	.quad	.LBB53_12
	.quad	.LBB53_13
	.quad	.LBB53_14
	.quad	.LBB53_15
	.quad	.LBB53_16
	.quad	.LBB53_17
	.quad	.LBB53_18
                                        # -- End function
	.text
	.globl	FmoInit.34              # -- Begin function FmoInit.34
	.p2align	4, 0x90
	.type	FmoInit.34,@function
FmoInit.34:                             # @FmoInit.34
	.cfi_startproc
# %bb.0:                                # %entry
	pushq	%rbp
	.cfi_def_cfa_offset 16
	.cfi_offset %rbp, -16
	movq	%rsp, %rbp
	.cfi_def_cfa_register %rbp
	subq	$32, %rsp
	movl	$699226547, -8(%rbp)    # imm = 0x29AD59B3
	movq	%rdi, -16(%rbp)
	movq	%rsi, -24(%rbp)
	movq	%rdx, -32(%rbp)
	movl	$0, -4(%rbp)
.LBB54_1:                               # %for.cond
                                        # =>This Inner Loop Header: Depth=1
	cmpl	$8, -4(%rbp)
	jge	.LBB54_4
# %bb.2:                                # %for.body
                                        #   in Loop: Header=BB54_1 Depth=1
	movslq	-4(%rbp), %rax
	movl	$-1, FirstMBInSlice(,%rax,4)
# %bb.3:                                # %for.inc
                                        #   in Loop: Header=BB54_1 Depth=1
	movl	-4(%rbp), %eax
	addl	$1, %eax
	movl	%eax, -4(%rbp)
	jmp	.LBB54_1
.LBB54_4:                               # %for.end
	movq	-16(%rbp), %rdi
	movq	-24(%rbp), %rsi
	callq	FmoGenerateMapUnitToSliceGroupMap
	movq	-16(%rbp), %rdi
	movq	-32(%rbp), %rsi
	callq	FmoGenerateMBAmap
	cmpl	$699226547, -8(%rbp)    # imm = 0x29AD59B3
	jne	.LBB54_6
.LBB54_5:
	xorl	%eax, %eax
	addq	$32, %rsp
	popq	%rbp
	.cfi_def_cfa %rsp, 8
	retq
.LBB54_6:                               # %func_exit
	.cfi_def_cfa %rbp, 16
	callq	detect_breach
	jmp	.LBB54_5
.Lfunc_end54:
	.size	FmoInit.34, .Lfunc_end54-FmoInit.34
	.cfi_endproc
                                        # -- End function
	.p2align	4, 0x90         # -- Begin function FmoGenerateType0MapUnitMap.35
	.type	FmoGenerateType0MapUnitMap.35,@function
FmoGenerateType0MapUnitMap.35:          # @FmoGenerateType0MapUnitMap.35
	.cfi_startproc
# %bb.0:                                # %entry
	pushq	%rbp
	.cfi_def_cfa_offset 16
	.cfi_offset %rbp, -16
	movq	%rsp, %rbp
	.cfi_def_cfa_register %rbp
	subq	$48, %rsp
	movl	$551487707, -28(%rbp)   # imm = 0x20DF08DB
	movq	%rdi, -40(%rbp)
	movq	%rsi, -24(%rbp)
	movl	$0, -4(%rbp)
.LBB55_1:                               # %do.body
                                        # =>This Loop Header: Depth=1
                                        #     Child Loop BB55_2 Depth 2
                                        #       Child Loop BB55_6 Depth 3
	movl	$0, -12(%rbp)
.LBB55_2:                               # %for.cond
                                        #   Parent Loop BB55_1 Depth=1
                                        # =>  This Loop Header: Depth=2
                                        #       Child Loop BB55_6 Depth 3
	xorl	%eax, %eax
	movl	-12(%rbp), %ecx
	movq	-24(%rbp), %rdx
	cmpl	60(%rdx), %ecx
	ja	.LBB55_4
# %bb.3:                                # %land.rhs
                                        #   in Loop: Header=BB55_2 Depth=2
	movl	-4(%rbp), %eax
	cmpl	PicSizeInMapUnits, %eax
	setb	%al
.LBB55_4:                               # %land.end
                                        #   in Loop: Header=BB55_2 Depth=2
	testb	$1, %al
	jne	.LBB55_5
	jmp	.LBB55_13
.LBB55_5:                               # %for.body
                                        #   in Loop: Header=BB55_2 Depth=2
	movl	$0, -8(%rbp)
.LBB55_6:                               # %for.cond2
                                        #   Parent Loop BB55_1 Depth=1
                                        #     Parent Loop BB55_2 Depth=2
                                        # =>    This Inner Loop Header: Depth=3
	xorl	%eax, %eax
	movl	-8(%rbp), %ecx
	movq	-24(%rbp), %rdx
	movl	-12(%rbp), %esi
	cmpl	68(%rdx,%rsi,4), %ecx
	ja	.LBB55_8
# %bb.7:                                # %land.rhs4
                                        #   in Loop: Header=BB55_6 Depth=3
	movl	-4(%rbp), %eax
	addl	-8(%rbp), %eax
	cmpl	PicSizeInMapUnits, %eax
	setb	%al
.LBB55_8:                               # %land.end6
                                        #   in Loop: Header=BB55_6 Depth=3
	testb	$1, %al
	jne	.LBB55_9
	jmp	.LBB55_11
.LBB55_9:                               # %for.body7
                                        #   in Loop: Header=BB55_6 Depth=3
	movl	-12(%rbp), %eax
	movq	MapUnitToSliceGroupMap, %rcx
	movl	-4(%rbp), %edx
	addl	-8(%rbp), %edx
	movl	%edx, %edx
	movb	%al, (%rcx,%rdx)
# %bb.10:                               # %for.inc
                                        #   in Loop: Header=BB55_6 Depth=3
	movl	-8(%rbp), %eax
	addl	$1, %eax
	movl	%eax, -8(%rbp)
	jmp	.LBB55_6
.LBB55_11:                              # %for.end
                                        #   in Loop: Header=BB55_2 Depth=2
	jmp	.LBB55_12
.LBB55_12:                              # %for.inc11
                                        #   in Loop: Header=BB55_2 Depth=2
	movq	-24(%rbp), %rax
	movl	-12(%rbp), %ecx
	movl	%ecx, %edx
	addl	$1, %edx
	movl	%edx, -12(%rbp)
	movl	%ecx, %ecx
	movl	68(%rax,%rcx,4), %eax
	addl	$1, %eax
	addl	-4(%rbp), %eax
	movl	%eax, -4(%rbp)
	jmp	.LBB55_2
.LBB55_13:                              # %for.end18
                                        #   in Loop: Header=BB55_1 Depth=1
	jmp	.LBB55_14
.LBB55_14:                              # %do.cond
                                        #   in Loop: Header=BB55_1 Depth=1
	movl	-4(%rbp), %eax
	cmpl	PicSizeInMapUnits, %eax
	jb	.LBB55_1
# %bb.15:                               # %do.end
	cmpl	$551487707, -28(%rbp)   # imm = 0x20DF08DB
	jne	.LBB55_17
.LBB55_16:
	addq	$48, %rsp
	popq	%rbp
	.cfi_def_cfa %rsp, 8
	retq
.LBB55_17:                              # %func_exit
	.cfi_def_cfa %rbp, 16
	callq	detect_breach
	jmp	.LBB55_16
.Lfunc_end55:
	.size	FmoGenerateType0MapUnitMap.35, .Lfunc_end55-FmoGenerateType0MapUnitMap.35
	.cfi_endproc
                                        # -- End function
	.p2align	4, 0x90         # -- Begin function FmoGenerateMBAmap.36
	.type	FmoGenerateMBAmap.36,@function
FmoGenerateMBAmap.36:                   # @FmoGenerateMBAmap.36
	.cfi_startproc
# %bb.0:                                # %entry
	pushq	%rbp
	.cfi_def_cfa_offset 16
	.cfi_offset %rbp, -16
	movq	%rsp, %rbp
	.cfi_def_cfa_register %rbp
	subq	$32, %rsp
	movl	$1893178324, -20(%rbp)  # imm = 0x70D79BD4
	movq	%rdi, -16(%rbp)
	movq	%rsi, -32(%rbp)
	cmpq	$0, MBAmap
	je	.LBB56_2
# %bb.1:                                # %if.then
	movq	MBAmap, %rdi
	callq	free
.LBB56_2:                               # %if.end
	movq	-16(%rbp), %rax
	movl	72484(%rax), %edi
	shlq	$0, %rdi
	callq	malloc
	movq	%rax, MBAmap
	cmpq	$0, %rax
	jne	.LBB56_4
# %bb.3:                                # %if.then2
	movq	-16(%rbp), %rax
	movl	72484(%rax), %esi
	shlq	$0, %rsi
	movabsq	$.L.str.3, %rdi
	movb	$0, %al
	callq	printf
	movl	$4294967295, %edi       # imm = 0xFFFFFFFF
	callq	exit
.LBB56_4:                               # %if.end7
	movq	-32(%rbp), %rax
	cmpl	$0, 1148(%rax)
	jne	.LBB56_6
# %bb.5:                                # %lor.lhs.false
	movq	-16(%rbp), %rax
	cmpl	$0, 72444(%rax)
	je	.LBB56_11
.LBB56_6:                               # %if.then10
	movl	$0, -4(%rbp)
.LBB56_7:                               # %for.cond
                                        # =>This Inner Loop Header: Depth=1
	movl	-4(%rbp), %eax
	movq	-16(%rbp), %rcx
	cmpl	72484(%rcx), %eax
	jae	.LBB56_10
# %bb.8:                                # %for.body
                                        #   in Loop: Header=BB56_7 Depth=1
	movq	MapUnitToSliceGroupMap, %rax
	movl	-4(%rbp), %ecx
	movb	(%rax,%rcx), %al
	movq	MBAmap, %rcx
	movl	-4(%rbp), %edx
	movb	%al, (%rcx,%rdx)
# %bb.9:                                # %for.inc
                                        #   in Loop: Header=BB56_7 Depth=1
	movl	-4(%rbp), %eax
	addl	$1, %eax
	movl	%eax, -4(%rbp)
	jmp	.LBB56_7
.LBB56_10:                              # %for.end
	jmp	.LBB56_24
.LBB56_11:                              # %if.else
	movq	-32(%rbp), %rax
	cmpl	$0, 1152(%rax)
	je	.LBB56_18
# %bb.12:                               # %land.lhs.true
	movq	-16(%rbp), %rax
	cmpl	$0, 72444(%rax)
	jne	.LBB56_18
# %bb.13:                               # %if.then19
	movl	$0, -4(%rbp)
.LBB56_14:                              # %for.cond20
                                        # =>This Inner Loop Header: Depth=1
	movl	-4(%rbp), %eax
	movq	-16(%rbp), %rcx
	cmpl	72484(%rcx), %eax
	jae	.LBB56_17
# %bb.15:                               # %for.body24
                                        #   in Loop: Header=BB56_14 Depth=1
	movq	MapUnitToSliceGroupMap, %rax
	movl	-4(%rbp), %ecx
	shrl	$1, %ecx
	movl	%ecx, %ecx
	movb	(%rax,%rcx), %al
	movq	MBAmap, %rcx
	movl	-4(%rbp), %edx
	movb	%al, (%rcx,%rdx)
# %bb.16:                               # %for.inc29
                                        #   in Loop: Header=BB56_14 Depth=1
	movl	-4(%rbp), %eax
	addl	$1, %eax
	movl	%eax, -4(%rbp)
	jmp	.LBB56_14
.LBB56_17:                              # %for.end31
	jmp	.LBB56_23
.LBB56_18:                              # %if.else32
	movl	$0, -4(%rbp)
.LBB56_19:                              # %for.cond33
                                        # =>This Inner Loop Header: Depth=1
	movl	-4(%rbp), %eax
	movq	-16(%rbp), %rcx
	cmpl	72484(%rcx), %eax
	jae	.LBB56_22
# %bb.20:                               # %for.body37
                                        #   in Loop: Header=BB56_19 Depth=1
	movq	MapUnitToSliceGroupMap, %rsi
	movl	-4(%rbp), %eax
	movq	-16(%rbp), %rcx
	movl	72468(%rcx), %ecx
	shll	$1, %ecx
	xorl	%edx, %edx
	divl	%ecx
	movl	%eax, %ecx
	movq	-16(%rbp), %rax
	imull	72468(%rax), %ecx
	movl	-4(%rbp), %eax
	movq	-16(%rbp), %rdi
	xorl	%edx, %edx
	divl	72468(%rdi)
	addl	%edx, %ecx
	movl	%ecx, %eax
	movb	(%rsi,%rax), %al
	movq	MBAmap, %rcx
	movl	-4(%rbp), %edx
	movb	%al, (%rcx,%rdx)
# %bb.21:                               # %for.inc47
                                        #   in Loop: Header=BB56_19 Depth=1
	movl	-4(%rbp), %eax
	addl	$1, %eax
	movl	%eax, -4(%rbp)
	jmp	.LBB56_19
.LBB56_22:                              # %for.end49
	jmp	.LBB56_23
.LBB56_23:                              # %if.end50
	jmp	.LBB56_24
.LBB56_24:                              # %if.end51
	cmpl	$1893178324, -20(%rbp)  # imm = 0x70D79BD4
	jne	.LBB56_26
.LBB56_25:
	xorl	%eax, %eax
	addq	$32, %rsp
	popq	%rbp
	.cfi_def_cfa %rsp, 8
	retq
.LBB56_26:                              # %func_exit
	.cfi_def_cfa %rbp, 16
	callq	detect_breach
	jmp	.LBB56_25
.Lfunc_end56:
	.size	FmoGenerateMBAmap.36, .Lfunc_end56-FmoGenerateMBAmap.36
	.cfi_endproc
                                        # -- End function
	.p2align	4, 0x90         # -- Begin function FmoGenerateType0MapUnitMap.37
	.type	FmoGenerateType0MapUnitMap.37,@function
FmoGenerateType0MapUnitMap.37:          # @FmoGenerateType0MapUnitMap.37
	.cfi_startproc
# %bb.0:                                # %entry
	pushq	%rbp
	.cfi_def_cfa_offset 16
	.cfi_offset %rbp, -16
	movq	%rsp, %rbp
	.cfi_def_cfa_register %rbp
	subq	$48, %rsp
	movl	$1102423047, -28(%rbp)  # imm = 0x41B5A407
	movq	%rdi, -40(%rbp)
	movq	%rsi, -24(%rbp)
	movl	$0, -4(%rbp)
.LBB57_1:                               # %do.body
                                        # =>This Loop Header: Depth=1
                                        #     Child Loop BB57_2 Depth 2
                                        #       Child Loop BB57_6 Depth 3
	movl	$0, -12(%rbp)
.LBB57_2:                               # %for.cond
                                        #   Parent Loop BB57_1 Depth=1
                                        # =>  This Loop Header: Depth=2
                                        #       Child Loop BB57_6 Depth 3
	xorl	%eax, %eax
	movl	-12(%rbp), %ecx
	movq	-24(%rbp), %rdx
	cmpl	60(%rdx), %ecx
	ja	.LBB57_4
# %bb.3:                                # %land.rhs
                                        #   in Loop: Header=BB57_2 Depth=2
	movl	-4(%rbp), %eax
	cmpl	PicSizeInMapUnits, %eax
	setb	%al
.LBB57_4:                               # %land.end
                                        #   in Loop: Header=BB57_2 Depth=2
	testb	$1, %al
	jne	.LBB57_5
	jmp	.LBB57_13
.LBB57_5:                               # %for.body
                                        #   in Loop: Header=BB57_2 Depth=2
	movl	$0, -8(%rbp)
.LBB57_6:                               # %for.cond2
                                        #   Parent Loop BB57_1 Depth=1
                                        #     Parent Loop BB57_2 Depth=2
                                        # =>    This Inner Loop Header: Depth=3
	xorl	%eax, %eax
	movl	-8(%rbp), %ecx
	movq	-24(%rbp), %rdx
	movl	-12(%rbp), %esi
	cmpl	68(%rdx,%rsi,4), %ecx
	ja	.LBB57_8
# %bb.7:                                # %land.rhs4
                                        #   in Loop: Header=BB57_6 Depth=3
	movl	-4(%rbp), %eax
	addl	-8(%rbp), %eax
	cmpl	PicSizeInMapUnits, %eax
	setb	%al
.LBB57_8:                               # %land.end6
                                        #   in Loop: Header=BB57_6 Depth=3
	testb	$1, %al
	jne	.LBB57_9
	jmp	.LBB57_11
.LBB57_9:                               # %for.body7
                                        #   in Loop: Header=BB57_6 Depth=3
	movl	-12(%rbp), %eax
	movq	MapUnitToSliceGroupMap, %rcx
	movl	-4(%rbp), %edx
	addl	-8(%rbp), %edx
	movl	%edx, %edx
	movb	%al, (%rcx,%rdx)
# %bb.10:                               # %for.inc
                                        #   in Loop: Header=BB57_6 Depth=3
	movl	-8(%rbp), %eax
	addl	$1, %eax
	movl	%eax, -8(%rbp)
	jmp	.LBB57_6
.LBB57_11:                              # %for.end
                                        #   in Loop: Header=BB57_2 Depth=2
	jmp	.LBB57_12
.LBB57_12:                              # %for.inc11
                                        #   in Loop: Header=BB57_2 Depth=2
	movq	-24(%rbp), %rax
	movl	-12(%rbp), %ecx
	movl	%ecx, %edx
	addl	$1, %edx
	movl	%edx, -12(%rbp)
	movl	%ecx, %ecx
	movl	68(%rax,%rcx,4), %eax
	addl	$1, %eax
	addl	-4(%rbp), %eax
	movl	%eax, -4(%rbp)
	jmp	.LBB57_2
.LBB57_13:                              # %for.end18
                                        #   in Loop: Header=BB57_1 Depth=1
	jmp	.LBB57_14
.LBB57_14:                              # %do.cond
                                        #   in Loop: Header=BB57_1 Depth=1
	movl	-4(%rbp), %eax
	cmpl	PicSizeInMapUnits, %eax
	jb	.LBB57_1
# %bb.15:                               # %do.end
	cmpl	$1102423047, -28(%rbp)  # imm = 0x41B5A407
	jne	.LBB57_17
.LBB57_16:
	addq	$48, %rsp
	popq	%rbp
	.cfi_def_cfa %rsp, 8
	retq
.LBB57_17:                              # %func_exit
	.cfi_def_cfa %rbp, 16
	callq	detect_breach
	jmp	.LBB57_16
.Lfunc_end57:
	.size	FmoGenerateType0MapUnitMap.37, .Lfunc_end57-FmoGenerateType0MapUnitMap.37
	.cfi_endproc
                                        # -- End function
	.globl	FmoGetNextMBNr.38       # -- Begin function FmoGetNextMBNr.38
	.p2align	4, 0x90
	.type	FmoGetNextMBNr.38,@function
FmoGetNextMBNr.38:                      # @FmoGetNextMBNr.38
	.cfi_startproc
# %bb.0:                                # %entry
	pushq	%rbp
	.cfi_def_cfa_offset 16
	.cfi_offset %rbp, -16
	movq	%rsp, %rbp
	.cfi_def_cfa_register %rbp
	pushq	%rbx
	subq	$24, %rsp
	.cfi_offset %rbx, -24
	movl	$1277224412, -24(%rbp)  # imm = 0x4C20E5DC
	movl	%edi, -12(%rbp)
	movl	-12(%rbp), %edi
	callq	FmoMB2SliceGroup
	movl	%eax, -20(%rbp)
.LBB58_1:                               # %while.cond
                                        # =>This Inner Loop Header: Depth=1
	xorl	%eax, %eax
	movl	-12(%rbp), %ecx
	addl	$1, %ecx
	movl	%ecx, -12(%rbp)
	movq	img, %rdx
	cmpl	72484(%rdx), %ecx
	jge	.LBB58_3
# %bb.2:                                # %land.rhs
                                        #   in Loop: Header=BB58_1 Depth=1
	movq	MBAmap, %rax
	movslq	-12(%rbp), %rcx
	movzbl	(%rax,%rcx), %eax
	cmpl	-20(%rbp), %eax
	setne	%al
.LBB58_3:                               # %land.end
                                        #   in Loop: Header=BB58_1 Depth=1
	testb	$1, %al
	jne	.LBB58_4
	jmp	.LBB58_5
.LBB58_4:                               # %while.body
                                        #   in Loop: Header=BB58_1 Depth=1
	jmp	.LBB58_1
.LBB58_5:                               # %while.end
	movl	-12(%rbp), %eax
	movq	img, %rcx
	cmpl	72484(%rcx), %eax
	jl	.LBB58_7
# %bb.6:                                # %if.then
	movl	$-1, -16(%rbp)
	jmp	.LBB58_8
.LBB58_7:                               # %if.else
	movl	-12(%rbp), %eax
	movl	%eax, -16(%rbp)
.LBB58_8:                               # %return
	movl	-16(%rbp), %ebx
	cmpl	$1277224412, -24(%rbp)  # imm = 0x4C20E5DC
	jne	.LBB58_10
.LBB58_9:
	movl	%ebx, %eax
	addq	$24, %rsp
	popq	%rbx
	popq	%rbp
	.cfi_def_cfa %rsp, 8
	retq
.LBB58_10:                              # %func_exit
	.cfi_def_cfa %rbp, 16
	callq	detect_breach
	jmp	.LBB58_9
.Lfunc_end58:
	.size	FmoGetNextMBNr.38, .Lfunc_end58-FmoGetNextMBNr.38
	.cfi_endproc
                                        # -- End function
	.p2align	4, 0x90         # -- Begin function FmoGenerateType1MapUnitMap.39
	.type	FmoGenerateType1MapUnitMap.39,@function
FmoGenerateType1MapUnitMap.39:          # @FmoGenerateType1MapUnitMap.39
	.cfi_startproc
# %bb.0:                                # %entry
	pushq	%rbp
	.cfi_def_cfa_offset 16
	.cfi_offset %rbp, -16
	movq	%rsp, %rbp
	.cfi_def_cfa_register %rbp
	subq	$32, %rsp
	movl	$1692345550, -8(%rbp)   # imm = 0x64DF24CE
	movq	%rdi, -24(%rbp)
	movq	%rsi, -16(%rbp)
	movl	$0, -4(%rbp)
.LBB59_1:                               # %for.cond
                                        # =>This Inner Loop Header: Depth=1
	movl	-4(%rbp), %eax
	cmpl	PicSizeInMapUnits, %eax
	jae	.LBB59_4
# %bb.2:                                # %for.body
                                        #   in Loop: Header=BB59_1 Depth=1
	movl	-4(%rbp), %eax
	movq	-24(%rbp), %rcx
	xorl	%edx, %edx
	divl	72468(%rcx)
	movl	%edx, %ecx
	movl	-4(%rbp), %eax
	movq	-24(%rbp), %rsi
	xorl	%edx, %edx
	divl	72468(%rsi)
	movq	-16(%rbp), %rdx
	movl	60(%rdx), %edx
	addl	$1, %edx
	imull	%edx, %eax
	shrl	$1, %eax
	addl	%eax, %ecx
	movq	-16(%rbp), %rax
	movl	60(%rax), %esi
	addl	$1, %esi
	movl	%ecx, %eax
	xorl	%edx, %edx
	divl	%esi
	movq	MapUnitToSliceGroupMap, %rax
	movl	-4(%rbp), %ecx
	movb	%dl, (%rax,%rcx)
# %bb.3:                                # %for.inc
                                        #   in Loop: Header=BB59_1 Depth=1
	movl	-4(%rbp), %eax
	addl	$1, %eax
	movl	%eax, -4(%rbp)
	jmp	.LBB59_1
.LBB59_4:                               # %for.end
	cmpl	$1692345550, -8(%rbp)   # imm = 0x64DF24CE
	jne	.LBB59_6
.LBB59_5:
	addq	$32, %rsp
	popq	%rbp
	.cfi_def_cfa %rsp, 8
	retq
.LBB59_6:                               # %func_exit
	.cfi_def_cfa %rbp, 16
	callq	detect_breach
	jmp	.LBB59_5
.Lfunc_end59:
	.size	FmoGenerateType1MapUnitMap.39, .Lfunc_end59-FmoGenerateType1MapUnitMap.39
	.cfi_endproc
                                        # -- End function
	.globl	FmoGetPreviousMBNr.40   # -- Begin function FmoGetPreviousMBNr.40
	.p2align	4, 0x90
	.type	FmoGetPreviousMBNr.40,@function
FmoGetPreviousMBNr.40:                  # @FmoGetPreviousMBNr.40
	.cfi_startproc
# %bb.0:                                # %entry
	pushq	%rbp
	.cfi_def_cfa_offset 16
	.cfi_offset %rbp, -16
	movq	%rsp, %rbp
	.cfi_def_cfa_register %rbp
	pushq	%rbx
	subq	$24, %rsp
	.cfi_offset %rbx, -24
	movl	$345352087, -20(%rbp)   # imm = 0x1495A797
	movl	%edi, -12(%rbp)
	movl	-12(%rbp), %edi
	callq	FmoMB2SliceGroup
	movl	%eax, -24(%rbp)
	movl	-12(%rbp), %eax
	addl	$-1, %eax
	movl	%eax, -12(%rbp)
.LBB60_1:                               # %while.cond
                                        # =>This Inner Loop Header: Depth=1
	xorl	%eax, %eax
	cmpl	$0, -12(%rbp)
	jl	.LBB60_3
# %bb.2:                                # %land.rhs
                                        #   in Loop: Header=BB60_1 Depth=1
	movq	MBAmap, %rax
	movslq	-12(%rbp), %rcx
	movzbl	(%rax,%rcx), %eax
	cmpl	-24(%rbp), %eax
	setne	%al
.LBB60_3:                               # %land.end
                                        #   in Loop: Header=BB60_1 Depth=1
	testb	$1, %al
	jne	.LBB60_4
	jmp	.LBB60_5
.LBB60_4:                               # %while.body
                                        #   in Loop: Header=BB60_1 Depth=1
	movl	-12(%rbp), %eax
	addl	$-1, %eax
	movl	%eax, -12(%rbp)
	jmp	.LBB60_1
.LBB60_5:                               # %while.end
	cmpl	$0, -12(%rbp)
	jge	.LBB60_7
# %bb.6:                                # %if.then
	movl	$-1, -16(%rbp)
	jmp	.LBB60_8
.LBB60_7:                               # %if.else
	movl	-12(%rbp), %eax
	movl	%eax, -16(%rbp)
.LBB60_8:                               # %return
	movl	-16(%rbp), %ebx
	cmpl	$345352087, -20(%rbp)   # imm = 0x1495A797
	jne	.LBB60_10
.LBB60_9:
	movl	%ebx, %eax
	addq	$24, %rsp
	popq	%rbx
	popq	%rbp
	.cfi_def_cfa %rsp, 8
	retq
.LBB60_10:                              # %func_exit
	.cfi_def_cfa %rbp, 16
	callq	detect_breach
	jmp	.LBB60_9
.Lfunc_end60:
	.size	FmoGetPreviousMBNr.40, .Lfunc_end60-FmoGetPreviousMBNr.40
	.cfi_endproc
                                        # -- End function
	.p2align	4, 0x90         # -- Begin function FmoGenerateType2MapUnitMap.41
	.type	FmoGenerateType2MapUnitMap.41,@function
FmoGenerateType2MapUnitMap.41:          # @FmoGenerateType2MapUnitMap.41
	.cfi_startproc
# %bb.0:                                # %entry
	pushq	%rbp
	.cfi_def_cfa_offset 16
	.cfi_offset %rbp, -16
	movq	%rsp, %rbp
	.cfi_def_cfa_register %rbp
	subq	$64, %rsp
	movl	$811874821, -40(%rbp)   # imm = 0x30643A05
	movq	%rdi, -32(%rbp)
	movq	%rsi, -24(%rbp)
	movl	$0, -16(%rbp)
.LBB61_1:                               # %for.cond
                                        # =>This Inner Loop Header: Depth=1
	movl	-16(%rbp), %eax
	cmpl	PicSizeInMapUnits, %eax
	jae	.LBB61_4
# %bb.2:                                # %for.body
                                        #   in Loop: Header=BB61_1 Depth=1
	movq	-24(%rbp), %rax
	movl	60(%rax), %eax
	movq	MapUnitToSliceGroupMap, %rcx
	movl	-16(%rbp), %edx
	movb	%al, (%rcx,%rdx)
# %bb.3:                                # %for.inc
                                        #   in Loop: Header=BB61_1 Depth=1
	movl	-16(%rbp), %eax
	addl	$1, %eax
	movl	%eax, -16(%rbp)
	jmp	.LBB61_1
.LBB61_4:                               # %for.end
	movq	-24(%rbp), %rax
	movl	60(%rax), %eax
	subl	$1, %eax
	movl	%eax, -4(%rbp)
.LBB61_5:                               # %for.cond2
                                        # =>This Loop Header: Depth=1
                                        #     Child Loop BB61_7 Depth 2
                                        #       Child Loop BB61_9 Depth 3
	cmpl	$0, -4(%rbp)
	jl	.LBB61_16
# %bb.6:                                # %for.body5
                                        #   in Loop: Header=BB61_5 Depth=1
	movq	-24(%rbp), %rax
	movslq	-4(%rbp), %rcx
	movl	100(%rax,%rcx,4), %eax
	movq	-32(%rbp), %rcx
	xorl	%edx, %edx
	divl	72468(%rcx)
	movl	%eax, -48(%rbp)
	movq	-24(%rbp), %rax
	movslq	-4(%rbp), %rcx
	movl	100(%rax,%rcx,4), %eax
	movq	-32(%rbp), %rcx
	xorl	%edx, %edx
	divl	72468(%rcx)
	movl	%edx, -52(%rbp)
	movq	-24(%rbp), %rax
	movslq	-4(%rbp), %rcx
	movl	132(%rax,%rcx,4), %eax
	movq	-32(%rbp), %rcx
	xorl	%edx, %edx
	divl	72468(%rcx)
	movl	%eax, -36(%rbp)
	movq	-24(%rbp), %rax
	movslq	-4(%rbp), %rcx
	movl	132(%rax,%rcx,4), %eax
	movq	-32(%rbp), %rcx
	xorl	%edx, %edx
	divl	72468(%rcx)
	movl	%edx, -44(%rbp)
	movl	-48(%rbp), %eax
	movl	%eax, -12(%rbp)
.LBB61_7:                               # %for.cond21
                                        #   Parent Loop BB61_5 Depth=1
                                        # =>  This Loop Header: Depth=2
                                        #       Child Loop BB61_9 Depth 3
	movl	-12(%rbp), %eax
	cmpl	-36(%rbp), %eax
	ja	.LBB61_14
# %bb.8:                                # %for.body24
                                        #   in Loop: Header=BB61_7 Depth=2
	movl	-52(%rbp), %eax
	movl	%eax, -8(%rbp)
.LBB61_9:                               # %for.cond25
                                        #   Parent Loop BB61_5 Depth=1
                                        #     Parent Loop BB61_7 Depth=2
                                        # =>    This Inner Loop Header: Depth=3
	movl	-8(%rbp), %eax
	cmpl	-44(%rbp), %eax
	ja	.LBB61_12
# %bb.10:                               # %for.body28
                                        #   in Loop: Header=BB61_9 Depth=3
	movl	-4(%rbp), %eax
	movq	MapUnitToSliceGroupMap, %rcx
	movl	-12(%rbp), %edx
	movq	-32(%rbp), %rsi
	imull	72468(%rsi), %edx
	addl	-8(%rbp), %edx
	movl	%edx, %edx
	movb	%al, (%rcx,%rdx)
# %bb.11:                               # %for.inc33
                                        #   in Loop: Header=BB61_9 Depth=3
	movl	-8(%rbp), %eax
	addl	$1, %eax
	movl	%eax, -8(%rbp)
	jmp	.LBB61_9
.LBB61_12:                              # %for.end35
                                        #   in Loop: Header=BB61_7 Depth=2
	jmp	.LBB61_13
.LBB61_13:                              # %for.inc36
                                        #   in Loop: Header=BB61_7 Depth=2
	movl	-12(%rbp), %eax
	addl	$1, %eax
	movl	%eax, -12(%rbp)
	jmp	.LBB61_7
.LBB61_14:                              # %for.end38
                                        #   in Loop: Header=BB61_5 Depth=1
	jmp	.LBB61_15
.LBB61_15:                              # %for.inc39
                                        #   in Loop: Header=BB61_5 Depth=1
	movl	-4(%rbp), %eax
	addl	$-1, %eax
	movl	%eax, -4(%rbp)
	jmp	.LBB61_5
.LBB61_16:                              # %for.end40
	cmpl	$811874821, -40(%rbp)   # imm = 0x30643A05
	jne	.LBB61_18
.LBB61_17:
	addq	$64, %rsp
	popq	%rbp
	.cfi_def_cfa %rsp, 8
	retq
.LBB61_18:                              # %func_exit
	.cfi_def_cfa %rbp, 16
	callq	detect_breach
	jmp	.LBB61_17
.Lfunc_end61:
	.size	FmoGenerateType2MapUnitMap.41, .Lfunc_end61-FmoGenerateType2MapUnitMap.41
	.cfi_endproc
                                        # -- End function
	.p2align	4, 0x90         # -- Begin function FmoGenerateType1MapUnitMap.42
	.type	FmoGenerateType1MapUnitMap.42,@function
FmoGenerateType1MapUnitMap.42:          # @FmoGenerateType1MapUnitMap.42
	.cfi_startproc
# %bb.0:                                # %entry
	pushq	%rbp
	.cfi_def_cfa_offset 16
	.cfi_offset %rbp, -16
	movq	%rsp, %rbp
	.cfi_def_cfa_register %rbp
	subq	$32, %rsp
	movl	$1666767159, -8(%rbp)   # imm = 0x6358D937
	movq	%rdi, -16(%rbp)
	movq	%rsi, -24(%rbp)
	movl	$0, -4(%rbp)
.LBB62_1:                               # %for.cond
                                        # =>This Inner Loop Header: Depth=1
	movl	-4(%rbp), %eax
	cmpl	PicSizeInMapUnits, %eax
	jae	.LBB62_4
# %bb.2:                                # %for.body
                                        #   in Loop: Header=BB62_1 Depth=1
	movl	-4(%rbp), %eax
	movq	-16(%rbp), %rcx
	xorl	%edx, %edx
	divl	72468(%rcx)
	movl	%edx, %ecx
	movl	-4(%rbp), %eax
	movq	-16(%rbp), %rsi
	xorl	%edx, %edx
	divl	72468(%rsi)
	movq	-24(%rbp), %rdx
	movl	60(%rdx), %edx
	addl	$1, %edx
	imull	%edx, %eax
	shrl	$1, %eax
	addl	%eax, %ecx
	movq	-24(%rbp), %rax
	movl	60(%rax), %esi
	addl	$1, %esi
	movl	%ecx, %eax
	xorl	%edx, %edx
	divl	%esi
	movq	MapUnitToSliceGroupMap, %rax
	movl	-4(%rbp), %ecx
	movb	%dl, (%rax,%rcx)
# %bb.3:                                # %for.inc
                                        #   in Loop: Header=BB62_1 Depth=1
	movl	-4(%rbp), %eax
	addl	$1, %eax
	movl	%eax, -4(%rbp)
	jmp	.LBB62_1
.LBB62_4:                               # %for.end
	cmpl	$1666767159, -8(%rbp)   # imm = 0x6358D937
	jne	.LBB62_6
.LBB62_5:
	addq	$32, %rsp
	popq	%rbp
	.cfi_def_cfa %rsp, 8
	retq
.LBB62_6:                               # %func_exit
	.cfi_def_cfa %rbp, 16
	callq	detect_breach
	jmp	.LBB62_5
.Lfunc_end62:
	.size	FmoGenerateType1MapUnitMap.42, .Lfunc_end62-FmoGenerateType1MapUnitMap.42
	.cfi_endproc
                                        # -- End function
	.p2align	4, 0x90         # -- Begin function FmoGenerateType2MapUnitMap.43
	.type	FmoGenerateType2MapUnitMap.43,@function
FmoGenerateType2MapUnitMap.43:          # @FmoGenerateType2MapUnitMap.43
	.cfi_startproc
# %bb.0:                                # %entry
	pushq	%rbp
	.cfi_def_cfa_offset 16
	.cfi_offset %rbp, -16
	movq	%rsp, %rbp
	.cfi_def_cfa_register %rbp
	subq	$64, %rsp
	movl	$1586830409, -52(%rbp)  # imm = 0x5E951C49
	movq	%rdi, -32(%rbp)
	movq	%rsi, -24(%rbp)
	movl	$0, -12(%rbp)
.LBB63_1:                               # %for.cond
                                        # =>This Inner Loop Header: Depth=1
	movl	-12(%rbp), %eax
	cmpl	PicSizeInMapUnits, %eax
	jae	.LBB63_4
# %bb.2:                                # %for.body
                                        #   in Loop: Header=BB63_1 Depth=1
	movq	-24(%rbp), %rax
	movl	60(%rax), %eax
	movq	MapUnitToSliceGroupMap, %rcx
	movl	-12(%rbp), %edx
	movb	%al, (%rcx,%rdx)
# %bb.3:                                # %for.inc
                                        #   in Loop: Header=BB63_1 Depth=1
	movl	-12(%rbp), %eax
	addl	$1, %eax
	movl	%eax, -12(%rbp)
	jmp	.LBB63_1
.LBB63_4:                               # %for.end
	movq	-24(%rbp), %rax
	movl	60(%rax), %eax
	subl	$1, %eax
	movl	%eax, -4(%rbp)
.LBB63_5:                               # %for.cond2
                                        # =>This Loop Header: Depth=1
                                        #     Child Loop BB63_7 Depth 2
                                        #       Child Loop BB63_9 Depth 3
	cmpl	$0, -4(%rbp)
	jl	.LBB63_16
# %bb.6:                                # %for.body5
                                        #   in Loop: Header=BB63_5 Depth=1
	movq	-24(%rbp), %rax
	movslq	-4(%rbp), %rcx
	movl	100(%rax,%rcx,4), %eax
	movq	-32(%rbp), %rcx
	xorl	%edx, %edx
	divl	72468(%rcx)
	movl	%eax, -48(%rbp)
	movq	-24(%rbp), %rax
	movslq	-4(%rbp), %rcx
	movl	100(%rax,%rcx,4), %eax
	movq	-32(%rbp), %rcx
	xorl	%edx, %edx
	divl	72468(%rcx)
	movl	%edx, -36(%rbp)
	movq	-24(%rbp), %rax
	movslq	-4(%rbp), %rcx
	movl	132(%rax,%rcx,4), %eax
	movq	-32(%rbp), %rcx
	xorl	%edx, %edx
	divl	72468(%rcx)
	movl	%eax, -40(%rbp)
	movq	-24(%rbp), %rax
	movslq	-4(%rbp), %rcx
	movl	132(%rax,%rcx,4), %eax
	movq	-32(%rbp), %rcx
	xorl	%edx, %edx
	divl	72468(%rcx)
	movl	%edx, -44(%rbp)
	movl	-48(%rbp), %eax
	movl	%eax, -16(%rbp)
.LBB63_7:                               # %for.cond21
                                        #   Parent Loop BB63_5 Depth=1
                                        # =>  This Loop Header: Depth=2
                                        #       Child Loop BB63_9 Depth 3
	movl	-16(%rbp), %eax
	cmpl	-40(%rbp), %eax
	ja	.LBB63_14
# %bb.8:                                # %for.body24
                                        #   in Loop: Header=BB63_7 Depth=2
	movl	-36(%rbp), %eax
	movl	%eax, -8(%rbp)
.LBB63_9:                               # %for.cond25
                                        #   Parent Loop BB63_5 Depth=1
                                        #     Parent Loop BB63_7 Depth=2
                                        # =>    This Inner Loop Header: Depth=3
	movl	-8(%rbp), %eax
	cmpl	-44(%rbp), %eax
	ja	.LBB63_12
# %bb.10:                               # %for.body28
                                        #   in Loop: Header=BB63_9 Depth=3
	movl	-4(%rbp), %eax
	movq	MapUnitToSliceGroupMap, %rcx
	movl	-16(%rbp), %edx
	movq	-32(%rbp), %rsi
	imull	72468(%rsi), %edx
	addl	-8(%rbp), %edx
	movl	%edx, %edx
	movb	%al, (%rcx,%rdx)
# %bb.11:                               # %for.inc33
                                        #   in Loop: Header=BB63_9 Depth=3
	movl	-8(%rbp), %eax
	addl	$1, %eax
	movl	%eax, -8(%rbp)
	jmp	.LBB63_9
.LBB63_12:                              # %for.end35
                                        #   in Loop: Header=BB63_7 Depth=2
	jmp	.LBB63_13
.LBB63_13:                              # %for.inc36
                                        #   in Loop: Header=BB63_7 Depth=2
	movl	-16(%rbp), %eax
	addl	$1, %eax
	movl	%eax, -16(%rbp)
	jmp	.LBB63_7
.LBB63_14:                              # %for.end38
                                        #   in Loop: Header=BB63_5 Depth=1
	jmp	.LBB63_15
.LBB63_15:                              # %for.inc39
                                        #   in Loop: Header=BB63_5 Depth=1
	movl	-4(%rbp), %eax
	addl	$-1, %eax
	movl	%eax, -4(%rbp)
	jmp	.LBB63_5
.LBB63_16:                              # %for.end40
	cmpl	$1586830409, -52(%rbp)  # imm = 0x5E951C49
	jne	.LBB63_18
.LBB63_17:
	addq	$64, %rsp
	popq	%rbp
	.cfi_def_cfa %rsp, 8
	retq
.LBB63_18:                              # %func_exit
	.cfi_def_cfa %rbp, 16
	callq	detect_breach
	jmp	.LBB63_17
.Lfunc_end63:
	.size	FmoGenerateType2MapUnitMap.43, .Lfunc_end63-FmoGenerateType2MapUnitMap.43
	.cfi_endproc
                                        # -- End function
	.p2align	4, 0x90         # -- Begin function FmoGenerateType0MapUnitMap.44
	.type	FmoGenerateType0MapUnitMap.44,@function
FmoGenerateType0MapUnitMap.44:          # @FmoGenerateType0MapUnitMap.44
	.cfi_startproc
# %bb.0:                                # %entry
	pushq	%rbp
	.cfi_def_cfa_offset 16
	.cfi_offset %rbp, -16
	movq	%rsp, %rbp
	.cfi_def_cfa_register %rbp
	subq	$48, %rsp
	movl	$1537549184, -28(%rbp)  # imm = 0x5BA52380
	movq	%rdi, -40(%rbp)
	movq	%rsi, -24(%rbp)
	movl	$0, -4(%rbp)
.LBB64_1:                               # %do.body
                                        # =>This Loop Header: Depth=1
                                        #     Child Loop BB64_2 Depth 2
                                        #       Child Loop BB64_6 Depth 3
	movl	$0, -12(%rbp)
.LBB64_2:                               # %for.cond
                                        #   Parent Loop BB64_1 Depth=1
                                        # =>  This Loop Header: Depth=2
                                        #       Child Loop BB64_6 Depth 3
	xorl	%eax, %eax
	movl	-12(%rbp), %ecx
	movq	-24(%rbp), %rdx
	cmpl	60(%rdx), %ecx
	ja	.LBB64_4
# %bb.3:                                # %land.rhs
                                        #   in Loop: Header=BB64_2 Depth=2
	movl	-4(%rbp), %eax
	cmpl	PicSizeInMapUnits, %eax
	setb	%al
.LBB64_4:                               # %land.end
                                        #   in Loop: Header=BB64_2 Depth=2
	testb	$1, %al
	jne	.LBB64_5
	jmp	.LBB64_13
.LBB64_5:                               # %for.body
                                        #   in Loop: Header=BB64_2 Depth=2
	movl	$0, -8(%rbp)
.LBB64_6:                               # %for.cond2
                                        #   Parent Loop BB64_1 Depth=1
                                        #     Parent Loop BB64_2 Depth=2
                                        # =>    This Inner Loop Header: Depth=3
	xorl	%eax, %eax
	movl	-8(%rbp), %ecx
	movq	-24(%rbp), %rdx
	movl	-12(%rbp), %esi
	cmpl	68(%rdx,%rsi,4), %ecx
	ja	.LBB64_8
# %bb.7:                                # %land.rhs4
                                        #   in Loop: Header=BB64_6 Depth=3
	movl	-4(%rbp), %eax
	addl	-8(%rbp), %eax
	cmpl	PicSizeInMapUnits, %eax
	setb	%al
.LBB64_8:                               # %land.end6
                                        #   in Loop: Header=BB64_6 Depth=3
	testb	$1, %al
	jne	.LBB64_9
	jmp	.LBB64_11
.LBB64_9:                               # %for.body7
                                        #   in Loop: Header=BB64_6 Depth=3
	movl	-12(%rbp), %eax
	movq	MapUnitToSliceGroupMap, %rcx
	movl	-4(%rbp), %edx
	addl	-8(%rbp), %edx
	movl	%edx, %edx
	movb	%al, (%rcx,%rdx)
# %bb.10:                               # %for.inc
                                        #   in Loop: Header=BB64_6 Depth=3
	movl	-8(%rbp), %eax
	addl	$1, %eax
	movl	%eax, -8(%rbp)
	jmp	.LBB64_6
.LBB64_11:                              # %for.end
                                        #   in Loop: Header=BB64_2 Depth=2
	jmp	.LBB64_12
.LBB64_12:                              # %for.inc11
                                        #   in Loop: Header=BB64_2 Depth=2
	movq	-24(%rbp), %rax
	movl	-12(%rbp), %ecx
	movl	%ecx, %edx
	addl	$1, %edx
	movl	%edx, -12(%rbp)
	movl	%ecx, %ecx
	movl	68(%rax,%rcx,4), %eax
	addl	$1, %eax
	addl	-4(%rbp), %eax
	movl	%eax, -4(%rbp)
	jmp	.LBB64_2
.LBB64_13:                              # %for.end18
                                        #   in Loop: Header=BB64_1 Depth=1
	jmp	.LBB64_14
.LBB64_14:                              # %do.cond
                                        #   in Loop: Header=BB64_1 Depth=1
	movl	-4(%rbp), %eax
	cmpl	PicSizeInMapUnits, %eax
	jb	.LBB64_1
# %bb.15:                               # %do.end
	cmpl	$1537549184, -28(%rbp)  # imm = 0x5BA52380
	jne	.LBB64_17
.LBB64_16:
	addq	$48, %rsp
	popq	%rbp
	.cfi_def_cfa %rsp, 8
	retq
.LBB64_17:                              # %func_exit
	.cfi_def_cfa %rbp, 16
	callq	detect_breach
	jmp	.LBB64_16
.Lfunc_end64:
	.size	FmoGenerateType0MapUnitMap.44, .Lfunc_end64-FmoGenerateType0MapUnitMap.44
	.cfi_endproc
                                        # -- End function
	.p2align	4, 0x90         # -- Begin function FmoGenerateType0MapUnitMap.45
	.type	FmoGenerateType0MapUnitMap.45,@function
FmoGenerateType0MapUnitMap.45:          # @FmoGenerateType0MapUnitMap.45
	.cfi_startproc
# %bb.0:                                # %entry
	pushq	%rbp
	.cfi_def_cfa_offset 16
	.cfi_offset %rbp, -16
	movq	%rsp, %rbp
	.cfi_def_cfa_register %rbp
	subq	$48, %rsp
	movl	$349171288, -28(%rbp)   # imm = 0x14CFEE58
	movq	%rdi, -40(%rbp)
	movq	%rsi, -24(%rbp)
	movl	$0, -4(%rbp)
.LBB65_1:                               # %do.body
                                        # =>This Loop Header: Depth=1
                                        #     Child Loop BB65_2 Depth 2
                                        #       Child Loop BB65_6 Depth 3
	movl	$0, -8(%rbp)
.LBB65_2:                               # %for.cond
                                        #   Parent Loop BB65_1 Depth=1
                                        # =>  This Loop Header: Depth=2
                                        #       Child Loop BB65_6 Depth 3
	xorl	%eax, %eax
	movl	-8(%rbp), %ecx
	movq	-24(%rbp), %rdx
	cmpl	60(%rdx), %ecx
	ja	.LBB65_4
# %bb.3:                                # %land.rhs
                                        #   in Loop: Header=BB65_2 Depth=2
	movl	-4(%rbp), %eax
	cmpl	PicSizeInMapUnits, %eax
	setb	%al
.LBB65_4:                               # %land.end
                                        #   in Loop: Header=BB65_2 Depth=2
	testb	$1, %al
	jne	.LBB65_5
	jmp	.LBB65_13
.LBB65_5:                               # %for.body
                                        #   in Loop: Header=BB65_2 Depth=2
	movl	$0, -12(%rbp)
.LBB65_6:                               # %for.cond2
                                        #   Parent Loop BB65_1 Depth=1
                                        #     Parent Loop BB65_2 Depth=2
                                        # =>    This Inner Loop Header: Depth=3
	xorl	%eax, %eax
	movl	-12(%rbp), %ecx
	movq	-24(%rbp), %rdx
	movl	-8(%rbp), %esi
	cmpl	68(%rdx,%rsi,4), %ecx
	ja	.LBB65_8
# %bb.7:                                # %land.rhs4
                                        #   in Loop: Header=BB65_6 Depth=3
	movl	-4(%rbp), %eax
	addl	-12(%rbp), %eax
	cmpl	PicSizeInMapUnits, %eax
	setb	%al
.LBB65_8:                               # %land.end6
                                        #   in Loop: Header=BB65_6 Depth=3
	testb	$1, %al
	jne	.LBB65_9
	jmp	.LBB65_11
.LBB65_9:                               # %for.body7
                                        #   in Loop: Header=BB65_6 Depth=3
	movl	-8(%rbp), %eax
	movq	MapUnitToSliceGroupMap, %rcx
	movl	-4(%rbp), %edx
	addl	-12(%rbp), %edx
	movl	%edx, %edx
	movb	%al, (%rcx,%rdx)
# %bb.10:                               # %for.inc
                                        #   in Loop: Header=BB65_6 Depth=3
	movl	-12(%rbp), %eax
	addl	$1, %eax
	movl	%eax, -12(%rbp)
	jmp	.LBB65_6
.LBB65_11:                              # %for.end
                                        #   in Loop: Header=BB65_2 Depth=2
	jmp	.LBB65_12
.LBB65_12:                              # %for.inc11
                                        #   in Loop: Header=BB65_2 Depth=2
	movq	-24(%rbp), %rax
	movl	-8(%rbp), %ecx
	movl	%ecx, %edx
	addl	$1, %edx
	movl	%edx, -8(%rbp)
	movl	%ecx, %ecx
	movl	68(%rax,%rcx,4), %eax
	addl	$1, %eax
	addl	-4(%rbp), %eax
	movl	%eax, -4(%rbp)
	jmp	.LBB65_2
.LBB65_13:                              # %for.end18
                                        #   in Loop: Header=BB65_1 Depth=1
	jmp	.LBB65_14
.LBB65_14:                              # %do.cond
                                        #   in Loop: Header=BB65_1 Depth=1
	movl	-4(%rbp), %eax
	cmpl	PicSizeInMapUnits, %eax
	jb	.LBB65_1
# %bb.15:                               # %do.end
	cmpl	$349171288, -28(%rbp)   # imm = 0x14CFEE58
	jne	.LBB65_17
.LBB65_16:
	addq	$48, %rsp
	popq	%rbp
	.cfi_def_cfa %rsp, 8
	retq
.LBB65_17:                              # %func_exit
	.cfi_def_cfa %rbp, 16
	callq	detect_breach
	jmp	.LBB65_16
.Lfunc_end65:
	.size	FmoGenerateType0MapUnitMap.45, .Lfunc_end65-FmoGenerateType0MapUnitMap.45
	.cfi_endproc
                                        # -- End function
	.p2align	4, 0x90         # -- Begin function FmoGenerateType6MapUnitMap.46
	.type	FmoGenerateType6MapUnitMap.46,@function
FmoGenerateType6MapUnitMap.46:          # @FmoGenerateType6MapUnitMap.46
	.cfi_startproc
# %bb.0:                                # %entry
	pushq	%rbp
	.cfi_def_cfa_offset 16
	.cfi_offset %rbp, -16
	movq	%rsp, %rbp
	.cfi_def_cfa_register %rbp
	subq	$32, %rsp
	movl	$484954159, -8(%rbp)    # imm = 0x1CE7D02F
	movq	%rdi, -24(%rbp)
	movq	%rsi, -16(%rbp)
	movl	$0, -4(%rbp)
.LBB66_1:                               # %for.cond
                                        # =>This Inner Loop Header: Depth=1
	movl	-4(%rbp), %eax
	cmpl	PicSizeInMapUnits, %eax
	jae	.LBB66_4
# %bb.2:                                # %for.body
                                        #   in Loop: Header=BB66_1 Depth=1
	movq	-16(%rbp), %rax
	movq	176(%rax), %rax
	movl	-4(%rbp), %ecx
	movb	(%rax,%rcx), %al
	movq	MapUnitToSliceGroupMap, %rcx
	movl	-4(%rbp), %edx
	movb	%al, (%rcx,%rdx)
# %bb.3:                                # %for.inc
                                        #   in Loop: Header=BB66_1 Depth=1
	movl	-4(%rbp), %eax
	addl	$1, %eax
	movl	%eax, -4(%rbp)
	jmp	.LBB66_1
.LBB66_4:                               # %for.end
	cmpl	$484954159, -8(%rbp)    # imm = 0x1CE7D02F
	jne	.LBB66_6
.LBB66_5:
	addq	$32, %rsp
	popq	%rbp
	.cfi_def_cfa %rsp, 8
	retq
.LBB66_6:                               # %func_exit
	.cfi_def_cfa %rbp, 16
	callq	detect_breach
	jmp	.LBB66_5
.Lfunc_end66:
	.size	FmoGenerateType6MapUnitMap.46, .Lfunc_end66-FmoGenerateType6MapUnitMap.46
	.cfi_endproc
                                        # -- End function
	.p2align	4, 0x90         # -- Begin function FmoGenerateType3MapUnitMap.47
	.type	FmoGenerateType3MapUnitMap.47,@function
FmoGenerateType3MapUnitMap.47:          # @FmoGenerateType3MapUnitMap.47
	.cfi_startproc
# %bb.0:                                # %entry
	pushq	%rbp
	.cfi_def_cfa_offset 16
	.cfi_offset %rbp, -16
	movq	%rsp, %rbp
	.cfi_def_cfa_register %rbp
	subq	$80, %rsp
	movl	$2014764132, -64(%rbp)  # imm = 0x7816DC64
	movq	%rdi, -48(%rbp)
	movq	%rsi, -40(%rbp)
	movq	-40(%rbp), %rax
	movl	168(%rax), %eax
	addl	$1, %eax
	movq	-48(%rbp), %rcx
	imull	72652(%rcx), %eax
	cmpl	PicSizeInMapUnits, %eax
	jae	.LBB67_2
# %bb.1:                                # %cond.true
	movq	-40(%rbp), %rax
	movl	168(%rax), %eax
	addl	$1, %eax
	movq	-48(%rbp), %rcx
	imull	72652(%rcx), %eax
	jmp	.LBB67_3
.LBB67_2:                               # %cond.false
	movl	PicSizeInMapUnits, %eax
.LBB67_3:                               # %cond.end
	movl	%eax, -68(%rbp)
	movl	$0, -56(%rbp)
.LBB67_4:                               # %for.cond
                                        # =>This Inner Loop Header: Depth=1
	movl	-56(%rbp), %eax
	cmpl	PicSizeInMapUnits, %eax
	jae	.LBB67_7
# %bb.5:                                # %for.body
                                        #   in Loop: Header=BB67_4 Depth=1
	movq	MapUnitToSliceGroupMap, %rax
	movl	-56(%rbp), %ecx
	movb	$2, (%rax,%rcx)
# %bb.6:                                # %for.inc
                                        #   in Loop: Header=BB67_4 Depth=1
	movl	-56(%rbp), %eax
	addl	$1, %eax
	movl	%eax, -56(%rbp)
	jmp	.LBB67_4
.LBB67_7:                               # %for.end
	movq	-48(%rbp), %rax
	movl	72468(%rax), %eax
	movq	-40(%rbp), %rcx
	subl	164(%rcx), %eax
	shrl	$1, %eax
	movl	%eax, -4(%rbp)
	movq	-48(%rbp), %rax
	movl	72472(%rax), %eax
	movq	-40(%rbp), %rcx
	subl	164(%rcx), %eax
	shrl	$1, %eax
	movl	%eax, -8(%rbp)
	movl	-4(%rbp), %eax
	movl	%eax, -28(%rbp)
	movl	-8(%rbp), %eax
	movl	%eax, -32(%rbp)
	movl	-4(%rbp), %eax
	movl	%eax, -20(%rbp)
	movl	-8(%rbp), %eax
	movl	%eax, -24(%rbp)
	movq	-40(%rbp), %rax
	movl	164(%rax), %eax
	subl	$1, %eax
	movl	%eax, -16(%rbp)
	movq	-40(%rbp), %rax
	movl	164(%rax), %eax
	movl	%eax, -12(%rbp)
	movl	$0, -52(%rbp)
.LBB67_8:                               # %for.cond12
                                        # =>This Inner Loop Header: Depth=1
	movl	-52(%rbp), %eax
	cmpl	PicSizeInMapUnits, %eax
	jae	.LBB67_41
# %bb.9:                                # %for.body14
                                        #   in Loop: Header=BB67_8 Depth=1
	movq	MapUnitToSliceGroupMap, %rax
	movl	-8(%rbp), %ecx
	movq	-48(%rbp), %rdx
	imull	72468(%rdx), %ecx
	addl	-4(%rbp), %ecx
	movl	%ecx, %ecx
	movzbl	(%rax,%rcx), %eax
	cmpl	$2, %eax
	sete	%al
	andb	$1, %al
	movzbl	%al, %eax
	movl	%eax, -60(%rbp)
	cmpl	$0, -60(%rbp)
	je	.LBB67_11
# %bb.10:                               # %if.then
                                        #   in Loop: Header=BB67_8 Depth=1
	movl	-52(%rbp), %eax
	cmpl	-68(%rbp), %eax
	setae	%al
	andb	$1, %al
	movzbl	%al, %eax
	movq	MapUnitToSliceGroupMap, %rcx
	movl	-8(%rbp), %edx
	movq	-48(%rbp), %rsi
	imull	72468(%rsi), %edx
	addl	-4(%rbp), %edx
	movl	%edx, %edx
	movb	%al, (%rcx,%rdx)
.LBB67_11:                              # %if.end
                                        #   in Loop: Header=BB67_8 Depth=1
	cmpl	$-1, -16(%rbp)
	jne	.LBB67_17
# %bb.12:                               # %land.lhs.true
                                        #   in Loop: Header=BB67_8 Depth=1
	movl	-4(%rbp), %eax
	cmpl	-28(%rbp), %eax
	jne	.LBB67_17
# %bb.13:                               # %if.then34
                                        #   in Loop: Header=BB67_8 Depth=1
	movl	-28(%rbp), %eax
	subl	$1, %eax
	cmpl	$0, %eax
	jle	.LBB67_15
# %bb.14:                               # %cond.true38
                                        #   in Loop: Header=BB67_8 Depth=1
	movl	-28(%rbp), %eax
	subl	$1, %eax
	jmp	.LBB67_16
.LBB67_15:                              # %cond.false40
                                        #   in Loop: Header=BB67_8 Depth=1
	xorl	%eax, %eax
	jmp	.LBB67_16
.LBB67_16:                              # %cond.end41
                                        #   in Loop: Header=BB67_8 Depth=1
	movl	%eax, -28(%rbp)
	movl	-28(%rbp), %eax
	movl	%eax, -4(%rbp)
	movl	$0, -16(%rbp)
	movq	-40(%rbp), %rax
	movl	164(%rax), %eax
	shll	$1, %eax
	subl	$1, %eax
	movl	%eax, -12(%rbp)
	jmp	.LBB67_39
.LBB67_17:                              # %if.else
                                        #   in Loop: Header=BB67_8 Depth=1
	cmpl	$1, -16(%rbp)
	jne	.LBB67_23
# %bb.18:                               # %land.lhs.true48
                                        #   in Loop: Header=BB67_8 Depth=1
	movl	-4(%rbp), %eax
	cmpl	-20(%rbp), %eax
	jne	.LBB67_23
# %bb.19:                               # %if.then51
                                        #   in Loop: Header=BB67_8 Depth=1
	movl	-20(%rbp), %eax
	addl	$1, %eax
	movq	-48(%rbp), %rcx
	movl	72468(%rcx), %ecx
	subl	$1, %ecx
	cmpl	%ecx, %eax
	jge	.LBB67_21
# %bb.20:                               # %cond.true57
                                        #   in Loop: Header=BB67_8 Depth=1
	movl	-20(%rbp), %eax
	addl	$1, %eax
	jmp	.LBB67_22
.LBB67_21:                              # %cond.false59
                                        #   in Loop: Header=BB67_8 Depth=1
	movq	-48(%rbp), %rax
	movl	72468(%rax), %eax
	subl	$1, %eax
.LBB67_22:                              # %cond.end62
                                        #   in Loop: Header=BB67_8 Depth=1
	movl	%eax, -20(%rbp)
	movl	-20(%rbp), %eax
	movl	%eax, -4(%rbp)
	movl	$0, -16(%rbp)
	movq	-40(%rbp), %rax
	movl	164(%rax), %eax
	shll	$1, %eax
	movl	$1, %ecx
	subl	%eax, %ecx
	movl	%ecx, -12(%rbp)
	jmp	.LBB67_38
.LBB67_23:                              # %if.else67
                                        #   in Loop: Header=BB67_8 Depth=1
	cmpl	$-1, -12(%rbp)
	jne	.LBB67_29
# %bb.24:                               # %land.lhs.true70
                                        #   in Loop: Header=BB67_8 Depth=1
	movl	-8(%rbp), %eax
	cmpl	-32(%rbp), %eax
	jne	.LBB67_29
# %bb.25:                               # %if.then73
                                        #   in Loop: Header=BB67_8 Depth=1
	movl	-32(%rbp), %eax
	subl	$1, %eax
	cmpl	$0, %eax
	jle	.LBB67_27
# %bb.26:                               # %cond.true77
                                        #   in Loop: Header=BB67_8 Depth=1
	movl	-32(%rbp), %eax
	subl	$1, %eax
	jmp	.LBB67_28
.LBB67_27:                              # %cond.false79
                                        #   in Loop: Header=BB67_8 Depth=1
	xorl	%eax, %eax
	jmp	.LBB67_28
.LBB67_28:                              # %cond.end80
                                        #   in Loop: Header=BB67_8 Depth=1
	movl	%eax, -32(%rbp)
	movl	-32(%rbp), %eax
	movl	%eax, -8(%rbp)
	movq	-40(%rbp), %rax
	movl	164(%rax), %eax
	shll	$1, %eax
	movl	$1, %ecx
	subl	%eax, %ecx
	movl	%ecx, -16(%rbp)
	movl	$0, -12(%rbp)
	jmp	.LBB67_37
.LBB67_29:                              # %if.else85
                                        #   in Loop: Header=BB67_8 Depth=1
	cmpl	$1, -12(%rbp)
	jne	.LBB67_35
# %bb.30:                               # %land.lhs.true88
                                        #   in Loop: Header=BB67_8 Depth=1
	movl	-8(%rbp), %eax
	cmpl	-24(%rbp), %eax
	jne	.LBB67_35
# %bb.31:                               # %if.then91
                                        #   in Loop: Header=BB67_8 Depth=1
	movl	-24(%rbp), %eax
	addl	$1, %eax
	movq	-48(%rbp), %rcx
	movl	72472(%rcx), %ecx
	subl	$1, %ecx
	cmpl	%ecx, %eax
	jge	.LBB67_33
# %bb.32:                               # %cond.true97
                                        #   in Loop: Header=BB67_8 Depth=1
	movl	-24(%rbp), %eax
	addl	$1, %eax
	jmp	.LBB67_34
.LBB67_33:                              # %cond.false99
                                        #   in Loop: Header=BB67_8 Depth=1
	movq	-48(%rbp), %rax
	movl	72472(%rax), %eax
	subl	$1, %eax
.LBB67_34:                              # %cond.end102
                                        #   in Loop: Header=BB67_8 Depth=1
	movl	%eax, -24(%rbp)
	movl	-24(%rbp), %eax
	movl	%eax, -8(%rbp)
	movq	-40(%rbp), %rax
	movl	164(%rax), %eax
	shll	$1, %eax
	subl	$1, %eax
	movl	%eax, -16(%rbp)
	movl	$0, -12(%rbp)
	jmp	.LBB67_36
.LBB67_35:                              # %if.else107
                                        #   in Loop: Header=BB67_8 Depth=1
	movl	-4(%rbp), %eax
	addl	-16(%rbp), %eax
	movl	%eax, -4(%rbp)
	movl	-8(%rbp), %eax
	addl	-12(%rbp), %eax
	movl	%eax, -8(%rbp)
.LBB67_36:                              # %if.end110
                                        #   in Loop: Header=BB67_8 Depth=1
	jmp	.LBB67_37
.LBB67_37:                              # %if.end111
                                        #   in Loop: Header=BB67_8 Depth=1
	jmp	.LBB67_38
.LBB67_38:                              # %if.end112
                                        #   in Loop: Header=BB67_8 Depth=1
	jmp	.LBB67_39
.LBB67_39:                              # %if.end113
                                        #   in Loop: Header=BB67_8 Depth=1
	jmp	.LBB67_40
.LBB67_40:                              # %for.inc114
                                        #   in Loop: Header=BB67_8 Depth=1
	movl	-60(%rbp), %eax
	addl	-52(%rbp), %eax
	movl	%eax, -52(%rbp)
	jmp	.LBB67_8
.LBB67_41:                              # %for.end116
	cmpl	$2014764132, -64(%rbp)  # imm = 0x7816DC64
	jne	.LBB67_43
.LBB67_42:
	addq	$80, %rsp
	popq	%rbp
	.cfi_def_cfa %rsp, 8
	retq
.LBB67_43:                              # %func_exit
	.cfi_def_cfa %rbp, 16
	callq	detect_breach
	jmp	.LBB67_42
.Lfunc_end67:
	.size	FmoGenerateType3MapUnitMap.47, .Lfunc_end67-FmoGenerateType3MapUnitMap.47
	.cfi_endproc
                                        # -- End function
	.p2align	4, 0x90         # -- Begin function FmoGenerateType0MapUnitMap.48
	.type	FmoGenerateType0MapUnitMap.48,@function
FmoGenerateType0MapUnitMap.48:          # @FmoGenerateType0MapUnitMap.48
	.cfi_startproc
# %bb.0:                                # %entry
	pushq	%rbp
	.cfi_def_cfa_offset 16
	.cfi_offset %rbp, -16
	movq	%rsp, %rbp
	.cfi_def_cfa_register %rbp
	subq	$48, %rsp
	movl	$691969597, -28(%rbp)   # imm = 0x293E9E3D
	movq	%rdi, -40(%rbp)
	movq	%rsi, -24(%rbp)
	movl	$0, -4(%rbp)
.LBB68_1:                               # %do.body
                                        # =>This Loop Header: Depth=1
                                        #     Child Loop BB68_2 Depth 2
                                        #       Child Loop BB68_6 Depth 3
	movl	$0, -12(%rbp)
.LBB68_2:                               # %for.cond
                                        #   Parent Loop BB68_1 Depth=1
                                        # =>  This Loop Header: Depth=2
                                        #       Child Loop BB68_6 Depth 3
	xorl	%eax, %eax
	movl	-12(%rbp), %ecx
	movq	-24(%rbp), %rdx
	cmpl	60(%rdx), %ecx
	ja	.LBB68_4
# %bb.3:                                # %land.rhs
                                        #   in Loop: Header=BB68_2 Depth=2
	movl	-4(%rbp), %eax
	cmpl	PicSizeInMapUnits, %eax
	setb	%al
.LBB68_4:                               # %land.end
                                        #   in Loop: Header=BB68_2 Depth=2
	testb	$1, %al
	jne	.LBB68_5
	jmp	.LBB68_13
.LBB68_5:                               # %for.body
                                        #   in Loop: Header=BB68_2 Depth=2
	movl	$0, -8(%rbp)
.LBB68_6:                               # %for.cond2
                                        #   Parent Loop BB68_1 Depth=1
                                        #     Parent Loop BB68_2 Depth=2
                                        # =>    This Inner Loop Header: Depth=3
	xorl	%eax, %eax
	movl	-8(%rbp), %ecx
	movq	-24(%rbp), %rdx
	movl	-12(%rbp), %esi
	cmpl	68(%rdx,%rsi,4), %ecx
	ja	.LBB68_8
# %bb.7:                                # %land.rhs4
                                        #   in Loop: Header=BB68_6 Depth=3
	movl	-4(%rbp), %eax
	addl	-8(%rbp), %eax
	cmpl	PicSizeInMapUnits, %eax
	setb	%al
.LBB68_8:                               # %land.end6
                                        #   in Loop: Header=BB68_6 Depth=3
	testb	$1, %al
	jne	.LBB68_9
	jmp	.LBB68_11
.LBB68_9:                               # %for.body7
                                        #   in Loop: Header=BB68_6 Depth=3
	movl	-12(%rbp), %eax
	movq	MapUnitToSliceGroupMap, %rcx
	movl	-4(%rbp), %edx
	addl	-8(%rbp), %edx
	movl	%edx, %edx
	movb	%al, (%rcx,%rdx)
# %bb.10:                               # %for.inc
                                        #   in Loop: Header=BB68_6 Depth=3
	movl	-8(%rbp), %eax
	addl	$1, %eax
	movl	%eax, -8(%rbp)
	jmp	.LBB68_6
.LBB68_11:                              # %for.end
                                        #   in Loop: Header=BB68_2 Depth=2
	jmp	.LBB68_12
.LBB68_12:                              # %for.inc11
                                        #   in Loop: Header=BB68_2 Depth=2
	movq	-24(%rbp), %rax
	movl	-12(%rbp), %ecx
	movl	%ecx, %edx
	addl	$1, %edx
	movl	%edx, -12(%rbp)
	movl	%ecx, %ecx
	movl	68(%rax,%rcx,4), %eax
	addl	$1, %eax
	addl	-4(%rbp), %eax
	movl	%eax, -4(%rbp)
	jmp	.LBB68_2
.LBB68_13:                              # %for.end18
                                        #   in Loop: Header=BB68_1 Depth=1
	jmp	.LBB68_14
.LBB68_14:                              # %do.cond
                                        #   in Loop: Header=BB68_1 Depth=1
	movl	-4(%rbp), %eax
	cmpl	PicSizeInMapUnits, %eax
	jb	.LBB68_1
# %bb.15:                               # %do.end
	cmpl	$691969597, -28(%rbp)   # imm = 0x293E9E3D
	jne	.LBB68_17
.LBB68_16:
	addq	$48, %rsp
	popq	%rbp
	.cfi_def_cfa %rsp, 8
	retq
.LBB68_17:                              # %func_exit
	.cfi_def_cfa %rbp, 16
	callq	detect_breach
	jmp	.LBB68_16
.Lfunc_end68:
	.size	FmoGenerateType0MapUnitMap.48, .Lfunc_end68-FmoGenerateType0MapUnitMap.48
	.cfi_endproc
                                        # -- End function
	.p2align	4, 0x90         # -- Begin function FmoGenerateType5MapUnitMap.49
	.type	FmoGenerateType5MapUnitMap.49,@function
FmoGenerateType5MapUnitMap.49:          # @FmoGenerateType5MapUnitMap.49
	.cfi_startproc
# %bb.0:                                # %entry
	pushq	%rbp
	.cfi_def_cfa_offset 16
	.cfi_offset %rbp, -16
	movq	%rsp, %rbp
	.cfi_def_cfa_register %rbp
	subq	$48, %rsp
	movl	$1181299734, -40(%rbp)  # imm = 0x46693416
	movq	%rdi, -16(%rbp)
	movq	%rsi, -24(%rbp)
	movq	-24(%rbp), %rax
	movl	168(%rax), %eax
	addl	$1, %eax
	movq	-16(%rbp), %rcx
	imull	72652(%rcx), %eax
	cmpl	PicSizeInMapUnits, %eax
	jae	.LBB69_2
# %bb.1:                                # %cond.true
	movq	-24(%rbp), %rax
	movl	168(%rax), %eax
	addl	$1, %eax
	movq	-16(%rbp), %rcx
	imull	72652(%rcx), %eax
	jmp	.LBB69_3
.LBB69_2:                               # %cond.false
	movl	PicSizeInMapUnits, %eax
.LBB69_3:                               # %cond.end
	movl	%eax, -28(%rbp)
	movq	-24(%rbp), %rax
	cmpl	$0, 164(%rax)
	je	.LBB69_5
# %bb.4:                                # %cond.true5
	movl	PicSizeInMapUnits, %eax
	subl	-28(%rbp), %eax
	jmp	.LBB69_6
.LBB69_5:                               # %cond.false6
	movl	-28(%rbp), %eax
.LBB69_6:                               # %cond.end7
	movl	%eax, -36(%rbp)
	movl	$0, -32(%rbp)
	movl	$0, -8(%rbp)
.LBB69_7:                               # %for.cond
                                        # =>This Loop Header: Depth=1
                                        #     Child Loop BB69_9 Depth 2
	movl	-8(%rbp), %eax
	movq	-16(%rbp), %rcx
	cmpl	72468(%rcx), %eax
	jae	.LBB69_17
# %bb.8:                                # %for.body
                                        #   in Loop: Header=BB69_7 Depth=1
	movl	$0, -4(%rbp)
.LBB69_9:                               # %for.cond10
                                        #   Parent Loop BB69_7 Depth=1
                                        # =>  This Inner Loop Header: Depth=2
	movl	-4(%rbp), %eax
	movq	-16(%rbp), %rcx
	cmpl	72472(%rcx), %eax
	jae	.LBB69_15
# %bb.10:                               # %for.body12
                                        #   in Loop: Header=BB69_9 Depth=2
	movl	-32(%rbp), %eax
	movl	%eax, %ecx
	addl	$1, %ecx
	movl	%ecx, -32(%rbp)
	cmpl	-36(%rbp), %eax
	jae	.LBB69_12
# %bb.11:                               # %if.then
                                        #   in Loop: Header=BB69_9 Depth=2
	movq	-24(%rbp), %rax
	movl	$1, %ecx
	subl	164(%rax), %ecx
	movq	MapUnitToSliceGroupMap, %rax
	movl	-4(%rbp), %edx
	movq	-16(%rbp), %rsi
	imull	72468(%rsi), %edx
	addl	-8(%rbp), %edx
	movl	%edx, %edx
	movb	%cl, (%rax,%rdx)
	jmp	.LBB69_13
.LBB69_12:                              # %if.else
                                        #   in Loop: Header=BB69_9 Depth=2
	movq	-24(%rbp), %rax
	movl	164(%rax), %eax
	movq	MapUnitToSliceGroupMap, %rcx
	movl	-4(%rbp), %edx
	movq	-16(%rbp), %rsi
	imull	72468(%rsi), %edx
	addl	-8(%rbp), %edx
	movl	%edx, %edx
	movb	%al, (%rcx,%rdx)
.LBB69_13:                              # %if.end
                                        #   in Loop: Header=BB69_9 Depth=2
	jmp	.LBB69_14
.LBB69_14:                              # %for.inc
                                        #   in Loop: Header=BB69_9 Depth=2
	movl	-4(%rbp), %eax
	addl	$1, %eax
	movl	%eax, -4(%rbp)
	jmp	.LBB69_9
.LBB69_15:                              # %for.end
                                        #   in Loop: Header=BB69_7 Depth=1
	jmp	.LBB69_16
.LBB69_16:                              # %for.inc27
                                        #   in Loop: Header=BB69_7 Depth=1
	movl	-8(%rbp), %eax
	addl	$1, %eax
	movl	%eax, -8(%rbp)
	jmp	.LBB69_7
.LBB69_17:                              # %for.end29
	cmpl	$1181299734, -40(%rbp)  # imm = 0x46693416
	jne	.LBB69_19
.LBB69_18:
	addq	$48, %rsp
	popq	%rbp
	.cfi_def_cfa %rsp, 8
	retq
.LBB69_19:                              # %func_exit
	.cfi_def_cfa %rbp, 16
	callq	detect_breach
	jmp	.LBB69_18
.Lfunc_end69:
	.size	FmoGenerateType5MapUnitMap.49, .Lfunc_end69-FmoGenerateType5MapUnitMap.49
	.cfi_endproc
                                        # -- End function
	.globl	FmoGetNextMBNr.50       # -- Begin function FmoGetNextMBNr.50
	.p2align	4, 0x90
	.type	FmoGetNextMBNr.50,@function
FmoGetNextMBNr.50:                      # @FmoGetNextMBNr.50
	.cfi_startproc
# %bb.0:                                # %entry
	pushq	%rbp
	.cfi_def_cfa_offset 16
	.cfi_offset %rbp, -16
	movq	%rsp, %rbp
	.cfi_def_cfa_register %rbp
	pushq	%rbx
	subq	$24, %rsp
	.cfi_offset %rbx, -24
	movl	$193744036, -20(%rbp)   # imm = 0xB8C4CA4
	movl	%edi, -12(%rbp)
	movl	-12(%rbp), %edi
	callq	FmoMB2SliceGroup
	movl	%eax, -24(%rbp)
.LBB70_1:                               # %while.cond
                                        # =>This Inner Loop Header: Depth=1
	xorl	%eax, %eax
	movl	-12(%rbp), %ecx
	addl	$1, %ecx
	movl	%ecx, -12(%rbp)
	movq	img, %rdx
	cmpl	72484(%rdx), %ecx
	jge	.LBB70_3
# %bb.2:                                # %land.rhs
                                        #   in Loop: Header=BB70_1 Depth=1
	movq	MBAmap, %rax
	movslq	-12(%rbp), %rcx
	movzbl	(%rax,%rcx), %eax
	cmpl	-24(%rbp), %eax
	setne	%al
.LBB70_3:                               # %land.end
                                        #   in Loop: Header=BB70_1 Depth=1
	testb	$1, %al
	jne	.LBB70_4
	jmp	.LBB70_5
.LBB70_4:                               # %while.body
                                        #   in Loop: Header=BB70_1 Depth=1
	jmp	.LBB70_1
.LBB70_5:                               # %while.end
	movl	-12(%rbp), %eax
	movq	img, %rcx
	cmpl	72484(%rcx), %eax
	jl	.LBB70_7
# %bb.6:                                # %if.then
	movl	$-1, -16(%rbp)
	jmp	.LBB70_8
.LBB70_7:                               # %if.else
	movl	-12(%rbp), %eax
	movl	%eax, -16(%rbp)
.LBB70_8:                               # %return
	movl	-16(%rbp), %ebx
	cmpl	$193744036, -20(%rbp)   # imm = 0xB8C4CA4
	jne	.LBB70_10
.LBB70_9:
	movl	%ebx, %eax
	addq	$24, %rsp
	popq	%rbx
	popq	%rbp
	.cfi_def_cfa %rsp, 8
	retq
.LBB70_10:                              # %func_exit
	.cfi_def_cfa %rbp, 16
	callq	detect_breach
	jmp	.LBB70_9
.Lfunc_end70:
	.size	FmoGetNextMBNr.50, .Lfunc_end70-FmoGetNextMBNr.50
	.cfi_endproc
                                        # -- End function
	.p2align	4, 0x90         # -- Begin function FmoGenerateMapUnitToSliceGroupMap.51
	.type	FmoGenerateMapUnitToSliceGroupMap.51,@function
FmoGenerateMapUnitToSliceGroupMap.51:   # @FmoGenerateMapUnitToSliceGroupMap.51
	.cfi_startproc
# %bb.0:                                # %entry
	pushq	%rbp
	.cfi_def_cfa_offset 16
	.cfi_offset %rbp, -16
	movq	%rsp, %rbp
	.cfi_def_cfa_register %rbp
	pushq	%rbx
	subq	$24, %rsp
	.cfi_offset %rbx, -24
	movl	$1362522049, -32(%rbp)  # imm = 0x51366FC1
	movq	%rdi, -24(%rbp)
	movq	%rsi, -16(%rbp)
	movq	-24(%rbp), %rax
	movl	72472(%rax), %eax
	movq	-24(%rbp), %rcx
	imull	72468(%rcx), %eax
	movl	%eax, PicSizeInMapUnits
	movq	-16(%rbp), %rax
	cmpl	$6, 64(%rax)
	jne	.LBB71_4
# %bb.1:                                # %if.then
	movq	-16(%rbp), %rax
	movl	172(%rax), %eax
	addl	$1, %eax
	cmpl	PicSizeInMapUnits, %eax
	je	.LBB71_3
# %bb.2:                                # %if.then2
	movabsq	$.L.str, %rdi
	movl	$500, %esi              # imm = 0x1F4
	callq	error
.LBB71_3:                               # %if.end
	jmp	.LBB71_4
.LBB71_4:                               # %if.end3
	cmpq	$0, MapUnitToSliceGroupMap
	je	.LBB71_6
# %bb.5:                                # %if.then4
	movq	MapUnitToSliceGroupMap, %rdi
	callq	free
.LBB71_6:                               # %if.end5
	movl	PicSizeInMapUnits, %edi
	shlq	$0, %rdi
	callq	malloc
	movq	%rax, MapUnitToSliceGroupMap
	cmpq	$0, %rax
	jne	.LBB71_8
# %bb.7:                                # %if.then9
	movl	PicSizeInMapUnits, %esi
	shlq	$0, %rsi
	movabsq	$.L.str.1, %rdi
	movb	$0, %al
	callq	printf
	movl	$4294967295, %edi       # imm = 0xFFFFFFFF
	callq	exit
.LBB71_8:                               # %if.end13
	movq	-16(%rbp), %rax
	cmpl	$0, 60(%rax)
	jne	.LBB71_10
# %bb.9:                                # %if.then16
	movq	MapUnitToSliceGroupMap, %rdi
	movl	PicSizeInMapUnits, %edx
	shlq	$0, %rdx
	xorl	%esi, %esi
	callq	memset
	movl	$0, -28(%rbp)
	jmp	.LBB71_21
.LBB71_10:                              # %if.end19
	movq	-16(%rbp), %rax
	movl	64(%rax), %eax
	movq	%rax, %rcx
	subq	$6, %rcx
	ja	.LBB71_19
# %bb.11:                               # %if.end19
	movq	.LJTI71_0(,%rax,8), %rax
	jmpq	*%rax
.LBB71_12:                              # %sw.bb
	movq	-24(%rbp), %rdi
	movq	-16(%rbp), %rsi
	callq	FmoGenerateType0MapUnitMap
	jmp	.LBB71_20
.LBB71_13:                              # %sw.bb21
	movq	-24(%rbp), %rdi
	movq	-16(%rbp), %rsi
	callq	FmoGenerateType1MapUnitMap
	jmp	.LBB71_20
.LBB71_14:                              # %sw.bb22
	movq	-24(%rbp), %rdi
	movq	-16(%rbp), %rsi
	callq	FmoGenerateType2MapUnitMap
	jmp	.LBB71_20
.LBB71_15:                              # %sw.bb23
	movq	-24(%rbp), %rdi
	movq	-16(%rbp), %rsi
	callq	FmoGenerateType3MapUnitMap
	jmp	.LBB71_20
.LBB71_16:                              # %sw.bb24
	movq	-24(%rbp), %rdi
	movq	-16(%rbp), %rsi
	callq	FmoGenerateType4MapUnitMap
	jmp	.LBB71_20
.LBB71_17:                              # %sw.bb25
	movq	-24(%rbp), %rdi
	movq	-16(%rbp), %rsi
	callq	FmoGenerateType5MapUnitMap
	jmp	.LBB71_20
.LBB71_18:                              # %sw.bb26
	movq	-24(%rbp), %rdi
	movq	-16(%rbp), %rsi
	callq	FmoGenerateType6MapUnitMap
	jmp	.LBB71_20
.LBB71_19:                              # %sw.default
	movq	-16(%rbp), %rax
	movl	64(%rax), %esi
	movabsq	$.L.str.2, %rdi
	movb	$0, %al
	callq	printf
	movl	$4294967295, %edi       # imm = 0xFFFFFFFF
	callq	exit
.LBB71_20:                              # %sw.epilog
	movl	$0, -28(%rbp)
.LBB71_21:                              # %return
	movl	-28(%rbp), %ebx
	cmpl	$1362522049, -32(%rbp)  # imm = 0x51366FC1
	jne	.LBB71_23
.LBB71_22:
	movl	%ebx, %eax
	addq	$24, %rsp
	popq	%rbx
	popq	%rbp
	.cfi_def_cfa %rsp, 8
	retq
.LBB71_23:                              # %func_exit
	.cfi_def_cfa %rbp, 16
	callq	detect_breach
	jmp	.LBB71_22
.Lfunc_end71:
	.size	FmoGenerateMapUnitToSliceGroupMap.51, .Lfunc_end71-FmoGenerateMapUnitToSliceGroupMap.51
	.cfi_endproc
	.section	.rodata,"a",@progbits
	.p2align	3
.LJTI71_0:
	.quad	.LBB71_12
	.quad	.LBB71_13
	.quad	.LBB71_14
	.quad	.LBB71_15
	.quad	.LBB71_16
	.quad	.LBB71_17
	.quad	.LBB71_18
                                        # -- End function
	.text
	.globl	FmoGetFirstMBOfSliceGroup.52 # -- Begin function FmoGetFirstMBOfSliceGroup.52
	.p2align	4, 0x90
	.type	FmoGetFirstMBOfSliceGroup.52,@function
FmoGetFirstMBOfSliceGroup.52:           # @FmoGetFirstMBOfSliceGroup.52
	.cfi_startproc
# %bb.0:                                # %entry
	pushq	%rbp
	.cfi_def_cfa_offset 16
	.cfi_offset %rbp, -16
	movq	%rsp, %rbp
	.cfi_def_cfa_register %rbp
	pushq	%rbx
	subq	$24, %rsp
	.cfi_offset %rbx, -24
	movl	$1854448815, -24(%rbp)  # imm = 0x6E88A4AF
	movl	%edi, -20(%rbp)
	movl	$0, -12(%rbp)
.LBB72_1:                               # %while.cond
                                        # =>This Inner Loop Header: Depth=1
	xorl	%eax, %eax
	movl	-12(%rbp), %ecx
	movq	img, %rdx
	cmpl	72484(%rdx), %ecx
	jge	.LBB72_3
# %bb.2:                                # %land.rhs
                                        #   in Loop: Header=BB72_1 Depth=1
	movl	-12(%rbp), %edi
	callq	FmoMB2SliceGroup
	cmpl	-20(%rbp), %eax
	setne	%al
.LBB72_3:                               # %land.end
                                        #   in Loop: Header=BB72_1 Depth=1
	testb	$1, %al
	jne	.LBB72_4
	jmp	.LBB72_5
.LBB72_4:                               # %while.body
                                        #   in Loop: Header=BB72_1 Depth=1
	movl	-12(%rbp), %eax
	addl	$1, %eax
	movl	%eax, -12(%rbp)
	jmp	.LBB72_1
.LBB72_5:                               # %while.end
	movl	-12(%rbp), %eax
	movq	img, %rcx
	cmpl	72484(%rcx), %eax
	jge	.LBB72_7
# %bb.6:                                # %if.then
	movl	-12(%rbp), %eax
	movl	%eax, -16(%rbp)
	jmp	.LBB72_8
.LBB72_7:                               # %if.else
	movl	$-1, -16(%rbp)
.LBB72_8:                               # %return
	movl	-16(%rbp), %ebx
	cmpl	$1854448815, -24(%rbp)  # imm = 0x6E88A4AF
	jne	.LBB72_10
.LBB72_9:
	movl	%ebx, %eax
	addq	$24, %rsp
	popq	%rbx
	popq	%rbp
	.cfi_def_cfa %rsp, 8
	retq
.LBB72_10:                              # %func_exit
	.cfi_def_cfa %rbp, 16
	callq	detect_breach
	jmp	.LBB72_9
.Lfunc_end72:
	.size	FmoGetFirstMBOfSliceGroup.52, .Lfunc_end72-FmoGetFirstMBOfSliceGroup.52
	.cfi_endproc
                                        # -- End function
	.p2align	4, 0x90         # -- Begin function FmoGenerateType0MapUnitMap.53
	.type	FmoGenerateType0MapUnitMap.53,@function
FmoGenerateType0MapUnitMap.53:          # @FmoGenerateType0MapUnitMap.53
	.cfi_startproc
# %bb.0:                                # %entry
	pushq	%rbp
	.cfi_def_cfa_offset 16
	.cfi_offset %rbp, -16
	movq	%rsp, %rbp
	.cfi_def_cfa_register %rbp
	subq	$48, %rsp
	movl	$1987811085, -28(%rbp)  # imm = 0x767B970D
	movq	%rdi, -40(%rbp)
	movq	%rsi, -24(%rbp)
	movl	$0, -4(%rbp)
.LBB73_1:                               # %do.body
                                        # =>This Loop Header: Depth=1
                                        #     Child Loop BB73_2 Depth 2
                                        #       Child Loop BB73_6 Depth 3
	movl	$0, -12(%rbp)
.LBB73_2:                               # %for.cond
                                        #   Parent Loop BB73_1 Depth=1
                                        # =>  This Loop Header: Depth=2
                                        #       Child Loop BB73_6 Depth 3
	xorl	%eax, %eax
	movl	-12(%rbp), %ecx
	movq	-24(%rbp), %rdx
	cmpl	60(%rdx), %ecx
	ja	.LBB73_4
# %bb.3:                                # %land.rhs
                                        #   in Loop: Header=BB73_2 Depth=2
	movl	-4(%rbp), %eax
	cmpl	PicSizeInMapUnits, %eax
	setb	%al
.LBB73_4:                               # %land.end
                                        #   in Loop: Header=BB73_2 Depth=2
	testb	$1, %al
	jne	.LBB73_5
	jmp	.LBB73_13
.LBB73_5:                               # %for.body
                                        #   in Loop: Header=BB73_2 Depth=2
	movl	$0, -8(%rbp)
.LBB73_6:                               # %for.cond2
                                        #   Parent Loop BB73_1 Depth=1
                                        #     Parent Loop BB73_2 Depth=2
                                        # =>    This Inner Loop Header: Depth=3
	xorl	%eax, %eax
	movl	-8(%rbp), %ecx
	movq	-24(%rbp), %rdx
	movl	-12(%rbp), %esi
	cmpl	68(%rdx,%rsi,4), %ecx
	ja	.LBB73_8
# %bb.7:                                # %land.rhs4
                                        #   in Loop: Header=BB73_6 Depth=3
	movl	-4(%rbp), %eax
	addl	-8(%rbp), %eax
	cmpl	PicSizeInMapUnits, %eax
	setb	%al
.LBB73_8:                               # %land.end6
                                        #   in Loop: Header=BB73_6 Depth=3
	testb	$1, %al
	jne	.LBB73_9
	jmp	.LBB73_11
.LBB73_9:                               # %for.body7
                                        #   in Loop: Header=BB73_6 Depth=3
	movl	-12(%rbp), %eax
	movq	MapUnitToSliceGroupMap, %rcx
	movl	-4(%rbp), %edx
	addl	-8(%rbp), %edx
	movl	%edx, %edx
	movb	%al, (%rcx,%rdx)
# %bb.10:                               # %for.inc
                                        #   in Loop: Header=BB73_6 Depth=3
	movl	-8(%rbp), %eax
	addl	$1, %eax
	movl	%eax, -8(%rbp)
	jmp	.LBB73_6
.LBB73_11:                              # %for.end
                                        #   in Loop: Header=BB73_2 Depth=2
	jmp	.LBB73_12
.LBB73_12:                              # %for.inc11
                                        #   in Loop: Header=BB73_2 Depth=2
	movq	-24(%rbp), %rax
	movl	-12(%rbp), %ecx
	movl	%ecx, %edx
	addl	$1, %edx
	movl	%edx, -12(%rbp)
	movl	%ecx, %ecx
	movl	68(%rax,%rcx,4), %eax
	addl	$1, %eax
	addl	-4(%rbp), %eax
	movl	%eax, -4(%rbp)
	jmp	.LBB73_2
.LBB73_13:                              # %for.end18
                                        #   in Loop: Header=BB73_1 Depth=1
	jmp	.LBB73_14
.LBB73_14:                              # %do.cond
                                        #   in Loop: Header=BB73_1 Depth=1
	movl	-4(%rbp), %eax
	cmpl	PicSizeInMapUnits, %eax
	jb	.LBB73_1
# %bb.15:                               # %do.end
	cmpl	$1987811085, -28(%rbp)  # imm = 0x767B970D
	jne	.LBB73_17
.LBB73_16:
	addq	$48, %rsp
	popq	%rbp
	.cfi_def_cfa %rsp, 8
	retq
.LBB73_17:                              # %func_exit
	.cfi_def_cfa %rbp, 16
	callq	detect_breach
	jmp	.LBB73_16
.Lfunc_end73:
	.size	FmoGenerateType0MapUnitMap.53, .Lfunc_end73-FmoGenerateType0MapUnitMap.53
	.cfi_endproc
                                        # -- End function
	.p2align	4, 0x90         # -- Begin function FmoGenerateType1MapUnitMap.54
	.type	FmoGenerateType1MapUnitMap.54,@function
FmoGenerateType1MapUnitMap.54:          # @FmoGenerateType1MapUnitMap.54
	.cfi_startproc
# %bb.0:                                # %entry
	pushq	%rbp
	.cfi_def_cfa_offset 16
	.cfi_offset %rbp, -16
	movq	%rsp, %rbp
	.cfi_def_cfa_register %rbp
	subq	$32, %rsp
	movl	$1383532043, -8(%rbp)   # imm = 0x5277060B
	movq	%rdi, -24(%rbp)
	movq	%rsi, -16(%rbp)
	movl	$0, -4(%rbp)
.LBB74_1:                               # %for.cond
                                        # =>This Inner Loop Header: Depth=1
	movl	-4(%rbp), %eax
	cmpl	PicSizeInMapUnits, %eax
	jae	.LBB74_4
# %bb.2:                                # %for.body
                                        #   in Loop: Header=BB74_1 Depth=1
	movl	-4(%rbp), %eax
	movq	-24(%rbp), %rcx
	xorl	%edx, %edx
	divl	72468(%rcx)
	movl	%edx, %ecx
	movl	-4(%rbp), %eax
	movq	-24(%rbp), %rsi
	xorl	%edx, %edx
	divl	72468(%rsi)
	movq	-16(%rbp), %rdx
	movl	60(%rdx), %edx
	addl	$1, %edx
	imull	%edx, %eax
	shrl	$1, %eax
	addl	%eax, %ecx
	movq	-16(%rbp), %rax
	movl	60(%rax), %esi
	addl	$1, %esi
	movl	%ecx, %eax
	xorl	%edx, %edx
	divl	%esi
	movq	MapUnitToSliceGroupMap, %rax
	movl	-4(%rbp), %ecx
	movb	%dl, (%rax,%rcx)
# %bb.3:                                # %for.inc
                                        #   in Loop: Header=BB74_1 Depth=1
	movl	-4(%rbp), %eax
	addl	$1, %eax
	movl	%eax, -4(%rbp)
	jmp	.LBB74_1
.LBB74_4:                               # %for.end
	cmpl	$1383532043, -8(%rbp)   # imm = 0x5277060B
	jne	.LBB74_6
.LBB74_5:
	addq	$32, %rsp
	popq	%rbp
	.cfi_def_cfa %rsp, 8
	retq
.LBB74_6:                               # %func_exit
	.cfi_def_cfa %rbp, 16
	callq	detect_breach
	jmp	.LBB74_5
.Lfunc_end74:
	.size	FmoGenerateType1MapUnitMap.54, .Lfunc_end74-FmoGenerateType1MapUnitMap.54
	.cfi_endproc
                                        # -- End function
	.p2align	4, 0x90         # -- Begin function FmoGenerateType2MapUnitMap.55
	.type	FmoGenerateType2MapUnitMap.55,@function
FmoGenerateType2MapUnitMap.55:          # @FmoGenerateType2MapUnitMap.55
	.cfi_startproc
# %bb.0:                                # %entry
	pushq	%rbp
	.cfi_def_cfa_offset 16
	.cfi_offset %rbp, -16
	movq	%rsp, %rbp
	.cfi_def_cfa_register %rbp
	subq	$64, %rsp
	movl	$971591161, -36(%rbp)   # imm = 0x39E94DF9
	movq	%rdi, -32(%rbp)
	movq	%rsi, -24(%rbp)
	movl	$0, -8(%rbp)
.LBB75_1:                               # %for.cond
                                        # =>This Inner Loop Header: Depth=1
	movl	-8(%rbp), %eax
	cmpl	PicSizeInMapUnits, %eax
	jae	.LBB75_4
# %bb.2:                                # %for.body
                                        #   in Loop: Header=BB75_1 Depth=1
	movq	-24(%rbp), %rax
	movl	60(%rax), %eax
	movq	MapUnitToSliceGroupMap, %rcx
	movl	-8(%rbp), %edx
	movb	%al, (%rcx,%rdx)
# %bb.3:                                # %for.inc
                                        #   in Loop: Header=BB75_1 Depth=1
	movl	-8(%rbp), %eax
	addl	$1, %eax
	movl	%eax, -8(%rbp)
	jmp	.LBB75_1
.LBB75_4:                               # %for.end
	movq	-24(%rbp), %rax
	movl	60(%rax), %eax
	subl	$1, %eax
	movl	%eax, -4(%rbp)
.LBB75_5:                               # %for.cond2
                                        # =>This Loop Header: Depth=1
                                        #     Child Loop BB75_7 Depth 2
                                        #       Child Loop BB75_9 Depth 3
	cmpl	$0, -4(%rbp)
	jl	.LBB75_16
# %bb.6:                                # %for.body5
                                        #   in Loop: Header=BB75_5 Depth=1
	movq	-24(%rbp), %rax
	movslq	-4(%rbp), %rcx
	movl	100(%rax,%rcx,4), %eax
	movq	-32(%rbp), %rcx
	xorl	%edx, %edx
	divl	72468(%rcx)
	movl	%eax, -44(%rbp)
	movq	-24(%rbp), %rax
	movslq	-4(%rbp), %rcx
	movl	100(%rax,%rcx,4), %eax
	movq	-32(%rbp), %rcx
	xorl	%edx, %edx
	divl	72468(%rcx)
	movl	%edx, -40(%rbp)
	movq	-24(%rbp), %rax
	movslq	-4(%rbp), %rcx
	movl	132(%rax,%rcx,4), %eax
	movq	-32(%rbp), %rcx
	xorl	%edx, %edx
	divl	72468(%rcx)
	movl	%eax, -48(%rbp)
	movq	-24(%rbp), %rax
	movslq	-4(%rbp), %rcx
	movl	132(%rax,%rcx,4), %eax
	movq	-32(%rbp), %rcx
	xorl	%edx, %edx
	divl	72468(%rcx)
	movl	%edx, -52(%rbp)
	movl	-44(%rbp), %eax
	movl	%eax, -12(%rbp)
.LBB75_7:                               # %for.cond21
                                        #   Parent Loop BB75_5 Depth=1
                                        # =>  This Loop Header: Depth=2
                                        #       Child Loop BB75_9 Depth 3
	movl	-12(%rbp), %eax
	cmpl	-48(%rbp), %eax
	ja	.LBB75_14
# %bb.8:                                # %for.body24
                                        #   in Loop: Header=BB75_7 Depth=2
	movl	-40(%rbp), %eax
	movl	%eax, -16(%rbp)
.LBB75_9:                               # %for.cond25
                                        #   Parent Loop BB75_5 Depth=1
                                        #     Parent Loop BB75_7 Depth=2
                                        # =>    This Inner Loop Header: Depth=3
	movl	-16(%rbp), %eax
	cmpl	-52(%rbp), %eax
	ja	.LBB75_12
# %bb.10:                               # %for.body28
                                        #   in Loop: Header=BB75_9 Depth=3
	movl	-4(%rbp), %eax
	movq	MapUnitToSliceGroupMap, %rcx
	movl	-12(%rbp), %edx
	movq	-32(%rbp), %rsi
	imull	72468(%rsi), %edx
	addl	-16(%rbp), %edx
	movl	%edx, %edx
	movb	%al, (%rcx,%rdx)
# %bb.11:                               # %for.inc33
                                        #   in Loop: Header=BB75_9 Depth=3
	movl	-16(%rbp), %eax
	addl	$1, %eax
	movl	%eax, -16(%rbp)
	jmp	.LBB75_9
.LBB75_12:                              # %for.end35
                                        #   in Loop: Header=BB75_7 Depth=2
	jmp	.LBB75_13
.LBB75_13:                              # %for.inc36
                                        #   in Loop: Header=BB75_7 Depth=2
	movl	-12(%rbp), %eax
	addl	$1, %eax
	movl	%eax, -12(%rbp)
	jmp	.LBB75_7
.LBB75_14:                              # %for.end38
                                        #   in Loop: Header=BB75_5 Depth=1
	jmp	.LBB75_15
.LBB75_15:                              # %for.inc39
                                        #   in Loop: Header=BB75_5 Depth=1
	movl	-4(%rbp), %eax
	addl	$-1, %eax
	movl	%eax, -4(%rbp)
	jmp	.LBB75_5
.LBB75_16:                              # %for.end40
	cmpl	$971591161, -36(%rbp)   # imm = 0x39E94DF9
	jne	.LBB75_18
.LBB75_17:
	addq	$64, %rsp
	popq	%rbp
	.cfi_def_cfa %rsp, 8
	retq
.LBB75_18:                              # %func_exit
	.cfi_def_cfa %rbp, 16
	callq	detect_breach
	jmp	.LBB75_17
.Lfunc_end75:
	.size	FmoGenerateType2MapUnitMap.55, .Lfunc_end75-FmoGenerateType2MapUnitMap.55
	.cfi_endproc
                                        # -- End function
	.p2align	4, 0x90         # -- Begin function FmoGenerateType4MapUnitMap.56
	.type	FmoGenerateType4MapUnitMap.56,@function
FmoGenerateType4MapUnitMap.56:          # @FmoGenerateType4MapUnitMap.56
	.cfi_startproc
# %bb.0:                                # %entry
	pushq	%rbp
	.cfi_def_cfa_offset 16
	.cfi_offset %rbp, -16
	movq	%rsp, %rbp
	.cfi_def_cfa_register %rbp
	subq	$48, %rsp
	movl	$884545588, -24(%rbp)   # imm = 0x34B91834
	movq	%rdi, -40(%rbp)
	movq	%rsi, -16(%rbp)
	movq	-16(%rbp), %rax
	movl	168(%rax), %eax
	addl	$1, %eax
	movq	-40(%rbp), %rcx
	imull	72652(%rcx), %eax
	cmpl	PicSizeInMapUnits, %eax
	jae	.LBB76_2
# %bb.1:                                # %cond.true
	movq	-16(%rbp), %rax
	movl	168(%rax), %eax
	addl	$1, %eax
	movq	-40(%rbp), %rcx
	imull	72652(%rcx), %eax
	jmp	.LBB76_3
.LBB76_2:                               # %cond.false
	movl	PicSizeInMapUnits, %eax
.LBB76_3:                               # %cond.end
	movl	%eax, -20(%rbp)
	movq	-16(%rbp), %rax
	cmpl	$0, 164(%rax)
	je	.LBB76_5
# %bb.4:                                # %cond.true5
	movl	PicSizeInMapUnits, %eax
	subl	-20(%rbp), %eax
	jmp	.LBB76_6
.LBB76_5:                               # %cond.false6
	movl	-20(%rbp), %eax
.LBB76_6:                               # %cond.end7
	movl	%eax, -28(%rbp)
	movl	$0, -4(%rbp)
.LBB76_7:                               # %for.cond
                                        # =>This Inner Loop Header: Depth=1
	movl	-4(%rbp), %eax
	cmpl	PicSizeInMapUnits, %eax
	jae	.LBB76_13
# %bb.8:                                # %for.body
                                        #   in Loop: Header=BB76_7 Depth=1
	movl	-4(%rbp), %eax
	cmpl	-28(%rbp), %eax
	jae	.LBB76_10
# %bb.9:                                # %if.then
                                        #   in Loop: Header=BB76_7 Depth=1
	movq	-16(%rbp), %rax
	movl	164(%rax), %eax
	movq	MapUnitToSliceGroupMap, %rcx
	movl	-4(%rbp), %edx
	movb	%al, (%rcx,%rdx)
	jmp	.LBB76_11
.LBB76_10:                              # %if.else
                                        #   in Loop: Header=BB76_7 Depth=1
	movq	-16(%rbp), %rax
	movl	$1, %ecx
	subl	164(%rax), %ecx
	movq	MapUnitToSliceGroupMap, %rax
	movl	-4(%rbp), %edx
	movb	%cl, (%rax,%rdx)
.LBB76_11:                              # %if.end
                                        #   in Loop: Header=BB76_7 Depth=1
	jmp	.LBB76_12
.LBB76_12:                              # %for.inc
                                        #   in Loop: Header=BB76_7 Depth=1
	movl	-4(%rbp), %eax
	addl	$1, %eax
	movl	%eax, -4(%rbp)
	jmp	.LBB76_7
.LBB76_13:                              # %for.end
	cmpl	$884545588, -24(%rbp)   # imm = 0x34B91834
	jne	.LBB76_15
.LBB76_14:
	addq	$48, %rsp
	popq	%rbp
	.cfi_def_cfa %rsp, 8
	retq
.LBB76_15:                              # %func_exit
	.cfi_def_cfa %rbp, 16
	callq	detect_breach
	jmp	.LBB76_14
.Lfunc_end76:
	.size	FmoGenerateType4MapUnitMap.56, .Lfunc_end76-FmoGenerateType4MapUnitMap.56
	.cfi_endproc
                                        # -- End function
	.p2align	4, 0x90         # -- Begin function FmoGenerateType0MapUnitMap.57
	.type	FmoGenerateType0MapUnitMap.57,@function
FmoGenerateType0MapUnitMap.57:          # @FmoGenerateType0MapUnitMap.57
	.cfi_startproc
# %bb.0:                                # %entry
	pushq	%rbp
	.cfi_def_cfa_offset 16
	.cfi_offset %rbp, -16
	movq	%rsp, %rbp
	.cfi_def_cfa_register %rbp
	subq	$48, %rsp
	movl	$419435635, -28(%rbp)   # imm = 0x19001473
	movq	%rdi, -40(%rbp)
	movq	%rsi, -24(%rbp)
	movl	$0, -4(%rbp)
.LBB77_1:                               # %do.body
                                        # =>This Loop Header: Depth=1
                                        #     Child Loop BB77_2 Depth 2
                                        #       Child Loop BB77_6 Depth 3
	movl	$0, -12(%rbp)
.LBB77_2:                               # %for.cond
                                        #   Parent Loop BB77_1 Depth=1
                                        # =>  This Loop Header: Depth=2
                                        #       Child Loop BB77_6 Depth 3
	xorl	%eax, %eax
	movl	-12(%rbp), %ecx
	movq	-24(%rbp), %rdx
	cmpl	60(%rdx), %ecx
	ja	.LBB77_4
# %bb.3:                                # %land.rhs
                                        #   in Loop: Header=BB77_2 Depth=2
	movl	-4(%rbp), %eax
	cmpl	PicSizeInMapUnits, %eax
	setb	%al
.LBB77_4:                               # %land.end
                                        #   in Loop: Header=BB77_2 Depth=2
	testb	$1, %al
	jne	.LBB77_5
	jmp	.LBB77_13
.LBB77_5:                               # %for.body
                                        #   in Loop: Header=BB77_2 Depth=2
	movl	$0, -8(%rbp)
.LBB77_6:                               # %for.cond2
                                        #   Parent Loop BB77_1 Depth=1
                                        #     Parent Loop BB77_2 Depth=2
                                        # =>    This Inner Loop Header: Depth=3
	xorl	%eax, %eax
	movl	-8(%rbp), %ecx
	movq	-24(%rbp), %rdx
	movl	-12(%rbp), %esi
	cmpl	68(%rdx,%rsi,4), %ecx
	ja	.LBB77_8
# %bb.7:                                # %land.rhs4
                                        #   in Loop: Header=BB77_6 Depth=3
	movl	-4(%rbp), %eax
	addl	-8(%rbp), %eax
	cmpl	PicSizeInMapUnits, %eax
	setb	%al
.LBB77_8:                               # %land.end6
                                        #   in Loop: Header=BB77_6 Depth=3
	testb	$1, %al
	jne	.LBB77_9
	jmp	.LBB77_11
.LBB77_9:                               # %for.body7
                                        #   in Loop: Header=BB77_6 Depth=3
	movl	-12(%rbp), %eax
	movq	MapUnitToSliceGroupMap, %rcx
	movl	-4(%rbp), %edx
	addl	-8(%rbp), %edx
	movl	%edx, %edx
	movb	%al, (%rcx,%rdx)
# %bb.10:                               # %for.inc
                                        #   in Loop: Header=BB77_6 Depth=3
	movl	-8(%rbp), %eax
	addl	$1, %eax
	movl	%eax, -8(%rbp)
	jmp	.LBB77_6
.LBB77_11:                              # %for.end
                                        #   in Loop: Header=BB77_2 Depth=2
	jmp	.LBB77_12
.LBB77_12:                              # %for.inc11
                                        #   in Loop: Header=BB77_2 Depth=2
	movq	-24(%rbp), %rax
	movl	-12(%rbp), %ecx
	movl	%ecx, %edx
	addl	$1, %edx
	movl	%edx, -12(%rbp)
	movl	%ecx, %ecx
	movl	68(%rax,%rcx,4), %eax
	addl	$1, %eax
	addl	-4(%rbp), %eax
	movl	%eax, -4(%rbp)
	jmp	.LBB77_2
.LBB77_13:                              # %for.end18
                                        #   in Loop: Header=BB77_1 Depth=1
	jmp	.LBB77_14
.LBB77_14:                              # %do.cond
                                        #   in Loop: Header=BB77_1 Depth=1
	movl	-4(%rbp), %eax
	cmpl	PicSizeInMapUnits, %eax
	jb	.LBB77_1
# %bb.15:                               # %do.end
	cmpl	$419435635, -28(%rbp)   # imm = 0x19001473
	jne	.LBB77_17
.LBB77_16:
	addq	$48, %rsp
	popq	%rbp
	.cfi_def_cfa %rsp, 8
	retq
