	.text
	.file	"header.c"
	.globl	SliceHeader             # -- Begin function SliceHeader
	.p2align	4, 0x90
	.type	SliceHeader,@function
SliceHeader:                            # @SliceHeader
	.cfi_startproc
# %bb.0:                                # %rand_bb
	pushq	%rbp
	.cfi_def_cfa_offset 16
	.cfi_offset %rbp, -16
	movq	%rsp, %rbp
	.cfi_def_cfa_register %rbp
	callq	get_urand
	cmpl	$0, %eax
	jne	.LBB0_17
# %bb.1:                                # %func_SliceHeader.6
	callq	SliceHeader.6
	popq	%rbp
	.cfi_def_cfa %rsp, 8
	retq
.LBB0_2:                                # %func_SliceHeader.7
	.cfi_def_cfa %rbp, 16
	callq	SliceHeader.7
	popq	%rbp
	.cfi_def_cfa %rsp, 8
	retq
.LBB0_3:                                # %func_SliceHeader.8
	.cfi_def_cfa %rbp, 16
	callq	SliceHeader.8
	popq	%rbp
	.cfi_def_cfa %rsp, 8
	retq
.LBB0_4:                                # %func_SliceHeader.11
	.cfi_def_cfa %rbp, 16
	callq	SliceHeader.11
	popq	%rbp
	.cfi_def_cfa %rsp, 8
	retq
.LBB0_5:                                # %func_SliceHeader.17
	.cfi_def_cfa %rbp, 16
	callq	SliceHeader.17
	popq	%rbp
	.cfi_def_cfa %rsp, 8
	retq
.LBB0_6:                                # %func_SliceHeader.19
	.cfi_def_cfa %rbp, 16
	callq	SliceHeader.19
	popq	%rbp
	.cfi_def_cfa %rsp, 8
	retq
.LBB0_7:                                # %func_SliceHeader.20
	.cfi_def_cfa %rbp, 16
	callq	SliceHeader.20
	popq	%rbp
	.cfi_def_cfa %rsp, 8
	retq
.LBB0_8:                                # %func_SliceHeader.21
	.cfi_def_cfa %rbp, 16
	callq	SliceHeader.21
	popq	%rbp
	.cfi_def_cfa %rsp, 8
	retq
.LBB0_9:                                # %func_SliceHeader.35
	.cfi_def_cfa %rbp, 16
	callq	SliceHeader.35
	popq	%rbp
	.cfi_def_cfa %rsp, 8
	retq
.LBB0_10:                               # %func_SliceHeader.37
	.cfi_def_cfa %rbp, 16
	callq	SliceHeader.37
	popq	%rbp
	.cfi_def_cfa %rsp, 8
	retq
.LBB0_11:                               # %func_SliceHeader.47
	.cfi_def_cfa %rbp, 16
	callq	SliceHeader.47
	popq	%rbp
	.cfi_def_cfa %rsp, 8
	retq
.LBB0_12:                               # %func_SliceHeader.49
	.cfi_def_cfa %rbp, 16
	callq	SliceHeader.49
	popq	%rbp
	.cfi_def_cfa %rsp, 8
	retq
.LBB0_13:                               # %func_SliceHeader.50
	.cfi_def_cfa %rbp, 16
	callq	SliceHeader.50
	popq	%rbp
	.cfi_def_cfa %rsp, 8
	retq
.LBB0_14:                               # %func_SliceHeader.54
	.cfi_def_cfa %rbp, 16
	callq	SliceHeader.54
	popq	%rbp
	.cfi_def_cfa %rsp, 8
	retq
.LBB0_15:                               # %func_SliceHeader.58
	.cfi_def_cfa %rbp, 16
	callq	SliceHeader.58
	popq	%rbp
	.cfi_def_cfa %rsp, 8
	retq
.LBB0_16:                               # %func_SliceHeader.60
	.cfi_def_cfa %rbp, 16
	callq	SliceHeader.60
	popq	%rbp
	.cfi_def_cfa %rsp, 8
	retq
.LBB0_17:                               # %ctrl0
	.cfi_def_cfa %rbp, 16
	cmpl	$1, %eax
	je	.LBB0_2
# %bb.18:                               # %ctrl1
	cmpl	$2, %eax
	je	.LBB0_3
# %bb.19:                               # %ctrl2
	cmpl	$3, %eax
	je	.LBB0_4
# %bb.20:                               # %ctrl3
	cmpl	$4, %eax
	je	.LBB0_5
# %bb.21:                               # %ctrl4
	cmpl	$5, %eax
	je	.LBB0_6
# %bb.22:                               # %ctrl5
	cmpl	$6, %eax
	je	.LBB0_7
# %bb.23:                               # %ctrl6
	cmpl	$7, %eax
	je	.LBB0_8
# %bb.24:                               # %ctrl7
	cmpl	$8, %eax
	je	.LBB0_9
# %bb.25:                               # %ctrl8
	cmpl	$9, %eax
	je	.LBB0_10
# %bb.26:                               # %ctrl9
	cmpl	$10, %eax
	je	.LBB0_11
# %bb.27:                               # %ctrl10
	cmpl	$11, %eax
	je	.LBB0_12
# %bb.28:                               # %ctrl11
	cmpl	$12, %eax
	je	.LBB0_13
# %bb.29:                               # %ctrl12
	cmpl	$13, %eax
	je	.LBB0_14
# %bb.30:                               # %ctrl13
	cmpl	$14, %eax
	je	.LBB0_15
	jmp	.LBB0_16
.Lfunc_end0:
	.size	SliceHeader, .Lfunc_end0-SliceHeader
	.cfi_endproc
                                        # -- End function
	.globl	get_picture_type        # -- Begin function get_picture_type
	.p2align	4, 0x90
	.type	get_picture_type,@function
get_picture_type:                       # @get_picture_type
	.cfi_startproc
# %bb.0:                                # %rand_bb
	pushq	%rbp
	.cfi_def_cfa_offset 16
	.cfi_offset %rbp, -16
	movq	%rsp, %rbp
	.cfi_def_cfa_register %rbp
	callq	get_urand
	cmpl	$0, %eax
	jne	.LBB1_2
# %bb.1:                                # %func_get_picture_type.12
	callq	get_picture_type.12
	popq	%rbp
	.cfi_def_cfa %rsp, 8
	retq
.LBB1_2:                                # %func_get_picture_type.14
	.cfi_def_cfa %rbp, 16
	callq	get_picture_type.14
	popq	%rbp
	.cfi_def_cfa %rsp, 8
	retq
.Lfunc_end1:
	.size	get_picture_type, .Lfunc_end1-get_picture_type
	.cfi_endproc
                                        # -- End function
	.globl	Partition_BC_Header     # -- Begin function Partition_BC_Header
	.p2align	4, 0x90
	.type	Partition_BC_Header,@function
Partition_BC_Header:                    # @Partition_BC_Header
	.cfi_startproc
# %bb.0:                                # %rand_bb
	pushq	%rbp
	.cfi_def_cfa_offset 16
	.cfi_offset %rbp, -16
	movq	%rsp, %rbp
	.cfi_def_cfa_register %rbp
	pushq	%rbx
	pushq	%rax
	.cfi_offset %rbx, -24
	movl	%edi, %ebx
	callq	get_urand
	cmpl	$0, %eax
	jne	.LBB2_17
# %bb.1:                                # %func_Partition_BC_Header.1
	movl	%ebx, %edi
	callq	Partition_BC_Header.1
	addq	$8, %rsp
	popq	%rbx
	popq	%rbp
	.cfi_def_cfa %rsp, 8
	retq
.LBB2_2:                                # %func_Partition_BC_Header.9
	.cfi_def_cfa %rbp, 16
	movl	%ebx, %edi
	callq	Partition_BC_Header.9
	addq	$8, %rsp
	popq	%rbx
	popq	%rbp
	.cfi_def_cfa %rsp, 8
	retq
.LBB2_3:                                # %func_Partition_BC_Header.13
	.cfi_def_cfa %rbp, 16
	movl	%ebx, %edi
	callq	Partition_BC_Header.13
	addq	$8, %rsp
	popq	%rbx
	popq	%rbp
	.cfi_def_cfa %rsp, 8
	retq
.LBB2_4:                                # %func_Partition_BC_Header.40
	.cfi_def_cfa %rbp, 16
	movl	%ebx, %edi
	callq	Partition_BC_Header.40
	addq	$8, %rsp
	popq	%rbx
	popq	%rbp
	.cfi_def_cfa %rsp, 8
	retq
.LBB2_5:                                # %func_Partition_BC_Header.41
	.cfi_def_cfa %rbp, 16
	movl	%ebx, %edi
	callq	Partition_BC_Header.41
	addq	$8, %rsp
	popq	%rbx
	popq	%rbp
	.cfi_def_cfa %rsp, 8
	retq
.LBB2_6:                                # %func_Partition_BC_Header.44
	.cfi_def_cfa %rbp, 16
	movl	%ebx, %edi
	callq	Partition_BC_Header.44
	addq	$8, %rsp
	popq	%rbx
	popq	%rbp
	.cfi_def_cfa %rsp, 8
	retq
.LBB2_7:                                # %func_Partition_BC_Header.55
	.cfi_def_cfa %rbp, 16
	movl	%ebx, %edi
	callq	Partition_BC_Header.55
	addq	$8, %rsp
	popq	%rbx
	popq	%rbp
	.cfi_def_cfa %rsp, 8
	retq
.LBB2_8:                                # %func_Partition_BC_Header.56
	.cfi_def_cfa %rbp, 16
	movl	%ebx, %edi
	callq	Partition_BC_Header.56
	addq	$8, %rsp
	popq	%rbx
	popq	%rbp
	.cfi_def_cfa %rsp, 8
	retq
.LBB2_9:                                # %func_Partition_BC_Header.63
	.cfi_def_cfa %rbp, 16
	movl	%ebx, %edi
	callq	Partition_BC_Header.63
	addq	$8, %rsp
	popq	%rbx
	popq	%rbp
	.cfi_def_cfa %rsp, 8
	retq
.LBB2_10:                               # %func_Partition_BC_Header.64
	.cfi_def_cfa %rbp, 16
	movl	%ebx, %edi
	callq	Partition_BC_Header.64
	addq	$8, %rsp
	popq	%rbx
	popq	%rbp
	.cfi_def_cfa %rsp, 8
	retq
.LBB2_11:                               # %func_Partition_BC_Header.73
	.cfi_def_cfa %rbp, 16
	movl	%ebx, %edi
	callq	Partition_BC_Header.73
	addq	$8, %rsp
	popq	%rbx
	popq	%rbp
	.cfi_def_cfa %rsp, 8
	retq
.LBB2_12:                               # %func_Partition_BC_Header.75
	.cfi_def_cfa %rbp, 16
	movl	%ebx, %edi
	callq	Partition_BC_Header.75
	addq	$8, %rsp
	popq	%rbx
	popq	%rbp
	.cfi_def_cfa %rsp, 8
	retq
.LBB2_13:                               # %func_Partition_BC_Header.78
	.cfi_def_cfa %rbp, 16
	movl	%ebx, %edi
	callq	Partition_BC_Header.78
	addq	$8, %rsp
	popq	%rbx
	popq	%rbp
	.cfi_def_cfa %rsp, 8
	retq
.LBB2_14:                               # %func_Partition_BC_Header.80
	.cfi_def_cfa %rbp, 16
	movl	%ebx, %edi
	callq	Partition_BC_Header.80
	addq	$8, %rsp
	popq	%rbx
	popq	%rbp
	.cfi_def_cfa %rsp, 8
	retq
.LBB2_15:                               # %func_Partition_BC_Header.81
	.cfi_def_cfa %rbp, 16
	movl	%ebx, %edi
	callq	Partition_BC_Header.81
	addq	$8, %rsp
	popq	%rbx
	popq	%rbp
	.cfi_def_cfa %rsp, 8
	retq
.LBB2_16:                               # %func_Partition_BC_Header.82
	.cfi_def_cfa %rbp, 16
	movl	%ebx, %edi
	callq	Partition_BC_Header.82
	addq	$8, %rsp
	popq	%rbx
	popq	%rbp
	.cfi_def_cfa %rsp, 8
	retq
.LBB2_17:                               # %ctrl0
	.cfi_def_cfa %rbp, 16
	cmpl	$1, %eax
	je	.LBB2_2
# %bb.18:                               # %ctrl1
	cmpl	$2, %eax
	je	.LBB2_3
# %bb.19:                               # %ctrl2
	cmpl	$3, %eax
	je	.LBB2_4
# %bb.20:                               # %ctrl3
	cmpl	$4, %eax
	je	.LBB2_5
# %bb.21:                               # %ctrl4
	cmpl	$5, %eax
	je	.LBB2_6
# %bb.22:                               # %ctrl5
	cmpl	$6, %eax
	je	.LBB2_7
# %bb.23:                               # %ctrl6
	cmpl	$7, %eax
	je	.LBB2_8
# %bb.24:                               # %ctrl7
	cmpl	$8, %eax
	je	.LBB2_9
# %bb.25:                               # %ctrl8
	cmpl	$9, %eax
	je	.LBB2_10
# %bb.26:                               # %ctrl9
	cmpl	$10, %eax
	je	.LBB2_11
# %bb.27:                               # %ctrl10
	cmpl	$11, %eax
	je	.LBB2_12
# %bb.28:                               # %ctrl11
	cmpl	$12, %eax
	je	.LBB2_13
# %bb.29:                               # %ctrl12
	cmpl	$13, %eax
	je	.LBB2_14
# %bb.30:                               # %ctrl13
	cmpl	$14, %eax
	je	.LBB2_15
	jmp	.LBB2_16
.Lfunc_end2:
	.size	Partition_BC_Header, .Lfunc_end2-Partition_BC_Header
	.cfi_endproc
                                        # -- End function
	.p2align	4, 0x90         # -- Begin function ref_pic_list_reordering
	.type	ref_pic_list_reordering,@function
ref_pic_list_reordering:                # @ref_pic_list_reordering
	.cfi_startproc
# %bb.0:                                # %rand_bb
	pushq	%rbp
	.cfi_def_cfa_offset 16
	.cfi_offset %rbp, -16
	movq	%rsp, %rbp
	.cfi_def_cfa_register %rbp
	callq	get_urand
	cmpl	$0, %eax
	jne	.LBB3_17
# %bb.1:                                # %func_ref_pic_list_reordering.27
	callq	ref_pic_list_reordering.27
	popq	%rbp
	.cfi_def_cfa %rsp, 8
	retq
.LBB3_2:                                # %func_ref_pic_list_reordering.31
	.cfi_def_cfa %rbp, 16
	callq	ref_pic_list_reordering.31
	popq	%rbp
	.cfi_def_cfa %rsp, 8
	retq
.LBB3_3:                                # %func_ref_pic_list_reordering.32
	.cfi_def_cfa %rbp, 16
	callq	ref_pic_list_reordering.32
	popq	%rbp
	.cfi_def_cfa %rsp, 8
	retq
.LBB3_4:                                # %func_ref_pic_list_reordering.34
	.cfi_def_cfa %rbp, 16
	callq	ref_pic_list_reordering.34
	popq	%rbp
	.cfi_def_cfa %rsp, 8
	retq
.LBB3_5:                                # %func_ref_pic_list_reordering.38
	.cfi_def_cfa %rbp, 16
	callq	ref_pic_list_reordering.38
	popq	%rbp
	.cfi_def_cfa %rsp, 8
	retq
.LBB3_6:                                # %func_ref_pic_list_reordering.39
	.cfi_def_cfa %rbp, 16
	callq	ref_pic_list_reordering.39
	popq	%rbp
	.cfi_def_cfa %rsp, 8
	retq
.LBB3_7:                                # %func_ref_pic_list_reordering.43
	.cfi_def_cfa %rbp, 16
	callq	ref_pic_list_reordering.43
	popq	%rbp
	.cfi_def_cfa %rsp, 8
	retq
.LBB3_8:                                # %func_ref_pic_list_reordering.45
	.cfi_def_cfa %rbp, 16
	callq	ref_pic_list_reordering.45
	popq	%rbp
	.cfi_def_cfa %rsp, 8
	retq
.LBB3_9:                                # %func_ref_pic_list_reordering.46
	.cfi_def_cfa %rbp, 16
	callq	ref_pic_list_reordering.46
	popq	%rbp
	.cfi_def_cfa %rsp, 8
	retq
.LBB3_10:                               # %func_ref_pic_list_reordering.48
	.cfi_def_cfa %rbp, 16
	callq	ref_pic_list_reordering.48
	popq	%rbp
	.cfi_def_cfa %rsp, 8
	retq
.LBB3_11:                               # %func_ref_pic_list_reordering.53
	.cfi_def_cfa %rbp, 16
	callq	ref_pic_list_reordering.53
	popq	%rbp
	.cfi_def_cfa %rsp, 8
	retq
.LBB3_12:                               # %func_ref_pic_list_reordering.57
	.cfi_def_cfa %rbp, 16
	callq	ref_pic_list_reordering.57
	popq	%rbp
	.cfi_def_cfa %rsp, 8
	retq
.LBB3_13:                               # %func_ref_pic_list_reordering.67
	.cfi_def_cfa %rbp, 16
	callq	ref_pic_list_reordering.67
	popq	%rbp
	.cfi_def_cfa %rsp, 8
	retq
.LBB3_14:                               # %func_ref_pic_list_reordering.69
	.cfi_def_cfa %rbp, 16
	callq	ref_pic_list_reordering.69
	popq	%rbp
	.cfi_def_cfa %rsp, 8
	retq
.LBB3_15:                               # %func_ref_pic_list_reordering.71
	.cfi_def_cfa %rbp, 16
	callq	ref_pic_list_reordering.71
	popq	%rbp
	.cfi_def_cfa %rsp, 8
	retq
.LBB3_16:                               # %func_ref_pic_list_reordering.76
	.cfi_def_cfa %rbp, 16
	callq	ref_pic_list_reordering.76
	popq	%rbp
	.cfi_def_cfa %rsp, 8
	retq
.LBB3_17:                               # %ctrl0
	.cfi_def_cfa %rbp, 16
	cmpl	$1, %eax
	je	.LBB3_2
# %bb.18:                               # %ctrl1
	cmpl	$2, %eax
	je	.LBB3_3
# %bb.19:                               # %ctrl2
	cmpl	$3, %eax
	je	.LBB3_4
# %bb.20:                               # %ctrl3
	cmpl	$4, %eax
	je	.LBB3_5
# %bb.21:                               # %ctrl4
	cmpl	$5, %eax
	je	.LBB3_6
# %bb.22:                               # %ctrl5
	cmpl	$6, %eax
	je	.LBB3_7
# %bb.23:                               # %ctrl6
	cmpl	$7, %eax
	je	.LBB3_8
# %bb.24:                               # %ctrl7
	cmpl	$8, %eax
	je	.LBB3_9
# %bb.25:                               # %ctrl8
	cmpl	$9, %eax
	je	.LBB3_10
# %bb.26:                               # %ctrl9
	cmpl	$10, %eax
	je	.LBB3_11
# %bb.27:                               # %ctrl10
	cmpl	$11, %eax
	je	.LBB3_12
# %bb.28:                               # %ctrl11
	cmpl	$12, %eax
	je	.LBB3_13
# %bb.29:                               # %ctrl12
	cmpl	$13, %eax
	je	.LBB3_14
# %bb.30:                               # %ctrl13
	cmpl	$14, %eax
	je	.LBB3_15
	jmp	.LBB3_16
.Lfunc_end3:
	.size	ref_pic_list_reordering, .Lfunc_end3-ref_pic_list_reordering
	.cfi_endproc
                                        # -- End function
	.p2align	4, 0x90         # -- Begin function dec_ref_pic_marking
	.type	dec_ref_pic_marking,@function
dec_ref_pic_marking:                    # @dec_ref_pic_marking
	.cfi_startproc
# %bb.0:                                # %rand_bb
	pushq	%rbp
	.cfi_def_cfa_offset 16
	.cfi_offset %rbp, -16
	movq	%rsp, %rbp
	.cfi_def_cfa_register %rbp
	callq	get_urand
	cmpl	$0, %eax
	jne	.LBB4_17
# %bb.1:                                # %func_dec_ref_pic_marking.2
	callq	dec_ref_pic_marking.2
	popq	%rbp
	.cfi_def_cfa %rsp, 8
	retq
.LBB4_2:                                # %func_dec_ref_pic_marking.3
	.cfi_def_cfa %rbp, 16
	callq	dec_ref_pic_marking.3
	popq	%rbp
	.cfi_def_cfa %rsp, 8
	retq
.LBB4_3:                                # %func_dec_ref_pic_marking.4
	.cfi_def_cfa %rbp, 16
	callq	dec_ref_pic_marking.4
	popq	%rbp
	.cfi_def_cfa %rsp, 8
	retq
.LBB4_4:                                # %func_dec_ref_pic_marking.5
	.cfi_def_cfa %rbp, 16
	callq	dec_ref_pic_marking.5
	popq	%rbp
	.cfi_def_cfa %rsp, 8
	retq
.LBB4_5:                                # %func_dec_ref_pic_marking.10
	.cfi_def_cfa %rbp, 16
	callq	dec_ref_pic_marking.10
	popq	%rbp
	.cfi_def_cfa %rsp, 8
	retq
.LBB4_6:                                # %func_dec_ref_pic_marking.15
	.cfi_def_cfa %rbp, 16
	callq	dec_ref_pic_marking.15
	popq	%rbp
	.cfi_def_cfa %rsp, 8
	retq
.LBB4_7:                                # %func_dec_ref_pic_marking.16
	.cfi_def_cfa %rbp, 16
	callq	dec_ref_pic_marking.16
	popq	%rbp
	.cfi_def_cfa %rsp, 8
	retq
.LBB4_8:                                # %func_dec_ref_pic_marking.24
	.cfi_def_cfa %rbp, 16
	callq	dec_ref_pic_marking.24
	popq	%rbp
	.cfi_def_cfa %rsp, 8
	retq
.LBB4_9:                                # %func_dec_ref_pic_marking.33
	.cfi_def_cfa %rbp, 16
	callq	dec_ref_pic_marking.33
	popq	%rbp
	.cfi_def_cfa %rsp, 8
	retq
.LBB4_10:                               # %func_dec_ref_pic_marking.42
	.cfi_def_cfa %rbp, 16
	callq	dec_ref_pic_marking.42
	popq	%rbp
	.cfi_def_cfa %rsp, 8
	retq
.LBB4_11:                               # %func_dec_ref_pic_marking.51
	.cfi_def_cfa %rbp, 16
	callq	dec_ref_pic_marking.51
	popq	%rbp
	.cfi_def_cfa %rsp, 8
	retq
.LBB4_12:                               # %func_dec_ref_pic_marking.66
	.cfi_def_cfa %rbp, 16
	callq	dec_ref_pic_marking.66
	popq	%rbp
	.cfi_def_cfa %rsp, 8
	retq
.LBB4_13:                               # %func_dec_ref_pic_marking.72
	.cfi_def_cfa %rbp, 16
	callq	dec_ref_pic_marking.72
	popq	%rbp
	.cfi_def_cfa %rsp, 8
	retq
.LBB4_14:                               # %func_dec_ref_pic_marking.74
	.cfi_def_cfa %rbp, 16
	callq	dec_ref_pic_marking.74
	popq	%rbp
	.cfi_def_cfa %rsp, 8
	retq
.LBB4_15:                               # %func_dec_ref_pic_marking.77
	.cfi_def_cfa %rbp, 16
	callq	dec_ref_pic_marking.77
	popq	%rbp
	.cfi_def_cfa %rsp, 8
	retq
.LBB4_16:                               # %func_dec_ref_pic_marking.79
	.cfi_def_cfa %rbp, 16
	callq	dec_ref_pic_marking.79
	popq	%rbp
	.cfi_def_cfa %rsp, 8
	retq
.LBB4_17:                               # %ctrl0
	.cfi_def_cfa %rbp, 16
	cmpl	$1, %eax
	je	.LBB4_2
# %bb.18:                               # %ctrl1
	cmpl	$2, %eax
	je	.LBB4_3
# %bb.19:                               # %ctrl2
	cmpl	$3, %eax
	je	.LBB4_4
# %bb.20:                               # %ctrl3
	cmpl	$4, %eax
	je	.LBB4_5
# %bb.21:                               # %ctrl4
	cmpl	$5, %eax
	je	.LBB4_6
# %bb.22:                               # %ctrl5
	cmpl	$6, %eax
	je	.LBB4_7
# %bb.23:                               # %ctrl6
	cmpl	$7, %eax
	je	.LBB4_8
# %bb.24:                               # %ctrl7
	cmpl	$8, %eax
	je	.LBB4_9
# %bb.25:                               # %ctrl8
	cmpl	$9, %eax
	je	.LBB4_10
# %bb.26:                               # %ctrl9
	cmpl	$10, %eax
	je	.LBB4_11
# %bb.27:                               # %ctrl10
	cmpl	$11, %eax
	je	.LBB4_12
# %bb.28:                               # %ctrl11
	cmpl	$12, %eax
	je	.LBB4_13
# %bb.29:                               # %ctrl12
	cmpl	$13, %eax
	je	.LBB4_14
# %bb.30:                               # %ctrl13
	cmpl	$14, %eax
	je	.LBB4_15
	jmp	.LBB4_16
.Lfunc_end4:
	.size	dec_ref_pic_marking, .Lfunc_end4-dec_ref_pic_marking
	.cfi_endproc
                                        # -- End function
	.p2align	4, 0x90         # -- Begin function pred_weight_table
	.type	pred_weight_table,@function
pred_weight_table:                      # @pred_weight_table
	.cfi_startproc
# %bb.0:                                # %rand_bb
	pushq	%rbp
	.cfi_def_cfa_offset 16
	.cfi_offset %rbp, -16
	movq	%rsp, %rbp
	.cfi_def_cfa_register %rbp
	callq	get_urand
	cmpl	$0, %eax
	jne	.LBB5_17
# %bb.1:                                # %func_pred_weight_table.18
	callq	pred_weight_table.18
	popq	%rbp
	.cfi_def_cfa %rsp, 8
	retq
.LBB5_2:                                # %func_pred_weight_table.22
	.cfi_def_cfa %rbp, 16
	callq	pred_weight_table.22
	popq	%rbp
	.cfi_def_cfa %rsp, 8
	retq
.LBB5_3:                                # %func_pred_weight_table.23
	.cfi_def_cfa %rbp, 16
	callq	pred_weight_table.23
	popq	%rbp
	.cfi_def_cfa %rsp, 8
	retq
.LBB5_4:                                # %func_pred_weight_table.25
	.cfi_def_cfa %rbp, 16
	callq	pred_weight_table.25
	popq	%rbp
	.cfi_def_cfa %rsp, 8
	retq
.LBB5_5:                                # %func_pred_weight_table.26
	.cfi_def_cfa %rbp, 16
	callq	pred_weight_table.26
	popq	%rbp
	.cfi_def_cfa %rsp, 8
	retq
.LBB5_6:                                # %func_pred_weight_table.28
	.cfi_def_cfa %rbp, 16
	callq	pred_weight_table.28
	popq	%rbp
	.cfi_def_cfa %rsp, 8
	retq
.LBB5_7:                                # %func_pred_weight_table.29
	.cfi_def_cfa %rbp, 16
	callq	pred_weight_table.29
	popq	%rbp
	.cfi_def_cfa %rsp, 8
	retq
.LBB5_8:                                # %func_pred_weight_table.30
	.cfi_def_cfa %rbp, 16
	callq	pred_weight_table.30
	popq	%rbp
	.cfi_def_cfa %rsp, 8
	retq
.LBB5_9:                                # %func_pred_weight_table.36
	.cfi_def_cfa %rbp, 16
	callq	pred_weight_table.36
	popq	%rbp
	.cfi_def_cfa %rsp, 8
	retq
.LBB5_10:                               # %func_pred_weight_table.52
	.cfi_def_cfa %rbp, 16
	callq	pred_weight_table.52
	popq	%rbp
	.cfi_def_cfa %rsp, 8
	retq
.LBB5_11:                               # %func_pred_weight_table.59
	.cfi_def_cfa %rbp, 16
	callq	pred_weight_table.59
	popq	%rbp
	.cfi_def_cfa %rsp, 8
	retq
.LBB5_12:                               # %func_pred_weight_table.61
	.cfi_def_cfa %rbp, 16
	callq	pred_weight_table.61
	popq	%rbp
	.cfi_def_cfa %rsp, 8
	retq
.LBB5_13:                               # %func_pred_weight_table.62
	.cfi_def_cfa %rbp, 16
	callq	pred_weight_table.62
	popq	%rbp
	.cfi_def_cfa %rsp, 8
	retq
.LBB5_14:                               # %func_pred_weight_table.65
	.cfi_def_cfa %rbp, 16
	callq	pred_weight_table.65
	popq	%rbp
	.cfi_def_cfa %rsp, 8
	retq
.LBB5_15:                               # %func_pred_weight_table.68
	.cfi_def_cfa %rbp, 16
	callq	pred_weight_table.68
	popq	%rbp
	.cfi_def_cfa %rsp, 8
	retq
.LBB5_16:                               # %func_pred_weight_table.70
	.cfi_def_cfa %rbp, 16
	callq	pred_weight_table.70
	popq	%rbp
	.cfi_def_cfa %rsp, 8
	retq
.LBB5_17:                               # %ctrl0
	.cfi_def_cfa %rbp, 16
	cmpl	$1, %eax
	je	.LBB5_2
# %bb.18:                               # %ctrl1
	cmpl	$2, %eax
	je	.LBB5_3
# %bb.19:                               # %ctrl2
	cmpl	$3, %eax
	je	.LBB5_4
# %bb.20:                               # %ctrl3
	cmpl	$4, %eax
	je	.LBB5_5
# %bb.21:                               # %ctrl4
	cmpl	$5, %eax
	je	.LBB5_6
# %bb.22:                               # %ctrl5
	cmpl	$6, %eax
	je	.LBB5_7
# %bb.23:                               # %ctrl6
	cmpl	$7, %eax
	je	.LBB5_8
# %bb.24:                               # %ctrl7
	cmpl	$8, %eax
	je	.LBB5_9
# %bb.25:                               # %ctrl8
	cmpl	$9, %eax
	je	.LBB5_10
# %bb.26:                               # %ctrl9
	cmpl	$10, %eax
	je	.LBB5_11
# %bb.27:                               # %ctrl10
	cmpl	$11, %eax
	je	.LBB5_12
# %bb.28:                               # %ctrl11
	cmpl	$12, %eax
	je	.LBB5_13
# %bb.29:                               # %ctrl12
	cmpl	$13, %eax
	je	.LBB5_14
# %bb.30:                               # %ctrl13
	cmpl	$14, %eax
	je	.LBB5_15
	jmp	.LBB5_16
.Lfunc_end5:
	.size	pred_weight_table, .Lfunc_end5-pred_weight_table
	.cfi_endproc
                                        # -- End function
	.globl	Partition_BC_Header.1   # -- Begin function Partition_BC_Header.1
	.p2align	4, 0x90
	.type	Partition_BC_Header.1,@function
Partition_BC_Header.1:                  # @Partition_BC_Header.1
	.cfi_startproc
# %bb.0:                                # %entry
	pushq	%rbp
	.cfi_def_cfa_offset 16
	.cfi_offset %rbp, -16
	movq	%rsp, %rbp
	.cfi_def_cfa_register %rbp
	pushq	%rbx
	subq	$88, %rsp
	.cfi_offset %rbx, -24
	movl	$821780787, -28(%rbp)   # imm = 0x30FB6133
	movl	%edi, -32(%rbp)
	movq	img, %rax
	movq	14160(%rax), %rax
	movq	24(%rax), %rax
	movslq	-32(%rbp), %rcx
	imulq	$120, %rcx, %rcx
	addq	%rcx, %rax
	movq	%rax, -40(%rbp)
	leaq	-88(%rbp), %rax
	movq	%rax, -24(%rbp)
	movl	$0, -12(%rbp)
	movq	-24(%rbp), %rax
	movl	$0, (%rax)
	movq	-24(%rbp), %rax
	movabsq	$ue_linfo, %rcx
	movq	%rcx, 32(%rax)
	movq	-24(%rbp), %rax
	movl	$0, 8(%rax)
	movq	img, %rax
	movl	20(%rax), %eax
	movq	-24(%rbp), %rcx
	movl	%eax, 4(%rcx)
	movq	-24(%rbp), %rdi
	movq	-40(%rbp), %rsi
	callq	writeSyntaxElement_UVLC
	addl	-12(%rbp), %eax
	movl	%eax, -12(%rbp)
	movq	active_pps, %rax
	cmpl	$0, 228(%rax)
	je	.LBB6_2
# %bb.1:                                # %if.then
	movq	img, %rax
	movq	14160(%rax), %rax
	movl	(%rax), %eax
	movq	-24(%rbp), %rcx
	movl	%eax, 4(%rcx)
	movq	-24(%rbp), %rdi
	movq	-40(%rbp), %rsi
	callq	writeSyntaxElement_UVLC
	addl	-12(%rbp), %eax
	movl	%eax, -12(%rbp)
.LBB6_2:                                # %if.end
	movl	-12(%rbp), %ebx
	cmpl	$821780787, -28(%rbp)   # imm = 0x30FB6133
	jne	.LBB6_4
.LBB6_3:
	movl	%ebx, %eax
	addq	$88, %rsp
	popq	%rbx
	popq	%rbp
	.cfi_def_cfa %rsp, 8
	retq
.LBB6_4:                                # %func_exit
	.cfi_def_cfa %rbp, 16
	callq	detect_breach
	jmp	.LBB6_3
.Lfunc_end6:
	.size	Partition_BC_Header.1, .Lfunc_end6-Partition_BC_Header.1
	.cfi_endproc
                                        # -- End function
	.p2align	4, 0x90         # -- Begin function dec_ref_pic_marking.2
	.type	dec_ref_pic_marking.2,@function
dec_ref_pic_marking.2:                  # @dec_ref_pic_marking.2
	.cfi_startproc
# %bb.0:                                # %entry
	pushq	%rbp
	.cfi_def_cfa_offset 16
	.cfi_offset %rbp, -16
	movq	%rsp, %rbp
	.cfi_def_cfa_register %rbp
	pushq	%rbx
	subq	$40, %rsp
	.cfi_offset %rbx, -24
	movl	$760448306, -40(%rbp)   # imm = 0x2D538532
	movq	input, %rax
	movslq	2364(%rax), %rax
	movq	assignSE2partition(,%rax,8), %rax
	movl	(%rax), %eax
	movl	%eax, -36(%rbp)
	movq	img, %rax
	movq	14160(%rax), %rax
	movq	24(%rax), %rax
	movslq	-36(%rbp), %rcx
	imulq	$120, %rcx, %rcx
	addq	%rcx, %rax
	movq	%rax, -32(%rbp)
	movl	$0, -12(%rbp)
	movq	img, %rax
	movq	14152(%rax), %rax
	cmpl	$0, 4(%rax)
	je	.LBB7_2
# %bb.1:                                # %if.then
	movq	img, %rax
	movl	72504(%rax), %esi
	movq	-32(%rbp), %rdx
	movabsq	$.L.str.33, %rdi
	callq	u_1
	addl	-12(%rbp), %eax
	movl	%eax, -12(%rbp)
	movq	img, %rax
	movl	72508(%rax), %esi
	movq	-32(%rbp), %rdx
	movabsq	$.L.str.34, %rdi
	callq	u_1
	addl	-12(%rbp), %eax
	movl	%eax, -12(%rbp)
	jmp	.LBB7_20
.LBB7_2:                                # %if.else
	movq	img, %rax
	cmpq	$0, 72512(%rax)
	setne	%al
	andb	$1, %al
	movzbl	%al, %eax
	movq	img, %rcx
	movl	%eax, 72500(%rcx)
	movq	img, %rax
	movl	72500(%rax), %esi
	movq	-32(%rbp), %rdx
	movabsq	$.L.str.35, %rdi
	callq	u_1
	addl	-12(%rbp), %eax
	movl	%eax, -12(%rbp)
	movq	img, %rax
	cmpl	$0, 72500(%rax)
	je	.LBB7_19
# %bb.3:                                # %if.then11
	movq	img, %rax
	movq	72512(%rax), %rax
	movq	%rax, -24(%rbp)
.LBB7_4:                                # %do.body
                                        # =>This Inner Loop Header: Depth=1
	cmpq	$0, -24(%rbp)
	jne	.LBB7_6
# %bb.5:                                # %if.then15
                                        #   in Loop: Header=BB7_4 Depth=1
	movabsq	$.L.str.36, %rdi
	movl	$500, %esi              # imm = 0x1F4
	callq	error
.LBB7_6:                                # %if.end
                                        #   in Loop: Header=BB7_4 Depth=1
	movq	-24(%rbp), %rax
	movl	(%rax), %eax
	movl	%eax, -16(%rbp)
	movl	-16(%rbp), %esi
	movq	-32(%rbp), %rdx
	movabsq	$.L.str.37, %rdi
	callq	ue_v
	addl	-12(%rbp), %eax
	movl	%eax, -12(%rbp)
	cmpl	$1, -16(%rbp)
	je	.LBB7_8
# %bb.7:                                # %lor.lhs.false
                                        #   in Loop: Header=BB7_4 Depth=1
	cmpl	$3, -16(%rbp)
	jne	.LBB7_9
.LBB7_8:                                # %if.then22
                                        #   in Loop: Header=BB7_4 Depth=1
	movq	-24(%rbp), %rax
	movl	4(%rax), %esi
	movq	-32(%rbp), %rdx
	movabsq	$.L.str.38, %rdi
	callq	ue_v
	addl	$1, %eax
	addl	-12(%rbp), %eax
	movl	%eax, -12(%rbp)
.LBB7_9:                                # %if.end26
                                        #   in Loop: Header=BB7_4 Depth=1
	cmpl	$2, -16(%rbp)
	jne	.LBB7_11
# %bb.10:                               # %if.then29
                                        #   in Loop: Header=BB7_4 Depth=1
	movq	-24(%rbp), %rax
	movl	8(%rax), %esi
	movq	-32(%rbp), %rdx
	movabsq	$.L.str.39, %rdi
	callq	ue_v
	addl	-12(%rbp), %eax
	movl	%eax, -12(%rbp)
.LBB7_11:                               # %if.end32
                                        #   in Loop: Header=BB7_4 Depth=1
	cmpl	$3, -16(%rbp)
	je	.LBB7_13
# %bb.12:                               # %lor.lhs.false35
                                        #   in Loop: Header=BB7_4 Depth=1
	cmpl	$6, -16(%rbp)
	jne	.LBB7_14
.LBB7_13:                               # %if.then38
                                        #   in Loop: Header=BB7_4 Depth=1
	movq	-24(%rbp), %rax
	movl	12(%rax), %esi
	movq	-32(%rbp), %rdx
	movabsq	$.L.str.40, %rdi
	callq	ue_v
	addl	-12(%rbp), %eax
	movl	%eax, -12(%rbp)
.LBB7_14:                               # %if.end41
                                        #   in Loop: Header=BB7_4 Depth=1
	cmpl	$4, -16(%rbp)
	jne	.LBB7_16
# %bb.15:                               # %if.then44
                                        #   in Loop: Header=BB7_4 Depth=1
	movq	-24(%rbp), %rax
	movl	16(%rax), %esi
	movq	-32(%rbp), %rdx
	movabsq	$.L.str.41, %rdi
	callq	ue_v
	addl	-12(%rbp), %eax
	movl	%eax, -12(%rbp)
.LBB7_16:                               # %if.end47
                                        #   in Loop: Header=BB7_4 Depth=1
	movq	-24(%rbp), %rax
	movq	24(%rax), %rax
	movq	%rax, -24(%rbp)
# %bb.17:                               # %do.cond
                                        #   in Loop: Header=BB7_4 Depth=1
	cmpl	$0, -16(%rbp)
	jne	.LBB7_4
# %bb.18:                               # %do.end
	jmp	.LBB7_19
.LBB7_19:                               # %if.end50
	jmp	.LBB7_20
.LBB7_20:                               # %if.end51
	movl	-12(%rbp), %ebx
	cmpl	$760448306, -40(%rbp)   # imm = 0x2D538532
	jne	.LBB7_22
.LBB7_21:
	movl	%ebx, %eax
	addq	$40, %rsp
	popq	%rbx
	popq	%rbp
	.cfi_def_cfa %rsp, 8
	retq
.LBB7_22:                               # %func_exit
	.cfi_def_cfa %rbp, 16
	callq	detect_breach
	jmp	.LBB7_21
.Lfunc_end7:
	.size	dec_ref_pic_marking.2, .Lfunc_end7-dec_ref_pic_marking.2
	.cfi_endproc
                                        # -- End function
	.p2align	4, 0x90         # -- Begin function dec_ref_pic_marking.3
	.type	dec_ref_pic_marking.3,@function
dec_ref_pic_marking.3:                  # @dec_ref_pic_marking.3
	.cfi_startproc
# %bb.0:                                # %entry
	pushq	%rbp
	.cfi_def_cfa_offset 16
	.cfi_offset %rbp, -16
	movq	%rsp, %rbp
	.cfi_def_cfa_register %rbp
	pushq	%rbx
	subq	$40, %rsp
	.cfi_offset %rbx, -24
	movl	$684817715, -40(%rbp)   # imm = 0x28D17D33
	movq	input, %rax
	movslq	2364(%rax), %rax
	movq	assignSE2partition(,%rax,8), %rax
	movl	(%rax), %eax
	movl	%eax, -36(%rbp)
	movq	img, %rax
	movq	14160(%rax), %rax
	movq	24(%rax), %rax
	movslq	-36(%rbp), %rcx
	imulq	$120, %rcx, %rcx
	addq	%rcx, %rax
	movq	%rax, -24(%rbp)
	movl	$0, -12(%rbp)
	movq	img, %rax
	movq	14152(%rax), %rax
	cmpl	$0, 4(%rax)
	je	.LBB8_2
# %bb.1:                                # %if.then
	movq	img, %rax
	movl	72504(%rax), %esi
	movq	-24(%rbp), %rdx
	movabsq	$.L.str.33, %rdi
	callq	u_1
	addl	-12(%rbp), %eax
	movl	%eax, -12(%rbp)
	movq	img, %rax
	movl	72508(%rax), %esi
	movq	-24(%rbp), %rdx
	movabsq	$.L.str.34, %rdi
	callq	u_1
	addl	-12(%rbp), %eax
	movl	%eax, -12(%rbp)
	jmp	.LBB8_20
.LBB8_2:                                # %if.else
	movq	img, %rax
	cmpq	$0, 72512(%rax)
	setne	%al
	andb	$1, %al
	movzbl	%al, %eax
	movq	img, %rcx
	movl	%eax, 72500(%rcx)
	movq	img, %rax
	movl	72500(%rax), %esi
	movq	-24(%rbp), %rdx
	movabsq	$.L.str.35, %rdi
	callq	u_1
	addl	-12(%rbp), %eax
	movl	%eax, -12(%rbp)
	movq	img, %rax
	cmpl	$0, 72500(%rax)
	je	.LBB8_19
# %bb.3:                                # %if.then11
	movq	img, %rax
	movq	72512(%rax), %rax
	movq	%rax, -32(%rbp)
.LBB8_4:                                # %do.body
                                        # =>This Inner Loop Header: Depth=1
	cmpq	$0, -32(%rbp)
	jne	.LBB8_6
# %bb.5:                                # %if.then15
                                        #   in Loop: Header=BB8_4 Depth=1
	movabsq	$.L.str.36, %rdi
	movl	$500, %esi              # imm = 0x1F4
	callq	error
.LBB8_6:                                # %if.end
                                        #   in Loop: Header=BB8_4 Depth=1
	movq	-32(%rbp), %rax
	movl	(%rax), %eax
	movl	%eax, -16(%rbp)
	movl	-16(%rbp), %esi
	movq	-24(%rbp), %rdx
	movabsq	$.L.str.37, %rdi
	callq	ue_v
	addl	-12(%rbp), %eax
	movl	%eax, -12(%rbp)
	cmpl	$1, -16(%rbp)
	je	.LBB8_8
# %bb.7:                                # %lor.lhs.false
                                        #   in Loop: Header=BB8_4 Depth=1
	cmpl	$3, -16(%rbp)
	jne	.LBB8_9
.LBB8_8:                                # %if.then22
                                        #   in Loop: Header=BB8_4 Depth=1
	movq	-32(%rbp), %rax
	movl	4(%rax), %esi
	movq	-24(%rbp), %rdx
	movabsq	$.L.str.38, %rdi
	callq	ue_v
	addl	$1, %eax
	addl	-12(%rbp), %eax
	movl	%eax, -12(%rbp)
.LBB8_9:                                # %if.end26
                                        #   in Loop: Header=BB8_4 Depth=1
	cmpl	$2, -16(%rbp)
	jne	.LBB8_11
# %bb.10:                               # %if.then29
                                        #   in Loop: Header=BB8_4 Depth=1
	movq	-32(%rbp), %rax
	movl	8(%rax), %esi
	movq	-24(%rbp), %rdx
	movabsq	$.L.str.39, %rdi
	callq	ue_v
	addl	-12(%rbp), %eax
	movl	%eax, -12(%rbp)
.LBB8_11:                               # %if.end32
                                        #   in Loop: Header=BB8_4 Depth=1
	cmpl	$3, -16(%rbp)
	je	.LBB8_13
# %bb.12:                               # %lor.lhs.false35
                                        #   in Loop: Header=BB8_4 Depth=1
	cmpl	$6, -16(%rbp)
	jne	.LBB8_14
.LBB8_13:                               # %if.then38
                                        #   in Loop: Header=BB8_4 Depth=1
	movq	-32(%rbp), %rax
	movl	12(%rax), %esi
	movq	-24(%rbp), %rdx
	movabsq	$.L.str.40, %rdi
	callq	ue_v
	addl	-12(%rbp), %eax
	movl	%eax, -12(%rbp)
.LBB8_14:                               # %if.end41
                                        #   in Loop: Header=BB8_4 Depth=1
	cmpl	$4, -16(%rbp)
	jne	.LBB8_16
# %bb.15:                               # %if.then44
                                        #   in Loop: Header=BB8_4 Depth=1
	movq	-32(%rbp), %rax
	movl	16(%rax), %esi
	movq	-24(%rbp), %rdx
	movabsq	$.L.str.41, %rdi
	callq	ue_v
	addl	-12(%rbp), %eax
	movl	%eax, -12(%rbp)
.LBB8_16:                               # %if.end47
                                        #   in Loop: Header=BB8_4 Depth=1
	movq	-32(%rbp), %rax
	movq	24(%rax), %rax
	movq	%rax, -32(%rbp)
# %bb.17:                               # %do.cond
                                        #   in Loop: Header=BB8_4 Depth=1
	cmpl	$0, -16(%rbp)
	jne	.LBB8_4
# %bb.18:                               # %do.end
	jmp	.LBB8_19
.LBB8_19:                               # %if.end50
	jmp	.LBB8_20
.LBB8_20:                               # %if.end51
	movl	-12(%rbp), %ebx
	cmpl	$684817715, -40(%rbp)   # imm = 0x28D17D33
	jne	.LBB8_22
.LBB8_21:
	movl	%ebx, %eax
	addq	$40, %rsp
	popq	%rbx
	popq	%rbp
	.cfi_def_cfa %rsp, 8
	retq
.LBB8_22:                               # %func_exit
	.cfi_def_cfa %rbp, 16
	callq	detect_breach
	jmp	.LBB8_21
.Lfunc_end8:
	.size	dec_ref_pic_marking.3, .Lfunc_end8-dec_ref_pic_marking.3
	.cfi_endproc
                                        # -- End function
	.p2align	4, 0x90         # -- Begin function dec_ref_pic_marking.4
	.type	dec_ref_pic_marking.4,@function
dec_ref_pic_marking.4:                  # @dec_ref_pic_marking.4
	.cfi_startproc
# %bb.0:                                # %entry
	pushq	%rbp
	.cfi_def_cfa_offset 16
	.cfi_offset %rbp, -16
	movq	%rsp, %rbp
	.cfi_def_cfa_register %rbp
	pushq	%rbx
	subq	$40, %rsp
	.cfi_offset %rbx, -24
	movl	$1163161830, -36(%rbp)  # imm = 0x455470E6
	movq	input, %rax
	movslq	2364(%rax), %rax
	movq	assignSE2partition(,%rax,8), %rax
	movl	(%rax), %eax
	movl	%eax, -40(%rbp)
	movq	img, %rax
	movq	14160(%rax), %rax
	movq	24(%rax), %rax
	movslq	-40(%rbp), %rcx
	imulq	$120, %rcx, %rcx
	addq	%rcx, %rax
	movq	%rax, -32(%rbp)
	movl	$0, -12(%rbp)
	movq	img, %rax
	movq	14152(%rax), %rax
	cmpl	$0, 4(%rax)
	je	.LBB9_2
# %bb.1:                                # %if.then
	movq	img, %rax
	movl	72504(%rax), %esi
	movq	-32(%rbp), %rdx
	movabsq	$.L.str.33, %rdi
	callq	u_1
	addl	-12(%rbp), %eax
	movl	%eax, -12(%rbp)
	movq	img, %rax
	movl	72508(%rax), %esi
	movq	-32(%rbp), %rdx
	movabsq	$.L.str.34, %rdi
	callq	u_1
	addl	-12(%rbp), %eax
	movl	%eax, -12(%rbp)
	jmp	.LBB9_20
.LBB9_2:                                # %if.else
	movq	img, %rax
	cmpq	$0, 72512(%rax)
	setne	%al
	andb	$1, %al
	movzbl	%al, %eax
	movq	img, %rcx
	movl	%eax, 72500(%rcx)
	movq	img, %rax
	movl	72500(%rax), %esi
	movq	-32(%rbp), %rdx
	movabsq	$.L.str.35, %rdi
	callq	u_1
	addl	-12(%rbp), %eax
	movl	%eax, -12(%rbp)
	movq	img, %rax
	cmpl	$0, 72500(%rax)
	je	.LBB9_19
# %bb.3:                                # %if.then11
	movq	img, %rax
	movq	72512(%rax), %rax
	movq	%rax, -24(%rbp)
.LBB9_4:                                # %do.body
                                        # =>This Inner Loop Header: Depth=1
	cmpq	$0, -24(%rbp)
	jne	.LBB9_6
# %bb.5:                                # %if.then15
                                        #   in Loop: Header=BB9_4 Depth=1
	movabsq	$.L.str.36, %rdi
	movl	$500, %esi              # imm = 0x1F4
	callq	error
.LBB9_6:                                # %if.end
                                        #   in Loop: Header=BB9_4 Depth=1
	movq	-24(%rbp), %rax
	movl	(%rax), %eax
	movl	%eax, -16(%rbp)
	movl	-16(%rbp), %esi
	movq	-32(%rbp), %rdx
	movabsq	$.L.str.37, %rdi
	callq	ue_v
	addl	-12(%rbp), %eax
	movl	%eax, -12(%rbp)
	cmpl	$1, -16(%rbp)
	je	.LBB9_8
# %bb.7:                                # %lor.lhs.false
                                        #   in Loop: Header=BB9_4 Depth=1
	cmpl	$3, -16(%rbp)
	jne	.LBB9_9
.LBB9_8:                                # %if.then22
                                        #   in Loop: Header=BB9_4 Depth=1
	movq	-24(%rbp), %rax
	movl	4(%rax), %esi
	movq	-32(%rbp), %rdx
	movabsq	$.L.str.38, %rdi
	callq	ue_v
	addl	$1, %eax
	addl	-12(%rbp), %eax
	movl	%eax, -12(%rbp)
.LBB9_9:                                # %if.end26
                                        #   in Loop: Header=BB9_4 Depth=1
	cmpl	$2, -16(%rbp)
	jne	.LBB9_11
# %bb.10:                               # %if.then29
                                        #   in Loop: Header=BB9_4 Depth=1
	movq	-24(%rbp), %rax
	movl	8(%rax), %esi
	movq	-32(%rbp), %rdx
	movabsq	$.L.str.39, %rdi
	callq	ue_v
	addl	-12(%rbp), %eax
	movl	%eax, -12(%rbp)
.LBB9_11:                               # %if.end32
                                        #   in Loop: Header=BB9_4 Depth=1
	cmpl	$3, -16(%rbp)
	je	.LBB9_13
# %bb.12:                               # %lor.lhs.false35
                                        #   in Loop: Header=BB9_4 Depth=1
	cmpl	$6, -16(%rbp)
	jne	.LBB9_14
.LBB9_13:                               # %if.then38
                                        #   in Loop: Header=BB9_4 Depth=1
	movq	-24(%rbp), %rax
	movl	12(%rax), %esi
	movq	-32(%rbp), %rdx
	movabsq	$.L.str.40, %rdi
	callq	ue_v
	addl	-12(%rbp), %eax
	movl	%eax, -12(%rbp)
.LBB9_14:                               # %if.end41
                                        #   in Loop: Header=BB9_4 Depth=1
	cmpl	$4, -16(%rbp)
	jne	.LBB9_16
# %bb.15:                               # %if.then44
                                        #   in Loop: Header=BB9_4 Depth=1
	movq	-24(%rbp), %rax
	movl	16(%rax), %esi
	movq	-32(%rbp), %rdx
	movabsq	$.L.str.41, %rdi
	callq	ue_v
	addl	-12(%rbp), %eax
	movl	%eax, -12(%rbp)
.LBB9_16:                               # %if.end47
                                        #   in Loop: Header=BB9_4 Depth=1
	movq	-24(%rbp), %rax
	movq	24(%rax), %rax
	movq	%rax, -24(%rbp)
# %bb.17:                               # %do.cond
                                        #   in Loop: Header=BB9_4 Depth=1
	cmpl	$0, -16(%rbp)
	jne	.LBB9_4
# %bb.18:                               # %do.end
	jmp	.LBB9_19
.LBB9_19:                               # %if.end50
	jmp	.LBB9_20
.LBB9_20:                               # %if.end51
	movl	-12(%rbp), %ebx
	cmpl	$1163161830, -36(%rbp)  # imm = 0x455470E6
	jne	.LBB9_22
.LBB9_21:
	movl	%ebx, %eax
	addq	$40, %rsp
	popq	%rbx
	popq	%rbp
	.cfi_def_cfa %rsp, 8
	retq
.LBB9_22:                               # %func_exit
	.cfi_def_cfa %rbp, 16
	callq	detect_breach
	jmp	.LBB9_21
.Lfunc_end9:
	.size	dec_ref_pic_marking.4, .Lfunc_end9-dec_ref_pic_marking.4
	.cfi_endproc
                                        # -- End function
	.p2align	4, 0x90         # -- Begin function dec_ref_pic_marking.5
	.type	dec_ref_pic_marking.5,@function
dec_ref_pic_marking.5:                  # @dec_ref_pic_marking.5
	.cfi_startproc
# %bb.0:                                # %entry
	pushq	%rbp
	.cfi_def_cfa_offset 16
	.cfi_offset %rbp, -16
	movq	%rsp, %rbp
	.cfi_def_cfa_register %rbp
	pushq	%rbx
	subq	$40, %rsp
	.cfi_offset %rbx, -24
	movl	$1103123914, -40(%rbp)  # imm = 0x41C055CA
	movq	input, %rax
	movslq	2364(%rax), %rax
	movq	assignSE2partition(,%rax,8), %rax
	movl	(%rax), %eax
	movl	%eax, -36(%rbp)
	movq	img, %rax
	movq	14160(%rax), %rax
	movq	24(%rax), %rax
	movslq	-36(%rbp), %rcx
	imulq	$120, %rcx, %rcx
	addq	%rcx, %rax
	movq	%rax, -32(%rbp)
	movl	$0, -12(%rbp)
	movq	img, %rax
	movq	14152(%rax), %rax
	cmpl	$0, 4(%rax)
	je	.LBB10_2
# %bb.1:                                # %if.then
	movq	img, %rax
	movl	72504(%rax), %esi
	movq	-32(%rbp), %rdx
	movabsq	$.L.str.33, %rdi
	callq	u_1
	addl	-12(%rbp), %eax
	movl	%eax, -12(%rbp)
	movq	img, %rax
	movl	72508(%rax), %esi
	movq	-32(%rbp), %rdx
	movabsq	$.L.str.34, %rdi
	callq	u_1
	addl	-12(%rbp), %eax
	movl	%eax, -12(%rbp)
	jmp	.LBB10_20
.LBB10_2:                               # %if.else
	movq	img, %rax
	cmpq	$0, 72512(%rax)
	setne	%al
	andb	$1, %al
	movzbl	%al, %eax
	movq	img, %rcx
	movl	%eax, 72500(%rcx)
	movq	img, %rax
	movl	72500(%rax), %esi
	movq	-32(%rbp), %rdx
	movabsq	$.L.str.35, %rdi
	callq	u_1
	addl	-12(%rbp), %eax
	movl	%eax, -12(%rbp)
	movq	img, %rax
	cmpl	$0, 72500(%rax)
	je	.LBB10_19
# %bb.3:                                # %if.then11
	movq	img, %rax
	movq	72512(%rax), %rax
	movq	%rax, -24(%rbp)
.LBB10_4:                               # %do.body
                                        # =>This Inner Loop Header: Depth=1
	cmpq	$0, -24(%rbp)
	jne	.LBB10_6
# %bb.5:                                # %if.then15
                                        #   in Loop: Header=BB10_4 Depth=1
	movabsq	$.L.str.36, %rdi
	movl	$500, %esi              # imm = 0x1F4
	callq	error
.LBB10_6:                               # %if.end
                                        #   in Loop: Header=BB10_4 Depth=1
	movq	-24(%rbp), %rax
	movl	(%rax), %eax
	movl	%eax, -16(%rbp)
	movl	-16(%rbp), %esi
	movq	-32(%rbp), %rdx
	movabsq	$.L.str.37, %rdi
	callq	ue_v
	addl	-12(%rbp), %eax
	movl	%eax, -12(%rbp)
	cmpl	$1, -16(%rbp)
	je	.LBB10_8
# %bb.7:                                # %lor.lhs.false
                                        #   in Loop: Header=BB10_4 Depth=1
	cmpl	$3, -16(%rbp)
	jne	.LBB10_9
.LBB10_8:                               # %if.then22
                                        #   in Loop: Header=BB10_4 Depth=1
	movq	-24(%rbp), %rax
	movl	4(%rax), %esi
	movq	-32(%rbp), %rdx
	movabsq	$.L.str.38, %rdi
	callq	ue_v
	addl	$1, %eax
	addl	-12(%rbp), %eax
	movl	%eax, -12(%rbp)
.LBB10_9:                               # %if.end26
                                        #   in Loop: Header=BB10_4 Depth=1
	cmpl	$2, -16(%rbp)
	jne	.LBB10_11
# %bb.10:                               # %if.then29
                                        #   in Loop: Header=BB10_4 Depth=1
	movq	-24(%rbp), %rax
	movl	8(%rax), %esi
	movq	-32(%rbp), %rdx
	movabsq	$.L.str.39, %rdi
	callq	ue_v
	addl	-12(%rbp), %eax
	movl	%eax, -12(%rbp)
.LBB10_11:                              # %if.end32
                                        #   in Loop: Header=BB10_4 Depth=1
	cmpl	$3, -16(%rbp)
	je	.LBB10_13
# %bb.12:                               # %lor.lhs.false35
                                        #   in Loop: Header=BB10_4 Depth=1
	cmpl	$6, -16(%rbp)
	jne	.LBB10_14
.LBB10_13:                              # %if.then38
                                        #   in Loop: Header=BB10_4 Depth=1
	movq	-24(%rbp), %rax
	movl	12(%rax), %esi
	movq	-32(%rbp), %rdx
	movabsq	$.L.str.40, %rdi
	callq	ue_v
	addl	-12(%rbp), %eax
	movl	%eax, -12(%rbp)
.LBB10_14:                              # %if.end41
                                        #   in Loop: Header=BB10_4 Depth=1
	cmpl	$4, -16(%rbp)
	jne	.LBB10_16
# %bb.15:                               # %if.then44
                                        #   in Loop: Header=BB10_4 Depth=1
	movq	-24(%rbp), %rax
	movl	16(%rax), %esi
	movq	-32(%rbp), %rdx
	movabsq	$.L.str.41, %rdi
	callq	ue_v
	addl	-12(%rbp), %eax
	movl	%eax, -12(%rbp)
.LBB10_16:                              # %if.end47
                                        #   in Loop: Header=BB10_4 Depth=1
	movq	-24(%rbp), %rax
	movq	24(%rax), %rax
	movq	%rax, -24(%rbp)
# %bb.17:                               # %do.cond
                                        #   in Loop: Header=BB10_4 Depth=1
	cmpl	$0, -16(%rbp)
	jne	.LBB10_4
# %bb.18:                               # %do.end
	jmp	.LBB10_19
.LBB10_19:                              # %if.end50
	jmp	.LBB10_20
.LBB10_20:                              # %if.end51
	movl	-12(%rbp), %ebx
	cmpl	$1103123914, -40(%rbp)  # imm = 0x41C055CA
	jne	.LBB10_22
.LBB10_21:
	movl	%ebx, %eax
	addq	$40, %rsp
	popq	%rbx
	popq	%rbp
	.cfi_def_cfa %rsp, 8
	retq
.LBB10_22:                              # %func_exit
	.cfi_def_cfa %rbp, 16
	callq	detect_breach
	jmp	.LBB10_21
.Lfunc_end10:
	.size	dec_ref_pic_marking.5, .Lfunc_end10-dec_ref_pic_marking.5
	.cfi_endproc
                                        # -- End function
	.section	.rodata.cst8,"aM",@progbits,8
	.p2align	3               # -- Begin function SliceHeader.6
.LCPI11_0:
	.quad	4611686018427387904     # double 2
	.section	.rodata.cst4,"aM",@progbits,4
	.p2align	2
.LCPI11_1:
	.long	1065353216              # float 1
	.text
	.globl	SliceHeader.6
	.p2align	4, 0x90
	.type	SliceHeader.6,@function
SliceHeader.6:                          # @SliceHeader.6
	.cfi_startproc
# %bb.0:                                # %entry
	pushq	%rbp
	.cfi_def_cfa_offset 16
	.cfi_offset %rbp, -16
	movq	%rsp, %rbp
	.cfi_def_cfa_register %rbp
	pushq	%rbx
	subq	$72, %rsp
	.cfi_offset %rbx, -24
	movl	$1390195139, -52(%rbp)  # imm = 0x52DCB1C3
	movq	input, %rax
	movslq	2364(%rax), %rax
	movq	assignSE2partition(,%rax,8), %rax
	movl	(%rax), %eax
	movl	%eax, -48(%rbp)
	movq	img, %rax
	movq	14160(%rax), %rax
	movq	24(%rax), %rax
	movslq	-48(%rbp), %rcx
	imulq	$120, %rcx, %rcx
	addq	%rcx, %rax
	movq	%rax, -24(%rbp)
	movq	img, %rax
	movq	14160(%rax), %rax
	movq	%rax, -72(%rbp)
	movl	$0, -12(%rbp)
	movl	$0, -28(%rbp)
	movl	$0, -36(%rbp)
	movq	img, %rax
	cmpl	$0, 72400(%rax)
	je	.LBB11_2
# %bb.1:                                # %if.then
	movq	img, %rax
	movl	12(%rax), %esi
	sarl	$1, %esi
	movq	-24(%rbp), %rdx
	movabsq	$.L.str, %rdi
	callq	ue_v
	movl	%eax, -12(%rbp)
	jmp	.LBB11_3
.LBB11_2:                               # %if.else
	movq	img, %rax
	movl	12(%rax), %esi
	movq	-24(%rbp), %rdx
	movabsq	$.L.str, %rdi
	callq	ue_v
	movl	%eax, -12(%rbp)
.LBB11_3:                               # %if.end
	callq	get_picture_type
	movq	-24(%rbp), %rdx
	movabsq	$.L.str.1, %rdi
	movl	%eax, %esi
	callq	ue_v
	addl	-12(%rbp), %eax
	movl	%eax, -12(%rbp)
	movq	active_pps, %rax
	movl	4(%rax), %esi
	movq	-24(%rbp), %rdx
	movabsq	$.L.str.2, %rdi
	callq	ue_v
	addl	-12(%rbp), %eax
	movl	%eax, -12(%rbp)
	movl	log2_max_frame_num_minus4, %edi
	addl	$4, %edi
	movq	img, %rax
	movl	72464(%rax), %edx
	movq	-24(%rbp), %rcx
	movabsq	$.L.str.3, %rsi
	callq	u_v
	addl	-12(%rbp), %eax
	movl	%eax, -12(%rbp)
	movq	active_sps, %rax
	cmpl	$0, 1148(%rax)
	jne	.LBB11_9
# %bb.4:                                # %if.then15
	movq	img, %rax
	cmpl	$1, 28(%rax)
	movb	$1, %al
	je	.LBB11_6
# %bb.5:                                # %lor.rhs
	movq	img, %rax
	cmpl	$2, 28(%rax)
	sete	%al
.LBB11_6:                               # %lor.end
	xorl	%ecx, %ecx
	testb	$1, %al
	movl	$1, %eax
	cmovnel	%eax, %ecx
	movl	%ecx, -28(%rbp)
	movl	-28(%rbp), %esi
	movq	-24(%rbp), %rdx
	movabsq	$.L.str.4, %rdi
	callq	u_1
	addl	-12(%rbp), %eax
	movl	%eax, -12(%rbp)
	cmpl	$0, -28(%rbp)
	je	.LBB11_8
# %bb.7:                                # %if.then21
	xorl	%eax, %eax
	movq	img, %rcx
	movl	28(%rcx), %ecx
	cmpl	$2, %ecx
	movl	$1, %ecx
	cmovel	%ecx, %eax
	movl	%eax, -36(%rbp)
	movl	-36(%rbp), %esi
	movq	-24(%rbp), %rdx
	movabsq	$.L.str.5, %rdi
	callq	u_1
	addl	-12(%rbp), %eax
	movl	%eax, -12(%rbp)
.LBB11_8:                               # %if.end27
	jmp	.LBB11_9
.LBB11_9:                               # %if.end28
	movq	img, %rax
	movq	14152(%rax), %rax
	cmpl	$0, 4(%rax)
	je	.LBB11_11
# %bb.10:                               # %if.then30
	movq	img, %rax
	movl	(%rax), %eax
	cltd
	movl	$2, %ecx
	idivl	%ecx
	movq	-24(%rbp), %rax
	movabsq	$.L.str.6, %rdi
	movl	%edx, %esi
	movq	%rax, %rdx
	callq	ue_v
	addl	-12(%rbp), %eax
	movl	%eax, -12(%rbp)
.LBB11_11:                              # %if.end33
	movq	img, %rax
	cmpl	$0, 72404(%rax)
	jne	.LBB11_25
# %bb.12:                               # %if.then35
	movq	active_sps, %rax
	cmpl	$0, 1148(%rax)
	je	.LBB11_14
# %bb.13:                               # %if.then38
	movq	img, %rax
	movl	72448(%rax), %eax
	movl	log2_max_pic_order_cnt_lsb_minus4, %ecx
	addl	$4, %ecx
                                        # kill: def $cl killed $ecx
	movl	$4294967295, %edx       # imm = 0xFFFFFFFF
	shll	%cl, %edx
	xorl	$-1, %edx
	andl	%edx, %eax
	movq	img, %rcx
	movl	%eax, 72428(%rcx)
	jmp	.LBB11_21
.LBB11_14:                              # %if.else40
	cmpl	$0, -28(%rbp)
	je	.LBB11_16
# %bb.15:                               # %lor.lhs.false
	movq	img, %rax
	cmpl	$1, 28(%rax)
	jne	.LBB11_17
.LBB11_16:                              # %if.then44
	movq	img, %rax
	movl	72448(%rax), %eax
	movl	log2_max_pic_order_cnt_lsb_minus4, %ecx
	addl	$4, %ecx
                                        # kill: def $cl killed $ecx
	movl	$4294967295, %edx       # imm = 0xFFFFFFFF
	shll	%cl, %edx
	xorl	$-1, %edx
	andl	%edx, %eax
	movq	img, %rcx
	movl	%eax, 72428(%rcx)
	jmp	.LBB11_20
.LBB11_17:                              # %if.else51
	movq	img, %rax
	cmpl	$2, 28(%rax)
	jne	.LBB11_19
# %bb.18:                               # %if.then54
	movq	img, %rax
	movl	72452(%rax), %eax
	movl	log2_max_pic_order_cnt_lsb_minus4, %ecx
	addl	$4, %ecx
                                        # kill: def $cl killed $ecx
	movl	$4294967295, %edx       # imm = 0xFFFFFFFF
	shll	%cl, %edx
	xorl	$-1, %edx
	andl	%edx, %eax
	movq	img, %rcx
	movl	%eax, 72428(%rcx)
.LBB11_19:                              # %if.end60
	jmp	.LBB11_20
.LBB11_20:                              # %if.end61
	jmp	.LBB11_21
.LBB11_21:                              # %if.end62
	movl	log2_max_pic_order_cnt_lsb_minus4, %edi
	addl	$4, %edi
	movq	img, %rax
	movl	72428(%rax), %edx
	movq	-24(%rbp), %rcx
	movabsq	$.L.str.7, %rsi
	callq	u_v
	addl	-12(%rbp), %eax
	movl	%eax, -12(%rbp)
	movq	img, %rax
	cmpl	$0, 72492(%rax)
	je	.LBB11_24
# %bb.22:                               # %land.lhs.true
	cmpl	$0, -28(%rbp)
	jne	.LBB11_24
# %bb.23:                               # %if.then69
	movq	img, %rax
	movl	72432(%rax), %esi
	movq	-24(%rbp), %rdx
	movabsq	$.L.str.8, %rdi
	callq	se_v
	addl	-12(%rbp), %eax
	movl	%eax, -12(%rbp)
.LBB11_24:                              # %if.end72
	jmp	.LBB11_25
.LBB11_25:                              # %if.end73
	movq	img, %rax
	cmpl	$1, 72404(%rax)
	jne	.LBB11_31
# %bb.26:                               # %land.lhs.true76
	movq	img, %rax
	cmpl	$0, 72408(%rax)
	jne	.LBB11_31
# %bb.27:                               # %if.then78
	movq	img, %rax
	movl	72436(%rax), %esi
	movq	-24(%rbp), %rdx
	movabsq	$.L.str.9, %rdi
	callq	se_v
	addl	-12(%rbp), %eax
	movl	%eax, -12(%rbp)
	movq	img, %rax
	cmpl	$0, 72492(%rax)
	je	.LBB11_30
# %bb.28:                               # %land.lhs.true84
	cmpl	$0, -28(%rbp)
	jne	.LBB11_30
# %bb.29:                               # %if.then86
	movq	img, %rax
	movl	72440(%rax), %esi
	movq	-24(%rbp), %rdx
	movabsq	$.L.str.10, %rdi
	callq	se_v
	addl	-12(%rbp), %eax
	movl	%eax, -12(%rbp)
.LBB11_30:                              # %if.end91
	jmp	.LBB11_31
.LBB11_31:                              # %if.end92
	movq	input, %rax
	cmpl	$0, 3204(%rax)
	je	.LBB11_33
# %bb.32:                               # %if.then94
	movq	img, %rax
	movl	72396(%rax), %esi
	movq	-24(%rbp), %rdx
	movabsq	$.L.str.11, %rdi
	callq	ue_v
	addl	-12(%rbp), %eax
	movl	%eax, -12(%rbp)
.LBB11_33:                              # %if.end97
	movq	img, %rax
	cmpl	$1, 24(%rax)
	jne	.LBB11_35
# %bb.34:                               # %if.then99
	movq	img, %rax
	movl	71996(%rax), %esi
	movq	-24(%rbp), %rdx
	movabsq	$.L.str.12, %rdi
	callq	u_1
	addl	-12(%rbp), %eax
	movl	%eax, -12(%rbp)
.LBB11_35:                              # %if.end102
	movq	img, %rax
	cmpl	$0, 24(%rax)
	je	.LBB11_38
# %bb.36:                               # %lor.lhs.false105
	movq	img, %rax
	cmpl	$1, 24(%rax)
	je	.LBB11_38
# %bb.37:                               # %lor.lhs.false108
	movq	img, %rax
	cmpl	$3, 24(%rax)
	jne	.LBB11_49
.LBB11_38:                              # %if.then111
	movq	img, %rax
	cmpl	$0, 24(%rax)
	je	.LBB11_40
# %bb.39:                               # %lor.lhs.false114
	movq	img, %rax
	cmpl	$3, 24(%rax)
	jne	.LBB11_41
.LBB11_40:                              # %if.then117
	xorl	%eax, %eax
	movq	img, %rcx
	movl	72000(%rcx), %ecx
	movq	active_pps, %rdx
	movl	184(%rdx), %edx
	addl	$1, %edx
	cmpl	%edx, %ecx
	movl	$1, %ecx
	cmovnel	%ecx, %eax
	movl	%eax, -32(%rbp)
	jmp	.LBB11_44
.LBB11_41:                              # %if.else121
	movq	img, %rax
	movl	72000(%rax), %eax
	movq	active_pps, %rcx
	movl	184(%rcx), %ecx
	addl	$1, %ecx
	cmpl	%ecx, %eax
	movb	$1, %al
	jne	.LBB11_43
# %bb.42:                               # %lor.rhs126
	movq	img, %rax
	movl	72004(%rax), %eax
	movq	active_pps, %rcx
	movl	188(%rcx), %ecx
	addl	$1, %ecx
	cmpl	%ecx, %eax
	setne	%al
.LBB11_43:                              # %lor.end129
	xorl	%ecx, %ecx
	testb	$1, %al
	movl	$1, %eax
	cmovnel	%eax, %ecx
	movl	%ecx, -32(%rbp)
.LBB11_44:                              # %if.end131
	movl	-32(%rbp), %esi
	movq	-24(%rbp), %rdx
	movabsq	$.L.str.13, %rdi
	callq	u_1
	addl	-12(%rbp), %eax
	movl	%eax, -12(%rbp)
	cmpl	$0, -32(%rbp)
	je	.LBB11_48
# %bb.45:                               # %if.then135
	movq	img, %rax
	movl	72000(%rax), %esi
	subl	$1, %esi
	movq	-24(%rbp), %rdx
	movabsq	$.L.str.14, %rdi
	callq	ue_v
	addl	-12(%rbp), %eax
	movl	%eax, -12(%rbp)
	movq	img, %rax
	cmpl	$1, 24(%rax)
	jne	.LBB11_47
# %bb.46:                               # %if.then141
	movq	img, %rax
	movl	72004(%rax), %esi
	subl	$1, %esi
	movq	-24(%rbp), %rdx
	movabsq	$.L.str.15, %rdi
	callq	ue_v
	addl	-12(%rbp), %eax
	movl	%eax, -12(%rbp)
.LBB11_47:                              # %if.end146
	jmp	.LBB11_48
.LBB11_48:                              # %if.end147
	jmp	.LBB11_49
.LBB11_49:                              # %if.end148
	callq	ref_pic_list_reordering
	addl	-12(%rbp), %eax
	movl	%eax, -12(%rbp)
	movq	img, %rax
	cmpl	$0, 24(%rax)
	je	.LBB11_51
# %bb.50:                               # %lor.lhs.false153
	movq	img, %rax
	cmpl	$3, 24(%rax)
	jne	.LBB11_52
.LBB11_51:                              # %land.lhs.true156
	movq	active_pps, %rax
	cmpl	$0, 192(%rax)
	jne	.LBB11_54
.LBB11_52:                              # %lor.lhs.false158
	movq	img, %rax
	cmpl	$1, 24(%rax)
	jne	.LBB11_55
# %bb.53:                               # %land.lhs.true161
	movq	active_pps, %rax
	cmpl	$1, 196(%rax)
	jne	.LBB11_55
.LBB11_54:                              # %if.then163
	callq	pred_weight_table
	addl	-12(%rbp), %eax
	movl	%eax, -12(%rbp)
.LBB11_55:                              # %if.end166
	movq	img, %rax
	cmpl	$0, 72496(%rax)
	je	.LBB11_57
# %bb.56:                               # %if.then168
	callq	dec_ref_pic_marking
	addl	-12(%rbp), %eax
	movl	%eax, -12(%rbp)
.LBB11_57:                              # %if.end171
	movq	input, %rax
	cmpl	$1, 2356(%rax)
	jne	.LBB11_60
# %bb.58:                               # %land.lhs.true173
	movq	img, %rax
	cmpl	$2, 24(%rax)
	je	.LBB11_60
# %bb.59:                               # %if.then176
	movq	img, %rax
	movl	72520(%rax), %esi
	movq	-24(%rbp), %rdx
	movabsq	$.L.str.16, %rdi
	callq	ue_v
	addl	-12(%rbp), %eax
	movl	%eax, -12(%rbp)
.LBB11_60:                              # %if.end179
	movq	-72(%rbp), %rax
	movl	4(%rax), %esi
	subl	$26, %esi
	movq	active_pps, %rax
	subl	200(%rax), %esi
	movq	-24(%rbp), %rdx
	movabsq	$.L.str.17, %rdi
	callq	se_v
	addl	-12(%rbp), %eax
	movl	%eax, -12(%rbp)
	movq	img, %rax
	cmpl	$3, 24(%rax)
	jne	.LBB11_64
# %bb.61:                               # %if.then186
	movq	img, %rax
	cmpl	$3, 24(%rax)
	jne	.LBB11_63
# %bb.62:                               # %if.then189
	movq	-24(%rbp), %rdx
	movabsq	$.L.str.18, %rdi
	xorl	%esi, %esi
	callq	u_1
	addl	-12(%rbp), %eax
	movl	%eax, -12(%rbp)
.LBB11_63:                              # %if.end192
	movq	img, %rax
	movl	44(%rax), %esi
	subl	$26, %esi
	movq	-24(%rbp), %rdx
	movabsq	$.L.str.19, %rdi
	callq	se_v
	addl	-12(%rbp), %eax
	movl	%eax, -12(%rbp)
.LBB11_64:                              # %if.end196
	movq	active_pps, %rax
	cmpl	$0, 220(%rax)
	je	.LBB11_68
# %bb.65:                               # %if.then198
	movq	img, %rax
	movl	71984(%rax), %esi
	movq	-24(%rbp), %rdx
	movabsq	$.L.str.20, %rdi
	callq	ue_v
	addl	-12(%rbp), %eax
	movl	%eax, -12(%rbp)
	movq	img, %rax
	cmpl	$1, 71984(%rax)
	je	.LBB11_67
# %bb.66:                               # %if.then203
	movq	img, %rax
	movl	71988(%rax), %eax
	cltd
	movl	$2, %ecx
	idivl	%ecx
	movq	-24(%rbp), %rdx
	movabsq	$.L.str.21, %rdi
	movl	%eax, %esi
	callq	se_v
	addl	-12(%rbp), %eax
	movl	%eax, -12(%rbp)
	movq	img, %rax
	movl	71992(%rax), %eax
	cltd
	movl	$2, %ecx
	idivl	%ecx
	movq	-24(%rbp), %rdx
	movabsq	$.L.str.22, %rdi
	movl	%eax, %esi
	callq	se_v
	addl	-12(%rbp), %eax
	movl	%eax, -12(%rbp)
.LBB11_67:                              # %if.end209
	jmp	.LBB11_68
.LBB11_68:                              # %if.end210
	movq	active_pps, %rax
	cmpl	$0, 60(%rax)
	jbe	.LBB11_72
# %bb.69:                               # %land.lhs.true212
	movq	active_pps, %rax
	cmpl	$3, 64(%rax)
	jb	.LBB11_72
# %bb.70:                               # %land.lhs.true214
	movq	active_pps, %rax
	cmpl	$5, 64(%rax)
	ja	.LBB11_72
# %bb.71:                               # %if.then217
	vmovss	.LCPI11_1(%rip), %xmm0  # xmm0 = mem[0],zero,zero,zero
	movq	img(%rip), %rax
	movl	72468(%rax), %ecx
	movl	72472(%rax), %eax
	imull	%ecx, %eax
	vcvtsi2ss	%rax, %xmm0, %xmm1
	movq	active_pps(%rip), %rax
	movl	168(%rax), %eax
	addl	$1, %eax
	vcvtsi2ss	%rax, %xmm0, %xmm2
	vdivss	%xmm2, %xmm1, %xmm1
	vaddss	%xmm0, %xmm1, %xmm0
	vmovss	%xmm0, -40(%rbp)
	vmovss	-40(%rbp), %xmm0        # xmm0 = mem[0],zero,zero,zero
	vcvtss2sd	%xmm0, %xmm0, %xmm0
	callq	log
	vmovsd	%xmm0, -64(%rbp)        # 8-byte Spill
	vmovsd	.LCPI11_0(%rip), %xmm0  # xmm0 = mem[0],zero
	callq	log
	vmovsd	-64(%rbp), %xmm1        # 8-byte Reload
                                        # xmm1 = mem[0],zero
	vdivsd	%xmm0, %xmm1, %xmm0
	vroundsd	$10, %xmm0, %xmm0, %xmm0
	vcvttsd2si	%xmm0, %eax
	movl	%eax, -44(%rbp)
	movl	-44(%rbp), %edi
	movq	img, %rax
	movl	72652(%rax), %edx
	movq	-24(%rbp), %rcx
	movabsq	$.L.str.23, %rsi
	callq	u_v
	addl	-12(%rbp), %eax
	movl	%eax, -12(%rbp)
.LBB11_72:                              # %if.end229
	movq	input, %rax
	cmpl	$0, 2364(%rax)
	je	.LBB11_75
# %bb.73:                               # %land.lhs.true232
	movq	img, %rax
	movq	14152(%rax), %rax
	cmpl	$0, 4(%rax)
	jne	.LBB11_75
# %bb.74:                               # %if.then236
	movq	img, %rax
	movl	20(%rax), %esi
	movq	-24(%rbp), %rdx
	movabsq	$.L.str.24, %rdi
	callq	ue_v
	addl	-12(%rbp), %eax
	movl	%eax, -12(%rbp)
.LBB11_75:                              # %if.end239
	movl	-12(%rbp), %ebx
	cmpl	$1390195139, -52(%rbp)  # imm = 0x52DCB1C3
	jne	.LBB11_77
.LBB11_76:
	movl	%ebx, %eax
	addq	$72, %rsp
	popq	%rbx
	popq	%rbp
	.cfi_def_cfa %rsp, 8
	retq
.LBB11_77:                              # %func_exit
	.cfi_def_cfa %rbp, 16
	callq	detect_breach
	jmp	.LBB11_76
.Lfunc_end11:
	.size	SliceHeader.6, .Lfunc_end11-SliceHeader.6
	.cfi_endproc
                                        # -- End function
	.section	.rodata.cst8,"aM",@progbits,8
	.p2align	3               # -- Begin function SliceHeader.7
.LCPI12_0:
	.quad	4611686018427387904     # double 2
	.section	.rodata.cst4,"aM",@progbits,4
	.p2align	2
.LCPI12_1:
	.long	1065353216              # float 1
	.text
	.globl	SliceHeader.7
	.p2align	4, 0x90
	.type	SliceHeader.7,@function
SliceHeader.7:                          # @SliceHeader.7
	.cfi_startproc
# %bb.0:                                # %entry
	pushq	%rbp
	.cfi_def_cfa_offset 16
	.cfi_offset %rbp, -16
	movq	%rsp, %rbp
	.cfi_def_cfa_register %rbp
	pushq	%rbx
	subq	$72, %rsp
	.cfi_offset %rbx, -24
	movl	$1504105379, -44(%rbp)  # imm = 0x59A6D3A3
	movq	input, %rax
	movslq	2364(%rax), %rax
	movq	assignSE2partition(,%rax,8), %rax
	movl	(%rax), %eax
	movl	%eax, -40(%rbp)
	movq	img, %rax
	movq	14160(%rax), %rax
	movq	24(%rax), %rax
	movslq	-40(%rbp), %rcx
	imulq	$120, %rcx, %rcx
	addq	%rcx, %rax
	movq	%rax, -24(%rbp)
	movq	img, %rax
	movq	14160(%rax), %rax
	movq	%rax, -72(%rbp)
	movl	$0, -12(%rbp)
	movl	$0, -28(%rbp)
	movl	$0, -36(%rbp)
	movq	img, %rax
	cmpl	$0, 72400(%rax)
	je	.LBB12_2
# %bb.1:                                # %if.then
	movq	img, %rax
	movl	12(%rax), %esi
	sarl	$1, %esi
	movq	-24(%rbp), %rdx
	movabsq	$.L.str, %rdi
	callq	ue_v
	movl	%eax, -12(%rbp)
	jmp	.LBB12_3
.LBB12_2:                               # %if.else
	movq	img, %rax
	movl	12(%rax), %esi
	movq	-24(%rbp), %rdx
	movabsq	$.L.str, %rdi
	callq	ue_v
	movl	%eax, -12(%rbp)
.LBB12_3:                               # %if.end
	callq	get_picture_type
	movq	-24(%rbp), %rdx
	movabsq	$.L.str.1, %rdi
	movl	%eax, %esi
	callq	ue_v
	addl	-12(%rbp), %eax
	movl	%eax, -12(%rbp)
	movq	active_pps, %rax
	movl	4(%rax), %esi
	movq	-24(%rbp), %rdx
	movabsq	$.L.str.2, %rdi
	callq	ue_v
	addl	-12(%rbp), %eax
	movl	%eax, -12(%rbp)
	movl	log2_max_frame_num_minus4, %edi
	addl	$4, %edi
	movq	img, %rax
	movl	72464(%rax), %edx
	movq	-24(%rbp), %rcx
	movabsq	$.L.str.3, %rsi
	callq	u_v
	addl	-12(%rbp), %eax
	movl	%eax, -12(%rbp)
	movq	active_sps, %rax
	cmpl	$0, 1148(%rax)
	jne	.LBB12_9
# %bb.4:                                # %if.then15
	movq	img, %rax
	cmpl	$1, 28(%rax)
	movb	$1, %al
	je	.LBB12_6
# %bb.5:                                # %lor.rhs
	movq	img, %rax
	cmpl	$2, 28(%rax)
	sete	%al
.LBB12_6:                               # %lor.end
	xorl	%ecx, %ecx
	testb	$1, %al
	movl	$1, %eax
	cmovnel	%eax, %ecx
	movl	%ecx, -28(%rbp)
	movl	-28(%rbp), %esi
	movq	-24(%rbp), %rdx
	movabsq	$.L.str.4, %rdi
	callq	u_1
	addl	-12(%rbp), %eax
	movl	%eax, -12(%rbp)
	cmpl	$0, -28(%rbp)
	je	.LBB12_8
# %bb.7:                                # %if.then21
	xorl	%eax, %eax
	movq	img, %rcx
	movl	28(%rcx), %ecx
	cmpl	$2, %ecx
	movl	$1, %ecx
	cmovel	%ecx, %eax
	movl	%eax, -36(%rbp)
	movl	-36(%rbp), %esi
	movq	-24(%rbp), %rdx
	movabsq	$.L.str.5, %rdi
	callq	u_1
	addl	-12(%rbp), %eax
	movl	%eax, -12(%rbp)
.LBB12_8:                               # %if.end27
	jmp	.LBB12_9
.LBB12_9:                               # %if.end28
	movq	img, %rax
	movq	14152(%rax), %rax
	cmpl	$0, 4(%rax)
	je	.LBB12_11
# %bb.10:                               # %if.then30
	movq	img, %rax
	movl	(%rax), %eax
	cltd
	movl	$2, %ecx
	idivl	%ecx
	movq	-24(%rbp), %rax
	movabsq	$.L.str.6, %rdi
	movl	%edx, %esi
	movq	%rax, %rdx
	callq	ue_v
	addl	-12(%rbp), %eax
	movl	%eax, -12(%rbp)
.LBB12_11:                              # %if.end33
	movq	img, %rax
	cmpl	$0, 72404(%rax)
	jne	.LBB12_25
# %bb.12:                               # %if.then35
	movq	active_sps, %rax
	cmpl	$0, 1148(%rax)
	je	.LBB12_14
# %bb.13:                               # %if.then38
	movq	img, %rax
	movl	72448(%rax), %eax
	movl	log2_max_pic_order_cnt_lsb_minus4, %ecx
	addl	$4, %ecx
                                        # kill: def $cl killed $ecx
	movl	$4294967295, %edx       # imm = 0xFFFFFFFF
	shll	%cl, %edx
	xorl	$-1, %edx
	andl	%edx, %eax
	movq	img, %rcx
	movl	%eax, 72428(%rcx)
	jmp	.LBB12_21
.LBB12_14:                              # %if.else40
	cmpl	$0, -28(%rbp)
	je	.LBB12_16
# %bb.15:                               # %lor.lhs.false
	movq	img, %rax
	cmpl	$1, 28(%rax)
	jne	.LBB12_17
.LBB12_16:                              # %if.then44
	movq	img, %rax
	movl	72448(%rax), %eax
	movl	log2_max_pic_order_cnt_lsb_minus4, %ecx
	addl	$4, %ecx
                                        # kill: def $cl killed $ecx
	movl	$4294967295, %edx       # imm = 0xFFFFFFFF
	shll	%cl, %edx
	xorl	$-1, %edx
	andl	%edx, %eax
	movq	img, %rcx
	movl	%eax, 72428(%rcx)
	jmp	.LBB12_20
.LBB12_17:                              # %if.else51
	movq	img, %rax
	cmpl	$2, 28(%rax)
	jne	.LBB12_19
# %bb.18:                               # %if.then54
	movq	img, %rax
	movl	72452(%rax), %eax
	movl	log2_max_pic_order_cnt_lsb_minus4, %ecx
	addl	$4, %ecx
                                        # kill: def $cl killed $ecx
	movl	$4294967295, %edx       # imm = 0xFFFFFFFF
	shll	%cl, %edx
	xorl	$-1, %edx
	andl	%edx, %eax
	movq	img, %rcx
	movl	%eax, 72428(%rcx)
.LBB12_19:                              # %if.end60
	jmp	.LBB12_20
.LBB12_20:                              # %if.end61
	jmp	.LBB12_21
.LBB12_21:                              # %if.end62
	movl	log2_max_pic_order_cnt_lsb_minus4, %edi
	addl	$4, %edi
	movq	img, %rax
	movl	72428(%rax), %edx
	movq	-24(%rbp), %rcx
	movabsq	$.L.str.7, %rsi
	callq	u_v
	addl	-12(%rbp), %eax
	movl	%eax, -12(%rbp)
	movq	img, %rax
	cmpl	$0, 72492(%rax)
	je	.LBB12_24
# %bb.22:                               # %land.lhs.true
	cmpl	$0, -28(%rbp)
	jne	.LBB12_24
# %bb.23:                               # %if.then69
	movq	img, %rax
	movl	72432(%rax), %esi
	movq	-24(%rbp), %rdx
	movabsq	$.L.str.8, %rdi
	callq	se_v
	addl	-12(%rbp), %eax
	movl	%eax, -12(%rbp)
.LBB12_24:                              # %if.end72
	jmp	.LBB12_25
.LBB12_25:                              # %if.end73
	movq	img, %rax
	cmpl	$1, 72404(%rax)
	jne	.LBB12_31
# %bb.26:                               # %land.lhs.true76
	movq	img, %rax
	cmpl	$0, 72408(%rax)
	jne	.LBB12_31
# %bb.27:                               # %if.then78
	movq	img, %rax
	movl	72436(%rax), %esi
	movq	-24(%rbp), %rdx
	movabsq	$.L.str.9, %rdi
	callq	se_v
	addl	-12(%rbp), %eax
	movl	%eax, -12(%rbp)
	movq	img, %rax
	cmpl	$0, 72492(%rax)
	je	.LBB12_30
# %bb.28:                               # %land.lhs.true84
	cmpl	$0, -28(%rbp)
	jne	.LBB12_30
# %bb.29:                               # %if.then86
	movq	img, %rax
	movl	72440(%rax), %esi
	movq	-24(%rbp), %rdx
	movabsq	$.L.str.10, %rdi
	callq	se_v
	addl	-12(%rbp), %eax
	movl	%eax, -12(%rbp)
.LBB12_30:                              # %if.end91
	jmp	.LBB12_31
.LBB12_31:                              # %if.end92
	movq	input, %rax
	cmpl	$0, 3204(%rax)
	je	.LBB12_33
# %bb.32:                               # %if.then94
	movq	img, %rax
	movl	72396(%rax), %esi
	movq	-24(%rbp), %rdx
	movabsq	$.L.str.11, %rdi
	callq	ue_v
	addl	-12(%rbp), %eax
	movl	%eax, -12(%rbp)
.LBB12_33:                              # %if.end97
	movq	img, %rax
	cmpl	$1, 24(%rax)
	jne	.LBB12_35
# %bb.34:                               # %if.then99
	movq	img, %rax
	movl	71996(%rax), %esi
	movq	-24(%rbp), %rdx
	movabsq	$.L.str.12, %rdi
	callq	u_1
	addl	-12(%rbp), %eax
	movl	%eax, -12(%rbp)
.LBB12_35:                              # %if.end102
	movq	img, %rax
	cmpl	$0, 24(%rax)
	je	.LBB12_38
# %bb.36:                               # %lor.lhs.false105
	movq	img, %rax
	cmpl	$1, 24(%rax)
	je	.LBB12_38
# %bb.37:                               # %lor.lhs.false108
	movq	img, %rax
	cmpl	$3, 24(%rax)
	jne	.LBB12_49
.LBB12_38:                              # %if.then111
	movq	img, %rax
	cmpl	$0, 24(%rax)
	je	.LBB12_40
# %bb.39:                               # %lor.lhs.false114
	movq	img, %rax
	cmpl	$3, 24(%rax)
	jne	.LBB12_41
.LBB12_40:                              # %if.then117
	xorl	%eax, %eax
	movq	img, %rcx
	movl	72000(%rcx), %ecx
	movq	active_pps, %rdx
	movl	184(%rdx), %edx
	addl	$1, %edx
	cmpl	%edx, %ecx
	movl	$1, %ecx
	cmovnel	%ecx, %eax
	movl	%eax, -32(%rbp)
	jmp	.LBB12_44
.LBB12_41:                              # %if.else121
	movq	img, %rax
	movl	72000(%rax), %eax
	movq	active_pps, %rcx
	movl	184(%rcx), %ecx
	addl	$1, %ecx
	cmpl	%ecx, %eax
	movb	$1, %al
	jne	.LBB12_43
# %bb.42:                               # %lor.rhs126
	movq	img, %rax
	movl	72004(%rax), %eax
	movq	active_pps, %rcx
	movl	188(%rcx), %ecx
	addl	$1, %ecx
	cmpl	%ecx, %eax
	setne	%al
.LBB12_43:                              # %lor.end129
	xorl	%ecx, %ecx
	testb	$1, %al
	movl	$1, %eax
	cmovnel	%eax, %ecx
	movl	%ecx, -32(%rbp)
.LBB12_44:                              # %if.end131
	movl	-32(%rbp), %esi
	movq	-24(%rbp), %rdx
	movabsq	$.L.str.13, %rdi
	callq	u_1
	addl	-12(%rbp), %eax
	movl	%eax, -12(%rbp)
	cmpl	$0, -32(%rbp)
	je	.LBB12_48
# %bb.45:                               # %if.then135
	movq	img, %rax
	movl	72000(%rax), %esi
	subl	$1, %esi
	movq	-24(%rbp), %rdx
	movabsq	$.L.str.14, %rdi
	callq	ue_v
	addl	-12(%rbp), %eax
	movl	%eax, -12(%rbp)
	movq	img, %rax
	cmpl	$1, 24(%rax)
	jne	.LBB12_47
# %bb.46:                               # %if.then141
	movq	img, %rax
	movl	72004(%rax), %esi
	subl	$1, %esi
	movq	-24(%rbp), %rdx
	movabsq	$.L.str.15, %rdi
	callq	ue_v
	addl	-12(%rbp), %eax
	movl	%eax, -12(%rbp)
.LBB12_47:                              # %if.end146
	jmp	.LBB12_48
.LBB12_48:                              # %if.end147
	jmp	.LBB12_49
.LBB12_49:                              # %if.end148
	callq	ref_pic_list_reordering
	addl	-12(%rbp), %eax
	movl	%eax, -12(%rbp)
	movq	img, %rax
	cmpl	$0, 24(%rax)
	je	.LBB12_51
# %bb.50:                               # %lor.lhs.false153
	movq	img, %rax
	cmpl	$3, 24(%rax)
	jne	.LBB12_52
.LBB12_51:                              # %land.lhs.true156
	movq	active_pps, %rax
	cmpl	$0, 192(%rax)
	jne	.LBB12_54
.LBB12_52:                              # %lor.lhs.false158
	movq	img, %rax
	cmpl	$1, 24(%rax)
	jne	.LBB12_55
# %bb.53:                               # %land.lhs.true161
	movq	active_pps, %rax
	cmpl	$1, 196(%rax)
	jne	.LBB12_55
.LBB12_54:                              # %if.then163
	callq	pred_weight_table
	addl	-12(%rbp), %eax
	movl	%eax, -12(%rbp)
.LBB12_55:                              # %if.end166
	movq	img, %rax
	cmpl	$0, 72496(%rax)
	je	.LBB12_57
# %bb.56:                               # %if.then168
	callq	dec_ref_pic_marking
	addl	-12(%rbp), %eax
	movl	%eax, -12(%rbp)
.LBB12_57:                              # %if.end171
	movq	input, %rax
	cmpl	$1, 2356(%rax)
	jne	.LBB12_60
# %bb.58:                               # %land.lhs.true173
	movq	img, %rax
	cmpl	$2, 24(%rax)
	je	.LBB12_60
# %bb.59:                               # %if.then176
	movq	img, %rax
	movl	72520(%rax), %esi
	movq	-24(%rbp), %rdx
	movabsq	$.L.str.16, %rdi
	callq	ue_v
	addl	-12(%rbp), %eax
	movl	%eax, -12(%rbp)
.LBB12_60:                              # %if.end179
	movq	-72(%rbp), %rax
	movl	4(%rax), %esi
	subl	$26, %esi
	movq	active_pps, %rax
	subl	200(%rax), %esi
	movq	-24(%rbp), %rdx
	movabsq	$.L.str.17, %rdi
	callq	se_v
	addl	-12(%rbp), %eax
	movl	%eax, -12(%rbp)
	movq	img, %rax
	cmpl	$3, 24(%rax)
	jne	.LBB12_64
# %bb.61:                               # %if.then186
	movq	img, %rax
	cmpl	$3, 24(%rax)
	jne	.LBB12_63
# %bb.62:                               # %if.then189
	movq	-24(%rbp), %rdx
	movabsq	$.L.str.18, %rdi
	xorl	%esi, %esi
	callq	u_1
	addl	-12(%rbp), %eax
	movl	%eax, -12(%rbp)
.LBB12_63:                              # %if.end192
	movq	img, %rax
	movl	44(%rax), %esi
	subl	$26, %esi
	movq	-24(%rbp), %rdx
	movabsq	$.L.str.19, %rdi
	callq	se_v
	addl	-12(%rbp), %eax
	movl	%eax, -12(%rbp)
.LBB12_64:                              # %if.end196
	movq	active_pps, %rax
	cmpl	$0, 220(%rax)
	je	.LBB12_68
# %bb.65:                               # %if.then198
	movq	img, %rax
	movl	71984(%rax), %esi
	movq	-24(%rbp), %rdx
	movabsq	$.L.str.20, %rdi
	callq	ue_v
	addl	-12(%rbp), %eax
	movl	%eax, -12(%rbp)
	movq	img, %rax
	cmpl	$1, 71984(%rax)
	je	.LBB12_67
# %bb.66:                               # %if.then203
	movq	img, %rax
	movl	71988(%rax), %eax
	cltd
	movl	$2, %ecx
	idivl	%ecx
	movq	-24(%rbp), %rdx
	movabsq	$.L.str.21, %rdi
	movl	%eax, %esi
	callq	se_v
	addl	-12(%rbp), %eax
	movl	%eax, -12(%rbp)
	movq	img, %rax
	movl	71992(%rax), %eax
	cltd
	movl	$2, %ecx
	idivl	%ecx
	movq	-24(%rbp), %rdx
	movabsq	$.L.str.22, %rdi
	movl	%eax, %esi
	callq	se_v
	addl	-12(%rbp), %eax
	movl	%eax, -12(%rbp)
.LBB12_67:                              # %if.end209
	jmp	.LBB12_68
.LBB12_68:                              # %if.end210
	movq	active_pps, %rax
	cmpl	$0, 60(%rax)
	jbe	.LBB12_72
# %bb.69:                               # %land.lhs.true212
	movq	active_pps, %rax
	cmpl	$3, 64(%rax)
	jb	.LBB12_72
# %bb.70:                               # %land.lhs.true214
	movq	active_pps, %rax
	cmpl	$5, 64(%rax)
	ja	.LBB12_72
# %bb.71:                               # %if.then217
	vmovss	.LCPI12_1(%rip), %xmm0  # xmm0 = mem[0],zero,zero,zero
	movq	img(%rip), %rax
	movl	72468(%rax), %ecx
	movl	72472(%rax), %eax
	imull	%ecx, %eax
	vcvtsi2ss	%rax, %xmm0, %xmm1
	movq	active_pps(%rip), %rax
	movl	168(%rax), %eax
	addl	$1, %eax
	vcvtsi2ss	%rax, %xmm0, %xmm2
	vdivss	%xmm2, %xmm1, %xmm1
	vaddss	%xmm0, %xmm1, %xmm0
	vmovss	%xmm0, -48(%rbp)
	vmovss	-48(%rbp), %xmm0        # xmm0 = mem[0],zero,zero,zero
	vcvtss2sd	%xmm0, %xmm0, %xmm0
	callq	log
	vmovsd	%xmm0, -64(%rbp)        # 8-byte Spill
	vmovsd	.LCPI12_0(%rip), %xmm0  # xmm0 = mem[0],zero
	callq	log
	vmovsd	-64(%rbp), %xmm1        # 8-byte Reload
                                        # xmm1 = mem[0],zero
	vdivsd	%xmm0, %xmm1, %xmm0
	vroundsd	$10, %xmm0, %xmm0, %xmm0
	vcvttsd2si	%xmm0, %eax
	movl	%eax, -52(%rbp)
	movl	-52(%rbp), %edi
	movq	img, %rax
	movl	72652(%rax), %edx
	movq	-24(%rbp), %rcx
	movabsq	$.L.str.23, %rsi
	callq	u_v
	addl	-12(%rbp), %eax
	movl	%eax, -12(%rbp)
.LBB12_72:                              # %if.end229
	movq	input, %rax
	cmpl	$0, 2364(%rax)
	je	.LBB12_75
# %bb.73:                               # %land.lhs.true232
	movq	img, %rax
	movq	14152(%rax), %rax
	cmpl	$0, 4(%rax)
	jne	.LBB12_75
# %bb.74:                               # %if.then236
	movq	img, %rax
	movl	20(%rax), %esi
	movq	-24(%rbp), %rdx
	movabsq	$.L.str.24, %rdi
	callq	ue_v
	addl	-12(%rbp), %eax
	movl	%eax, -12(%rbp)
.LBB12_75:                              # %if.end239
	movl	-12(%rbp), %ebx
	cmpl	$1504105379, -44(%rbp)  # imm = 0x59A6D3A3
	jne	.LBB12_77
.LBB12_76:
	movl	%ebx, %eax
	addq	$72, %rsp
	popq	%rbx
	popq	%rbp
	.cfi_def_cfa %rsp, 8
	retq
.LBB12_77:                              # %func_exit
	.cfi_def_cfa %rbp, 16
	callq	detect_breach
	jmp	.LBB12_76
.Lfunc_end12:
	.size	SliceHeader.7, .Lfunc_end12-SliceHeader.7
	.cfi_endproc
                                        # -- End function
	.section	.rodata.cst8,"aM",@progbits,8
	.p2align	3               # -- Begin function SliceHeader.8
.LCPI13_0:
	.quad	4611686018427387904     # double 2
	.section	.rodata.cst4,"aM",@progbits,4
	.p2align	2
.LCPI13_1:
	.long	1065353216              # float 1
	.text
	.globl	SliceHeader.8
	.p2align	4, 0x90
	.type	SliceHeader.8,@function
SliceHeader.8:                          # @SliceHeader.8
	.cfi_startproc
# %bb.0:                                # %entry
	pushq	%rbp
	.cfi_def_cfa_offset 16
	.cfi_offset %rbp, -16
	movq	%rsp, %rbp
	.cfi_def_cfa_register %rbp
	pushq	%rbx
	subq	$72, %rsp
	.cfi_offset %rbx, -24
	movl	$781304508, -52(%rbp)   # imm = 0x2E91C2BC
	movq	input, %rax
	movslq	2364(%rax), %rax
	movq	assignSE2partition(,%rax,8), %rax
	movl	(%rax), %eax
	movl	%eax, -44(%rbp)
	movq	img, %rax
	movq	14160(%rax), %rax
	movq	24(%rax), %rax
	movslq	-44(%rbp), %rcx
	imulq	$120, %rcx, %rcx
	addq	%rcx, %rax
	movq	%rax, -24(%rbp)
	movq	img, %rax
	movq	14160(%rax), %rax
	movq	%rax, -72(%rbp)
	movl	$0, -12(%rbp)
	movl	$0, -28(%rbp)
	movl	$0, -36(%rbp)
	movq	img, %rax
	cmpl	$0, 72400(%rax)
	je	.LBB13_2
# %bb.1:                                # %if.then
	movq	img, %rax
	movl	12(%rax), %esi
	sarl	$1, %esi
	movq	-24(%rbp), %rdx
	movabsq	$.L.str, %rdi
	callq	ue_v
	movl	%eax, -12(%rbp)
	jmp	.LBB13_3
.LBB13_2:                               # %if.else
	movq	img, %rax
	movl	12(%rax), %esi
	movq	-24(%rbp), %rdx
	movabsq	$.L.str, %rdi
	callq	ue_v
	movl	%eax, -12(%rbp)
.LBB13_3:                               # %if.end
	callq	get_picture_type
	movq	-24(%rbp), %rdx
	movabsq	$.L.str.1, %rdi
	movl	%eax, %esi
	callq	ue_v
	addl	-12(%rbp), %eax
	movl	%eax, -12(%rbp)
	movq	active_pps, %rax
	movl	4(%rax), %esi
	movq	-24(%rbp), %rdx
	movabsq	$.L.str.2, %rdi
	callq	ue_v
	addl	-12(%rbp), %eax
	movl	%eax, -12(%rbp)
	movl	log2_max_frame_num_minus4, %edi
	addl	$4, %edi
	movq	img, %rax
	movl	72464(%rax), %edx
	movq	-24(%rbp), %rcx
	movabsq	$.L.str.3, %rsi
	callq	u_v
	addl	-12(%rbp), %eax
	movl	%eax, -12(%rbp)
	movq	active_sps, %rax
	cmpl	$0, 1148(%rax)
	jne	.LBB13_9
# %bb.4:                                # %if.then15
	movq	img, %rax
	cmpl	$1, 28(%rax)
	movb	$1, %al
	je	.LBB13_6
# %bb.5:                                # %lor.rhs
	movq	img, %rax
	cmpl	$2, 28(%rax)
	sete	%al
.LBB13_6:                               # %lor.end
	xorl	%ecx, %ecx
	testb	$1, %al
	movl	$1, %eax
	cmovnel	%eax, %ecx
	movl	%ecx, -28(%rbp)
	movl	-28(%rbp), %esi
	movq	-24(%rbp), %rdx
	movabsq	$.L.str.4, %rdi
	callq	u_1
	addl	-12(%rbp), %eax
	movl	%eax, -12(%rbp)
	cmpl	$0, -28(%rbp)
	je	.LBB13_8
# %bb.7:                                # %if.then21
	xorl	%eax, %eax
	movq	img, %rcx
	movl	28(%rcx), %ecx
	cmpl	$2, %ecx
	movl	$1, %ecx
	cmovel	%ecx, %eax
	movl	%eax, -36(%rbp)
	movl	-36(%rbp), %esi
	movq	-24(%rbp), %rdx
	movabsq	$.L.str.5, %rdi
	callq	u_1
	addl	-12(%rbp), %eax
	movl	%eax, -12(%rbp)
.LBB13_8:                               # %if.end27
	jmp	.LBB13_9
.LBB13_9:                               # %if.end28
	movq	img, %rax
	movq	14152(%rax), %rax
	cmpl	$0, 4(%rax)
	je	.LBB13_11
# %bb.10:                               # %if.then30
	movq	img, %rax
	movl	(%rax), %eax
	cltd
	movl	$2, %ecx
	idivl	%ecx
	movq	-24(%rbp), %rax
	movabsq	$.L.str.6, %rdi
	movl	%edx, %esi
	movq	%rax, %rdx
	callq	ue_v
	addl	-12(%rbp), %eax
	movl	%eax, -12(%rbp)
.LBB13_11:                              # %if.end33
	movq	img, %rax
	cmpl	$0, 72404(%rax)
	jne	.LBB13_25
# %bb.12:                               # %if.then35
	movq	active_sps, %rax
	cmpl	$0, 1148(%rax)
	je	.LBB13_14
# %bb.13:                               # %if.then38
	movq	img, %rax
	movl	72448(%rax), %eax
	movl	log2_max_pic_order_cnt_lsb_minus4, %ecx
	addl	$4, %ecx
                                        # kill: def $cl killed $ecx
	movl	$4294967295, %edx       # imm = 0xFFFFFFFF
	shll	%cl, %edx
	xorl	$-1, %edx
	andl	%edx, %eax
	movq	img, %rcx
	movl	%eax, 72428(%rcx)
	jmp	.LBB13_21
.LBB13_14:                              # %if.else40
	cmpl	$0, -28(%rbp)
	je	.LBB13_16
# %bb.15:                               # %lor.lhs.false
	movq	img, %rax
	cmpl	$1, 28(%rax)
	jne	.LBB13_17
.LBB13_16:                              # %if.then44
	movq	img, %rax
	movl	72448(%rax), %eax
	movl	log2_max_pic_order_cnt_lsb_minus4, %ecx
	addl	$4, %ecx
                                        # kill: def $cl killed $ecx
	movl	$4294967295, %edx       # imm = 0xFFFFFFFF
	shll	%cl, %edx
	xorl	$-1, %edx
	andl	%edx, %eax
	movq	img, %rcx
	movl	%eax, 72428(%rcx)
	jmp	.LBB13_20
.LBB13_17:                              # %if.else51
	movq	img, %rax
	cmpl	$2, 28(%rax)
	jne	.LBB13_19
# %bb.18:                               # %if.then54
	movq	img, %rax
	movl	72452(%rax), %eax
	movl	log2_max_pic_order_cnt_lsb_minus4, %ecx
	addl	$4, %ecx
                                        # kill: def $cl killed $ecx
	movl	$4294967295, %edx       # imm = 0xFFFFFFFF
	shll	%cl, %edx
	xorl	$-1, %edx
	andl	%edx, %eax
	movq	img, %rcx
	movl	%eax, 72428(%rcx)
.LBB13_19:                              # %if.end60
	jmp	.LBB13_20
.LBB13_20:                              # %if.end61
	jmp	.LBB13_21
.LBB13_21:                              # %if.end62
	movl	log2_max_pic_order_cnt_lsb_minus4, %edi
	addl	$4, %edi
	movq	img, %rax
	movl	72428(%rax), %edx
	movq	-24(%rbp), %rcx
	movabsq	$.L.str.7, %rsi
	callq	u_v
	addl	-12(%rbp), %eax
	movl	%eax, -12(%rbp)
	movq	img, %rax
	cmpl	$0, 72492(%rax)
	je	.LBB13_24
# %bb.22:                               # %land.lhs.true
	cmpl	$0, -28(%rbp)
	jne	.LBB13_24
# %bb.23:                               # %if.then69
	movq	img, %rax
	movl	72432(%rax), %esi
	movq	-24(%rbp), %rdx
	movabsq	$.L.str.8, %rdi
	callq	se_v
	addl	-12(%rbp), %eax
	movl	%eax, -12(%rbp)
.LBB13_24:                              # %if.end72
	jmp	.LBB13_25
.LBB13_25:                              # %if.end73
	movq	img, %rax
	cmpl	$1, 72404(%rax)
	jne	.LBB13_31
# %bb.26:                               # %land.lhs.true76
	movq	img, %rax
	cmpl	$0, 72408(%rax)
	jne	.LBB13_31
# %bb.27:                               # %if.then78
	movq	img, %rax
	movl	72436(%rax), %esi
	movq	-24(%rbp), %rdx
	movabsq	$.L.str.9, %rdi
	callq	se_v
	addl	-12(%rbp), %eax
	movl	%eax, -12(%rbp)
	movq	img, %rax
	cmpl	$0, 72492(%rax)
	je	.LBB13_30
# %bb.28:                               # %land.lhs.true84
	cmpl	$0, -28(%rbp)
	jne	.LBB13_30
# %bb.29:                               # %if.then86
	movq	img, %rax
	movl	72440(%rax), %esi
	movq	-24(%rbp), %rdx
	movabsq	$.L.str.10, %rdi
	callq	se_v
	addl	-12(%rbp), %eax
	movl	%eax, -12(%rbp)
.LBB13_30:                              # %if.end91
	jmp	.LBB13_31
.LBB13_31:                              # %if.end92
	movq	input, %rax
	cmpl	$0, 3204(%rax)
	je	.LBB13_33
# %bb.32:                               # %if.then94
	movq	img, %rax
	movl	72396(%rax), %esi
	movq	-24(%rbp), %rdx
	movabsq	$.L.str.11, %rdi
	callq	ue_v
	addl	-12(%rbp), %eax
	movl	%eax, -12(%rbp)
.LBB13_33:                              # %if.end97
	movq	img, %rax
	cmpl	$1, 24(%rax)
	jne	.LBB13_35
# %bb.34:                               # %if.then99
	movq	img, %rax
	movl	71996(%rax), %esi
	movq	-24(%rbp), %rdx
	movabsq	$.L.str.12, %rdi
	callq	u_1
	addl	-12(%rbp), %eax
	movl	%eax, -12(%rbp)
.LBB13_35:                              # %if.end102
	movq	img, %rax
	cmpl	$0, 24(%rax)
	je	.LBB13_38
# %bb.36:                               # %lor.lhs.false105
	movq	img, %rax
	cmpl	$1, 24(%rax)
	je	.LBB13_38
# %bb.37:                               # %lor.lhs.false108
	movq	img, %rax
	cmpl	$3, 24(%rax)
	jne	.LBB13_49
.LBB13_38:                              # %if.then111
	movq	img, %rax
	cmpl	$0, 24(%rax)
	je	.LBB13_40
# %bb.39:                               # %lor.lhs.false114
	movq	img, %rax
	cmpl	$3, 24(%rax)
	jne	.LBB13_41
.LBB13_40:                              # %if.then117
	xorl	%eax, %eax
	movq	img, %rcx
	movl	72000(%rcx), %ecx
	movq	active_pps, %rdx
	movl	184(%rdx), %edx
	addl	$1, %edx
	cmpl	%edx, %ecx
	movl	$1, %ecx
	cmovnel	%ecx, %eax
	movl	%eax, -32(%rbp)
	jmp	.LBB13_44
.LBB13_41:                              # %if.else121
	movq	img, %rax
	movl	72000(%rax), %eax
	movq	active_pps, %rcx
	movl	184(%rcx), %ecx
	addl	$1, %ecx
	cmpl	%ecx, %eax
	movb	$1, %al
	jne	.LBB13_43
# %bb.42:                               # %lor.rhs126
	movq	img, %rax
	movl	72004(%rax), %eax
	movq	active_pps, %rcx
	movl	188(%rcx), %ecx
	addl	$1, %ecx
	cmpl	%ecx, %eax
	setne	%al
.LBB13_43:                              # %lor.end129
	xorl	%ecx, %ecx
	testb	$1, %al
	movl	$1, %eax
	cmovnel	%eax, %ecx
	movl	%ecx, -32(%rbp)
.LBB13_44:                              # %if.end131
	movl	-32(%rbp), %esi
	movq	-24(%rbp), %rdx
	movabsq	$.L.str.13, %rdi
	callq	u_1
	addl	-12(%rbp), %eax
	movl	%eax, -12(%rbp)
	cmpl	$0, -32(%rbp)
	je	.LBB13_48
# %bb.45:                               # %if.then135
	movq	img, %rax
	movl	72000(%rax), %esi
	subl	$1, %esi
	movq	-24(%rbp), %rdx
	movabsq	$.L.str.14, %rdi
	callq	ue_v
	addl	-12(%rbp), %eax
	movl	%eax, -12(%rbp)
	movq	img, %rax
	cmpl	$1, 24(%rax)
	jne	.LBB13_47
# %bb.46:                               # %if.then141
	movq	img, %rax
	movl	72004(%rax), %esi
	subl	$1, %esi
	movq	-24(%rbp), %rdx
	movabsq	$.L.str.15, %rdi
	callq	ue_v
	addl	-12(%rbp), %eax
	movl	%eax, -12(%rbp)
.LBB13_47:                              # %if.end146
	jmp	.LBB13_48
.LBB13_48:                              # %if.end147
	jmp	.LBB13_49
.LBB13_49:                              # %if.end148
	callq	ref_pic_list_reordering
	addl	-12(%rbp), %eax
	movl	%eax, -12(%rbp)
	movq	img, %rax
	cmpl	$0, 24(%rax)
	je	.LBB13_51
# %bb.50:                               # %lor.lhs.false153
	movq	img, %rax
	cmpl	$3, 24(%rax)
	jne	.LBB13_52
.LBB13_51:                              # %land.lhs.true156
	movq	active_pps, %rax
	cmpl	$0, 192(%rax)
	jne	.LBB13_54
.LBB13_52:                              # %lor.lhs.false158
	movq	img, %rax
	cmpl	$1, 24(%rax)
	jne	.LBB13_55
# %bb.53:                               # %land.lhs.true161
	movq	active_pps, %rax
	cmpl	$1, 196(%rax)
	jne	.LBB13_55
.LBB13_54:                              # %if.then163
	callq	pred_weight_table
	addl	-12(%rbp), %eax
	movl	%eax, -12(%rbp)
.LBB13_55:                              # %if.end166
	movq	img, %rax
	cmpl	$0, 72496(%rax)
	je	.LBB13_57
# %bb.56:                               # %if.then168
	callq	dec_ref_pic_marking
	addl	-12(%rbp), %eax
	movl	%eax, -12(%rbp)
.LBB13_57:                              # %if.end171
	movq	input, %rax
	cmpl	$1, 2356(%rax)
	jne	.LBB13_60
# %bb.58:                               # %land.lhs.true173
	movq	img, %rax
	cmpl	$2, 24(%rax)
	je	.LBB13_60
# %bb.59:                               # %if.then176
	movq	img, %rax
	movl	72520(%rax), %esi
	movq	-24(%rbp), %rdx
	movabsq	$.L.str.16, %rdi
	callq	ue_v
	addl	-12(%rbp), %eax
	movl	%eax, -12(%rbp)
.LBB13_60:                              # %if.end179
	movq	-72(%rbp), %rax
	movl	4(%rax), %esi
	subl	$26, %esi
	movq	active_pps, %rax
	subl	200(%rax), %esi
	movq	-24(%rbp), %rdx
	movabsq	$.L.str.17, %rdi
	callq	se_v
	addl	-12(%rbp), %eax
	movl	%eax, -12(%rbp)
	movq	img, %rax
	cmpl	$3, 24(%rax)
	jne	.LBB13_64
# %bb.61:                               # %if.then186
	movq	img, %rax
	cmpl	$3, 24(%rax)
	jne	.LBB13_63
# %bb.62:                               # %if.then189
	movq	-24(%rbp), %rdx
	movabsq	$.L.str.18, %rdi
	xorl	%esi, %esi
	callq	u_1
	addl	-12(%rbp), %eax
	movl	%eax, -12(%rbp)
.LBB13_63:                              # %if.end192
	movq	img, %rax
	movl	44(%rax), %esi
	subl	$26, %esi
	movq	-24(%rbp), %rdx
	movabsq	$.L.str.19, %rdi
	callq	se_v
	addl	-12(%rbp), %eax
	movl	%eax, -12(%rbp)
.LBB13_64:                              # %if.end196
	movq	active_pps, %rax
	cmpl	$0, 220(%rax)
	je	.LBB13_68
# %bb.65:                               # %if.then198
	movq	img, %rax
	movl	71984(%rax), %esi
	movq	-24(%rbp), %rdx
	movabsq	$.L.str.20, %rdi
	callq	ue_v
	addl	-12(%rbp), %eax
	movl	%eax, -12(%rbp)
	movq	img, %rax
	cmpl	$1, 71984(%rax)
	je	.LBB13_67
# %bb.66:                               # %if.then203
	movq	img, %rax
	movl	71988(%rax), %eax
	cltd
	movl	$2, %ecx
	idivl	%ecx
	movq	-24(%rbp), %rdx
	movabsq	$.L.str.21, %rdi
	movl	%eax, %esi
	callq	se_v
	addl	-12(%rbp), %eax
	movl	%eax, -12(%rbp)
	movq	img, %rax
	movl	71992(%rax), %eax
	cltd
	movl	$2, %ecx
	idivl	%ecx
	movq	-24(%rbp), %rdx
	movabsq	$.L.str.22, %rdi
	movl	%eax, %esi
	callq	se_v
	addl	-12(%rbp), %eax
	movl	%eax, -12(%rbp)
.LBB13_67:                              # %if.end209
	jmp	.LBB13_68
.LBB13_68:                              # %if.end210
	movq	active_pps, %rax
	cmpl	$0, 60(%rax)
	jbe	.LBB13_72
# %bb.69:                               # %land.lhs.true212
	movq	active_pps, %rax
	cmpl	$3, 64(%rax)
	jb	.LBB13_72
# %bb.70:                               # %land.lhs.true214
	movq	active_pps, %rax
	cmpl	$5, 64(%rax)
	ja	.LBB13_72
# %bb.71:                               # %if.then217
	vmovss	.LCPI13_1(%rip), %xmm0  # xmm0 = mem[0],zero,zero,zero
	movq	img(%rip), %rax
	movl	72468(%rax), %ecx
	movl	72472(%rax), %eax
	imull	%ecx, %eax
	vcvtsi2ss	%rax, %xmm0, %xmm1
	movq	active_pps(%rip), %rax
	movl	168(%rax), %eax
	addl	$1, %eax
	vcvtsi2ss	%rax, %xmm0, %xmm2
	vdivss	%xmm2, %xmm1, %xmm1
	vaddss	%xmm0, %xmm1, %xmm0
	vmovss	%xmm0, -40(%rbp)
	vmovss	-40(%rbp), %xmm0        # xmm0 = mem[0],zero,zero,zero
	vcvtss2sd	%xmm0, %xmm0, %xmm0
	callq	log
	vmovsd	%xmm0, -64(%rbp)        # 8-byte Spill
	vmovsd	.LCPI13_0(%rip), %xmm0  # xmm0 = mem[0],zero
	callq	log
	vmovsd	-64(%rbp), %xmm1        # 8-byte Reload
                                        # xmm1 = mem[0],zero
	vdivsd	%xmm0, %xmm1, %xmm0
	vroundsd	$10, %xmm0, %xmm0, %xmm0
	vcvttsd2si	%xmm0, %eax
	movl	%eax, -48(%rbp)
	movl	-48(%rbp), %edi
	movq	img, %rax
	movl	72652(%rax), %edx
	movq	-24(%rbp), %rcx
	movabsq	$.L.str.23, %rsi
	callq	u_v
	addl	-12(%rbp), %eax
	movl	%eax, -12(%rbp)
.LBB13_72:                              # %if.end229
	movq	input, %rax
	cmpl	$0, 2364(%rax)
	je	.LBB13_75
# %bb.73:                               # %land.lhs.true232
	movq	img, %rax
	movq	14152(%rax), %rax
	cmpl	$0, 4(%rax)
	jne	.LBB13_75
# %bb.74:                               # %if.then236
	movq	img, %rax
	movl	20(%rax), %esi
	movq	-24(%rbp), %rdx
	movabsq	$.L.str.24, %rdi
	callq	ue_v
	addl	-12(%rbp), %eax
	movl	%eax, -12(%rbp)
.LBB13_75:                              # %if.end239
	movl	-12(%rbp), %ebx
	cmpl	$781304508, -52(%rbp)   # imm = 0x2E91C2BC
	jne	.LBB13_77
.LBB13_76:
	movl	%ebx, %eax
	addq	$72, %rsp
	popq	%rbx
	popq	%rbp
	.cfi_def_cfa %rsp, 8
	retq
.LBB13_77:                              # %func_exit
	.cfi_def_cfa %rbp, 16
	callq	detect_breach
	jmp	.LBB13_76
.Lfunc_end13:
	.size	SliceHeader.8, .Lfunc_end13-SliceHeader.8
	.cfi_endproc
                                        # -- End function
	.globl	Partition_BC_Header.9   # -- Begin function Partition_BC_Header.9
	.p2align	4, 0x90
	.type	Partition_BC_Header.9,@function
Partition_BC_Header.9:                  # @Partition_BC_Header.9
	.cfi_startproc
# %bb.0:                                # %entry
	pushq	%rbp
	.cfi_def_cfa_offset 16
	.cfi_offset %rbp, -16
	movq	%rsp, %rbp
	.cfi_def_cfa_register %rbp
	pushq	%rbx
	subq	$88, %rsp
	.cfi_offset %rbx, -24
	movl	$668541482, -32(%rbp)   # imm = 0x27D9222A
	movl	%edi, -28(%rbp)
	movq	img, %rax
	movq	14160(%rax), %rax
	movq	24(%rax), %rax
	movslq	-28(%rbp), %rcx
	imulq	$120, %rcx, %rcx
	addq	%rcx, %rax
	movq	%rax, -40(%rbp)
	leaq	-88(%rbp), %rax
	movq	%rax, -24(%rbp)
	movl	$0, -12(%rbp)
	movq	-24(%rbp), %rax
	movl	$0, (%rax)
	movq	-24(%rbp), %rax
	movabsq	$ue_linfo, %rcx
	movq	%rcx, 32(%rax)
	movq	-24(%rbp), %rax
	movl	$0, 8(%rax)
	movq	img, %rax
	movl	20(%rax), %eax
	movq	-24(%rbp), %rcx
	movl	%eax, 4(%rcx)
	movq	-24(%rbp), %rdi
	movq	-40(%rbp), %rsi
	callq	writeSyntaxElement_UVLC
	addl	-12(%rbp), %eax
	movl	%eax, -12(%rbp)
	movq	active_pps, %rax
	cmpl	$0, 228(%rax)
	je	.LBB14_2
# %bb.1:                                # %if.then
	movq	img, %rax
	movq	14160(%rax), %rax
	movl	(%rax), %eax
	movq	-24(%rbp), %rcx
	movl	%eax, 4(%rcx)
	movq	-24(%rbp), %rdi
	movq	-40(%rbp), %rsi
	callq	writeSyntaxElement_UVLC
	addl	-12(%rbp), %eax
	movl	%eax, -12(%rbp)
.LBB14_2:                               # %if.end
	movl	-12(%rbp), %ebx
	cmpl	$668541482, -32(%rbp)   # imm = 0x27D9222A
	jne	.LBB14_4
.LBB14_3:
	movl	%ebx, %eax
	addq	$88, %rsp
	popq	%rbx
	popq	%rbp
	.cfi_def_cfa %rsp, 8
	retq
.LBB14_4:                               # %func_exit
	.cfi_def_cfa %rbp, 16
	callq	detect_breach
	jmp	.LBB14_3
.Lfunc_end14:
	.size	Partition_BC_Header.9, .Lfunc_end14-Partition_BC_Header.9
	.cfi_endproc
                                        # -- End function
	.p2align	4, 0x90         # -- Begin function dec_ref_pic_marking.10
	.type	dec_ref_pic_marking.10,@function
dec_ref_pic_marking.10:                 # @dec_ref_pic_marking.10
	.cfi_startproc
# %bb.0:                                # %entry
	pushq	%rbp
	.cfi_def_cfa_offset 16
	.cfi_offset %rbp, -16
	movq	%rsp, %rbp
	.cfi_def_cfa_register %rbp
	pushq	%rbx
	subq	$40, %rsp
	.cfi_offset %rbx, -24
	movl	$243169844, -40(%rbp)   # imm = 0xE7E7A34
	movq	input, %rax
	movslq	2364(%rax), %rax
	movq	assignSE2partition(,%rax,8), %rax
	movl	(%rax), %eax
	movl	%eax, -36(%rbp)
	movq	img, %rax
	movq	14160(%rax), %rax
	movq	24(%rax), %rax
	movslq	-36(%rbp), %rcx
	imulq	$120, %rcx, %rcx
	addq	%rcx, %rax
	movq	%rax, -32(%rbp)
	movl	$0, -12(%rbp)
	movq	img, %rax
	movq	14152(%rax), %rax
	cmpl	$0, 4(%rax)
	je	.LBB15_2
# %bb.1:                                # %if.then
	movq	img, %rax
	movl	72504(%rax), %esi
	movq	-32(%rbp), %rdx
	movabsq	$.L.str.33, %rdi
	callq	u_1
	addl	-12(%rbp), %eax
	movl	%eax, -12(%rbp)
	movq	img, %rax
	movl	72508(%rax), %esi
	movq	-32(%rbp), %rdx
	movabsq	$.L.str.34, %rdi
	callq	u_1
	addl	-12(%rbp), %eax
	movl	%eax, -12(%rbp)
	jmp	.LBB15_20
.LBB15_2:                               # %if.else
	movq	img, %rax
	cmpq	$0, 72512(%rax)
	setne	%al
	andb	$1, %al
	movzbl	%al, %eax
	movq	img, %rcx
	movl	%eax, 72500(%rcx)
	movq	img, %rax
	movl	72500(%rax), %esi
	movq	-32(%rbp), %rdx
	movabsq	$.L.str.35, %rdi
	callq	u_1
	addl	-12(%rbp), %eax
	movl	%eax, -12(%rbp)
	movq	img, %rax
	cmpl	$0, 72500(%rax)
	je	.LBB15_19
# %bb.3:                                # %if.then11
	movq	img, %rax
	movq	72512(%rax), %rax
	movq	%rax, -24(%rbp)
.LBB15_4:                               # %do.body
                                        # =>This Inner Loop Header: Depth=1
	cmpq	$0, -24(%rbp)
	jne	.LBB15_6
# %bb.5:                                # %if.then15
                                        #   in Loop: Header=BB15_4 Depth=1
	movabsq	$.L.str.36, %rdi
	movl	$500, %esi              # imm = 0x1F4
	callq	error
.LBB15_6:                               # %if.end
                                        #   in Loop: Header=BB15_4 Depth=1
	movq	-24(%rbp), %rax
	movl	(%rax), %eax
	movl	%eax, -16(%rbp)
	movl	-16(%rbp), %esi
	movq	-32(%rbp), %rdx
	movabsq	$.L.str.37, %rdi
	callq	ue_v
	addl	-12(%rbp), %eax
	movl	%eax, -12(%rbp)
	cmpl	$1, -16(%rbp)
	je	.LBB15_8
# %bb.7:                                # %lor.lhs.false
                                        #   in Loop: Header=BB15_4 Depth=1
	cmpl	$3, -16(%rbp)
	jne	.LBB15_9
.LBB15_8:                               # %if.then22
                                        #   in Loop: Header=BB15_4 Depth=1
	movq	-24(%rbp), %rax
	movl	4(%rax), %esi
	movq	-32(%rbp), %rdx
	movabsq	$.L.str.38, %rdi
	callq	ue_v
	addl	$1, %eax
	addl	-12(%rbp), %eax
	movl	%eax, -12(%rbp)
.LBB15_9:                               # %if.end26
                                        #   in Loop: Header=BB15_4 Depth=1
	cmpl	$2, -16(%rbp)
	jne	.LBB15_11
# %bb.10:                               # %if.then29
                                        #   in Loop: Header=BB15_4 Depth=1
	movq	-24(%rbp), %rax
	movl	8(%rax), %esi
	movq	-32(%rbp), %rdx
	movabsq	$.L.str.39, %rdi
	callq	ue_v
	addl	-12(%rbp), %eax
	movl	%eax, -12(%rbp)
.LBB15_11:                              # %if.end32
                                        #   in Loop: Header=BB15_4 Depth=1
	cmpl	$3, -16(%rbp)
	je	.LBB15_13
# %bb.12:                               # %lor.lhs.false35
                                        #   in Loop: Header=BB15_4 Depth=1
	cmpl	$6, -16(%rbp)
	jne	.LBB15_14
.LBB15_13:                              # %if.then38
                                        #   in Loop: Header=BB15_4 Depth=1
	movq	-24(%rbp), %rax
	movl	12(%rax), %esi
	movq	-32(%rbp), %rdx
	movabsq	$.L.str.40, %rdi
	callq	ue_v
	addl	-12(%rbp), %eax
	movl	%eax, -12(%rbp)
.LBB15_14:                              # %if.end41
                                        #   in Loop: Header=BB15_4 Depth=1
	cmpl	$4, -16(%rbp)
	jne	.LBB15_16
# %bb.15:                               # %if.then44
                                        #   in Loop: Header=BB15_4 Depth=1
	movq	-24(%rbp), %rax
	movl	16(%rax), %esi
	movq	-32(%rbp), %rdx
	movabsq	$.L.str.41, %rdi
	callq	ue_v
	addl	-12(%rbp), %eax
	movl	%eax, -12(%rbp)
.LBB15_16:                              # %if.end47
                                        #   in Loop: Header=BB15_4 Depth=1
	movq	-24(%rbp), %rax
	movq	24(%rax), %rax
	movq	%rax, -24(%rbp)
# %bb.17:                               # %do.cond
                                        #   in Loop: Header=BB15_4 Depth=1
	cmpl	$0, -16(%rbp)
	jne	.LBB15_4
# %bb.18:                               # %do.end
	jmp	.LBB15_19
.LBB15_19:                              # %if.end50
	jmp	.LBB15_20
.LBB15_20:                              # %if.end51
	movl	-12(%rbp), %ebx
	cmpl	$243169844, -40(%rbp)   # imm = 0xE7E7A34
	jne	.LBB15_22
.LBB15_21:
	movl	%ebx, %eax
	addq	$40, %rsp
	popq	%rbx
	popq	%rbp
	.cfi_def_cfa %rsp, 8
	retq
.LBB15_22:                              # %func_exit
	.cfi_def_cfa %rbp, 16
	callq	detect_breach
	jmp	.LBB15_21
.Lfunc_end15:
	.size	dec_ref_pic_marking.10, .Lfunc_end15-dec_ref_pic_marking.10
	.cfi_endproc
                                        # -- End function
	.section	.rodata.cst8,"aM",@progbits,8
	.p2align	3               # -- Begin function SliceHeader.11
.LCPI16_0:
	.quad	4611686018427387904     # double 2
	.section	.rodata.cst4,"aM",@progbits,4
	.p2align	2
.LCPI16_1:
	.long	1065353216              # float 1
	.text
	.globl	SliceHeader.11
	.p2align	4, 0x90
	.type	SliceHeader.11,@function
SliceHeader.11:                         # @SliceHeader.11
	.cfi_startproc
# %bb.0:                                # %entry
	pushq	%rbp
	.cfi_def_cfa_offset 16
	.cfi_offset %rbp, -16
	movq	%rsp, %rbp
	.cfi_def_cfa_register %rbp
	pushq	%rbx
	subq	$72, %rsp
	.cfi_offset %rbx, -24
	movl	$434166690, -40(%rbp)   # imm = 0x19E0DBA2
	movq	input, %rax
	movslq	2364(%rax), %rax
	movq	assignSE2partition(,%rax,8), %rax
	movl	(%rax), %eax
	movl	%eax, -44(%rbp)
	movq	img, %rax
	movq	14160(%rax), %rax
	movq	24(%rax), %rax
	movslq	-44(%rbp), %rcx
	imulq	$120, %rcx, %rcx
	addq	%rcx, %rax
	movq	%rax, -24(%rbp)
	movq	img, %rax
	movq	14160(%rax), %rax
	movq	%rax, -72(%rbp)
	movl	$0, -12(%rbp)
	movl	$0, -28(%rbp)
	movl	$0, -36(%rbp)
	movq	img, %rax
	cmpl	$0, 72400(%rax)
	je	.LBB16_2
# %bb.1:                                # %if.then
	movq	img, %rax
	movl	12(%rax), %esi
	sarl	$1, %esi
	movq	-24(%rbp), %rdx
	movabsq	$.L.str, %rdi
	callq	ue_v
	movl	%eax, -12(%rbp)
	jmp	.LBB16_3
.LBB16_2:                               # %if.else
	movq	img, %rax
	movl	12(%rax), %esi
	movq	-24(%rbp), %rdx
	movabsq	$.L.str, %rdi
	callq	ue_v
	movl	%eax, -12(%rbp)
.LBB16_3:                               # %if.end
	callq	get_picture_type
	movq	-24(%rbp), %rdx
	movabsq	$.L.str.1, %rdi
	movl	%eax, %esi
	callq	ue_v
	addl	-12(%rbp), %eax
	movl	%eax, -12(%rbp)
	movq	active_pps, %rax
	movl	4(%rax), %esi
	movq	-24(%rbp), %rdx
	movabsq	$.L.str.2, %rdi
	callq	ue_v
	addl	-12(%rbp), %eax
	movl	%eax, -12(%rbp)
	movl	log2_max_frame_num_minus4, %edi
	addl	$4, %edi
	movq	img, %rax
	movl	72464(%rax), %edx
	movq	-24(%rbp), %rcx
	movabsq	$.L.str.3, %rsi
	callq	u_v
	addl	-12(%rbp), %eax
	movl	%eax, -12(%rbp)
	movq	active_sps, %rax
	cmpl	$0, 1148(%rax)
	jne	.LBB16_9
# %bb.4:                                # %if.then15
	movq	img, %rax
	cmpl	$1, 28(%rax)
	movb	$1, %al
	je	.LBB16_6
# %bb.5:                                # %lor.rhs
	movq	img, %rax
	cmpl	$2, 28(%rax)
	sete	%al
.LBB16_6:                               # %lor.end
	xorl	%ecx, %ecx
	testb	$1, %al
	movl	$1, %eax
	cmovnel	%eax, %ecx
	movl	%ecx, -28(%rbp)
	movl	-28(%rbp), %esi
	movq	-24(%rbp), %rdx
	movabsq	$.L.str.4, %rdi
	callq	u_1
	addl	-12(%rbp), %eax
	movl	%eax, -12(%rbp)
	cmpl	$0, -28(%rbp)
	je	.LBB16_8
# %bb.7:                                # %if.then21
	xorl	%eax, %eax
	movq	img, %rcx
	movl	28(%rcx), %ecx
	cmpl	$2, %ecx
	movl	$1, %ecx
	cmovel	%ecx, %eax
	movl	%eax, -36(%rbp)
	movl	-36(%rbp), %esi
	movq	-24(%rbp), %rdx
	movabsq	$.L.str.5, %rdi
	callq	u_1
	addl	-12(%rbp), %eax
	movl	%eax, -12(%rbp)
.LBB16_8:                               # %if.end27
	jmp	.LBB16_9
.LBB16_9:                               # %if.end28
	movq	img, %rax
	movq	14152(%rax), %rax
	cmpl	$0, 4(%rax)
	je	.LBB16_11
# %bb.10:                               # %if.then30
	movq	img, %rax
	movl	(%rax), %eax
	cltd
	movl	$2, %ecx
	idivl	%ecx
	movq	-24(%rbp), %rax
	movabsq	$.L.str.6, %rdi
	movl	%edx, %esi
	movq	%rax, %rdx
	callq	ue_v
	addl	-12(%rbp), %eax
	movl	%eax, -12(%rbp)
.LBB16_11:                              # %if.end33
	movq	img, %rax
	cmpl	$0, 72404(%rax)
	jne	.LBB16_25
# %bb.12:                               # %if.then35
	movq	active_sps, %rax
	cmpl	$0, 1148(%rax)
	je	.LBB16_14
# %bb.13:                               # %if.then38
	movq	img, %rax
	movl	72448(%rax), %eax
	movl	log2_max_pic_order_cnt_lsb_minus4, %ecx
	addl	$4, %ecx
                                        # kill: def $cl killed $ecx
	movl	$4294967295, %edx       # imm = 0xFFFFFFFF
	shll	%cl, %edx
	xorl	$-1, %edx
	andl	%edx, %eax
	movq	img, %rcx
	movl	%eax, 72428(%rcx)
	jmp	.LBB16_21
.LBB16_14:                              # %if.else40
	cmpl	$0, -28(%rbp)
	je	.LBB16_16
# %bb.15:                               # %lor.lhs.false
	movq	img, %rax
	cmpl	$1, 28(%rax)
	jne	.LBB16_17
.LBB16_16:                              # %if.then44
	movq	img, %rax
	movl	72448(%rax), %eax
	movl	log2_max_pic_order_cnt_lsb_minus4, %ecx
	addl	$4, %ecx
                                        # kill: def $cl killed $ecx
	movl	$4294967295, %edx       # imm = 0xFFFFFFFF
	shll	%cl, %edx
	xorl	$-1, %edx
	andl	%edx, %eax
	movq	img, %rcx
	movl	%eax, 72428(%rcx)
	jmp	.LBB16_20
.LBB16_17:                              # %if.else51
	movq	img, %rax
	cmpl	$2, 28(%rax)
	jne	.LBB16_19
# %bb.18:                               # %if.then54
	movq	img, %rax
	movl	72452(%rax), %eax
	movl	log2_max_pic_order_cnt_lsb_minus4, %ecx
	addl	$4, %ecx
                                        # kill: def $cl killed $ecx
	movl	$4294967295, %edx       # imm = 0xFFFFFFFF
	shll	%cl, %edx
	xorl	$-1, %edx
	andl	%edx, %eax
	movq	img, %rcx
	movl	%eax, 72428(%rcx)
.LBB16_19:                              # %if.end60
	jmp	.LBB16_20
.LBB16_20:                              # %if.end61
	jmp	.LBB16_21
.LBB16_21:                              # %if.end62
	movl	log2_max_pic_order_cnt_lsb_minus4, %edi
	addl	$4, %edi
	movq	img, %rax
	movl	72428(%rax), %edx
	movq	-24(%rbp), %rcx
	movabsq	$.L.str.7, %rsi
	callq	u_v
	addl	-12(%rbp), %eax
	movl	%eax, -12(%rbp)
	movq	img, %rax
	cmpl	$0, 72492(%rax)
	je	.LBB16_24
# %bb.22:                               # %land.lhs.true
	cmpl	$0, -28(%rbp)
	jne	.LBB16_24
# %bb.23:                               # %if.then69
	movq	img, %rax
	movl	72432(%rax), %esi
	movq	-24(%rbp), %rdx
	movabsq	$.L.str.8, %rdi
	callq	se_v
	addl	-12(%rbp), %eax
	movl	%eax, -12(%rbp)
.LBB16_24:                              # %if.end72
	jmp	.LBB16_25
.LBB16_25:                              # %if.end73
	movq	img, %rax
	cmpl	$1, 72404(%rax)
	jne	.LBB16_31
# %bb.26:                               # %land.lhs.true76
	movq	img, %rax
	cmpl	$0, 72408(%rax)
	jne	.LBB16_31
# %bb.27:                               # %if.then78
	movq	img, %rax
	movl	72436(%rax), %esi
	movq	-24(%rbp), %rdx
	movabsq	$.L.str.9, %rdi
	callq	se_v
	addl	-12(%rbp), %eax
	movl	%eax, -12(%rbp)
	movq	img, %rax
	cmpl	$0, 72492(%rax)
	je	.LBB16_30
# %bb.28:                               # %land.lhs.true84
	cmpl	$0, -28(%rbp)
	jne	.LBB16_30
# %bb.29:                               # %if.then86
	movq	img, %rax
	movl	72440(%rax), %esi
	movq	-24(%rbp), %rdx
	movabsq	$.L.str.10, %rdi
	callq	se_v
	addl	-12(%rbp), %eax
	movl	%eax, -12(%rbp)
.LBB16_30:                              # %if.end91
	jmp	.LBB16_31
.LBB16_31:                              # %if.end92
	movq	input, %rax
	cmpl	$0, 3204(%rax)
	je	.LBB16_33
# %bb.32:                               # %if.then94
	movq	img, %rax
	movl	72396(%rax), %esi
	movq	-24(%rbp), %rdx
	movabsq	$.L.str.11, %rdi
	callq	ue_v
	addl	-12(%rbp), %eax
	movl	%eax, -12(%rbp)
.LBB16_33:                              # %if.end97
	movq	img, %rax
	cmpl	$1, 24(%rax)
	jne	.LBB16_35
# %bb.34:                               # %if.then99
	movq	img, %rax
	movl	71996(%rax), %esi
	movq	-24(%rbp), %rdx
	movabsq	$.L.str.12, %rdi
	callq	u_1
	addl	-12(%rbp), %eax
	movl	%eax, -12(%rbp)
.LBB16_35:                              # %if.end102
	movq	img, %rax
	cmpl	$0, 24(%rax)
	je	.LBB16_38
# %bb.36:                               # %lor.lhs.false105
	movq	img, %rax
	cmpl	$1, 24(%rax)
	je	.LBB16_38
# %bb.37:                               # %lor.lhs.false108
	movq	img, %rax
	cmpl	$3, 24(%rax)
	jne	.LBB16_49
.LBB16_38:                              # %if.then111
	movq	img, %rax
	cmpl	$0, 24(%rax)
	je	.LBB16_40
# %bb.39:                               # %lor.lhs.false114
	movq	img, %rax
	cmpl	$3, 24(%rax)
	jne	.LBB16_41
.LBB16_40:                              # %if.then117
	xorl	%eax, %eax
	movq	img, %rcx
	movl	72000(%rcx), %ecx
	movq	active_pps, %rdx
	movl	184(%rdx), %edx
	addl	$1, %edx
	cmpl	%edx, %ecx
	movl	$1, %ecx
	cmovnel	%ecx, %eax
	movl	%eax, -32(%rbp)
	jmp	.LBB16_44
.LBB16_41:                              # %if.else121
	movq	img, %rax
	movl	72000(%rax), %eax
	movq	active_pps, %rcx
	movl	184(%rcx), %ecx
	addl	$1, %ecx
	cmpl	%ecx, %eax
	movb	$1, %al
	jne	.LBB16_43
# %bb.42:                               # %lor.rhs126
	movq	img, %rax
	movl	72004(%rax), %eax
	movq	active_pps, %rcx
	movl	188(%rcx), %ecx
	addl	$1, %ecx
	cmpl	%ecx, %eax
	setne	%al
.LBB16_43:                              # %lor.end129
	xorl	%ecx, %ecx
	testb	$1, %al
	movl	$1, %eax
	cmovnel	%eax, %ecx
	movl	%ecx, -32(%rbp)
.LBB16_44:                              # %if.end131
	movl	-32(%rbp), %esi
	movq	-24(%rbp), %rdx
	movabsq	$.L.str.13, %rdi
	callq	u_1
	addl	-12(%rbp), %eax
	movl	%eax, -12(%rbp)
	cmpl	$0, -32(%rbp)
	je	.LBB16_48
# %bb.45:                               # %if.then135
	movq	img, %rax
	movl	72000(%rax), %esi
	subl	$1, %esi
	movq	-24(%rbp), %rdx
	movabsq	$.L.str.14, %rdi
	callq	ue_v
	addl	-12(%rbp), %eax
	movl	%eax, -12(%rbp)
	movq	img, %rax
	cmpl	$1, 24(%rax)
	jne	.LBB16_47
# %bb.46:                               # %if.then141
	movq	img, %rax
	movl	72004(%rax), %esi
	subl	$1, %esi
	movq	-24(%rbp), %rdx
	movabsq	$.L.str.15, %rdi
	callq	ue_v
	addl	-12(%rbp), %eax
	movl	%eax, -12(%rbp)
.LBB16_47:                              # %if.end146
	jmp	.LBB16_48
.LBB16_48:                              # %if.end147
	jmp	.LBB16_49
.LBB16_49:                              # %if.end148
	callq	ref_pic_list_reordering
	addl	-12(%rbp), %eax
	movl	%eax, -12(%rbp)
	movq	img, %rax
	cmpl	$0, 24(%rax)
	je	.LBB16_51
# %bb.50:                               # %lor.lhs.false153
	movq	img, %rax
	cmpl	$3, 24(%rax)
	jne	.LBB16_52
.LBB16_51:                              # %land.lhs.true156
	movq	active_pps, %rax
	cmpl	$0, 192(%rax)
	jne	.LBB16_54
.LBB16_52:                              # %lor.lhs.false158
	movq	img, %rax
	cmpl	$1, 24(%rax)
	jne	.LBB16_55
# %bb.53:                               # %land.lhs.true161
	movq	active_pps, %rax
	cmpl	$1, 196(%rax)
	jne	.LBB16_55
.LBB16_54:                              # %if.then163
	callq	pred_weight_table
	addl	-12(%rbp), %eax
	movl	%eax, -12(%rbp)
.LBB16_55:                              # %if.end166
	movq	img, %rax
	cmpl	$0, 72496(%rax)
	je	.LBB16_57
# %bb.56:                               # %if.then168
	callq	dec_ref_pic_marking
	addl	-12(%rbp), %eax
	movl	%eax, -12(%rbp)
.LBB16_57:                              # %if.end171
	movq	input, %rax
	cmpl	$1, 2356(%rax)
	jne	.LBB16_60
# %bb.58:                               # %land.lhs.true173
	movq	img, %rax
	cmpl	$2, 24(%rax)
	je	.LBB16_60
# %bb.59:                               # %if.then176
	movq	img, %rax
	movl	72520(%rax), %esi
	movq	-24(%rbp), %rdx
	movabsq	$.L.str.16, %rdi
	callq	ue_v
	addl	-12(%rbp), %eax
	movl	%eax, -12(%rbp)
.LBB16_60:                              # %if.end179
	movq	-72(%rbp), %rax
	movl	4(%rax), %esi
	subl	$26, %esi
	movq	active_pps, %rax
	subl	200(%rax), %esi
	movq	-24(%rbp), %rdx
	movabsq	$.L.str.17, %rdi
	callq	se_v
	addl	-12(%rbp), %eax
	movl	%eax, -12(%rbp)
	movq	img, %rax
	cmpl	$3, 24(%rax)
	jne	.LBB16_64
# %bb.61:                               # %if.then186
	movq	img, %rax
	cmpl	$3, 24(%rax)
	jne	.LBB16_63
# %bb.62:                               # %if.then189
	movq	-24(%rbp), %rdx
	movabsq	$.L.str.18, %rdi
	xorl	%esi, %esi
	callq	u_1
	addl	-12(%rbp), %eax
	movl	%eax, -12(%rbp)
.LBB16_63:                              # %if.end192
	movq	img, %rax
	movl	44(%rax), %esi
	subl	$26, %esi
	movq	-24(%rbp), %rdx
	movabsq	$.L.str.19, %rdi
	callq	se_v
	addl	-12(%rbp), %eax
	movl	%eax, -12(%rbp)
.LBB16_64:                              # %if.end196
	movq	active_pps, %rax
	cmpl	$0, 220(%rax)
	je	.LBB16_68
# %bb.65:                               # %if.then198
	movq	img, %rax
	movl	71984(%rax), %esi
	movq	-24(%rbp), %rdx
	movabsq	$.L.str.20, %rdi
	callq	ue_v
	addl	-12(%rbp), %eax
	movl	%eax, -12(%rbp)
	movq	img, %rax
	cmpl	$1, 71984(%rax)
	je	.LBB16_67
# %bb.66:                               # %if.then203
	movq	img, %rax
	movl	71988(%rax), %eax
	cltd
	movl	$2, %ecx
	idivl	%ecx
	movq	-24(%rbp), %rdx
	movabsq	$.L.str.21, %rdi
	movl	%eax, %esi
	callq	se_v
	addl	-12(%rbp), %eax
	movl	%eax, -12(%rbp)
	movq	img, %rax
	movl	71992(%rax), %eax
	cltd
	movl	$2, %ecx
	idivl	%ecx
	movq	-24(%rbp), %rdx
	movabsq	$.L.str.22, %rdi
	movl	%eax, %esi
	callq	se_v
	addl	-12(%rbp), %eax
	movl	%eax, -12(%rbp)
.LBB16_67:                              # %if.end209
	jmp	.LBB16_68
.LBB16_68:                              # %if.end210
	movq	active_pps, %rax
	cmpl	$0, 60(%rax)
	jbe	.LBB16_72
# %bb.69:                               # %land.lhs.true212
	movq	active_pps, %rax
	cmpl	$3, 64(%rax)
	jb	.LBB16_72
# %bb.70:                               # %land.lhs.true214
	movq	active_pps, %rax
	cmpl	$5, 64(%rax)
	ja	.LBB16_72
# %bb.71:                               # %if.then217
	vmovss	.LCPI16_1(%rip), %xmm0  # xmm0 = mem[0],zero,zero,zero
	movq	img(%rip), %rax
	movl	72468(%rax), %ecx
	movl	72472(%rax), %eax
	imull	%ecx, %eax
	vcvtsi2ss	%rax, %xmm0, %xmm1
	movq	active_pps(%rip), %rax
	movl	168(%rax), %eax
	addl	$1, %eax
	vcvtsi2ss	%rax, %xmm0, %xmm2
	vdivss	%xmm2, %xmm1, %xmm1
	vaddss	%xmm0, %xmm1, %xmm0
	vmovss	%xmm0, -48(%rbp)
	vmovss	-48(%rbp), %xmm0        # xmm0 = mem[0],zero,zero,zero
	vcvtss2sd	%xmm0, %xmm0, %xmm0
	callq	log
	vmovsd	%xmm0, -64(%rbp)        # 8-byte Spill
	vmovsd	.LCPI16_0(%rip), %xmm0  # xmm0 = mem[0],zero
	callq	log
	vmovsd	-64(%rbp), %xmm1        # 8-byte Reload
                                        # xmm1 = mem[0],zero
	vdivsd	%xmm0, %xmm1, %xmm0
	vroundsd	$10, %xmm0, %xmm0, %xmm0
	vcvttsd2si	%xmm0, %eax
	movl	%eax, -52(%rbp)
	movl	-52(%rbp), %edi
	movq	img, %rax
	movl	72652(%rax), %edx
	movq	-24(%rbp), %rcx
	movabsq	$.L.str.23, %rsi
	callq	u_v
	addl	-12(%rbp), %eax
	movl	%eax, -12(%rbp)
.LBB16_72:                              # %if.end229
	movq	input, %rax
	cmpl	$0, 2364(%rax)
	je	.LBB16_75
# %bb.73:                               # %land.lhs.true232
	movq	img, %rax
	movq	14152(%rax), %rax
	cmpl	$0, 4(%rax)
	jne	.LBB16_75
# %bb.74:                               # %if.then236
	movq	img, %rax
	movl	20(%rax), %esi
	movq	-24(%rbp), %rdx
	movabsq	$.L.str.24, %rdi
	callq	ue_v
	addl	-12(%rbp), %eax
	movl	%eax, -12(%rbp)
.LBB16_75:                              # %if.end239
	movl	-12(%rbp), %ebx
	cmpl	$434166690, -40(%rbp)   # imm = 0x19E0DBA2
	jne	.LBB16_77
.LBB16_76:
	movl	%ebx, %eax
	addq	$72, %rsp
	popq	%rbx
	popq	%rbp
	.cfi_def_cfa %rsp, 8
	retq
.LBB16_77:                              # %func_exit
	.cfi_def_cfa %rbp, 16
	callq	detect_breach
	jmp	.LBB16_76
.Lfunc_end16:
	.size	SliceHeader.11, .Lfunc_end16-SliceHeader.11
	.cfi_endproc
                                        # -- End function
	.globl	get_picture_type.12     # -- Begin function get_picture_type.12
	.p2align	4, 0x90
	.type	get_picture_type.12,@function
get_picture_type.12:                    # @get_picture_type.12
	.cfi_startproc
# %bb.0:                                # %entry
	pushq	%rbp
	.cfi_def_cfa_offset 16
	.cfi_offset %rbp, -16
	movq	%rsp, %rbp
	.cfi_def_cfa_register %rbp
	pushq	%rbx
	subq	$24, %rsp
	.cfi_offset %rbx, -24
	movl	$370760246, -20(%rbp)   # imm = 0x16195A36
	movl	$5, -16(%rbp)
	movq	img(%rip), %rax
	movl	24(%rax), %eax
	movq	%rax, %rcx
	subq	$3, %rcx
	ja	.LBB17_6
# %bb.1:                                # %entry
	movq	.LJTI17_0(,%rax,8), %rax
	jmpq	*%rax
.LBB17_2:                               # %sw.bb
	movl	-16(%rbp), %eax
	addl	$2, %eax
	movl	%eax, -12(%rbp)
	jmp	.LBB17_8
.LBB17_3:                               # %sw.bb1
	movl	-16(%rbp), %eax
	addl	$0, %eax
	movl	%eax, -12(%rbp)
	jmp	.LBB17_8
.LBB17_4:                               # %sw.bb3
	movl	-16(%rbp), %eax
	addl	$1, %eax
	movl	%eax, -12(%rbp)
	jmp	.LBB17_8
.LBB17_5:                               # %sw.bb5
	movl	-16(%rbp), %eax
	addl	$3, %eax
	movl	%eax, -12(%rbp)
	jmp	.LBB17_8
.LBB17_6:                               # %sw.default
	movabsq	$.L.str.25, %rdi
	movl	$1, %esi
	callq	error
# %bb.7:                                # %sw.epilog
	movl	$0, -12(%rbp)
.LBB17_8:                               # %return
	movl	-12(%rbp), %ebx
	cmpl	$370760246, -20(%rbp)   # imm = 0x16195A36
	jne	.LBB17_10
.LBB17_9:
	movl	%ebx, %eax
	addq	$24, %rsp
	popq	%rbx
	popq	%rbp
	.cfi_def_cfa %rsp, 8
	retq
.LBB17_10:                              # %func_exit
	.cfi_def_cfa %rbp, 16
	callq	detect_breach
	jmp	.LBB17_9
.Lfunc_end17:
	.size	get_picture_type.12, .Lfunc_end17-get_picture_type.12
	.cfi_endproc
	.section	.rodata,"a",@progbits
	.p2align	3
.LJTI17_0:
	.quad	.LBB17_3
	.quad	.LBB17_4
	.quad	.LBB17_2
	.quad	.LBB17_5
                                        # -- End function
	.text
	.globl	Partition_BC_Header.13  # -- Begin function Partition_BC_Header.13
	.p2align	4, 0x90
	.type	Partition_BC_Header.13,@function
Partition_BC_Header.13:                 # @Partition_BC_Header.13
	.cfi_startproc
# %bb.0:                                # %entry
	pushq	%rbp
	.cfi_def_cfa_offset 16
	.cfi_offset %rbp, -16
	movq	%rsp, %rbp
	.cfi_def_cfa_register %rbp
	pushq	%rbx
	subq	$88, %rsp
	.cfi_offset %rbx, -24
	movl	$1518741648, -28(%rbp)  # imm = 0x5A862890
	movl	%edi, -32(%rbp)
	movq	img, %rax
	movq	14160(%rax), %rax
	movq	24(%rax), %rax
	movslq	-32(%rbp), %rcx
	imulq	$120, %rcx, %rcx
	addq	%rcx, %rax
	movq	%rax, -40(%rbp)
	leaq	-88(%rbp), %rax
	movq	%rax, -24(%rbp)
	movl	$0, -12(%rbp)
	movq	-24(%rbp), %rax
	movl	$0, (%rax)
	movq	-24(%rbp), %rax
	movabsq	$ue_linfo, %rcx
	movq	%rcx, 32(%rax)
	movq	-24(%rbp), %rax
	movl	$0, 8(%rax)
	movq	img, %rax
	movl	20(%rax), %eax
	movq	-24(%rbp), %rcx
	movl	%eax, 4(%rcx)
	movq	-24(%rbp), %rdi
	movq	-40(%rbp), %rsi
	callq	writeSyntaxElement_UVLC
	addl	-12(%rbp), %eax
	movl	%eax, -12(%rbp)
	movq	active_pps, %rax
	cmpl	$0, 228(%rax)
	je	.LBB18_2
# %bb.1:                                # %if.then
	movq	img, %rax
	movq	14160(%rax), %rax
	movl	(%rax), %eax
	movq	-24(%rbp), %rcx
	movl	%eax, 4(%rcx)
	movq	-24(%rbp), %rdi
	movq	-40(%rbp), %rsi
	callq	writeSyntaxElement_UVLC
	addl	-12(%rbp), %eax
	movl	%eax, -12(%rbp)
.LBB18_2:                               # %if.end
	movl	-12(%rbp), %ebx
	cmpl	$1518741648, -28(%rbp)  # imm = 0x5A862890
	jne	.LBB18_4
.LBB18_3:
	movl	%ebx, %eax
	addq	$88, %rsp
	popq	%rbx
	popq	%rbp
	.cfi_def_cfa %rsp, 8
	retq
.LBB18_4:                               # %func_exit
	.cfi_def_cfa %rbp, 16
	callq	detect_breach
	jmp	.LBB18_3
.Lfunc_end18:
	.size	Partition_BC_Header.13, .Lfunc_end18-Partition_BC_Header.13
	.cfi_endproc
                                        # -- End function
	.globl	get_picture_type.14     # -- Begin function get_picture_type.14
	.p2align	4, 0x90
	.type	get_picture_type.14,@function
get_picture_type.14:                    # @get_picture_type.14
	.cfi_startproc
# %bb.0:                                # %entry
	pushq	%rbp
	.cfi_def_cfa_offset 16
	.cfi_offset %rbp, -16
	movq	%rsp, %rbp
	.cfi_def_cfa_register %rbp
	pushq	%rbx
	subq	$24, %rsp
	.cfi_offset %rbx, -24
	movl	$1708108662, -20(%rbp)  # imm = 0x65CFAB76
	movl	$5, -16(%rbp)
	movq	img(%rip), %rax
	movl	24(%rax), %eax
	movq	%rax, %rcx
	subq	$3, %rcx
	ja	.LBB19_6
# %bb.1:                                # %entry
	movq	.LJTI19_0(,%rax,8), %rax
	jmpq	*%rax
.LBB19_2:                               # %sw.bb
	movl	-16(%rbp), %eax
	addl	$2, %eax
	movl	%eax, -12(%rbp)
	jmp	.LBB19_8
.LBB19_3:                               # %sw.bb1
	movl	-16(%rbp), %eax
	addl	$0, %eax
	movl	%eax, -12(%rbp)
	jmp	.LBB19_8
.LBB19_4:                               # %sw.bb3
	movl	-16(%rbp), %eax
	addl	$1, %eax
	movl	%eax, -12(%rbp)
	jmp	.LBB19_8
.LBB19_5:                               # %sw.bb5
	movl	-16(%rbp), %eax
	addl	$3, %eax
	movl	%eax, -12(%rbp)
	jmp	.LBB19_8
.LBB19_6:                               # %sw.default
	movabsq	$.L.str.25, %rdi
	movl	$1, %esi
	callq	error
# %bb.7:                                # %sw.epilog
	movl	$0, -12(%rbp)
.LBB19_8:                               # %return
	movl	-12(%rbp), %ebx
	cmpl	$1708108662, -20(%rbp)  # imm = 0x65CFAB76
	jne	.LBB19_10
.LBB19_9:
	movl	%ebx, %eax
	addq	$24, %rsp
	popq	%rbx
	popq	%rbp
	.cfi_def_cfa %rsp, 8
	retq
.LBB19_10:                              # %func_exit
	.cfi_def_cfa %rbp, 16
	callq	detect_breach
	jmp	.LBB19_9
.Lfunc_end19:
	.size	get_picture_type.14, .Lfunc_end19-get_picture_type.14
	.cfi_endproc
	.section	.rodata,"a",@progbits
	.p2align	3
.LJTI19_0:
	.quad	.LBB19_3
	.quad	.LBB19_4
	.quad	.LBB19_2
	.quad	.LBB19_5
                                        # -- End function
	.text
	.p2align	4, 0x90         # -- Begin function dec_ref_pic_marking.15
	.type	dec_ref_pic_marking.15,@function
dec_ref_pic_marking.15:                 # @dec_ref_pic_marking.15
	.cfi_startproc
# %bb.0:                                # %entry
	pushq	%rbp
	.cfi_def_cfa_offset 16
	.cfi_offset %rbp, -16
	movq	%rsp, %rbp
	.cfi_def_cfa_register %rbp
	pushq	%rbx
	subq	$40, %rsp
	.cfi_offset %rbx, -24
	movl	$2037522946, -36(%rbp)  # imm = 0x79722202
	movq	input, %rax
	movslq	2364(%rax), %rax
	movq	assignSE2partition(,%rax,8), %rax
	movl	(%rax), %eax
	movl	%eax, -40(%rbp)
	movq	img, %rax
	movq	14160(%rax), %rax
	movq	24(%rax), %rax
	movslq	-40(%rbp), %rcx
	imulq	$120, %rcx, %rcx
	addq	%rcx, %rax
	movq	%rax, -32(%rbp)
	movl	$0, -12(%rbp)
	movq	img, %rax
	movq	14152(%rax), %rax
	cmpl	$0, 4(%rax)
	je	.LBB20_2
# %bb.1:                                # %if.then
	movq	img, %rax
	movl	72504(%rax), %esi
	movq	-32(%rbp), %rdx
	movabsq	$.L.str.33, %rdi
	callq	u_1
	addl	-12(%rbp), %eax
	movl	%eax, -12(%rbp)
	movq	img, %rax
	movl	72508(%rax), %esi
	movq	-32(%rbp), %rdx
	movabsq	$.L.str.34, %rdi
	callq	u_1
	addl	-12(%rbp), %eax
	movl	%eax, -12(%rbp)
	jmp	.LBB20_20
.LBB20_2:                               # %if.else
	movq	img, %rax
	cmpq	$0, 72512(%rax)
	setne	%al
	andb	$1, %al
	movzbl	%al, %eax
	movq	img, %rcx
	movl	%eax, 72500(%rcx)
	movq	img, %rax
	movl	72500(%rax), %esi
	movq	-32(%rbp), %rdx
	movabsq	$.L.str.35, %rdi
	callq	u_1
	addl	-12(%rbp), %eax
	movl	%eax, -12(%rbp)
	movq	img, %rax
	cmpl	$0, 72500(%rax)
	je	.LBB20_19
# %bb.3:                                # %if.then11
	movq	img, %rax
	movq	72512(%rax), %rax
	movq	%rax, -24(%rbp)
.LBB20_4:                               # %do.body
                                        # =>This Inner Loop Header: Depth=1
	cmpq	$0, -24(%rbp)
	jne	.LBB20_6
# %bb.5:                                # %if.then15
                                        #   in Loop: Header=BB20_4 Depth=1
	movabsq	$.L.str.36, %rdi
	movl	$500, %esi              # imm = 0x1F4
	callq	error
.LBB20_6:                               # %if.end
                                        #   in Loop: Header=BB20_4 Depth=1
	movq	-24(%rbp), %rax
	movl	(%rax), %eax
	movl	%eax, -16(%rbp)
	movl	-16(%rbp), %esi
	movq	-32(%rbp), %rdx
	movabsq	$.L.str.37, %rdi
	callq	ue_v
	addl	-12(%rbp), %eax
	movl	%eax, -12(%rbp)
	cmpl	$1, -16(%rbp)
	je	.LBB20_8
# %bb.7:                                # %lor.lhs.false
                                        #   in Loop: Header=BB20_4 Depth=1
	cmpl	$3, -16(%rbp)
	jne	.LBB20_9
.LBB20_8:                               # %if.then22
                                        #   in Loop: Header=BB20_4 Depth=1
	movq	-24(%rbp), %rax
	movl	4(%rax), %esi
	movq	-32(%rbp), %rdx
	movabsq	$.L.str.38, %rdi
	callq	ue_v
	addl	$1, %eax
	addl	-12(%rbp), %eax
	movl	%eax, -12(%rbp)
.LBB20_9:                               # %if.end26
                                        #   in Loop: Header=BB20_4 Depth=1
	cmpl	$2, -16(%rbp)
	jne	.LBB20_11
# %bb.10:                               # %if.then29
                                        #   in Loop: Header=BB20_4 Depth=1
	movq	-24(%rbp), %rax
	movl	8(%rax), %esi
	movq	-32(%rbp), %rdx
	movabsq	$.L.str.39, %rdi
	callq	ue_v
	addl	-12(%rbp), %eax
	movl	%eax, -12(%rbp)
.LBB20_11:                              # %if.end32
                                        #   in Loop: Header=BB20_4 Depth=1
	cmpl	$3, -16(%rbp)
	je	.LBB20_13
# %bb.12:                               # %lor.lhs.false35
                                        #   in Loop: Header=BB20_4 Depth=1
	cmpl	$6, -16(%rbp)
	jne	.LBB20_14
.LBB20_13:                              # %if.then38
                                        #   in Loop: Header=BB20_4 Depth=1
	movq	-24(%rbp), %rax
	movl	12(%rax), %esi
	movq	-32(%rbp), %rdx
	movabsq	$.L.str.40, %rdi
	callq	ue_v
	addl	-12(%rbp), %eax
	movl	%eax, -12(%rbp)
.LBB20_14:                              # %if.end41
                                        #   in Loop: Header=BB20_4 Depth=1
	cmpl	$4, -16(%rbp)
	jne	.LBB20_16
# %bb.15:                               # %if.then44
                                        #   in Loop: Header=BB20_4 Depth=1
	movq	-24(%rbp), %rax
	movl	16(%rax), %esi
	movq	-32(%rbp), %rdx
	movabsq	$.L.str.41, %rdi
	callq	ue_v
	addl	-12(%rbp), %eax
	movl	%eax, -12(%rbp)
.LBB20_16:                              # %if.end47
                                        #   in Loop: Header=BB20_4 Depth=1
	movq	-24(%rbp), %rax
	movq	24(%rax), %rax
	movq	%rax, -24(%rbp)
# %bb.17:                               # %do.cond
                                        #   in Loop: Header=BB20_4 Depth=1
	cmpl	$0, -16(%rbp)
	jne	.LBB20_4
# %bb.18:                               # %do.end
	jmp	.LBB20_19
.LBB20_19:                              # %if.end50
	jmp	.LBB20_20
.LBB20_20:                              # %if.end51
	movl	-12(%rbp), %ebx
	cmpl	$2037522946, -36(%rbp)  # imm = 0x79722202
	jne	.LBB20_22
.LBB20_21:
	movl	%ebx, %eax
	addq	$40, %rsp
	popq	%rbx
	popq	%rbp
	.cfi_def_cfa %rsp, 8
	retq
.LBB20_22:                              # %func_exit
	.cfi_def_cfa %rbp, 16
	callq	detect_breach
	jmp	.LBB20_21
.Lfunc_end20:
	.size	dec_ref_pic_marking.15, .Lfunc_end20-dec_ref_pic_marking.15
	.cfi_endproc
                                        # -- End function
	.p2align	4, 0x90         # -- Begin function dec_ref_pic_marking.16
	.type	dec_ref_pic_marking.16,@function
dec_ref_pic_marking.16:                 # @dec_ref_pic_marking.16
	.cfi_startproc
# %bb.0:                                # %entry
	pushq	%rbp
	.cfi_def_cfa_offset 16
	.cfi_offset %rbp, -16
	movq	%rsp, %rbp
	.cfi_def_cfa_register %rbp
	pushq	%rbx
	subq	$40, %rsp
	.cfi_offset %rbx, -24
	movl	$1470070086, -40(%rbp)  # imm = 0x579F7D46
	movq	input, %rax
	movslq	2364(%rax), %rax
	movq	assignSE2partition(,%rax,8), %rax
	movl	(%rax), %eax
	movl	%eax, -36(%rbp)
	movq	img, %rax
	movq	14160(%rax), %rax
	movq	24(%rax), %rax
	movslq	-36(%rbp), %rcx
	imulq	$120, %rcx, %rcx
	addq	%rcx, %rax
	movq	%rax, -24(%rbp)
	movl	$0, -12(%rbp)
	movq	img, %rax
	movq	14152(%rax), %rax
	cmpl	$0, 4(%rax)
	je	.LBB21_2
# %bb.1:                                # %if.then
	movq	img, %rax
	movl	72504(%rax), %esi
	movq	-24(%rbp), %rdx
	movabsq	$.L.str.33, %rdi
	callq	u_1
	addl	-12(%rbp), %eax
	movl	%eax, -12(%rbp)
	movq	img, %rax
	movl	72508(%rax), %esi
	movq	-24(%rbp), %rdx
	movabsq	$.L.str.34, %rdi
	callq	u_1
	addl	-12(%rbp), %eax
	movl	%eax, -12(%rbp)
	jmp	.LBB21_20
.LBB21_2:                               # %if.else
	movq	img, %rax
	cmpq	$0, 72512(%rax)
	setne	%al
	andb	$1, %al
	movzbl	%al, %eax
	movq	img, %rcx
	movl	%eax, 72500(%rcx)
	movq	img, %rax
	movl	72500(%rax), %esi
	movq	-24(%rbp), %rdx
	movabsq	$.L.str.35, %rdi
	callq	u_1
	addl	-12(%rbp), %eax
	movl	%eax, -12(%rbp)
	movq	img, %rax
	cmpl	$0, 72500(%rax)
	je	.LBB21_19
# %bb.3:                                # %if.then11
	movq	img, %rax
	movq	72512(%rax), %rax
	movq	%rax, -32(%rbp)
.LBB21_4:                               # %do.body
                                        # =>This Inner Loop Header: Depth=1
	cmpq	$0, -32(%rbp)
	jne	.LBB21_6
# %bb.5:                                # %if.then15
                                        #   in Loop: Header=BB21_4 Depth=1
	movabsq	$.L.str.36, %rdi
	movl	$500, %esi              # imm = 0x1F4
	callq	error
.LBB21_6:                               # %if.end
                                        #   in Loop: Header=BB21_4 Depth=1
	movq	-32(%rbp), %rax
	movl	(%rax), %eax
	movl	%eax, -16(%rbp)
	movl	-16(%rbp), %esi
	movq	-24(%rbp), %rdx
	movabsq	$.L.str.37, %rdi
	callq	ue_v
	addl	-12(%rbp), %eax
	movl	%eax, -12(%rbp)
	cmpl	$1, -16(%rbp)
	je	.LBB21_8
# %bb.7:                                # %lor.lhs.false
                                        #   in Loop: Header=BB21_4 Depth=1
	cmpl	$3, -16(%rbp)
	jne	.LBB21_9
.LBB21_8:                               # %if.then22
                                        #   in Loop: Header=BB21_4 Depth=1
	movq	-32(%rbp), %rax
	movl	4(%rax), %esi
	movq	-24(%rbp), %rdx
	movabsq	$.L.str.38, %rdi
	callq	ue_v
	addl	$1, %eax
	addl	-12(%rbp), %eax
	movl	%eax, -12(%rbp)
.LBB21_9:                               # %if.end26
                                        #   in Loop: Header=BB21_4 Depth=1
	cmpl	$2, -16(%rbp)
	jne	.LBB21_11
# %bb.10:                               # %if.then29
                                        #   in Loop: Header=BB21_4 Depth=1
	movq	-32(%rbp), %rax
	movl	8(%rax), %esi
	movq	-24(%rbp), %rdx
	movabsq	$.L.str.39, %rdi
	callq	ue_v
	addl	-12(%rbp), %eax
	movl	%eax, -12(%rbp)
.LBB21_11:                              # %if.end32
                                        #   in Loop: Header=BB21_4 Depth=1
	cmpl	$3, -16(%rbp)
	je	.LBB21_13
# %bb.12:                               # %lor.lhs.false35
                                        #   in Loop: Header=BB21_4 Depth=1
	cmpl	$6, -16(%rbp)
	jne	.LBB21_14
.LBB21_13:                              # %if.then38
                                        #   in Loop: Header=BB21_4 Depth=1
	movq	-32(%rbp), %rax
	movl	12(%rax), %esi
	movq	-24(%rbp), %rdx
	movabsq	$.L.str.40, %rdi
	callq	ue_v
	addl	-12(%rbp), %eax
	movl	%eax, -12(%rbp)
.LBB21_14:                              # %if.end41
                                        #   in Loop: Header=BB21_4 Depth=1
	cmpl	$4, -16(%rbp)
	jne	.LBB21_16
# %bb.15:                               # %if.then44
                                        #   in Loop: Header=BB21_4 Depth=1
	movq	-32(%rbp), %rax
	movl	16(%rax), %esi
	movq	-24(%rbp), %rdx
	movabsq	$.L.str.41, %rdi
	callq	ue_v
	addl	-12(%rbp), %eax
	movl	%eax, -12(%rbp)
.LBB21_16:                              # %if.end47
                                        #   in Loop: Header=BB21_4 Depth=1
	movq	-32(%rbp), %rax
	movq	24(%rax), %rax
	movq	%rax, -32(%rbp)
# %bb.17:                               # %do.cond
                                        #   in Loop: Header=BB21_4 Depth=1
	cmpl	$0, -16(%rbp)
	jne	.LBB21_4
# %bb.18:                               # %do.end
	jmp	.LBB21_19
.LBB21_19:                              # %if.end50
	jmp	.LBB21_20
.LBB21_20:                              # %if.end51
	movl	-12(%rbp), %ebx
	cmpl	$1470070086, -40(%rbp)  # imm = 0x579F7D46
	jne	.LBB21_22
.LBB21_21:
	movl	%ebx, %eax
	addq	$40, %rsp
	popq	%rbx
	popq	%rbp
	.cfi_def_cfa %rsp, 8
	retq
.LBB21_22:                              # %func_exit
	.cfi_def_cfa %rbp, 16
	callq	detect_breach
	jmp	.LBB21_21
.Lfunc_end21:
	.size	dec_ref_pic_marking.16, .Lfunc_end21-dec_ref_pic_marking.16
	.cfi_endproc
                                        # -- End function
	.section	.rodata.cst8,"aM",@progbits,8
	.p2align	3               # -- Begin function SliceHeader.17
.LCPI22_0:
	.quad	4611686018427387904     # double 2
	.section	.rodata.cst4,"aM",@progbits,4
	.p2align	2
.LCPI22_1:
	.long	1065353216              # float 1
	.text
	.globl	SliceHeader.17
	.p2align	4, 0x90
	.type	SliceHeader.17,@function
SliceHeader.17:                         # @SliceHeader.17
	.cfi_startproc
# %bb.0:                                # %entry
	pushq	%rbp
	.cfi_def_cfa_offset 16
	.cfi_offset %rbp, -16
	movq	%rsp, %rbp
	.cfi_def_cfa_register %rbp
	pushq	%rbx
	subq	$72, %rsp
	.cfi_offset %rbx, -24
	movl	$443501399, -52(%rbp)   # imm = 0x1A6F4B57
	movq	input, %rax
	movslq	2364(%rax), %rax
	movq	assignSE2partition(,%rax,8), %rax
	movl	(%rax), %eax
	movl	%eax, -44(%rbp)
	movq	img, %rax
	movq	14160(%rax), %rax
	movq	24(%rax), %rax
	movslq	-44(%rbp), %rcx
	imulq	$120, %rcx, %rcx
	addq	%rcx, %rax
	movq	%rax, -24(%rbp)
	movq	img, %rax
	movq	14160(%rax), %rax
	movq	%rax, -72(%rbp)
	movl	$0, -12(%rbp)
	movl	$0, -28(%rbp)
	movl	$0, -36(%rbp)
	movq	img, %rax
	cmpl	$0, 72400(%rax)
	je	.LBB22_2
# %bb.1:                                # %if.then
	movq	img, %rax
	movl	12(%rax), %esi
	sarl	$1, %esi
	movq	-24(%rbp), %rdx
	movabsq	$.L.str, %rdi
	callq	ue_v
	movl	%eax, -12(%rbp)
	jmp	.LBB22_3
.LBB22_2:                               # %if.else
	movq	img, %rax
	movl	12(%rax), %esi
	movq	-24(%rbp), %rdx
	movabsq	$.L.str, %rdi
	callq	ue_v
	movl	%eax, -12(%rbp)
.LBB22_3:                               # %if.end
	callq	get_picture_type
	movq	-24(%rbp), %rdx
	movabsq	$.L.str.1, %rdi
	movl	%eax, %esi
	callq	ue_v
	addl	-12(%rbp), %eax
	movl	%eax, -12(%rbp)
	movq	active_pps, %rax
	movl	4(%rax), %esi
	movq	-24(%rbp), %rdx
	movabsq	$.L.str.2, %rdi
	callq	ue_v
	addl	-12(%rbp), %eax
	movl	%eax, -12(%rbp)
	movl	log2_max_frame_num_minus4, %edi
	addl	$4, %edi
	movq	img, %rax
	movl	72464(%rax), %edx
	movq	-24(%rbp), %rcx
	movabsq	$.L.str.3, %rsi
	callq	u_v
	addl	-12(%rbp), %eax
	movl	%eax, -12(%rbp)
	movq	active_sps, %rax
	cmpl	$0, 1148(%rax)
	jne	.LBB22_9
# %bb.4:                                # %if.then15
	movq	img, %rax
	cmpl	$1, 28(%rax)
	movb	$1, %al
	je	.LBB22_6
# %bb.5:                                # %lor.rhs
	movq	img, %rax
	cmpl	$2, 28(%rax)
	sete	%al
.LBB22_6:                               # %lor.end
	xorl	%ecx, %ecx
	testb	$1, %al
	movl	$1, %eax
	cmovnel	%eax, %ecx
	movl	%ecx, -28(%rbp)
	movl	-28(%rbp), %esi
	movq	-24(%rbp), %rdx
	movabsq	$.L.str.4, %rdi
	callq	u_1
	addl	-12(%rbp), %eax
	movl	%eax, -12(%rbp)
	cmpl	$0, -28(%rbp)
	je	.LBB22_8
# %bb.7:                                # %if.then21
	xorl	%eax, %eax
	movq	img, %rcx
	movl	28(%rcx), %ecx
	cmpl	$2, %ecx
	movl	$1, %ecx
	cmovel	%ecx, %eax
	movl	%eax, -36(%rbp)
	movl	-36(%rbp), %esi
	movq	-24(%rbp), %rdx
	movabsq	$.L.str.5, %rdi
	callq	u_1
	addl	-12(%rbp), %eax
	movl	%eax, -12(%rbp)
.LBB22_8:                               # %if.end27
	jmp	.LBB22_9
.LBB22_9:                               # %if.end28
	movq	img, %rax
	movq	14152(%rax), %rax
	cmpl	$0, 4(%rax)
	je	.LBB22_11
# %bb.10:                               # %if.then30
	movq	img, %rax
	movl	(%rax), %eax
	cltd
	movl	$2, %ecx
	idivl	%ecx
	movq	-24(%rbp), %rax
	movabsq	$.L.str.6, %rdi
	movl	%edx, %esi
	movq	%rax, %rdx
	callq	ue_v
	addl	-12(%rbp), %eax
	movl	%eax, -12(%rbp)
.LBB22_11:                              # %if.end33
	movq	img, %rax
	cmpl	$0, 72404(%rax)
	jne	.LBB22_25
# %bb.12:                               # %if.then35
	movq	active_sps, %rax
	cmpl	$0, 1148(%rax)
	je	.LBB22_14
# %bb.13:                               # %if.then38
	movq	img, %rax
	movl	72448(%rax), %eax
	movl	log2_max_pic_order_cnt_lsb_minus4, %ecx
	addl	$4, %ecx
                                        # kill: def $cl killed $ecx
	movl	$4294967295, %edx       # imm = 0xFFFFFFFF
	shll	%cl, %edx
	xorl	$-1, %edx
	andl	%edx, %eax
	movq	img, %rcx
	movl	%eax, 72428(%rcx)
	jmp	.LBB22_21
.LBB22_14:                              # %if.else40
	cmpl	$0, -28(%rbp)
	je	.LBB22_16
# %bb.15:                               # %lor.lhs.false
	movq	img, %rax
	cmpl	$1, 28(%rax)
	jne	.LBB22_17
.LBB22_16:                              # %if.then44
	movq	img, %rax
	movl	72448(%rax), %eax
	movl	log2_max_pic_order_cnt_lsb_minus4, %ecx
	addl	$4, %ecx
                                        # kill: def $cl killed $ecx
	movl	$4294967295, %edx       # imm = 0xFFFFFFFF
	shll	%cl, %edx
	xorl	$-1, %edx
	andl	%edx, %eax
	movq	img, %rcx
	movl	%eax, 72428(%rcx)
	jmp	.LBB22_20
.LBB22_17:                              # %if.else51
	movq	img, %rax
	cmpl	$2, 28(%rax)
	jne	.LBB22_19
# %bb.18:                               # %if.then54
	movq	img, %rax
	movl	72452(%rax), %eax
	movl	log2_max_pic_order_cnt_lsb_minus4, %ecx
	addl	$4, %ecx
                                        # kill: def $cl killed $ecx
	movl	$4294967295, %edx       # imm = 0xFFFFFFFF
	shll	%cl, %edx
	xorl	$-1, %edx
	andl	%edx, %eax
	movq	img, %rcx
	movl	%eax, 72428(%rcx)
.LBB22_19:                              # %if.end60
	jmp	.LBB22_20
.LBB22_20:                              # %if.end61
	jmp	.LBB22_21
.LBB22_21:                              # %if.end62
	movl	log2_max_pic_order_cnt_lsb_minus4, %edi
	addl	$4, %edi
	movq	img, %rax
	movl	72428(%rax), %edx
	movq	-24(%rbp), %rcx
	movabsq	$.L.str.7, %rsi
	callq	u_v
	addl	-12(%rbp), %eax
	movl	%eax, -12(%rbp)
	movq	img, %rax
	cmpl	$0, 72492(%rax)
	je	.LBB22_24
# %bb.22:                               # %land.lhs.true
	cmpl	$0, -28(%rbp)
	jne	.LBB22_24
# %bb.23:                               # %if.then69
	movq	img, %rax
	movl	72432(%rax), %esi
	movq	-24(%rbp), %rdx
	movabsq	$.L.str.8, %rdi
	callq	se_v
	addl	-12(%rbp), %eax
	movl	%eax, -12(%rbp)
.LBB22_24:                              # %if.end72
	jmp	.LBB22_25
.LBB22_25:                              # %if.end73
	movq	img, %rax
	cmpl	$1, 72404(%rax)
	jne	.LBB22_31
# %bb.26:                               # %land.lhs.true76
	movq	img, %rax
	cmpl	$0, 72408(%rax)
	jne	.LBB22_31
# %bb.27:                               # %if.then78
	movq	img, %rax
	movl	72436(%rax), %esi
	movq	-24(%rbp), %rdx
	movabsq	$.L.str.9, %rdi
	callq	se_v
	addl	-12(%rbp), %eax
	movl	%eax, -12(%rbp)
	movq	img, %rax
	cmpl	$0, 72492(%rax)
	je	.LBB22_30
# %bb.28:                               # %land.lhs.true84
	cmpl	$0, -28(%rbp)
	jne	.LBB22_30
# %bb.29:                               # %if.then86
	movq	img, %rax
	movl	72440(%rax), %esi
	movq	-24(%rbp), %rdx
	movabsq	$.L.str.10, %rdi
	callq	se_v
	addl	-12(%rbp), %eax
	movl	%eax, -12(%rbp)
.LBB22_30:                              # %if.end91
	jmp	.LBB22_31
.LBB22_31:                              # %if.end92
	movq	input, %rax
	cmpl	$0, 3204(%rax)
	je	.LBB22_33
# %bb.32:                               # %if.then94
	movq	img, %rax
	movl	72396(%rax), %esi
	movq	-24(%rbp), %rdx
	movabsq	$.L.str.11, %rdi
	callq	ue_v
	addl	-12(%rbp), %eax
	movl	%eax, -12(%rbp)
.LBB22_33:                              # %if.end97
	movq	img, %rax
	cmpl	$1, 24(%rax)
	jne	.LBB22_35
# %bb.34:                               # %if.then99
	movq	img, %rax
	movl	71996(%rax), %esi
	movq	-24(%rbp), %rdx
	movabsq	$.L.str.12, %rdi
	callq	u_1
	addl	-12(%rbp), %eax
	movl	%eax, -12(%rbp)
.LBB22_35:                              # %if.end102
	movq	img, %rax
	cmpl	$0, 24(%rax)
	je	.LBB22_38
# %bb.36:                               # %lor.lhs.false105
	movq	img, %rax
	cmpl	$1, 24(%rax)
	je	.LBB22_38
# %bb.37:                               # %lor.lhs.false108
	movq	img, %rax
	cmpl	$3, 24(%rax)
	jne	.LBB22_49
.LBB22_38:                              # %if.then111
	movq	img, %rax
	cmpl	$0, 24(%rax)
	je	.LBB22_40
# %bb.39:                               # %lor.lhs.false114
	movq	img, %rax
	cmpl	$3, 24(%rax)
	jne	.LBB22_41
.LBB22_40:                              # %if.then117
	xorl	%eax, %eax
	movq	img, %rcx
	movl	72000(%rcx), %ecx
	movq	active_pps, %rdx
	movl	184(%rdx), %edx
	addl	$1, %edx
	cmpl	%edx, %ecx
	movl	$1, %ecx
	cmovnel	%ecx, %eax
	movl	%eax, -32(%rbp)
	jmp	.LBB22_44
.LBB22_41:                              # %if.else121
	movq	img, %rax
	movl	72000(%rax), %eax
	movq	active_pps, %rcx
	movl	184(%rcx), %ecx
	addl	$1, %ecx
	cmpl	%ecx, %eax
	movb	$1, %al
	jne	.LBB22_43
# %bb.42:                               # %lor.rhs126
	movq	img, %rax
	movl	72004(%rax), %eax
	movq	active_pps, %rcx
	movl	188(%rcx), %ecx
	addl	$1, %ecx
	cmpl	%ecx, %eax
	setne	%al
.LBB22_43:                              # %lor.end129
	xorl	%ecx, %ecx
	testb	$1, %al
	movl	$1, %eax
	cmovnel	%eax, %ecx
	movl	%ecx, -32(%rbp)
.LBB22_44:                              # %if.end131
	movl	-32(%rbp), %esi
	movq	-24(%rbp), %rdx
	movabsq	$.L.str.13, %rdi
	callq	u_1
	addl	-12(%rbp), %eax
	movl	%eax, -12(%rbp)
	cmpl	$0, -32(%rbp)
	je	.LBB22_48
# %bb.45:                               # %if.then135
	movq	img, %rax
	movl	72000(%rax), %esi
	subl	$1, %esi
	movq	-24(%rbp), %rdx
	movabsq	$.L.str.14, %rdi
	callq	ue_v
	addl	-12(%rbp), %eax
	movl	%eax, -12(%rbp)
	movq	img, %rax
	cmpl	$1, 24(%rax)
	jne	.LBB22_47
# %bb.46:                               # %if.then141
	movq	img, %rax
	movl	72004(%rax), %esi
	subl	$1, %esi
	movq	-24(%rbp), %rdx
	movabsq	$.L.str.15, %rdi
	callq	ue_v
	addl	-12(%rbp), %eax
	movl	%eax, -12(%rbp)
.LBB22_47:                              # %if.end146
	jmp	.LBB22_48
.LBB22_48:                              # %if.end147
	jmp	.LBB22_49
.LBB22_49:                              # %if.end148
	callq	ref_pic_list_reordering
	addl	-12(%rbp), %eax
	movl	%eax, -12(%rbp)
	movq	img, %rax
	cmpl	$0, 24(%rax)
	je	.LBB22_51
# %bb.50:                               # %lor.lhs.false153
	movq	img, %rax
	cmpl	$3, 24(%rax)
	jne	.LBB22_52
.LBB22_51:                              # %land.lhs.true156
	movq	active_pps, %rax
	cmpl	$0, 192(%rax)
	jne	.LBB22_54
.LBB22_52:                              # %lor.lhs.false158
	movq	img, %rax
	cmpl	$1, 24(%rax)
	jne	.LBB22_55
# %bb.53:                               # %land.lhs.true161
	movq	active_pps, %rax
	cmpl	$1, 196(%rax)
	jne	.LBB22_55
.LBB22_54:                              # %if.then163
	callq	pred_weight_table
	addl	-12(%rbp), %eax
	movl	%eax, -12(%rbp)
.LBB22_55:                              # %if.end166
	movq	img, %rax
	cmpl	$0, 72496(%rax)
	je	.LBB22_57
# %bb.56:                               # %if.then168
	callq	dec_ref_pic_marking
	addl	-12(%rbp), %eax
	movl	%eax, -12(%rbp)
.LBB22_57:                              # %if.end171
	movq	input, %rax
	cmpl	$1, 2356(%rax)
	jne	.LBB22_60
# %bb.58:                               # %land.lhs.true173
	movq	img, %rax
	cmpl	$2, 24(%rax)
	je	.LBB22_60
# %bb.59:                               # %if.then176
	movq	img, %rax
	movl	72520(%rax), %esi
	movq	-24(%rbp), %rdx
	movabsq	$.L.str.16, %rdi
	callq	ue_v
	addl	-12(%rbp), %eax
	movl	%eax, -12(%rbp)
.LBB22_60:                              # %if.end179
	movq	-72(%rbp), %rax
	movl	4(%rax), %esi
	subl	$26, %esi
	movq	active_pps, %rax
	subl	200(%rax), %esi
	movq	-24(%rbp), %rdx
	movabsq	$.L.str.17, %rdi
	callq	se_v
	addl	-12(%rbp), %eax
	movl	%eax, -12(%rbp)
	movq	img, %rax
	cmpl	$3, 24(%rax)
	jne	.LBB22_64
# %bb.61:                               # %if.then186
	movq	img, %rax
	cmpl	$3, 24(%rax)
	jne	.LBB22_63
# %bb.62:                               # %if.then189
	movq	-24(%rbp), %rdx
	movabsq	$.L.str.18, %rdi
	xorl	%esi, %esi
	callq	u_1
	addl	-12(%rbp), %eax
	movl	%eax, -12(%rbp)
.LBB22_63:                              # %if.end192
	movq	img, %rax
	movl	44(%rax), %esi
	subl	$26, %esi
	movq	-24(%rbp), %rdx
	movabsq	$.L.str.19, %rdi
	callq	se_v
	addl	-12(%rbp), %eax
	movl	%eax, -12(%rbp)
.LBB22_64:                              # %if.end196
	movq	active_pps, %rax
	cmpl	$0, 220(%rax)
	je	.LBB22_68
# %bb.65:                               # %if.then198
	movq	img, %rax
	movl	71984(%rax), %esi
	movq	-24(%rbp), %rdx
	movabsq	$.L.str.20, %rdi
	callq	ue_v
	addl	-12(%rbp), %eax
	movl	%eax, -12(%rbp)
	movq	img, %rax
	cmpl	$1, 71984(%rax)
	je	.LBB22_67
# %bb.66:                               # %if.then203
	movq	img, %rax
	movl	71988(%rax), %eax
	cltd
	movl	$2, %ecx
	idivl	%ecx
	movq	-24(%rbp), %rdx
	movabsq	$.L.str.21, %rdi
	movl	%eax, %esi
	callq	se_v
	addl	-12(%rbp), %eax
	movl	%eax, -12(%rbp)
	movq	img, %rax
	movl	71992(%rax), %eax
	cltd
	movl	$2, %ecx
	idivl	%ecx
	movq	-24(%rbp), %rdx
	movabsq	$.L.str.22, %rdi
	movl	%eax, %esi
	callq	se_v
	addl	-12(%rbp), %eax
	movl	%eax, -12(%rbp)
.LBB22_67:                              # %if.end209
	jmp	.LBB22_68
.LBB22_68:                              # %if.end210
	movq	active_pps, %rax
	cmpl	$0, 60(%rax)
	jbe	.LBB22_72
# %bb.69:                               # %land.lhs.true212
	movq	active_pps, %rax
	cmpl	$3, 64(%rax)
	jb	.LBB22_72
# %bb.70:                               # %land.lhs.true214
	movq	active_pps, %rax
	cmpl	$5, 64(%rax)
	ja	.LBB22_72
# %bb.71:                               # %if.then217
	vmovss	.LCPI22_1(%rip), %xmm0  # xmm0 = mem[0],zero,zero,zero
	movq	img(%rip), %rax
	movl	72468(%rax), %ecx
	movl	72472(%rax), %eax
	imull	%ecx, %eax
	vcvtsi2ss	%rax, %xmm0, %xmm1
	movq	active_pps(%rip), %rax
	movl	168(%rax), %eax
	addl	$1, %eax
	vcvtsi2ss	%rax, %xmm0, %xmm2
	vdivss	%xmm2, %xmm1, %xmm1
	vaddss	%xmm0, %xmm1, %xmm0
	vmovss	%xmm0, -48(%rbp)
	vmovss	-48(%rbp), %xmm0        # xmm0 = mem[0],zero,zero,zero
	vcvtss2sd	%xmm0, %xmm0, %xmm0
	callq	log
	vmovsd	%xmm0, -64(%rbp)        # 8-byte Spill
	vmovsd	.LCPI22_0(%rip), %xmm0  # xmm0 = mem[0],zero
	callq	log
	vmovsd	-64(%rbp), %xmm1        # 8-byte Reload
                                        # xmm1 = mem[0],zero
	vdivsd	%xmm0, %xmm1, %xmm0
	vroundsd	$10, %xmm0, %xmm0, %xmm0
	vcvttsd2si	%xmm0, %eax
	movl	%eax, -40(%rbp)
	movl	-40(%rbp), %edi
	movq	img, %rax
	movl	72652(%rax), %edx
	movq	-24(%rbp), %rcx
	movabsq	$.L.str.23, %rsi
	callq	u_v
	addl	-12(%rbp), %eax
	movl	%eax, -12(%rbp)
.LBB22_72:                              # %if.end229
	movq	input, %rax
	cmpl	$0, 2364(%rax)
	je	.LBB22_75
# %bb.73:                               # %land.lhs.true232
	movq	img, %rax
	movq	14152(%rax), %rax
	cmpl	$0, 4(%rax)
	jne	.LBB22_75
# %bb.74:                               # %if.then236
	movq	img, %rax
	movl	20(%rax), %esi
	movq	-24(%rbp), %rdx
	movabsq	$.L.str.24, %rdi
	callq	ue_v
	addl	-12(%rbp), %eax
	movl	%eax, -12(%rbp)
.LBB22_75:                              # %if.end239
	movl	-12(%rbp), %ebx
	cmpl	$443501399, -52(%rbp)   # imm = 0x1A6F4B57
	jne	.LBB22_77
.LBB22_76:
	movl	%ebx, %eax
	addq	$72, %rsp
	popq	%rbx
	popq	%rbp
	.cfi_def_cfa %rsp, 8
	retq
.LBB22_77:                              # %func_exit
	.cfi_def_cfa %rbp, 16
	callq	detect_breach
	jmp	.LBB22_76
.Lfunc_end22:
	.size	SliceHeader.17, .Lfunc_end22-SliceHeader.17
	.cfi_endproc
                                        # -- End function
	.p2align	4, 0x90         # -- Begin function pred_weight_table.18
	.type	pred_weight_table.18,@function
pred_weight_table.18:                   # @pred_weight_table.18
	.cfi_startproc
# %bb.0:                                # %entry
	pushq	%rbp
	.cfi_def_cfa_offset 16
	.cfi_offset %rbp, -16
	movq	%rsp, %rbp
	.cfi_def_cfa_register %rbp
	pushq	%rbx
	subq	$40, %rsp
	.cfi_offset %rbx, -24
	movl	$114029163, -40(%rbp)   # imm = 0x6CBF26B
	movq	input, %rax
	movslq	2364(%rax), %rax
	movq	assignSE2partition(,%rax,8), %rax
	movl	(%rax), %eax
	movl	%eax, -36(%rbp)
	movq	img, %rax
	movq	14160(%rax), %rax
	movq	24(%rax), %rax
	movslq	-36(%rbp), %rcx
	imulq	$120, %rcx, %rcx
	addq	%rcx, %rax
	movq	%rax, -32(%rbp)
	movl	$0, -12(%rbp)
	movl	luma_log_weight_denom, %esi
	movq	-32(%rbp), %rdx
	movabsq	$.L.str.42, %rdi
	callq	ue_v
	addl	-12(%rbp), %eax
	movl	%eax, -12(%rbp)
	movl	chroma_log_weight_denom, %esi
	movq	-32(%rbp), %rdx
	movabsq	$.L.str.43, %rdi
	callq	ue_v
	addl	-12(%rbp), %eax
	movl	%eax, -12(%rbp)
	movl	$0, -16(%rbp)
.LBB23_1:                               # %for.cond
                                        # =>This Loop Header: Depth=1
                                        #     Child Loop BB23_11 Depth 2
	movl	-16(%rbp), %eax
	movq	img, %rcx
	cmpl	72000(%rcx), %eax
	jge	.LBB23_18
# %bb.2:                                # %for.body
                                        #   in Loop: Header=BB23_1 Depth=1
	movq	wp_weight, %rax
	movq	(%rax), %rax
	movslq	-16(%rbp), %rcx
	movq	(%rax,%rcx,8), %rax
	movl	(%rax), %eax
	movl	luma_log_weight_denom, %ecx
                                        # kill: def $cl killed $ecx
	movl	$1, %edx
	shll	%cl, %edx
	cmpl	%edx, %eax
	jne	.LBB23_4
# %bb.3:                                # %lor.lhs.false
                                        #   in Loop: Header=BB23_1 Depth=1
	movq	wp_offset, %rax
	movq	(%rax), %rax
	movslq	-16(%rbp), %rcx
	movq	(%rax,%rcx,8), %rax
	cmpl	$0, (%rax)
	je	.LBB23_5
.LBB23_4:                               # %if.then
                                        #   in Loop: Header=BB23_1 Depth=1
	movq	-32(%rbp), %rdx
	movabsq	$.L.str.44, %rdi
	movl	$1, %esi
	callq	u_1
	addl	-12(%rbp), %eax
	movl	%eax, -12(%rbp)
	movq	wp_weight, %rax
	movq	(%rax), %rax
	movslq	-16(%rbp), %rcx
	movq	(%rax,%rcx,8), %rax
	movl	(%rax), %esi
	movq	-32(%rbp), %rdx
	movabsq	$.L.str.45, %rdi
	callq	se_v
	addl	-12(%rbp), %eax
	movl	%eax, -12(%rbp)
	movq	wp_offset, %rax
	movq	(%rax), %rax
	movslq	-16(%rbp), %rcx
	movq	(%rax,%rcx,8), %rax
	movl	(%rax), %esi
	movq	-32(%rbp), %rdx
	movabsq	$.L.str.46, %rdi
	callq	se_v
	addl	-12(%rbp), %eax
	movl	%eax, -12(%rbp)
	jmp	.LBB23_6
.LBB23_5:                               # %if.else
                                        #   in Loop: Header=BB23_1 Depth=1
	movq	-32(%rbp), %rdx
	movabsq	$.L.str.44, %rdi
	xorl	%esi, %esi
	callq	u_1
	addl	-12(%rbp), %eax
	movl	%eax, -12(%rbp)
.LBB23_6:                               # %if.end
                                        #   in Loop: Header=BB23_1 Depth=1
	movq	wp_weight, %rax
	movq	(%rax), %rax
	movslq	-16(%rbp), %rcx
	movq	(%rax,%rcx,8), %rax
	movl	4(%rax), %eax
	movl	chroma_log_weight_denom, %ecx
                                        # kill: def $cl killed $ecx
	movl	$1, %edx
	shll	%cl, %edx
	cmpl	%edx, %eax
	jne	.LBB23_10
# %bb.7:                                # %lor.lhs.false38
                                        #   in Loop: Header=BB23_1 Depth=1
	movq	wp_offset, %rax
	movq	(%rax), %rax
	movslq	-16(%rbp), %rcx
	movq	(%rax,%rcx,8), %rax
	cmpl	$0, 4(%rax)
	jne	.LBB23_10
# %bb.8:                                # %lor.lhs.false44
                                        #   in Loop: Header=BB23_1 Depth=1
	movq	wp_weight, %rax
	movq	(%rax), %rax
	movslq	-16(%rbp), %rcx
	movq	(%rax,%rcx,8), %rax
	movl	8(%rax), %eax
	movl	chroma_log_weight_denom, %ecx
                                        # kill: def $cl killed $ecx
	movl	$1, %edx
	shll	%cl, %edx
	cmpl	%edx, %eax
	jne	.LBB23_10
# %bb.9:                                # %lor.lhs.false51
                                        #   in Loop: Header=BB23_1 Depth=1
	movq	wp_offset, %rax
	movq	(%rax), %rax
	movslq	-16(%rbp), %rcx
	movq	(%rax,%rcx,8), %rax
	cmpl	$0, 8(%rax)
	je	.LBB23_15
.LBB23_10:                              # %if.then57
                                        #   in Loop: Header=BB23_1 Depth=1
	movq	-32(%rbp), %rdx
	movabsq	$.L.str.47, %rdi
	movl	$1, %esi
	callq	u_1
	addl	-12(%rbp), %eax
	movl	%eax, -12(%rbp)
	movl	$1, -20(%rbp)
.LBB23_11:                              # %for.cond60
                                        #   Parent Loop BB23_1 Depth=1
                                        # =>  This Inner Loop Header: Depth=2
	cmpl	$3, -20(%rbp)
	jge	.LBB23_14
# %bb.12:                               # %for.body62
                                        #   in Loop: Header=BB23_11 Depth=2
	movq	wp_weight, %rax
	movq	(%rax), %rax
	movslq	-16(%rbp), %rcx
	movq	(%rax,%rcx,8), %rax
	movslq	-20(%rbp), %rcx
	movl	(%rax,%rcx,4), %esi
	movq	-32(%rbp), %rdx
	movabsq	$.L.str.48, %rdi
	callq	se_v
	addl	-12(%rbp), %eax
	movl	%eax, -12(%rbp)
	movq	wp_offset, %rax
	movq	(%rax), %rax
	movslq	-16(%rbp), %rcx
	movq	(%rax,%rcx,8), %rax
	movslq	-20(%rbp), %rcx
	movl	(%rax,%rcx,4), %esi
	movq	-32(%rbp), %rdx
	movabsq	$.L.str.49, %rdi
	callq	se_v
	addl	-12(%rbp), %eax
	movl	%eax, -12(%rbp)
# %bb.13:                               # %for.inc
                                        #   in Loop: Header=BB23_11 Depth=2
	movl	-20(%rbp), %eax
	addl	$1, %eax
	movl	%eax, -20(%rbp)
	jmp	.LBB23_11
.LBB23_14:                              # %for.end
                                        #   in Loop: Header=BB23_1 Depth=1
	jmp	.LBB23_16
.LBB23_15:                              # %if.else77
                                        #   in Loop: Header=BB23_1 Depth=1
	movq	-32(%rbp), %rdx
	movabsq	$.L.str.47, %rdi
	xorl	%esi, %esi
	callq	u_1
	addl	-12(%rbp), %eax
	movl	%eax, -12(%rbp)
.LBB23_16:                              # %if.end80
                                        #   in Loop: Header=BB23_1 Depth=1
	jmp	.LBB23_17
.LBB23_17:                              # %for.inc81
                                        #   in Loop: Header=BB23_1 Depth=1
	movl	-16(%rbp), %eax
	addl	$1, %eax
	movl	%eax, -16(%rbp)
	jmp	.LBB23_1
.LBB23_18:                              # %for.end83
	movq	img, %rax
	cmpl	$1, 24(%rax)
	jne	.LBB23_38
# %bb.19:                               # %if.then85
	movl	$0, -16(%rbp)
.LBB23_20:                              # %for.cond86
                                        # =>This Loop Header: Depth=1
                                        #     Child Loop BB23_30 Depth 2
	movl	-16(%rbp), %eax
	movq	img, %rcx
	cmpl	72004(%rcx), %eax
	jge	.LBB23_37
# %bb.21:                               # %for.body88
                                        #   in Loop: Header=BB23_20 Depth=1
	movq	wp_weight, %rax
	movq	8(%rax), %rax
	movslq	-16(%rbp), %rcx
	movq	(%rax,%rcx,8), %rax
	movl	(%rax), %eax
	movl	luma_log_weight_denom, %ecx
                                        # kill: def $cl killed $ecx
	movl	$1, %edx
	shll	%cl, %edx
	cmpl	%edx, %eax
	jne	.LBB23_23
# %bb.22:                               # %lor.lhs.false95
                                        #   in Loop: Header=BB23_20 Depth=1
	movq	wp_offset, %rax
	movq	8(%rax), %rax
	movslq	-16(%rbp), %rcx
	movq	(%rax,%rcx,8), %rax
	cmpl	$0, (%rax)
	je	.LBB23_24
.LBB23_23:                              # %if.then101
                                        #   in Loop: Header=BB23_20 Depth=1
	movq	-32(%rbp), %rdx
	movabsq	$.L.str.50, %rdi
	movl	$1, %esi
	callq	u_1
	addl	-12(%rbp), %eax
	movl	%eax, -12(%rbp)
	movq	wp_weight, %rax
	movq	8(%rax), %rax
	movslq	-16(%rbp), %rcx
	movq	(%rax,%rcx,8), %rax
	movl	(%rax), %esi
	movq	-32(%rbp), %rdx
	movabsq	$.L.str.51, %rdi
	callq	se_v
	addl	-12(%rbp), %eax
	movl	%eax, -12(%rbp)
	movq	wp_offset, %rax
	movq	8(%rax), %rax
	movslq	-16(%rbp), %rcx
	movq	(%rax,%rcx,8), %rax
	movl	(%rax), %esi
	movq	-32(%rbp), %rdx
	movabsq	$.L.str.52, %rdi
	callq	se_v
	addl	-12(%rbp), %eax
	movl	%eax, -12(%rbp)
	jmp	.LBB23_25
.LBB23_24:                              # %if.else116
                                        #   in Loop: Header=BB23_20 Depth=1
	movq	-32(%rbp), %rdx
	movabsq	$.L.str.50, %rdi
	xorl	%esi, %esi
	callq	u_1
	addl	-12(%rbp), %eax
	movl	%eax, -12(%rbp)
.LBB23_25:                              # %if.end119
                                        #   in Loop: Header=BB23_20 Depth=1
	movq	wp_weight, %rax
	movq	8(%rax), %rax
	movslq	-16(%rbp), %rcx
	movq	(%rax,%rcx,8), %rax
	movl	4(%rax), %eax
	movl	chroma_log_weight_denom, %ecx
                                        # kill: def $cl killed $ecx
	movl	$1, %edx
	shll	%cl, %edx
	cmpl	%edx, %eax
	jne	.LBB23_29
# %bb.26:                               # %lor.lhs.false126
                                        #   in Loop: Header=BB23_20 Depth=1
	movq	wp_offset, %rax
	movq	8(%rax), %rax
	movslq	-16(%rbp), %rcx
	movq	(%rax,%rcx,8), %rax
	cmpl	$0, 4(%rax)
	jne	.LBB23_29
# %bb.27:                               # %lor.lhs.false132
                                        #   in Loop: Header=BB23_20 Depth=1
	movq	wp_weight, %rax
	movq	8(%rax), %rax
	movslq	-16(%rbp), %rcx
	movq	(%rax,%rcx,8), %rax
	movl	8(%rax), %eax
	movl	chroma_log_weight_denom, %ecx
                                        # kill: def $cl killed $ecx
	movl	$1, %edx
	shll	%cl, %edx
	cmpl	%edx, %eax
	jne	.LBB23_29
# %bb.28:                               # %lor.lhs.false139
                                        #   in Loop: Header=BB23_20 Depth=1
	movq	wp_offset, %rax
	movq	8(%rax), %rax
	movslq	-16(%rbp), %rcx
	movq	(%rax,%rcx,8), %rax
	cmpl	$0, 8(%rax)
	je	.LBB23_34
.LBB23_29:                              # %if.then145
                                        #   in Loop: Header=BB23_20 Depth=1
	movq	-32(%rbp), %rdx
	movabsq	$.L.str.53, %rdi
	movl	$1, %esi
	callq	u_1
	addl	-12(%rbp), %eax
	movl	%eax, -12(%rbp)
	movl	$1, -20(%rbp)
.LBB23_30:                              # %for.cond148
                                        #   Parent Loop BB23_20 Depth=1
                                        # =>  This Inner Loop Header: Depth=2
	cmpl	$3, -20(%rbp)
	jge	.LBB23_33
# %bb.31:                               # %for.body150
                                        #   in Loop: Header=BB23_30 Depth=2
	movq	wp_weight, %rax
	movq	8(%rax), %rax
	movslq	-16(%rbp), %rcx
	movq	(%rax,%rcx,8), %rax
	movslq	-20(%rbp), %rcx
	movl	(%rax,%rcx,4), %esi
	movq	-32(%rbp), %rdx
	movabsq	$.L.str.54, %rdi
	callq	se_v
	addl	-12(%rbp), %eax
	movl	%eax, -12(%rbp)
	movq	wp_offset, %rax
	movq	8(%rax), %rax
	movslq	-16(%rbp), %rcx
	movq	(%rax,%rcx,8), %rax
	movslq	-20(%rbp), %rcx
	movl	(%rax,%rcx,4), %esi
	movq	-32(%rbp), %rdx
	movabsq	$.L.str.55, %rdi
	callq	se_v
	addl	-12(%rbp), %eax
	movl	%eax, -12(%rbp)
# %bb.32:                               # %for.inc165
                                        #   in Loop: Header=BB23_30 Depth=2
	movl	-20(%rbp), %eax
	addl	$1, %eax
	movl	%eax, -20(%rbp)
	jmp	.LBB23_30
.LBB23_33:                              # %for.end167
                                        #   in Loop: Header=BB23_20 Depth=1
	jmp	.LBB23_35
.LBB23_34:                              # %if.else168
                                        #   in Loop: Header=BB23_20 Depth=1
	movq	-32(%rbp), %rdx
	movabsq	$.L.str.53, %rdi
	xorl	%esi, %esi
	callq	u_1
	addl	-12(%rbp), %eax
	movl	%eax, -12(%rbp)
.LBB23_35:                              # %if.end171
                                        #   in Loop: Header=BB23_20 Depth=1
	jmp	.LBB23_36
.LBB23_36:                              # %for.inc172
                                        #   in Loop: Header=BB23_20 Depth=1
	movl	-16(%rbp), %eax
	addl	$1, %eax
	movl	%eax, -16(%rbp)
	jmp	.LBB23_20
.LBB23_37:                              # %for.end174
	jmp	.LBB23_38
.LBB23_38:                              # %if.end175
	movl	-12(%rbp), %ebx
	cmpl	$114029163, -40(%rbp)   # imm = 0x6CBF26B
	jne	.LBB23_40
.LBB23_39:
	movl	%ebx, %eax
	addq	$40, %rsp
	popq	%rbx
	popq	%rbp
	.cfi_def_cfa %rsp, 8
	retq
.LBB23_40:                              # %func_exit
	.cfi_def_cfa %rbp, 16
	callq	detect_breach
	jmp	.LBB23_39
.Lfunc_end23:
	.size	pred_weight_table.18, .Lfunc_end23-pred_weight_table.18
	.cfi_endproc
                                        # -- End function
	.section	.rodata.cst8,"aM",@progbits,8
	.p2align	3               # -- Begin function SliceHeader.19
.LCPI24_0:
	.quad	4611686018427387904     # double 2
	.section	.rodata.cst4,"aM",@progbits,4
	.p2align	2
.LCPI24_1:
	.long	1065353216              # float 1
	.text
	.globl	SliceHeader.19
	.p2align	4, 0x90
	.type	SliceHeader.19,@function
SliceHeader.19:                         # @SliceHeader.19
	.cfi_startproc
# %bb.0:                                # %entry
	pushq	%rbp
	.cfi_def_cfa_offset 16
	.cfi_offset %rbp, -16
	movq	%rsp, %rbp
	.cfi_def_cfa_register %rbp
	pushq	%rbx
	subq	$72, %rsp
	.cfi_offset %rbx, -24
	movl	$582505173, -52(%rbp)   # imm = 0x22B852D5
	movq	input, %rax
	movslq	2364(%rax), %rax
	movq	assignSE2partition(,%rax,8), %rax
	movl	(%rax), %eax
	movl	%eax, -44(%rbp)
	movq	img, %rax
	movq	14160(%rax), %rax
	movq	24(%rax), %rax
	movslq	-44(%rbp), %rcx
	imulq	$120, %rcx, %rcx
	addq	%rcx, %rax
	movq	%rax, -24(%rbp)
	movq	img, %rax
	movq	14160(%rax), %rax
	movq	%rax, -72(%rbp)
	movl	$0, -12(%rbp)
	movl	$0, -28(%rbp)
	movl	$0, -36(%rbp)
	movq	img, %rax
	cmpl	$0, 72400(%rax)
	je	.LBB24_2
# %bb.1:                                # %if.then
	movq	img, %rax
	movl	12(%rax), %esi
	sarl	$1, %esi
	movq	-24(%rbp), %rdx
	movabsq	$.L.str, %rdi
	callq	ue_v
	movl	%eax, -12(%rbp)
	jmp	.LBB24_3
.LBB24_2:                               # %if.else
	movq	img, %rax
	movl	12(%rax), %esi
	movq	-24(%rbp), %rdx
	movabsq	$.L.str, %rdi
	callq	ue_v
	movl	%eax, -12(%rbp)
.LBB24_3:                               # %if.end
	callq	get_picture_type
	movq	-24(%rbp), %rdx
	movabsq	$.L.str.1, %rdi
	movl	%eax, %esi
	callq	ue_v
	addl	-12(%rbp), %eax
	movl	%eax, -12(%rbp)
	movq	active_pps, %rax
	movl	4(%rax), %esi
	movq	-24(%rbp), %rdx
	movabsq	$.L.str.2, %rdi
	callq	ue_v
	addl	-12(%rbp), %eax
	movl	%eax, -12(%rbp)
	movl	log2_max_frame_num_minus4, %edi
	addl	$4, %edi
	movq	img, %rax
	movl	72464(%rax), %edx
	movq	-24(%rbp), %rcx
	movabsq	$.L.str.3, %rsi
	callq	u_v
	addl	-12(%rbp), %eax
	movl	%eax, -12(%rbp)
	movq	active_sps, %rax
	cmpl	$0, 1148(%rax)
	jne	.LBB24_9
# %bb.4:                                # %if.then15
	movq	img, %rax
	cmpl	$1, 28(%rax)
	movb	$1, %al
	je	.LBB24_6
# %bb.5:                                # %lor.rhs
	movq	img, %rax
	cmpl	$2, 28(%rax)
	sete	%al
.LBB24_6:                               # %lor.end
	xorl	%ecx, %ecx
	testb	$1, %al
	movl	$1, %eax
	cmovnel	%eax, %ecx
	movl	%ecx, -28(%rbp)
	movl	-28(%rbp), %esi
	movq	-24(%rbp), %rdx
	movabsq	$.L.str.4, %rdi
	callq	u_1
	addl	-12(%rbp), %eax
	movl	%eax, -12(%rbp)
	cmpl	$0, -28(%rbp)
	je	.LBB24_8
# %bb.7:                                # %if.then21
	xorl	%eax, %eax
	movq	img, %rcx
	movl	28(%rcx), %ecx
	cmpl	$2, %ecx
	movl	$1, %ecx
	cmovel	%ecx, %eax
	movl	%eax, -36(%rbp)
	movl	-36(%rbp), %esi
	movq	-24(%rbp), %rdx
	movabsq	$.L.str.5, %rdi
	callq	u_1
	addl	-12(%rbp), %eax
	movl	%eax, -12(%rbp)
.LBB24_8:                               # %if.end27
	jmp	.LBB24_9
.LBB24_9:                               # %if.end28
	movq	img, %rax
	movq	14152(%rax), %rax
	cmpl	$0, 4(%rax)
	je	.LBB24_11
# %bb.10:                               # %if.then30
	movq	img, %rax
	movl	(%rax), %eax
	cltd
	movl	$2, %ecx
	idivl	%ecx
	movq	-24(%rbp), %rax
	movabsq	$.L.str.6, %rdi
	movl	%edx, %esi
	movq	%rax, %rdx
	callq	ue_v
	addl	-12(%rbp), %eax
	movl	%eax, -12(%rbp)
.LBB24_11:                              # %if.end33
	movq	img, %rax
	cmpl	$0, 72404(%rax)
	jne	.LBB24_25
# %bb.12:                               # %if.then35
	movq	active_sps, %rax
	cmpl	$0, 1148(%rax)
	je	.LBB24_14
# %bb.13:                               # %if.then38
	movq	img, %rax
	movl	72448(%rax), %eax
	movl	log2_max_pic_order_cnt_lsb_minus4, %ecx
	addl	$4, %ecx
                                        # kill: def $cl killed $ecx
	movl	$4294967295, %edx       # imm = 0xFFFFFFFF
	shll	%cl, %edx
	xorl	$-1, %edx
	andl	%edx, %eax
	movq	img, %rcx
	movl	%eax, 72428(%rcx)
	jmp	.LBB24_21
.LBB24_14:                              # %if.else40
	cmpl	$0, -28(%rbp)
	je	.LBB24_16
# %bb.15:                               # %lor.lhs.false
	movq	img, %rax
	cmpl	$1, 28(%rax)
	jne	.LBB24_17
.LBB24_16:                              # %if.then44
	movq	img, %rax
	movl	72448(%rax), %eax
	movl	log2_max_pic_order_cnt_lsb_minus4, %ecx
	addl	$4, %ecx
                                        # kill: def $cl killed $ecx
	movl	$4294967295, %edx       # imm = 0xFFFFFFFF
	shll	%cl, %edx
	xorl	$-1, %edx
	andl	%edx, %eax
	movq	img, %rcx
	movl	%eax, 72428(%rcx)
	jmp	.LBB24_20
.LBB24_17:                              # %if.else51
	movq	img, %rax
	cmpl	$2, 28(%rax)
	jne	.LBB24_19
# %bb.18:                               # %if.then54
	movq	img, %rax
	movl	72452(%rax), %eax
	movl	log2_max_pic_order_cnt_lsb_minus4, %ecx
	addl	$4, %ecx
                                        # kill: def $cl killed $ecx
	movl	$4294967295, %edx       # imm = 0xFFFFFFFF
	shll	%cl, %edx
	xorl	$-1, %edx
	andl	%edx, %eax
	movq	img, %rcx
	movl	%eax, 72428(%rcx)
.LBB24_19:                              # %if.end60
	jmp	.LBB24_20
.LBB24_20:                              # %if.end61
	jmp	.LBB24_21
.LBB24_21:                              # %if.end62
	movl	log2_max_pic_order_cnt_lsb_minus4, %edi
	addl	$4, %edi
	movq	img, %rax
	movl	72428(%rax), %edx
	movq	-24(%rbp), %rcx
	movabsq	$.L.str.7, %rsi
	callq	u_v
	addl	-12(%rbp), %eax
	movl	%eax, -12(%rbp)
	movq	img, %rax
	cmpl	$0, 72492(%rax)
	je	.LBB24_24
# %bb.22:                               # %land.lhs.true
	cmpl	$0, -28(%rbp)
	jne	.LBB24_24
# %bb.23:                               # %if.then69
	movq	img, %rax
	movl	72432(%rax), %esi
	movq	-24(%rbp), %rdx
	movabsq	$.L.str.8, %rdi
	callq	se_v
	addl	-12(%rbp), %eax
	movl	%eax, -12(%rbp)
.LBB24_24:                              # %if.end72
	jmp	.LBB24_25
.LBB24_25:                              # %if.end73
	movq	img, %rax
	cmpl	$1, 72404(%rax)
	jne	.LBB24_31
# %bb.26:                               # %land.lhs.true76
	movq	img, %rax
	cmpl	$0, 72408(%rax)
	jne	.LBB24_31
# %bb.27:                               # %if.then78
	movq	img, %rax
	movl	72436(%rax), %esi
	movq	-24(%rbp), %rdx
	movabsq	$.L.str.9, %rdi
	callq	se_v
	addl	-12(%rbp), %eax
	movl	%eax, -12(%rbp)
	movq	img, %rax
	cmpl	$0, 72492(%rax)
	je	.LBB24_30
# %bb.28:                               # %land.lhs.true84
	cmpl	$0, -28(%rbp)
	jne	.LBB24_30
# %bb.29:                               # %if.then86
	movq	img, %rax
	movl	72440(%rax), %esi
	movq	-24(%rbp), %rdx
	movabsq	$.L.str.10, %rdi
	callq	se_v
	addl	-12(%rbp), %eax
	movl	%eax, -12(%rbp)
.LBB24_30:                              # %if.end91
	jmp	.LBB24_31
.LBB24_31:                              # %if.end92
	movq	input, %rax
	cmpl	$0, 3204(%rax)
	je	.LBB24_33
# %bb.32:                               # %if.then94
	movq	img, %rax
	movl	72396(%rax), %esi
	movq	-24(%rbp), %rdx
	movabsq	$.L.str.11, %rdi
	callq	ue_v
	addl	-12(%rbp), %eax
	movl	%eax, -12(%rbp)
.LBB24_33:                              # %if.end97
	movq	img, %rax
	cmpl	$1, 24(%rax)
	jne	.LBB24_35
# %bb.34:                               # %if.then99
	movq	img, %rax
	movl	71996(%rax), %esi
	movq	-24(%rbp), %rdx
	movabsq	$.L.str.12, %rdi
	callq	u_1
	addl	-12(%rbp), %eax
	movl	%eax, -12(%rbp)
.LBB24_35:                              # %if.end102
	movq	img, %rax
	cmpl	$0, 24(%rax)
	je	.LBB24_38
# %bb.36:                               # %lor.lhs.false105
	movq	img, %rax
	cmpl	$1, 24(%rax)
	je	.LBB24_38
# %bb.37:                               # %lor.lhs.false108
	movq	img, %rax
	cmpl	$3, 24(%rax)
	jne	.LBB24_49
.LBB24_38:                              # %if.then111
	movq	img, %rax
	cmpl	$0, 24(%rax)
	je	.LBB24_40
# %bb.39:                               # %lor.lhs.false114
	movq	img, %rax
	cmpl	$3, 24(%rax)
	jne	.LBB24_41
.LBB24_40:                              # %if.then117
	xorl	%eax, %eax
	movq	img, %rcx
	movl	72000(%rcx), %ecx
	movq	active_pps, %rdx
	movl	184(%rdx), %edx
	addl	$1, %edx
	cmpl	%edx, %ecx
	movl	$1, %ecx
	cmovnel	%ecx, %eax
	movl	%eax, -32(%rbp)
	jmp	.LBB24_44
.LBB24_41:                              # %if.else121
	movq	img, %rax
	movl	72000(%rax), %eax
	movq	active_pps, %rcx
	movl	184(%rcx), %ecx
	addl	$1, %ecx
	cmpl	%ecx, %eax
	movb	$1, %al
	jne	.LBB24_43
# %bb.42:                               # %lor.rhs126
	movq	img, %rax
	movl	72004(%rax), %eax
	movq	active_pps, %rcx
	movl	188(%rcx), %ecx
	addl	$1, %ecx
	cmpl	%ecx, %eax
	setne	%al
.LBB24_43:                              # %lor.end129
	xorl	%ecx, %ecx
	testb	$1, %al
	movl	$1, %eax
	cmovnel	%eax, %ecx
	movl	%ecx, -32(%rbp)
.LBB24_44:                              # %if.end131
	movl	-32(%rbp), %esi
	movq	-24(%rbp), %rdx
	movabsq	$.L.str.13, %rdi
	callq	u_1
	addl	-12(%rbp), %eax
	movl	%eax, -12(%rbp)
	cmpl	$0, -32(%rbp)
	je	.LBB24_48
# %bb.45:                               # %if.then135
	movq	img, %rax
	movl	72000(%rax), %esi
	subl	$1, %esi
	movq	-24(%rbp), %rdx
	movabsq	$.L.str.14, %rdi
	callq	ue_v
	addl	-12(%rbp), %eax
	movl	%eax, -12(%rbp)
	movq	img, %rax
	cmpl	$1, 24(%rax)
	jne	.LBB24_47
# %bb.46:                               # %if.then141
	movq	img, %rax
	movl	72004(%rax), %esi
	subl	$1, %esi
	movq	-24(%rbp), %rdx
	movabsq	$.L.str.15, %rdi
	callq	ue_v
	addl	-12(%rbp), %eax
	movl	%eax, -12(%rbp)
.LBB24_47:                              # %if.end146
	jmp	.LBB24_48
.LBB24_48:                              # %if.end147
	jmp	.LBB24_49
.LBB24_49:                              # %if.end148
	callq	ref_pic_list_reordering
	addl	-12(%rbp), %eax
	movl	%eax, -12(%rbp)
	movq	img, %rax
	cmpl	$0, 24(%rax)
	je	.LBB24_51
# %bb.50:                               # %lor.lhs.false153
	movq	img, %rax
	cmpl	$3, 24(%rax)
	jne	.LBB24_52
.LBB24_51:                              # %land.lhs.true156
	movq	active_pps, %rax
	cmpl	$0, 192(%rax)
	jne	.LBB24_54
.LBB24_52:                              # %lor.lhs.false158
	movq	img, %rax
	cmpl	$1, 24(%rax)
	jne	.LBB24_55
# %bb.53:                               # %land.lhs.true161
	movq	active_pps, %rax
	cmpl	$1, 196(%rax)
	jne	.LBB24_55
.LBB24_54:                              # %if.then163
	callq	pred_weight_table
	addl	-12(%rbp), %eax
	movl	%eax, -12(%rbp)
.LBB24_55:                              # %if.end166
	movq	img, %rax
	cmpl	$0, 72496(%rax)
	je	.LBB24_57
# %bb.56:                               # %if.then168
	callq	dec_ref_pic_marking
	addl	-12(%rbp), %eax
	movl	%eax, -12(%rbp)
.LBB24_57:                              # %if.end171
	movq	input, %rax
	cmpl	$1, 2356(%rax)
	jne	.LBB24_60
# %bb.58:                               # %land.lhs.true173
	movq	img, %rax
	cmpl	$2, 24(%rax)
	je	.LBB24_60
# %bb.59:                               # %if.then176
	movq	img, %rax
	movl	72520(%rax), %esi
	movq	-24(%rbp), %rdx
	movabsq	$.L.str.16, %rdi
	callq	ue_v
	addl	-12(%rbp), %eax
	movl	%eax, -12(%rbp)
.LBB24_60:                              # %if.end179
	movq	-72(%rbp), %rax
	movl	4(%rax), %esi
	subl	$26, %esi
	movq	active_pps, %rax
	subl	200(%rax), %esi
	movq	-24(%rbp), %rdx
	movabsq	$.L.str.17, %rdi
	callq	se_v
	addl	-12(%rbp), %eax
	movl	%eax, -12(%rbp)
	movq	img, %rax
	cmpl	$3, 24(%rax)
	jne	.LBB24_64
# %bb.61:                               # %if.then186
	movq	img, %rax
	cmpl	$3, 24(%rax)
	jne	.LBB24_63
# %bb.62:                               # %if.then189
	movq	-24(%rbp), %rdx
	movabsq	$.L.str.18, %rdi
	xorl	%esi, %esi
	callq	u_1
	addl	-12(%rbp), %eax
	movl	%eax, -12(%rbp)
.LBB24_63:                              # %if.end192
	movq	img, %rax
	movl	44(%rax), %esi
	subl	$26, %esi
	movq	-24(%rbp), %rdx
	movabsq	$.L.str.19, %rdi
	callq	se_v
	addl	-12(%rbp), %eax
	movl	%eax, -12(%rbp)
.LBB24_64:                              # %if.end196
	movq	active_pps, %rax
	cmpl	$0, 220(%rax)
	je	.LBB24_68
# %bb.65:                               # %if.then198
	movq	img, %rax
	movl	71984(%rax), %esi
	movq	-24(%rbp), %rdx
	movabsq	$.L.str.20, %rdi
	callq	ue_v
	addl	-12(%rbp), %eax
	movl	%eax, -12(%rbp)
	movq	img, %rax
	cmpl	$1, 71984(%rax)
	je	.LBB24_67
# %bb.66:                               # %if.then203
	movq	img, %rax
	movl	71988(%rax), %eax
	cltd
	movl	$2, %ecx
	idivl	%ecx
	movq	-24(%rbp), %rdx
	movabsq	$.L.str.21, %rdi
	movl	%eax, %esi
	callq	se_v
	addl	-12(%rbp), %eax
	movl	%eax, -12(%rbp)
	movq	img, %rax
	movl	71992(%rax), %eax
	cltd
	movl	$2, %ecx
	idivl	%ecx
	movq	-24(%rbp), %rdx
	movabsq	$.L.str.22, %rdi
	movl	%eax, %esi
	callq	se_v
	addl	-12(%rbp), %eax
	movl	%eax, -12(%rbp)
.LBB24_67:                              # %if.end209
	jmp	.LBB24_68
.LBB24_68:                              # %if.end210
	movq	active_pps, %rax
	cmpl	$0, 60(%rax)
	jbe	.LBB24_72
# %bb.69:                               # %land.lhs.true212
	movq	active_pps, %rax
	cmpl	$3, 64(%rax)
	jb	.LBB24_72
# %bb.70:                               # %land.lhs.true214
	movq	active_pps, %rax
	cmpl	$5, 64(%rax)
	ja	.LBB24_72
# %bb.71:                               # %if.then217
	vmovss	.LCPI24_1(%rip), %xmm0  # xmm0 = mem[0],zero,zero,zero
	movq	img(%rip), %rax
	movl	72468(%rax), %ecx
	movl	72472(%rax), %eax
	imull	%ecx, %eax
	vcvtsi2ss	%rax, %xmm0, %xmm1
	movq	active_pps(%rip), %rax
	movl	168(%rax), %eax
	addl	$1, %eax
	vcvtsi2ss	%rax, %xmm0, %xmm2
	vdivss	%xmm2, %xmm1, %xmm1
	vaddss	%xmm0, %xmm1, %xmm0
	vmovss	%xmm0, -40(%rbp)
	vmovss	-40(%rbp), %xmm0        # xmm0 = mem[0],zero,zero,zero
	vcvtss2sd	%xmm0, %xmm0, %xmm0
	callq	log
	vmovsd	%xmm0, -64(%rbp)        # 8-byte Spill
	vmovsd	.LCPI24_0(%rip), %xmm0  # xmm0 = mem[0],zero
	callq	log
	vmovsd	-64(%rbp), %xmm1        # 8-byte Reload
                                        # xmm1 = mem[0],zero
	vdivsd	%xmm0, %xmm1, %xmm0
	vroundsd	$10, %xmm0, %xmm0, %xmm0
	vcvttsd2si	%xmm0, %eax
	movl	%eax, -48(%rbp)
	movl	-48(%rbp), %edi
	movq	img, %rax
	movl	72652(%rax), %edx
	movq	-24(%rbp), %rcx
	movabsq	$.L.str.23, %rsi
	callq	u_v
	addl	-12(%rbp), %eax
	movl	%eax, -12(%rbp)
.LBB24_72:                              # %if.end229
	movq	input, %rax
	cmpl	$0, 2364(%rax)
	je	.LBB24_75
# %bb.73:                               # %land.lhs.true232
	movq	img, %rax
	movq	14152(%rax), %rax
	cmpl	$0, 4(%rax)
	jne	.LBB24_75
# %bb.74:                               # %if.then236
	movq	img, %rax
	movl	20(%rax), %esi
	movq	-24(%rbp), %rdx
	movabsq	$.L.str.24, %rdi
	callq	ue_v
	addl	-12(%rbp), %eax
	movl	%eax, -12(%rbp)
.LBB24_75:                              # %if.end239
	movl	-12(%rbp), %ebx
	cmpl	$582505173, -52(%rbp)   # imm = 0x22B852D5
	jne	.LBB24_77
.LBB24_76:
	movl	%ebx, %eax
	addq	$72, %rsp
	popq	%rbx
	popq	%rbp
	.cfi_def_cfa %rsp, 8
	retq
.LBB24_77:                              # %func_exit
	.cfi_def_cfa %rbp, 16
	callq	detect_breach
	jmp	.LBB24_76
.Lfunc_end24:
	.size	SliceHeader.19, .Lfunc_end24-SliceHeader.19
	.cfi_endproc
                                        # -- End function
	.section	.rodata.cst8,"aM",@progbits,8
	.p2align	3               # -- Begin function SliceHeader.20
.LCPI25_0:
	.quad	4611686018427387904     # double 2
	.section	.rodata.cst4,"aM",@progbits,4
	.p2align	2
.LCPI25_1:
	.long	1065353216              # float 1
	.text
	.globl	SliceHeader.20
	.p2align	4, 0x90
	.type	SliceHeader.20,@function
SliceHeader.20:                         # @SliceHeader.20
	.cfi_startproc
# %bb.0:                                # %entry
	pushq	%rbp
	.cfi_def_cfa_offset 16
	.cfi_offset %rbp, -16
	movq	%rsp, %rbp
	.cfi_def_cfa_register %rbp
	pushq	%rbx
	subq	$72, %rsp
	.cfi_offset %rbx, -24
	movl	$2125628443, -48(%rbp)  # imm = 0x7EB2841B
	movq	input, %rax
	movslq	2364(%rax), %rax
	movq	assignSE2partition(,%rax,8), %rax
	movl	(%rax), %eax
	movl	%eax, -44(%rbp)
	movq	img, %rax
	movq	14160(%rax), %rax
	movq	24(%rax), %rax
	movslq	-44(%rbp), %rcx
	imulq	$120, %rcx, %rcx
	addq	%rcx, %rax
	movq	%rax, -24(%rbp)
	movq	img, %rax
	movq	14160(%rax), %rax
	movq	%rax, -72(%rbp)
	movl	$0, -12(%rbp)
	movl	$0, -28(%rbp)
	movl	$0, -36(%rbp)
	movq	img, %rax
	cmpl	$0, 72400(%rax)
	je	.LBB25_2
# %bb.1:                                # %if.then
	movq	img, %rax
	movl	12(%rax), %esi
	sarl	$1, %esi
	movq	-24(%rbp), %rdx
	movabsq	$.L.str, %rdi
	callq	ue_v
	movl	%eax, -12(%rbp)
	jmp	.LBB25_3
.LBB25_2:                               # %if.else
	movq	img, %rax
	movl	12(%rax), %esi
	movq	-24(%rbp), %rdx
	movabsq	$.L.str, %rdi
	callq	ue_v
	movl	%eax, -12(%rbp)
.LBB25_3:                               # %if.end
	callq	get_picture_type
	movq	-24(%rbp), %rdx
	movabsq	$.L.str.1, %rdi
	movl	%eax, %esi
	callq	ue_v
	addl	-12(%rbp), %eax
	movl	%eax, -12(%rbp)
	movq	active_pps, %rax
	movl	4(%rax), %esi
	movq	-24(%rbp), %rdx
	movabsq	$.L.str.2, %rdi
	callq	ue_v
	addl	-12(%rbp), %eax
	movl	%eax, -12(%rbp)
	movl	log2_max_frame_num_minus4, %edi
	addl	$4, %edi
	movq	img, %rax
	movl	72464(%rax), %edx
	movq	-24(%rbp), %rcx
	movabsq	$.L.str.3, %rsi
	callq	u_v
	addl	-12(%rbp), %eax
	movl	%eax, -12(%rbp)
	movq	active_sps, %rax
	cmpl	$0, 1148(%rax)
	jne	.LBB25_9
# %bb.4:                                # %if.then15
	movq	img, %rax
	cmpl	$1, 28(%rax)
	movb	$1, %al
	je	.LBB25_6
# %bb.5:                                # %lor.rhs
	movq	img, %rax
	cmpl	$2, 28(%rax)
	sete	%al
.LBB25_6:                               # %lor.end
	xorl	%ecx, %ecx
	testb	$1, %al
	movl	$1, %eax
	cmovnel	%eax, %ecx
	movl	%ecx, -28(%rbp)
	movl	-28(%rbp), %esi
	movq	-24(%rbp), %rdx
	movabsq	$.L.str.4, %rdi
	callq	u_1
	addl	-12(%rbp), %eax
	movl	%eax, -12(%rbp)
	cmpl	$0, -28(%rbp)
	je	.LBB25_8
# %bb.7:                                # %if.then21
	xorl	%eax, %eax
	movq	img, %rcx
	movl	28(%rcx), %ecx
	cmpl	$2, %ecx
	movl	$1, %ecx
	cmovel	%ecx, %eax
	movl	%eax, -36(%rbp)
	movl	-36(%rbp), %esi
	movq	-24(%rbp), %rdx
	movabsq	$.L.str.5, %rdi
	callq	u_1
	addl	-12(%rbp), %eax
	movl	%eax, -12(%rbp)
.LBB25_8:                               # %if.end27
	jmp	.LBB25_9
.LBB25_9:                               # %if.end28
	movq	img, %rax
	movq	14152(%rax), %rax
	cmpl	$0, 4(%rax)
	je	.LBB25_11
# %bb.10:                               # %if.then30
	movq	img, %rax
	movl	(%rax), %eax
	cltd
	movl	$2, %ecx
	idivl	%ecx
	movq	-24(%rbp), %rax
	movabsq	$.L.str.6, %rdi
	movl	%edx, %esi
	movq	%rax, %rdx
	callq	ue_v
	addl	-12(%rbp), %eax
	movl	%eax, -12(%rbp)
.LBB25_11:                              # %if.end33
	movq	img, %rax
	cmpl	$0, 72404(%rax)
	jne	.LBB25_25
# %bb.12:                               # %if.then35
	movq	active_sps, %rax
	cmpl	$0, 1148(%rax)
	je	.LBB25_14
# %bb.13:                               # %if.then38
	movq	img, %rax
	movl	72448(%rax), %eax
	movl	log2_max_pic_order_cnt_lsb_minus4, %ecx
	addl	$4, %ecx
                                        # kill: def $cl killed $ecx
	movl	$4294967295, %edx       # imm = 0xFFFFFFFF
	shll	%cl, %edx
	xorl	$-1, %edx
	andl	%edx, %eax
	movq	img, %rcx
	movl	%eax, 72428(%rcx)
	jmp	.LBB25_21
.LBB25_14:                              # %if.else40
	cmpl	$0, -28(%rbp)
	je	.LBB25_16
# %bb.15:                               # %lor.lhs.false
	movq	img, %rax
	cmpl	$1, 28(%rax)
	jne	.LBB25_17
.LBB25_16:                              # %if.then44
	movq	img, %rax
	movl	72448(%rax), %eax
	movl	log2_max_pic_order_cnt_lsb_minus4, %ecx
	addl	$4, %ecx
                                        # kill: def $cl killed $ecx
	movl	$4294967295, %edx       # imm = 0xFFFFFFFF
	shll	%cl, %edx
	xorl	$-1, %edx
	andl	%edx, %eax
	movq	img, %rcx
	movl	%eax, 72428(%rcx)
	jmp	.LBB25_20
.LBB25_17:                              # %if.else51
	movq	img, %rax
	cmpl	$2, 28(%rax)
	jne	.LBB25_19
# %bb.18:                               # %if.then54
	movq	img, %rax
	movl	72452(%rax), %eax
	movl	log2_max_pic_order_cnt_lsb_minus4, %ecx
	addl	$4, %ecx
                                        # kill: def $cl killed $ecx
	movl	$4294967295, %edx       # imm = 0xFFFFFFFF
	shll	%cl, %edx
	xorl	$-1, %edx
	andl	%edx, %eax
	movq	img, %rcx
	movl	%eax, 72428(%rcx)
.LBB25_19:                              # %if.end60
	jmp	.LBB25_20
.LBB25_20:                              # %if.end61
	jmp	.LBB25_21
.LBB25_21:                              # %if.end62
	movl	log2_max_pic_order_cnt_lsb_minus4, %edi
	addl	$4, %edi
	movq	img, %rax
	movl	72428(%rax), %edx
	movq	-24(%rbp), %rcx
	movabsq	$.L.str.7, %rsi
	callq	u_v
	addl	-12(%rbp), %eax
	movl	%eax, -12(%rbp)
	movq	img, %rax
	cmpl	$0, 72492(%rax)
	je	.LBB25_24
# %bb.22:                               # %land.lhs.true
	cmpl	$0, -28(%rbp)
	jne	.LBB25_24
# %bb.23:                               # %if.then69
	movq	img, %rax
	movl	72432(%rax), %esi
	movq	-24(%rbp), %rdx
	movabsq	$.L.str.8, %rdi
	callq	se_v
	addl	-12(%rbp), %eax
	movl	%eax, -12(%rbp)
.LBB25_24:                              # %if.end72
	jmp	.LBB25_25
.LBB25_25:                              # %if.end73
	movq	img, %rax
	cmpl	$1, 72404(%rax)
	jne	.LBB25_31
# %bb.26:                               # %land.lhs.true76
	movq	img, %rax
	cmpl	$0, 72408(%rax)
	jne	.LBB25_31
# %bb.27:                               # %if.then78
	movq	img, %rax
	movl	72436(%rax), %esi
	movq	-24(%rbp), %rdx
	movabsq	$.L.str.9, %rdi
	callq	se_v
	addl	-12(%rbp), %eax
	movl	%eax, -12(%rbp)
	movq	img, %rax
	cmpl	$0, 72492(%rax)
	je	.LBB25_30
# %bb.28:                               # %land.lhs.true84
	cmpl	$0, -28(%rbp)
	jne	.LBB25_30
# %bb.29:                               # %if.then86
	movq	img, %rax
	movl	72440(%rax), %esi
	movq	-24(%rbp), %rdx
	movabsq	$.L.str.10, %rdi
	callq	se_v
	addl	-12(%rbp), %eax
	movl	%eax, -12(%rbp)
.LBB25_30:                              # %if.end91
	jmp	.LBB25_31
.LBB25_31:                              # %if.end92
	movq	input, %rax
	cmpl	$0, 3204(%rax)
	je	.LBB25_33
# %bb.32:                               # %if.then94
	movq	img, %rax
	movl	72396(%rax), %esi
	movq	-24(%rbp), %rdx
	movabsq	$.L.str.11, %rdi
	callq	ue_v
	addl	-12(%rbp), %eax
	movl	%eax, -12(%rbp)
.LBB25_33:                              # %if.end97
	movq	img, %rax
	cmpl	$1, 24(%rax)
	jne	.LBB25_35
# %bb.34:                               # %if.then99
	movq	img, %rax
	movl	71996(%rax), %esi
	movq	-24(%rbp), %rdx
	movabsq	$.L.str.12, %rdi
	callq	u_1
	addl	-12(%rbp), %eax
	movl	%eax, -12(%rbp)
.LBB25_35:                              # %if.end102
	movq	img, %rax
	cmpl	$0, 24(%rax)
	je	.LBB25_38
# %bb.36:                               # %lor.lhs.false105
	movq	img, %rax
	cmpl	$1, 24(%rax)
	je	.LBB25_38
# %bb.37:                               # %lor.lhs.false108
	movq	img, %rax
	cmpl	$3, 24(%rax)
	jne	.LBB25_49
.LBB25_38:                              # %if.then111
	movq	img, %rax
	cmpl	$0, 24(%rax)
	je	.LBB25_40
# %bb.39:                               # %lor.lhs.false114
	movq	img, %rax
	cmpl	$3, 24(%rax)
	jne	.LBB25_41
.LBB25_40:                              # %if.then117
	xorl	%eax, %eax
	movq	img, %rcx
	movl	72000(%rcx), %ecx
	movq	active_pps, %rdx
	movl	184(%rdx), %edx
	addl	$1, %edx
	cmpl	%edx, %ecx
	movl	$1, %ecx
	cmovnel	%ecx, %eax
	movl	%eax, -32(%rbp)
	jmp	.LBB25_44
.LBB25_41:                              # %if.else121
	movq	img, %rax
	movl	72000(%rax), %eax
	movq	active_pps, %rcx
	movl	184(%rcx), %ecx
	addl	$1, %ecx
	cmpl	%ecx, %eax
	movb	$1, %al
	jne	.LBB25_43
# %bb.42:                               # %lor.rhs126
	movq	img, %rax
	movl	72004(%rax), %eax
	movq	active_pps, %rcx
	movl	188(%rcx), %ecx
	addl	$1, %ecx
	cmpl	%ecx, %eax
	setne	%al
.LBB25_43:                              # %lor.end129
	xorl	%ecx, %ecx
	testb	$1, %al
	movl	$1, %eax
	cmovnel	%eax, %ecx
	movl	%ecx, -32(%rbp)
.LBB25_44:                              # %if.end131
	movl	-32(%rbp), %esi
	movq	-24(%rbp), %rdx
	movabsq	$.L.str.13, %rdi
	callq	u_1
	addl	-12(%rbp), %eax
	movl	%eax, -12(%rbp)
	cmpl	$0, -32(%rbp)
	je	.LBB25_48
# %bb.45:                               # %if.then135
	movq	img, %rax
	movl	72000(%rax), %esi
	subl	$1, %esi
	movq	-24(%rbp), %rdx
	movabsq	$.L.str.14, %rdi
	callq	ue_v
	addl	-12(%rbp), %eax
	movl	%eax, -12(%rbp)
	movq	img, %rax
	cmpl	$1, 24(%rax)
	jne	.LBB25_47
# %bb.46:                               # %if.then141
	movq	img, %rax
	movl	72004(%rax), %esi
	subl	$1, %esi
	movq	-24(%rbp), %rdx
	movabsq	$.L.str.15, %rdi
	callq	ue_v
	addl	-12(%rbp), %eax
	movl	%eax, -12(%rbp)
.LBB25_47:                              # %if.end146
	jmp	.LBB25_48
.LBB25_48:                              # %if.end147
	jmp	.LBB25_49
.LBB25_49:                              # %if.end148
	callq	ref_pic_list_reordering
	addl	-12(%rbp), %eax
	movl	%eax, -12(%rbp)
	movq	img, %rax
	cmpl	$0, 24(%rax)
	je	.LBB25_51
# %bb.50:                               # %lor.lhs.false153
	movq	img, %rax
	cmpl	$3, 24(%rax)
	jne	.LBB25_52
.LBB25_51:                              # %land.lhs.true156
	movq	active_pps, %rax
	cmpl	$0, 192(%rax)
	jne	.LBB25_54
.LBB25_52:                              # %lor.lhs.false158
	movq	img, %rax
	cmpl	$1, 24(%rax)
	jne	.LBB25_55
# %bb.53:                               # %land.lhs.true161
	movq	active_pps, %rax
	cmpl	$1, 196(%rax)
	jne	.LBB25_55
.LBB25_54:                              # %if.then163
	callq	pred_weight_table
	addl	-12(%rbp), %eax
	movl	%eax, -12(%rbp)
.LBB25_55:                              # %if.end166
	movq	img, %rax
	cmpl	$0, 72496(%rax)
	je	.LBB25_57
# %bb.56:                               # %if.then168
	callq	dec_ref_pic_marking
	addl	-12(%rbp), %eax
	movl	%eax, -12(%rbp)
.LBB25_57:                              # %if.end171
	movq	input, %rax
	cmpl	$1, 2356(%rax)
	jne	.LBB25_60
# %bb.58:                               # %land.lhs.true173
	movq	img, %rax
	cmpl	$2, 24(%rax)
	je	.LBB25_60
# %bb.59:                               # %if.then176
	movq	img, %rax
	movl	72520(%rax), %esi
	movq	-24(%rbp), %rdx
	movabsq	$.L.str.16, %rdi
	callq	ue_v
	addl	-12(%rbp), %eax
	movl	%eax, -12(%rbp)
.LBB25_60:                              # %if.end179
	movq	-72(%rbp), %rax
	movl	4(%rax), %esi
	subl	$26, %esi
	movq	active_pps, %rax
	subl	200(%rax), %esi
	movq	-24(%rbp), %rdx
	movabsq	$.L.str.17, %rdi
	callq	se_v
	addl	-12(%rbp), %eax
	movl	%eax, -12(%rbp)
	movq	img, %rax
	cmpl	$3, 24(%rax)
	jne	.LBB25_64
# %bb.61:                               # %if.then186
	movq	img, %rax
	cmpl	$3, 24(%rax)
	jne	.LBB25_63
# %bb.62:                               # %if.then189
	movq	-24(%rbp), %rdx
	movabsq	$.L.str.18, %rdi
	xorl	%esi, %esi
	callq	u_1
	addl	-12(%rbp), %eax
	movl	%eax, -12(%rbp)
.LBB25_63:                              # %if.end192
	movq	img, %rax
	movl	44(%rax), %esi
	subl	$26, %esi
	movq	-24(%rbp), %rdx
	movabsq	$.L.str.19, %rdi
	callq	se_v
	addl	-12(%rbp), %eax
	movl	%eax, -12(%rbp)
.LBB25_64:                              # %if.end196
	movq	active_pps, %rax
	cmpl	$0, 220(%rax)
	je	.LBB25_68
# %bb.65:                               # %if.then198
	movq	img, %rax
	movl	71984(%rax), %esi
	movq	-24(%rbp), %rdx
	movabsq	$.L.str.20, %rdi
	callq	ue_v
	addl	-12(%rbp), %eax
	movl	%eax, -12(%rbp)
	movq	img, %rax
	cmpl	$1, 71984(%rax)
	je	.LBB25_67
# %bb.66:                               # %if.then203
	movq	img, %rax
	movl	71988(%rax), %eax
	cltd
	movl	$2, %ecx
	idivl	%ecx
	movq	-24(%rbp), %rdx
	movabsq	$.L.str.21, %rdi
	movl	%eax, %esi
	callq	se_v
	addl	-12(%rbp), %eax
	movl	%eax, -12(%rbp)
	movq	img, %rax
	movl	71992(%rax), %eax
	cltd
	movl	$2, %ecx
	idivl	%ecx
	movq	-24(%rbp), %rdx
	movabsq	$.L.str.22, %rdi
	movl	%eax, %esi
	callq	se_v
	addl	-12(%rbp), %eax
	movl	%eax, -12(%rbp)
.LBB25_67:                              # %if.end209
	jmp	.LBB25_68
.LBB25_68:                              # %if.end210
	movq	active_pps, %rax
	cmpl	$0, 60(%rax)
	jbe	.LBB25_72
# %bb.69:                               # %land.lhs.true212
	movq	active_pps, %rax
	cmpl	$3, 64(%rax)
	jb	.LBB25_72
# %bb.70:                               # %land.lhs.true214
	movq	active_pps, %rax
	cmpl	$5, 64(%rax)
	ja	.LBB25_72
# %bb.71:                               # %if.then217
	vmovss	.LCPI25_1(%rip), %xmm0  # xmm0 = mem[0],zero,zero,zero
	movq	img(%rip), %rax
	movl	72468(%rax), %ecx
	movl	72472(%rax), %eax
	imull	%ecx, %eax
	vcvtsi2ss	%rax, %xmm0, %xmm1
	movq	active_pps(%rip), %rax
	movl	168(%rax), %eax
	addl	$1, %eax
	vcvtsi2ss	%rax, %xmm0, %xmm2
	vdivss	%xmm2, %xmm1, %xmm1
	vaddss	%xmm0, %xmm1, %xmm0
	vmovss	%xmm0, -40(%rbp)
	vmovss	-40(%rbp), %xmm0        # xmm0 = mem[0],zero,zero,zero
	vcvtss2sd	%xmm0, %xmm0, %xmm0
	callq	log
	vmovsd	%xmm0, -64(%rbp)        # 8-byte Spill
	vmovsd	.LCPI25_0(%rip), %xmm0  # xmm0 = mem[0],zero
	callq	log
	vmovsd	-64(%rbp), %xmm1        # 8-byte Reload
                                        # xmm1 = mem[0],zero
	vdivsd	%xmm0, %xmm1, %xmm0
	vroundsd	$10, %xmm0, %xmm0, %xmm0
	vcvttsd2si	%xmm0, %eax
	movl	%eax, -52(%rbp)
	movl	-52(%rbp), %edi
	movq	img, %rax
	movl	72652(%rax), %edx
	movq	-24(%rbp), %rcx
	movabsq	$.L.str.23, %rsi
	callq	u_v
	addl	-12(%rbp), %eax
	movl	%eax, -12(%rbp)
.LBB25_72:                              # %if.end229
	movq	input, %rax
	cmpl	$0, 2364(%rax)
	je	.LBB25_75
# %bb.73:                               # %land.lhs.true232
	movq	img, %rax
	movq	14152(%rax), %rax
	cmpl	$0, 4(%rax)
	jne	.LBB25_75
# %bb.74:                               # %if.then236
	movq	img, %rax
	movl	20(%rax), %esi
	movq	-24(%rbp), %rdx
	movabsq	$.L.str.24, %rdi
	callq	ue_v
	addl	-12(%rbp), %eax
	movl	%eax, -12(%rbp)
.LBB25_75:                              # %if.end239
	movl	-12(%rbp), %ebx
	cmpl	$2125628443, -48(%rbp)  # imm = 0x7EB2841B
	jne	.LBB25_77
.LBB25_76:
	movl	%ebx, %eax
	addq	$72, %rsp
	popq	%rbx
	popq	%rbp
	.cfi_def_cfa %rsp, 8
	retq
.LBB25_77:                              # %func_exit
	.cfi_def_cfa %rbp, 16
	callq	detect_breach
	jmp	.LBB25_76
.Lfunc_end25:
	.size	SliceHeader.20, .Lfunc_end25-SliceHeader.20
	.cfi_endproc
                                        # -- End function
	.section	.rodata.cst8,"aM",@progbits,8
	.p2align	3               # -- Begin function SliceHeader.21
.LCPI26_0:
	.quad	4611686018427387904     # double 2
	.section	.rodata.cst4,"aM",@progbits,4
	.p2align	2
.LCPI26_1:
	.long	1065353216              # float 1
	.text
	.globl	SliceHeader.21
	.p2align	4, 0x90
	.type	SliceHeader.21,@function
SliceHeader.21:                         # @SliceHeader.21
	.cfi_startproc
# %bb.0:                                # %entry
	pushq	%rbp
	.cfi_def_cfa_offset 16
	.cfi_offset %rbp, -16
	movq	%rsp, %rbp
	.cfi_def_cfa_register %rbp
	pushq	%rbx
	subq	$72, %rsp
	.cfi_offset %rbx, -24
	movl	$1796460385, -52(%rbp)  # imm = 0x6B13CF61
	movq	input, %rax
	movslq	2364(%rax), %rax
	movq	assignSE2partition(,%rax,8), %rax
	movl	(%rax), %eax
	movl	%eax, -44(%rbp)
	movq	img, %rax
	movq	14160(%rax), %rax
	movq	24(%rax), %rax
	movslq	-44(%rbp), %rcx
	imulq	$120, %rcx, %rcx
	addq	%rcx, %rax
	movq	%rax, -24(%rbp)
	movq	img, %rax
	movq	14160(%rax), %rax
	movq	%rax, -72(%rbp)
	movl	$0, -12(%rbp)
	movl	$0, -28(%rbp)
	movl	$0, -36(%rbp)
	movq	img, %rax
	cmpl	$0, 72400(%rax)
	je	.LBB26_2
# %bb.1:                                # %if.then
	movq	img, %rax
	movl	12(%rax), %esi
	sarl	$1, %esi
	movq	-24(%rbp), %rdx
	movabsq	$.L.str, %rdi
	callq	ue_v
	movl	%eax, -12(%rbp)
	jmp	.LBB26_3
.LBB26_2:                               # %if.else
	movq	img, %rax
	movl	12(%rax), %esi
	movq	-24(%rbp), %rdx
	movabsq	$.L.str, %rdi
	callq	ue_v
	movl	%eax, -12(%rbp)
.LBB26_3:                               # %if.end
	callq	get_picture_type
	movq	-24(%rbp), %rdx
	movabsq	$.L.str.1, %rdi
	movl	%eax, %esi
	callq	ue_v
	addl	-12(%rbp), %eax
	movl	%eax, -12(%rbp)
	movq	active_pps, %rax
	movl	4(%rax), %esi
	movq	-24(%rbp), %rdx
	movabsq	$.L.str.2, %rdi
	callq	ue_v
	addl	-12(%rbp), %eax
	movl	%eax, -12(%rbp)
	movl	log2_max_frame_num_minus4, %edi
	addl	$4, %edi
	movq	img, %rax
	movl	72464(%rax), %edx
	movq	-24(%rbp), %rcx
	movabsq	$.L.str.3, %rsi
	callq	u_v
	addl	-12(%rbp), %eax
	movl	%eax, -12(%rbp)
	movq	active_sps, %rax
	cmpl	$0, 1148(%rax)
	jne	.LBB26_9
# %bb.4:                                # %if.then15
	movq	img, %rax
	cmpl	$1, 28(%rax)
	movb	$1, %al
	je	.LBB26_6
# %bb.5:                                # %lor.rhs
	movq	img, %rax
	cmpl	$2, 28(%rax)
	sete	%al
.LBB26_6:                               # %lor.end
	xorl	%ecx, %ecx
	testb	$1, %al
	movl	$1, %eax
	cmovnel	%eax, %ecx
	movl	%ecx, -28(%rbp)
	movl	-28(%rbp), %esi
	movq	-24(%rbp), %rdx
	movabsq	$.L.str.4, %rdi
	callq	u_1
	addl	-12(%rbp), %eax
	movl	%eax, -12(%rbp)
	cmpl	$0, -28(%rbp)
	je	.LBB26_8
# %bb.7:                                # %if.then21
	xorl	%eax, %eax
	movq	img, %rcx
	movl	28(%rcx), %ecx
	cmpl	$2, %ecx
	movl	$1, %ecx
	cmovel	%ecx, %eax
	movl	%eax, -36(%rbp)
	movl	-36(%rbp), %esi
	movq	-24(%rbp), %rdx
	movabsq	$.L.str.5, %rdi
	callq	u_1
	addl	-12(%rbp), %eax
	movl	%eax, -12(%rbp)
.LBB26_8:                               # %if.end27
	jmp	.LBB26_9
.LBB26_9:                               # %if.end28
	movq	img, %rax
	movq	14152(%rax), %rax
	cmpl	$0, 4(%rax)
	je	.LBB26_11
# %bb.10:                               # %if.then30
	movq	img, %rax
	movl	(%rax), %eax
	cltd
	movl	$2, %ecx
	idivl	%ecx
	movq	-24(%rbp), %rax
	movabsq	$.L.str.6, %rdi
	movl	%edx, %esi
	movq	%rax, %rdx
	callq	ue_v
	addl	-12(%rbp), %eax
	movl	%eax, -12(%rbp)
.LBB26_11:                              # %if.end33
	movq	img, %rax
	cmpl	$0, 72404(%rax)
	jne	.LBB26_25
# %bb.12:                               # %if.then35
	movq	active_sps, %rax
	cmpl	$0, 1148(%rax)
	je	.LBB26_14
# %bb.13:                               # %if.then38
	movq	img, %rax
	movl	72448(%rax), %eax
	movl	log2_max_pic_order_cnt_lsb_minus4, %ecx
	addl	$4, %ecx
                                        # kill: def $cl killed $ecx
	movl	$4294967295, %edx       # imm = 0xFFFFFFFF
	shll	%cl, %edx
	xorl	$-1, %edx
	andl	%edx, %eax
	movq	img, %rcx
	movl	%eax, 72428(%rcx)
	jmp	.LBB26_21
.LBB26_14:                              # %if.else40
	cmpl	$0, -28(%rbp)
	je	.LBB26_16
# %bb.15:                               # %lor.lhs.false
	movq	img, %rax
	cmpl	$1, 28(%rax)
	jne	.LBB26_17
.LBB26_16:                              # %if.then44
	movq	img, %rax
	movl	72448(%rax), %eax
	movl	log2_max_pic_order_cnt_lsb_minus4, %ecx
	addl	$4, %ecx
                                        # kill: def $cl killed $ecx
	movl	$4294967295, %edx       # imm = 0xFFFFFFFF
	shll	%cl, %edx
	xorl	$-1, %edx
	andl	%edx, %eax
	movq	img, %rcx
	movl	%eax, 72428(%rcx)
	jmp	.LBB26_20
.LBB26_17:                              # %if.else51
	movq	img, %rax
	cmpl	$2, 28(%rax)
	jne	.LBB26_19
# %bb.18:                               # %if.then54
	movq	img, %rax
	movl	72452(%rax), %eax
	movl	log2_max_pic_order_cnt_lsb_minus4, %ecx
	addl	$4, %ecx
                                        # kill: def $cl killed $ecx
	movl	$4294967295, %edx       # imm = 0xFFFFFFFF
	shll	%cl, %edx
	xorl	$-1, %edx
	andl	%edx, %eax
	movq	img, %rcx
	movl	%eax, 72428(%rcx)
.LBB26_19:                              # %if.end60
	jmp	.LBB26_20
.LBB26_20:                              # %if.end61
	jmp	.LBB26_21
.LBB26_21:                              # %if.end62
	movl	log2_max_pic_order_cnt_lsb_minus4, %edi
	addl	$4, %edi
	movq	img, %rax
	movl	72428(%rax), %edx
	movq	-24(%rbp), %rcx
	movabsq	$.L.str.7, %rsi
	callq	u_v
	addl	-12(%rbp), %eax
	movl	%eax, -12(%rbp)
	movq	img, %rax
	cmpl	$0, 72492(%rax)
	je	.LBB26_24
# %bb.22:                               # %land.lhs.true
	cmpl	$0, -28(%rbp)
	jne	.LBB26_24
# %bb.23:                               # %if.then69
	movq	img, %rax
	movl	72432(%rax), %esi
	movq	-24(%rbp), %rdx
	movabsq	$.L.str.8, %rdi
	callq	se_v
	addl	-12(%rbp), %eax
	movl	%eax, -12(%rbp)
.LBB26_24:                              # %if.end72
	jmp	.LBB26_25
.LBB26_25:                              # %if.end73
	movq	img, %rax
	cmpl	$1, 72404(%rax)
	jne	.LBB26_31
# %bb.26:                               # %land.lhs.true76
	movq	img, %rax
	cmpl	$0, 72408(%rax)
	jne	.LBB26_31
# %bb.27:                               # %if.then78
	movq	img, %rax
	movl	72436(%rax), %esi
	movq	-24(%rbp), %rdx
	movabsq	$.L.str.9, %rdi
	callq	se_v
	addl	-12(%rbp), %eax
	movl	%eax, -12(%rbp)
	movq	img, %rax
	cmpl	$0, 72492(%rax)
	je	.LBB26_30
# %bb.28:                               # %land.lhs.true84
	cmpl	$0, -28(%rbp)
	jne	.LBB26_30
# %bb.29:                               # %if.then86
	movq	img, %rax
	movl	72440(%rax), %esi
	movq	-24(%rbp), %rdx
	movabsq	$.L.str.10, %rdi
	callq	se_v
	addl	-12(%rbp), %eax
	movl	%eax, -12(%rbp)
.LBB26_30:                              # %if.end91
	jmp	.LBB26_31
.LBB26_31:                              # %if.end92
	movq	input, %rax
	cmpl	$0, 3204(%rax)
	je	.LBB26_33
# %bb.32:                               # %if.then94
	movq	img, %rax
	movl	72396(%rax), %esi
	movq	-24(%rbp), %rdx
	movabsq	$.L.str.11, %rdi
	callq	ue_v
	addl	-12(%rbp), %eax
	movl	%eax, -12(%rbp)
.LBB26_33:                              # %if.end97
	movq	img, %rax
	cmpl	$1, 24(%rax)
	jne	.LBB26_35
# %bb.34:                               # %if.then99
	movq	img, %rax
	movl	71996(%rax), %esi
	movq	-24(%rbp), %rdx
	movabsq	$.L.str.12, %rdi
	callq	u_1
	addl	-12(%rbp), %eax
	movl	%eax, -12(%rbp)
.LBB26_35:                              # %if.end102
	movq	img, %rax
	cmpl	$0, 24(%rax)
	je	.LBB26_38
# %bb.36:                               # %lor.lhs.false105
	movq	img, %rax
	cmpl	$1, 24(%rax)
	je	.LBB26_38
# %bb.37:                               # %lor.lhs.false108
	movq	img, %rax
	cmpl	$3, 24(%rax)
	jne	.LBB26_49
.LBB26_38:                              # %if.then111
	movq	img, %rax
	cmpl	$0, 24(%rax)
	je	.LBB26_40
# %bb.39:                               # %lor.lhs.false114
	movq	img, %rax
	cmpl	$3, 24(%rax)
	jne	.LBB26_41
.LBB26_40:                              # %if.then117
	xorl	%eax, %eax
	movq	img, %rcx
	movl	72000(%rcx), %ecx
	movq	active_pps, %rdx
	movl	184(%rdx), %edx
	addl	$1, %edx
	cmpl	%edx, %ecx
	movl	$1, %ecx
	cmovnel	%ecx, %eax
	movl	%eax, -32(%rbp)
	jmp	.LBB26_44
.LBB26_41:                              # %if.else121
	movq	img, %rax
	movl	72000(%rax), %eax
	movq	active_pps, %rcx
	movl	184(%rcx), %ecx
	addl	$1, %ecx
	cmpl	%ecx, %eax
	movb	$1, %al
	jne	.LBB26_43
# %bb.42:                               # %lor.rhs126
	movq	img, %rax
	movl	72004(%rax), %eax
	movq	active_pps, %rcx
	movl	188(%rcx), %ecx
	addl	$1, %ecx
	cmpl	%ecx, %eax
	setne	%al
.LBB26_43:                              # %lor.end129
	xorl	%ecx, %ecx
	testb	$1, %al
	movl	$1, %eax
	cmovnel	%eax, %ecx
	movl	%ecx, -32(%rbp)
.LBB26_44:                              # %if.end131
	movl	-32(%rbp), %esi
	movq	-24(%rbp), %rdx
	movabsq	$.L.str.13, %rdi
	callq	u_1
	addl	-12(%rbp), %eax
	movl	%eax, -12(%rbp)
	cmpl	$0, -32(%rbp)
	je	.LBB26_48
# %bb.45:                               # %if.then135
	movq	img, %rax
	movl	72000(%rax), %esi
	subl	$1, %esi
	movq	-24(%rbp), %rdx
	movabsq	$.L.str.14, %rdi
	callq	ue_v
	addl	-12(%rbp), %eax
	movl	%eax, -12(%rbp)
	movq	img, %rax
	cmpl	$1, 24(%rax)
	jne	.LBB26_47
# %bb.46:                               # %if.then141
	movq	img, %rax
	movl	72004(%rax), %esi
	subl	$1, %esi
	movq	-24(%rbp), %rdx
	movabsq	$.L.str.15, %rdi
	callq	ue_v
	addl	-12(%rbp), %eax
	movl	%eax, -12(%rbp)
.LBB26_47:                              # %if.end146
	jmp	.LBB26_48
.LBB26_48:                              # %if.end147
	jmp	.LBB26_49
.LBB26_49:                              # %if.end148
	callq	ref_pic_list_reordering
	addl	-12(%rbp), %eax
	movl	%eax, -12(%rbp)
	movq	img, %rax
	cmpl	$0, 24(%rax)
	je	.LBB26_51
# %bb.50:                               # %lor.lhs.false153
	movq	img, %rax
	cmpl	$3, 24(%rax)
	jne	.LBB26_52
.LBB26_51:                              # %land.lhs.true156
	movq	active_pps, %rax
	cmpl	$0, 192(%rax)
	jne	.LBB26_54
.LBB26_52:                              # %lor.lhs.false158
	movq	img, %rax
	cmpl	$1, 24(%rax)
	jne	.LBB26_55
# %bb.53:                               # %land.lhs.true161
	movq	active_pps, %rax
	cmpl	$1, 196(%rax)
	jne	.LBB26_55
.LBB26_54:                              # %if.then163
	callq	pred_weight_table
	addl	-12(%rbp), %eax
	movl	%eax, -12(%rbp)
.LBB26_55:                              # %if.end166
	movq	img, %rax
	cmpl	$0, 72496(%rax)
	je	.LBB26_57
# %bb.56:                               # %if.then168
	callq	dec_ref_pic_marking
	addl	-12(%rbp), %eax
	movl	%eax, -12(%rbp)
.LBB26_57:                              # %if.end171
	movq	input, %rax
	cmpl	$1, 2356(%rax)
	jne	.LBB26_60
# %bb.58:                               # %land.lhs.true173
	movq	img, %rax
	cmpl	$2, 24(%rax)
	je	.LBB26_60
# %bb.59:                               # %if.then176
	movq	img, %rax
	movl	72520(%rax), %esi
	movq	-24(%rbp), %rdx
	movabsq	$.L.str.16, %rdi
	callq	ue_v
	addl	-12(%rbp), %eax
	movl	%eax, -12(%rbp)
.LBB26_60:                              # %if.end179
	movq	-72(%rbp), %rax
	movl	4(%rax), %esi
	subl	$26, %esi
	movq	active_pps, %rax
	subl	200(%rax), %esi
	movq	-24(%rbp), %rdx
	movabsq	$.L.str.17, %rdi
	callq	se_v
	addl	-12(%rbp), %eax
	movl	%eax, -12(%rbp)
	movq	img, %rax
	cmpl	$3, 24(%rax)
	jne	.LBB26_64
# %bb.61:                               # %if.then186
	movq	img, %rax
	cmpl	$3, 24(%rax)
	jne	.LBB26_63
# %bb.62:                               # %if.then189
	movq	-24(%rbp), %rdx
	movabsq	$.L.str.18, %rdi
	xorl	%esi, %esi
	callq	u_1
	addl	-12(%rbp), %eax
	movl	%eax, -12(%rbp)
.LBB26_63:                              # %if.end192
	movq	img, %rax
	movl	44(%rax), %esi
	subl	$26, %esi
	movq	-24(%rbp), %rdx
	movabsq	$.L.str.19, %rdi
	callq	se_v
	addl	-12(%rbp), %eax
	movl	%eax, -12(%rbp)
.LBB26_64:                              # %if.end196
	movq	active_pps, %rax
	cmpl	$0, 220(%rax)
	je	.LBB26_68
# %bb.65:                               # %if.then198
	movq	img, %rax
	movl	71984(%rax), %esi
	movq	-24(%rbp), %rdx
	movabsq	$.L.str.20, %rdi
	callq	ue_v
	addl	-12(%rbp), %eax
	movl	%eax, -12(%rbp)
	movq	img, %rax
	cmpl	$1, 71984(%rax)
	je	.LBB26_67
# %bb.66:                               # %if.then203
	movq	img, %rax
	movl	71988(%rax), %eax
	cltd
	movl	$2, %ecx
	idivl	%ecx
	movq	-24(%rbp), %rdx
	movabsq	$.L.str.21, %rdi
	movl	%eax, %esi
	callq	se_v
	addl	-12(%rbp), %eax
	movl	%eax, -12(%rbp)
	movq	img, %rax
	movl	71992(%rax), %eax
	cltd
	movl	$2, %ecx
	idivl	%ecx
	movq	-24(%rbp), %rdx
	movabsq	$.L.str.22, %rdi
	movl	%eax, %esi
	callq	se_v
	addl	-12(%rbp), %eax
	movl	%eax, -12(%rbp)
.LBB26_67:                              # %if.end209
	jmp	.LBB26_68
.LBB26_68:                              # %if.end210
	movq	active_pps, %rax
	cmpl	$0, 60(%rax)
	jbe	.LBB26_72
# %bb.69:                               # %land.lhs.true212
	movq	active_pps, %rax
	cmpl	$3, 64(%rax)
	jb	.LBB26_72
# %bb.70:                               # %land.lhs.true214
	movq	active_pps, %rax
	cmpl	$5, 64(%rax)
	ja	.LBB26_72
# %bb.71:                               # %if.then217
	vmovss	.LCPI26_1(%rip), %xmm0  # xmm0 = mem[0],zero,zero,zero
	movq	img(%rip), %rax
	movl	72468(%rax), %ecx
	movl	72472(%rax), %eax
	imull	%ecx, %eax
	vcvtsi2ss	%rax, %xmm0, %xmm1
	movq	active_pps(%rip), %rax
	movl	168(%rax), %eax
	addl	$1, %eax
	vcvtsi2ss	%rax, %xmm0, %xmm2
	vdivss	%xmm2, %xmm1, %xmm1
	vaddss	%xmm0, %xmm1, %xmm0
	vmovss	%xmm0, -48(%rbp)
	vmovss	-48(%rbp), %xmm0        # xmm0 = mem[0],zero,zero,zero
	vcvtss2sd	%xmm0, %xmm0, %xmm0
	callq	log
	vmovsd	%xmm0, -64(%rbp)        # 8-byte Spill
	vmovsd	.LCPI26_0(%rip), %xmm0  # xmm0 = mem[0],zero
	callq	log
	vmovsd	-64(%rbp), %xmm1        # 8-byte Reload
                                        # xmm1 = mem[0],zero
	vdivsd	%xmm0, %xmm1, %xmm0
	vroundsd	$10, %xmm0, %xmm0, %xmm0
	vcvttsd2si	%xmm0, %eax
	movl	%eax, -40(%rbp)
	movl	-40(%rbp), %edi
	movq	img, %rax
	movl	72652(%rax), %edx
	movq	-24(%rbp), %rcx
	movabsq	$.L.str.23, %rsi
	callq	u_v
	addl	-12(%rbp), %eax
	movl	%eax, -12(%rbp)
.LBB26_72:                              # %if.end229
	movq	input, %rax
	cmpl	$0, 2364(%rax)
	je	.LBB26_75
# %bb.73:                               # %land.lhs.true232
	movq	img, %rax
	movq	14152(%rax), %rax
	cmpl	$0, 4(%rax)
	jne	.LBB26_75
# %bb.74:                               # %if.then236
	movq	img, %rax
	movl	20(%rax), %esi
	movq	-24(%rbp), %rdx
	movabsq	$.L.str.24, %rdi
	callq	ue_v
	addl	-12(%rbp), %eax
	movl	%eax, -12(%rbp)
.LBB26_75:                              # %if.end239
	movl	-12(%rbp), %ebx
	cmpl	$1796460385, -52(%rbp)  # imm = 0x6B13CF61
	jne	.LBB26_77
.LBB26_76:
	movl	%ebx, %eax
	addq	$72, %rsp
	popq	%rbx
	popq	%rbp
	.cfi_def_cfa %rsp, 8
	retq
.LBB26_77:                              # %func_exit
	.cfi_def_cfa %rbp, 16
	callq	detect_breach
	jmp	.LBB26_76
.Lfunc_end26:
	.size	SliceHeader.21, .Lfunc_end26-SliceHeader.21
	.cfi_endproc
                                        # -- End function
	.p2align	4, 0x90         # -- Begin function pred_weight_table.22
	.type	pred_weight_table.22,@function
pred_weight_table.22:                   # @pred_weight_table.22
	.cfi_startproc
# %bb.0:                                # %entry
	pushq	%rbp
	.cfi_def_cfa_offset 16
	.cfi_offset %rbp, -16
	movq	%rsp, %rbp
	.cfi_def_cfa_register %rbp
	pushq	%rbx
	subq	$40, %rsp
	.cfi_offset %rbx, -24
	movl	$1414451210, -40(%rbp)  # imm = 0x544ED00A
	movq	input, %rax
	movslq	2364(%rax), %rax
	movq	assignSE2partition(,%rax,8), %rax
	movl	(%rax), %eax
	movl	%eax, -36(%rbp)
	movq	img, %rax
	movq	14160(%rax), %rax
	movq	24(%rax), %rax
	movslq	-36(%rbp), %rcx
	imulq	$120, %rcx, %rcx
	addq	%rcx, %rax
	movq	%rax, -32(%rbp)
	movl	$0, -12(%rbp)
	movl	luma_log_weight_denom, %esi
	movq	-32(%rbp), %rdx
	movabsq	$.L.str.42, %rdi
	callq	ue_v
	addl	-12(%rbp), %eax
	movl	%eax, -12(%rbp)
	movl	chroma_log_weight_denom, %esi
	movq	-32(%rbp), %rdx
	movabsq	$.L.str.43, %rdi
	callq	ue_v
	addl	-12(%rbp), %eax
	movl	%eax, -12(%rbp)
	movl	$0, -16(%rbp)
.LBB27_1:                               # %for.cond
                                        # =>This Loop Header: Depth=1
                                        #     Child Loop BB27_11 Depth 2
	movl	-16(%rbp), %eax
	movq	img, %rcx
	cmpl	72000(%rcx), %eax
	jge	.LBB27_18
# %bb.2:                                # %for.body
                                        #   in Loop: Header=BB27_1 Depth=1
	movq	wp_weight, %rax
	movq	(%rax), %rax
	movslq	-16(%rbp), %rcx
	movq	(%rax,%rcx,8), %rax
	movl	(%rax), %eax
	movl	luma_log_weight_denom, %ecx
                                        # kill: def $cl killed $ecx
	movl	$1, %edx
	shll	%cl, %edx
	cmpl	%edx, %eax
	jne	.LBB27_4
# %bb.3:                                # %lor.lhs.false
                                        #   in Loop: Header=BB27_1 Depth=1
	movq	wp_offset, %rax
	movq	(%rax), %rax
	movslq	-16(%rbp), %rcx
	movq	(%rax,%rcx,8), %rax
	cmpl	$0, (%rax)
	je	.LBB27_5
.LBB27_4:                               # %if.then
                                        #   in Loop: Header=BB27_1 Depth=1
	movq	-32(%rbp), %rdx
	movabsq	$.L.str.44, %rdi
	movl	$1, %esi
	callq	u_1
	addl	-12(%rbp), %eax
	movl	%eax, -12(%rbp)
	movq	wp_weight, %rax
	movq	(%rax), %rax
	movslq	-16(%rbp), %rcx
	movq	(%rax,%rcx,8), %rax
	movl	(%rax), %esi
	movq	-32(%rbp), %rdx
	movabsq	$.L.str.45, %rdi
	callq	se_v
	addl	-12(%rbp), %eax
	movl	%eax, -12(%rbp)
	movq	wp_offset, %rax
	movq	(%rax), %rax
	movslq	-16(%rbp), %rcx
	movq	(%rax,%rcx,8), %rax
	movl	(%rax), %esi
	movq	-32(%rbp), %rdx
	movabsq	$.L.str.46, %rdi
	callq	se_v
	addl	-12(%rbp), %eax
	movl	%eax, -12(%rbp)
	jmp	.LBB27_6
.LBB27_5:                               # %if.else
                                        #   in Loop: Header=BB27_1 Depth=1
	movq	-32(%rbp), %rdx
	movabsq	$.L.str.44, %rdi
	xorl	%esi, %esi
	callq	u_1
	addl	-12(%rbp), %eax
	movl	%eax, -12(%rbp)
.LBB27_6:                               # %if.end
                                        #   in Loop: Header=BB27_1 Depth=1
	movq	wp_weight, %rax
	movq	(%rax), %rax
	movslq	-16(%rbp), %rcx
	movq	(%rax,%rcx,8), %rax
	movl	4(%rax), %eax
	movl	chroma_log_weight_denom, %ecx
                                        # kill: def $cl killed $ecx
	movl	$1, %edx
	shll	%cl, %edx
	cmpl	%edx, %eax
	jne	.LBB27_10
# %bb.7:                                # %lor.lhs.false38
                                        #   in Loop: Header=BB27_1 Depth=1
	movq	wp_offset, %rax
	movq	(%rax), %rax
	movslq	-16(%rbp), %rcx
	movq	(%rax,%rcx,8), %rax
	cmpl	$0, 4(%rax)
	jne	.LBB27_10
# %bb.8:                                # %lor.lhs.false44
                                        #   in Loop: Header=BB27_1 Depth=1
	movq	wp_weight, %rax
	movq	(%rax), %rax
	movslq	-16(%rbp), %rcx
	movq	(%rax,%rcx,8), %rax
	movl	8(%rax), %eax
	movl	chroma_log_weight_denom, %ecx
                                        # kill: def $cl killed $ecx
	movl	$1, %edx
	shll	%cl, %edx
	cmpl	%edx, %eax
	jne	.LBB27_10
# %bb.9:                                # %lor.lhs.false51
                                        #   in Loop: Header=BB27_1 Depth=1
	movq	wp_offset, %rax
	movq	(%rax), %rax
	movslq	-16(%rbp), %rcx
	movq	(%rax,%rcx,8), %rax
	cmpl	$0, 8(%rax)
	je	.LBB27_15
.LBB27_10:                              # %if.then57
                                        #   in Loop: Header=BB27_1 Depth=1
	movq	-32(%rbp), %rdx
	movabsq	$.L.str.47, %rdi
	movl	$1, %esi
	callq	u_1
	addl	-12(%rbp), %eax
	movl	%eax, -12(%rbp)
	movl	$1, -20(%rbp)
.LBB27_11:                              # %for.cond60
                                        #   Parent Loop BB27_1 Depth=1
                                        # =>  This Inner Loop Header: Depth=2
	cmpl	$3, -20(%rbp)
	jge	.LBB27_14
# %bb.12:                               # %for.body62
                                        #   in Loop: Header=BB27_11 Depth=2
	movq	wp_weight, %rax
	movq	(%rax), %rax
	movslq	-16(%rbp), %rcx
	movq	(%rax,%rcx,8), %rax
	movslq	-20(%rbp), %rcx
	movl	(%rax,%rcx,4), %esi
	movq	-32(%rbp), %rdx
	movabsq	$.L.str.48, %rdi
	callq	se_v
	addl	-12(%rbp), %eax
	movl	%eax, -12(%rbp)
	movq	wp_offset, %rax
	movq	(%rax), %rax
	movslq	-16(%rbp), %rcx
	movq	(%rax,%rcx,8), %rax
	movslq	-20(%rbp), %rcx
	movl	(%rax,%rcx,4), %esi
	movq	-32(%rbp), %rdx
	movabsq	$.L.str.49, %rdi
	callq	se_v
	addl	-12(%rbp), %eax
	movl	%eax, -12(%rbp)
# %bb.13:                               # %for.inc
                                        #   in Loop: Header=BB27_11 Depth=2
	movl	-20(%rbp), %eax
	addl	$1, %eax
	movl	%eax, -20(%rbp)
	jmp	.LBB27_11
.LBB27_14:                              # %for.end
                                        #   in Loop: Header=BB27_1 Depth=1
	jmp	.LBB27_16
.LBB27_15:                              # %if.else77
                                        #   in Loop: Header=BB27_1 Depth=1
	movq	-32(%rbp), %rdx
	movabsq	$.L.str.47, %rdi
	xorl	%esi, %esi
	callq	u_1
	addl	-12(%rbp), %eax
	movl	%eax, -12(%rbp)
.LBB27_16:                              # %if.end80
                                        #   in Loop: Header=BB27_1 Depth=1
	jmp	.LBB27_17
.LBB27_17:                              # %for.inc81
                                        #   in Loop: Header=BB27_1 Depth=1
	movl	-16(%rbp), %eax
	addl	$1, %eax
	movl	%eax, -16(%rbp)
	jmp	.LBB27_1
.LBB27_18:                              # %for.end83
	movq	img, %rax
	cmpl	$1, 24(%rax)
	jne	.LBB27_38
# %bb.19:                               # %if.then85
	movl	$0, -16(%rbp)
.LBB27_20:                              # %for.cond86
                                        # =>This Loop Header: Depth=1
                                        #     Child Loop BB27_30 Depth 2
	movl	-16(%rbp), %eax
	movq	img, %rcx
	cmpl	72004(%rcx), %eax
	jge	.LBB27_37
# %bb.21:                               # %for.body88
                                        #   in Loop: Header=BB27_20 Depth=1
	movq	wp_weight, %rax
	movq	8(%rax), %rax
	movslq	-16(%rbp), %rcx
	movq	(%rax,%rcx,8), %rax
	movl	(%rax), %eax
	movl	luma_log_weight_denom, %ecx
                                        # kill: def $cl killed $ecx
	movl	$1, %edx
	shll	%cl, %edx
	cmpl	%edx, %eax
	jne	.LBB27_23
# %bb.22:                               # %lor.lhs.false95
                                        #   in Loop: Header=BB27_20 Depth=1
	movq	wp_offset, %rax
	movq	8(%rax), %rax
	movslq	-16(%rbp), %rcx
	movq	(%rax,%rcx,8), %rax
	cmpl	$0, (%rax)
	je	.LBB27_24
.LBB27_23:                              # %if.then101
                                        #   in Loop: Header=BB27_20 Depth=1
	movq	-32(%rbp), %rdx
	movabsq	$.L.str.50, %rdi
	movl	$1, %esi
	callq	u_1
	addl	-12(%rbp), %eax
	movl	%eax, -12(%rbp)
	movq	wp_weight, %rax
	movq	8(%rax), %rax
	movslq	-16(%rbp), %rcx
	movq	(%rax,%rcx,8), %rax
	movl	(%rax), %esi
	movq	-32(%rbp), %rdx
	movabsq	$.L.str.51, %rdi
	callq	se_v
	addl	-12(%rbp), %eax
	movl	%eax, -12(%rbp)
	movq	wp_offset, %rax
	movq	8(%rax), %rax
	movslq	-16(%rbp), %rcx
	movq	(%rax,%rcx,8), %rax
	movl	(%rax), %esi
	movq	-32(%rbp), %rdx
	movabsq	$.L.str.52, %rdi
	callq	se_v
	addl	-12(%rbp), %eax
	movl	%eax, -12(%rbp)
	jmp	.LBB27_25
.LBB27_24:                              # %if.else116
                                        #   in Loop: Header=BB27_20 Depth=1
	movq	-32(%rbp), %rdx
	movabsq	$.L.str.50, %rdi
	xorl	%esi, %esi
	callq	u_1
	addl	-12(%rbp), %eax
	movl	%eax, -12(%rbp)
.LBB27_25:                              # %if.end119
                                        #   in Loop: Header=BB27_20 Depth=1
	movq	wp_weight, %rax
	movq	8(%rax), %rax
	movslq	-16(%rbp), %rcx
	movq	(%rax,%rcx,8), %rax
	movl	4(%rax), %eax
	movl	chroma_log_weight_denom, %ecx
                                        # kill: def $cl killed $ecx
	movl	$1, %edx
	shll	%cl, %edx
	cmpl	%edx, %eax
	jne	.LBB27_29
# %bb.26:                               # %lor.lhs.false126
                                        #   in Loop: Header=BB27_20 Depth=1
	movq	wp_offset, %rax
	movq	8(%rax), %rax
	movslq	-16(%rbp), %rcx
	movq	(%rax,%rcx,8), %rax
	cmpl	$0, 4(%rax)
	jne	.LBB27_29
# %bb.27:                               # %lor.lhs.false132
                                        #   in Loop: Header=BB27_20 Depth=1
	movq	wp_weight, %rax
	movq	8(%rax), %rax
	movslq	-16(%rbp), %rcx
	movq	(%rax,%rcx,8), %rax
	movl	8(%rax), %eax
	movl	chroma_log_weight_denom, %ecx
                                        # kill: def $cl killed $ecx
	movl	$1, %edx
	shll	%cl, %edx
	cmpl	%edx, %eax
	jne	.LBB27_29
# %bb.28:                               # %lor.lhs.false139
                                        #   in Loop: Header=BB27_20 Depth=1
	movq	wp_offset, %rax
	movq	8(%rax), %rax
	movslq	-16(%rbp), %rcx
	movq	(%rax,%rcx,8), %rax
	cmpl	$0, 8(%rax)
	je	.LBB27_34
.LBB27_29:                              # %if.then145
                                        #   in Loop: Header=BB27_20 Depth=1
	movq	-32(%rbp), %rdx
	movabsq	$.L.str.53, %rdi
	movl	$1, %esi
	callq	u_1
	addl	-12(%rbp), %eax
	movl	%eax, -12(%rbp)
	movl	$1, -20(%rbp)
.LBB27_30:                              # %for.cond148
                                        #   Parent Loop BB27_20 Depth=1
                                        # =>  This Inner Loop Header: Depth=2
	cmpl	$3, -20(%rbp)
	jge	.LBB27_33
# %bb.31:                               # %for.body150
                                        #   in Loop: Header=BB27_30 Depth=2
	movq	wp_weight, %rax
	movq	8(%rax), %rax
	movslq	-16(%rbp), %rcx
	movq	(%rax,%rcx,8), %rax
	movslq	-20(%rbp), %rcx
	movl	(%rax,%rcx,4), %esi
	movq	-32(%rbp), %rdx
	movabsq	$.L.str.54, %rdi
	callq	se_v
	addl	-12(%rbp), %eax
	movl	%eax, -12(%rbp)
	movq	wp_offset, %rax
	movq	8(%rax), %rax
	movslq	-16(%rbp), %rcx
	movq	(%rax,%rcx,8), %rax
	movslq	-20(%rbp), %rcx
	movl	(%rax,%rcx,4), %esi
	movq	-32(%rbp), %rdx
	movabsq	$.L.str.55, %rdi
	callq	se_v
	addl	-12(%rbp), %eax
	movl	%eax, -12(%rbp)
# %bb.32:                               # %for.inc165
                                        #   in Loop: Header=BB27_30 Depth=2
	movl	-20(%rbp), %eax
	addl	$1, %eax
	movl	%eax, -20(%rbp)
	jmp	.LBB27_30
.LBB27_33:                              # %for.end167
                                        #   in Loop: Header=BB27_20 Depth=1
	jmp	.LBB27_35
.LBB27_34:                              # %if.else168
                                        #   in Loop: Header=BB27_20 Depth=1
	movq	-32(%rbp), %rdx
	movabsq	$.L.str.53, %rdi
	xorl	%esi, %esi
	callq	u_1
	addl	-12(%rbp), %eax
	movl	%eax, -12(%rbp)
.LBB27_35:                              # %if.end171
                                        #   in Loop: Header=BB27_20 Depth=1
	jmp	.LBB27_36
.LBB27_36:                              # %for.inc172
                                        #   in Loop: Header=BB27_20 Depth=1
	movl	-16(%rbp), %eax
	addl	$1, %eax
	movl	%eax, -16(%rbp)
	jmp	.LBB27_20
.LBB27_37:                              # %for.end174
	jmp	.LBB27_38
.LBB27_38:                              # %if.end175
	movl	-12(%rbp), %ebx
	cmpl	$1414451210, -40(%rbp)  # imm = 0x544ED00A
	jne	.LBB27_40
.LBB27_39:
	movl	%ebx, %eax
	addq	$40, %rsp
	popq	%rbx
	popq	%rbp
	.cfi_def_cfa %rsp, 8
	retq
.LBB27_40:                              # %func_exit
	.cfi_def_cfa %rbp, 16
	callq	detect_breach
	jmp	.LBB27_39
.Lfunc_end27:
	.size	pred_weight_table.22, .Lfunc_end27-pred_weight_table.22
	.cfi_endproc
                                        # -- End function
	.p2align	4, 0x90         # -- Begin function pred_weight_table.23
	.type	pred_weight_table.23,@function
pred_weight_table.23:                   # @pred_weight_table.23
	.cfi_startproc
# %bb.0:                                # %entry
	pushq	%rbp
	.cfi_def_cfa_offset 16
	.cfi_offset %rbp, -16
	movq	%rsp, %rbp
	.cfi_def_cfa_register %rbp
	pushq	%rbx
	subq	$40, %rsp
	.cfi_offset %rbx, -24
	movl	$80287664, -36(%rbp)    # imm = 0x4C917B0
	movq	input, %rax
	movslq	2364(%rax), %rax
	movq	assignSE2partition(,%rax,8), %rax
	movl	(%rax), %eax
	movl	%eax, -40(%rbp)
	movq	img, %rax
	movq	14160(%rax), %rax
	movq	24(%rax), %rax
	movslq	-40(%rbp), %rcx
	imulq	$120, %rcx, %rcx
	addq	%rcx, %rax
	movq	%rax, -32(%rbp)
	movl	$0, -12(%rbp)
	movl	luma_log_weight_denom, %esi
	movq	-32(%rbp), %rdx
	movabsq	$.L.str.42, %rdi
	callq	ue_v
	addl	-12(%rbp), %eax
	movl	%eax, -12(%rbp)
	movl	chroma_log_weight_denom, %esi
	movq	-32(%rbp), %rdx
	movabsq	$.L.str.43, %rdi
	callq	ue_v
	addl	-12(%rbp), %eax
	movl	%eax, -12(%rbp)
	movl	$0, -16(%rbp)
.LBB28_1:                               # %for.cond
                                        # =>This Loop Header: Depth=1
                                        #     Child Loop BB28_11 Depth 2
	movl	-16(%rbp), %eax
	movq	img, %rcx
	cmpl	72000(%rcx), %eax
	jge	.LBB28_18
# %bb.2:                                # %for.body
                                        #   in Loop: Header=BB28_1 Depth=1
	movq	wp_weight, %rax
	movq	(%rax), %rax
	movslq	-16(%rbp), %rcx
	movq	(%rax,%rcx,8), %rax
	movl	(%rax), %eax
	movl	luma_log_weight_denom, %ecx
                                        # kill: def $cl killed $ecx
	movl	$1, %edx
	shll	%cl, %edx
	cmpl	%edx, %eax
	jne	.LBB28_4
# %bb.3:                                # %lor.lhs.false
                                        #   in Loop: Header=BB28_1 Depth=1
	movq	wp_offset, %rax
	movq	(%rax), %rax
	movslq	-16(%rbp), %rcx
	movq	(%rax,%rcx,8), %rax
	cmpl	$0, (%rax)
	je	.LBB28_5
.LBB28_4:                               # %if.then
                                        #   in Loop: Header=BB28_1 Depth=1
	movq	-32(%rbp), %rdx
	movabsq	$.L.str.44, %rdi
	movl	$1, %esi
	callq	u_1
	addl	-12(%rbp), %eax
	movl	%eax, -12(%rbp)
	movq	wp_weight, %rax
	movq	(%rax), %rax
	movslq	-16(%rbp), %rcx
	movq	(%rax,%rcx,8), %rax
	movl	(%rax), %esi
	movq	-32(%rbp), %rdx
	movabsq	$.L.str.45, %rdi
	callq	se_v
	addl	-12(%rbp), %eax
	movl	%eax, -12(%rbp)
	movq	wp_offset, %rax
	movq	(%rax), %rax
	movslq	-16(%rbp), %rcx
	movq	(%rax,%rcx,8), %rax
	movl	(%rax), %esi
	movq	-32(%rbp), %rdx
	movabsq	$.L.str.46, %rdi
	callq	se_v
	addl	-12(%rbp), %eax
	movl	%eax, -12(%rbp)
	jmp	.LBB28_6
.LBB28_5:                               # %if.else
                                        #   in Loop: Header=BB28_1 Depth=1
	movq	-32(%rbp), %rdx
	movabsq	$.L.str.44, %rdi
	xorl	%esi, %esi
	callq	u_1
	addl	-12(%rbp), %eax
	movl	%eax, -12(%rbp)
.LBB28_6:                               # %if.end
                                        #   in Loop: Header=BB28_1 Depth=1
	movq	wp_weight, %rax
	movq	(%rax), %rax
	movslq	-16(%rbp), %rcx
	movq	(%rax,%rcx,8), %rax
	movl	4(%rax), %eax
	movl	chroma_log_weight_denom, %ecx
                                        # kill: def $cl killed $ecx
	movl	$1, %edx
	shll	%cl, %edx
	cmpl	%edx, %eax
	jne	.LBB28_10
# %bb.7:                                # %lor.lhs.false38
                                        #   in Loop: Header=BB28_1 Depth=1
	movq	wp_offset, %rax
	movq	(%rax), %rax
	movslq	-16(%rbp), %rcx
	movq	(%rax,%rcx,8), %rax
	cmpl	$0, 4(%rax)
	jne	.LBB28_10
# %bb.8:                                # %lor.lhs.false44
                                        #   in Loop: Header=BB28_1 Depth=1
	movq	wp_weight, %rax
	movq	(%rax), %rax
	movslq	-16(%rbp), %rcx
	movq	(%rax,%rcx,8), %rax
	movl	8(%rax), %eax
	movl	chroma_log_weight_denom, %ecx
                                        # kill: def $cl killed $ecx
	movl	$1, %edx
	shll	%cl, %edx
	cmpl	%edx, %eax
	jne	.LBB28_10
# %bb.9:                                # %lor.lhs.false51
                                        #   in Loop: Header=BB28_1 Depth=1
	movq	wp_offset, %rax
	movq	(%rax), %rax
	movslq	-16(%rbp), %rcx
	movq	(%rax,%rcx,8), %rax
	cmpl	$0, 8(%rax)
	je	.LBB28_15
.LBB28_10:                              # %if.then57
                                        #   in Loop: Header=BB28_1 Depth=1
	movq	-32(%rbp), %rdx
	movabsq	$.L.str.47, %rdi
	movl	$1, %esi
	callq	u_1
	addl	-12(%rbp), %eax
	movl	%eax, -12(%rbp)
	movl	$1, -20(%rbp)
.LBB28_11:                              # %for.cond60
                                        #   Parent Loop BB28_1 Depth=1
                                        # =>  This Inner Loop Header: Depth=2
	cmpl	$3, -20(%rbp)
	jge	.LBB28_14
# %bb.12:                               # %for.body62
                                        #   in Loop: Header=BB28_11 Depth=2
	movq	wp_weight, %rax
	movq	(%rax), %rax
	movslq	-16(%rbp), %rcx
	movq	(%rax,%rcx,8), %rax
	movslq	-20(%rbp), %rcx
	movl	(%rax,%rcx,4), %esi
	movq	-32(%rbp), %rdx
	movabsq	$.L.str.48, %rdi
	callq	se_v
	addl	-12(%rbp), %eax
	movl	%eax, -12(%rbp)
	movq	wp_offset, %rax
	movq	(%rax), %rax
	movslq	-16(%rbp), %rcx
	movq	(%rax,%rcx,8), %rax
	movslq	-20(%rbp), %rcx
	movl	(%rax,%rcx,4), %esi
	movq	-32(%rbp), %rdx
	movabsq	$.L.str.49, %rdi
	callq	se_v
	addl	-12(%rbp), %eax
	movl	%eax, -12(%rbp)
# %bb.13:                               # %for.inc
                                        #   in Loop: Header=BB28_11 Depth=2
	movl	-20(%rbp), %eax
	addl	$1, %eax
	movl	%eax, -20(%rbp)
	jmp	.LBB28_11
.LBB28_14:                              # %for.end
                                        #   in Loop: Header=BB28_1 Depth=1
	jmp	.LBB28_16
.LBB28_15:                              # %if.else77
                                        #   in Loop: Header=BB28_1 Depth=1
	movq	-32(%rbp), %rdx
	movabsq	$.L.str.47, %rdi
	xorl	%esi, %esi
	callq	u_1
	addl	-12(%rbp), %eax
	movl	%eax, -12(%rbp)
.LBB28_16:                              # %if.end80
                                        #   in Loop: Header=BB28_1 Depth=1
	jmp	.LBB28_17
.LBB28_17:                              # %for.inc81
                                        #   in Loop: Header=BB28_1 Depth=1
	movl	-16(%rbp), %eax
	addl	$1, %eax
	movl	%eax, -16(%rbp)
	jmp	.LBB28_1
.LBB28_18:                              # %for.end83
	movq	img, %rax
	cmpl	$1, 24(%rax)
	jne	.LBB28_38
# %bb.19:                               # %if.then85
	movl	$0, -16(%rbp)
.LBB28_20:                              # %for.cond86
                                        # =>This Loop Header: Depth=1
                                        #     Child Loop BB28_30 Depth 2
	movl	-16(%rbp), %eax
	movq	img, %rcx
	cmpl	72004(%rcx), %eax
	jge	.LBB28_37
# %bb.21:                               # %for.body88
                                        #   in Loop: Header=BB28_20 Depth=1
	movq	wp_weight, %rax
	movq	8(%rax), %rax
	movslq	-16(%rbp), %rcx
	movq	(%rax,%rcx,8), %rax
	movl	(%rax), %eax
	movl	luma_log_weight_denom, %ecx
                                        # kill: def $cl killed $ecx
	movl	$1, %edx
	shll	%cl, %edx
	cmpl	%edx, %eax
	jne	.LBB28_23
# %bb.22:                               # %lor.lhs.false95
                                        #   in Loop: Header=BB28_20 Depth=1
	movq	wp_offset, %rax
	movq	8(%rax), %rax
	movslq	-16(%rbp), %rcx
	movq	(%rax,%rcx,8), %rax
	cmpl	$0, (%rax)
	je	.LBB28_24
.LBB28_23:                              # %if.then101
                                        #   in Loop: Header=BB28_20 Depth=1
	movq	-32(%rbp), %rdx
	movabsq	$.L.str.50, %rdi
	movl	$1, %esi
	callq	u_1
	addl	-12(%rbp), %eax
	movl	%eax, -12(%rbp)
	movq	wp_weight, %rax
	movq	8(%rax), %rax
	movslq	-16(%rbp), %rcx
	movq	(%rax,%rcx,8), %rax
	movl	(%rax), %esi
	movq	-32(%rbp), %rdx
	movabsq	$.L.str.51, %rdi
	callq	se_v
	addl	-12(%rbp), %eax
	movl	%eax, -12(%rbp)
	movq	wp_offset, %rax
	movq	8(%rax), %rax
	movslq	-16(%rbp), %rcx
	movq	(%rax,%rcx,8), %rax
	movl	(%rax), %esi
	movq	-32(%rbp), %rdx
	movabsq	$.L.str.52, %rdi
	callq	se_v
	addl	-12(%rbp), %eax
	movl	%eax, -12(%rbp)
	jmp	.LBB28_25
.LBB28_24:                              # %if.else116
                                        #   in Loop: Header=BB28_20 Depth=1
	movq	-32(%rbp), %rdx
	movabsq	$.L.str.50, %rdi
	xorl	%esi, %esi
	callq	u_1
	addl	-12(%rbp), %eax
	movl	%eax, -12(%rbp)
.LBB28_25:                              # %if.end119
                                        #   in Loop: Header=BB28_20 Depth=1
	movq	wp_weight, %rax
	movq	8(%rax), %rax
	movslq	-16(%rbp), %rcx
	movq	(%rax,%rcx,8), %rax
	movl	4(%rax), %eax
	movl	chroma_log_weight_denom, %ecx
                                        # kill: def $cl killed $ecx
	movl	$1, %edx
	shll	%cl, %edx
	cmpl	%edx, %eax
	jne	.LBB28_29
# %bb.26:                               # %lor.lhs.false126
                                        #   in Loop: Header=BB28_20 Depth=1
	movq	wp_offset, %rax
	movq	8(%rax), %rax
	movslq	-16(%rbp), %rcx
	movq	(%rax,%rcx,8), %rax
	cmpl	$0, 4(%rax)
	jne	.LBB28_29
# %bb.27:                               # %lor.lhs.false132
                                        #   in Loop: Header=BB28_20 Depth=1
	movq	wp_weight, %rax
	movq	8(%rax), %rax
	movslq	-16(%rbp), %rcx
	movq	(%rax,%rcx,8), %rax
	movl	8(%rax), %eax
	movl	chroma_log_weight_denom, %ecx
                                        # kill: def $cl killed $ecx
	movl	$1, %edx
	shll	%cl, %edx
	cmpl	%edx, %eax
	jne	.LBB28_29
# %bb.28:                               # %lor.lhs.false139
                                        #   in Loop: Header=BB28_20 Depth=1
	movq	wp_offset, %rax
	movq	8(%rax), %rax
	movslq	-16(%rbp), %rcx
	movq	(%rax,%rcx,8), %rax
	cmpl	$0, 8(%rax)
	je	.LBB28_34
.LBB28_29:                              # %if.then145
                                        #   in Loop: Header=BB28_20 Depth=1
	movq	-32(%rbp), %rdx
	movabsq	$.L.str.53, %rdi
	movl	$1, %esi
	callq	u_1
	addl	-12(%rbp), %eax
	movl	%eax, -12(%rbp)
	movl	$1, -20(%rbp)
.LBB28_30:                              # %for.cond148
                                        #   Parent Loop BB28_20 Depth=1
                                        # =>  This Inner Loop Header: Depth=2
	cmpl	$3, -20(%rbp)
	jge	.LBB28_33
# %bb.31:                               # %for.body150
                                        #   in Loop: Header=BB28_30 Depth=2
	movq	wp_weight, %rax
	movq	8(%rax), %rax
	movslq	-16(%rbp), %rcx
	movq	(%rax,%rcx,8), %rax
	movslq	-20(%rbp), %rcx
	movl	(%rax,%rcx,4), %esi
	movq	-32(%rbp), %rdx
	movabsq	$.L.str.54, %rdi
	callq	se_v
	addl	-12(%rbp), %eax
	movl	%eax, -12(%rbp)
	movq	wp_offset, %rax
	movq	8(%rax), %rax
	movslq	-16(%rbp), %rcx
	movq	(%rax,%rcx,8), %rax
	movslq	-20(%rbp), %rcx
	movl	(%rax,%rcx,4), %esi
	movq	-32(%rbp), %rdx
	movabsq	$.L.str.55, %rdi
	callq	se_v
	addl	-12(%rbp), %eax
	movl	%eax, -12(%rbp)
# %bb.32:                               # %for.inc165
                                        #   in Loop: Header=BB28_30 Depth=2
	movl	-20(%rbp), %eax
	addl	$1, %eax
	movl	%eax, -20(%rbp)
	jmp	.LBB28_30
.LBB28_33:                              # %for.end167
                                        #   in Loop: Header=BB28_20 Depth=1
	jmp	.LBB28_35
.LBB28_34:                              # %if.else168
                                        #   in Loop: Header=BB28_20 Depth=1
	movq	-32(%rbp), %rdx
	movabsq	$.L.str.53, %rdi
	xorl	%esi, %esi
	callq	u_1
	addl	-12(%rbp), %eax
	movl	%eax, -12(%rbp)
.LBB28_35:                              # %if.end171
                                        #   in Loop: Header=BB28_20 Depth=1
	jmp	.LBB28_36
.LBB28_36:                              # %for.inc172
                                        #   in Loop: Header=BB28_20 Depth=1
	movl	-16(%rbp), %eax
	addl	$1, %eax
	movl	%eax, -16(%rbp)
	jmp	.LBB28_20
.LBB28_37:                              # %for.end174
	jmp	.LBB28_38
.LBB28_38:                              # %if.end175
	movl	-12(%rbp), %ebx
	cmpl	$80287664, -36(%rbp)    # imm = 0x4C917B0
	jne	.LBB28_40
.LBB28_39:
	movl	%ebx, %eax
	addq	$40, %rsp
	popq	%rbx
	popq	%rbp
	.cfi_def_cfa %rsp, 8
	retq
.LBB28_40:                              # %func_exit
	.cfi_def_cfa %rbp, 16
	callq	detect_breach
	jmp	.LBB28_39
.Lfunc_end28:
	.size	pred_weight_table.23, .Lfunc_end28-pred_weight_table.23
	.cfi_endproc
                                        # -- End function
	.p2align	4, 0x90         # -- Begin function dec_ref_pic_marking.24
	.type	dec_ref_pic_marking.24,@function
dec_ref_pic_marking.24:                 # @dec_ref_pic_marking.24
	.cfi_startproc
# %bb.0:                                # %entry
	pushq	%rbp
	.cfi_def_cfa_offset 16
	.cfi_offset %rbp, -16
	movq	%rsp, %rbp
	.cfi_def_cfa_register %rbp
	pushq	%rbx
	subq	$40, %rsp
	.cfi_offset %rbx, -24
	movl	$63111714, -40(%rbp)    # imm = 0x3C30222
	movq	input, %rax
	movslq	2364(%rax), %rax
	movq	assignSE2partition(,%rax,8), %rax
	movl	(%rax), %eax
	movl	%eax, -36(%rbp)
	movq	img, %rax
	movq	14160(%rax), %rax
	movq	24(%rax), %rax
	movslq	-36(%rbp), %rcx
	imulq	$120, %rcx, %rcx
	addq	%rcx, %rax
	movq	%rax, -32(%rbp)
	movl	$0, -12(%rbp)
	movq	img, %rax
	movq	14152(%rax), %rax
	cmpl	$0, 4(%rax)
	je	.LBB29_2
# %bb.1:                                # %if.then
	movq	img, %rax
	movl	72504(%rax), %esi
	movq	-32(%rbp), %rdx
	movabsq	$.L.str.33, %rdi
	callq	u_1
	addl	-12(%rbp), %eax
	movl	%eax, -12(%rbp)
	movq	img, %rax
	movl	72508(%rax), %esi
	movq	-32(%rbp), %rdx
	movabsq	$.L.str.34, %rdi
	callq	u_1
	addl	-12(%rbp), %eax
	movl	%eax, -12(%rbp)
	jmp	.LBB29_20
.LBB29_2:                               # %if.else
	movq	img, %rax
	cmpq	$0, 72512(%rax)
	setne	%al
	andb	$1, %al
	movzbl	%al, %eax
	movq	img, %rcx
	movl	%eax, 72500(%rcx)
	movq	img, %rax
	movl	72500(%rax), %esi
	movq	-32(%rbp), %rdx
	movabsq	$.L.str.35, %rdi
	callq	u_1
	addl	-12(%rbp), %eax
	movl	%eax, -12(%rbp)
	movq	img, %rax
	cmpl	$0, 72500(%rax)
	je	.LBB29_19
# %bb.3:                                # %if.then11
	movq	img, %rax
	movq	72512(%rax), %rax
	movq	%rax, -24(%rbp)
.LBB29_4:                               # %do.body
                                        # =>This Inner Loop Header: Depth=1
	cmpq	$0, -24(%rbp)
	jne	.LBB29_6
# %bb.5:                                # %if.then15
                                        #   in Loop: Header=BB29_4 Depth=1
	movabsq	$.L.str.36, %rdi
	movl	$500, %esi              # imm = 0x1F4
	callq	error
.LBB29_6:                               # %if.end
                                        #   in Loop: Header=BB29_4 Depth=1
	movq	-24(%rbp), %rax
	movl	(%rax), %eax
	movl	%eax, -16(%rbp)
	movl	-16(%rbp), %esi
	movq	-32(%rbp), %rdx
	movabsq	$.L.str.37, %rdi
	callq	ue_v
	addl	-12(%rbp), %eax
	movl	%eax, -12(%rbp)
	cmpl	$1, -16(%rbp)
	je	.LBB29_8
# %bb.7:                                # %lor.lhs.false
                                        #   in Loop: Header=BB29_4 Depth=1
	cmpl	$3, -16(%rbp)
	jne	.LBB29_9
.LBB29_8:                               # %if.then22
                                        #   in Loop: Header=BB29_4 Depth=1
	movq	-24(%rbp), %rax
	movl	4(%rax), %esi
	movq	-32(%rbp), %rdx
	movabsq	$.L.str.38, %rdi
	callq	ue_v
	addl	$1, %eax
	addl	-12(%rbp), %eax
	movl	%eax, -12(%rbp)
.LBB29_9:                               # %if.end26
                                        #   in Loop: Header=BB29_4 Depth=1
	cmpl	$2, -16(%rbp)
	jne	.LBB29_11
# %bb.10:                               # %if.then29
                                        #   in Loop: Header=BB29_4 Depth=1
	movq	-24(%rbp), %rax
	movl	8(%rax), %esi
	movq	-32(%rbp), %rdx
	movabsq	$.L.str.39, %rdi
	callq	ue_v
	addl	-12(%rbp), %eax
	movl	%eax, -12(%rbp)
.LBB29_11:                              # %if.end32
                                        #   in Loop: Header=BB29_4 Depth=1
	cmpl	$3, -16(%rbp)
	je	.LBB29_13
# %bb.12:                               # %lor.lhs.false35
                                        #   in Loop: Header=BB29_4 Depth=1
	cmpl	$6, -16(%rbp)
	jne	.LBB29_14
.LBB29_13:                              # %if.then38
                                        #   in Loop: Header=BB29_4 Depth=1
	movq	-24(%rbp), %rax
	movl	12(%rax), %esi
	movq	-32(%rbp), %rdx
	movabsq	$.L.str.40, %rdi
	callq	ue_v
	addl	-12(%rbp), %eax
	movl	%eax, -12(%rbp)
.LBB29_14:                              # %if.end41
                                        #   in Loop: Header=BB29_4 Depth=1
	cmpl	$4, -16(%rbp)
	jne	.LBB29_16
# %bb.15:                               # %if.then44
                                        #   in Loop: Header=BB29_4 Depth=1
	movq	-24(%rbp), %rax
	movl	16(%rax), %esi
	movq	-32(%rbp), %rdx
	movabsq	$.L.str.41, %rdi
	callq	ue_v
	addl	-12(%rbp), %eax
	movl	%eax, -12(%rbp)
.LBB29_16:                              # %if.end47
                                        #   in Loop: Header=BB29_4 Depth=1
	movq	-24(%rbp), %rax
	movq	24(%rax), %rax
	movq	%rax, -24(%rbp)
# %bb.17:                               # %do.cond
                                        #   in Loop: Header=BB29_4 Depth=1
	cmpl	$0, -16(%rbp)
	jne	.LBB29_4
# %bb.18:                               # %do.end
	jmp	.LBB29_19
.LBB29_19:                              # %if.end50
	jmp	.LBB29_20
.LBB29_20:                              # %if.end51
	movl	-12(%rbp), %ebx
	cmpl	$63111714, -40(%rbp)    # imm = 0x3C30222
	jne	.LBB29_22
.LBB29_21:
	movl	%ebx, %eax
	addq	$40, %rsp
	popq	%rbx
	popq	%rbp
	.cfi_def_cfa %rsp, 8
	retq
.LBB29_22:                              # %func_exit
	.cfi_def_cfa %rbp, 16
	callq	detect_breach
	jmp	.LBB29_21
.Lfunc_end29:
	.size	dec_ref_pic_marking.24, .Lfunc_end29-dec_ref_pic_marking.24
	.cfi_endproc
                                        # -- End function
	.p2align	4, 0x90         # -- Begin function pred_weight_table.25
	.type	pred_weight_table.25,@function
pred_weight_table.25:                   # @pred_weight_table.25
	.cfi_startproc
# %bb.0:                                # %entry
	pushq	%rbp
	.cfi_def_cfa_offset 16
	.cfi_offset %rbp, -16
	movq	%rsp, %rbp
	.cfi_def_cfa_register %rbp
	pushq	%rbx
	subq	$40, %rsp
	.cfi_offset %rbx, -24
	movl	$1991375061, -36(%rbp)  # imm = 0x76B1F8D5
	movq	input, %rax
	movslq	2364(%rax), %rax
	movq	assignSE2partition(,%rax,8), %rax
	movl	(%rax), %eax
	movl	%eax, -40(%rbp)
	movq	img, %rax
	movq	14160(%rax), %rax
	movq	24(%rax), %rax
	movslq	-40(%rbp), %rcx
	imulq	$120, %rcx, %rcx
	addq	%rcx, %rax
	movq	%rax, -32(%rbp)
	movl	$0, -12(%rbp)
	movl	luma_log_weight_denom, %esi
	movq	-32(%rbp), %rdx
	movabsq	$.L.str.42, %rdi
	callq	ue_v
	addl	-12(%rbp), %eax
	movl	%eax, -12(%rbp)
	movl	chroma_log_weight_denom, %esi
	movq	-32(%rbp), %rdx
	movabsq	$.L.str.43, %rdi
	callq	ue_v
	addl	-12(%rbp), %eax
	movl	%eax, -12(%rbp)
	movl	$0, -16(%rbp)
.LBB30_1:                               # %for.cond
                                        # =>This Loop Header: Depth=1
                                        #     Child Loop BB30_11 Depth 2
	movl	-16(%rbp), %eax
	movq	img, %rcx
	cmpl	72000(%rcx), %eax
	jge	.LBB30_18
# %bb.2:                                # %for.body
                                        #   in Loop: Header=BB30_1 Depth=1
	movq	wp_weight, %rax
	movq	(%rax), %rax
	movslq	-16(%rbp), %rcx
	movq	(%rax,%rcx,8), %rax
	movl	(%rax), %eax
	movl	luma_log_weight_denom, %ecx
                                        # kill: def $cl killed $ecx
	movl	$1, %edx
	shll	%cl, %edx
	cmpl	%edx, %eax
	jne	.LBB30_4
# %bb.3:                                # %lor.lhs.false
                                        #   in Loop: Header=BB30_1 Depth=1
	movq	wp_offset, %rax
	movq	(%rax), %rax
	movslq	-16(%rbp), %rcx
	movq	(%rax,%rcx,8), %rax
	cmpl	$0, (%rax)
	je	.LBB30_5
.LBB30_4:                               # %if.then
                                        #   in Loop: Header=BB30_1 Depth=1
	movq	-32(%rbp), %rdx
	movabsq	$.L.str.44, %rdi
	movl	$1, %esi
	callq	u_1
	addl	-12(%rbp), %eax
	movl	%eax, -12(%rbp)
	movq	wp_weight, %rax
	movq	(%rax), %rax
	movslq	-16(%rbp), %rcx
	movq	(%rax,%rcx,8), %rax
	movl	(%rax), %esi
	movq	-32(%rbp), %rdx
	movabsq	$.L.str.45, %rdi
	callq	se_v
	addl	-12(%rbp), %eax
	movl	%eax, -12(%rbp)
	movq	wp_offset, %rax
	movq	(%rax), %rax
	movslq	-16(%rbp), %rcx
	movq	(%rax,%rcx,8), %rax
	movl	(%rax), %esi
	movq	-32(%rbp), %rdx
	movabsq	$.L.str.46, %rdi
	callq	se_v
	addl	-12(%rbp), %eax
	movl	%eax, -12(%rbp)
	jmp	.LBB30_6
.LBB30_5:                               # %if.else
                                        #   in Loop: Header=BB30_1 Depth=1
	movq	-32(%rbp), %rdx
	movabsq	$.L.str.44, %rdi
	xorl	%esi, %esi
	callq	u_1
	addl	-12(%rbp), %eax
	movl	%eax, -12(%rbp)
.LBB30_6:                               # %if.end
                                        #   in Loop: Header=BB30_1 Depth=1
	movq	wp_weight, %rax
	movq	(%rax), %rax
	movslq	-16(%rbp), %rcx
	movq	(%rax,%rcx,8), %rax
	movl	4(%rax), %eax
	movl	chroma_log_weight_denom, %ecx
                                        # kill: def $cl killed $ecx
	movl	$1, %edx
	shll	%cl, %edx
	cmpl	%edx, %eax
	jne	.LBB30_10
# %bb.7:                                # %lor.lhs.false38
                                        #   in Loop: Header=BB30_1 Depth=1
	movq	wp_offset, %rax
	movq	(%rax), %rax
	movslq	-16(%rbp), %rcx
	movq	(%rax,%rcx,8), %rax
	cmpl	$0, 4(%rax)
	jne	.LBB30_10
# %bb.8:                                # %lor.lhs.false44
                                        #   in Loop: Header=BB30_1 Depth=1
	movq	wp_weight, %rax
	movq	(%rax), %rax
	movslq	-16(%rbp), %rcx
	movq	(%rax,%rcx,8), %rax
	movl	8(%rax), %eax
	movl	chroma_log_weight_denom, %ecx
                                        # kill: def $cl killed $ecx
	movl	$1, %edx
	shll	%cl, %edx
	cmpl	%edx, %eax
	jne	.LBB30_10
# %bb.9:                                # %lor.lhs.false51
                                        #   in Loop: Header=BB30_1 Depth=1
	movq	wp_offset, %rax
	movq	(%rax), %rax
	movslq	-16(%rbp), %rcx
	movq	(%rax,%rcx,8), %rax
	cmpl	$0, 8(%rax)
	je	.LBB30_15
.LBB30_10:                              # %if.then57
                                        #   in Loop: Header=BB30_1 Depth=1
	movq	-32(%rbp), %rdx
	movabsq	$.L.str.47, %rdi
	movl	$1, %esi
	callq	u_1
	addl	-12(%rbp), %eax
	movl	%eax, -12(%rbp)
	movl	$1, -20(%rbp)
.LBB30_11:                              # %for.cond60
                                        #   Parent Loop BB30_1 Depth=1
                                        # =>  This Inner Loop Header: Depth=2
	cmpl	$3, -20(%rbp)
	jge	.LBB30_14
# %bb.12:                               # %for.body62
                                        #   in Loop: Header=BB30_11 Depth=2
	movq	wp_weight, %rax
	movq	(%rax), %rax
	movslq	-16(%rbp), %rcx
	movq	(%rax,%rcx,8), %rax
	movslq	-20(%rbp), %rcx
	movl	(%rax,%rcx,4), %esi
	movq	-32(%rbp), %rdx
	movabsq	$.L.str.48, %rdi
	callq	se_v
	addl	-12(%rbp), %eax
	movl	%eax, -12(%rbp)
	movq	wp_offset, %rax
	movq	(%rax), %rax
	movslq	-16(%rbp), %rcx
	movq	(%rax,%rcx,8), %rax
	movslq	-20(%rbp), %rcx
	movl	(%rax,%rcx,4), %esi
	movq	-32(%rbp), %rdx
	movabsq	$.L.str.49, %rdi
	callq	se_v
	addl	-12(%rbp), %eax
	movl	%eax, -12(%rbp)
# %bb.13:                               # %for.inc
                                        #   in Loop: Header=BB30_11 Depth=2
	movl	-20(%rbp), %eax
	addl	$1, %eax
	movl	%eax, -20(%rbp)
	jmp	.LBB30_11
.LBB30_14:                              # %for.end
                                        #   in Loop: Header=BB30_1 Depth=1
	jmp	.LBB30_16
.LBB30_15:                              # %if.else77
                                        #   in Loop: Header=BB30_1 Depth=1
	movq	-32(%rbp), %rdx
	movabsq	$.L.str.47, %rdi
	xorl	%esi, %esi
	callq	u_1
	addl	-12(%rbp), %eax
	movl	%eax, -12(%rbp)
.LBB30_16:                              # %if.end80
                                        #   in Loop: Header=BB30_1 Depth=1
	jmp	.LBB30_17
.LBB30_17:                              # %for.inc81
                                        #   in Loop: Header=BB30_1 Depth=1
	movl	-16(%rbp), %eax
	addl	$1, %eax
	movl	%eax, -16(%rbp)
	jmp	.LBB30_1
.LBB30_18:                              # %for.end83
	movq	img, %rax
	cmpl	$1, 24(%rax)
	jne	.LBB30_38
# %bb.19:                               # %if.then85
	movl	$0, -16(%rbp)
.LBB30_20:                              # %for.cond86
                                        # =>This Loop Header: Depth=1
                                        #     Child Loop BB30_30 Depth 2
	movl	-16(%rbp), %eax
	movq	img, %rcx
	cmpl	72004(%rcx), %eax
	jge	.LBB30_37
# %bb.21:                               # %for.body88
                                        #   in Loop: Header=BB30_20 Depth=1
	movq	wp_weight, %rax
	movq	8(%rax), %rax
	movslq	-16(%rbp), %rcx
	movq	(%rax,%rcx,8), %rax
	movl	(%rax), %eax
	movl	luma_log_weight_denom, %ecx
                                        # kill: def $cl killed $ecx
	movl	$1, %edx
	shll	%cl, %edx
	cmpl	%edx, %eax
	jne	.LBB30_23
# %bb.22:                               # %lor.lhs.false95
                                        #   in Loop: Header=BB30_20 Depth=1
	movq	wp_offset, %rax
	movq	8(%rax), %rax
	movslq	-16(%rbp), %rcx
	movq	(%rax,%rcx,8), %rax
	cmpl	$0, (%rax)
	je	.LBB30_24
.LBB30_23:                              # %if.then101
                                        #   in Loop: Header=BB30_20 Depth=1
	movq	-32(%rbp), %rdx
	movabsq	$.L.str.50, %rdi
	movl	$1, %esi
	callq	u_1
	addl	-12(%rbp), %eax
	movl	%eax, -12(%rbp)
	movq	wp_weight, %rax
	movq	8(%rax), %rax
	movslq	-16(%rbp), %rcx
	movq	(%rax,%rcx,8), %rax
	movl	(%rax), %esi
	movq	-32(%rbp), %rdx
	movabsq	$.L.str.51, %rdi
	callq	se_v
	addl	-12(%rbp), %eax
	movl	%eax, -12(%rbp)
	movq	wp_offset, %rax
	movq	8(%rax), %rax
	movslq	-16(%rbp), %rcx
	movq	(%rax,%rcx,8), %rax
	movl	(%rax), %esi
	movq	-32(%rbp), %rdx
	movabsq	$.L.str.52, %rdi
	callq	se_v
	addl	-12(%rbp), %eax
	movl	%eax, -12(%rbp)
	jmp	.LBB30_25
.LBB30_24:                              # %if.else116
                                        #   in Loop: Header=BB30_20 Depth=1
	movq	-32(%rbp), %rdx
	movabsq	$.L.str.50, %rdi
	xorl	%esi, %esi
	callq	u_1
	addl	-12(%rbp), %eax
	movl	%eax, -12(%rbp)
.LBB30_25:                              # %if.end119
                                        #   in Loop: Header=BB30_20 Depth=1
	movq	wp_weight, %rax
	movq	8(%rax), %rax
	movslq	-16(%rbp), %rcx
	movq	(%rax,%rcx,8), %rax
	movl	4(%rax), %eax
	movl	chroma_log_weight_denom, %ecx
                                        # kill: def $cl killed $ecx
	movl	$1, %edx
	shll	%cl, %edx
	cmpl	%edx, %eax
	jne	.LBB30_29
# %bb.26:                               # %lor.lhs.false126
                                        #   in Loop: Header=BB30_20 Depth=1
	movq	wp_offset, %rax
	movq	8(%rax), %rax
	movslq	-16(%rbp), %rcx
	movq	(%rax,%rcx,8), %rax
	cmpl	$0, 4(%rax)
	jne	.LBB30_29
# %bb.27:                               # %lor.lhs.false132
                                        #   in Loop: Header=BB30_20 Depth=1
	movq	wp_weight, %rax
	movq	8(%rax), %rax
	movslq	-16(%rbp), %rcx
	movq	(%rax,%rcx,8), %rax
	movl	8(%rax), %eax
	movl	chroma_log_weight_denom, %ecx
                                        # kill: def $cl killed $ecx
	movl	$1, %edx
	shll	%cl, %edx
	cmpl	%edx, %eax
	jne	.LBB30_29
# %bb.28:                               # %lor.lhs.false139
                                        #   in Loop: Header=BB30_20 Depth=1
	movq	wp_offset, %rax
	movq	8(%rax), %rax
	movslq	-16(%rbp), %rcx
	movq	(%rax,%rcx,8), %rax
	cmpl	$0, 8(%rax)
	je	.LBB30_34
.LBB30_29:                              # %if.then145
                                        #   in Loop: Header=BB30_20 Depth=1
	movq	-32(%rbp), %rdx
	movabsq	$.L.str.53, %rdi
	movl	$1, %esi
	callq	u_1
	addl	-12(%rbp), %eax
	movl	%eax, -12(%rbp)
	movl	$1, -20(%rbp)
.LBB30_30:                              # %for.cond148
                                        #   Parent Loop BB30_20 Depth=1
                                        # =>  This Inner Loop Header: Depth=2
	cmpl	$3, -20(%rbp)
	jge	.LBB30_33
# %bb.31:                               # %for.body150
                                        #   in Loop: Header=BB30_30 Depth=2
	movq	wp_weight, %rax
	movq	8(%rax), %rax
	movslq	-16(%rbp), %rcx
	movq	(%rax,%rcx,8), %rax
	movslq	-20(%rbp), %rcx
	movl	(%rax,%rcx,4), %esi
	movq	-32(%rbp), %rdx
	movabsq	$.L.str.54, %rdi
	callq	se_v
	addl	-12(%rbp), %eax
	movl	%eax, -12(%rbp)
	movq	wp_offset, %rax
	movq	8(%rax), %rax
	movslq	-16(%rbp), %rcx
	movq	(%rax,%rcx,8), %rax
	movslq	-20(%rbp), %rcx
	movl	(%rax,%rcx,4), %esi
	movq	-32(%rbp), %rdx
	movabsq	$.L.str.55, %rdi
	callq	se_v
	addl	-12(%rbp), %eax
	movl	%eax, -12(%rbp)
# %bb.32:                               # %for.inc165
                                        #   in Loop: Header=BB30_30 Depth=2
	movl	-20(%rbp), %eax
	addl	$1, %eax
	movl	%eax, -20(%rbp)
	jmp	.LBB30_30
.LBB30_33:                              # %for.end167
                                        #   in Loop: Header=BB30_20 Depth=1
	jmp	.LBB30_35
.LBB30_34:                              # %if.else168
                                        #   in Loop: Header=BB30_20 Depth=1
	movq	-32(%rbp), %rdx
	movabsq	$.L.str.53, %rdi
	xorl	%esi, %esi
	callq	u_1
	addl	-12(%rbp), %eax
	movl	%eax, -12(%rbp)
.LBB30_35:                              # %if.end171
                                        #   in Loop: Header=BB30_20 Depth=1
	jmp	.LBB30_36
.LBB30_36:                              # %for.inc172
                                        #   in Loop: Header=BB30_20 Depth=1
	movl	-16(%rbp), %eax
	addl	$1, %eax
	movl	%eax, -16(%rbp)
	jmp	.LBB30_20
.LBB30_37:                              # %for.end174
	jmp	.LBB30_38
.LBB30_38:                              # %if.end175
	movl	-12(%rbp), %ebx
	cmpl	$1991375061, -36(%rbp)  # imm = 0x76B1F8D5
	jne	.LBB30_40
.LBB30_39:
	movl	%ebx, %eax
	addq	$40, %rsp
	popq	%rbx
	popq	%rbp
	.cfi_def_cfa %rsp, 8
	retq
.LBB30_40:                              # %func_exit
	.cfi_def_cfa %rbp, 16
	callq	detect_breach
	jmp	.LBB30_39
.Lfunc_end30:
	.size	pred_weight_table.25, .Lfunc_end30-pred_weight_table.25
	.cfi_endproc
                                        # -- End function
	.p2align	4, 0x90         # -- Begin function pred_weight_table.26
	.type	pred_weight_table.26,@function
pred_weight_table.26:                   # @pred_weight_table.26
	.cfi_startproc
# %bb.0:                                # %entry
	pushq	%rbp
	.cfi_def_cfa_offset 16
	.cfi_offset %rbp, -16
	movq	%rsp, %rbp
	.cfi_def_cfa_register %rbp
	pushq	%rbx
	subq	$40, %rsp
	.cfi_offset %rbx, -24
	movl	$1415088563, -40(%rbp)  # imm = 0x545889B3
	movq	input, %rax
	movslq	2364(%rax), %rax
	movq	assignSE2partition(,%rax,8), %rax
	movl	(%rax), %eax
	movl	%eax, -36(%rbp)
	movq	img, %rax
	movq	14160(%rax), %rax
	movq	24(%rax), %rax
	movslq	-36(%rbp), %rcx
	imulq	$120, %rcx, %rcx
	addq	%rcx, %rax
	movq	%rax, -32(%rbp)
	movl	$0, -12(%rbp)
	movl	luma_log_weight_denom, %esi
	movq	-32(%rbp), %rdx
	movabsq	$.L.str.42, %rdi
	callq	ue_v
	addl	-12(%rbp), %eax
	movl	%eax, -12(%rbp)
	movl	chroma_log_weight_denom, %esi
	movq	-32(%rbp), %rdx
	movabsq	$.L.str.43, %rdi
	callq	ue_v
	addl	-12(%rbp), %eax
	movl	%eax, -12(%rbp)
	movl	$0, -16(%rbp)
.LBB31_1:                               # %for.cond
                                        # =>This Loop Header: Depth=1
                                        #     Child Loop BB31_11 Depth 2
	movl	-16(%rbp), %eax
	movq	img, %rcx
	cmpl	72000(%rcx), %eax
	jge	.LBB31_18
# %bb.2:                                # %for.body
                                        #   in Loop: Header=BB31_1 Depth=1
	movq	wp_weight, %rax
	movq	(%rax), %rax
	movslq	-16(%rbp), %rcx
	movq	(%rax,%rcx,8), %rax
	movl	(%rax), %eax
	movl	luma_log_weight_denom, %ecx
                                        # kill: def $cl killed $ecx
	movl	$1, %edx
	shll	%cl, %edx
	cmpl	%edx, %eax
	jne	.LBB31_4
# %bb.3:                                # %lor.lhs.false
                                        #   in Loop: Header=BB31_1 Depth=1
	movq	wp_offset, %rax
	movq	(%rax), %rax
	movslq	-16(%rbp), %rcx
	movq	(%rax,%rcx,8), %rax
	cmpl	$0, (%rax)
	je	.LBB31_5
.LBB31_4:                               # %if.then
                                        #   in Loop: Header=BB31_1 Depth=1
	movq	-32(%rbp), %rdx
	movabsq	$.L.str.44, %rdi
	movl	$1, %esi
	callq	u_1
	addl	-12(%rbp), %eax
	movl	%eax, -12(%rbp)
	movq	wp_weight, %rax
	movq	(%rax), %rax
	movslq	-16(%rbp), %rcx
	movq	(%rax,%rcx,8), %rax
	movl	(%rax), %esi
	movq	-32(%rbp), %rdx
	movabsq	$.L.str.45, %rdi
	callq	se_v
	addl	-12(%rbp), %eax
	movl	%eax, -12(%rbp)
	movq	wp_offset, %rax
	movq	(%rax), %rax
	movslq	-16(%rbp), %rcx
	movq	(%rax,%rcx,8), %rax
	movl	(%rax), %esi
	movq	-32(%rbp), %rdx
	movabsq	$.L.str.46, %rdi
	callq	se_v
	addl	-12(%rbp), %eax
	movl	%eax, -12(%rbp)
	jmp	.LBB31_6
.LBB31_5:                               # %if.else
                                        #   in Loop: Header=BB31_1 Depth=1
	movq	-32(%rbp), %rdx
	movabsq	$.L.str.44, %rdi
	xorl	%esi, %esi
	callq	u_1
	addl	-12(%rbp), %eax
	movl	%eax, -12(%rbp)
.LBB31_6:                               # %if.end
                                        #   in Loop: Header=BB31_1 Depth=1
	movq	wp_weight, %rax
	movq	(%rax), %rax
	movslq	-16(%rbp), %rcx
	movq	(%rax,%rcx,8), %rax
	movl	4(%rax), %eax
	movl	chroma_log_weight_denom, %ecx
                                        # kill: def $cl killed $ecx
	movl	$1, %edx
	shll	%cl, %edx
	cmpl	%edx, %eax
	jne	.LBB31_10
# %bb.7:                                # %lor.lhs.false38
                                        #   in Loop: Header=BB31_1 Depth=1
	movq	wp_offset, %rax
	movq	(%rax), %rax
	movslq	-16(%rbp), %rcx
	movq	(%rax,%rcx,8), %rax
	cmpl	$0, 4(%rax)
	jne	.LBB31_10
# %bb.8:                                # %lor.lhs.false44
                                        #   in Loop: Header=BB31_1 Depth=1
	movq	wp_weight, %rax
	movq	(%rax), %rax
	movslq	-16(%rbp), %rcx
	movq	(%rax,%rcx,8), %rax
	movl	8(%rax), %eax
	movl	chroma_log_weight_denom, %ecx
                                        # kill: def $cl killed $ecx
	movl	$1, %edx
	shll	%cl, %edx
	cmpl	%edx, %eax
	jne	.LBB31_10
# %bb.9:                                # %lor.lhs.false51
                                        #   in Loop: Header=BB31_1 Depth=1
	movq	wp_offset, %rax
	movq	(%rax), %rax
	movslq	-16(%rbp), %rcx
	movq	(%rax,%rcx,8), %rax
	cmpl	$0, 8(%rax)
	je	.LBB31_15
.LBB31_10:                              # %if.then57
                                        #   in Loop: Header=BB31_1 Depth=1
	movq	-32(%rbp), %rdx
	movabsq	$.L.str.47, %rdi
	movl	$1, %esi
	callq	u_1
	addl	-12(%rbp), %eax
	movl	%eax, -12(%rbp)
	movl	$1, -20(%rbp)
.LBB31_11:                              # %for.cond60
                                        #   Parent Loop BB31_1 Depth=1
                                        # =>  This Inner Loop Header: Depth=2
	cmpl	$3, -20(%rbp)
	jge	.LBB31_14
# %bb.12:                               # %for.body62
                                        #   in Loop: Header=BB31_11 Depth=2
	movq	wp_weight, %rax
	movq	(%rax), %rax
	movslq	-16(%rbp), %rcx
	movq	(%rax,%rcx,8), %rax
	movslq	-20(%rbp), %rcx
	movl	(%rax,%rcx,4), %esi
	movq	-32(%rbp), %rdx
	movabsq	$.L.str.48, %rdi
	callq	se_v
	addl	-12(%rbp), %eax
	movl	%eax, -12(%rbp)
	movq	wp_offset, %rax
	movq	(%rax), %rax
	movslq	-16(%rbp), %rcx
	movq	(%rax,%rcx,8), %rax
	movslq	-20(%rbp), %rcx
	movl	(%rax,%rcx,4), %esi
	movq	-32(%rbp), %rdx
	movabsq	$.L.str.49, %rdi
	callq	se_v
	addl	-12(%rbp), %eax
	movl	%eax, -12(%rbp)
# %bb.13:                               # %for.inc
                                        #   in Loop: Header=BB31_11 Depth=2
	movl	-20(%rbp), %eax
	addl	$1, %eax
	movl	%eax, -20(%rbp)
	jmp	.LBB31_11
.LBB31_14:                              # %for.end
                                        #   in Loop: Header=BB31_1 Depth=1
	jmp	.LBB31_16
.LBB31_15:                              # %if.else77
                                        #   in Loop: Header=BB31_1 Depth=1
	movq	-32(%rbp), %rdx
	movabsq	$.L.str.47, %rdi
	xorl	%esi, %esi
	callq	u_1
	addl	-12(%rbp), %eax
	movl	%eax, -12(%rbp)
.LBB31_16:                              # %if.end80
                                        #   in Loop: Header=BB31_1 Depth=1
	jmp	.LBB31_17
.LBB31_17:                              # %for.inc81
                                        #   in Loop: Header=BB31_1 Depth=1
	movl	-16(%rbp), %eax
	addl	$1, %eax
	movl	%eax, -16(%rbp)
	jmp	.LBB31_1
.LBB31_18:                              # %for.end83
	movq	img, %rax
	cmpl	$1, 24(%rax)
	jne	.LBB31_38
# %bb.19:                               # %if.then85
	movl	$0, -16(%rbp)
.LBB31_20:                              # %for.cond86
                                        # =>This Loop Header: Depth=1
                                        #     Child Loop BB31_30 Depth 2
	movl	-16(%rbp), %eax
	movq	img, %rcx
	cmpl	72004(%rcx), %eax
	jge	.LBB31_37
# %bb.21:                               # %for.body88
                                        #   in Loop: Header=BB31_20 Depth=1
	movq	wp_weight, %rax
	movq	8(%rax), %rax
	movslq	-16(%rbp), %rcx
	movq	(%rax,%rcx,8), %rax
	movl	(%rax), %eax
	movl	luma_log_weight_denom, %ecx
                                        # kill: def $cl killed $ecx
	movl	$1, %edx
	shll	%cl, %edx
	cmpl	%edx, %eax
	jne	.LBB31_23
# %bb.22:                               # %lor.lhs.false95
                                        #   in Loop: Header=BB31_20 Depth=1
	movq	wp_offset, %rax
	movq	8(%rax), %rax
	movslq	-16(%rbp), %rcx
	movq	(%rax,%rcx,8), %rax
	cmpl	$0, (%rax)
	je	.LBB31_24
.LBB31_23:                              # %if.then101
                                        #   in Loop: Header=BB31_20 Depth=1
	movq	-32(%rbp), %rdx
	movabsq	$.L.str.50, %rdi
	movl	$1, %esi
	callq	u_1
	addl	-12(%rbp), %eax
	movl	%eax, -12(%rbp)
	movq	wp_weight, %rax
	movq	8(%rax), %rax
	movslq	-16(%rbp), %rcx
	movq	(%rax,%rcx,8), %rax
	movl	(%rax), %esi
	movq	-32(%rbp), %rdx
	movabsq	$.L.str.51, %rdi
	callq	se_v
	addl	-12(%rbp), %eax
	movl	%eax, -12(%rbp)
	movq	wp_offset, %rax
	movq	8(%rax), %rax
	movslq	-16(%rbp), %rcx
	movq	(%rax,%rcx,8), %rax
	movl	(%rax), %esi
	movq	-32(%rbp), %rdx
	movabsq	$.L.str.52, %rdi
	callq	se_v
	addl	-12(%rbp), %eax
	movl	%eax, -12(%rbp)
	jmp	.LBB31_25
.LBB31_24:                              # %if.else116
                                        #   in Loop: Header=BB31_20 Depth=1
	movq	-32(%rbp), %rdx
	movabsq	$.L.str.50, %rdi
	xorl	%esi, %esi
	callq	u_1
	addl	-12(%rbp), %eax
	movl	%eax, -12(%rbp)
.LBB31_25:                              # %if.end119
                                        #   in Loop: Header=BB31_20 Depth=1
	movq	wp_weight, %rax
	movq	8(%rax), %rax
	movslq	-16(%rbp), %rcx
	movq	(%rax,%rcx,8), %rax
	movl	4(%rax), %eax
	movl	chroma_log_weight_denom, %ecx
                                        # kill: def $cl killed $ecx
	movl	$1, %edx
	shll	%cl, %edx
	cmpl	%edx, %eax
	jne	.LBB31_29
# %bb.26:                               # %lor.lhs.false126
                                        #   in Loop: Header=BB31_20 Depth=1
	movq	wp_offset, %rax
	movq	8(%rax), %rax
	movslq	-16(%rbp), %rcx
	movq	(%rax,%rcx,8), %rax
	cmpl	$0, 4(%rax)
	jne	.LBB31_29
# %bb.27:                               # %lor.lhs.false132
                                        #   in Loop: Header=BB31_20 Depth=1
	movq	wp_weight, %rax
	movq	8(%rax), %rax
	movslq	-16(%rbp), %rcx
	movq	(%rax,%rcx,8), %rax
	movl	8(%rax), %eax
	movl	chroma_log_weight_denom, %ecx
                                        # kill: def $cl killed $ecx
	movl	$1, %edx
	shll	%cl, %edx
	cmpl	%edx, %eax
	jne	.LBB31_29
# %bb.28:                               # %lor.lhs.false139
