	.text
	.file	"header.c"
	.globl	SliceHeader             # -- Begin function SliceHeader
	.p2align	4, 0x90
	.type	SliceHeader,@function
SliceHeader:                            # @SliceHeader
	.cfi_startproc
# %bb.0:                                # %rand_bb
	pushq	%rbp
	.cfi_def_cfa_offset 16
	.cfi_offset %rbp, -16
	movq	%rsp, %rbp
	.cfi_def_cfa_register %rbp
	callq	get_rand
	cmpl	$0, %eax
	jne	.LBB0_9
# %bb.1:                                # %func_SliceHeader.9
	callq	SliceHeader.9
	popq	%rbp
	.cfi_def_cfa %rsp, 8
	retq
.LBB0_2:                                # %func_SliceHeader.12
	.cfi_def_cfa %rbp, 16
	callq	SliceHeader.12
	popq	%rbp
	.cfi_def_cfa %rsp, 8
	retq
.LBB0_3:                                # %func_SliceHeader.14
	.cfi_def_cfa %rbp, 16
	callq	SliceHeader.14
	popq	%rbp
	.cfi_def_cfa %rsp, 8
	retq
.LBB0_4:                                # %func_SliceHeader.16
	.cfi_def_cfa %rbp, 16
	callq	SliceHeader.16
	popq	%rbp
	.cfi_def_cfa %rsp, 8
	retq
.LBB0_5:                                # %func_SliceHeader.23
	.cfi_def_cfa %rbp, 16
	callq	SliceHeader.23
	popq	%rbp
	.cfi_def_cfa %rsp, 8
	retq
.LBB0_6:                                # %func_SliceHeader.28
	.cfi_def_cfa %rbp, 16
	callq	SliceHeader.28
	popq	%rbp
	.cfi_def_cfa %rsp, 8
	retq
.LBB0_7:                                # %func_SliceHeader.30
	.cfi_def_cfa %rbp, 16
	callq	SliceHeader.30
	popq	%rbp
	.cfi_def_cfa %rsp, 8
	retq
.LBB0_8:                                # %func_SliceHeader.32
	.cfi_def_cfa %rbp, 16
	callq	SliceHeader.32
	popq	%rbp
	.cfi_def_cfa %rsp, 8
	retq
.LBB0_9:                                # %ctrl0
	.cfi_def_cfa %rbp, 16
	cmpl	$1, %eax
	je	.LBB0_2
# %bb.10:                               # %ctrl1
	cmpl	$2, %eax
	je	.LBB0_3
# %bb.11:                               # %ctrl2
	cmpl	$3, %eax
	je	.LBB0_4
# %bb.12:                               # %ctrl3
	cmpl	$4, %eax
	je	.LBB0_5
# %bb.13:                               # %ctrl4
	cmpl	$5, %eax
	je	.LBB0_6
# %bb.14:                               # %ctrl5
	cmpl	$6, %eax
	je	.LBB0_7
	jmp	.LBB0_8
.Lfunc_end0:
	.size	SliceHeader, .Lfunc_end0-SliceHeader
	.cfi_endproc
                                        # -- End function
	.globl	get_picture_type        # -- Begin function get_picture_type
	.p2align	4, 0x90
	.type	get_picture_type,@function
get_picture_type:                       # @get_picture_type
	.cfi_startproc
# %bb.0:                                # %rand_bb
	pushq	%rbp
	.cfi_def_cfa_offset 16
	.cfi_offset %rbp, -16
	movq	%rsp, %rbp
	.cfi_def_cfa_register %rbp
	callq	get_rand
	cmpl	$0, %eax
	jne	.LBB1_2
# %bb.1:                                # %func_get_picture_type.2
	callq	get_picture_type.2
	popq	%rbp
	.cfi_def_cfa %rsp, 8
	retq
.LBB1_2:                                # %func_get_picture_type.13
	.cfi_def_cfa %rbp, 16
	callq	get_picture_type.13
	popq	%rbp
	.cfi_def_cfa %rsp, 8
	retq
.Lfunc_end1:
	.size	get_picture_type, .Lfunc_end1-get_picture_type
	.cfi_endproc
                                        # -- End function
	.globl	Partition_BC_Header     # -- Begin function Partition_BC_Header
	.p2align	4, 0x90
	.type	Partition_BC_Header,@function
Partition_BC_Header:                    # @Partition_BC_Header
	.cfi_startproc
# %bb.0:                                # %rand_bb
	pushq	%rbp
	.cfi_def_cfa_offset 16
	.cfi_offset %rbp, -16
	movq	%rsp, %rbp
	.cfi_def_cfa_register %rbp
	pushq	%rbx
	pushq	%rax
	.cfi_offset %rbx, -24
	movl	%edi, %ebx
	callq	get_rand
	cmpl	$0, %eax
	jne	.LBB2_9
# %bb.1:                                # %func_Partition_BC_Header.1
	movl	%ebx, %edi
	callq	Partition_BC_Header.1
	addq	$8, %rsp
	popq	%rbx
	popq	%rbp
	.cfi_def_cfa %rsp, 8
	retq
.LBB2_2:                                # %func_Partition_BC_Header.4
	.cfi_def_cfa %rbp, 16
	movl	%ebx, %edi
	callq	Partition_BC_Header.4
	addq	$8, %rsp
	popq	%rbx
	popq	%rbp
	.cfi_def_cfa %rsp, 8
	retq
.LBB2_3:                                # %func_Partition_BC_Header.15
	.cfi_def_cfa %rbp, 16
	movl	%ebx, %edi
	callq	Partition_BC_Header.15
	addq	$8, %rsp
	popq	%rbx
	popq	%rbp
	.cfi_def_cfa %rsp, 8
	retq
.LBB2_4:                                # %func_Partition_BC_Header.21
	.cfi_def_cfa %rbp, 16
	movl	%ebx, %edi
	callq	Partition_BC_Header.21
	addq	$8, %rsp
	popq	%rbx
	popq	%rbp
	.cfi_def_cfa %rsp, 8
	retq
.LBB2_5:                                # %func_Partition_BC_Header.27
	.cfi_def_cfa %rbp, 16
	movl	%ebx, %edi
	callq	Partition_BC_Header.27
	addq	$8, %rsp
	popq	%rbx
	popq	%rbp
	.cfi_def_cfa %rsp, 8
	retq
.LBB2_6:                                # %func_Partition_BC_Header.37
	.cfi_def_cfa %rbp, 16
	movl	%ebx, %edi
	callq	Partition_BC_Header.37
	addq	$8, %rsp
	popq	%rbx
	popq	%rbp
	.cfi_def_cfa %rsp, 8
	retq
.LBB2_7:                                # %func_Partition_BC_Header.40
	.cfi_def_cfa %rbp, 16
	movl	%ebx, %edi
	callq	Partition_BC_Header.40
	addq	$8, %rsp
	popq	%rbx
	popq	%rbp
	.cfi_def_cfa %rsp, 8
	retq
.LBB2_8:                                # %func_Partition_BC_Header.42
	.cfi_def_cfa %rbp, 16
	movl	%ebx, %edi
	callq	Partition_BC_Header.42
	addq	$8, %rsp
	popq	%rbx
	popq	%rbp
	.cfi_def_cfa %rsp, 8
	retq
.LBB2_9:                                # %ctrl0
	.cfi_def_cfa %rbp, 16
	cmpl	$1, %eax
	je	.LBB2_2
# %bb.10:                               # %ctrl1
	cmpl	$2, %eax
	je	.LBB2_3
# %bb.11:                               # %ctrl2
	cmpl	$3, %eax
	je	.LBB2_4
# %bb.12:                               # %ctrl3
	cmpl	$4, %eax
	je	.LBB2_5
# %bb.13:                               # %ctrl4
	cmpl	$5, %eax
	je	.LBB2_6
# %bb.14:                               # %ctrl5
	cmpl	$6, %eax
	je	.LBB2_7
	jmp	.LBB2_8
.Lfunc_end2:
	.size	Partition_BC_Header, .Lfunc_end2-Partition_BC_Header
	.cfi_endproc
                                        # -- End function
	.p2align	4, 0x90         # -- Begin function ref_pic_list_reordering
	.type	ref_pic_list_reordering,@function
ref_pic_list_reordering:                # @ref_pic_list_reordering
	.cfi_startproc
# %bb.0:                                # %rand_bb
	pushq	%rbp
	.cfi_def_cfa_offset 16
	.cfi_offset %rbp, -16
	movq	%rsp, %rbp
	.cfi_def_cfa_register %rbp
	callq	get_rand
	cmpl	$0, %eax
	jne	.LBB3_9
# %bb.1:                                # %func_ref_pic_list_reordering.7
	callq	ref_pic_list_reordering.7
	popq	%rbp
	.cfi_def_cfa %rsp, 8
	retq
.LBB3_2:                                # %func_ref_pic_list_reordering.8
	.cfi_def_cfa %rbp, 16
	callq	ref_pic_list_reordering.8
	popq	%rbp
	.cfi_def_cfa %rsp, 8
	retq
.LBB3_3:                                # %func_ref_pic_list_reordering.11
	.cfi_def_cfa %rbp, 16
	callq	ref_pic_list_reordering.11
	popq	%rbp
	.cfi_def_cfa %rsp, 8
	retq
.LBB3_4:                                # %func_ref_pic_list_reordering.18
	.cfi_def_cfa %rbp, 16
	callq	ref_pic_list_reordering.18
	popq	%rbp
	.cfi_def_cfa %rsp, 8
	retq
.LBB3_5:                                # %func_ref_pic_list_reordering.20
	.cfi_def_cfa %rbp, 16
	callq	ref_pic_list_reordering.20
	popq	%rbp
	.cfi_def_cfa %rsp, 8
	retq
.LBB3_6:                                # %func_ref_pic_list_reordering.29
	.cfi_def_cfa %rbp, 16
	callq	ref_pic_list_reordering.29
	popq	%rbp
	.cfi_def_cfa %rsp, 8
	retq
.LBB3_7:                                # %func_ref_pic_list_reordering.33
	.cfi_def_cfa %rbp, 16
	callq	ref_pic_list_reordering.33
	popq	%rbp
	.cfi_def_cfa %rsp, 8
	retq
.LBB3_8:                                # %func_ref_pic_list_reordering.38
	.cfi_def_cfa %rbp, 16
	callq	ref_pic_list_reordering.38
	popq	%rbp
	.cfi_def_cfa %rsp, 8
	retq
.LBB3_9:                                # %ctrl0
	.cfi_def_cfa %rbp, 16
	cmpl	$1, %eax
	je	.LBB3_2
# %bb.10:                               # %ctrl1
	cmpl	$2, %eax
	je	.LBB3_3
# %bb.11:                               # %ctrl2
	cmpl	$3, %eax
	je	.LBB3_4
# %bb.12:                               # %ctrl3
	cmpl	$4, %eax
	je	.LBB3_5
# %bb.13:                               # %ctrl4
	cmpl	$5, %eax
	je	.LBB3_6
# %bb.14:                               # %ctrl5
	cmpl	$6, %eax
	je	.LBB3_7
	jmp	.LBB3_8
.Lfunc_end3:
	.size	ref_pic_list_reordering, .Lfunc_end3-ref_pic_list_reordering
	.cfi_endproc
                                        # -- End function
	.p2align	4, 0x90         # -- Begin function dec_ref_pic_marking
	.type	dec_ref_pic_marking,@function
dec_ref_pic_marking:                    # @dec_ref_pic_marking
	.cfi_startproc
# %bb.0:                                # %rand_bb
	pushq	%rbp
	.cfi_def_cfa_offset 16
	.cfi_offset %rbp, -16
	movq	%rsp, %rbp
	.cfi_def_cfa_register %rbp
	callq	get_rand
	cmpl	$0, %eax
	jne	.LBB4_9
# %bb.1:                                # %func_dec_ref_pic_marking.6
	callq	dec_ref_pic_marking.6
	popq	%rbp
	.cfi_def_cfa %rsp, 8
	retq
.LBB4_2:                                # %func_dec_ref_pic_marking.17
	.cfi_def_cfa %rbp, 16
	callq	dec_ref_pic_marking.17
	popq	%rbp
	.cfi_def_cfa %rsp, 8
	retq
.LBB4_3:                                # %func_dec_ref_pic_marking.19
	.cfi_def_cfa %rbp, 16
	callq	dec_ref_pic_marking.19
	popq	%rbp
	.cfi_def_cfa %rsp, 8
	retq
.LBB4_4:                                # %func_dec_ref_pic_marking.22
	.cfi_def_cfa %rbp, 16
	callq	dec_ref_pic_marking.22
	popq	%rbp
	.cfi_def_cfa %rsp, 8
	retq
.LBB4_5:                                # %func_dec_ref_pic_marking.24
	.cfi_def_cfa %rbp, 16
	callq	dec_ref_pic_marking.24
	popq	%rbp
	.cfi_def_cfa %rsp, 8
	retq
.LBB4_6:                                # %func_dec_ref_pic_marking.31
	.cfi_def_cfa %rbp, 16
	callq	dec_ref_pic_marking.31
	popq	%rbp
	.cfi_def_cfa %rsp, 8
	retq
.LBB4_7:                                # %func_dec_ref_pic_marking.34
	.cfi_def_cfa %rbp, 16
	callq	dec_ref_pic_marking.34
	popq	%rbp
	.cfi_def_cfa %rsp, 8
	retq
.LBB4_8:                                # %func_dec_ref_pic_marking.35
	.cfi_def_cfa %rbp, 16
	callq	dec_ref_pic_marking.35
	popq	%rbp
	.cfi_def_cfa %rsp, 8
	retq
.LBB4_9:                                # %ctrl0
	.cfi_def_cfa %rbp, 16
	cmpl	$1, %eax
	je	.LBB4_2
# %bb.10:                               # %ctrl1
	cmpl	$2, %eax
	je	.LBB4_3
# %bb.11:                               # %ctrl2
	cmpl	$3, %eax
	je	.LBB4_4
# %bb.12:                               # %ctrl3
	cmpl	$4, %eax
	je	.LBB4_5
# %bb.13:                               # %ctrl4
	cmpl	$5, %eax
	je	.LBB4_6
# %bb.14:                               # %ctrl5
	cmpl	$6, %eax
	je	.LBB4_7
	jmp	.LBB4_8
.Lfunc_end4:
	.size	dec_ref_pic_marking, .Lfunc_end4-dec_ref_pic_marking
	.cfi_endproc
                                        # -- End function
	.p2align	4, 0x90         # -- Begin function pred_weight_table
	.type	pred_weight_table,@function
pred_weight_table:                      # @pred_weight_table
	.cfi_startproc
# %bb.0:                                # %rand_bb
	pushq	%rbp
	.cfi_def_cfa_offset 16
	.cfi_offset %rbp, -16
	movq	%rsp, %rbp
	.cfi_def_cfa_register %rbp
	callq	get_rand
	cmpl	$0, %eax
	jne	.LBB5_9
# %bb.1:                                # %func_pred_weight_table.3
	callq	pred_weight_table.3
	popq	%rbp
	.cfi_def_cfa %rsp, 8
	retq
.LBB5_2:                                # %func_pred_weight_table.5
	.cfi_def_cfa %rbp, 16
	callq	pred_weight_table.5
	popq	%rbp
	.cfi_def_cfa %rsp, 8
	retq
.LBB5_3:                                # %func_pred_weight_table.10
	.cfi_def_cfa %rbp, 16
	callq	pred_weight_table.10
	popq	%rbp
	.cfi_def_cfa %rsp, 8
	retq
.LBB5_4:                                # %func_pred_weight_table.25
	.cfi_def_cfa %rbp, 16
	callq	pred_weight_table.25
	popq	%rbp
	.cfi_def_cfa %rsp, 8
	retq
.LBB5_5:                                # %func_pred_weight_table.26
	.cfi_def_cfa %rbp, 16
	callq	pred_weight_table.26
	popq	%rbp
	.cfi_def_cfa %rsp, 8
	retq
.LBB5_6:                                # %func_pred_weight_table.36
	.cfi_def_cfa %rbp, 16
	callq	pred_weight_table.36
	popq	%rbp
	.cfi_def_cfa %rsp, 8
	retq
.LBB5_7:                                # %func_pred_weight_table.39
	.cfi_def_cfa %rbp, 16
	callq	pred_weight_table.39
	popq	%rbp
	.cfi_def_cfa %rsp, 8
	retq
.LBB5_8:                                # %func_pred_weight_table.41
	.cfi_def_cfa %rbp, 16
	callq	pred_weight_table.41
	popq	%rbp
	.cfi_def_cfa %rsp, 8
	retq
.LBB5_9:                                # %ctrl0
	.cfi_def_cfa %rbp, 16
	cmpl	$1, %eax
	je	.LBB5_2
# %bb.10:                               # %ctrl1
	cmpl	$2, %eax
	je	.LBB5_3
# %bb.11:                               # %ctrl2
	cmpl	$3, %eax
	je	.LBB5_4
# %bb.12:                               # %ctrl3
	cmpl	$4, %eax
	je	.LBB5_5
# %bb.13:                               # %ctrl4
	cmpl	$5, %eax
	je	.LBB5_6
# %bb.14:                               # %ctrl5
	cmpl	$6, %eax
	je	.LBB5_7
	jmp	.LBB5_8
.Lfunc_end5:
	.size	pred_weight_table, .Lfunc_end5-pred_weight_table
	.cfi_endproc
                                        # -- End function
	.globl	Partition_BC_Header.1   # -- Begin function Partition_BC_Header.1
	.p2align	4, 0x90
	.type	Partition_BC_Header.1,@function
Partition_BC_Header.1:                  # @Partition_BC_Header.1
	.cfi_startproc
# %bb.0:                                # %entry
	pushq	%rbp
	.cfi_def_cfa_offset 16
	.cfi_offset %rbp, -16
	movq	%rsp, %rbp
	.cfi_def_cfa_register %rbp
	pushq	%rbx
	subq	$88, %rsp
	.cfi_offset %rbx, -24
	movl	$847876454, -32(%rbp)   # imm = 0x32899166
	movl	%edi, -28(%rbp)
	movq	img, %rax
	movq	14160(%rax), %rax
	movq	24(%rax), %rax
	movslq	-28(%rbp), %rcx
	imulq	$120, %rcx, %rcx
	addq	%rcx, %rax
	movq	%rax, -40(%rbp)
	leaq	-88(%rbp), %rax
	movq	%rax, -24(%rbp)
	movl	$0, -12(%rbp)
	movq	-24(%rbp), %rax
	movl	$0, (%rax)
	movq	-24(%rbp), %rax
	movabsq	$ue_linfo, %rcx
	movq	%rcx, 32(%rax)
	movq	-24(%rbp), %rax
	movl	$0, 8(%rax)
	movq	img, %rax
	movl	20(%rax), %eax
	movq	-24(%rbp), %rcx
	movl	%eax, 4(%rcx)
	movq	-24(%rbp), %rdi
	movq	-40(%rbp), %rsi
	callq	writeSyntaxElement_UVLC
	addl	-12(%rbp), %eax
	movl	%eax, -12(%rbp)
	movq	active_pps, %rax
	cmpl	$0, 228(%rax)
	je	.LBB6_2
# %bb.1:                                # %if.then
	movq	img, %rax
	movq	14160(%rax), %rax
	movl	(%rax), %eax
	movq	-24(%rbp), %rcx
	movl	%eax, 4(%rcx)
	movq	-24(%rbp), %rdi
	movq	-40(%rbp), %rsi
	callq	writeSyntaxElement_UVLC
	addl	-12(%rbp), %eax
	movl	%eax, -12(%rbp)
.LBB6_2:                                # %if.end
	movl	-12(%rbp), %ebx
	cmpl	$847876454, -32(%rbp)   # imm = 0x32899166
	jne	.LBB6_4
.LBB6_3:
	movl	%ebx, %eax
	addq	$88, %rsp
	popq	%rbx
	popq	%rbp
	.cfi_def_cfa %rsp, 8
	retq
.LBB6_4:                                # %func_exit
	.cfi_def_cfa %rbp, 16
	callq	detect_breach
	jmp	.LBB6_3
.Lfunc_end6:
	.size	Partition_BC_Header.1, .Lfunc_end6-Partition_BC_Header.1
	.cfi_endproc
                                        # -- End function
	.globl	get_picture_type.2      # -- Begin function get_picture_type.2
	.p2align	4, 0x90
	.type	get_picture_type.2,@function
get_picture_type.2:                     # @get_picture_type.2
	.cfi_startproc
# %bb.0:                                # %entry
	pushq	%rbp
	.cfi_def_cfa_offset 16
	.cfi_offset %rbp, -16
	movq	%rsp, %rbp
	.cfi_def_cfa_register %rbp
	pushq	%rbx
	subq	$24, %rsp
	.cfi_offset %rbx, -24
	movl	$2143713375, -20(%rbp)  # imm = 0x7FC6785F
	movl	$5, -16(%rbp)
	movq	img(%rip), %rax
	movl	24(%rax), %eax
	movq	%rax, %rcx
	subq	$3, %rcx
	ja	.LBB7_6
# %bb.1:                                # %entry
	movq	.LJTI7_0(,%rax,8), %rax
	jmpq	*%rax
.LBB7_2:                                # %sw.bb
	movl	-16(%rbp), %eax
	addl	$2, %eax
	movl	%eax, -12(%rbp)
	jmp	.LBB7_8
.LBB7_3:                                # %sw.bb1
	movl	-16(%rbp), %eax
	addl	$0, %eax
	movl	%eax, -12(%rbp)
	jmp	.LBB7_8
.LBB7_4:                                # %sw.bb3
	movl	-16(%rbp), %eax
	addl	$1, %eax
	movl	%eax, -12(%rbp)
	jmp	.LBB7_8
.LBB7_5:                                # %sw.bb5
	movl	-16(%rbp), %eax
	addl	$3, %eax
	movl	%eax, -12(%rbp)
	jmp	.LBB7_8
.LBB7_6:                                # %sw.default
	movabsq	$.L.str.25, %rdi
	movl	$1, %esi
	callq	error
# %bb.7:                                # %sw.epilog
	movl	$0, -12(%rbp)
.LBB7_8:                                # %return
	movl	-12(%rbp), %ebx
	cmpl	$2143713375, -20(%rbp)  # imm = 0x7FC6785F
	jne	.LBB7_10
.LBB7_9:
	movl	%ebx, %eax
	addq	$24, %rsp
	popq	%rbx
	popq	%rbp
	.cfi_def_cfa %rsp, 8
	retq
.LBB7_10:                               # %func_exit
	.cfi_def_cfa %rbp, 16
	callq	detect_breach
	jmp	.LBB7_9
.Lfunc_end7:
	.size	get_picture_type.2, .Lfunc_end7-get_picture_type.2
	.cfi_endproc
	.section	.rodata,"a",@progbits
	.p2align	3
.LJTI7_0:
	.quad	.LBB7_3
	.quad	.LBB7_4
	.quad	.LBB7_2
	.quad	.LBB7_5
                                        # -- End function
	.text
	.p2align	4, 0x90         # -- Begin function pred_weight_table.3
	.type	pred_weight_table.3,@function
pred_weight_table.3:                    # @pred_weight_table.3
	.cfi_startproc
# %bb.0:                                # %entry
	pushq	%rbp
	.cfi_def_cfa_offset 16
	.cfi_offset %rbp, -16
	movq	%rsp, %rbp
	.cfi_def_cfa_register %rbp
	pushq	%rbx
	subq	$40, %rsp
	.cfi_offset %rbx, -24
	movl	$1522805302, -40(%rbp)  # imm = 0x5AC42A36
	movq	input, %rax
	movslq	2364(%rax), %rax
	movq	assignSE2partition(,%rax,8), %rax
	movl	(%rax), %eax
	movl	%eax, -36(%rbp)
	movq	img, %rax
	movq	14160(%rax), %rax
	movq	24(%rax), %rax
	movslq	-36(%rbp), %rcx
	imulq	$120, %rcx, %rcx
	addq	%rcx, %rax
	movq	%rax, -32(%rbp)
	movl	$0, -12(%rbp)
	movl	luma_log_weight_denom, %esi
	movq	-32(%rbp), %rdx
	movabsq	$.L.str.42, %rdi
	callq	ue_v
	addl	-12(%rbp), %eax
	movl	%eax, -12(%rbp)
	movl	chroma_log_weight_denom, %esi
	movq	-32(%rbp), %rdx
	movabsq	$.L.str.43, %rdi
	callq	ue_v
	addl	-12(%rbp), %eax
	movl	%eax, -12(%rbp)
	movl	$0, -16(%rbp)
.LBB8_1:                                # %for.cond
                                        # =>This Loop Header: Depth=1
                                        #     Child Loop BB8_11 Depth 2
	movl	-16(%rbp), %eax
	movq	img, %rcx
	cmpl	72000(%rcx), %eax
	jge	.LBB8_18
# %bb.2:                                # %for.body
                                        #   in Loop: Header=BB8_1 Depth=1
	movq	wp_weight, %rax
	movq	(%rax), %rax
	movslq	-16(%rbp), %rcx
	movq	(%rax,%rcx,8), %rax
	movl	(%rax), %eax
	movl	luma_log_weight_denom, %ecx
                                        # kill: def $cl killed $ecx
	movl	$1, %edx
	shll	%cl, %edx
	cmpl	%edx, %eax
	jne	.LBB8_4
# %bb.3:                                # %lor.lhs.false
                                        #   in Loop: Header=BB8_1 Depth=1
	movq	wp_offset, %rax
	movq	(%rax), %rax
	movslq	-16(%rbp), %rcx
	movq	(%rax,%rcx,8), %rax
	cmpl	$0, (%rax)
	je	.LBB8_5
.LBB8_4:                                # %if.then
                                        #   in Loop: Header=BB8_1 Depth=1
	movq	-32(%rbp), %rdx
	movabsq	$.L.str.44, %rdi
	movl	$1, %esi
	callq	u_1
	addl	-12(%rbp), %eax
	movl	%eax, -12(%rbp)
	movq	wp_weight, %rax
	movq	(%rax), %rax
	movslq	-16(%rbp), %rcx
	movq	(%rax,%rcx,8), %rax
	movl	(%rax), %esi
	movq	-32(%rbp), %rdx
	movabsq	$.L.str.45, %rdi
	callq	se_v
	addl	-12(%rbp), %eax
	movl	%eax, -12(%rbp)
	movq	wp_offset, %rax
	movq	(%rax), %rax
	movslq	-16(%rbp), %rcx
	movq	(%rax,%rcx,8), %rax
	movl	(%rax), %esi
	movq	-32(%rbp), %rdx
	movabsq	$.L.str.46, %rdi
	callq	se_v
	addl	-12(%rbp), %eax
	movl	%eax, -12(%rbp)
	jmp	.LBB8_6
.LBB8_5:                                # %if.else
                                        #   in Loop: Header=BB8_1 Depth=1
	movq	-32(%rbp), %rdx
	movabsq	$.L.str.44, %rdi
	xorl	%esi, %esi
	callq	u_1
	addl	-12(%rbp), %eax
	movl	%eax, -12(%rbp)
.LBB8_6:                                # %if.end
                                        #   in Loop: Header=BB8_1 Depth=1
	movq	wp_weight, %rax
	movq	(%rax), %rax
	movslq	-16(%rbp), %rcx
	movq	(%rax,%rcx,8), %rax
	movl	4(%rax), %eax
	movl	chroma_log_weight_denom, %ecx
                                        # kill: def $cl killed $ecx
	movl	$1, %edx
	shll	%cl, %edx
	cmpl	%edx, %eax
	jne	.LBB8_10
# %bb.7:                                # %lor.lhs.false38
                                        #   in Loop: Header=BB8_1 Depth=1
	movq	wp_offset, %rax
	movq	(%rax), %rax
	movslq	-16(%rbp), %rcx
	movq	(%rax,%rcx,8), %rax
	cmpl	$0, 4(%rax)
	jne	.LBB8_10
# %bb.8:                                # %lor.lhs.false44
                                        #   in Loop: Header=BB8_1 Depth=1
	movq	wp_weight, %rax
	movq	(%rax), %rax
	movslq	-16(%rbp), %rcx
	movq	(%rax,%rcx,8), %rax
	movl	8(%rax), %eax
	movl	chroma_log_weight_denom, %ecx
                                        # kill: def $cl killed $ecx
	movl	$1, %edx
	shll	%cl, %edx
	cmpl	%edx, %eax
	jne	.LBB8_10
# %bb.9:                                # %lor.lhs.false51
                                        #   in Loop: Header=BB8_1 Depth=1
	movq	wp_offset, %rax
	movq	(%rax), %rax
	movslq	-16(%rbp), %rcx
	movq	(%rax,%rcx,8), %rax
	cmpl	$0, 8(%rax)
	je	.LBB8_15
.LBB8_10:                               # %if.then57
                                        #   in Loop: Header=BB8_1 Depth=1
	movq	-32(%rbp), %rdx
	movabsq	$.L.str.47, %rdi
	movl	$1, %esi
	callq	u_1
	addl	-12(%rbp), %eax
	movl	%eax, -12(%rbp)
	movl	$1, -20(%rbp)
.LBB8_11:                               # %for.cond60
                                        #   Parent Loop BB8_1 Depth=1
                                        # =>  This Inner Loop Header: Depth=2
	cmpl	$3, -20(%rbp)
	jge	.LBB8_14
# %bb.12:                               # %for.body62
                                        #   in Loop: Header=BB8_11 Depth=2
	movq	wp_weight, %rax
	movq	(%rax), %rax
	movslq	-16(%rbp), %rcx
	movq	(%rax,%rcx,8), %rax
	movslq	-20(%rbp), %rcx
	movl	(%rax,%rcx,4), %esi
	movq	-32(%rbp), %rdx
	movabsq	$.L.str.48, %rdi
	callq	se_v
	addl	-12(%rbp), %eax
	movl	%eax, -12(%rbp)
	movq	wp_offset, %rax
	movq	(%rax), %rax
	movslq	-16(%rbp), %rcx
	movq	(%rax,%rcx,8), %rax
	movslq	-20(%rbp), %rcx
	movl	(%rax,%rcx,4), %esi
	movq	-32(%rbp), %rdx
	movabsq	$.L.str.49, %rdi
	callq	se_v
	addl	-12(%rbp), %eax
	movl	%eax, -12(%rbp)
# %bb.13:                               # %for.inc
                                        #   in Loop: Header=BB8_11 Depth=2
	movl	-20(%rbp), %eax
	addl	$1, %eax
	movl	%eax, -20(%rbp)
	jmp	.LBB8_11
.LBB8_14:                               # %for.end
                                        #   in Loop: Header=BB8_1 Depth=1
	jmp	.LBB8_16
.LBB8_15:                               # %if.else77
                                        #   in Loop: Header=BB8_1 Depth=1
	movq	-32(%rbp), %rdx
	movabsq	$.L.str.47, %rdi
	xorl	%esi, %esi
	callq	u_1
	addl	-12(%rbp), %eax
	movl	%eax, -12(%rbp)
.LBB8_16:                               # %if.end80
                                        #   in Loop: Header=BB8_1 Depth=1
	jmp	.LBB8_17
.LBB8_17:                               # %for.inc81
                                        #   in Loop: Header=BB8_1 Depth=1
	movl	-16(%rbp), %eax
	addl	$1, %eax
	movl	%eax, -16(%rbp)
	jmp	.LBB8_1
.LBB8_18:                               # %for.end83
	movq	img, %rax
	cmpl	$1, 24(%rax)
	jne	.LBB8_38
# %bb.19:                               # %if.then85
	movl	$0, -16(%rbp)
.LBB8_20:                               # %for.cond86
                                        # =>This Loop Header: Depth=1
                                        #     Child Loop BB8_30 Depth 2
	movl	-16(%rbp), %eax
	movq	img, %rcx
	cmpl	72004(%rcx), %eax
	jge	.LBB8_37
# %bb.21:                               # %for.body88
                                        #   in Loop: Header=BB8_20 Depth=1
	movq	wp_weight, %rax
	movq	8(%rax), %rax
	movslq	-16(%rbp), %rcx
	movq	(%rax,%rcx,8), %rax
	movl	(%rax), %eax
	movl	luma_log_weight_denom, %ecx
                                        # kill: def $cl killed $ecx
	movl	$1, %edx
	shll	%cl, %edx
	cmpl	%edx, %eax
	jne	.LBB8_23
# %bb.22:                               # %lor.lhs.false95
                                        #   in Loop: Header=BB8_20 Depth=1
	movq	wp_offset, %rax
	movq	8(%rax), %rax
	movslq	-16(%rbp), %rcx
	movq	(%rax,%rcx,8), %rax
	cmpl	$0, (%rax)
	je	.LBB8_24
.LBB8_23:                               # %if.then101
                                        #   in Loop: Header=BB8_20 Depth=1
	movq	-32(%rbp), %rdx
	movabsq	$.L.str.50, %rdi
	movl	$1, %esi
	callq	u_1
	addl	-12(%rbp), %eax
	movl	%eax, -12(%rbp)
	movq	wp_weight, %rax
	movq	8(%rax), %rax
	movslq	-16(%rbp), %rcx
	movq	(%rax,%rcx,8), %rax
	movl	(%rax), %esi
	movq	-32(%rbp), %rdx
	movabsq	$.L.str.51, %rdi
	callq	se_v
	addl	-12(%rbp), %eax
	movl	%eax, -12(%rbp)
	movq	wp_offset, %rax
	movq	8(%rax), %rax
	movslq	-16(%rbp), %rcx
	movq	(%rax,%rcx,8), %rax
	movl	(%rax), %esi
	movq	-32(%rbp), %rdx
	movabsq	$.L.str.52, %rdi
	callq	se_v
	addl	-12(%rbp), %eax
	movl	%eax, -12(%rbp)
	jmp	.LBB8_25
.LBB8_24:                               # %if.else116
                                        #   in Loop: Header=BB8_20 Depth=1
	movq	-32(%rbp), %rdx
	movabsq	$.L.str.50, %rdi
	xorl	%esi, %esi
	callq	u_1
	addl	-12(%rbp), %eax
	movl	%eax, -12(%rbp)
.LBB8_25:                               # %if.end119
                                        #   in Loop: Header=BB8_20 Depth=1
	movq	wp_weight, %rax
	movq	8(%rax), %rax
	movslq	-16(%rbp), %rcx
	movq	(%rax,%rcx,8), %rax
	movl	4(%rax), %eax
	movl	chroma_log_weight_denom, %ecx
                                        # kill: def $cl killed $ecx
	movl	$1, %edx
	shll	%cl, %edx
	cmpl	%edx, %eax
	jne	.LBB8_29
# %bb.26:                               # %lor.lhs.false126
                                        #   in Loop: Header=BB8_20 Depth=1
	movq	wp_offset, %rax
	movq	8(%rax), %rax
	movslq	-16(%rbp), %rcx
	movq	(%rax,%rcx,8), %rax
	cmpl	$0, 4(%rax)
	jne	.LBB8_29
# %bb.27:                               # %lor.lhs.false132
                                        #   in Loop: Header=BB8_20 Depth=1
	movq	wp_weight, %rax
	movq	8(%rax), %rax
	movslq	-16(%rbp), %rcx
	movq	(%rax,%rcx,8), %rax
	movl	8(%rax), %eax
	movl	chroma_log_weight_denom, %ecx
                                        # kill: def $cl killed $ecx
	movl	$1, %edx
	shll	%cl, %edx
	cmpl	%edx, %eax
	jne	.LBB8_29
# %bb.28:                               # %lor.lhs.false139
                                        #   in Loop: Header=BB8_20 Depth=1
	movq	wp_offset, %rax
	movq	8(%rax), %rax
	movslq	-16(%rbp), %rcx
	movq	(%rax,%rcx,8), %rax
	cmpl	$0, 8(%rax)
	je	.LBB8_34
.LBB8_29:                               # %if.then145
                                        #   in Loop: Header=BB8_20 Depth=1
	movq	-32(%rbp), %rdx
	movabsq	$.L.str.53, %rdi
	movl	$1, %esi
	callq	u_1
	addl	-12(%rbp), %eax
	movl	%eax, -12(%rbp)
	movl	$1, -20(%rbp)
.LBB8_30:                               # %for.cond148
                                        #   Parent Loop BB8_20 Depth=1
                                        # =>  This Inner Loop Header: Depth=2
	cmpl	$3, -20(%rbp)
	jge	.LBB8_33
# %bb.31:                               # %for.body150
                                        #   in Loop: Header=BB8_30 Depth=2
	movq	wp_weight, %rax
	movq	8(%rax), %rax
	movslq	-16(%rbp), %rcx
	movq	(%rax,%rcx,8), %rax
	movslq	-20(%rbp), %rcx
	movl	(%rax,%rcx,4), %esi
	movq	-32(%rbp), %rdx
	movabsq	$.L.str.54, %rdi
	callq	se_v
	addl	-12(%rbp), %eax
	movl	%eax, -12(%rbp)
	movq	wp_offset, %rax
	movq	8(%rax), %rax
	movslq	-16(%rbp), %rcx
	movq	(%rax,%rcx,8), %rax
	movslq	-20(%rbp), %rcx
	movl	(%rax,%rcx,4), %esi
	movq	-32(%rbp), %rdx
	movabsq	$.L.str.55, %rdi
	callq	se_v
	addl	-12(%rbp), %eax
	movl	%eax, -12(%rbp)
# %bb.32:                               # %for.inc165
                                        #   in Loop: Header=BB8_30 Depth=2
	movl	-20(%rbp), %eax
	addl	$1, %eax
	movl	%eax, -20(%rbp)
	jmp	.LBB8_30
.LBB8_33:                               # %for.end167
                                        #   in Loop: Header=BB8_20 Depth=1
	jmp	.LBB8_35
.LBB8_34:                               # %if.else168
                                        #   in Loop: Header=BB8_20 Depth=1
	movq	-32(%rbp), %rdx
	movabsq	$.L.str.53, %rdi
	xorl	%esi, %esi
	callq	u_1
	addl	-12(%rbp), %eax
	movl	%eax, -12(%rbp)
.LBB8_35:                               # %if.end171
                                        #   in Loop: Header=BB8_20 Depth=1
	jmp	.LBB8_36
.LBB8_36:                               # %for.inc172
                                        #   in Loop: Header=BB8_20 Depth=1
	movl	-16(%rbp), %eax
	addl	$1, %eax
	movl	%eax, -16(%rbp)
	jmp	.LBB8_20
.LBB8_37:                               # %for.end174
	jmp	.LBB8_38
.LBB8_38:                               # %if.end175
	movl	-12(%rbp), %ebx
	cmpl	$1522805302, -40(%rbp)  # imm = 0x5AC42A36
	jne	.LBB8_40
.LBB8_39:
	movl	%ebx, %eax
	addq	$40, %rsp
	popq	%rbx
	popq	%rbp
	.cfi_def_cfa %rsp, 8
	retq
.LBB8_40:                               # %func_exit
	.cfi_def_cfa %rbp, 16
	callq	detect_breach
	jmp	.LBB8_39
.Lfunc_end8:
	.size	pred_weight_table.3, .Lfunc_end8-pred_weight_table.3
	.cfi_endproc
                                        # -- End function
	.globl	Partition_BC_Header.4   # -- Begin function Partition_BC_Header.4
	.p2align	4, 0x90
	.type	Partition_BC_Header.4,@function
Partition_BC_Header.4:                  # @Partition_BC_Header.4
	.cfi_startproc
# %bb.0:                                # %entry
	pushq	%rbp
	.cfi_def_cfa_offset 16
	.cfi_offset %rbp, -16
	movq	%rsp, %rbp
	.cfi_def_cfa_register %rbp
	pushq	%rbx
	subq	$88, %rsp
	.cfi_offset %rbx, -24
	movl	$1155675264, -32(%rbp)  # imm = 0x44E23480
	movl	%edi, -28(%rbp)
	movq	img, %rax
	movq	14160(%rax), %rax
	movq	24(%rax), %rax
	movslq	-28(%rbp), %rcx
	imulq	$120, %rcx, %rcx
	addq	%rcx, %rax
	movq	%rax, -40(%rbp)
	leaq	-88(%rbp), %rax
	movq	%rax, -24(%rbp)
	movl	$0, -12(%rbp)
	movq	-24(%rbp), %rax
	movl	$0, (%rax)
	movq	-24(%rbp), %rax
	movabsq	$ue_linfo, %rcx
	movq	%rcx, 32(%rax)
	movq	-24(%rbp), %rax
	movl	$0, 8(%rax)
	movq	img, %rax
	movl	20(%rax), %eax
	movq	-24(%rbp), %rcx
	movl	%eax, 4(%rcx)
	movq	-24(%rbp), %rdi
	movq	-40(%rbp), %rsi
	callq	writeSyntaxElement_UVLC
	addl	-12(%rbp), %eax
	movl	%eax, -12(%rbp)
	movq	active_pps, %rax
	cmpl	$0, 228(%rax)
	je	.LBB9_2
# %bb.1:                                # %if.then
	movq	img, %rax
	movq	14160(%rax), %rax
	movl	(%rax), %eax
	movq	-24(%rbp), %rcx
	movl	%eax, 4(%rcx)
	movq	-24(%rbp), %rdi
	movq	-40(%rbp), %rsi
	callq	writeSyntaxElement_UVLC
	addl	-12(%rbp), %eax
	movl	%eax, -12(%rbp)
.LBB9_2:                                # %if.end
	movl	-12(%rbp), %ebx
	cmpl	$1155675264, -32(%rbp)  # imm = 0x44E23480
	jne	.LBB9_4
.LBB9_3:
	movl	%ebx, %eax
	addq	$88, %rsp
	popq	%rbx
	popq	%rbp
	.cfi_def_cfa %rsp, 8
	retq
.LBB9_4:                                # %func_exit
	.cfi_def_cfa %rbp, 16
	callq	detect_breach
	jmp	.LBB9_3
.Lfunc_end9:
	.size	Partition_BC_Header.4, .Lfunc_end9-Partition_BC_Header.4
	.cfi_endproc
                                        # -- End function
	.p2align	4, 0x90         # -- Begin function pred_weight_table.5
	.type	pred_weight_table.5,@function
pred_weight_table.5:                    # @pred_weight_table.5
	.cfi_startproc
# %bb.0:                                # %entry
	pushq	%rbp
	.cfi_def_cfa_offset 16
	.cfi_offset %rbp, -16
	movq	%rsp, %rbp
	.cfi_def_cfa_register %rbp
	pushq	%rbx
	subq	$40, %rsp
	.cfi_offset %rbx, -24
	movl	$1939640941, -40(%rbp)  # imm = 0x739C926D
	movq	input, %rax
	movslq	2364(%rax), %rax
	movq	assignSE2partition(,%rax,8), %rax
	movl	(%rax), %eax
	movl	%eax, -36(%rbp)
	movq	img, %rax
	movq	14160(%rax), %rax
	movq	24(%rax), %rax
	movslq	-36(%rbp), %rcx
	imulq	$120, %rcx, %rcx
	addq	%rcx, %rax
	movq	%rax, -32(%rbp)
	movl	$0, -12(%rbp)
	movl	luma_log_weight_denom, %esi
	movq	-32(%rbp), %rdx
	movabsq	$.L.str.42, %rdi
	callq	ue_v
	addl	-12(%rbp), %eax
	movl	%eax, -12(%rbp)
	movl	chroma_log_weight_denom, %esi
	movq	-32(%rbp), %rdx
	movabsq	$.L.str.43, %rdi
	callq	ue_v
	addl	-12(%rbp), %eax
	movl	%eax, -12(%rbp)
	movl	$0, -16(%rbp)
.LBB10_1:                               # %for.cond
                                        # =>This Loop Header: Depth=1
                                        #     Child Loop BB10_11 Depth 2
	movl	-16(%rbp), %eax
	movq	img, %rcx
	cmpl	72000(%rcx), %eax
	jge	.LBB10_18
# %bb.2:                                # %for.body
                                        #   in Loop: Header=BB10_1 Depth=1
	movq	wp_weight, %rax
	movq	(%rax), %rax
	movslq	-16(%rbp), %rcx
	movq	(%rax,%rcx,8), %rax
	movl	(%rax), %eax
	movl	luma_log_weight_denom, %ecx
                                        # kill: def $cl killed $ecx
	movl	$1, %edx
	shll	%cl, %edx
	cmpl	%edx, %eax
	jne	.LBB10_4
# %bb.3:                                # %lor.lhs.false
                                        #   in Loop: Header=BB10_1 Depth=1
	movq	wp_offset, %rax
	movq	(%rax), %rax
	movslq	-16(%rbp), %rcx
	movq	(%rax,%rcx,8), %rax
	cmpl	$0, (%rax)
	je	.LBB10_5
.LBB10_4:                               # %if.then
                                        #   in Loop: Header=BB10_1 Depth=1
	movq	-32(%rbp), %rdx
	movabsq	$.L.str.44, %rdi
	movl	$1, %esi
	callq	u_1
	addl	-12(%rbp), %eax
	movl	%eax, -12(%rbp)
	movq	wp_weight, %rax
	movq	(%rax), %rax
	movslq	-16(%rbp), %rcx
	movq	(%rax,%rcx,8), %rax
	movl	(%rax), %esi
	movq	-32(%rbp), %rdx
	movabsq	$.L.str.45, %rdi
	callq	se_v
	addl	-12(%rbp), %eax
	movl	%eax, -12(%rbp)
	movq	wp_offset, %rax
	movq	(%rax), %rax
	movslq	-16(%rbp), %rcx
	movq	(%rax,%rcx,8), %rax
	movl	(%rax), %esi
	movq	-32(%rbp), %rdx
	movabsq	$.L.str.46, %rdi
	callq	se_v
	addl	-12(%rbp), %eax
	movl	%eax, -12(%rbp)
	jmp	.LBB10_6
.LBB10_5:                               # %if.else
                                        #   in Loop: Header=BB10_1 Depth=1
	movq	-32(%rbp), %rdx
	movabsq	$.L.str.44, %rdi
	xorl	%esi, %esi
	callq	u_1
	addl	-12(%rbp), %eax
	movl	%eax, -12(%rbp)
.LBB10_6:                               # %if.end
                                        #   in Loop: Header=BB10_1 Depth=1
	movq	wp_weight, %rax
	movq	(%rax), %rax
	movslq	-16(%rbp), %rcx
	movq	(%rax,%rcx,8), %rax
	movl	4(%rax), %eax
	movl	chroma_log_weight_denom, %ecx
                                        # kill: def $cl killed $ecx
	movl	$1, %edx
	shll	%cl, %edx
	cmpl	%edx, %eax
	jne	.LBB10_10
# %bb.7:                                # %lor.lhs.false38
                                        #   in Loop: Header=BB10_1 Depth=1
	movq	wp_offset, %rax
	movq	(%rax), %rax
	movslq	-16(%rbp), %rcx
	movq	(%rax,%rcx,8), %rax
	cmpl	$0, 4(%rax)
	jne	.LBB10_10
# %bb.8:                                # %lor.lhs.false44
                                        #   in Loop: Header=BB10_1 Depth=1
	movq	wp_weight, %rax
	movq	(%rax), %rax
	movslq	-16(%rbp), %rcx
	movq	(%rax,%rcx,8), %rax
	movl	8(%rax), %eax
	movl	chroma_log_weight_denom, %ecx
                                        # kill: def $cl killed $ecx
	movl	$1, %edx
	shll	%cl, %edx
	cmpl	%edx, %eax
	jne	.LBB10_10
# %bb.9:                                # %lor.lhs.false51
                                        #   in Loop: Header=BB10_1 Depth=1
	movq	wp_offset, %rax
	movq	(%rax), %rax
	movslq	-16(%rbp), %rcx
	movq	(%rax,%rcx,8), %rax
	cmpl	$0, 8(%rax)
	je	.LBB10_15
.LBB10_10:                              # %if.then57
                                        #   in Loop: Header=BB10_1 Depth=1
	movq	-32(%rbp), %rdx
	movabsq	$.L.str.47, %rdi
	movl	$1, %esi
	callq	u_1
	addl	-12(%rbp), %eax
	movl	%eax, -12(%rbp)
	movl	$1, -20(%rbp)
.LBB10_11:                              # %for.cond60
                                        #   Parent Loop BB10_1 Depth=1
                                        # =>  This Inner Loop Header: Depth=2
	cmpl	$3, -20(%rbp)
	jge	.LBB10_14
# %bb.12:                               # %for.body62
                                        #   in Loop: Header=BB10_11 Depth=2
	movq	wp_weight, %rax
	movq	(%rax), %rax
	movslq	-16(%rbp), %rcx
	movq	(%rax,%rcx,8), %rax
	movslq	-20(%rbp), %rcx
	movl	(%rax,%rcx,4), %esi
	movq	-32(%rbp), %rdx
	movabsq	$.L.str.48, %rdi
	callq	se_v
	addl	-12(%rbp), %eax
	movl	%eax, -12(%rbp)
	movq	wp_offset, %rax
	movq	(%rax), %rax
	movslq	-16(%rbp), %rcx
	movq	(%rax,%rcx,8), %rax
	movslq	-20(%rbp), %rcx
	movl	(%rax,%rcx,4), %esi
	movq	-32(%rbp), %rdx
	movabsq	$.L.str.49, %rdi
	callq	se_v
	addl	-12(%rbp), %eax
	movl	%eax, -12(%rbp)
# %bb.13:                               # %for.inc
                                        #   in Loop: Header=BB10_11 Depth=2
	movl	-20(%rbp), %eax
	addl	$1, %eax
	movl	%eax, -20(%rbp)
	jmp	.LBB10_11
.LBB10_14:                              # %for.end
                                        #   in Loop: Header=BB10_1 Depth=1
	jmp	.LBB10_16
.LBB10_15:                              # %if.else77
                                        #   in Loop: Header=BB10_1 Depth=1
	movq	-32(%rbp), %rdx
	movabsq	$.L.str.47, %rdi
	xorl	%esi, %esi
	callq	u_1
	addl	-12(%rbp), %eax
	movl	%eax, -12(%rbp)
.LBB10_16:                              # %if.end80
                                        #   in Loop: Header=BB10_1 Depth=1
	jmp	.LBB10_17
.LBB10_17:                              # %for.inc81
                                        #   in Loop: Header=BB10_1 Depth=1
	movl	-16(%rbp), %eax
	addl	$1, %eax
	movl	%eax, -16(%rbp)
	jmp	.LBB10_1
.LBB10_18:                              # %for.end83
	movq	img, %rax
	cmpl	$1, 24(%rax)
	jne	.LBB10_38
# %bb.19:                               # %if.then85
	movl	$0, -16(%rbp)
.LBB10_20:                              # %for.cond86
                                        # =>This Loop Header: Depth=1
                                        #     Child Loop BB10_30 Depth 2
	movl	-16(%rbp), %eax
	movq	img, %rcx
	cmpl	72004(%rcx), %eax
	jge	.LBB10_37
# %bb.21:                               # %for.body88
                                        #   in Loop: Header=BB10_20 Depth=1
	movq	wp_weight, %rax
	movq	8(%rax), %rax
	movslq	-16(%rbp), %rcx
	movq	(%rax,%rcx,8), %rax
	movl	(%rax), %eax
	movl	luma_log_weight_denom, %ecx
                                        # kill: def $cl killed $ecx
	movl	$1, %edx
	shll	%cl, %edx
	cmpl	%edx, %eax
	jne	.LBB10_23
# %bb.22:                               # %lor.lhs.false95
                                        #   in Loop: Header=BB10_20 Depth=1
	movq	wp_offset, %rax
	movq	8(%rax), %rax
	movslq	-16(%rbp), %rcx
	movq	(%rax,%rcx,8), %rax
	cmpl	$0, (%rax)
	je	.LBB10_24
.LBB10_23:                              # %if.then101
                                        #   in Loop: Header=BB10_20 Depth=1
	movq	-32(%rbp), %rdx
	movabsq	$.L.str.50, %rdi
	movl	$1, %esi
	callq	u_1
	addl	-12(%rbp), %eax
	movl	%eax, -12(%rbp)
	movq	wp_weight, %rax
	movq	8(%rax), %rax
	movslq	-16(%rbp), %rcx
	movq	(%rax,%rcx,8), %rax
	movl	(%rax), %esi
	movq	-32(%rbp), %rdx
	movabsq	$.L.str.51, %rdi
	callq	se_v
	addl	-12(%rbp), %eax
	movl	%eax, -12(%rbp)
	movq	wp_offset, %rax
	movq	8(%rax), %rax
	movslq	-16(%rbp), %rcx
	movq	(%rax,%rcx,8), %rax
	movl	(%rax), %esi
	movq	-32(%rbp), %rdx
	movabsq	$.L.str.52, %rdi
	callq	se_v
	addl	-12(%rbp), %eax
	movl	%eax, -12(%rbp)
	jmp	.LBB10_25
.LBB10_24:                              # %if.else116
                                        #   in Loop: Header=BB10_20 Depth=1
	movq	-32(%rbp), %rdx
	movabsq	$.L.str.50, %rdi
	xorl	%esi, %esi
	callq	u_1
	addl	-12(%rbp), %eax
	movl	%eax, -12(%rbp)
.LBB10_25:                              # %if.end119
                                        #   in Loop: Header=BB10_20 Depth=1
	movq	wp_weight, %rax
	movq	8(%rax), %rax
	movslq	-16(%rbp), %rcx
	movq	(%rax,%rcx,8), %rax
	movl	4(%rax), %eax
	movl	chroma_log_weight_denom, %ecx
                                        # kill: def $cl killed $ecx
	movl	$1, %edx
	shll	%cl, %edx
	cmpl	%edx, %eax
	jne	.LBB10_29
# %bb.26:                               # %lor.lhs.false126
                                        #   in Loop: Header=BB10_20 Depth=1
	movq	wp_offset, %rax
	movq	8(%rax), %rax
	movslq	-16(%rbp), %rcx
	movq	(%rax,%rcx,8), %rax
	cmpl	$0, 4(%rax)
	jne	.LBB10_29
# %bb.27:                               # %lor.lhs.false132
                                        #   in Loop: Header=BB10_20 Depth=1
	movq	wp_weight, %rax
	movq	8(%rax), %rax
	movslq	-16(%rbp), %rcx
	movq	(%rax,%rcx,8), %rax
	movl	8(%rax), %eax
	movl	chroma_log_weight_denom, %ecx
                                        # kill: def $cl killed $ecx
	movl	$1, %edx
	shll	%cl, %edx
	cmpl	%edx, %eax
	jne	.LBB10_29
# %bb.28:                               # %lor.lhs.false139
                                        #   in Loop: Header=BB10_20 Depth=1
	movq	wp_offset, %rax
	movq	8(%rax), %rax
	movslq	-16(%rbp), %rcx
	movq	(%rax,%rcx,8), %rax
	cmpl	$0, 8(%rax)
	je	.LBB10_34
.LBB10_29:                              # %if.then145
                                        #   in Loop: Header=BB10_20 Depth=1
	movq	-32(%rbp), %rdx
	movabsq	$.L.str.53, %rdi
	movl	$1, %esi
	callq	u_1
	addl	-12(%rbp), %eax
	movl	%eax, -12(%rbp)
	movl	$1, -20(%rbp)
.LBB10_30:                              # %for.cond148
                                        #   Parent Loop BB10_20 Depth=1
                                        # =>  This Inner Loop Header: Depth=2
	cmpl	$3, -20(%rbp)
	jge	.LBB10_33
# %bb.31:                               # %for.body150
                                        #   in Loop: Header=BB10_30 Depth=2
	movq	wp_weight, %rax
	movq	8(%rax), %rax
	movslq	-16(%rbp), %rcx
	movq	(%rax,%rcx,8), %rax
	movslq	-20(%rbp), %rcx
	movl	(%rax,%rcx,4), %esi
	movq	-32(%rbp), %rdx
	movabsq	$.L.str.54, %rdi
	callq	se_v
	addl	-12(%rbp), %eax
	movl	%eax, -12(%rbp)
	movq	wp_offset, %rax
	movq	8(%rax), %rax
	movslq	-16(%rbp), %rcx
	movq	(%rax,%rcx,8), %rax
	movslq	-20(%rbp), %rcx
	movl	(%rax,%rcx,4), %esi
	movq	-32(%rbp), %rdx
	movabsq	$.L.str.55, %rdi
	callq	se_v
	addl	-12(%rbp), %eax
	movl	%eax, -12(%rbp)
# %bb.32:                               # %for.inc165
                                        #   in Loop: Header=BB10_30 Depth=2
	movl	-20(%rbp), %eax
	addl	$1, %eax
	movl	%eax, -20(%rbp)
	jmp	.LBB10_30
.LBB10_33:                              # %for.end167
                                        #   in Loop: Header=BB10_20 Depth=1
	jmp	.LBB10_35
.LBB10_34:                              # %if.else168
                                        #   in Loop: Header=BB10_20 Depth=1
	movq	-32(%rbp), %rdx
	movabsq	$.L.str.53, %rdi
	xorl	%esi, %esi
	callq	u_1
	addl	-12(%rbp), %eax
	movl	%eax, -12(%rbp)
.LBB10_35:                              # %if.end171
                                        #   in Loop: Header=BB10_20 Depth=1
	jmp	.LBB10_36
.LBB10_36:                              # %for.inc172
                                        #   in Loop: Header=BB10_20 Depth=1
	movl	-16(%rbp), %eax
	addl	$1, %eax
	movl	%eax, -16(%rbp)
	jmp	.LBB10_20
.LBB10_37:                              # %for.end174
	jmp	.LBB10_38
.LBB10_38:                              # %if.end175
	movl	-12(%rbp), %ebx
	cmpl	$1939640941, -40(%rbp)  # imm = 0x739C926D
	jne	.LBB10_40
.LBB10_39:
	movl	%ebx, %eax
	addq	$40, %rsp
	popq	%rbx
	popq	%rbp
	.cfi_def_cfa %rsp, 8
	retq
.LBB10_40:                              # %func_exit
	.cfi_def_cfa %rbp, 16
	callq	detect_breach
	jmp	.LBB10_39
.Lfunc_end10:
	.size	pred_weight_table.5, .Lfunc_end10-pred_weight_table.5
	.cfi_endproc
                                        # -- End function
	.p2align	4, 0x90         # -- Begin function dec_ref_pic_marking.6
	.type	dec_ref_pic_marking.6,@function
dec_ref_pic_marking.6:                  # @dec_ref_pic_marking.6
	.cfi_startproc
# %bb.0:                                # %entry
	pushq	%rbp
	.cfi_def_cfa_offset 16
	.cfi_offset %rbp, -16
	movq	%rsp, %rbp
	.cfi_def_cfa_register %rbp
	pushq	%rbx
	subq	$40, %rsp
	.cfi_offset %rbx, -24
	movl	$143158357, -36(%rbp)   # imm = 0x8886C55
	movq	input, %rax
	movslq	2364(%rax), %rax
	movq	assignSE2partition(,%rax,8), %rax
	movl	(%rax), %eax
	movl	%eax, -40(%rbp)
	movq	img, %rax
	movq	14160(%rax), %rax
	movq	24(%rax), %rax
	movslq	-40(%rbp), %rcx
	imulq	$120, %rcx, %rcx
	addq	%rcx, %rax
	movq	%rax, -24(%rbp)
	movl	$0, -12(%rbp)
	movq	img, %rax
	movq	14152(%rax), %rax
	cmpl	$0, 4(%rax)
	je	.LBB11_2
# %bb.1:                                # %if.then
	movq	img, %rax
	movl	72504(%rax), %esi
	movq	-24(%rbp), %rdx
	movabsq	$.L.str.33, %rdi
	callq	u_1
	addl	-12(%rbp), %eax
	movl	%eax, -12(%rbp)
	movq	img, %rax
	movl	72508(%rax), %esi
	movq	-24(%rbp), %rdx
	movabsq	$.L.str.34, %rdi
	callq	u_1
	addl	-12(%rbp), %eax
	movl	%eax, -12(%rbp)
	jmp	.LBB11_20
.LBB11_2:                               # %if.else
	movq	img, %rax
	cmpq	$0, 72512(%rax)
	setne	%al
	andb	$1, %al
	movzbl	%al, %eax
	movq	img, %rcx
	movl	%eax, 72500(%rcx)
	movq	img, %rax
	movl	72500(%rax), %esi
	movq	-24(%rbp), %rdx
	movabsq	$.L.str.35, %rdi
	callq	u_1
	addl	-12(%rbp), %eax
	movl	%eax, -12(%rbp)
	movq	img, %rax
	cmpl	$0, 72500(%rax)
	je	.LBB11_19
# %bb.3:                                # %if.then11
	movq	img, %rax
	movq	72512(%rax), %rax
	movq	%rax, -32(%rbp)
.LBB11_4:                               # %do.body
                                        # =>This Inner Loop Header: Depth=1
	cmpq	$0, -32(%rbp)
	jne	.LBB11_6
# %bb.5:                                # %if.then15
                                        #   in Loop: Header=BB11_4 Depth=1
	movabsq	$.L.str.36, %rdi
	movl	$500, %esi              # imm = 0x1F4
	callq	error
.LBB11_6:                               # %if.end
                                        #   in Loop: Header=BB11_4 Depth=1
	movq	-32(%rbp), %rax
	movl	(%rax), %eax
	movl	%eax, -16(%rbp)
	movl	-16(%rbp), %esi
	movq	-24(%rbp), %rdx
	movabsq	$.L.str.37, %rdi
	callq	ue_v
	addl	-12(%rbp), %eax
	movl	%eax, -12(%rbp)
	cmpl	$1, -16(%rbp)
	je	.LBB11_8
# %bb.7:                                # %lor.lhs.false
                                        #   in Loop: Header=BB11_4 Depth=1
	cmpl	$3, -16(%rbp)
	jne	.LBB11_9
.LBB11_8:                               # %if.then22
                                        #   in Loop: Header=BB11_4 Depth=1
	movq	-32(%rbp), %rax
	movl	4(%rax), %esi
	movq	-24(%rbp), %rdx
	movabsq	$.L.str.38, %rdi
	callq	ue_v
	addl	$1, %eax
	addl	-12(%rbp), %eax
	movl	%eax, -12(%rbp)
.LBB11_9:                               # %if.end26
                                        #   in Loop: Header=BB11_4 Depth=1
	cmpl	$2, -16(%rbp)
	jne	.LBB11_11
# %bb.10:                               # %if.then29
                                        #   in Loop: Header=BB11_4 Depth=1
	movq	-32(%rbp), %rax
	movl	8(%rax), %esi
	movq	-24(%rbp), %rdx
	movabsq	$.L.str.39, %rdi
	callq	ue_v
	addl	-12(%rbp), %eax
	movl	%eax, -12(%rbp)
.LBB11_11:                              # %if.end32
                                        #   in Loop: Header=BB11_4 Depth=1
	cmpl	$3, -16(%rbp)
	je	.LBB11_13
# %bb.12:                               # %lor.lhs.false35
                                        #   in Loop: Header=BB11_4 Depth=1
	cmpl	$6, -16(%rbp)
	jne	.LBB11_14
.LBB11_13:                              # %if.then38
                                        #   in Loop: Header=BB11_4 Depth=1
	movq	-32(%rbp), %rax
	movl	12(%rax), %esi
	movq	-24(%rbp), %rdx
	movabsq	$.L.str.40, %rdi
	callq	ue_v
	addl	-12(%rbp), %eax
	movl	%eax, -12(%rbp)
.LBB11_14:                              # %if.end41
                                        #   in Loop: Header=BB11_4 Depth=1
	cmpl	$4, -16(%rbp)
	jne	.LBB11_16
# %bb.15:                               # %if.then44
                                        #   in Loop: Header=BB11_4 Depth=1
	movq	-32(%rbp), %rax
	movl	16(%rax), %esi
	movq	-24(%rbp), %rdx
	movabsq	$.L.str.41, %rdi
	callq	ue_v
	addl	-12(%rbp), %eax
	movl	%eax, -12(%rbp)
.LBB11_16:                              # %if.end47
                                        #   in Loop: Header=BB11_4 Depth=1
	movq	-32(%rbp), %rax
	movq	24(%rax), %rax
	movq	%rax, -32(%rbp)
# %bb.17:                               # %do.cond
                                        #   in Loop: Header=BB11_4 Depth=1
	cmpl	$0, -16(%rbp)
	jne	.LBB11_4
# %bb.18:                               # %do.end
	jmp	.LBB11_19
.LBB11_19:                              # %if.end50
	jmp	.LBB11_20
.LBB11_20:                              # %if.end51
	movl	-12(%rbp), %ebx
	cmpl	$143158357, -36(%rbp)   # imm = 0x8886C55
	jne	.LBB11_22
.LBB11_21:
	movl	%ebx, %eax
	addq	$40, %rsp
	popq	%rbx
	popq	%rbp
	.cfi_def_cfa %rsp, 8
	retq
.LBB11_22:                              # %func_exit
	.cfi_def_cfa %rbp, 16
	callq	detect_breach
	jmp	.LBB11_21
.Lfunc_end11:
	.size	dec_ref_pic_marking.6, .Lfunc_end11-dec_ref_pic_marking.6
	.cfi_endproc
                                        # -- End function
	.p2align	4, 0x90         # -- Begin function ref_pic_list_reordering.7
	.type	ref_pic_list_reordering.7,@function
ref_pic_list_reordering.7:              # @ref_pic_list_reordering.7
	.cfi_startproc
# %bb.0:                                # %entry
	pushq	%rbp
	.cfi_def_cfa_offset 16
	.cfi_offset %rbp, -16
	movq	%rsp, %rbp
	.cfi_def_cfa_register %rbp
	pushq	%rbx
	subq	$40, %rsp
	.cfi_offset %rbx, -24
	movl	$406221252, -40(%rbp)   # imm = 0x183671C4
	movq	input, %rax
	movslq	2364(%rax), %rax
	movq	assignSE2partition(,%rax,8), %rax
	movl	(%rax), %eax
	movl	%eax, -36(%rbp)
	movq	img, %rax
	movq	14160(%rax), %rax
	movq	24(%rax), %rax
	movslq	-36(%rbp), %rcx
	imulq	$120, %rcx, %rcx
	addq	%rcx, %rax
	movq	%rax, -32(%rbp)
	movq	img, %rax
	movq	14160(%rax), %rax
	movq	%rax, -24(%rbp)
	movl	$0, -16(%rbp)
	movq	img, %rax
	cmpl	$2, 24(%rax)
	je	.LBB12_13
# %bb.1:                                # %if.then
	movq	-24(%rbp), %rax
	movl	56(%rax), %esi
	movq	-32(%rbp), %rdx
	movabsq	$.L.str.26, %rdi
	callq	u_1
	addl	-16(%rbp), %eax
	movl	%eax, -16(%rbp)
	movq	-24(%rbp), %rax
	cmpl	$0, 56(%rax)
	je	.LBB12_12
# %bb.2:                                # %if.then6
	movl	$-1, -12(%rbp)
.LBB12_3:                               # %do.body
                                        # =>This Inner Loop Header: Depth=1
	movl	-12(%rbp), %eax
	addl	$1, %eax
	movl	%eax, -12(%rbp)
	movq	-24(%rbp), %rax
	movq	64(%rax), %rax
	movslq	-12(%rbp), %rcx
	movl	(%rax,%rcx,4), %esi
	movq	-32(%rbp), %rdx
	movabsq	$.L.str.27, %rdi
	callq	ue_v
	addl	-16(%rbp), %eax
	movl	%eax, -16(%rbp)
	movq	-24(%rbp), %rax
	movq	64(%rax), %rax
	movslq	-12(%rbp), %rcx
	cmpl	$0, (%rax,%rcx,4)
	je	.LBB12_5
# %bb.4:                                # %lor.lhs.false
                                        #   in Loop: Header=BB12_3 Depth=1
	movq	-24(%rbp), %rax
	movq	64(%rax), %rax
	movslq	-12(%rbp), %rcx
	cmpl	$1, (%rax,%rcx,4)
	jne	.LBB12_6
.LBB12_5:                               # %if.then19
                                        #   in Loop: Header=BB12_3 Depth=1
	movq	-24(%rbp), %rax
	movq	72(%rax), %rax
	movslq	-12(%rbp), %rcx
	movl	(%rax,%rcx,4), %esi
	movq	-32(%rbp), %rdx
	movabsq	$.L.str.28, %rdi
	callq	ue_v
	addl	-16(%rbp), %eax
	movl	%eax, -16(%rbp)
	jmp	.LBB12_9
.LBB12_6:                               # %if.else
                                        #   in Loop: Header=BB12_3 Depth=1
	movq	-24(%rbp), %rax
	movq	64(%rax), %rax
	movslq	-12(%rbp), %rcx
	cmpl	$2, (%rax,%rcx,4)
	jne	.LBB12_8
# %bb.7:                                # %if.then28
                                        #   in Loop: Header=BB12_3 Depth=1
	movq	-24(%rbp), %rax
	movq	80(%rax), %rax
	movslq	-12(%rbp), %rcx
	movl	(%rax,%rcx,4), %esi
	movq	-32(%rbp), %rdx
	movabsq	$.L.str.29, %rdi
	callq	ue_v
	addl	-16(%rbp), %eax
	movl	%eax, -16(%rbp)
.LBB12_8:                               # %if.end
                                        #   in Loop: Header=BB12_3 Depth=1
	jmp	.LBB12_9
.LBB12_9:                               # %if.end33
                                        #   in Loop: Header=BB12_3 Depth=1
	jmp	.LBB12_10
.LBB12_10:                              # %do.cond
                                        #   in Loop: Header=BB12_3 Depth=1
	movq	-24(%rbp), %rax
	movq	64(%rax), %rax
	movslq	-12(%rbp), %rcx
	cmpl	$3, (%rax,%rcx,4)
	jne	.LBB12_3
# %bb.11:                               # %do.end
	jmp	.LBB12_12
.LBB12_12:                              # %if.end38
	jmp	.LBB12_13
.LBB12_13:                              # %if.end39
	movq	img, %rax
	cmpl	$1, 24(%rax)
	jne	.LBB12_26
# %bb.14:                               # %if.then42
	movq	-24(%rbp), %rax
	movl	88(%rax), %esi
	movq	-32(%rbp), %rdx
	movabsq	$.L.str.30, %rdi
	callq	u_1
	addl	-16(%rbp), %eax
	movl	%eax, -16(%rbp)
	movq	-24(%rbp), %rax
	cmpl	$0, 88(%rax)
	je	.LBB12_25
# %bb.15:                               # %if.then47
	movl	$-1, -12(%rbp)
.LBB12_16:                              # %do.body48
                                        # =>This Inner Loop Header: Depth=1
	movl	-12(%rbp), %eax
	addl	$1, %eax
	movl	%eax, -12(%rbp)
	movq	-24(%rbp), %rax
	movq	96(%rax), %rax
	movslq	-12(%rbp), %rcx
	movl	(%rax,%rcx,4), %esi
	movq	-32(%rbp), %rdx
	movabsq	$.L.str.27, %rdi
	callq	ue_v
	addl	-16(%rbp), %eax
	movl	%eax, -16(%rbp)
	movq	-24(%rbp), %rax
	movq	96(%rax), %rax
	movslq	-12(%rbp), %rcx
	cmpl	$0, (%rax,%rcx,4)
	je	.LBB12_18
# %bb.17:                               # %lor.lhs.false58
                                        #   in Loop: Header=BB12_16 Depth=1
	movq	-24(%rbp), %rax
	movq	96(%rax), %rax
	movslq	-12(%rbp), %rcx
	cmpl	$1, (%rax,%rcx,4)
	jne	.LBB12_19
.LBB12_18:                              # %if.then63
                                        #   in Loop: Header=BB12_16 Depth=1
	movq	-24(%rbp), %rax
	movq	104(%rax), %rax
	movslq	-12(%rbp), %rcx
	movl	(%rax,%rcx,4), %esi
	movq	-32(%rbp), %rdx
	movabsq	$.L.str.31, %rdi
	callq	ue_v
	addl	-16(%rbp), %eax
	movl	%eax, -16(%rbp)
	jmp	.LBB12_22
.LBB12_19:                              # %if.else68
                                        #   in Loop: Header=BB12_16 Depth=1
	movq	-24(%rbp), %rax
	movq	96(%rax), %rax
	movslq	-12(%rbp), %rcx
	cmpl	$2, (%rax,%rcx,4)
	jne	.LBB12_21
# %bb.20:                               # %if.then73
                                        #   in Loop: Header=BB12_16 Depth=1
	movq	-24(%rbp), %rax
	movq	112(%rax), %rax
	movslq	-12(%rbp), %rcx
	movl	(%rax,%rcx,4), %esi
	movq	-32(%rbp), %rdx
	movabsq	$.L.str.32, %rdi
	callq	ue_v
	addl	-16(%rbp), %eax
	movl	%eax, -16(%rbp)
.LBB12_21:                              # %if.end78
                                        #   in Loop: Header=BB12_16 Depth=1
	jmp	.LBB12_22
.LBB12_22:                              # %if.end79
                                        #   in Loop: Header=BB12_16 Depth=1
	jmp	.LBB12_23
.LBB12_23:                              # %do.cond80
                                        #   in Loop: Header=BB12_16 Depth=1
	movq	-24(%rbp), %rax
	movq	96(%rax), %rax
	movslq	-12(%rbp), %rcx
	cmpl	$3, (%rax,%rcx,4)
	jne	.LBB12_16
# %bb.24:                               # %do.end85
	jmp	.LBB12_25
.LBB12_25:                              # %if.end86
	jmp	.LBB12_26
.LBB12_26:                              # %if.end87
	movl	-16(%rbp), %ebx
	cmpl	$406221252, -40(%rbp)   # imm = 0x183671C4
	jne	.LBB12_28
.LBB12_27:
	movl	%ebx, %eax
	addq	$40, %rsp
	popq	%rbx
	popq	%rbp
	.cfi_def_cfa %rsp, 8
	retq
.LBB12_28:                              # %func_exit
	.cfi_def_cfa %rbp, 16
	callq	detect_breach
	jmp	.LBB12_27
.Lfunc_end12:
	.size	ref_pic_list_reordering.7, .Lfunc_end12-ref_pic_list_reordering.7
	.cfi_endproc
                                        # -- End function
	.p2align	4, 0x90         # -- Begin function ref_pic_list_reordering.8
	.type	ref_pic_list_reordering.8,@function
ref_pic_list_reordering.8:              # @ref_pic_list_reordering.8
	.cfi_startproc
# %bb.0:                                # %entry
	pushq	%rbp
	.cfi_def_cfa_offset 16
	.cfi_offset %rbp, -16
	movq	%rsp, %rbp
	.cfi_def_cfa_register %rbp
	pushq	%rbx
	subq	$40, %rsp
	.cfi_offset %rbx, -24
	movl	$257099745, -36(%rbp)   # imm = 0xF5307E1
	movq	input, %rax
	movslq	2364(%rax), %rax
	movq	assignSE2partition(,%rax,8), %rax
	movl	(%rax), %eax
	movl	%eax, -40(%rbp)
	movq	img, %rax
	movq	14160(%rax), %rax
	movq	24(%rax), %rax
	movslq	-40(%rbp), %rcx
	imulq	$120, %rcx, %rcx
	addq	%rcx, %rax
	movq	%rax, -32(%rbp)
	movq	img, %rax
	movq	14160(%rax), %rax
	movq	%rax, -24(%rbp)
	movl	$0, -16(%rbp)
	movq	img, %rax
	cmpl	$2, 24(%rax)
	je	.LBB13_13
# %bb.1:                                # %if.then
	movq	-24(%rbp), %rax
	movl	56(%rax), %esi
	movq	-32(%rbp), %rdx
	movabsq	$.L.str.26, %rdi
	callq	u_1
	addl	-16(%rbp), %eax
	movl	%eax, -16(%rbp)
	movq	-24(%rbp), %rax
	cmpl	$0, 56(%rax)
	je	.LBB13_12
# %bb.2:                                # %if.then6
	movl	$-1, -12(%rbp)
.LBB13_3:                               # %do.body
                                        # =>This Inner Loop Header: Depth=1
	movl	-12(%rbp), %eax
	addl	$1, %eax
	movl	%eax, -12(%rbp)
	movq	-24(%rbp), %rax
	movq	64(%rax), %rax
	movslq	-12(%rbp), %rcx
	movl	(%rax,%rcx,4), %esi
	movq	-32(%rbp), %rdx
	movabsq	$.L.str.27, %rdi
	callq	ue_v
	addl	-16(%rbp), %eax
	movl	%eax, -16(%rbp)
	movq	-24(%rbp), %rax
	movq	64(%rax), %rax
	movslq	-12(%rbp), %rcx
	cmpl	$0, (%rax,%rcx,4)
	je	.LBB13_5
# %bb.4:                                # %lor.lhs.false
                                        #   in Loop: Header=BB13_3 Depth=1
	movq	-24(%rbp), %rax
	movq	64(%rax), %rax
	movslq	-12(%rbp), %rcx
	cmpl	$1, (%rax,%rcx,4)
	jne	.LBB13_6
.LBB13_5:                               # %if.then19
                                        #   in Loop: Header=BB13_3 Depth=1
	movq	-24(%rbp), %rax
	movq	72(%rax), %rax
	movslq	-12(%rbp), %rcx
	movl	(%rax,%rcx,4), %esi
	movq	-32(%rbp), %rdx
	movabsq	$.L.str.28, %rdi
	callq	ue_v
	addl	-16(%rbp), %eax
	movl	%eax, -16(%rbp)
	jmp	.LBB13_9
.LBB13_6:                               # %if.else
                                        #   in Loop: Header=BB13_3 Depth=1
	movq	-24(%rbp), %rax
	movq	64(%rax), %rax
	movslq	-12(%rbp), %rcx
	cmpl	$2, (%rax,%rcx,4)
	jne	.LBB13_8
# %bb.7:                                # %if.then28
                                        #   in Loop: Header=BB13_3 Depth=1
	movq	-24(%rbp), %rax
	movq	80(%rax), %rax
	movslq	-12(%rbp), %rcx
	movl	(%rax,%rcx,4), %esi
	movq	-32(%rbp), %rdx
	movabsq	$.L.str.29, %rdi
	callq	ue_v
	addl	-16(%rbp), %eax
	movl	%eax, -16(%rbp)
.LBB13_8:                               # %if.end
                                        #   in Loop: Header=BB13_3 Depth=1
	jmp	.LBB13_9
.LBB13_9:                               # %if.end33
                                        #   in Loop: Header=BB13_3 Depth=1
	jmp	.LBB13_10
.LBB13_10:                              # %do.cond
                                        #   in Loop: Header=BB13_3 Depth=1
	movq	-24(%rbp), %rax
	movq	64(%rax), %rax
	movslq	-12(%rbp), %rcx
	cmpl	$3, (%rax,%rcx,4)
	jne	.LBB13_3
# %bb.11:                               # %do.end
	jmp	.LBB13_12
.LBB13_12:                              # %if.end38
	jmp	.LBB13_13
.LBB13_13:                              # %if.end39
	movq	img, %rax
	cmpl	$1, 24(%rax)
	jne	.LBB13_26
# %bb.14:                               # %if.then42
	movq	-24(%rbp), %rax
	movl	88(%rax), %esi
	movq	-32(%rbp), %rdx
	movabsq	$.L.str.30, %rdi
	callq	u_1
	addl	-16(%rbp), %eax
	movl	%eax, -16(%rbp)
	movq	-24(%rbp), %rax
	cmpl	$0, 88(%rax)
	je	.LBB13_25
# %bb.15:                               # %if.then47
	movl	$-1, -12(%rbp)
.LBB13_16:                              # %do.body48
                                        # =>This Inner Loop Header: Depth=1
	movl	-12(%rbp), %eax
	addl	$1, %eax
	movl	%eax, -12(%rbp)
	movq	-24(%rbp), %rax
	movq	96(%rax), %rax
	movslq	-12(%rbp), %rcx
	movl	(%rax,%rcx,4), %esi
	movq	-32(%rbp), %rdx
	movabsq	$.L.str.27, %rdi
	callq	ue_v
	addl	-16(%rbp), %eax
	movl	%eax, -16(%rbp)
	movq	-24(%rbp), %rax
	movq	96(%rax), %rax
	movslq	-12(%rbp), %rcx
	cmpl	$0, (%rax,%rcx,4)
	je	.LBB13_18
# %bb.17:                               # %lor.lhs.false58
                                        #   in Loop: Header=BB13_16 Depth=1
	movq	-24(%rbp), %rax
	movq	96(%rax), %rax
	movslq	-12(%rbp), %rcx
	cmpl	$1, (%rax,%rcx,4)
	jne	.LBB13_19
.LBB13_18:                              # %if.then63
                                        #   in Loop: Header=BB13_16 Depth=1
	movq	-24(%rbp), %rax
	movq	104(%rax), %rax
	movslq	-12(%rbp), %rcx
	movl	(%rax,%rcx,4), %esi
	movq	-32(%rbp), %rdx
	movabsq	$.L.str.31, %rdi
	callq	ue_v
	addl	-16(%rbp), %eax
	movl	%eax, -16(%rbp)
	jmp	.LBB13_22
.LBB13_19:                              # %if.else68
                                        #   in Loop: Header=BB13_16 Depth=1
	movq	-24(%rbp), %rax
	movq	96(%rax), %rax
	movslq	-12(%rbp), %rcx
	cmpl	$2, (%rax,%rcx,4)
	jne	.LBB13_21
# %bb.20:                               # %if.then73
                                        #   in Loop: Header=BB13_16 Depth=1
	movq	-24(%rbp), %rax
	movq	112(%rax), %rax
	movslq	-12(%rbp), %rcx
	movl	(%rax,%rcx,4), %esi
	movq	-32(%rbp), %rdx
	movabsq	$.L.str.32, %rdi
	callq	ue_v
	addl	-16(%rbp), %eax
	movl	%eax, -16(%rbp)
.LBB13_21:                              # %if.end78
                                        #   in Loop: Header=BB13_16 Depth=1
	jmp	.LBB13_22
.LBB13_22:                              # %if.end79
                                        #   in Loop: Header=BB13_16 Depth=1
	jmp	.LBB13_23
.LBB13_23:                              # %do.cond80
                                        #   in Loop: Header=BB13_16 Depth=1
	movq	-24(%rbp), %rax
	movq	96(%rax), %rax
	movslq	-12(%rbp), %rcx
	cmpl	$3, (%rax,%rcx,4)
	jne	.LBB13_16
# %bb.24:                               # %do.end85
	jmp	.LBB13_25
.LBB13_25:                              # %if.end86
	jmp	.LBB13_26
.LBB13_26:                              # %if.end87
	movl	-16(%rbp), %ebx
	cmpl	$257099745, -36(%rbp)   # imm = 0xF5307E1
	jne	.LBB13_28
.LBB13_27:
	movl	%ebx, %eax
	addq	$40, %rsp
	popq	%rbx
	popq	%rbp
	.cfi_def_cfa %rsp, 8
	retq
.LBB13_28:                              # %func_exit
	.cfi_def_cfa %rbp, 16
	callq	detect_breach
	jmp	.LBB13_27
.Lfunc_end13:
	.size	ref_pic_list_reordering.8, .Lfunc_end13-ref_pic_list_reordering.8
	.cfi_endproc
                                        # -- End function
	.section	.rodata.cst8,"aM",@progbits,8
	.p2align	3               # -- Begin function SliceHeader.9
.LCPI14_0:
	.quad	4611686018427387904     # double 2
	.section	.rodata.cst4,"aM",@progbits,4
	.p2align	2
.LCPI14_1:
	.long	1065353216              # float 1
	.text
	.globl	SliceHeader.9
	.p2align	4, 0x90
	.type	SliceHeader.9,@function
SliceHeader.9:                          # @SliceHeader.9
	.cfi_startproc
# %bb.0:                                # %entry
	pushq	%rbp
	.cfi_def_cfa_offset 16
	.cfi_offset %rbp, -16
	movq	%rsp, %rbp
	.cfi_def_cfa_register %rbp
	pushq	%rbx
	subq	$72, %rsp
	.cfi_offset %rbx, -24
	movl	$107148642, -40(%rbp)   # imm = 0x662F562
	movq	input, %rax
	movslq	2364(%rax), %rax
	movq	assignSE2partition(,%rax,8), %rax
	movl	(%rax), %eax
	movl	%eax, -44(%rbp)
	movq	img, %rax
	movq	14160(%rax), %rax
	movq	24(%rax), %rax
	movslq	-44(%rbp), %rcx
	imulq	$120, %rcx, %rcx
	addq	%rcx, %rax
	movq	%rax, -24(%rbp)
	movq	img, %rax
	movq	14160(%rax), %rax
	movq	%rax, -72(%rbp)
	movl	$0, -12(%rbp)
	movl	$0, -28(%rbp)
	movl	$0, -36(%rbp)
	movq	img, %rax
	cmpl	$0, 72400(%rax)
	je	.LBB14_2
# %bb.1:                                # %if.then
	movq	img, %rax
	movl	12(%rax), %esi
	sarl	$1, %esi
	movq	-24(%rbp), %rdx
	movabsq	$.L.str, %rdi
	callq	ue_v
	movl	%eax, -12(%rbp)
	jmp	.LBB14_3
.LBB14_2:                               # %if.else
	movq	img, %rax
	movl	12(%rax), %esi
	movq	-24(%rbp), %rdx
	movabsq	$.L.str, %rdi
	callq	ue_v
	movl	%eax, -12(%rbp)
.LBB14_3:                               # %if.end
	callq	get_picture_type
	movq	-24(%rbp), %rdx
	movabsq	$.L.str.1, %rdi
	movl	%eax, %esi
	callq	ue_v
	addl	-12(%rbp), %eax
	movl	%eax, -12(%rbp)
	movq	active_pps, %rax
	movl	4(%rax), %esi
	movq	-24(%rbp), %rdx
	movabsq	$.L.str.2, %rdi
	callq	ue_v
	addl	-12(%rbp), %eax
	movl	%eax, -12(%rbp)
	movl	log2_max_frame_num_minus4, %edi
	addl	$4, %edi
	movq	img, %rax
	movl	72464(%rax), %edx
	movq	-24(%rbp), %rcx
	movabsq	$.L.str.3, %rsi
	callq	u_v
	addl	-12(%rbp), %eax
	movl	%eax, -12(%rbp)
	movq	active_sps, %rax
	cmpl	$0, 1148(%rax)
	jne	.LBB14_9
# %bb.4:                                # %if.then15
	movq	img, %rax
	cmpl	$1, 28(%rax)
	movb	$1, %al
	je	.LBB14_6
# %bb.5:                                # %lor.rhs
	movq	img, %rax
	cmpl	$2, 28(%rax)
	sete	%al
.LBB14_6:                               # %lor.end
	xorl	%ecx, %ecx
	testb	$1, %al
	movl	$1, %eax
	cmovnel	%eax, %ecx
	movl	%ecx, -28(%rbp)
	movl	-28(%rbp), %esi
	movq	-24(%rbp), %rdx
	movabsq	$.L.str.4, %rdi
	callq	u_1
	addl	-12(%rbp), %eax
	movl	%eax, -12(%rbp)
	cmpl	$0, -28(%rbp)
	je	.LBB14_8
# %bb.7:                                # %if.then21
	xorl	%eax, %eax
	movq	img, %rcx
	movl	28(%rcx), %ecx
	cmpl	$2, %ecx
	movl	$1, %ecx
	cmovel	%ecx, %eax
	movl	%eax, -36(%rbp)
	movl	-36(%rbp), %esi
	movq	-24(%rbp), %rdx
	movabsq	$.L.str.5, %rdi
	callq	u_1
	addl	-12(%rbp), %eax
	movl	%eax, -12(%rbp)
.LBB14_8:                               # %if.end27
	jmp	.LBB14_9
.LBB14_9:                               # %if.end28
	movq	img, %rax
	movq	14152(%rax), %rax
	cmpl	$0, 4(%rax)
	je	.LBB14_11
# %bb.10:                               # %if.then30
	movq	img, %rax
	movl	(%rax), %eax
	cltd
	movl	$2, %ecx
	idivl	%ecx
	movq	-24(%rbp), %rax
	movabsq	$.L.str.6, %rdi
	movl	%edx, %esi
	movq	%rax, %rdx
	callq	ue_v
	addl	-12(%rbp), %eax
	movl	%eax, -12(%rbp)
.LBB14_11:                              # %if.end33
	movq	img, %rax
	cmpl	$0, 72404(%rax)
	jne	.LBB14_25
# %bb.12:                               # %if.then35
	movq	active_sps, %rax
	cmpl	$0, 1148(%rax)
	je	.LBB14_14
# %bb.13:                               # %if.then38
	movq	img, %rax
	movl	72448(%rax), %eax
	movl	log2_max_pic_order_cnt_lsb_minus4, %ecx
	addl	$4, %ecx
                                        # kill: def $cl killed $ecx
	movl	$4294967295, %edx       # imm = 0xFFFFFFFF
	shll	%cl, %edx
	xorl	$-1, %edx
	andl	%edx, %eax
	movq	img, %rcx
	movl	%eax, 72428(%rcx)
	jmp	.LBB14_21
.LBB14_14:                              # %if.else40
	cmpl	$0, -28(%rbp)
	je	.LBB14_16
# %bb.15:                               # %lor.lhs.false
	movq	img, %rax
	cmpl	$1, 28(%rax)
	jne	.LBB14_17
.LBB14_16:                              # %if.then44
	movq	img, %rax
	movl	72448(%rax), %eax
	movl	log2_max_pic_order_cnt_lsb_minus4, %ecx
	addl	$4, %ecx
                                        # kill: def $cl killed $ecx
	movl	$4294967295, %edx       # imm = 0xFFFFFFFF
	shll	%cl, %edx
	xorl	$-1, %edx
	andl	%edx, %eax
	movq	img, %rcx
	movl	%eax, 72428(%rcx)
	jmp	.LBB14_20
.LBB14_17:                              # %if.else51
	movq	img, %rax
	cmpl	$2, 28(%rax)
	jne	.LBB14_19
# %bb.18:                               # %if.then54
	movq	img, %rax
	movl	72452(%rax), %eax
	movl	log2_max_pic_order_cnt_lsb_minus4, %ecx
	addl	$4, %ecx
                                        # kill: def $cl killed $ecx
	movl	$4294967295, %edx       # imm = 0xFFFFFFFF
	shll	%cl, %edx
	xorl	$-1, %edx
	andl	%edx, %eax
	movq	img, %rcx
	movl	%eax, 72428(%rcx)
.LBB14_19:                              # %if.end60
	jmp	.LBB14_20
.LBB14_20:                              # %if.end61
	jmp	.LBB14_21
.LBB14_21:                              # %if.end62
	movl	log2_max_pic_order_cnt_lsb_minus4, %edi
	addl	$4, %edi
	movq	img, %rax
	movl	72428(%rax), %edx
	movq	-24(%rbp), %rcx
	movabsq	$.L.str.7, %rsi
	callq	u_v
	addl	-12(%rbp), %eax
	movl	%eax, -12(%rbp)
	movq	img, %rax
	cmpl	$0, 72492(%rax)
	je	.LBB14_24
# %bb.22:                               # %land.lhs.true
	cmpl	$0, -28(%rbp)
	jne	.LBB14_24
# %bb.23:                               # %if.then69
	movq	img, %rax
	movl	72432(%rax), %esi
	movq	-24(%rbp), %rdx
	movabsq	$.L.str.8, %rdi
	callq	se_v
	addl	-12(%rbp), %eax
	movl	%eax, -12(%rbp)
.LBB14_24:                              # %if.end72
	jmp	.LBB14_25
.LBB14_25:                              # %if.end73
	movq	img, %rax
	cmpl	$1, 72404(%rax)
	jne	.LBB14_31
# %bb.26:                               # %land.lhs.true76
	movq	img, %rax
	cmpl	$0, 72408(%rax)
	jne	.LBB14_31
# %bb.27:                               # %if.then78
	movq	img, %rax
	movl	72436(%rax), %esi
	movq	-24(%rbp), %rdx
	movabsq	$.L.str.9, %rdi
	callq	se_v
	addl	-12(%rbp), %eax
	movl	%eax, -12(%rbp)
	movq	img, %rax
	cmpl	$0, 72492(%rax)
	je	.LBB14_30
# %bb.28:                               # %land.lhs.true84
	cmpl	$0, -28(%rbp)
	jne	.LBB14_30
# %bb.29:                               # %if.then86
	movq	img, %rax
	movl	72440(%rax), %esi
	movq	-24(%rbp), %rdx
	movabsq	$.L.str.10, %rdi
	callq	se_v
	addl	-12(%rbp), %eax
	movl	%eax, -12(%rbp)
.LBB14_30:                              # %if.end91
	jmp	.LBB14_31
.LBB14_31:                              # %if.end92
	movq	input, %rax
	cmpl	$0, 3204(%rax)
	je	.LBB14_33
# %bb.32:                               # %if.then94
	movq	img, %rax
	movl	72396(%rax), %esi
	movq	-24(%rbp), %rdx
	movabsq	$.L.str.11, %rdi
	callq	ue_v
	addl	-12(%rbp), %eax
	movl	%eax, -12(%rbp)
.LBB14_33:                              # %if.end97
	movq	img, %rax
	cmpl	$1, 24(%rax)
	jne	.LBB14_35
# %bb.34:                               # %if.then99
	movq	img, %rax
	movl	71996(%rax), %esi
	movq	-24(%rbp), %rdx
	movabsq	$.L.str.12, %rdi
	callq	u_1
	addl	-12(%rbp), %eax
	movl	%eax, -12(%rbp)
.LBB14_35:                              # %if.end102
	movq	img, %rax
	cmpl	$0, 24(%rax)
	je	.LBB14_38
# %bb.36:                               # %lor.lhs.false105
	movq	img, %rax
	cmpl	$1, 24(%rax)
	je	.LBB14_38
# %bb.37:                               # %lor.lhs.false108
	movq	img, %rax
	cmpl	$3, 24(%rax)
	jne	.LBB14_49
.LBB14_38:                              # %if.then111
	movq	img, %rax
	cmpl	$0, 24(%rax)
	je	.LBB14_40
# %bb.39:                               # %lor.lhs.false114
	movq	img, %rax
	cmpl	$3, 24(%rax)
	jne	.LBB14_41
.LBB14_40:                              # %if.then117
	xorl	%eax, %eax
	movq	img, %rcx
	movl	72000(%rcx), %ecx
	movq	active_pps, %rdx
	movl	184(%rdx), %edx
	addl	$1, %edx
	cmpl	%edx, %ecx
	movl	$1, %ecx
	cmovnel	%ecx, %eax
	movl	%eax, -32(%rbp)
	jmp	.LBB14_44
.LBB14_41:                              # %if.else121
	movq	img, %rax
	movl	72000(%rax), %eax
	movq	active_pps, %rcx
	movl	184(%rcx), %ecx
	addl	$1, %ecx
	cmpl	%ecx, %eax
	movb	$1, %al
	jne	.LBB14_43
# %bb.42:                               # %lor.rhs126
	movq	img, %rax
	movl	72004(%rax), %eax
	movq	active_pps, %rcx
	movl	188(%rcx), %ecx
	addl	$1, %ecx
	cmpl	%ecx, %eax
	setne	%al
.LBB14_43:                              # %lor.end129
	xorl	%ecx, %ecx
	testb	$1, %al
	movl	$1, %eax
	cmovnel	%eax, %ecx
	movl	%ecx, -32(%rbp)
.LBB14_44:                              # %if.end131
	movl	-32(%rbp), %esi
	movq	-24(%rbp), %rdx
	movabsq	$.L.str.13, %rdi
	callq	u_1
	addl	-12(%rbp), %eax
	movl	%eax, -12(%rbp)
	cmpl	$0, -32(%rbp)
	je	.LBB14_48
# %bb.45:                               # %if.then135
	movq	img, %rax
	movl	72000(%rax), %esi
	subl	$1, %esi
	movq	-24(%rbp), %rdx
	movabsq	$.L.str.14, %rdi
	callq	ue_v
	addl	-12(%rbp), %eax
	movl	%eax, -12(%rbp)
	movq	img, %rax
	cmpl	$1, 24(%rax)
	jne	.LBB14_47
# %bb.46:                               # %if.then141
	movq	img, %rax
	movl	72004(%rax), %esi
	subl	$1, %esi
	movq	-24(%rbp), %rdx
	movabsq	$.L.str.15, %rdi
	callq	ue_v
	addl	-12(%rbp), %eax
	movl	%eax, -12(%rbp)
.LBB14_47:                              # %if.end146
	jmp	.LBB14_48
.LBB14_48:                              # %if.end147
	jmp	.LBB14_49
.LBB14_49:                              # %if.end148
	callq	ref_pic_list_reordering
	addl	-12(%rbp), %eax
	movl	%eax, -12(%rbp)
	movq	img, %rax
	cmpl	$0, 24(%rax)
	je	.LBB14_51
# %bb.50:                               # %lor.lhs.false153
	movq	img, %rax
	cmpl	$3, 24(%rax)
	jne	.LBB14_52
.LBB14_51:                              # %land.lhs.true156
	movq	active_pps, %rax
	cmpl	$0, 192(%rax)
	jne	.LBB14_54
.LBB14_52:                              # %lor.lhs.false158
	movq	img, %rax
	cmpl	$1, 24(%rax)
	jne	.LBB14_55
# %bb.53:                               # %land.lhs.true161
	movq	active_pps, %rax
	cmpl	$1, 196(%rax)
	jne	.LBB14_55
.LBB14_54:                              # %if.then163
	callq	pred_weight_table
	addl	-12(%rbp), %eax
	movl	%eax, -12(%rbp)
.LBB14_55:                              # %if.end166
	movq	img, %rax
	cmpl	$0, 72496(%rax)
	je	.LBB14_57
# %bb.56:                               # %if.then168
	callq	dec_ref_pic_marking
	addl	-12(%rbp), %eax
	movl	%eax, -12(%rbp)
.LBB14_57:                              # %if.end171
	movq	input, %rax
	cmpl	$1, 2356(%rax)
	jne	.LBB14_60
# %bb.58:                               # %land.lhs.true173
	movq	img, %rax
	cmpl	$2, 24(%rax)
	je	.LBB14_60
# %bb.59:                               # %if.then176
	movq	img, %rax
	movl	72520(%rax), %esi
	movq	-24(%rbp), %rdx
	movabsq	$.L.str.16, %rdi
	callq	ue_v
	addl	-12(%rbp), %eax
	movl	%eax, -12(%rbp)
.LBB14_60:                              # %if.end179
	movq	-72(%rbp), %rax
	movl	4(%rax), %esi
	subl	$26, %esi
	movq	active_pps, %rax
	subl	200(%rax), %esi
	movq	-24(%rbp), %rdx
	movabsq	$.L.str.17, %rdi
	callq	se_v
	addl	-12(%rbp), %eax
	movl	%eax, -12(%rbp)
	movq	img, %rax
	cmpl	$3, 24(%rax)
	jne	.LBB14_64
# %bb.61:                               # %if.then186
	movq	img, %rax
	cmpl	$3, 24(%rax)
	jne	.LBB14_63
# %bb.62:                               # %if.then189
	movq	-24(%rbp), %rdx
	movabsq	$.L.str.18, %rdi
	xorl	%esi, %esi
	callq	u_1
	addl	-12(%rbp), %eax
	movl	%eax, -12(%rbp)
.LBB14_63:                              # %if.end192
	movq	img, %rax
	movl	44(%rax), %esi
	subl	$26, %esi
	movq	-24(%rbp), %rdx
	movabsq	$.L.str.19, %rdi
	callq	se_v
	addl	-12(%rbp), %eax
	movl	%eax, -12(%rbp)
.LBB14_64:                              # %if.end196
	movq	active_pps, %rax
	cmpl	$0, 220(%rax)
	je	.LBB14_68
# %bb.65:                               # %if.then198
	movq	img, %rax
	movl	71984(%rax), %esi
	movq	-24(%rbp), %rdx
	movabsq	$.L.str.20, %rdi
	callq	ue_v
	addl	-12(%rbp), %eax
	movl	%eax, -12(%rbp)
	movq	img, %rax
	cmpl	$1, 71984(%rax)
	je	.LBB14_67
# %bb.66:                               # %if.then203
	movq	img, %rax
	movl	71988(%rax), %eax
	cltd
	movl	$2, %ecx
	idivl	%ecx
	movq	-24(%rbp), %rdx
	movabsq	$.L.str.21, %rdi
	movl	%eax, %esi
	callq	se_v
	addl	-12(%rbp), %eax
	movl	%eax, -12(%rbp)
	movq	img, %rax
	movl	71992(%rax), %eax
	cltd
	movl	$2, %ecx
	idivl	%ecx
	movq	-24(%rbp), %rdx
	movabsq	$.L.str.22, %rdi
	movl	%eax, %esi
	callq	se_v
	addl	-12(%rbp), %eax
	movl	%eax, -12(%rbp)
.LBB14_67:                              # %if.end209
	jmp	.LBB14_68
.LBB14_68:                              # %if.end210
	movq	active_pps, %rax
	cmpl	$0, 60(%rax)
	jbe	.LBB14_72
# %bb.69:                               # %land.lhs.true212
	movq	active_pps, %rax
	cmpl	$3, 64(%rax)
	jb	.LBB14_72
# %bb.70:                               # %land.lhs.true214
	movq	active_pps, %rax
	cmpl	$5, 64(%rax)
	ja	.LBB14_72
# %bb.71:                               # %if.then217
	vmovss	.LCPI14_1(%rip), %xmm0  # xmm0 = mem[0],zero,zero,zero
	movq	img(%rip), %rax
	movl	72468(%rax), %ecx
	movl	72472(%rax), %eax
	imull	%ecx, %eax
	vcvtsi2ss	%rax, %xmm0, %xmm1
	movq	active_pps(%rip), %rax
	movl	168(%rax), %eax
	addl	$1, %eax
	vcvtsi2ss	%rax, %xmm0, %xmm2
	vdivss	%xmm2, %xmm1, %xmm1
	vaddss	%xmm0, %xmm1, %xmm0
	vmovss	%xmm0, -52(%rbp)
	vmovss	-52(%rbp), %xmm0        # xmm0 = mem[0],zero,zero,zero
	vcvtss2sd	%xmm0, %xmm0, %xmm0
	callq	log
	vmovsd	%xmm0, -64(%rbp)        # 8-byte Spill
	vmovsd	.LCPI14_0(%rip), %xmm0  # xmm0 = mem[0],zero
	callq	log
	vmovsd	-64(%rbp), %xmm1        # 8-byte Reload
                                        # xmm1 = mem[0],zero
	vdivsd	%xmm0, %xmm1, %xmm0
	vroundsd	$10, %xmm0, %xmm0, %xmm0
	vcvttsd2si	%xmm0, %eax
	movl	%eax, -48(%rbp)
	movl	-48(%rbp), %edi
	movq	img, %rax
	movl	72652(%rax), %edx
	movq	-24(%rbp), %rcx
	movabsq	$.L.str.23, %rsi
	callq	u_v
	addl	-12(%rbp), %eax
	movl	%eax, -12(%rbp)
.LBB14_72:                              # %if.end229
	movq	input, %rax
	cmpl	$0, 2364(%rax)
	je	.LBB14_75
# %bb.73:                               # %land.lhs.true232
	movq	img, %rax
	movq	14152(%rax), %rax
	cmpl	$0, 4(%rax)
	jne	.LBB14_75
# %bb.74:                               # %if.then236
	movq	img, %rax
	movl	20(%rax), %esi
	movq	-24(%rbp), %rdx
	movabsq	$.L.str.24, %rdi
	callq	ue_v
	addl	-12(%rbp), %eax
	movl	%eax, -12(%rbp)
.LBB14_75:                              # %if.end239
	movl	-12(%rbp), %ebx
	cmpl	$107148642, -40(%rbp)   # imm = 0x662F562
	jne	.LBB14_77
.LBB14_76:
	movl	%ebx, %eax
	addq	$72, %rsp
	popq	%rbx
	popq	%rbp
	.cfi_def_cfa %rsp, 8
	retq
.LBB14_77:                              # %func_exit
	.cfi_def_cfa %rbp, 16
	callq	detect_breach
	jmp	.LBB14_76
.Lfunc_end14:
	.size	SliceHeader.9, .Lfunc_end14-SliceHeader.9
	.cfi_endproc
                                        # -- End function
	.p2align	4, 0x90         # -- Begin function pred_weight_table.10
	.type	pred_weight_table.10,@function
pred_weight_table.10:                   # @pred_weight_table.10
	.cfi_startproc
# %bb.0:                                # %entry
	pushq	%rbp
	.cfi_def_cfa_offset 16
	.cfi_offset %rbp, -16
	movq	%rsp, %rbp
	.cfi_def_cfa_register %rbp
	pushq	%rbx
	subq	$40, %rsp
	.cfi_offset %rbx, -24
	movl	$23458547, -40(%rbp)    # imm = 0x165F2F3
	movq	input, %rax
	movslq	2364(%rax), %rax
	movq	assignSE2partition(,%rax,8), %rax
	movl	(%rax), %eax
	movl	%eax, -36(%rbp)
	movq	img, %rax
	movq	14160(%rax), %rax
	movq	24(%rax), %rax
	movslq	-36(%rbp), %rcx
	imulq	$120, %rcx, %rcx
	addq	%rcx, %rax
	movq	%rax, -32(%rbp)
	movl	$0, -12(%rbp)
	movl	luma_log_weight_denom, %esi
	movq	-32(%rbp), %rdx
	movabsq	$.L.str.42, %rdi
	callq	ue_v
	addl	-12(%rbp), %eax
	movl	%eax, -12(%rbp)
	movl	chroma_log_weight_denom, %esi
	movq	-32(%rbp), %rdx
	movabsq	$.L.str.43, %rdi
	callq	ue_v
	addl	-12(%rbp), %eax
	movl	%eax, -12(%rbp)
	movl	$0, -16(%rbp)
.LBB15_1:                               # %for.cond
                                        # =>This Loop Header: Depth=1
                                        #     Child Loop BB15_11 Depth 2
	movl	-16(%rbp), %eax
	movq	img, %rcx
	cmpl	72000(%rcx), %eax
	jge	.LBB15_18
# %bb.2:                                # %for.body
                                        #   in Loop: Header=BB15_1 Depth=1
	movq	wp_weight, %rax
	movq	(%rax), %rax
	movslq	-16(%rbp), %rcx
	movq	(%rax,%rcx,8), %rax
	movl	(%rax), %eax
	movl	luma_log_weight_denom, %ecx
                                        # kill: def $cl killed $ecx
	movl	$1, %edx
	shll	%cl, %edx
	cmpl	%edx, %eax
	jne	.LBB15_4
# %bb.3:                                # %lor.lhs.false
                                        #   in Loop: Header=BB15_1 Depth=1
	movq	wp_offset, %rax
	movq	(%rax), %rax
	movslq	-16(%rbp), %rcx
	movq	(%rax,%rcx,8), %rax
	cmpl	$0, (%rax)
	je	.LBB15_5
.LBB15_4:                               # %if.then
                                        #   in Loop: Header=BB15_1 Depth=1
	movq	-32(%rbp), %rdx
	movabsq	$.L.str.44, %rdi
	movl	$1, %esi
	callq	u_1
	addl	-12(%rbp), %eax
	movl	%eax, -12(%rbp)
	movq	wp_weight, %rax
	movq	(%rax), %rax
	movslq	-16(%rbp), %rcx
	movq	(%rax,%rcx,8), %rax
	movl	(%rax), %esi
	movq	-32(%rbp), %rdx
	movabsq	$.L.str.45, %rdi
	callq	se_v
	addl	-12(%rbp), %eax
	movl	%eax, -12(%rbp)
	movq	wp_offset, %rax
	movq	(%rax), %rax
	movslq	-16(%rbp), %rcx
	movq	(%rax,%rcx,8), %rax
	movl	(%rax), %esi
	movq	-32(%rbp), %rdx
	movabsq	$.L.str.46, %rdi
	callq	se_v
	addl	-12(%rbp), %eax
	movl	%eax, -12(%rbp)
	jmp	.LBB15_6
.LBB15_5:                               # %if.else
                                        #   in Loop: Header=BB15_1 Depth=1
	movq	-32(%rbp), %rdx
	movabsq	$.L.str.44, %rdi
	xorl	%esi, %esi
	callq	u_1
	addl	-12(%rbp), %eax
	movl	%eax, -12(%rbp)
.LBB15_6:                               # %if.end
                                        #   in Loop: Header=BB15_1 Depth=1
	movq	wp_weight, %rax
	movq	(%rax), %rax
	movslq	-16(%rbp), %rcx
	movq	(%rax,%rcx,8), %rax
	movl	4(%rax), %eax
	movl	chroma_log_weight_denom, %ecx
                                        # kill: def $cl killed $ecx
	movl	$1, %edx
	shll	%cl, %edx
	cmpl	%edx, %eax
	jne	.LBB15_10
# %bb.7:                                # %lor.lhs.false38
                                        #   in Loop: Header=BB15_1 Depth=1
	movq	wp_offset, %rax
	movq	(%rax), %rax
	movslq	-16(%rbp), %rcx
	movq	(%rax,%rcx,8), %rax
	cmpl	$0, 4(%rax)
	jne	.LBB15_10
# %bb.8:                                # %lor.lhs.false44
                                        #   in Loop: Header=BB15_1 Depth=1
	movq	wp_weight, %rax
	movq	(%rax), %rax
	movslq	-16(%rbp), %rcx
	movq	(%rax,%rcx,8), %rax
	movl	8(%rax), %eax
	movl	chroma_log_weight_denom, %ecx
                                        # kill: def $cl killed $ecx
	movl	$1, %edx
	shll	%cl, %edx
	cmpl	%edx, %eax
	jne	.LBB15_10
# %bb.9:                                # %lor.lhs.false51
                                        #   in Loop: Header=BB15_1 Depth=1
	movq	wp_offset, %rax
	movq	(%rax), %rax
	movslq	-16(%rbp), %rcx
	movq	(%rax,%rcx,8), %rax
	cmpl	$0, 8(%rax)
	je	.LBB15_15
.LBB15_10:                              # %if.then57
                                        #   in Loop: Header=BB15_1 Depth=1
	movq	-32(%rbp), %rdx
	movabsq	$.L.str.47, %rdi
	movl	$1, %esi
	callq	u_1
	addl	-12(%rbp), %eax
	movl	%eax, -12(%rbp)
	movl	$1, -20(%rbp)
.LBB15_11:                              # %for.cond60
                                        #   Parent Loop BB15_1 Depth=1
                                        # =>  This Inner Loop Header: Depth=2
	cmpl	$3, -20(%rbp)
	jge	.LBB15_14
# %bb.12:                               # %for.body62
                                        #   in Loop: Header=BB15_11 Depth=2
	movq	wp_weight, %rax
	movq	(%rax), %rax
	movslq	-16(%rbp), %rcx
	movq	(%rax,%rcx,8), %rax
	movslq	-20(%rbp), %rcx
	movl	(%rax,%rcx,4), %esi
	movq	-32(%rbp), %rdx
	movabsq	$.L.str.48, %rdi
	callq	se_v
	addl	-12(%rbp), %eax
	movl	%eax, -12(%rbp)
	movq	wp_offset, %rax
	movq	(%rax), %rax
	movslq	-16(%rbp), %rcx
	movq	(%rax,%rcx,8), %rax
	movslq	-20(%rbp), %rcx
	movl	(%rax,%rcx,4), %esi
	movq	-32(%rbp), %rdx
	movabsq	$.L.str.49, %rdi
	callq	se_v
	addl	-12(%rbp), %eax
	movl	%eax, -12(%rbp)
# %bb.13:                               # %for.inc
                                        #   in Loop: Header=BB15_11 Depth=2
	movl	-20(%rbp), %eax
	addl	$1, %eax
	movl	%eax, -20(%rbp)
	jmp	.LBB15_11
.LBB15_14:                              # %for.end
                                        #   in Loop: Header=BB15_1 Depth=1
	jmp	.LBB15_16
.LBB15_15:                              # %if.else77
                                        #   in Loop: Header=BB15_1 Depth=1
	movq	-32(%rbp), %rdx
	movabsq	$.L.str.47, %rdi
	xorl	%esi, %esi
	callq	u_1
	addl	-12(%rbp), %eax
	movl	%eax, -12(%rbp)
.LBB15_16:                              # %if.end80
                                        #   in Loop: Header=BB15_1 Depth=1
	jmp	.LBB15_17
.LBB15_17:                              # %for.inc81
                                        #   in Loop: Header=BB15_1 Depth=1
	movl	-16(%rbp), %eax
	addl	$1, %eax
	movl	%eax, -16(%rbp)
	jmp	.LBB15_1
.LBB15_18:                              # %for.end83
	movq	img, %rax
	cmpl	$1, 24(%rax)
	jne	.LBB15_38
# %bb.19:                               # %if.then85
	movl	$0, -16(%rbp)
.LBB15_20:                              # %for.cond86
                                        # =>This Loop Header: Depth=1
                                        #     Child Loop BB15_30 Depth 2
	movl	-16(%rbp), %eax
	movq	img, %rcx
	cmpl	72004(%rcx), %eax
	jge	.LBB15_37
# %bb.21:                               # %for.body88
                                        #   in Loop: Header=BB15_20 Depth=1
	movq	wp_weight, %rax
	movq	8(%rax), %rax
	movslq	-16(%rbp), %rcx
	movq	(%rax,%rcx,8), %rax
	movl	(%rax), %eax
	movl	luma_log_weight_denom, %ecx
                                        # kill: def $cl killed $ecx
	movl	$1, %edx
	shll	%cl, %edx
	cmpl	%edx, %eax
	jne	.LBB15_23
# %bb.22:                               # %lor.lhs.false95
                                        #   in Loop: Header=BB15_20 Depth=1
	movq	wp_offset, %rax
	movq	8(%rax), %rax
	movslq	-16(%rbp), %rcx
	movq	(%rax,%rcx,8), %rax
	cmpl	$0, (%rax)
	je	.LBB15_24
.LBB15_23:                              # %if.then101
                                        #   in Loop: Header=BB15_20 Depth=1
	movq	-32(%rbp), %rdx
	movabsq	$.L.str.50, %rdi
	movl	$1, %esi
	callq	u_1
	addl	-12(%rbp), %eax
	movl	%eax, -12(%rbp)
	movq	wp_weight, %rax
	movq	8(%rax), %rax
	movslq	-16(%rbp), %rcx
	movq	(%rax,%rcx,8), %rax
	movl	(%rax), %esi
	movq	-32(%rbp), %rdx
	movabsq	$.L.str.51, %rdi
	callq	se_v
	addl	-12(%rbp), %eax
	movl	%eax, -12(%rbp)
	movq	wp_offset, %rax
	movq	8(%rax), %rax
	movslq	-16(%rbp), %rcx
	movq	(%rax,%rcx,8), %rax
	movl	(%rax), %esi
	movq	-32(%rbp), %rdx
	movabsq	$.L.str.52, %rdi
	callq	se_v
	addl	-12(%rbp), %eax
	movl	%eax, -12(%rbp)
	jmp	.LBB15_25
.LBB15_24:                              # %if.else116
                                        #   in Loop: Header=BB15_20 Depth=1
	movq	-32(%rbp), %rdx
	movabsq	$.L.str.50, %rdi
	xorl	%esi, %esi
	callq	u_1
	addl	-12(%rbp), %eax
	movl	%eax, -12(%rbp)
.LBB15_25:                              # %if.end119
                                        #   in Loop: Header=BB15_20 Depth=1
	movq	wp_weight, %rax
	movq	8(%rax), %rax
	movslq	-16(%rbp), %rcx
	movq	(%rax,%rcx,8), %rax
	movl	4(%rax), %eax
	movl	chroma_log_weight_denom, %ecx
                                        # kill: def $cl killed $ecx
	movl	$1, %edx
	shll	%cl, %edx
	cmpl	%edx, %eax
	jne	.LBB15_29
# %bb.26:                               # %lor.lhs.false126
                                        #   in Loop: Header=BB15_20 Depth=1
	movq	wp_offset, %rax
	movq	8(%rax), %rax
	movslq	-16(%rbp), %rcx
	movq	(%rax,%rcx,8), %rax
	cmpl	$0, 4(%rax)
	jne	.LBB15_29
# %bb.27:                               # %lor.lhs.false132
                                        #   in Loop: Header=BB15_20 Depth=1
	movq	wp_weight, %rax
	movq	8(%rax), %rax
	movslq	-16(%rbp), %rcx
	movq	(%rax,%rcx,8), %rax
	movl	8(%rax), %eax
	movl	chroma_log_weight_denom, %ecx
                                        # kill: def $cl killed $ecx
	movl	$1, %edx
	shll	%cl, %edx
	cmpl	%edx, %eax
	jne	.LBB15_29
# %bb.28:                               # %lor.lhs.false139
                                        #   in Loop: Header=BB15_20 Depth=1
	movq	wp_offset, %rax
	movq	8(%rax), %rax
	movslq	-16(%rbp), %rcx
	movq	(%rax,%rcx,8), %rax
	cmpl	$0, 8(%rax)
	je	.LBB15_34
.LBB15_29:                              # %if.then145
                                        #   in Loop: Header=BB15_20 Depth=1
	movq	-32(%rbp), %rdx
	movabsq	$.L.str.53, %rdi
	movl	$1, %esi
	callq	u_1
	addl	-12(%rbp), %eax
	movl	%eax, -12(%rbp)
	movl	$1, -20(%rbp)
.LBB15_30:                              # %for.cond148
                                        #   Parent Loop BB15_20 Depth=1
                                        # =>  This Inner Loop Header: Depth=2
	cmpl	$3, -20(%rbp)
	jge	.LBB15_33
# %bb.31:                               # %for.body150
                                        #   in Loop: Header=BB15_30 Depth=2
	movq	wp_weight, %rax
	movq	8(%rax), %rax
	movslq	-16(%rbp), %rcx
	movq	(%rax,%rcx,8), %rax
	movslq	-20(%rbp), %rcx
	movl	(%rax,%rcx,4), %esi
	movq	-32(%rbp), %rdx
	movabsq	$.L.str.54, %rdi
	callq	se_v
	addl	-12(%rbp), %eax
	movl	%eax, -12(%rbp)
	movq	wp_offset, %rax
	movq	8(%rax), %rax
	movslq	-16(%rbp), %rcx
	movq	(%rax,%rcx,8), %rax
	movslq	-20(%rbp), %rcx
	movl	(%rax,%rcx,4), %esi
	movq	-32(%rbp), %rdx
	movabsq	$.L.str.55, %rdi
	callq	se_v
	addl	-12(%rbp), %eax
	movl	%eax, -12(%rbp)
# %bb.32:                               # %for.inc165
                                        #   in Loop: Header=BB15_30 Depth=2
	movl	-20(%rbp), %eax
	addl	$1, %eax
	movl	%eax, -20(%rbp)
	jmp	.LBB15_30
.LBB15_33:                              # %for.end167
                                        #   in Loop: Header=BB15_20 Depth=1
	jmp	.LBB15_35
.LBB15_34:                              # %if.else168
                                        #   in Loop: Header=BB15_20 Depth=1
	movq	-32(%rbp), %rdx
	movabsq	$.L.str.53, %rdi
	xorl	%esi, %esi
	callq	u_1
	addl	-12(%rbp), %eax
	movl	%eax, -12(%rbp)
.LBB15_35:                              # %if.end171
                                        #   in Loop: Header=BB15_20 Depth=1
	jmp	.LBB15_36
.LBB15_36:                              # %for.inc172
                                        #   in Loop: Header=BB15_20 Depth=1
	movl	-16(%rbp), %eax
	addl	$1, %eax
	movl	%eax, -16(%rbp)
	jmp	.LBB15_20
.LBB15_37:                              # %for.end174
	jmp	.LBB15_38
.LBB15_38:                              # %if.end175
	movl	-12(%rbp), %ebx
	cmpl	$23458547, -40(%rbp)    # imm = 0x165F2F3
	jne	.LBB15_40
.LBB15_39:
	movl	%ebx, %eax
	addq	$40, %rsp
	popq	%rbx
	popq	%rbp
	.cfi_def_cfa %rsp, 8
	retq
.LBB15_40:                              # %func_exit
	.cfi_def_cfa %rbp, 16
	callq	detect_breach
	jmp	.LBB15_39
.Lfunc_end15:
	.size	pred_weight_table.10, .Lfunc_end15-pred_weight_table.10
	.cfi_endproc
                                        # -- End function
	.p2align	4, 0x90         # -- Begin function ref_pic_list_reordering.11
	.type	ref_pic_list_reordering.11,@function
ref_pic_list_reordering.11:             # @ref_pic_list_reordering.11
	.cfi_startproc
# %bb.0:                                # %entry
	pushq	%rbp
	.cfi_def_cfa_offset 16
	.cfi_offset %rbp, -16
	movq	%rsp, %rbp
	.cfi_def_cfa_register %rbp
	pushq	%rbx
	subq	$40, %rsp
	.cfi_offset %rbx, -24
	movl	$1233553762, -36(%rbp)  # imm = 0x49868962
	movq	input, %rax
	movslq	2364(%rax), %rax
	movq	assignSE2partition(,%rax,8), %rax
	movl	(%rax), %eax
	movl	%eax, -40(%rbp)
	movq	img, %rax
	movq	14160(%rax), %rax
	movq	24(%rax), %rax
	movslq	-40(%rbp), %rcx
	imulq	$120, %rcx, %rcx
	addq	%rcx, %rax
	movq	%rax, -32(%rbp)
	movq	img, %rax
	movq	14160(%rax), %rax
	movq	%rax, -24(%rbp)
	movl	$0, -16(%rbp)
	movq	img, %rax
	cmpl	$2, 24(%rax)
	je	.LBB16_13
# %bb.1:                                # %if.then
	movq	-24(%rbp), %rax
	movl	56(%rax), %esi
	movq	-32(%rbp), %rdx
	movabsq	$.L.str.26, %rdi
	callq	u_1
	addl	-16(%rbp), %eax
	movl	%eax, -16(%rbp)
	movq	-24(%rbp), %rax
	cmpl	$0, 56(%rax)
	je	.LBB16_12
# %bb.2:                                # %if.then6
	movl	$-1, -12(%rbp)
.LBB16_3:                               # %do.body
                                        # =>This Inner Loop Header: Depth=1
	movl	-12(%rbp), %eax
	addl	$1, %eax
	movl	%eax, -12(%rbp)
	movq	-24(%rbp), %rax
	movq	64(%rax), %rax
	movslq	-12(%rbp), %rcx
	movl	(%rax,%rcx,4), %esi
	movq	-32(%rbp), %rdx
	movabsq	$.L.str.27, %rdi
	callq	ue_v
	addl	-16(%rbp), %eax
	movl	%eax, -16(%rbp)
	movq	-24(%rbp), %rax
	movq	64(%rax), %rax
	movslq	-12(%rbp), %rcx
	cmpl	$0, (%rax,%rcx,4)
	je	.LBB16_5
# %bb.4:                                # %lor.lhs.false
                                        #   in Loop: Header=BB16_3 Depth=1
	movq	-24(%rbp), %rax
	movq	64(%rax), %rax
	movslq	-12(%rbp), %rcx
	cmpl	$1, (%rax,%rcx,4)
	jne	.LBB16_6
.LBB16_5:                               # %if.then19
                                        #   in Loop: Header=BB16_3 Depth=1
	movq	-24(%rbp), %rax
	movq	72(%rax), %rax
	movslq	-12(%rbp), %rcx
	movl	(%rax,%rcx,4), %esi
	movq	-32(%rbp), %rdx
	movabsq	$.L.str.28, %rdi
	callq	ue_v
	addl	-16(%rbp), %eax
	movl	%eax, -16(%rbp)
	jmp	.LBB16_9
.LBB16_6:                               # %if.else
                                        #   in Loop: Header=BB16_3 Depth=1
	movq	-24(%rbp), %rax
	movq	64(%rax), %rax
	movslq	-12(%rbp), %rcx
	cmpl	$2, (%rax,%rcx,4)
	jne	.LBB16_8
# %bb.7:                                # %if.then28
                                        #   in Loop: Header=BB16_3 Depth=1
	movq	-24(%rbp), %rax
	movq	80(%rax), %rax
	movslq	-12(%rbp), %rcx
	movl	(%rax,%rcx,4), %esi
	movq	-32(%rbp), %rdx
	movabsq	$.L.str.29, %rdi
	callq	ue_v
	addl	-16(%rbp), %eax
	movl	%eax, -16(%rbp)
.LBB16_8:                               # %if.end
                                        #   in Loop: Header=BB16_3 Depth=1
	jmp	.LBB16_9
.LBB16_9:                               # %if.end33
                                        #   in Loop: Header=BB16_3 Depth=1
	jmp	.LBB16_10
.LBB16_10:                              # %do.cond
                                        #   in Loop: Header=BB16_3 Depth=1
	movq	-24(%rbp), %rax
	movq	64(%rax), %rax
	movslq	-12(%rbp), %rcx
	cmpl	$3, (%rax,%rcx,4)
	jne	.LBB16_3
# %bb.11:                               # %do.end
	jmp	.LBB16_12
.LBB16_12:                              # %if.end38
	jmp	.LBB16_13
.LBB16_13:                              # %if.end39
	movq	img, %rax
	cmpl	$1, 24(%rax)
	jne	.LBB16_26
# %bb.14:                               # %if.then42
	movq	-24(%rbp), %rax
	movl	88(%rax), %esi
	movq	-32(%rbp), %rdx
	movabsq	$.L.str.30, %rdi
	callq	u_1
	addl	-16(%rbp), %eax
	movl	%eax, -16(%rbp)
	movq	-24(%rbp), %rax
	cmpl	$0, 88(%rax)
	je	.LBB16_25
# %bb.15:                               # %if.then47
	movl	$-1, -12(%rbp)
.LBB16_16:                              # %do.body48
                                        # =>This Inner Loop Header: Depth=1
	movl	-12(%rbp), %eax
	addl	$1, %eax
	movl	%eax, -12(%rbp)
	movq	-24(%rbp), %rax
	movq	96(%rax), %rax
	movslq	-12(%rbp), %rcx
	movl	(%rax,%rcx,4), %esi
	movq	-32(%rbp), %rdx
	movabsq	$.L.str.27, %rdi
	callq	ue_v
	addl	-16(%rbp), %eax
	movl	%eax, -16(%rbp)
	movq	-24(%rbp), %rax
	movq	96(%rax), %rax
	movslq	-12(%rbp), %rcx
	cmpl	$0, (%rax,%rcx,4)
	je	.LBB16_18
# %bb.17:                               # %lor.lhs.false58
                                        #   in Loop: Header=BB16_16 Depth=1
	movq	-24(%rbp), %rax
	movq	96(%rax), %rax
	movslq	-12(%rbp), %rcx
	cmpl	$1, (%rax,%rcx,4)
	jne	.LBB16_19
.LBB16_18:                              # %if.then63
                                        #   in Loop: Header=BB16_16 Depth=1
	movq	-24(%rbp), %rax
	movq	104(%rax), %rax
	movslq	-12(%rbp), %rcx
	movl	(%rax,%rcx,4), %esi
	movq	-32(%rbp), %rdx
	movabsq	$.L.str.31, %rdi
	callq	ue_v
	addl	-16(%rbp), %eax
	movl	%eax, -16(%rbp)
	jmp	.LBB16_22
.LBB16_19:                              # %if.else68
                                        #   in Loop: Header=BB16_16 Depth=1
	movq	-24(%rbp), %rax
	movq	96(%rax), %rax
	movslq	-12(%rbp), %rcx
	cmpl	$2, (%rax,%rcx,4)
	jne	.LBB16_21
# %bb.20:                               # %if.then73
                                        #   in Loop: Header=BB16_16 Depth=1
	movq	-24(%rbp), %rax
	movq	112(%rax), %rax
	movslq	-12(%rbp), %rcx
	movl	(%rax,%rcx,4), %esi
	movq	-32(%rbp), %rdx
	movabsq	$.L.str.32, %rdi
	callq	ue_v
	addl	-16(%rbp), %eax
	movl	%eax, -16(%rbp)
.LBB16_21:                              # %if.end78
                                        #   in Loop: Header=BB16_16 Depth=1
	jmp	.LBB16_22
.LBB16_22:                              # %if.end79
                                        #   in Loop: Header=BB16_16 Depth=1
	jmp	.LBB16_23
.LBB16_23:                              # %do.cond80
                                        #   in Loop: Header=BB16_16 Depth=1
	movq	-24(%rbp), %rax
	movq	96(%rax), %rax
	movslq	-12(%rbp), %rcx
	cmpl	$3, (%rax,%rcx,4)
	jne	.LBB16_16
# %bb.24:                               # %do.end85
	jmp	.LBB16_25
.LBB16_25:                              # %if.end86
	jmp	.LBB16_26
.LBB16_26:                              # %if.end87
	movl	-16(%rbp), %ebx
	cmpl	$1233553762, -36(%rbp)  # imm = 0x49868962
	jne	.LBB16_28
.LBB16_27:
	movl	%ebx, %eax
	addq	$40, %rsp
	popq	%rbx
	popq	%rbp
	.cfi_def_cfa %rsp, 8
	retq
.LBB16_28:                              # %func_exit
	.cfi_def_cfa %rbp, 16
	callq	detect_breach
	jmp	.LBB16_27
.Lfunc_end16:
	.size	ref_pic_list_reordering.11, .Lfunc_end16-ref_pic_list_reordering.11
	.cfi_endproc
                                        # -- End function
	.section	.rodata.cst8,"aM",@progbits,8
	.p2align	3               # -- Begin function SliceHeader.12
.LCPI17_0:
	.quad	4611686018427387904     # double 2
	.section	.rodata.cst4,"aM",@progbits,4
	.p2align	2
.LCPI17_1:
	.long	1065353216              # float 1
	.text
	.globl	SliceHeader.12
	.p2align	4, 0x90
	.type	SliceHeader.12,@function
SliceHeader.12:                         # @SliceHeader.12
	.cfi_startproc
# %bb.0:                                # %entry
	pushq	%rbp
	.cfi_def_cfa_offset 16
	.cfi_offset %rbp, -16
	movq	%rsp, %rbp
	.cfi_def_cfa_register %rbp
	pushq	%rbx
	subq	$72, %rsp
	.cfi_offset %rbx, -24
	movl	$1141591962, -52(%rbp)  # imm = 0x440B4F9A
	movq	input, %rax
	movslq	2364(%rax), %rax
	movq	assignSE2partition(,%rax,8), %rax
	movl	(%rax), %eax
	movl	%eax, -40(%rbp)
	movq	img, %rax
	movq	14160(%rax), %rax
	movq	24(%rax), %rax
	movslq	-40(%rbp), %rcx
	imulq	$120, %rcx, %rcx
	addq	%rcx, %rax
	movq	%rax, -24(%rbp)
	movq	img, %rax
	movq	14160(%rax), %rax
	movq	%rax, -72(%rbp)
	movl	$0, -12(%rbp)
	movl	$0, -28(%rbp)
	movl	$0, -36(%rbp)
	movq	img, %rax
	cmpl	$0, 72400(%rax)
	je	.LBB17_2
# %bb.1:                                # %if.then
	movq	img, %rax
	movl	12(%rax), %esi
	sarl	$1, %esi
	movq	-24(%rbp), %rdx
	movabsq	$.L.str, %rdi
	callq	ue_v
	movl	%eax, -12(%rbp)
	jmp	.LBB17_3
.LBB17_2:                               # %if.else
	movq	img, %rax
	movl	12(%rax), %esi
	movq	-24(%rbp), %rdx
	movabsq	$.L.str, %rdi
	callq	ue_v
	movl	%eax, -12(%rbp)
.LBB17_3:                               # %if.end
	callq	get_picture_type
	movq	-24(%rbp), %rdx
	movabsq	$.L.str.1, %rdi
	movl	%eax, %esi
	callq	ue_v
	addl	-12(%rbp), %eax
	movl	%eax, -12(%rbp)
	movq	active_pps, %rax
	movl	4(%rax), %esi
	movq	-24(%rbp), %rdx
	movabsq	$.L.str.2, %rdi
	callq	ue_v
	addl	-12(%rbp), %eax
	movl	%eax, -12(%rbp)
	movl	log2_max_frame_num_minus4, %edi
	addl	$4, %edi
	movq	img, %rax
	movl	72464(%rax), %edx
	movq	-24(%rbp), %rcx
	movabsq	$.L.str.3, %rsi
	callq	u_v
	addl	-12(%rbp), %eax
	movl	%eax, -12(%rbp)
	movq	active_sps, %rax
	cmpl	$0, 1148(%rax)
	jne	.LBB17_9
# %bb.4:                                # %if.then15
	movq	img, %rax
	cmpl	$1, 28(%rax)
	movb	$1, %al
	je	.LBB17_6
# %bb.5:                                # %lor.rhs
	movq	img, %rax
	cmpl	$2, 28(%rax)
	sete	%al
.LBB17_6:                               # %lor.end
	xorl	%ecx, %ecx
	testb	$1, %al
	movl	$1, %eax
	cmovnel	%eax, %ecx
	movl	%ecx, -28(%rbp)
	movl	-28(%rbp), %esi
	movq	-24(%rbp), %rdx
	movabsq	$.L.str.4, %rdi
	callq	u_1
	addl	-12(%rbp), %eax
	movl	%eax, -12(%rbp)
	cmpl	$0, -28(%rbp)
	je	.LBB17_8
# %bb.7:                                # %if.then21
	xorl	%eax, %eax
	movq	img, %rcx
	movl	28(%rcx), %ecx
	cmpl	$2, %ecx
	movl	$1, %ecx
	cmovel	%ecx, %eax
	movl	%eax, -36(%rbp)
	movl	-36(%rbp), %esi
	movq	-24(%rbp), %rdx
	movabsq	$.L.str.5, %rdi
	callq	u_1
	addl	-12(%rbp), %eax
	movl	%eax, -12(%rbp)
.LBB17_8:                               # %if.end27
	jmp	.LBB17_9
.LBB17_9:                               # %if.end28
	movq	img, %rax
	movq	14152(%rax), %rax
	cmpl	$0, 4(%rax)
	je	.LBB17_11
# %bb.10:                               # %if.then30
	movq	img, %rax
	movl	(%rax), %eax
	cltd
	movl	$2, %ecx
	idivl	%ecx
	movq	-24(%rbp), %rax
	movabsq	$.L.str.6, %rdi
	movl	%edx, %esi
	movq	%rax, %rdx
	callq	ue_v
	addl	-12(%rbp), %eax
	movl	%eax, -12(%rbp)
.LBB17_11:                              # %if.end33
	movq	img, %rax
	cmpl	$0, 72404(%rax)
	jne	.LBB17_25
# %bb.12:                               # %if.then35
	movq	active_sps, %rax
	cmpl	$0, 1148(%rax)
	je	.LBB17_14
# %bb.13:                               # %if.then38
	movq	img, %rax
	movl	72448(%rax), %eax
	movl	log2_max_pic_order_cnt_lsb_minus4, %ecx
	addl	$4, %ecx
                                        # kill: def $cl killed $ecx
	movl	$4294967295, %edx       # imm = 0xFFFFFFFF
	shll	%cl, %edx
	xorl	$-1, %edx
	andl	%edx, %eax
	movq	img, %rcx
	movl	%eax, 72428(%rcx)
	jmp	.LBB17_21
.LBB17_14:                              # %if.else40
	cmpl	$0, -28(%rbp)
	je	.LBB17_16
# %bb.15:                               # %lor.lhs.false
	movq	img, %rax
	cmpl	$1, 28(%rax)
	jne	.LBB17_17
.LBB17_16:                              # %if.then44
	movq	img, %rax
	movl	72448(%rax), %eax
	movl	log2_max_pic_order_cnt_lsb_minus4, %ecx
	addl	$4, %ecx
                                        # kill: def $cl killed $ecx
	movl	$4294967295, %edx       # imm = 0xFFFFFFFF
	shll	%cl, %edx
	xorl	$-1, %edx
	andl	%edx, %eax
	movq	img, %rcx
	movl	%eax, 72428(%rcx)
	jmp	.LBB17_20
.LBB17_17:                              # %if.else51
	movq	img, %rax
	cmpl	$2, 28(%rax)
	jne	.LBB17_19
# %bb.18:                               # %if.then54
	movq	img, %rax
	movl	72452(%rax), %eax
	movl	log2_max_pic_order_cnt_lsb_minus4, %ecx
	addl	$4, %ecx
                                        # kill: def $cl killed $ecx
	movl	$4294967295, %edx       # imm = 0xFFFFFFFF
	shll	%cl, %edx
	xorl	$-1, %edx
	andl	%edx, %eax
	movq	img, %rcx
	movl	%eax, 72428(%rcx)
.LBB17_19:                              # %if.end60
	jmp	.LBB17_20
.LBB17_20:                              # %if.end61
	jmp	.LBB17_21
.LBB17_21:                              # %if.end62
	movl	log2_max_pic_order_cnt_lsb_minus4, %edi
	addl	$4, %edi
	movq	img, %rax
	movl	72428(%rax), %edx
	movq	-24(%rbp), %rcx
	movabsq	$.L.str.7, %rsi
	callq	u_v
	addl	-12(%rbp), %eax
	movl	%eax, -12(%rbp)
	movq	img, %rax
	cmpl	$0, 72492(%rax)
	je	.LBB17_24
# %bb.22:                               # %land.lhs.true
	cmpl	$0, -28(%rbp)
	jne	.LBB17_24
# %bb.23:                               # %if.then69
	movq	img, %rax
	movl	72432(%rax), %esi
	movq	-24(%rbp), %rdx
	movabsq	$.L.str.8, %rdi
	callq	se_v
	addl	-12(%rbp), %eax
	movl	%eax, -12(%rbp)
.LBB17_24:                              # %if.end72
	jmp	.LBB17_25
.LBB17_25:                              # %if.end73
	movq	img, %rax
	cmpl	$1, 72404(%rax)
	jne	.LBB17_31
# %bb.26:                               # %land.lhs.true76
	movq	img, %rax
	cmpl	$0, 72408(%rax)
	jne	.LBB17_31
# %bb.27:                               # %if.then78
	movq	img, %rax
	movl	72436(%rax), %esi
	movq	-24(%rbp), %rdx
	movabsq	$.L.str.9, %rdi
	callq	se_v
	addl	-12(%rbp), %eax
	movl	%eax, -12(%rbp)
	movq	img, %rax
	cmpl	$0, 72492(%rax)
	je	.LBB17_30
# %bb.28:                               # %land.lhs.true84
	cmpl	$0, -28(%rbp)
	jne	.LBB17_30
# %bb.29:                               # %if.then86
	movq	img, %rax
	movl	72440(%rax), %esi
	movq	-24(%rbp), %rdx
	movabsq	$.L.str.10, %rdi
	callq	se_v
	addl	-12(%rbp), %eax
	movl	%eax, -12(%rbp)
.LBB17_30:                              # %if.end91
	jmp	.LBB17_31
.LBB17_31:                              # %if.end92
	movq	input, %rax
	cmpl	$0, 3204(%rax)
	je	.LBB17_33
# %bb.32:                               # %if.then94
	movq	img, %rax
	movl	72396(%rax), %esi
	movq	-24(%rbp), %rdx
	movabsq	$.L.str.11, %rdi
	callq	ue_v
	addl	-12(%rbp), %eax
	movl	%eax, -12(%rbp)
.LBB17_33:                              # %if.end97
	movq	img, %rax
	cmpl	$1, 24(%rax)
	jne	.LBB17_35
# %bb.34:                               # %if.then99
	movq	img, %rax
	movl	71996(%rax), %esi
	movq	-24(%rbp), %rdx
	movabsq	$.L.str.12, %rdi
	callq	u_1
	addl	-12(%rbp), %eax
	movl	%eax, -12(%rbp)
.LBB17_35:                              # %if.end102
	movq	img, %rax
	cmpl	$0, 24(%rax)
	je	.LBB17_38
# %bb.36:                               # %lor.lhs.false105
	movq	img, %rax
	cmpl	$1, 24(%rax)
	je	.LBB17_38
# %bb.37:                               # %lor.lhs.false108
	movq	img, %rax
	cmpl	$3, 24(%rax)
	jne	.LBB17_49
.LBB17_38:                              # %if.then111
	movq	img, %rax
	cmpl	$0, 24(%rax)
	je	.LBB17_40
# %bb.39:                               # %lor.lhs.false114
	movq	img, %rax
	cmpl	$3, 24(%rax)
	jne	.LBB17_41
.LBB17_40:                              # %if.then117
	xorl	%eax, %eax
	movq	img, %rcx
	movl	72000(%rcx), %ecx
	movq	active_pps, %rdx
	movl	184(%rdx), %edx
	addl	$1, %edx
	cmpl	%edx, %ecx
	movl	$1, %ecx
	cmovnel	%ecx, %eax
	movl	%eax, -32(%rbp)
	jmp	.LBB17_44
.LBB17_41:                              # %if.else121
	movq	img, %rax
	movl	72000(%rax), %eax
	movq	active_pps, %rcx
	movl	184(%rcx), %ecx
	addl	$1, %ecx
	cmpl	%ecx, %eax
	movb	$1, %al
	jne	.LBB17_43
# %bb.42:                               # %lor.rhs126
	movq	img, %rax
	movl	72004(%rax), %eax
	movq	active_pps, %rcx
	movl	188(%rcx), %ecx
	addl	$1, %ecx
	cmpl	%ecx, %eax
	setne	%al
.LBB17_43:                              # %lor.end129
	xorl	%ecx, %ecx
	testb	$1, %al
	movl	$1, %eax
	cmovnel	%eax, %ecx
	movl	%ecx, -32(%rbp)
.LBB17_44:                              # %if.end131
	movl	-32(%rbp), %esi
	movq	-24(%rbp), %rdx
	movabsq	$.L.str.13, %rdi
	callq	u_1
	addl	-12(%rbp), %eax
	movl	%eax, -12(%rbp)
	cmpl	$0, -32(%rbp)
	je	.LBB17_48
# %bb.45:                               # %if.then135
	movq	img, %rax
	movl	72000(%rax), %esi
	subl	$1, %esi
	movq	-24(%rbp), %rdx
	movabsq	$.L.str.14, %rdi
	callq	ue_v
	addl	-12(%rbp), %eax
	movl	%eax, -12(%rbp)
	movq	img, %rax
	cmpl	$1, 24(%rax)
	jne	.LBB17_47
# %bb.46:                               # %if.then141
	movq	img, %rax
	movl	72004(%rax), %esi
	subl	$1, %esi
	movq	-24(%rbp), %rdx
	movabsq	$.L.str.15, %rdi
	callq	ue_v
	addl	-12(%rbp), %eax
	movl	%eax, -12(%rbp)
.LBB17_47:                              # %if.end146
	jmp	.LBB17_48
.LBB17_48:                              # %if.end147
	jmp	.LBB17_49
.LBB17_49:                              # %if.end148
	callq	ref_pic_list_reordering
	addl	-12(%rbp), %eax
	movl	%eax, -12(%rbp)
	movq	img, %rax
	cmpl	$0, 24(%rax)
	je	.LBB17_51
# %bb.50:                               # %lor.lhs.false153
	movq	img, %rax
	cmpl	$3, 24(%rax)
	jne	.LBB17_52
.LBB17_51:                              # %land.lhs.true156
	movq	active_pps, %rax
	cmpl	$0, 192(%rax)
	jne	.LBB17_54
.LBB17_52:                              # %lor.lhs.false158
	movq	img, %rax
	cmpl	$1, 24(%rax)
	jne	.LBB17_55
# %bb.53:                               # %land.lhs.true161
	movq	active_pps, %rax
	cmpl	$1, 196(%rax)
	jne	.LBB17_55
.LBB17_54:                              # %if.then163
	callq	pred_weight_table
	addl	-12(%rbp), %eax
	movl	%eax, -12(%rbp)
.LBB17_55:                              # %if.end166
	movq	img, %rax
	cmpl	$0, 72496(%rax)
	je	.LBB17_57
# %bb.56:                               # %if.then168
	callq	dec_ref_pic_marking
	addl	-12(%rbp), %eax
	movl	%eax, -12(%rbp)
.LBB17_57:                              # %if.end171
	movq	input, %rax
	cmpl	$1, 2356(%rax)
	jne	.LBB17_60
# %bb.58:                               # %land.lhs.true173
	movq	img, %rax
	cmpl	$2, 24(%rax)
	je	.LBB17_60
# %bb.59:                               # %if.then176
	movq	img, %rax
	movl	72520(%rax), %esi
	movq	-24(%rbp), %rdx
	movabsq	$.L.str.16, %rdi
	callq	ue_v
	addl	-12(%rbp), %eax
	movl	%eax, -12(%rbp)
.LBB17_60:                              # %if.end179
	movq	-72(%rbp), %rax
	movl	4(%rax), %esi
	subl	$26, %esi
	movq	active_pps, %rax
	subl	200(%rax), %esi
	movq	-24(%rbp), %rdx
	movabsq	$.L.str.17, %rdi
	callq	se_v
	addl	-12(%rbp), %eax
	movl	%eax, -12(%rbp)
	movq	img, %rax
	cmpl	$3, 24(%rax)
	jne	.LBB17_64
# %bb.61:                               # %if.then186
	movq	img, %rax
	cmpl	$3, 24(%rax)
	jne	.LBB17_63
# %bb.62:                               # %if.then189
	movq	-24(%rbp), %rdx
	movabsq	$.L.str.18, %rdi
	xorl	%esi, %esi
	callq	u_1
	addl	-12(%rbp), %eax
	movl	%eax, -12(%rbp)
.LBB17_63:                              # %if.end192
	movq	img, %rax
	movl	44(%rax), %esi
	subl	$26, %esi
	movq	-24(%rbp), %rdx
	movabsq	$.L.str.19, %rdi
	callq	se_v
	addl	-12(%rbp), %eax
	movl	%eax, -12(%rbp)
.LBB17_64:                              # %if.end196
	movq	active_pps, %rax
	cmpl	$0, 220(%rax)
	je	.LBB17_68
# %bb.65:                               # %if.then198
	movq	img, %rax
	movl	71984(%rax), %esi
	movq	-24(%rbp), %rdx
	movabsq	$.L.str.20, %rdi
	callq	ue_v
	addl	-12(%rbp), %eax
	movl	%eax, -12(%rbp)
	movq	img, %rax
	cmpl	$1, 71984(%rax)
	je	.LBB17_67
# %bb.66:                               # %if.then203
	movq	img, %rax
	movl	71988(%rax), %eax
	cltd
	movl	$2, %ecx
	idivl	%ecx
	movq	-24(%rbp), %rdx
	movabsq	$.L.str.21, %rdi
	movl	%eax, %esi
	callq	se_v
	addl	-12(%rbp), %eax
	movl	%eax, -12(%rbp)
	movq	img, %rax
	movl	71992(%rax), %eax
	cltd
	movl	$2, %ecx
	idivl	%ecx
	movq	-24(%rbp), %rdx
	movabsq	$.L.str.22, %rdi
	movl	%eax, %esi
	callq	se_v
	addl	-12(%rbp), %eax
	movl	%eax, -12(%rbp)
.LBB17_67:                              # %if.end209
	jmp	.LBB17_68
.LBB17_68:                              # %if.end210
	movq	active_pps, %rax
	cmpl	$0, 60(%rax)
	jbe	.LBB17_72
# %bb.69:                               # %land.lhs.true212
	movq	active_pps, %rax
	cmpl	$3, 64(%rax)
	jb	.LBB17_72
# %bb.70:                               # %land.lhs.true214
	movq	active_pps, %rax
	cmpl	$5, 64(%rax)
	ja	.LBB17_72
# %bb.71:                               # %if.then217
	vmovss	.LCPI17_1(%rip), %xmm0  # xmm0 = mem[0],zero,zero,zero
	movq	img(%rip), %rax
	movl	72468(%rax), %ecx
	movl	72472(%rax), %eax
	imull	%ecx, %eax
	vcvtsi2ss	%rax, %xmm0, %xmm1
	movq	active_pps(%rip), %rax
	movl	168(%rax), %eax
	addl	$1, %eax
	vcvtsi2ss	%rax, %xmm0, %xmm2
	vdivss	%xmm2, %xmm1, %xmm1
	vaddss	%xmm0, %xmm1, %xmm0
	vmovss	%xmm0, -48(%rbp)
	vmovss	-48(%rbp), %xmm0        # xmm0 = mem[0],zero,zero,zero
	vcvtss2sd	%xmm0, %xmm0, %xmm0
	callq	log
	vmovsd	%xmm0, -64(%rbp)        # 8-byte Spill
	vmovsd	.LCPI17_0(%rip), %xmm0  # xmm0 = mem[0],zero
	callq	log
	vmovsd	-64(%rbp), %xmm1        # 8-byte Reload
                                        # xmm1 = mem[0],zero
	vdivsd	%xmm0, %xmm1, %xmm0
	vroundsd	$10, %xmm0, %xmm0, %xmm0
	vcvttsd2si	%xmm0, %eax
	movl	%eax, -44(%rbp)
	movl	-44(%rbp), %edi
	movq	img, %rax
	movl	72652(%rax), %edx
	movq	-24(%rbp), %rcx
	movabsq	$.L.str.23, %rsi
	callq	u_v
	addl	-12(%rbp), %eax
	movl	%eax, -12(%rbp)
.LBB17_72:                              # %if.end229
	movq	input, %rax
	cmpl	$0, 2364(%rax)
	je	.LBB17_75
# %bb.73:                               # %land.lhs.true232
	movq	img, %rax
	movq	14152(%rax), %rax
	cmpl	$0, 4(%rax)
	jne	.LBB17_75
# %bb.74:                               # %if.then236
	movq	img, %rax
	movl	20(%rax), %esi
	movq	-24(%rbp), %rdx
	movabsq	$.L.str.24, %rdi
	callq	ue_v
	addl	-12(%rbp), %eax
	movl	%eax, -12(%rbp)
.LBB17_75:                              # %if.end239
	movl	-12(%rbp), %ebx
	cmpl	$1141591962, -52(%rbp)  # imm = 0x440B4F9A
	jne	.LBB17_77
.LBB17_76:
	movl	%ebx, %eax
	addq	$72, %rsp
	popq	%rbx
	popq	%rbp
	.cfi_def_cfa %rsp, 8
	retq
.LBB17_77:                              # %func_exit
	.cfi_def_cfa %rbp, 16
	callq	detect_breach
	jmp	.LBB17_76
.Lfunc_end17:
	.size	SliceHeader.12, .Lfunc_end17-SliceHeader.12
	.cfi_endproc
                                        # -- End function
	.globl	get_picture_type.13     # -- Begin function get_picture_type.13
	.p2align	4, 0x90
	.type	get_picture_type.13,@function
get_picture_type.13:                    # @get_picture_type.13
	.cfi_startproc
# %bb.0:                                # %entry
	pushq	%rbp
	.cfi_def_cfa_offset 16
	.cfi_offset %rbp, -16
	movq	%rsp, %rbp
	.cfi_def_cfa_register %rbp
	pushq	%rbx
	subq	$24, %rsp
	.cfi_offset %rbx, -24
	movl	$759090660, -20(%rbp)   # imm = 0x2D3ECDE4
	movl	$5, -16(%rbp)
	movq	img(%rip), %rax
	movl	24(%rax), %eax
	movq	%rax, %rcx
	subq	$3, %rcx
	ja	.LBB18_6
# %bb.1:                                # %entry
	movq	.LJTI18_0(,%rax,8), %rax
	jmpq	*%rax
.LBB18_2:                               # %sw.bb
	movl	-16(%rbp), %eax
	addl	$2, %eax
	movl	%eax, -12(%rbp)
	jmp	.LBB18_8
.LBB18_3:                               # %sw.bb1
	movl	-16(%rbp), %eax
	addl	$0, %eax
	movl	%eax, -12(%rbp)
	jmp	.LBB18_8
.LBB18_4:                               # %sw.bb3
	movl	-16(%rbp), %eax
	addl	$1, %eax
	movl	%eax, -12(%rbp)
	jmp	.LBB18_8
.LBB18_5:                               # %sw.bb5
	movl	-16(%rbp), %eax
	addl	$3, %eax
	movl	%eax, -12(%rbp)
	jmp	.LBB18_8
.LBB18_6:                               # %sw.default
	movabsq	$.L.str.25, %rdi
	movl	$1, %esi
	callq	error
# %bb.7:                                # %sw.epilog
	movl	$0, -12(%rbp)
.LBB18_8:                               # %return
	movl	-12(%rbp), %ebx
	cmpl	$759090660, -20(%rbp)   # imm = 0x2D3ECDE4
	jne	.LBB18_10
.LBB18_9:
	movl	%ebx, %eax
	addq	$24, %rsp
	popq	%rbx
	popq	%rbp
	.cfi_def_cfa %rsp, 8
	retq
.LBB18_10:                              # %func_exit
	.cfi_def_cfa %rbp, 16
	callq	detect_breach
	jmp	.LBB18_9
.Lfunc_end18:
	.size	get_picture_type.13, .Lfunc_end18-get_picture_type.13
	.cfi_endproc
	.section	.rodata,"a",@progbits
	.p2align	3
.LJTI18_0:
	.quad	.LBB18_3
	.quad	.LBB18_4
	.quad	.LBB18_2
	.quad	.LBB18_5
                                        # -- End function
	.section	.rodata.cst8,"aM",@progbits,8
	.p2align	3               # -- Begin function SliceHeader.14
.LCPI19_0:
	.quad	4611686018427387904     # double 2
	.section	.rodata.cst4,"aM",@progbits,4
	.p2align	2
.LCPI19_1:
	.long	1065353216              # float 1
	.text
	.globl	SliceHeader.14
	.p2align	4, 0x90
	.type	SliceHeader.14,@function
SliceHeader.14:                         # @SliceHeader.14
	.cfi_startproc
# %bb.0:                                # %entry
	pushq	%rbp
	.cfi_def_cfa_offset 16
	.cfi_offset %rbp, -16
	movq	%rsp, %rbp
	.cfi_def_cfa_register %rbp
	pushq	%rbx
	subq	$72, %rsp
	.cfi_offset %rbx, -24
	movl	$364695683, -48(%rbp)   # imm = 0x15BCD083
	movq	input, %rax
	movslq	2364(%rax), %rax
	movq	assignSE2partition(,%rax,8), %rax
	movl	(%rax), %eax
	movl	%eax, -44(%rbp)
	movq	img, %rax
	movq	14160(%rax), %rax
	movq	24(%rax), %rax
	movslq	-44(%rbp), %rcx
	imulq	$120, %rcx, %rcx
	addq	%rcx, %rax
	movq	%rax, -24(%rbp)
	movq	img, %rax
	movq	14160(%rax), %rax
	movq	%rax, -72(%rbp)
	movl	$0, -12(%rbp)
	movl	$0, -28(%rbp)
	movl	$0, -36(%rbp)
	movq	img, %rax
	cmpl	$0, 72400(%rax)
	je	.LBB19_2
# %bb.1:                                # %if.then
	movq	img, %rax
	movl	12(%rax), %esi
	sarl	$1, %esi
	movq	-24(%rbp), %rdx
	movabsq	$.L.str, %rdi
	callq	ue_v
	movl	%eax, -12(%rbp)
	jmp	.LBB19_3
.LBB19_2:                               # %if.else
	movq	img, %rax
	movl	12(%rax), %esi
	movq	-24(%rbp), %rdx
	movabsq	$.L.str, %rdi
	callq	ue_v
	movl	%eax, -12(%rbp)
.LBB19_3:                               # %if.end
	callq	get_picture_type
	movq	-24(%rbp), %rdx
	movabsq	$.L.str.1, %rdi
	movl	%eax, %esi
	callq	ue_v
	addl	-12(%rbp), %eax
	movl	%eax, -12(%rbp)
	movq	active_pps, %rax
	movl	4(%rax), %esi
	movq	-24(%rbp), %rdx
	movabsq	$.L.str.2, %rdi
	callq	ue_v
	addl	-12(%rbp), %eax
	movl	%eax, -12(%rbp)
	movl	log2_max_frame_num_minus4, %edi
	addl	$4, %edi
	movq	img, %rax
	movl	72464(%rax), %edx
	movq	-24(%rbp), %rcx
	movabsq	$.L.str.3, %rsi
	callq	u_v
	addl	-12(%rbp), %eax
	movl	%eax, -12(%rbp)
	movq	active_sps, %rax
	cmpl	$0, 1148(%rax)
	jne	.LBB19_9
# %bb.4:                                # %if.then15
	movq	img, %rax
	cmpl	$1, 28(%rax)
	movb	$1, %al
	je	.LBB19_6
# %bb.5:                                # %lor.rhs
	movq	img, %rax
	cmpl	$2, 28(%rax)
	sete	%al
.LBB19_6:                               # %lor.end
	xorl	%ecx, %ecx
	testb	$1, %al
	movl	$1, %eax
	cmovnel	%eax, %ecx
	movl	%ecx, -28(%rbp)
	movl	-28(%rbp), %esi
	movq	-24(%rbp), %rdx
	movabsq	$.L.str.4, %rdi
	callq	u_1
	addl	-12(%rbp), %eax
	movl	%eax, -12(%rbp)
	cmpl	$0, -28(%rbp)
	je	.LBB19_8
# %bb.7:                                # %if.then21
	xorl	%eax, %eax
	movq	img, %rcx
	movl	28(%rcx), %ecx
	cmpl	$2, %ecx
	movl	$1, %ecx
	cmovel	%ecx, %eax
	movl	%eax, -36(%rbp)
	movl	-36(%rbp), %esi
	movq	-24(%rbp), %rdx
	movabsq	$.L.str.5, %rdi
	callq	u_1
	addl	-12(%rbp), %eax
	movl	%eax, -12(%rbp)
.LBB19_8:                               # %if.end27
	jmp	.LBB19_9
.LBB19_9:                               # %if.end28
	movq	img, %rax
	movq	14152(%rax), %rax
	cmpl	$0, 4(%rax)
	je	.LBB19_11
# %bb.10:                               # %if.then30
	movq	img, %rax
	movl	(%rax), %eax
	cltd
	movl	$2, %ecx
	idivl	%ecx
	movq	-24(%rbp), %rax
	movabsq	$.L.str.6, %rdi
	movl	%edx, %esi
	movq	%rax, %rdx
	callq	ue_v
	addl	-12(%rbp), %eax
	movl	%eax, -12(%rbp)
.LBB19_11:                              # %if.end33
	movq	img, %rax
	cmpl	$0, 72404(%rax)
	jne	.LBB19_25
# %bb.12:                               # %if.then35
	movq	active_sps, %rax
	cmpl	$0, 1148(%rax)
	je	.LBB19_14
# %bb.13:                               # %if.then38
	movq	img, %rax
	movl	72448(%rax), %eax
	movl	log2_max_pic_order_cnt_lsb_minus4, %ecx
	addl	$4, %ecx
                                        # kill: def $cl killed $ecx
	movl	$4294967295, %edx       # imm = 0xFFFFFFFF
	shll	%cl, %edx
	xorl	$-1, %edx
	andl	%edx, %eax
	movq	img, %rcx
	movl	%eax, 72428(%rcx)
	jmp	.LBB19_21
.LBB19_14:                              # %if.else40
	cmpl	$0, -28(%rbp)
	je	.LBB19_16
# %bb.15:                               # %lor.lhs.false
	movq	img, %rax
	cmpl	$1, 28(%rax)
	jne	.LBB19_17
.LBB19_16:                              # %if.then44
	movq	img, %rax
	movl	72448(%rax), %eax
	movl	log2_max_pic_order_cnt_lsb_minus4, %ecx
	addl	$4, %ecx
                                        # kill: def $cl killed $ecx
	movl	$4294967295, %edx       # imm = 0xFFFFFFFF
	shll	%cl, %edx
	xorl	$-1, %edx
	andl	%edx, %eax
	movq	img, %rcx
	movl	%eax, 72428(%rcx)
	jmp	.LBB19_20
.LBB19_17:                              # %if.else51
	movq	img, %rax
	cmpl	$2, 28(%rax)
	jne	.LBB19_19
# %bb.18:                               # %if.then54
	movq	img, %rax
	movl	72452(%rax), %eax
	movl	log2_max_pic_order_cnt_lsb_minus4, %ecx
	addl	$4, %ecx
                                        # kill: def $cl killed $ecx
	movl	$4294967295, %edx       # imm = 0xFFFFFFFF
	shll	%cl, %edx
	xorl	$-1, %edx
	andl	%edx, %eax
	movq	img, %rcx
	movl	%eax, 72428(%rcx)
.LBB19_19:                              # %if.end60
	jmp	.LBB19_20
.LBB19_20:                              # %if.end61
	jmp	.LBB19_21
.LBB19_21:                              # %if.end62
	movl	log2_max_pic_order_cnt_lsb_minus4, %edi
	addl	$4, %edi
	movq	img, %rax
	movl	72428(%rax), %edx
	movq	-24(%rbp), %rcx
	movabsq	$.L.str.7, %rsi
	callq	u_v
	addl	-12(%rbp), %eax
	movl	%eax, -12(%rbp)
	movq	img, %rax
	cmpl	$0, 72492(%rax)
	je	.LBB19_24
# %bb.22:                               # %land.lhs.true
	cmpl	$0, -28(%rbp)
	jne	.LBB19_24
# %bb.23:                               # %if.then69
	movq	img, %rax
	movl	72432(%rax), %esi
	movq	-24(%rbp), %rdx
	movabsq	$.L.str.8, %rdi
	callq	se_v
	addl	-12(%rbp), %eax
	movl	%eax, -12(%rbp)
.LBB19_24:                              # %if.end72
	jmp	.LBB19_25
.LBB19_25:                              # %if.end73
	movq	img, %rax
	cmpl	$1, 72404(%rax)
	jne	.LBB19_31
# %bb.26:                               # %land.lhs.true76
	movq	img, %rax
	cmpl	$0, 72408(%rax)
	jne	.LBB19_31
# %bb.27:                               # %if.then78
	movq	img, %rax
	movl	72436(%rax), %esi
	movq	-24(%rbp), %rdx
	movabsq	$.L.str.9, %rdi
	callq	se_v
	addl	-12(%rbp), %eax
	movl	%eax, -12(%rbp)
	movq	img, %rax
	cmpl	$0, 72492(%rax)
	je	.LBB19_30
# %bb.28:                               # %land.lhs.true84
	cmpl	$0, -28(%rbp)
	jne	.LBB19_30
# %bb.29:                               # %if.then86
	movq	img, %rax
	movl	72440(%rax), %esi
	movq	-24(%rbp), %rdx
	movabsq	$.L.str.10, %rdi
	callq	se_v
	addl	-12(%rbp), %eax
	movl	%eax, -12(%rbp)
.LBB19_30:                              # %if.end91
	jmp	.LBB19_31
.LBB19_31:                              # %if.end92
	movq	input, %rax
	cmpl	$0, 3204(%rax)
	je	.LBB19_33
# %bb.32:                               # %if.then94
	movq	img, %rax
	movl	72396(%rax), %esi
	movq	-24(%rbp), %rdx
	movabsq	$.L.str.11, %rdi
	callq	ue_v
	addl	-12(%rbp), %eax
	movl	%eax, -12(%rbp)
.LBB19_33:                              # %if.end97
	movq	img, %rax
	cmpl	$1, 24(%rax)
	jne	.LBB19_35
# %bb.34:                               # %if.then99
	movq	img, %rax
	movl	71996(%rax), %esi
	movq	-24(%rbp), %rdx
	movabsq	$.L.str.12, %rdi
	callq	u_1
	addl	-12(%rbp), %eax
	movl	%eax, -12(%rbp)
.LBB19_35:                              # %if.end102
	movq	img, %rax
	cmpl	$0, 24(%rax)
	je	.LBB19_38
# %bb.36:                               # %lor.lhs.false105
	movq	img, %rax
	cmpl	$1, 24(%rax)
	je	.LBB19_38
# %bb.37:                               # %lor.lhs.false108
	movq	img, %rax
	cmpl	$3, 24(%rax)
	jne	.LBB19_49
.LBB19_38:                              # %if.then111
	movq	img, %rax
	cmpl	$0, 24(%rax)
	je	.LBB19_40
# %bb.39:                               # %lor.lhs.false114
	movq	img, %rax
	cmpl	$3, 24(%rax)
	jne	.LBB19_41
.LBB19_40:                              # %if.then117
	xorl	%eax, %eax
	movq	img, %rcx
	movl	72000(%rcx), %ecx
	movq	active_pps, %rdx
	movl	184(%rdx), %edx
	addl	$1, %edx
	cmpl	%edx, %ecx
	movl	$1, %ecx
	cmovnel	%ecx, %eax
	movl	%eax, -32(%rbp)
	jmp	.LBB19_44
.LBB19_41:                              # %if.else121
	movq	img, %rax
	movl	72000(%rax), %eax
	movq	active_pps, %rcx
	movl	184(%rcx), %ecx
	addl	$1, %ecx
	cmpl	%ecx, %eax
	movb	$1, %al
	jne	.LBB19_43
# %bb.42:                               # %lor.rhs126
	movq	img, %rax
	movl	72004(%rax), %eax
	movq	active_pps, %rcx
	movl	188(%rcx), %ecx
	addl	$1, %ecx
	cmpl	%ecx, %eax
	setne	%al
.LBB19_43:                              # %lor.end129
	xorl	%ecx, %ecx
	testb	$1, %al
	movl	$1, %eax
	cmovnel	%eax, %ecx
	movl	%ecx, -32(%rbp)
.LBB19_44:                              # %if.end131
	movl	-32(%rbp), %esi
	movq	-24(%rbp), %rdx
	movabsq	$.L.str.13, %rdi
	callq	u_1
	addl	-12(%rbp), %eax
	movl	%eax, -12(%rbp)
	cmpl	$0, -32(%rbp)
	je	.LBB19_48
# %bb.45:                               # %if.then135
	movq	img, %rax
	movl	72000(%rax), %esi
	subl	$1, %esi
	movq	-24(%rbp), %rdx
	movabsq	$.L.str.14, %rdi
	callq	ue_v
	addl	-12(%rbp), %eax
	movl	%eax, -12(%rbp)
	movq	img, %rax
	cmpl	$1, 24(%rax)
	jne	.LBB19_47
# %bb.46:                               # %if.then141
	movq	img, %rax
	movl	72004(%rax), %esi
	subl	$1, %esi
	movq	-24(%rbp), %rdx
	movabsq	$.L.str.15, %rdi
	callq	ue_v
	addl	-12(%rbp), %eax
	movl	%eax, -12(%rbp)
.LBB19_47:                              # %if.end146
	jmp	.LBB19_48
.LBB19_48:                              # %if.end147
	jmp	.LBB19_49
.LBB19_49:                              # %if.end148
	callq	ref_pic_list_reordering
	addl	-12(%rbp), %eax
	movl	%eax, -12(%rbp)
	movq	img, %rax
	cmpl	$0, 24(%rax)
	je	.LBB19_51
# %bb.50:                               # %lor.lhs.false153
	movq	img, %rax
	cmpl	$3, 24(%rax)
	jne	.LBB19_52
.LBB19_51:                              # %land.lhs.true156
	movq	active_pps, %rax
	cmpl	$0, 192(%rax)
	jne	.LBB19_54
.LBB19_52:                              # %lor.lhs.false158
	movq	img, %rax
	cmpl	$1, 24(%rax)
	jne	.LBB19_55
# %bb.53:                               # %land.lhs.true161
	movq	active_pps, %rax
	cmpl	$1, 196(%rax)
	jne	.LBB19_55
.LBB19_54:                              # %if.then163
	callq	pred_weight_table
	addl	-12(%rbp), %eax
	movl	%eax, -12(%rbp)
.LBB19_55:                              # %if.end166
	movq	img, %rax
	cmpl	$0, 72496(%rax)
	je	.LBB19_57
# %bb.56:                               # %if.then168
	callq	dec_ref_pic_marking
	addl	-12(%rbp), %eax
	movl	%eax, -12(%rbp)
.LBB19_57:                              # %if.end171
	movq	input, %rax
	cmpl	$1, 2356(%rax)
	jne	.LBB19_60
# %bb.58:                               # %land.lhs.true173
	movq	img, %rax
	cmpl	$2, 24(%rax)
	je	.LBB19_60
# %bb.59:                               # %if.then176
	movq	img, %rax
	movl	72520(%rax), %esi
	movq	-24(%rbp), %rdx
	movabsq	$.L.str.16, %rdi
	callq	ue_v
	addl	-12(%rbp), %eax
	movl	%eax, -12(%rbp)
.LBB19_60:                              # %if.end179
	movq	-72(%rbp), %rax
	movl	4(%rax), %esi
	subl	$26, %esi
	movq	active_pps, %rax
	subl	200(%rax), %esi
	movq	-24(%rbp), %rdx
	movabsq	$.L.str.17, %rdi
	callq	se_v
	addl	-12(%rbp), %eax
	movl	%eax, -12(%rbp)
	movq	img, %rax
	cmpl	$3, 24(%rax)
	jne	.LBB19_64
# %bb.61:                               # %if.then186
	movq	img, %rax
	cmpl	$3, 24(%rax)
	jne	.LBB19_63
# %bb.62:                               # %if.then189
	movq	-24(%rbp), %rdx
	movabsq	$.L.str.18, %rdi
	xorl	%esi, %esi
	callq	u_1
	addl	-12(%rbp), %eax
	movl	%eax, -12(%rbp)
.LBB19_63:                              # %if.end192
	movq	img, %rax
	movl	44(%rax), %esi
	subl	$26, %esi
	movq	-24(%rbp), %rdx
	movabsq	$.L.str.19, %rdi
	callq	se_v
	addl	-12(%rbp), %eax
	movl	%eax, -12(%rbp)
.LBB19_64:                              # %if.end196
	movq	active_pps, %rax
	cmpl	$0, 220(%rax)
	je	.LBB19_68
# %bb.65:                               # %if.then198
	movq	img, %rax
	movl	71984(%rax), %esi
	movq	-24(%rbp), %rdx
	movabsq	$.L.str.20, %rdi
	callq	ue_v
	addl	-12(%rbp), %eax
	movl	%eax, -12(%rbp)
	movq	img, %rax
	cmpl	$1, 71984(%rax)
	je	.LBB19_67
# %bb.66:                               # %if.then203
	movq	img, %rax
	movl	71988(%rax), %eax
	cltd
	movl	$2, %ecx
	idivl	%ecx
	movq	-24(%rbp), %rdx
	movabsq	$.L.str.21, %rdi
	movl	%eax, %esi
	callq	se_v
	addl	-12(%rbp), %eax
	movl	%eax, -12(%rbp)
	movq	img, %rax
	movl	71992(%rax), %eax
	cltd
	movl	$2, %ecx
	idivl	%ecx
	movq	-24(%rbp), %rdx
	movabsq	$.L.str.22, %rdi
	movl	%eax, %esi
	callq	se_v
	addl	-12(%rbp), %eax
	movl	%eax, -12(%rbp)
.LBB19_67:                              # %if.end209
	jmp	.LBB19_68
.LBB19_68:                              # %if.end210
	movq	active_pps, %rax
	cmpl	$0, 60(%rax)
	jbe	.LBB19_72
# %bb.69:                               # %land.lhs.true212
	movq	active_pps, %rax
	cmpl	$3, 64(%rax)
	jb	.LBB19_72
# %bb.70:                               # %land.lhs.true214
	movq	active_pps, %rax
	cmpl	$5, 64(%rax)
	ja	.LBB19_72
# %bb.71:                               # %if.then217
	vmovss	.LCPI19_1(%rip), %xmm0  # xmm0 = mem[0],zero,zero,zero
	movq	img(%rip), %rax
	movl	72468(%rax), %ecx
	movl	72472(%rax), %eax
	imull	%ecx, %eax
	vcvtsi2ss	%rax, %xmm0, %xmm1
	movq	active_pps(%rip), %rax
	movl	168(%rax), %eax
	addl	$1, %eax
	vcvtsi2ss	%rax, %xmm0, %xmm2
	vdivss	%xmm2, %xmm1, %xmm1
	vaddss	%xmm0, %xmm1, %xmm0
	vmovss	%xmm0, -52(%rbp)
	vmovss	-52(%rbp), %xmm0        # xmm0 = mem[0],zero,zero,zero
	vcvtss2sd	%xmm0, %xmm0, %xmm0
	callq	log
	vmovsd	%xmm0, -64(%rbp)        # 8-byte Spill
	vmovsd	.LCPI19_0(%rip), %xmm0  # xmm0 = mem[0],zero
	callq	log
	vmovsd	-64(%rbp), %xmm1        # 8-byte Reload
                                        # xmm1 = mem[0],zero
	vdivsd	%xmm0, %xmm1, %xmm0
	vroundsd	$10, %xmm0, %xmm0, %xmm0
	vcvttsd2si	%xmm0, %eax
	movl	%eax, -40(%rbp)
	movl	-40(%rbp), %edi
	movq	img, %rax
	movl	72652(%rax), %edx
	movq	-24(%rbp), %rcx
	movabsq	$.L.str.23, %rsi
	callq	u_v
	addl	-12(%rbp), %eax
	movl	%eax, -12(%rbp)
.LBB19_72:                              # %if.end229
	movq	input, %rax
	cmpl	$0, 2364(%rax)
	je	.LBB19_75
# %bb.73:                               # %land.lhs.true232
	movq	img, %rax
	movq	14152(%rax), %rax
	cmpl	$0, 4(%rax)
	jne	.LBB19_75
# %bb.74:                               # %if.then236
	movq	img, %rax
	movl	20(%rax), %esi
	movq	-24(%rbp), %rdx
	movabsq	$.L.str.24, %rdi
	callq	ue_v
	addl	-12(%rbp), %eax
	movl	%eax, -12(%rbp)
.LBB19_75:                              # %if.end239
	movl	-12(%rbp), %ebx
	cmpl	$364695683, -48(%rbp)   # imm = 0x15BCD083
	jne	.LBB19_77
.LBB19_76:
	movl	%ebx, %eax
	addq	$72, %rsp
	popq	%rbx
	popq	%rbp
	.cfi_def_cfa %rsp, 8
	retq
.LBB19_77:                              # %func_exit
	.cfi_def_cfa %rbp, 16
	callq	detect_breach
	jmp	.LBB19_76
.Lfunc_end19:
	.size	SliceHeader.14, .Lfunc_end19-SliceHeader.14
	.cfi_endproc
                                        # -- End function
	.globl	Partition_BC_Header.15  # -- Begin function Partition_BC_Header.15
	.p2align	4, 0x90
	.type	Partition_BC_Header.15,@function
Partition_BC_Header.15:                 # @Partition_BC_Header.15
	.cfi_startproc
# %bb.0:                                # %entry
	pushq	%rbp
	.cfi_def_cfa_offset 16
	.cfi_offset %rbp, -16
	movq	%rsp, %rbp
	.cfi_def_cfa_register %rbp
	pushq	%rbx
	subq	$88, %rsp
	.cfi_offset %rbx, -24
	movl	$761283584, -32(%rbp)   # imm = 0x2D604400
	movl	%edi, -28(%rbp)
	movq	img, %rax
	movq	14160(%rax), %rax
	movq	24(%rax), %rax
	movslq	-28(%rbp), %rcx
	imulq	$120, %rcx, %rcx
	addq	%rcx, %rax
	movq	%rax, -40(%rbp)
	leaq	-88(%rbp), %rax
	movq	%rax, -24(%rbp)
	movl	$0, -12(%rbp)
	movq	-24(%rbp), %rax
	movl	$0, (%rax)
	movq	-24(%rbp), %rax
	movabsq	$ue_linfo, %rcx
	movq	%rcx, 32(%rax)
	movq	-24(%rbp), %rax
	movl	$0, 8(%rax)
	movq	img, %rax
	movl	20(%rax), %eax
	movq	-24(%rbp), %rcx
	movl	%eax, 4(%rcx)
	movq	-24(%rbp), %rdi
	movq	-40(%rbp), %rsi
	callq	writeSyntaxElement_UVLC
	addl	-12(%rbp), %eax
	movl	%eax, -12(%rbp)
	movq	active_pps, %rax
	cmpl	$0, 228(%rax)
	je	.LBB20_2
# %bb.1:                                # %if.then
	movq	img, %rax
	movq	14160(%rax), %rax
	movl	(%rax), %eax
	movq	-24(%rbp), %rcx
	movl	%eax, 4(%rcx)
	movq	-24(%rbp), %rdi
	movq	-40(%rbp), %rsi
	callq	writeSyntaxElement_UVLC
	addl	-12(%rbp), %eax
	movl	%eax, -12(%rbp)
.LBB20_2:                               # %if.end
	movl	-12(%rbp), %ebx
	cmpl	$761283584, -32(%rbp)   # imm = 0x2D604400
	jne	.LBB20_4
.LBB20_3:
	movl	%ebx, %eax
	addq	$88, %rsp
	popq	%rbx
	popq	%rbp
	.cfi_def_cfa %rsp, 8
	retq
.LBB20_4:                               # %func_exit
	.cfi_def_cfa %rbp, 16
	callq	detect_breach
	jmp	.LBB20_3
.Lfunc_end20:
	.size	Partition_BC_Header.15, .Lfunc_end20-Partition_BC_Header.15
	.cfi_endproc
                                        # -- End function
	.section	.rodata.cst8,"aM",@progbits,8
	.p2align	3               # -- Begin function SliceHeader.16
.LCPI21_0:
	.quad	4611686018427387904     # double 2
	.section	.rodata.cst4,"aM",@progbits,4
	.p2align	2
.LCPI21_1:
	.long	1065353216              # float 1
	.text
	.globl	SliceHeader.16
	.p2align	4, 0x90
	.type	SliceHeader.16,@function
SliceHeader.16:                         # @SliceHeader.16
	.cfi_startproc
# %bb.0:                                # %entry
	pushq	%rbp
	.cfi_def_cfa_offset 16
	.cfi_offset %rbp, -16
	movq	%rsp, %rbp
	.cfi_def_cfa_register %rbp
	pushq	%rbx
	subq	$72, %rsp
	.cfi_offset %rbx, -24
	movl	$973330104, -48(%rbp)   # imm = 0x3A03D6B8
	movq	input, %rax
	movslq	2364(%rax), %rax
	movq	assignSE2partition(,%rax,8), %rax
	movl	(%rax), %eax
	movl	%eax, -40(%rbp)
	movq	img, %rax
	movq	14160(%rax), %rax
	movq	24(%rax), %rax
	movslq	-40(%rbp), %rcx
	imulq	$120, %rcx, %rcx
	addq	%rcx, %rax
	movq	%rax, -24(%rbp)
	movq	img, %rax
	movq	14160(%rax), %rax
	movq	%rax, -72(%rbp)
	movl	$0, -12(%rbp)
	movl	$0, -28(%rbp)
	movl	$0, -36(%rbp)
	movq	img, %rax
	cmpl	$0, 72400(%rax)
	je	.LBB21_2
# %bb.1:                                # %if.then
	movq	img, %rax
	movl	12(%rax), %esi
	sarl	$1, %esi
	movq	-24(%rbp), %rdx
	movabsq	$.L.str, %rdi
	callq	ue_v
	movl	%eax, -12(%rbp)
	jmp	.LBB21_3
.LBB21_2:                               # %if.else
	movq	img, %rax
	movl	12(%rax), %esi
	movq	-24(%rbp), %rdx
	movabsq	$.L.str, %rdi
	callq	ue_v
	movl	%eax, -12(%rbp)
.LBB21_3:                               # %if.end
	callq	get_picture_type
	movq	-24(%rbp), %rdx
	movabsq	$.L.str.1, %rdi
	movl	%eax, %esi
	callq	ue_v
	addl	-12(%rbp), %eax
	movl	%eax, -12(%rbp)
	movq	active_pps, %rax
	movl	4(%rax), %esi
	movq	-24(%rbp), %rdx
	movabsq	$.L.str.2, %rdi
	callq	ue_v
	addl	-12(%rbp), %eax
	movl	%eax, -12(%rbp)
	movl	log2_max_frame_num_minus4, %edi
	addl	$4, %edi
	movq	img, %rax
	movl	72464(%rax), %edx
	movq	-24(%rbp), %rcx
	movabsq	$.L.str.3, %rsi
	callq	u_v
	addl	-12(%rbp), %eax
	movl	%eax, -12(%rbp)
	movq	active_sps, %rax
	cmpl	$0, 1148(%rax)
	jne	.LBB21_9
# %bb.4:                                # %if.then15
	movq	img, %rax
	cmpl	$1, 28(%rax)
	movb	$1, %al
	je	.LBB21_6
# %bb.5:                                # %lor.rhs
	movq	img, %rax
	cmpl	$2, 28(%rax)
	sete	%al
.LBB21_6:                               # %lor.end
	xorl	%ecx, %ecx
	testb	$1, %al
	movl	$1, %eax
	cmovnel	%eax, %ecx
	movl	%ecx, -28(%rbp)
	movl	-28(%rbp), %esi
	movq	-24(%rbp), %rdx
	movabsq	$.L.str.4, %rdi
	callq	u_1
	addl	-12(%rbp), %eax
	movl	%eax, -12(%rbp)
	cmpl	$0, -28(%rbp)
	je	.LBB21_8
# %bb.7:                                # %if.then21
	xorl	%eax, %eax
	movq	img, %rcx
	movl	28(%rcx), %ecx
	cmpl	$2, %ecx
	movl	$1, %ecx
	cmovel	%ecx, %eax
	movl	%eax, -36(%rbp)
	movl	-36(%rbp), %esi
	movq	-24(%rbp), %rdx
	movabsq	$.L.str.5, %rdi
	callq	u_1
	addl	-12(%rbp), %eax
	movl	%eax, -12(%rbp)
.LBB21_8:                               # %if.end27
	jmp	.LBB21_9
.LBB21_9:                               # %if.end28
	movq	img, %rax
	movq	14152(%rax), %rax
	cmpl	$0, 4(%rax)
	je	.LBB21_11
# %bb.10:                               # %if.then30
	movq	img, %rax
	movl	(%rax), %eax
	cltd
	movl	$2, %ecx
	idivl	%ecx
	movq	-24(%rbp), %rax
	movabsq	$.L.str.6, %rdi
	movl	%edx, %esi
	movq	%rax, %rdx
	callq	ue_v
	addl	-12(%rbp), %eax
	movl	%eax, -12(%rbp)
.LBB21_11:                              # %if.end33
	movq	img, %rax
	cmpl	$0, 72404(%rax)
	jne	.LBB21_25
# %bb.12:                               # %if.then35
	movq	active_sps, %rax
	cmpl	$0, 1148(%rax)
	je	.LBB21_14
# %bb.13:                               # %if.then38
	movq	img, %rax
	movl	72448(%rax), %eax
	movl	log2_max_pic_order_cnt_lsb_minus4, %ecx
	addl	$4, %ecx
                                        # kill: def $cl killed $ecx
	movl	$4294967295, %edx       # imm = 0xFFFFFFFF
	shll	%cl, %edx
	xorl	$-1, %edx
	andl	%edx, %eax
	movq	img, %rcx
	movl	%eax, 72428(%rcx)
	jmp	.LBB21_21
.LBB21_14:                              # %if.else40
	cmpl	$0, -28(%rbp)
	je	.LBB21_16
# %bb.15:                               # %lor.lhs.false
	movq	img, %rax
	cmpl	$1, 28(%rax)
	jne	.LBB21_17
.LBB21_16:                              # %if.then44
	movq	img, %rax
	movl	72448(%rax), %eax
	movl	log2_max_pic_order_cnt_lsb_minus4, %ecx
	addl	$4, %ecx
                                        # kill: def $cl killed $ecx
	movl	$4294967295, %edx       # imm = 0xFFFFFFFF
	shll	%cl, %edx
	xorl	$-1, %edx
	andl	%edx, %eax
	movq	img, %rcx
	movl	%eax, 72428(%rcx)
	jmp	.LBB21_20
.LBB21_17:                              # %if.else51
	movq	img, %rax
	cmpl	$2, 28(%rax)
	jne	.LBB21_19
# %bb.18:                               # %if.then54
	movq	img, %rax
	movl	72452(%rax), %eax
	movl	log2_max_pic_order_cnt_lsb_minus4, %ecx
	addl	$4, %ecx
                                        # kill: def $cl killed $ecx
	movl	$4294967295, %edx       # imm = 0xFFFFFFFF
	shll	%cl, %edx
	xorl	$-1, %edx
	andl	%edx, %eax
	movq	img, %rcx
	movl	%eax, 72428(%rcx)
.LBB21_19:                              # %if.end60
	jmp	.LBB21_20
.LBB21_20:                              # %if.end61
	jmp	.LBB21_21
.LBB21_21:                              # %if.end62
	movl	log2_max_pic_order_cnt_lsb_minus4, %edi
	addl	$4, %edi
	movq	img, %rax
	movl	72428(%rax), %edx
	movq	-24(%rbp), %rcx
	movabsq	$.L.str.7, %rsi
	callq	u_v
	addl	-12(%rbp), %eax
	movl	%eax, -12(%rbp)
	movq	img, %rax
	cmpl	$0, 72492(%rax)
	je	.LBB21_24
# %bb.22:                               # %land.lhs.true
	cmpl	$0, -28(%rbp)
	jne	.LBB21_24
# %bb.23:                               # %if.then69
	movq	img, %rax
	movl	72432(%rax), %esi
	movq	-24(%rbp), %rdx
	movabsq	$.L.str.8, %rdi
	callq	se_v
	addl	-12(%rbp), %eax
	movl	%eax, -12(%rbp)
.LBB21_24:                              # %if.end72
	jmp	.LBB21_25
.LBB21_25:                              # %if.end73
	movq	img, %rax
	cmpl	$1, 72404(%rax)
	jne	.LBB21_31
# %bb.26:                               # %land.lhs.true76
	movq	img, %rax
	cmpl	$0, 72408(%rax)
	jne	.LBB21_31
# %bb.27:                               # %if.then78
	movq	img, %rax
	movl	72436(%rax), %esi
	movq	-24(%rbp), %rdx
	movabsq	$.L.str.9, %rdi
	callq	se_v
	addl	-12(%rbp), %eax
	movl	%eax, -12(%rbp)
	movq	img, %rax
	cmpl	$0, 72492(%rax)
	je	.LBB21_30
# %bb.28:                               # %land.lhs.true84
	cmpl	$0, -28(%rbp)
	jne	.LBB21_30
# %bb.29:                               # %if.then86
	movq	img, %rax
	movl	72440(%rax), %esi
	movq	-24(%rbp), %rdx
	movabsq	$.L.str.10, %rdi
	callq	se_v
	addl	-12(%rbp), %eax
	movl	%eax, -12(%rbp)
.LBB21_30:                              # %if.end91
	jmp	.LBB21_31
.LBB21_31:                              # %if.end92
	movq	input, %rax
	cmpl	$0, 3204(%rax)
	je	.LBB21_33
# %bb.32:                               # %if.then94
	movq	img, %rax
	movl	72396(%rax), %esi
	movq	-24(%rbp), %rdx
	movabsq	$.L.str.11, %rdi
	callq	ue_v
	addl	-12(%rbp), %eax
	movl	%eax, -12(%rbp)
.LBB21_33:                              # %if.end97
	movq	img, %rax
	cmpl	$1, 24(%rax)
	jne	.LBB21_35
# %bb.34:                               # %if.then99
	movq	img, %rax
	movl	71996(%rax), %esi
	movq	-24(%rbp), %rdx
	movabsq	$.L.str.12, %rdi
	callq	u_1
	addl	-12(%rbp), %eax
	movl	%eax, -12(%rbp)
.LBB21_35:                              # %if.end102
	movq	img, %rax
	cmpl	$0, 24(%rax)
	je	.LBB21_38
# %bb.36:                               # %lor.lhs.false105
	movq	img, %rax
	cmpl	$1, 24(%rax)
	je	.LBB21_38
# %bb.37:                               # %lor.lhs.false108
	movq	img, %rax
	cmpl	$3, 24(%rax)
	jne	.LBB21_49
.LBB21_38:                              # %if.then111
	movq	img, %rax
	cmpl	$0, 24(%rax)
	je	.LBB21_40
# %bb.39:                               # %lor.lhs.false114
	movq	img, %rax
	cmpl	$3, 24(%rax)
	jne	.LBB21_41
.LBB21_40:                              # %if.then117
	xorl	%eax, %eax
	movq	img, %rcx
	movl	72000(%rcx), %ecx
	movq	active_pps, %rdx
	movl	184(%rdx), %edx
	addl	$1, %edx
	cmpl	%edx, %ecx
	movl	$1, %ecx
	cmovnel	%ecx, %eax
	movl	%eax, -32(%rbp)
	jmp	.LBB21_44
.LBB21_41:                              # %if.else121
	movq	img, %rax
	movl	72000(%rax), %eax
	movq	active_pps, %rcx
	movl	184(%rcx), %ecx
	addl	$1, %ecx
	cmpl	%ecx, %eax
	movb	$1, %al
	jne	.LBB21_43
# %bb.42:                               # %lor.rhs126
	movq	img, %rax
	movl	72004(%rax), %eax
	movq	active_pps, %rcx
	movl	188(%rcx), %ecx
	addl	$1, %ecx
	cmpl	%ecx, %eax
	setne	%al
.LBB21_43:                              # %lor.end129
	xorl	%ecx, %ecx
	testb	$1, %al
	movl	$1, %eax
	cmovnel	%eax, %ecx
	movl	%ecx, -32(%rbp)
.LBB21_44:                              # %if.end131
	movl	-32(%rbp), %esi
	movq	-24(%rbp), %rdx
	movabsq	$.L.str.13, %rdi
	callq	u_1
	addl	-12(%rbp), %eax
	movl	%eax, -12(%rbp)
	cmpl	$0, -32(%rbp)
	je	.LBB21_48
# %bb.45:                               # %if.then135
	movq	img, %rax
	movl	72000(%rax), %esi
	subl	$1, %esi
	movq	-24(%rbp), %rdx
	movabsq	$.L.str.14, %rdi
	callq	ue_v
	addl	-12(%rbp), %eax
	movl	%eax, -12(%rbp)
	movq	img, %rax
	cmpl	$1, 24(%rax)
	jne	.LBB21_47
# %bb.46:                               # %if.then141
	movq	img, %rax
	movl	72004(%rax), %esi
	subl	$1, %esi
	movq	-24(%rbp), %rdx
	movabsq	$.L.str.15, %rdi
	callq	ue_v
	addl	-12(%rbp), %eax
	movl	%eax, -12(%rbp)
.LBB21_47:                              # %if.end146
	jmp	.LBB21_48
.LBB21_48:                              # %if.end147
	jmp	.LBB21_49
.LBB21_49:                              # %if.end148
	callq	ref_pic_list_reordering
	addl	-12(%rbp), %eax
	movl	%eax, -12(%rbp)
	movq	img, %rax
	cmpl	$0, 24(%rax)
	je	.LBB21_51
# %bb.50:                               # %lor.lhs.false153
	movq	img, %rax
	cmpl	$3, 24(%rax)
	jne	.LBB21_52
.LBB21_51:                              # %land.lhs.true156
	movq	active_pps, %rax
	cmpl	$0, 192(%rax)
	jne	.LBB21_54
.LBB21_52:                              # %lor.lhs.false158
	movq	img, %rax
	cmpl	$1, 24(%rax)
	jne	.LBB21_55
# %bb.53:                               # %land.lhs.true161
	movq	active_pps, %rax
	cmpl	$1, 196(%rax)
	jne	.LBB21_55
.LBB21_54:                              # %if.then163
	callq	pred_weight_table
	addl	-12(%rbp), %eax
	movl	%eax, -12(%rbp)
.LBB21_55:                              # %if.end166
	movq	img, %rax
	cmpl	$0, 72496(%rax)
	je	.LBB21_57
# %bb.56:                               # %if.then168
	callq	dec_ref_pic_marking
	addl	-12(%rbp), %eax
	movl	%eax, -12(%rbp)
.LBB21_57:                              # %if.end171
	movq	input, %rax
	cmpl	$1, 2356(%rax)
	jne	.LBB21_60
# %bb.58:                               # %land.lhs.true173
	movq	img, %rax
	cmpl	$2, 24(%rax)
	je	.LBB21_60
# %bb.59:                               # %if.then176
	movq	img, %rax
	movl	72520(%rax), %esi
	movq	-24(%rbp), %rdx
	movabsq	$.L.str.16, %rdi
	callq	ue_v
	addl	-12(%rbp), %eax
	movl	%eax, -12(%rbp)
.LBB21_60:                              # %if.end179
	movq	-72(%rbp), %rax
	movl	4(%rax), %esi
	subl	$26, %esi
	movq	active_pps, %rax
	subl	200(%rax), %esi
	movq	-24(%rbp), %rdx
	movabsq	$.L.str.17, %rdi
	callq	se_v
	addl	-12(%rbp), %eax
	movl	%eax, -12(%rbp)
	movq	img, %rax
	cmpl	$3, 24(%rax)
	jne	.LBB21_64
# %bb.61:                               # %if.then186
	movq	img, %rax
	cmpl	$3, 24(%rax)
	jne	.LBB21_63
# %bb.62:                               # %if.then189
	movq	-24(%rbp), %rdx
	movabsq	$.L.str.18, %rdi
	xorl	%esi, %esi
	callq	u_1
	addl	-12(%rbp), %eax
	movl	%eax, -12(%rbp)
.LBB21_63:                              # %if.end192
	movq	img, %rax
	movl	44(%rax), %esi
	subl	$26, %esi
	movq	-24(%rbp), %rdx
	movabsq	$.L.str.19, %rdi
	callq	se_v
	addl	-12(%rbp), %eax
	movl	%eax, -12(%rbp)
.LBB21_64:                              # %if.end196
	movq	active_pps, %rax
	cmpl	$0, 220(%rax)
	je	.LBB21_68
# %bb.65:                               # %if.then198
	movq	img, %rax
	movl	71984(%rax), %esi
	movq	-24(%rbp), %rdx
	movabsq	$.L.str.20, %rdi
	callq	ue_v
	addl	-12(%rbp), %eax
	movl	%eax, -12(%rbp)
	movq	img, %rax
	cmpl	$1, 71984(%rax)
	je	.LBB21_67
# %bb.66:                               # %if.then203
	movq	img, %rax
	movl	71988(%rax), %eax
	cltd
	movl	$2, %ecx
	idivl	%ecx
	movq	-24(%rbp), %rdx
	movabsq	$.L.str.21, %rdi
	movl	%eax, %esi
	callq	se_v
	addl	-12(%rbp), %eax
	movl	%eax, -12(%rbp)
	movq	img, %rax
	movl	71992(%rax), %eax
	cltd
	movl	$2, %ecx
	idivl	%ecx
	movq	-24(%rbp), %rdx
	movabsq	$.L.str.22, %rdi
	movl	%eax, %esi
	callq	se_v
	addl	-12(%rbp), %eax
	movl	%eax, -12(%rbp)
.LBB21_67:                              # %if.end209
	jmp	.LBB21_68
.LBB21_68:                              # %if.end210
	movq	active_pps, %rax
	cmpl	$0, 60(%rax)
	jbe	.LBB21_72
# %bb.69:                               # %land.lhs.true212
	movq	active_pps, %rax
	cmpl	$3, 64(%rax)
	jb	.LBB21_72
# %bb.70:                               # %land.lhs.true214
	movq	active_pps, %rax
	cmpl	$5, 64(%rax)
	ja	.LBB21_72
# %bb.71:                               # %if.then217
	vmovss	.LCPI21_1(%rip), %xmm0  # xmm0 = mem[0],zero,zero,zero
	movq	img(%rip), %rax
	movl	72468(%rax), %ecx
	movl	72472(%rax), %eax
	imull	%ecx, %eax
	vcvtsi2ss	%rax, %xmm0, %xmm1
	movq	active_pps(%rip), %rax
	movl	168(%rax), %eax
	addl	$1, %eax
	vcvtsi2ss	%rax, %xmm0, %xmm2
	vdivss	%xmm2, %xmm1, %xmm1
	vaddss	%xmm0, %xmm1, %xmm0
	vmovss	%xmm0, -44(%rbp)
	vmovss	-44(%rbp), %xmm0        # xmm0 = mem[0],zero,zero,zero
	vcvtss2sd	%xmm0, %xmm0, %xmm0
	callq	log
	vmovsd	%xmm0, -64(%rbp)        # 8-byte Spill
	vmovsd	.LCPI21_0(%rip), %xmm0  # xmm0 = mem[0],zero
	callq	log
	vmovsd	-64(%rbp), %xmm1        # 8-byte Reload
                                        # xmm1 = mem[0],zero
	vdivsd	%xmm0, %xmm1, %xmm0
	vroundsd	$10, %xmm0, %xmm0, %xmm0
	vcvttsd2si	%xmm0, %eax
	movl	%eax, -52(%rbp)
	movl	-52(%rbp), %edi
	movq	img, %rax
	movl	72652(%rax), %edx
	movq	-24(%rbp), %rcx
	movabsq	$.L.str.23, %rsi
	callq	u_v
	addl	-12(%rbp), %eax
	movl	%eax, -12(%rbp)
.LBB21_72:                              # %if.end229
	movq	input, %rax
	cmpl	$0, 2364(%rax)
	je	.LBB21_75
# %bb.73:                               # %land.lhs.true232
	movq	img, %rax
	movq	14152(%rax), %rax
	cmpl	$0, 4(%rax)
	jne	.LBB21_75
# %bb.74:                               # %if.then236
	movq	img, %rax
	movl	20(%rax), %esi
	movq	-24(%rbp), %rdx
	movabsq	$.L.str.24, %rdi
	callq	ue_v
	addl	-12(%rbp), %eax
	movl	%eax, -12(%rbp)
.LBB21_75:                              # %if.end239
	movl	-12(%rbp), %ebx
	cmpl	$973330104, -48(%rbp)   # imm = 0x3A03D6B8
	jne	.LBB21_77
.LBB21_76:
	movl	%ebx, %eax
	addq	$72, %rsp
	popq	%rbx
	popq	%rbp
	.cfi_def_cfa %rsp, 8
	retq
.LBB21_77:                              # %func_exit
	.cfi_def_cfa %rbp, 16
	callq	detect_breach
	jmp	.LBB21_76
.Lfunc_end21:
	.size	SliceHeader.16, .Lfunc_end21-SliceHeader.16
	.cfi_endproc
                                        # -- End function
	.p2align	4, 0x90         # -- Begin function dec_ref_pic_marking.17
	.type	dec_ref_pic_marking.17,@function
dec_ref_pic_marking.17:                 # @dec_ref_pic_marking.17
	.cfi_startproc
# %bb.0:                                # %entry
	pushq	%rbp
	.cfi_def_cfa_offset 16
	.cfi_offset %rbp, -16
	movq	%rsp, %rbp
	.cfi_def_cfa_register %rbp
	pushq	%rbx
	subq	$40, %rsp
	.cfi_offset %rbx, -24
	movl	$520950478, -40(%rbp)   # imm = 0x1F0D12CE
	movq	input, %rax
	movslq	2364(%rax), %rax
	movq	assignSE2partition(,%rax,8), %rax
	movl	(%rax), %eax
	movl	%eax, -36(%rbp)
	movq	img, %rax
	movq	14160(%rax), %rax
	movq	24(%rax), %rax
	movslq	-36(%rbp), %rcx
	imulq	$120, %rcx, %rcx
	addq	%rcx, %rax
	movq	%rax, -32(%rbp)
	movl	$0, -12(%rbp)
	movq	img, %rax
	movq	14152(%rax), %rax
	cmpl	$0, 4(%rax)
	je	.LBB22_2
# %bb.1:                                # %if.then
	movq	img, %rax
	movl	72504(%rax), %esi
	movq	-32(%rbp), %rdx
	movabsq	$.L.str.33, %rdi
	callq	u_1
	addl	-12(%rbp), %eax
	movl	%eax, -12(%rbp)
	movq	img, %rax
	movl	72508(%rax), %esi
	movq	-32(%rbp), %rdx
	movabsq	$.L.str.34, %rdi
	callq	u_1
	addl	-12(%rbp), %eax
	movl	%eax, -12(%rbp)
	jmp	.LBB22_20
.LBB22_2:                               # %if.else
	movq	img, %rax
	cmpq	$0, 72512(%rax)
	setne	%al
	andb	$1, %al
	movzbl	%al, %eax
	movq	img, %rcx
	movl	%eax, 72500(%rcx)
	movq	img, %rax
	movl	72500(%rax), %esi
	movq	-32(%rbp), %rdx
	movabsq	$.L.str.35, %rdi
	callq	u_1
	addl	-12(%rbp), %eax
	movl	%eax, -12(%rbp)
	movq	img, %rax
	cmpl	$0, 72500(%rax)
	je	.LBB22_19
# %bb.3:                                # %if.then11
	movq	img, %rax
	movq	72512(%rax), %rax
	movq	%rax, -24(%rbp)
.LBB22_4:                               # %do.body
                                        # =>This Inner Loop Header: Depth=1
	cmpq	$0, -24(%rbp)
	jne	.LBB22_6
# %bb.5:                                # %if.then15
                                        #   in Loop: Header=BB22_4 Depth=1
	movabsq	$.L.str.36, %rdi
	movl	$500, %esi              # imm = 0x1F4
	callq	error
.LBB22_6:                               # %if.end
                                        #   in Loop: Header=BB22_4 Depth=1
	movq	-24(%rbp), %rax
	movl	(%rax), %eax
	movl	%eax, -16(%rbp)
	movl	-16(%rbp), %esi
	movq	-32(%rbp), %rdx
	movabsq	$.L.str.37, %rdi
	callq	ue_v
	addl	-12(%rbp), %eax
	movl	%eax, -12(%rbp)
	cmpl	$1, -16(%rbp)
	je	.LBB22_8
# %bb.7:                                # %lor.lhs.false
                                        #   in Loop: Header=BB22_4 Depth=1
	cmpl	$3, -16(%rbp)
	jne	.LBB22_9
.LBB22_8:                               # %if.then22
                                        #   in Loop: Header=BB22_4 Depth=1
	movq	-24(%rbp), %rax
	movl	4(%rax), %esi
	movq	-32(%rbp), %rdx
	movabsq	$.L.str.38, %rdi
	callq	ue_v
	addl	$1, %eax
	addl	-12(%rbp), %eax
	movl	%eax, -12(%rbp)
.LBB22_9:                               # %if.end26
                                        #   in Loop: Header=BB22_4 Depth=1
	cmpl	$2, -16(%rbp)
	jne	.LBB22_11
# %bb.10:                               # %if.then29
                                        #   in Loop: Header=BB22_4 Depth=1
	movq	-24(%rbp), %rax
	movl	8(%rax), %esi
	movq	-32(%rbp), %rdx
	movabsq	$.L.str.39, %rdi
	callq	ue_v
	addl	-12(%rbp), %eax
	movl	%eax, -12(%rbp)
.LBB22_11:                              # %if.end32
                                        #   in Loop: Header=BB22_4 Depth=1
	cmpl	$3, -16(%rbp)
	je	.LBB22_13
# %bb.12:                               # %lor.lhs.false35
                                        #   in Loop: Header=BB22_4 Depth=1
	cmpl	$6, -16(%rbp)
	jne	.LBB22_14
.LBB22_13:                              # %if.then38
                                        #   in Loop: Header=BB22_4 Depth=1
	movq	-24(%rbp), %rax
	movl	12(%rax), %esi
	movq	-32(%rbp), %rdx
	movabsq	$.L.str.40, %rdi
	callq	ue_v
	addl	-12(%rbp), %eax
	movl	%eax, -12(%rbp)
.LBB22_14:                              # %if.end41
                                        #   in Loop: Header=BB22_4 Depth=1
	cmpl	$4, -16(%rbp)
	jne	.LBB22_16
# %bb.15:                               # %if.then44
                                        #   in Loop: Header=BB22_4 Depth=1
	movq	-24(%rbp), %rax
	movl	16(%rax), %esi
	movq	-32(%rbp), %rdx
	movabsq	$.L.str.41, %rdi
	callq	ue_v
	addl	-12(%rbp), %eax
	movl	%eax, -12(%rbp)
.LBB22_16:                              # %if.end47
                                        #   in Loop: Header=BB22_4 Depth=1
	movq	-24(%rbp), %rax
	movq	24(%rax), %rax
	movq	%rax, -24(%rbp)
# %bb.17:                               # %do.cond
                                        #   in Loop: Header=BB22_4 Depth=1
	cmpl	$0, -16(%rbp)
	jne	.LBB22_4
# %bb.18:                               # %do.end
	jmp	.LBB22_19
.LBB22_19:                              # %if.end50
	jmp	.LBB22_20
.LBB22_20:                              # %if.end51
	movl	-12(%rbp), %ebx
	cmpl	$520950478, -40(%rbp)   # imm = 0x1F0D12CE
	jne	.LBB22_22
.LBB22_21:
	movl	%ebx, %eax
	addq	$40, %rsp
	popq	%rbx
	popq	%rbp
	.cfi_def_cfa %rsp, 8
	retq
.LBB22_22:                              # %func_exit
	.cfi_def_cfa %rbp, 16
	callq	detect_breach
	jmp	.LBB22_21
.Lfunc_end22:
	.size	dec_ref_pic_marking.17, .Lfunc_end22-dec_ref_pic_marking.17
	.cfi_endproc
                                        # -- End function
	.p2align	4, 0x90         # -- Begin function ref_pic_list_reordering.18
	.type	ref_pic_list_reordering.18,@function
ref_pic_list_reordering.18:             # @ref_pic_list_reordering.18
	.cfi_startproc
# %bb.0:                                # %entry
	pushq	%rbp
	.cfi_def_cfa_offset 16
	.cfi_offset %rbp, -16
	movq	%rsp, %rbp
	.cfi_def_cfa_register %rbp
	pushq	%rbx
	subq	$40, %rsp
	.cfi_offset %rbx, -24
	movl	$2087526740, -36(%rbp)  # imm = 0x7C6D2154
	movq	input, %rax
	movslq	2364(%rax), %rax
	movq	assignSE2partition(,%rax,8), %rax
	movl	(%rax), %eax
	movl	%eax, -40(%rbp)
	movq	img, %rax
	movq	14160(%rax), %rax
	movq	24(%rax), %rax
	movslq	-40(%rbp), %rcx
	imulq	$120, %rcx, %rcx
	addq	%rcx, %rax
	movq	%rax, -32(%rbp)
	movq	img, %rax
	movq	14160(%rax), %rax
	movq	%rax, -24(%rbp)
	movl	$0, -16(%rbp)
	movq	img, %rax
	cmpl	$2, 24(%rax)
	je	.LBB23_13
# %bb.1:                                # %if.then
	movq	-24(%rbp), %rax
	movl	56(%rax), %esi
	movq	-32(%rbp), %rdx
	movabsq	$.L.str.26, %rdi
	callq	u_1
	addl	-16(%rbp), %eax
	movl	%eax, -16(%rbp)
	movq	-24(%rbp), %rax
	cmpl	$0, 56(%rax)
	je	.LBB23_12
# %bb.2:                                # %if.then6
	movl	$-1, -12(%rbp)
.LBB23_3:                               # %do.body
                                        # =>This Inner Loop Header: Depth=1
	movl	-12(%rbp), %eax
	addl	$1, %eax
	movl	%eax, -12(%rbp)
	movq	-24(%rbp), %rax
	movq	64(%rax), %rax
	movslq	-12(%rbp), %rcx
	movl	(%rax,%rcx,4), %esi
	movq	-32(%rbp), %rdx
	movabsq	$.L.str.27, %rdi
	callq	ue_v
	addl	-16(%rbp), %eax
	movl	%eax, -16(%rbp)
	movq	-24(%rbp), %rax
	movq	64(%rax), %rax
	movslq	-12(%rbp), %rcx
	cmpl	$0, (%rax,%rcx,4)
	je	.LBB23_5
# %bb.4:                                # %lor.lhs.false
                                        #   in Loop: Header=BB23_3 Depth=1
	movq	-24(%rbp), %rax
	movq	64(%rax), %rax
	movslq	-12(%rbp), %rcx
	cmpl	$1, (%rax,%rcx,4)
	jne	.LBB23_6
.LBB23_5:                               # %if.then19
                                        #   in Loop: Header=BB23_3 Depth=1
	movq	-24(%rbp), %rax
	movq	72(%rax), %rax
	movslq	-12(%rbp), %rcx
	movl	(%rax,%rcx,4), %esi
	movq	-32(%rbp), %rdx
	movabsq	$.L.str.28, %rdi
	callq	ue_v
	addl	-16(%rbp), %eax
	movl	%eax, -16(%rbp)
	jmp	.LBB23_9
.LBB23_6:                               # %if.else
                                        #   in Loop: Header=BB23_3 Depth=1
	movq	-24(%rbp), %rax
	movq	64(%rax), %rax
	movslq	-12(%rbp), %rcx
	cmpl	$2, (%rax,%rcx,4)
	jne	.LBB23_8
# %bb.7:                                # %if.then28
                                        #   in Loop: Header=BB23_3 Depth=1
	movq	-24(%rbp), %rax
	movq	80(%rax), %rax
	movslq	-12(%rbp), %rcx
	movl	(%rax,%rcx,4), %esi
	movq	-32(%rbp), %rdx
	movabsq	$.L.str.29, %rdi
	callq	ue_v
	addl	-16(%rbp), %eax
	movl	%eax, -16(%rbp)
.LBB23_8:                               # %if.end
                                        #   in Loop: Header=BB23_3 Depth=1
	jmp	.LBB23_9
.LBB23_9:                               # %if.end33
                                        #   in Loop: Header=BB23_3 Depth=1
	jmp	.LBB23_10
.LBB23_10:                              # %do.cond
                                        #   in Loop: Header=BB23_3 Depth=1
	movq	-24(%rbp), %rax
	movq	64(%rax), %rax
	movslq	-12(%rbp), %rcx
	cmpl	$3, (%rax,%rcx,4)
	jne	.LBB23_3
# %bb.11:                               # %do.end
	jmp	.LBB23_12
.LBB23_12:                              # %if.end38
	jmp	.LBB23_13
.LBB23_13:                              # %if.end39
	movq	img, %rax
	cmpl	$1, 24(%rax)
	jne	.LBB23_26
# %bb.14:                               # %if.then42
	movq	-24(%rbp), %rax
	movl	88(%rax), %esi
	movq	-32(%rbp), %rdx
	movabsq	$.L.str.30, %rdi
	callq	u_1
	addl	-16(%rbp), %eax
	movl	%eax, -16(%rbp)
	movq	-24(%rbp), %rax
	cmpl	$0, 88(%rax)
	je	.LBB23_25
# %bb.15:                               # %if.then47
	movl	$-1, -12(%rbp)
.LBB23_16:                              # %do.body48
                                        # =>This Inner Loop Header: Depth=1
	movl	-12(%rbp), %eax
	addl	$1, %eax
	movl	%eax, -12(%rbp)
	movq	-24(%rbp), %rax
	movq	96(%rax), %rax
	movslq	-12(%rbp), %rcx
	movl	(%rax,%rcx,4), %esi
	movq	-32(%rbp), %rdx
	movabsq	$.L.str.27, %rdi
	callq	ue_v
	addl	-16(%rbp), %eax
	movl	%eax, -16(%rbp)
	movq	-24(%rbp), %rax
	movq	96(%rax), %rax
	movslq	-12(%rbp), %rcx
	cmpl	$0, (%rax,%rcx,4)
	je	.LBB23_18
# %bb.17:                               # %lor.lhs.false58
                                        #   in Loop: Header=BB23_16 Depth=1
	movq	-24(%rbp), %rax
	movq	96(%rax), %rax
	movslq	-12(%rbp), %rcx
	cmpl	$1, (%rax,%rcx,4)
	jne	.LBB23_19
.LBB23_18:                              # %if.then63
                                        #   in Loop: Header=BB23_16 Depth=1
	movq	-24(%rbp), %rax
	movq	104(%rax), %rax
	movslq	-12(%rbp), %rcx
	movl	(%rax,%rcx,4), %esi
	movq	-32(%rbp), %rdx
	movabsq	$.L.str.31, %rdi
	callq	ue_v
	addl	-16(%rbp), %eax
	movl	%eax, -16(%rbp)
	jmp	.LBB23_22
.LBB23_19:                              # %if.else68
                                        #   in Loop: Header=BB23_16 Depth=1
	movq	-24(%rbp), %rax
	movq	96(%rax), %rax
	movslq	-12(%rbp), %rcx
	cmpl	$2, (%rax,%rcx,4)
	jne	.LBB23_21
# %bb.20:                               # %if.then73
                                        #   in Loop: Header=BB23_16 Depth=1
	movq	-24(%rbp), %rax
	movq	112(%rax), %rax
	movslq	-12(%rbp), %rcx
	movl	(%rax,%rcx,4), %esi
	movq	-32(%rbp), %rdx
	movabsq	$.L.str.32, %rdi
	callq	ue_v
	addl	-16(%rbp), %eax
	movl	%eax, -16(%rbp)
.LBB23_21:                              # %if.end78
                                        #   in Loop: Header=BB23_16 Depth=1
	jmp	.LBB23_22
.LBB23_22:                              # %if.end79
                                        #   in Loop: Header=BB23_16 Depth=1
	jmp	.LBB23_23
.LBB23_23:                              # %do.cond80
                                        #   in Loop: Header=BB23_16 Depth=1
	movq	-24(%rbp), %rax
	movq	96(%rax), %rax
	movslq	-12(%rbp), %rcx
	cmpl	$3, (%rax,%rcx,4)
	jne	.LBB23_16
# %bb.24:                               # %do.end85
	jmp	.LBB23_25
.LBB23_25:                              # %if.end86
	jmp	.LBB23_26
.LBB23_26:                              # %if.end87
	movl	-16(%rbp), %ebx
	cmpl	$2087526740, -36(%rbp)  # imm = 0x7C6D2154
	jne	.LBB23_28
.LBB23_27:
	movl	%ebx, %eax
	addq	$40, %rsp
	popq	%rbx
	popq	%rbp
	.cfi_def_cfa %rsp, 8
	retq
.LBB23_28:                              # %func_exit
	.cfi_def_cfa %rbp, 16
	callq	detect_breach
	jmp	.LBB23_27
.Lfunc_end23:
	.size	ref_pic_list_reordering.18, .Lfunc_end23-ref_pic_list_reordering.18
	.cfi_endproc
                                        # -- End function
	.p2align	4, 0x90         # -- Begin function dec_ref_pic_marking.19
	.type	dec_ref_pic_marking.19,@function
dec_ref_pic_marking.19:                 # @dec_ref_pic_marking.19
	.cfi_startproc
# %bb.0:                                # %entry
	pushq	%rbp
	.cfi_def_cfa_offset 16
	.cfi_offset %rbp, -16
	movq	%rsp, %rbp
	.cfi_def_cfa_register %rbp
	pushq	%rbx
	subq	$40, %rsp
	.cfi_offset %rbx, -24
	movl	$256015098, -40(%rbp)   # imm = 0xF427AFA
	movq	input, %rax
	movslq	2364(%rax), %rax
	movq	assignSE2partition(,%rax,8), %rax
	movl	(%rax), %eax
	movl	%eax, -36(%rbp)
	movq	img, %rax
	movq	14160(%rax), %rax
	movq	24(%rax), %rax
	movslq	-36(%rbp), %rcx
	imulq	$120, %rcx, %rcx
	addq	%rcx, %rax
	movq	%rax, -32(%rbp)
	movl	$0, -12(%rbp)
	movq	img, %rax
	movq	14152(%rax), %rax
	cmpl	$0, 4(%rax)
	je	.LBB24_2
# %bb.1:                                # %if.then
	movq	img, %rax
	movl	72504(%rax), %esi
	movq	-32(%rbp), %rdx
	movabsq	$.L.str.33, %rdi
	callq	u_1
	addl	-12(%rbp), %eax
	movl	%eax, -12(%rbp)
	movq	img, %rax
	movl	72508(%rax), %esi
	movq	-32(%rbp), %rdx
	movabsq	$.L.str.34, %rdi
	callq	u_1
	addl	-12(%rbp), %eax
	movl	%eax, -12(%rbp)
	jmp	.LBB24_20
.LBB24_2:                               # %if.else
	movq	img, %rax
	cmpq	$0, 72512(%rax)
	setne	%al
	andb	$1, %al
	movzbl	%al, %eax
	movq	img, %rcx
	movl	%eax, 72500(%rcx)
	movq	img, %rax
	movl	72500(%rax), %esi
	movq	-32(%rbp), %rdx
	movabsq	$.L.str.35, %rdi
	callq	u_1
	addl	-12(%rbp), %eax
	movl	%eax, -12(%rbp)
	movq	img, %rax
	cmpl	$0, 72500(%rax)
	je	.LBB24_19
# %bb.3:                                # %if.then11
	movq	img, %rax
	movq	72512(%rax), %rax
	movq	%rax, -24(%rbp)
.LBB24_4:                               # %do.body
                                        # =>This Inner Loop Header: Depth=1
	cmpq	$0, -24(%rbp)
	jne	.LBB24_6
# %bb.5:                                # %if.then15
                                        #   in Loop: Header=BB24_4 Depth=1
	movabsq	$.L.str.36, %rdi
	movl	$500, %esi              # imm = 0x1F4
	callq	error
.LBB24_6:                               # %if.end
                                        #   in Loop: Header=BB24_4 Depth=1
	movq	-24(%rbp), %rax
	movl	(%rax), %eax
	movl	%eax, -16(%rbp)
	movl	-16(%rbp), %esi
	movq	-32(%rbp), %rdx
	movabsq	$.L.str.37, %rdi
	callq	ue_v
	addl	-12(%rbp), %eax
	movl	%eax, -12(%rbp)
	cmpl	$1, -16(%rbp)
	je	.LBB24_8
# %bb.7:                                # %lor.lhs.false
                                        #   in Loop: Header=BB24_4 Depth=1
	cmpl	$3, -16(%rbp)
	jne	.LBB24_9
.LBB24_8:                               # %if.then22
                                        #   in Loop: Header=BB24_4 Depth=1
	movq	-24(%rbp), %rax
	movl	4(%rax), %esi
	movq	-32(%rbp), %rdx
	movabsq	$.L.str.38, %rdi
	callq	ue_v
	addl	$1, %eax
	addl	-12(%rbp), %eax
	movl	%eax, -12(%rbp)
.LBB24_9:                               # %if.end26
                                        #   in Loop: Header=BB24_4 Depth=1
	cmpl	$2, -16(%rbp)
	jne	.LBB24_11
# %bb.10:                               # %if.then29
                                        #   in Loop: Header=BB24_4 Depth=1
	movq	-24(%rbp), %rax
	movl	8(%rax), %esi
	movq	-32(%rbp), %rdx
	movabsq	$.L.str.39, %rdi
	callq	ue_v
	addl	-12(%rbp), %eax
	movl	%eax, -12(%rbp)
.LBB24_11:                              # %if.end32
                                        #   in Loop: Header=BB24_4 Depth=1
	cmpl	$3, -16(%rbp)
	je	.LBB24_13
# %bb.12:                               # %lor.lhs.false35
                                        #   in Loop: Header=BB24_4 Depth=1
	cmpl	$6, -16(%rbp)
	jne	.LBB24_14
.LBB24_13:                              # %if.then38
                                        #   in Loop: Header=BB24_4 Depth=1
	movq	-24(%rbp), %rax
	movl	12(%rax), %esi
	movq	-32(%rbp), %rdx
	movabsq	$.L.str.40, %rdi
	callq	ue_v
	addl	-12(%rbp), %eax
	movl	%eax, -12(%rbp)
.LBB24_14:                              # %if.end41
                                        #   in Loop: Header=BB24_4 Depth=1
	cmpl	$4, -16(%rbp)
	jne	.LBB24_16
# %bb.15:                               # %if.then44
                                        #   in Loop: Header=BB24_4 Depth=1
	movq	-24(%rbp), %rax
	movl	16(%rax), %esi
	movq	-32(%rbp), %rdx
	movabsq	$.L.str.41, %rdi
	callq	ue_v
	addl	-12(%rbp), %eax
	movl	%eax, -12(%rbp)
.LBB24_16:                              # %if.end47
                                        #   in Loop: Header=BB24_4 Depth=1
	movq	-24(%rbp), %rax
	movq	24(%rax), %rax
	movq	%rax, -24(%rbp)
# %bb.17:                               # %do.cond
                                        #   in Loop: Header=BB24_4 Depth=1
	cmpl	$0, -16(%rbp)
	jne	.LBB24_4
# %bb.18:                               # %do.end
	jmp	.LBB24_19
.LBB24_19:                              # %if.end50
	jmp	.LBB24_20
.LBB24_20:                              # %if.end51
	movl	-12(%rbp), %ebx
	cmpl	$256015098, -40(%rbp)   # imm = 0xF427AFA
	jne	.LBB24_22
.LBB24_21:
	movl	%ebx, %eax
	addq	$40, %rsp
	popq	%rbx
	popq	%rbp
	.cfi_def_cfa %rsp, 8
	retq
.LBB24_22:                              # %func_exit
	.cfi_def_cfa %rbp, 16
	callq	detect_breach
	jmp	.LBB24_21
.Lfunc_end24:
	.size	dec_ref_pic_marking.19, .Lfunc_end24-dec_ref_pic_marking.19
	.cfi_endproc
                                        # -- End function
	.p2align	4, 0x90         # -- Begin function ref_pic_list_reordering.20
	.type	ref_pic_list_reordering.20,@function
ref_pic_list_reordering.20:             # @ref_pic_list_reordering.20
	.cfi_startproc
# %bb.0:                                # %entry
	pushq	%rbp
	.cfi_def_cfa_offset 16
	.cfi_offset %rbp, -16
	movq	%rsp, %rbp
	.cfi_def_cfa_register %rbp
	pushq	%rbx
	subq	$40, %rsp
	.cfi_offset %rbx, -24
	movl	$657156066, -40(%rbp)   # imm = 0x272B67E2
	movq	input, %rax
	movslq	2364(%rax), %rax
	movq	assignSE2partition(,%rax,8), %rax
	movl	(%rax), %eax
	movl	%eax, -36(%rbp)
	movq	img, %rax
	movq	14160(%rax), %rax
	movq	24(%rax), %rax
	movslq	-36(%rbp), %rcx
	imulq	$120, %rcx, %rcx
	addq	%rcx, %rax
	movq	%rax, -32(%rbp)
	movq	img, %rax
	movq	14160(%rax), %rax
	movq	%rax, -24(%rbp)
	movl	$0, -16(%rbp)
	movq	img, %rax
	cmpl	$2, 24(%rax)
	je	.LBB25_13
# %bb.1:                                # %if.then
	movq	-24(%rbp), %rax
	movl	56(%rax), %esi
	movq	-32(%rbp), %rdx
	movabsq	$.L.str.26, %rdi
	callq	u_1
	addl	-16(%rbp), %eax
	movl	%eax, -16(%rbp)
	movq	-24(%rbp), %rax
	cmpl	$0, 56(%rax)
	je	.LBB25_12
# %bb.2:                                # %if.then6
	movl	$-1, -12(%rbp)
.LBB25_3:                               # %do.body
                                        # =>This Inner Loop Header: Depth=1
	movl	-12(%rbp), %eax
	addl	$1, %eax
	movl	%eax, -12(%rbp)
	movq	-24(%rbp), %rax
	movq	64(%rax), %rax
	movslq	-12(%rbp), %rcx
	movl	(%rax,%rcx,4), %esi
	movq	-32(%rbp), %rdx
	movabsq	$.L.str.27, %rdi
	callq	ue_v
	addl	-16(%rbp), %eax
	movl	%eax, -16(%rbp)
	movq	-24(%rbp), %rax
	movq	64(%rax), %rax
	movslq	-12(%rbp), %rcx
	cmpl	$0, (%rax,%rcx,4)
	je	.LBB25_5
# %bb.4:                                # %lor.lhs.false
                                        #   in Loop: Header=BB25_3 Depth=1
	movq	-24(%rbp), %rax
	movq	64(%rax), %rax
	movslq	-12(%rbp), %rcx
	cmpl	$1, (%rax,%rcx,4)
	jne	.LBB25_6
.LBB25_5:                               # %if.then19
                                        #   in Loop: Header=BB25_3 Depth=1
	movq	-24(%rbp), %rax
	movq	72(%rax), %rax
	movslq	-12(%rbp), %rcx
	movl	(%rax,%rcx,4), %esi
	movq	-32(%rbp), %rdx
	movabsq	$.L.str.28, %rdi
	callq	ue_v
	addl	-16(%rbp), %eax
	movl	%eax, -16(%rbp)
	jmp	.LBB25_9
.LBB25_6:                               # %if.else
                                        #   in Loop: Header=BB25_3 Depth=1
	movq	-24(%rbp), %rax
	movq	64(%rax), %rax
	movslq	-12(%rbp), %rcx
	cmpl	$2, (%rax,%rcx,4)
	jne	.LBB25_8
# %bb.7:                                # %if.then28
                                        #   in Loop: Header=BB25_3 Depth=1
	movq	-24(%rbp), %rax
	movq	80(%rax), %rax
	movslq	-12(%rbp), %rcx
	movl	(%rax,%rcx,4), %esi
	movq	-32(%rbp), %rdx
	movabsq	$.L.str.29, %rdi
	callq	ue_v
	addl	-16(%rbp), %eax
	movl	%eax, -16(%rbp)
.LBB25_8:                               # %if.end
                                        #   in Loop: Header=BB25_3 Depth=1
	jmp	.LBB25_9
.LBB25_9:                               # %if.end33
                                        #   in Loop: Header=BB25_3 Depth=1
	jmp	.LBB25_10
.LBB25_10:                              # %do.cond
                                        #   in Loop: Header=BB25_3 Depth=1
	movq	-24(%rbp), %rax
	movq	64(%rax), %rax
	movslq	-12(%rbp), %rcx
	cmpl	$3, (%rax,%rcx,4)
	jne	.LBB25_3
# %bb.11:                               # %do.end
	jmp	.LBB25_12
.LBB25_12:                              # %if.end38
	jmp	.LBB25_13
.LBB25_13:                              # %if.end39
	movq	img, %rax
	cmpl	$1, 24(%rax)
	jne	.LBB25_26
# %bb.14:                               # %if.then42
	movq	-24(%rbp), %rax
	movl	88(%rax), %esi
	movq	-32(%rbp), %rdx
	movabsq	$.L.str.30, %rdi
	callq	u_1
	addl	-16(%rbp), %eax
	movl	%eax, -16(%rbp)
	movq	-24(%rbp), %rax
	cmpl	$0, 88(%rax)
	je	.LBB25_25
# %bb.15:                               # %if.then47
	movl	$-1, -12(%rbp)
.LBB25_16:                              # %do.body48
                                        # =>This Inner Loop Header: Depth=1
	movl	-12(%rbp), %eax
	addl	$1, %eax
	movl	%eax, -12(%rbp)
	movq	-24(%rbp), %rax
	movq	96(%rax), %rax
	movslq	-12(%rbp), %rcx
	movl	(%rax,%rcx,4), %esi
	movq	-32(%rbp), %rdx
	movabsq	$.L.str.27, %rdi
	callq	ue_v
	addl	-16(%rbp), %eax
	movl	%eax, -16(%rbp)
	movq	-24(%rbp), %rax
	movq	96(%rax), %rax
	movslq	-12(%rbp), %rcx
	cmpl	$0, (%rax,%rcx,4)
	je	.LBB25_18
# %bb.17:                               # %lor.lhs.false58
                                        #   in Loop: Header=BB25_16 Depth=1
	movq	-24(%rbp), %rax
	movq	96(%rax), %rax
	movslq	-12(%rbp), %rcx
	cmpl	$1, (%rax,%rcx,4)
	jne	.LBB25_19
.LBB25_18:                              # %if.then63
                                        #   in Loop: Header=BB25_16 Depth=1
	movq	-24(%rbp), %rax
	movq	104(%rax), %rax
	movslq	-12(%rbp), %rcx
	movl	(%rax,%rcx,4), %esi
	movq	-32(%rbp), %rdx
	movabsq	$.L.str.31, %rdi
	callq	ue_v
	addl	-16(%rbp), %eax
	movl	%eax, -16(%rbp)
	jmp	.LBB25_22
.LBB25_19:                              # %if.else68
                                        #   in Loop: Header=BB25_16 Depth=1
	movq	-24(%rbp), %rax
	movq	96(%rax), %rax
	movslq	-12(%rbp), %rcx
	cmpl	$2, (%rax,%rcx,4)
	jne	.LBB25_21
# %bb.20:                               # %if.then73
                                        #   in Loop: Header=BB25_16 Depth=1
	movq	-24(%rbp), %rax
	movq	112(%rax), %rax
	movslq	-12(%rbp), %rcx
	movl	(%rax,%rcx,4), %esi
	movq	-32(%rbp), %rdx
	movabsq	$.L.str.32, %rdi
	callq	ue_v
	addl	-16(%rbp), %eax
	movl	%eax, -16(%rbp)
.LBB25_21:                              # %if.end78
                                        #   in Loop: Header=BB25_16 Depth=1
	jmp	.LBB25_22
.LBB25_22:                              # %if.end79
                                        #   in Loop: Header=BB25_16 Depth=1
	jmp	.LBB25_23
.LBB25_23:                              # %do.cond80
                                        #   in Loop: Header=BB25_16 Depth=1
	movq	-24(%rbp), %rax
	movq	96(%rax), %rax
	movslq	-12(%rbp), %rcx
	cmpl	$3, (%rax,%rcx,4)
	jne	.LBB25_16
# %bb.24:                               # %do.end85
	jmp	.LBB25_25
.LBB25_25:                              # %if.end86
	jmp	.LBB25_26
.LBB25_26:                              # %if.end87
	movl	-16(%rbp), %ebx
	cmpl	$657156066, -40(%rbp)   # imm = 0x272B67E2
	jne	.LBB25_28
.LBB25_27:
	movl	%ebx, %eax
	addq	$40, %rsp
	popq	%rbx
	popq	%rbp
	.cfi_def_cfa %rsp, 8
	retq
.LBB25_28:                              # %func_exit
	.cfi_def_cfa %rbp, 16
	callq	detect_breach
	jmp	.LBB25_27
.Lfunc_end25:
	.size	ref_pic_list_reordering.20, .Lfunc_end25-ref_pic_list_reordering.20
	.cfi_endproc
                                        # -- End function
	.globl	Partition_BC_Header.21  # -- Begin function Partition_BC_Header.21
	.p2align	4, 0x90
	.type	Partition_BC_Header.21,@function
Partition_BC_Header.21:                 # @Partition_BC_Header.21
	.cfi_startproc
# %bb.0:                                # %entry
	pushq	%rbp
	.cfi_def_cfa_offset 16
	.cfi_offset %rbp, -16
	movq	%rsp, %rbp
	.cfi_def_cfa_register %rbp
	pushq	%rbx
	subq	$88, %rsp
	.cfi_offset %rbx, -24
	movl	$1965847912, -28(%rbp)  # imm = 0x752C7568
	movl	%edi, -32(%rbp)
	movq	img, %rax
	movq	14160(%rax), %rax
	movq	24(%rax), %rax
	movslq	-32(%rbp), %rcx
	imulq	$120, %rcx, %rcx
	addq	%rcx, %rax
	movq	%rax, -40(%rbp)
	leaq	-88(%rbp), %rax
	movq	%rax, -24(%rbp)
	movl	$0, -12(%rbp)
	movq	-24(%rbp), %rax
	movl	$0, (%rax)
	movq	-24(%rbp), %rax
	movabsq	$ue_linfo, %rcx
	movq	%rcx, 32(%rax)
	movq	-24(%rbp), %rax
	movl	$0, 8(%rax)
	movq	img, %rax
	movl	20(%rax), %eax
	movq	-24(%rbp), %rcx
	movl	%eax, 4(%rcx)
	movq	-24(%rbp), %rdi
	movq	-40(%rbp), %rsi
	callq	writeSyntaxElement_UVLC
	addl	-12(%rbp), %eax
	movl	%eax, -12(%rbp)
	movq	active_pps, %rax
	cmpl	$0, 228(%rax)
	je	.LBB26_2
# %bb.1:                                # %if.then
	movq	img, %rax
	movq	14160(%rax), %rax
	movl	(%rax), %eax
	movq	-24(%rbp), %rcx
	movl	%eax, 4(%rcx)
	movq	-24(%rbp), %rdi
	movq	-40(%rbp), %rsi
	callq	writeSyntaxElement_UVLC
	addl	-12(%rbp), %eax
	movl	%eax, -12(%rbp)
.LBB26_2:                               # %if.end
	movl	-12(%rbp), %ebx
	cmpl	$1965847912, -28(%rbp)  # imm = 0x752C7568
	jne	.LBB26_4
.LBB26_3:
	movl	%ebx, %eax
	addq	$88, %rsp
	popq	%rbx
	popq	%rbp
	.cfi_def_cfa %rsp, 8
	retq
.LBB26_4:                               # %func_exit
	.cfi_def_cfa %rbp, 16
	callq	detect_breach
	jmp	.LBB26_3
.Lfunc_end26:
	.size	Partition_BC_Header.21, .Lfunc_end26-Partition_BC_Header.21
	.cfi_endproc
                                        # -- End function
	.p2align	4, 0x90         # -- Begin function dec_ref_pic_marking.22
	.type	dec_ref_pic_marking.22,@function
dec_ref_pic_marking.22:                 # @dec_ref_pic_marking.22
	.cfi_startproc
# %bb.0:                                # %entry
	pushq	%rbp
	.cfi_def_cfa_offset 16
	.cfi_offset %rbp, -16
	movq	%rsp, %rbp
	.cfi_def_cfa_register %rbp
	pushq	%rbx
	subq	$40, %rsp
	.cfi_offset %rbx, -24
	movl	$2038031306, -40(%rbp)  # imm = 0x7979E3CA
	movq	input, %rax
	movslq	2364(%rax), %rax
	movq	assignSE2partition(,%rax,8), %rax
	movl	(%rax), %eax
	movl	%eax, -36(%rbp)
	movq	img, %rax
	movq	14160(%rax), %rax
	movq	24(%rax), %rax
	movslq	-36(%rbp), %rcx
	imulq	$120, %rcx, %rcx
	addq	%rcx, %rax
	movq	%rax, -32(%rbp)
	movl	$0, -12(%rbp)
	movq	img, %rax
	movq	14152(%rax), %rax
	cmpl	$0, 4(%rax)
	je	.LBB27_2
# %bb.1:                                # %if.then
	movq	img, %rax
	movl	72504(%rax), %esi
	movq	-32(%rbp), %rdx
	movabsq	$.L.str.33, %rdi
	callq	u_1
	addl	-12(%rbp), %eax
	movl	%eax, -12(%rbp)
	movq	img, %rax
	movl	72508(%rax), %esi
	movq	-32(%rbp), %rdx
	movabsq	$.L.str.34, %rdi
	callq	u_1
	addl	-12(%rbp), %eax
	movl	%eax, -12(%rbp)
	jmp	.LBB27_20
.LBB27_2:                               # %if.else
	movq	img, %rax
	cmpq	$0, 72512(%rax)
	setne	%al
	andb	$1, %al
	movzbl	%al, %eax
	movq	img, %rcx
	movl	%eax, 72500(%rcx)
	movq	img, %rax
	movl	72500(%rax), %esi
	movq	-32(%rbp), %rdx
	movabsq	$.L.str.35, %rdi
	callq	u_1
	addl	-12(%rbp), %eax
	movl	%eax, -12(%rbp)
	movq	img, %rax
	cmpl	$0, 72500(%rax)
	je	.LBB27_19
# %bb.3:                                # %if.then11
	movq	img, %rax
	movq	72512(%rax), %rax
	movq	%rax, -24(%rbp)
.LBB27_4:                               # %do.body
                                        # =>This Inner Loop Header: Depth=1
	cmpq	$0, -24(%rbp)
	jne	.LBB27_6
# %bb.5:                                # %if.then15
                                        #   in Loop: Header=BB27_4 Depth=1
	movabsq	$.L.str.36, %rdi
	movl	$500, %esi              # imm = 0x1F4
	callq	error
.LBB27_6:                               # %if.end
                                        #   in Loop: Header=BB27_4 Depth=1
	movq	-24(%rbp), %rax
	movl	(%rax), %eax
	movl	%eax, -16(%rbp)
	movl	-16(%rbp), %esi
	movq	-32(%rbp), %rdx
	movabsq	$.L.str.37, %rdi
	callq	ue_v
	addl	-12(%rbp), %eax
	movl	%eax, -12(%rbp)
	cmpl	$1, -16(%rbp)
	je	.LBB27_8
# %bb.7:                                # %lor.lhs.false
                                        #   in Loop: Header=BB27_4 Depth=1
	cmpl	$3, -16(%rbp)
	jne	.LBB27_9
.LBB27_8:                               # %if.then22
                                        #   in Loop: Header=BB27_4 Depth=1
	movq	-24(%rbp), %rax
	movl	4(%rax), %esi
	movq	-32(%rbp), %rdx
	movabsq	$.L.str.38, %rdi
	callq	ue_v
	addl	$1, %eax
	addl	-12(%rbp), %eax
	movl	%eax, -12(%rbp)
.LBB27_9:                               # %if.end26
                                        #   in Loop: Header=BB27_4 Depth=1
	cmpl	$2, -16(%rbp)
	jne	.LBB27_11
# %bb.10:                               # %if.then29
                                        #   in Loop: Header=BB27_4 Depth=1
	movq	-24(%rbp), %rax
	movl	8(%rax), %esi
	movq	-32(%rbp), %rdx
	movabsq	$.L.str.39, %rdi
	callq	ue_v
	addl	-12(%rbp), %eax
	movl	%eax, -12(%rbp)
.LBB27_11:                              # %if.end32
                                        #   in Loop: Header=BB27_4 Depth=1
	cmpl	$3, -16(%rbp)
	je	.LBB27_13
# %bb.12:                               # %lor.lhs.false35
                                        #   in Loop: Header=BB27_4 Depth=1
	cmpl	$6, -16(%rbp)
	jne	.LBB27_14
.LBB27_13:                              # %if.then38
                                        #   in Loop: Header=BB27_4 Depth=1
	movq	-24(%rbp), %rax
	movl	12(%rax), %esi
	movq	-32(%rbp), %rdx
	movabsq	$.L.str.40, %rdi
	callq	ue_v
	addl	-12(%rbp), %eax
	movl	%eax, -12(%rbp)
.LBB27_14:                              # %if.end41
                                        #   in Loop: Header=BB27_4 Depth=1
	cmpl	$4, -16(%rbp)
	jne	.LBB27_16
# %bb.15:                               # %if.then44
                                        #   in Loop: Header=BB27_4 Depth=1
	movq	-24(%rbp), %rax
	movl	16(%rax), %esi
	movq	-32(%rbp), %rdx
	movabsq	$.L.str.41, %rdi
	callq	ue_v
	addl	-12(%rbp), %eax
	movl	%eax, -12(%rbp)
.LBB27_16:                              # %if.end47
                                        #   in Loop: Header=BB27_4 Depth=1
	movq	-24(%rbp), %rax
	movq	24(%rax), %rax
	movq	%rax, -24(%rbp)
# %bb.17:                               # %do.cond
                                        #   in Loop: Header=BB27_4 Depth=1
	cmpl	$0, -16(%rbp)
	jne	.LBB27_4
# %bb.18:                               # %do.end
	jmp	.LBB27_19
.LBB27_19:                              # %if.end50
	jmp	.LBB27_20
.LBB27_20:                              # %if.end51
	movl	-12(%rbp), %ebx
	cmpl	$2038031306, -40(%rbp)  # imm = 0x7979E3CA
	jne	.LBB27_22
.LBB27_21:
	movl	%ebx, %eax
	addq	$40, %rsp
	popq	%rbx
	popq	%rbp
	.cfi_def_cfa %rsp, 8
	retq
.LBB27_22:                              # %func_exit
	.cfi_def_cfa %rbp, 16
	callq	detect_breach
	jmp	.LBB27_21
.Lfunc_end27:
	.size	dec_ref_pic_marking.22, .Lfunc_end27-dec_ref_pic_marking.22
	.cfi_endproc
                                        # -- End function
	.section	.rodata.cst8,"aM",@progbits,8
	.p2align	3               # -- Begin function SliceHeader.23
.LCPI28_0:
	.quad	4611686018427387904     # double 2
	.section	.rodata.cst4,"aM",@progbits,4
	.p2align	2
.LCPI28_1:
	.long	1065353216              # float 1
	.text
	.globl	SliceHeader.23
	.p2align	4, 0x90
	.type	SliceHeader.23,@function
SliceHeader.23:                         # @SliceHeader.23
	.cfi_startproc
# %bb.0:                                # %entry
	pushq	%rbp
	.cfi_def_cfa_offset 16
	.cfi_offset %rbp, -16
	movq	%rsp, %rbp
	.cfi_def_cfa_register %rbp
	pushq	%rbx
	subq	$72, %rsp
	.cfi_offset %rbx, -24
	movl	$454381715, -40(%rbp)   # imm = 0x1B155093
	movq	input, %rax
	movslq	2364(%rax), %rax
	movq	assignSE2partition(,%rax,8), %rax
	movl	(%rax), %eax
	movl	%eax, -52(%rbp)
	movq	img, %rax
	movq	14160(%rax), %rax
	movq	24(%rax), %rax
	movslq	-52(%rbp), %rcx
	imulq	$120, %rcx, %rcx
	addq	%rcx, %rax
	movq	%rax, -24(%rbp)
	movq	img, %rax
	movq	14160(%rax), %rax
	movq	%rax, -72(%rbp)
	movl	$0, -12(%rbp)
	movl	$0, -28(%rbp)
	movl	$0, -36(%rbp)
	movq	img, %rax
	cmpl	$0, 72400(%rax)
	je	.LBB28_2
# %bb.1:                                # %if.then
	movq	img, %rax
	movl	12(%rax), %esi
	sarl	$1, %esi
	movq	-24(%rbp), %rdx
	movabsq	$.L.str, %rdi
	callq	ue_v
	movl	%eax, -12(%rbp)
	jmp	.LBB28_3
.LBB28_2:                               # %if.else
	movq	img, %rax
	movl	12(%rax), %esi
	movq	-24(%rbp), %rdx
	movabsq	$.L.str, %rdi
	callq	ue_v
	movl	%eax, -12(%rbp)
.LBB28_3:                               # %if.end
	callq	get_picture_type
	movq	-24(%rbp), %rdx
	movabsq	$.L.str.1, %rdi
	movl	%eax, %esi
	callq	ue_v
	addl	-12(%rbp), %eax
	movl	%eax, -12(%rbp)
	movq	active_pps, %rax
	movl	4(%rax), %esi
	movq	-24(%rbp), %rdx
	movabsq	$.L.str.2, %rdi
	callq	ue_v
	addl	-12(%rbp), %eax
	movl	%eax, -12(%rbp)
	movl	log2_max_frame_num_minus4, %edi
	addl	$4, %edi
	movq	img, %rax
	movl	72464(%rax), %edx
	movq	-24(%rbp), %rcx
	movabsq	$.L.str.3, %rsi
	callq	u_v
	addl	-12(%rbp), %eax
	movl	%eax, -12(%rbp)
	movq	active_sps, %rax
	cmpl	$0, 1148(%rax)
	jne	.LBB28_9
# %bb.4:                                # %if.then15
	movq	img, %rax
	cmpl	$1, 28(%rax)
	movb	$1, %al
	je	.LBB28_6
# %bb.5:                                # %lor.rhs
	movq	img, %rax
	cmpl	$2, 28(%rax)
	sete	%al
.LBB28_6:                               # %lor.end
	xorl	%ecx, %ecx
	testb	$1, %al
	movl	$1, %eax
	cmovnel	%eax, %ecx
	movl	%ecx, -28(%rbp)
	movl	-28(%rbp), %esi
	movq	-24(%rbp), %rdx
	movabsq	$.L.str.4, %rdi
	callq	u_1
	addl	-12(%rbp), %eax
	movl	%eax, -12(%rbp)
	cmpl	$0, -28(%rbp)
	je	.LBB28_8
# %bb.7:                                # %if.then21
	xorl	%eax, %eax
	movq	img, %rcx
	movl	28(%rcx), %ecx
	cmpl	$2, %ecx
	movl	$1, %ecx
	cmovel	%ecx, %eax
	movl	%eax, -36(%rbp)
	movl	-36(%rbp), %esi
	movq	-24(%rbp), %rdx
	movabsq	$.L.str.5, %rdi
	callq	u_1
	addl	-12(%rbp), %eax
	movl	%eax, -12(%rbp)
.LBB28_8:                               # %if.end27
	jmp	.LBB28_9
.LBB28_9:                               # %if.end28
	movq	img, %rax
	movq	14152(%rax), %rax
	cmpl	$0, 4(%rax)
	je	.LBB28_11
# %bb.10:                               # %if.then30
	movq	img, %rax
	movl	(%rax), %eax
	cltd
	movl	$2, %ecx
	idivl	%ecx
	movq	-24(%rbp), %rax
	movabsq	$.L.str.6, %rdi
	movl	%edx, %esi
	movq	%rax, %rdx
	callq	ue_v
	addl	-12(%rbp), %eax
	movl	%eax, -12(%rbp)
.LBB28_11:                              # %if.end33
	movq	img, %rax
	cmpl	$0, 72404(%rax)
	jne	.LBB28_25
# %bb.12:                               # %if.then35
	movq	active_sps, %rax
	cmpl	$0, 1148(%rax)
	je	.LBB28_14
# %bb.13:                               # %if.then38
	movq	img, %rax
	movl	72448(%rax), %eax
	movl	log2_max_pic_order_cnt_lsb_minus4, %ecx
	addl	$4, %ecx
                                        # kill: def $cl killed $ecx
	movl	$4294967295, %edx       # imm = 0xFFFFFFFF
	shll	%cl, %edx
	xorl	$-1, %edx
	andl	%edx, %eax
	movq	img, %rcx
	movl	%eax, 72428(%rcx)
	jmp	.LBB28_21
.LBB28_14:                              # %if.else40
	cmpl	$0, -28(%rbp)
	je	.LBB28_16
# %bb.15:                               # %lor.lhs.false
	movq	img, %rax
	cmpl	$1, 28(%rax)
	jne	.LBB28_17
.LBB28_16:                              # %if.then44
	movq	img, %rax
	movl	72448(%rax), %eax
	movl	log2_max_pic_order_cnt_lsb_minus4, %ecx
	addl	$4, %ecx
                                        # kill: def $cl killed $ecx
	movl	$4294967295, %edx       # imm = 0xFFFFFFFF
	shll	%cl, %edx
	xorl	$-1, %edx
	andl	%edx, %eax
	movq	img, %rcx
	movl	%eax, 72428(%rcx)
	jmp	.LBB28_20
.LBB28_17:                              # %if.else51
	movq	img, %rax
	cmpl	$2, 28(%rax)
	jne	.LBB28_19
# %bb.18:                               # %if.then54
	movq	img, %rax
	movl	72452(%rax), %eax
	movl	log2_max_pic_order_cnt_lsb_minus4, %ecx
	addl	$4, %ecx
                                        # kill: def $cl killed $ecx
	movl	$4294967295, %edx       # imm = 0xFFFFFFFF
	shll	%cl, %edx
	xorl	$-1, %edx
	andl	%edx, %eax
	movq	img, %rcx
	movl	%eax, 72428(%rcx)
.LBB28_19:                              # %if.end60
	jmp	.LBB28_20
.LBB28_20:                              # %if.end61
	jmp	.LBB28_21
.LBB28_21:                              # %if.end62
	movl	log2_max_pic_order_cnt_lsb_minus4, %edi
	addl	$4, %edi
	movq	img, %rax
	movl	72428(%rax), %edx
	movq	-24(%rbp), %rcx
	movabsq	$.L.str.7, %rsi
	callq	u_v
	addl	-12(%rbp), %eax
	movl	%eax, -12(%rbp)
	movq	img, %rax
	cmpl	$0, 72492(%rax)
	je	.LBB28_24
# %bb.22:                               # %land.lhs.true
	cmpl	$0, -28(%rbp)
	jne	.LBB28_24
# %bb.23:                               # %if.then69
	movq	img, %rax
	movl	72432(%rax), %esi
	movq	-24(%rbp), %rdx
	movabsq	$.L.str.8, %rdi
	callq	se_v
	addl	-12(%rbp), %eax
	movl	%eax, -12(%rbp)
.LBB28_24:                              # %if.end72
	jmp	.LBB28_25
.LBB28_25:                              # %if.end73
	movq	img, %rax
	cmpl	$1, 72404(%rax)
	jne	.LBB28_31
# %bb.26:                               # %land.lhs.true76
	movq	img, %rax
	cmpl	$0, 72408(%rax)
	jne	.LBB28_31
# %bb.27:                               # %if.then78
	movq	img, %rax
	movl	72436(%rax), %esi
	movq	-24(%rbp), %rdx
	movabsq	$.L.str.9, %rdi
	callq	se_v
	addl	-12(%rbp), %eax
	movl	%eax, -12(%rbp)
	movq	img, %rax
	cmpl	$0, 72492(%rax)
	je	.LBB28_30
# %bb.28:                               # %land.lhs.true84
	cmpl	$0, -28(%rbp)
	jne	.LBB28_30
# %bb.29:                               # %if.then86
	movq	img, %rax
	movl	72440(%rax), %esi
	movq	-24(%rbp), %rdx
	movabsq	$.L.str.10, %rdi
	callq	se_v
	addl	-12(%rbp), %eax
	movl	%eax, -12(%rbp)
.LBB28_30:                              # %if.end91
	jmp	.LBB28_31
.LBB28_31:                              # %if.end92
	movq	input, %rax
	cmpl	$0, 3204(%rax)
	je	.LBB28_33
# %bb.32:                               # %if.then94
	movq	img, %rax
	movl	72396(%rax), %esi
	movq	-24(%rbp), %rdx
	movabsq	$.L.str.11, %rdi
	callq	ue_v
	addl	-12(%rbp), %eax
	movl	%eax, -12(%rbp)
.LBB28_33:                              # %if.end97
	movq	img, %rax
	cmpl	$1, 24(%rax)
	jne	.LBB28_35
# %bb.34:                               # %if.then99
	movq	img, %rax
	movl	71996(%rax), %esi
	movq	-24(%rbp), %rdx
	movabsq	$.L.str.12, %rdi
	callq	u_1
	addl	-12(%rbp), %eax
	movl	%eax, -12(%rbp)
.LBB28_35:                              # %if.end102
	movq	img, %rax
	cmpl	$0, 24(%rax)
	je	.LBB28_38
# %bb.36:                               # %lor.lhs.false105
	movq	img, %rax
	cmpl	$1, 24(%rax)
	je	.LBB28_38
# %bb.37:                               # %lor.lhs.false108
	movq	img, %rax
	cmpl	$3, 24(%rax)
	jne	.LBB28_49
.LBB28_38:                              # %if.then111
	movq	img, %rax
	cmpl	$0, 24(%rax)
	je	.LBB28_40
# %bb.39:                               # %lor.lhs.false114
	movq	img, %rax
	cmpl	$3, 24(%rax)
	jne	.LBB28_41
.LBB28_40:                              # %if.then117
	xorl	%eax, %eax
	movq	img, %rcx
	movl	72000(%rcx), %ecx
	movq	active_pps, %rdx
	movl	184(%rdx), %edx
	addl	$1, %edx
	cmpl	%edx, %ecx
	movl	$1, %ecx
	cmovnel	%ecx, %eax
	movl	%eax, -32(%rbp)
	jmp	.LBB28_44
.LBB28_41:                              # %if.else121
	movq	img, %rax
	movl	72000(%rax), %eax
	movq	active_pps, %rcx
	movl	184(%rcx), %ecx
	addl	$1, %ecx
	cmpl	%ecx, %eax
	movb	$1, %al
	jne	.LBB28_43
# %bb.42:                               # %lor.rhs126
	movq	img, %rax
	movl	72004(%rax), %eax
	movq	active_pps, %rcx
	movl	188(%rcx), %ecx
	addl	$1, %ecx
	cmpl	%ecx, %eax
	setne	%al
.LBB28_43:                              # %lor.end129
	xorl	%ecx, %ecx
	testb	$1, %al
	movl	$1, %eax
	cmovnel	%eax, %ecx
	movl	%ecx, -32(%rbp)
.LBB28_44:                              # %if.end131
	movl	-32(%rbp), %esi
	movq	-24(%rbp), %rdx
	movabsq	$.L.str.13, %rdi
	callq	u_1
	addl	-12(%rbp), %eax
	movl	%eax, -12(%rbp)
	cmpl	$0, -32(%rbp)
	je	.LBB28_48
# %bb.45:                               # %if.then135
	movq	img, %rax
	movl	72000(%rax), %esi
	subl	$1, %esi
	movq	-24(%rbp), %rdx
	movabsq	$.L.str.14, %rdi
	callq	ue_v
	addl	-12(%rbp), %eax
	movl	%eax, -12(%rbp)
	movq	img, %rax
	cmpl	$1, 24(%rax)
	jne	.LBB28_47
# %bb.46:                               # %if.then141
	movq	img, %rax
	movl	72004(%rax), %esi
	subl	$1, %esi
	movq	-24(%rbp), %rdx
	movabsq	$.L.str.15, %rdi
	callq	ue_v
	addl	-12(%rbp), %eax
	movl	%eax, -12(%rbp)
.LBB28_47:                              # %if.end146
	jmp	.LBB28_48
.LBB28_48:                              # %if.end147
	jmp	.LBB28_49
.LBB28_49:                              # %if.end148
	callq	ref_pic_list_reordering
	addl	-12(%rbp), %eax
	movl	%eax, -12(%rbp)
	movq	img, %rax
	cmpl	$0, 24(%rax)
	je	.LBB28_51
# %bb.50:                               # %lor.lhs.false153
	movq	img, %rax
	cmpl	$3, 24(%rax)
	jne	.LBB28_52
.LBB28_51:                              # %land.lhs.true156
	movq	active_pps, %rax
	cmpl	$0, 192(%rax)
	jne	.LBB28_54
.LBB28_52:                              # %lor.lhs.false158
	movq	img, %rax
	cmpl	$1, 24(%rax)
	jne	.LBB28_55
# %bb.53:                               # %land.lhs.true161
	movq	active_pps, %rax
	cmpl	$1, 196(%rax)
	jne	.LBB28_55
.LBB28_54:                              # %if.then163
	callq	pred_weight_table
	addl	-12(%rbp), %eax
	movl	%eax, -12(%rbp)
.LBB28_55:                              # %if.end166
	movq	img, %rax
	cmpl	$0, 72496(%rax)
	je	.LBB28_57
# %bb.56:                               # %if.then168
	callq	dec_ref_pic_marking
	addl	-12(%rbp), %eax
	movl	%eax, -12(%rbp)
.LBB28_57:                              # %if.end171
	movq	input, %rax
	cmpl	$1, 2356(%rax)
	jne	.LBB28_60
# %bb.58:                               # %land.lhs.true173
	movq	img, %rax
	cmpl	$2, 24(%rax)
	je	.LBB28_60
# %bb.59:                               # %if.then176
	movq	img, %rax
	movl	72520(%rax), %esi
	movq	-24(%rbp), %rdx
	movabsq	$.L.str.16, %rdi
	callq	ue_v
	addl	-12(%rbp), %eax
	movl	%eax, -12(%rbp)
.LBB28_60:                              # %if.end179
	movq	-72(%rbp), %rax
	movl	4(%rax), %esi
	subl	$26, %esi
	movq	active_pps, %rax
	subl	200(%rax), %esi
	movq	-24(%rbp), %rdx
	movabsq	$.L.str.17, %rdi
	callq	se_v
	addl	-12(%rbp), %eax
	movl	%eax, -12(%rbp)
	movq	img, %rax
	cmpl	$3, 24(%rax)
	jne	.LBB28_64
# %bb.61:                               # %if.then186
	movq	img, %rax
	cmpl	$3, 24(%rax)
	jne	.LBB28_63
# %bb.62:                               # %if.then189
	movq	-24(%rbp), %rdx
	movabsq	$.L.str.18, %rdi
	xorl	%esi, %esi
	callq	u_1
	addl	-12(%rbp), %eax
	movl	%eax, -12(%rbp)
.LBB28_63:                              # %if.end192
	movq	img, %rax
	movl	44(%rax), %esi
	subl	$26, %esi
	movq	-24(%rbp), %rdx
	movabsq	$.L.str.19, %rdi
	callq	se_v
	addl	-12(%rbp), %eax
	movl	%eax, -12(%rbp)
.LBB28_64:                              # %if.end196
	movq	active_pps, %rax
	cmpl	$0, 220(%rax)
	je	.LBB28_68
# %bb.65:                               # %if.then198
	movq	img, %rax
	movl	71984(%rax), %esi
	movq	-24(%rbp), %rdx
	movabsq	$.L.str.20, %rdi
	callq	ue_v
	addl	-12(%rbp), %eax
	movl	%eax, -12(%rbp)
	movq	img, %rax
	cmpl	$1, 71984(%rax)
	je	.LBB28_67
# %bb.66:                               # %if.then203
	movq	img, %rax
	movl	71988(%rax), %eax
	cltd
	movl	$2, %ecx
	idivl	%ecx
	movq	-24(%rbp), %rdx
	movabsq	$.L.str.21, %rdi
	movl	%eax, %esi
	callq	se_v
	addl	-12(%rbp), %eax
	movl	%eax, -12(%rbp)
	movq	img, %rax
	movl	71992(%rax), %eax
	cltd
	movl	$2, %ecx
	idivl	%ecx
	movq	-24(%rbp), %rdx
	movabsq	$.L.str.22, %rdi
	movl	%eax, %esi
	callq	se_v
	addl	-12(%rbp), %eax
	movl	%eax, -12(%rbp)
.LBB28_67:                              # %if.end209
	jmp	.LBB28_68
.LBB28_68:                              # %if.end210
	movq	active_pps, %rax
	cmpl	$0, 60(%rax)
	jbe	.LBB28_72
# %bb.69:                               # %land.lhs.true212
	movq	active_pps, %rax
	cmpl	$3, 64(%rax)
	jb	.LBB28_72
# %bb.70:                               # %land.lhs.true214
	movq	active_pps, %rax
	cmpl	$5, 64(%rax)
	ja	.LBB28_72
# %bb.71:                               # %if.then217
	vmovss	.LCPI28_1(%rip), %xmm0  # xmm0 = mem[0],zero,zero,zero
	movq	img(%rip), %rax
	movl	72468(%rax), %ecx
	movl	72472(%rax), %eax
	imull	%ecx, %eax
	vcvtsi2ss	%rax, %xmm0, %xmm1
	movq	active_pps(%rip), %rax
	movl	168(%rax), %eax
	addl	$1, %eax
	vcvtsi2ss	%rax, %xmm0, %xmm2
	vdivss	%xmm2, %xmm1, %xmm1
	vaddss	%xmm0, %xmm1, %xmm0
	vmovss	%xmm0, -44(%rbp)
	vmovss	-44(%rbp), %xmm0        # xmm0 = mem[0],zero,zero,zero
	vcvtss2sd	%xmm0, %xmm0, %xmm0
	callq	log
	vmovsd	%xmm0, -64(%rbp)        # 8-byte Spill
	vmovsd	.LCPI28_0(%rip), %xmm0  # xmm0 = mem[0],zero
	callq	log
	vmovsd	-64(%rbp), %xmm1        # 8-byte Reload
                                        # xmm1 = mem[0],zero
	vdivsd	%xmm0, %xmm1, %xmm0
	vroundsd	$10, %xmm0, %xmm0, %xmm0
	vcvttsd2si	%xmm0, %eax
	movl	%eax, -48(%rbp)
	movl	-48(%rbp), %edi
	movq	img, %rax
	movl	72652(%rax), %edx
	movq	-24(%rbp), %rcx
	movabsq	$.L.str.23, %rsi
	callq	u_v
	addl	-12(%rbp), %eax
	movl	%eax, -12(%rbp)
.LBB28_72:                              # %if.end229
	movq	input, %rax
	cmpl	$0, 2364(%rax)
	je	.LBB28_75
# %bb.73:                               # %land.lhs.true232
	movq	img, %rax
	movq	14152(%rax), %rax
	cmpl	$0, 4(%rax)
	jne	.LBB28_75
# %bb.74:                               # %if.then236
	movq	img, %rax
	movl	20(%rax), %esi
	movq	-24(%rbp), %rdx
	movabsq	$.L.str.24, %rdi
	callq	ue_v
	addl	-12(%rbp), %eax
	movl	%eax, -12(%rbp)
.LBB28_75:                              # %if.end239
	movl	-12(%rbp), %ebx
	cmpl	$454381715, -40(%rbp)   # imm = 0x1B155093
	jne	.LBB28_77
.LBB28_76:
	movl	%ebx, %eax
	addq	$72, %rsp
	popq	%rbx
	popq	%rbp
	.cfi_def_cfa %rsp, 8
	retq
.LBB28_77:                              # %func_exit
	.cfi_def_cfa %rbp, 16
	callq	detect_breach
	jmp	.LBB28_76
.Lfunc_end28:
	.size	SliceHeader.23, .Lfunc_end28-SliceHeader.23
	.cfi_endproc
                                        # -- End function
	.p2align	4, 0x90         # -- Begin function dec_ref_pic_marking.24
	.type	dec_ref_pic_marking.24,@function
dec_ref_pic_marking.24:                 # @dec_ref_pic_marking.24
	.cfi_startproc
# %bb.0:                                # %entry
	pushq	%rbp
	.cfi_def_cfa_offset 16
	.cfi_offset %rbp, -16
	movq	%rsp, %rbp
	.cfi_def_cfa_register %rbp
	pushq	%rbx
	subq	$40, %rsp
	.cfi_offset %rbx, -24
	movl	$1764378298, -40(%rbp)  # imm = 0x692A46BA
	movq	input, %rax
	movslq	2364(%rax), %rax
	movq	assignSE2partition(,%rax,8), %rax
	movl	(%rax), %eax
	movl	%eax, -36(%rbp)
	movq	img, %rax
	movq	14160(%rax), %rax
	movq	24(%rax), %rax
	movslq	-36(%rbp), %rcx
	imulq	$120, %rcx, %rcx
	addq	%rcx, %rax
	movq	%rax, -24(%rbp)
	movl	$0, -12(%rbp)
	movq	img, %rax
	movq	14152(%rax), %rax
	cmpl	$0, 4(%rax)
	je	.LBB29_2
# %bb.1:                                # %if.then
	movq	img, %rax
	movl	72504(%rax), %esi
	movq	-24(%rbp), %rdx
	movabsq	$.L.str.33, %rdi
	callq	u_1
	addl	-12(%rbp), %eax
	movl	%eax, -12(%rbp)
	movq	img, %rax
	movl	72508(%rax), %esi
	movq	-24(%rbp), %rdx
	movabsq	$.L.str.34, %rdi
	callq	u_1
	addl	-12(%rbp), %eax
	movl	%eax, -12(%rbp)
	jmp	.LBB29_20
.LBB29_2:                               # %if.else
	movq	img, %rax
	cmpq	$0, 72512(%rax)
	setne	%al
	andb	$1, %al
	movzbl	%al, %eax
	movq	img, %rcx
	movl	%eax, 72500(%rcx)
	movq	img, %rax
	movl	72500(%rax), %esi
	movq	-24(%rbp), %rdx
	movabsq	$.L.str.35, %rdi
	callq	u_1
	addl	-12(%rbp), %eax
	movl	%eax, -12(%rbp)
	movq	img, %rax
	cmpl	$0, 72500(%rax)
	je	.LBB29_19
# %bb.3:                                # %if.then11
	movq	img, %rax
	movq	72512(%rax), %rax
	movq	%rax, -32(%rbp)
.LBB29_4:                               # %do.body
                                        # =>This Inner Loop Header: Depth=1
	cmpq	$0, -32(%rbp)
	jne	.LBB29_6
# %bb.5:                                # %if.then15
                                        #   in Loop: Header=BB29_4 Depth=1
	movabsq	$.L.str.36, %rdi
	movl	$500, %esi              # imm = 0x1F4
	callq	error
.LBB29_6:                               # %if.end
                                        #   in Loop: Header=BB29_4 Depth=1
	movq	-32(%rbp), %rax
	movl	(%rax), %eax
	movl	%eax, -16(%rbp)
	movl	-16(%rbp), %esi
	movq	-24(%rbp), %rdx
	movabsq	$.L.str.37, %rdi
	callq	ue_v
	addl	-12(%rbp), %eax
	movl	%eax, -12(%rbp)
	cmpl	$1, -16(%rbp)
	je	.LBB29_8
# %bb.7:                                # %lor.lhs.false
                                        #   in Loop: Header=BB29_4 Depth=1
	cmpl	$3, -16(%rbp)
	jne	.LBB29_9
.LBB29_8:                               # %if.then22
                                        #   in Loop: Header=BB29_4 Depth=1
	movq	-32(%rbp), %rax
	movl	4(%rax), %esi
	movq	-24(%rbp), %rdx
	movabsq	$.L.str.38, %rdi
	callq	ue_v
	addl	$1, %eax
	addl	-12(%rbp), %eax
	movl	%eax, -12(%rbp)
.LBB29_9:                               # %if.end26
                                        #   in Loop: Header=BB29_4 Depth=1
	cmpl	$2, -16(%rbp)
	jne	.LBB29_11
# %bb.10:                               # %if.then29
                                        #   in Loop: Header=BB29_4 Depth=1
	movq	-32(%rbp), %rax
	movl	8(%rax), %esi
	movq	-24(%rbp), %rdx
	movabsq	$.L.str.39, %rdi
	callq	ue_v
	addl	-12(%rbp), %eax
	movl	%eax, -12(%rbp)
.LBB29_11:                              # %if.end32
                                        #   in Loop: Header=BB29_4 Depth=1
	cmpl	$3, -16(%rbp)
	je	.LBB29_13
# %bb.12:                               # %lor.lhs.false35
                                        #   in Loop: Header=BB29_4 Depth=1
	cmpl	$6, -16(%rbp)
	jne	.LBB29_14
.LBB29_13:                              # %if.then38
                                        #   in Loop: Header=BB29_4 Depth=1
	movq	-32(%rbp), %rax
	movl	12(%rax), %esi
	movq	-24(%rbp), %rdx
	movabsq	$.L.str.40, %rdi
	callq	ue_v
	addl	-12(%rbp), %eax
	movl	%eax, -12(%rbp)
.LBB29_14:                              # %if.end41
                                        #   in Loop: Header=BB29_4 Depth=1
	cmpl	$4, -16(%rbp)
	jne	.LBB29_16
# %bb.15:                               # %if.then44
                                        #   in Loop: Header=BB29_4 Depth=1
	movq	-32(%rbp), %rax
	movl	16(%rax), %esi
	movq	-24(%rbp), %rdx
	movabsq	$.L.str.41, %rdi
	callq	ue_v
	addl	-12(%rbp), %eax
	movl	%eax, -12(%rbp)
.LBB29_16:                              # %if.end47
                                        #   in Loop: Header=BB29_4 Depth=1
	movq	-32(%rbp), %rax
	movq	24(%rax), %rax
	movq	%rax, -32(%rbp)
# %bb.17:                               # %do.cond
                                        #   in Loop: Header=BB29_4 Depth=1
	cmpl	$0, -16(%rbp)
	jne	.LBB29_4
# %bb.18:                               # %do.end
	jmp	.LBB29_19
.LBB29_19:                              # %if.end50
	jmp	.LBB29_20
.LBB29_20:                              # %if.end51
	movl	-12(%rbp), %ebx
	cmpl	$1764378298, -40(%rbp)  # imm = 0x692A46BA
	jne	.LBB29_22
.LBB29_21:
	movl	%ebx, %eax
	addq	$40, %rsp
	popq	%rbx
	popq	%rbp
	.cfi_def_cfa %rsp, 8
	retq
.LBB29_22:                              # %func_exit
	.cfi_def_cfa %rbp, 16
	callq	detect_breach
	jmp	.LBB29_21
.Lfunc_end29:
	.size	dec_ref_pic_marking.24, .Lfunc_end29-dec_ref_pic_marking.24
	.cfi_endproc
                                        # -- End function
	.p2align	4, 0x90         # -- Begin function pred_weight_table.25
	.type	pred_weight_table.25,@function
pred_weight_table.25:                   # @pred_weight_table.25
	.cfi_startproc
# %bb.0:                                # %entry
	pushq	%rbp
	.cfi_def_cfa_offset 16
	.cfi_offset %rbp, -16
	movq	%rsp, %rbp
	.cfi_def_cfa_register %rbp
	pushq	%rbx
	subq	$40, %rsp
	.cfi_offset %rbx, -24
	movl	$747014947, -40(%rbp)   # imm = 0x2C868B23
	movq	input, %rax
	movslq	2364(%rax), %rax
	movq	assignSE2partition(,%rax,8), %rax
	movl	(%rax), %eax
	movl	%eax, -36(%rbp)
	movq	img, %rax
	movq	14160(%rax), %rax
	movq	24(%rax), %rax
	movslq	-36(%rbp), %rcx
	imulq	$120, %rcx, %rcx
	addq	%rcx, %rax
	movq	%rax, -32(%rbp)
	movl	$0, -12(%rbp)
	movl	luma_log_weight_denom, %esi
	movq	-32(%rbp), %rdx
	movabsq	$.L.str.42, %rdi
	callq	ue_v
	addl	-12(%rbp), %eax
	movl	%eax, -12(%rbp)
	movl	chroma_log_weight_denom, %esi
	movq	-32(%rbp), %rdx
	movabsq	$.L.str.43, %rdi
	callq	ue_v
	addl	-12(%rbp), %eax
	movl	%eax, -12(%rbp)
	movl	$0, -16(%rbp)
.LBB30_1:                               # %for.cond
                                        # =>This Loop Header: Depth=1
                                        #     Child Loop BB30_11 Depth 2
	movl	-16(%rbp), %eax
	movq	img, %rcx
	cmpl	72000(%rcx), %eax
	jge	.LBB30_18
# %bb.2:                                # %for.body
                                        #   in Loop: Header=BB30_1 Depth=1
	movq	wp_weight, %rax
	movq	(%rax), %rax
	movslq	-16(%rbp), %rcx
	movq	(%rax,%rcx,8), %rax
	movl	(%rax), %eax
	movl	luma_log_weight_denom, %ecx
                                        # kill: def $cl killed $ecx
	movl	$1, %edx
	shll	%cl, %edx
	cmpl	%edx, %eax
	jne	.LBB30_4
# %bb.3:                                # %lor.lhs.false
                                        #   in Loop: Header=BB30_1 Depth=1
	movq	wp_offset, %rax
	movq	(%rax), %rax
	movslq	-16(%rbp), %rcx
	movq	(%rax,%rcx,8), %rax
	cmpl	$0, (%rax)
	je	.LBB30_5
.LBB30_4:                               # %if.then
                                        #   in Loop: Header=BB30_1 Depth=1
	movq	-32(%rbp), %rdx
	movabsq	$.L.str.44, %rdi
	movl	$1, %esi
	callq	u_1
	addl	-12(%rbp), %eax
	movl	%eax, -12(%rbp)
	movq	wp_weight, %rax
	movq	(%rax), %rax
	movslq	-16(%rbp), %rcx
	movq	(%rax,%rcx,8), %rax
	movl	(%rax), %esi
	movq	-32(%rbp), %rdx
	movabsq	$.L.str.45, %rdi
	callq	se_v
	addl	-12(%rbp), %eax
	movl	%eax, -12(%rbp)
	movq	wp_offset, %rax
	movq	(%rax), %rax
	movslq	-16(%rbp), %rcx
	movq	(%rax,%rcx,8), %rax
	movl	(%rax), %esi
	movq	-32(%rbp), %rdx
	movabsq	$.L.str.46, %rdi
	callq	se_v
	addl	-12(%rbp), %eax
	movl	%eax, -12(%rbp)
	jmp	.LBB30_6
.LBB30_5:                               # %if.else
                                        #   in Loop: Header=BB30_1 Depth=1
	movq	-32(%rbp), %rdx
	movabsq	$.L.str.44, %rdi
	xorl	%esi, %esi
	callq	u_1
	addl	-12(%rbp), %eax
	movl	%eax, -12(%rbp)
.LBB30_6:                               # %if.end
                                        #   in Loop: Header=BB30_1 Depth=1
	movq	wp_weight, %rax
	movq	(%rax), %rax
	movslq	-16(%rbp), %rcx
	movq	(%rax,%rcx,8), %rax
	movl	4(%rax), %eax
	movl	chroma_log_weight_denom, %ecx
                                        # kill: def $cl killed $ecx
	movl	$1, %edx
	shll	%cl, %edx
	cmpl	%edx, %eax
	jne	.LBB30_10
# %bb.7:                                # %lor.lhs.false38
                                        #   in Loop: Header=BB30_1 Depth=1
	movq	wp_offset, %rax
	movq	(%rax), %rax
	movslq	-16(%rbp), %rcx
	movq	(%rax,%rcx,8), %rax
	cmpl	$0, 4(%rax)
	jne	.LBB30_10
# %bb.8:                                # %lor.lhs.false44
                                        #   in Loop: Header=BB30_1 Depth=1
	movq	wp_weight, %rax
	movq	(%rax), %rax
	movslq	-16(%rbp), %rcx
	movq	(%rax,%rcx,8), %rax
	movl	8(%rax), %eax
	movl	chroma_log_weight_denom, %ecx
                                        # kill: def $cl killed $ecx
	movl	$1, %edx
	shll	%cl, %edx
	cmpl	%edx, %eax
	jne	.LBB30_10
# %bb.9:                                # %lor.lhs.false51
                                        #   in Loop: Header=BB30_1 Depth=1
	movq	wp_offset, %rax
	movq	(%rax), %rax
	movslq	-16(%rbp), %rcx
	movq	(%rax,%rcx,8), %rax
	cmpl	$0, 8(%rax)
	je	.LBB30_15
.LBB30_10:                              # %if.then57
                                        #   in Loop: Header=BB30_1 Depth=1
	movq	-32(%rbp), %rdx
	movabsq	$.L.str.47, %rdi
	movl	$1, %esi
	callq	u_1
	addl	-12(%rbp), %eax
	movl	%eax, -12(%rbp)
	movl	$1, -20(%rbp)
.LBB30_11:                              # %for.cond60
                                        #   Parent Loop BB30_1 Depth=1
                                        # =>  This Inner Loop Header: Depth=2
	cmpl	$3, -20(%rbp)
	jge	.LBB30_14
# %bb.12:                               # %for.body62
                                        #   in Loop: Header=BB30_11 Depth=2
	movq	wp_weight, %rax
	movq	(%rax), %rax
	movslq	-16(%rbp), %rcx
	movq	(%rax,%rcx,8), %rax
	movslq	-20(%rbp), %rcx
	movl	(%rax,%rcx,4), %esi
	movq	-32(%rbp), %rdx
	movabsq	$.L.str.48, %rdi
	callq	se_v
	addl	-12(%rbp), %eax
	movl	%eax, -12(%rbp)
	movq	wp_offset, %rax
	movq	(%rax), %rax
	movslq	-16(%rbp), %rcx
	movq	(%rax,%rcx,8), %rax
	movslq	-20(%rbp), %rcx
	movl	(%rax,%rcx,4), %esi
	movq	-32(%rbp), %rdx
	movabsq	$.L.str.49, %rdi
	callq	se_v
	addl	-12(%rbp), %eax
	movl	%eax, -12(%rbp)
# %bb.13:                               # %for.inc
                                        #   in Loop: Header=BB30_11 Depth=2
	movl	-20(%rbp), %eax
	addl	$1, %eax
	movl	%eax, -20(%rbp)
	jmp	.LBB30_11
.LBB30_14:                              # %for.end
                                        #   in Loop: Header=BB30_1 Depth=1
	jmp	.LBB30_16
.LBB30_15:                              # %if.else77
                                        #   in Loop: Header=BB30_1 Depth=1
	movq	-32(%rbp), %rdx
	movabsq	$.L.str.47, %rdi
	xorl	%esi, %esi
	callq	u_1
	addl	-12(%rbp), %eax
	movl	%eax, -12(%rbp)
.LBB30_16:                              # %if.end80
                                        #   in Loop: Header=BB30_1 Depth=1
	jmp	.LBB30_17
.LBB30_17:                              # %for.inc81
                                        #   in Loop: Header=BB30_1 Depth=1
	movl	-16(%rbp), %eax
	addl	$1, %eax
	movl	%eax, -16(%rbp)
	jmp	.LBB30_1
.LBB30_18:                              # %for.end83
	movq	img, %rax
	cmpl	$1, 24(%rax)
	jne	.LBB30_38
# %bb.19:                               # %if.then85
	movl	$0, -16(%rbp)
.LBB30_20:                              # %for.cond86
                                        # =>This Loop Header: Depth=1
                                        #     Child Loop BB30_30 Depth 2
	movl	-16(%rbp), %eax
	movq	img, %rcx
	cmpl	72004(%rcx), %eax
	jge	.LBB30_37
# %bb.21:                               # %for.body88
                                        #   in Loop: Header=BB30_20 Depth=1
	movq	wp_weight, %rax
	movq	8(%rax), %rax
	movslq	-16(%rbp), %rcx
	movq	(%rax,%rcx,8), %rax
	movl	(%rax), %eax
	movl	luma_log_weight_denom, %ecx
                                        # kill: def $cl killed $ecx
	movl	$1, %edx
	shll	%cl, %edx
	cmpl	%edx, %eax
	jne	.LBB30_23
# %bb.22:                               # %lor.lhs.false95
                                        #   in Loop: Header=BB30_20 Depth=1
	movq	wp_offset, %rax
	movq	8(%rax), %rax
	movslq	-16(%rbp), %rcx
	movq	(%rax,%rcx,8), %rax
	cmpl	$0, (%rax)
	je	.LBB30_24
.LBB30_23:                              # %if.then101
                                        #   in Loop: Header=BB30_20 Depth=1
	movq	-32(%rbp), %rdx
	movabsq	$.L.str.50, %rdi
	movl	$1, %esi
	callq	u_1
	addl	-12(%rbp), %eax
	movl	%eax, -12(%rbp)
	movq	wp_weight, %rax
	movq	8(%rax), %rax
	movslq	-16(%rbp), %rcx
	movq	(%rax,%rcx,8), %rax
	movl	(%rax), %esi
	movq	-32(%rbp), %rdx
	movabsq	$.L.str.51, %rdi
	callq	se_v
	addl	-12(%rbp), %eax
	movl	%eax, -12(%rbp)
	movq	wp_offset, %rax
	movq	8(%rax), %rax
	movslq	-16(%rbp), %rcx
	movq	(%rax,%rcx,8), %rax
	movl	(%rax), %esi
	movq	-32(%rbp), %rdx
	movabsq	$.L.str.52, %rdi
	callq	se_v
	addl	-12(%rbp), %eax
	movl	%eax, -12(%rbp)
	jmp	.LBB30_25
.LBB30_24:                              # %if.else116
                                        #   in Loop: Header=BB30_20 Depth=1
	movq	-32(%rbp), %rdx
	movabsq	$.L.str.50, %rdi
	xorl	%esi, %esi
	callq	u_1
	addl	-12(%rbp), %eax
	movl	%eax, -12(%rbp)
.LBB30_25:                              # %if.end119
                                        #   in Loop: Header=BB30_20 Depth=1
	movq	wp_weight, %rax
	movq	8(%rax), %rax
	movslq	-16(%rbp), %rcx
	movq	(%rax,%rcx,8), %rax
	movl	4(%rax), %eax
	movl	chroma_log_weight_denom, %ecx
                                        # kill: def $cl killed $ecx
	movl	$1, %edx
	shll	%cl, %edx
	cmpl	%edx, %eax
	jne	.LBB30_29
# %bb.26:                               # %lor.lhs.false126
                                        #   in Loop: Header=BB30_20 Depth=1
	movq	wp_offset, %rax
	movq	8(%rax), %rax
	movslq	-16(%rbp), %rcx
	movq	(%rax,%rcx,8), %rax
	cmpl	$0, 4(%rax)
	jne	.LBB30_29
# %bb.27:                               # %lor.lhs.false132
                                        #   in Loop: Header=BB30_20 Depth=1
	movq	wp_weight, %rax
	movq	8(%rax), %rax
	movslq	-16(%rbp), %rcx
	movq	(%rax,%rcx,8), %rax
	movl	8(%rax), %eax
	movl	chroma_log_weight_denom, %ecx
                                        # kill: def $cl killed $ecx
	movl	$1, %edx
	shll	%cl, %edx
	cmpl	%edx, %eax
	jne	.LBB30_29
# %bb.28:                               # %lor.lhs.false139
                                        #   in Loop: Header=BB30_20 Depth=1
	movq	wp_offset, %rax
	movq	8(%rax), %rax
	movslq	-16(%rbp), %rcx
	movq	(%rax,%rcx,8), %rax
	cmpl	$0, 8(%rax)
	je	.LBB30_34
.LBB30_29:                              # %if.then145
                                        #   in Loop: Header=BB30_20 Depth=1
	movq	-32(%rbp), %rdx
	movabsq	$.L.str.53, %rdi
	movl	$1, %esi
	callq	u_1
	addl	-12(%rbp), %eax
	movl	%eax, -12(%rbp)
	movl	$1, -20(%rbp)
.LBB30_30:                              # %for.cond148
                                        #   Parent Loop BB30_20 Depth=1
                                        # =>  This Inner Loop Header: Depth=2
	cmpl	$3, -20(%rbp)
	jge	.LBB30_33
# %bb.31:                               # %for.body150
                                        #   in Loop: Header=BB30_30 Depth=2
	movq	wp_weight, %rax
	movq	8(%rax), %rax
	movslq	-16(%rbp), %rcx
	movq	(%rax,%rcx,8), %rax
	movslq	-20(%rbp), %rcx
	movl	(%rax,%rcx,4), %esi
	movq	-32(%rbp), %rdx
	movabsq	$.L.str.54, %rdi
	callq	se_v
	addl	-12(%rbp), %eax
	movl	%eax, -12(%rbp)
	movq	wp_offset, %rax
	movq	8(%rax), %rax
	movslq	-16(%rbp), %rcx
	movq	(%rax,%rcx,8), %rax
	movslq	-20(%rbp), %rcx
	movl	(%rax,%rcx,4), %esi
	movq	-32(%rbp), %rdx
	movabsq	$.L.str.55, %rdi
	callq	se_v
	addl	-12(%rbp), %eax
	movl	%eax, -12(%rbp)
# %bb.32:                               # %for.inc165
                                        #   in Loop: Header=BB30_30 Depth=2
	movl	-20(%rbp), %eax
	addl	$1, %eax
	movl	%eax, -20(%rbp)
	jmp	.LBB30_30
.LBB30_33:                              # %for.end167
                                        #   in Loop: Header=BB30_20 Depth=1
	jmp	.LBB30_35
.LBB30_34:                              # %if.else168
                                        #   in Loop: Header=BB30_20 Depth=1
	movq	-32(%rbp), %rdx
	movabsq	$.L.str.53, %rdi
	xorl	%esi, %esi
	callq	u_1
	addl	-12(%rbp), %eax
	movl	%eax, -12(%rbp)
.LBB30_35:                              # %if.end171
                                        #   in Loop: Header=BB30_20 Depth=1
	jmp	.LBB30_36
.LBB30_36:                              # %for.inc172
                                        #   in Loop: Header=BB30_20 Depth=1
	movl	-16(%rbp), %eax
	addl	$1, %eax
	movl	%eax, -16(%rbp)
	jmp	.LBB30_20
.LBB30_37:                              # %for.end174
	jmp	.LBB30_38
.LBB30_38:                              # %if.end175
	movl	-12(%rbp), %ebx
	cmpl	$747014947, -40(%rbp)   # imm = 0x2C868B23
	jne	.LBB30_40
.LBB30_39:
	movl	%ebx, %eax
	addq	$40, %rsp
	popq	%rbx
	popq	%rbp
	.cfi_def_cfa %rsp, 8
	retq
.LBB30_40:                              # %func_exit
	.cfi_def_cfa %rbp, 16
	callq	detect_breach
	jmp	.LBB30_39
.Lfunc_end30:
	.size	pred_weight_table.25, .Lfunc_end30-pred_weight_table.25
	.cfi_endproc
                                        # -- End function
	.p2align	4, 0x90         # -- Begin function pred_weight_table.26
	.type	pred_weight_table.26,@function
pred_weight_table.26:                   # @pred_weight_table.26
	.cfi_startproc
# %bb.0:                                # %entry
	pushq	%rbp
	.cfi_def_cfa_offset 16
	.cfi_offset %rbp, -16
	movq	%rsp, %rbp
	.cfi_def_cfa_register %rbp
	pushq	%rbx
	subq	$40, %rsp
	.cfi_offset %rbx, -24
	movl	$1563438606, -40(%rbp)  # imm = 0x5D302E0E
	movq	input, %rax
	movslq	2364(%rax), %rax
	movq	assignSE2partition(,%rax,8), %rax
	movl	(%rax), %eax
	movl	%eax, -36(%rbp)
	movq	img, %rax
	movq	14160(%rax), %rax
	movq	24(%rax), %rax
	movslq	-36(%rbp), %rcx
	imulq	$120, %rcx, %rcx
	addq	%rcx, %rax
	movq	%rax, -32(%rbp)
	movl	$0, -12(%rbp)
	movl	luma_log_weight_denom, %esi
	movq	-32(%rbp), %rdx
	movabsq	$.L.str.42, %rdi
	callq	ue_v
	addl	-12(%rbp), %eax
	movl	%eax, -12(%rbp)
	movl	chroma_log_weight_denom, %esi
	movq	-32(%rbp), %rdx
	movabsq	$.L.str.43, %rdi
	callq	ue_v
	addl	-12(%rbp), %eax
	movl	%eax, -12(%rbp)
	movl	$0, -16(%rbp)
.LBB31_1:                               # %for.cond
                                        # =>This Loop Header: Depth=1
                                        #     Child Loop BB31_11 Depth 2
	movl	-16(%rbp), %eax
	movq	img, %rcx
	cmpl	72000(%rcx), %eax
	jge	.LBB31_18
# %bb.2:                                # %for.body
                                        #   in Loop: Header=BB31_1 Depth=1
	movq	wp_weight, %rax
	movq	(%rax), %rax
	movslq	-16(%rbp), %rcx
	movq	(%rax,%rcx,8), %rax
	movl	(%rax), %eax
	movl	luma_log_weight_denom, %ecx
                                        # kill: def $cl killed $ecx
	movl	$1, %edx
	shll	%cl, %edx
	cmpl	%edx, %eax
	jne	.LBB31_4
# %bb.3:                                # %lor.lhs.false
                                        #   in Loop: Header=BB31_1 Depth=1
	movq	wp_offset, %rax
	movq	(%rax), %rax
	movslq	-16(%rbp), %rcx
	movq	(%rax,%rcx,8), %rax
	cmpl	$0, (%rax)
	je	.LBB31_5
.LBB31_4:                               # %if.then
                                        #   in Loop: Header=BB31_1 Depth=1
	movq	-32(%rbp), %rdx
	movabsq	$.L.str.44, %rdi
	movl	$1, %esi
	callq	u_1
	addl	-12(%rbp), %eax
	movl	%eax, -12(%rbp)
	movq	wp_weight, %rax
	movq	(%rax), %rax
	movslq	-16(%rbp), %rcx
	movq	(%rax,%rcx,8), %rax
	movl	(%rax), %esi
	movq	-32(%rbp), %rdx
	movabsq	$.L.str.45, %rdi
	callq	se_v
	addl	-12(%rbp), %eax
	movl	%eax, -12(%rbp)
	movq	wp_offset, %rax
	movq	(%rax), %rax
	movslq	-16(%rbp), %rcx
	movq	(%rax,%rcx,8), %rax
	movl	(%rax), %esi
	movq	-32(%rbp), %rdx
	movabsq	$.L.str.46, %rdi
	callq	se_v
	addl	-12(%rbp), %eax
	movl	%eax, -12(%rbp)
	jmp	.LBB31_6
.LBB31_5:                               # %if.else
                                        #   in Loop: Header=BB31_1 Depth=1
	movq	-32(%rbp), %rdx
	movabsq	$.L.str.44, %rdi
	xorl	%esi, %esi
	callq	u_1
	addl	-12(%rbp), %eax
	movl	%eax, -12(%rbp)
.LBB31_6:                               # %if.end
                                        #   in Loop: Header=BB31_1 Depth=1
	movq	wp_weight, %rax
	movq	(%rax), %rax
	movslq	-16(%rbp), %rcx
	movq	(%rax,%rcx,8), %rax
	movl	4(%rax), %eax
	movl	chroma_log_weight_denom, %ecx
                                        # kill: def $cl killed $ecx
	movl	$1, %edx
	shll	%cl, %edx
	cmpl	%edx, %eax
	jne	.LBB31_10
# %bb.7:                                # %lor.lhs.false38
                                        #   in Loop: Header=BB31_1 Depth=1
	movq	wp_offset, %rax
	movq	(%rax), %rax
	movslq	-16(%rbp), %rcx
	movq	(%rax,%rcx,8), %rax
	cmpl	$0, 4(%rax)
	jne	.LBB31_10
# %bb.8:                                # %lor.lhs.false44
                                        #   in Loop: Header=BB31_1 Depth=1
	movq	wp_weight, %rax
	movq	(%rax), %rax
	movslq	-16(%rbp), %rcx
	movq	(%rax,%rcx,8), %rax
	movl	8(%rax), %eax
	movl	chroma_log_weight_denom, %ecx
                                        # kill: def $cl killed $ecx
	movl	$1, %edx
	shll	%cl, %edx
	cmpl	%edx, %eax
	jne	.LBB31_10
# %bb.9:                                # %lor.lhs.false51
                                        #   in Loop: Header=BB31_1 Depth=1
	movq	wp_offset, %rax
	movq	(%rax), %rax
	movslq	-16(%rbp), %rcx
	movq	(%rax,%rcx,8), %rax
	cmpl	$0, 8(%rax)
	je	.LBB31_15
.LBB31_10:                              # %if.then57
                                        #   in Loop: Header=BB31_1 Depth=1
	movq	-32(%rbp), %rdx
	movabsq	$.L.str.47, %rdi
	movl	$1, %esi
	callq	u_1
	addl	-12(%rbp), %eax
	movl	%eax, -12(%rbp)
	movl	$1, -20(%rbp)
.LBB31_11:                              # %for.cond60
                                        #   Parent Loop BB31_1 Depth=1
                                        # =>  This Inner Loop Header: Depth=2
	cmpl	$3, -20(%rbp)
	jge	.LBB31_14
# %bb.12:                               # %for.body62
                                        #   in Loop: Header=BB31_11 Depth=2
	movq	wp_weight, %rax
	movq	(%rax), %rax
	movslq	-16(%rbp), %rcx
	movq	(%rax,%rcx,8), %rax
	movslq	-20(%rbp), %rcx
	movl	(%rax,%rcx,4), %esi
	movq	-32(%rbp), %rdx
	movabsq	$.L.str.48, %rdi
	callq	se_v
	addl	-12(%rbp), %eax
	movl	%eax, -12(%rbp)
	movq	wp_offset, %rax
	movq	(%rax), %rax
	movslq	-16(%rbp), %rcx
	movq	(%rax,%rcx,8), %rax
	movslq	-20(%rbp), %rcx
	movl	(%rax,%rcx,4), %esi
	movq	-32(%rbp), %rdx
	movabsq	$.L.str.49, %rdi
	callq	se_v
	addl	-12(%rbp), %eax
	movl	%eax, -12(%rbp)
# %bb.13:                               # %for.inc
                                        #   in Loop: Header=BB31_11 Depth=2
	movl	-20(%rbp), %eax
	addl	$1, %eax
	movl	%eax, -20(%rbp)
	jmp	.LBB31_11
.LBB31_14:                              # %for.end
                                        #   in Loop: Header=BB31_1 Depth=1
	jmp	.LBB31_16
.LBB31_15:                              # %if.else77
                                        #   in Loop: Header=BB31_1 Depth=1
	movq	-32(%rbp), %rdx
	movabsq	$.L.str.47, %rdi
	xorl	%esi, %esi
	callq	u_1
	addl	-12(%rbp), %eax
	movl	%eax, -12(%rbp)
.LBB31_16:                              # %if.end80
                                        #   in Loop: Header=BB31_1 Depth=1
	jmp	.LBB31_17
.LBB31_17:                              # %for.inc81
                                        #   in Loop: Header=BB31_1 Depth=1
	movl	-16(%rbp), %eax
	addl	$1, %eax
	movl	%eax, -16(%rbp)
	jmp	.LBB31_1
.LBB31_18:                              # %for.end83
	movq	img, %rax
	cmpl	$1, 24(%rax)
	jne	.LBB31_38
# %bb.19:                               # %if.then85
	movl	$0, -16(%rbp)
.LBB31_20:                              # %for.cond86
                                        # =>This Loop Header: Depth=1
                                        #     Child Loop BB31_30 Depth 2
	movl	-16(%rbp), %eax
	movq	img, %rcx
	cmpl	72004(%rcx), %eax
	jge	.LBB31_37
# %bb.21:                               # %for.body88
                                        #   in Loop: Header=BB31_20 Depth=1
	movq	wp_weight, %rax
	movq	8(%rax), %rax
	movslq	-16(%rbp), %rcx
	movq	(%rax,%rcx,8), %rax
	movl	(%rax), %eax
	movl	luma_log_weight_denom, %ecx
                                        # kill: def $cl killed $ecx
	movl	$1, %edx
	shll	%cl, %edx
	cmpl	%edx, %eax
	jne	.LBB31_23
# %bb.22:                               # %lor.lhs.false95
                                        #   in Loop: Header=BB31_20 Depth=1
	movq	wp_offset, %rax
	movq	8(%rax), %rax
	movslq	-16(%rbp), %rcx
	movq	(%rax,%rcx,8), %rax
	cmpl	$0, (%rax)
	je	.LBB31_24
.LBB31_23:                              # %if.then101
                                        #   in Loop: Header=BB31_20 Depth=1
	movq	-32(%rbp), %rdx
	movabsq	$.L.str.50, %rdi
	movl	$1, %esi
	callq	u_1
	addl	-12(%rbp), %eax
	movl	%eax, -12(%rbp)
	movq	wp_weight, %rax
	movq	8(%rax), %rax
	movslq	-16(%rbp), %rcx
	movq	(%rax,%rcx,8), %rax
	movl	(%rax), %esi
	movq	-32(%rbp), %rdx
	movabsq	$.L.str.51, %rdi
	callq	se_v
	addl	-12(%rbp), %eax
	movl	%eax, -12(%rbp)
	movq	wp_offset, %rax
	movq	8(%rax), %rax
	movslq	-16(%rbp), %rcx
	movq	(%rax,%rcx,8), %rax
	movl	(%rax), %esi
	movq	-32(%rbp), %rdx
	movabsq	$.L.str.52, %rdi
	callq	se_v
	addl	-12(%rbp), %eax
	movl	%eax, -12(%rbp)
	jmp	.LBB31_25
.LBB31_24:                              # %if.else116
                                        #   in Loop: Header=BB31_20 Depth=1
	movq	-32(%rbp), %rdx
	movabsq	$.L.str.50, %rdi
	xorl	%esi, %esi
	callq	u_1
	addl	-12(%rbp), %eax
	movl	%eax, -12(%rbp)
.LBB31_25:                              # %if.end119
                                        #   in Loop: Header=BB31_20 Depth=1
	movq	wp_weight, %rax
	movq	8(%rax), %rax
	movslq	-16(%rbp), %rcx
	movq	(%rax,%rcx,8), %rax
	movl	4(%rax), %eax
	movl	chroma_log_weight_denom, %ecx
                                        # kill: def $cl killed $ecx
	movl	$1, %edx
	shll	%cl, %edx
	cmpl	%edx, %eax
	jne	.LBB31_29
# %bb.26:                               # %lor.lhs.false126
                                        #   in Loop: Header=BB31_20 Depth=1
	movq	wp_offset, %rax
	movq	8(%rax), %rax
	movslq	-16(%rbp), %rcx
	movq	(%rax,%rcx,8), %rax
	cmpl	$0, 4(%rax)
	jne	.LBB31_29
# %bb.27:                               # %lor.lhs.false132
                                        #   in Loop: Header=BB31_20 Depth=1
	movq	wp_weight, %rax
	movq	8(%rax), %rax
	movslq	-16(%rbp), %rcx
	movq	(%rax,%rcx,8), %rax
	movl	8(%rax), %eax
	movl	chroma_log_weight_denom, %ecx
                                        # kill: def $cl killed $ecx
	movl	$1, %edx
	shll	%cl, %edx
	cmpl	%edx, %eax
	jne	.LBB31_29
# %bb.28:                               # %lor.lhs.false139
                                        #   in Loop: Header=BB31_20 Depth=1
	movq	wp_offset, %rax
	movq	8(%rax), %rax
	movslq	-16(%rbp), %rcx
	movq	(%rax,%rcx,8), %rax
	cmpl	$0, 8(%rax)
	je	.LBB31_34
.LBB31_29:                              # %if.then145
                                        #   in Loop: Header=BB31_20 Depth=1
	movq	-32(%rbp), %rdx
	movabsq	$.L.str.53, %rdi
	movl	$1, %esi
	callq	u_1
	addl	-12(%rbp), %eax
	movl	%eax, -12(%rbp)
	movl	$1, -20(%rbp)
.LBB31_30:                              # %for.cond148
                                        #   Parent Loop BB31_20 Depth=1
                                        # =>  This Inner Loop Header: Depth=2
	cmpl	$3, -20(%rbp)
	jge	.LBB31_33
# %bb.31:                               # %for.body150
                                        #   in Loop: Header=BB31_30 Depth=2
	movq	wp_weight, %rax
	movq	8(%rax), %rax
	movslq	-16(%rbp), %rcx
	movq	(%rax,%rcx,8), %rax
	movslq	-20(%rbp), %rcx
	movl	(%rax,%rcx,4), %esi
	movq	-32(%rbp), %rdx
	movabsq	$.L.str.54, %rdi
	callq	se_v
	addl	-12(%rbp), %eax
	movl	%eax, -12(%rbp)
	movq	wp_offset, %rax
	movq	8(%rax), %rax
	movslq	-16(%rbp), %rcx
	movq	(%rax,%rcx,8), %rax
	movslq	-20(%rbp), %rcx
	movl	(%rax,%rcx,4), %esi
	movq	-32(%rbp), %rdx
	movabsq	$.L.str.55, %rdi
	callq	se_v
	addl	-12(%rbp), %eax
	movl	%eax, -12(%rbp)
# %bb.32:                               # %for.inc165
                                        #   in Loop: Header=BB31_30 Depth=2
	movl	-20(%rbp), %eax
	addl	$1, %eax
	movl	%eax, -20(%rbp)
	jmp	.LBB31_30
.LBB31_33:                              # %for.end167
                                        #   in Loop: Header=BB31_20 Depth=1
	jmp	.LBB31_35
.LBB31_34:                              # %if.else168
                                        #   in Loop: Header=BB31_20 Depth=1
	movq	-32(%rbp), %rdx
	movabsq	$.L.str.53, %rdi
	xorl	%esi, %esi
	callq	u_1
	addl	-12(%rbp), %eax
	movl	%eax, -12(%rbp)
.LBB31_35:                              # %if.end171
                                        #   in Loop: Header=BB31_20 Depth=1
	jmp	.LBB31_36
.LBB31_36:                              # %for.inc172
                                        #   in Loop: Header=BB31_20 Depth=1
	movl	-16(%rbp), %eax
	addl	$1, %eax
	movl	%eax, -16(%rbp)
	jmp	.LBB31_20
.LBB31_37:                              # %for.end174
	jmp	.LBB31_38
.LBB31_38:                              # %if.end175
	movl	-12(%rbp), %ebx
	cmpl	$1563438606, -40(%rbp)  # imm = 0x5D302E0E
	jne	.LBB31_40
.LBB31_39:
	movl	%ebx, %eax
	addq	$40, %rsp
	popq	%rbx
	popq	%rbp
	.cfi_def_cfa %rsp, 8
	retq
.LBB31_40:                              # %func_exit
	.cfi_def_cfa %rbp, 16
	callq	detect_breach
	jmp	.LBB31_39
.Lfunc_end31:
	.size	pred_weight_table.26, .Lfunc_end31-pred_weight_table.26
	.cfi_endproc
                                        # -- End function
	.globl	Partition_BC_Header.27  # -- Begin function Partition_BC_Header.27
	.p2align	4, 0x90
	.type	Partition_BC_Header.27,@function
Partition_BC_Header.27:                 # @Partition_BC_Header.27
	.cfi_startproc
# %bb.0:                                # %entry
	pushq	%rbp
	.cfi_def_cfa_offset 16
	.cfi_offset %rbp, -16
	movq	%rsp, %rbp
	.cfi_def_cfa_register %rbp
	pushq	%rbx
	subq	$88, %rsp
	.cfi_offset %rbx, -24
	movl	$1626426517, -32(%rbp)  # imm = 0x60F14C95
	movl	%edi, -28(%rbp)
	movq	img, %rax
	movq	14160(%rax), %rax
	movq	24(%rax), %rax
	movslq	-28(%rbp), %rcx
	imulq	$120, %rcx, %rcx
	addq	%rcx, %rax
	movq	%rax, -40(%rbp)
	leaq	-88(%rbp), %rax
	movq	%rax, -24(%rbp)
	movl	$0, -12(%rbp)
	movq	-24(%rbp), %rax
	movl	$0, (%rax)
	movq	-24(%rbp), %rax
	movabsq	$ue_linfo, %rcx
	movq	%rcx, 32(%rax)
	movq	-24(%rbp), %rax
	movl	$0, 8(%rax)
	movq	img, %rax
	movl	20(%rax), %eax
	movq	-24(%rbp), %rcx
	movl	%eax, 4(%rcx)
	movq	-24(%rbp), %rdi
	movq	-40(%rbp), %rsi
	callq	writeSyntaxElement_UVLC
	addl	-12(%rbp), %eax
	movl	%eax, -12(%rbp)
	movq	active_pps, %rax
	cmpl	$0, 228(%rax)
	je	.LBB32_2
# %bb.1:                                # %if.then
	movq	img, %rax
	movq	14160(%rax), %rax
	movl	(%rax), %eax
	movq	-24(%rbp), %rcx
	movl	%eax, 4(%rcx)
	movq	-24(%rbp), %rdi
	movq	-40(%rbp), %rsi
	callq	writeSyntaxElement_UVLC
	addl	-12(%rbp), %eax
	movl	%eax, -12(%rbp)
.LBB32_2:                               # %if.end
	movl	-12(%rbp), %ebx
	cmpl	$1626426517, -32(%rbp)  # imm = 0x60F14C95
	jne	.LBB32_4
.LBB32_3:
	movl	%ebx, %eax
	addq	$88, %rsp
	popq	%rbx
	popq	%rbp
	.cfi_def_cfa %rsp, 8
	retq
.LBB32_4:                               # %func_exit
	.cfi_def_cfa %rbp, 16
	callq	detect_breach
	jmp	.LBB32_3
.Lfunc_end32:
	.size	Partition_BC_Header.27, .Lfunc_end32-Partition_BC_Header.27
	.cfi_endproc
                                        # -- End function
	.section	.rodata.cst8,"aM",@progbits,8
	.p2align	3               # -- Begin function SliceHeader.28
.LCPI33_0:
	.quad	4611686018427387904     # double 2
	.section	.rodata.cst4,"aM",@progbits,4
	.p2align	2
.LCPI33_1:
	.long	1065353216              # float 1
	.text
	.globl	SliceHeader.28
	.p2align	4, 0x90
	.type	SliceHeader.28,@function
SliceHeader.28:                         # @SliceHeader.28
	.cfi_startproc
# %bb.0:                                # %entry
	pushq	%rbp
	.cfi_def_cfa_offset 16
	.cfi_offset %rbp, -16
	movq	%rsp, %rbp
	.cfi_def_cfa_register %rbp
	pushq	%rbx
	subq	$72, %rsp
	.cfi_offset %rbx, -24
	movl	$1261017383, -44(%rbp)  # imm = 0x4B299927
	movq	input, %rax
	movslq	2364(%rax), %rax
	movq	assignSE2partition(,%rax,8), %rax
	movl	(%rax), %eax
	movl	%eax, -52(%rbp)
	movq	img, %rax
	movq	14160(%rax), %rax
	movq	24(%rax), %rax
	movslq	-52(%rbp), %rcx
	imulq	$120, %rcx, %rcx
	addq	%rcx, %rax
	movq	%rax, -24(%rbp)
	movq	img, %rax
	movq	14160(%rax), %rax
	movq	%rax, -72(%rbp)
	movl	$0, -12(%rbp)
	movl	$0, -28(%rbp)
	movl	$0, -36(%rbp)
	movq	img, %rax
	cmpl	$0, 72400(%rax)
	je	.LBB33_2
# %bb.1:                                # %if.then
	movq	img, %rax
	movl	12(%rax), %esi
	sarl	$1, %esi
	movq	-24(%rbp), %rdx
	movabsq	$.L.str, %rdi
	callq	ue_v
	movl	%eax, -12(%rbp)
	jmp	.LBB33_3
.LBB33_2:                               # %if.else
	movq	img, %rax
	movl	12(%rax), %esi
	movq	-24(%rbp), %rdx
	movabsq	$.L.str, %rdi
	callq	ue_v
	movl	%eax, -12(%rbp)
.LBB33_3:                               # %if.end
	callq	get_picture_type
	movq	-24(%rbp), %rdx
	movabsq	$.L.str.1, %rdi
	movl	%eax, %esi
	callq	ue_v
	addl	-12(%rbp), %eax
	movl	%eax, -12(%rbp)
	movq	active_pps, %rax
	movl	4(%rax), %esi
	movq	-24(%rbp), %rdx
	movabsq	$.L.str.2, %rdi
	callq	ue_v
	addl	-12(%rbp), %eax
	movl	%eax, -12(%rbp)
	movl	log2_max_frame_num_minus4, %edi
	addl	$4, %edi
	movq	img, %rax
	movl	72464(%rax), %edx
	movq	-24(%rbp), %rcx
	movabsq	$.L.str.3, %rsi
	callq	u_v
	addl	-12(%rbp), %eax
	movl	%eax, -12(%rbp)
	movq	active_sps, %rax
	cmpl	$0, 1148(%rax)
	jne	.LBB33_9
# %bb.4:                                # %if.then15
	movq	img, %rax
	cmpl	$1, 28(%rax)
	movb	$1, %al
	je	.LBB33_6
# %bb.5:                                # %lor.rhs
	movq	img, %rax
	cmpl	$2, 28(%rax)
	sete	%al
.LBB33_6:                               # %lor.end
	xorl	%ecx, %ecx
	testb	$1, %al
	movl	$1, %eax
	cmovnel	%eax, %ecx
	movl	%ecx, -28(%rbp)
	movl	-28(%rbp), %esi
	movq	-24(%rbp), %rdx
	movabsq	$.L.str.4, %rdi
	callq	u_1
	addl	-12(%rbp), %eax
	movl	%eax, -12(%rbp)
	cmpl	$0, -28(%rbp)
	je	.LBB33_8
# %bb.7:                                # %if.then21
	xorl	%eax, %eax
	movq	img, %rcx
	movl	28(%rcx), %ecx
	cmpl	$2, %ecx
	movl	$1, %ecx
	cmovel	%ecx, %eax
	movl	%eax, -36(%rbp)
	movl	-36(%rbp), %esi
	movq	-24(%rbp), %rdx
	movabsq	$.L.str.5, %rdi
	callq	u_1
	addl	-12(%rbp), %eax
	movl	%eax, -12(%rbp)
.LBB33_8:                               # %if.end27
	jmp	.LBB33_9
.LBB33_9:                               # %if.end28
	movq	img, %rax
	movq	14152(%rax), %rax
	cmpl	$0, 4(%rax)
	je	.LBB33_11
# %bb.10:                               # %if.then30
	movq	img, %rax
	movl	(%rax), %eax
	cltd
	movl	$2, %ecx
	idivl	%ecx
	movq	-24(%rbp), %rax
	movabsq	$.L.str.6, %rdi
	movl	%edx, %esi
	movq	%rax, %rdx
	callq	ue_v
	addl	-12(%rbp), %eax
	movl	%eax, -12(%rbp)
.LBB33_11:                              # %if.end33
	movq	img, %rax
	cmpl	$0, 72404(%rax)
	jne	.LBB33_25
# %bb.12:                               # %if.then35
	movq	active_sps, %rax
	cmpl	$0, 1148(%rax)
	je	.LBB33_14
# %bb.13:                               # %if.then38
	movq	img, %rax
	movl	72448(%rax), %eax
	movl	log2_max_pic_order_cnt_lsb_minus4, %ecx
	addl	$4, %ecx
                                        # kill: def $cl killed $ecx
	movl	$4294967295, %edx       # imm = 0xFFFFFFFF
	shll	%cl, %edx
	xorl	$-1, %edx
	andl	%edx, %eax
	movq	img, %rcx
	movl	%eax, 72428(%rcx)
	jmp	.LBB33_21
.LBB33_14:                              # %if.else40
	cmpl	$0, -28(%rbp)
	je	.LBB33_16
# %bb.15:                               # %lor.lhs.false
	movq	img, %rax
	cmpl	$1, 28(%rax)
	jne	.LBB33_17
.LBB33_16:                              # %if.then44
	movq	img, %rax
	movl	72448(%rax), %eax
	movl	log2_max_pic_order_cnt_lsb_minus4, %ecx
	addl	$4, %ecx
                                        # kill: def $cl killed $ecx
	movl	$4294967295, %edx       # imm = 0xFFFFFFFF
	shll	%cl, %edx
	xorl	$-1, %edx
	andl	%edx, %eax
	movq	img, %rcx
	movl	%eax, 72428(%rcx)
	jmp	.LBB33_20
.LBB33_17:                              # %if.else51
	movq	img, %rax
	cmpl	$2, 28(%rax)
	jne	.LBB33_19
# %bb.18:                               # %if.then54
	movq	img, %rax
	movl	72452(%rax), %eax
	movl	log2_max_pic_order_cnt_lsb_minus4, %ecx
	addl	$4, %ecx
                                        # kill: def $cl killed $ecx
	movl	$4294967295, %edx       # imm = 0xFFFFFFFF
	shll	%cl, %edx
	xorl	$-1, %edx
	andl	%edx, %eax
	movq	img, %rcx
	movl	%eax, 72428(%rcx)
.LBB33_19:                              # %if.end60
	jmp	.LBB33_20
.LBB33_20:                              # %if.end61
	jmp	.LBB33_21
.LBB33_21:                              # %if.end62
	movl	log2_max_pic_order_cnt_lsb_minus4, %edi
	addl	$4, %edi
	movq	img, %rax
	movl	72428(%rax), %edx
	movq	-24(%rbp), %rcx
	movabsq	$.L.str.7, %rsi
	callq	u_v
	addl	-12(%rbp), %eax
	movl	%eax, -12(%rbp)
	movq	img, %rax
	cmpl	$0, 72492(%rax)
	je	.LBB33_24
# %bb.22:                               # %land.lhs.true
	cmpl	$0, -28(%rbp)
	jne	.LBB33_24
# %bb.23:                               # %if.then69
	movq	img, %rax
	movl	72432(%rax), %esi
	movq	-24(%rbp), %rdx
	movabsq	$.L.str.8, %rdi
	callq	se_v
	addl	-12(%rbp), %eax
	movl	%eax, -12(%rbp)
.LBB33_24:                              # %if.end72
	jmp	.LBB33_25
.LBB33_25:                              # %if.end73
	movq	img, %rax
	cmpl	$1, 72404(%rax)
	jne	.LBB33_31
# %bb.26:                               # %land.lhs.true76
	movq	img, %rax
	cmpl	$0, 72408(%rax)
	jne	.LBB33_31
# %bb.27:                               # %if.then78
	movq	img, %rax
	movl	72436(%rax), %esi
	movq	-24(%rbp), %rdx
	movabsq	$.L.str.9, %rdi
	callq	se_v
	addl	-12(%rbp), %eax
	movl	%eax, -12(%rbp)
	movq	img, %rax
	cmpl	$0, 72492(%rax)
	je	.LBB33_30
# %bb.28:                               # %land.lhs.true84
	cmpl	$0, -28(%rbp)
	jne	.LBB33_30
# %bb.29:                               # %if.then86
	movq	img, %rax
	movl	72440(%rax), %esi
	movq	-24(%rbp), %rdx
	movabsq	$.L.str.10, %rdi
	callq	se_v
	addl	-12(%rbp), %eax
	movl	%eax, -12(%rbp)
.LBB33_30:                              # %if.end91
	jmp	.LBB33_31
.LBB33_31:                              # %if.end92
	movq	input, %rax
	cmpl	$0, 3204(%rax)
	je	.LBB33_33
# %bb.32:                               # %if.then94
	movq	img, %rax
	movl	72396(%rax), %esi
	movq	-24(%rbp), %rdx
	movabsq	$.L.str.11, %rdi
	callq	ue_v
	addl	-12(%rbp), %eax
	movl	%eax, -12(%rbp)
.LBB33_33:                              # %if.end97
	movq	img, %rax
	cmpl	$1, 24(%rax)
	jne	.LBB33_35
# %bb.34:                               # %if.then99
	movq	img, %rax
	movl	71996(%rax), %esi
	movq	-24(%rbp), %rdx
	movabsq	$.L.str.12, %rdi
	callq	u_1
	addl	-12(%rbp), %eax
	movl	%eax, -12(%rbp)
.LBB33_35:                              # %if.end102
	movq	img, %rax
	cmpl	$0, 24(%rax)
	je	.LBB33_38
# %bb.36:                               # %lor.lhs.false105
	movq	img, %rax
	cmpl	$1, 24(%rax)
	je	.LBB33_38
# %bb.37:                               # %lor.lhs.false108
	movq	img, %rax
	cmpl	$3, 24(%rax)
	jne	.LBB33_49
.LBB33_38:                              # %if.then111
	movq	img, %rax
	cmpl	$0, 24(%rax)
	je	.LBB33_40
# %bb.39:                               # %lor.lhs.false114
	movq	img, %rax
	cmpl	$3, 24(%rax)
	jne	.LBB33_41
.LBB33_40:                              # %if.then117
	xorl	%eax, %eax
	movq	img, %rcx
	movl	72000(%rcx), %ecx
	movq	active_pps, %rdx
	movl	184(%rdx), %edx
	addl	$1, %edx
	cmpl	%edx, %ecx
	movl	$1, %ecx
	cmovnel	%ecx, %eax
	movl	%eax, -32(%rbp)
	jmp	.LBB33_44
.LBB33_41:                              # %if.else121
	movq	img, %rax
	movl	72000(%rax), %eax
	movq	active_pps, %rcx
	movl	184(%rcx), %ecx
	addl	$1, %ecx
	cmpl	%ecx, %eax
	movb	$1, %al
	jne	.LBB33_43
# %bb.42:                               # %lor.rhs126
	movq	img, %rax
	movl	72004(%rax), %eax
	movq	active_pps, %rcx
	movl	188(%rcx), %ecx
	addl	$1, %ecx
	cmpl	%ecx, %eax
	setne	%al
.LBB33_43:                              # %lor.end129
	xorl	%ecx, %ecx
	testb	$1, %al
	movl	$1, %eax
	cmovnel	%eax, %ecx
	movl	%ecx, -32(%rbp)
.LBB33_44:                              # %if.end131
	movl	-32(%rbp), %esi
	movq	-24(%rbp), %rdx
	movabsq	$.L.str.13, %rdi
	callq	u_1
	addl	-12(%rbp), %eax
	movl	%eax, -12(%rbp)
	cmpl	$0, -32(%rbp)
	je	.LBB33_48
# %bb.45:                               # %if.then135
	movq	img, %rax
	movl	72000(%rax), %esi
	subl	$1, %esi
	movq	-24(%rbp), %rdx
	movabsq	$.L.str.14, %rdi
	callq	ue_v
	addl	-12(%rbp), %eax
	movl	%eax, -12(%rbp)
	movq	img, %rax
	cmpl	$1, 24(%rax)
	jne	.LBB33_47
# %bb.46:                               # %if.then141
	movq	img, %rax
	movl	72004(%rax), %esi
	subl	$1, %esi
	movq	-24(%rbp), %rdx
	movabsq	$.L.str.15, %rdi
	callq	ue_v
	addl	-12(%rbp), %eax
	movl	%eax, -12(%rbp)
.LBB33_47:                              # %if.end146
	jmp	.LBB33_48
.LBB33_48:                              # %if.end147
	jmp	.LBB33_49
.LBB33_49:                              # %if.end148
	callq	ref_pic_list_reordering
	addl	-12(%rbp), %eax
	movl	%eax, -12(%rbp)
	movq	img, %rax
	cmpl	$0, 24(%rax)
	je	.LBB33_51
# %bb.50:                               # %lor.lhs.false153
	movq	img, %rax
	cmpl	$3, 24(%rax)
	jne	.LBB33_52
.LBB33_51:                              # %land.lhs.true156
	movq	active_pps, %rax
	cmpl	$0, 192(%rax)
	jne	.LBB33_54
.LBB33_52:                              # %lor.lhs.false158
	movq	img, %rax
	cmpl	$1, 24(%rax)
	jne	.LBB33_55
# %bb.53:                               # %land.lhs.true161
	movq	active_pps, %rax
	cmpl	$1, 196(%rax)
	jne	.LBB33_55
.LBB33_54:                              # %if.then163
	callq	pred_weight_table
	addl	-12(%rbp), %eax
	movl	%eax, -12(%rbp)
.LBB33_55:                              # %if.end166
	movq	img, %rax
	cmpl	$0, 72496(%rax)
	je	.LBB33_57
# %bb.56:                               # %if.then168
	callq	dec_ref_pic_marking
	addl	-12(%rbp), %eax
	movl	%eax, -12(%rbp)
.LBB33_57:                              # %if.end171
	movq	input, %rax
	cmpl	$1, 2356(%rax)
	jne	.LBB33_60
# %bb.58:                               # %land.lhs.true173
	movq	img, %rax
	cmpl	$2, 24(%rax)
	je	.LBB33_60
# %bb.59:                               # %if.then176
	movq	img, %rax
	movl	72520(%rax), %esi
	movq	-24(%rbp), %rdx
	movabsq	$.L.str.16, %rdi
	callq	ue_v
	addl	-12(%rbp), %eax
	movl	%eax, -12(%rbp)
.LBB33_60:                              # %if.end179
	movq	-72(%rbp), %rax
	movl	4(%rax), %esi
	subl	$26, %esi
	movq	active_pps, %rax
	subl	200(%rax), %esi
	movq	-24(%rbp), %rdx
	movabsq	$.L.str.17, %rdi
	callq	se_v
	addl	-12(%rbp), %eax
	movl	%eax, -12(%rbp)
	movq	img, %rax
	cmpl	$3, 24(%rax)
	jne	.LBB33_64
# %bb.61:                               # %if.then186
	movq	img, %rax
	cmpl	$3, 24(%rax)
	jne	.LBB33_63
# %bb.62:                               # %if.then189
	movq	-24(%rbp), %rdx
	movabsq	$.L.str.18, %rdi
	xorl	%esi, %esi
	callq	u_1
	addl	-12(%rbp), %eax
	movl	%eax, -12(%rbp)
.LBB33_63:                              # %if.end192
	movq	img, %rax
	movl	44(%rax), %esi
	subl	$26, %esi
	movq	-24(%rbp), %rdx
	movabsq	$.L.str.19, %rdi
	callq	se_v
	addl	-12(%rbp), %eax
	movl	%eax, -12(%rbp)
.LBB33_64:                              # %if.end196
	movq	active_pps, %rax
	cmpl	$0, 220(%rax)
	je	.LBB33_68
# %bb.65:                               # %if.then198
	movq	img, %rax
	movl	71984(%rax), %esi
	movq	-24(%rbp), %rdx
	movabsq	$.L.str.20, %rdi
	callq	ue_v
	addl	-12(%rbp), %eax
	movl	%eax, -12(%rbp)
	movq	img, %rax
	cmpl	$1, 71984(%rax)
	je	.LBB33_67
# %bb.66:                               # %if.then203
	movq	img, %rax
	movl	71988(%rax), %eax
	cltd
	movl	$2, %ecx
	idivl	%ecx
	movq	-24(%rbp), %rdx
	movabsq	$.L.str.21, %rdi
	movl	%eax, %esi
	callq	se_v
	addl	-12(%rbp), %eax
	movl	%eax, -12(%rbp)
	movq	img, %rax
	movl	71992(%rax), %eax
	cltd
	movl	$2, %ecx
	idivl	%ecx
	movq	-24(%rbp), %rdx
	movabsq	$.L.str.22, %rdi
	movl	%eax, %esi
	callq	se_v
	addl	-12(%rbp), %eax
	movl	%eax, -12(%rbp)
.LBB33_67:                              # %if.end209
	jmp	.LBB33_68
.LBB33_68:                              # %if.end210
	movq	active_pps, %rax
	cmpl	$0, 60(%rax)
	jbe	.LBB33_72
# %bb.69:                               # %land.lhs.true212
	movq	active_pps, %rax
	cmpl	$3, 64(%rax)
	jb	.LBB33_72
# %bb.70:                               # %land.lhs.true214
	movq	active_pps, %rax
	cmpl	$5, 64(%rax)
	ja	.LBB33_72
# %bb.71:                               # %if.then217
	vmovss	.LCPI33_1(%rip), %xmm0  # xmm0 = mem[0],zero,zero,zero
	movq	img(%rip), %rax
	movl	72468(%rax), %ecx
	movl	72472(%rax), %eax
	imull	%ecx, %eax
	vcvtsi2ss	%rax, %xmm0, %xmm1
	movq	active_pps(%rip), %rax
	movl	168(%rax), %eax
	addl	$1, %eax
	vcvtsi2ss	%rax, %xmm0, %xmm2
	vdivss	%xmm2, %xmm1, %xmm1
	vaddss	%xmm0, %xmm1, %xmm0
	vmovss	%xmm0, -48(%rbp)
	vmovss	-48(%rbp), %xmm0        # xmm0 = mem[0],zero,zero,zero
	vcvtss2sd	%xmm0, %xmm0, %xmm0
	callq	log
	vmovsd	%xmm0, -64(%rbp)        # 8-byte Spill
	vmovsd	.LCPI33_0(%rip), %xmm0  # xmm0 = mem[0],zero
	callq	log
	vmovsd	-64(%rbp), %xmm1        # 8-byte Reload
                                        # xmm1 = mem[0],zero
	vdivsd	%xmm0, %xmm1, %xmm0
	vroundsd	$10, %xmm0, %xmm0, %xmm0
	vcvttsd2si	%xmm0, %eax
	movl	%eax, -40(%rbp)
	movl	-40(%rbp), %edi
	movq	img, %rax
	movl	72652(%rax), %edx
	movq	-24(%rbp), %rcx
	movabsq	$.L.str.23, %rsi
	callq	u_v
	addl	-12(%rbp), %eax
	movl	%eax, -12(%rbp)
.LBB33_72:                              # %if.end229
	movq	input, %rax
	cmpl	$0, 2364(%rax)
	je	.LBB33_75
# %bb.73:                               # %land.lhs.true232
	movq	img, %rax
	movq	14152(%rax), %rax
	cmpl	$0, 4(%rax)
	jne	.LBB33_75
# %bb.74:                               # %if.then236
	movq	img, %rax
	movl	20(%rax), %esi
	movq	-24(%rbp), %rdx
	movabsq	$.L.str.24, %rdi
	callq	ue_v
	addl	-12(%rbp), %eax
	movl	%eax, -12(%rbp)
.LBB33_75:                              # %if.end239
	movl	-12(%rbp), %ebx
	cmpl	$1261017383, -44(%rbp)  # imm = 0x4B299927
	jne	.LBB33_77
.LBB33_76:
	movl	%ebx, %eax
	addq	$72, %rsp
	popq	%rbx
	popq	%rbp
	.cfi_def_cfa %rsp, 8
	retq
.LBB33_77:                              # %func_exit
	.cfi_def_cfa %rbp, 16
	callq	detect_breach
	jmp	.LBB33_76
.Lfunc_end33:
	.size	SliceHeader.28, .Lfunc_end33-SliceHeader.28
	.cfi_endproc
                                        # -- End function
	.p2align	4, 0x90         # -- Begin function ref_pic_list_reordering.29
	.type	ref_pic_list_reordering.29,@function
ref_pic_list_reordering.29:             # @ref_pic_list_reordering.29
	.cfi_startproc
# %bb.0:                                # %entry
	pushq	%rbp
	.cfi_def_cfa_offset 16
	.cfi_offset %rbp, -16
	movq	%rsp, %rbp
	.cfi_def_cfa_register %rbp
	pushq	%rbx
	subq	$40, %rsp
	.cfi_offset %rbx, -24
	movl	$1352937242, -40(%rbp)  # imm = 0x50A42F1A
	movq	input, %rax
	movslq	2364(%rax), %rax
	movq	assignSE2partition(,%rax,8), %rax
	movl	(%rax), %eax
	movl	%eax, -36(%rbp)
	movq	img, %rax
	movq	14160(%rax), %rax
	movq	24(%rax), %rax
	movslq	-36(%rbp), %rcx
	imulq	$120, %rcx, %rcx
	addq	%rcx, %rax
	movq	%rax, -32(%rbp)
	movq	img, %rax
	movq	14160(%rax), %rax
	movq	%rax, -24(%rbp)
	movl	$0, -16(%rbp)
	movq	img, %rax
	cmpl	$2, 24(%rax)
	je	.LBB34_13
# %bb.1:                                # %if.then
	movq	-24(%rbp), %rax
	movl	56(%rax), %esi
	movq	-32(%rbp), %rdx
	movabsq	$.L.str.26, %rdi
	callq	u_1
	addl	-16(%rbp), %eax
	movl	%eax, -16(%rbp)
	movq	-24(%rbp), %rax
	cmpl	$0, 56(%rax)
	je	.LBB34_12
# %bb.2:                                # %if.then6
	movl	$-1, -12(%rbp)
.LBB34_3:                               # %do.body
                                        # =>This Inner Loop Header: Depth=1
	movl	-12(%rbp), %eax
	addl	$1, %eax
	movl	%eax, -12(%rbp)
	movq	-24(%rbp), %rax
	movq	64(%rax), %rax
	movslq	-12(%rbp), %rcx
	movl	(%rax,%rcx,4), %esi
	movq	-32(%rbp), %rdx
	movabsq	$.L.str.27, %rdi
	callq	ue_v
	addl	-16(%rbp), %eax
	movl	%eax, -16(%rbp)
	movq	-24(%rbp), %rax
	movq	64(%rax), %rax
	movslq	-12(%rbp), %rcx
	cmpl	$0, (%rax,%rcx,4)
	je	.LBB34_5
# %bb.4:                                # %lor.lhs.false
                                        #   in Loop: Header=BB34_3 Depth=1
	movq	-24(%rbp), %rax
	movq	64(%rax), %rax
	movslq	-12(%rbp), %rcx
	cmpl	$1, (%rax,%rcx,4)
	jne	.LBB34_6
.LBB34_5:                               # %if.then19
                                        #   in Loop: Header=BB34_3 Depth=1
	movq	-24(%rbp), %rax
	movq	72(%rax), %rax
	movslq	-12(%rbp), %rcx
	movl	(%rax,%rcx,4), %esi
	movq	-32(%rbp), %rdx
	movabsq	$.L.str.28, %rdi
	callq	ue_v
	addl	-16(%rbp), %eax
	movl	%eax, -16(%rbp)
	jmp	.LBB34_9
.LBB34_6:                               # %if.else
                                        #   in Loop: Header=BB34_3 Depth=1
	movq	-24(%rbp), %rax
	movq	64(%rax), %rax
	movslq	-12(%rbp), %rcx
	cmpl	$2, (%rax,%rcx,4)
	jne	.LBB34_8
# %bb.7:                                # %if.then28
                                        #   in Loop: Header=BB34_3 Depth=1
	movq	-24(%rbp), %rax
	movq	80(%rax), %rax
	movslq	-12(%rbp), %rcx
	movl	(%rax,%rcx,4), %esi
	movq	-32(%rbp), %rdx
	movabsq	$.L.str.29, %rdi
	callq	ue_v
	addl	-16(%rbp), %eax
	movl	%eax, -16(%rbp)
.LBB34_8:                               # %if.end
                                        #   in Loop: Header=BB34_3 Depth=1
	jmp	.LBB34_9
.LBB34_9:                               # %if.end33
                                        #   in Loop: Header=BB34_3 Depth=1
	jmp	.LBB34_10
.LBB34_10:                              # %do.cond
                                        #   in Loop: Header=BB34_3 Depth=1
	movq	-24(%rbp), %rax
	movq	64(%rax), %rax
	movslq	-12(%rbp), %rcx
	cmpl	$3, (%rax,%rcx,4)
	jne	.LBB34_3
# %bb.11:                               # %do.end
	jmp	.LBB34_12
.LBB34_12:                              # %if.end38
	jmp	.LBB34_13
.LBB34_13:                              # %if.end39
	movq	img, %rax
	cmpl	$1, 24(%rax)
	jne	.LBB34_26
# %bb.14:                               # %if.then42
	movq	-24(%rbp), %rax
	movl	88(%rax), %esi
	movq	-32(%rbp), %rdx
	movabsq	$.L.str.30, %rdi
	callq	u_1
	addl	-16(%rbp), %eax
	movl	%eax, -16(%rbp)
	movq	-24(%rbp), %rax
	cmpl	$0, 88(%rax)
	je	.LBB34_25
# %bb.15:                               # %if.then47
	movl	$-1, -12(%rbp)
.LBB34_16:                              # %do.body48
                                        # =>This Inner Loop Header: Depth=1
	movl	-12(%rbp), %eax
	addl	$1, %eax
	movl	%eax, -12(%rbp)
	movq	-24(%rbp), %rax
	movq	96(%rax), %rax
	movslq	-12(%rbp), %rcx
	movl	(%rax,%rcx,4), %esi
	movq	-32(%rbp), %rdx
	movabsq	$.L.str.27, %rdi
	callq	ue_v
	addl	-16(%rbp), %eax
	movl	%eax, -16(%rbp)
	movq	-24(%rbp), %rax
	movq	96(%rax), %rax
	movslq	-12(%rbp), %rcx
	cmpl	$0, (%rax,%rcx,4)
	je	.LBB34_18
# %bb.17:                               # %lor.lhs.false58
                                        #   in Loop: Header=BB34_16 Depth=1
	movq	-24(%rbp), %rax
	movq	96(%rax), %rax
	movslq	-12(%rbp), %rcx
	cmpl	$1, (%rax,%rcx,4)
	jne	.LBB34_19
.LBB34_18:                              # %if.then63
                                        #   in Loop: Header=BB34_16 Depth=1
	movq	-24(%rbp), %rax
	movq	104(%rax), %rax
	movslq	-12(%rbp), %rcx
	movl	(%rax,%rcx,4), %esi
	movq	-32(%rbp), %rdx
	movabsq	$.L.str.31, %rdi
	callq	ue_v
	addl	-16(%rbp), %eax
	movl	%eax, -16(%rbp)
	jmp	.LBB34_22
.LBB34_19:                              # %if.else68
                                        #   in Loop: Header=BB34_16 Depth=1
	movq	-24(%rbp), %rax
	movq	96(%rax), %rax
	movslq	-12(%rbp), %rcx
	cmpl	$2, (%rax,%rcx,4)
	jne	.LBB34_21
# %bb.20:                               # %if.then73
                                        #   in Loop: Header=BB34_16 Depth=1
	movq	-24(%rbp), %rax
	movq	112(%rax), %rax
	movslq	-12(%rbp), %rcx
	movl	(%rax,%rcx,4), %esi
	movq	-32(%rbp), %rdx
	movabsq	$.L.str.32, %rdi
	callq	ue_v
	addl	-16(%rbp), %eax
	movl	%eax, -16(%rbp)
.LBB34_21:                              # %if.end78
                                        #   in Loop: Header=BB34_16 Depth=1
	jmp	.LBB34_22
.LBB34_22:                              # %if.end79
                                        #   in Loop: Header=BB34_16 Depth=1
	jmp	.LBB34_23
.LBB34_23:                              # %do.cond80
                                        #   in Loop: Header=BB34_16 Depth=1
	movq	-24(%rbp), %rax
	movq	96(%rax), %rax
	movslq	-12(%rbp), %rcx
	cmpl	$3, (%rax,%rcx,4)
	jne	.LBB34_16
# %bb.24:                               # %do.end85
	jmp	.LBB34_25
.LBB34_25:                              # %if.end86
	jmp	.LBB34_26
.LBB34_26:                              # %if.end87
	movl	-16(%rbp), %ebx
	cmpl	$1352937242, -40(%rbp)  # imm = 0x50A42F1A
	jne	.LBB34_28
.LBB34_27:
	movl	%ebx, %eax
	addq	$40, %rsp
	popq	%rbx
	popq	%rbp
	.cfi_def_cfa %rsp, 8
	retq
.LBB34_28:                              # %func_exit
	.cfi_def_cfa %rbp, 16
	callq	detect_breach
	jmp	.LBB34_27
.Lfunc_end34:
	.size	ref_pic_list_reordering.29, .Lfunc_end34-ref_pic_list_reordering.29
	.cfi_endproc
                                        # -- End function
	.section	.rodata.cst8,"aM",@progbits,8
	.p2align	3               # -- Begin function SliceHeader.30
.LCPI35_0:
	.quad	4611686018427387904     # double 2
	.section	.rodata.cst4,"aM",@progbits,4
	.p2align	2
.LCPI35_1:
	.long	1065353216              # float 1
	.text
	.globl	SliceHeader.30
	.p2align	4, 0x90
	.type	SliceHeader.30,@function
SliceHeader.30:                         # @SliceHeader.30
	.cfi_startproc
# %bb.0:                                # %entry
	pushq	%rbp
	.cfi_def_cfa_offset 16
	.cfi_offset %rbp, -16
	movq	%rsp, %rbp
	.cfi_def_cfa_register %rbp
	pushq	%rbx
	subq	$72, %rsp
	.cfi_offset %rbx, -24
	movl	$546983179, -48(%rbp)   # imm = 0x209A4D0B
	movq	input, %rax
	movslq	2364(%rax), %rax
	movq	assignSE2partition(,%rax,8), %rax
	movl	(%rax), %eax
	movl	%eax, -52(%rbp)
	movq	img, %rax
	movq	14160(%rax), %rax
	movq	24(%rax), %rax
	movslq	-52(%rbp), %rcx
	imulq	$120, %rcx, %rcx
	addq	%rcx, %rax
	movq	%rax, -24(%rbp)
	movq	img, %rax
	movq	14160(%rax), %rax
	movq	%rax, -72(%rbp)
	movl	$0, -12(%rbp)
	movl	$0, -28(%rbp)
	movl	$0, -36(%rbp)
	movq	img, %rax
	cmpl	$0, 72400(%rax)
	je	.LBB35_2
# %bb.1:                                # %if.then
	movq	img, %rax
	movl	12(%rax), %esi
	sarl	$1, %esi
	movq	-24(%rbp), %rdx
	movabsq	$.L.str, %rdi
	callq	ue_v
	movl	%eax, -12(%rbp)
	jmp	.LBB35_3
.LBB35_2:                               # %if.else
	movq	img, %rax
	movl	12(%rax), %esi
	movq	-24(%rbp), %rdx
	movabsq	$.L.str, %rdi
	callq	ue_v
	movl	%eax, -12(%rbp)
.LBB35_3:                               # %if.end
	callq	get_picture_type
	movq	-24(%rbp), %rdx
	movabsq	$.L.str.1, %rdi
	movl	%eax, %esi
	callq	ue_v
	addl	-12(%rbp), %eax
	movl	%eax, -12(%rbp)
	movq	active_pps, %rax
	movl	4(%rax), %esi
	movq	-24(%rbp), %rdx
	movabsq	$.L.str.2, %rdi
	callq	ue_v
	addl	-12(%rbp), %eax
	movl	%eax, -12(%rbp)
	movl	log2_max_frame_num_minus4, %edi
	addl	$4, %edi
	movq	img, %rax
	movl	72464(%rax), %edx
	movq	-24(%rbp), %rcx
	movabsq	$.L.str.3, %rsi
	callq	u_v
	addl	-12(%rbp), %eax
	movl	%eax, -12(%rbp)
	movq	active_sps, %rax
	cmpl	$0, 1148(%rax)
	jne	.LBB35_9
# %bb.4:                                # %if.then15
	movq	img, %rax
	cmpl	$1, 28(%rax)
	movb	$1, %al
	je	.LBB35_6
# %bb.5:                                # %lor.rhs
	movq	img, %rax
	cmpl	$2, 28(%rax)
	sete	%al
.LBB35_6:                               # %lor.end
	xorl	%ecx, %ecx
	testb	$1, %al
	movl	$1, %eax
	cmovnel	%eax, %ecx
	movl	%ecx, -28(%rbp)
	movl	-28(%rbp), %esi
	movq	-24(%rbp), %rdx
	movabsq	$.L.str.4, %rdi
	callq	u_1
	addl	-12(%rbp), %eax
	movl	%eax, -12(%rbp)
	cmpl	$0, -28(%rbp)
	je	.LBB35_8
# %bb.7:                                # %if.then21
	xorl	%eax, %eax
	movq	img, %rcx
	movl	28(%rcx), %ecx
	cmpl	$2, %ecx
	movl	$1, %ecx
	cmovel	%ecx, %eax
	movl	%eax, -36(%rbp)
	movl	-36(%rbp), %esi
	movq	-24(%rbp), %rdx
	movabsq	$.L.str.5, %rdi
	callq	u_1
	addl	-12(%rbp), %eax
	movl	%eax, -12(%rbp)
.LBB35_8:                               # %if.end27
	jmp	.LBB35_9
.LBB35_9:                               # %if.end28
	movq	img, %rax
	movq	14152(%rax), %rax
	cmpl	$0, 4(%rax)
	je	.LBB35_11
# %bb.10:                               # %if.then30
	movq	img, %rax
	movl	(%rax), %eax
	cltd
	movl	$2, %ecx
	idivl	%ecx
	movq	-24(%rbp), %rax
	movabsq	$.L.str.6, %rdi
	movl	%edx, %esi
	movq	%rax, %rdx
	callq	ue_v
	addl	-12(%rbp), %eax
	movl	%eax, -12(%rbp)
.LBB35_11:                              # %if.end33
	movq	img, %rax
	cmpl	$0, 72404(%rax)
	jne	.LBB35_25
# %bb.12:                               # %if.then35
	movq	active_sps, %rax
	cmpl	$0, 1148(%rax)
	je	.LBB35_14
# %bb.13:                               # %if.then38
	movq	img, %rax
	movl	72448(%rax), %eax
	movl	log2_max_pic_order_cnt_lsb_minus4, %ecx
	addl	$4, %ecx
                                        # kill: def $cl killed $ecx
	movl	$4294967295, %edx       # imm = 0xFFFFFFFF
	shll	%cl, %edx
	xorl	$-1, %edx
	andl	%edx, %eax
	movq	img, %rcx
	movl	%eax, 72428(%rcx)
	jmp	.LBB35_21
.LBB35_14:                              # %if.else40
	cmpl	$0, -28(%rbp)
	je	.LBB35_16
# %bb.15:                               # %lor.lhs.false
	movq	img, %rax
	cmpl	$1, 28(%rax)
	jne	.LBB35_17
.LBB35_16:                              # %if.then44
	movq	img, %rax
	movl	72448(%rax), %eax
	movl	log2_max_pic_order_cnt_lsb_minus4, %ecx
	addl	$4, %ecx
                                        # kill: def $cl killed $ecx
	movl	$4294967295, %edx       # imm = 0xFFFFFFFF
	shll	%cl, %edx
	xorl	$-1, %edx
	andl	%edx, %eax
	movq	img, %rcx
	movl	%eax, 72428(%rcx)
	jmp	.LBB35_20
.LBB35_17:                              # %if.else51
	movq	img, %rax
	cmpl	$2, 28(%rax)
	jne	.LBB35_19
# %bb.18:                               # %if.then54
	movq	img, %rax
	movl	72452(%rax), %eax
	movl	log2_max_pic_order_cnt_lsb_minus4, %ecx
	addl	$4, %ecx
                                        # kill: def $cl killed $ecx
	movl	$4294967295, %edx       # imm = 0xFFFFFFFF
	shll	%cl, %edx
	xorl	$-1, %edx
	andl	%edx, %eax
	movq	img, %rcx
	movl	%eax, 72428(%rcx)
.LBB35_19:                              # %if.end60
	jmp	.LBB35_20
.LBB35_20:                              # %if.end61
	jmp	.LBB35_21
.LBB35_21:                              # %if.end62
	movl	log2_max_pic_order_cnt_lsb_minus4, %edi
	addl	$4, %edi
	movq	img, %rax
	movl	72428(%rax), %edx
	movq	-24(%rbp), %rcx
	movabsq	$.L.str.7, %rsi
	callq	u_v
	addl	-12(%rbp), %eax
	movl	%eax, -12(%rbp)
	movq	img, %rax
	cmpl	$0, 72492(%rax)
	je	.LBB35_24
# %bb.22:                               # %land.lhs.true
	cmpl	$0, -28(%rbp)
	jne	.LBB35_24
# %bb.23:                               # %if.then69
	movq	img, %rax
	movl	72432(%rax), %esi
	movq	-24(%rbp), %rdx
	movabsq	$.L.str.8, %rdi
	callq	se_v
	addl	-12(%rbp), %eax
	movl	%eax, -12(%rbp)
.LBB35_24:                              # %if.end72
	jmp	.LBB35_25
.LBB35_25:                              # %if.end73
	movq	img, %rax
	cmpl	$1, 72404(%rax)
	jne	.LBB35_31
# %bb.26:                               # %land.lhs.true76
	movq	img, %rax
	cmpl	$0, 72408(%rax)
	jne	.LBB35_31
# %bb.27:                               # %if.then78
	movq	img, %rax
	movl	72436(%rax), %esi
	movq	-24(%rbp), %rdx
	movabsq	$.L.str.9, %rdi
	callq	se_v
	addl	-12(%rbp), %eax
	movl	%eax, -12(%rbp)
	movq	img, %rax
	cmpl	$0, 72492(%rax)
	je	.LBB35_30
# %bb.28:                               # %land.lhs.true84
	cmpl	$0, -28(%rbp)
	jne	.LBB35_30
# %bb.29:                               # %if.then86
	movq	img, %rax
	movl	72440(%rax), %esi
	movq	-24(%rbp), %rdx
	movabsq	$.L.str.10, %rdi
	callq	se_v
	addl	-12(%rbp), %eax
	movl	%eax, -12(%rbp)
.LBB35_30:                              # %if.end91
	jmp	.LBB35_31
.LBB35_31:                              # %if.end92
	movq	input, %rax
	cmpl	$0, 3204(%rax)
	je	.LBB35_33
# %bb.32:                               # %if.then94
	movq	img, %rax
	movl	72396(%rax), %esi
	movq	-24(%rbp), %rdx
	movabsq	$.L.str.11, %rdi
	callq	ue_v
	addl	-12(%rbp), %eax
	movl	%eax, -12(%rbp)
.LBB35_33:                              # %if.end97
	movq	img, %rax
	cmpl	$1, 24(%rax)
	jne	.LBB35_35
# %bb.34:                               # %if.then99
	movq	img, %rax
	movl	71996(%rax), %esi
	movq	-24(%rbp), %rdx
	movabsq	$.L.str.12, %rdi
	callq	u_1
	addl	-12(%rbp), %eax
	movl	%eax, -12(%rbp)
.LBB35_35:                              # %if.end102
	movq	img, %rax
	cmpl	$0, 24(%rax)
	je	.LBB35_38
# %bb.36:                               # %lor.lhs.false105
	movq	img, %rax
	cmpl	$1, 24(%rax)
	je	.LBB35_38
# %bb.37:                               # %lor.lhs.false108
	movq	img, %rax
	cmpl	$3, 24(%rax)
	jne	.LBB35_49
.LBB35_38:                              # %if.then111
	movq	img, %rax
	cmpl	$0, 24(%rax)
	je	.LBB35_40
# %bb.39:                               # %lor.lhs.false114
	movq	img, %rax
	cmpl	$3, 24(%rax)
	jne	.LBB35_41
.LBB35_40:                              # %if.then117
	xorl	%eax, %eax
	movq	img, %rcx
	movl	72000(%rcx), %ecx
	movq	active_pps, %rdx
	movl	184(%rdx), %edx
	addl	$1, %edx
	cmpl	%edx, %ecx
	movl	$1, %ecx
	cmovnel	%ecx, %eax
	movl	%eax, -32(%rbp)
	jmp	.LBB35_44
.LBB35_41:                              # %if.else121
	movq	img, %rax
	movl	72000(%rax), %eax
	movq	active_pps, %rcx
	movl	184(%rcx), %ecx
	addl	$1, %ecx
	cmpl	%ecx, %eax
	movb	$1, %al
	jne	.LBB35_43
# %bb.42:                               # %lor.rhs126
	movq	img, %rax
	movl	72004(%rax), %eax
	movq	active_pps, %rcx
	movl	188(%rcx), %ecx
	addl	$1, %ecx
	cmpl	%ecx, %eax
	setne	%al
.LBB35_43:                              # %lor.end129
	xorl	%ecx, %ecx
	testb	$1, %al
