	.text
	.file	"header.c"
	.globl	SliceHeader             # -- Begin function SliceHeader
	.p2align	4, 0x90
	.type	SliceHeader,@function
SliceHeader:                            # @SliceHeader
	.cfi_startproc
# %bb.0:                                # %rand_bb
	pushq	%rbp
	.cfi_def_cfa_offset 16
	.cfi_offset %rbp, -16
	movq	%rsp, %rbp
	.cfi_def_cfa_register %rbp
	callq	get_urand
	cmpl	$0, %eax
	jne	.LBB0_17
# %bb.1:                                # %func_SliceHeader.11
	callq	SliceHeader.11
	popq	%rbp
	.cfi_def_cfa %rsp, 8
	retq
.LBB0_2:                                # %func_SliceHeader.13
	.cfi_def_cfa %rbp, 16
	callq	SliceHeader.13
	popq	%rbp
	.cfi_def_cfa %rsp, 8
	retq
.LBB0_3:                                # %func_SliceHeader.15
	.cfi_def_cfa %rbp, 16
	callq	SliceHeader.15
	popq	%rbp
	.cfi_def_cfa %rsp, 8
	retq
.LBB0_4:                                # %func_SliceHeader.24
	.cfi_def_cfa %rbp, 16
	callq	SliceHeader.24
	popq	%rbp
	.cfi_def_cfa %rsp, 8
	retq
.LBB0_5:                                # %func_SliceHeader.26
	.cfi_def_cfa %rbp, 16
	callq	SliceHeader.26
	popq	%rbp
	.cfi_def_cfa %rsp, 8
	retq
.LBB0_6:                                # %func_SliceHeader.28
	.cfi_def_cfa %rbp, 16
	callq	SliceHeader.28
	popq	%rbp
	.cfi_def_cfa %rsp, 8
	retq
.LBB0_7:                                # %func_SliceHeader.29
	.cfi_def_cfa %rbp, 16
	callq	SliceHeader.29
	popq	%rbp
	.cfi_def_cfa %rsp, 8
	retq
.LBB0_8:                                # %func_SliceHeader.36
	.cfi_def_cfa %rbp, 16
	callq	SliceHeader.36
	popq	%rbp
	.cfi_def_cfa %rsp, 8
	retq
.LBB0_9:                                # %func_SliceHeader.41
	.cfi_def_cfa %rbp, 16
	callq	SliceHeader.41
	popq	%rbp
	.cfi_def_cfa %rsp, 8
	retq
.LBB0_10:                               # %func_SliceHeader.42
	.cfi_def_cfa %rbp, 16
	callq	SliceHeader.42
	popq	%rbp
	.cfi_def_cfa %rsp, 8
	retq
.LBB0_11:                               # %func_SliceHeader.45
	.cfi_def_cfa %rbp, 16
	callq	SliceHeader.45
	popq	%rbp
	.cfi_def_cfa %rsp, 8
	retq
.LBB0_12:                               # %func_SliceHeader.46
	.cfi_def_cfa %rbp, 16
	callq	SliceHeader.46
	popq	%rbp
	.cfi_def_cfa %rsp, 8
	retq
.LBB0_13:                               # %func_SliceHeader.47
	.cfi_def_cfa %rbp, 16
	callq	SliceHeader.47
	popq	%rbp
	.cfi_def_cfa %rsp, 8
	retq
.LBB0_14:                               # %func_SliceHeader.63
	.cfi_def_cfa %rbp, 16
	callq	SliceHeader.63
	popq	%rbp
	.cfi_def_cfa %rsp, 8
	retq
.LBB0_15:                               # %func_SliceHeader.72
	.cfi_def_cfa %rbp, 16
	callq	SliceHeader.72
	popq	%rbp
	.cfi_def_cfa %rsp, 8
	retq
.LBB0_16:                               # %func_SliceHeader.74
	.cfi_def_cfa %rbp, 16
	callq	SliceHeader.74
	popq	%rbp
	.cfi_def_cfa %rsp, 8
	retq
.LBB0_17:                               # %ctrl0
	.cfi_def_cfa %rbp, 16
	cmpl	$1, %eax
	je	.LBB0_2
# %bb.18:                               # %ctrl1
	cmpl	$2, %eax
	je	.LBB0_3
# %bb.19:                               # %ctrl2
	cmpl	$3, %eax
	je	.LBB0_4
# %bb.20:                               # %ctrl3
	cmpl	$4, %eax
	je	.LBB0_5
# %bb.21:                               # %ctrl4
	cmpl	$5, %eax
	je	.LBB0_6
# %bb.22:                               # %ctrl5
	cmpl	$6, %eax
	je	.LBB0_7
# %bb.23:                               # %ctrl6
	cmpl	$7, %eax
	je	.LBB0_8
# %bb.24:                               # %ctrl7
	cmpl	$8, %eax
	je	.LBB0_9
# %bb.25:                               # %ctrl8
	cmpl	$9, %eax
	je	.LBB0_10
# %bb.26:                               # %ctrl9
	cmpl	$10, %eax
	je	.LBB0_11
# %bb.27:                               # %ctrl10
	cmpl	$11, %eax
	je	.LBB0_12
# %bb.28:                               # %ctrl11
	cmpl	$12, %eax
	je	.LBB0_13
# %bb.29:                               # %ctrl12
	cmpl	$13, %eax
	je	.LBB0_14
# %bb.30:                               # %ctrl13
	cmpl	$14, %eax
	je	.LBB0_15
	jmp	.LBB0_16
.Lfunc_end0:
	.size	SliceHeader, .Lfunc_end0-SliceHeader
	.cfi_endproc
                                        # -- End function
	.globl	get_picture_type        # -- Begin function get_picture_type
	.p2align	4, 0x90
	.type	get_picture_type,@function
get_picture_type:                       # @get_picture_type
	.cfi_startproc
# %bb.0:                                # %rand_bb
	pushq	%rbp
	.cfi_def_cfa_offset 16
	.cfi_offset %rbp, -16
	movq	%rsp, %rbp
	.cfi_def_cfa_register %rbp
	callq	get_urand
	cmpl	$0, %eax
	jne	.LBB1_2
# %bb.1:                                # %func_get_picture_type.2
	callq	get_picture_type.2
	popq	%rbp
	.cfi_def_cfa %rsp, 8
	retq
.LBB1_2:                                # %func_get_picture_type.7
	.cfi_def_cfa %rbp, 16
	callq	get_picture_type.7
	popq	%rbp
	.cfi_def_cfa %rsp, 8
	retq
.Lfunc_end1:
	.size	get_picture_type, .Lfunc_end1-get_picture_type
	.cfi_endproc
                                        # -- End function
	.globl	Partition_BC_Header     # -- Begin function Partition_BC_Header
	.p2align	4, 0x90
	.type	Partition_BC_Header,@function
Partition_BC_Header:                    # @Partition_BC_Header
	.cfi_startproc
# %bb.0:                                # %rand_bb
	pushq	%rbp
	.cfi_def_cfa_offset 16
	.cfi_offset %rbp, -16
	movq	%rsp, %rbp
	.cfi_def_cfa_register %rbp
	pushq	%rbx
	pushq	%rax
	.cfi_offset %rbx, -24
	movl	%edi, %ebx
	callq	get_urand
	cmpl	$0, %eax
	jne	.LBB2_17
# %bb.1:                                # %func_Partition_BC_Header.5
	movl	%ebx, %edi
	callq	Partition_BC_Header.5
	addq	$8, %rsp
	popq	%rbx
	popq	%rbp
	.cfi_def_cfa %rsp, 8
	retq
.LBB2_2:                                # %func_Partition_BC_Header.6
	.cfi_def_cfa %rbp, 16
	movl	%ebx, %edi
	callq	Partition_BC_Header.6
	addq	$8, %rsp
	popq	%rbx
	popq	%rbp
	.cfi_def_cfa %rsp, 8
	retq
.LBB2_3:                                # %func_Partition_BC_Header.18
	.cfi_def_cfa %rbp, 16
	movl	%ebx, %edi
	callq	Partition_BC_Header.18
	addq	$8, %rsp
	popq	%rbx
	popq	%rbp
	.cfi_def_cfa %rsp, 8
	retq
.LBB2_4:                                # %func_Partition_BC_Header.19
	.cfi_def_cfa %rbp, 16
	movl	%ebx, %edi
	callq	Partition_BC_Header.19
	addq	$8, %rsp
	popq	%rbx
	popq	%rbp
	.cfi_def_cfa %rsp, 8
	retq
.LBB2_5:                                # %func_Partition_BC_Header.21
	.cfi_def_cfa %rbp, 16
	movl	%ebx, %edi
	callq	Partition_BC_Header.21
	addq	$8, %rsp
	popq	%rbx
	popq	%rbp
	.cfi_def_cfa %rsp, 8
	retq
.LBB2_6:                                # %func_Partition_BC_Header.22
	.cfi_def_cfa %rbp, 16
	movl	%ebx, %edi
	callq	Partition_BC_Header.22
	addq	$8, %rsp
	popq	%rbx
	popq	%rbp
	.cfi_def_cfa %rsp, 8
	retq
.LBB2_7:                                # %func_Partition_BC_Header.31
	.cfi_def_cfa %rbp, 16
	movl	%ebx, %edi
	callq	Partition_BC_Header.31
	addq	$8, %rsp
	popq	%rbx
	popq	%rbp
	.cfi_def_cfa %rsp, 8
	retq
.LBB2_8:                                # %func_Partition_BC_Header.33
	.cfi_def_cfa %rbp, 16
	movl	%ebx, %edi
	callq	Partition_BC_Header.33
	addq	$8, %rsp
	popq	%rbx
	popq	%rbp
	.cfi_def_cfa %rsp, 8
	retq
.LBB2_9:                                # %func_Partition_BC_Header.38
	.cfi_def_cfa %rbp, 16
	movl	%ebx, %edi
	callq	Partition_BC_Header.38
	addq	$8, %rsp
	popq	%rbx
	popq	%rbp
	.cfi_def_cfa %rsp, 8
	retq
.LBB2_10:                               # %func_Partition_BC_Header.44
	.cfi_def_cfa %rbp, 16
	movl	%ebx, %edi
	callq	Partition_BC_Header.44
	addq	$8, %rsp
	popq	%rbx
	popq	%rbp
	.cfi_def_cfa %rsp, 8
	retq
.LBB2_11:                               # %func_Partition_BC_Header.51
	.cfi_def_cfa %rbp, 16
	movl	%ebx, %edi
	callq	Partition_BC_Header.51
	addq	$8, %rsp
	popq	%rbx
	popq	%rbp
	.cfi_def_cfa %rsp, 8
	retq
.LBB2_12:                               # %func_Partition_BC_Header.55
	.cfi_def_cfa %rbp, 16
	movl	%ebx, %edi
	callq	Partition_BC_Header.55
	addq	$8, %rsp
	popq	%rbx
	popq	%rbp
	.cfi_def_cfa %rsp, 8
	retq
.LBB2_13:                               # %func_Partition_BC_Header.59
	.cfi_def_cfa %rbp, 16
	movl	%ebx, %edi
	callq	Partition_BC_Header.59
	addq	$8, %rsp
	popq	%rbx
	popq	%rbp
	.cfi_def_cfa %rsp, 8
	retq
.LBB2_14:                               # %func_Partition_BC_Header.61
	.cfi_def_cfa %rbp, 16
	movl	%ebx, %edi
	callq	Partition_BC_Header.61
	addq	$8, %rsp
	popq	%rbx
	popq	%rbp
	.cfi_def_cfa %rsp, 8
	retq
.LBB2_15:                               # %func_Partition_BC_Header.62
	.cfi_def_cfa %rbp, 16
	movl	%ebx, %edi
	callq	Partition_BC_Header.62
	addq	$8, %rsp
	popq	%rbx
	popq	%rbp
	.cfi_def_cfa %rsp, 8
	retq
.LBB2_16:                               # %func_Partition_BC_Header.71
	.cfi_def_cfa %rbp, 16
	movl	%ebx, %edi
	callq	Partition_BC_Header.71
	addq	$8, %rsp
	popq	%rbx
	popq	%rbp
	.cfi_def_cfa %rsp, 8
	retq
.LBB2_17:                               # %ctrl0
	.cfi_def_cfa %rbp, 16
	cmpl	$1, %eax
	je	.LBB2_2
# %bb.18:                               # %ctrl1
	cmpl	$2, %eax
	je	.LBB2_3
# %bb.19:                               # %ctrl2
	cmpl	$3, %eax
	je	.LBB2_4
# %bb.20:                               # %ctrl3
	cmpl	$4, %eax
	je	.LBB2_5
# %bb.21:                               # %ctrl4
	cmpl	$5, %eax
	je	.LBB2_6
# %bb.22:                               # %ctrl5
	cmpl	$6, %eax
	je	.LBB2_7
# %bb.23:                               # %ctrl6
	cmpl	$7, %eax
	je	.LBB2_8
# %bb.24:                               # %ctrl7
	cmpl	$8, %eax
	je	.LBB2_9
# %bb.25:                               # %ctrl8
	cmpl	$9, %eax
	je	.LBB2_10
# %bb.26:                               # %ctrl9
	cmpl	$10, %eax
	je	.LBB2_11
# %bb.27:                               # %ctrl10
	cmpl	$11, %eax
	je	.LBB2_12
# %bb.28:                               # %ctrl11
	cmpl	$12, %eax
	je	.LBB2_13
# %bb.29:                               # %ctrl12
	cmpl	$13, %eax
	je	.LBB2_14
# %bb.30:                               # %ctrl13
	cmpl	$14, %eax
	je	.LBB2_15
	jmp	.LBB2_16
.Lfunc_end2:
	.size	Partition_BC_Header, .Lfunc_end2-Partition_BC_Header
	.cfi_endproc
                                        # -- End function
	.p2align	4, 0x90         # -- Begin function ref_pic_list_reordering
	.type	ref_pic_list_reordering,@function
ref_pic_list_reordering:                # @ref_pic_list_reordering
	.cfi_startproc
# %bb.0:                                # %rand_bb
	pushq	%rbp
	.cfi_def_cfa_offset 16
	.cfi_offset %rbp, -16
	movq	%rsp, %rbp
	.cfi_def_cfa_register %rbp
	callq	get_urand
	cmpl	$0, %eax
	jne	.LBB3_17
# %bb.1:                                # %func_ref_pic_list_reordering.12
	callq	ref_pic_list_reordering.12
	popq	%rbp
	.cfi_def_cfa %rsp, 8
	retq
.LBB3_2:                                # %func_ref_pic_list_reordering.14
	.cfi_def_cfa %rbp, 16
	callq	ref_pic_list_reordering.14
	popq	%rbp
	.cfi_def_cfa %rsp, 8
	retq
.LBB3_3:                                # %func_ref_pic_list_reordering.25
	.cfi_def_cfa %rbp, 16
	callq	ref_pic_list_reordering.25
	popq	%rbp
	.cfi_def_cfa %rsp, 8
	retq
.LBB3_4:                                # %func_ref_pic_list_reordering.56
	.cfi_def_cfa %rbp, 16
	callq	ref_pic_list_reordering.56
	popq	%rbp
	.cfi_def_cfa %rsp, 8
	retq
.LBB3_5:                                # %func_ref_pic_list_reordering.58
	.cfi_def_cfa %rbp, 16
	callq	ref_pic_list_reordering.58
	popq	%rbp
	.cfi_def_cfa %rsp, 8
	retq
.LBB3_6:                                # %func_ref_pic_list_reordering.60
	.cfi_def_cfa %rbp, 16
	callq	ref_pic_list_reordering.60
	popq	%rbp
	.cfi_def_cfa %rsp, 8
	retq
.LBB3_7:                                # %func_ref_pic_list_reordering.68
	.cfi_def_cfa %rbp, 16
	callq	ref_pic_list_reordering.68
	popq	%rbp
	.cfi_def_cfa %rsp, 8
	retq
.LBB3_8:                                # %func_ref_pic_list_reordering.73
	.cfi_def_cfa %rbp, 16
	callq	ref_pic_list_reordering.73
	popq	%rbp
	.cfi_def_cfa %rsp, 8
	retq
.LBB3_9:                                # %func_ref_pic_list_reordering.75
	.cfi_def_cfa %rbp, 16
	callq	ref_pic_list_reordering.75
	popq	%rbp
	.cfi_def_cfa %rsp, 8
	retq
.LBB3_10:                               # %func_ref_pic_list_reordering.76
	.cfi_def_cfa %rbp, 16
	callq	ref_pic_list_reordering.76
	popq	%rbp
	.cfi_def_cfa %rsp, 8
	retq
.LBB3_11:                               # %func_ref_pic_list_reordering.77
	.cfi_def_cfa %rbp, 16
	callq	ref_pic_list_reordering.77
	popq	%rbp
	.cfi_def_cfa %rsp, 8
	retq
.LBB3_12:                               # %func_ref_pic_list_reordering.78
	.cfi_def_cfa %rbp, 16
	callq	ref_pic_list_reordering.78
	popq	%rbp
	.cfi_def_cfa %rsp, 8
	retq
.LBB3_13:                               # %func_ref_pic_list_reordering.79
	.cfi_def_cfa %rbp, 16
	callq	ref_pic_list_reordering.79
	popq	%rbp
	.cfi_def_cfa %rsp, 8
	retq
.LBB3_14:                               # %func_ref_pic_list_reordering.80
	.cfi_def_cfa %rbp, 16
	callq	ref_pic_list_reordering.80
	popq	%rbp
	.cfi_def_cfa %rsp, 8
	retq
.LBB3_15:                               # %func_ref_pic_list_reordering.81
	.cfi_def_cfa %rbp, 16
	callq	ref_pic_list_reordering.81
	popq	%rbp
	.cfi_def_cfa %rsp, 8
	retq
.LBB3_16:                               # %func_ref_pic_list_reordering.82
	.cfi_def_cfa %rbp, 16
	callq	ref_pic_list_reordering.82
	popq	%rbp
	.cfi_def_cfa %rsp, 8
	retq
.LBB3_17:                               # %ctrl0
	.cfi_def_cfa %rbp, 16
	cmpl	$1, %eax
	je	.LBB3_2
# %bb.18:                               # %ctrl1
	cmpl	$2, %eax
	je	.LBB3_3
# %bb.19:                               # %ctrl2
	cmpl	$3, %eax
	je	.LBB3_4
# %bb.20:                               # %ctrl3
	cmpl	$4, %eax
	je	.LBB3_5
# %bb.21:                               # %ctrl4
	cmpl	$5, %eax
	je	.LBB3_6
# %bb.22:                               # %ctrl5
	cmpl	$6, %eax
	je	.LBB3_7
# %bb.23:                               # %ctrl6
	cmpl	$7, %eax
	je	.LBB3_8
# %bb.24:                               # %ctrl7
	cmpl	$8, %eax
	je	.LBB3_9
# %bb.25:                               # %ctrl8
	cmpl	$9, %eax
	je	.LBB3_10
# %bb.26:                               # %ctrl9
	cmpl	$10, %eax
	je	.LBB3_11
# %bb.27:                               # %ctrl10
	cmpl	$11, %eax
	je	.LBB3_12
# %bb.28:                               # %ctrl11
	cmpl	$12, %eax
	je	.LBB3_13
# %bb.29:                               # %ctrl12
	cmpl	$13, %eax
	je	.LBB3_14
# %bb.30:                               # %ctrl13
	cmpl	$14, %eax
	je	.LBB3_15
	jmp	.LBB3_16
.Lfunc_end3:
	.size	ref_pic_list_reordering, .Lfunc_end3-ref_pic_list_reordering
	.cfi_endproc
                                        # -- End function
	.p2align	4, 0x90         # -- Begin function dec_ref_pic_marking
	.type	dec_ref_pic_marking,@function
dec_ref_pic_marking:                    # @dec_ref_pic_marking
	.cfi_startproc
# %bb.0:                                # %rand_bb
	pushq	%rbp
	.cfi_def_cfa_offset 16
	.cfi_offset %rbp, -16
	movq	%rsp, %rbp
	.cfi_def_cfa_register %rbp
	callq	get_urand
	cmpl	$0, %eax
	jne	.LBB4_17
# %bb.1:                                # %func_dec_ref_pic_marking.1
	callq	dec_ref_pic_marking.1
	popq	%rbp
	.cfi_def_cfa %rsp, 8
	retq
.LBB4_2:                                # %func_dec_ref_pic_marking.3
	.cfi_def_cfa %rbp, 16
	callq	dec_ref_pic_marking.3
	popq	%rbp
	.cfi_def_cfa %rsp, 8
	retq
.LBB4_3:                                # %func_dec_ref_pic_marking.9
	.cfi_def_cfa %rbp, 16
	callq	dec_ref_pic_marking.9
	popq	%rbp
	.cfi_def_cfa %rsp, 8
	retq
.LBB4_4:                                # %func_dec_ref_pic_marking.16
	.cfi_def_cfa %rbp, 16
	callq	dec_ref_pic_marking.16
	popq	%rbp
	.cfi_def_cfa %rsp, 8
	retq
.LBB4_5:                                # %func_dec_ref_pic_marking.20
	.cfi_def_cfa %rbp, 16
	callq	dec_ref_pic_marking.20
	popq	%rbp
	.cfi_def_cfa %rsp, 8
	retq
.LBB4_6:                                # %func_dec_ref_pic_marking.23
	.cfi_def_cfa %rbp, 16
	callq	dec_ref_pic_marking.23
	popq	%rbp
	.cfi_def_cfa %rsp, 8
	retq
.LBB4_7:                                # %func_dec_ref_pic_marking.30
	.cfi_def_cfa %rbp, 16
	callq	dec_ref_pic_marking.30
	popq	%rbp
	.cfi_def_cfa %rsp, 8
	retq
.LBB4_8:                                # %func_dec_ref_pic_marking.35
	.cfi_def_cfa %rbp, 16
	callq	dec_ref_pic_marking.35
	popq	%rbp
	.cfi_def_cfa %rsp, 8
	retq
.LBB4_9:                                # %func_dec_ref_pic_marking.49
	.cfi_def_cfa %rbp, 16
	callq	dec_ref_pic_marking.49
	popq	%rbp
	.cfi_def_cfa %rsp, 8
	retq
.LBB4_10:                               # %func_dec_ref_pic_marking.52
	.cfi_def_cfa %rbp, 16
	callq	dec_ref_pic_marking.52
	popq	%rbp
	.cfi_def_cfa %rsp, 8
	retq
.LBB4_11:                               # %func_dec_ref_pic_marking.54
	.cfi_def_cfa %rbp, 16
	callq	dec_ref_pic_marking.54
	popq	%rbp
	.cfi_def_cfa %rsp, 8
	retq
.LBB4_12:                               # %func_dec_ref_pic_marking.64
	.cfi_def_cfa %rbp, 16
	callq	dec_ref_pic_marking.64
	popq	%rbp
	.cfi_def_cfa %rsp, 8
	retq
.LBB4_13:                               # %func_dec_ref_pic_marking.66
	.cfi_def_cfa %rbp, 16
	callq	dec_ref_pic_marking.66
	popq	%rbp
	.cfi_def_cfa %rsp, 8
	retq
.LBB4_14:                               # %func_dec_ref_pic_marking.67
	.cfi_def_cfa %rbp, 16
	callq	dec_ref_pic_marking.67
	popq	%rbp
	.cfi_def_cfa %rsp, 8
	retq
.LBB4_15:                               # %func_dec_ref_pic_marking.69
	.cfi_def_cfa %rbp, 16
	callq	dec_ref_pic_marking.69
	popq	%rbp
	.cfi_def_cfa %rsp, 8
	retq
.LBB4_16:                               # %func_dec_ref_pic_marking.70
	.cfi_def_cfa %rbp, 16
	callq	dec_ref_pic_marking.70
	popq	%rbp
	.cfi_def_cfa %rsp, 8
	retq
.LBB4_17:                               # %ctrl0
	.cfi_def_cfa %rbp, 16
	cmpl	$1, %eax
	je	.LBB4_2
# %bb.18:                               # %ctrl1
	cmpl	$2, %eax
	je	.LBB4_3
# %bb.19:                               # %ctrl2
	cmpl	$3, %eax
	je	.LBB4_4
# %bb.20:                               # %ctrl3
	cmpl	$4, %eax
	je	.LBB4_5
# %bb.21:                               # %ctrl4
	cmpl	$5, %eax
	je	.LBB4_6
# %bb.22:                               # %ctrl5
	cmpl	$6, %eax
	je	.LBB4_7
# %bb.23:                               # %ctrl6
	cmpl	$7, %eax
	je	.LBB4_8
# %bb.24:                               # %ctrl7
	cmpl	$8, %eax
	je	.LBB4_9
# %bb.25:                               # %ctrl8
	cmpl	$9, %eax
	je	.LBB4_10
# %bb.26:                               # %ctrl9
	cmpl	$10, %eax
	je	.LBB4_11
# %bb.27:                               # %ctrl10
	cmpl	$11, %eax
	je	.LBB4_12
# %bb.28:                               # %ctrl11
	cmpl	$12, %eax
	je	.LBB4_13
# %bb.29:                               # %ctrl12
	cmpl	$13, %eax
	je	.LBB4_14
# %bb.30:                               # %ctrl13
	cmpl	$14, %eax
	je	.LBB4_15
	jmp	.LBB4_16
.Lfunc_end4:
	.size	dec_ref_pic_marking, .Lfunc_end4-dec_ref_pic_marking
	.cfi_endproc
                                        # -- End function
	.p2align	4, 0x90         # -- Begin function pred_weight_table
	.type	pred_weight_table,@function
pred_weight_table:                      # @pred_weight_table
	.cfi_startproc
# %bb.0:                                # %rand_bb
	pushq	%rbp
	.cfi_def_cfa_offset 16
	.cfi_offset %rbp, -16
	movq	%rsp, %rbp
	.cfi_def_cfa_register %rbp
	callq	get_urand
	cmpl	$0, %eax
	jne	.LBB5_17
# %bb.1:                                # %func_pred_weight_table.4
	callq	pred_weight_table.4
	popq	%rbp
	.cfi_def_cfa %rsp, 8
	retq
.LBB5_2:                                # %func_pred_weight_table.8
	.cfi_def_cfa %rbp, 16
	callq	pred_weight_table.8
	popq	%rbp
	.cfi_def_cfa %rsp, 8
	retq
.LBB5_3:                                # %func_pred_weight_table.10
	.cfi_def_cfa %rbp, 16
	callq	pred_weight_table.10
	popq	%rbp
	.cfi_def_cfa %rsp, 8
	retq
.LBB5_4:                                # %func_pred_weight_table.17
	.cfi_def_cfa %rbp, 16
	callq	pred_weight_table.17
	popq	%rbp
	.cfi_def_cfa %rsp, 8
	retq
.LBB5_5:                                # %func_pred_weight_table.27
	.cfi_def_cfa %rbp, 16
	callq	pred_weight_table.27
	popq	%rbp
	.cfi_def_cfa %rsp, 8
	retq
.LBB5_6:                                # %func_pred_weight_table.32
	.cfi_def_cfa %rbp, 16
	callq	pred_weight_table.32
	popq	%rbp
	.cfi_def_cfa %rsp, 8
	retq
.LBB5_7:                                # %func_pred_weight_table.34
	.cfi_def_cfa %rbp, 16
	callq	pred_weight_table.34
	popq	%rbp
	.cfi_def_cfa %rsp, 8
	retq
.LBB5_8:                                # %func_pred_weight_table.37
	.cfi_def_cfa %rbp, 16
	callq	pred_weight_table.37
	popq	%rbp
	.cfi_def_cfa %rsp, 8
	retq
.LBB5_9:                                # %func_pred_weight_table.39
	.cfi_def_cfa %rbp, 16
	callq	pred_weight_table.39
	popq	%rbp
	.cfi_def_cfa %rsp, 8
	retq
.LBB5_10:                               # %func_pred_weight_table.40
	.cfi_def_cfa %rbp, 16
	callq	pred_weight_table.40
	popq	%rbp
	.cfi_def_cfa %rsp, 8
	retq
.LBB5_11:                               # %func_pred_weight_table.43
	.cfi_def_cfa %rbp, 16
	callq	pred_weight_table.43
	popq	%rbp
	.cfi_def_cfa %rsp, 8
	retq
.LBB5_12:                               # %func_pred_weight_table.48
	.cfi_def_cfa %rbp, 16
	callq	pred_weight_table.48
	popq	%rbp
	.cfi_def_cfa %rsp, 8
	retq
.LBB5_13:                               # %func_pred_weight_table.50
	.cfi_def_cfa %rbp, 16
	callq	pred_weight_table.50
	popq	%rbp
	.cfi_def_cfa %rsp, 8
	retq
.LBB5_14:                               # %func_pred_weight_table.53
	.cfi_def_cfa %rbp, 16
	callq	pred_weight_table.53
	popq	%rbp
	.cfi_def_cfa %rsp, 8
	retq
.LBB5_15:                               # %func_pred_weight_table.57
	.cfi_def_cfa %rbp, 16
	callq	pred_weight_table.57
	popq	%rbp
	.cfi_def_cfa %rsp, 8
	retq
.LBB5_16:                               # %func_pred_weight_table.65
	.cfi_def_cfa %rbp, 16
	callq	pred_weight_table.65
	popq	%rbp
	.cfi_def_cfa %rsp, 8
	retq
.LBB5_17:                               # %ctrl0
	.cfi_def_cfa %rbp, 16
	cmpl	$1, %eax
	je	.LBB5_2
# %bb.18:                               # %ctrl1
	cmpl	$2, %eax
	je	.LBB5_3
# %bb.19:                               # %ctrl2
	cmpl	$3, %eax
	je	.LBB5_4
# %bb.20:                               # %ctrl3
	cmpl	$4, %eax
	je	.LBB5_5
# %bb.21:                               # %ctrl4
	cmpl	$5, %eax
	je	.LBB5_6
# %bb.22:                               # %ctrl5
	cmpl	$6, %eax
	je	.LBB5_7
# %bb.23:                               # %ctrl6
	cmpl	$7, %eax
	je	.LBB5_8
# %bb.24:                               # %ctrl7
	cmpl	$8, %eax
	je	.LBB5_9
# %bb.25:                               # %ctrl8
	cmpl	$9, %eax
	je	.LBB5_10
# %bb.26:                               # %ctrl9
	cmpl	$10, %eax
	je	.LBB5_11
# %bb.27:                               # %ctrl10
	cmpl	$11, %eax
	je	.LBB5_12
# %bb.28:                               # %ctrl11
	cmpl	$12, %eax
	je	.LBB5_13
# %bb.29:                               # %ctrl12
	cmpl	$13, %eax
	je	.LBB5_14
# %bb.30:                               # %ctrl13
	cmpl	$14, %eax
	je	.LBB5_15
	jmp	.LBB5_16
.Lfunc_end5:
	.size	pred_weight_table, .Lfunc_end5-pred_weight_table
	.cfi_endproc
                                        # -- End function
	.p2align	4, 0x90         # -- Begin function dec_ref_pic_marking.1
	.type	dec_ref_pic_marking.1,@function
dec_ref_pic_marking.1:                  # @dec_ref_pic_marking.1
	.cfi_startproc
# %bb.0:                                # %entry
	pushq	%rbp
	.cfi_def_cfa_offset 16
	.cfi_offset %rbp, -16
	movq	%rsp, %rbp
	.cfi_def_cfa_register %rbp
	pushq	%rbx
	subq	$40, %rsp
	.cfi_offset %rbx, -24
	movl	$2070281768, -36(%rbp)  # imm = 0x7B65FE28
	movq	input, %rax
	movslq	2364(%rax), %rax
	movq	assignSE2partition(,%rax,8), %rax
	movl	(%rax), %eax
	movl	%eax, -40(%rbp)
	movq	img, %rax
	movq	14160(%rax), %rax
	movq	24(%rax), %rax
	movslq	-40(%rbp), %rcx
	imulq	$120, %rcx, %rcx
	addq	%rcx, %rax
	movq	%rax, -24(%rbp)
	movl	$0, -12(%rbp)
	movq	img, %rax
	movq	14152(%rax), %rax
	cmpl	$0, 4(%rax)
	je	.LBB6_2
# %bb.1:                                # %if.then
	movq	img, %rax
	movl	72504(%rax), %esi
	movq	-24(%rbp), %rdx
	movabsq	$.L.str.33, %rdi
	callq	u_1
	addl	-12(%rbp), %eax
	movl	%eax, -12(%rbp)
	movq	img, %rax
	movl	72508(%rax), %esi
	movq	-24(%rbp), %rdx
	movabsq	$.L.str.34, %rdi
	callq	u_1
	addl	-12(%rbp), %eax
	movl	%eax, -12(%rbp)
	jmp	.LBB6_20
.LBB6_2:                                # %if.else
	movq	img, %rax
	cmpq	$0, 72512(%rax)
	setne	%al
	andb	$1, %al
	movzbl	%al, %eax
	movq	img, %rcx
	movl	%eax, 72500(%rcx)
	movq	img, %rax
	movl	72500(%rax), %esi
	movq	-24(%rbp), %rdx
	movabsq	$.L.str.35, %rdi
	callq	u_1
	addl	-12(%rbp), %eax
	movl	%eax, -12(%rbp)
	movq	img, %rax
	cmpl	$0, 72500(%rax)
	je	.LBB6_19
# %bb.3:                                # %if.then11
	movq	img, %rax
	movq	72512(%rax), %rax
	movq	%rax, -32(%rbp)
.LBB6_4:                                # %do.body
                                        # =>This Inner Loop Header: Depth=1
	cmpq	$0, -32(%rbp)
	jne	.LBB6_6
# %bb.5:                                # %if.then15
                                        #   in Loop: Header=BB6_4 Depth=1
	movabsq	$.L.str.36, %rdi
	movl	$500, %esi              # imm = 0x1F4
	callq	error
.LBB6_6:                                # %if.end
                                        #   in Loop: Header=BB6_4 Depth=1
	movq	-32(%rbp), %rax
	movl	(%rax), %eax
	movl	%eax, -16(%rbp)
	movl	-16(%rbp), %esi
	movq	-24(%rbp), %rdx
	movabsq	$.L.str.37, %rdi
	callq	ue_v
	addl	-12(%rbp), %eax
	movl	%eax, -12(%rbp)
	cmpl	$1, -16(%rbp)
	je	.LBB6_8
# %bb.7:                                # %lor.lhs.false
                                        #   in Loop: Header=BB6_4 Depth=1
	cmpl	$3, -16(%rbp)
	jne	.LBB6_9
.LBB6_8:                                # %if.then22
                                        #   in Loop: Header=BB6_4 Depth=1
	movq	-32(%rbp), %rax
	movl	4(%rax), %esi
	movq	-24(%rbp), %rdx
	movabsq	$.L.str.38, %rdi
	callq	ue_v
	addl	$1, %eax
	addl	-12(%rbp), %eax
	movl	%eax, -12(%rbp)
.LBB6_9:                                # %if.end26
                                        #   in Loop: Header=BB6_4 Depth=1
	cmpl	$2, -16(%rbp)
	jne	.LBB6_11
# %bb.10:                               # %if.then29
                                        #   in Loop: Header=BB6_4 Depth=1
	movq	-32(%rbp), %rax
	movl	8(%rax), %esi
	movq	-24(%rbp), %rdx
	movabsq	$.L.str.39, %rdi
	callq	ue_v
	addl	-12(%rbp), %eax
	movl	%eax, -12(%rbp)
.LBB6_11:                               # %if.end32
                                        #   in Loop: Header=BB6_4 Depth=1
	cmpl	$3, -16(%rbp)
	je	.LBB6_13
# %bb.12:                               # %lor.lhs.false35
                                        #   in Loop: Header=BB6_4 Depth=1
	cmpl	$6, -16(%rbp)
	jne	.LBB6_14
.LBB6_13:                               # %if.then38
                                        #   in Loop: Header=BB6_4 Depth=1
	movq	-32(%rbp), %rax
	movl	12(%rax), %esi
	movq	-24(%rbp), %rdx
	movabsq	$.L.str.40, %rdi
	callq	ue_v
	addl	-12(%rbp), %eax
	movl	%eax, -12(%rbp)
.LBB6_14:                               # %if.end41
                                        #   in Loop: Header=BB6_4 Depth=1
	cmpl	$4, -16(%rbp)
	jne	.LBB6_16
# %bb.15:                               # %if.then44
                                        #   in Loop: Header=BB6_4 Depth=1
	movq	-32(%rbp), %rax
	movl	16(%rax), %esi
	movq	-24(%rbp), %rdx
	movabsq	$.L.str.41, %rdi
	callq	ue_v
	addl	-12(%rbp), %eax
	movl	%eax, -12(%rbp)
.LBB6_16:                               # %if.end47
                                        #   in Loop: Header=BB6_4 Depth=1
	movq	-32(%rbp), %rax
	movq	24(%rax), %rax
	movq	%rax, -32(%rbp)
# %bb.17:                               # %do.cond
                                        #   in Loop: Header=BB6_4 Depth=1
	cmpl	$0, -16(%rbp)
	jne	.LBB6_4
# %bb.18:                               # %do.end
	jmp	.LBB6_19
.LBB6_19:                               # %if.end50
	jmp	.LBB6_20
.LBB6_20:                               # %if.end51
	movl	-12(%rbp), %ebx
	cmpl	$2070281768, -36(%rbp)  # imm = 0x7B65FE28
	jne	.LBB6_22
.LBB6_21:
	movl	%ebx, %eax
	addq	$40, %rsp
	popq	%rbx
	popq	%rbp
	.cfi_def_cfa %rsp, 8
	retq
.LBB6_22:                               # %func_exit
	.cfi_def_cfa %rbp, 16
	callq	detect_breach
	jmp	.LBB6_21
.Lfunc_end6:
	.size	dec_ref_pic_marking.1, .Lfunc_end6-dec_ref_pic_marking.1
	.cfi_endproc
                                        # -- End function
	.globl	get_picture_type.2      # -- Begin function get_picture_type.2
	.p2align	4, 0x90
	.type	get_picture_type.2,@function
get_picture_type.2:                     # @get_picture_type.2
	.cfi_startproc
# %bb.0:                                # %entry
	pushq	%rbp
	.cfi_def_cfa_offset 16
	.cfi_offset %rbp, -16
	movq	%rsp, %rbp
	.cfi_def_cfa_register %rbp
	pushq	%rbx
	subq	$24, %rsp
	.cfi_offset %rbx, -24
	movl	$1546343500, -20(%rbp)  # imm = 0x5C2B544C
	movl	$5, -16(%rbp)
	movq	img(%rip), %rax
	movl	24(%rax), %eax
	movq	%rax, %rcx
	subq	$3, %rcx
	ja	.LBB7_6
# %bb.1:                                # %entry
	movq	.LJTI7_0(,%rax,8), %rax
	jmpq	*%rax
.LBB7_2:                                # %sw.bb
	movl	-16(%rbp), %eax
	addl	$2, %eax
	movl	%eax, -12(%rbp)
	jmp	.LBB7_8
.LBB7_3:                                # %sw.bb1
	movl	-16(%rbp), %eax
	addl	$0, %eax
	movl	%eax, -12(%rbp)
	jmp	.LBB7_8
.LBB7_4:                                # %sw.bb3
	movl	-16(%rbp), %eax
	addl	$1, %eax
	movl	%eax, -12(%rbp)
	jmp	.LBB7_8
.LBB7_5:                                # %sw.bb5
	movl	-16(%rbp), %eax
	addl	$3, %eax
	movl	%eax, -12(%rbp)
	jmp	.LBB7_8
.LBB7_6:                                # %sw.default
	movabsq	$.L.str.25, %rdi
	movl	$1, %esi
	callq	error
# %bb.7:                                # %sw.epilog
	movl	$0, -12(%rbp)
.LBB7_8:                                # %return
	movl	-12(%rbp), %ebx
	cmpl	$1546343500, -20(%rbp)  # imm = 0x5C2B544C
	jne	.LBB7_10
.LBB7_9:
	movl	%ebx, %eax
	addq	$24, %rsp
	popq	%rbx
	popq	%rbp
	.cfi_def_cfa %rsp, 8
	retq
.LBB7_10:                               # %func_exit
	.cfi_def_cfa %rbp, 16
	callq	detect_breach
	jmp	.LBB7_9
.Lfunc_end7:
	.size	get_picture_type.2, .Lfunc_end7-get_picture_type.2
	.cfi_endproc
	.section	.rodata,"a",@progbits
	.p2align	3
.LJTI7_0:
	.quad	.LBB7_3
	.quad	.LBB7_4
	.quad	.LBB7_2
	.quad	.LBB7_5
                                        # -- End function
	.text
	.p2align	4, 0x90         # -- Begin function dec_ref_pic_marking.3
	.type	dec_ref_pic_marking.3,@function
dec_ref_pic_marking.3:                  # @dec_ref_pic_marking.3
	.cfi_startproc
# %bb.0:                                # %entry
	pushq	%rbp
	.cfi_def_cfa_offset 16
	.cfi_offset %rbp, -16
	movq	%rsp, %rbp
	.cfi_def_cfa_register %rbp
	pushq	%rbx
	subq	$40, %rsp
	.cfi_offset %rbx, -24
	movl	$1166688560, -40(%rbp)  # imm = 0x458A4130
	movq	input, %rax
	movslq	2364(%rax), %rax
	movq	assignSE2partition(,%rax,8), %rax
	movl	(%rax), %eax
	movl	%eax, -36(%rbp)
	movq	img, %rax
	movq	14160(%rax), %rax
	movq	24(%rax), %rax
	movslq	-36(%rbp), %rcx
	imulq	$120, %rcx, %rcx
	addq	%rcx, %rax
	movq	%rax, -32(%rbp)
	movl	$0, -12(%rbp)
	movq	img, %rax
	movq	14152(%rax), %rax
	cmpl	$0, 4(%rax)
	je	.LBB8_2
# %bb.1:                                # %if.then
	movq	img, %rax
	movl	72504(%rax), %esi
	movq	-32(%rbp), %rdx
	movabsq	$.L.str.33, %rdi
	callq	u_1
	addl	-12(%rbp), %eax
	movl	%eax, -12(%rbp)
	movq	img, %rax
	movl	72508(%rax), %esi
	movq	-32(%rbp), %rdx
	movabsq	$.L.str.34, %rdi
	callq	u_1
	addl	-12(%rbp), %eax
	movl	%eax, -12(%rbp)
	jmp	.LBB8_20
.LBB8_2:                                # %if.else
	movq	img, %rax
	cmpq	$0, 72512(%rax)
	setne	%al
	andb	$1, %al
	movzbl	%al, %eax
	movq	img, %rcx
	movl	%eax, 72500(%rcx)
	movq	img, %rax
	movl	72500(%rax), %esi
	movq	-32(%rbp), %rdx
	movabsq	$.L.str.35, %rdi
	callq	u_1
	addl	-12(%rbp), %eax
	movl	%eax, -12(%rbp)
	movq	img, %rax
	cmpl	$0, 72500(%rax)
	je	.LBB8_19
# %bb.3:                                # %if.then11
	movq	img, %rax
	movq	72512(%rax), %rax
	movq	%rax, -24(%rbp)
.LBB8_4:                                # %do.body
                                        # =>This Inner Loop Header: Depth=1
	cmpq	$0, -24(%rbp)
	jne	.LBB8_6
# %bb.5:                                # %if.then15
                                        #   in Loop: Header=BB8_4 Depth=1
	movabsq	$.L.str.36, %rdi
	movl	$500, %esi              # imm = 0x1F4
	callq	error
.LBB8_6:                                # %if.end
                                        #   in Loop: Header=BB8_4 Depth=1
	movq	-24(%rbp), %rax
	movl	(%rax), %eax
	movl	%eax, -16(%rbp)
	movl	-16(%rbp), %esi
	movq	-32(%rbp), %rdx
	movabsq	$.L.str.37, %rdi
	callq	ue_v
	addl	-12(%rbp), %eax
	movl	%eax, -12(%rbp)
	cmpl	$1, -16(%rbp)
	je	.LBB8_8
# %bb.7:                                # %lor.lhs.false
                                        #   in Loop: Header=BB8_4 Depth=1
	cmpl	$3, -16(%rbp)
	jne	.LBB8_9
.LBB8_8:                                # %if.then22
                                        #   in Loop: Header=BB8_4 Depth=1
	movq	-24(%rbp), %rax
	movl	4(%rax), %esi
	movq	-32(%rbp), %rdx
	movabsq	$.L.str.38, %rdi
	callq	ue_v
	addl	$1, %eax
	addl	-12(%rbp), %eax
	movl	%eax, -12(%rbp)
.LBB8_9:                                # %if.end26
                                        #   in Loop: Header=BB8_4 Depth=1
	cmpl	$2, -16(%rbp)
	jne	.LBB8_11
# %bb.10:                               # %if.then29
                                        #   in Loop: Header=BB8_4 Depth=1
	movq	-24(%rbp), %rax
	movl	8(%rax), %esi
	movq	-32(%rbp), %rdx
	movabsq	$.L.str.39, %rdi
	callq	ue_v
	addl	-12(%rbp), %eax
	movl	%eax, -12(%rbp)
.LBB8_11:                               # %if.end32
                                        #   in Loop: Header=BB8_4 Depth=1
	cmpl	$3, -16(%rbp)
	je	.LBB8_13
# %bb.12:                               # %lor.lhs.false35
                                        #   in Loop: Header=BB8_4 Depth=1
	cmpl	$6, -16(%rbp)
	jne	.LBB8_14
.LBB8_13:                               # %if.then38
                                        #   in Loop: Header=BB8_4 Depth=1
	movq	-24(%rbp), %rax
	movl	12(%rax), %esi
	movq	-32(%rbp), %rdx
	movabsq	$.L.str.40, %rdi
	callq	ue_v
	addl	-12(%rbp), %eax
	movl	%eax, -12(%rbp)
.LBB8_14:                               # %if.end41
                                        #   in Loop: Header=BB8_4 Depth=1
	cmpl	$4, -16(%rbp)
	jne	.LBB8_16
# %bb.15:                               # %if.then44
                                        #   in Loop: Header=BB8_4 Depth=1
	movq	-24(%rbp), %rax
	movl	16(%rax), %esi
	movq	-32(%rbp), %rdx
	movabsq	$.L.str.41, %rdi
	callq	ue_v
	addl	-12(%rbp), %eax
	movl	%eax, -12(%rbp)
.LBB8_16:                               # %if.end47
                                        #   in Loop: Header=BB8_4 Depth=1
	movq	-24(%rbp), %rax
	movq	24(%rax), %rax
	movq	%rax, -24(%rbp)
# %bb.17:                               # %do.cond
                                        #   in Loop: Header=BB8_4 Depth=1
	cmpl	$0, -16(%rbp)
	jne	.LBB8_4
# %bb.18:                               # %do.end
	jmp	.LBB8_19
.LBB8_19:                               # %if.end50
	jmp	.LBB8_20
.LBB8_20:                               # %if.end51
	movl	-12(%rbp), %ebx
	cmpl	$1166688560, -40(%rbp)  # imm = 0x458A4130
	jne	.LBB8_22
.LBB8_21:
	movl	%ebx, %eax
	addq	$40, %rsp
	popq	%rbx
	popq	%rbp
	.cfi_def_cfa %rsp, 8
	retq
.LBB8_22:                               # %func_exit
	.cfi_def_cfa %rbp, 16
	callq	detect_breach
	jmp	.LBB8_21
.Lfunc_end8:
	.size	dec_ref_pic_marking.3, .Lfunc_end8-dec_ref_pic_marking.3
	.cfi_endproc
                                        # -- End function
	.p2align	4, 0x90         # -- Begin function pred_weight_table.4
	.type	pred_weight_table.4,@function
pred_weight_table.4:                    # @pred_weight_table.4
	.cfi_startproc
# %bb.0:                                # %entry
	pushq	%rbp
	.cfi_def_cfa_offset 16
	.cfi_offset %rbp, -16
	movq	%rsp, %rbp
	.cfi_def_cfa_register %rbp
	pushq	%rbx
	subq	$40, %rsp
	.cfi_offset %rbx, -24
	movl	$571324849, -36(%rbp)   # imm = 0x220DB9B1
	movq	input, %rax
	movslq	2364(%rax), %rax
	movq	assignSE2partition(,%rax,8), %rax
	movl	(%rax), %eax
	movl	%eax, -40(%rbp)
	movq	img, %rax
	movq	14160(%rax), %rax
	movq	24(%rax), %rax
	movslq	-40(%rbp), %rcx
	imulq	$120, %rcx, %rcx
	addq	%rcx, %rax
	movq	%rax, -32(%rbp)
	movl	$0, -12(%rbp)
	movl	luma_log_weight_denom, %esi
	movq	-32(%rbp), %rdx
	movabsq	$.L.str.42, %rdi
	callq	ue_v
	addl	-12(%rbp), %eax
	movl	%eax, -12(%rbp)
	movl	chroma_log_weight_denom, %esi
	movq	-32(%rbp), %rdx
	movabsq	$.L.str.43, %rdi
	callq	ue_v
	addl	-12(%rbp), %eax
	movl	%eax, -12(%rbp)
	movl	$0, -16(%rbp)
.LBB9_1:                                # %for.cond
                                        # =>This Loop Header: Depth=1
                                        #     Child Loop BB9_11 Depth 2
	movl	-16(%rbp), %eax
	movq	img, %rcx
	cmpl	72000(%rcx), %eax
	jge	.LBB9_18
# %bb.2:                                # %for.body
                                        #   in Loop: Header=BB9_1 Depth=1
	movq	wp_weight, %rax
	movq	(%rax), %rax
	movslq	-16(%rbp), %rcx
	movq	(%rax,%rcx,8), %rax
	movl	(%rax), %eax
	movl	luma_log_weight_denom, %ecx
                                        # kill: def $cl killed $ecx
	movl	$1, %edx
	shll	%cl, %edx
	cmpl	%edx, %eax
	jne	.LBB9_4
# %bb.3:                                # %lor.lhs.false
                                        #   in Loop: Header=BB9_1 Depth=1
	movq	wp_offset, %rax
	movq	(%rax), %rax
	movslq	-16(%rbp), %rcx
	movq	(%rax,%rcx,8), %rax
	cmpl	$0, (%rax)
	je	.LBB9_5
.LBB9_4:                                # %if.then
                                        #   in Loop: Header=BB9_1 Depth=1
	movq	-32(%rbp), %rdx
	movabsq	$.L.str.44, %rdi
	movl	$1, %esi
	callq	u_1
	addl	-12(%rbp), %eax
	movl	%eax, -12(%rbp)
	movq	wp_weight, %rax
	movq	(%rax), %rax
	movslq	-16(%rbp), %rcx
	movq	(%rax,%rcx,8), %rax
	movl	(%rax), %esi
	movq	-32(%rbp), %rdx
	movabsq	$.L.str.45, %rdi
	callq	se_v
	addl	-12(%rbp), %eax
	movl	%eax, -12(%rbp)
	movq	wp_offset, %rax
	movq	(%rax), %rax
	movslq	-16(%rbp), %rcx
	movq	(%rax,%rcx,8), %rax
	movl	(%rax), %esi
	movq	-32(%rbp), %rdx
	movabsq	$.L.str.46, %rdi
	callq	se_v
	addl	-12(%rbp), %eax
	movl	%eax, -12(%rbp)
	jmp	.LBB9_6
.LBB9_5:                                # %if.else
                                        #   in Loop: Header=BB9_1 Depth=1
	movq	-32(%rbp), %rdx
	movabsq	$.L.str.44, %rdi
	xorl	%esi, %esi
	callq	u_1
	addl	-12(%rbp), %eax
	movl	%eax, -12(%rbp)
.LBB9_6:                                # %if.end
                                        #   in Loop: Header=BB9_1 Depth=1
	movq	wp_weight, %rax
	movq	(%rax), %rax
	movslq	-16(%rbp), %rcx
	movq	(%rax,%rcx,8), %rax
	movl	4(%rax), %eax
	movl	chroma_log_weight_denom, %ecx
                                        # kill: def $cl killed $ecx
	movl	$1, %edx
	shll	%cl, %edx
	cmpl	%edx, %eax
	jne	.LBB9_10
# %bb.7:                                # %lor.lhs.false38
                                        #   in Loop: Header=BB9_1 Depth=1
	movq	wp_offset, %rax
	movq	(%rax), %rax
	movslq	-16(%rbp), %rcx
	movq	(%rax,%rcx,8), %rax
	cmpl	$0, 4(%rax)
	jne	.LBB9_10
# %bb.8:                                # %lor.lhs.false44
                                        #   in Loop: Header=BB9_1 Depth=1
	movq	wp_weight, %rax
	movq	(%rax), %rax
	movslq	-16(%rbp), %rcx
	movq	(%rax,%rcx,8), %rax
	movl	8(%rax), %eax
	movl	chroma_log_weight_denom, %ecx
                                        # kill: def $cl killed $ecx
	movl	$1, %edx
	shll	%cl, %edx
	cmpl	%edx, %eax
	jne	.LBB9_10
# %bb.9:                                # %lor.lhs.false51
                                        #   in Loop: Header=BB9_1 Depth=1
	movq	wp_offset, %rax
	movq	(%rax), %rax
	movslq	-16(%rbp), %rcx
	movq	(%rax,%rcx,8), %rax
	cmpl	$0, 8(%rax)
	je	.LBB9_15
.LBB9_10:                               # %if.then57
                                        #   in Loop: Header=BB9_1 Depth=1
	movq	-32(%rbp), %rdx
	movabsq	$.L.str.47, %rdi
	movl	$1, %esi
	callq	u_1
	addl	-12(%rbp), %eax
	movl	%eax, -12(%rbp)
	movl	$1, -20(%rbp)
.LBB9_11:                               # %for.cond60
                                        #   Parent Loop BB9_1 Depth=1
                                        # =>  This Inner Loop Header: Depth=2
	cmpl	$3, -20(%rbp)
	jge	.LBB9_14
# %bb.12:                               # %for.body62
                                        #   in Loop: Header=BB9_11 Depth=2
	movq	wp_weight, %rax
	movq	(%rax), %rax
	movslq	-16(%rbp), %rcx
	movq	(%rax,%rcx,8), %rax
	movslq	-20(%rbp), %rcx
	movl	(%rax,%rcx,4), %esi
	movq	-32(%rbp), %rdx
	movabsq	$.L.str.48, %rdi
	callq	se_v
	addl	-12(%rbp), %eax
	movl	%eax, -12(%rbp)
	movq	wp_offset, %rax
	movq	(%rax), %rax
	movslq	-16(%rbp), %rcx
	movq	(%rax,%rcx,8), %rax
	movslq	-20(%rbp), %rcx
	movl	(%rax,%rcx,4), %esi
	movq	-32(%rbp), %rdx
	movabsq	$.L.str.49, %rdi
	callq	se_v
	addl	-12(%rbp), %eax
	movl	%eax, -12(%rbp)
# %bb.13:                               # %for.inc
                                        #   in Loop: Header=BB9_11 Depth=2
	movl	-20(%rbp), %eax
	addl	$1, %eax
	movl	%eax, -20(%rbp)
	jmp	.LBB9_11
.LBB9_14:                               # %for.end
                                        #   in Loop: Header=BB9_1 Depth=1
	jmp	.LBB9_16
.LBB9_15:                               # %if.else77
                                        #   in Loop: Header=BB9_1 Depth=1
	movq	-32(%rbp), %rdx
	movabsq	$.L.str.47, %rdi
	xorl	%esi, %esi
	callq	u_1
	addl	-12(%rbp), %eax
	movl	%eax, -12(%rbp)
.LBB9_16:                               # %if.end80
                                        #   in Loop: Header=BB9_1 Depth=1
	jmp	.LBB9_17
.LBB9_17:                               # %for.inc81
                                        #   in Loop: Header=BB9_1 Depth=1
	movl	-16(%rbp), %eax
	addl	$1, %eax
	movl	%eax, -16(%rbp)
	jmp	.LBB9_1
.LBB9_18:                               # %for.end83
	movq	img, %rax
	cmpl	$1, 24(%rax)
	jne	.LBB9_38
# %bb.19:                               # %if.then85
	movl	$0, -16(%rbp)
.LBB9_20:                               # %for.cond86
                                        # =>This Loop Header: Depth=1
                                        #     Child Loop BB9_30 Depth 2
	movl	-16(%rbp), %eax
	movq	img, %rcx
	cmpl	72004(%rcx), %eax
	jge	.LBB9_37
# %bb.21:                               # %for.body88
                                        #   in Loop: Header=BB9_20 Depth=1
	movq	wp_weight, %rax
	movq	8(%rax), %rax
	movslq	-16(%rbp), %rcx
	movq	(%rax,%rcx,8), %rax
	movl	(%rax), %eax
	movl	luma_log_weight_denom, %ecx
                                        # kill: def $cl killed $ecx
	movl	$1, %edx
	shll	%cl, %edx
	cmpl	%edx, %eax
	jne	.LBB9_23
# %bb.22:                               # %lor.lhs.false95
                                        #   in Loop: Header=BB9_20 Depth=1
	movq	wp_offset, %rax
	movq	8(%rax), %rax
	movslq	-16(%rbp), %rcx
	movq	(%rax,%rcx,8), %rax
	cmpl	$0, (%rax)
	je	.LBB9_24
.LBB9_23:                               # %if.then101
                                        #   in Loop: Header=BB9_20 Depth=1
	movq	-32(%rbp), %rdx
	movabsq	$.L.str.50, %rdi
	movl	$1, %esi
	callq	u_1
	addl	-12(%rbp), %eax
	movl	%eax, -12(%rbp)
	movq	wp_weight, %rax
	movq	8(%rax), %rax
	movslq	-16(%rbp), %rcx
	movq	(%rax,%rcx,8), %rax
	movl	(%rax), %esi
	movq	-32(%rbp), %rdx
	movabsq	$.L.str.51, %rdi
	callq	se_v
	addl	-12(%rbp), %eax
	movl	%eax, -12(%rbp)
	movq	wp_offset, %rax
	movq	8(%rax), %rax
	movslq	-16(%rbp), %rcx
	movq	(%rax,%rcx,8), %rax
	movl	(%rax), %esi
	movq	-32(%rbp), %rdx
	movabsq	$.L.str.52, %rdi
	callq	se_v
	addl	-12(%rbp), %eax
	movl	%eax, -12(%rbp)
	jmp	.LBB9_25
.LBB9_24:                               # %if.else116
                                        #   in Loop: Header=BB9_20 Depth=1
	movq	-32(%rbp), %rdx
	movabsq	$.L.str.50, %rdi
	xorl	%esi, %esi
	callq	u_1
	addl	-12(%rbp), %eax
	movl	%eax, -12(%rbp)
.LBB9_25:                               # %if.end119
                                        #   in Loop: Header=BB9_20 Depth=1
	movq	wp_weight, %rax
	movq	8(%rax), %rax
	movslq	-16(%rbp), %rcx
	movq	(%rax,%rcx,8), %rax
	movl	4(%rax), %eax
	movl	chroma_log_weight_denom, %ecx
                                        # kill: def $cl killed $ecx
	movl	$1, %edx
	shll	%cl, %edx
	cmpl	%edx, %eax
	jne	.LBB9_29
# %bb.26:                               # %lor.lhs.false126
                                        #   in Loop: Header=BB9_20 Depth=1
	movq	wp_offset, %rax
	movq	8(%rax), %rax
	movslq	-16(%rbp), %rcx
	movq	(%rax,%rcx,8), %rax
	cmpl	$0, 4(%rax)
	jne	.LBB9_29
# %bb.27:                               # %lor.lhs.false132
                                        #   in Loop: Header=BB9_20 Depth=1
	movq	wp_weight, %rax
	movq	8(%rax), %rax
	movslq	-16(%rbp), %rcx
	movq	(%rax,%rcx,8), %rax
	movl	8(%rax), %eax
	movl	chroma_log_weight_denom, %ecx
                                        # kill: def $cl killed $ecx
	movl	$1, %edx
	shll	%cl, %edx
	cmpl	%edx, %eax
	jne	.LBB9_29
# %bb.28:                               # %lor.lhs.false139
                                        #   in Loop: Header=BB9_20 Depth=1
	movq	wp_offset, %rax
	movq	8(%rax), %rax
	movslq	-16(%rbp), %rcx
	movq	(%rax,%rcx,8), %rax
	cmpl	$0, 8(%rax)
	je	.LBB9_34
.LBB9_29:                               # %if.then145
                                        #   in Loop: Header=BB9_20 Depth=1
	movq	-32(%rbp), %rdx
	movabsq	$.L.str.53, %rdi
	movl	$1, %esi
	callq	u_1
	addl	-12(%rbp), %eax
	movl	%eax, -12(%rbp)
	movl	$1, -20(%rbp)
.LBB9_30:                               # %for.cond148
                                        #   Parent Loop BB9_20 Depth=1
                                        # =>  This Inner Loop Header: Depth=2
	cmpl	$3, -20(%rbp)
	jge	.LBB9_33
# %bb.31:                               # %for.body150
                                        #   in Loop: Header=BB9_30 Depth=2
	movq	wp_weight, %rax
	movq	8(%rax), %rax
	movslq	-16(%rbp), %rcx
	movq	(%rax,%rcx,8), %rax
	movslq	-20(%rbp), %rcx
	movl	(%rax,%rcx,4), %esi
	movq	-32(%rbp), %rdx
	movabsq	$.L.str.54, %rdi
	callq	se_v
	addl	-12(%rbp), %eax
	movl	%eax, -12(%rbp)
	movq	wp_offset, %rax
	movq	8(%rax), %rax
	movslq	-16(%rbp), %rcx
	movq	(%rax,%rcx,8), %rax
	movslq	-20(%rbp), %rcx
	movl	(%rax,%rcx,4), %esi
	movq	-32(%rbp), %rdx
	movabsq	$.L.str.55, %rdi
	callq	se_v
	addl	-12(%rbp), %eax
	movl	%eax, -12(%rbp)
# %bb.32:                               # %for.inc165
                                        #   in Loop: Header=BB9_30 Depth=2
	movl	-20(%rbp), %eax
	addl	$1, %eax
	movl	%eax, -20(%rbp)
	jmp	.LBB9_30
.LBB9_33:                               # %for.end167
                                        #   in Loop: Header=BB9_20 Depth=1
	jmp	.LBB9_35
.LBB9_34:                               # %if.else168
                                        #   in Loop: Header=BB9_20 Depth=1
	movq	-32(%rbp), %rdx
	movabsq	$.L.str.53, %rdi
	xorl	%esi, %esi
	callq	u_1
	addl	-12(%rbp), %eax
	movl	%eax, -12(%rbp)
.LBB9_35:                               # %if.end171
                                        #   in Loop: Header=BB9_20 Depth=1
	jmp	.LBB9_36
.LBB9_36:                               # %for.inc172
                                        #   in Loop: Header=BB9_20 Depth=1
	movl	-16(%rbp), %eax
	addl	$1, %eax
	movl	%eax, -16(%rbp)
	jmp	.LBB9_20
.LBB9_37:                               # %for.end174
	jmp	.LBB9_38
.LBB9_38:                               # %if.end175
	movl	-12(%rbp), %ebx
	cmpl	$571324849, -36(%rbp)   # imm = 0x220DB9B1
	jne	.LBB9_40
.LBB9_39:
	movl	%ebx, %eax
	addq	$40, %rsp
	popq	%rbx
	popq	%rbp
	.cfi_def_cfa %rsp, 8
	retq
.LBB9_40:                               # %func_exit
	.cfi_def_cfa %rbp, 16
	callq	detect_breach
	jmp	.LBB9_39
.Lfunc_end9:
	.size	pred_weight_table.4, .Lfunc_end9-pred_weight_table.4
	.cfi_endproc
                                        # -- End function
	.globl	Partition_BC_Header.5   # -- Begin function Partition_BC_Header.5
	.p2align	4, 0x90
	.type	Partition_BC_Header.5,@function
Partition_BC_Header.5:                  # @Partition_BC_Header.5
	.cfi_startproc
# %bb.0:                                # %entry
	pushq	%rbp
	.cfi_def_cfa_offset 16
	.cfi_offset %rbp, -16
	movq	%rsp, %rbp
	.cfi_def_cfa_register %rbp
	pushq	%rbx
	subq	$88, %rsp
	.cfi_offset %rbx, -24
	movl	$805293161, -28(%rbp)   # imm = 0x2FFFCC69
	movl	%edi, -32(%rbp)
	movq	img, %rax
	movq	14160(%rax), %rax
	movq	24(%rax), %rax
	movslq	-32(%rbp), %rcx
	imulq	$120, %rcx, %rcx
	addq	%rcx, %rax
	movq	%rax, -40(%rbp)
	leaq	-88(%rbp), %rax
	movq	%rax, -24(%rbp)
	movl	$0, -12(%rbp)
	movq	-24(%rbp), %rax
	movl	$0, (%rax)
	movq	-24(%rbp), %rax
	movabsq	$ue_linfo, %rcx
	movq	%rcx, 32(%rax)
	movq	-24(%rbp), %rax
	movl	$0, 8(%rax)
	movq	img, %rax
	movl	20(%rax), %eax
	movq	-24(%rbp), %rcx
	movl	%eax, 4(%rcx)
	movq	-24(%rbp), %rdi
	movq	-40(%rbp), %rsi
	callq	writeSyntaxElement_UVLC
	addl	-12(%rbp), %eax
	movl	%eax, -12(%rbp)
	movq	active_pps, %rax
	cmpl	$0, 228(%rax)
	je	.LBB10_2
# %bb.1:                                # %if.then
	movq	img, %rax
	movq	14160(%rax), %rax
	movl	(%rax), %eax
	movq	-24(%rbp), %rcx
	movl	%eax, 4(%rcx)
	movq	-24(%rbp), %rdi
	movq	-40(%rbp), %rsi
	callq	writeSyntaxElement_UVLC
	addl	-12(%rbp), %eax
	movl	%eax, -12(%rbp)
.LBB10_2:                               # %if.end
	movl	-12(%rbp), %ebx
	cmpl	$805293161, -28(%rbp)   # imm = 0x2FFFCC69
	jne	.LBB10_4
.LBB10_3:
	movl	%ebx, %eax
	addq	$88, %rsp
	popq	%rbx
	popq	%rbp
	.cfi_def_cfa %rsp, 8
	retq
.LBB10_4:                               # %func_exit
	.cfi_def_cfa %rbp, 16
	callq	detect_breach
	jmp	.LBB10_3
.Lfunc_end10:
	.size	Partition_BC_Header.5, .Lfunc_end10-Partition_BC_Header.5
	.cfi_endproc
                                        # -- End function
	.globl	Partition_BC_Header.6   # -- Begin function Partition_BC_Header.6
	.p2align	4, 0x90
	.type	Partition_BC_Header.6,@function
Partition_BC_Header.6:                  # @Partition_BC_Header.6
	.cfi_startproc
# %bb.0:                                # %entry
	pushq	%rbp
	.cfi_def_cfa_offset 16
	.cfi_offset %rbp, -16
	movq	%rsp, %rbp
	.cfi_def_cfa_register %rbp
	pushq	%rbx
	subq	$88, %rsp
	.cfi_offset %rbx, -24
	movl	$645288004, -28(%rbp)   # imm = 0x26765044
	movl	%edi, -32(%rbp)
	movq	img, %rax
	movq	14160(%rax), %rax
	movq	24(%rax), %rax
	movslq	-32(%rbp), %rcx
	imulq	$120, %rcx, %rcx
	addq	%rcx, %rax
	movq	%rax, -40(%rbp)
	leaq	-88(%rbp), %rax
	movq	%rax, -24(%rbp)
	movl	$0, -12(%rbp)
	movq	-24(%rbp), %rax
	movl	$0, (%rax)
	movq	-24(%rbp), %rax
	movabsq	$ue_linfo, %rcx
	movq	%rcx, 32(%rax)
	movq	-24(%rbp), %rax
	movl	$0, 8(%rax)
	movq	img, %rax
	movl	20(%rax), %eax
	movq	-24(%rbp), %rcx
	movl	%eax, 4(%rcx)
	movq	-24(%rbp), %rdi
	movq	-40(%rbp), %rsi
	callq	writeSyntaxElement_UVLC
	addl	-12(%rbp), %eax
	movl	%eax, -12(%rbp)
	movq	active_pps, %rax
	cmpl	$0, 228(%rax)
	je	.LBB11_2
# %bb.1:                                # %if.then
	movq	img, %rax
	movq	14160(%rax), %rax
	movl	(%rax), %eax
	movq	-24(%rbp), %rcx
	movl	%eax, 4(%rcx)
	movq	-24(%rbp), %rdi
	movq	-40(%rbp), %rsi
	callq	writeSyntaxElement_UVLC
	addl	-12(%rbp), %eax
	movl	%eax, -12(%rbp)
.LBB11_2:                               # %if.end
	movl	-12(%rbp), %ebx
	cmpl	$645288004, -28(%rbp)   # imm = 0x26765044
	jne	.LBB11_4
.LBB11_3:
	movl	%ebx, %eax
	addq	$88, %rsp
	popq	%rbx
	popq	%rbp
	.cfi_def_cfa %rsp, 8
	retq
.LBB11_4:                               # %func_exit
	.cfi_def_cfa %rbp, 16
	callq	detect_breach
	jmp	.LBB11_3
.Lfunc_end11:
	.size	Partition_BC_Header.6, .Lfunc_end11-Partition_BC_Header.6
	.cfi_endproc
                                        # -- End function
	.globl	get_picture_type.7      # -- Begin function get_picture_type.7
	.p2align	4, 0x90
	.type	get_picture_type.7,@function
get_picture_type.7:                     # @get_picture_type.7
	.cfi_startproc
# %bb.0:                                # %entry
	pushq	%rbp
	.cfi_def_cfa_offset 16
	.cfi_offset %rbp, -16
	movq	%rsp, %rbp
	.cfi_def_cfa_register %rbp
	pushq	%rbx
	subq	$24, %rsp
	.cfi_offset %rbx, -24
	movl	$637789799, -20(%rbp)   # imm = 0x2603E667
	movl	$5, -16(%rbp)
	movq	img(%rip), %rax
	movl	24(%rax), %eax
	movq	%rax, %rcx
	subq	$3, %rcx
	ja	.LBB12_6
# %bb.1:                                # %entry
	movq	.LJTI12_0(,%rax,8), %rax
	jmpq	*%rax
.LBB12_2:                               # %sw.bb
	movl	-16(%rbp), %eax
	addl	$2, %eax
	movl	%eax, -12(%rbp)
	jmp	.LBB12_8
.LBB12_3:                               # %sw.bb1
	movl	-16(%rbp), %eax
	addl	$0, %eax
	movl	%eax, -12(%rbp)
	jmp	.LBB12_8
.LBB12_4:                               # %sw.bb3
	movl	-16(%rbp), %eax
	addl	$1, %eax
	movl	%eax, -12(%rbp)
	jmp	.LBB12_8
.LBB12_5:                               # %sw.bb5
	movl	-16(%rbp), %eax
	addl	$3, %eax
	movl	%eax, -12(%rbp)
	jmp	.LBB12_8
.LBB12_6:                               # %sw.default
	movabsq	$.L.str.25, %rdi
	movl	$1, %esi
	callq	error
# %bb.7:                                # %sw.epilog
	movl	$0, -12(%rbp)
.LBB12_8:                               # %return
	movl	-12(%rbp), %ebx
	cmpl	$637789799, -20(%rbp)   # imm = 0x2603E667
	jne	.LBB12_10
.LBB12_9:
	movl	%ebx, %eax
	addq	$24, %rsp
	popq	%rbx
	popq	%rbp
	.cfi_def_cfa %rsp, 8
	retq
.LBB12_10:                              # %func_exit
	.cfi_def_cfa %rbp, 16
	callq	detect_breach
	jmp	.LBB12_9
.Lfunc_end12:
	.size	get_picture_type.7, .Lfunc_end12-get_picture_type.7
	.cfi_endproc
	.section	.rodata,"a",@progbits
	.p2align	3
.LJTI12_0:
	.quad	.LBB12_3
	.quad	.LBB12_4
	.quad	.LBB12_2
	.quad	.LBB12_5
                                        # -- End function
	.text
	.p2align	4, 0x90         # -- Begin function pred_weight_table.8
	.type	pred_weight_table.8,@function
pred_weight_table.8:                    # @pred_weight_table.8
	.cfi_startproc
# %bb.0:                                # %entry
	pushq	%rbp
	.cfi_def_cfa_offset 16
	.cfi_offset %rbp, -16
	movq	%rsp, %rbp
	.cfi_def_cfa_register %rbp
	pushq	%rbx
	subq	$40, %rsp
	.cfi_offset %rbx, -24
	movl	$1200307706, -40(%rbp)  # imm = 0x478B3DFA
	movq	input, %rax
	movslq	2364(%rax), %rax
	movq	assignSE2partition(,%rax,8), %rax
	movl	(%rax), %eax
	movl	%eax, -36(%rbp)
	movq	img, %rax
	movq	14160(%rax), %rax
	movq	24(%rax), %rax
	movslq	-36(%rbp), %rcx
	imulq	$120, %rcx, %rcx
	addq	%rcx, %rax
	movq	%rax, -32(%rbp)
	movl	$0, -12(%rbp)
	movl	luma_log_weight_denom, %esi
	movq	-32(%rbp), %rdx
	movabsq	$.L.str.42, %rdi
	callq	ue_v
	addl	-12(%rbp), %eax
	movl	%eax, -12(%rbp)
	movl	chroma_log_weight_denom, %esi
	movq	-32(%rbp), %rdx
	movabsq	$.L.str.43, %rdi
	callq	ue_v
	addl	-12(%rbp), %eax
	movl	%eax, -12(%rbp)
	movl	$0, -16(%rbp)
.LBB13_1:                               # %for.cond
                                        # =>This Loop Header: Depth=1
                                        #     Child Loop BB13_11 Depth 2
	movl	-16(%rbp), %eax
	movq	img, %rcx
	cmpl	72000(%rcx), %eax
	jge	.LBB13_18
# %bb.2:                                # %for.body
                                        #   in Loop: Header=BB13_1 Depth=1
	movq	wp_weight, %rax
	movq	(%rax), %rax
	movslq	-16(%rbp), %rcx
	movq	(%rax,%rcx,8), %rax
	movl	(%rax), %eax
	movl	luma_log_weight_denom, %ecx
                                        # kill: def $cl killed $ecx
	movl	$1, %edx
	shll	%cl, %edx
	cmpl	%edx, %eax
	jne	.LBB13_4
# %bb.3:                                # %lor.lhs.false
                                        #   in Loop: Header=BB13_1 Depth=1
	movq	wp_offset, %rax
	movq	(%rax), %rax
	movslq	-16(%rbp), %rcx
	movq	(%rax,%rcx,8), %rax
	cmpl	$0, (%rax)
	je	.LBB13_5
.LBB13_4:                               # %if.then
                                        #   in Loop: Header=BB13_1 Depth=1
	movq	-32(%rbp), %rdx
	movabsq	$.L.str.44, %rdi
	movl	$1, %esi
	callq	u_1
	addl	-12(%rbp), %eax
	movl	%eax, -12(%rbp)
	movq	wp_weight, %rax
	movq	(%rax), %rax
	movslq	-16(%rbp), %rcx
	movq	(%rax,%rcx,8), %rax
	movl	(%rax), %esi
	movq	-32(%rbp), %rdx
	movabsq	$.L.str.45, %rdi
	callq	se_v
	addl	-12(%rbp), %eax
	movl	%eax, -12(%rbp)
	movq	wp_offset, %rax
	movq	(%rax), %rax
	movslq	-16(%rbp), %rcx
	movq	(%rax,%rcx,8), %rax
	movl	(%rax), %esi
	movq	-32(%rbp), %rdx
	movabsq	$.L.str.46, %rdi
	callq	se_v
	addl	-12(%rbp), %eax
	movl	%eax, -12(%rbp)
	jmp	.LBB13_6
.LBB13_5:                               # %if.else
                                        #   in Loop: Header=BB13_1 Depth=1
	movq	-32(%rbp), %rdx
	movabsq	$.L.str.44, %rdi
	xorl	%esi, %esi
	callq	u_1
	addl	-12(%rbp), %eax
	movl	%eax, -12(%rbp)
.LBB13_6:                               # %if.end
                                        #   in Loop: Header=BB13_1 Depth=1
	movq	wp_weight, %rax
	movq	(%rax), %rax
	movslq	-16(%rbp), %rcx
	movq	(%rax,%rcx,8), %rax
	movl	4(%rax), %eax
	movl	chroma_log_weight_denom, %ecx
                                        # kill: def $cl killed $ecx
	movl	$1, %edx
	shll	%cl, %edx
	cmpl	%edx, %eax
	jne	.LBB13_10
# %bb.7:                                # %lor.lhs.false38
                                        #   in Loop: Header=BB13_1 Depth=1
	movq	wp_offset, %rax
	movq	(%rax), %rax
	movslq	-16(%rbp), %rcx
	movq	(%rax,%rcx,8), %rax
	cmpl	$0, 4(%rax)
	jne	.LBB13_10
# %bb.8:                                # %lor.lhs.false44
                                        #   in Loop: Header=BB13_1 Depth=1
	movq	wp_weight, %rax
	movq	(%rax), %rax
	movslq	-16(%rbp), %rcx
	movq	(%rax,%rcx,8), %rax
	movl	8(%rax), %eax
	movl	chroma_log_weight_denom, %ecx
                                        # kill: def $cl killed $ecx
	movl	$1, %edx
	shll	%cl, %edx
	cmpl	%edx, %eax
	jne	.LBB13_10
# %bb.9:                                # %lor.lhs.false51
                                        #   in Loop: Header=BB13_1 Depth=1
	movq	wp_offset, %rax
	movq	(%rax), %rax
	movslq	-16(%rbp), %rcx
	movq	(%rax,%rcx,8), %rax
	cmpl	$0, 8(%rax)
	je	.LBB13_15
.LBB13_10:                              # %if.then57
                                        #   in Loop: Header=BB13_1 Depth=1
	movq	-32(%rbp), %rdx
	movabsq	$.L.str.47, %rdi
	movl	$1, %esi
	callq	u_1
	addl	-12(%rbp), %eax
	movl	%eax, -12(%rbp)
	movl	$1, -20(%rbp)
.LBB13_11:                              # %for.cond60
                                        #   Parent Loop BB13_1 Depth=1
                                        # =>  This Inner Loop Header: Depth=2
	cmpl	$3, -20(%rbp)
	jge	.LBB13_14
# %bb.12:                               # %for.body62
                                        #   in Loop: Header=BB13_11 Depth=2
	movq	wp_weight, %rax
	movq	(%rax), %rax
	movslq	-16(%rbp), %rcx
	movq	(%rax,%rcx,8), %rax
	movslq	-20(%rbp), %rcx
	movl	(%rax,%rcx,4), %esi
	movq	-32(%rbp), %rdx
	movabsq	$.L.str.48, %rdi
	callq	se_v
	addl	-12(%rbp), %eax
	movl	%eax, -12(%rbp)
	movq	wp_offset, %rax
	movq	(%rax), %rax
	movslq	-16(%rbp), %rcx
	movq	(%rax,%rcx,8), %rax
	movslq	-20(%rbp), %rcx
	movl	(%rax,%rcx,4), %esi
	movq	-32(%rbp), %rdx
	movabsq	$.L.str.49, %rdi
	callq	se_v
	addl	-12(%rbp), %eax
	movl	%eax, -12(%rbp)
# %bb.13:                               # %for.inc
                                        #   in Loop: Header=BB13_11 Depth=2
	movl	-20(%rbp), %eax
	addl	$1, %eax
	movl	%eax, -20(%rbp)
	jmp	.LBB13_11
.LBB13_14:                              # %for.end
                                        #   in Loop: Header=BB13_1 Depth=1
	jmp	.LBB13_16
.LBB13_15:                              # %if.else77
                                        #   in Loop: Header=BB13_1 Depth=1
	movq	-32(%rbp), %rdx
	movabsq	$.L.str.47, %rdi
	xorl	%esi, %esi
	callq	u_1
	addl	-12(%rbp), %eax
	movl	%eax, -12(%rbp)
.LBB13_16:                              # %if.end80
                                        #   in Loop: Header=BB13_1 Depth=1
	jmp	.LBB13_17
.LBB13_17:                              # %for.inc81
                                        #   in Loop: Header=BB13_1 Depth=1
	movl	-16(%rbp), %eax
	addl	$1, %eax
	movl	%eax, -16(%rbp)
	jmp	.LBB13_1
.LBB13_18:                              # %for.end83
	movq	img, %rax
	cmpl	$1, 24(%rax)
	jne	.LBB13_38
# %bb.19:                               # %if.then85
	movl	$0, -16(%rbp)
.LBB13_20:                              # %for.cond86
                                        # =>This Loop Header: Depth=1
                                        #     Child Loop BB13_30 Depth 2
	movl	-16(%rbp), %eax
	movq	img, %rcx
	cmpl	72004(%rcx), %eax
	jge	.LBB13_37
# %bb.21:                               # %for.body88
                                        #   in Loop: Header=BB13_20 Depth=1
	movq	wp_weight, %rax
	movq	8(%rax), %rax
	movslq	-16(%rbp), %rcx
	movq	(%rax,%rcx,8), %rax
	movl	(%rax), %eax
	movl	luma_log_weight_denom, %ecx
                                        # kill: def $cl killed $ecx
	movl	$1, %edx
	shll	%cl, %edx
	cmpl	%edx, %eax
	jne	.LBB13_23
# %bb.22:                               # %lor.lhs.false95
                                        #   in Loop: Header=BB13_20 Depth=1
	movq	wp_offset, %rax
	movq	8(%rax), %rax
	movslq	-16(%rbp), %rcx
	movq	(%rax,%rcx,8), %rax
	cmpl	$0, (%rax)
	je	.LBB13_24
.LBB13_23:                              # %if.then101
                                        #   in Loop: Header=BB13_20 Depth=1
	movq	-32(%rbp), %rdx
	movabsq	$.L.str.50, %rdi
	movl	$1, %esi
	callq	u_1
	addl	-12(%rbp), %eax
	movl	%eax, -12(%rbp)
	movq	wp_weight, %rax
	movq	8(%rax), %rax
	movslq	-16(%rbp), %rcx
	movq	(%rax,%rcx,8), %rax
	movl	(%rax), %esi
	movq	-32(%rbp), %rdx
	movabsq	$.L.str.51, %rdi
	callq	se_v
	addl	-12(%rbp), %eax
	movl	%eax, -12(%rbp)
	movq	wp_offset, %rax
	movq	8(%rax), %rax
	movslq	-16(%rbp), %rcx
	movq	(%rax,%rcx,8), %rax
	movl	(%rax), %esi
	movq	-32(%rbp), %rdx
	movabsq	$.L.str.52, %rdi
	callq	se_v
	addl	-12(%rbp), %eax
	movl	%eax, -12(%rbp)
	jmp	.LBB13_25
.LBB13_24:                              # %if.else116
                                        #   in Loop: Header=BB13_20 Depth=1
	movq	-32(%rbp), %rdx
	movabsq	$.L.str.50, %rdi
	xorl	%esi, %esi
	callq	u_1
	addl	-12(%rbp), %eax
	movl	%eax, -12(%rbp)
.LBB13_25:                              # %if.end119
                                        #   in Loop: Header=BB13_20 Depth=1
	movq	wp_weight, %rax
	movq	8(%rax), %rax
	movslq	-16(%rbp), %rcx
	movq	(%rax,%rcx,8), %rax
	movl	4(%rax), %eax
	movl	chroma_log_weight_denom, %ecx
                                        # kill: def $cl killed $ecx
	movl	$1, %edx
	shll	%cl, %edx
	cmpl	%edx, %eax
	jne	.LBB13_29
# %bb.26:                               # %lor.lhs.false126
                                        #   in Loop: Header=BB13_20 Depth=1
	movq	wp_offset, %rax
	movq	8(%rax), %rax
	movslq	-16(%rbp), %rcx
	movq	(%rax,%rcx,8), %rax
	cmpl	$0, 4(%rax)
	jne	.LBB13_29
# %bb.27:                               # %lor.lhs.false132
                                        #   in Loop: Header=BB13_20 Depth=1
	movq	wp_weight, %rax
	movq	8(%rax), %rax
	movslq	-16(%rbp), %rcx
	movq	(%rax,%rcx,8), %rax
	movl	8(%rax), %eax
	movl	chroma_log_weight_denom, %ecx
                                        # kill: def $cl killed $ecx
	movl	$1, %edx
	shll	%cl, %edx
	cmpl	%edx, %eax
	jne	.LBB13_29
# %bb.28:                               # %lor.lhs.false139
                                        #   in Loop: Header=BB13_20 Depth=1
	movq	wp_offset, %rax
	movq	8(%rax), %rax
	movslq	-16(%rbp), %rcx
	movq	(%rax,%rcx,8), %rax
	cmpl	$0, 8(%rax)
	je	.LBB13_34
.LBB13_29:                              # %if.then145
                                        #   in Loop: Header=BB13_20 Depth=1
	movq	-32(%rbp), %rdx
	movabsq	$.L.str.53, %rdi
	movl	$1, %esi
	callq	u_1
	addl	-12(%rbp), %eax
	movl	%eax, -12(%rbp)
	movl	$1, -20(%rbp)
.LBB13_30:                              # %for.cond148
                                        #   Parent Loop BB13_20 Depth=1
                                        # =>  This Inner Loop Header: Depth=2
	cmpl	$3, -20(%rbp)
	jge	.LBB13_33
# %bb.31:                               # %for.body150
                                        #   in Loop: Header=BB13_30 Depth=2
	movq	wp_weight, %rax
	movq	8(%rax), %rax
	movslq	-16(%rbp), %rcx
	movq	(%rax,%rcx,8), %rax
	movslq	-20(%rbp), %rcx
	movl	(%rax,%rcx,4), %esi
	movq	-32(%rbp), %rdx
	movabsq	$.L.str.54, %rdi
	callq	se_v
	addl	-12(%rbp), %eax
	movl	%eax, -12(%rbp)
	movq	wp_offset, %rax
	movq	8(%rax), %rax
	movslq	-16(%rbp), %rcx
	movq	(%rax,%rcx,8), %rax
	movslq	-20(%rbp), %rcx
	movl	(%rax,%rcx,4), %esi
	movq	-32(%rbp), %rdx
	movabsq	$.L.str.55, %rdi
	callq	se_v
	addl	-12(%rbp), %eax
	movl	%eax, -12(%rbp)
# %bb.32:                               # %for.inc165
                                        #   in Loop: Header=BB13_30 Depth=2
	movl	-20(%rbp), %eax
	addl	$1, %eax
	movl	%eax, -20(%rbp)
	jmp	.LBB13_30
.LBB13_33:                              # %for.end167
                                        #   in Loop: Header=BB13_20 Depth=1
	jmp	.LBB13_35
.LBB13_34:                              # %if.else168
                                        #   in Loop: Header=BB13_20 Depth=1
	movq	-32(%rbp), %rdx
	movabsq	$.L.str.53, %rdi
	xorl	%esi, %esi
	callq	u_1
	addl	-12(%rbp), %eax
	movl	%eax, -12(%rbp)
.LBB13_35:                              # %if.end171
                                        #   in Loop: Header=BB13_20 Depth=1
	jmp	.LBB13_36
.LBB13_36:                              # %for.inc172
                                        #   in Loop: Header=BB13_20 Depth=1
	movl	-16(%rbp), %eax
	addl	$1, %eax
	movl	%eax, -16(%rbp)
	jmp	.LBB13_20
.LBB13_37:                              # %for.end174
	jmp	.LBB13_38
.LBB13_38:                              # %if.end175
	movl	-12(%rbp), %ebx
	cmpl	$1200307706, -40(%rbp)  # imm = 0x478B3DFA
	jne	.LBB13_40
.LBB13_39:
	movl	%ebx, %eax
	addq	$40, %rsp
	popq	%rbx
	popq	%rbp
	.cfi_def_cfa %rsp, 8
	retq
.LBB13_40:                              # %func_exit
	.cfi_def_cfa %rbp, 16
	callq	detect_breach
	jmp	.LBB13_39
.Lfunc_end13:
	.size	pred_weight_table.8, .Lfunc_end13-pred_weight_table.8
	.cfi_endproc
                                        # -- End function
	.p2align	4, 0x90         # -- Begin function dec_ref_pic_marking.9
	.type	dec_ref_pic_marking.9,@function
dec_ref_pic_marking.9:                  # @dec_ref_pic_marking.9
	.cfi_startproc
# %bb.0:                                # %entry
	pushq	%rbp
	.cfi_def_cfa_offset 16
	.cfi_offset %rbp, -16
	movq	%rsp, %rbp
	.cfi_def_cfa_register %rbp
	pushq	%rbx
	subq	$40, %rsp
	.cfi_offset %rbx, -24
	movl	$1705910819, -36(%rbp)  # imm = 0x65AE2223
	movq	input, %rax
	movslq	2364(%rax), %rax
	movq	assignSE2partition(,%rax,8), %rax
	movl	(%rax), %eax
	movl	%eax, -40(%rbp)
	movq	img, %rax
	movq	14160(%rax), %rax
	movq	24(%rax), %rax
	movslq	-40(%rbp), %rcx
	imulq	$120, %rcx, %rcx
	addq	%rcx, %rax
	movq	%rax, -24(%rbp)
	movl	$0, -12(%rbp)
	movq	img, %rax
	movq	14152(%rax), %rax
	cmpl	$0, 4(%rax)
	je	.LBB14_2
# %bb.1:                                # %if.then
	movq	img, %rax
	movl	72504(%rax), %esi
	movq	-24(%rbp), %rdx
	movabsq	$.L.str.33, %rdi
	callq	u_1
	addl	-12(%rbp), %eax
	movl	%eax, -12(%rbp)
	movq	img, %rax
	movl	72508(%rax), %esi
	movq	-24(%rbp), %rdx
	movabsq	$.L.str.34, %rdi
	callq	u_1
	addl	-12(%rbp), %eax
	movl	%eax, -12(%rbp)
	jmp	.LBB14_20
.LBB14_2:                               # %if.else
	movq	img, %rax
	cmpq	$0, 72512(%rax)
	setne	%al
	andb	$1, %al
	movzbl	%al, %eax
	movq	img, %rcx
	movl	%eax, 72500(%rcx)
	movq	img, %rax
	movl	72500(%rax), %esi
	movq	-24(%rbp), %rdx
	movabsq	$.L.str.35, %rdi
	callq	u_1
	addl	-12(%rbp), %eax
	movl	%eax, -12(%rbp)
	movq	img, %rax
	cmpl	$0, 72500(%rax)
	je	.LBB14_19
# %bb.3:                                # %if.then11
	movq	img, %rax
	movq	72512(%rax), %rax
	movq	%rax, -32(%rbp)
.LBB14_4:                               # %do.body
                                        # =>This Inner Loop Header: Depth=1
	cmpq	$0, -32(%rbp)
	jne	.LBB14_6
# %bb.5:                                # %if.then15
                                        #   in Loop: Header=BB14_4 Depth=1
	movabsq	$.L.str.36, %rdi
	movl	$500, %esi              # imm = 0x1F4
	callq	error
.LBB14_6:                               # %if.end
                                        #   in Loop: Header=BB14_4 Depth=1
	movq	-32(%rbp), %rax
	movl	(%rax), %eax
	movl	%eax, -16(%rbp)
	movl	-16(%rbp), %esi
	movq	-24(%rbp), %rdx
	movabsq	$.L.str.37, %rdi
	callq	ue_v
	addl	-12(%rbp), %eax
	movl	%eax, -12(%rbp)
	cmpl	$1, -16(%rbp)
	je	.LBB14_8
# %bb.7:                                # %lor.lhs.false
                                        #   in Loop: Header=BB14_4 Depth=1
	cmpl	$3, -16(%rbp)
	jne	.LBB14_9
.LBB14_8:                               # %if.then22
                                        #   in Loop: Header=BB14_4 Depth=1
	movq	-32(%rbp), %rax
	movl	4(%rax), %esi
	movq	-24(%rbp), %rdx
	movabsq	$.L.str.38, %rdi
	callq	ue_v
	addl	$1, %eax
	addl	-12(%rbp), %eax
	movl	%eax, -12(%rbp)
.LBB14_9:                               # %if.end26
                                        #   in Loop: Header=BB14_4 Depth=1
	cmpl	$2, -16(%rbp)
	jne	.LBB14_11
# %bb.10:                               # %if.then29
                                        #   in Loop: Header=BB14_4 Depth=1
	movq	-32(%rbp), %rax
	movl	8(%rax), %esi
	movq	-24(%rbp), %rdx
	movabsq	$.L.str.39, %rdi
	callq	ue_v
	addl	-12(%rbp), %eax
	movl	%eax, -12(%rbp)
.LBB14_11:                              # %if.end32
                                        #   in Loop: Header=BB14_4 Depth=1
	cmpl	$3, -16(%rbp)
	je	.LBB14_13
# %bb.12:                               # %lor.lhs.false35
                                        #   in Loop: Header=BB14_4 Depth=1
	cmpl	$6, -16(%rbp)
	jne	.LBB14_14
.LBB14_13:                              # %if.then38
                                        #   in Loop: Header=BB14_4 Depth=1
	movq	-32(%rbp), %rax
	movl	12(%rax), %esi
	movq	-24(%rbp), %rdx
	movabsq	$.L.str.40, %rdi
	callq	ue_v
	addl	-12(%rbp), %eax
	movl	%eax, -12(%rbp)
.LBB14_14:                              # %if.end41
                                        #   in Loop: Header=BB14_4 Depth=1
	cmpl	$4, -16(%rbp)
	jne	.LBB14_16
# %bb.15:                               # %if.then44
                                        #   in Loop: Header=BB14_4 Depth=1
	movq	-32(%rbp), %rax
	movl	16(%rax), %esi
	movq	-24(%rbp), %rdx
	movabsq	$.L.str.41, %rdi
	callq	ue_v
	addl	-12(%rbp), %eax
	movl	%eax, -12(%rbp)
.LBB14_16:                              # %if.end47
                                        #   in Loop: Header=BB14_4 Depth=1
	movq	-32(%rbp), %rax
	movq	24(%rax), %rax
	movq	%rax, -32(%rbp)
# %bb.17:                               # %do.cond
                                        #   in Loop: Header=BB14_4 Depth=1
	cmpl	$0, -16(%rbp)
	jne	.LBB14_4
# %bb.18:                               # %do.end
	jmp	.LBB14_19
.LBB14_19:                              # %if.end50
	jmp	.LBB14_20
.LBB14_20:                              # %if.end51
	movl	-12(%rbp), %ebx
	cmpl	$1705910819, -36(%rbp)  # imm = 0x65AE2223
	jne	.LBB14_22
.LBB14_21:
	movl	%ebx, %eax
	addq	$40, %rsp
	popq	%rbx
	popq	%rbp
	.cfi_def_cfa %rsp, 8
	retq
.LBB14_22:                              # %func_exit
	.cfi_def_cfa %rbp, 16
	callq	detect_breach
	jmp	.LBB14_21
.Lfunc_end14:
	.size	dec_ref_pic_marking.9, .Lfunc_end14-dec_ref_pic_marking.9
	.cfi_endproc
                                        # -- End function
	.p2align	4, 0x90         # -- Begin function pred_weight_table.10
	.type	pred_weight_table.10,@function
pred_weight_table.10:                   # @pred_weight_table.10
	.cfi_startproc
# %bb.0:                                # %entry
	pushq	%rbp
	.cfi_def_cfa_offset 16
	.cfi_offset %rbp, -16
	movq	%rsp, %rbp
	.cfi_def_cfa_register %rbp
	pushq	%rbx
	subq	$40, %rsp
	.cfi_offset %rbx, -24
	movl	$2137823494, -36(%rbp)  # imm = 0x7F6C9906
	movq	input, %rax
	movslq	2364(%rax), %rax
	movq	assignSE2partition(,%rax,8), %rax
	movl	(%rax), %eax
	movl	%eax, -40(%rbp)
	movq	img, %rax
	movq	14160(%rax), %rax
	movq	24(%rax), %rax
	movslq	-40(%rbp), %rcx
	imulq	$120, %rcx, %rcx
	addq	%rcx, %rax
	movq	%rax, -32(%rbp)
	movl	$0, -12(%rbp)
	movl	luma_log_weight_denom, %esi
	movq	-32(%rbp), %rdx
	movabsq	$.L.str.42, %rdi
	callq	ue_v
	addl	-12(%rbp), %eax
	movl	%eax, -12(%rbp)
	movl	chroma_log_weight_denom, %esi
	movq	-32(%rbp), %rdx
	movabsq	$.L.str.43, %rdi
	callq	ue_v
	addl	-12(%rbp), %eax
	movl	%eax, -12(%rbp)
	movl	$0, -16(%rbp)
.LBB15_1:                               # %for.cond
                                        # =>This Loop Header: Depth=1
                                        #     Child Loop BB15_11 Depth 2
	movl	-16(%rbp), %eax
	movq	img, %rcx
	cmpl	72000(%rcx), %eax
	jge	.LBB15_18
# %bb.2:                                # %for.body
                                        #   in Loop: Header=BB15_1 Depth=1
	movq	wp_weight, %rax
	movq	(%rax), %rax
	movslq	-16(%rbp), %rcx
	movq	(%rax,%rcx,8), %rax
	movl	(%rax), %eax
	movl	luma_log_weight_denom, %ecx
                                        # kill: def $cl killed $ecx
	movl	$1, %edx
	shll	%cl, %edx
	cmpl	%edx, %eax
	jne	.LBB15_4
# %bb.3:                                # %lor.lhs.false
                                        #   in Loop: Header=BB15_1 Depth=1
	movq	wp_offset, %rax
	movq	(%rax), %rax
	movslq	-16(%rbp), %rcx
	movq	(%rax,%rcx,8), %rax
	cmpl	$0, (%rax)
	je	.LBB15_5
.LBB15_4:                               # %if.then
                                        #   in Loop: Header=BB15_1 Depth=1
	movq	-32(%rbp), %rdx
	movabsq	$.L.str.44, %rdi
	movl	$1, %esi
	callq	u_1
	addl	-12(%rbp), %eax
	movl	%eax, -12(%rbp)
	movq	wp_weight, %rax
	movq	(%rax), %rax
	movslq	-16(%rbp), %rcx
	movq	(%rax,%rcx,8), %rax
	movl	(%rax), %esi
	movq	-32(%rbp), %rdx
	movabsq	$.L.str.45, %rdi
	callq	se_v
	addl	-12(%rbp), %eax
	movl	%eax, -12(%rbp)
	movq	wp_offset, %rax
	movq	(%rax), %rax
	movslq	-16(%rbp), %rcx
	movq	(%rax,%rcx,8), %rax
	movl	(%rax), %esi
	movq	-32(%rbp), %rdx
	movabsq	$.L.str.46, %rdi
	callq	se_v
	addl	-12(%rbp), %eax
	movl	%eax, -12(%rbp)
	jmp	.LBB15_6
.LBB15_5:                               # %if.else
                                        #   in Loop: Header=BB15_1 Depth=1
	movq	-32(%rbp), %rdx
	movabsq	$.L.str.44, %rdi
	xorl	%esi, %esi
	callq	u_1
	addl	-12(%rbp), %eax
	movl	%eax, -12(%rbp)
.LBB15_6:                               # %if.end
                                        #   in Loop: Header=BB15_1 Depth=1
	movq	wp_weight, %rax
	movq	(%rax), %rax
	movslq	-16(%rbp), %rcx
	movq	(%rax,%rcx,8), %rax
	movl	4(%rax), %eax
	movl	chroma_log_weight_denom, %ecx
                                        # kill: def $cl killed $ecx
	movl	$1, %edx
	shll	%cl, %edx
	cmpl	%edx, %eax
	jne	.LBB15_10
# %bb.7:                                # %lor.lhs.false38
                                        #   in Loop: Header=BB15_1 Depth=1
	movq	wp_offset, %rax
	movq	(%rax), %rax
	movslq	-16(%rbp), %rcx
	movq	(%rax,%rcx,8), %rax
	cmpl	$0, 4(%rax)
	jne	.LBB15_10
# %bb.8:                                # %lor.lhs.false44
                                        #   in Loop: Header=BB15_1 Depth=1
	movq	wp_weight, %rax
	movq	(%rax), %rax
	movslq	-16(%rbp), %rcx
	movq	(%rax,%rcx,8), %rax
	movl	8(%rax), %eax
	movl	chroma_log_weight_denom, %ecx
                                        # kill: def $cl killed $ecx
	movl	$1, %edx
	shll	%cl, %edx
	cmpl	%edx, %eax
	jne	.LBB15_10
# %bb.9:                                # %lor.lhs.false51
                                        #   in Loop: Header=BB15_1 Depth=1
	movq	wp_offset, %rax
	movq	(%rax), %rax
	movslq	-16(%rbp), %rcx
	movq	(%rax,%rcx,8), %rax
	cmpl	$0, 8(%rax)
	je	.LBB15_15
.LBB15_10:                              # %if.then57
                                        #   in Loop: Header=BB15_1 Depth=1
	movq	-32(%rbp), %rdx
	movabsq	$.L.str.47, %rdi
	movl	$1, %esi
	callq	u_1
	addl	-12(%rbp), %eax
	movl	%eax, -12(%rbp)
	movl	$1, -20(%rbp)
.LBB15_11:                              # %for.cond60
                                        #   Parent Loop BB15_1 Depth=1
                                        # =>  This Inner Loop Header: Depth=2
	cmpl	$3, -20(%rbp)
	jge	.LBB15_14
# %bb.12:                               # %for.body62
                                        #   in Loop: Header=BB15_11 Depth=2
	movq	wp_weight, %rax
	movq	(%rax), %rax
	movslq	-16(%rbp), %rcx
	movq	(%rax,%rcx,8), %rax
	movslq	-20(%rbp), %rcx
	movl	(%rax,%rcx,4), %esi
	movq	-32(%rbp), %rdx
	movabsq	$.L.str.48, %rdi
	callq	se_v
	addl	-12(%rbp), %eax
	movl	%eax, -12(%rbp)
	movq	wp_offset, %rax
	movq	(%rax), %rax
	movslq	-16(%rbp), %rcx
	movq	(%rax,%rcx,8), %rax
	movslq	-20(%rbp), %rcx
	movl	(%rax,%rcx,4), %esi
	movq	-32(%rbp), %rdx
	movabsq	$.L.str.49, %rdi
	callq	se_v
	addl	-12(%rbp), %eax
	movl	%eax, -12(%rbp)
# %bb.13:                               # %for.inc
                                        #   in Loop: Header=BB15_11 Depth=2
	movl	-20(%rbp), %eax
	addl	$1, %eax
	movl	%eax, -20(%rbp)
	jmp	.LBB15_11
.LBB15_14:                              # %for.end
                                        #   in Loop: Header=BB15_1 Depth=1
	jmp	.LBB15_16
.LBB15_15:                              # %if.else77
                                        #   in Loop: Header=BB15_1 Depth=1
	movq	-32(%rbp), %rdx
	movabsq	$.L.str.47, %rdi
	xorl	%esi, %esi
	callq	u_1
	addl	-12(%rbp), %eax
	movl	%eax, -12(%rbp)
.LBB15_16:                              # %if.end80
                                        #   in Loop: Header=BB15_1 Depth=1
	jmp	.LBB15_17
.LBB15_17:                              # %for.inc81
                                        #   in Loop: Header=BB15_1 Depth=1
	movl	-16(%rbp), %eax
	addl	$1, %eax
	movl	%eax, -16(%rbp)
	jmp	.LBB15_1
.LBB15_18:                              # %for.end83
	movq	img, %rax
	cmpl	$1, 24(%rax)
	jne	.LBB15_38
# %bb.19:                               # %if.then85
	movl	$0, -16(%rbp)
.LBB15_20:                              # %for.cond86
                                        # =>This Loop Header: Depth=1
                                        #     Child Loop BB15_30 Depth 2
	movl	-16(%rbp), %eax
	movq	img, %rcx
	cmpl	72004(%rcx), %eax
	jge	.LBB15_37
# %bb.21:                               # %for.body88
                                        #   in Loop: Header=BB15_20 Depth=1
	movq	wp_weight, %rax
	movq	8(%rax), %rax
	movslq	-16(%rbp), %rcx
	movq	(%rax,%rcx,8), %rax
	movl	(%rax), %eax
	movl	luma_log_weight_denom, %ecx
                                        # kill: def $cl killed $ecx
	movl	$1, %edx
	shll	%cl, %edx
	cmpl	%edx, %eax
	jne	.LBB15_23
# %bb.22:                               # %lor.lhs.false95
                                        #   in Loop: Header=BB15_20 Depth=1
	movq	wp_offset, %rax
	movq	8(%rax), %rax
	movslq	-16(%rbp), %rcx
	movq	(%rax,%rcx,8), %rax
	cmpl	$0, (%rax)
	je	.LBB15_24
.LBB15_23:                              # %if.then101
                                        #   in Loop: Header=BB15_20 Depth=1
	movq	-32(%rbp), %rdx
	movabsq	$.L.str.50, %rdi
	movl	$1, %esi
	callq	u_1
	addl	-12(%rbp), %eax
	movl	%eax, -12(%rbp)
	movq	wp_weight, %rax
	movq	8(%rax), %rax
	movslq	-16(%rbp), %rcx
	movq	(%rax,%rcx,8), %rax
	movl	(%rax), %esi
	movq	-32(%rbp), %rdx
	movabsq	$.L.str.51, %rdi
	callq	se_v
	addl	-12(%rbp), %eax
	movl	%eax, -12(%rbp)
	movq	wp_offset, %rax
	movq	8(%rax), %rax
	movslq	-16(%rbp), %rcx
	movq	(%rax,%rcx,8), %rax
	movl	(%rax), %esi
	movq	-32(%rbp), %rdx
	movabsq	$.L.str.52, %rdi
	callq	se_v
	addl	-12(%rbp), %eax
	movl	%eax, -12(%rbp)
	jmp	.LBB15_25
.LBB15_24:                              # %if.else116
                                        #   in Loop: Header=BB15_20 Depth=1
	movq	-32(%rbp), %rdx
	movabsq	$.L.str.50, %rdi
	xorl	%esi, %esi
	callq	u_1
	addl	-12(%rbp), %eax
	movl	%eax, -12(%rbp)
.LBB15_25:                              # %if.end119
                                        #   in Loop: Header=BB15_20 Depth=1
	movq	wp_weight, %rax
	movq	8(%rax), %rax
	movslq	-16(%rbp), %rcx
	movq	(%rax,%rcx,8), %rax
	movl	4(%rax), %eax
	movl	chroma_log_weight_denom, %ecx
                                        # kill: def $cl killed $ecx
	movl	$1, %edx
	shll	%cl, %edx
	cmpl	%edx, %eax
	jne	.LBB15_29
# %bb.26:                               # %lor.lhs.false126
                                        #   in Loop: Header=BB15_20 Depth=1
	movq	wp_offset, %rax
	movq	8(%rax), %rax
	movslq	-16(%rbp), %rcx
	movq	(%rax,%rcx,8), %rax
	cmpl	$0, 4(%rax)
	jne	.LBB15_29
# %bb.27:                               # %lor.lhs.false132
                                        #   in Loop: Header=BB15_20 Depth=1
	movq	wp_weight, %rax
	movq	8(%rax), %rax
	movslq	-16(%rbp), %rcx
	movq	(%rax,%rcx,8), %rax
	movl	8(%rax), %eax
	movl	chroma_log_weight_denom, %ecx
                                        # kill: def $cl killed $ecx
	movl	$1, %edx
	shll	%cl, %edx
	cmpl	%edx, %eax
	jne	.LBB15_29
# %bb.28:                               # %lor.lhs.false139
                                        #   in Loop: Header=BB15_20 Depth=1
	movq	wp_offset, %rax
	movq	8(%rax), %rax
	movslq	-16(%rbp), %rcx
	movq	(%rax,%rcx,8), %rax
	cmpl	$0, 8(%rax)
	je	.LBB15_34
.LBB15_29:                              # %if.then145
                                        #   in Loop: Header=BB15_20 Depth=1
	movq	-32(%rbp), %rdx
	movabsq	$.L.str.53, %rdi
	movl	$1, %esi
	callq	u_1
	addl	-12(%rbp), %eax
	movl	%eax, -12(%rbp)
	movl	$1, -20(%rbp)
.LBB15_30:                              # %for.cond148
                                        #   Parent Loop BB15_20 Depth=1
                                        # =>  This Inner Loop Header: Depth=2
	cmpl	$3, -20(%rbp)
	jge	.LBB15_33
# %bb.31:                               # %for.body150
                                        #   in Loop: Header=BB15_30 Depth=2
	movq	wp_weight, %rax
	movq	8(%rax), %rax
	movslq	-16(%rbp), %rcx
	movq	(%rax,%rcx,8), %rax
	movslq	-20(%rbp), %rcx
	movl	(%rax,%rcx,4), %esi
	movq	-32(%rbp), %rdx
	movabsq	$.L.str.54, %rdi
	callq	se_v
	addl	-12(%rbp), %eax
	movl	%eax, -12(%rbp)
	movq	wp_offset, %rax
	movq	8(%rax), %rax
	movslq	-16(%rbp), %rcx
	movq	(%rax,%rcx,8), %rax
	movslq	-20(%rbp), %rcx
	movl	(%rax,%rcx,4), %esi
	movq	-32(%rbp), %rdx
	movabsq	$.L.str.55, %rdi
	callq	se_v
	addl	-12(%rbp), %eax
	movl	%eax, -12(%rbp)
# %bb.32:                               # %for.inc165
                                        #   in Loop: Header=BB15_30 Depth=2
	movl	-20(%rbp), %eax
	addl	$1, %eax
	movl	%eax, -20(%rbp)
	jmp	.LBB15_30
.LBB15_33:                              # %for.end167
                                        #   in Loop: Header=BB15_20 Depth=1
	jmp	.LBB15_35
.LBB15_34:                              # %if.else168
                                        #   in Loop: Header=BB15_20 Depth=1
	movq	-32(%rbp), %rdx
	movabsq	$.L.str.53, %rdi
	xorl	%esi, %esi
	callq	u_1
	addl	-12(%rbp), %eax
	movl	%eax, -12(%rbp)
.LBB15_35:                              # %if.end171
                                        #   in Loop: Header=BB15_20 Depth=1
	jmp	.LBB15_36
.LBB15_36:                              # %for.inc172
                                        #   in Loop: Header=BB15_20 Depth=1
	movl	-16(%rbp), %eax
	addl	$1, %eax
	movl	%eax, -16(%rbp)
	jmp	.LBB15_20
.LBB15_37:                              # %for.end174
	jmp	.LBB15_38
.LBB15_38:                              # %if.end175
	movl	-12(%rbp), %ebx
	cmpl	$2137823494, -36(%rbp)  # imm = 0x7F6C9906
	jne	.LBB15_40
.LBB15_39:
	movl	%ebx, %eax
	addq	$40, %rsp
	popq	%rbx
	popq	%rbp
	.cfi_def_cfa %rsp, 8
	retq
.LBB15_40:                              # %func_exit
	.cfi_def_cfa %rbp, 16
	callq	detect_breach
	jmp	.LBB15_39
.Lfunc_end15:
	.size	pred_weight_table.10, .Lfunc_end15-pred_weight_table.10
	.cfi_endproc
                                        # -- End function
	.section	.rodata.cst8,"aM",@progbits,8
	.p2align	3               # -- Begin function SliceHeader.11
.LCPI16_0:
	.quad	4611686018427387904     # double 2
	.section	.rodata.cst4,"aM",@progbits,4
	.p2align	2
.LCPI16_1:
	.long	1065353216              # float 1
	.text
	.globl	SliceHeader.11
	.p2align	4, 0x90
	.type	SliceHeader.11,@function
SliceHeader.11:                         # @SliceHeader.11
	.cfi_startproc
# %bb.0:                                # %entry
	pushq	%rbp
	.cfi_def_cfa_offset 16
	.cfi_offset %rbp, -16
	movq	%rsp, %rbp
	.cfi_def_cfa_register %rbp
	pushq	%rbx
	subq	$72, %rsp
	.cfi_offset %rbx, -24
	movl	$861186151, -52(%rbp)   # imm = 0x3354A867
	movq	input, %rax
	movslq	2364(%rax), %rax
	movq	assignSE2partition(,%rax,8), %rax
	movl	(%rax), %eax
	movl	%eax, -40(%rbp)
	movq	img, %rax
	movq	14160(%rax), %rax
	movq	24(%rax), %rax
	movslq	-40(%rbp), %rcx
	imulq	$120, %rcx, %rcx
	addq	%rcx, %rax
	movq	%rax, -24(%rbp)
	movq	img, %rax
	movq	14160(%rax), %rax
	movq	%rax, -72(%rbp)
	movl	$0, -12(%rbp)
	movl	$0, -28(%rbp)
	movl	$0, -36(%rbp)
	movq	img, %rax
	cmpl	$0, 72400(%rax)
	je	.LBB16_2
# %bb.1:                                # %if.then
	movq	img, %rax
	movl	12(%rax), %esi
	sarl	$1, %esi
	movq	-24(%rbp), %rdx
	movabsq	$.L.str, %rdi
	callq	ue_v
	movl	%eax, -12(%rbp)
	jmp	.LBB16_3
.LBB16_2:                               # %if.else
	movq	img, %rax
	movl	12(%rax), %esi
	movq	-24(%rbp), %rdx
	movabsq	$.L.str, %rdi
	callq	ue_v
	movl	%eax, -12(%rbp)
.LBB16_3:                               # %if.end
	callq	get_picture_type
	movq	-24(%rbp), %rdx
	movabsq	$.L.str.1, %rdi
	movl	%eax, %esi
	callq	ue_v
	addl	-12(%rbp), %eax
	movl	%eax, -12(%rbp)
	movq	active_pps, %rax
	movl	4(%rax), %esi
	movq	-24(%rbp), %rdx
	movabsq	$.L.str.2, %rdi
	callq	ue_v
	addl	-12(%rbp), %eax
	movl	%eax, -12(%rbp)
	movl	log2_max_frame_num_minus4, %edi
	addl	$4, %edi
	movq	img, %rax
	movl	72464(%rax), %edx
	movq	-24(%rbp), %rcx
	movabsq	$.L.str.3, %rsi
	callq	u_v
	addl	-12(%rbp), %eax
	movl	%eax, -12(%rbp)
	movq	active_sps, %rax
	cmpl	$0, 1148(%rax)
	jne	.LBB16_9
# %bb.4:                                # %if.then15
	movq	img, %rax
	cmpl	$1, 28(%rax)
	movb	$1, %al
	je	.LBB16_6
# %bb.5:                                # %lor.rhs
	movq	img, %rax
	cmpl	$2, 28(%rax)
	sete	%al
.LBB16_6:                               # %lor.end
	xorl	%ecx, %ecx
	testb	$1, %al
	movl	$1, %eax
	cmovnel	%eax, %ecx
	movl	%ecx, -28(%rbp)
	movl	-28(%rbp), %esi
	movq	-24(%rbp), %rdx
	movabsq	$.L.str.4, %rdi
	callq	u_1
	addl	-12(%rbp), %eax
	movl	%eax, -12(%rbp)
	cmpl	$0, -28(%rbp)
	je	.LBB16_8
# %bb.7:                                # %if.then21
	xorl	%eax, %eax
	movq	img, %rcx
	movl	28(%rcx), %ecx
	cmpl	$2, %ecx
	movl	$1, %ecx
	cmovel	%ecx, %eax
	movl	%eax, -36(%rbp)
	movl	-36(%rbp), %esi
	movq	-24(%rbp), %rdx
	movabsq	$.L.str.5, %rdi
	callq	u_1
	addl	-12(%rbp), %eax
	movl	%eax, -12(%rbp)
.LBB16_8:                               # %if.end27
	jmp	.LBB16_9
.LBB16_9:                               # %if.end28
	movq	img, %rax
	movq	14152(%rax), %rax
	cmpl	$0, 4(%rax)
	je	.LBB16_11
# %bb.10:                               # %if.then30
	movq	img, %rax
	movl	(%rax), %eax
	cltd
	movl	$2, %ecx
	idivl	%ecx
	movq	-24(%rbp), %rax
	movabsq	$.L.str.6, %rdi
	movl	%edx, %esi
	movq	%rax, %rdx
	callq	ue_v
	addl	-12(%rbp), %eax
	movl	%eax, -12(%rbp)
.LBB16_11:                              # %if.end33
	movq	img, %rax
	cmpl	$0, 72404(%rax)
	jne	.LBB16_25
# %bb.12:                               # %if.then35
	movq	active_sps, %rax
	cmpl	$0, 1148(%rax)
	je	.LBB16_14
# %bb.13:                               # %if.then38
	movq	img, %rax
	movl	72448(%rax), %eax
	movl	log2_max_pic_order_cnt_lsb_minus4, %ecx
	addl	$4, %ecx
                                        # kill: def $cl killed $ecx
	movl	$4294967295, %edx       # imm = 0xFFFFFFFF
	shll	%cl, %edx
	xorl	$-1, %edx
	andl	%edx, %eax
	movq	img, %rcx
	movl	%eax, 72428(%rcx)
	jmp	.LBB16_21
.LBB16_14:                              # %if.else40
	cmpl	$0, -28(%rbp)
	je	.LBB16_16
# %bb.15:                               # %lor.lhs.false
	movq	img, %rax
	cmpl	$1, 28(%rax)
	jne	.LBB16_17
.LBB16_16:                              # %if.then44
	movq	img, %rax
	movl	72448(%rax), %eax
	movl	log2_max_pic_order_cnt_lsb_minus4, %ecx
	addl	$4, %ecx
                                        # kill: def $cl killed $ecx
	movl	$4294967295, %edx       # imm = 0xFFFFFFFF
	shll	%cl, %edx
	xorl	$-1, %edx
	andl	%edx, %eax
	movq	img, %rcx
	movl	%eax, 72428(%rcx)
	jmp	.LBB16_20
.LBB16_17:                              # %if.else51
	movq	img, %rax
	cmpl	$2, 28(%rax)
	jne	.LBB16_19
# %bb.18:                               # %if.then54
	movq	img, %rax
	movl	72452(%rax), %eax
	movl	log2_max_pic_order_cnt_lsb_minus4, %ecx
	addl	$4, %ecx
                                        # kill: def $cl killed $ecx
	movl	$4294967295, %edx       # imm = 0xFFFFFFFF
	shll	%cl, %edx
	xorl	$-1, %edx
	andl	%edx, %eax
	movq	img, %rcx
	movl	%eax, 72428(%rcx)
.LBB16_19:                              # %if.end60
	jmp	.LBB16_20
.LBB16_20:                              # %if.end61
	jmp	.LBB16_21
.LBB16_21:                              # %if.end62
	movl	log2_max_pic_order_cnt_lsb_minus4, %edi
	addl	$4, %edi
	movq	img, %rax
	movl	72428(%rax), %edx
	movq	-24(%rbp), %rcx
	movabsq	$.L.str.7, %rsi
	callq	u_v
	addl	-12(%rbp), %eax
	movl	%eax, -12(%rbp)
	movq	img, %rax
	cmpl	$0, 72492(%rax)
	je	.LBB16_24
# %bb.22:                               # %land.lhs.true
	cmpl	$0, -28(%rbp)
	jne	.LBB16_24
# %bb.23:                               # %if.then69
	movq	img, %rax
	movl	72432(%rax), %esi
	movq	-24(%rbp), %rdx
	movabsq	$.L.str.8, %rdi
	callq	se_v
	addl	-12(%rbp), %eax
	movl	%eax, -12(%rbp)
.LBB16_24:                              # %if.end72
	jmp	.LBB16_25
.LBB16_25:                              # %if.end73
	movq	img, %rax
	cmpl	$1, 72404(%rax)
	jne	.LBB16_31
# %bb.26:                               # %land.lhs.true76
	movq	img, %rax
	cmpl	$0, 72408(%rax)
	jne	.LBB16_31
# %bb.27:                               # %if.then78
	movq	img, %rax
	movl	72436(%rax), %esi
	movq	-24(%rbp), %rdx
	movabsq	$.L.str.9, %rdi
	callq	se_v
	addl	-12(%rbp), %eax
	movl	%eax, -12(%rbp)
	movq	img, %rax
	cmpl	$0, 72492(%rax)
	je	.LBB16_30
# %bb.28:                               # %land.lhs.true84
	cmpl	$0, -28(%rbp)
	jne	.LBB16_30
# %bb.29:                               # %if.then86
	movq	img, %rax
	movl	72440(%rax), %esi
	movq	-24(%rbp), %rdx
	movabsq	$.L.str.10, %rdi
	callq	se_v
	addl	-12(%rbp), %eax
	movl	%eax, -12(%rbp)
.LBB16_30:                              # %if.end91
	jmp	.LBB16_31
.LBB16_31:                              # %if.end92
	movq	input, %rax
	cmpl	$0, 3204(%rax)
	je	.LBB16_33
# %bb.32:                               # %if.then94
	movq	img, %rax
	movl	72396(%rax), %esi
	movq	-24(%rbp), %rdx
	movabsq	$.L.str.11, %rdi
	callq	ue_v
	addl	-12(%rbp), %eax
	movl	%eax, -12(%rbp)
.LBB16_33:                              # %if.end97
	movq	img, %rax
	cmpl	$1, 24(%rax)
	jne	.LBB16_35
# %bb.34:                               # %if.then99
	movq	img, %rax
	movl	71996(%rax), %esi
	movq	-24(%rbp), %rdx
	movabsq	$.L.str.12, %rdi
	callq	u_1
	addl	-12(%rbp), %eax
	movl	%eax, -12(%rbp)
.LBB16_35:                              # %if.end102
	movq	img, %rax
	cmpl	$0, 24(%rax)
	je	.LBB16_38
# %bb.36:                               # %lor.lhs.false105
	movq	img, %rax
	cmpl	$1, 24(%rax)
	je	.LBB16_38
# %bb.37:                               # %lor.lhs.false108
	movq	img, %rax
	cmpl	$3, 24(%rax)
	jne	.LBB16_49
.LBB16_38:                              # %if.then111
	movq	img, %rax
	cmpl	$0, 24(%rax)
	je	.LBB16_40
# %bb.39:                               # %lor.lhs.false114
	movq	img, %rax
	cmpl	$3, 24(%rax)
	jne	.LBB16_41
.LBB16_40:                              # %if.then117
	xorl	%eax, %eax
	movq	img, %rcx
	movl	72000(%rcx), %ecx
	movq	active_pps, %rdx
	movl	184(%rdx), %edx
	addl	$1, %edx
	cmpl	%edx, %ecx
	movl	$1, %ecx
	cmovnel	%ecx, %eax
	movl	%eax, -32(%rbp)
	jmp	.LBB16_44
.LBB16_41:                              # %if.else121
	movq	img, %rax
	movl	72000(%rax), %eax
	movq	active_pps, %rcx
	movl	184(%rcx), %ecx
	addl	$1, %ecx
	cmpl	%ecx, %eax
	movb	$1, %al
	jne	.LBB16_43
# %bb.42:                               # %lor.rhs126
	movq	img, %rax
	movl	72004(%rax), %eax
	movq	active_pps, %rcx
	movl	188(%rcx), %ecx
	addl	$1, %ecx
	cmpl	%ecx, %eax
	setne	%al
.LBB16_43:                              # %lor.end129
	xorl	%ecx, %ecx
	testb	$1, %al
	movl	$1, %eax
	cmovnel	%eax, %ecx
	movl	%ecx, -32(%rbp)
.LBB16_44:                              # %if.end131
	movl	-32(%rbp), %esi
	movq	-24(%rbp), %rdx
	movabsq	$.L.str.13, %rdi
	callq	u_1
	addl	-12(%rbp), %eax
	movl	%eax, -12(%rbp)
	cmpl	$0, -32(%rbp)
	je	.LBB16_48
# %bb.45:                               # %if.then135
	movq	img, %rax
	movl	72000(%rax), %esi
	subl	$1, %esi
	movq	-24(%rbp), %rdx
	movabsq	$.L.str.14, %rdi
	callq	ue_v
	addl	-12(%rbp), %eax
	movl	%eax, -12(%rbp)
	movq	img, %rax
	cmpl	$1, 24(%rax)
	jne	.LBB16_47
# %bb.46:                               # %if.then141
	movq	img, %rax
	movl	72004(%rax), %esi
	subl	$1, %esi
	movq	-24(%rbp), %rdx
	movabsq	$.L.str.15, %rdi
	callq	ue_v
	addl	-12(%rbp), %eax
	movl	%eax, -12(%rbp)
.LBB16_47:                              # %if.end146
	jmp	.LBB16_48
.LBB16_48:                              # %if.end147
	jmp	.LBB16_49
.LBB16_49:                              # %if.end148
	callq	ref_pic_list_reordering
	addl	-12(%rbp), %eax
	movl	%eax, -12(%rbp)
	movq	img, %rax
	cmpl	$0, 24(%rax)
	je	.LBB16_51
# %bb.50:                               # %lor.lhs.false153
	movq	img, %rax
	cmpl	$3, 24(%rax)
	jne	.LBB16_52
.LBB16_51:                              # %land.lhs.true156
	movq	active_pps, %rax
	cmpl	$0, 192(%rax)
	jne	.LBB16_54
.LBB16_52:                              # %lor.lhs.false158
	movq	img, %rax
	cmpl	$1, 24(%rax)
	jne	.LBB16_55
# %bb.53:                               # %land.lhs.true161
	movq	active_pps, %rax
	cmpl	$1, 196(%rax)
	jne	.LBB16_55
.LBB16_54:                              # %if.then163
	callq	pred_weight_table
	addl	-12(%rbp), %eax
	movl	%eax, -12(%rbp)
.LBB16_55:                              # %if.end166
	movq	img, %rax
	cmpl	$0, 72496(%rax)
	je	.LBB16_57
# %bb.56:                               # %if.then168
	callq	dec_ref_pic_marking
	addl	-12(%rbp), %eax
	movl	%eax, -12(%rbp)
.LBB16_57:                              # %if.end171
	movq	input, %rax
	cmpl	$1, 2356(%rax)
	jne	.LBB16_60
# %bb.58:                               # %land.lhs.true173
	movq	img, %rax
	cmpl	$2, 24(%rax)
	je	.LBB16_60
# %bb.59:                               # %if.then176
	movq	img, %rax
	movl	72520(%rax), %esi
	movq	-24(%rbp), %rdx
	movabsq	$.L.str.16, %rdi
	callq	ue_v
	addl	-12(%rbp), %eax
	movl	%eax, -12(%rbp)
.LBB16_60:                              # %if.end179
	movq	-72(%rbp), %rax
	movl	4(%rax), %esi
	subl	$26, %esi
	movq	active_pps, %rax
	subl	200(%rax), %esi
	movq	-24(%rbp), %rdx
	movabsq	$.L.str.17, %rdi
	callq	se_v
	addl	-12(%rbp), %eax
	movl	%eax, -12(%rbp)
	movq	img, %rax
	cmpl	$3, 24(%rax)
	jne	.LBB16_64
# %bb.61:                               # %if.then186
	movq	img, %rax
	cmpl	$3, 24(%rax)
	jne	.LBB16_63
# %bb.62:                               # %if.then189
	movq	-24(%rbp), %rdx
	movabsq	$.L.str.18, %rdi
	xorl	%esi, %esi
	callq	u_1
	addl	-12(%rbp), %eax
	movl	%eax, -12(%rbp)
.LBB16_63:                              # %if.end192
	movq	img, %rax
	movl	44(%rax), %esi
	subl	$26, %esi
	movq	-24(%rbp), %rdx
	movabsq	$.L.str.19, %rdi
	callq	se_v
	addl	-12(%rbp), %eax
	movl	%eax, -12(%rbp)
.LBB16_64:                              # %if.end196
	movq	active_pps, %rax
	cmpl	$0, 220(%rax)
	je	.LBB16_68
# %bb.65:                               # %if.then198
	movq	img, %rax
	movl	71984(%rax), %esi
	movq	-24(%rbp), %rdx
	movabsq	$.L.str.20, %rdi
	callq	ue_v
	addl	-12(%rbp), %eax
	movl	%eax, -12(%rbp)
	movq	img, %rax
	cmpl	$1, 71984(%rax)
	je	.LBB16_67
# %bb.66:                               # %if.then203
	movq	img, %rax
	movl	71988(%rax), %eax
	cltd
	movl	$2, %ecx
	idivl	%ecx
	movq	-24(%rbp), %rdx
	movabsq	$.L.str.21, %rdi
	movl	%eax, %esi
	callq	se_v
	addl	-12(%rbp), %eax
	movl	%eax, -12(%rbp)
	movq	img, %rax
	movl	71992(%rax), %eax
	cltd
	movl	$2, %ecx
	idivl	%ecx
	movq	-24(%rbp), %rdx
	movabsq	$.L.str.22, %rdi
	movl	%eax, %esi
	callq	se_v
	addl	-12(%rbp), %eax
	movl	%eax, -12(%rbp)
.LBB16_67:                              # %if.end209
	jmp	.LBB16_68
.LBB16_68:                              # %if.end210
	movq	active_pps, %rax
	cmpl	$0, 60(%rax)
	jbe	.LBB16_72
# %bb.69:                               # %land.lhs.true212
	movq	active_pps, %rax
	cmpl	$3, 64(%rax)
	jb	.LBB16_72
# %bb.70:                               # %land.lhs.true214
	movq	active_pps, %rax
	cmpl	$5, 64(%rax)
	ja	.LBB16_72
# %bb.71:                               # %if.then217
	vmovss	.LCPI16_1(%rip), %xmm0  # xmm0 = mem[0],zero,zero,zero
	movq	img(%rip), %rax
	movl	72468(%rax), %ecx
	movl	72472(%rax), %eax
	imull	%ecx, %eax
	vcvtsi2ss	%rax, %xmm0, %xmm1
	movq	active_pps(%rip), %rax
	movl	168(%rax), %eax
	addl	$1, %eax
	vcvtsi2ss	%rax, %xmm0, %xmm2
	vdivss	%xmm2, %xmm1, %xmm1
	vaddss	%xmm0, %xmm1, %xmm0
	vmovss	%xmm0, -48(%rbp)
	vmovss	-48(%rbp), %xmm0        # xmm0 = mem[0],zero,zero,zero
	vcvtss2sd	%xmm0, %xmm0, %xmm0
	callq	log
	vmovsd	%xmm0, -64(%rbp)        # 8-byte Spill
	vmovsd	.LCPI16_0(%rip), %xmm0  # xmm0 = mem[0],zero
	callq	log
	vmovsd	-64(%rbp), %xmm1        # 8-byte Reload
                                        # xmm1 = mem[0],zero
	vdivsd	%xmm0, %xmm1, %xmm0
	vroundsd	$10, %xmm0, %xmm0, %xmm0
	vcvttsd2si	%xmm0, %eax
	movl	%eax, -44(%rbp)
	movl	-44(%rbp), %edi
	movq	img, %rax
	movl	72652(%rax), %edx
	movq	-24(%rbp), %rcx
	movabsq	$.L.str.23, %rsi
	callq	u_v
	addl	-12(%rbp), %eax
	movl	%eax, -12(%rbp)
.LBB16_72:                              # %if.end229
	movq	input, %rax
	cmpl	$0, 2364(%rax)
	je	.LBB16_75
# %bb.73:                               # %land.lhs.true232
	movq	img, %rax
	movq	14152(%rax), %rax
	cmpl	$0, 4(%rax)
	jne	.LBB16_75
# %bb.74:                               # %if.then236
	movq	img, %rax
	movl	20(%rax), %esi
	movq	-24(%rbp), %rdx
	movabsq	$.L.str.24, %rdi
	callq	ue_v
	addl	-12(%rbp), %eax
	movl	%eax, -12(%rbp)
.LBB16_75:                              # %if.end239
	movl	-12(%rbp), %ebx
	cmpl	$861186151, -52(%rbp)   # imm = 0x3354A867
	jne	.LBB16_77
.LBB16_76:
	movl	%ebx, %eax
	addq	$72, %rsp
	popq	%rbx
	popq	%rbp
	.cfi_def_cfa %rsp, 8
	retq
.LBB16_77:                              # %func_exit
	.cfi_def_cfa %rbp, 16
	callq	detect_breach
	jmp	.LBB16_76
.Lfunc_end16:
	.size	SliceHeader.11, .Lfunc_end16-SliceHeader.11
	.cfi_endproc
                                        # -- End function
	.p2align	4, 0x90         # -- Begin function ref_pic_list_reordering.12
	.type	ref_pic_list_reordering.12,@function
ref_pic_list_reordering.12:             # @ref_pic_list_reordering.12
	.cfi_startproc
# %bb.0:                                # %entry
	pushq	%rbp
	.cfi_def_cfa_offset 16
	.cfi_offset %rbp, -16
	movq	%rsp, %rbp
	.cfi_def_cfa_register %rbp
	pushq	%rbx
	subq	$40, %rsp
	.cfi_offset %rbx, -24
	movl	$608824514, -36(%rbp)   # imm = 0x2449ECC2
	movq	input, %rax
	movslq	2364(%rax), %rax
	movq	assignSE2partition(,%rax,8), %rax
	movl	(%rax), %eax
	movl	%eax, -40(%rbp)
	movq	img, %rax
	movq	14160(%rax), %rax
	movq	24(%rax), %rax
	movslq	-40(%rbp), %rcx
	imulq	$120, %rcx, %rcx
	addq	%rcx, %rax
	movq	%rax, -32(%rbp)
	movq	img, %rax
	movq	14160(%rax), %rax
	movq	%rax, -24(%rbp)
	movl	$0, -16(%rbp)
	movq	img, %rax
	cmpl	$2, 24(%rax)
	je	.LBB17_13
# %bb.1:                                # %if.then
	movq	-24(%rbp), %rax
	movl	56(%rax), %esi
	movq	-32(%rbp), %rdx
	movabsq	$.L.str.26, %rdi
	callq	u_1
	addl	-16(%rbp), %eax
	movl	%eax, -16(%rbp)
	movq	-24(%rbp), %rax
	cmpl	$0, 56(%rax)
	je	.LBB17_12
# %bb.2:                                # %if.then6
	movl	$-1, -12(%rbp)
.LBB17_3:                               # %do.body
                                        # =>This Inner Loop Header: Depth=1
	movl	-12(%rbp), %eax
	addl	$1, %eax
	movl	%eax, -12(%rbp)
	movq	-24(%rbp), %rax
	movq	64(%rax), %rax
	movslq	-12(%rbp), %rcx
	movl	(%rax,%rcx,4), %esi
	movq	-32(%rbp), %rdx
	movabsq	$.L.str.27, %rdi
	callq	ue_v
	addl	-16(%rbp), %eax
	movl	%eax, -16(%rbp)
	movq	-24(%rbp), %rax
	movq	64(%rax), %rax
	movslq	-12(%rbp), %rcx
	cmpl	$0, (%rax,%rcx,4)
	je	.LBB17_5
# %bb.4:                                # %lor.lhs.false
                                        #   in Loop: Header=BB17_3 Depth=1
	movq	-24(%rbp), %rax
	movq	64(%rax), %rax
	movslq	-12(%rbp), %rcx
	cmpl	$1, (%rax,%rcx,4)
	jne	.LBB17_6
.LBB17_5:                               # %if.then19
                                        #   in Loop: Header=BB17_3 Depth=1
	movq	-24(%rbp), %rax
	movq	72(%rax), %rax
	movslq	-12(%rbp), %rcx
	movl	(%rax,%rcx,4), %esi
	movq	-32(%rbp), %rdx
	movabsq	$.L.str.28, %rdi
	callq	ue_v
	addl	-16(%rbp), %eax
	movl	%eax, -16(%rbp)
	jmp	.LBB17_9
.LBB17_6:                               # %if.else
                                        #   in Loop: Header=BB17_3 Depth=1
	movq	-24(%rbp), %rax
	movq	64(%rax), %rax
	movslq	-12(%rbp), %rcx
	cmpl	$2, (%rax,%rcx,4)
	jne	.LBB17_8
# %bb.7:                                # %if.then28
                                        #   in Loop: Header=BB17_3 Depth=1
	movq	-24(%rbp), %rax
	movq	80(%rax), %rax
	movslq	-12(%rbp), %rcx
	movl	(%rax,%rcx,4), %esi
	movq	-32(%rbp), %rdx
	movabsq	$.L.str.29, %rdi
	callq	ue_v
	addl	-16(%rbp), %eax
	movl	%eax, -16(%rbp)
.LBB17_8:                               # %if.end
                                        #   in Loop: Header=BB17_3 Depth=1
	jmp	.LBB17_9
.LBB17_9:                               # %if.end33
                                        #   in Loop: Header=BB17_3 Depth=1
	jmp	.LBB17_10
.LBB17_10:                              # %do.cond
                                        #   in Loop: Header=BB17_3 Depth=1
	movq	-24(%rbp), %rax
	movq	64(%rax), %rax
	movslq	-12(%rbp), %rcx
	cmpl	$3, (%rax,%rcx,4)
	jne	.LBB17_3
# %bb.11:                               # %do.end
	jmp	.LBB17_12
.LBB17_12:                              # %if.end38
	jmp	.LBB17_13
.LBB17_13:                              # %if.end39
	movq	img, %rax
	cmpl	$1, 24(%rax)
	jne	.LBB17_26
# %bb.14:                               # %if.then42
	movq	-24(%rbp), %rax
	movl	88(%rax), %esi
	movq	-32(%rbp), %rdx
	movabsq	$.L.str.30, %rdi
	callq	u_1
	addl	-16(%rbp), %eax
	movl	%eax, -16(%rbp)
	movq	-24(%rbp), %rax
	cmpl	$0, 88(%rax)
	je	.LBB17_25
# %bb.15:                               # %if.then47
	movl	$-1, -12(%rbp)
.LBB17_16:                              # %do.body48
                                        # =>This Inner Loop Header: Depth=1
	movl	-12(%rbp), %eax
	addl	$1, %eax
	movl	%eax, -12(%rbp)
	movq	-24(%rbp), %rax
	movq	96(%rax), %rax
	movslq	-12(%rbp), %rcx
	movl	(%rax,%rcx,4), %esi
	movq	-32(%rbp), %rdx
	movabsq	$.L.str.27, %rdi
	callq	ue_v
	addl	-16(%rbp), %eax
	movl	%eax, -16(%rbp)
	movq	-24(%rbp), %rax
	movq	96(%rax), %rax
	movslq	-12(%rbp), %rcx
	cmpl	$0, (%rax,%rcx,4)
	je	.LBB17_18
# %bb.17:                               # %lor.lhs.false58
                                        #   in Loop: Header=BB17_16 Depth=1
	movq	-24(%rbp), %rax
	movq	96(%rax), %rax
	movslq	-12(%rbp), %rcx
	cmpl	$1, (%rax,%rcx,4)
	jne	.LBB17_19
.LBB17_18:                              # %if.then63
                                        #   in Loop: Header=BB17_16 Depth=1
	movq	-24(%rbp), %rax
	movq	104(%rax), %rax
	movslq	-12(%rbp), %rcx
	movl	(%rax,%rcx,4), %esi
	movq	-32(%rbp), %rdx
	movabsq	$.L.str.31, %rdi
	callq	ue_v
	addl	-16(%rbp), %eax
	movl	%eax, -16(%rbp)
	jmp	.LBB17_22
.LBB17_19:                              # %if.else68
                                        #   in Loop: Header=BB17_16 Depth=1
	movq	-24(%rbp), %rax
	movq	96(%rax), %rax
	movslq	-12(%rbp), %rcx
	cmpl	$2, (%rax,%rcx,4)
	jne	.LBB17_21
# %bb.20:                               # %if.then73
                                        #   in Loop: Header=BB17_16 Depth=1
	movq	-24(%rbp), %rax
	movq	112(%rax), %rax
	movslq	-12(%rbp), %rcx
	movl	(%rax,%rcx,4), %esi
	movq	-32(%rbp), %rdx
	movabsq	$.L.str.32, %rdi
	callq	ue_v
	addl	-16(%rbp), %eax
	movl	%eax, -16(%rbp)
.LBB17_21:                              # %if.end78
                                        #   in Loop: Header=BB17_16 Depth=1
	jmp	.LBB17_22
.LBB17_22:                              # %if.end79
                                        #   in Loop: Header=BB17_16 Depth=1
	jmp	.LBB17_23
.LBB17_23:                              # %do.cond80
                                        #   in Loop: Header=BB17_16 Depth=1
	movq	-24(%rbp), %rax
	movq	96(%rax), %rax
	movslq	-12(%rbp), %rcx
	cmpl	$3, (%rax,%rcx,4)
	jne	.LBB17_16
# %bb.24:                               # %do.end85
	jmp	.LBB17_25
.LBB17_25:                              # %if.end86
	jmp	.LBB17_26
.LBB17_26:                              # %if.end87
	movl	-16(%rbp), %ebx
	cmpl	$608824514, -36(%rbp)   # imm = 0x2449ECC2
	jne	.LBB17_28
.LBB17_27:
	movl	%ebx, %eax
	addq	$40, %rsp
	popq	%rbx
	popq	%rbp
	.cfi_def_cfa %rsp, 8
	retq
.LBB17_28:                              # %func_exit
	.cfi_def_cfa %rbp, 16
	callq	detect_breach
	jmp	.LBB17_27
.Lfunc_end17:
	.size	ref_pic_list_reordering.12, .Lfunc_end17-ref_pic_list_reordering.12
	.cfi_endproc
                                        # -- End function
	.section	.rodata.cst8,"aM",@progbits,8
	.p2align	3               # -- Begin function SliceHeader.13
.LCPI18_0:
	.quad	4611686018427387904     # double 2
	.section	.rodata.cst4,"aM",@progbits,4
	.p2align	2
.LCPI18_1:
	.long	1065353216              # float 1
	.text
	.globl	SliceHeader.13
	.p2align	4, 0x90
	.type	SliceHeader.13,@function
SliceHeader.13:                         # @SliceHeader.13
	.cfi_startproc
# %bb.0:                                # %entry
	pushq	%rbp
	.cfi_def_cfa_offset 16
	.cfi_offset %rbp, -16
	movq	%rsp, %rbp
	.cfi_def_cfa_register %rbp
	pushq	%rbx
	subq	$72, %rsp
	.cfi_offset %rbx, -24
	movl	$1281922830, -48(%rbp)  # imm = 0x4C68970E
	movq	input, %rax
	movslq	2364(%rax), %rax
	movq	assignSE2partition(,%rax,8), %rax
	movl	(%rax), %eax
	movl	%eax, -52(%rbp)
	movq	img, %rax
	movq	14160(%rax), %rax
	movq	24(%rax), %rax
	movslq	-52(%rbp), %rcx
	imulq	$120, %rcx, %rcx
	addq	%rcx, %rax
	movq	%rax, -24(%rbp)
	movq	img, %rax
	movq	14160(%rax), %rax
	movq	%rax, -72(%rbp)
	movl	$0, -12(%rbp)
	movl	$0, -28(%rbp)
	movl	$0, -36(%rbp)
	movq	img, %rax
	cmpl	$0, 72400(%rax)
	je	.LBB18_2
# %bb.1:                                # %if.then
	movq	img, %rax
	movl	12(%rax), %esi
	sarl	$1, %esi
	movq	-24(%rbp), %rdx
	movabsq	$.L.str, %rdi
	callq	ue_v
	movl	%eax, -12(%rbp)
	jmp	.LBB18_3
.LBB18_2:                               # %if.else
	movq	img, %rax
	movl	12(%rax), %esi
	movq	-24(%rbp), %rdx
	movabsq	$.L.str, %rdi
	callq	ue_v
	movl	%eax, -12(%rbp)
.LBB18_3:                               # %if.end
	callq	get_picture_type
	movq	-24(%rbp), %rdx
	movabsq	$.L.str.1, %rdi
	movl	%eax, %esi
	callq	ue_v
	addl	-12(%rbp), %eax
	movl	%eax, -12(%rbp)
	movq	active_pps, %rax
	movl	4(%rax), %esi
	movq	-24(%rbp), %rdx
	movabsq	$.L.str.2, %rdi
	callq	ue_v
	addl	-12(%rbp), %eax
	movl	%eax, -12(%rbp)
	movl	log2_max_frame_num_minus4, %edi
	addl	$4, %edi
	movq	img, %rax
	movl	72464(%rax), %edx
	movq	-24(%rbp), %rcx
	movabsq	$.L.str.3, %rsi
	callq	u_v
	addl	-12(%rbp), %eax
	movl	%eax, -12(%rbp)
	movq	active_sps, %rax
	cmpl	$0, 1148(%rax)
	jne	.LBB18_9
# %bb.4:                                # %if.then15
	movq	img, %rax
	cmpl	$1, 28(%rax)
	movb	$1, %al
	je	.LBB18_6
# %bb.5:                                # %lor.rhs
	movq	img, %rax
	cmpl	$2, 28(%rax)
	sete	%al
.LBB18_6:                               # %lor.end
	xorl	%ecx, %ecx
	testb	$1, %al
	movl	$1, %eax
	cmovnel	%eax, %ecx
	movl	%ecx, -28(%rbp)
	movl	-28(%rbp), %esi
	movq	-24(%rbp), %rdx
	movabsq	$.L.str.4, %rdi
	callq	u_1
	addl	-12(%rbp), %eax
	movl	%eax, -12(%rbp)
	cmpl	$0, -28(%rbp)
	je	.LBB18_8
# %bb.7:                                # %if.then21
	xorl	%eax, %eax
	movq	img, %rcx
	movl	28(%rcx), %ecx
	cmpl	$2, %ecx
	movl	$1, %ecx
	cmovel	%ecx, %eax
	movl	%eax, -36(%rbp)
	movl	-36(%rbp), %esi
	movq	-24(%rbp), %rdx
	movabsq	$.L.str.5, %rdi
	callq	u_1
	addl	-12(%rbp), %eax
	movl	%eax, -12(%rbp)
.LBB18_8:                               # %if.end27
	jmp	.LBB18_9
.LBB18_9:                               # %if.end28
	movq	img, %rax
	movq	14152(%rax), %rax
	cmpl	$0, 4(%rax)
	je	.LBB18_11
# %bb.10:                               # %if.then30
	movq	img, %rax
	movl	(%rax), %eax
	cltd
	movl	$2, %ecx
	idivl	%ecx
	movq	-24(%rbp), %rax
	movabsq	$.L.str.6, %rdi
	movl	%edx, %esi
	movq	%rax, %rdx
	callq	ue_v
	addl	-12(%rbp), %eax
	movl	%eax, -12(%rbp)
.LBB18_11:                              # %if.end33
	movq	img, %rax
	cmpl	$0, 72404(%rax)
	jne	.LBB18_25
# %bb.12:                               # %if.then35
	movq	active_sps, %rax
	cmpl	$0, 1148(%rax)
	je	.LBB18_14
# %bb.13:                               # %if.then38
	movq	img, %rax
	movl	72448(%rax), %eax
	movl	log2_max_pic_order_cnt_lsb_minus4, %ecx
	addl	$4, %ecx
                                        # kill: def $cl killed $ecx
	movl	$4294967295, %edx       # imm = 0xFFFFFFFF
	shll	%cl, %edx
	xorl	$-1, %edx
	andl	%edx, %eax
	movq	img, %rcx
	movl	%eax, 72428(%rcx)
	jmp	.LBB18_21
.LBB18_14:                              # %if.else40
	cmpl	$0, -28(%rbp)
	je	.LBB18_16
# %bb.15:                               # %lor.lhs.false
	movq	img, %rax
	cmpl	$1, 28(%rax)
	jne	.LBB18_17
.LBB18_16:                              # %if.then44
	movq	img, %rax
	movl	72448(%rax), %eax
	movl	log2_max_pic_order_cnt_lsb_minus4, %ecx
	addl	$4, %ecx
                                        # kill: def $cl killed $ecx
	movl	$4294967295, %edx       # imm = 0xFFFFFFFF
	shll	%cl, %edx
	xorl	$-1, %edx
	andl	%edx, %eax
	movq	img, %rcx
	movl	%eax, 72428(%rcx)
	jmp	.LBB18_20
.LBB18_17:                              # %if.else51
	movq	img, %rax
	cmpl	$2, 28(%rax)
	jne	.LBB18_19
# %bb.18:                               # %if.then54
	movq	img, %rax
	movl	72452(%rax), %eax
	movl	log2_max_pic_order_cnt_lsb_minus4, %ecx
	addl	$4, %ecx
                                        # kill: def $cl killed $ecx
	movl	$4294967295, %edx       # imm = 0xFFFFFFFF
	shll	%cl, %edx
	xorl	$-1, %edx
	andl	%edx, %eax
	movq	img, %rcx
	movl	%eax, 72428(%rcx)
.LBB18_19:                              # %if.end60
	jmp	.LBB18_20
.LBB18_20:                              # %if.end61
	jmp	.LBB18_21
.LBB18_21:                              # %if.end62
	movl	log2_max_pic_order_cnt_lsb_minus4, %edi
	addl	$4, %edi
	movq	img, %rax
	movl	72428(%rax), %edx
	movq	-24(%rbp), %rcx
	movabsq	$.L.str.7, %rsi
	callq	u_v
	addl	-12(%rbp), %eax
	movl	%eax, -12(%rbp)
	movq	img, %rax
	cmpl	$0, 72492(%rax)
	je	.LBB18_24
# %bb.22:                               # %land.lhs.true
	cmpl	$0, -28(%rbp)
	jne	.LBB18_24
# %bb.23:                               # %if.then69
	movq	img, %rax
	movl	72432(%rax), %esi
	movq	-24(%rbp), %rdx
	movabsq	$.L.str.8, %rdi
	callq	se_v
	addl	-12(%rbp), %eax
	movl	%eax, -12(%rbp)
.LBB18_24:                              # %if.end72
	jmp	.LBB18_25
.LBB18_25:                              # %if.end73
	movq	img, %rax
	cmpl	$1, 72404(%rax)
	jne	.LBB18_31
# %bb.26:                               # %land.lhs.true76
	movq	img, %rax
	cmpl	$0, 72408(%rax)
	jne	.LBB18_31
# %bb.27:                               # %if.then78
	movq	img, %rax
	movl	72436(%rax), %esi
	movq	-24(%rbp), %rdx
	movabsq	$.L.str.9, %rdi
	callq	se_v
	addl	-12(%rbp), %eax
	movl	%eax, -12(%rbp)
	movq	img, %rax
	cmpl	$0, 72492(%rax)
	je	.LBB18_30
# %bb.28:                               # %land.lhs.true84
	cmpl	$0, -28(%rbp)
	jne	.LBB18_30
# %bb.29:                               # %if.then86
	movq	img, %rax
	movl	72440(%rax), %esi
	movq	-24(%rbp), %rdx
	movabsq	$.L.str.10, %rdi
	callq	se_v
	addl	-12(%rbp), %eax
	movl	%eax, -12(%rbp)
.LBB18_30:                              # %if.end91
	jmp	.LBB18_31
.LBB18_31:                              # %if.end92
	movq	input, %rax
	cmpl	$0, 3204(%rax)
	je	.LBB18_33
# %bb.32:                               # %if.then94
	movq	img, %rax
	movl	72396(%rax), %esi
	movq	-24(%rbp), %rdx
	movabsq	$.L.str.11, %rdi
	callq	ue_v
	addl	-12(%rbp), %eax
	movl	%eax, -12(%rbp)
.LBB18_33:                              # %if.end97
	movq	img, %rax
	cmpl	$1, 24(%rax)
	jne	.LBB18_35
# %bb.34:                               # %if.then99
	movq	img, %rax
	movl	71996(%rax), %esi
	movq	-24(%rbp), %rdx
	movabsq	$.L.str.12, %rdi
	callq	u_1
	addl	-12(%rbp), %eax
	movl	%eax, -12(%rbp)
.LBB18_35:                              # %if.end102
	movq	img, %rax
	cmpl	$0, 24(%rax)
	je	.LBB18_38
# %bb.36:                               # %lor.lhs.false105
	movq	img, %rax
	cmpl	$1, 24(%rax)
	je	.LBB18_38
# %bb.37:                               # %lor.lhs.false108
	movq	img, %rax
	cmpl	$3, 24(%rax)
	jne	.LBB18_49
.LBB18_38:                              # %if.then111
	movq	img, %rax
	cmpl	$0, 24(%rax)
	je	.LBB18_40
# %bb.39:                               # %lor.lhs.false114
	movq	img, %rax
	cmpl	$3, 24(%rax)
	jne	.LBB18_41
.LBB18_40:                              # %if.then117
	xorl	%eax, %eax
	movq	img, %rcx
	movl	72000(%rcx), %ecx
	movq	active_pps, %rdx
	movl	184(%rdx), %edx
	addl	$1, %edx
	cmpl	%edx, %ecx
	movl	$1, %ecx
	cmovnel	%ecx, %eax
	movl	%eax, -32(%rbp)
	jmp	.LBB18_44
.LBB18_41:                              # %if.else121
	movq	img, %rax
	movl	72000(%rax), %eax
	movq	active_pps, %rcx
	movl	184(%rcx), %ecx
	addl	$1, %ecx
	cmpl	%ecx, %eax
	movb	$1, %al
	jne	.LBB18_43
# %bb.42:                               # %lor.rhs126
	movq	img, %rax
	movl	72004(%rax), %eax
	movq	active_pps, %rcx
	movl	188(%rcx), %ecx
	addl	$1, %ecx
	cmpl	%ecx, %eax
	setne	%al
.LBB18_43:                              # %lor.end129
	xorl	%ecx, %ecx
	testb	$1, %al
	movl	$1, %eax
	cmovnel	%eax, %ecx
	movl	%ecx, -32(%rbp)
.LBB18_44:                              # %if.end131
	movl	-32(%rbp), %esi
	movq	-24(%rbp), %rdx
	movabsq	$.L.str.13, %rdi
	callq	u_1
	addl	-12(%rbp), %eax
	movl	%eax, -12(%rbp)
	cmpl	$0, -32(%rbp)
	je	.LBB18_48
# %bb.45:                               # %if.then135
	movq	img, %rax
	movl	72000(%rax), %esi
	subl	$1, %esi
	movq	-24(%rbp), %rdx
	movabsq	$.L.str.14, %rdi
	callq	ue_v
	addl	-12(%rbp), %eax
	movl	%eax, -12(%rbp)
	movq	img, %rax
	cmpl	$1, 24(%rax)
	jne	.LBB18_47
# %bb.46:                               # %if.then141
	movq	img, %rax
	movl	72004(%rax), %esi
	subl	$1, %esi
	movq	-24(%rbp), %rdx
	movabsq	$.L.str.15, %rdi
	callq	ue_v
	addl	-12(%rbp), %eax
	movl	%eax, -12(%rbp)
.LBB18_47:                              # %if.end146
	jmp	.LBB18_48
.LBB18_48:                              # %if.end147
	jmp	.LBB18_49
.LBB18_49:                              # %if.end148
	callq	ref_pic_list_reordering
	addl	-12(%rbp), %eax
	movl	%eax, -12(%rbp)
	movq	img, %rax
	cmpl	$0, 24(%rax)
	je	.LBB18_51
# %bb.50:                               # %lor.lhs.false153
	movq	img, %rax
	cmpl	$3, 24(%rax)
	jne	.LBB18_52
.LBB18_51:                              # %land.lhs.true156
	movq	active_pps, %rax
	cmpl	$0, 192(%rax)
	jne	.LBB18_54
.LBB18_52:                              # %lor.lhs.false158
	movq	img, %rax
	cmpl	$1, 24(%rax)
	jne	.LBB18_55
# %bb.53:                               # %land.lhs.true161
	movq	active_pps, %rax
	cmpl	$1, 196(%rax)
	jne	.LBB18_55
.LBB18_54:                              # %if.then163
	callq	pred_weight_table
	addl	-12(%rbp), %eax
	movl	%eax, -12(%rbp)
.LBB18_55:                              # %if.end166
	movq	img, %rax
	cmpl	$0, 72496(%rax)
	je	.LBB18_57
# %bb.56:                               # %if.then168
	callq	dec_ref_pic_marking
	addl	-12(%rbp), %eax
	movl	%eax, -12(%rbp)
.LBB18_57:                              # %if.end171
	movq	input, %rax
	cmpl	$1, 2356(%rax)
	jne	.LBB18_60
# %bb.58:                               # %land.lhs.true173
	movq	img, %rax
	cmpl	$2, 24(%rax)
	je	.LBB18_60
# %bb.59:                               # %if.then176
	movq	img, %rax
	movl	72520(%rax), %esi
	movq	-24(%rbp), %rdx
	movabsq	$.L.str.16, %rdi
	callq	ue_v
	addl	-12(%rbp), %eax
	movl	%eax, -12(%rbp)
.LBB18_60:                              # %if.end179
	movq	-72(%rbp), %rax
	movl	4(%rax), %esi
	subl	$26, %esi
	movq	active_pps, %rax
	subl	200(%rax), %esi
	movq	-24(%rbp), %rdx
	movabsq	$.L.str.17, %rdi
	callq	se_v
	addl	-12(%rbp), %eax
	movl	%eax, -12(%rbp)
	movq	img, %rax
	cmpl	$3, 24(%rax)
	jne	.LBB18_64
# %bb.61:                               # %if.then186
	movq	img, %rax
	cmpl	$3, 24(%rax)
	jne	.LBB18_63
# %bb.62:                               # %if.then189
	movq	-24(%rbp), %rdx
	movabsq	$.L.str.18, %rdi
	xorl	%esi, %esi
	callq	u_1
	addl	-12(%rbp), %eax
	movl	%eax, -12(%rbp)
.LBB18_63:                              # %if.end192
	movq	img, %rax
	movl	44(%rax), %esi
	subl	$26, %esi
	movq	-24(%rbp), %rdx
	movabsq	$.L.str.19, %rdi
	callq	se_v
	addl	-12(%rbp), %eax
	movl	%eax, -12(%rbp)
.LBB18_64:                              # %if.end196
	movq	active_pps, %rax
	cmpl	$0, 220(%rax)
	je	.LBB18_68
# %bb.65:                               # %if.then198
	movq	img, %rax
	movl	71984(%rax), %esi
	movq	-24(%rbp), %rdx
	movabsq	$.L.str.20, %rdi
	callq	ue_v
	addl	-12(%rbp), %eax
	movl	%eax, -12(%rbp)
	movq	img, %rax
	cmpl	$1, 71984(%rax)
	je	.LBB18_67
# %bb.66:                               # %if.then203
	movq	img, %rax
	movl	71988(%rax), %eax
	cltd
	movl	$2, %ecx
	idivl	%ecx
	movq	-24(%rbp), %rdx
	movabsq	$.L.str.21, %rdi
	movl	%eax, %esi
	callq	se_v
	addl	-12(%rbp), %eax
	movl	%eax, -12(%rbp)
	movq	img, %rax
	movl	71992(%rax), %eax
	cltd
	movl	$2, %ecx
	idivl	%ecx
	movq	-24(%rbp), %rdx
	movabsq	$.L.str.22, %rdi
	movl	%eax, %esi
	callq	se_v
	addl	-12(%rbp), %eax
	movl	%eax, -12(%rbp)
.LBB18_67:                              # %if.end209
	jmp	.LBB18_68
.LBB18_68:                              # %if.end210
	movq	active_pps, %rax
	cmpl	$0, 60(%rax)
	jbe	.LBB18_72
# %bb.69:                               # %land.lhs.true212
	movq	active_pps, %rax
	cmpl	$3, 64(%rax)
	jb	.LBB18_72
# %bb.70:                               # %land.lhs.true214
	movq	active_pps, %rax
	cmpl	$5, 64(%rax)
	ja	.LBB18_72
# %bb.71:                               # %if.then217
	vmovss	.LCPI18_1(%rip), %xmm0  # xmm0 = mem[0],zero,zero,zero
	movq	img(%rip), %rax
	movl	72468(%rax), %ecx
	movl	72472(%rax), %eax
	imull	%ecx, %eax
	vcvtsi2ss	%rax, %xmm0, %xmm1
	movq	active_pps(%rip), %rax
	movl	168(%rax), %eax
	addl	$1, %eax
	vcvtsi2ss	%rax, %xmm0, %xmm2
	vdivss	%xmm2, %xmm1, %xmm1
	vaddss	%xmm0, %xmm1, %xmm0
	vmovss	%xmm0, -44(%rbp)
	vmovss	-44(%rbp), %xmm0        # xmm0 = mem[0],zero,zero,zero
	vcvtss2sd	%xmm0, %xmm0, %xmm0
	callq	log
	vmovsd	%xmm0, -64(%rbp)        # 8-byte Spill
	vmovsd	.LCPI18_0(%rip), %xmm0  # xmm0 = mem[0],zero
	callq	log
	vmovsd	-64(%rbp), %xmm1        # 8-byte Reload
                                        # xmm1 = mem[0],zero
	vdivsd	%xmm0, %xmm1, %xmm0
	vroundsd	$10, %xmm0, %xmm0, %xmm0
	vcvttsd2si	%xmm0, %eax
	movl	%eax, -40(%rbp)
	movl	-40(%rbp), %edi
	movq	img, %rax
	movl	72652(%rax), %edx
	movq	-24(%rbp), %rcx
	movabsq	$.L.str.23, %rsi
	callq	u_v
	addl	-12(%rbp), %eax
	movl	%eax, -12(%rbp)
.LBB18_72:                              # %if.end229
	movq	input, %rax
	cmpl	$0, 2364(%rax)
	je	.LBB18_75
# %bb.73:                               # %land.lhs.true232
	movq	img, %rax
	movq	14152(%rax), %rax
	cmpl	$0, 4(%rax)
	jne	.LBB18_75
# %bb.74:                               # %if.then236
	movq	img, %rax
	movl	20(%rax), %esi
	movq	-24(%rbp), %rdx
	movabsq	$.L.str.24, %rdi
	callq	ue_v
	addl	-12(%rbp), %eax
	movl	%eax, -12(%rbp)
.LBB18_75:                              # %if.end239
	movl	-12(%rbp), %ebx
	cmpl	$1281922830, -48(%rbp)  # imm = 0x4C68970E
	jne	.LBB18_77
.LBB18_76:
	movl	%ebx, %eax
	addq	$72, %rsp
	popq	%rbx
	popq	%rbp
	.cfi_def_cfa %rsp, 8
	retq
.LBB18_77:                              # %func_exit
	.cfi_def_cfa %rbp, 16
	callq	detect_breach
	jmp	.LBB18_76
.Lfunc_end18:
	.size	SliceHeader.13, .Lfunc_end18-SliceHeader.13
	.cfi_endproc
                                        # -- End function
	.p2align	4, 0x90         # -- Begin function ref_pic_list_reordering.14
	.type	ref_pic_list_reordering.14,@function
ref_pic_list_reordering.14:             # @ref_pic_list_reordering.14
	.cfi_startproc
# %bb.0:                                # %entry
	pushq	%rbp
	.cfi_def_cfa_offset 16
	.cfi_offset %rbp, -16
	movq	%rsp, %rbp
	.cfi_def_cfa_register %rbp
	pushq	%rbx
	subq	$40, %rsp
	.cfi_offset %rbx, -24
	movl	$1535120111, -36(%rbp)  # imm = 0x5B8012EF
	movq	input, %rax
	movslq	2364(%rax), %rax
	movq	assignSE2partition(,%rax,8), %rax
	movl	(%rax), %eax
	movl	%eax, -40(%rbp)
	movq	img, %rax
	movq	14160(%rax), %rax
	movq	24(%rax), %rax
	movslq	-40(%rbp), %rcx
	imulq	$120, %rcx, %rcx
	addq	%rcx, %rax
	movq	%rax, -32(%rbp)
	movq	img, %rax
	movq	14160(%rax), %rax
	movq	%rax, -24(%rbp)
	movl	$0, -16(%rbp)
	movq	img, %rax
	cmpl	$2, 24(%rax)
	je	.LBB19_13
# %bb.1:                                # %if.then
	movq	-24(%rbp), %rax
	movl	56(%rax), %esi
	movq	-32(%rbp), %rdx
	movabsq	$.L.str.26, %rdi
	callq	u_1
	addl	-16(%rbp), %eax
	movl	%eax, -16(%rbp)
	movq	-24(%rbp), %rax
	cmpl	$0, 56(%rax)
	je	.LBB19_12
# %bb.2:                                # %if.then6
	movl	$-1, -12(%rbp)
.LBB19_3:                               # %do.body
                                        # =>This Inner Loop Header: Depth=1
	movl	-12(%rbp), %eax
	addl	$1, %eax
	movl	%eax, -12(%rbp)
	movq	-24(%rbp), %rax
	movq	64(%rax), %rax
	movslq	-12(%rbp), %rcx
	movl	(%rax,%rcx,4), %esi
	movq	-32(%rbp), %rdx
	movabsq	$.L.str.27, %rdi
	callq	ue_v
	addl	-16(%rbp), %eax
	movl	%eax, -16(%rbp)
	movq	-24(%rbp), %rax
	movq	64(%rax), %rax
	movslq	-12(%rbp), %rcx
	cmpl	$0, (%rax,%rcx,4)
	je	.LBB19_5
# %bb.4:                                # %lor.lhs.false
                                        #   in Loop: Header=BB19_3 Depth=1
	movq	-24(%rbp), %rax
	movq	64(%rax), %rax
	movslq	-12(%rbp), %rcx
	cmpl	$1, (%rax,%rcx,4)
	jne	.LBB19_6
.LBB19_5:                               # %if.then19
                                        #   in Loop: Header=BB19_3 Depth=1
	movq	-24(%rbp), %rax
	movq	72(%rax), %rax
	movslq	-12(%rbp), %rcx
	movl	(%rax,%rcx,4), %esi
	movq	-32(%rbp), %rdx
	movabsq	$.L.str.28, %rdi
	callq	ue_v
	addl	-16(%rbp), %eax
	movl	%eax, -16(%rbp)
	jmp	.LBB19_9
.LBB19_6:                               # %if.else
                                        #   in Loop: Header=BB19_3 Depth=1
	movq	-24(%rbp), %rax
	movq	64(%rax), %rax
	movslq	-12(%rbp), %rcx
	cmpl	$2, (%rax,%rcx,4)
	jne	.LBB19_8
# %bb.7:                                # %if.then28
                                        #   in Loop: Header=BB19_3 Depth=1
	movq	-24(%rbp), %rax
	movq	80(%rax), %rax
	movslq	-12(%rbp), %rcx
	movl	(%rax,%rcx,4), %esi
	movq	-32(%rbp), %rdx
	movabsq	$.L.str.29, %rdi
	callq	ue_v
	addl	-16(%rbp), %eax
	movl	%eax, -16(%rbp)
.LBB19_8:                               # %if.end
                                        #   in Loop: Header=BB19_3 Depth=1
	jmp	.LBB19_9
.LBB19_9:                               # %if.end33
                                        #   in Loop: Header=BB19_3 Depth=1
	jmp	.LBB19_10
.LBB19_10:                              # %do.cond
                                        #   in Loop: Header=BB19_3 Depth=1
	movq	-24(%rbp), %rax
	movq	64(%rax), %rax
	movslq	-12(%rbp), %rcx
	cmpl	$3, (%rax,%rcx,4)
	jne	.LBB19_3
# %bb.11:                               # %do.end
	jmp	.LBB19_12
.LBB19_12:                              # %if.end38
	jmp	.LBB19_13
.LBB19_13:                              # %if.end39
	movq	img, %rax
	cmpl	$1, 24(%rax)
	jne	.LBB19_26
# %bb.14:                               # %if.then42
	movq	-24(%rbp), %rax
	movl	88(%rax), %esi
	movq	-32(%rbp), %rdx
	movabsq	$.L.str.30, %rdi
	callq	u_1
	addl	-16(%rbp), %eax
	movl	%eax, -16(%rbp)
	movq	-24(%rbp), %rax
	cmpl	$0, 88(%rax)
	je	.LBB19_25
# %bb.15:                               # %if.then47
	movl	$-1, -12(%rbp)
.LBB19_16:                              # %do.body48
                                        # =>This Inner Loop Header: Depth=1
	movl	-12(%rbp), %eax
	addl	$1, %eax
	movl	%eax, -12(%rbp)
	movq	-24(%rbp), %rax
	movq	96(%rax), %rax
	movslq	-12(%rbp), %rcx
	movl	(%rax,%rcx,4), %esi
	movq	-32(%rbp), %rdx
	movabsq	$.L.str.27, %rdi
	callq	ue_v
	addl	-16(%rbp), %eax
	movl	%eax, -16(%rbp)
	movq	-24(%rbp), %rax
	movq	96(%rax), %rax
	movslq	-12(%rbp), %rcx
	cmpl	$0, (%rax,%rcx,4)
	je	.LBB19_18
# %bb.17:                               # %lor.lhs.false58
                                        #   in Loop: Header=BB19_16 Depth=1
	movq	-24(%rbp), %rax
	movq	96(%rax), %rax
	movslq	-12(%rbp), %rcx
	cmpl	$1, (%rax,%rcx,4)
	jne	.LBB19_19
.LBB19_18:                              # %if.then63
                                        #   in Loop: Header=BB19_16 Depth=1
	movq	-24(%rbp), %rax
	movq	104(%rax), %rax
	movslq	-12(%rbp), %rcx
	movl	(%rax,%rcx,4), %esi
	movq	-32(%rbp), %rdx
	movabsq	$.L.str.31, %rdi
	callq	ue_v
	addl	-16(%rbp), %eax
	movl	%eax, -16(%rbp)
	jmp	.LBB19_22
.LBB19_19:                              # %if.else68
                                        #   in Loop: Header=BB19_16 Depth=1
	movq	-24(%rbp), %rax
	movq	96(%rax), %rax
	movslq	-12(%rbp), %rcx
	cmpl	$2, (%rax,%rcx,4)
	jne	.LBB19_21
# %bb.20:                               # %if.then73
                                        #   in Loop: Header=BB19_16 Depth=1
	movq	-24(%rbp), %rax
	movq	112(%rax), %rax
	movslq	-12(%rbp), %rcx
	movl	(%rax,%rcx,4), %esi
	movq	-32(%rbp), %rdx
	movabsq	$.L.str.32, %rdi
	callq	ue_v
	addl	-16(%rbp), %eax
	movl	%eax, -16(%rbp)
.LBB19_21:                              # %if.end78
                                        #   in Loop: Header=BB19_16 Depth=1
	jmp	.LBB19_22
.LBB19_22:                              # %if.end79
                                        #   in Loop: Header=BB19_16 Depth=1
	jmp	.LBB19_23
.LBB19_23:                              # %do.cond80
                                        #   in Loop: Header=BB19_16 Depth=1
	movq	-24(%rbp), %rax
	movq	96(%rax), %rax
	movslq	-12(%rbp), %rcx
	cmpl	$3, (%rax,%rcx,4)
	jne	.LBB19_16
# %bb.24:                               # %do.end85
	jmp	.LBB19_25
.LBB19_25:                              # %if.end86
	jmp	.LBB19_26
.LBB19_26:                              # %if.end87
	movl	-16(%rbp), %ebx
	cmpl	$1535120111, -36(%rbp)  # imm = 0x5B8012EF
	jne	.LBB19_28
.LBB19_27:
	movl	%ebx, %eax
	addq	$40, %rsp
	popq	%rbx
	popq	%rbp
	.cfi_def_cfa %rsp, 8
	retq
.LBB19_28:                              # %func_exit
	.cfi_def_cfa %rbp, 16
	callq	detect_breach
	jmp	.LBB19_27
.Lfunc_end19:
	.size	ref_pic_list_reordering.14, .Lfunc_end19-ref_pic_list_reordering.14
	.cfi_endproc
                                        # -- End function
	.section	.rodata.cst8,"aM",@progbits,8
	.p2align	3               # -- Begin function SliceHeader.15
.LCPI20_0:
	.quad	4611686018427387904     # double 2
	.section	.rodata.cst4,"aM",@progbits,4
	.p2align	2
.LCPI20_1:
	.long	1065353216              # float 1
	.text
	.globl	SliceHeader.15
	.p2align	4, 0x90
	.type	SliceHeader.15,@function
SliceHeader.15:                         # @SliceHeader.15
	.cfi_startproc
# %bb.0:                                # %entry
	pushq	%rbp
	.cfi_def_cfa_offset 16
	.cfi_offset %rbp, -16
	movq	%rsp, %rbp
	.cfi_def_cfa_register %rbp
	pushq	%rbx
	subq	$72, %rsp
	.cfi_offset %rbx, -24
	movl	$1295266492, -44(%rbp)  # imm = 0x4D3432BC
	movq	input, %rax
	movslq	2364(%rax), %rax
	movq	assignSE2partition(,%rax,8), %rax
	movl	(%rax), %eax
	movl	%eax, -48(%rbp)
	movq	img, %rax
	movq	14160(%rax), %rax
	movq	24(%rax), %rax
	movslq	-48(%rbp), %rcx
	imulq	$120, %rcx, %rcx
	addq	%rcx, %rax
	movq	%rax, -24(%rbp)
	movq	img, %rax
	movq	14160(%rax), %rax
	movq	%rax, -72(%rbp)
	movl	$0, -12(%rbp)
	movl	$0, -28(%rbp)
	movl	$0, -36(%rbp)
	movq	img, %rax
	cmpl	$0, 72400(%rax)
	je	.LBB20_2
# %bb.1:                                # %if.then
	movq	img, %rax
	movl	12(%rax), %esi
	sarl	$1, %esi
	movq	-24(%rbp), %rdx
	movabsq	$.L.str, %rdi
	callq	ue_v
	movl	%eax, -12(%rbp)
	jmp	.LBB20_3
.LBB20_2:                               # %if.else
	movq	img, %rax
	movl	12(%rax), %esi
	movq	-24(%rbp), %rdx
	movabsq	$.L.str, %rdi
	callq	ue_v
	movl	%eax, -12(%rbp)
.LBB20_3:                               # %if.end
	callq	get_picture_type
	movq	-24(%rbp), %rdx
	movabsq	$.L.str.1, %rdi
	movl	%eax, %esi
	callq	ue_v
	addl	-12(%rbp), %eax
	movl	%eax, -12(%rbp)
	movq	active_pps, %rax
	movl	4(%rax), %esi
	movq	-24(%rbp), %rdx
	movabsq	$.L.str.2, %rdi
	callq	ue_v
	addl	-12(%rbp), %eax
	movl	%eax, -12(%rbp)
	movl	log2_max_frame_num_minus4, %edi
	addl	$4, %edi
	movq	img, %rax
	movl	72464(%rax), %edx
	movq	-24(%rbp), %rcx
	movabsq	$.L.str.3, %rsi
	callq	u_v
	addl	-12(%rbp), %eax
	movl	%eax, -12(%rbp)
	movq	active_sps, %rax
	cmpl	$0, 1148(%rax)
	jne	.LBB20_9
# %bb.4:                                # %if.then15
	movq	img, %rax
	cmpl	$1, 28(%rax)
	movb	$1, %al
	je	.LBB20_6
# %bb.5:                                # %lor.rhs
	movq	img, %rax
	cmpl	$2, 28(%rax)
	sete	%al
.LBB20_6:                               # %lor.end
	xorl	%ecx, %ecx
	testb	$1, %al
	movl	$1, %eax
	cmovnel	%eax, %ecx
	movl	%ecx, -28(%rbp)
	movl	-28(%rbp), %esi
	movq	-24(%rbp), %rdx
	movabsq	$.L.str.4, %rdi
	callq	u_1
	addl	-12(%rbp), %eax
	movl	%eax, -12(%rbp)
	cmpl	$0, -28(%rbp)
	je	.LBB20_8
# %bb.7:                                # %if.then21
	xorl	%eax, %eax
	movq	img, %rcx
	movl	28(%rcx), %ecx
	cmpl	$2, %ecx
	movl	$1, %ecx
	cmovel	%ecx, %eax
	movl	%eax, -36(%rbp)
	movl	-36(%rbp), %esi
	movq	-24(%rbp), %rdx
	movabsq	$.L.str.5, %rdi
	callq	u_1
	addl	-12(%rbp), %eax
	movl	%eax, -12(%rbp)
.LBB20_8:                               # %if.end27
	jmp	.LBB20_9
.LBB20_9:                               # %if.end28
	movq	img, %rax
	movq	14152(%rax), %rax
	cmpl	$0, 4(%rax)
	je	.LBB20_11
# %bb.10:                               # %if.then30
	movq	img, %rax
	movl	(%rax), %eax
	cltd
	movl	$2, %ecx
	idivl	%ecx
	movq	-24(%rbp), %rax
	movabsq	$.L.str.6, %rdi
	movl	%edx, %esi
	movq	%rax, %rdx
	callq	ue_v
	addl	-12(%rbp), %eax
	movl	%eax, -12(%rbp)
.LBB20_11:                              # %if.end33
	movq	img, %rax
	cmpl	$0, 72404(%rax)
	jne	.LBB20_25
# %bb.12:                               # %if.then35
	movq	active_sps, %rax
	cmpl	$0, 1148(%rax)
	je	.LBB20_14
# %bb.13:                               # %if.then38
	movq	img, %rax
	movl	72448(%rax), %eax
	movl	log2_max_pic_order_cnt_lsb_minus4, %ecx
	addl	$4, %ecx
                                        # kill: def $cl killed $ecx
	movl	$4294967295, %edx       # imm = 0xFFFFFFFF
	shll	%cl, %edx
	xorl	$-1, %edx
	andl	%edx, %eax
	movq	img, %rcx
	movl	%eax, 72428(%rcx)
	jmp	.LBB20_21
.LBB20_14:                              # %if.else40
	cmpl	$0, -28(%rbp)
	je	.LBB20_16
# %bb.15:                               # %lor.lhs.false
	movq	img, %rax
	cmpl	$1, 28(%rax)
	jne	.LBB20_17
.LBB20_16:                              # %if.then44
	movq	img, %rax
	movl	72448(%rax), %eax
	movl	log2_max_pic_order_cnt_lsb_minus4, %ecx
	addl	$4, %ecx
                                        # kill: def $cl killed $ecx
	movl	$4294967295, %edx       # imm = 0xFFFFFFFF
	shll	%cl, %edx
	xorl	$-1, %edx
	andl	%edx, %eax
	movq	img, %rcx
	movl	%eax, 72428(%rcx)
	jmp	.LBB20_20
.LBB20_17:                              # %if.else51
	movq	img, %rax
	cmpl	$2, 28(%rax)
	jne	.LBB20_19
# %bb.18:                               # %if.then54
	movq	img, %rax
	movl	72452(%rax), %eax
	movl	log2_max_pic_order_cnt_lsb_minus4, %ecx
	addl	$4, %ecx
                                        # kill: def $cl killed $ecx
	movl	$4294967295, %edx       # imm = 0xFFFFFFFF
	shll	%cl, %edx
	xorl	$-1, %edx
	andl	%edx, %eax
	movq	img, %rcx
	movl	%eax, 72428(%rcx)
.LBB20_19:                              # %if.end60
	jmp	.LBB20_20
.LBB20_20:                              # %if.end61
	jmp	.LBB20_21
.LBB20_21:                              # %if.end62
	movl	log2_max_pic_order_cnt_lsb_minus4, %edi
	addl	$4, %edi
	movq	img, %rax
	movl	72428(%rax), %edx
	movq	-24(%rbp), %rcx
	movabsq	$.L.str.7, %rsi
	callq	u_v
	addl	-12(%rbp), %eax
	movl	%eax, -12(%rbp)
	movq	img, %rax
	cmpl	$0, 72492(%rax)
	je	.LBB20_24
# %bb.22:                               # %land.lhs.true
	cmpl	$0, -28(%rbp)
	jne	.LBB20_24
# %bb.23:                               # %if.then69
	movq	img, %rax
	movl	72432(%rax), %esi
	movq	-24(%rbp), %rdx
	movabsq	$.L.str.8, %rdi
	callq	se_v
	addl	-12(%rbp), %eax
	movl	%eax, -12(%rbp)
.LBB20_24:                              # %if.end72
	jmp	.LBB20_25
.LBB20_25:                              # %if.end73
	movq	img, %rax
	cmpl	$1, 72404(%rax)
	jne	.LBB20_31
# %bb.26:                               # %land.lhs.true76
	movq	img, %rax
	cmpl	$0, 72408(%rax)
	jne	.LBB20_31
# %bb.27:                               # %if.then78
	movq	img, %rax
	movl	72436(%rax), %esi
	movq	-24(%rbp), %rdx
	movabsq	$.L.str.9, %rdi
	callq	se_v
	addl	-12(%rbp), %eax
	movl	%eax, -12(%rbp)
	movq	img, %rax
	cmpl	$0, 72492(%rax)
	je	.LBB20_30
# %bb.28:                               # %land.lhs.true84
	cmpl	$0, -28(%rbp)
	jne	.LBB20_30
# %bb.29:                               # %if.then86
	movq	img, %rax
	movl	72440(%rax), %esi
	movq	-24(%rbp), %rdx
	movabsq	$.L.str.10, %rdi
	callq	se_v
	addl	-12(%rbp), %eax
	movl	%eax, -12(%rbp)
.LBB20_30:                              # %if.end91
	jmp	.LBB20_31
.LBB20_31:                              # %if.end92
	movq	input, %rax
	cmpl	$0, 3204(%rax)
	je	.LBB20_33
# %bb.32:                               # %if.then94
	movq	img, %rax
	movl	72396(%rax), %esi
	movq	-24(%rbp), %rdx
	movabsq	$.L.str.11, %rdi
	callq	ue_v
	addl	-12(%rbp), %eax
	movl	%eax, -12(%rbp)
.LBB20_33:                              # %if.end97
	movq	img, %rax
	cmpl	$1, 24(%rax)
	jne	.LBB20_35
# %bb.34:                               # %if.then99
	movq	img, %rax
	movl	71996(%rax), %esi
	movq	-24(%rbp), %rdx
	movabsq	$.L.str.12, %rdi
	callq	u_1
	addl	-12(%rbp), %eax
	movl	%eax, -12(%rbp)
.LBB20_35:                              # %if.end102
	movq	img, %rax
	cmpl	$0, 24(%rax)
	je	.LBB20_38
# %bb.36:                               # %lor.lhs.false105
	movq	img, %rax
	cmpl	$1, 24(%rax)
	je	.LBB20_38
# %bb.37:                               # %lor.lhs.false108
	movq	img, %rax
	cmpl	$3, 24(%rax)
	jne	.LBB20_49
.LBB20_38:                              # %if.then111
	movq	img, %rax
	cmpl	$0, 24(%rax)
	je	.LBB20_40
# %bb.39:                               # %lor.lhs.false114
	movq	img, %rax
	cmpl	$3, 24(%rax)
	jne	.LBB20_41
.LBB20_40:                              # %if.then117
	xorl	%eax, %eax
	movq	img, %rcx
	movl	72000(%rcx), %ecx
	movq	active_pps, %rdx
	movl	184(%rdx), %edx
	addl	$1, %edx
	cmpl	%edx, %ecx
	movl	$1, %ecx
	cmovnel	%ecx, %eax
	movl	%eax, -32(%rbp)
	jmp	.LBB20_44
.LBB20_41:                              # %if.else121
	movq	img, %rax
	movl	72000(%rax), %eax
	movq	active_pps, %rcx
	movl	184(%rcx), %ecx
	addl	$1, %ecx
	cmpl	%ecx, %eax
	movb	$1, %al
	jne	.LBB20_43
# %bb.42:                               # %lor.rhs126
	movq	img, %rax
	movl	72004(%rax), %eax
	movq	active_pps, %rcx
	movl	188(%rcx), %ecx
	addl	$1, %ecx
	cmpl	%ecx, %eax
	setne	%al
.LBB20_43:                              # %lor.end129
	xorl	%ecx, %ecx
	testb	$1, %al
	movl	$1, %eax
	cmovnel	%eax, %ecx
	movl	%ecx, -32(%rbp)
.LBB20_44:                              # %if.end131
	movl	-32(%rbp), %esi
	movq	-24(%rbp), %rdx
	movabsq	$.L.str.13, %rdi
	callq	u_1
	addl	-12(%rbp), %eax
	movl	%eax, -12(%rbp)
	cmpl	$0, -32(%rbp)
	je	.LBB20_48
# %bb.45:                               # %if.then135
	movq	img, %rax
	movl	72000(%rax), %esi
	subl	$1, %esi
	movq	-24(%rbp), %rdx
	movabsq	$.L.str.14, %rdi
	callq	ue_v
	addl	-12(%rbp), %eax
	movl	%eax, -12(%rbp)
	movq	img, %rax
	cmpl	$1, 24(%rax)
	jne	.LBB20_47
# %bb.46:                               # %if.then141
	movq	img, %rax
	movl	72004(%rax), %esi
	subl	$1, %esi
	movq	-24(%rbp), %rdx
	movabsq	$.L.str.15, %rdi
	callq	ue_v
	addl	-12(%rbp), %eax
	movl	%eax, -12(%rbp)
.LBB20_47:                              # %if.end146
	jmp	.LBB20_48
.LBB20_48:                              # %if.end147
	jmp	.LBB20_49
.LBB20_49:                              # %if.end148
	callq	ref_pic_list_reordering
	addl	-12(%rbp), %eax
	movl	%eax, -12(%rbp)
	movq	img, %rax
	cmpl	$0, 24(%rax)
	je	.LBB20_51
# %bb.50:                               # %lor.lhs.false153
	movq	img, %rax
	cmpl	$3, 24(%rax)
	jne	.LBB20_52
.LBB20_51:                              # %land.lhs.true156
	movq	active_pps, %rax
	cmpl	$0, 192(%rax)
	jne	.LBB20_54
.LBB20_52:                              # %lor.lhs.false158
	movq	img, %rax
	cmpl	$1, 24(%rax)
	jne	.LBB20_55
# %bb.53:                               # %land.lhs.true161
	movq	active_pps, %rax
	cmpl	$1, 196(%rax)
	jne	.LBB20_55
.LBB20_54:                              # %if.then163
	callq	pred_weight_table
	addl	-12(%rbp), %eax
	movl	%eax, -12(%rbp)
.LBB20_55:                              # %if.end166
	movq	img, %rax
	cmpl	$0, 72496(%rax)
	je	.LBB20_57
# %bb.56:                               # %if.then168
	callq	dec_ref_pic_marking
	addl	-12(%rbp), %eax
	movl	%eax, -12(%rbp)
.LBB20_57:                              # %if.end171
	movq	input, %rax
	cmpl	$1, 2356(%rax)
	jne	.LBB20_60
# %bb.58:                               # %land.lhs.true173
	movq	img, %rax
	cmpl	$2, 24(%rax)
	je	.LBB20_60
# %bb.59:                               # %if.then176
	movq	img, %rax
	movl	72520(%rax), %esi
	movq	-24(%rbp), %rdx
	movabsq	$.L.str.16, %rdi
	callq	ue_v
	addl	-12(%rbp), %eax
	movl	%eax, -12(%rbp)
.LBB20_60:                              # %if.end179
	movq	-72(%rbp), %rax
	movl	4(%rax), %esi
	subl	$26, %esi
	movq	active_pps, %rax
	subl	200(%rax), %esi
	movq	-24(%rbp), %rdx
	movabsq	$.L.str.17, %rdi
	callq	se_v
	addl	-12(%rbp), %eax
	movl	%eax, -12(%rbp)
	movq	img, %rax
	cmpl	$3, 24(%rax)
	jne	.LBB20_64
# %bb.61:                               # %if.then186
	movq	img, %rax
	cmpl	$3, 24(%rax)
	jne	.LBB20_63
# %bb.62:                               # %if.then189
	movq	-24(%rbp), %rdx
	movabsq	$.L.str.18, %rdi
	xorl	%esi, %esi
	callq	u_1
	addl	-12(%rbp), %eax
	movl	%eax, -12(%rbp)
.LBB20_63:                              # %if.end192
	movq	img, %rax
	movl	44(%rax), %esi
	subl	$26, %esi
	movq	-24(%rbp), %rdx
	movabsq	$.L.str.19, %rdi
	callq	se_v
	addl	-12(%rbp), %eax
	movl	%eax, -12(%rbp)
.LBB20_64:                              # %if.end196
	movq	active_pps, %rax
	cmpl	$0, 220(%rax)
	je	.LBB20_68
# %bb.65:                               # %if.then198
	movq	img, %rax
	movl	71984(%rax), %esi
	movq	-24(%rbp), %rdx
	movabsq	$.L.str.20, %rdi
	callq	ue_v
	addl	-12(%rbp), %eax
	movl	%eax, -12(%rbp)
	movq	img, %rax
	cmpl	$1, 71984(%rax)
	je	.LBB20_67
# %bb.66:                               # %if.then203
	movq	img, %rax
	movl	71988(%rax), %eax
	cltd
	movl	$2, %ecx
	idivl	%ecx
	movq	-24(%rbp), %rdx
	movabsq	$.L.str.21, %rdi
	movl	%eax, %esi
	callq	se_v
	addl	-12(%rbp), %eax
	movl	%eax, -12(%rbp)
	movq	img, %rax
	movl	71992(%rax), %eax
	cltd
	movl	$2, %ecx
	idivl	%ecx
	movq	-24(%rbp), %rdx
	movabsq	$.L.str.22, %rdi
	movl	%eax, %esi
	callq	se_v
	addl	-12(%rbp), %eax
	movl	%eax, -12(%rbp)
.LBB20_67:                              # %if.end209
	jmp	.LBB20_68
.LBB20_68:                              # %if.end210
	movq	active_pps, %rax
	cmpl	$0, 60(%rax)
	jbe	.LBB20_72
# %bb.69:                               # %land.lhs.true212
	movq	active_pps, %rax
	cmpl	$3, 64(%rax)
	jb	.LBB20_72
# %bb.70:                               # %land.lhs.true214
	movq	active_pps, %rax
	cmpl	$5, 64(%rax)
	ja	.LBB20_72
# %bb.71:                               # %if.then217
	vmovss	.LCPI20_1(%rip), %xmm0  # xmm0 = mem[0],zero,zero,zero
	movq	img(%rip), %rax
	movl	72468(%rax), %ecx
	movl	72472(%rax), %eax
	imull	%ecx, %eax
	vcvtsi2ss	%rax, %xmm0, %xmm1
	movq	active_pps(%rip), %rax
	movl	168(%rax), %eax
	addl	$1, %eax
	vcvtsi2ss	%rax, %xmm0, %xmm2
	vdivss	%xmm2, %xmm1, %xmm1
	vaddss	%xmm0, %xmm1, %xmm0
	vmovss	%xmm0, -52(%rbp)
	vmovss	-52(%rbp), %xmm0        # xmm0 = mem[0],zero,zero,zero
	vcvtss2sd	%xmm0, %xmm0, %xmm0
	callq	log
	vmovsd	%xmm0, -64(%rbp)        # 8-byte Spill
	vmovsd	.LCPI20_0(%rip), %xmm0  # xmm0 = mem[0],zero
	callq	log
	vmovsd	-64(%rbp), %xmm1        # 8-byte Reload
                                        # xmm1 = mem[0],zero
	vdivsd	%xmm0, %xmm1, %xmm0
	vroundsd	$10, %xmm0, %xmm0, %xmm0
	vcvttsd2si	%xmm0, %eax
	movl	%eax, -40(%rbp)
	movl	-40(%rbp), %edi
	movq	img, %rax
	movl	72652(%rax), %edx
	movq	-24(%rbp), %rcx
	movabsq	$.L.str.23, %rsi
	callq	u_v
	addl	-12(%rbp), %eax
	movl	%eax, -12(%rbp)
.LBB20_72:                              # %if.end229
	movq	input, %rax
	cmpl	$0, 2364(%rax)
	je	.LBB20_75
# %bb.73:                               # %land.lhs.true232
	movq	img, %rax
	movq	14152(%rax), %rax
	cmpl	$0, 4(%rax)
	jne	.LBB20_75
# %bb.74:                               # %if.then236
	movq	img, %rax
	movl	20(%rax), %esi
	movq	-24(%rbp), %rdx
	movabsq	$.L.str.24, %rdi
	callq	ue_v
	addl	-12(%rbp), %eax
	movl	%eax, -12(%rbp)
.LBB20_75:                              # %if.end239
	movl	-12(%rbp), %ebx
	cmpl	$1295266492, -44(%rbp)  # imm = 0x4D3432BC
	jne	.LBB20_77
.LBB20_76:
	movl	%ebx, %eax
	addq	$72, %rsp
	popq	%rbx
	popq	%rbp
	.cfi_def_cfa %rsp, 8
	retq
.LBB20_77:                              # %func_exit
	.cfi_def_cfa %rbp, 16
	callq	detect_breach
	jmp	.LBB20_76
.Lfunc_end20:
	.size	SliceHeader.15, .Lfunc_end20-SliceHeader.15
	.cfi_endproc
                                        # -- End function
	.p2align	4, 0x90         # -- Begin function dec_ref_pic_marking.16
	.type	dec_ref_pic_marking.16,@function
dec_ref_pic_marking.16:                 # @dec_ref_pic_marking.16
	.cfi_startproc
# %bb.0:                                # %entry
	pushq	%rbp
	.cfi_def_cfa_offset 16
	.cfi_offset %rbp, -16
	movq	%rsp, %rbp
	.cfi_def_cfa_register %rbp
	pushq	%rbx
	subq	$40, %rsp
	.cfi_offset %rbx, -24
	movl	$1921613595, -36(%rbp)  # imm = 0x72897F1B
	movq	input, %rax
	movslq	2364(%rax), %rax
	movq	assignSE2partition(,%rax,8), %rax
	movl	(%rax), %eax
	movl	%eax, -40(%rbp)
	movq	img, %rax
	movq	14160(%rax), %rax
	movq	24(%rax), %rax
	movslq	-40(%rbp), %rcx
	imulq	$120, %rcx, %rcx
	addq	%rcx, %rax
	movq	%rax, -32(%rbp)
	movl	$0, -12(%rbp)
	movq	img, %rax
	movq	14152(%rax), %rax
	cmpl	$0, 4(%rax)
	je	.LBB21_2
# %bb.1:                                # %if.then
	movq	img, %rax
	movl	72504(%rax), %esi
	movq	-32(%rbp), %rdx
	movabsq	$.L.str.33, %rdi
	callq	u_1
	addl	-12(%rbp), %eax
	movl	%eax, -12(%rbp)
	movq	img, %rax
	movl	72508(%rax), %esi
	movq	-32(%rbp), %rdx
	movabsq	$.L.str.34, %rdi
	callq	u_1
	addl	-12(%rbp), %eax
	movl	%eax, -12(%rbp)
	jmp	.LBB21_20
.LBB21_2:                               # %if.else
	movq	img, %rax
	cmpq	$0, 72512(%rax)
	setne	%al
	andb	$1, %al
	movzbl	%al, %eax
	movq	img, %rcx
	movl	%eax, 72500(%rcx)
	movq	img, %rax
	movl	72500(%rax), %esi
	movq	-32(%rbp), %rdx
	movabsq	$.L.str.35, %rdi
	callq	u_1
	addl	-12(%rbp), %eax
	movl	%eax, -12(%rbp)
	movq	img, %rax
	cmpl	$0, 72500(%rax)
	je	.LBB21_19
# %bb.3:                                # %if.then11
	movq	img, %rax
	movq	72512(%rax), %rax
	movq	%rax, -24(%rbp)
.LBB21_4:                               # %do.body
                                        # =>This Inner Loop Header: Depth=1
	cmpq	$0, -24(%rbp)
	jne	.LBB21_6
# %bb.5:                                # %if.then15
                                        #   in Loop: Header=BB21_4 Depth=1
	movabsq	$.L.str.36, %rdi
	movl	$500, %esi              # imm = 0x1F4
	callq	error
.LBB21_6:                               # %if.end
                                        #   in Loop: Header=BB21_4 Depth=1
	movq	-24(%rbp), %rax
	movl	(%rax), %eax
	movl	%eax, -16(%rbp)
	movl	-16(%rbp), %esi
	movq	-32(%rbp), %rdx
	movabsq	$.L.str.37, %rdi
	callq	ue_v
	addl	-12(%rbp), %eax
	movl	%eax, -12(%rbp)
	cmpl	$1, -16(%rbp)
	je	.LBB21_8
# %bb.7:                                # %lor.lhs.false
                                        #   in Loop: Header=BB21_4 Depth=1
	cmpl	$3, -16(%rbp)
	jne	.LBB21_9
.LBB21_8:                               # %if.then22
                                        #   in Loop: Header=BB21_4 Depth=1
	movq	-24(%rbp), %rax
	movl	4(%rax), %esi
	movq	-32(%rbp), %rdx
	movabsq	$.L.str.38, %rdi
	callq	ue_v
	addl	$1, %eax
	addl	-12(%rbp), %eax
	movl	%eax, -12(%rbp)
.LBB21_9:                               # %if.end26
                                        #   in Loop: Header=BB21_4 Depth=1
	cmpl	$2, -16(%rbp)
	jne	.LBB21_11
# %bb.10:                               # %if.then29
                                        #   in Loop: Header=BB21_4 Depth=1
	movq	-24(%rbp), %rax
	movl	8(%rax), %esi
	movq	-32(%rbp), %rdx
	movabsq	$.L.str.39, %rdi
	callq	ue_v
	addl	-12(%rbp), %eax
	movl	%eax, -12(%rbp)
.LBB21_11:                              # %if.end32
                                        #   in Loop: Header=BB21_4 Depth=1
	cmpl	$3, -16(%rbp)
	je	.LBB21_13
# %bb.12:                               # %lor.lhs.false35
                                        #   in Loop: Header=BB21_4 Depth=1
	cmpl	$6, -16(%rbp)
	jne	.LBB21_14
.LBB21_13:                              # %if.then38
                                        #   in Loop: Header=BB21_4 Depth=1
	movq	-24(%rbp), %rax
	movl	12(%rax), %esi
	movq	-32(%rbp), %rdx
	movabsq	$.L.str.40, %rdi
	callq	ue_v
	addl	-12(%rbp), %eax
	movl	%eax, -12(%rbp)
.LBB21_14:                              # %if.end41
                                        #   in Loop: Header=BB21_4 Depth=1
	cmpl	$4, -16(%rbp)
	jne	.LBB21_16
# %bb.15:                               # %if.then44
                                        #   in Loop: Header=BB21_4 Depth=1
	movq	-24(%rbp), %rax
	movl	16(%rax), %esi
	movq	-32(%rbp), %rdx
	movabsq	$.L.str.41, %rdi
	callq	ue_v
	addl	-12(%rbp), %eax
	movl	%eax, -12(%rbp)
.LBB21_16:                              # %if.end47
                                        #   in Loop: Header=BB21_4 Depth=1
	movq	-24(%rbp), %rax
	movq	24(%rax), %rax
	movq	%rax, -24(%rbp)
# %bb.17:                               # %do.cond
                                        #   in Loop: Header=BB21_4 Depth=1
	cmpl	$0, -16(%rbp)
	jne	.LBB21_4
# %bb.18:                               # %do.end
	jmp	.LBB21_19
.LBB21_19:                              # %if.end50
	jmp	.LBB21_20
.LBB21_20:                              # %if.end51
	movl	-12(%rbp), %ebx
	cmpl	$1921613595, -36(%rbp)  # imm = 0x72897F1B
	jne	.LBB21_22
.LBB21_21:
	movl	%ebx, %eax
	addq	$40, %rsp
	popq	%rbx
	popq	%rbp
	.cfi_def_cfa %rsp, 8
	retq
.LBB21_22:                              # %func_exit
	.cfi_def_cfa %rbp, 16
	callq	detect_breach
	jmp	.LBB21_21
.Lfunc_end21:
	.size	dec_ref_pic_marking.16, .Lfunc_end21-dec_ref_pic_marking.16
	.cfi_endproc
                                        # -- End function
	.p2align	4, 0x90         # -- Begin function pred_weight_table.17
	.type	pred_weight_table.17,@function
pred_weight_table.17:                   # @pred_weight_table.17
	.cfi_startproc
# %bb.0:                                # %entry
	pushq	%rbp
	.cfi_def_cfa_offset 16
	.cfi_offset %rbp, -16
	movq	%rsp, %rbp
	.cfi_def_cfa_register %rbp
	pushq	%rbx
	subq	$40, %rsp
	.cfi_offset %rbx, -24
	movl	$153795685, -36(%rbp)   # imm = 0x92ABC65
	movq	input, %rax
	movslq	2364(%rax), %rax
	movq	assignSE2partition(,%rax,8), %rax
	movl	(%rax), %eax
	movl	%eax, -40(%rbp)
	movq	img, %rax
	movq	14160(%rax), %rax
	movq	24(%rax), %rax
	movslq	-40(%rbp), %rcx
	imulq	$120, %rcx, %rcx
	addq	%rcx, %rax
	movq	%rax, -32(%rbp)
	movl	$0, -12(%rbp)
	movl	luma_log_weight_denom, %esi
	movq	-32(%rbp), %rdx
	movabsq	$.L.str.42, %rdi
	callq	ue_v
	addl	-12(%rbp), %eax
	movl	%eax, -12(%rbp)
	movl	chroma_log_weight_denom, %esi
	movq	-32(%rbp), %rdx
	movabsq	$.L.str.43, %rdi
	callq	ue_v
	addl	-12(%rbp), %eax
	movl	%eax, -12(%rbp)
	movl	$0, -16(%rbp)
.LBB22_1:                               # %for.cond
                                        # =>This Loop Header: Depth=1
                                        #     Child Loop BB22_11 Depth 2
	movl	-16(%rbp), %eax
	movq	img, %rcx
	cmpl	72000(%rcx), %eax
	jge	.LBB22_18
# %bb.2:                                # %for.body
                                        #   in Loop: Header=BB22_1 Depth=1
	movq	wp_weight, %rax
	movq	(%rax), %rax
	movslq	-16(%rbp), %rcx
	movq	(%rax,%rcx,8), %rax
	movl	(%rax), %eax
	movl	luma_log_weight_denom, %ecx
                                        # kill: def $cl killed $ecx
	movl	$1, %edx
	shll	%cl, %edx
	cmpl	%edx, %eax
	jne	.LBB22_4
# %bb.3:                                # %lor.lhs.false
                                        #   in Loop: Header=BB22_1 Depth=1
	movq	wp_offset, %rax
	movq	(%rax), %rax
	movslq	-16(%rbp), %rcx
	movq	(%rax,%rcx,8), %rax
	cmpl	$0, (%rax)
	je	.LBB22_5
.LBB22_4:                               # %if.then
                                        #   in Loop: Header=BB22_1 Depth=1
	movq	-32(%rbp), %rdx
	movabsq	$.L.str.44, %rdi
	movl	$1, %esi
	callq	u_1
	addl	-12(%rbp), %eax
	movl	%eax, -12(%rbp)
	movq	wp_weight, %rax
	movq	(%rax), %rax
	movslq	-16(%rbp), %rcx
	movq	(%rax,%rcx,8), %rax
	movl	(%rax), %esi
	movq	-32(%rbp), %rdx
	movabsq	$.L.str.45, %rdi
	callq	se_v
	addl	-12(%rbp), %eax
	movl	%eax, -12(%rbp)
	movq	wp_offset, %rax
	movq	(%rax), %rax
	movslq	-16(%rbp), %rcx
	movq	(%rax,%rcx,8), %rax
	movl	(%rax), %esi
	movq	-32(%rbp), %rdx
	movabsq	$.L.str.46, %rdi
	callq	se_v
	addl	-12(%rbp), %eax
	movl	%eax, -12(%rbp)
	jmp	.LBB22_6
.LBB22_5:                               # %if.else
                                        #   in Loop: Header=BB22_1 Depth=1
	movq	-32(%rbp), %rdx
	movabsq	$.L.str.44, %rdi
	xorl	%esi, %esi
	callq	u_1
	addl	-12(%rbp), %eax
	movl	%eax, -12(%rbp)
.LBB22_6:                               # %if.end
                                        #   in Loop: Header=BB22_1 Depth=1
	movq	wp_weight, %rax
	movq	(%rax), %rax
	movslq	-16(%rbp), %rcx
	movq	(%rax,%rcx,8), %rax
	movl	4(%rax), %eax
	movl	chroma_log_weight_denom, %ecx
                                        # kill: def $cl killed $ecx
	movl	$1, %edx
	shll	%cl, %edx
	cmpl	%edx, %eax
	jne	.LBB22_10
# %bb.7:                                # %lor.lhs.false38
                                        #   in Loop: Header=BB22_1 Depth=1
	movq	wp_offset, %rax
	movq	(%rax), %rax
	movslq	-16(%rbp), %rcx
	movq	(%rax,%rcx,8), %rax
	cmpl	$0, 4(%rax)
	jne	.LBB22_10
# %bb.8:                                # %lor.lhs.false44
                                        #   in Loop: Header=BB22_1 Depth=1
	movq	wp_weight, %rax
	movq	(%rax), %rax
	movslq	-16(%rbp), %rcx
	movq	(%rax,%rcx,8), %rax
	movl	8(%rax), %eax
	movl	chroma_log_weight_denom, %ecx
                                        # kill: def $cl killed $ecx
	movl	$1, %edx
	shll	%cl, %edx
	cmpl	%edx, %eax
	jne	.LBB22_10
# %bb.9:                                # %lor.lhs.false51
                                        #   in Loop: Header=BB22_1 Depth=1
	movq	wp_offset, %rax
	movq	(%rax), %rax
	movslq	-16(%rbp), %rcx
	movq	(%rax,%rcx,8), %rax
	cmpl	$0, 8(%rax)
	je	.LBB22_15
.LBB22_10:                              # %if.then57
                                        #   in Loop: Header=BB22_1 Depth=1
	movq	-32(%rbp), %rdx
	movabsq	$.L.str.47, %rdi
	movl	$1, %esi
	callq	u_1
	addl	-12(%rbp), %eax
	movl	%eax, -12(%rbp)
	movl	$1, -20(%rbp)
.LBB22_11:                              # %for.cond60
                                        #   Parent Loop BB22_1 Depth=1
                                        # =>  This Inner Loop Header: Depth=2
	cmpl	$3, -20(%rbp)
	jge	.LBB22_14
# %bb.12:                               # %for.body62
                                        #   in Loop: Header=BB22_11 Depth=2
	movq	wp_weight, %rax
	movq	(%rax), %rax
	movslq	-16(%rbp), %rcx
	movq	(%rax,%rcx,8), %rax
	movslq	-20(%rbp), %rcx
	movl	(%rax,%rcx,4), %esi
	movq	-32(%rbp), %rdx
	movabsq	$.L.str.48, %rdi
	callq	se_v
	addl	-12(%rbp), %eax
	movl	%eax, -12(%rbp)
	movq	wp_offset, %rax
	movq	(%rax), %rax
	movslq	-16(%rbp), %rcx
	movq	(%rax,%rcx,8), %rax
	movslq	-20(%rbp), %rcx
	movl	(%rax,%rcx,4), %esi
	movq	-32(%rbp), %rdx
	movabsq	$.L.str.49, %rdi
	callq	se_v
	addl	-12(%rbp), %eax
	movl	%eax, -12(%rbp)
# %bb.13:                               # %for.inc
                                        #   in Loop: Header=BB22_11 Depth=2
	movl	-20(%rbp), %eax
	addl	$1, %eax
	movl	%eax, -20(%rbp)
	jmp	.LBB22_11
.LBB22_14:                              # %for.end
                                        #   in Loop: Header=BB22_1 Depth=1
	jmp	.LBB22_16
.LBB22_15:                              # %if.else77
                                        #   in Loop: Header=BB22_1 Depth=1
	movq	-32(%rbp), %rdx
	movabsq	$.L.str.47, %rdi
	xorl	%esi, %esi
	callq	u_1
	addl	-12(%rbp), %eax
	movl	%eax, -12(%rbp)
.LBB22_16:                              # %if.end80
                                        #   in Loop: Header=BB22_1 Depth=1
	jmp	.LBB22_17
.LBB22_17:                              # %for.inc81
                                        #   in Loop: Header=BB22_1 Depth=1
	movl	-16(%rbp), %eax
	addl	$1, %eax
	movl	%eax, -16(%rbp)
	jmp	.LBB22_1
.LBB22_18:                              # %for.end83
	movq	img, %rax
	cmpl	$1, 24(%rax)
	jne	.LBB22_38
# %bb.19:                               # %if.then85
	movl	$0, -16(%rbp)
.LBB22_20:                              # %for.cond86
                                        # =>This Loop Header: Depth=1
                                        #     Child Loop BB22_30 Depth 2
	movl	-16(%rbp), %eax
	movq	img, %rcx
	cmpl	72004(%rcx), %eax
	jge	.LBB22_37
# %bb.21:                               # %for.body88
                                        #   in Loop: Header=BB22_20 Depth=1
	movq	wp_weight, %rax
	movq	8(%rax), %rax
	movslq	-16(%rbp), %rcx
	movq	(%rax,%rcx,8), %rax
	movl	(%rax), %eax
	movl	luma_log_weight_denom, %ecx
                                        # kill: def $cl killed $ecx
	movl	$1, %edx
	shll	%cl, %edx
	cmpl	%edx, %eax
	jne	.LBB22_23
# %bb.22:                               # %lor.lhs.false95
                                        #   in Loop: Header=BB22_20 Depth=1
	movq	wp_offset, %rax
	movq	8(%rax), %rax
	movslq	-16(%rbp), %rcx
	movq	(%rax,%rcx,8), %rax
	cmpl	$0, (%rax)
	je	.LBB22_24
.LBB22_23:                              # %if.then101
                                        #   in Loop: Header=BB22_20 Depth=1
	movq	-32(%rbp), %rdx
	movabsq	$.L.str.50, %rdi
	movl	$1, %esi
	callq	u_1
	addl	-12(%rbp), %eax
	movl	%eax, -12(%rbp)
	movq	wp_weight, %rax
	movq	8(%rax), %rax
	movslq	-16(%rbp), %rcx
	movq	(%rax,%rcx,8), %rax
	movl	(%rax), %esi
	movq	-32(%rbp), %rdx
	movabsq	$.L.str.51, %rdi
	callq	se_v
	addl	-12(%rbp), %eax
	movl	%eax, -12(%rbp)
	movq	wp_offset, %rax
	movq	8(%rax), %rax
	movslq	-16(%rbp), %rcx
	movq	(%rax,%rcx,8), %rax
	movl	(%rax), %esi
	movq	-32(%rbp), %rdx
	movabsq	$.L.str.52, %rdi
	callq	se_v
	addl	-12(%rbp), %eax
	movl	%eax, -12(%rbp)
	jmp	.LBB22_25
.LBB22_24:                              # %if.else116
                                        #   in Loop: Header=BB22_20 Depth=1
	movq	-32(%rbp), %rdx
	movabsq	$.L.str.50, %rdi
	xorl	%esi, %esi
	callq	u_1
	addl	-12(%rbp), %eax
	movl	%eax, -12(%rbp)
.LBB22_25:                              # %if.end119
                                        #   in Loop: Header=BB22_20 Depth=1
	movq	wp_weight, %rax
	movq	8(%rax), %rax
	movslq	-16(%rbp), %rcx
	movq	(%rax,%rcx,8), %rax
	movl	4(%rax), %eax
	movl	chroma_log_weight_denom, %ecx
                                        # kill: def $cl killed $ecx
	movl	$1, %edx
	shll	%cl, %edx
	cmpl	%edx, %eax
	jne	.LBB22_29
# %bb.26:                               # %lor.lhs.false126
                                        #   in Loop: Header=BB22_20 Depth=1
	movq	wp_offset, %rax
	movq	8(%rax), %rax
	movslq	-16(%rbp), %rcx
	movq	(%rax,%rcx,8), %rax
	cmpl	$0, 4(%rax)
	jne	.LBB22_29
# %bb.27:                               # %lor.lhs.false132
                                        #   in Loop: Header=BB22_20 Depth=1
	movq	wp_weight, %rax
	movq	8(%rax), %rax
	movslq	-16(%rbp), %rcx
	movq	(%rax,%rcx,8), %rax
	movl	8(%rax), %eax
	movl	chroma_log_weight_denom, %ecx
                                        # kill: def $cl killed $ecx
	movl	$1, %edx
	shll	%cl, %edx
	cmpl	%edx, %eax
	jne	.LBB22_29
# %bb.28:                               # %lor.lhs.false139
                                        #   in Loop: Header=BB22_20 Depth=1
	movq	wp_offset, %rax
	movq	8(%rax), %rax
	movslq	-16(%rbp), %rcx
	movq	(%rax,%rcx,8), %rax
	cmpl	$0, 8(%rax)
	je	.LBB22_34
.LBB22_29:                              # %if.then145
                                        #   in Loop: Header=BB22_20 Depth=1
	movq	-32(%rbp), %rdx
	movabsq	$.L.str.53, %rdi
	movl	$1, %esi
	callq	u_1
	addl	-12(%rbp), %eax
	movl	%eax, -12(%rbp)
	movl	$1, -20(%rbp)
.LBB22_30:                              # %for.cond148
                                        #   Parent Loop BB22_20 Depth=1
                                        # =>  This Inner Loop Header: Depth=2
	cmpl	$3, -20(%rbp)
	jge	.LBB22_33
# %bb.31:                               # %for.body150
                                        #   in Loop: Header=BB22_30 Depth=2
	movq	wp_weight, %rax
	movq	8(%rax), %rax
	movslq	-16(%rbp), %rcx
	movq	(%rax,%rcx,8), %rax
	movslq	-20(%rbp), %rcx
	movl	(%rax,%rcx,4), %esi
	movq	-32(%rbp), %rdx
	movabsq	$.L.str.54, %rdi
	callq	se_v
	addl	-12(%rbp), %eax
	movl	%eax, -12(%rbp)
	movq	wp_offset, %rax
	movq	8(%rax), %rax
	movslq	-16(%rbp), %rcx
	movq	(%rax,%rcx,8), %rax
	movslq	-20(%rbp), %rcx
	movl	(%rax,%rcx,4), %esi
	movq	-32(%rbp), %rdx
	movabsq	$.L.str.55, %rdi
	callq	se_v
	addl	-12(%rbp), %eax
	movl	%eax, -12(%rbp)
# %bb.32:                               # %for.inc165
                                        #   in Loop: Header=BB22_30 Depth=2
	movl	-20(%rbp), %eax
	addl	$1, %eax
	movl	%eax, -20(%rbp)
	jmp	.LBB22_30
.LBB22_33:                              # %for.end167
                                        #   in Loop: Header=BB22_20 Depth=1
	jmp	.LBB22_35
.LBB22_34:                              # %if.else168
                                        #   in Loop: Header=BB22_20 Depth=1
	movq	-32(%rbp), %rdx
	movabsq	$.L.str.53, %rdi
	xorl	%esi, %esi
	callq	u_1
	addl	-12(%rbp), %eax
	movl	%eax, -12(%rbp)
.LBB22_35:                              # %if.end171
                                        #   in Loop: Header=BB22_20 Depth=1
	jmp	.LBB22_36
.LBB22_36:                              # %for.inc172
                                        #   in Loop: Header=BB22_20 Depth=1
	movl	-16(%rbp), %eax
	addl	$1, %eax
	movl	%eax, -16(%rbp)
	jmp	.LBB22_20
.LBB22_37:                              # %for.end174
	jmp	.LBB22_38
.LBB22_38:                              # %if.end175
	movl	-12(%rbp), %ebx
	cmpl	$153795685, -36(%rbp)   # imm = 0x92ABC65
	jne	.LBB22_40
.LBB22_39:
	movl	%ebx, %eax
	addq	$40, %rsp
	popq	%rbx
	popq	%rbp
	.cfi_def_cfa %rsp, 8
	retq
.LBB22_40:                              # %func_exit
	.cfi_def_cfa %rbp, 16
	callq	detect_breach
	jmp	.LBB22_39
.Lfunc_end22:
	.size	pred_weight_table.17, .Lfunc_end22-pred_weight_table.17
	.cfi_endproc
                                        # -- End function
	.globl	Partition_BC_Header.18  # -- Begin function Partition_BC_Header.18
	.p2align	4, 0x90
	.type	Partition_BC_Header.18,@function
Partition_BC_Header.18:                 # @Partition_BC_Header.18
	.cfi_startproc
# %bb.0:                                # %entry
	pushq	%rbp
	.cfi_def_cfa_offset 16
	.cfi_offset %rbp, -16
	movq	%rsp, %rbp
	.cfi_def_cfa_register %rbp
	pushq	%rbx
	subq	$88, %rsp
	.cfi_offset %rbx, -24
	movl	$140456514, -32(%rbp)   # imm = 0x85F3242
	movl	%edi, -28(%rbp)
	movq	img, %rax
	movq	14160(%rax), %rax
	movq	24(%rax), %rax
	movslq	-28(%rbp), %rcx
	imulq	$120, %rcx, %rcx
	addq	%rcx, %rax
	movq	%rax, -40(%rbp)
	leaq	-88(%rbp), %rax
	movq	%rax, -24(%rbp)
	movl	$0, -12(%rbp)
	movq	-24(%rbp), %rax
	movl	$0, (%rax)
	movq	-24(%rbp), %rax
	movabsq	$ue_linfo, %rcx
	movq	%rcx, 32(%rax)
	movq	-24(%rbp), %rax
	movl	$0, 8(%rax)
	movq	img, %rax
	movl	20(%rax), %eax
	movq	-24(%rbp), %rcx
	movl	%eax, 4(%rcx)
	movq	-24(%rbp), %rdi
	movq	-40(%rbp), %rsi
	callq	writeSyntaxElement_UVLC
	addl	-12(%rbp), %eax
	movl	%eax, -12(%rbp)
	movq	active_pps, %rax
	cmpl	$0, 228(%rax)
	je	.LBB23_2
# %bb.1:                                # %if.then
	movq	img, %rax
	movq	14160(%rax), %rax
	movl	(%rax), %eax
	movq	-24(%rbp), %rcx
	movl	%eax, 4(%rcx)
	movq	-24(%rbp), %rdi
	movq	-40(%rbp), %rsi
	callq	writeSyntaxElement_UVLC
	addl	-12(%rbp), %eax
	movl	%eax, -12(%rbp)
.LBB23_2:                               # %if.end
	movl	-12(%rbp), %ebx
	cmpl	$140456514, -32(%rbp)   # imm = 0x85F3242
	jne	.LBB23_4
.LBB23_3:
	movl	%ebx, %eax
	addq	$88, %rsp
	popq	%rbx
	popq	%rbp
	.cfi_def_cfa %rsp, 8
	retq
.LBB23_4:                               # %func_exit
	.cfi_def_cfa %rbp, 16
	callq	detect_breach
	jmp	.LBB23_3
.Lfunc_end23:
	.size	Partition_BC_Header.18, .Lfunc_end23-Partition_BC_Header.18
	.cfi_endproc
                                        # -- End function
	.globl	Partition_BC_Header.19  # -- Begin function Partition_BC_Header.19
	.p2align	4, 0x90
	.type	Partition_BC_Header.19,@function
Partition_BC_Header.19:                 # @Partition_BC_Header.19
	.cfi_startproc
# %bb.0:                                # %entry
	pushq	%rbp
	.cfi_def_cfa_offset 16
	.cfi_offset %rbp, -16
	movq	%rsp, %rbp
	.cfi_def_cfa_register %rbp
	pushq	%rbx
	subq	$88, %rsp
	.cfi_offset %rbx, -24
	movl	$594721580, -28(%rbp)   # imm = 0x2372BB2C
	movl	%edi, -32(%rbp)
	movq	img, %rax
	movq	14160(%rax), %rax
	movq	24(%rax), %rax
	movslq	-32(%rbp), %rcx
	imulq	$120, %rcx, %rcx
	addq	%rcx, %rax
	movq	%rax, -40(%rbp)
	leaq	-88(%rbp), %rax
	movq	%rax, -24(%rbp)
	movl	$0, -12(%rbp)
	movq	-24(%rbp), %rax
	movl	$0, (%rax)
	movq	-24(%rbp), %rax
	movabsq	$ue_linfo, %rcx
	movq	%rcx, 32(%rax)
	movq	-24(%rbp), %rax
	movl	$0, 8(%rax)
	movq	img, %rax
	movl	20(%rax), %eax
	movq	-24(%rbp), %rcx
	movl	%eax, 4(%rcx)
	movq	-24(%rbp), %rdi
	movq	-40(%rbp), %rsi
	callq	writeSyntaxElement_UVLC
	addl	-12(%rbp), %eax
	movl	%eax, -12(%rbp)
	movq	active_pps, %rax
	cmpl	$0, 228(%rax)
	je	.LBB24_2
# %bb.1:                                # %if.then
	movq	img, %rax
	movq	14160(%rax), %rax
	movl	(%rax), %eax
	movq	-24(%rbp), %rcx
	movl	%eax, 4(%rcx)
	movq	-24(%rbp), %rdi
	movq	-40(%rbp), %rsi
	callq	writeSyntaxElement_UVLC
	addl	-12(%rbp), %eax
	movl	%eax, -12(%rbp)
.LBB24_2:                               # %if.end
	movl	-12(%rbp), %ebx
	cmpl	$594721580, -28(%rbp)   # imm = 0x2372BB2C
	jne	.LBB24_4
.LBB24_3:
	movl	%ebx, %eax
	addq	$88, %rsp
	popq	%rbx
	popq	%rbp
	.cfi_def_cfa %rsp, 8
	retq
.LBB24_4:                               # %func_exit
	.cfi_def_cfa %rbp, 16
	callq	detect_breach
	jmp	.LBB24_3
.Lfunc_end24:
	.size	Partition_BC_Header.19, .Lfunc_end24-Partition_BC_Header.19
	.cfi_endproc
                                        # -- End function
	.p2align	4, 0x90         # -- Begin function dec_ref_pic_marking.20
	.type	dec_ref_pic_marking.20,@function
dec_ref_pic_marking.20:                 # @dec_ref_pic_marking.20
	.cfi_startproc
# %bb.0:                                # %entry
	pushq	%rbp
	.cfi_def_cfa_offset 16
	.cfi_offset %rbp, -16
	movq	%rsp, %rbp
	.cfi_def_cfa_register %rbp
	pushq	%rbx
	subq	$40, %rsp
	.cfi_offset %rbx, -24
	movl	$551186396, -40(%rbp)   # imm = 0x20DA6FDC
	movq	input, %rax
	movslq	2364(%rax), %rax
	movq	assignSE2partition(,%rax,8), %rax
	movl	(%rax), %eax
	movl	%eax, -36(%rbp)
	movq	img, %rax
	movq	14160(%rax), %rax
	movq	24(%rax), %rax
	movslq	-36(%rbp), %rcx
	imulq	$120, %rcx, %rcx
	addq	%rcx, %rax
	movq	%rax, -32(%rbp)
	movl	$0, -12(%rbp)
	movq	img, %rax
	movq	14152(%rax), %rax
	cmpl	$0, 4(%rax)
	je	.LBB25_2
# %bb.1:                                # %if.then
	movq	img, %rax
	movl	72504(%rax), %esi
	movq	-32(%rbp), %rdx
	movabsq	$.L.str.33, %rdi
	callq	u_1
	addl	-12(%rbp), %eax
	movl	%eax, -12(%rbp)
	movq	img, %rax
	movl	72508(%rax), %esi
	movq	-32(%rbp), %rdx
	movabsq	$.L.str.34, %rdi
	callq	u_1
	addl	-12(%rbp), %eax
	movl	%eax, -12(%rbp)
	jmp	.LBB25_20
.LBB25_2:                               # %if.else
	movq	img, %rax
	cmpq	$0, 72512(%rax)
	setne	%al
	andb	$1, %al
	movzbl	%al, %eax
	movq	img, %rcx
	movl	%eax, 72500(%rcx)
	movq	img, %rax
	movl	72500(%rax), %esi
	movq	-32(%rbp), %rdx
	movabsq	$.L.str.35, %rdi
	callq	u_1
	addl	-12(%rbp), %eax
	movl	%eax, -12(%rbp)
	movq	img, %rax
	cmpl	$0, 72500(%rax)
	je	.LBB25_19
# %bb.3:                                # %if.then11
	movq	img, %rax
	movq	72512(%rax), %rax
	movq	%rax, -24(%rbp)
.LBB25_4:                               # %do.body
                                        # =>This Inner Loop Header: Depth=1
	cmpq	$0, -24(%rbp)
	jne	.LBB25_6
# %bb.5:                                # %if.then15
                                        #   in Loop: Header=BB25_4 Depth=1
	movabsq	$.L.str.36, %rdi
	movl	$500, %esi              # imm = 0x1F4
	callq	error
.LBB25_6:                               # %if.end
                                        #   in Loop: Header=BB25_4 Depth=1
	movq	-24(%rbp), %rax
	movl	(%rax), %eax
	movl	%eax, -16(%rbp)
	movl	-16(%rbp), %esi
	movq	-32(%rbp), %rdx
	movabsq	$.L.str.37, %rdi
	callq	ue_v
	addl	-12(%rbp), %eax
	movl	%eax, -12(%rbp)
	cmpl	$1, -16(%rbp)
	je	.LBB25_8
# %bb.7:                                # %lor.lhs.false
                                        #   in Loop: Header=BB25_4 Depth=1
	cmpl	$3, -16(%rbp)
	jne	.LBB25_9
.LBB25_8:                               # %if.then22
                                        #   in Loop: Header=BB25_4 Depth=1
	movq	-24(%rbp), %rax
	movl	4(%rax), %esi
	movq	-32(%rbp), %rdx
	movabsq	$.L.str.38, %rdi
	callq	ue_v
	addl	$1, %eax
	addl	-12(%rbp), %eax
	movl	%eax, -12(%rbp)
.LBB25_9:                               # %if.end26
                                        #   in Loop: Header=BB25_4 Depth=1
	cmpl	$2, -16(%rbp)
	jne	.LBB25_11
# %bb.10:                               # %if.then29
                                        #   in Loop: Header=BB25_4 Depth=1
	movq	-24(%rbp), %rax
	movl	8(%rax), %esi
	movq	-32(%rbp), %rdx
	movabsq	$.L.str.39, %rdi
	callq	ue_v
	addl	-12(%rbp), %eax
	movl	%eax, -12(%rbp)
.LBB25_11:                              # %if.end32
                                        #   in Loop: Header=BB25_4 Depth=1
	cmpl	$3, -16(%rbp)
	je	.LBB25_13
# %bb.12:                               # %lor.lhs.false35
                                        #   in Loop: Header=BB25_4 Depth=1
	cmpl	$6, -16(%rbp)
	jne	.LBB25_14
.LBB25_13:                              # %if.then38
                                        #   in Loop: Header=BB25_4 Depth=1
	movq	-24(%rbp), %rax
	movl	12(%rax), %esi
	movq	-32(%rbp), %rdx
	movabsq	$.L.str.40, %rdi
	callq	ue_v
	addl	-12(%rbp), %eax
	movl	%eax, -12(%rbp)
.LBB25_14:                              # %if.end41
                                        #   in Loop: Header=BB25_4 Depth=1
	cmpl	$4, -16(%rbp)
	jne	.LBB25_16
# %bb.15:                               # %if.then44
                                        #   in Loop: Header=BB25_4 Depth=1
	movq	-24(%rbp), %rax
	movl	16(%rax), %esi
	movq	-32(%rbp), %rdx
	movabsq	$.L.str.41, %rdi
	callq	ue_v
	addl	-12(%rbp), %eax
	movl	%eax, -12(%rbp)
.LBB25_16:                              # %if.end47
                                        #   in Loop: Header=BB25_4 Depth=1
	movq	-24(%rbp), %rax
	movq	24(%rax), %rax
	movq	%rax, -24(%rbp)
# %bb.17:                               # %do.cond
                                        #   in Loop: Header=BB25_4 Depth=1
	cmpl	$0, -16(%rbp)
	jne	.LBB25_4
# %bb.18:                               # %do.end
	jmp	.LBB25_19
.LBB25_19:                              # %if.end50
	jmp	.LBB25_20
.LBB25_20:                              # %if.end51
	movl	-12(%rbp), %ebx
	cmpl	$551186396, -40(%rbp)   # imm = 0x20DA6FDC
	jne	.LBB25_22
.LBB25_21:
	movl	%ebx, %eax
	addq	$40, %rsp
	popq	%rbx
	popq	%rbp
	.cfi_def_cfa %rsp, 8
	retq
.LBB25_22:                              # %func_exit
	.cfi_def_cfa %rbp, 16
	callq	detect_breach
	jmp	.LBB25_21
.Lfunc_end25:
	.size	dec_ref_pic_marking.20, .Lfunc_end25-dec_ref_pic_marking.20
	.cfi_endproc
                                        # -- End function
	.globl	Partition_BC_Header.21  # -- Begin function Partition_BC_Header.21
	.p2align	4, 0x90
	.type	Partition_BC_Header.21,@function
Partition_BC_Header.21:                 # @Partition_BC_Header.21
	.cfi_startproc
# %bb.0:                                # %entry
	pushq	%rbp
	.cfi_def_cfa_offset 16
	.cfi_offset %rbp, -16
	movq	%rsp, %rbp
	.cfi_def_cfa_register %rbp
	pushq	%rbx
	subq	$88, %rsp
	.cfi_offset %rbx, -24
	movl	$1731163123, -28(%rbp)  # imm = 0x672F73F3
	movl	%edi, -32(%rbp)
	movq	img, %rax
	movq	14160(%rax), %rax
	movq	24(%rax), %rax
	movslq	-32(%rbp), %rcx
	imulq	$120, %rcx, %rcx
	addq	%rcx, %rax
	movq	%rax, -40(%rbp)
	leaq	-88(%rbp), %rax
	movq	%rax, -24(%rbp)
	movl	$0, -12(%rbp)
	movq	-24(%rbp), %rax
	movl	$0, (%rax)
	movq	-24(%rbp), %rax
	movabsq	$ue_linfo, %rcx
	movq	%rcx, 32(%rax)
	movq	-24(%rbp), %rax
	movl	$0, 8(%rax)
	movq	img, %rax
	movl	20(%rax), %eax
	movq	-24(%rbp), %rcx
	movl	%eax, 4(%rcx)
	movq	-24(%rbp), %rdi
	movq	-40(%rbp), %rsi
	callq	writeSyntaxElement_UVLC
	addl	-12(%rbp), %eax
	movl	%eax, -12(%rbp)
	movq	active_pps, %rax
	cmpl	$0, 228(%rax)
	je	.LBB26_2
# %bb.1:                                # %if.then
	movq	img, %rax
	movq	14160(%rax), %rax
	movl	(%rax), %eax
	movq	-24(%rbp), %rcx
	movl	%eax, 4(%rcx)
	movq	-24(%rbp), %rdi
	movq	-40(%rbp), %rsi
	callq	writeSyntaxElement_UVLC
	addl	-12(%rbp), %eax
	movl	%eax, -12(%rbp)
.LBB26_2:                               # %if.end
	movl	-12(%rbp), %ebx
	cmpl	$1731163123, -28(%rbp)  # imm = 0x672F73F3
	jne	.LBB26_4
.LBB26_3:
	movl	%ebx, %eax
	addq	$88, %rsp
	popq	%rbx
	popq	%rbp
	.cfi_def_cfa %rsp, 8
	retq
.LBB26_4:                               # %func_exit
	.cfi_def_cfa %rbp, 16
	callq	detect_breach
	jmp	.LBB26_3
.Lfunc_end26:
	.size	Partition_BC_Header.21, .Lfunc_end26-Partition_BC_Header.21
	.cfi_endproc
                                        # -- End function
	.globl	Partition_BC_Header.22  # -- Begin function Partition_BC_Header.22
	.p2align	4, 0x90
	.type	Partition_BC_Header.22,@function
Partition_BC_Header.22:                 # @Partition_BC_Header.22
	.cfi_startproc
# %bb.0:                                # %entry
	pushq	%rbp
	.cfi_def_cfa_offset 16
	.cfi_offset %rbp, -16
	movq	%rsp, %rbp
	.cfi_def_cfa_register %rbp
	pushq	%rbx
	subq	$88, %rsp
	.cfi_offset %rbx, -24
	movl	$525695231, -32(%rbp)   # imm = 0x1F5578FF
	movl	%edi, -28(%rbp)
	movq	img, %rax
	movq	14160(%rax), %rax
	movq	24(%rax), %rax
	movslq	-28(%rbp), %rcx
	imulq	$120, %rcx, %rcx
	addq	%rcx, %rax
	movq	%rax, -40(%rbp)
	leaq	-88(%rbp), %rax
	movq	%rax, -24(%rbp)
	movl	$0, -12(%rbp)
	movq	-24(%rbp), %rax
	movl	$0, (%rax)
	movq	-24(%rbp), %rax
	movabsq	$ue_linfo, %rcx
	movq	%rcx, 32(%rax)
	movq	-24(%rbp), %rax
	movl	$0, 8(%rax)
	movq	img, %rax
	movl	20(%rax), %eax
	movq	-24(%rbp), %rcx
	movl	%eax, 4(%rcx)
	movq	-24(%rbp), %rdi
	movq	-40(%rbp), %rsi
	callq	writeSyntaxElement_UVLC
	addl	-12(%rbp), %eax
	movl	%eax, -12(%rbp)
	movq	active_pps, %rax
	cmpl	$0, 228(%rax)
	je	.LBB27_2
# %bb.1:                                # %if.then
	movq	img, %rax
	movq	14160(%rax), %rax
	movl	(%rax), %eax
	movq	-24(%rbp), %rcx
	movl	%eax, 4(%rcx)
	movq	-24(%rbp), %rdi
	movq	-40(%rbp), %rsi
	callq	writeSyntaxElement_UVLC
	addl	-12(%rbp), %eax
	movl	%eax, -12(%rbp)
.LBB27_2:                               # %if.end
	movl	-12(%rbp), %ebx
	cmpl	$525695231, -32(%rbp)   # imm = 0x1F5578FF
	jne	.LBB27_4
.LBB27_3:
	movl	%ebx, %eax
	addq	$88, %rsp
	popq	%rbx
	popq	%rbp
	.cfi_def_cfa %rsp, 8
	retq
.LBB27_4:                               # %func_exit
	.cfi_def_cfa %rbp, 16
	callq	detect_breach
	jmp	.LBB27_3
.Lfunc_end27:
	.size	Partition_BC_Header.22, .Lfunc_end27-Partition_BC_Header.22
	.cfi_endproc
                                        # -- End function
	.p2align	4, 0x90         # -- Begin function dec_ref_pic_marking.23
	.type	dec_ref_pic_marking.23,@function
dec_ref_pic_marking.23:                 # @dec_ref_pic_marking.23
	.cfi_startproc
# %bb.0:                                # %entry
	pushq	%rbp
	.cfi_def_cfa_offset 16
	.cfi_offset %rbp, -16
	movq	%rsp, %rbp
	.cfi_def_cfa_register %rbp
	pushq	%rbx
	subq	$40, %rsp
	.cfi_offset %rbx, -24
	movl	$47597668, -36(%rbp)    # imm = 0x2D64864
	movq	input, %rax
	movslq	2364(%rax), %rax
	movq	assignSE2partition(,%rax,8), %rax
	movl	(%rax), %eax
	movl	%eax, -40(%rbp)
	movq	img, %rax
	movq	14160(%rax), %rax
	movq	24(%rax), %rax
	movslq	-40(%rbp), %rcx
	imulq	$120, %rcx, %rcx
	addq	%rcx, %rax
	movq	%rax, -24(%rbp)
	movl	$0, -12(%rbp)
	movq	img, %rax
	movq	14152(%rax), %rax
	cmpl	$0, 4(%rax)
	je	.LBB28_2
# %bb.1:                                # %if.then
	movq	img, %rax
	movl	72504(%rax), %esi
	movq	-24(%rbp), %rdx
	movabsq	$.L.str.33, %rdi
	callq	u_1
	addl	-12(%rbp), %eax
	movl	%eax, -12(%rbp)
	movq	img, %rax
	movl	72508(%rax), %esi
	movq	-24(%rbp), %rdx
	movabsq	$.L.str.34, %rdi
	callq	u_1
	addl	-12(%rbp), %eax
	movl	%eax, -12(%rbp)
	jmp	.LBB28_20
.LBB28_2:                               # %if.else
	movq	img, %rax
	cmpq	$0, 72512(%rax)
	setne	%al
	andb	$1, %al
	movzbl	%al, %eax
	movq	img, %rcx
	movl	%eax, 72500(%rcx)
	movq	img, %rax
	movl	72500(%rax), %esi
	movq	-24(%rbp), %rdx
	movabsq	$.L.str.35, %rdi
	callq	u_1
	addl	-12(%rbp), %eax
	movl	%eax, -12(%rbp)
	movq	img, %rax
	cmpl	$0, 72500(%rax)
	je	.LBB28_19
# %bb.3:                                # %if.then11
	movq	img, %rax
	movq	72512(%rax), %rax
	movq	%rax, -32(%rbp)
.LBB28_4:                               # %do.body
                                        # =>This Inner Loop Header: Depth=1
	cmpq	$0, -32(%rbp)
	jne	.LBB28_6
# %bb.5:                                # %if.then15
                                        #   in Loop: Header=BB28_4 Depth=1
	movabsq	$.L.str.36, %rdi
	movl	$500, %esi              # imm = 0x1F4
	callq	error
.LBB28_6:                               # %if.end
                                        #   in Loop: Header=BB28_4 Depth=1
	movq	-32(%rbp), %rax
	movl	(%rax), %eax
	movl	%eax, -16(%rbp)
	movl	-16(%rbp), %esi
	movq	-24(%rbp), %rdx
	movabsq	$.L.str.37, %rdi
	callq	ue_v
	addl	-12(%rbp), %eax
	movl	%eax, -12(%rbp)
	cmpl	$1, -16(%rbp)
	je	.LBB28_8
# %bb.7:                                # %lor.lhs.false
                                        #   in Loop: Header=BB28_4 Depth=1
	cmpl	$3, -16(%rbp)
	jne	.LBB28_9
.LBB28_8:                               # %if.then22
                                        #   in Loop: Header=BB28_4 Depth=1
	movq	-32(%rbp), %rax
	movl	4(%rax), %esi
	movq	-24(%rbp), %rdx
	movabsq	$.L.str.38, %rdi
	callq	ue_v
	addl	$1, %eax
	addl	-12(%rbp), %eax
	movl	%eax, -12(%rbp)
.LBB28_9:                               # %if.end26
                                        #   in Loop: Header=BB28_4 Depth=1
	cmpl	$2, -16(%rbp)
	jne	.LBB28_11
# %bb.10:                               # %if.then29
                                        #   in Loop: Header=BB28_4 Depth=1
	movq	-32(%rbp), %rax
	movl	8(%rax), %esi
	movq	-24(%rbp), %rdx
	movabsq	$.L.str.39, %rdi
	callq	ue_v
	addl	-12(%rbp), %eax
	movl	%eax, -12(%rbp)
.LBB28_11:                              # %if.end32
                                        #   in Loop: Header=BB28_4 Depth=1
	cmpl	$3, -16(%rbp)
	je	.LBB28_13
# %bb.12:                               # %lor.lhs.false35
                                        #   in Loop: Header=BB28_4 Depth=1
	cmpl	$6, -16(%rbp)
	jne	.LBB28_14
.LBB28_13:                              # %if.then38
                                        #   in Loop: Header=BB28_4 Depth=1
	movq	-32(%rbp), %rax
	movl	12(%rax), %esi
	movq	-24(%rbp), %rdx
	movabsq	$.L.str.40, %rdi
	callq	ue_v
	addl	-12(%rbp), %eax
	movl	%eax, -12(%rbp)
.LBB28_14:                              # %if.end41
                                        #   in Loop: Header=BB28_4 Depth=1
	cmpl	$4, -16(%rbp)
	jne	.LBB28_16
# %bb.15:                               # %if.then44
                                        #   in Loop: Header=BB28_4 Depth=1
	movq	-32(%rbp), %rax
	movl	16(%rax), %esi
	movq	-24(%rbp), %rdx
	movabsq	$.L.str.41, %rdi
	callq	ue_v
	addl	-12(%rbp), %eax
	movl	%eax, -12(%rbp)
.LBB28_16:                              # %if.end47
                                        #   in Loop: Header=BB28_4 Depth=1
	movq	-32(%rbp), %rax
	movq	24(%rax), %rax
	movq	%rax, -32(%rbp)
# %bb.17:                               # %do.cond
                                        #   in Loop: Header=BB28_4 Depth=1
	cmpl	$0, -16(%rbp)
	jne	.LBB28_4
# %bb.18:                               # %do.end
	jmp	.LBB28_19
.LBB28_19:                              # %if.end50
	jmp	.LBB28_20
.LBB28_20:                              # %if.end51
	movl	-12(%rbp), %ebx
	cmpl	$47597668, -36(%rbp)    # imm = 0x2D64864
	jne	.LBB28_22
.LBB28_21:
	movl	%ebx, %eax
	addq	$40, %rsp
	popq	%rbx
	popq	%rbp
	.cfi_def_cfa %rsp, 8
	retq
.LBB28_22:                              # %func_exit
	.cfi_def_cfa %rbp, 16
	callq	detect_breach
	jmp	.LBB28_21
.Lfunc_end28:
	.size	dec_ref_pic_marking.23, .Lfunc_end28-dec_ref_pic_marking.23
	.cfi_endproc
                                        # -- End function
	.section	.rodata.cst8,"aM",@progbits,8
	.p2align	3               # -- Begin function SliceHeader.24
.LCPI29_0:
	.quad	4611686018427387904     # double 2
	.section	.rodata.cst4,"aM",@progbits,4
	.p2align	2
.LCPI29_1:
	.long	1065353216              # float 1
	.text
	.globl	SliceHeader.24
	.p2align	4, 0x90
	.type	SliceHeader.24,@function
SliceHeader.24:                         # @SliceHeader.24
	.cfi_startproc
# %bb.0:                                # %entry
	pushq	%rbp
	.cfi_def_cfa_offset 16
	.cfi_offset %rbp, -16
	movq	%rsp, %rbp
	.cfi_def_cfa_register %rbp
	pushq	%rbx
	subq	$72, %rsp
	.cfi_offset %rbx, -24
	movl	$533722186, -52(%rbp)   # imm = 0x1FCFF44A
	movq	input, %rax
	movslq	2364(%rax), %rax
	movq	assignSE2partition(,%rax,8), %rax
	movl	(%rax), %eax
	movl	%eax, -48(%rbp)
	movq	img, %rax
	movq	14160(%rax), %rax
	movq	24(%rax), %rax
	movslq	-48(%rbp), %rcx
	imulq	$120, %rcx, %rcx
	addq	%rcx, %rax
	movq	%rax, -24(%rbp)
	movq	img, %rax
	movq	14160(%rax), %rax
	movq	%rax, -72(%rbp)
	movl	$0, -12(%rbp)
	movl	$0, -28(%rbp)
	movl	$0, -36(%rbp)
	movq	img, %rax
	cmpl	$0, 72400(%rax)
	je	.LBB29_2
# %bb.1:                                # %if.then
	movq	img, %rax
	movl	12(%rax), %esi
	sarl	$1, %esi
	movq	-24(%rbp), %rdx
	movabsq	$.L.str, %rdi
	callq	ue_v
	movl	%eax, -12(%rbp)
	jmp	.LBB29_3
.LBB29_2:                               # %if.else
	movq	img, %rax
	movl	12(%rax), %esi
	movq	-24(%rbp), %rdx
	movabsq	$.L.str, %rdi
	callq	ue_v
	movl	%eax, -12(%rbp)
.LBB29_3:                               # %if.end
	callq	get_picture_type
	movq	-24(%rbp), %rdx
	movabsq	$.L.str.1, %rdi
	movl	%eax, %esi
	callq	ue_v
	addl	-12(%rbp), %eax
	movl	%eax, -12(%rbp)
	movq	active_pps, %rax
	movl	4(%rax), %esi
	movq	-24(%rbp), %rdx
	movabsq	$.L.str.2, %rdi
	callq	ue_v
	addl	-12(%rbp), %eax
	movl	%eax, -12(%rbp)
	movl	log2_max_frame_num_minus4, %edi
	addl	$4, %edi
	movq	img, %rax
	movl	72464(%rax), %edx
	movq	-24(%rbp), %rcx
	movabsq	$.L.str.3, %rsi
	callq	u_v
	addl	-12(%rbp), %eax
	movl	%eax, -12(%rbp)
	movq	active_sps, %rax
	cmpl	$0, 1148(%rax)
	jne	.LBB29_9
# %bb.4:                                # %if.then15
	movq	img, %rax
	cmpl	$1, 28(%rax)
	movb	$1, %al
	je	.LBB29_6
# %bb.5:                                # %lor.rhs
	movq	img, %rax
	cmpl	$2, 28(%rax)
	sete	%al
.LBB29_6:                               # %lor.end
	xorl	%ecx, %ecx
	testb	$1, %al
	movl	$1, %eax
	cmovnel	%eax, %ecx
	movl	%ecx, -28(%rbp)
	movl	-28(%rbp), %esi
	movq	-24(%rbp), %rdx
	movabsq	$.L.str.4, %rdi
	callq	u_1
	addl	-12(%rbp), %eax
	movl	%eax, -12(%rbp)
	cmpl	$0, -28(%rbp)
	je	.LBB29_8
# %bb.7:                                # %if.then21
	xorl	%eax, %eax
	movq	img, %rcx
	movl	28(%rcx), %ecx
	cmpl	$2, %ecx
	movl	$1, %ecx
	cmovel	%ecx, %eax
	movl	%eax, -36(%rbp)
	movl	-36(%rbp), %esi
	movq	-24(%rbp), %rdx
	movabsq	$.L.str.5, %rdi
	callq	u_1
	addl	-12(%rbp), %eax
	movl	%eax, -12(%rbp)
.LBB29_8:                               # %if.end27
	jmp	.LBB29_9
.LBB29_9:                               # %if.end28
	movq	img, %rax
	movq	14152(%rax), %rax
	cmpl	$0, 4(%rax)
	je	.LBB29_11
# %bb.10:                               # %if.then30
	movq	img, %rax
	movl	(%rax), %eax
	cltd
	movl	$2, %ecx
	idivl	%ecx
	movq	-24(%rbp), %rax
	movabsq	$.L.str.6, %rdi
	movl	%edx, %esi
	movq	%rax, %rdx
	callq	ue_v
	addl	-12(%rbp), %eax
	movl	%eax, -12(%rbp)
.LBB29_11:                              # %if.end33
	movq	img, %rax
	cmpl	$0, 72404(%rax)
	jne	.LBB29_25
# %bb.12:                               # %if.then35
	movq	active_sps, %rax
	cmpl	$0, 1148(%rax)
	je	.LBB29_14
# %bb.13:                               # %if.then38
	movq	img, %rax
	movl	72448(%rax), %eax
	movl	log2_max_pic_order_cnt_lsb_minus4, %ecx
	addl	$4, %ecx
                                        # kill: def $cl killed $ecx
	movl	$4294967295, %edx       # imm = 0xFFFFFFFF
	shll	%cl, %edx
	xorl	$-1, %edx
	andl	%edx, %eax
	movq	img, %rcx
	movl	%eax, 72428(%rcx)
	jmp	.LBB29_21
.LBB29_14:                              # %if.else40
	cmpl	$0, -28(%rbp)
	je	.LBB29_16
# %bb.15:                               # %lor.lhs.false
	movq	img, %rax
	cmpl	$1, 28(%rax)
	jne	.LBB29_17
.LBB29_16:                              # %if.then44
	movq	img, %rax
	movl	72448(%rax), %eax
	movl	log2_max_pic_order_cnt_lsb_minus4, %ecx
	addl	$4, %ecx
                                        # kill: def $cl killed $ecx
	movl	$4294967295, %edx       # imm = 0xFFFFFFFF
	shll	%cl, %edx
	xorl	$-1, %edx
	andl	%edx, %eax
	movq	img, %rcx
	movl	%eax, 72428(%rcx)
	jmp	.LBB29_20
.LBB29_17:                              # %if.else51
	movq	img, %rax
	cmpl	$2, 28(%rax)
	jne	.LBB29_19
# %bb.18:                               # %if.then54
	movq	img, %rax
	movl	72452(%rax), %eax
	movl	log2_max_pic_order_cnt_lsb_minus4, %ecx
	addl	$4, %ecx
                                        # kill: def $cl killed $ecx
	movl	$4294967295, %edx       # imm = 0xFFFFFFFF
	shll	%cl, %edx
	xorl	$-1, %edx
	andl	%edx, %eax
	movq	img, %rcx
	movl	%eax, 72428(%rcx)
.LBB29_19:                              # %if.end60
	jmp	.LBB29_20
.LBB29_20:                              # %if.end61
	jmp	.LBB29_21
.LBB29_21:                              # %if.end62
	movl	log2_max_pic_order_cnt_lsb_minus4, %edi
	addl	$4, %edi
	movq	img, %rax
	movl	72428(%rax), %edx
	movq	-24(%rbp), %rcx
	movabsq	$.L.str.7, %rsi
	callq	u_v
	addl	-12(%rbp), %eax
	movl	%eax, -12(%rbp)
	movq	img, %rax
	cmpl	$0, 72492(%rax)
	je	.LBB29_24
# %bb.22:                               # %land.lhs.true
	cmpl	$0, -28(%rbp)
	jne	.LBB29_24
# %bb.23:                               # %if.then69
	movq	img, %rax
	movl	72432(%rax), %esi
	movq	-24(%rbp), %rdx
	movabsq	$.L.str.8, %rdi
	callq	se_v
	addl	-12(%rbp), %eax
	movl	%eax, -12(%rbp)
.LBB29_24:                              # %if.end72
	jmp	.LBB29_25
.LBB29_25:                              # %if.end73
	movq	img, %rax
	cmpl	$1, 72404(%rax)
	jne	.LBB29_31
# %bb.26:                               # %land.lhs.true76
	movq	img, %rax
	cmpl	$0, 72408(%rax)
	jne	.LBB29_31
# %bb.27:                               # %if.then78
	movq	img, %rax
	movl	72436(%rax), %esi
	movq	-24(%rbp), %rdx
	movabsq	$.L.str.9, %rdi
	callq	se_v
	addl	-12(%rbp), %eax
	movl	%eax, -12(%rbp)
	movq	img, %rax
	cmpl	$0, 72492(%rax)
	je	.LBB29_30
# %bb.28:                               # %land.lhs.true84
	cmpl	$0, -28(%rbp)
	jne	.LBB29_30
# %bb.29:                               # %if.then86
	movq	img, %rax
	movl	72440(%rax), %esi
	movq	-24(%rbp), %rdx
	movabsq	$.L.str.10, %rdi
	callq	se_v
	addl	-12(%rbp), %eax
	movl	%eax, -12(%rbp)
.LBB29_30:                              # %if.end91
	jmp	.LBB29_31
.LBB29_31:                              # %if.end92
	movq	input, %rax
	cmpl	$0, 3204(%rax)
	je	.LBB29_33
# %bb.32:                               # %if.then94
	movq	img, %rax
	movl	72396(%rax), %esi
	movq	-24(%rbp), %rdx
	movabsq	$.L.str.11, %rdi
	callq	ue_v
	addl	-12(%rbp), %eax
	movl	%eax, -12(%rbp)
.LBB29_33:                              # %if.end97
	movq	img, %rax
	cmpl	$1, 24(%rax)
	jne	.LBB29_35
# %bb.34:                               # %if.then99
	movq	img, %rax
	movl	71996(%rax), %esi
	movq	-24(%rbp), %rdx
	movabsq	$.L.str.12, %rdi
	callq	u_1
	addl	-12(%rbp), %eax
	movl	%eax, -12(%rbp)
.LBB29_35:                              # %if.end102
	movq	img, %rax
	cmpl	$0, 24(%rax)
	je	.LBB29_38
# %bb.36:                               # %lor.lhs.false105
	movq	img, %rax
	cmpl	$1, 24(%rax)
	je	.LBB29_38
# %bb.37:                               # %lor.lhs.false108
	movq	img, %rax
	cmpl	$3, 24(%rax)
	jne	.LBB29_49
.LBB29_38:                              # %if.then111
	movq	img, %rax
	cmpl	$0, 24(%rax)
	je	.LBB29_40
# %bb.39:                               # %lor.lhs.false114
	movq	img, %rax
	cmpl	$3, 24(%rax)
	jne	.LBB29_41
.LBB29_40:                              # %if.then117
	xorl	%eax, %eax
	movq	img, %rcx
	movl	72000(%rcx), %ecx
	movq	active_pps, %rdx
	movl	184(%rdx), %edx
	addl	$1, %edx
	cmpl	%edx, %ecx
	movl	$1, %ecx
	cmovnel	%ecx, %eax
	movl	%eax, -32(%rbp)
	jmp	.LBB29_44
.LBB29_41:                              # %if.else121
	movq	img, %rax
	movl	72000(%rax), %eax
	movq	active_pps, %rcx
	movl	184(%rcx), %ecx
	addl	$1, %ecx
	cmpl	%ecx, %eax
	movb	$1, %al
	jne	.LBB29_43
# %bb.42:                               # %lor.rhs126
	movq	img, %rax
	movl	72004(%rax), %eax
	movq	active_pps, %rcx
	movl	188(%rcx), %ecx
	addl	$1, %ecx
	cmpl	%ecx, %eax
	setne	%al
.LBB29_43:                              # %lor.end129
	xorl	%ecx, %ecx
	testb	$1, %al
	movl	$1, %eax
	cmovnel	%eax, %ecx
	movl	%ecx, -32(%rbp)
.LBB29_44:                              # %if.end131
	movl	-32(%rbp), %esi
	movq	-24(%rbp), %rdx
	movabsq	$.L.str.13, %rdi
	callq	u_1
	addl	-12(%rbp), %eax
	movl	%eax, -12(%rbp)
	cmpl	$0, -32(%rbp)
	je	.LBB29_48
# %bb.45:                               # %if.then135
	movq	img, %rax
	movl	72000(%rax), %esi
	subl	$1, %esi
	movq	-24(%rbp), %rdx
	movabsq	$.L.str.14, %rdi
	callq	ue_v
	addl	-12(%rbp), %eax
	movl	%eax, -12(%rbp)
	movq	img, %rax
	cmpl	$1, 24(%rax)
	jne	.LBB29_47
# %bb.46:                               # %if.then141
	movq	img, %rax
	movl	72004(%rax), %esi
	subl	$1, %esi
	movq	-24(%rbp), %rdx
	movabsq	$.L.str.15, %rdi
	callq	ue_v
	addl	-12(%rbp), %eax
	movl	%eax, -12(%rbp)
.LBB29_47:                              # %if.end146
	jmp	.LBB29_48
.LBB29_48:                              # %if.end147
	jmp	.LBB29_49
.LBB29_49:                              # %if.end148
	callq	ref_pic_list_reordering
	addl	-12(%rbp), %eax
	movl	%eax, -12(%rbp)
	movq	img, %rax
	cmpl	$0, 24(%rax)
	je	.LBB29_51
# %bb.50:                               # %lor.lhs.false153
	movq	img, %rax
	cmpl	$3, 24(%rax)
	jne	.LBB29_52
.LBB29_51:                              # %land.lhs.true156
	movq	active_pps, %rax
	cmpl	$0, 192(%rax)
	jne	.LBB29_54
.LBB29_52:                              # %lor.lhs.false158
	movq	img, %rax
	cmpl	$1, 24(%rax)
	jne	.LBB29_55
# %bb.53:                               # %land.lhs.true161
	movq	active_pps, %rax
	cmpl	$1, 196(%rax)
	jne	.LBB29_55
.LBB29_54:                              # %if.then163
	callq	pred_weight_table
	addl	-12(%rbp), %eax
	movl	%eax, -12(%rbp)
.LBB29_55:                              # %if.end166
	movq	img, %rax
	cmpl	$0, 72496(%rax)
	je	.LBB29_57
# %bb.56:                               # %if.then168
	callq	dec_ref_pic_marking
	addl	-12(%rbp), %eax
	movl	%eax, -12(%rbp)
.LBB29_57:                              # %if.end171
	movq	input, %rax
	cmpl	$1, 2356(%rax)
	jne	.LBB29_60
# %bb.58:                               # %land.lhs.true173
	movq	img, %rax
	cmpl	$2, 24(%rax)
	je	.LBB29_60
# %bb.59:                               # %if.then176
	movq	img, %rax
	movl	72520(%rax), %esi
	movq	-24(%rbp), %rdx
	movabsq	$.L.str.16, %rdi
	callq	ue_v
	addl	-12(%rbp), %eax
	movl	%eax, -12(%rbp)
.LBB29_60:                              # %if.end179
	movq	-72(%rbp), %rax
	movl	4(%rax), %esi
	subl	$26, %esi
	movq	active_pps, %rax
	subl	200(%rax), %esi
	movq	-24(%rbp), %rdx
	movabsq	$.L.str.17, %rdi
	callq	se_v
	addl	-12(%rbp), %eax
	movl	%eax, -12(%rbp)
	movq	img, %rax
	cmpl	$3, 24(%rax)
	jne	.LBB29_64
# %bb.61:                               # %if.then186
	movq	img, %rax
	cmpl	$3, 24(%rax)
	jne	.LBB29_63
# %bb.62:                               # %if.then189
	movq	-24(%rbp), %rdx
	movabsq	$.L.str.18, %rdi
	xorl	%esi, %esi
	callq	u_1
	addl	-12(%rbp), %eax
	movl	%eax, -12(%rbp)
.LBB29_63:                              # %if.end192
	movq	img, %rax
	movl	44(%rax), %esi
	subl	$26, %esi
	movq	-24(%rbp), %rdx
	movabsq	$.L.str.19, %rdi
	callq	se_v
	addl	-12(%rbp), %eax
	movl	%eax, -12(%rbp)
.LBB29_64:                              # %if.end196
	movq	active_pps, %rax
	cmpl	$0, 220(%rax)
	je	.LBB29_68
# %bb.65:                               # %if.then198
	movq	img, %rax
	movl	71984(%rax), %esi
	movq	-24(%rbp), %rdx
	movabsq	$.L.str.20, %rdi
	callq	ue_v
	addl	-12(%rbp), %eax
	movl	%eax, -12(%rbp)
	movq	img, %rax
	cmpl	$1, 71984(%rax)
	je	.LBB29_67
# %bb.66:                               # %if.then203
	movq	img, %rax
	movl	71988(%rax), %eax
	cltd
	movl	$2, %ecx
	idivl	%ecx
	movq	-24(%rbp), %rdx
	movabsq	$.L.str.21, %rdi
	movl	%eax, %esi
	callq	se_v
	addl	-12(%rbp), %eax
	movl	%eax, -12(%rbp)
	movq	img, %rax
	movl	71992(%rax), %eax
	cltd
	movl	$2, %ecx
	idivl	%ecx
	movq	-24(%rbp), %rdx
	movabsq	$.L.str.22, %rdi
	movl	%eax, %esi
	callq	se_v
	addl	-12(%rbp), %eax
	movl	%eax, -12(%rbp)
.LBB29_67:                              # %if.end209
	jmp	.LBB29_68
.LBB29_68:                              # %if.end210
	movq	active_pps, %rax
	cmpl	$0, 60(%rax)
	jbe	.LBB29_72
# %bb.69:                               # %land.lhs.true212
	movq	active_pps, %rax
	cmpl	$3, 64(%rax)
	jb	.LBB29_72
# %bb.70:                               # %land.lhs.true214
	movq	active_pps, %rax
	cmpl	$5, 64(%rax)
	ja	.LBB29_72
# %bb.71:                               # %if.then217
	vmovss	.LCPI29_1(%rip), %xmm0  # xmm0 = mem[0],zero,zero,zero
	movq	img(%rip), %rax
	movl	72468(%rax), %ecx
	movl	72472(%rax), %eax
	imull	%ecx, %eax
	vcvtsi2ss	%rax, %xmm0, %xmm1
	movq	active_pps(%rip), %rax
	movl	168(%rax), %eax
	addl	$1, %eax
	vcvtsi2ss	%rax, %xmm0, %xmm2
	vdivss	%xmm2, %xmm1, %xmm1
	vaddss	%xmm0, %xmm1, %xmm0
	vmovss	%xmm0, -44(%rbp)
	vmovss	-44(%rbp), %xmm0        # xmm0 = mem[0],zero,zero,zero
	vcvtss2sd	%xmm0, %xmm0, %xmm0
	callq	log
	vmovsd	%xmm0, -64(%rbp)        # 8-byte Spill
	vmovsd	.LCPI29_0(%rip), %xmm0  # xmm0 = mem[0],zero
	callq	log
	vmovsd	-64(%rbp), %xmm1        # 8-byte Reload
                                        # xmm1 = mem[0],zero
	vdivsd	%xmm0, %xmm1, %xmm0
	vroundsd	$10, %xmm0, %xmm0, %xmm0
	vcvttsd2si	%xmm0, %eax
	movl	%eax, -40(%rbp)
	movl	-40(%rbp), %edi
	movq	img, %rax
	movl	72652(%rax), %edx
	movq	-24(%rbp), %rcx
	movabsq	$.L.str.23, %rsi
	callq	u_v
	addl	-12(%rbp), %eax
	movl	%eax, -12(%rbp)
.LBB29_72:                              # %if.end229
	movq	input, %rax
	cmpl	$0, 2364(%rax)
	je	.LBB29_75
# %bb.73:                               # %land.lhs.true232
	movq	img, %rax
	movq	14152(%rax), %rax
	cmpl	$0, 4(%rax)
	jne	.LBB29_75
# %bb.74:                               # %if.then236
	movq	img, %rax
	movl	20(%rax), %esi
	movq	-24(%rbp), %rdx
	movabsq	$.L.str.24, %rdi
	callq	ue_v
	addl	-12(%rbp), %eax
	movl	%eax, -12(%rbp)
.LBB29_75:                              # %if.end239
	movl	-12(%rbp), %ebx
	cmpl	$533722186, -52(%rbp)   # imm = 0x1FCFF44A
	jne	.LBB29_77
.LBB29_76:
	movl	%ebx, %eax
	addq	$72, %rsp
	popq	%rbx
	popq	%rbp
	.cfi_def_cfa %rsp, 8
	retq
.LBB29_77:                              # %func_exit
	.cfi_def_cfa %rbp, 16
	callq	detect_breach
	jmp	.LBB29_76
.Lfunc_end29:
	.size	SliceHeader.24, .Lfunc_end29-SliceHeader.24
	.cfi_endproc
                                        # -- End function
	.p2align	4, 0x90         # -- Begin function ref_pic_list_reordering.25
	.type	ref_pic_list_reordering.25,@function
ref_pic_list_reordering.25:             # @ref_pic_list_reordering.25
	.cfi_startproc
# %bb.0:                                # %entry
	pushq	%rbp
	.cfi_def_cfa_offset 16
	.cfi_offset %rbp, -16
	movq	%rsp, %rbp
	.cfi_def_cfa_register %rbp
	pushq	%rbx
	subq	$40, %rsp
	.cfi_offset %rbx, -24
	movl	$210103594, -40(%rbp)   # imm = 0xC85ED2A
	movq	input, %rax
	movslq	2364(%rax), %rax
	movq	assignSE2partition(,%rax,8), %rax
	movl	(%rax), %eax
	movl	%eax, -36(%rbp)
	movq	img, %rax
	movq	14160(%rax), %rax
	movq	24(%rax), %rax
	movslq	-36(%rbp), %rcx
	imulq	$120, %rcx, %rcx
	addq	%rcx, %rax
	movq	%rax, -32(%rbp)
	movq	img, %rax
	movq	14160(%rax), %rax
	movq	%rax, -24(%rbp)
	movl	$0, -16(%rbp)
	movq	img, %rax
	cmpl	$2, 24(%rax)
	je	.LBB30_13
# %bb.1:                                # %if.then
	movq	-24(%rbp), %rax
	movl	56(%rax), %esi
	movq	-32(%rbp), %rdx
	movabsq	$.L.str.26, %rdi
	callq	u_1
	addl	-16(%rbp), %eax
	movl	%eax, -16(%rbp)
	movq	-24(%rbp), %rax
	cmpl	$0, 56(%rax)
	je	.LBB30_12
# %bb.2:                                # %if.then6
	movl	$-1, -12(%rbp)
.LBB30_3:                               # %do.body
                                        # =>This Inner Loop Header: Depth=1
	movl	-12(%rbp), %eax
	addl	$1, %eax
	movl	%eax, -12(%rbp)
	movq	-24(%rbp), %rax
	movq	64(%rax), %rax
	movslq	-12(%rbp), %rcx
	movl	(%rax,%rcx,4), %esi
	movq	-32(%rbp), %rdx
	movabsq	$.L.str.27, %rdi
	callq	ue_v
	addl	-16(%rbp), %eax
	movl	%eax, -16(%rbp)
	movq	-24(%rbp), %rax
	movq	64(%rax), %rax
	movslq	-12(%rbp), %rcx
	cmpl	$0, (%rax,%rcx,4)
	je	.LBB30_5
# %bb.4:                                # %lor.lhs.false
                                        #   in Loop: Header=BB30_3 Depth=1
	movq	-24(%rbp), %rax
	movq	64(%rax), %rax
	movslq	-12(%rbp), %rcx
	cmpl	$1, (%rax,%rcx,4)
	jne	.LBB30_6
.LBB30_5:                               # %if.then19
                                        #   in Loop: Header=BB30_3 Depth=1
	movq	-24(%rbp), %rax
	movq	72(%rax), %rax
	movslq	-12(%rbp), %rcx
	movl	(%rax,%rcx,4), %esi
	movq	-32(%rbp), %rdx
	movabsq	$.L.str.28, %rdi
	callq	ue_v
	addl	-16(%rbp), %eax
	movl	%eax, -16(%rbp)
	jmp	.LBB30_9
.LBB30_6:                               # %if.else
                                        #   in Loop: Header=BB30_3 Depth=1
	movq	-24(%rbp), %rax
	movq	64(%rax), %rax
	movslq	-12(%rbp), %rcx
	cmpl	$2, (%rax,%rcx,4)
	jne	.LBB30_8
# %bb.7:                                # %if.then28
                                        #   in Loop: Header=BB30_3 Depth=1
	movq	-24(%rbp), %rax
	movq	80(%rax), %rax
	movslq	-12(%rbp), %rcx
	movl	(%rax,%rcx,4), %esi
	movq	-32(%rbp), %rdx
	movabsq	$.L.str.29, %rdi
	callq	ue_v
	addl	-16(%rbp), %eax
	movl	%eax, -16(%rbp)
.LBB30_8:                               # %if.end
                                        #   in Loop: Header=BB30_3 Depth=1
	jmp	.LBB30_9
.LBB30_9:                               # %if.end33
                                        #   in Loop: Header=BB30_3 Depth=1
	jmp	.LBB30_10
.LBB30_10:                              # %do.cond
                                        #   in Loop: Header=BB30_3 Depth=1
	movq	-24(%rbp), %rax
	movq	64(%rax), %rax
	movslq	-12(%rbp), %rcx
	cmpl	$3, (%rax,%rcx,4)
	jne	.LBB30_3
# %bb.11:                               # %do.end
	jmp	.LBB30_12
.LBB30_12:                              # %if.end38
	jmp	.LBB30_13
.LBB30_13:                              # %if.end39
	movq	img, %rax
	cmpl	$1, 24(%rax)
	jne	.LBB30_26
# %bb.14:                               # %if.then42
	movq	-24(%rbp), %rax
	movl	88(%rax), %esi
	movq	-32(%rbp), %rdx
	movabsq	$.L.str.30, %rdi
	callq	u_1
	addl	-16(%rbp), %eax
	movl	%eax, -16(%rbp)
	movq	-24(%rbp), %rax
	cmpl	$0, 88(%rax)
	je	.LBB30_25
# %bb.15:                               # %if.then47
	movl	$-1, -12(%rbp)
.LBB30_16:                              # %do.body48
                                        # =>This Inner Loop Header: Depth=1
	movl	-12(%rbp), %eax
	addl	$1, %eax
	movl	%eax, -12(%rbp)
	movq	-24(%rbp), %rax
	movq	96(%rax), %rax
	movslq	-12(%rbp), %rcx
	movl	(%rax,%rcx,4), %esi
	movq	-32(%rbp), %rdx
	movabsq	$.L.str.27, %rdi
	callq	ue_v
	addl	-16(%rbp), %eax
	movl	%eax, -16(%rbp)
	movq	-24(%rbp), %rax
	movq	96(%rax), %rax
	movslq	-12(%rbp), %rcx
	cmpl	$0, (%rax,%rcx,4)
	je	.LBB30_18
# %bb.17:                               # %lor.lhs.false58
                                        #   in Loop: Header=BB30_16 Depth=1
	movq	-24(%rbp), %rax
	movq	96(%rax), %rax
	movslq	-12(%rbp), %rcx
	cmpl	$1, (%rax,%rcx,4)
	jne	.LBB30_19
.LBB30_18:                              # %if.then63
                                        #   in Loop: Header=BB30_16 Depth=1
	movq	-24(%rbp), %rax
	movq	104(%rax), %rax
	movslq	-12(%rbp), %rcx
	movl	(%rax,%rcx,4), %esi
	movq	-32(%rbp), %rdx
	movabsq	$.L.str.31, %rdi
	callq	ue_v
	addl	-16(%rbp), %eax
	movl	%eax, -16(%rbp)
	jmp	.LBB30_22
.LBB30_19:                              # %if.else68
                                        #   in Loop: Header=BB30_16 Depth=1
	movq	-24(%rbp), %rax
	movq	96(%rax), %rax
	movslq	-12(%rbp), %rcx
	cmpl	$2, (%rax,%rcx,4)
	jne	.LBB30_21
# %bb.20:                               # %if.then73
                                        #   in Loop: Header=BB30_16 Depth=1
	movq	-24(%rbp), %rax
	movq	112(%rax), %rax
	movslq	-12(%rbp), %rcx
	movl	(%rax,%rcx,4), %esi
	movq	-32(%rbp), %rdx
	movabsq	$.L.str.32, %rdi
	callq	ue_v
	addl	-16(%rbp), %eax
	movl	%eax, -16(%rbp)
.LBB30_21:                              # %if.end78
                                        #   in Loop: Header=BB30_16 Depth=1
	jmp	.LBB30_22
.LBB30_22:                              # %if.end79
                                        #   in Loop: Header=BB30_16 Depth=1
	jmp	.LBB30_23
.LBB30_23:                              # %do.cond80
                                        #   in Loop: Header=BB30_16 Depth=1
	movq	-24(%rbp), %rax
	movq	96(%rax), %rax
	movslq	-12(%rbp), %rcx
	cmpl	$3, (%rax,%rcx,4)
	jne	.LBB30_16
# %bb.24:                               # %do.end85
	jmp	.LBB30_25
.LBB30_25:                              # %if.end86
	jmp	.LBB30_26
.LBB30_26:                              # %if.end87
	movl	-16(%rbp), %ebx
	cmpl	$210103594, -40(%rbp)   # imm = 0xC85ED2A
	jne	.LBB30_28
.LBB30_27:
	movl	%ebx, %eax
	addq	$40, %rsp
	popq	%rbx
	popq	%rbp
	.cfi_def_cfa %rsp, 8
	retq
.LBB30_28:                              # %func_exit
	.cfi_def_cfa %rbp, 16
	callq	detect_breach
	jmp	.LBB30_27
.Lfunc_end30:
	.size	ref_pic_list_reordering.25, .Lfunc_end30-ref_pic_list_reordering.25
	.cfi_endproc
                                        # -- End function
	.section	.rodata.cst8,"aM",@progbits,8
	.p2align	3               # -- Begin function SliceHeader.26
.LCPI31_0:
	.quad	4611686018427387904     # double 2
	.section	.rodata.cst4,"aM",@progbits,4
	.p2align	2
.LCPI31_1:
	.long	1065353216              # float 1
	.text
	.globl	SliceHeader.26
	.p2align	4, 0x90
	.type	SliceHeader.26,@function
SliceHeader.26:                         # @SliceHeader.26
	.cfi_startproc
# %bb.0:                                # %entry
	pushq	%rbp
	.cfi_def_cfa_offset 16
	.cfi_offset %rbp, -16
	movq	%rsp, %rbp
	.cfi_def_cfa_register %rbp
	pushq	%rbx
	subq	$72, %rsp
	.cfi_offset %rbx, -24
	movl	$1968284471, -52(%rbp)  # imm = 0x7551A337
	movq	input, %rax
	movslq	2364(%rax), %rax
	movq	assignSE2partition(,%rax,8), %rax
	movl	(%rax), %eax
	movl	%eax, -40(%rbp)
	movq	img, %rax
	movq	14160(%rax), %rax
	movq	24(%rax), %rax
	movslq	-40(%rbp), %rcx
	imulq	$120, %rcx, %rcx
	addq	%rcx, %rax
	movq	%rax, -24(%rbp)
	movq	img, %rax
	movq	14160(%rax), %rax
	movq	%rax, -72(%rbp)
	movl	$0, -12(%rbp)
	movl	$0, -28(%rbp)
	movl	$0, -36(%rbp)
	movq	img, %rax
	cmpl	$0, 72400(%rax)
	je	.LBB31_2
# %bb.1:                                # %if.then
	movq	img, %rax
	movl	12(%rax), %esi
	sarl	$1, %esi
	movq	-24(%rbp), %rdx
	movabsq	$.L.str, %rdi
	callq	ue_v
	movl	%eax, -12(%rbp)
	jmp	.LBB31_3
.LBB31_2:                               # %if.else
	movq	img, %rax
	movl	12(%rax), %esi
	movq	-24(%rbp), %rdx
	movabsq	$.L.str, %rdi
	callq	ue_v
	movl	%eax, -12(%rbp)
.LBB31_3:                               # %if.end
	callq	get_picture_type
	movq	-24(%rbp), %rdx
	movabsq	$.L.str.1, %rdi
	movl	%eax, %esi
	callq	ue_v
	addl	-12(%rbp), %eax
	movl	%eax, -12(%rbp)
	movq	active_pps, %rax
	movl	4(%rax), %esi
	movq	-24(%rbp), %rdx
	movabsq	$.L.str.2, %rdi
	callq	ue_v
	addl	-12(%rbp), %eax
	movl	%eax, -12(%rbp)
	movl	log2_max_frame_num_minus4, %edi
	addl	$4, %edi
	movq	img, %rax
	movl	72464(%rax), %edx
	movq	-24(%rbp), %rcx
	movabsq	$.L.str.3, %rsi
	callq	u_v
	addl	-12(%rbp), %eax
	movl	%eax, -12(%rbp)
	movq	active_sps, %rax
	cmpl	$0, 1148(%rax)
	jne	.LBB31_9
# %bb.4:                                # %if.then15
	movq	img, %rax
	cmpl	$1, 28(%rax)
	movb	$1, %al
	je	.LBB31_6
# %bb.5:                                # %lor.rhs
	movq	img, %rax
	cmpl	$2, 28(%rax)
	sete	%al
.LBB31_6:                               # %lor.end
	xorl	%ecx, %ecx
	testb	$1, %al
	movl	$1, %eax
	cmovnel	%eax, %ecx
	movl	%ecx, -28(%rbp)
	movl	-28(%rbp), %esi
	movq	-24(%rbp), %rdx
	movabsq	$.L.str.4, %rdi
	callq	u_1
	addl	-12(%rbp), %eax
	movl	%eax, -12(%rbp)
	cmpl	$0, -28(%rbp)
	je	.LBB31_8
# %bb.7:                                # %if.then21
	xorl	%eax, %eax
	movq	img, %rcx
	movl	28(%rcx), %ecx
	cmpl	$2, %ecx
	movl	$1, %ecx
	cmovel	%ecx, %eax
	movl	%eax, -36(%rbp)
	movl	-36(%rbp), %esi
	movq	-24(%rbp), %rdx
	movabsq	$.L.str.5, %rdi
	callq	u_1
	addl	-12(%rbp), %eax
	movl	%eax, -12(%rbp)
.LBB31_8:                               # %if.end27
	jmp	.LBB31_9
.LBB31_9:                               # %if.end28
	movq	img, %rax
	movq	14152(%rax), %rax
	cmpl	$0, 4(%rax)
	je	.LBB31_11
# %bb.10:                               # %if.then30
	movq	img, %rax
	movl	(%rax), %eax
	cltd
	movl	$2, %ecx
	idivl	%ecx
	movq	-24(%rbp), %rax
	movabsq	$.L.str.6, %rdi
	movl	%edx, %esi
	movq	%rax, %rdx
	callq	ue_v
	addl	-12(%rbp), %eax
	movl	%eax, -12(%rbp)
.LBB31_11:                              # %if.end33
	movq	img, %rax
	cmpl	$0, 72404(%rax)
	jne	.LBB31_25
# %bb.12:                               # %if.then35
	movq	active_sps, %rax
	cmpl	$0, 1148(%rax)
	je	.LBB31_14
# %bb.13:                               # %if.then38
	movq	img, %rax
	movl	72448(%rax), %eax
	movl	log2_max_pic_order_cnt_lsb_minus4, %ecx
	addl	$4, %ecx
                                        # kill: def $cl killed $ecx
	movl	$4294967295, %edx       # imm = 0xFFFFFFFF
	shll	%cl, %edx
	xorl	$-1, %edx
	andl	%edx, %eax
	movq	img, %rcx
	movl	%eax, 72428(%rcx)
	jmp	.LBB31_21
.LBB31_14:                              # %if.else40
	cmpl	$0, -28(%rbp)
	je	.LBB31_16
# %bb.15:                               # %lor.lhs.false
	movq	img, %rax
	cmpl	$1, 28(%rax)
	jne	.LBB31_17
.LBB31_16:                              # %if.then44
	movq	img, %rax
	movl	72448(%rax), %eax
	movl	log2_max_pic_order_cnt_lsb_minus4, %ecx
	addl	$4, %ecx
                                        # kill: def $cl killed $ecx
	movl	$4294967295, %edx       # imm = 0xFFFFFFFF
	shll	%cl, %edx
	xorl	$-1, %edx
	andl	%edx, %eax
	movq	img, %rcx
	movl	%eax, 72428(%rcx)
	jmp	.LBB31_20
.LBB31_17:                              # %if.else51
	movq	img, %rax
	cmpl	$2, 28(%rax)
	jne	.LBB31_19
# %bb.18:                               # %if.then54
	movq	img, %rax
	movl	72452(%rax), %eax
	movl	log2_max_pic_order_cnt_lsb_minus4, %ecx
	addl	$4, %ecx
                                        # kill: def $cl killed $ecx
	movl	$4294967295, %edx       # imm = 0xFFFFFFFF
	shll	%cl, %edx
	xorl	$-1, %edx
	andl	%edx, %eax
	movq	img, %rcx
	movl	%eax, 72428(%rcx)
.LBB31_19:                              # %if.end60
	jmp	.LBB31_20
.LBB31_20:                              # %if.end61
	jmp	.LBB31_21
.LBB31_21:                              # %if.end62
	movl	log2_max_pic_order_cnt_lsb_minus4, %edi
	addl	$4, %edi
	movq	img, %rax
	movl	72428(%rax), %edx
	movq	-24(%rbp), %rcx
	movabsq	$.L.str.7, %rsi
	callq	u_v
	addl	-12(%rbp), %eax
	movl	%eax, -12(%rbp)
	movq	img, %rax
	cmpl	$0, 72492(%rax)
	je	.LBB31_24
# %bb.22:                               # %land.lhs.true
	cmpl	$0, -28(%rbp)
	jne	.LBB31_24
# %bb.23:                               # %if.then69
	movq	img, %rax
	movl	72432(%rax), %esi
	movq	-24(%rbp), %rdx
	movabsq	$.L.str.8, %rdi
	callq	se_v
	addl	-12(%rbp), %eax
	movl	%eax, -12(%rbp)
.LBB31_24:                              # %if.end72
	jmp	.LBB31_25
.LBB31_25:                              # %if.end73
	movq	img, %rax
	cmpl	$1, 72404(%rax)
	jne	.LBB31_31
# %bb.26:                               # %land.lhs.true76
	movq	img, %rax
	cmpl	$0, 72408(%rax)
	jne	.LBB31_31
# %bb.27:                               # %if.then78
	movq	img, %rax
	movl	72436(%rax), %esi
	movq	-24(%rbp), %rdx
	movabsq	$.L.str.9, %rdi
	callq	se_v
	addl	-12(%rbp), %eax
	movl	%eax, -12(%rbp)
	movq	img, %rax
	cmpl	$0, 72492(%rax)
	je	.LBB31_30
# %bb.28:                               # %land.lhs.true84
	cmpl	$0, -28(%rbp)
	jne	.LBB31_30
# %bb.29:                               # %if.then86
	movq	img, %rax
	movl	72440(%rax), %esi
	movq	-24(%rbp), %rdx
	movabsq	$.L.str.10, %rdi
	callq	se_v
	addl	-12(%rbp), %eax
	movl	%eax, -12(%rbp)
.LBB31_30:                              # %if.end91
	jmp	.LBB31_31
.LBB31_31:                              # %if.end92
	movq	input, %rax
	cmpl	$0, 3204(%rax)
	je	.LBB31_33
# %bb.32:                               # %if.then94
	movq	img, %rax
	movl	72396(%rax), %esi
	movq	-24(%rbp), %rdx
	movabsq	$.L.str.11, %rdi
	callq	ue_v
	addl	-12(%rbp), %eax
	movl	%eax, -12(%rbp)
.LBB31_33:                              # %if.end97
	movq	img, %rax
	cmpl	$1, 24(%rax)
	jne	.LBB31_35
# %bb.34:                               # %if.then99
	movq	img, %rax
	movl	71996(%rax), %esi
	movq	-24(%rbp), %rdx
	movabsq	$.L.str.12, %rdi
	callq	u_1
	addl	-12(%rbp), %eax
	movl	%eax, -12(%rbp)
.LBB31_35:                              # %if.end102
	movq	img, %rax
	cmpl	$0, 24(%rax)
	je	.LBB31_38
# %bb.36:                               # %lor.lhs.false105
	movq	img, %rax
	cmpl	$1, 24(%rax)
	je	.LBB31_38
# %bb.37:                               # %lor.lhs.false108
	movq	img, %rax
	cmpl	$3, 24(%rax)
	jne	.LBB31_49
.LBB31_38:                              # %if.then111
	movq	img, %rax
	cmpl	$0, 24(%rax)
	je	.LBB31_40
# %bb.39:                               # %lor.lhs.false114
	movq	img, %rax
	cmpl	$3, 24(%rax)
	jne	.LBB31_41
.LBB31_40:                              # %if.then117
	xorl	%eax, %eax
	movq	img, %rcx
	movl	72000(%rcx), %ecx
	movq	active_pps, %rdx
	movl	184(%rdx), %edx
	addl	$1, %edx
	cmpl	%edx, %ecx
	movl	$1, %ecx
	cmovnel	%ecx, %eax
	movl	%eax, -32(%rbp)
	jmp	.LBB31_44
.LBB31_41:                              # %if.else121
	movq	img, %rax
	movl	72000(%rax), %eax
	movq	active_pps, %rcx
	movl	184(%rcx), %ecx
	addl	$1, %ecx
	cmpl	%ecx, %eax
	movb	$1, %al
	jne	.LBB31_43
# %bb.42:                               # %lor.rhs126
	movq	img, %rax
	movl	72004(%rax), %eax
	movq	active_pps, %rcx
	movl	188(%rcx), %ecx
	addl	$1, %ecx
	cmpl	%ecx, %eax
	setne	%al
.LBB31_43:                              # %lor.end129
	xorl	%ecx, %ecx
	testb	$1, %al
	movl	$1, %eax
	cmovnel	%eax, %ecx
	movl	%ecx, -32(%rbp)
.LBB31_44:                              # %if.end131
	movl	-32(%rbp), %esi
	movq	-24(%rbp), %rdx
	movabsq	$.L.str.13, %rdi
	callq	u_1
	addl	-12(%rbp), %eax
	movl	%eax, -12(%rbp)
	cmpl	$0, -32(%rbp)
	je	.LBB31_48
# %bb.45:                               # %if.then135
	movq	img, %rax
	movl	72000(%rax), %esi
	subl	$1, %esi
	movq	-24(%rbp), %rdx
	movabsq	$.L.str.14, %rdi
	callq	ue_v
	addl	-12(%rbp), %eax
	movl	%eax, -12(%rbp)
	movq	img, %rax
	cmpl	$1, 24(%rax)
	jne	.LBB31_47
# %bb.46:                               # %if.then141
	movq	img, %rax
	movl	72004(%rax), %esi
	subl	$1, %esi
	movq	-24(%rbp), %rdx
	movabsq	$.L.str.15, %rdi
	callq	ue_v
	addl	-12(%rbp), %eax
	movl	%eax, -12(%rbp)
.LBB31_47:                              # %if.end146
	jmp	.LBB31_48
.LBB31_48:                              # %if.end147
	jmp	.LBB31_49
.LBB31_49:                              # %if.end148
	callq	ref_pic_list_reordering
	addl	-12(%rbp), %eax
	movl	%eax, -12(%rbp)
	movq	img, %rax
	cmpl	$0, 24(%rax)
	je	.LBB31_51
# %bb.50:                               # %lor.lhs.false153
	movq	img, %rax
	cmpl	$3, 24(%rax)
	jne	.LBB31_52
.LBB31_51:                              # %land.lhs.true156
	movq	active_pps, %rax
	cmpl	$0, 192(%rax)
	jne	.LBB31_54
.LBB31_52:                              # %lor.lhs.false158
	movq	img, %rax
	cmpl	$1, 24(%rax)
	jne	.LBB31_55
# %bb.53:                               # %land.lhs.true161
	movq	active_pps, %rax
	cmpl	$1, 196(%rax)
	jne	.LBB31_55
.LBB31_54:                              # %if.then163
	callq	pred_weight_table
	addl	-12(%rbp), %eax
	movl	%eax, -12(%rbp)
.LBB31_55:                              # %if.end166
	movq	img, %rax
	cmpl	$0, 72496(%rax)
	je	.LBB31_57
# %bb.56:                               # %if.then168
	callq	dec_ref_pic_marking
	addl	-12(%rbp), %eax
	movl	%eax, -12(%rbp)
.LBB31_57:                              # %if.end171
	movq	input, %rax
	cmpl	$1, 2356(%rax)
	jne	.LBB31_60
# %bb.58:                               # %land.lhs.true173
	movq	img, %rax
	cmpl	$2, 24(%rax)
	je	.LBB31_60
# %bb.59:                               # %if.then176
	movq	img, %rax
	movl	72520(%rax), %esi
	movq	-24(%rbp), %rdx
	movabsq	$.L.str.16, %rdi
	callq	ue_v
	addl	-12(%rbp), %eax
	movl	%eax, -12(%rbp)
.LBB31_60:                              # %if.end179
	movq	-72(%rbp), %rax
	movl	4(%rax), %esi
	subl	$26, %esi
	movq	active_pps, %rax
	subl	200(%rax), %esi
	movq	-24(%rbp), %rdx
	movabsq	$.L.str.17, %rdi
	callq	se_v
	addl	-12(%rbp), %eax
	movl	%eax, -12(%rbp)
	movq	img, %rax
	cmpl	$3, 24(%rax)
	jne	.LBB31_64
# %bb.61:                               # %if.then186
	movq	img, %rax
	cmpl	$3, 24(%rax)
	jne	.LBB31_63
# %bb.62:                               # %if.then189
	movq	-24(%rbp), %rdx
	movabsq	$.L.str.18, %rdi
	xorl	%esi, %esi
	callq	u_1
	addl	-12(%rbp), %eax
	movl	%eax, -12(%rbp)
.LBB31_63:                              # %if.end192
	movq	img, %rax
	movl	44(%rax), %esi
	subl	$26, %esi
	movq	-24(%rbp), %rdx
	movabsq	$.L.str.19, %rdi
	callq	se_v
	addl	-12(%rbp), %eax
	movl	%eax, -12(%rbp)
.LBB31_64:                              # %if.end196
	movq	active_pps, %rax
	cmpl	$0, 220(%rax)
	je	.LBB31_68
# %bb.65:                               # %if.then198
	movq	img, %rax
	movl	71984(%rax), %esi
	movq	-24(%rbp), %rdx
	movabsq	$.L.str.20, %rdi
	callq	ue_v
	addl	-12(%rbp), %eax
	movl	%eax, -12(%rbp)
	movq	img, %rax
	cmpl	$1, 71984(%rax)
	je	.LBB31_67
# %bb.66:                               # %if.then203
	movq	img, %rax
	movl	71988(%rax), %eax
	cltd
	movl	$2, %ecx
	idivl	%ecx
	movq	-24(%rbp), %rdx
	movabsq	$.L.str.21, %rdi
	movl	%eax, %esi
	callq	se_v
	addl	-12(%rbp), %eax
	movl	%eax, -12(%rbp)
	movq	img, %rax
	movl	71992(%rax), %eax
	cltd
	movl	$2, %ecx
	idivl	%ecx
	movq	-24(%rbp), %rdx
	movabsq	$.L.str.22, %rdi
	movl	%eax, %esi
	callq	se_v
	addl	-12(%rbp), %eax
	movl	%eax, -12(%rbp)
.LBB31_67:                              # %if.end209
	jmp	.LBB31_68
.LBB31_68:                              # %if.end210
	movq	active_pps, %rax
	cmpl	$0, 60(%rax)
	jbe	.LBB31_72
# %bb.69:                               # %land.lhs.true212
	movq	active_pps, %rax
	cmpl	$3, 64(%rax)
	jb	.LBB31_72
# %bb.70:                               # %land.lhs.true214
	movq	active_pps, %rax
	cmpl	$5, 64(%rax)
	ja	.LBB31_72
# %bb.71:                               # %if.then217
	vmovss	.LCPI31_1(%rip), %xmm0  # xmm0 = mem[0],zero,zero,zero
	movq	img(%rip), %rax
	movl	72468(%rax), %ecx
	movl	72472(%rax), %eax
	imull	%ecx, %eax
	vcvtsi2ss	%rax, %xmm0, %xmm1
	movq	active_pps(%rip), %rax
	movl	168(%rax), %eax
	addl	$1, %eax
	vcvtsi2ss	%rax, %xmm0, %xmm2
	vdivss	%xmm2, %xmm1, %xmm1
	vaddss	%xmm0, %xmm1, %xmm0
	vmovss	%xmm0, -48(%rbp)
	vmovss	-48(%rbp), %xmm0        # xmm0 = mem[0],zero,zero,zero
	vcvtss2sd	%xmm0, %xmm0, %xmm0
	callq	log
	vmovsd	%xmm0, -64(%rbp)        # 8-byte Spill
	vmovsd	.LCPI31_0(%rip), %xmm0  # xmm0 = mem[0],zero
	callq	log
	vmovsd	-64(%rbp), %xmm1        # 8-byte Reload
                                        # xmm1 = mem[0],zero
	vdivsd	%xmm0, %xmm1, %xmm0
	vroundsd	$10, %xmm0, %xmm0, %xmm0
	vcvttsd2si	%xmm0, %eax
	movl	%eax, -44(%rbp)
	movl	-44(%rbp), %edi
	movq	img, %rax
	movl	72652(%rax), %edx
	movq	-24(%rbp), %rcx
	movabsq	$.L.str.23, %rsi
	callq	u_v
	addl	-12(%rbp), %eax
	movl	%eax, -12(%rbp)
.LBB31_72:                              # %if.end229
	movq	input, %rax
	cmpl	$0, 2364(%rax)
	je	.LBB31_75
# %bb.73:                               # %land.lhs.true232
	movq	img, %rax
	movq	14152(%rax), %rax
	cmpl	$0, 4(%rax)
	jne	.LBB31_75
# %bb.74:                               # %if.then236
	movq	img, %rax
	movl	20(%rax), %esi
	movq	-24(%rbp), %rdx
	movabsq	$.L.str.24, %rdi
	callq	ue_v
	addl	-12(%rbp), %eax
	movl	%eax, -12(%rbp)
.LBB31_75:                              # %if.end239
	movl	-12(%rbp), %ebx
	cmpl	$1968284471, -52(%rbp)  # imm = 0x7551A337
	jne	.LBB31_77
.LBB31_76:
	movl	%ebx, %eax
	addq	$72, %rsp
	popq	%rbx
	popq	%rbp
	.cfi_def_cfa %rsp, 8
	retq
.LBB31_77:                              # %func_exit
	.cfi_def_cfa %rbp, 16
	callq	detect_breach
	jmp	.LBB31_76
.Lfunc_end31:
	.size	SliceHeader.26, .Lfunc_end31-SliceHeader.26
	.cfi_endproc
                                        # -- End function
	.p2align	4, 0x90         # -- Begin function pred_weight_table.27
	.type	pred_weight_table.27,@function
pred_weight_table.27:                   # @pred_weight_table.27
	.cfi_startproc
# %bb.0:                                # %entry
	pushq	%rbp
	.cfi_def_cfa_offset 16
	.cfi_offset %rbp, -16
	movq	%rsp, %rbp
	.cfi_def_cfa_register %rbp
	pushq	%rbx
	subq	$40, %rsp
	.cfi_offset %rbx, -24
	movl	$357323737, -40(%rbp)   # imm = 0x154C53D9
	movq	input, %rax
	movslq	2364(%rax), %rax
	movq	assignSE2partition(,%rax,8), %rax
	movl	(%rax), %eax
	movl	%eax, -36(%rbp)
	movq	img, %rax
	movq	14160(%rax), %rax
	movq	24(%rax), %rax
	movslq	-36(%rbp), %rcx
	imulq	$120, %rcx, %rcx
	addq	%rcx, %rax
	movq	%rax, -32(%rbp)
	movl	$0, -12(%rbp)
	movl	luma_log_weight_denom, %esi
	movq	-32(%rbp), %rdx
	movabsq	$.L.str.42, %rdi
	callq	ue_v
	addl	-12(%rbp), %eax
	movl	%eax, -12(%rbp)
	movl	chroma_log_weight_denom, %esi
	movq	-32(%rbp), %rdx
	movabsq	$.L.str.43, %rdi
	callq	ue_v
	addl	-12(%rbp), %eax
	movl	%eax, -12(%rbp)
	movl	$0, -16(%rbp)
.LBB32_1:                               # %for.cond
                                        # =>This Loop Header: Depth=1
                                        #     Child Loop BB32_11 Depth 2
	movl	-16(%rbp), %eax
	movq	img, %rcx
	cmpl	72000(%rcx), %eax
	jge	.LBB32_18
# %bb.2:                                # %for.body
                                        #   in Loop: Header=BB32_1 Depth=1
	movq	wp_weight, %rax
	movq	(%rax), %rax
	movslq	-16(%rbp), %rcx
	movq	(%rax,%rcx,8), %rax
	movl	(%rax), %eax
	movl	luma_log_weight_denom, %ecx
                                        # kill: def $cl killed $ecx
	movl	$1, %edx
	shll	%cl, %edx
	cmpl	%edx, %eax
	jne	.LBB32_4
# %bb.3:                                # %lor.lhs.false
                                        #   in Loop: Header=BB32_1 Depth=1
	movq	wp_offset, %rax
	movq	(%rax), %rax
	movslq	-16(%rbp), %rcx
	movq	(%rax,%rcx,8), %rax
	cmpl	$0, (%rax)
	je	.LBB32_5
.LBB32_4:                               # %if.then
                                        #   in Loop: Header=BB32_1 Depth=1
	movq	-32(%rbp), %rdx
	movabsq	$.L.str.44, %rdi
	movl	$1, %esi
	callq	u_1
	addl	-12(%rbp), %eax
	movl	%eax, -12(%rbp)
	movq	wp_weight, %rax
	movq	(%rax), %rax
	movslq	-16(%rbp), %rcx
	movq	(%rax,%rcx,8), %rax
	movl	(%rax), %esi
	movq	-32(%rbp), %rdx
	movabsq	$.L.str.45, %rdi
	callq	se_v
	addl	-12(%rbp), %eax
	movl	%eax, -12(%rbp)
	movq	wp_offset, %rax
	movq	(%rax), %rax
	movslq	-16(%rbp), %rcx
	movq	(%rax,%rcx,8), %rax
	movl	(%rax), %esi
	movq	-32(%rbp), %rdx
	movabsq	$.L.str.46, %rdi
	callq	se_v
	addl	-12(%rbp), %eax
	movl	%eax, -12(%rbp)
	jmp	.LBB32_6
.LBB32_5:                               # %if.else
                                        #   in Loop: Header=BB32_1 Depth=1
	movq	-32(%rbp), %rdx
	movabsq	$.L.str.44, %rdi
	xorl	%esi, %esi
	callq	u_1
	addl	-12(%rbp), %eax
	movl	%eax, -12(%rbp)
.LBB32_6:                               # %if.end
                                        #   in Loop: Header=BB32_1 Depth=1
	movq	wp_weight, %rax
	movq	(%rax), %rax
	movslq	-16(%rbp), %rcx
	movq	(%rax,%rcx,8), %rax
	movl	4(%rax), %eax
	movl	chroma_log_weight_denom, %ecx
                                        # kill: def $cl killed $ecx
	movl	$1, %edx
	shll	%cl, %edx
	cmpl	%edx, %eax
	jne	.LBB32_10
# %bb.7:                                # %lor.lhs.false38
                                        #   in Loop: Header=BB32_1 Depth=1
	movq	wp_offset, %rax
	movq	(%rax), %rax
	movslq	-16(%rbp), %rcx
	movq	(%rax,%rcx,8), %rax
	cmpl	$0, 4(%rax)
	jne	.LBB32_10
# %bb.8:                                # %lor.lhs.false44
                                        #   in Loop: Header=BB32_1 Depth=1
	movq	wp_weight, %rax
	movq	(%rax), %rax
	movslq	-16(%rbp), %rcx
	movq	(%rax,%rcx,8), %rax
	movl	8(%rax), %eax
	movl	chroma_log_weight_denom, %ecx
                                        # kill: def $cl killed $ecx
	movl	$1, %edx
	shll	%cl, %edx
	cmpl	%edx, %eax
	jne	.LBB32_10
# %bb.9:                                # %lor.lhs.false51
                                        #   in Loop: Header=BB32_1 Depth=1
	movq	wp_offset, %rax
	movq	(%rax), %rax
	movslq	-16(%rbp), %rcx
	movq	(%rax,%rcx,8), %rax
	cmpl	$0, 8(%rax)
	je	.LBB32_15
.LBB32_10:                              # %if.then57
                                        #   in Loop: Header=BB32_1 Depth=1
	movq	-32(%rbp), %rdx
	movabsq	$.L.str.47, %rdi
	movl	$1, %esi
	callq	u_1
	addl	-12(%rbp), %eax
	movl	%eax, -12(%rbp)
	movl	$1, -20(%rbp)
.LBB32_11:                              # %for.cond60
                                        #   Parent Loop BB32_1 Depth=1
                                        # =>  This Inner Loop Header: Depth=2
	cmpl	$3, -20(%rbp)
	jge	.LBB32_14
# %bb.12:                               # %for.body62
                                        #   in Loop: Header=BB32_11 Depth=2
	movq	wp_weight, %rax
	movq	(%rax), %rax
	movslq	-16(%rbp), %rcx
	movq	(%rax,%rcx,8), %rax
	movslq	-20(%rbp), %rcx
	movl	(%rax,%rcx,4), %esi
	movq	-32(%rbp), %rdx
	movabsq	$.L.str.48, %rdi
	callq	se_v
	addl	-12(%rbp), %eax
	movl	%eax, -12(%rbp)
	movq	wp_offset, %rax
	movq	(%rax), %rax
	movslq	-16(%rbp), %rcx
	movq	(%rax,%rcx,8), %rax
	movslq	-20(%rbp), %rcx
	movl	(%rax,%rcx,4), %esi
	movq	-32(%rbp), %rdx
	movabsq	$.L.str.49, %rdi
	callq	se_v
	addl	-12(%rbp), %eax
	movl	%eax, -12(%rbp)
# %bb.13:                               # %for.inc
                                        #   in Loop: Header=BB32_11 Depth=2
	movl	-20(%rbp), %eax
	addl	$1, %eax
	movl	%eax, -20(%rbp)
	jmp	.LBB32_11
.LBB32_14:                              # %for.end
                                        #   in Loop: Header=BB32_1 Depth=1
	jmp	.LBB32_16
.LBB32_15:                              # %if.else77
                                        #   in Loop: Header=BB32_1 Depth=1
	movq	-32(%rbp), %rdx
	movabsq	$.L.str.47, %rdi
	xorl	%esi, %esi
	callq	u_1
	addl	-12(%rbp), %eax
	movl	%eax, -12(%rbp)
.LBB32_16:                              # %if.end80
                                        #   in Loop: Header=BB32_1 Depth=1
	jmp	.LBB32_17
.LBB32_17:                              # %for.inc81
                                        #   in Loop: Header=BB32_1 Depth=1
	movl	-16(%rbp), %eax
	addl	$1, %eax
	movl	%eax, -16(%rbp)
	jmp	.LBB32_1
.LBB32_18:                              # %for.end83
	movq	img, %rax
	cmpl	$1, 24(%rax)
	jne	.LBB32_38
# %bb.19:                               # %if.then85
	movl	$0, -16(%rbp)
.LBB32_20:                              # %for.cond86
                                        # =>This Loop Header: Depth=1
                                        #     Child Loop BB32_30 Depth 2
	movl	-16(%rbp), %eax
	movq	img, %rcx
	cmpl	72004(%rcx), %eax
	jge	.LBB32_37
# %bb.21:                               # %for.body88
                                        #   in Loop: Header=BB32_20 Depth=1
	movq	wp_weight, %rax
	movq	8(%rax), %rax
	movslq	-16(%rbp), %rcx
	movq	(%rax,%rcx,8), %rax
	movl	(%rax), %eax
	movl	luma_log_weight_denom, %ecx
                                        # kill: def $cl killed $ecx
	movl	$1, %edx
	shll	%cl, %edx
	cmpl	%edx, %eax
	jne	.LBB32_23
# %bb.22:                               # %lor.lhs.false95
                                        #   in Loop: Header=BB32_20 Depth=1
	movq	wp_offset, %rax
	movq	8(%rax), %rax
	movslq	-16(%rbp), %rcx
	movq	(%rax,%rcx,8), %rax
	cmpl	$0, (%rax)
	je	.LBB32_24
.LBB32_23:                              # %if.then101
                                        #   in Loop: Header=BB32_20 Depth=1
	movq	-32(%rbp), %rdx
	movabsq	$.L.str.50, %rdi
	movl	$1, %esi
	callq	u_1
	addl	-12(%rbp), %eax
	movl	%eax, -12(%rbp)
	movq	wp_weight, %rax
	movq	8(%rax), %rax
	movslq	-16(%rbp), %rcx
	movq	(%rax,%rcx,8), %rax
	movl	(%rax), %esi
	movq	-32(%rbp), %rdx
	movabsq	$.L.str.51, %rdi
	callq	se_v
	addl	-12(%rbp), %eax
	movl	%eax, -12(%rbp)
	movq	wp_offset, %rax
	movq	8(%rax), %rax
	movslq	-16(%rbp), %rcx
	movq	(%rax,%rcx,8), %rax
	movl	(%rax), %esi
	movq	-32(%rbp), %rdx
	movabsq	$.L.str.52, %rdi
	callq	se_v
	addl	-12(%rbp), %eax
	movl	%eax, -12(%rbp)
	jmp	.LBB32_25
.LBB32_24:                              # %if.else116
                                        #   in Loop: Header=BB32_20 Depth=1
	movq	-32(%rbp), %rdx
	movabsq	$.L.str.50, %rdi
	xorl	%esi, %esi
	callq	u_1
	addl	-12(%rbp), %eax
	movl	%eax, -12(%rbp)
.LBB32_25:                              # %if.end119
                                        #   in Loop: Header=BB32_20 Depth=1
	movq	wp_weight, %rax
	movq	8(%rax), %rax
	movslq	-16(%rbp), %rcx
	movq	(%rax,%rcx,8), %rax
	movl	4(%rax), %eax
	movl	chroma_log_weight_denom, %ecx
                                        # kill: def $cl killed $ecx
	movl	$1, %edx
	shll	%cl, %edx
	cmpl	%edx, %eax
	jne	.LBB32_29
# %bb.26:                               # %lor.lhs.false126
                                        #   in Loop: Header=BB32_20 Depth=1
	movq	wp_offset, %rax
	movq	8(%rax), %rax
	movslq	-16(%rbp), %rcx
	movq	(%rax,%rcx,8), %rax
	cmpl	$0, 4(%rax)
	jne	.LBB32_29
# %bb.27:                               # %lor.lhs.false132
                                        #   in Loop: Header=BB32_20 Depth=1
	movq	wp_weight, %rax
	movq	8(%rax), %rax
	movslq	-16(%rbp), %rcx
	movq	(%rax,%rcx,8), %rax
	movl	8(%rax), %eax
	movl	chroma_log_weight_denom, %ecx
                                        # kill: def $cl killed $ecx
	movl	$1, %edx
	shll	%cl, %edx
	cmpl	%edx, %eax
	jne	.LBB32_29
# %bb.28:                               # %lor.lhs.false139
                                        #   in Loop: Header=BB32_20 Depth=1
	movq	wp_offset, %rax
	movq	8(%rax), %rax
	movslq	-16(%rbp), %rcx
	movq	(%rax,%rcx,8), %rax
	cmpl	$0, 8(%rax)
	je	.LBB32_34
.LBB32_29:                              # %if.then145
                                        #   in Loop: Header=BB32_20 Depth=1
	movq	-32(%rbp), %rdx
	movabsq	$.L.str.53, %rdi
	movl	$1, %esi
	callq	u_1
	addl	-12(%rbp), %eax
	movl	%eax, -12(%rbp)
	movl	$1, -20(%rbp)
.LBB32_30:                              # %for.cond148
                                        #   Parent Loop BB32_20 Depth=1
                                        # =>  This Inner Loop Header: Depth=2
	cmpl	$3, -20(%rbp)
	jge	.LBB32_33
# %bb.31:                               # %for.body150
                                        #   in Loop: Header=BB32_30 Depth=2
	movq	wp_weight, %rax
	movq	8(%rax), %rax
	movslq	-16(%rbp), %rcx
	movq	(%rax,%rcx,8), %rax
	movslq	-20(%rbp), %rcx
	movl	(%rax,%rcx,4), %esi
	movq	-32(%rbp), %rdx
	movabsq	$.L.str.54, %rdi
	callq	se_v
	addl	-12(%rbp), %eax
	movl	%eax, -12(%rbp)
	movq	wp_offset, %rax
	movq	8(%rax), %rax
	movslq	-16(%rbp), %rcx
	movq	(%rax,%rcx,8), %rax
	movslq	-20(%rbp), %rcx
	movl	(%rax,%rcx,4), %esi
	movq	-32(%rbp), %rdx
	movabsq	$.L.str.55, %rdi
	callq	se_v
	addl	-12(%rbp), %eax
	movl	%eax, -12(%rbp)
# %bb.32:                               # %for.inc165
                                        #   in Loop: Header=BB32_30 Depth=2
	movl	-20(%rbp), %eax
	addl	$1, %eax
	movl	%eax, -20(%rbp)
	jmp	.LBB32_30
.LBB32_33:                              # %for.end167
                                        #   in Loop: Header=BB32_20 Depth=1
	jmp	.LBB32_35
.LBB32_34:                              # %if.else168
                                        #   in Loop: Header=BB32_20 Depth=1
	movq	-32(%rbp), %rdx
	movabsq	$.L.str.53, %rdi
	xorl	%esi, %esi
	callq	u_1
	addl	-12(%rbp), %eax
	movl	%eax, -12(%rbp)
.LBB32_35:                              # %if.end171
                                        #   in Loop: Header=BB32_20 Depth=1
	jmp	.LBB32_36
.LBB32_36:                              # %for.inc172
                                        #   in Loop: Header=BB32_20 Depth=1
	movl	-16(%rbp), %eax
	addl	$1, %eax
	movl	%eax, -16(%rbp)
	jmp	.LBB32_20
.LBB32_37:                              # %for.end174
	jmp	.LBB32_38
.LBB32_38:                              # %if.end175
	movl	-12(%rbp), %ebx
	cmpl	$357323737, -40(%rbp)   # imm = 0x154C53D9
	jne	.LBB32_40
.LBB32_39:
	movl	%ebx, %eax
	addq	$40, %rsp
	popq	%rbx
	popq	%rbp
	.cfi_def_cfa %rsp, 8
	retq
.LBB32_40:                              # %func_exit
	.cfi_def_cfa %rbp, 16
	callq	detect_breach
	jmp	.LBB32_39
.Lfunc_end32:
	.size	pred_weight_table.27, .Lfunc_end32-pred_weight_table.27
	.cfi_endproc
                                        # -- End function
	.section	.rodata.cst8,"aM",@progbits,8
	.p2align	3               # -- Begin function SliceHeader.28
.LCPI33_0:
	.quad	4611686018427387904     # double 2
	.section	.rodata.cst4,"aM",@progbits,4
	.p2align	2
.LCPI33_1:
	.long	1065353216              # float 1
	.text
	.globl	SliceHeader.28
	.p2align	4, 0x90
	.type	SliceHeader.28,@function
SliceHeader.28:                         # @SliceHeader.28
	.cfi_startproc
# %bb.0:                                # %entry
	pushq	%rbp
	.cfi_def_cfa_offset 16
	.cfi_offset %rbp, -16
	movq	%rsp, %rbp
	.cfi_def_cfa_register %rbp
	pushq	%rbx
	subq	$72, %rsp
	.cfi_offset %rbx, -24
	movl	$565306069, -52(%rbp)   # imm = 0x21B1E2D5
	movq	input, %rax
	movslq	2364(%rax), %rax
	movq	assignSE2partition(,%rax,8), %rax
	movl	(%rax), %eax
	movl	%eax, -40(%rbp)
	movq	img, %rax
	movq	14160(%rax), %rax
	movq	24(%rax), %rax
	movslq	-40(%rbp), %rcx
	imulq	$120, %rcx, %rcx
	addq	%rcx, %rax
	movq	%rax, -24(%rbp)
	movq	img, %rax
	movq	14160(%rax), %rax
	movq	%rax, -72(%rbp)
	movl	$0, -12(%rbp)
	movl	$0, -28(%rbp)
	movl	$0, -36(%rbp)
	movq	img, %rax
	cmpl	$0, 72400(%rax)
	je	.LBB33_2
# %bb.1:                                # %if.then
	movq	img, %rax
	movl	12(%rax), %esi
	sarl	$1, %esi
	movq	-24(%rbp), %rdx
	movabsq	$.L.str, %rdi
	callq	ue_v
	movl	%eax, -12(%rbp)
	jmp	.LBB33_3
.LBB33_2:                               # %if.else
	movq	img, %rax
	movl	12(%rax), %esi
	movq	-24(%rbp), %rdx
	movabsq	$.L.str, %rdi
	callq	ue_v
	movl	%eax, -12(%rbp)
.LBB33_3:                               # %if.end
	callq	get_picture_type
	movq	-24(%rbp), %rdx
	movabsq	$.L.str.1, %rdi
	movl	%eax, %esi
	callq	ue_v
	addl	-12(%rbp), %eax
	movl	%eax, -12(%rbp)
	movq	active_pps, %rax
	movl	4(%rax), %esi
	movq	-24(%rbp), %rdx
	movabsq	$.L.str.2, %rdi
	callq	ue_v
	addl	-12(%rbp), %eax
	movl	%eax, -12(%rbp)
	movl	log2_max_frame_num_minus4, %edi
	addl	$4, %edi
	movq	img, %rax
	movl	72464(%rax), %edx
	movq	-24(%rbp), %rcx
	movabsq	$.L.str.3, %rsi
	callq	u_v
	addl	-12(%rbp), %eax
	movl	%eax, -12(%rbp)
	movq	active_sps, %rax
	cmpl	$0, 1148(%rax)
	jne	.LBB33_9
# %bb.4:                                # %if.then15
	movq	img, %rax
	cmpl	$1, 28(%rax)
	movb	$1, %al
	je	.LBB33_6
# %bb.5:                                # %lor.rhs
	movq	img, %rax
	cmpl	$2, 28(%rax)
	sete	%al
.LBB33_6:                               # %lor.end
	xorl	%ecx, %ecx
	testb	$1, %al
	movl	$1, %eax
	cmovnel	%eax, %ecx
	movl	%ecx, -28(%rbp)
	movl	-28(%rbp), %esi
	movq	-24(%rbp), %rdx
	movabsq	$.L.str.4, %rdi
	callq	u_1
	addl	-12(%rbp), %eax
	movl	%eax, -12(%rbp)
	cmpl	$0, -28(%rbp)
	je	.LBB33_8
# %bb.7:                                # %if.then21
	xorl	%eax, %eax
	movq	img, %rcx
	movl	28(%rcx), %ecx
	cmpl	$2, %ecx
	movl	$1, %ecx
	cmovel	%ecx, %eax
	movl	%eax, -36(%rbp)
	movl	-36(%rbp), %esi
	movq	-24(%rbp), %rdx
	movabsq	$.L.str.5, %rdi
	callq	u_1
	addl	-12(%rbp), %eax
	movl	%eax, -12(%rbp)
.LBB33_8:                               # %if.end27
	jmp	.LBB33_9
.LBB33_9:                               # %if.end28
	movq	img, %rax
	movq	14152(%rax), %rax
	cmpl	$0, 4(%rax)
	je	.LBB33_11
# %bb.10:                               # %if.then30
	movq	img, %rax
	movl	(%rax), %eax
	cltd
	movl	$2, %ecx
	idivl	%ecx
	movq	-24(%rbp), %rax
	movabsq	$.L.str.6, %rdi
	movl	%edx, %esi
	movq	%rax, %rdx
	callq	ue_v
	addl	-12(%rbp), %eax
	movl	%eax, -12(%rbp)
.LBB33_11:                              # %if.end33
	movq	img, %rax
	cmpl	$0, 72404(%rax)
	jne	.LBB33_25
# %bb.12:                               # %if.then35
	movq	active_sps, %rax
	cmpl	$0, 1148(%rax)
	je	.LBB33_14
# %bb.13:                               # %if.then38
	movq	img, %rax
	movl	72448(%rax), %eax
	movl	log2_max_pic_order_cnt_lsb_minus4, %ecx
	addl	$4, %ecx
                                        # kill: def $cl killed $ecx
	movl	$4294967295, %edx       # imm = 0xFFFFFFFF
	shll	%cl, %edx
	xorl	$-1, %edx
	andl	%edx, %eax
	movq	img, %rcx
	movl	%eax, 72428(%rcx)
	jmp	.LBB33_21
.LBB33_14:                              # %if.else40
	cmpl	$0, -28(%rbp)
	je	.LBB33_16
# %bb.15:                               # %lor.lhs.false
	movq	img, %rax
	cmpl	$1, 28(%rax)
	jne	.LBB33_17
.LBB33_16:                              # %if.then44
	movq	img, %rax
	movl	72448(%rax), %eax
	movl	log2_max_pic_order_cnt_lsb_minus4, %ecx
	addl	$4, %ecx
                                        # kill: def $cl killed $ecx
	movl	$4294967295, %edx       # imm = 0xFFFFFFFF
	shll	%cl, %edx
	xorl	$-1, %edx
	andl	%edx, %eax
	movq	img, %rcx
	movl	%eax, 72428(%rcx)
	jmp	.LBB33_20
.LBB33_17:                              # %if.else51
	movq	img, %rax
	cmpl	$2, 28(%rax)
	jne	.LBB33_19
# %bb.18:                               # %if.then54
	movq	img, %rax
	movl	72452(%rax), %eax
	movl	log2_max_pic_order_cnt_lsb_minus4, %ecx
	addl	$4, %ecx
                                        # kill: def $cl killed $ecx
	movl	$4294967295, %edx       # imm = 0xFFFFFFFF
	shll	%cl, %edx
	xorl	$-1, %edx
	andl	%edx, %eax
	movq	img, %rcx
	movl	%eax, 72428(%rcx)
.LBB33_19:                              # %if.end60
	jmp	.LBB33_20
.LBB33_20:                              # %if.end61
	jmp	.LBB33_21
.LBB33_21:                              # %if.end62
	movl	log2_max_pic_order_cnt_lsb_minus4, %edi
	addl	$4, %edi
	movq	img, %rax
	movl	72428(%rax), %edx
	movq	-24(%rbp), %rcx
	movabsq	$.L.str.7, %rsi
	callq	u_v
	addl	-12(%rbp), %eax
	movl	%eax, -12(%rbp)
	movq	img, %rax
	cmpl	$0, 72492(%rax)
	je	.LBB33_24
# %bb.22:                               # %land.lhs.true
	cmpl	$0, -28(%rbp)
	jne	.LBB33_24
# %bb.23:                               # %if.then69
	movq	img, %rax
	movl	72432(%rax), %esi
	movq	-24(%rbp), %rdx
	movabsq	$.L.str.8, %rdi
	callq	se_v
	addl	-12(%rbp), %eax
	movl	%eax, -12(%rbp)
.LBB33_24:                              # %if.end72
	jmp	.LBB33_25
.LBB33_25:                              # %if.end73
	movq	img, %rax
	cmpl	$1, 72404(%rax)
	jne	.LBB33_31
# %bb.26:                               # %land.lhs.true76
	movq	img, %rax
	cmpl	$0, 72408(%rax)
	jne	.LBB33_31
# %bb.27:                               # %if.then78
	movq	img, %rax
	movl	72436(%rax), %esi
	movq	-24(%rbp), %rdx
	movabsq	$.L.str.9, %rdi
	callq	se_v
	addl	-12(%rbp), %eax
	movl	%eax, -12(%rbp)
	movq	img, %rax
	cmpl	$0, 72492(%rax)
	je	.LBB33_30
# %bb.28:                               # %land.lhs.true84
	cmpl	$0, -28(%rbp)
	jne	.LBB33_30
# %bb.29:                               # %if.then86
	movq	img, %rax
	movl	72440(%rax), %esi
	movq	-24(%rbp), %rdx
	movabsq	$.L.str.10, %rdi
	callq	se_v
	addl	-12(%rbp), %eax
	movl	%eax, -12(%rbp)
.LBB33_30:                              # %if.end91
	jmp	.LBB33_31
.LBB33_31:                              # %if.end92
	movq	input, %rax
	cmpl	$0, 3204(%rax)
	je	.LBB33_33
# %bb.32:                               # %if.then94
	movq	img, %rax
	movl	72396(%rax), %esi
	movq	-24(%rbp), %rdx
	movabsq	$.L.str.11, %rdi
	callq	ue_v
	addl	-12(%rbp), %eax
	movl	%eax, -12(%rbp)
.LBB33_33:                              # %if.end97
	movq	img, %rax
	cmpl	$1, 24(%rax)
	jne	.LBB33_35
# %bb.34:                               # %if.then99
	movq	img, %rax
	movl	71996(%rax), %esi
	movq	-24(%rbp), %rdx
	movabsq	$.L.str.12, %rdi
	callq	u_1
	addl	-12(%rbp), %eax
	movl	%eax, -12(%rbp)
.LBB33_35:                              # %if.end102
	movq	img, %rax
	cmpl	$0, 24(%rax)
	je	.LBB33_38
# %bb.36:                               # %lor.lhs.false105
	movq	img, %rax
	cmpl	$1, 24(%rax)
	je	.LBB33_38
# %bb.37:                               # %lor.lhs.false108
	movq	img, %rax
	cmpl	$3, 24(%rax)
	jne	.LBB33_49
.LBB33_38:                              # %if.then111
	movq	img, %rax
	cmpl	$0, 24(%rax)
	je	.LBB33_40
# %bb.39:                               # %lor.lhs.false114
	movq	img, %rax
	cmpl	$3, 24(%rax)
	jne	.LBB33_41
.LBB33_40:                              # %if.then117
	xorl	%eax, %eax
	movq	img, %rcx
	movl	72000(%rcx), %ecx
	movq	active_pps, %rdx
	movl	184(%rdx), %edx
	addl	$1, %edx
	cmpl	%edx, %ecx
	movl	$1, %ecx
	cmovnel	%ecx, %eax
	movl	%eax, -32(%rbp)
	jmp	.LBB33_44
.LBB33_41:                              # %if.else121
	movq	img, %rax
	movl	72000(%rax), %eax
	movq	active_pps, %rcx
	movl	184(%rcx), %ecx
	addl	$1, %ecx
	cmpl	%ecx, %eax
	movb	$1, %al
	jne	.LBB33_43
# %bb.42:                               # %lor.rhs126
	movq	img, %rax
	movl	72004(%rax), %eax
	movq	active_pps, %rcx
	movl	188(%rcx), %ecx
	addl	$1, %ecx
	cmpl	%ecx, %eax
	setne	%al
.LBB33_43:                              # %lor.end129
	xorl	%ecx, %ecx
	testb	$1, %al
	movl	$1, %eax
	cmovnel	%eax, %ecx
	movl	%ecx, -32(%rbp)
.LBB33_44:                              # %if.end131
	movl	-32(%rbp), %esi
	movq	-24(%rbp), %rdx
	movabsq	$.L.str.13, %rdi
	callq	u_1
	addl	-12(%rbp), %eax
	movl	%eax, -12(%rbp)
	cmpl	$0, -32(%rbp)
	je	.LBB33_48
# %bb.45:                               # %if.then135
	movq	img, %rax
	movl	72000(%rax), %esi
	subl	$1, %esi
	movq	-24(%rbp), %rdx
	movabsq	$.L.str.14, %rdi
	callq	ue_v
	addl	-12(%rbp), %eax
	movl	%eax, -12(%rbp)
	movq	img, %rax
	cmpl	$1, 24(%rax)
	jne	.LBB33_47
# %bb.46:                               # %if.then141
	movq	img, %rax
	movl	72004(%rax), %esi
	subl	$1, %esi
	movq	-24(%rbp), %rdx
	movabsq	$.L.str.15, %rdi
	callq	ue_v
	addl	-12(%rbp), %eax
	movl	%eax, -12(%rbp)
.LBB33_47:                              # %if.end146
	jmp	.LBB33_48
.LBB33_48:                              # %if.end147
	jmp	.LBB33_49
.LBB33_49:                              # %if.end148
	callq	ref_pic_list_reordering
	addl	-12(%rbp), %eax
	movl	%eax, -12(%rbp)
	movq	img, %rax
	cmpl	$0, 24(%rax)
	je	.LBB33_51
# %bb.50:                               # %lor.lhs.false153
	movq	img, %rax
	cmpl	$3, 24(%rax)
	jne	.LBB33_52
.LBB33_51:                              # %land.lhs.true156
	movq	active_pps, %rax
	cmpl	$0, 192(%rax)
	jne	.LBB33_54
.LBB33_52:                              # %lor.lhs.false158
	movq	img, %rax
	cmpl	$1, 24(%rax)
	jne	.LBB33_55
# %bb.53:                               # %land.lhs.true161
	movq	active_pps, %rax
	cmpl	$1, 196(%rax)
	jne	.LBB33_55
.LBB33_54:                              # %if.then163
	callq	pred_weight_table
	addl	-12(%rbp), %eax
	movl	%eax, -12(%rbp)
.LBB33_55:                              # %if.end166
	movq	img, %rax
	cmpl	$0, 72496(%rax)
	je	.LBB33_57
# %bb.56:                               # %if.then168
	callq	dec_ref_pic_marking
	addl	-12(%rbp), %eax
	movl	%eax, -12(%rbp)
.LBB33_57:                              # %if.end171
	movq	input, %rax
	cmpl	$1, 2356(%rax)
	jne	.LBB33_60
# %bb.58:                               # %land.lhs.true173
	movq	img, %rax
	cmpl	$2, 24(%rax)
	je	.LBB33_60
# %bb.59:                               # %if.then176
	movq	img, %rax
	movl	72520(%rax), %esi
	movq	-24(%rbp), %rdx
	movabsq	$.L.str.16, %rdi
	callq	ue_v
	addl	-12(%rbp), %eax
	movl	%eax, -12(%rbp)
.LBB33_60:                              # %if.end179
	movq	-72(%rbp), %rax
	movl	4(%rax), %esi
	subl	$26, %esi
	movq	active_pps, %rax
	subl	200(%rax), %esi
	movq	-24(%rbp), %rdx
	movabsq	$.L.str.17, %rdi
	callq	se_v
	addl	-12(%rbp), %eax
	movl	%eax, -12(%rbp)
	movq	img, %rax
	cmpl	$3, 24(%rax)
	jne	.LBB33_64
# %bb.61:                               # %if.then186
	movq	img, %rax
	cmpl	$3, 24(%rax)
	jne	.LBB33_63
# %bb.62:                               # %if.then189
	movq	-24(%rbp), %rdx
	movabsq	$.L.str.18, %rdi
	xorl	%esi, %esi
	callq	u_1
	addl	-12(%rbp), %eax
	movl	%eax, -12(%rbp)
.LBB33_63:                              # %if.end192
	movq	img, %rax
	movl	44(%rax), %esi
	subl	$26, %esi
	movq	-24(%rbp), %rdx
	movabsq	$.L.str.19, %rdi
	callq	se_v
	addl	-12(%rbp), %eax
	movl	%eax, -12(%rbp)
.LBB33_64:                              # %if.end196
	movq	active_pps, %rax
	cmpl	$0, 220(%rax)
	je	.LBB33_68
# %bb.65:                               # %if.then198
	movq	img, %rax
	movl	71984(%rax), %esi
	movq	-24(%rbp), %rdx
	movabsq	$.L.str.20, %rdi
	callq	ue_v
	addl	-12(%rbp), %eax
	movl	%eax, -12(%rbp)
	movq	img, %rax
	cmpl	$1, 71984(%rax)
	je	.LBB33_67
# %bb.66:                               # %if.then203
	movq	img, %rax
	movl	71988(%rax), %eax
	cltd
	movl	$2, %ecx
	idivl	%ecx
	movq	-24(%rbp), %rdx
	movabsq	$.L.str.21, %rdi
	movl	%eax, %esi
	callq	se_v
	addl	-12(%rbp), %eax
	movl	%eax, -12(%rbp)
	movq	img, %rax
	movl	71992(%rax), %eax
	cltd
	movl	$2, %ecx
	idivl	%ecx
	movq	-24(%rbp), %rdx
	movabsq	$.L.str.22, %rdi
	movl	%eax, %esi
	callq	se_v
	addl	-12(%rbp), %eax
	movl	%eax, -12(%rbp)
.LBB33_67:                              # %if.end209
	jmp	.LBB33_68
.LBB33_68:                              # %if.end210
	movq	active_pps, %rax
	cmpl	$0, 60(%rax)
	jbe	.LBB33_72
# %bb.69:                               # %land.lhs.true212
	movq	active_pps, %rax
	cmpl	$3, 64(%rax)
	jb	.LBB33_72
# %bb.70:                               # %land.lhs.true214
	movq	active_pps, %rax
	cmpl	$5, 64(%rax)
	ja	.LBB33_72
# %bb.71:                               # %if.then217
	vmovss	.LCPI33_1(%rip), %xmm0  # xmm0 = mem[0],zero,zero,zero
	movq	img(%rip), %rax
	movl	72468(%rax), %ecx
	movl	72472(%rax), %eax
	imull	%ecx, %eax
	vcvtsi2ss	%rax, %xmm0, %xmm1
	movq	active_pps(%rip), %rax
	movl	168(%rax), %eax
	addl	$1, %eax
	vcvtsi2ss	%rax, %xmm0, %xmm2
	vdivss	%xmm2, %xmm1, %xmm1
	vaddss	%xmm0, %xmm1, %xmm0
	vmovss	%xmm0, -48(%rbp)
	vmovss	-48(%rbp), %xmm0        # xmm0 = mem[0],zero,zero,zero
	vcvtss2sd	%xmm0, %xmm0, %xmm0
	callq	log
	vmovsd	%xmm0, -64(%rbp)        # 8-byte Spill
	vmovsd	.LCPI33_0(%rip), %xmm0  # xmm0 = mem[0],zero
	callq	log
	vmovsd	-64(%rbp), %xmm1        # 8-byte Reload
                                        # xmm1 = mem[0],zero
	vdivsd	%xmm0, %xmm1, %xmm0
	vroundsd	$10, %xmm0, %xmm0, %xmm0
	vcvttsd2si	%xmm0, %eax
	movl	%eax, -44(%rbp)
	movl	-44(%rbp), %edi
	movq	img, %rax
	movl	72652(%rax), %edx
	movq	-24(%rbp), %rcx
	movabsq	$.L.str.23, %rsi
	callq	u_v
	addl	-12(%rbp), %eax
	movl	%eax, -12(%rbp)
.LBB33_72:                              # %if.end229
	movq	input, %rax
	cmpl	$0, 2364(%rax)
	je	.LBB33_75
# %bb.73:                               # %land.lhs.true232
	movq	img, %rax
	movq	14152(%rax), %rax
	cmpl	$0, 4(%rax)
	jne	.LBB33_75
# %bb.74:                               # %if.then236
	movq	img, %rax
	movl	20(%rax), %esi
	movq	-24(%rbp), %rdx
	movabsq	$.L.str.24, %rdi
	callq	ue_v
	addl	-12(%rbp), %eax
	movl	%eax, -12(%rbp)
.LBB33_75:                              # %if.end239
	movl	-12(%rbp), %ebx
	cmpl	$565306069, -52(%rbp)   # imm = 0x21B1E2D5
	jne	.LBB33_77
.LBB33_76:
	movl	%ebx, %eax
	addq	$72, %rsp
	popq	%rbx
	popq	%rbp
	.cfi_def_cfa %rsp, 8
	retq
.LBB33_77:                              # %func_exit
	.cfi_def_cfa %rbp, 16
	callq	detect_breach
	jmp	.LBB33_76
.Lfunc_end33:
	.size	SliceHeader.28, .Lfunc_end33-SliceHeader.28
	.cfi_endproc
                                        # -- End function
	.section	.rodata.cst8,"aM",@progbits,8
	.p2align	3               # -- Begin function SliceHeader.29
.LCPI34_0:
	.quad	4611686018427387904     # double 2
	.section	.rodata.cst4,"aM",@progbits,4
	.p2align	2
.LCPI34_1:
	.long	1065353216              # float 1
	.text
	.globl	SliceHeader.29
	.p2align	4, 0x90
	.type	SliceHeader.29,@function
SliceHeader.29:                         # @SliceHeader.29
	.cfi_startproc
# %bb.0:                                # %entry
	pushq	%rbp
	.cfi_def_cfa_offset 16
	.cfi_offset %rbp, -16
	movq	%rsp, %rbp
	.cfi_def_cfa_register %rbp
	pushq	%rbx
	subq	$72, %rsp
	.cfi_offset %rbx, -24
	movl	$545635508, -44(%rbp)   # imm = 0x2085BCB4
	movq	input, %rax
	movslq	2364(%rax), %rax
	movq	assignSE2partition(,%rax,8), %rax
	movl	(%rax), %eax
	movl	%eax, -40(%rbp)
	movq	img, %rax
	movq	14160(%rax), %rax
	movq	24(%rax), %rax
	movslq	-40(%rbp), %rcx
	imulq	$120, %rcx, %rcx
	addq	%rcx, %rax
	movq	%rax, -24(%rbp)
	movq	img, %rax
	movq	14160(%rax), %rax
	movq	%rax, -72(%rbp)
	movl	$0, -12(%rbp)
	movl	$0, -28(%rbp)
	movl	$0, -36(%rbp)
	movq	img, %rax
	cmpl	$0, 72400(%rax)
	je	.LBB34_2
# %bb.1:                                # %if.then
	movq	img, %rax
	movl	12(%rax), %esi
	sarl	$1, %esi
	movq	-24(%rbp), %rdx
	movabsq	$.L.str, %rdi
	callq	ue_v
	movl	%eax, -12(%rbp)
	jmp	.LBB34_3
.LBB34_2:                               # %if.else
	movq	img, %rax
	movl	12(%rax), %esi
	movq	-24(%rbp), %rdx
	movabsq	$.L.str, %rdi
	callq	ue_v
	movl	%eax, -12(%rbp)
.LBB34_3:                               # %if.end
	callq	get_picture_type
	movq	-24(%rbp), %rdx
	movabsq	$.L.str.1, %rdi
	movl	%eax, %esi
	callq	ue_v
	addl	-12(%rbp), %eax
	movl	%eax, -12(%rbp)
	movq	active_pps, %rax
	movl	4(%rax), %esi
	movq	-24(%rbp), %rdx
	movabsq	$.L.str.2, %rdi
	callq	ue_v
	addl	-12(%rbp), %eax
	movl	%eax, -12(%rbp)
	movl	log2_max_frame_num_minus4, %edi
	addl	$4, %edi
	movq	img, %rax
	movl	72464(%rax), %edx
	movq	-24(%rbp), %rcx
	movabsq	$.L.str.3, %rsi
	callq	u_v
	addl	-12(%rbp), %eax
	movl	%eax, -12(%rbp)
	movq	active_sps, %rax
	cmpl	$0, 1148(%rax)
	jne	.LBB34_9
# %bb.4:                                # %if.then15
	movq	img, %rax
	cmpl	$1, 28(%rax)
	movb	$1, %al
	je	.LBB34_6
# %bb.5:                                # %lor.rhs
	movq	img, %rax
	cmpl	$2, 28(%rax)
	sete	%al
.LBB34_6:                               # %lor.end
	xorl	%ecx, %ecx
	testb	$1, %al
	movl	$1, %eax
	cmovnel	%eax, %ecx
	movl	%ecx, -28(%rbp)
	movl	-28(%rbp), %esi
	movq	-24(%rbp), %rdx
	movabsq	$.L.str.4, %rdi
	callq	u_1
	addl	-12(%rbp), %eax
	movl	%eax, -12(%rbp)
	cmpl	$0, -28(%rbp)
	je	.LBB34_8
# %bb.7:                                # %if.then21
	xorl	%eax, %eax
	movq	img, %rcx
	movl	28(%rcx), %ecx
	cmpl	$2, %ecx
	movl	$1, %ecx
	cmovel	%ecx, %eax
	movl	%eax, -36(%rbp)
	movl	-36(%rbp), %esi
	movq	-24(%rbp), %rdx
	movabsq	$.L.str.5, %rdi
	callq	u_1
	addl	-12(%rbp), %eax
	movl	%eax, -12(%rbp)
.LBB34_8:                               # %if.end27
	jmp	.LBB34_9
.LBB34_9:                               # %if.end28
	movq	img, %rax
	movq	14152(%rax), %rax
	cmpl	$0, 4(%rax)
	je	.LBB34_11
# %bb.10:                               # %if.then30
	movq	img, %rax
	movl	(%rax), %eax
	cltd
	movl	$2, %ecx
	idivl	%ecx
	movq	-24(%rbp), %rax
	movabsq	$.L.str.6, %rdi
	movl	%edx, %esi
	movq	%rax, %rdx
	callq	ue_v
	addl	-12(%rbp), %eax
	movl	%eax, -12(%rbp)
.LBB34_11:                              # %if.end33
	movq	img, %rax
	cmpl	$0, 72404(%rax)
	jne	.LBB34_25
# %bb.12:                               # %if.then35
	movq	active_sps, %rax
	cmpl	$0, 1148(%rax)
	je	.LBB34_14
# %bb.13:                               # %if.then38
	movq	img, %rax
	movl	72448(%rax), %eax
	movl	log2_max_pic_order_cnt_lsb_minus4, %ecx
	addl	$4, %ecx
                                        # kill: def $cl killed $ecx
	movl	$4294967295, %edx       # imm = 0xFFFFFFFF
	shll	%cl, %edx
	xorl	$-1, %edx
	andl	%edx, %eax
	movq	img, %rcx
	movl	%eax, 72428(%rcx)
	jmp	.LBB34_21
.LBB34_14:                              # %if.else40
	cmpl	$0, -28(%rbp)
	je	.LBB34_16
# %bb.15:                               # %lor.lhs.false
	movq	img, %rax
	cmpl	$1, 28(%rax)
	jne	.LBB34_17
.LBB34_16:                              # %if.then44
	movq	img, %rax
	movl	72448(%rax), %eax
	movl	log2_max_pic_order_cnt_lsb_minus4, %ecx
	addl	$4, %ecx
                                        # kill: def $cl killed $ecx
	movl	$4294967295, %edx       # imm = 0xFFFFFFFF
	shll	%cl, %edx
	xorl	$-1, %edx
	andl	%edx, %eax
	movq	img, %rcx
	movl	%eax, 72428(%rcx)
	jmp	.LBB34_20
.LBB34_17:                              # %if.else51
	movq	img, %rax
	cmpl	$2, 28(%rax)
	jne	.LBB34_19
# %bb.18:                               # %if.then54
	movq	img, %rax
	movl	72452(%rax), %eax
	movl	log2_max_pic_order_cnt_lsb_minus4, %ecx
	addl	$4, %ecx
                                        # kill: def $cl killed $ecx
	movl	$4294967295, %edx       # imm = 0xFFFFFFFF
	shll	%cl, %edx
	xorl	$-1, %edx
	andl	%edx, %eax
	movq	img, %rcx
	movl	%eax, 72428(%rcx)
.LBB34_19:                              # %if.end60
	jmp	.LBB34_20
.LBB34_20:                              # %if.end61
	jmp	.LBB34_21
.LBB34_21:                              # %if.end62
	movl	log2_max_pic_order_cnt_lsb_minus4, %edi
	addl	$4, %edi
	movq	img, %rax
	movl	72428(%rax), %edx
	movq	-24(%rbp), %rcx
	movabsq	$.L.str.7, %rsi
	callq	u_v
	addl	-12(%rbp), %eax
	movl	%eax, -12(%rbp)
	movq	img, %rax
	cmpl	$0, 72492(%rax)
	je	.LBB34_24
# %bb.22:                               # %land.lhs.true
	cmpl	$0, -28(%rbp)
	jne	.LBB34_24
# %bb.23:                               # %if.then69
	movq	img, %rax
	movl	72432(%rax), %esi
	movq	-24(%rbp), %rdx
	movabsq	$.L.str.8, %rdi
	callq	se_v
	addl	-12(%rbp), %eax
	movl	%eax, -12(%rbp)
.LBB34_24:                              # %if.end72
	jmp	.LBB34_25
.LBB34_25:                              # %if.end73
	movq	img, %rax
	cmpl	$1, 72404(%rax)
	jne	.LBB34_31
# %bb.26:                               # %land.lhs.true76
	movq	img, %rax
	cmpl	$0, 72408(%rax)
	jne	.LBB34_31
# %bb.27:                               # %if.then78
	movq	img, %rax
	movl	72436(%rax), %esi
	movq	-24(%rbp), %rdx
	movabsq	$.L.str.9, %rdi
	callq	se_v
	addl	-12(%rbp), %eax
	movl	%eax, -12(%rbp)
	movq	img, %rax
	cmpl	$0, 72492(%rax)
	je	.LBB34_30
# %bb.28:                               # %land.lhs.true84
	cmpl	$0, -28(%rbp)
	jne	.LBB34_30
# %bb.29:                               # %if.then86
	movq	img, %rax
	movl	72440(%rax), %esi
	movq	-24(%rbp), %rdx
	movabsq	$.L.str.10, %rdi
	callq	se_v
	addl	-12(%rbp), %eax
	movl	%eax, -12(%rbp)
.LBB34_30:                              # %if.end91
	jmp	.LBB34_31
.LBB34_31:                              # %if.end92
	movq	input, %rax
	cmpl	$0, 3204(%rax)
	je	.LBB34_33
# %bb.32:                               # %if.then94
	movq	img, %rax
	movl	72396(%rax), %esi
	movq	-24(%rbp), %rdx
	movabsq	$.L.str.11, %rdi
	callq	ue_v
	addl	-12(%rbp), %eax
	movl	%eax, -12(%rbp)
.LBB34_33:                              # %if.end97
	movq	img, %rax
	cmpl	$1, 24(%rax)
	jne	.LBB34_35
# %bb.34:                               # %if.then99
	movq	img, %rax
	movl	71996(%rax), %esi
	movq	-24(%rbp), %rdx
	movabsq	$.L.str.12, %rdi
	callq	u_1
	addl	-12(%rbp), %eax
	movl	%eax, -12(%rbp)
.LBB34_35:                              # %if.end102
	movq	img, %rax
	cmpl	$0, 24(%rax)
	je	.LBB34_38
# %bb.36:                               # %lor.lhs.false105
	movq	img, %rax
	cmpl	$1, 24(%rax)
	je	.LBB34_38
# %bb.37:                               # %lor.lhs.false108
	movq	img, %rax
	cmpl	$3, 24(%rax)
	jne	.LBB34_49
.LBB34_38:                              # %if.then111
	movq	img, %rax
	cmpl	$0, 24(%rax)
	je	.LBB34_40
# %bb.39:                               # %lor.lhs.false114
	movq	img, %rax
	cmpl	$3, 24(%rax)
	jne	.LBB34_41
.LBB34_40:                              # %if.then117
	xorl	%eax, %eax
	movq	img, %rcx
	movl	72000(%rcx), %ecx
	movq	active_pps, %rdx
	movl	184(%rdx), %edx
	addl	$1, %edx
	cmpl	%edx, %ecx
	movl	$1, %ecx
	cmovnel	%ecx, %eax
	movl	%eax, -32(%rbp)
	jmp	.LBB34_44
.LBB34_41:                              # %if.else121
	movq	img, %rax
	movl	72000(%rax), %eax
	movq	active_pps, %rcx
	movl	184(%rcx), %ecx
	addl	$1, %ecx
	cmpl	%ecx, %eax
	movb	$1, %al
	jne	.LBB34_43
# %bb.42:                               # %lor.rhs126
	movq	img, %rax
	movl	72004(%rax), %eax
	movq	active_pps, %rcx
	movl	188(%rcx), %ecx
	addl	$1, %ecx
	cmpl	%ecx, %eax
	setne	%al
.LBB34_43:                              # %lor.end129
	xorl	%ecx, %ecx
	testb	$1, %al
	movl	$1, %eax
	cmovnel	%eax, %ecx
	movl	%ecx, -32(%rbp)
.LBB34_44:                              # %if.end131
	movl	-32(%rbp), %esi
	movq	-24(%rbp), %rdx
	movabsq	$.L.str.13, %rdi
	callq	u_1
	addl	-12(%rbp), %eax
	movl	%eax, -12(%rbp)
	cmpl	$0, -32(%rbp)
	je	.LBB34_48
# %bb.45:                               # %if.then135
	movq	img, %rax
	movl	72000(%rax), %esi
	subl	$1, %esi
	movq	-24(%rbp), %rdx
	movabsq	$.L.str.14, %rdi
	callq	ue_v
	addl	-12(%rbp), %eax
	movl	%eax, -12(%rbp)
	movq	img, %rax
	cmpl	$1, 24(%rax)
	jne	.LBB34_47
# %bb.46:                               # %if.then141
	movq	img, %rax
	movl	72004(%rax), %esi
	subl	$1, %esi
	movq	-24(%rbp), %rdx
	movabsq	$.L.str.15, %rdi
	callq	ue_v
	addl	-12(%rbp), %eax
	movl	%eax, -12(%rbp)
.LBB34_47:                              # %if.end146
	jmp	.LBB34_48
.LBB34_48:                              # %if.end147
	jmp	.LBB34_49
.LBB34_49:                              # %if.end148
	callq	ref_pic_list_reordering
	addl	-12(%rbp), %eax
	movl	%eax, -12(%rbp)
	movq	img, %rax
	cmpl	$0, 24(%rax)
	je	.LBB34_51
# %bb.50:                               # %lor.lhs.false153
	movq	img, %rax
	cmpl	$3, 24(%rax)
	jne	.LBB34_52
.LBB34_51:                              # %land.lhs.true156
	movq	active_pps, %rax
	cmpl	$0, 192(%rax)
	jne	.LBB34_54
.LBB34_52:                              # %lor.lhs.false158
	movq	img, %rax
	cmpl	$1, 24(%rax)
	jne	.LBB34_55
# %bb.53:                               # %land.lhs.true161
	movq	active_pps, %rax
	cmpl	$1, 196(%rax)
	jne	.LBB34_55
.LBB34_54:                              # %if.then163
	callq	pred_weight_table
	addl	-12(%rbp), %eax
	movl	%eax, -12(%rbp)
.LBB34_55:                              # %if.end166
	movq	img, %rax
	cmpl	$0, 72496(%rax)
	je	.LBB34_57
# %bb.56:                               # %if.then168
	callq	dec_ref_pic_marking
	addl	-12(%rbp), %eax
	movl	%eax, -12(%rbp)
.LBB34_57:                              # %if.end171
	movq	input, %rax
	cmpl	$1, 2356(%rax)
	jne	.LBB34_60
# %bb.58:                               # %land.lhs.true173
	movq	img, %rax
	cmpl	$2, 24(%rax)
	je	.LBB34_60
# %bb.59:                               # %if.then176
	movq	img, %rax
	movl	72520(%rax), %esi
	movq	-24(%rbp), %rdx
	movabsq	$.L.str.16, %rdi
	callq	ue_v
	addl	-12(%rbp), %eax
	movl	%eax, -12(%rbp)
.LBB34_60:                              # %if.end179
	movq	-72(%rbp), %rax
	movl	4(%rax), %esi
	subl	$26, %esi
	movq	active_pps, %rax
	subl	200(%rax), %esi
	movq	-24(%rbp), %rdx
	movabsq	$.L.str.17, %rdi
	callq	se_v
	addl	-12(%rbp), %eax
	movl	%eax, -12(%rbp)
	movq	img, %rax
	cmpl	$3, 24(%rax)
	jne	.LBB34_64
# %bb.61:                               # %if.then186
	movq	img, %rax
	cmpl	$3, 24(%rax)
	jne	.LBB34_63
# %bb.62:                               # %if.then189
	movq	-24(%rbp), %rdx
	movabsq	$.L.str.18, %rdi
	xorl	%esi, %esi
	callq	u_1
	addl	-12(%rbp), %eax
	movl	%eax, -12(%rbp)
.LBB34_63:                              # %if.end192
	movq	img, %rax
	movl	44(%rax), %esi
	subl	$26, %esi
	movq	-24(%rbp), %rdx
