	.text
	.file	"image.c"
	.globl	MbAffPostProc           # -- Begin function MbAffPostProc
	.p2align	4, 0x90
	.type	MbAffPostProc,@function
MbAffPostProc:                          # @MbAffPostProc
	.cfi_startproc
# %bb.0:                                # %rand_bb
	pushq	%rbp
	.cfi_def_cfa_offset 16
	.cfi_offset %rbp, -16
	movq	%rsp, %rbp
	.cfi_def_cfa_register %rbp
	callq	get_rand
	cmpl	$0, %eax
	jne	.LBB0_5
# %bb.1:                                # %func_MbAffPostProc.87
	callq	MbAffPostProc.87
	popq	%rbp
	.cfi_def_cfa %rsp, 8
	retq
.LBB0_2:                                # %func_MbAffPostProc.90
	.cfi_def_cfa %rbp, 16
	callq	MbAffPostProc.90
	popq	%rbp
	.cfi_def_cfa %rsp, 8
	retq
.LBB0_3:                                # %func_MbAffPostProc.96
	.cfi_def_cfa %rbp, 16
	callq	MbAffPostProc.96
	popq	%rbp
	.cfi_def_cfa %rsp, 8
	retq
.LBB0_4:                                # %func_MbAffPostProc.97
	.cfi_def_cfa %rbp, 16
	callq	MbAffPostProc.97
	popq	%rbp
	.cfi_def_cfa %rsp, 8
	retq
.LBB0_5:                                # %ctrl0
	.cfi_def_cfa %rbp, 16
	cmpl	$1, %eax
	je	.LBB0_2
# %bb.6:                                # %ctrl1
	cmpl	$2, %eax
	je	.LBB0_3
	jmp	.LBB0_4
.Lfunc_end0:
	.size	MbAffPostProc, .Lfunc_end0-MbAffPostProc
	.cfi_endproc
                                        # -- End function
	.globl	code_a_picture          # -- Begin function code_a_picture
	.p2align	4, 0x90
	.type	code_a_picture,@function
code_a_picture:                         # @code_a_picture
	.cfi_startproc
# %bb.0:                                # %rand_bb
	pushq	%rbp
	.cfi_def_cfa_offset 16
	.cfi_offset %rbp, -16
	movq	%rsp, %rbp
	.cfi_def_cfa_register %rbp
	pushq	%rbx
	pushq	%rax
	.cfi_offset %rbx, -24
	movq	%rdi, %rbx
	callq	get_rand
	cmpl	$0, %eax
	jne	.LBB1_5
# %bb.1:                                # %func_code_a_picture.33
	movq	%rbx, %rdi
	callq	code_a_picture.33
	addq	$8, %rsp
	popq	%rbx
	popq	%rbp
	.cfi_def_cfa %rsp, 8
	retq
.LBB1_2:                                # %func_code_a_picture.95
	.cfi_def_cfa %rbp, 16
	movq	%rbx, %rdi
	callq	code_a_picture.95
	addq	$8, %rsp
	popq	%rbx
	popq	%rbp
	.cfi_def_cfa %rsp, 8
	retq
.LBB1_3:                                # %func_code_a_picture.103
	.cfi_def_cfa %rbp, 16
	movq	%rbx, %rdi
	callq	code_a_picture.103
	addq	$8, %rsp
	popq	%rbx
	popq	%rbp
	.cfi_def_cfa %rsp, 8
	retq
.LBB1_4:                                # %func_code_a_picture.104
	.cfi_def_cfa %rbp, 16
	movq	%rbx, %rdi
	callq	code_a_picture.104
	addq	$8, %rsp
	popq	%rbx
	popq	%rbp
	.cfi_def_cfa %rsp, 8
	retq
.LBB1_5:                                # %ctrl0
	.cfi_def_cfa %rbp, 16
	cmpl	$1, %eax
	je	.LBB1_2
# %bb.6:                                # %ctrl1
	cmpl	$2, %eax
	je	.LBB1_3
	jmp	.LBB1_4
.Lfunc_end1:
	.size	code_a_picture, .Lfunc_end1-code_a_picture
	.cfi_endproc
                                        # -- End function
	.globl	encode_one_frame        # -- Begin function encode_one_frame
	.p2align	4, 0x90
	.type	encode_one_frame,@function
encode_one_frame:                       # @encode_one_frame
	.cfi_startproc
# %bb.0:                                # %rand_bb
	pushq	%rbp
	.cfi_def_cfa_offset 16
	.cfi_offset %rbp, -16
	movq	%rsp, %rbp
	.cfi_def_cfa_register %rbp
	callq	get_rand
	cmpl	$0, %eax
	jne	.LBB2_5
# %bb.1:                                # %func_encode_one_frame.69
	callq	encode_one_frame.69
	popq	%rbp
	.cfi_def_cfa %rsp, 8
	retq
.LBB2_2:                                # %func_encode_one_frame.72
	.cfi_def_cfa %rbp, 16
	callq	encode_one_frame.72
	popq	%rbp
	.cfi_def_cfa %rsp, 8
	retq
.LBB2_3:                                # %func_encode_one_frame.93
	.cfi_def_cfa %rbp, 16
	callq	encode_one_frame.93
	popq	%rbp
	.cfi_def_cfa %rsp, 8
	retq
.LBB2_4:                                # %func_encode_one_frame.98
	.cfi_def_cfa %rbp, 16
	callq	encode_one_frame.98
	popq	%rbp
	.cfi_def_cfa %rsp, 8
	retq
.LBB2_5:                                # %ctrl0
	.cfi_def_cfa %rbp, 16
	cmpl	$1, %eax
	je	.LBB2_2
# %bb.6:                                # %ctrl1
	cmpl	$2, %eax
	je	.LBB2_3
	jmp	.LBB2_4
.Lfunc_end2:
	.size	encode_one_frame, .Lfunc_end2-encode_one_frame
	.cfi_endproc
                                        # -- End function
	.p2align	4, 0x90         # -- Begin function ReadOneFrame
	.type	ReadOneFrame,@function
ReadOneFrame:                           # @ReadOneFrame
	.cfi_startproc
# %bb.0:                                # %rand_bb
	pushq	%rbp
	.cfi_def_cfa_offset 16
	.cfi_offset %rbp, -16
	movq	%rsp, %rbp
	.cfi_def_cfa_register %rbp
	pushq	%r15
	pushq	%r14
	pushq	%r13
	pushq	%r12
	pushq	%rbx
	pushq	%rax
	.cfi_offset %rbx, -56
	.cfi_offset %r12, -48
	.cfi_offset %r13, -40
	.cfi_offset %r14, -32
	.cfi_offset %r15, -24
	movl	%r9d, -44(%rbp)         # 4-byte Spill
	movl	%r8d, %r12d
	movl	%ecx, %r13d
	movl	%edx, %ebx
	movl	%esi, %r14d
	movl	%edi, %r15d
	callq	get_rand
	cmpl	$0, %eax
	jne	.LBB3_5
# %bb.1:                                # %func_ReadOneFrame.24
	movl	%r15d, %edi
	movl	%r14d, %esi
	movl	%ebx, %edx
	movl	%r13d, %ecx
	movl	%r12d, %r8d
	movl	-44(%rbp), %r9d         # 4-byte Reload
	callq	ReadOneFrame.24
	addq	$8, %rsp
	popq	%rbx
	popq	%r12
	popq	%r13
	popq	%r14
	popq	%r15
	popq	%rbp
	.cfi_def_cfa %rsp, 8
	retq
.LBB3_2:                                # %func_ReadOneFrame.32
	.cfi_def_cfa %rbp, 16
	movl	%r15d, %edi
	movl	%r14d, %esi
	movl	%ebx, %edx
	movl	%r13d, %ecx
	movl	%r12d, %r8d
	callq	ReadOneFrame.32
	addq	$8, %rsp
	popq	%rbx
	popq	%r12
	popq	%r13
	popq	%r14
	popq	%r15
	popq	%rbp
	.cfi_def_cfa %rsp, 8
	retq
.LBB3_3:                                # %func_ReadOneFrame.37
	.cfi_def_cfa %rbp, 16
	callq	ReadOneFrame.37
	addq	$8, %rsp
	popq	%rbx
	popq	%r12
	popq	%r13
	popq	%r14
	popq	%r15
	popq	%rbp
	.cfi_def_cfa %rsp, 8
	retq
.LBB3_4:                                # %func_ReadOneFrame.52
	.cfi_def_cfa %rbp, 16
	callq	ReadOneFrame.52
	addq	$8, %rsp
	popq	%rbx
	popq	%r12
	popq	%r13
	popq	%r14
	popq	%r15
	popq	%rbp
	.cfi_def_cfa %rsp, 8
	retq
.LBB3_5:                                # %ctrl0
	.cfi_def_cfa %rbp, 16
	movl	-44(%rbp), %r9d         # 4-byte Reload
	cmpl	$1, %eax
	je	.LBB3_2
# %bb.6:                                # %ctrl1
	cmpl	$2, %eax
	movl	%r12d, %r8d
	movl	%r13d, %ecx
	movl	%ebx, %edx
	movl	%r14d, %esi
	movl	%r15d, %edi
	je	.LBB3_3
	jmp	.LBB3_4
.Lfunc_end3:
	.size	ReadOneFrame, .Lfunc_end3-ReadOneFrame
	.cfi_endproc
                                        # -- End function
	.p2align	4, 0x90         # -- Begin function PaddAutoCropBorders
	.type	PaddAutoCropBorders,@function
PaddAutoCropBorders:                    # @PaddAutoCropBorders
	.cfi_startproc
# %bb.0:                                # %rand_bb
	pushq	%rbp
	.cfi_def_cfa_offset 16
	.cfi_offset %rbp, -16
	movq	%rsp, %rbp
	.cfi_def_cfa_register %rbp
	pushq	%r15
	pushq	%r14
	pushq	%r13
	pushq	%r12
	pushq	%rbx
	subq	$24, %rsp
	.cfi_offset %rbx, -56
	.cfi_offset %r12, -48
	.cfi_offset %r13, -40
	.cfi_offset %r14, -32
	.cfi_offset %r15, -24
	movl	%r9d, -44(%rbp)         # 4-byte Spill
	movl	%r8d, %r12d
	movl	%ecx, %r13d
	movl	%edx, %ebx
	movl	%esi, %r14d
	movl	%edi, %r15d
	callq	get_rand
	cmpl	$0, %eax
	jne	.LBB4_5
# %bb.1:                                # %func_PaddAutoCropBorders.49
	movl	%r15d, %edi
	movl	%r14d, %esi
	movl	%ebx, %edx
	movl	%r13d, %ecx
	movl	%r12d, %r8d
	movl	-44(%rbp), %r9d         # 4-byte Reload
	movl	16(%rbp), %eax
	movl	%eax, (%rsp)
	movl	24(%rbp), %eax
	movl	%eax, 8(%rsp)
	callq	PaddAutoCropBorders.49
	addq	$24, %rsp
	popq	%rbx
	popq	%r12
	popq	%r13
	popq	%r14
	popq	%r15
	popq	%rbp
	.cfi_def_cfa %rsp, 8
	retq
.LBB4_2:                                # %func_PaddAutoCropBorders.50
	.cfi_def_cfa %rbp, 16
	movl	%r15d, %edi
	movl	%r14d, %esi
	movl	%ebx, %edx
	movl	%r13d, %ecx
	movl	%r12d, %r8d
	movl	%r11d, (%rsp)
	movl	%r10d, 8(%rsp)
	callq	PaddAutoCropBorders.50
	addq	$24, %rsp
	popq	%rbx
	popq	%r12
	popq	%r13
	popq	%r14
	popq	%r15
	popq	%rbp
	.cfi_def_cfa %rsp, 8
	retq
.LBB4_3:                                # %func_PaddAutoCropBorders.62
	.cfi_def_cfa %rbp, 16
	movl	%eax, (%rsp)
	movl	%r10d, 8(%rsp)
	callq	PaddAutoCropBorders.62
	addq	$24, %rsp
	popq	%rbx
	popq	%r12
	popq	%r13
	popq	%r14
	popq	%r15
	popq	%rbp
	.cfi_def_cfa %rsp, 8
	retq
.LBB4_4:                                # %func_PaddAutoCropBorders.78
	.cfi_def_cfa %rbp, 16
	movl	%eax, (%rsp)
	movl	%r10d, 8(%rsp)
	callq	PaddAutoCropBorders.78
	addq	$24, %rsp
	popq	%rbx
	popq	%r12
	popq	%r13
	popq	%r14
	popq	%r15
	popq	%rbp
	.cfi_def_cfa %rsp, 8
	retq
.LBB4_5:                                # %ctrl0
	.cfi_def_cfa %rbp, 16
	movl	16(%rbp), %r11d
	movl	-44(%rbp), %r9d         # 4-byte Reload
	movl	24(%rbp), %r10d
	cmpl	$1, %eax
	je	.LBB4_2
# %bb.6:                                # %ctrl1
	cmpl	$2, %eax
	movl	%r11d, %eax
	movl	%r12d, %r8d
	movl	%r13d, %ecx
	movl	%ebx, %edx
	movl	%r14d, %esi
	movl	%r15d, %edi
	je	.LBB4_3
	jmp	.LBB4_4
.Lfunc_end4:
	.size	PaddAutoCropBorders, .Lfunc_end4-PaddAutoCropBorders
	.cfi_endproc
                                        # -- End function
	.globl	field_picture           # -- Begin function field_picture
	.p2align	4, 0x90
	.type	field_picture,@function
field_picture:                          # @field_picture
	.cfi_startproc
# %bb.0:                                # %rand_bb
	pushq	%rbp
	.cfi_def_cfa_offset 16
	.cfi_offset %rbp, -16
	movq	%rsp, %rbp
	.cfi_def_cfa_register %rbp
	pushq	%r14
	pushq	%rbx
	.cfi_offset %rbx, -32
	.cfi_offset %r14, -24
	movq	%rsi, %r14
	movq	%rdi, %rbx
	callq	get_rand
	cmpl	$0, %eax
	jne	.LBB5_5
# %bb.1:                                # %func_field_picture.4
	movq	%rbx, %rdi
	movq	%r14, %rsi
	callq	field_picture.4
	popq	%rbx
	popq	%r14
	popq	%rbp
	.cfi_def_cfa %rsp, 8
	retq
.LBB5_2:                                # %func_field_picture.11
	.cfi_def_cfa %rbp, 16
	movq	%rbx, %rdi
	movq	%r14, %rsi
	callq	field_picture.11
	popq	%rbx
	popq	%r14
	popq	%rbp
	.cfi_def_cfa %rsp, 8
	retq
.LBB5_3:                                # %func_field_picture.21
	.cfi_def_cfa %rbp, 16
	movq	%rbx, %rdi
	movq	%r14, %rsi
	callq	field_picture.21
	popq	%rbx
	popq	%r14
	popq	%rbp
	.cfi_def_cfa %rsp, 8
	retq
.LBB5_4:                                # %func_field_picture.39
	.cfi_def_cfa %rbp, 16
	movq	%rbx, %rdi
	movq	%r14, %rsi
	callq	field_picture.39
	popq	%rbx
	popq	%r14
	popq	%rbp
	.cfi_def_cfa %rsp, 8
	retq
.LBB5_5:                                # %ctrl0
	.cfi_def_cfa %rbp, 16
	cmpl	$1, %eax
	je	.LBB5_2
# %bb.6:                                # %ctrl1
	cmpl	$2, %eax
	je	.LBB5_3
	jmp	.LBB5_4
.Lfunc_end5:
	.size	field_picture, .Lfunc_end5-field_picture
	.cfi_endproc
                                        # -- End function
	.globl	frame_picture           # -- Begin function frame_picture
	.p2align	4, 0x90
	.type	frame_picture,@function
frame_picture:                          # @frame_picture
	.cfi_startproc
# %bb.0:                                # %rand_bb
	pushq	%rbp
	.cfi_def_cfa_offset 16
	.cfi_offset %rbp, -16
	movq	%rsp, %rbp
	.cfi_def_cfa_register %rbp
	pushq	%r14
	pushq	%rbx
	.cfi_offset %rbx, -32
	.cfi_offset %r14, -24
	movl	%esi, %r14d
	movq	%rdi, %rbx
	callq	get_rand
	cmpl	$0, %eax
	jne	.LBB6_2
# %bb.1:                                # %func_frame_picture.3
	movq	%rbx, %rdi
	movl	%r14d, %esi
	callq	frame_picture.3
	popq	%rbx
	popq	%r14
	popq	%rbp
	.cfi_def_cfa %rsp, 8
	retq
.LBB6_2:                                # %func_frame_picture.14
	.cfi_def_cfa %rbp, 16
	movq	%rbx, %rdi
	movl	%r14d, %esi
	callq	frame_picture.14
	popq	%rbx
	popq	%r14
	popq	%rbp
	.cfi_def_cfa %rsp, 8
	retq
.Lfunc_end6:
	.size	frame_picture, .Lfunc_end6-frame_picture
	.cfi_endproc
                                        # -- End function
	.p2align	4, 0x90         # -- Begin function picture_structure_decision
	.type	picture_structure_decision,@function
picture_structure_decision:             # @picture_structure_decision
	.cfi_startproc
# %bb.0:                                # %rand_bb
	pushq	%rbp
	.cfi_def_cfa_offset 16
	.cfi_offset %rbp, -16
	movq	%rsp, %rbp
	.cfi_def_cfa_register %rbp
	pushq	%r15
	pushq	%r14
	pushq	%rbx
	pushq	%rax
	.cfi_offset %rbx, -40
	.cfi_offset %r14, -32
	.cfi_offset %r15, -24
	movq	%rdx, %r14
	movq	%rsi, %r15
	movq	%rdi, %rbx
	callq	get_rand
	cmpl	$0, %eax
	jne	.LBB7_5
# %bb.1:                                # %func_picture_structure_decision.63
	movq	%rbx, %rdi
	movq	%r15, %rsi
	movq	%r14, %rdx
	callq	picture_structure_decision.63
	addq	$8, %rsp
	popq	%rbx
	popq	%r14
	popq	%r15
	popq	%rbp
	.cfi_def_cfa %rsp, 8
	retq
.LBB7_2:                                # %func_picture_structure_decision.66
	.cfi_def_cfa %rbp, 16
	movq	%rbx, %rdi
	movq	%r15, %rsi
	movq	%r14, %rdx
	callq	picture_structure_decision.66
	addq	$8, %rsp
	popq	%rbx
	popq	%r14
	popq	%r15
	popq	%rbp
	.cfi_def_cfa %rsp, 8
	retq
.LBB7_3:                                # %func_picture_structure_decision.85
	.cfi_def_cfa %rbp, 16
	movq	%rbx, %rdi
	movq	%r15, %rsi
	movq	%r14, %rdx
	callq	picture_structure_decision.85
	addq	$8, %rsp
	popq	%rbx
	popq	%r14
	popq	%r15
	popq	%rbp
	.cfi_def_cfa %rsp, 8
	retq
.LBB7_4:                                # %func_picture_structure_decision.88
	.cfi_def_cfa %rbp, 16
	movq	%rbx, %rdi
	movq	%r15, %rsi
	movq	%r14, %rdx
	callq	picture_structure_decision.88
	addq	$8, %rsp
	popq	%rbx
	popq	%r14
	popq	%r15
	popq	%rbp
	.cfi_def_cfa %rsp, 8
	retq
.LBB7_5:                                # %ctrl0
	.cfi_def_cfa %rbp, 16
	cmpl	$1, %eax
	je	.LBB7_2
# %bb.6:                                # %ctrl1
	cmpl	$2, %eax
	je	.LBB7_3
	jmp	.LBB7_4
.Lfunc_end7:
	.size	picture_structure_decision, .Lfunc_end7-picture_structure_decision
	.cfi_endproc
                                        # -- End function
	.p2align	4, 0x90         # -- Begin function field_mode_buffer
	.type	field_mode_buffer,@function
field_mode_buffer:                      # @field_mode_buffer
	.cfi_startproc
# %bb.0:                                # %rand_bb
	pushq	%rbp
	.cfi_def_cfa_offset 16
	.cfi_offset %rbp, -16
	movq	%rsp, %rbp
	.cfi_def_cfa_register %rbp
	pushq	%rbx
	subq	$24, %rsp
	.cfi_offset %rbx, -24
	vmovss	%xmm2, -20(%rbp)        # 4-byte Spill
	vmovss	%xmm1, -16(%rbp)        # 4-byte Spill
	vmovss	%xmm0, -12(%rbp)        # 4-byte Spill
	movl	%edi, %ebx
	callq	get_rand
	cmpl	$0, %eax
	jne	.LBB8_5
# %bb.1:                                # %func_field_mode_buffer.53
	movl	%ebx, %edi
	vmovss	-12(%rbp), %xmm0        # 4-byte Reload
                                        # xmm0 = mem[0],zero,zero,zero
	vmovss	-16(%rbp), %xmm1        # 4-byte Reload
                                        # xmm1 = mem[0],zero,zero,zero
	vmovss	-20(%rbp), %xmm2        # 4-byte Reload
                                        # xmm2 = mem[0],zero,zero,zero
	callq	field_mode_buffer.53
	addq	$24, %rsp
	popq	%rbx
	popq	%rbp
	.cfi_def_cfa %rsp, 8
	retq
.LBB8_2:                                # %func_field_mode_buffer.74
	.cfi_def_cfa %rbp, 16
	movl	%ebx, %edi
	callq	field_mode_buffer.74
	addq	$24, %rsp
	popq	%rbx
	popq	%rbp
	.cfi_def_cfa %rsp, 8
	retq
.LBB8_3:                                # %func_field_mode_buffer.76
	.cfi_def_cfa %rbp, 16
	movl	%ebx, %edi
	callq	field_mode_buffer.76
	addq	$24, %rsp
	popq	%rbx
	popq	%rbp
	.cfi_def_cfa %rsp, 8
	retq
.LBB8_4:                                # %func_field_mode_buffer.80
	.cfi_def_cfa %rbp, 16
	movl	%ebx, %edi
	callq	field_mode_buffer.80
	addq	$24, %rsp
	popq	%rbx
	popq	%rbp
	.cfi_def_cfa %rsp, 8
	retq
.LBB8_5:                                # %ctrl0
	.cfi_def_cfa %rbp, 16
	vmovss	-12(%rbp), %xmm0        # 4-byte Reload
                                        # xmm0 = mem[0],zero,zero,zero
	vmovss	-16(%rbp), %xmm1        # 4-byte Reload
                                        # xmm1 = mem[0],zero,zero,zero
	vmovss	-20(%rbp), %xmm2        # 4-byte Reload
                                        # xmm2 = mem[0],zero,zero,zero
	cmpl	$1, %eax
	je	.LBB8_2
# %bb.6:                                # %ctrl1
	cmpl	$2, %eax
	je	.LBB8_3
	jmp	.LBB8_4
.Lfunc_end8:
	.size	field_mode_buffer, .Lfunc_end8-field_mode_buffer
	.cfi_endproc
                                        # -- End function
	.p2align	4, 0x90         # -- Begin function writeout_picture
	.type	writeout_picture,@function
writeout_picture:                       # @writeout_picture
	.cfi_startproc
# %bb.0:                                # %rand_bb
	pushq	%rbp
	.cfi_def_cfa_offset 16
	.cfi_offset %rbp, -16
	movq	%rsp, %rbp
	.cfi_def_cfa_register %rbp
	pushq	%rbx
	pushq	%rax
	.cfi_offset %rbx, -24
	movq	%rdi, %rbx
	callq	get_rand
	cmpl	$0, %eax
	jne	.LBB9_5
# %bb.1:                                # %func_writeout_picture.64
	movq	%rbx, %rdi
	callq	writeout_picture.64
	addq	$8, %rsp
	popq	%rbx
	popq	%rbp
	.cfi_def_cfa %rsp, 8
	retq
.LBB9_2:                                # %func_writeout_picture.75
	.cfi_def_cfa %rbp, 16
	movq	%rbx, %rdi
	callq	writeout_picture.75
	addq	$8, %rsp
	popq	%rbx
	popq	%rbp
	.cfi_def_cfa %rsp, 8
	retq
.LBB9_3:                                # %func_writeout_picture.77
	.cfi_def_cfa %rbp, 16
	movq	%rbx, %rdi
	callq	writeout_picture.77
	addq	$8, %rsp
	popq	%rbx
	popq	%rbp
	.cfi_def_cfa %rsp, 8
	retq
.LBB9_4:                                # %func_writeout_picture.81
	.cfi_def_cfa %rbp, 16
	movq	%rbx, %rdi
	callq	writeout_picture.81
	addq	$8, %rsp
	popq	%rbx
	popq	%rbp
	.cfi_def_cfa %rsp, 8
	retq
.LBB9_5:                                # %ctrl0
	.cfi_def_cfa %rbp, 16
	cmpl	$1, %eax
	je	.LBB9_2
# %bb.6:                                # %ctrl1
	cmpl	$2, %eax
	je	.LBB9_3
	jmp	.LBB9_4
.Lfunc_end9:
	.size	writeout_picture, .Lfunc_end9-writeout_picture
	.cfi_endproc
                                        # -- End function
	.p2align	4, 0x90         # -- Begin function frame_mode_buffer
	.type	frame_mode_buffer,@function
frame_mode_buffer:                      # @frame_mode_buffer
	.cfi_startproc
# %bb.0:                                # %rand_bb
	pushq	%rbp
	.cfi_def_cfa_offset 16
	.cfi_offset %rbp, -16
	movq	%rsp, %rbp
	.cfi_def_cfa_register %rbp
	pushq	%rbx
	subq	$24, %rsp
	.cfi_offset %rbx, -24
	vmovss	%xmm2, -20(%rbp)        # 4-byte Spill
	vmovss	%xmm1, -16(%rbp)        # 4-byte Spill
	vmovss	%xmm0, -12(%rbp)        # 4-byte Spill
	movl	%edi, %ebx
	callq	get_rand
	cmpl	$0, %eax
	jne	.LBB10_5
# %bb.1:                                # %func_frame_mode_buffer.6
	movl	%ebx, %edi
	vmovss	-12(%rbp), %xmm0        # 4-byte Reload
                                        # xmm0 = mem[0],zero,zero,zero
	vmovss	-16(%rbp), %xmm1        # 4-byte Reload
                                        # xmm1 = mem[0],zero,zero,zero
	vmovss	-20(%rbp), %xmm2        # 4-byte Reload
                                        # xmm2 = mem[0],zero,zero,zero
	callq	frame_mode_buffer.6
	addq	$24, %rsp
	popq	%rbx
	popq	%rbp
	.cfi_def_cfa %rsp, 8
	retq
.LBB10_2:                               # %func_frame_mode_buffer.56
	.cfi_def_cfa %rbp, 16
	movl	%ebx, %edi
	callq	frame_mode_buffer.56
	addq	$24, %rsp
	popq	%rbx
	popq	%rbp
	.cfi_def_cfa %rsp, 8
	retq
.LBB10_3:                               # %func_frame_mode_buffer.86
	.cfi_def_cfa %rbp, 16
	movl	%ebx, %edi
	callq	frame_mode_buffer.86
	addq	$24, %rsp
	popq	%rbx
	popq	%rbp
	.cfi_def_cfa %rsp, 8
	retq
.LBB10_4:                               # %func_frame_mode_buffer.99
	.cfi_def_cfa %rbp, 16
	movl	%ebx, %edi
	callq	frame_mode_buffer.99
	addq	$24, %rsp
	popq	%rbx
	popq	%rbp
	.cfi_def_cfa %rsp, 8
	retq
.LBB10_5:                               # %ctrl0
	.cfi_def_cfa %rbp, 16
	vmovss	-12(%rbp), %xmm0        # 4-byte Reload
                                        # xmm0 = mem[0],zero,zero,zero
	vmovss	-16(%rbp), %xmm1        # 4-byte Reload
                                        # xmm1 = mem[0],zero,zero,zero
	vmovss	-20(%rbp), %xmm2        # 4-byte Reload
                                        # xmm2 = mem[0],zero,zero,zero
	cmpl	$1, %eax
	je	.LBB10_2
# %bb.6:                                # %ctrl1
	cmpl	$2, %eax
	je	.LBB10_3
	jmp	.LBB10_4
.Lfunc_end10:
	.size	frame_mode_buffer, .Lfunc_end10-frame_mode_buffer
	.cfi_endproc
                                        # -- End function
	.p2align	4, 0x90         # -- Begin function ReportNALNonVLCBits
	.type	ReportNALNonVLCBits,@function
ReportNALNonVLCBits:                    # @ReportNALNonVLCBits
	.cfi_startproc
# %bb.0:                                # %rand_bb
	pushq	%rbp
	.cfi_def_cfa_offset 16
	.cfi_offset %rbp, -16
	movq	%rsp, %rbp
	.cfi_def_cfa_register %rbp
	pushq	%r14
	pushq	%rbx
	.cfi_offset %rbx, -32
	.cfi_offset %r14, -24
	movl	%esi, %r14d
	movl	%edi, %ebx
	callq	get_rand
	cmpl	$0, %eax
	jne	.LBB11_2
# %bb.1:                                # %func_ReportNALNonVLCBits.18
	movl	%ebx, %edi
	movl	%r14d, %esi
	callq	ReportNALNonVLCBits.18
	popq	%rbx
	popq	%r14
	popq	%rbp
	.cfi_def_cfa %rsp, 8
	retq
.LBB11_2:                               # %func_ReportNALNonVLCBits.30
	.cfi_def_cfa %rbp, 16
	movl	%ebx, %edi
	movl	%r14d, %esi
	callq	ReportNALNonVLCBits.30
	popq	%rbx
	popq	%r14
	popq	%rbp
	.cfi_def_cfa %rsp, 8
	retq
.Lfunc_end11:
	.size	ReportNALNonVLCBits, .Lfunc_end11-ReportNALNonVLCBits
	.cfi_endproc
                                        # -- End function
	.p2align	4, 0x90         # -- Begin function ReportFirstframe
	.type	ReportFirstframe,@function
ReportFirstframe:                       # @ReportFirstframe
	.cfi_startproc
# %bb.0:                                # %rand_bb
	pushq	%rbp
	.cfi_def_cfa_offset 16
	.cfi_offset %rbp, -16
	movq	%rsp, %rbp
	.cfi_def_cfa_register %rbp
	pushq	%r14
	pushq	%rbx
	.cfi_offset %rbx, -32
	.cfi_offset %r14, -24
	movl	%esi, %r14d
	movl	%edi, %ebx
	callq	get_rand
	cmpl	$0, %eax
	jne	.LBB12_5
# %bb.1:                                # %func_ReportFirstframe.45
	movl	%ebx, %edi
	movl	%r14d, %esi
	callq	ReportFirstframe.45
	popq	%rbx
	popq	%r14
	popq	%rbp
	.cfi_def_cfa %rsp, 8
	retq
.LBB12_2:                               # %func_ReportFirstframe.61
	.cfi_def_cfa %rbp, 16
	movl	%ebx, %edi
	movl	%r14d, %esi
	callq	ReportFirstframe.61
	popq	%rbx
	popq	%r14
	popq	%rbp
	.cfi_def_cfa %rsp, 8
	retq
.LBB12_3:                               # %func_ReportFirstframe.82
	.cfi_def_cfa %rbp, 16
	movl	%ebx, %edi
	movl	%r14d, %esi
	callq	ReportFirstframe.82
	popq	%rbx
	popq	%r14
	popq	%rbp
	.cfi_def_cfa %rsp, 8
	retq
.LBB12_4:                               # %func_ReportFirstframe.83
	.cfi_def_cfa %rbp, 16
	movl	%ebx, %edi
	movl	%r14d, %esi
	callq	ReportFirstframe.83
	popq	%rbx
	popq	%r14
	popq	%rbp
	.cfi_def_cfa %rsp, 8
	retq
.LBB12_5:                               # %ctrl0
	.cfi_def_cfa %rbp, 16
	cmpl	$1, %eax
	je	.LBB12_2
# %bb.6:                                # %ctrl1
	cmpl	$2, %eax
	je	.LBB12_3
	jmp	.LBB12_4
.Lfunc_end12:
	.size	ReportFirstframe, .Lfunc_end12-ReportFirstframe
	.cfi_endproc
                                        # -- End function
	.p2align	4, 0x90         # -- Begin function ReportIntra
	.type	ReportIntra,@function
ReportIntra:                            # @ReportIntra
	.cfi_startproc
# %bb.0:                                # %rand_bb
	pushq	%rbp
	.cfi_def_cfa_offset 16
	.cfi_offset %rbp, -16
	movq	%rsp, %rbp
	.cfi_def_cfa_register %rbp
	pushq	%r14
	pushq	%rbx
	.cfi_offset %rbx, -32
	.cfi_offset %r14, -24
	movl	%esi, %r14d
	movl	%edi, %ebx
	callq	get_rand
	cmpl	$0, %eax
	jne	.LBB13_2
# %bb.1:                                # %func_ReportIntra.8
	movl	%ebx, %edi
	movl	%r14d, %esi
	callq	ReportIntra.8
	popq	%rbx
	popq	%r14
	popq	%rbp
	.cfi_def_cfa %rsp, 8
	retq
.LBB13_2:                               # %func_ReportIntra.36
	.cfi_def_cfa %rbp, 16
	movl	%ebx, %edi
	movl	%r14d, %esi
	callq	ReportIntra.36
	popq	%rbx
	popq	%r14
	popq	%rbp
	.cfi_def_cfa %rsp, 8
	retq
.Lfunc_end13:
	.size	ReportIntra, .Lfunc_end13-ReportIntra
	.cfi_endproc
                                        # -- End function
	.p2align	4, 0x90         # -- Begin function ReportSP
	.type	ReportSP,@function
ReportSP:                               # @ReportSP
	.cfi_startproc
# %bb.0:                                # %rand_bb
	pushq	%rbp
	.cfi_def_cfa_offset 16
	.cfi_offset %rbp, -16
	movq	%rsp, %rbp
	.cfi_def_cfa_register %rbp
	pushq	%r14
	pushq	%rbx
	.cfi_offset %rbx, -32
	.cfi_offset %r14, -24
	movl	%esi, %r14d
	movl	%edi, %ebx
	callq	get_rand
	cmpl	$0, %eax
	jne	.LBB14_2
# %bb.1:                                # %func_ReportSP.20
	movl	%ebx, %edi
	movl	%r14d, %esi
	callq	ReportSP.20
	popq	%rbx
	popq	%r14
	popq	%rbp
	.cfi_def_cfa %rsp, 8
	retq
.LBB14_2:                               # %func_ReportSP.25
	.cfi_def_cfa %rbp, 16
	movl	%ebx, %edi
	movl	%r14d, %esi
	callq	ReportSP.25
	popq	%rbx
	popq	%r14
	popq	%rbp
	.cfi_def_cfa %rsp, 8
	retq
.Lfunc_end14:
	.size	ReportSP, .Lfunc_end14-ReportSP
	.cfi_endproc
                                        # -- End function
	.p2align	4, 0x90         # -- Begin function ReportRB
	.type	ReportRB,@function
ReportRB:                               # @ReportRB
	.cfi_startproc
# %bb.0:                                # %rand_bb
	pushq	%rbp
	.cfi_def_cfa_offset 16
	.cfi_offset %rbp, -16
	movq	%rsp, %rbp
	.cfi_def_cfa_register %rbp
	pushq	%r14
	pushq	%rbx
	.cfi_offset %rbx, -32
	.cfi_offset %r14, -24
	movl	%esi, %r14d
	movl	%edi, %ebx
	callq	get_rand
	cmpl	$0, %eax
	jne	.LBB15_2
# %bb.1:                                # %func_ReportRB.7
	movl	%ebx, %edi
	movl	%r14d, %esi
	callq	ReportRB.7
	popq	%rbx
	popq	%r14
	popq	%rbp
	.cfi_def_cfa %rsp, 8
	retq
.LBB15_2:                               # %func_ReportRB.71
	.cfi_def_cfa %rbp, 16
	movl	%ebx, %edi
	movl	%r14d, %esi
	callq	ReportRB.71
	popq	%rbx
	popq	%r14
	popq	%rbp
	.cfi_def_cfa %rsp, 8
	retq
.Lfunc_end15:
	.size	ReportRB, .Lfunc_end15-ReportRB
	.cfi_endproc
                                        # -- End function
	.p2align	4, 0x90         # -- Begin function ReportB
	.type	ReportB,@function
ReportB:                                # @ReportB
	.cfi_startproc
# %bb.0:                                # %rand_bb
	pushq	%rbp
	.cfi_def_cfa_offset 16
	.cfi_offset %rbp, -16
	movq	%rsp, %rbp
	.cfi_def_cfa_register %rbp
	pushq	%r14
	pushq	%rbx
	.cfi_offset %rbx, -32
	.cfi_offset %r14, -24
	movl	%esi, %r14d
	movl	%edi, %ebx
	callq	get_rand
	cmpl	$0, %eax
	jne	.LBB16_2
# %bb.1:                                # %func_ReportB.22
	movl	%ebx, %edi
	movl	%r14d, %esi
	callq	ReportB.22
	popq	%rbx
	popq	%r14
	popq	%rbp
	.cfi_def_cfa %rsp, 8
	retq
.LBB16_2:                               # %func_ReportB.42
	.cfi_def_cfa %rbp, 16
	movl	%ebx, %edi
	movl	%r14d, %esi
	callq	ReportB.42
	popq	%rbx
	popq	%r14
	popq	%rbp
	.cfi_def_cfa %rsp, 8
	retq
.Lfunc_end16:
	.size	ReportB, .Lfunc_end16-ReportB
	.cfi_endproc
                                        # -- End function
	.p2align	4, 0x90         # -- Begin function ReportP
	.type	ReportP,@function
ReportP:                                # @ReportP
	.cfi_startproc
# %bb.0:                                # %rand_bb
	pushq	%rbp
	.cfi_def_cfa_offset 16
	.cfi_offset %rbp, -16
	movq	%rsp, %rbp
	.cfi_def_cfa_register %rbp
	pushq	%r14
	pushq	%rbx
	.cfi_offset %rbx, -32
	.cfi_offset %r14, -24
	movl	%esi, %r14d
	movl	%edi, %ebx
	callq	get_rand
	cmpl	$0, %eax
	jne	.LBB17_2
# %bb.1:                                # %func_ReportP.26
	movl	%ebx, %edi
	movl	%r14d, %esi
	callq	ReportP.26
	popq	%rbx
	popq	%r14
	popq	%rbp
	.cfi_def_cfa %rsp, 8
	retq
.LBB17_2:                               # %func_ReportP.41
	.cfi_def_cfa %rbp, 16
	movl	%ebx, %edi
	movl	%r14d, %esi
	callq	ReportP.41
	popq	%rbx
	popq	%r14
	popq	%rbp
	.cfi_def_cfa %rsp, 8
	retq
.Lfunc_end17:
	.size	ReportP, .Lfunc_end17-ReportP
	.cfi_endproc
                                        # -- End function
	.globl	copy_params             # -- Begin function copy_params
	.p2align	4, 0x90
	.type	copy_params,@function
copy_params:                            # @copy_params
	.cfi_startproc
# %bb.0:                                # %entry
	pushq	%rbp
	.cfi_def_cfa_offset 16
	.cfi_offset %rbp, -16
	movq	%rsp, %rbp
	.cfi_def_cfa_register %rbp
	movq	active_sps, %rax
	movl	1148(%rax), %eax
	movq	enc_picture, %rcx
	movl	%eax, 6556(%rcx)
	movq	active_sps, %rax
	movl	1160(%rax), %eax
	movq	enc_picture, %rcx
	movl	%eax, 6560(%rcx)
	movq	active_sps, %rax
	movl	32(%rax), %eax
	movq	enc_picture, %rcx
	movl	%eax, 6552(%rcx)
	movq	active_sps, %rax
	cmpl	$0, 1160(%rax)
	je	.LBB18_2
# %bb.1:                                # %if.then
	movq	active_sps, %rax
	movl	1164(%rax), %eax
	movq	enc_picture, %rcx
	movl	%eax, 6564(%rcx)
	movq	active_sps, %rax
	movl	1168(%rax), %eax
	movq	enc_picture, %rcx
	movl	%eax, 6568(%rcx)
	movq	active_sps, %rax
	movl	1172(%rax), %eax
	movq	enc_picture, %rcx
	movl	%eax, 6572(%rcx)
	movq	active_sps, %rax
	movl	1176(%rax), %eax
	movq	enc_picture, %rcx
	movl	%eax, 6576(%rcx)
	jmp	.LBB18_3
.LBB18_2:                               # %if.else
	movq	enc_picture, %rax
	movl	$0, 6564(%rax)
	movq	enc_picture, %rax
	movl	$0, 6568(%rax)
	movq	enc_picture, %rax
	movl	$0, 6572(%rax)
	movq	enc_picture, %rax
	movl	$0, 6576(%rax)
.LBB18_3:                               # %if.end
	popq	%rbp
	.cfi_def_cfa %rsp, 8
	retq
.Lfunc_end18:
	.size	copy_params, .Lfunc_end18-copy_params
	.cfi_endproc
                                        # -- End function
	.p2align	4, 0x90         # -- Begin function distortion_fld
	.type	distortion_fld,@function
distortion_fld:                         # @distortion_fld
	.cfi_startproc
# %bb.0:                                # %rand_bb
	pushq	%rbp
	.cfi_def_cfa_offset 16
	.cfi_offset %rbp, -16
	movq	%rsp, %rbp
	.cfi_def_cfa_register %rbp
	pushq	%r15
	pushq	%r14
	pushq	%rbx
	pushq	%rax
	.cfi_offset %rbx, -40
	.cfi_offset %r14, -32
	.cfi_offset %r15, -24
	movq	%rdx, %r14
	movq	%rsi, %r15
	movq	%rdi, %rbx
	callq	get_rand
	cmpl	$0, %eax
	jne	.LBB19_5
# %bb.1:                                # %func_distortion_fld.15
	movq	%rbx, %rdi
	movq	%r15, %rsi
	movq	%r14, %rdx
	callq	distortion_fld.15
	addq	$8, %rsp
	popq	%rbx
	popq	%r14
	popq	%r15
	popq	%rbp
	.cfi_def_cfa %rsp, 8
	retq
.LBB19_2:                               # %func_distortion_fld.35
	.cfi_def_cfa %rbp, 16
	movq	%rbx, %rdi
	movq	%r15, %rsi
	movq	%r14, %rdx
	callq	distortion_fld.35
	addq	$8, %rsp
	popq	%rbx
	popq	%r14
	popq	%r15
	popq	%rbp
	.cfi_def_cfa %rsp, 8
	retq
.LBB19_3:                               # %func_distortion_fld.73
	.cfi_def_cfa %rbp, 16
	movq	%rbx, %rdi
	movq	%r15, %rsi
	movq	%r14, %rdx
	callq	distortion_fld.73
	addq	$8, %rsp
	popq	%rbx
	popq	%r14
	popq	%r15
	popq	%rbp
	.cfi_def_cfa %rsp, 8
	retq
.LBB19_4:                               # %func_distortion_fld.91
	.cfi_def_cfa %rbp, 16
	movq	%rbx, %rdi
	movq	%r15, %rsi
	movq	%r14, %rdx
	callq	distortion_fld.91
	addq	$8, %rsp
	popq	%rbx
	popq	%r14
	popq	%r15
	popq	%rbp
	.cfi_def_cfa %rsp, 8
	retq
.LBB19_5:                               # %ctrl0
	.cfi_def_cfa %rbp, 16
	cmpl	$1, %eax
	je	.LBB19_2
# %bb.6:                                # %ctrl1
	cmpl	$2, %eax
	je	.LBB19_3
	jmp	.LBB19_4
.Lfunc_end19:
	.size	distortion_fld, .Lfunc_end19-distortion_fld
	.cfi_endproc
                                        # -- End function
	.globl	UnifiedOneForthPix      # -- Begin function UnifiedOneForthPix
	.p2align	4, 0x90
	.type	UnifiedOneForthPix,@function
UnifiedOneForthPix:                     # @UnifiedOneForthPix
	.cfi_startproc
# %bb.0:                                # %rand_bb
	pushq	%rbp
	.cfi_def_cfa_offset 16
	.cfi_offset %rbp, -16
	movq	%rsp, %rbp
	.cfi_def_cfa_register %rbp
	pushq	%rbx
	pushq	%rax
	.cfi_offset %rbx, -24
	movq	%rdi, %rbx
	callq	get_rand
	cmpl	$0, %eax
	jne	.LBB20_5
# %bb.1:                                # %func_UnifiedOneForthPix.5
	movq	%rbx, %rdi
	callq	UnifiedOneForthPix.5
	addq	$8, %rsp
	popq	%rbx
	popq	%rbp
	.cfi_def_cfa %rsp, 8
	retq
.LBB20_2:                               # %func_UnifiedOneForthPix.28
	.cfi_def_cfa %rbp, 16
	movq	%rbx, %rdi
	callq	UnifiedOneForthPix.28
	addq	$8, %rsp
	popq	%rbx
	popq	%rbp
	.cfi_def_cfa %rsp, 8
	retq
.LBB20_3:                               # %func_UnifiedOneForthPix.38
	.cfi_def_cfa %rbp, 16
	movq	%rbx, %rdi
	callq	UnifiedOneForthPix.38
	addq	$8, %rsp
	popq	%rbx
	popq	%rbp
	.cfi_def_cfa %rsp, 8
	retq
.LBB20_4:                               # %func_UnifiedOneForthPix.44
	.cfi_def_cfa %rbp, 16
	movq	%rbx, %rdi
	callq	UnifiedOneForthPix.44
	addq	$8, %rsp
	popq	%rbx
	popq	%rbp
	.cfi_def_cfa %rsp, 8
	retq
.LBB20_5:                               # %ctrl0
	.cfi_def_cfa %rbp, 16
	cmpl	$1, %eax
	je	.LBB20_2
# %bb.6:                                # %ctrl1
	cmpl	$2, %eax
	je	.LBB20_3
	jmp	.LBB20_4
.Lfunc_end20:
	.size	UnifiedOneForthPix, .Lfunc_end20-UnifiedOneForthPix
	.cfi_endproc
                                        # -- End function
	.p2align	4, 0x90         # -- Begin function GenerateFullPelRepresentation
	.type	GenerateFullPelRepresentation,@function
GenerateFullPelRepresentation:          # @GenerateFullPelRepresentation
	.cfi_startproc
# %bb.0:                                # %rand_bb
	pushq	%rbp
	.cfi_def_cfa_offset 16
	.cfi_offset %rbp, -16
	movq	%rsp, %rbp
	.cfi_def_cfa_register %rbp
	pushq	%r15
	pushq	%r14
	pushq	%r12
	pushq	%rbx
	.cfi_offset %rbx, -48
	.cfi_offset %r12, -40
	.cfi_offset %r14, -32
	.cfi_offset %r15, -24
	movl	%ecx, %r14d
	movl	%edx, %r15d
	movq	%rsi, %r12
	movq	%rdi, %rbx
	callq	get_rand
	cmpl	$0, %eax
	jne	.LBB21_5
# %bb.1:                                # %func_GenerateFullPelRepresentation.2
	movq	%rbx, %rdi
	movq	%r12, %rsi
	movl	%r15d, %edx
	movl	%r14d, %ecx
	callq	GenerateFullPelRepresentation.2
	popq	%rbx
	popq	%r12
	popq	%r14
	popq	%r15
	popq	%rbp
	.cfi_def_cfa %rsp, 8
	retq
.LBB21_2:                               # %func_GenerateFullPelRepresentation.54
	.cfi_def_cfa %rbp, 16
	movq	%rbx, %rdi
	movq	%r12, %rsi
	movl	%r15d, %edx
	movl	%r14d, %ecx
	callq	GenerateFullPelRepresentation.54
	popq	%rbx
	popq	%r12
	popq	%r14
	popq	%r15
	popq	%rbp
	.cfi_def_cfa %rsp, 8
	retq
.LBB21_3:                               # %func_GenerateFullPelRepresentation.89
	.cfi_def_cfa %rbp, 16
	movq	%rbx, %rdi
	movq	%r12, %rsi
	movl	%r15d, %edx
	movl	%r14d, %ecx
	callq	GenerateFullPelRepresentation.89
	popq	%rbx
	popq	%r12
	popq	%r14
	popq	%r15
	popq	%rbp
	.cfi_def_cfa %rsp, 8
	retq
.LBB21_4:                               # %func_GenerateFullPelRepresentation.101
	.cfi_def_cfa %rbp, 16
	movq	%rbx, %rdi
	movq	%r12, %rsi
	movl	%r15d, %edx
	movl	%r14d, %ecx
	callq	GenerateFullPelRepresentation.101
	popq	%rbx
	popq	%r12
	popq	%r14
	popq	%r15
	popq	%rbp
	.cfi_def_cfa %rsp, 8
	retq
.LBB21_5:                               # %ctrl0
	.cfi_def_cfa %rbp, 16
	cmpl	$1, %eax
	je	.LBB21_2
# %bb.6:                                # %ctrl1
	cmpl	$2, %eax
	je	.LBB21_3
	jmp	.LBB21_4
.Lfunc_end21:
	.size	GenerateFullPelRepresentation, .Lfunc_end21-GenerateFullPelRepresentation
	.cfi_endproc
                                        # -- End function
	.globl	dummy_slice_too_big     # -- Begin function dummy_slice_too_big
	.p2align	4, 0x90
	.type	dummy_slice_too_big,@function
dummy_slice_too_big:                    # @dummy_slice_too_big
	.cfi_startproc
# %bb.0:                                # %entry
	pushq	%rbp
	.cfi_def_cfa_offset 16
	.cfi_offset %rbp, -16
	movq	%rsp, %rbp
	.cfi_def_cfa_register %rbp
	movl	%edi, -4(%rbp)
	xorl	%eax, %eax
	popq	%rbp
	.cfi_def_cfa %rsp, 8
	retq
.Lfunc_end22:
	.size	dummy_slice_too_big, .Lfunc_end22-dummy_slice_too_big
	.cfi_endproc
                                        # -- End function
	.globl	copy_rdopt_data         # -- Begin function copy_rdopt_data
	.p2align	4, 0x90
	.type	copy_rdopt_data,@function
copy_rdopt_data:                        # @copy_rdopt_data
	.cfi_startproc
# %bb.0:                                # %rand_bb
	pushq	%rbp
	.cfi_def_cfa_offset 16
	.cfi_offset %rbp, -16
	movq	%rsp, %rbp
	.cfi_def_cfa_register %rbp
	pushq	%rbx
	pushq	%rax
	.cfi_offset %rbx, -24
	movl	%edi, %ebx
	callq	get_rand
	cmpl	$0, %eax
	jne	.LBB23_5
# %bb.1:                                # %func_copy_rdopt_data.43
	movl	%ebx, %edi
	callq	copy_rdopt_data.43
	addq	$8, %rsp
	popq	%rbx
	popq	%rbp
	.cfi_def_cfa %rsp, 8
	retq
.LBB23_2:                               # %func_copy_rdopt_data.51
	.cfi_def_cfa %rbp, 16
	movl	%ebx, %edi
	callq	copy_rdopt_data.51
	addq	$8, %rsp
	popq	%rbx
	popq	%rbp
	.cfi_def_cfa %rsp, 8
	retq
.LBB23_3:                               # %func_copy_rdopt_data.60
	.cfi_def_cfa %rbp, 16
	movl	%ebx, %edi
	callq	copy_rdopt_data.60
	addq	$8, %rsp
	popq	%rbx
	popq	%rbp
	.cfi_def_cfa %rsp, 8
	retq
.LBB23_4:                               # %func_copy_rdopt_data.67
	.cfi_def_cfa %rbp, 16
	movl	%ebx, %edi
	callq	copy_rdopt_data.67
	addq	$8, %rsp
	popq	%rbx
	popq	%rbp
	.cfi_def_cfa %rsp, 8
	retq
.LBB23_5:                               # %ctrl0
	.cfi_def_cfa %rbp, 16
	cmpl	$1, %eax
	je	.LBB23_2
# %bb.6:                                # %ctrl1
	cmpl	$2, %eax
	je	.LBB23_3
	jmp	.LBB23_4
.Lfunc_end23:
	.size	copy_rdopt_data, .Lfunc_end23-copy_rdopt_data
	.cfi_endproc
                                        # -- End function
	.globl	buf2img                 # -- Begin function buf2img
	.p2align	4, 0x90
	.type	buf2img,@function
buf2img:                                # @buf2img
	.cfi_startproc
# %bb.0:                                # %rand_bb
	pushq	%rbp
	.cfi_def_cfa_offset 16
	.cfi_offset %rbp, -16
	movq	%rsp, %rbp
	.cfi_def_cfa_register %rbp
	pushq	%r15
	pushq	%r14
	pushq	%r13
	pushq	%r12
	pushq	%rbx
	pushq	%rax
	.cfi_offset %rbx, -56
	.cfi_offset %r12, -48
	.cfi_offset %r13, -40
	.cfi_offset %r14, -32
	.cfi_offset %r15, -24
	movl	%r8d, %r14d
	movl	%ecx, %r15d
	movl	%edx, %r12d
	movq	%rsi, %r13
	movq	%rdi, %rbx
	callq	get_rand
	cmpl	$0, %eax
	jne	.LBB24_5
# %bb.1:                                # %func_buf2img.10
	movq	%rbx, %rdi
	movq	%r13, %rsi
	movl	%r12d, %edx
	movl	%r15d, %ecx
	movl	%r14d, %r8d
	callq	buf2img.10
	addq	$8, %rsp
	popq	%rbx
	popq	%r12
	popq	%r13
	popq	%r14
	popq	%r15
	popq	%rbp
	.cfi_def_cfa %rsp, 8
	retq
.LBB24_2:                               # %func_buf2img.12
	.cfi_def_cfa %rbp, 16
	movq	%rbx, %rdi
	movq	%r13, %rsi
	movl	%r12d, %edx
	movl	%r15d, %ecx
	movl	%r14d, %r8d
	callq	buf2img.12
	addq	$8, %rsp
	popq	%rbx
	popq	%r12
	popq	%r13
	popq	%r14
	popq	%r15
	popq	%rbp
	.cfi_def_cfa %rsp, 8
	retq
.LBB24_3:                               # %func_buf2img.13
	.cfi_def_cfa %rbp, 16
	movq	%rbx, %rdi
	movq	%r13, %rsi
	movl	%r12d, %edx
	movl	%r15d, %ecx
	movl	%r14d, %r8d
	callq	buf2img.13
	addq	$8, %rsp
	popq	%rbx
	popq	%r12
	popq	%r13
	popq	%r14
	popq	%r15
	popq	%rbp
	.cfi_def_cfa %rsp, 8
	retq
.LBB24_4:                               # %func_buf2img.57
	.cfi_def_cfa %rbp, 16
	movq	%rbx, %rdi
	movq	%r13, %rsi
	movl	%r12d, %edx
	movl	%r15d, %ecx
	movl	%r14d, %r8d
	callq	buf2img.57
	addq	$8, %rsp
	popq	%rbx
	popq	%r12
	popq	%r13
	popq	%r14
	popq	%r15
	popq	%rbp
	.cfi_def_cfa %rsp, 8
	retq
.LBB24_5:                               # %ctrl0
	.cfi_def_cfa %rbp, 16
	cmpl	$1, %eax
	je	.LBB24_2
# %bb.6:                                # %ctrl1
	cmpl	$2, %eax
	je	.LBB24_3
	jmp	.LBB24_4
.Lfunc_end24:
	.size	buf2img, .Lfunc_end24-buf2img
	.cfi_endproc
                                        # -- End function
	.p2align	4, 0x90         # -- Begin function writeUnit
	.type	writeUnit,@function
writeUnit:                              # @writeUnit
	.cfi_startproc
# %bb.0:                                # %rand_bb
	pushq	%rbp
	.cfi_def_cfa_offset 16
	.cfi_offset %rbp, -16
	movq	%rsp, %rbp
	.cfi_def_cfa_register %rbp
	pushq	%r14
	pushq	%rbx
	.cfi_offset %rbx, -32
	.cfi_offset %r14, -24
	movl	%esi, %r14d
	movq	%rdi, %rbx
	callq	get_rand
	cmpl	$0, %eax
	jne	.LBB25_5
# %bb.1:                                # %func_writeUnit.58
	movq	%rbx, %rdi
	movl	%r14d, %esi
	callq	writeUnit.58
	popq	%rbx
	popq	%r14
	popq	%rbp
	.cfi_def_cfa %rsp, 8
	retq
.LBB25_2:                               # %func_writeUnit.102
	.cfi_def_cfa %rbp, 16
	movq	%rbx, %rdi
	movl	%r14d, %esi
	callq	writeUnit.102
	popq	%rbx
	popq	%r14
	popq	%rbp
	.cfi_def_cfa %rsp, 8
	retq
.LBB25_3:                               # %func_writeUnit.105
	.cfi_def_cfa %rbp, 16
	movq	%rbx, %rdi
	movl	%r14d, %esi
	callq	writeUnit.105
	popq	%rbx
	popq	%r14
	popq	%rbp
	.cfi_def_cfa %rsp, 8
	retq
.LBB25_4:                               # %func_writeUnit.106
	.cfi_def_cfa %rbp, 16
	movq	%rbx, %rdi
	movl	%r14d, %esi
	callq	writeUnit.106
	popq	%rbx
	popq	%r14
	popq	%rbp
	.cfi_def_cfa %rsp, 8
	retq
.LBB25_5:                               # %ctrl0
	.cfi_def_cfa %rbp, 16
	cmpl	$1, %eax
	je	.LBB25_2
# %bb.6:                                # %ctrl1
	cmpl	$2, %eax
	je	.LBB25_3
	jmp	.LBB25_4
.Lfunc_end25:
	.size	writeUnit, .Lfunc_end25-writeUnit
	.cfi_endproc
                                        # -- End function
	.p2align	4, 0x90         # -- Begin function init_frame
	.type	init_frame,@function
init_frame:                             # @init_frame
	.cfi_startproc
# %bb.0:                                # %rand_bb
	pushq	%rbp
	.cfi_def_cfa_offset 16
	.cfi_offset %rbp, -16
	movq	%rsp, %rbp
	.cfi_def_cfa_register %rbp
	callq	get_rand
	cmpl	$0, %eax
	jne	.LBB26_5
# %bb.1:                                # %func_init_frame.9
	callq	init_frame.9
	popq	%rbp
	.cfi_def_cfa %rsp, 8
	retq
.LBB26_2:                               # %func_init_frame.46
	.cfi_def_cfa %rbp, 16
	callq	init_frame.46
	popq	%rbp
	.cfi_def_cfa %rsp, 8
	retq
.LBB26_3:                               # %func_init_frame.59
	.cfi_def_cfa %rbp, 16
	callq	init_frame.59
	popq	%rbp
	.cfi_def_cfa %rsp, 8
	retq
.LBB26_4:                               # %func_init_frame.70
	.cfi_def_cfa %rbp, 16
	callq	init_frame.70
	popq	%rbp
	.cfi_def_cfa %rsp, 8
	retq
.LBB26_5:                               # %ctrl0
	.cfi_def_cfa %rbp, 16
	cmpl	$1, %eax
	je	.LBB26_2
# %bb.6:                                # %ctrl1
	cmpl	$2, %eax
	je	.LBB26_3
	jmp	.LBB26_4
.Lfunc_end26:
	.size	init_frame, .Lfunc_end26-init_frame
	.cfi_endproc
                                        # -- End function
	.p2align	4, 0x90         # -- Begin function init_dec_ref_pic_marking_buffer
	.type	init_dec_ref_pic_marking_buffer,@function
init_dec_ref_pic_marking_buffer:        # @init_dec_ref_pic_marking_buffer
	.cfi_startproc
# %bb.0:                                # %entry
	pushq	%rbp
	.cfi_def_cfa_offset 16
	.cfi_offset %rbp, -16
	movq	%rsp, %rbp
	.cfi_def_cfa_register %rbp
	movq	img, %rax
	movq	$0, 72512(%rax)
	popq	%rbp
	.cfi_def_cfa %rsp, 8
	retq
.Lfunc_end27:
	.size	init_dec_ref_pic_marking_buffer, .Lfunc_end27-init_dec_ref_pic_marking_buffer
	.cfi_endproc
                                        # -- End function
	.p2align	4, 0x90         # -- Begin function init_field
	.type	init_field,@function
init_field:                             # @init_field
	.cfi_startproc
# %bb.0:                                # %rand_bb
	pushq	%rbp
	.cfi_def_cfa_offset 16
	.cfi_offset %rbp, -16
	movq	%rsp, %rbp
	.cfi_def_cfa_register %rbp
	callq	get_rand
	cmpl	$0, %eax
	jne	.LBB28_5
# %bb.1:                                # %func_init_field.16
	callq	init_field.16
	popq	%rbp
	.cfi_def_cfa %rsp, 8
	retq
.LBB28_2:                               # %func_init_field.23
	.cfi_def_cfa %rbp, 16
	callq	init_field.23
	popq	%rbp
	.cfi_def_cfa %rsp, 8
	retq
.LBB28_3:                               # %func_init_field.31
	.cfi_def_cfa %rbp, 16
	callq	init_field.31
	popq	%rbp
	.cfi_def_cfa %rsp, 8
	retq
.LBB28_4:                               # %func_init_field.40
	.cfi_def_cfa %rbp, 16
	callq	init_field.40
	popq	%rbp
	.cfi_def_cfa %rsp, 8
	retq
.LBB28_5:                               # %ctrl0
	.cfi_def_cfa %rbp, 16
	cmpl	$1, %eax
	je	.LBB28_2
# %bb.6:                                # %ctrl1
	cmpl	$2, %eax
	je	.LBB28_3
	jmp	.LBB28_4
.Lfunc_end28:
	.size	init_field, .Lfunc_end28-init_field
	.cfi_endproc
                                        # -- End function
	.p2align	4, 0x90         # -- Begin function find_snr
	.type	find_snr,@function
find_snr:                               # @find_snr
	.cfi_startproc
# %bb.0:                                # %rand_bb
	pushq	%rbp
	.cfi_def_cfa_offset 16
	.cfi_offset %rbp, -16
	movq	%rsp, %rbp
	.cfi_def_cfa_register %rbp
	callq	get_rand
	cmpl	$0, %eax
	jne	.LBB29_5
# %bb.1:                                # %func_find_snr.17
	callq	find_snr.17
	popq	%rbp
	.cfi_def_cfa %rsp, 8
	retq
.LBB29_2:                               # %func_find_snr.65
	.cfi_def_cfa %rbp, 16
	callq	find_snr.65
	popq	%rbp
	.cfi_def_cfa %rsp, 8
	retq
.LBB29_3:                               # %func_find_snr.79
	.cfi_def_cfa %rbp, 16
	callq	find_snr.79
	popq	%rbp
	.cfi_def_cfa %rsp, 8
	retq
.LBB29_4:                               # %func_find_snr.84
	.cfi_def_cfa %rbp, 16
	callq	find_snr.84
	popq	%rbp
	.cfi_def_cfa %rsp, 8
	retq
.LBB29_5:                               # %ctrl0
	.cfi_def_cfa %rbp, 16
	cmpl	$1, %eax
	je	.LBB29_2
# %bb.6:                                # %ctrl1
	cmpl	$2, %eax
	je	.LBB29_3
	jmp	.LBB29_4
.Lfunc_end29:
	.size	find_snr, .Lfunc_end29-find_snr
	.cfi_endproc
                                        # -- End function
	.p2align	4, 0x90         # -- Begin function find_distortion
	.type	find_distortion,@function
find_distortion:                        # @find_distortion
	.cfi_startproc
# %bb.0:                                # %rand_bb
	pushq	%rbp
	.cfi_def_cfa_offset 16
	.cfi_offset %rbp, -16
	movq	%rsp, %rbp
	.cfi_def_cfa_register %rbp
	callq	get_rand
	cmpl	$0, %eax
	jne	.LBB30_5
# %bb.1:                                # %func_find_distortion.29
	callq	find_distortion.29
	popq	%rbp
	.cfi_def_cfa %rsp, 8
	retq
.LBB30_2:                               # %func_find_distortion.34
	.cfi_def_cfa %rbp, 16
	callq	find_distortion.34
	popq	%rbp
	.cfi_def_cfa %rsp, 8
	retq
.LBB30_3:                               # %func_find_distortion.68
	.cfi_def_cfa %rbp, 16
	callq	find_distortion.68
	popq	%rbp
	.cfi_def_cfa %rsp, 8
	retq
.LBB30_4:                               # %func_find_distortion.100
	.cfi_def_cfa %rbp, 16
	callq	find_distortion.100
	popq	%rbp
	.cfi_def_cfa %rsp, 8
	retq
.LBB30_5:                               # %ctrl0
	.cfi_def_cfa %rbp, 16
	cmpl	$1, %eax
	je	.LBB30_2
# %bb.6:                                # %ctrl1
	cmpl	$2, %eax
	je	.LBB30_3
	jmp	.LBB30_4
.Lfunc_end30:
	.size	find_distortion, .Lfunc_end30-find_distortion
	.cfi_endproc
                                        # -- End function
	.p2align	4, 0x90         # -- Begin function copy_motion_vectors_MB
	.type	copy_motion_vectors_MB,@function
copy_motion_vectors_MB:                 # @copy_motion_vectors_MB
	.cfi_startproc
# %bb.0:                                # %rand_bb
	pushq	%rbp
	.cfi_def_cfa_offset 16
	.cfi_offset %rbp, -16
	movq	%rsp, %rbp
	.cfi_def_cfa_register %rbp
	callq	get_rand
	cmpl	$0, %eax
	jne	.LBB31_5
# %bb.1:                                # %func_copy_motion_vectors_MB.47
	callq	copy_motion_vectors_MB.47
	popq	%rbp
	.cfi_def_cfa %rsp, 8
	retq
.LBB31_2:                               # %func_copy_motion_vectors_MB.48
	.cfi_def_cfa %rbp, 16
	callq	copy_motion_vectors_MB.48
	popq	%rbp
	.cfi_def_cfa %rsp, 8
	retq
.LBB31_3:                               # %func_copy_motion_vectors_MB.92
	.cfi_def_cfa %rbp, 16
	callq	copy_motion_vectors_MB.92
	popq	%rbp
	.cfi_def_cfa %rsp, 8
	retq
.LBB31_4:                               # %func_copy_motion_vectors_MB.94
	.cfi_def_cfa %rbp, 16
	callq	copy_motion_vectors_MB.94
	popq	%rbp
	.cfi_def_cfa %rsp, 8
	retq
.LBB31_5:                               # %ctrl0
	.cfi_def_cfa %rbp, 16
	cmpl	$1, %eax
	je	.LBB31_2
# %bb.6:                                # %ctrl1
	cmpl	$2, %eax
	je	.LBB31_3
	jmp	.LBB31_4
.Lfunc_end31:
	.size	copy_motion_vectors_MB, .Lfunc_end31-copy_motion_vectors_MB
	.cfi_endproc
                                        # -- End function
	.p2align	4, 0x90         # -- Begin function CalculateFrameNumber
	.type	CalculateFrameNumber,@function
CalculateFrameNumber:                   # @CalculateFrameNumber
	.cfi_startproc
# %bb.0:                                # %entry
	pushq	%rbp
	.cfi_def_cfa_offset 16
	.cfi_offset %rbp, -16
	movq	%rsp, %rbp
	.cfi_def_cfa_register %rbp
	movq	img, %rax
	cmpl	$0, 71908(%rax)
	je	.LBB32_5
# %bb.1:                                # %if.then
	movq	input, %rax
	cmpl	$0, 1320(%rax)
	je	.LBB32_3
# %bb.2:                                # %if.then2
	movl	start_tr_in_this_IGOP, %eax
	movq	img, %rcx
	movl	(%rcx), %ecx
	subl	start_frame_no_in_this_IGOP, %ecx
	subl	$1, %ecx
	movq	input, %rdx
	movl	20(%rdx), %edx
	addl	$1, %edx
	imull	%edx, %ecx
	addl	%ecx, %eax
	movq	img, %rcx
	vmovsd	71896(%rcx), %xmm0      # xmm0 = mem[0],zero
	movq	gop_structure, %rcx
	movq	img, %rdx
	movl	71908(%rdx), %edx
	subl	$1, %edx
	movslq	%edx, %rdx
	imulq	$24, %rdx, %rdx
	addq	%rdx, %rcx
	movl	4(%rcx), %ecx
	addl	$1, %ecx
	vcvtsi2sd	%ecx, %xmm0, %xmm1
	vmulsd	%xmm1, %xmm0, %xmm0
	vcvttsd2si	%xmm0, %ecx
	addl	%ecx, %eax
	movl	%eax, frame_no
	jmp	.LBB32_4
.LBB32_3:                               # %if.else
	movl	start_tr_in_this_IGOP, %eax
	movq	img, %rcx
	movl	(%rcx), %ecx
	subl	start_frame_no_in_this_IGOP, %ecx
	subl	$1, %ecx
	movq	input, %rdx
	movl	20(%rdx), %edx
	addl	$1, %edx
	imull	%edx, %ecx
	addl	%ecx, %eax
	movq	img, %rcx
	vmovsd	71896(%rcx), %xmm0      # xmm0 = mem[0],zero
	movq	img, %rcx
	vcvtsi2sdl	71908(%rcx), %xmm0, %xmm1
	vmulsd	%xmm1, %xmm0, %xmm0
	vcvttsd2si	%xmm0, %ecx
	addl	%ecx, %eax
	movl	%eax, frame_no
.LBB32_4:                               # %if.end
	jmp	.LBB32_9
.LBB32_5:                               # %if.else24
	movl	start_tr_in_this_IGOP, %eax
	movq	img, %rcx
	movl	(%rcx), %ecx
	subl	start_frame_no_in_this_IGOP, %ecx
	movq	input, %rdx
	movl	20(%rdx), %edx
	addl	$1, %edx
	imull	%edx, %ecx
	addl	%ecx, %eax
	movl	%eax, frame_no
	movq	input, %rax
	cmpl	$0, 2440(%rax)
	je	.LBB32_8
# %bb.6:                                # %land.lhs.true
	movq	img, %rax
	movl	(%rax), %eax
	addl	$1, %eax
	movq	input, %rcx
	cmpl	8(%rcx), %eax
	jne	.LBB32_8
# %bb.7:                                # %if.then35
	movq	input, %rax
	movl	2440(%rax), %eax
	movl	%eax, frame_no
.LBB32_8:                               # %if.end37
	jmp	.LBB32_9
.LBB32_9:                               # %if.end38
	movl	frame_no, %eax
	popq	%rbp
	.cfi_def_cfa %rsp, 8
	retq
.Lfunc_end32:
	.size	CalculateFrameNumber, .Lfunc_end32-CalculateFrameNumber
	.cfi_endproc
                                        # -- End function
	.p2align	4, 0x90         # -- Begin function put_buffer_frame
	.type	put_buffer_frame,@function
put_buffer_frame:                       # @put_buffer_frame
	.cfi_startproc
# %bb.0:                                # %entry
	pushq	%rbp
	.cfi_def_cfa_offset 16
	.cfi_offset %rbp, -16
	movq	%rsp, %rbp
	.cfi_def_cfa_register %rbp
	movq	imgY_org_frm, %rax
	movq	%rax, imgY_org
	movq	imgUV_org_frm, %rax
	movq	%rax, imgUV_org
	popq	%rbp
	.cfi_def_cfa %rsp, 8
	retq
.Lfunc_end33:
	.size	put_buffer_frame, .Lfunc_end33-put_buffer_frame
	.cfi_endproc
                                        # -- End function
	.p2align	4, 0x90         # -- Begin function put_buffer_top
	.type	put_buffer_top,@function
put_buffer_top:                         # @put_buffer_top
	.cfi_startproc
# %bb.0:                                # %entry
	pushq	%rbp
	.cfi_def_cfa_offset 16
	.cfi_offset %rbp, -16
	movq	%rsp, %rbp
	.cfi_def_cfa_register %rbp
	movq	img, %rax
	movl	$0, 71796(%rax)
	movq	imgY_org_top, %rax
	movq	%rax, imgY_org
	movq	imgUV_org_top, %rax
	movq	%rax, imgUV_org
	popq	%rbp
	.cfi_def_cfa %rsp, 8
	retq
.Lfunc_end34:
	.size	put_buffer_top, .Lfunc_end34-put_buffer_top
	.cfi_endproc
                                        # -- End function
	.p2align	4, 0x90         # -- Begin function put_buffer_bot
	.type	put_buffer_bot,@function
put_buffer_bot:                         # @put_buffer_bot
	.cfi_startproc
# %bb.0:                                # %entry
	pushq	%rbp
	.cfi_def_cfa_offset 16
	.cfi_offset %rbp, -16
	movq	%rsp, %rbp
	.cfi_def_cfa_register %rbp
	movq	img, %rax
	movl	$1, 71796(%rax)
	movq	imgY_org_bot, %rax
	movq	%rax, imgY_org
	movq	imgUV_org_bot, %rax
	movq	%rax, imgUV_org
	popq	%rbp
	.cfi_def_cfa %rsp, 8
	retq
.Lfunc_end35:
	.size	put_buffer_bot, .Lfunc_end35-put_buffer_bot
	.cfi_endproc
                                        # -- End function
	.p2align	4, 0x90         # -- Begin function rdPictureCoding
	.type	rdPictureCoding,@function
rdPictureCoding:                        # @rdPictureCoding
	.cfi_startproc
# %bb.0:                                # %rand_bb
	pushq	%rbp
	.cfi_def_cfa_offset 16
	.cfi_offset %rbp, -16
	movq	%rsp, %rbp
	.cfi_def_cfa_register %rbp
	callq	get_rand
	cmpl	$0, %eax
	jne	.LBB36_5
# %bb.1:                                # %func_rdPictureCoding.1
	callq	rdPictureCoding.1
	popq	%rbp
	.cfi_def_cfa %rsp, 8
	retq
.LBB36_2:                               # %func_rdPictureCoding.19
	.cfi_def_cfa %rbp, 16
	callq	rdPictureCoding.19
	popq	%rbp
	.cfi_def_cfa %rsp, 8
	retq
.LBB36_3:                               # %func_rdPictureCoding.27
	.cfi_def_cfa %rbp, 16
	callq	rdPictureCoding.27
	popq	%rbp
	.cfi_def_cfa %rsp, 8
	retq
.LBB36_4:                               # %func_rdPictureCoding.55
	.cfi_def_cfa %rbp, 16
	callq	rdPictureCoding.55
	popq	%rbp
	.cfi_def_cfa %rsp, 8
	retq
.LBB36_5:                               # %ctrl0
	.cfi_def_cfa %rbp, 16
	cmpl	$1, %eax
	je	.LBB36_2
# %bb.6:                                # %ctrl1
	cmpl	$2, %eax
	je	.LBB36_3
	jmp	.LBB36_4
.Lfunc_end36:
	.size	rdPictureCoding, .Lfunc_end36-rdPictureCoding
	.cfi_endproc
                                        # -- End function
	.p2align	4, 0x90         # -- Begin function rdPictureCoding.1
	.type	rdPictureCoding.1,@function
rdPictureCoding.1:                      # @rdPictureCoding.1
	.cfi_startproc
# %bb.0:                                # %entry
	pushq	%rbp
	.cfi_def_cfa_offset 16
	.cfi_offset %rbp, -16
	movq	%rsp, %rbp
	.cfi_def_cfa_register %rbp
	subq	$32, %rsp
	movl	$917362613, -24(%rbp)   # imm = 0x36ADD7B5
	movq	img, %rax
	movl	40(%rax), %eax
	movl	%eax, -20(%rbp)
	movq	img, %rax
	movl	40(%rax), %eax
	movl	%eax, -4(%rbp)
	movl	intras, %eax
	movl	%eax, -12(%rbp)
	movq	img, %rax
	movl	24(%rax), %eax
	movl	%eax, -16(%rbp)
	movl	$0, -8(%rbp)
	movq	img, %rax
	cmpl	$2, 24(%rax)
	je	.LBB37_9
# %bb.1:                                # %land.lhs.true
	movq	input, %rax
	cmpl	$0, 60(%rax)
	je	.LBB37_9
# %bb.2:                                # %if.then
	movq	img, %rax
	cmpl	$0, 24(%rax)
	jne	.LBB37_7
# %bb.3:                                # %if.then5
	xorl	%edi, %edi
	callq	test_wp_P_slice
	cmpl	$1, %eax
	jne	.LBB37_5
# %bb.4:                                # %if.then7
	movabsq	$PicParSet, %rax
	addq	$240, %rax
	movq	%rax, active_pps
	jmp	.LBB37_6
.LBB37_5:                               # %if.else
	movq	input, %rax
	movl	1304(%rax), %eax
	movl	%eax, -8(%rbp)
	movabsq	$PicParSet, %rax
	movq	%rax, active_pps
	movq	img, %rax
	movl	40(%rax), %ecx
	subl	$1, %ecx
	movl	%ecx, 40(%rax)
.LBB37_6:                               # %if.end
	jmp	.LBB37_8
.LBB37_7:                               # %if.else9
	movabsq	$PicParSet, %rax
	addq	$480, %rax              # imm = 0x1E0
	movq	%rax, active_pps
.LBB37_8:                               # %if.end10
	jmp	.LBB37_10
.LBB37_9:                               # %if.else11
	movq	img, %rax
	movl	40(%rax), %ecx
	subl	$1, %ecx
	movl	%ecx, 40(%rax)
.LBB37_10:                              # %if.end14
	movq	active_pps, %rax
	movq	%rax, -32(%rbp)
	movq	img, %rax
	movl	40(%rax), %eax
	movl	%eax, -20(%rbp)
	movq	img, %rax
	movl	$0, 72624(%rax)
	cmpl	$0, -8(%rbp)
	je	.LBB37_12
# %bb.11:                               # %if.then17
	movq	img, %rax
	movl	$0, 71804(%rax)
	movq	$0, enc_frame_picture2
	jmp	.LBB37_13
.LBB37_12:                              # %if.else18
	movq	frame_pic2, %rdi
	movl	$1, %esi
	callq	frame_picture
	movq	frame_pic, %rdi
	movq	frame_pic2, %rsi
	movl	-4(%rbp), %edx
	callq	picture_coding_decision
	movq	img, %rcx
	movl	%eax, 71804(%rcx)
.LBB37_13:                              # %if.end21
	movq	img, %rax
	cmpl	$0, 71804(%rax)
	jne	.LBB37_19
# %bb.14:                               # %if.then24
	movq	enc_frame_picture, %rax
	movq	%rax, enc_picture
	movq	img, %rax
	cmpl	$2, 24(%rax)
	je	.LBB37_17
# %bb.15:                               # %land.lhs.true27
	movq	input, %rax
	cmpl	$0, 60(%rax)
	je	.LBB37_17
# %bb.16:                               # %if.then30
	movl	-4(%rbp), %eax
	movq	img, %rcx
	movl	%eax, 40(%rcx)
	movabsq	$PicParSet, %rax
	movq	%rax, active_pps
	jmp	.LBB37_18
.LBB37_17:                              # %if.else32
	movl	-4(%rbp), %eax
	movq	img, %rcx
	movl	%eax, 40(%rcx)
.LBB37_18:                              # %if.end34
	movl	-12(%rbp), %eax
	movl	%eax, intras
	jmp	.LBB37_20
.LBB37_19:                              # %if.else35
	movl	intras, %eax
	movl	%eax, -12(%rbp)
.LBB37_20:                              # %if.end36
	movq	img, %rax
	cmpl	$2, 24(%rax)
	je	.LBB37_35
# %bb.21:                               # %land.lhs.true39
	movq	input, %rax
	cmpl	$0, 60(%rax)
	je	.LBB37_35
# %bb.22:                               # %if.then42
	movl	$0, -8(%rbp)
	movl	-4(%rbp), %eax
	movq	img, %rcx
	movl	%eax, 40(%rcx)
	movq	img, %rax
	cmpl	$0, 24(%rax)
	jne	.LBB37_27
# %bb.23:                               # %if.then46
	movl	$1, %edi
	callq	test_wp_P_slice
	cmpl	$1, %eax
	jne	.LBB37_25
# %bb.24:                               # %if.then49
	movabsq	$PicParSet, %rax
	addq	$240, %rax
	movq	%rax, active_pps
	jmp	.LBB37_26
.LBB37_25:                              # %if.else50
	movq	input, %rax
	movl	1304(%rax), %eax
	movl	%eax, -8(%rbp)
	movabsq	$PicParSet, %rax
	movq	%rax, active_pps
	movq	img, %rax
	movl	40(%rax), %ecx
	addl	$1, %ecx
	movl	%ecx, 40(%rax)
.LBB37_26:                              # %if.end53
	jmp	.LBB37_34
.LBB37_27:                              # %if.else54
	xorl	%edi, %edi
	callq	test_wp_B_slice
	cmpl	$1, %eax
	jne	.LBB37_29
# %bb.28:                               # %if.then57
	movabsq	$PicParSet, %rax
	addq	$240, %rax
	movq	%rax, active_pps
	jmp	.LBB37_33
.LBB37_29:                              # %if.else58
	movq	input, %rax
	movl	1308(%rax), %eax
	movl	%eax, -8(%rbp)
	movq	img, %rax
	cmpl	$0, 72496(%rax)
	je	.LBB37_31
# %bb.30:                               # %if.then60
	movl	-4(%rbp), %eax
	subl	$1, %eax
	movq	img, %rcx
	movl	%eax, 40(%rcx)
	jmp	.LBB37_32
.LBB37_31:                              # %if.else63
	movl	-4(%rbp), %eax
	addl	$1, %eax
	movq	img, %rcx
	movl	%eax, 40(%rcx)
.LBB37_32:                              # %if.end66
	jmp	.LBB37_33
.LBB37_33:                              # %if.end67
	jmp	.LBB37_34
.LBB37_34:                              # %if.end68
	jmp	.LBB37_36
.LBB37_35:                              # %if.else69
	movabsq	$PicParSet, %rax
	movq	%rax, active_pps
	movl	-4(%rbp), %eax
	addl	$1, %eax
	movq	img, %rcx
	movl	%eax, 40(%rcx)
.LBB37_36:                              # %if.end72
	movq	img, %rax
	cmpl	$0, 24(%rax)
	jne	.LBB37_40
# %bb.37:                               # %land.lhs.true75
	movq	input, %rax
	cmpl	$0, 60(%rax)
	je	.LBB37_40
# %bb.38:                               # %land.lhs.true78
	imull	$100, intras, %eax
	movq	img, %rcx
	xorl	%edx, %edx
	divl	72488(%rcx)
	cmpl	$75, %eax
	jb	.LBB37_40
# %bb.39:                               # %if.then80
	movq	img, %rax
	movl	$2, 24(%rax)
	movabsq	$PicParSet, %rax
	movq	%rax, active_pps
.LBB37_40:                              # %if.end82
	movq	img, %rax
	movl	$0, 72624(%rax)
	cmpl	$0, -8(%rbp)
	je	.LBB37_42
# %bb.41:                               # %if.then85
	movq	$0, enc_frame_picture3
	movl	-4(%rbp), %eax
	movq	img, %rcx
	movl	%eax, 40(%rcx)
	jmp	.LBB37_46
.LBB37_42:                              # %if.else87
	movq	frame_pic3, %rdi
	movl	$2, %esi
	callq	frame_picture
	movq	img, %rax
	cmpl	$0, 71804(%rax)
	jne	.LBB37_44
# %bb.43:                               # %if.then90
	movq	frame_pic, %rdi
	movq	frame_pic3, %rsi
	movl	-4(%rbp), %edx
	callq	picture_coding_decision
	shll	$1, %eax
	movq	img, %rcx
	movl	%eax, 71804(%rcx)
	jmp	.LBB37_45
.LBB37_44:                              # %if.else94
	movq	frame_pic2, %rdi
	movq	frame_pic3, %rsi
	movl	-4(%rbp), %edx
	callq	picture_coding_decision
	movq	img, %rcx
	addl	71804(%rcx), %eax
	movl	%eax, 71804(%rcx)
.LBB37_45:                              # %if.end98
	jmp	.LBB37_46
.LBB37_46:                              # %if.end99
	movq	img, %rax
	cmpl	$0, 71804(%rax)
	jne	.LBB37_48
# %bb.47:                               # %if.then102
	movq	enc_frame_picture, %rax
	movq	%rax, enc_picture
	movl	-16(%rbp), %eax
	movq	img, %rcx
	movl	%eax, 24(%rcx)
	movabsq	$PicParSet, %rax
	movq	%rax, active_pps
	movl	-4(%rbp), %eax
	movq	img, %rcx
	movl	%eax, 40(%rcx)
	movl	-12(%rbp), %eax
	movl	%eax, intras
	jmp	.LBB37_51
.LBB37_48:                              # %if.else105
	movq	img, %rax
	cmpl	$1, 71804(%rax)
	jne	.LBB37_50
# %bb.49:                               # %if.then108
	movq	enc_frame_picture2, %rax
	movq	%rax, enc_picture
	movl	-16(%rbp), %eax
	movq	img, %rcx
	movl	%eax, 24(%rcx)
	movq	-32(%rbp), %rax
	movq	%rax, active_pps
	movl	-20(%rbp), %eax
	movq	img, %rcx
	movl	%eax, 40(%rcx)
	movl	-12(%rbp), %eax
	movl	%eax, intras
.LBB37_50:                              # %if.end111
	jmp	.LBB37_51
.LBB37_51:                              # %if.end112
	cmpl	$917362613, -24(%rbp)   # imm = 0x36ADD7B5
	jne	.LBB37_53
.LBB37_52:
	addq	$32, %rsp
	popq	%rbp
	.cfi_def_cfa %rsp, 8
	retq
.LBB37_53:                              # %func_exit
	.cfi_def_cfa %rbp, 16
	callq	detect_breach
	jmp	.LBB37_52
.Lfunc_end37:
	.size	rdPictureCoding.1, .Lfunc_end37-rdPictureCoding.1
	.cfi_endproc
                                        # -- End function
	.p2align	4, 0x90         # -- Begin function GenerateFullPelRepresentation.2
	.type	GenerateFullPelRepresentation.2,@function
GenerateFullPelRepresentation.2:        # @GenerateFullPelRepresentation.2
	.cfi_startproc
# %bb.0:                                # %entry
	pushq	%rbp
	.cfi_def_cfa_offset 16
	.cfi_offset %rbp, -16
	movq	%rsp, %rbp
	.cfi_def_cfa_register %rbp
	pushq	%r15
	pushq	%r14
	pushq	%rbx
	subq	$40, %rsp
	.cfi_offset %rbx, -40
	.cfi_offset %r14, -32
	.cfi_offset %r15, -24
	movl	$219022726, -44(%rbp)   # imm = 0xD0E0586
	movq	%rdi, -64(%rbp)
	movq	%rsi, -56(%rbp)
	movl	%edx, -36(%rbp)
	movl	%ecx, -40(%rbp)
	movl	$0, -28(%rbp)
.LBB38_1:                               # %for.cond
                                        # =>This Loop Header: Depth=1
                                        #     Child Loop BB38_3 Depth 2
	movl	-28(%rbp), %eax
	cmpl	-40(%rbp), %eax
	jge	.LBB38_8
# %bb.2:                                # %for.body
                                        #   in Loop: Header=BB38_1 Depth=1
	movl	$0, -32(%rbp)
.LBB38_3:                               # %for.cond1
                                        #   Parent Loop BB38_1 Depth=1
                                        # =>  This Inner Loop Header: Depth=2
	movl	-32(%rbp), %eax
	cmpl	-36(%rbp), %eax
	jge	.LBB38_6
# %bb.4:                                # %for.body3
                                        #   in Loop: Header=BB38_3 Depth=2
	movq	-56(%rbp), %rbx
	movl	-28(%rbp), %r14d
	movl	-32(%rbp), %r15d
	movq	-64(%rbp), %rdi
	movl	-28(%rbp), %esi
	shll	$2, %esi
	movl	-32(%rbp), %edx
	shll	$2, %edx
	movl	-40(%rbp), %ecx
	movl	-36(%rbp), %r8d
	callq	FastPelY_14
	movl	-36(%rbp), %r8d
	movq	%rbx, %rdi
	movl	%r14d, %esi
	movl	%r15d, %edx
	movzwl	%ax, %ecx
	callq	PutPel_11
# %bb.5:                                # %for.inc
                                        #   in Loop: Header=BB38_3 Depth=2
	movl	-32(%rbp), %eax
	addl	$1, %eax
	movl	%eax, -32(%rbp)
	jmp	.LBB38_3
.LBB38_6:                               # %for.end
                                        #   in Loop: Header=BB38_1 Depth=1
	jmp	.LBB38_7
.LBB38_7:                               # %for.inc5
                                        #   in Loop: Header=BB38_1 Depth=1
	movl	-28(%rbp), %eax
	addl	$1, %eax
	movl	%eax, -28(%rbp)
	jmp	.LBB38_1
.LBB38_8:                               # %for.end7
	cmpl	$219022726, -44(%rbp)   # imm = 0xD0E0586
	jne	.LBB38_10
.LBB38_9:
	addq	$40, %rsp
	popq	%rbx
	popq	%r14
	popq	%r15
	popq	%rbp
	.cfi_def_cfa %rsp, 8
	retq
.LBB38_10:                              # %func_exit
	.cfi_def_cfa %rbp, 16
	callq	detect_breach
	jmp	.LBB38_9
.Lfunc_end38:
	.size	GenerateFullPelRepresentation.2, .Lfunc_end38-GenerateFullPelRepresentation.2
	.cfi_endproc
                                        # -- End function
	.globl	frame_picture.3         # -- Begin function frame_picture.3
	.p2align	4, 0x90
	.type	frame_picture.3,@function
frame_picture.3:                        # @frame_picture.3
	.cfi_startproc
# %bb.0:                                # %entry
	pushq	%rbp
	.cfi_def_cfa_offset 16
	.cfi_offset %rbp, -16
	movq	%rsp, %rbp
	.cfi_def_cfa_register %rbp
	subq	$16, %rsp
	movl	$1420306910, -16(%rbp)  # imm = 0x54A829DE
	movq	%rdi, -8(%rbp)
	movl	%esi, -12(%rbp)
	movq	img, %rax
	movl	$0, 28(%rax)
	movq	img, %rax
	movl	72488(%rax), %eax
	movq	img, %rcx
	movl	%eax, 72484(%rcx)
	cmpl	$2, -12(%rbp)
	jne	.LBB39_2
# %bb.1:                                # %if.then
	movq	img, %rax
	movl	28(%rax), %edi
	movq	img, %rax
	movl	52(%rax), %esi
	movq	img, %rax
	movl	60(%rax), %edx
	movq	img, %rax
	movl	56(%rax), %ecx
	movq	img, %rax
	movl	64(%rax), %r8d
	callq	alloc_storable_picture
	movq	%rax, enc_frame_picture3
	movq	img, %rax
	movl	72456(%rax), %eax
	movq	enc_frame_picture3, %rcx
	movl	%eax, 4(%rcx)
	movq	img, %rcx
	movl	%eax, 72460(%rcx)
	movq	img, %rax
	movl	72448(%rax), %eax
	movq	enc_frame_picture3, %rcx
	movl	%eax, 8(%rcx)
	movq	img, %rax
	movl	72452(%rax), %eax
	movq	enc_frame_picture3, %rcx
	movl	%eax, 12(%rcx)
	movq	img, %rax
	movl	72456(%rax), %eax
	movq	enc_frame_picture3, %rcx
	movl	%eax, 16(%rcx)
	movq	img, %rax
	movl	72464(%rax), %eax
	movq	enc_frame_picture3, %rcx
	movl	%eax, 6364(%rcx)
	movq	img, %rax
	movl	72464(%rax), %eax
	movq	enc_frame_picture3, %rcx
	movl	%eax, 6360(%rcx)
	movq	enc_frame_picture3, %rax
	movl	$1, 6412(%rax)
	movq	input, %rax
	cmpl	$0, 2884(%rax)
	setne	%al
	andb	$1, %al
	movzbl	%al, %eax
	movq	img, %rcx
	movl	%eax, 72400(%rcx)
	movq	enc_frame_picture3, %rcx
	movl	%eax, 6416(%rcx)
	movq	enc_frame_picture3, %rax
	movq	%rax, enc_picture
	callq	copy_params
	jmp	.LBB39_6
.LBB39_2:                               # %if.else
	cmpl	$1, -12(%rbp)
	jne	.LBB39_4
# %bb.3:                                # %if.then9
	movq	img, %rax
	movl	28(%rax), %edi
	movq	img, %rax
	movl	52(%rax), %esi
	movq	img, %rax
	movl	60(%rax), %edx
	movq	img, %rax
	movl	56(%rax), %ecx
	movq	img, %rax
	movl	64(%rax), %r8d
	callq	alloc_storable_picture
	movq	%rax, enc_frame_picture2
	movq	img, %rax
	movl	72456(%rax), %eax
	movq	enc_frame_picture2, %rcx
	movl	%eax, 4(%rcx)
	movq	img, %rcx
	movl	%eax, 72460(%rcx)
	movq	img, %rax
	movl	72448(%rax), %eax
	movq	enc_frame_picture2, %rcx
	movl	%eax, 8(%rcx)
	movq	img, %rax
	movl	72452(%rax), %eax
	movq	enc_frame_picture2, %rcx
	movl	%eax, 12(%rcx)
	movq	img, %rax
	movl	72456(%rax), %eax
	movq	enc_frame_picture2, %rcx
	movl	%eax, 16(%rcx)
	movq	img, %rax
	movl	72464(%rax), %eax
	movq	enc_frame_picture2, %rcx
	movl	%eax, 6364(%rcx)
	movq	img, %rax
	movl	72464(%rax), %eax
	movq	enc_frame_picture2, %rcx
	movl	%eax, 6360(%rcx)
	movq	enc_frame_picture2, %rax
	movl	$1, 6412(%rax)
	movq	input, %rax
	cmpl	$0, 2884(%rax)
	setne	%al
	andb	$1, %al
	movzbl	%al, %eax
	movq	img, %rcx
	movl	%eax, 72400(%rcx)
	movq	enc_frame_picture2, %rcx
	movl	%eax, 6416(%rcx)
	movq	enc_frame_picture2, %rax
	movq	%rax, enc_picture
	callq	copy_params
	jmp	.LBB39_5
.LBB39_4:                               # %if.else35
	movq	img, %rax
	movl	28(%rax), %edi
	movq	img, %rax
	movl	52(%rax), %esi
	movq	img, %rax
	movl	60(%rax), %edx
	movq	img, %rax
	movl	56(%rax), %ecx
	movq	img, %rax
	movl	64(%rax), %r8d
	callq	alloc_storable_picture
	movq	%rax, enc_frame_picture
	movq	img, %rax
	movl	72456(%rax), %eax
	movq	enc_frame_picture, %rcx
	movl	%eax, 4(%rcx)
	movq	img, %rcx
	movl	%eax, 72460(%rcx)
	movq	img, %rax
	movl	72448(%rax), %eax
	movq	enc_frame_picture, %rcx
	movl	%eax, 8(%rcx)
	movq	img, %rax
	movl	72452(%rax), %eax
	movq	enc_frame_picture, %rcx
	movl	%eax, 12(%rcx)
	movq	img, %rax
	movl	72456(%rax), %eax
	movq	enc_frame_picture, %rcx
	movl	%eax, 16(%rcx)
	movq	img, %rax
	movl	72464(%rax), %eax
	movq	enc_frame_picture, %rcx
	movl	%eax, 6364(%rcx)
	movq	img, %rax
	movl	72464(%rax), %eax
	movq	enc_frame_picture, %rcx
	movl	%eax, 6360(%rcx)
	movq	enc_frame_picture, %rax
	movl	$1, 6412(%rax)
	movq	input, %rax
	cmpl	$0, 2884(%rax)
	setne	%al
	andb	$1, %al
	movzbl	%al, %eax
	movq	img, %rcx
	movl	%eax, 72400(%rcx)
	movq	enc_frame_picture, %rcx
	movl	%eax, 6416(%rcx)
	movq	enc_frame_picture, %rax
	movq	%rax, enc_picture
	callq	copy_params
.LBB39_5:                               # %if.end
	jmp	.LBB39_6
.LBB39_6:                               # %if.end61
	movq	stats, %rax
	movl	$0, 1468(%rax)
	movq	stats, %rax
	addq	$1468, %rax             # imm = 0x5BC
	movq	stats, %rcx
	movq	%rax, 1480(%rcx)
	movq	img, %rax
	movl	$0, 71800(%rax)
	movq	-8(%rbp), %rdi
	callq	code_a_picture
	movq	img, %rax
	movq	14160(%rax), %rax
	movq	24(%rax), %rax
	movq	(%rax), %rax
	movl	(%rax), %eax
	shll	$3, %eax
	movq	-8(%rbp), %rcx
	movl	%eax, 808(%rcx)
	movq	img, %rax
	cmpl	$0, 28(%rax)
	jne	.LBB39_8
# %bb.7:                                # %if.then66
	callq	find_distortion
	movq	snr, %rax
	vmovss	(%rax), %xmm0           # xmm0 = mem[0],zero,zero,zero
	movq	-8(%rbp), %rax
	vmovss	%xmm0, 812(%rax)
	movq	snr, %rax
	vmovss	4(%rax), %xmm0          # xmm0 = mem[0],zero,zero,zero
	movq	-8(%rbp), %rax
	vmovss	%xmm0, 816(%rax)
	movq	snr, %rax
	vmovss	8(%rax), %xmm0          # xmm0 = mem[0],zero,zero,zero
	movq	-8(%rbp), %rax
	vmovss	%xmm0, 820(%rax)
.LBB39_8:                               # %if.end67
	cmpl	$1420306910, -16(%rbp)  # imm = 0x54A829DE
	jne	.LBB39_10
.LBB39_9:
	addq	$16, %rsp
	popq	%rbp
	.cfi_def_cfa %rsp, 8
	retq
.LBB39_10:                              # %func_exit
	.cfi_def_cfa %rbp, 16
	callq	detect_breach
	jmp	.LBB39_9
.Lfunc_end39:
	.size	frame_picture.3, .Lfunc_end39-frame_picture.3
	.cfi_endproc
                                        # -- End function
	.globl	field_picture.4         # -- Begin function field_picture.4
	.p2align	4, 0x90
	.type	field_picture.4,@function
field_picture.4:                        # @field_picture.4
	.cfi_startproc
# %bb.0:                                # %entry
	pushq	%rbp
	.cfi_def_cfa_offset 16
	.cfi_offset %rbp, -16
	movq	%rsp, %rbp
	.cfi_def_cfa_register %rbp
	subq	$32, %rsp
	movl	$713572340, -16(%rbp)   # imm = 0x2A883FF4
	movq	%rdi, -8(%rbp)
	movq	%rsi, -24(%rbp)
	movq	img, %rax
	movl	24(%rax), %eax
	movl	%eax, -28(%rbp)
	movq	stats, %rax
	movl	$0, 1472(%rax)
	movq	stats, %rax
	addq	$1472, %rax             # imm = 0x5C0
	movq	stats, %rcx
	movq	%rax, 1480(%rcx)
	movq	img, %rax
	movl	(%rax), %ecx
	shll	$1, %ecx
	movl	%ecx, (%rax)
	movq	img, %rax
	movl	72376(%rax), %ecx
	shll	$1, %ecx
	movl	%ecx, 72376(%rax)
	movq	input, %rax
	movl	68(%rax), %eax
	movq	img, %rcx
	addl	72732(%rcx), %eax
	cltd
	movl	$2, %ecx
	idivl	%ecx
	movq	img, %rdx
	movl	%eax, 60(%rdx)
	movq	img, %rax
	movl	68(%rax), %eax
	cltd
	idivl	%ecx
	movq	img, %rcx
	movl	%eax, 64(%rcx)
	movq	img, %rax
	movl	$1, 71800(%rax)
	movq	img, %rax
	movl	72488(%rax), %eax
	shrl	$1, %eax
	movq	img, %rcx
	movl	%eax, 72484(%rcx)
	movq	img, %rax
	movl	28(%rax), %edi
	movq	img, %rax
	movl	52(%rax), %esi
	movq	img, %rax
	movl	60(%rax), %edx
	movq	img, %rax
	movl	56(%rax), %ecx
	movq	img, %rax
	movl	64(%rax), %r8d
	callq	alloc_storable_picture
	movq	%rax, enc_top_picture
	movq	img, %rax
	movl	72448(%rax), %eax
	movq	enc_top_picture, %rcx
	movl	%eax, 4(%rcx)
	movq	img, %rax
	movl	72448(%rax), %eax
	movq	enc_top_picture, %rcx
	movl	%eax, 16(%rcx)
	movq	img, %rax
	movl	72464(%rax), %eax
	movq	enc_top_picture, %rcx
	movl	%eax, 6364(%rcx)
	movq	img, %rax
	movl	72464(%rax), %eax
	movq	enc_top_picture, %rcx
	movl	%eax, 6360(%rcx)
	movq	enc_top_picture, %rax
	movl	$0, 6412(%rax)
	movq	img, %rax
	movl	$0, 72400(%rax)
	movq	enc_top_picture, %rax
	movl	$0, 6416(%rax)
	movq	img, %rax
	movl	72448(%rax), %eax
	movq	img, %rcx
	movl	%eax, 72460(%rcx)
	movq	img, %rax
	movl	$1, 28(%rax)
	movq	enc_top_picture, %rax
	movq	%rax, enc_picture
	callq	copy_params
	callq	put_buffer_top
	callq	init_field
	movq	img, %rax
	cmpl	$1, 24(%rax)
	jne	.LBB40_2
# %bb.1:                                # %if.then
	movl	nextP_tr_fld, %eax
	addl	$-1, %eax
	movl	%eax, nextP_tr_fld
.LBB40_2:                               # %if.end
	movq	img, %rax
	movl	$1, 71800(%rax)
	movq	input, %rax
	cmpl	$0, 3236(%rax)
	je	.LBB40_7
# %bb.3:                                # %if.then15
	movq	input, %rax
	movl	3248(%rax), %eax
	movq	img, %rcx
	movl	%eax, 72620(%rcx)
	movq	input, %rax
	cmpl	$1, 2880(%rax)
	jne	.LBB40_5
# %bb.4:                                # %if.then17
	xorl	%edi, %edi
	movl	$1, %esi
	movl	$1, %edx
	callq	rc_init_pict
	jmp	.LBB40_6
.LBB40_5:                               # %if.else
	xorl	%edi, %edi
	movl	$1, %esi
	xorl	%edx, %edx
	callq	rc_init_pict
.LBB40_6:                               # %if.end18
	movl	$1, %edi
	callq	updateQuantizationParameter
	movq	img, %rcx
	movl	%eax, 40(%rcx)
.LBB40_7:                               # %if.end20
	movq	img, %rax
	movl	$1, 72596(%rax)
	movq	top_pic, %rdi
	callq	code_a_picture
	movq	enc_picture, %rax
	movl	$1, (%rax)
	movq	enc_top_picture, %rdi
	callq	store_picture_in_dpb
	movq	img, %rax
	movq	14160(%rax), %rax
	movq	24(%rax), %rax
	movq	(%rax), %rax
	movl	(%rax), %eax
	shll	$3, %eax
	movq	-8(%rbp), %rcx
	movl	%eax, 808(%rcx)
	movq	-8(%rbp), %rax
	movl	808(%rax), %eax
	movl	%eax, -12(%rbp)
	movq	img, %rax
	movl	28(%rax), %edi
	movq	img, %rax
	movl	52(%rax), %esi
	movq	img, %rax
	movl	60(%rax), %edx
	movq	img, %rax
	movl	56(%rax), %ecx
	movq	img, %rax
	movl	64(%rax), %r8d
	callq	alloc_storable_picture
	movq	%rax, enc_bottom_picture
	movq	img, %rax
	movl	72452(%rax), %eax
	movq	enc_bottom_picture, %rcx
	movl	%eax, 4(%rcx)
	movq	img, %rax
	movl	72452(%rax), %eax
	movq	enc_bottom_picture, %rcx
	movl	%eax, 16(%rcx)
	movq	img, %rax
	movl	72464(%rax), %eax
	movq	enc_bottom_picture, %rcx
	movl	%eax, 6364(%rcx)
	movq	img, %rax
	movl	72464(%rax), %eax
	movq	enc_bottom_picture, %rcx
	movl	%eax, 6360(%rcx)
	movq	enc_bottom_picture, %rax
	movl	$0, 6412(%rax)
	movq	img, %rax
	movl	$0, 72400(%rax)
	movq	enc_bottom_picture, %rax
	movl	$0, 6416(%rax)
	movq	img, %rax
	movl	72452(%rax), %eax
	movq	img, %rcx
	movl	%eax, 72460(%rcx)
	movq	img, %rax
	movl	$2, 28(%rax)
	movq	enc_bottom_picture, %rax
	movq	%rax, enc_picture
	callq	copy_params
	callq	put_buffer_bot
	movq	img, %rax
	movl	(%rax), %ecx
	addl	$1, %ecx
	movl	%ecx, (%rax)
	callq	init_field
	movq	img, %rax
	cmpl	$1, 24(%rax)
	jne	.LBB40_9
# %bb.8:                                # %if.then46
	movl	nextP_tr_fld, %eax
	addl	$1, %eax
	movl	%eax, nextP_tr_fld
.LBB40_9:                               # %if.end48
	movq	img, %rax
	cmpl	$2, 24(%rax)
	jne	.LBB40_12
# %bb.10:                               # %land.lhs.true
	movq	input, %rax
	cmpl	$1, 2888(%rax)
	je	.LBB40_12
# %bb.11:                               # %if.then52
	movq	img, %rax
	movl	$0, 24(%rax)
.LBB40_12:                              # %if.end54
	movq	img, %rax
	movl	$1, 71800(%rax)
	movq	input, %rax
	cmpl	$0, 3236(%rax)
	je	.LBB40_14
# %bb.13:                               # %if.then58
	movl	-12(%rbp), %edi
	callq	setbitscount
.LBB40_14:                              # %if.end59
	movq	input, %rax
	cmpl	$0, 3236(%rax)
	je	.LBB40_16
# %bb.15:                               # %if.then62
	xorl	%edi, %edi
	xorl	%esi, %esi
	xorl	%edx, %edx
	callq	rc_init_pict
	xorl	%edi, %edi
	callq	updateQuantizationParameter
	movq	img, %rcx
	movl	%eax, 40(%rcx)
.LBB40_16:                              # %if.end65
	movq	img, %rax
	movl	$0, 72596(%rax)
	movq	enc_picture, %rax
	movl	$2, (%rax)
	movq	bottom_pic, %rdi
	callq	code_a_picture
	movq	img, %rax
	movq	14160(%rax), %rax
	movq	24(%rax), %rax
	movq	(%rax), %rax
	movl	(%rax), %eax
	shll	$3, %eax
	movq	-24(%rbp), %rcx
	movl	%eax, 808(%rcx)
	movq	-8(%rbp), %rdi
	addq	$812, %rdi              # imm = 0x32C
	movq	-8(%rbp), %rsi
	addq	$816, %rsi              # imm = 0x330
	movq	-8(%rbp), %rdx
	addq	$820, %rdx              # imm = 0x334
	callq	distortion_fld
	cmpl	$713572340, -16(%rbp)   # imm = 0x2A883FF4
	jne	.LBB40_18
.LBB40_17:
	addq	$32, %rsp
	popq	%rbp
	.cfi_def_cfa %rsp, 8
	retq
.LBB40_18:                              # %func_exit
	.cfi_def_cfa %rbp, 16
	callq	detect_breach
	jmp	.LBB40_17
.Lfunc_end40:
	.size	field_picture.4, .Lfunc_end40-field_picture.4
	.cfi_endproc
                                        # -- End function
	.globl	UnifiedOneForthPix.5    # -- Begin function UnifiedOneForthPix.5
	.p2align	4, 0x90
	.type	UnifiedOneForthPix.5,@function
UnifiedOneForthPix.5:                   # @UnifiedOneForthPix.5
	.cfi_startproc
# %bb.0:                                # %entry
	pushq	%rbp
	.cfi_def_cfa_offset 16
	.cfi_offset %rbp, -16
	movq	%rsp, %rbp
	.cfi_def_cfa_register %rbp
	pushq	%r15
	pushq	%r14
	pushq	%r13
	pushq	%r12
	pushq	%rbx
	subq	$88, %rsp
	.cfi_offset %rbx, -56
	.cfi_offset %r12, -48
	.cfi_offset %r13, -40
	.cfi_offset %r14, -32
	.cfi_offset %r15, -24
	movl	$1145041704, -108(%rbp) # imm = 0x443FF328
	movq	%rdi, -64(%rbp)
	movq	-64(%rbp), %rax
	movq	6424(%rax), %rax
	movq	%rax, -104(%rbp)
	movq	-64(%rbp), %rax
	movl	6392(%rax), %eax
	movl	%eax, -56(%rbp)
	movq	-64(%rbp), %rax
	movl	6396(%rax), %eax
	movl	%eax, -52(%rbp)
	movq	-64(%rbp), %rax
	cmpq	$0, 6448(%rax)
	jne	.LBB41_2
# %bb.1:                                # %lor.lhs.false
	movq	-64(%rbp), %rax
	cmpq	$0, 6432(%rax)
	je	.LBB41_3
.LBB41_2:                               # %if.then
	jmp	.LBB41_266
.LBB41_3:                               # %if.end
	movq	-64(%rbp), %rax
	movl	6392(%rax), %eax
	movq	-64(%rbp), %rcx
	imull	6396(%rcx), %eax
	movslq	%eax, %rdi
	shlq	$1, %rdi
	callq	malloc
	xorl	%ecx, %ecx
	movq	-64(%rbp), %rdx
	movq	%rax, 6432(%rdx)
	movq	-64(%rbp), %rax
	cmpq	6432(%rax), %rcx
	jne	.LBB41_5
# %bb.4:                                # %if.then9
	movabsq	$.L.str.1, %rdi
	callq	no_mem_exit
.LBB41_5:                               # %if.end10
	movq	-64(%rbp), %rdi
	addq	$6448, %rdi             # imm = 0x1930
	movq	-64(%rbp), %rax
	movl	6396(%rax), %esi
	addl	$8, %esi
	shll	$2, %esi
	movq	-64(%rbp), %rax
	movl	6392(%rax), %edx
	addl	$8, %edx
	shll	$2, %edx
	callq	get_mem2Dpel
	movq	input, %rax
	cmpl	$0, 1284(%rax)
	jne	.LBB41_8
# %bb.6:                                # %lor.lhs.false19
	movq	input, %rax
	cmpl	$0, 1288(%rax)
	jne	.LBB41_8
# %bb.7:                                # %lor.lhs.false21
	movq	input, %rax
	cmpl	$0, 60(%rax)
	je	.LBB41_11
.LBB41_8:                               # %if.then23
	movq	-64(%rbp), %rax
	movl	6392(%rax), %eax
	movq	-64(%rbp), %rcx
	imull	6396(%rcx), %eax
	movslq	%eax, %rdi
	shlq	$1, %rdi
	callq	malloc
	xorl	%ecx, %ecx
	movq	-64(%rbp), %rdx
	movq	%rax, 6440(%rdx)
	movq	-64(%rbp), %rax
	cmpq	6440(%rax), %rcx
	jne	.LBB41_10
# %bb.9:                                # %if.then33
	movabsq	$.L.str.2, %rdi
	callq	no_mem_exit
.LBB41_10:                              # %if.end34
	movq	-64(%rbp), %rdi
	addq	$6456, %rdi             # imm = 0x1938
	movq	-64(%rbp), %rax
	movl	6396(%rax), %esi
	addl	$8, %esi
	shll	$2, %esi
	movq	-64(%rbp), %rax
	movl	6392(%rax), %edx
	addl	$8, %edx
	shll	$2, %edx
	callq	get_mem2Dpel
.LBB41_11:                              # %if.end42
	movq	-64(%rbp), %rax
	movq	6448(%rax), %rax
	movq	%rax, -80(%rbp)
	movq	-64(%rbp), %rax
	movq	6432(%rax), %rax
	movq	%rax, -120(%rbp)
	movl	$-4, -48(%rbp)
.LBB41_12:                              # %for.cond
                                        # =>This Loop Header: Depth=1
                                        #     Child Loop BB41_14 Depth 2
	movl	-48(%rbp), %eax
	movq	-64(%rbp), %rcx
	movl	6396(%rcx), %ecx
	addl	$4, %ecx
	cmpl	%ecx, %eax
	jge	.LBB41_91
# %bb.13:                               # %for.body
                                        #   in Loop: Header=BB41_12 Depth=1
	movl	$-4, -44(%rbp)
.LBB41_14:                              # %for.cond49
                                        #   Parent Loop BB41_12 Depth=1
                                        # =>  This Inner Loop Header: Depth=2
	movl	-44(%rbp), %eax
	movq	-64(%rbp), %rcx
	movl	6392(%rcx), %ecx
	addl	$4, %ecx
	cmpl	%ecx, %eax
	jge	.LBB41_89
# %bb.15:                               # %for.body54
                                        #   in Loop: Header=BB41_14 Depth=2
	movq	-64(%rbp), %rax
	movl	6396(%rax), %eax
	subl	$1, %eax
	cmpl	-48(%rbp), %eax
	jge	.LBB41_17
# %bb.16:                               # %cond.true
                                        #   in Loop: Header=BB41_14 Depth=2
	movq	-64(%rbp), %rax
	movl	6396(%rax), %eax
	subl	$1, %eax
	jmp	.LBB41_18
.LBB41_17:                              # %cond.false
                                        #   in Loop: Header=BB41_14 Depth=2
	movl	-48(%rbp), %eax
.LBB41_18:                              # %cond.end
                                        #   in Loop: Header=BB41_14 Depth=2
	xorl	%ecx, %ecx
	cmpl	%eax, %ecx
	jle	.LBB41_20
# %bb.19:                               # %cond.true62
                                        #   in Loop: Header=BB41_14 Depth=2
	xorl	%eax, %eax
	jmp	.LBB41_24
.LBB41_20:                              # %cond.false63
                                        #   in Loop: Header=BB41_14 Depth=2
	movq	-64(%rbp), %rax
	movl	6396(%rax), %eax
	subl	$1, %eax
	cmpl	-48(%rbp), %eax
	jge	.LBB41_22
# %bb.21:                               # %cond.true68
                                        #   in Loop: Header=BB41_14 Depth=2
	movq	-64(%rbp), %rax
	movl	6396(%rax), %eax
	subl	$1, %eax
	jmp	.LBB41_23
.LBB41_22:                              # %cond.false71
                                        #   in Loop: Header=BB41_14 Depth=2
	movl	-48(%rbp), %eax
.LBB41_23:                              # %cond.end72
                                        #   in Loop: Header=BB41_14 Depth=2
.LBB41_24:                              # %cond.end74
                                        #   in Loop: Header=BB41_14 Depth=2
	movl	%eax, -84(%rbp)
	movl	ONE_FOURTH_TAP, %eax
	movq	-104(%rbp), %rcx
	movslq	-84(%rbp), %rdx
	movq	(%rcx,%rdx,8), %rcx
	movq	-64(%rbp), %rdx
	movl	6392(%rdx), %edx
	subl	$1, %edx
	cmpl	-44(%rbp), %edx
	jge	.LBB41_26
# %bb.25:                               # %cond.true80
                                        #   in Loop: Header=BB41_14 Depth=2
	movq	-64(%rbp), %rdx
	movl	6392(%rdx), %edx
	subl	$1, %edx
	jmp	.LBB41_27
.LBB41_26:                              # %cond.false83
                                        #   in Loop: Header=BB41_14 Depth=2
	movl	-44(%rbp), %edx
.LBB41_27:                              # %cond.end84
                                        #   in Loop: Header=BB41_14 Depth=2
	xorl	%esi, %esi
	cmpl	%edx, %esi
	jle	.LBB41_29
# %bb.28:                               # %cond.true88
                                        #   in Loop: Header=BB41_14 Depth=2
	xorl	%edx, %edx
	jmp	.LBB41_33
.LBB41_29:                              # %cond.false89
                                        #   in Loop: Header=BB41_14 Depth=2
	movq	-64(%rbp), %rdx
	movl	6392(%rdx), %edx
	subl	$1, %edx
	cmpl	-44(%rbp), %edx
	jge	.LBB41_31
# %bb.30:                               # %cond.true94
                                        #   in Loop: Header=BB41_14 Depth=2
	movq	-64(%rbp), %rdx
	movl	6392(%rdx), %edx
	subl	$1, %edx
	jmp	.LBB41_32
.LBB41_31:                              # %cond.false97
                                        #   in Loop: Header=BB41_14 Depth=2
	movl	-44(%rbp), %edx
.LBB41_32:                              # %cond.end98
                                        #   in Loop: Header=BB41_14 Depth=2
.LBB41_33:                              # %cond.end100
                                        #   in Loop: Header=BB41_14 Depth=2
	movslq	%edx, %rdx
	movzwl	(%rcx,%rdx,2), %ecx
	movq	-104(%rbp), %rdx
	movslq	-84(%rbp), %rsi
	movq	(%rdx,%rsi,8), %rdx
	movq	-64(%rbp), %rsi
	movl	6392(%rsi), %esi
	subl	$1, %esi
	movl	-44(%rbp), %edi
	addl	$1, %edi
	cmpl	%edi, %esi
	jge	.LBB41_35
# %bb.34:                               # %cond.true112
                                        #   in Loop: Header=BB41_14 Depth=2
	movq	-64(%rbp), %rsi
	movl	6392(%rsi), %esi
	subl	$1, %esi
	jmp	.LBB41_36
.LBB41_35:                              # %cond.false115
                                        #   in Loop: Header=BB41_14 Depth=2
	movl	-44(%rbp), %esi
	addl	$1, %esi
.LBB41_36:                              # %cond.end117
                                        #   in Loop: Header=BB41_14 Depth=2
	xorl	%edi, %edi
	cmpl	%esi, %edi
	jle	.LBB41_38
# %bb.37:                               # %cond.true121
                                        #   in Loop: Header=BB41_14 Depth=2
	xorl	%esi, %esi
	jmp	.LBB41_42
.LBB41_38:                              # %cond.false122
                                        #   in Loop: Header=BB41_14 Depth=2
	movq	-64(%rbp), %rsi
	movl	6392(%rsi), %esi
	subl	$1, %esi
	movl	-44(%rbp), %edi
	addl	$1, %edi
	cmpl	%edi, %esi
	jge	.LBB41_40
# %bb.39:                               # %cond.true128
                                        #   in Loop: Header=BB41_14 Depth=2
	movq	-64(%rbp), %rsi
	movl	6392(%rsi), %esi
	subl	$1, %esi
	jmp	.LBB41_41
.LBB41_40:                              # %cond.false131
                                        #   in Loop: Header=BB41_14 Depth=2
	movl	-44(%rbp), %esi
	addl	$1, %esi
.LBB41_41:                              # %cond.end133
                                        #   in Loop: Header=BB41_14 Depth=2
.LBB41_42:                              # %cond.end135
                                        #   in Loop: Header=BB41_14 Depth=2
	movslq	%esi, %rsi
	movzwl	(%rdx,%rsi,2), %edx
	addl	%edx, %ecx
	imull	%ecx, %eax
	movl	ONE_FOURTH_TAP+8, %ecx
	movq	-104(%rbp), %rdx
	movslq	-84(%rbp), %rsi
	movq	(%rdx,%rsi,8), %rdx
	movq	-64(%rbp), %rsi
	movl	6392(%rsi), %esi
	subl	$1, %esi
	movl	-44(%rbp), %edi
	subl	$1, %edi
	cmpl	%edi, %esi
	jge	.LBB41_44
# %bb.43:                               # %cond.true149
                                        #   in Loop: Header=BB41_14 Depth=2
	movq	-64(%rbp), %rsi
	movl	6392(%rsi), %esi
	subl	$1, %esi
	jmp	.LBB41_45
.LBB41_44:                              # %cond.false152
                                        #   in Loop: Header=BB41_14 Depth=2
	movl	-44(%rbp), %esi
	subl	$1, %esi
.LBB41_45:                              # %cond.end154
                                        #   in Loop: Header=BB41_14 Depth=2
	xorl	%edi, %edi
	cmpl	%esi, %edi
	jle	.LBB41_47
# %bb.46:                               # %cond.true158
                                        #   in Loop: Header=BB41_14 Depth=2
	xorl	%esi, %esi
	jmp	.LBB41_51
.LBB41_47:                              # %cond.false159
                                        #   in Loop: Header=BB41_14 Depth=2
	movq	-64(%rbp), %rsi
	movl	6392(%rsi), %esi
	subl	$1, %esi
	movl	-44(%rbp), %edi
	subl	$1, %edi
	cmpl	%edi, %esi
	jge	.LBB41_49
# %bb.48:                               # %cond.true165
                                        #   in Loop: Header=BB41_14 Depth=2
	movq	-64(%rbp), %rsi
	movl	6392(%rsi), %esi
	subl	$1, %esi
	jmp	.LBB41_50
.LBB41_49:                              # %cond.false168
                                        #   in Loop: Header=BB41_14 Depth=2
	movl	-44(%rbp), %esi
	subl	$1, %esi
.LBB41_50:                              # %cond.end170
                                        #   in Loop: Header=BB41_14 Depth=2
.LBB41_51:                              # %cond.end172
                                        #   in Loop: Header=BB41_14 Depth=2
	movslq	%esi, %rsi
	movzwl	(%rdx,%rsi,2), %edx
	movq	-104(%rbp), %rsi
	movslq	-84(%rbp), %rdi
	movq	(%rsi,%rdi,8), %rsi
	movq	-64(%rbp), %rdi
	movl	6392(%rdi), %edi
	subl	$1, %edi
	movl	-44(%rbp), %ebx
	addl	$2, %ebx
	cmpl	%ebx, %edi
	jge	.LBB41_53
# %bb.52:                               # %cond.true184
                                        #   in Loop: Header=BB41_14 Depth=2
	movq	-64(%rbp), %rdi
	movl	6392(%rdi), %edi
	subl	$1, %edi
	jmp	.LBB41_54
.LBB41_53:                              # %cond.false187
                                        #   in Loop: Header=BB41_14 Depth=2
	movl	-44(%rbp), %edi
	addl	$2, %edi
.LBB41_54:                              # %cond.end189
                                        #   in Loop: Header=BB41_14 Depth=2
	xorl	%ebx, %ebx
	cmpl	%edi, %ebx
	jle	.LBB41_56
# %bb.55:                               # %cond.true193
                                        #   in Loop: Header=BB41_14 Depth=2
	xorl	%edi, %edi
	jmp	.LBB41_60
.LBB41_56:                              # %cond.false194
                                        #   in Loop: Header=BB41_14 Depth=2
	movq	-64(%rbp), %rdi
	movl	6392(%rdi), %edi
	subl	$1, %edi
	movl	-44(%rbp), %ebx
	addl	$2, %ebx
	cmpl	%ebx, %edi
	jge	.LBB41_58
# %bb.57:                               # %cond.true200
                                        #   in Loop: Header=BB41_14 Depth=2
	movq	-64(%rbp), %rdi
	movl	6392(%rdi), %edi
	subl	$1, %edi
	jmp	.LBB41_59
.LBB41_58:                              # %cond.false203
                                        #   in Loop: Header=BB41_14 Depth=2
	movl	-44(%rbp), %edi
	addl	$2, %edi
.LBB41_59:                              # %cond.end205
                                        #   in Loop: Header=BB41_14 Depth=2
.LBB41_60:                              # %cond.end207
                                        #   in Loop: Header=BB41_14 Depth=2
	movslq	%edi, %rdi
	movzwl	(%rsi,%rdi,2), %esi
	addl	%esi, %edx
	imull	%edx, %ecx
	addl	%ecx, %eax
	movl	ONE_FOURTH_TAP+16, %ecx
	movq	-104(%rbp), %rdx
	movslq	-84(%rbp), %rsi
	movq	(%rdx,%rsi,8), %rdx
	movq	-64(%rbp), %rsi
	movl	6392(%rsi), %esi
	subl	$1, %esi
	movl	-44(%rbp), %edi
	subl	$2, %edi
	cmpl	%edi, %esi
	jge	.LBB41_62
# %bb.61:                               # %cond.true222
                                        #   in Loop: Header=BB41_14 Depth=2
	movq	-64(%rbp), %rsi
	movl	6392(%rsi), %esi
	subl	$1, %esi
	jmp	.LBB41_63
.LBB41_62:                              # %cond.false225
                                        #   in Loop: Header=BB41_14 Depth=2
	movl	-44(%rbp), %esi
	subl	$2, %esi
.LBB41_63:                              # %cond.end227
                                        #   in Loop: Header=BB41_14 Depth=2
	xorl	%edi, %edi
	cmpl	%esi, %edi
	jle	.LBB41_65
# %bb.64:                               # %cond.true231
                                        #   in Loop: Header=BB41_14 Depth=2
	xorl	%esi, %esi
	jmp	.LBB41_69
.LBB41_65:                              # %cond.false232
                                        #   in Loop: Header=BB41_14 Depth=2
	movq	-64(%rbp), %rsi
	movl	6392(%rsi), %esi
	subl	$1, %esi
	movl	-44(%rbp), %edi
	subl	$2, %edi
	cmpl	%edi, %esi
	jge	.LBB41_67
# %bb.66:                               # %cond.true238
                                        #   in Loop: Header=BB41_14 Depth=2
	movq	-64(%rbp), %rsi
	movl	6392(%rsi), %esi
	subl	$1, %esi
	jmp	.LBB41_68
.LBB41_67:                              # %cond.false241
                                        #   in Loop: Header=BB41_14 Depth=2
	movl	-44(%rbp), %esi
	subl	$2, %esi
.LBB41_68:                              # %cond.end243
                                        #   in Loop: Header=BB41_14 Depth=2
.LBB41_69:                              # %cond.end245
                                        #   in Loop: Header=BB41_14 Depth=2
	movslq	%esi, %rsi
	movzwl	(%rdx,%rsi,2), %edx
	movq	-104(%rbp), %rsi
	movslq	-84(%rbp), %rdi
	movq	(%rsi,%rdi,8), %rsi
	movq	-64(%rbp), %rdi
	movl	6392(%rdi), %edi
	subl	$1, %edi
	movl	-44(%rbp), %ebx
	addl	$3, %ebx
	cmpl	%ebx, %edi
	jge	.LBB41_71
# %bb.70:                               # %cond.true257
                                        #   in Loop: Header=BB41_14 Depth=2
	movq	-64(%rbp), %rdi
	movl	6392(%rdi), %edi
	subl	$1, %edi
	jmp	.LBB41_72
.LBB41_71:                              # %cond.false260
                                        #   in Loop: Header=BB41_14 Depth=2
	movl	-44(%rbp), %edi
	addl	$3, %edi
.LBB41_72:                              # %cond.end262
                                        #   in Loop: Header=BB41_14 Depth=2
	xorl	%ebx, %ebx
	cmpl	%edi, %ebx
	jle	.LBB41_74
# %bb.73:                               # %cond.true266
                                        #   in Loop: Header=BB41_14 Depth=2
	xorl	%edi, %edi
	jmp	.LBB41_78
.LBB41_74:                              # %cond.false267
                                        #   in Loop: Header=BB41_14 Depth=2
	movq	-64(%rbp), %rdi
	movl	6392(%rdi), %edi
	subl	$1, %edi
	movl	-44(%rbp), %ebx
	addl	$3, %ebx
	cmpl	%ebx, %edi
	jge	.LBB41_76
# %bb.75:                               # %cond.true273
                                        #   in Loop: Header=BB41_14 Depth=2
	movq	-64(%rbp), %rdi
	movl	6392(%rdi), %edi
	subl	$1, %edi
	jmp	.LBB41_77
.LBB41_76:                              # %cond.false276
                                        #   in Loop: Header=BB41_14 Depth=2
	movl	-44(%rbp), %edi
	addl	$3, %edi
.LBB41_77:                              # %cond.end278
                                        #   in Loop: Header=BB41_14 Depth=2
.LBB41_78:                              # %cond.end280
                                        #   in Loop: Header=BB41_14 Depth=2
	movslq	%edi, %rdi
	movzwl	(%rsi,%rdi,2), %esi
	addl	%esi, %edx
	imull	%edx, %ecx
	addl	%ecx, %eax
	movl	%eax, -92(%rbp)
	movq	-104(%rbp), %rax
	movslq	-84(%rbp), %rcx
	movq	(%rax,%rcx,8), %rax
	movq	-64(%rbp), %rcx
	movl	6392(%rcx), %ecx
	subl	$1, %ecx
	cmpl	-44(%rbp), %ecx
	jge	.LBB41_80
# %bb.79:                               # %cond.true294
                                        #   in Loop: Header=BB41_14 Depth=2
	movq	-64(%rbp), %rcx
	movl	6392(%rcx), %ecx
	subl	$1, %ecx
	jmp	.LBB41_81
.LBB41_80:                              # %cond.false297
                                        #   in Loop: Header=BB41_14 Depth=2
	movl	-44(%rbp), %ecx
.LBB41_81:                              # %cond.end298
                                        #   in Loop: Header=BB41_14 Depth=2
	xorl	%edx, %edx
	cmpl	%ecx, %edx
	jle	.LBB41_83
# %bb.82:                               # %cond.true302
                                        #   in Loop: Header=BB41_14 Depth=2
	xorl	%ecx, %ecx
	jmp	.LBB41_87
.LBB41_83:                              # %cond.false303
                                        #   in Loop: Header=BB41_14 Depth=2
	movq	-64(%rbp), %rcx
	movl	6392(%rcx), %ecx
	subl	$1, %ecx
	cmpl	-44(%rbp), %ecx
	jge	.LBB41_85
# %bb.84:                               # %cond.true308
                                        #   in Loop: Header=BB41_14 Depth=2
	movq	-64(%rbp), %rcx
	movl	6392(%rcx), %ecx
	subl	$1, %ecx
	jmp	.LBB41_86
.LBB41_85:                              # %cond.false311
                                        #   in Loop: Header=BB41_14 Depth=2
	movl	-44(%rbp), %ecx
.LBB41_86:                              # %cond.end312
                                        #   in Loop: Header=BB41_14 Depth=2
.LBB41_87:                              # %cond.end314
                                        #   in Loop: Header=BB41_14 Depth=2
	movslq	%ecx, %rcx
	movzwl	(%rax,%rcx,2), %eax
	shll	$10, %eax
	movq	img4Y_tmp, %rcx
	movl	-48(%rbp), %edx
	addl	$4, %edx
	movslq	%edx, %rdx
	movq	(%rcx,%rdx,8), %rcx
	movl	-44(%rbp), %edx
	addl	$4, %edx
	shll	$1, %edx
	movslq	%edx, %rdx
	movl	%eax, (%rcx,%rdx,4)
	movl	-92(%rbp), %eax
	shll	$5, %eax
	movq	img4Y_tmp, %rcx
	movl	-48(%rbp), %edx
	addl	$4, %edx
	movslq	%edx, %rdx
	movq	(%rcx,%rdx,8), %rcx
	movl	-44(%rbp), %edx
	addl	$4, %edx
	shll	$1, %edx
	addl	$1, %edx
	movslq	%edx, %rdx
	movl	%eax, (%rcx,%rdx,4)
# %bb.88:                               # %for.inc
                                        #   in Loop: Header=BB41_14 Depth=2
	movl	-44(%rbp), %eax
	addl	$1, %eax
	movl	%eax, -44(%rbp)
	jmp	.LBB41_14
.LBB41_89:                              # %for.end
                                        #   in Loop: Header=BB41_12 Depth=1
	jmp	.LBB41_90
.LBB41_90:                              # %for.inc336
                                        #   in Loop: Header=BB41_12 Depth=1
	movl	-48(%rbp), %eax
	addl	$1, %eax
	movl	%eax, -48(%rbp)
	jmp	.LBB41_12
.LBB41_91:                              # %for.end338
	movl	$0, -44(%rbp)
.LBB41_92:                              # %for.cond339
                                        # =>This Loop Header: Depth=1
                                        #     Child Loop BB41_94 Depth 2
	movl	-44(%rbp), %eax
	movq	-64(%rbp), %rcx
	movl	6392(%rcx), %ecx
	addl	$8, %ecx
	shll	$1, %ecx
	cmpl	%ecx, %eax
	jge	.LBB41_132
# %bb.93:                               # %for.body345
                                        #   in Loop: Header=BB41_92 Depth=1
	movl	$0, -48(%rbp)
.LBB41_94:                              # %for.cond346
                                        #   Parent Loop BB41_92 Depth=1
                                        # =>  This Inner Loop Header: Depth=2
	movl	-48(%rbp), %eax
	movq	-64(%rbp), %rcx
	movl	6396(%rcx), %ecx
	addl	$8, %ecx
	cmpl	%ecx, %eax
	jge	.LBB41_130
# %bb.95:                               # %for.body351
                                        #   in Loop: Header=BB41_94 Depth=2
	movl	-48(%rbp), %eax
	shll	$2, %eax
	movl	%eax, -124(%rbp)
	movq	-64(%rbp), %rax
	movl	6396(%rax), %eax
	addl	$8, %eax
	subl	$1, %eax
	movl	%eax, -88(%rbp)
	movl	ONE_FOURTH_TAP, %eax
	movq	img4Y_tmp, %rcx
	movslq	-48(%rbp), %rdx
	movq	(%rcx,%rdx,8), %rcx
	movslq	-44(%rbp), %rdx
	movl	(%rcx,%rdx,4), %ecx
	movq	img4Y_tmp, %rdx
	movl	-88(%rbp), %esi
	movl	-48(%rbp), %edi
	addl	$1, %edi
	cmpl	%edi, %esi
	jge	.LBB41_97
# %bb.96:                               # %cond.true363
                                        #   in Loop: Header=BB41_94 Depth=2
	movl	-88(%rbp), %esi
	jmp	.LBB41_98
.LBB41_97:                              # %cond.false364
                                        #   in Loop: Header=BB41_94 Depth=2
	movl	-48(%rbp), %esi
	addl	$1, %esi
.LBB41_98:                              # %cond.end366
                                        #   in Loop: Header=BB41_94 Depth=2
	xorl	%edi, %edi
	movslq	%esi, %rsi
	movq	(%rdx,%rsi,8), %rdx
	movslq	-44(%rbp), %rsi
	addl	(%rdx,%rsi,4), %ecx
	imull	%ecx, %eax
	movl	ONE_FOURTH_TAP+8, %ecx
	movq	img4Y_tmp, %rdx
	movl	-48(%rbp), %esi
	subl	$1, %esi
	cmpl	%esi, %edi
	jle	.LBB41_100
# %bb.99:                               # %cond.true377
                                        #   in Loop: Header=BB41_94 Depth=2
	xorl	%esi, %esi
	jmp	.LBB41_101
.LBB41_100:                             # %cond.false378
                                        #   in Loop: Header=BB41_94 Depth=2
	movl	-48(%rbp), %esi
	subl	$1, %esi
.LBB41_101:                             # %cond.end380
                                        #   in Loop: Header=BB41_94 Depth=2
	movslq	%esi, %rsi
	movq	(%rdx,%rsi,8), %rdx
	movslq	-44(%rbp), %rsi
	movl	(%rdx,%rsi,4), %edx
	movq	img4Y_tmp, %rsi
	movl	-88(%rbp), %edi
	movl	-48(%rbp), %ebx
	addl	$2, %ebx
	cmpl	%ebx, %edi
	jge	.LBB41_103
# %bb.102:                              # %cond.true389
                                        #   in Loop: Header=BB41_94 Depth=2
	movl	-88(%rbp), %edi
	jmp	.LBB41_104
.LBB41_103:                             # %cond.false390
                                        #   in Loop: Header=BB41_94 Depth=2
	movl	-48(%rbp), %edi
	addl	$2, %edi
.LBB41_104:                             # %cond.end392
                                        #   in Loop: Header=BB41_94 Depth=2
	xorl	%ebx, %ebx
	movslq	%edi, %rdi
	movq	(%rsi,%rdi,8), %rsi
	movslq	-44(%rbp), %rdi
	addl	(%rsi,%rdi,4), %edx
	imull	%edx, %ecx
	addl	%ecx, %eax
	movl	ONE_FOURTH_TAP+16, %ecx
	movq	img4Y_tmp, %rdx
	movl	-48(%rbp), %esi
	subl	$2, %esi
	cmpl	%esi, %ebx
	jle	.LBB41_106
# %bb.105:                              # %cond.true404
                                        #   in Loop: Header=BB41_94 Depth=2
	xorl	%esi, %esi
	jmp	.LBB41_107
.LBB41_106:                             # %cond.false405
                                        #   in Loop: Header=BB41_94 Depth=2
	movl	-48(%rbp), %esi
	subl	$2, %esi
.LBB41_107:                             # %cond.end407
                                        #   in Loop: Header=BB41_94 Depth=2
	movslq	%esi, %rsi
	movq	(%rdx,%rsi,8), %rdx
	movslq	-44(%rbp), %rsi
	movl	(%rdx,%rsi,4), %edx
	movq	img4Y_tmp, %rsi
	movl	-88(%rbp), %edi
	movl	-48(%rbp), %ebx
	addl	$3, %ebx
	cmpl	%ebx, %edi
	jge	.LBB41_109
# %bb.108:                              # %cond.true416
                                        #   in Loop: Header=BB41_94 Depth=2
	movl	-88(%rbp), %edi
	jmp	.LBB41_110
.LBB41_109:                             # %cond.false417
                                        #   in Loop: Header=BB41_94 Depth=2
	movl	-48(%rbp), %edi
	addl	$3, %edi
.LBB41_110:                             # %cond.end419
                                        #   in Loop: Header=BB41_94 Depth=2
	movslq	%edi, %rdi
	movq	(%rsi,%rdi,8), %rsi
	movslq	-44(%rbp), %rdi
	addl	(%rsi,%rdi,4), %edx
	imull	%edx, %ecx
	addl	%ecx, %eax
	cltd
	movl	$32, %ecx
	idivl	%ecx
	movl	%eax, -92(%rbp)
	movq	-80(%rbp), %rdi
	movl	-48(%rbp), %esi
	subl	$4, %esi
	shll	$2, %esi
	movl	-44(%rbp), %r8d
	subl	$8, %r8d
	shll	$1, %r8d
	movq	img, %rax
	movl	72684(%rax), %ebx
	movq	img4Y_tmp, %rax
	movslq	-48(%rbp), %rdx
	movq	(%rax,%rdx,8), %rax
	movslq	-44(%rbp), %rdx
	movl	(%rax,%rdx,4), %eax
	addl	$512, %eax              # imm = 0x200
	cltd
	movl	$1024, %ecx             # imm = 0x400
	idivl	%ecx
	cmpl	%eax, %ebx
	jge	.LBB41_112
# %bb.111:                              # %cond.true440
                                        #   in Loop: Header=BB41_94 Depth=2
	movq	img, %rax
	movl	72684(%rax), %eax
	jmp	.LBB41_113
.LBB41_112:                             # %cond.false442
                                        #   in Loop: Header=BB41_94 Depth=2
	movq	img4Y_tmp, %rax
	movslq	-48(%rbp), %rcx
	movq	(%rax,%rcx,8), %rax
	movslq	-44(%rbp), %rcx
	movl	(%rax,%rcx,4), %eax
	addl	$512, %eax              # imm = 0x200
	cltd
	movl	$1024, %ecx             # imm = 0x400
	idivl	%ecx
.LBB41_113:                             # %cond.end449
                                        #   in Loop: Header=BB41_94 Depth=2
	xorl	%ecx, %ecx
	cmpl	%eax, %ecx
	jle	.LBB41_115
# %bb.114:                              # %cond.true453
                                        #   in Loop: Header=BB41_94 Depth=2
	xorl	%eax, %eax
	jmp	.LBB41_119
.LBB41_115:                             # %cond.false454
                                        #   in Loop: Header=BB41_94 Depth=2
	movq	img, %rax
	movl	72684(%rax), %ecx
	movq	img4Y_tmp, %rax
	movslq	-48(%rbp), %rdx
	movq	(%rax,%rdx,8), %rax
	movslq	-44(%rbp), %rdx
	movl	(%rax,%rdx,4), %eax
	addl	$512, %eax              # imm = 0x200
	cltd
	movl	$1024, %ebx             # imm = 0x400
	idivl	%ebx
	cmpl	%eax, %ecx
	jge	.LBB41_117
# %bb.116:                              # %cond.true464
                                        #   in Loop: Header=BB41_94 Depth=2
	movq	img, %rax
	movl	72684(%rax), %eax
	jmp	.LBB41_118
.LBB41_117:                             # %cond.false466
                                        #   in Loop: Header=BB41_94 Depth=2
	movq	img4Y_tmp, %rax
	movslq	-48(%rbp), %rcx
	movq	(%rax,%rcx,8), %rax
	movslq	-44(%rbp), %rcx
	movl	(%rax,%rcx,4), %eax
	addl	$512, %eax              # imm = 0x200
	cltd
	movl	$1024, %ecx             # imm = 0x400
	idivl	%ecx
.LBB41_118:                             # %cond.end473
                                        #   in Loop: Header=BB41_94 Depth=2
.LBB41_119:                             # %cond.end475
                                        #   in Loop: Header=BB41_94 Depth=2
	movl	%r8d, %edx
	movzwl	%ax, %ecx
	callq	PutPel_14
	movq	-80(%rbp), %rdi
	movl	-48(%rbp), %esi
	subl	$4, %esi
	shll	$2, %esi
	addl	$2, %esi
	movl	-44(%rbp), %ecx
	subl	$8, %ecx
	shll	$1, %ecx
	movq	img, %rax
	movl	72684(%rax), %r8d
	movl	-92(%rbp), %eax
	addl	$512, %eax              # imm = 0x200
	cltd
	movl	$1024, %ebx             # imm = 0x400
	idivl	%ebx
	cmpl	%eax, %r8d
	jge	.LBB41_121
# %bb.120:                              # %cond.true488
                                        #   in Loop: Header=BB41_94 Depth=2
	movq	img, %rax
	movl	72684(%rax), %eax
	jmp	.LBB41_122
.LBB41_121:                             # %cond.false490
                                        #   in Loop: Header=BB41_94 Depth=2
	movl	-92(%rbp), %eax
	addl	$512, %eax              # imm = 0x200
	cltd
	movl	$1024, %ebx             # imm = 0x400
	idivl	%ebx
.LBB41_122:                             # %cond.end493
                                        #   in Loop: Header=BB41_94 Depth=2
	xorl	%edx, %edx
	cmpl	%eax, %edx
	jle	.LBB41_124
# %bb.123:                              # %cond.true497
                                        #   in Loop: Header=BB41_94 Depth=2
	xorl	%eax, %eax
	jmp	.LBB41_128
.LBB41_124:                             # %cond.false498
                                        #   in Loop: Header=BB41_94 Depth=2
	movq	img, %rax
	movl	72684(%rax), %r8d
	movl	-92(%rbp), %eax
	addl	$512, %eax              # imm = 0x200
	cltd
	movl	$1024, %ebx             # imm = 0x400
	idivl	%ebx
	cmpl	%eax, %r8d
	jge	.LBB41_126
# %bb.125:                              # %cond.true504
                                        #   in Loop: Header=BB41_94 Depth=2
	movq	img, %rax
	movl	72684(%rax), %eax
	jmp	.LBB41_127
.LBB41_126:                             # %cond.false506
                                        #   in Loop: Header=BB41_94 Depth=2
	movl	-92(%rbp), %eax
	addl	$512, %eax              # imm = 0x200
	cltd
	movl	$1024, %ebx             # imm = 0x400
	idivl	%ebx
.LBB41_127:                             # %cond.end509
                                        #   in Loop: Header=BB41_94 Depth=2
.LBB41_128:                             # %cond.end511
                                        #   in Loop: Header=BB41_94 Depth=2
	movl	%ecx, %edx
	movzwl	%ax, %ecx
	callq	PutPel_14
# %bb.129:                              # %for.inc514
                                        #   in Loop: Header=BB41_94 Depth=2
	movl	-48(%rbp), %eax
	addl	$1, %eax
	movl	%eax, -48(%rbp)
	jmp	.LBB41_94
.LBB41_130:                             # %for.end516
                                        #   in Loop: Header=BB41_92 Depth=1
	jmp	.LBB41_131
.LBB41_131:                             # %for.inc517
                                        #   in Loop: Header=BB41_92 Depth=1
	movl	-44(%rbp), %eax
	addl	$1, %eax
	movl	%eax, -44(%rbp)
	jmp	.LBB41_92
.LBB41_132:                             # %for.end519
	movq	-64(%rbp), %rax
	movl	6392(%rax), %eax
	addl	$8, %eax
	subl	$1, %eax
	shll	$2, %eax
	movl	%eax, -68(%rbp)
	movq	-64(%rbp), %rax
	movl	6396(%rax), %eax
	addl	$8, %eax
	subl	$1, %eax
	shll	$2, %eax
	movl	%eax, -72(%rbp)
	movl	$0, -48(%rbp)
.LBB41_133:                             # %for.cond528
                                        # =>This Loop Header: Depth=1
                                        #     Child Loop BB41_135 Depth 2
	movl	-48(%rbp), %eax
	movl	-72(%rbp), %ecx
	addl	$4, %ecx
	cmpl	%ecx, %eax
	jge	.LBB41_161
# %bb.134:                              # %for.body532
                                        #   in Loop: Header=BB41_133 Depth=1
	movl	$0, -44(%rbp)
.LBB41_135:                             # %for.cond533
                                        #   Parent Loop BB41_133 Depth=1
                                        # =>  This Inner Loop Header: Depth=2
	movl	-44(%rbp), %eax
	movl	-68(%rbp), %ecx
	addl	$3, %ecx
	cmpl	%ecx, %eax
	jge	.LBB41_159
# %bb.136:                              # %for.body537
                                        #   in Loop: Header=BB41_135 Depth=2
	movq	-80(%rbp), %r14
	movl	-48(%rbp), %r15d
	subl	$16, %r15d
	movl	-44(%rbp), %r12d
	subl	$16, %r12d
	addl	$1, %r12d
	movq	img, %rax
	movl	72684(%rax), %r13d
	movq	-80(%rbp), %rdi
	movl	-48(%rbp), %esi
	subl	$16, %esi
	movl	-44(%rbp), %edx
	subl	$16, %edx
	movl	-52(%rbp), %ecx
	movl	-56(%rbp), %r8d
	callq	FastPelY_14
	movzwl	%ax, %ebx
	movq	-80(%rbp), %rdi
	movl	-48(%rbp), %esi
	subl	$16, %esi
	movl	-68(%rbp), %eax
	addl	$2, %eax
	movl	-44(%rbp), %ecx
	addl	$2, %ecx
	cmpl	%ecx, %eax
	jge	.LBB41_138
# %bb.137:                              # %cond.true551
                                        #   in Loop: Header=BB41_135 Depth=2
	movl	-68(%rbp), %edx
	addl	$2, %edx
	jmp	.LBB41_139
.LBB41_138:                             # %cond.false553
                                        #   in Loop: Header=BB41_135 Depth=2
	movl	-44(%rbp), %edx
	addl	$2, %edx
.LBB41_139:                             # %cond.end555
                                        #   in Loop: Header=BB41_135 Depth=2
	subl	$16, %edx
	movl	-52(%rbp), %ecx
	movl	-56(%rbp), %r8d
	callq	FastPelY_14
	movzwl	%ax, %eax
	addl	%eax, %ebx
	addl	$1, %ebx
	movl	%ebx, %eax
	cltd
	movl	$2, %ecx
	idivl	%ecx
	cmpl	%eax, %r13d
	jge	.LBB41_141
# %bb.140:                              # %cond.true565
                                        #   in Loop: Header=BB41_135 Depth=2
	movq	img, %rax
	movl	72684(%rax), %eax
	jmp	.LBB41_145
.LBB41_141:                             # %cond.false567
                                        #   in Loop: Header=BB41_135 Depth=2
	movq	-80(%rbp), %rdi
	movl	-48(%rbp), %esi
	subl	$16, %esi
	movl	-44(%rbp), %edx
	subl	$16, %edx
	movl	-52(%rbp), %ecx
	movl	-56(%rbp), %r8d
	callq	FastPelY_14
	movzwl	%ax, %ebx
	movq	-80(%rbp), %rdi
	movl	-48(%rbp), %esi
	subl	$16, %esi
	movl	-68(%rbp), %eax
	addl	$2, %eax
	movl	-44(%rbp), %ecx
	addl	$2, %ecx
	cmpl	%ecx, %eax
	jge	.LBB41_143
# %bb.142:                              # %cond.true577
                                        #   in Loop: Header=BB41_135 Depth=2
	movl	-68(%rbp), %edx
	addl	$2, %edx
	jmp	.LBB41_144
.LBB41_143:                             # %cond.false579
                                        #   in Loop: Header=BB41_135 Depth=2
	movl	-44(%rbp), %edx
	addl	$2, %edx
.LBB41_144:                             # %cond.end581
                                        #   in Loop: Header=BB41_135 Depth=2
	subl	$16, %edx
	movl	-52(%rbp), %ecx
	movl	-56(%rbp), %r8d
	callq	FastPelY_14
	movzwl	%ax, %eax
	addl	%eax, %ebx
	addl	$1, %ebx
	movl	%ebx, %eax
	cltd
	movl	$2, %ecx
	idivl	%ecx
.LBB41_145:                             # %cond.end589
                                        #   in Loop: Header=BB41_135 Depth=2
	xorl	%ecx, %ecx
	cmpl	%eax, %ecx
	jle	.LBB41_147
# %bb.146:                              # %cond.true593
                                        #   in Loop: Header=BB41_135 Depth=2
	xorl	%eax, %eax
	jmp	.LBB41_157
.LBB41_147:                             # %cond.false594
                                        #   in Loop: Header=BB41_135 Depth=2
	movq	img, %rax
	movl	72684(%rax), %r13d
	movq	-80(%rbp), %rdi
	movl	-48(%rbp), %esi
	subl	$16, %esi
	movl	-44(%rbp), %edx
	subl	$16, %edx
	movl	-52(%rbp), %ecx
	movl	-56(%rbp), %r8d
	callq	FastPelY_14
	movzwl	%ax, %ebx
	movq	-80(%rbp), %rdi
	movl	-48(%rbp), %esi
	subl	$16, %esi
	movl	-68(%rbp), %eax
	addl	$2, %eax
	movl	-44(%rbp), %ecx
	addl	$2, %ecx
	cmpl	%ecx, %eax
	jge	.LBB41_149
# %bb.148:                              # %cond.true605
                                        #   in Loop: Header=BB41_135 Depth=2
	movl	-68(%rbp), %edx
	addl	$2, %edx
	jmp	.LBB41_150
.LBB41_149:                             # %cond.false607
                                        #   in Loop: Header=BB41_135 Depth=2
	movl	-44(%rbp), %edx
	addl	$2, %edx
.LBB41_150:                             # %cond.end609
                                        #   in Loop: Header=BB41_135 Depth=2
	subl	$16, %edx
	movl	-52(%rbp), %ecx
	movl	-56(%rbp), %r8d
	callq	FastPelY_14
	movzwl	%ax, %eax
	addl	%eax, %ebx
	addl	$1, %ebx
	movl	%ebx, %eax
	cltd
	movl	$2, %ecx
	idivl	%ecx
	cmpl	%eax, %r13d
	jge	.LBB41_152
# %bb.151:                              # %cond.true619
                                        #   in Loop: Header=BB41_135 Depth=2
	movq	img, %rax
	movl	72684(%rax), %eax
	jmp	.LBB41_156
.LBB41_152:                             # %cond.false621
                                        #   in Loop: Header=BB41_135 Depth=2
	movq	-80(%rbp), %rdi
	movl	-48(%rbp), %esi
	subl	$16, %esi
	movl	-44(%rbp), %edx
	subl	$16, %edx
	movl	-52(%rbp), %ecx
	movl	-56(%rbp), %r8d
	callq	FastPelY_14
	movzwl	%ax, %ebx
	movq	-80(%rbp), %rdi
	movl	-48(%rbp), %esi
	subl	$16, %esi
	movl	-68(%rbp), %eax
	addl	$2, %eax
	movl	-44(%rbp), %ecx
	addl	$2, %ecx
	cmpl	%ecx, %eax
	jge	.LBB41_154
# %bb.153:                              # %cond.true631
                                        #   in Loop: Header=BB41_135 Depth=2
	movl	-68(%rbp), %edx
	addl	$2, %edx
	jmp	.LBB41_155
.LBB41_154:                             # %cond.false633
                                        #   in Loop: Header=BB41_135 Depth=2
	movl	-44(%rbp), %edx
	addl	$2, %edx
.LBB41_155:                             # %cond.end635
                                        #   in Loop: Header=BB41_135 Depth=2
	subl	$16, %edx
	movl	-52(%rbp), %ecx
	movl	-56(%rbp), %r8d
	callq	FastPelY_14
	movzwl	%ax, %eax
	addl	%eax, %ebx
	addl	$1, %ebx
	movl	%ebx, %eax
	cltd
	movl	$2, %ecx
	idivl	%ecx
.LBB41_156:                             # %cond.end643
                                        #   in Loop: Header=BB41_135 Depth=2
.LBB41_157:                             # %cond.end645
                                        #   in Loop: Header=BB41_135 Depth=2
	movq	%r14, %rdi
	movl	%r15d, %esi
	movl	%r12d, %edx
	movzwl	%ax, %ecx
	callq	PutPel_14
# %bb.158:                              # %for.inc648
                                        #   in Loop: Header=BB41_135 Depth=2
	movl	-44(%rbp), %eax
	addl	$2, %eax
	movl	%eax, -44(%rbp)
	jmp	.LBB41_135
.LBB41_159:                             # %for.end650
                                        #   in Loop: Header=BB41_133 Depth=1
	jmp	.LBB41_160
.LBB41_160:                             # %for.inc651
                                        #   in Loop: Header=BB41_133 Depth=1
	movl	-48(%rbp), %eax
	addl	$2, %eax
	movl	%eax, -48(%rbp)
	jmp	.LBB41_133
.LBB41_161:                             # %for.end653
	movl	$0, -44(%rbp)
.LBB41_162:                             # %for.cond654
                                        # =>This Loop Header: Depth=1
                                        #     Child Loop BB41_164 Depth 2
	movl	-44(%rbp), %eax
	movl	-68(%rbp), %ecx
	addl	$4, %ecx
	cmpl	%ecx, %eax
	jge	.LBB41_265
# %bb.163:                              # %for.body658
                                        #   in Loop: Header=BB41_162 Depth=1
	movl	$0, -48(%rbp)
.LBB41_164:                             # %for.cond659
                                        #   Parent Loop BB41_162 Depth=1
                                        # =>  This Inner Loop Header: Depth=2
	movl	-48(%rbp), %eax
	movl	-72(%rbp), %ecx
	addl	$3, %ecx
	cmpl	%ecx, %eax
	jge	.LBB41_263
# %bb.165:                              # %for.body663
                                        #   in Loop: Header=BB41_164 Depth=2
	movl	-44(%rbp), %eax
	cltd
	movl	$2, %ecx
	idivl	%ecx
	cmpl	$0, %edx
	jne	.LBB41_188
# %bb.166:                              # %if.then666
                                        #   in Loop: Header=BB41_164 Depth=2
	movq	-80(%rbp), %r14
	movl	-48(%rbp), %r12d
	subl	$16, %r12d
	addl	$1, %r12d
	movl	-44(%rbp), %r15d
	subl	$16, %r15d
	movq	img, %rax
	movl	72684(%rax), %r13d
	movq	-80(%rbp), %rdi
	movl	-48(%rbp), %esi
	subl	$16, %esi
	movl	-44(%rbp), %edx
	subl	$16, %edx
	movl	-52(%rbp), %ecx
	movl	-56(%rbp), %r8d
	callq	FastPelY_14
	movzwl	%ax, %ebx
	movq	-80(%rbp), %rdi
	movl	-72(%rbp), %eax
	addl	$2, %eax
	movl	-48(%rbp), %ecx
	addl	$2, %ecx
	cmpl	%ecx, %eax
	jge	.LBB41_168
# %bb.167:                              # %cond.true679
                                        #   in Loop: Header=BB41_164 Depth=2
	movl	-72(%rbp), %esi
	addl	$2, %esi
	jmp	.LBB41_169
.LBB41_168:                             # %cond.false681
                                        #   in Loop: Header=BB41_164 Depth=2
	movl	-48(%rbp), %esi
	addl	$2, %esi
.LBB41_169:                             # %cond.end683
                                        #   in Loop: Header=BB41_164 Depth=2
	subl	$16, %esi
	movl	-44(%rbp), %edx
	subl	$16, %edx
	movl	-52(%rbp), %ecx
	movl	-56(%rbp), %r8d
	callq	FastPelY_14
	movzwl	%ax, %eax
	addl	%eax, %ebx
	addl	$1, %ebx
	movl	%ebx, %eax
	cltd
	movl	$2, %ecx
	idivl	%ecx
	cmpl	%eax, %r13d
	jge	.LBB41_171
# %bb.170:                              # %cond.true694
                                        #   in Loop: Header=BB41_164 Depth=2
	movq	img, %rax
	movl	72684(%rax), %eax
	jmp	.LBB41_175
.LBB41_171:                             # %cond.false696
                                        #   in Loop: Header=BB41_164 Depth=2
	movq	-80(%rbp), %rdi
	movl	-48(%rbp), %esi
	subl	$16, %esi
	movl	-44(%rbp), %edx
	subl	$16, %edx
	movl	-52(%rbp), %ecx
	movl	-56(%rbp), %r8d
	callq	FastPelY_14
	movzwl	%ax, %ebx
	movq	-80(%rbp), %rdi
	movl	-72(%rbp), %eax
	addl	$2, %eax
	movl	-48(%rbp), %ecx
	addl	$2, %ecx
	cmpl	%ecx, %eax
	jge	.LBB41_173
# %bb.172:                              # %cond.true705
                                        #   in Loop: Header=BB41_164 Depth=2
	movl	-72(%rbp), %esi
	addl	$2, %esi
	jmp	.LBB41_174
.LBB41_173:                             # %cond.false707
                                        #   in Loop: Header=BB41_164 Depth=2
	movl	-48(%rbp), %esi
	addl	$2, %esi
.LBB41_174:                             # %cond.end709
                                        #   in Loop: Header=BB41_164 Depth=2
	subl	$16, %esi
	movl	-44(%rbp), %edx
	subl	$16, %edx
	movl	-52(%rbp), %ecx
	movl	-56(%rbp), %r8d
	callq	FastPelY_14
	movzwl	%ax, %eax
	addl	%eax, %ebx
	addl	$1, %ebx
	movl	%ebx, %eax
	cltd
	movl	$2, %ecx
	idivl	%ecx
.LBB41_175:                             # %cond.end718
                                        #   in Loop: Header=BB41_164 Depth=2
	xorl	%ecx, %ecx
	cmpl	%eax, %ecx
	jle	.LBB41_177
# %bb.176:                              # %cond.true722
                                        #   in Loop: Header=BB41_164 Depth=2
	xorl	%eax, %eax
	jmp	.LBB41_187
.LBB41_177:                             # %cond.false723
                                        #   in Loop: Header=BB41_164 Depth=2
	movq	img, %rax
	movl	72684(%rax), %r13d
	movq	-80(%rbp), %rdi
	movl	-48(%rbp), %esi
	subl	$16, %esi
	movl	-44(%rbp), %edx
	subl	$16, %edx
	movl	-52(%rbp), %ecx
	movl	-56(%rbp), %r8d
	callq	FastPelY_14
	movzwl	%ax, %ebx
	movq	-80(%rbp), %rdi
	movl	-72(%rbp), %eax
	addl	$2, %eax
	movl	-48(%rbp), %ecx
	addl	$2, %ecx
	cmpl	%ecx, %eax
	jge	.LBB41_179
# %bb.178:                              # %cond.true733
                                        #   in Loop: Header=BB41_164 Depth=2
	movl	-72(%rbp), %esi
	addl	$2, %esi
	jmp	.LBB41_180
.LBB41_179:                             # %cond.false735
                                        #   in Loop: Header=BB41_164 Depth=2
	movl	-48(%rbp), %esi
	addl	$2, %esi
.LBB41_180:                             # %cond.end737
                                        #   in Loop: Header=BB41_164 Depth=2
	subl	$16, %esi
	movl	-44(%rbp), %edx
	subl	$16, %edx
	movl	-52(%rbp), %ecx
	movl	-56(%rbp), %r8d
	callq	FastPelY_14
	movzwl	%ax, %eax
	addl	%eax, %ebx
	addl	$1, %ebx
	movl	%ebx, %eax
	cltd
	movl	$2, %ecx
	idivl	%ecx
	cmpl	%eax, %r13d
	jge	.LBB41_182
# %bb.181:                              # %cond.true748
                                        #   in Loop: Header=BB41_164 Depth=2
	movq	img, %rax
	movl	72684(%rax), %eax
	jmp	.LBB41_186
.LBB41_182:                             # %cond.false750
                                        #   in Loop: Header=BB41_164 Depth=2
	movq	-80(%rbp), %rdi
	movl	-48(%rbp), %esi
	subl	$16, %esi
	movl	-44(%rbp), %edx
	subl	$16, %edx
	movl	-52(%rbp), %ecx
	movl	-56(%rbp), %r8d
	callq	FastPelY_14
	movzwl	%ax, %ebx
	movq	-80(%rbp), %rdi
	movl	-72(%rbp), %eax
	addl	$2, %eax
	movl	-48(%rbp), %ecx
	addl	$2, %ecx
	cmpl	%ecx, %eax
	jge	.LBB41_184
# %bb.183:                              # %cond.true759
                                        #   in Loop: Header=BB41_164 Depth=2
	movl	-72(%rbp), %esi
	addl	$2, %esi
	jmp	.LBB41_185
.LBB41_184:                             # %cond.false761
                                        #   in Loop: Header=BB41_164 Depth=2
	movl	-48(%rbp), %esi
	addl	$2, %esi
.LBB41_185:                             # %cond.end763
                                        #   in Loop: Header=BB41_164 Depth=2
	subl	$16, %esi
	movl	-44(%rbp), %edx
	subl	$16, %edx
	movl	-52(%rbp), %ecx
	movl	-56(%rbp), %r8d
	callq	FastPelY_14
	movzwl	%ax, %eax
	addl	%eax, %ebx
	addl	$1, %ebx
	movl	%ebx, %eax
	cltd
	movl	$2, %ecx
	idivl	%ecx
.LBB41_186:                             # %cond.end772
                                        #   in Loop: Header=BB41_164 Depth=2
.LBB41_187:                             # %cond.end774
                                        #   in Loop: Header=BB41_164 Depth=2
	movq	%r14, %rdi
	movl	%r12d, %esi
	movl	%r15d, %edx
	movzwl	%ax, %ecx
	callq	PutPel_14
	jmp	.LBB41_261
.LBB41_188:                             # %if.else
                                        #   in Loop: Header=BB41_164 Depth=2
	movl	-48(%rbp), %eax
	cltd
	movl	$4, %ecx
	idivl	%ecx
	cmpl	$0, %edx
	jne	.LBB41_190
# %bb.189:                              # %land.lhs.true
                                        #   in Loop: Header=BB41_164 Depth=2
	movl	-44(%rbp), %eax
	cltd
	movl	$4, %ecx
	idivl	%ecx
	cmpl	$1, %edx
	je	.LBB41_192
.LBB41_190:                             # %lor.lhs.false783
                                        #   in Loop: Header=BB41_164 Depth=2
	movl	-48(%rbp), %eax
	cltd
	movl	$4, %ecx
	idivl	%ecx
	cmpl	$2, %edx
	jne	.LBB41_226
# %bb.191:                              # %land.lhs.true787
                                        #   in Loop: Header=BB41_164 Depth=2
	movl	-44(%rbp), %eax
	cltd
	movl	$4, %ecx
	idivl	%ecx
	cmpl	$3, %edx
	jne	.LBB41_226
.LBB41_192:                             # %if.then791
                                        #   in Loop: Header=BB41_164 Depth=2
	movq	-80(%rbp), %r14
	movl	-48(%rbp), %r12d
	subl	$16, %r12d
	addl	$1, %r12d
	movl	-44(%rbp), %r15d
	subl	$16, %r15d
	movq	img, %rax
	movl	72684(%rax), %r13d
	movq	-80(%rbp), %rdi
	movl	-48(%rbp), %esi
	subl	$16, %esi
	movl	-68(%rbp), %eax
	addl	$2, %eax
	movl	-44(%rbp), %ecx
	addl	$1, %ecx
	cmpl	%ecx, %eax
	jge	.LBB41_194
# %bb.193:                              # %cond.true801
                                        #   in Loop: Header=BB41_164 Depth=2
	movl	-68(%rbp), %edx
	addl	$2, %edx
	jmp	.LBB41_195
.LBB41_194:                             # %cond.false803
                                        #   in Loop: Header=BB41_164 Depth=2
	movl	-44(%rbp), %edx
	addl	$1, %edx
.LBB41_195:                             # %cond.end805
                                        #   in Loop: Header=BB41_164 Depth=2
	subl	$16, %edx
	movl	-52(%rbp), %ecx
	movl	-56(%rbp), %r8d
	callq	FastPelY_14
	movzwl	%ax, %ebx
	movq	-80(%rbp), %rdi
	movl	-72(%rbp), %eax
	addl	$2, %eax
	movl	-48(%rbp), %ecx
	addl	$2, %ecx
	cmpl	%ecx, %eax
	jge	.LBB41_197
# %bb.196:                              # %cond.true814
                                        #   in Loop: Header=BB41_164 Depth=2
	movl	-72(%rbp), %esi
	addl	$2, %esi
	jmp	.LBB41_198
.LBB41_197:                             # %cond.false816
                                        #   in Loop: Header=BB41_164 Depth=2
	movl	-48(%rbp), %esi
	addl	$2, %esi
.LBB41_198:                             # %cond.end818
                                        #   in Loop: Header=BB41_164 Depth=2
	subl	$16, %esi
	movl	-44(%rbp), %edx
	subl	$16, %edx
	subl	$1, %edx
	movl	-52(%rbp), %ecx
	movl	-56(%rbp), %r8d
	callq	FastPelY_14
	movzwl	%ax, %eax
	addl	%eax, %ebx
	addl	$1, %ebx
	movl	%ebx, %eax
	cltd
	movl	$2, %ecx
	idivl	%ecx
	cmpl	%eax, %r13d
	jge	.LBB41_200
# %bb.199:                              # %cond.true830
                                        #   in Loop: Header=BB41_164 Depth=2
	movq	img, %rax
	movl	72684(%rax), %eax
	jmp	.LBB41_207
.LBB41_200:                             # %cond.false832
                                        #   in Loop: Header=BB41_164 Depth=2
	movq	-80(%rbp), %rdi
	movl	-48(%rbp), %esi
	subl	$16, %esi
	movl	-68(%rbp), %eax
	addl	$2, %eax
	movl	-44(%rbp), %ecx
	addl	$1, %ecx
	cmpl	%ecx, %eax
	jge	.LBB41_202
# %bb.201:                              # %cond.true838
                                        #   in Loop: Header=BB41_164 Depth=2
	movl	-68(%rbp), %edx
	addl	$2, %edx
	jmp	.LBB41_203
.LBB41_202:                             # %cond.false840
                                        #   in Loop: Header=BB41_164 Depth=2
	movl	-44(%rbp), %edx
	addl	$1, %edx
.LBB41_203:                             # %cond.end842
                                        #   in Loop: Header=BB41_164 Depth=2
	subl	$16, %edx
	movl	-52(%rbp), %ecx
	movl	-56(%rbp), %r8d
	callq	FastPelY_14
	movzwl	%ax, %ebx
	movq	-80(%rbp), %rdi
	movl	-72(%rbp), %eax
	addl	$2, %eax
	movl	-48(%rbp), %ecx
	addl	$2, %ecx
	cmpl	%ecx, %eax
	jge	.LBB41_205
# %bb.204:                              # %cond.true851
                                        #   in Loop: Header=BB41_164 Depth=2
	movl	-72(%rbp), %esi
	addl	$2, %esi
	jmp	.LBB41_206
.LBB41_205:                             # %cond.false853
                                        #   in Loop: Header=BB41_164 Depth=2
	movl	-48(%rbp), %esi
	addl	$2, %esi
.LBB41_206:                             # %cond.end855
                                        #   in Loop: Header=BB41_164 Depth=2
	subl	$16, %esi
	movl	-44(%rbp), %edx
	subl	$16, %edx
	subl	$1, %edx
	movl	-52(%rbp), %ecx
	movl	-56(%rbp), %r8d
	callq	FastPelY_14
	movzwl	%ax, %eax
	addl	%eax, %ebx
	addl	$1, %ebx
	movl	%ebx, %eax
	cltd
	movl	$2, %ecx
	idivl	%ecx
.LBB41_207:                             # %cond.end865
                                        #   in Loop: Header=BB41_164 Depth=2
	xorl	%ecx, %ecx
	cmpl	%eax, %ecx
	jle	.LBB41_209
# %bb.208:                              # %cond.true869
                                        #   in Loop: Header=BB41_164 Depth=2
	xorl	%eax, %eax
	jmp	.LBB41_225
.LBB41_209:                             # %cond.false870
                                        #   in Loop: Header=BB41_164 Depth=2
	movq	img, %rax
	movl	72684(%rax), %r13d
	movq	-80(%rbp), %rdi
	movl	-48(%rbp), %esi
	subl	$16, %esi
	movl	-68(%rbp), %eax
	addl	$2, %eax
	movl	-44(%rbp), %ecx
	addl	$1, %ecx
	cmpl	%ecx, %eax
	jge	.LBB41_211
# %bb.210:                              # %cond.true877
                                        #   in Loop: Header=BB41_164 Depth=2
	movl	-68(%rbp), %edx
	addl	$2, %edx
	jmp	.LBB41_212
.LBB41_211:                             # %cond.false879
                                        #   in Loop: Header=BB41_164 Depth=2
	movl	-44(%rbp), %edx
	addl	$1, %edx
.LBB41_212:                             # %cond.end881
                                        #   in Loop: Header=BB41_164 Depth=2
	subl	$16, %edx
	movl	-52(%rbp), %ecx
	movl	-56(%rbp), %r8d
	callq	FastPelY_14
	movzwl	%ax, %ebx
	movq	-80(%rbp), %rdi
	movl	-72(%rbp), %eax
	addl	$2, %eax
	movl	-48(%rbp), %ecx
	addl	$2, %ecx
	cmpl	%ecx, %eax
	jge	.LBB41_214
# %bb.213:                              # %cond.true890
                                        #   in Loop: Header=BB41_164 Depth=2
	movl	-72(%rbp), %esi
	addl	$2, %esi
	jmp	.LBB41_215
.LBB41_214:                             # %cond.false892
                                        #   in Loop: Header=BB41_164 Depth=2
	movl	-48(%rbp), %esi
	addl	$2, %esi
.LBB41_215:                             # %cond.end894
                                        #   in Loop: Header=BB41_164 Depth=2
	subl	$16, %esi
	movl	-44(%rbp), %edx
	subl	$16, %edx
	subl	$1, %edx
	movl	-52(%rbp), %ecx
	movl	-56(%rbp), %r8d
	callq	FastPelY_14
	movzwl	%ax, %eax
	addl	%eax, %ebx
	addl	$1, %ebx
	movl	%ebx, %eax
	cltd
	movl	$2, %ecx
	idivl	%ecx
	cmpl	%eax, %r13d
	jge	.LBB41_217
# %bb.216:                              # %cond.true906
                                        #   in Loop: Header=BB41_164 Depth=2
	movq	img, %rax
	movl	72684(%rax), %eax
	jmp	.LBB41_224
.LBB41_217:                             # %cond.false908
                                        #   in Loop: Header=BB41_164 Depth=2
	movq	-80(%rbp), %rdi
	movl	-48(%rbp), %esi
	subl	$16, %esi
	movl	-68(%rbp), %eax
	addl	$2, %eax
	movl	-44(%rbp), %ecx
	addl	$1, %ecx
	cmpl	%ecx, %eax
	jge	.LBB41_219
# %bb.218:                              # %cond.true914
                                        #   in Loop: Header=BB41_164 Depth=2
	movl	-68(%rbp), %edx
	addl	$2, %edx
	jmp	.LBB41_220
.LBB41_219:                             # %cond.false916
                                        #   in Loop: Header=BB41_164 Depth=2
	movl	-44(%rbp), %edx
	addl	$1, %edx
.LBB41_220:                             # %cond.end918
                                        #   in Loop: Header=BB41_164 Depth=2
	subl	$16, %edx
	movl	-52(%rbp), %ecx
	movl	-56(%rbp), %r8d
	callq	FastPelY_14
	movzwl	%ax, %ebx
	movq	-80(%rbp), %rdi
	movl	-72(%rbp), %eax
	addl	$2, %eax
	movl	-48(%rbp), %ecx
	addl	$2, %ecx
	cmpl	%ecx, %eax
	jge	.LBB41_222
# %bb.221:                              # %cond.true927
                                        #   in Loop: Header=BB41_164 Depth=2
	movl	-72(%rbp), %esi
	addl	$2, %esi
	jmp	.LBB41_223
.LBB41_222:                             # %cond.false929
                                        #   in Loop: Header=BB41_164 Depth=2
	movl	-48(%rbp), %esi
	addl	$2, %esi
.LBB41_223:                             # %cond.end931
                                        #   in Loop: Header=BB41_164 Depth=2
	subl	$16, %esi
	movl	-44(%rbp), %edx
	subl	$16, %edx
	subl	$1, %edx
	movl	-52(%rbp), %ecx
	movl	-56(%rbp), %r8d
	callq	FastPelY_14
	movzwl	%ax, %eax
	addl	%eax, %ebx
	addl	$1, %ebx
	movl	%ebx, %eax
	cltd
	movl	$2, %ecx
	idivl	%ecx
.LBB41_224:                             # %cond.end941
                                        #   in Loop: Header=BB41_164 Depth=2
.LBB41_225:                             # %cond.end943
                                        #   in Loop: Header=BB41_164 Depth=2
	movq	%r14, %rdi
	movl	%r12d, %esi
	movl	%r15d, %edx
	movzwl	%ax, %ecx
	callq	PutPel_14
	jmp	.LBB41_260
.LBB41_226:                             # %if.else946
                                        #   in Loop: Header=BB41_164 Depth=2
	movq	-80(%rbp), %r14
	movl	-48(%rbp), %r12d
	subl	$16, %r12d
	addl	$1, %r12d
	movl	-44(%rbp), %r15d
	subl	$16, %r15d
	movq	img, %rax
	movl	72684(%rax), %r13d
	movq	-80(%rbp), %rdi
	movl	-48(%rbp), %esi
	subl	$16, %esi
	movl	-44(%rbp), %edx
	subl	$16, %edx
	subl	$1, %edx
	movl	-52(%rbp), %ecx
	movl	-56(%rbp), %r8d
	callq	FastPelY_14
	movzwl	%ax, %ebx
	movq	-80(%rbp), %rdi
	movl	-72(%rbp), %eax
	addl	$2, %eax
	movl	-48(%rbp), %ecx
	addl	$2, %ecx
	cmpl	%ecx, %eax
	jge	.LBB41_228
# %bb.227:                              # %cond.true960
                                        #   in Loop: Header=BB41_164 Depth=2
	movl	-72(%rbp), %esi
	addl	$2, %esi
	jmp	.LBB41_229
.LBB41_228:                             # %cond.false962
                                        #   in Loop: Header=BB41_164 Depth=2
	movl	-48(%rbp), %esi
	addl	$2, %esi
.LBB41_229:                             # %cond.end964
                                        #   in Loop: Header=BB41_164 Depth=2
	subl	$16, %esi
	movl	-68(%rbp), %eax
	addl	$2, %eax
	movl	-44(%rbp), %ecx
	addl	$1, %ecx
	cmpl	%ecx, %eax
	jge	.LBB41_231
# %bb.230:                              # %cond.true971
                                        #   in Loop: Header=BB41_164 Depth=2
	movl	-68(%rbp), %edx
	addl	$2, %edx
	jmp	.LBB41_232
.LBB41_231:                             # %cond.false973
                                        #   in Loop: Header=BB41_164 Depth=2
	movl	-44(%rbp), %edx
	addl	$1, %edx
.LBB41_232:                             # %cond.end975
                                        #   in Loop: Header=BB41_164 Depth=2
	subl	$16, %edx
	movl	-52(%rbp), %ecx
	movl	-56(%rbp), %r8d
	callq	FastPelY_14
	movzwl	%ax, %eax
	addl	%eax, %ebx
	addl	$1, %ebx
	movl	%ebx, %eax
	cltd
	movl	$2, %ecx
	idivl	%ecx
	cmpl	%eax, %r13d
	jge	.LBB41_234
# %bb.233:                              # %cond.true985
                                        #   in Loop: Header=BB41_164 Depth=2
	movq	img, %rax
	movl	72684(%rax), %eax
	jmp	.LBB41_241
.LBB41_234:                             # %cond.false987
                                        #   in Loop: Header=BB41_164 Depth=2
	movq	-80(%rbp), %rdi
	movl	-48(%rbp), %esi
	subl	$16, %esi
	movl	-44(%rbp), %edx
	subl	$16, %edx
	subl	$1, %edx
	movl	-52(%rbp), %ecx
	movl	-56(%rbp), %r8d
	callq	FastPelY_14
	movzwl	%ax, %ebx
	movq	-80(%rbp), %rdi
	movl	-72(%rbp), %eax
	addl	$2, %eax
	movl	-48(%rbp), %ecx
	addl	$2, %ecx
	cmpl	%ecx, %eax
	jge	.LBB41_236
# %bb.235:                              # %cond.true997
                                        #   in Loop: Header=BB41_164 Depth=2
	movl	-72(%rbp), %esi
	addl	$2, %esi
	jmp	.LBB41_237
.LBB41_236:                             # %cond.false999
                                        #   in Loop: Header=BB41_164 Depth=2
	movl	-48(%rbp), %esi
	addl	$2, %esi
.LBB41_237:                             # %cond.end1001
                                        #   in Loop: Header=BB41_164 Depth=2
	subl	$16, %esi
	movl	-68(%rbp), %eax
	addl	$2, %eax
	movl	-44(%rbp), %ecx
	addl	$1, %ecx
	cmpl	%ecx, %eax
	jge	.LBB41_239
# %bb.238:                              # %cond.true1008
                                        #   in Loop: Header=BB41_164 Depth=2
	movl	-68(%rbp), %edx
	addl	$2, %edx
	jmp	.LBB41_240
.LBB41_239:                             # %cond.false1010
                                        #   in Loop: Header=BB41_164 Depth=2
	movl	-44(%rbp), %edx
	addl	$1, %edx
.LBB41_240:                             # %cond.end1012
                                        #   in Loop: Header=BB41_164 Depth=2
	subl	$16, %edx
	movl	-52(%rbp), %ecx
	movl	-56(%rbp), %r8d
	callq	FastPelY_14
	movzwl	%ax, %eax
	addl	%eax, %ebx
	addl	$1, %ebx
	movl	%ebx, %eax
	cltd
	movl	$2, %ecx
	idivl	%ecx
.LBB41_241:                             # %cond.end1020
                                        #   in Loop: Header=BB41_164 Depth=2
	xorl	%ecx, %ecx
	cmpl	%eax, %ecx
	jle	.LBB41_243
# %bb.242:                              # %cond.true1024
                                        #   in Loop: Header=BB41_164 Depth=2
	xorl	%eax, %eax
	jmp	.LBB41_259
.LBB41_243:                             # %cond.false1025
                                        #   in Loop: Header=BB41_164 Depth=2
	movq	img, %rax
	movl	72684(%rax), %r13d
	movq	-80(%rbp), %rdi
	movl	-48(%rbp), %esi
	subl	$16, %esi
	movl	-44(%rbp), %edx
	subl	$16, %edx
	subl	$1, %edx
	movl	-52(%rbp), %ecx
	movl	-56(%rbp), %r8d
	callq	FastPelY_14
	movzwl	%ax, %ebx
	movq	-80(%rbp), %rdi
	movl	-72(%rbp), %eax
	addl	$2, %eax
	movl	-48(%rbp), %ecx
	addl	$2, %ecx
	cmpl	%ecx, %eax
	jge	.LBB41_245
# %bb.244:                              # %cond.true1036
                                        #   in Loop: Header=BB41_164 Depth=2
	movl	-72(%rbp), %esi
	addl	$2, %esi
	jmp	.LBB41_246
.LBB41_245:                             # %cond.false1038
                                        #   in Loop: Header=BB41_164 Depth=2
	movl	-48(%rbp), %esi
	addl	$2, %esi
.LBB41_246:                             # %cond.end1040
                                        #   in Loop: Header=BB41_164 Depth=2
	subl	$16, %esi
	movl	-68(%rbp), %eax
	addl	$2, %eax
	movl	-44(%rbp), %ecx
	addl	$1, %ecx
	cmpl	%ecx, %eax
	jge	.LBB41_248
# %bb.247:                              # %cond.true1047
                                        #   in Loop: Header=BB41_164 Depth=2
	movl	-68(%rbp), %edx
	addl	$2, %edx
	jmp	.LBB41_249
.LBB41_248:                             # %cond.false1049
                                        #   in Loop: Header=BB41_164 Depth=2
	movl	-44(%rbp), %edx
	addl	$1, %edx
.LBB41_249:                             # %cond.end1051
                                        #   in Loop: Header=BB41_164 Depth=2
	subl	$16, %edx
	movl	-52(%rbp), %ecx
	movl	-56(%rbp), %r8d
	callq	FastPelY_14
	movzwl	%ax, %eax
	addl	%eax, %ebx
	addl	$1, %ebx
	movl	%ebx, %eax
	cltd
	movl	$2, %ecx
	idivl	%ecx
	cmpl	%eax, %r13d
	jge	.LBB41_251
# %bb.250:                              # %cond.true1061
                                        #   in Loop: Header=BB41_164 Depth=2
	movq	img, %rax
	movl	72684(%rax), %eax
	jmp	.LBB41_258
.LBB41_251:                             # %cond.false1063
                                        #   in Loop: Header=BB41_164 Depth=2
	movq	-80(%rbp), %rdi
	movl	-48(%rbp), %esi
	subl	$16, %esi
	movl	-44(%rbp), %edx
	subl	$16, %edx
	subl	$1, %edx
	movl	-52(%rbp), %ecx
	movl	-56(%rbp), %r8d
	callq	FastPelY_14
	movzwl	%ax, %ebx
	movq	-80(%rbp), %rdi
	movl	-72(%rbp), %eax
	addl	$2, %eax
	movl	-48(%rbp), %ecx
	addl	$2, %ecx
	cmpl	%ecx, %eax
	jge	.LBB41_253
# %bb.252:                              # %cond.true1073
                                        #   in Loop: Header=BB41_164 Depth=2
	movl	-72(%rbp), %esi
	addl	$2, %esi
	jmp	.LBB41_254
.LBB41_253:                             # %cond.false1075
                                        #   in Loop: Header=BB41_164 Depth=2
	movl	-48(%rbp), %esi
	addl	$2, %esi
.LBB41_254:                             # %cond.end1077
                                        #   in Loop: Header=BB41_164 Depth=2
	subl	$16, %esi
	movl	-68(%rbp), %eax
	addl	$2, %eax
	movl	-44(%rbp), %ecx
	addl	$1, %ecx
	cmpl	%ecx, %eax
	jge	.LBB41_256
# %bb.255:                              # %cond.true1084
                                        #   in Loop: Header=BB41_164 Depth=2
	movl	-68(%rbp), %edx
	addl	$2, %edx
	jmp	.LBB41_257
.LBB41_256:                             # %cond.false1086
                                        #   in Loop: Header=BB41_164 Depth=2
	movl	-44(%rbp), %edx
	addl	$1, %edx
.LBB41_257:                             # %cond.end1088
                                        #   in Loop: Header=BB41_164 Depth=2
	subl	$16, %edx
	movl	-52(%rbp), %ecx
	movl	-56(%rbp), %r8d
	callq	FastPelY_14
	movzwl	%ax, %eax
	addl	%eax, %ebx
	addl	$1, %ebx
	movl	%ebx, %eax
	cltd
	movl	$2, %ecx
	idivl	%ecx
.LBB41_258:                             # %cond.end1096
                                        #   in Loop: Header=BB41_164 Depth=2
.LBB41_259:                             # %cond.end1098
                                        #   in Loop: Header=BB41_164 Depth=2
	movq	%r14, %rdi
	movl	%r12d, %esi
	movl	%r15d, %edx
	movzwl	%ax, %ecx
	callq	PutPel_14
.LBB41_260:                             # %if.end1101
                                        #   in Loop: Header=BB41_164 Depth=2
	jmp	.LBB41_261
.LBB41_261:                             # %if.end1102
                                        #   in Loop: Header=BB41_164 Depth=2
	jmp	.LBB41_262
.LBB41_262:                             # %for.inc1103
                                        #   in Loop: Header=BB41_164 Depth=2
	movl	-48(%rbp), %eax
	addl	$2, %eax
	movl	%eax, -48(%rbp)
	jmp	.LBB41_164
.LBB41_263:                             # %for.end1105
                                        #   in Loop: Header=BB41_162 Depth=1
	jmp	.LBB41_264
.LBB41_264:                             # %for.inc1106
                                        #   in Loop: Header=BB41_162 Depth=1
	movl	-44(%rbp), %eax
	addl	$1, %eax
	movl	%eax, -44(%rbp)
	jmp	.LBB41_162
.LBB41_265:                             # %for.end1108
	movq	-80(%rbp), %rdi
	movq	-120(%rbp), %rsi
	movq	-64(%rbp), %rax
	movl	6392(%rax), %edx
	movq	-64(%rbp), %rax
	movl	6396(%rax), %ecx
	callq	GenerateFullPelRepresentation
.LBB41_266:                             # %return
	cmpl	$1145041704, -108(%rbp) # imm = 0x443FF328
	jne	.LBB41_268
.LBB41_267:
	addq	$88, %rsp
	popq	%rbx
	popq	%r12
	popq	%r13
	popq	%r14
	popq	%r15
	popq	%rbp
	.cfi_def_cfa %rsp, 8
	retq
.LBB41_268:                             # %func_exit
	.cfi_def_cfa %rbp, 16
	callq	detect_breach
	jmp	.LBB41_267
.Lfunc_end41:
	.size	UnifiedOneForthPix.5, .Lfunc_end41-UnifiedOneForthPix.5
	.cfi_endproc
                                        # -- End function
	.p2align	4, 0x90         # -- Begin function frame_mode_buffer.6
	.type	frame_mode_buffer.6,@function
frame_mode_buffer.6:                    # @frame_mode_buffer.6
	.cfi_startproc
# %bb.0:                                # %entry
	pushq	%rbp
	.cfi_def_cfa_offset 16
	.cfi_offset %rbp, -16
	movq	%rsp, %rbp
	.cfi_def_cfa_register %rbp
	subq	$32, %rsp
	movl	$1141757504, -12(%rbp)  # imm = 0x440DD640
	movl	%edi, -20(%rbp)
	vmovss	%xmm0, -16(%rbp)
	vmovss	%xmm1, -4(%rbp)
	vmovss	%xmm2, -8(%rbp)
	callq	put_buffer_frame
	movq	input, %rax
	cmpl	$0, 2880(%rax)
	jne	.LBB42_2
# %bb.1:                                # %lor.lhs.false
	movq	input, %rax
	cmpl	$0, 2884(%rax)
	je	.LBB42_3
.LBB42_2:                               # %if.then
	movq	img, %rax
	movl	60(%rax), %eax
	cltd
	movl	$2, %ecx
	idivl	%ecx
	movq	img, %rdx
	movl	%eax, 60(%rdx)
	movq	img, %rax
	movl	64(%rax), %eax
	cltd
	idivl	%ecx
	movq	img, %rcx
	movl	%eax, 64(%rcx)
	movq	img, %rax
	movl	(%rax), %ecx
	shll	$1, %ecx
	movl	%ecx, (%rax)
	callq	put_buffer_top
	movq	img, %rax
	movl	(%rax), %ecx
	addl	$1, %ecx
	movl	%ecx, (%rax)
	callq	put_buffer_bot
	movq	img, %rcx
	movl	(%rcx), %eax
	cltd
	movl	$2, %esi
	idivl	%esi
	movl	%eax, (%rcx)
	movq	input, %rax
	movl	68(%rax), %eax
	movq	img, %rcx
	addl	72732(%rcx), %eax
	movq	img, %rcx
	movl	%eax, 60(%rcx)
	movq	img, %rax
	movl	68(%rax), %eax
	movq	img, %rcx
	movl	%eax, 64(%rcx)
	movq	img, %rax
	movl	52(%rax), %eax
	movq	img, %rcx
	imull	60(%rcx), %eax
	cltd
	movl	$256, %ecx              # imm = 0x100
	idivl	%ecx
	movq	img, %rcx
	movl	%eax, 16(%rcx)
	vmovss	-16(%rbp), %xmm0        # xmm0 = mem[0],zero,zero,zero
	movq	snr, %rax
	vmovss	%xmm0, (%rax)
	vmovss	-4(%rbp), %xmm0         # xmm0 = mem[0],zero,zero,zero
	movq	snr, %rax
	vmovss	%xmm0, 4(%rax)
	vmovss	-8(%rbp), %xmm0         # xmm0 = mem[0],zero,zero,zero
	movq	snr, %rax
	vmovss	%xmm0, 8(%rax)
	callq	put_buffer_frame
.LBB42_3:                               # %if.end
	cmpl	$1141757504, -12(%rbp)  # imm = 0x440DD640
	jne	.LBB42_5
.LBB42_4:
	addq	$32, %rsp
	popq	%rbp
	.cfi_def_cfa %rsp, 8
	retq
.LBB42_5:                               # %func_exit
	.cfi_def_cfa %rbp, 16
	callq	detect_breach
	jmp	.LBB42_4
.Lfunc_end42:
	.size	frame_mode_buffer.6, .Lfunc_end42-frame_mode_buffer.6
	.cfi_endproc
                                        # -- End function
	.p2align	4, 0x90         # -- Begin function ReportRB.7
	.type	ReportRB.7,@function
ReportRB.7:                             # @ReportRB.7
	.cfi_startproc
# %bb.0:                                # %entry
	pushq	%rbp
	.cfi_def_cfa_offset 16
	.cfi_offset %rbp, -16
	movq	%rsp, %rbp
	.cfi_def_cfa_register %rbp
	pushq	%rbx
	subq	$56, %rsp
	.cfi_offset %rbx, -24
	movl	$1590692698, -16(%rbp)  # imm = 0x5ED00B5A
	movl	%edi, -12(%rbp)
	movl	%esi, -20(%rbp)
	movl	frame_no, %esi
	movq	stats, %rax
	movl	16(%rax), %edx
	movq	stats, %rax
	subl	20(%rax), %edx
	movq	active_pps, %rax
	movl	196(%rax), %ecx
	movq	img, %rax
	movl	40(%rax), %r8d
	movq	snr, %rax
	vmovss	(%rax), %xmm0           # xmm0 = mem[0],zero,zero,zero
	vcvtss2sd	%xmm0, %xmm0, %xmm0
	movq	snr, %rax
	vmovss	4(%rax), %xmm1          # xmm1 = mem[0],zero,zero,zero
	vcvtss2sd	%xmm1, %xmm0, %xmm1
	movq	snr, %rax
	vmovss	8(%rax), %xmm2          # xmm2 = mem[0],zero,zero,zero
	vcvtss2sd	%xmm2, %xmm0, %xmm2
	movl	-12(%rbp), %r9d
	movl	-20(%rbp), %r10d
	movq	img, %rdi
	movl	71800(%rdi), %edi
	cmpl	$0, %edi
	movabsq	$.L.str.7, %rdi
	movabsq	$.L.str.8, %rax
	cmovneq	%rdi, %rax
	movl	intras, %r11d
	movq	img, %rdi
	movl	71996(%rdi), %ebx
	movabsq	$.L.str.11, %rdi
	movl	%r10d, (%rsp)
	movq	%rax, 8(%rsp)
	movl	%r11d, 16(%rsp)
	movl	%ebx, 24(%rsp)
	movb	$3, %al
	callq	printf
	cmpl	$1590692698, -16(%rbp)  # imm = 0x5ED00B5A
	jne	.LBB43_2
.LBB43_1:
	addq	$56, %rsp
	popq	%rbx
	popq	%rbp
	.cfi_def_cfa %rsp, 8
	retq
.LBB43_2:                               # %func_exit
	.cfi_def_cfa %rbp, 16
	callq	detect_breach
	jmp	.LBB43_1
.Lfunc_end43:
	.size	ReportRB.7, .Lfunc_end43-ReportRB.7
	.cfi_endproc
                                        # -- End function
	.p2align	4, 0x90         # -- Begin function ReportIntra.8
	.type	ReportIntra.8,@function
ReportIntra.8:                          # @ReportIntra.8
	.cfi_startproc
# %bb.0:                                # %entry
	pushq	%rbp
	.cfi_def_cfa_offset 16
	.cfi_offset %rbp, -16
	movq	%rsp, %rbp
	.cfi_def_cfa_register %rbp
	subq	$48, %rsp
	movl	$1779102051, -12(%rbp)  # imm = 0x6A0AF163
	movl	%edi, -8(%rbp)
	movl	%esi, -4(%rbp)
	movq	img, %rax
	movq	14152(%rax), %rax
	cmpl	$1, 4(%rax)
	jne	.LBB44_2
# %bb.1:                                # %if.then
	movl	frame_no, %esi
	movq	stats, %rax
	movl	16(%rax), %edx
	movq	stats, %rax
	subl	20(%rax), %edx
	movq	img, %rax
	movl	40(%rax), %r8d
	movq	snr, %rax
	vmovss	(%rax), %xmm0           # xmm0 = mem[0],zero,zero,zero
	vcvtss2sd	%xmm0, %xmm0, %xmm0
	movq	snr, %rax
	vmovss	4(%rax), %xmm1          # xmm1 = mem[0],zero,zero,zero
	vcvtss2sd	%xmm1, %xmm0, %xmm1
	movq	snr, %rax
	vmovss	8(%rax), %xmm2          # xmm2 = mem[0],zero,zero,zero
	vcvtss2sd	%xmm2, %xmm0, %xmm2
	movl	-8(%rbp), %r9d
	movl	-4(%rbp), %r10d
	movq	img, %rcx
	movl	71800(%rcx), %ecx
	cmpl	$0, %ecx
	movabsq	$.L.str.7, %rcx
	movabsq	$.L.str.8, %rax
	cmovneq	%rcx, %rax
	movl	intras, %r11d
	movabsq	$.L.str.6, %rdi
	movl	$0, %ecx
	movl	%r10d, (%rsp)
	movq	%rax, 8(%rsp)
	movl	%r11d, 16(%rsp)
	movb	$3, %al
	callq	printf
	jmp	.LBB44_3
.LBB44_2:                               # %if.else
	movl	frame_no, %esi
	movq	stats, %rax
	movl	16(%rax), %edx
	movq	stats, %rax
	subl	20(%rax), %edx
	movq	img, %rax
	movl	40(%rax), %r8d
	movq	snr, %rax
	vmovss	(%rax), %xmm0           # xmm0 = mem[0],zero,zero,zero
	vcvtss2sd	%xmm0, %xmm0, %xmm0
	movq	snr, %rax
	vmovss	4(%rax), %xmm1          # xmm1 = mem[0],zero,zero,zero
	vcvtss2sd	%xmm1, %xmm0, %xmm1
	movq	snr, %rax
	vmovss	8(%rax), %xmm2          # xmm2 = mem[0],zero,zero,zero
	vcvtss2sd	%xmm2, %xmm0, %xmm2
	movl	-8(%rbp), %r9d
	movl	-4(%rbp), %r10d
	movq	img, %rcx
	movl	71800(%rcx), %ecx
	cmpl	$0, %ecx
	movabsq	$.L.str.7, %rcx
	movabsq	$.L.str.8, %rax
	cmovneq	%rcx, %rax
	movl	intras, %r11d
	movabsq	$.L.str.9, %rdi
	movl	$0, %ecx
	movl	%r10d, (%rsp)
	movq	%rax, 8(%rsp)
	movl	%r11d, 16(%rsp)
	movb	$3, %al
	callq	printf
.LBB44_3:                               # %if.end
	cmpl	$1779102051, -12(%rbp)  # imm = 0x6A0AF163
	jne	.LBB44_5
.LBB44_4:
	addq	$48, %rsp
	popq	%rbp
	.cfi_def_cfa %rsp, 8
	retq
.LBB44_5:                               # %func_exit
	.cfi_def_cfa %rbp, 16
	callq	detect_breach
	jmp	.LBB44_4
.Lfunc_end44:
	.size	ReportIntra.8, .Lfunc_end44-ReportIntra.8
	.cfi_endproc
                                        # -- End function
	.section	.rodata.cst8,"aM",@progbits,8
	.p2align	3               # -- Begin function init_frame.9
.LCPI45_0:
	.quad	4607182418800017408     # double 1
	.text
	.p2align	4, 0x90
	.type	init_frame.9,@function
init_frame.9:                           # @init_frame.9
	.cfi_startproc
# %bb.0:                                # %entry
	pushq	%rbp
	.cfi_def_cfa_offset 16
	.cfi_offset %rbp, -16
	movq	%rsp, %rbp
	.cfi_def_cfa_register %rbp
	subq	$16, %rsp
	movl	$1804680156, -16(%rbp)  # imm = 0x6B913BDC
	movq	last_P_no_frm, %rax
	movq	%rax, last_P_no
	movq	img, %rax
	movl	$0, 12(%rax)
	movq	img, %rax
	movl	$0, 20(%rax)
	movq	stats, %rax
	movl	$0, 24(%rax)
	movq	img, %rax
	movl	$0, 136(%rax)
	movq	img, %rax
	movl	$0, 140(%rax)
	movq	img, %rax
	movl	$0, 164(%rax)
	movq	img, %rax
	movl	$0, 156(%rax)
	movq	img, %rax
	movl	$0, 148(%rax)
	movq	img, %rax
	movl	$0, 160(%rax)
	movq	img, %rax
	movl	$0, 96(%rax)
	movq	img, %rax
	movl	$0, 152(%rax)
	movq	img, %rax
	movl	$0, 144(%rax)
	movl	$0, -4(%rbp)
.LBB45_1:                               # %for.cond
                                        # =>This Inner Loop Header: Depth=1
	movl	-4(%rbp), %esi
	movq	img, %rax
	movl	52(%rax), %eax
	cltd
	movl	$16, %edi
	idivl	%edi
	movl	%eax, %ecx
	movq	img, %rax
	movl	60(%rax), %eax
	cltd
	idivl	%edi
	imull	%eax, %ecx
	cmpl	%ecx, %esi
	jge	.LBB45_4
# %bb.2:                                # %for.body
                                        #   in Loop: Header=BB45_1 Depth=1
	movq	img, %rax
	movq	14168(%rax), %rax
	movslq	-4(%rbp), %rcx
	imulq	$632, %rcx, %rcx        # imm = 0x278
	addq	%rcx, %rax
	movl	$-1, 4(%rax)
# %bb.3:                                # %for.inc
                                        #   in Loop: Header=BB45_1 Depth=1
	movl	-4(%rbp), %eax
	addl	$1, %eax
	movl	%eax, -4(%rbp)
	jmp	.LBB45_1
.LBB45_4:                               # %for.end
	movq	img, %rax
	cmpl	$0, 71908(%rax)
	jne	.LBB45_29
# %bb.5:                                # %if.then
	movl	start_tr_in_this_IGOP, %eax
	movq	img, %rcx
	movl	(%rcx), %ecx
	subl	start_frame_no_in_this_IGOP, %ecx
	movq	input, %rdx
	movl	20(%rdx), %edx
	addl	$1, %edx
	imull	%edx, %ecx
	addl	%ecx, %eax
	movq	img, %rcx
	movl	%eax, 71792(%rcx)
	movq	img, %rax
	movl	71876(%rax), %eax
	movq	img, %rcx
	movl	%eax, 71880(%rcx)
	movq	img, %rax
	movl	71792(%rax), %eax
	movq	img, %rcx
	movl	%eax, 71876(%rcx)
	movq	input, %rax
	cmpl	$0, 2440(%rax)
	je	.LBB45_8
# %bb.6:                                # %land.lhs.true
	movq	img, %rax
	movl	(%rax), %eax
	addl	$1, %eax
	movq	input, %rcx
	cmpl	8(%rcx), %eax
	jne	.LBB45_8
# %bb.7:                                # %if.then10
	movq	input, %rax
	movl	2440(%rax), %eax
	movq	img, %rcx
	movl	%eax, 71792(%rcx)
.LBB45_8:                               # %if.end
	movq	img, %rax
	movl	(%rax), %eax
	subl	start_frame_no_in_this_IGOP, %eax
	cmpl	$0, %eax
	je	.LBB45_11
# %bb.9:                                # %land.lhs.true16
	movq	input, %rax
	cmpl	$0, 1236(%rax)
	je	.LBB45_11
# %bb.10:                               # %if.then18
	movq	img, %rax
	movl	71792(%rax), %eax
	movl	%eax, nextP_tr_frm
.LBB45_11:                              # %if.end20
	movq	input, %rax
	cmpl	$0, 3236(%rax)
	jne	.LBB45_26
# %bb.12:                               # %if.then22
	movq	img, %rax
	cmpl	$2, 24(%rax)
	jne	.LBB45_18
# %bb.13:                               # %if.then24
	movq	input, %rax
	cmpl	$0, 2452(%rax)
	jle	.LBB45_16
# %bb.14:                               # %land.lhs.true26
	movq	img, %rax
	movl	71792(%rax), %eax
	movq	input, %rcx
	cmpl	2452(%rcx), %eax
	jl	.LBB45_16
# %bb.15:                               # %if.then30
	movq	input, %rax
	movl	2456(%rax), %eax
	movq	img, %rcx
	movl	%eax, 40(%rcx)
	jmp	.LBB45_17
.LBB45_16:                              # %if.else
	movq	input, %rax
	movl	12(%rax), %eax
	movq	img, %rcx
	movl	%eax, 40(%rcx)
.LBB45_17:                              # %if.end32
	jmp	.LBB45_25
.LBB45_18:                              # %if.else33
	movq	input, %rax
	cmpl	$0, 2452(%rax)
	jle	.LBB45_21
# %bb.19:                               # %land.lhs.true36
	movq	img, %rax
	movl	71792(%rax), %eax
	movq	input, %rcx
	cmpl	2452(%rcx), %eax
	jl	.LBB45_21
# %bb.20:                               # %if.then40
	movq	input, %rax
	movl	2444(%rax), %eax
	movq	img, %rcx
	movl	%eax, 40(%rcx)
	jmp	.LBB45_22
.LBB45_21:                              # %if.else42
	movq	input, %rax
	movl	16(%rax), %eax
	movq	img, %rcx
	movl	%eax, 40(%rcx)
.LBB45_22:                              # %if.end44
	movq	img, %rax
	cmpl	$3, 24(%rax)
	jne	.LBB45_24
# %bb.23:                               # %if.then47
	movq	input, %rax
	movl	1276(%rax), %eax
	movq	img, %rcx
	movl	%eax, 40(%rcx)
	movq	input, %rax
	movl	1280(%rax), %eax
	movq	img, %rcx
	movl	%eax, 44(%rcx)
.LBB45_24:                              # %if.end50
	jmp	.LBB45_25
.LBB45_25:                              # %if.end51
	jmp	.LBB45_26
.LBB45_26:                              # %if.end52
	movq	img, %rax
	movl	88(%rax), %eax
	movq	img, %rcx
	movl	%eax, 92(%rcx)
	movq	input, %rax
	cmpl	$0, 76(%rax)
	jle	.LBB45_28
# %bb.27:                               # %if.then54
	movq	img, %rax
	movl	(%rax), %eax
	subl	start_frame_no_in_this_IGOP, %eax
	movq	input, %rcx
	cltd
	idivl	76(%rcx)
	movl	%eax, %ecx
	movq	img, %rax
	movl	60(%rax), %eax
	cltd
	movl	$16, %esi
	idivl	%esi
	movl	%eax, %esi
	movl	%ecx, %eax
	cltd
	idivl	%esi
	movq	img, %rax
	movl	%edx, 88(%rax)
.LBB45_28:                              # %if.end62
	jmp	.LBB45_72
.LBB45_29:                              # %if.else63
	movq	input, %rax
	movl	20(%rax), %eax
	addl	$1, %eax
	movq	img, %rcx
	movl	%eax, 71904(%rcx)
	movl	start_tr_in_this_IGOP, %eax
	movq	img, %rcx
	movl	(%rcx), %ecx
	subl	start_frame_no_in_this_IGOP, %ecx
	subl	$1, %ecx
	movq	img, %rdx
	imull	71904(%rdx), %ecx
	addl	%ecx, %eax
	movl	%eax, -12(%rbp)
	movl	start_tr_in_this_IGOP, %eax
	movq	img, %rcx
	movl	(%rcx), %ecx
	subl	start_frame_no_in_this_IGOP, %ecx
	movq	img, %rdx
	imull	71904(%rdx), %ecx
	addl	%ecx, %eax
	movl	%eax, -8(%rbp)
	movl	-12(%rbp), %eax
	movq	last_P_no, %rcx
	movl	%eax, (%rcx)
	movl	$1, -4(%rbp)
.LBB45_30:                              # %for.cond78
                                        # =>This Inner Loop Header: Depth=1
	movl	-4(%rbp), %eax
	movq	img, %rcx
	cmpl	72376(%rcx), %eax
	jge	.LBB45_33
# %bb.31:                               # %for.body80
                                        #   in Loop: Header=BB45_30 Depth=1
	movq	last_P_no, %rax
	movl	-4(%rbp), %ecx
	subl	$1, %ecx
	movslq	%ecx, %rcx
	movl	(%rax,%rcx,4), %eax
	movq	img, %rcx
	subl	71904(%rcx), %eax
	movq	last_P_no, %rcx
	movslq	-4(%rbp), %rdx
	movl	%eax, (%rcx,%rdx,4)
# %bb.32:                               # %for.inc88
                                        #   in Loop: Header=BB45_30 Depth=1
	movl	-4(%rbp), %eax
	addl	$1, %eax
	movl	%eax, -4(%rbp)
	jmp	.LBB45_30
.LBB45_33:                              # %for.end90
	movq	input, %rax
	cmpl	$0, 2440(%rax)
	je	.LBB45_36
# %bb.34:                               # %land.lhs.true93
	movq	img, %rax
	movl	(%rax), %eax
	addl	$1, %eax
	movq	input, %rcx
	cmpl	8(%rcx), %eax
	jne	.LBB45_36
# %bb.35:                               # %if.then98
	movq	input, %rax
	movl	2440(%rax), %eax
	movl	%eax, -8(%rbp)
	movl	-8(%rbp), %eax
	subl	-12(%rbp), %eax
	movq	img, %rcx
	movl	%eax, 71904(%rcx)
.LBB45_36:                              # %if.end102
	vmovsd	.LCPI45_0(%rip), %xmm0  # xmm0 = mem[0],zero
	movq	input, %rax
	movl	20(%rax), %eax
	addl	$1, %eax
	vcvtsi2sd	%eax, %xmm0, %xmm1
	movq	input, %rax
	vcvtsi2sdl	1236(%rax), %xmm0, %xmm2
	vaddsd	%xmm0, %xmm2, %xmm0
	vdivsd	%xmm0, %xmm1, %xmm0
	movq	img, %rax
	vmovsd	%xmm0, 71896(%rax)
	movq	input, %rax
	cmpl	$3, 1320(%rax)
	jne	.LBB45_38
# %bb.37:                               # %if.then111
	vmovsd	.LCPI45_0(%rip), %xmm0  # xmm0 = mem[0],zero
	movq	img, %rax
	vmovsd	%xmm0, 71896(%rax)
.LBB45_38:                              # %if.end113
	movq	input, %rax
	cmpl	$0, 1320(%rax)
	je	.LBB45_40
# %bb.39:                               # %if.then116
	movl	-12(%rbp), %eax
	movq	img, %rcx
	vmovsd	71896(%rcx), %xmm0      # xmm0 = mem[0],zero
	movq	gop_structure, %rcx
	movq	img, %rdx
	movl	71908(%rdx), %edx
	subl	$1, %edx
	movslq	%edx, %rdx
	imulq	$24, %rdx, %rdx
	addq	%rdx, %rcx
	movl	4(%rcx), %ecx
	addl	$1, %ecx
	vcvtsi2sd	%ecx, %xmm0, %xmm1
	vmulsd	%xmm1, %xmm0, %xmm0
	vcvttsd2si	%xmm0, %ecx
	addl	%ecx, %eax
	movq	img, %rcx
	movl	%eax, 71792(%rcx)
	jmp	.LBB45_41
.LBB45_40:                              # %if.else128
	movl	-12(%rbp), %eax
	movq	img, %rcx
	vmovsd	71896(%rcx), %xmm0      # xmm0 = mem[0],zero
	movq	img, %rcx
	vcvtsi2sdl	71908(%rcx), %xmm0, %xmm1
	vmulsd	%xmm1, %xmm0, %xmm0
	vcvttsd2si	%xmm0, %ecx
	addl	%ecx, %eax
	movq	img, %rcx
	movl	%eax, 71792(%rcx)
.LBB45_41:                              # %if.end136
	movq	img, %rax
	movl	71792(%rax), %eax
	cmpl	-8(%rbp), %eax
	jl	.LBB45_43
# %bb.42:                               # %if.then140
	movl	-8(%rbp), %eax
	subl	$1, %eax
	movq	img, %rcx
	movl	%eax, 71792(%rcx)
.LBB45_43:                              # %if.end143
	movq	input, %rax
	cmpl	$0, 3236(%rax)
	jne	.LBB45_68
# %bb.44:                               # %land.lhs.true146
	movq	input, %rax
	cmpl	$3, 1320(%rax)
	je	.LBB45_68
# %bb.45:                               # %if.then150
	movq	input, %rax
	cmpl	$0, 2452(%rax)
	jle	.LBB45_48
# %bb.46:                               # %land.lhs.true154
	movq	img, %rax
	movl	71792(%rax), %eax
	movq	input, %rcx
	cmpl	2452(%rcx), %eax
	jl	.LBB45_48
# %bb.47:                               # %if.then159
	movq	input, %rax
	movl	2448(%rax), %eax
	movq	img, %rcx
	movl	%eax, 40(%rcx)
	jmp	.LBB45_49
.LBB45_48:                              # %if.else161
	movq	input, %rax
	movl	1240(%rax), %eax
	movq	img, %rcx
	movl	%eax, 40(%rcx)
.LBB45_49:                              # %if.end163
	movq	img, %rax
	cmpl	$0, 72496(%rax)
	je	.LBB45_67
# %bb.50:                               # %if.then165
	movq	input, %rax
	cmpl	$0, 2452(%rax)
	jle	.LBB45_59
# %bb.51:                               # %land.lhs.true169
	movq	img, %rax
	movl	71792(%rax), %eax
	movq	input, %rcx
	cmpl	2452(%rcx), %eax
	jl	.LBB45_59
# %bb.52:                               # %if.then174
	movq	input, %rax
	movl	2448(%rax), %eax
	movq	input, %rcx
	addl	2460(%rcx), %eax
	cmpl	$0, %eax
	jge	.LBB45_54
# %bb.53:                               # %cond.true
	xorl	%eax, %eax
	jmp	.LBB45_58
.LBB45_54:                              # %cond.false
	movq	input, %rax
	movl	2448(%rax), %eax
	movq	input, %rcx
	addl	2460(%rcx), %eax
	cmpl	$51, %eax
	jle	.LBB45_56
# %bb.55:                               # %cond.true184
	movl	$51, %eax
	jmp	.LBB45_57
.LBB45_56:                              # %cond.false185
	movq	input, %rax
	movl	2448(%rax), %eax
	movq	input, %rcx
	addl	2460(%rcx), %eax
.LBB45_57:                              # %cond.end
.LBB45_58:                              # %cond.end189
	movq	img, %rcx
	movl	%eax, 40(%rcx)
	jmp	.LBB45_66
.LBB45_59:                              # %if.else192
	movq	input, %rax
	movl	1240(%rax), %eax
	movq	input, %rcx
	addl	1244(%rcx), %eax
	cmpl	$0, %eax
	jge	.LBB45_61
# %bb.60:                               # %cond.true197
	xorl	%eax, %eax
	jmp	.LBB45_65
.LBB45_61:                              # %cond.false198
	movq	input, %rax
	movl	1240(%rax), %eax
	movq	input, %rcx
	addl	1244(%rcx), %eax
	cmpl	$51, %eax
	jle	.LBB45_63
# %bb.62:                               # %cond.true204
	movl	$51, %eax
	jmp	.LBB45_64
.LBB45_63:                              # %cond.false205
	movq	input, %rax
	movl	1240(%rax), %eax
	movq	input, %rcx
	addl	1244(%rcx), %eax
.LBB45_64:                              # %cond.end209
.LBB45_65:                              # %cond.end211
	movq	img, %rcx
	movl	%eax, 40(%rcx)
.LBB45_66:                              # %if.end214
	jmp	.LBB45_67
.LBB45_67:                              # %if.end215
	jmp	.LBB45_71
.LBB45_68:                              # %if.else216
	movq	input, %rax
	cmpl	$3, 1320(%rax)
	jne	.LBB45_70
# %bb.69:                               # %if.then220
	movq	gop_structure, %rax
	movq	img, %rcx
	movl	71908(%rcx), %ecx
	subl	$1, %ecx
	movslq	%ecx, %rcx
	imulq	$24, %rcx, %rcx
	addq	%rcx, %rax
	movl	12(%rax), %eax
	movq	img, %rcx
	movl	%eax, 40(%rcx)
.LBB45_70:                              # %if.end226
	jmp	.LBB45_71
.LBB45_71:                              # %if.end227
	jmp	.LBB45_72
.LBB45_72:                              # %if.end228
	movq	img, %rax
	movl	72384(%rax), %edi
	callq	UpdateSubseqInfo
	xorl	%edi, %edi
	xorl	%esi, %esi
	xorl	%edx, %edx
	movl	$4294967295, %ecx       # imm = 0xFFFFFFFF
	callq	UpdateSceneInformation
	movq	img, %rax
	movl	52(%rax), %eax
	movq	img, %rcx
	imull	60(%rcx), %eax
	cltd
	movl	$256, %ecx              # imm = 0x100
	idivl	%ecx
	movq	img, %rcx
	movl	%eax, 16(%rcx)
	movq	img, %rax
	movl	$0, 72504(%rax)
	movq	img, %rax
	movl	$0, 72508(%rax)
	callq	init_dec_ref_pic_marking_buffer
	cmpl	$1804680156, -16(%rbp)  # imm = 0x6B913BDC
	jne	.LBB45_74
.LBB45_73:
	addq	$16, %rsp
	popq	%rbp
	.cfi_def_cfa %rsp, 8
	retq
.LBB45_74:                              # %func_exit
	.cfi_def_cfa %rbp, 16
	callq	detect_breach
	jmp	.LBB45_73
.Lfunc_end45:
	.size	init_frame.9, .Lfunc_end45-init_frame.9
	.cfi_endproc
                                        # -- End function
	.globl	buf2img.10              # -- Begin function buf2img.10
	.p2align	4, 0x90
	.type	buf2img.10,@function
buf2img.10:                             # @buf2img.10
	.cfi_startproc
# %bb.0:                                # %entry
	pushq	%rbp
	.cfi_def_cfa_offset 16
	.cfi_offset %rbp, -16
	movq	%rsp, %rbp
	.cfi_def_cfa_register %rbp
	subq	$80, %rsp
	movl	$768168592, -60(%rbp)   # imm = 0x2DC95290
	movq	%rdi, -40(%rbp)
	movq	%rsi, -48(%rbp)
	movl	%edx, -12(%rbp)
	movl	%ecx, -20(%rbp)
	movl	%r8d, -24(%rbp)
	movslq	-24(%rbp), %rax
	cmpq	$2, %rax
	jbe	.LBB46_2
# %bb.1:                                # %if.then
	movabsq	$.L.str.3, %rdi
	movl	$500, %esi              # imm = 0x1F4
	callq	error
.LBB46_2:                               # %if.end
	movb	$0, %al
	callq	testEndian
	cmpl	$0, %eax
	je	.LBB46_35
# %bb.3:                                # %if.then2
	movl	-24(%rbp), %eax
	movl	%eax, %ecx
	subl	$1, %ecx
	je	.LBB46_6
	jmp	.LBB46_4
.LBB46_4:                               # %if.then2
	movl	%eax, %ecx
	subl	$2, %ecx
	je	.LBB46_15
	jmp	.LBB46_5
.LBB46_5:                               # %if.then2
	subl	$4, %eax
	je	.LBB46_24
	jmp	.LBB46_33
.LBB46_6:                               # %sw.bb
	movl	$0, -8(%rbp)
.LBB46_7:                               # %for.cond
                                        # =>This Loop Header: Depth=1
                                        #     Child Loop BB46_9 Depth 2
	movl	-8(%rbp), %eax
	cmpl	-20(%rbp), %eax
	jge	.LBB46_14
# %bb.8:                                # %for.body
                                        #   in Loop: Header=BB46_7 Depth=1
	movl	$0, -4(%rbp)
.LBB46_9:                               # %for.cond5
                                        #   Parent Loop BB46_7 Depth=1
                                        # =>  This Inner Loop Header: Depth=2
	movl	-4(%rbp), %eax
	cmpl	-12(%rbp), %eax
	jge	.LBB46_12
# %bb.10:                               # %for.body8
                                        #   in Loop: Header=BB46_9 Depth=2
	movq	-48(%rbp), %rax
	movl	-4(%rbp), %ecx
	movl	-8(%rbp), %edx
	imull	-12(%rbp), %edx
	addl	%edx, %ecx
	movslq	%ecx, %rcx
	movzbl	(%rax,%rcx), %eax
	movq	-40(%rbp), %rcx
	movslq	-8(%rbp), %rdx
	movq	(%rcx,%rdx,8), %rcx
	movslq	-4(%rbp), %rdx
	movw	%ax, (%rcx,%rdx,2)
# %bb.11:                               # %for.inc
                                        #   in Loop: Header=BB46_9 Depth=2
	movl	-4(%rbp), %eax
	addl	$1, %eax
	movl	%eax, -4(%rbp)
	jmp	.LBB46_9
.LBB46_12:                              # %for.end
                                        #   in Loop: Header=BB46_7 Depth=1
	jmp	.LBB46_13
.LBB46_13:                              # %for.inc14
                                        #   in Loop: Header=BB46_7 Depth=1
	movl	-8(%rbp), %eax
	addl	$1, %eax
	movl	%eax, -8(%rbp)
	jmp	.LBB46_7
.LBB46_14:                              # %for.end16
	jmp	.LBB46_34
.LBB46_15:                              # %sw.bb17
	movl	$0, -8(%rbp)
.LBB46_16:                              # %for.cond18
                                        # =>This Loop Header: Depth=1
                                        #     Child Loop BB46_18 Depth 2
	movl	-8(%rbp), %eax
	cmpl	-20(%rbp), %eax
	jge	.LBB46_23
# %bb.17:                               # %for.body21
                                        #   in Loop: Header=BB46_16 Depth=1
	movl	$0, -4(%rbp)
.LBB46_18:                              # %for.cond22
                                        #   Parent Loop BB46_16 Depth=1
                                        # =>  This Inner Loop Header: Depth=2
	movl	-4(%rbp), %eax
	cmpl	-12(%rbp), %eax
	jge	.LBB46_21
# %bb.19:                               # %for.body25
                                        #   in Loop: Header=BB46_18 Depth=2
	movq	-48(%rbp), %rax
	movl	-4(%rbp), %ecx
	movl	-8(%rbp), %edx
	imull	-12(%rbp), %edx
	addl	%edx, %ecx
	shll	$1, %ecx
	movslq	%ecx, %rcx
	movw	(%rax,%rcx), %ax
	movw	%ax, -14(%rbp)
	movzwl	-14(%rbp), %eax
	sarl	$8, %eax
	movzwl	-14(%rbp), %ecx
	andl	$255, %ecx
	shll	$8, %ecx
	orl	%ecx, %eax
	movw	%ax, -26(%rbp)
	movw	-26(%rbp), %ax
	movq	-40(%rbp), %rcx
	movslq	-8(%rbp), %rdx
	movq	(%rcx,%rdx,8), %rcx
	movslq	-4(%rbp), %rdx
	movw	%ax, (%rcx,%rdx,2)
# %bb.20:                               # %for.inc36
                                        #   in Loop: Header=BB46_18 Depth=2
	movl	-4(%rbp), %eax
	addl	$1, %eax
	movl	%eax, -4(%rbp)
	jmp	.LBB46_18
.LBB46_21:                              # %for.end38
                                        #   in Loop: Header=BB46_16 Depth=1
	jmp	.LBB46_22
.LBB46_22:                              # %for.inc39
                                        #   in Loop: Header=BB46_16 Depth=1
	movl	-8(%rbp), %eax
	addl	$1, %eax
	movl	%eax, -8(%rbp)
	jmp	.LBB46_16
.LBB46_23:                              # %for.end41
	jmp	.LBB46_34
.LBB46_24:                              # %sw.bb42
	movl	$0, -8(%rbp)
.LBB46_25:                              # %for.cond43
                                        # =>This Loop Header: Depth=1
                                        #     Child Loop BB46_27 Depth 2
	movl	-8(%rbp), %eax
	cmpl	-20(%rbp), %eax
	jge	.LBB46_32
# %bb.26:                               # %for.body46
                                        #   in Loop: Header=BB46_25 Depth=1
	movl	$0, -4(%rbp)
.LBB46_27:                              # %for.cond47
                                        #   Parent Loop BB46_25 Depth=1
                                        # =>  This Inner Loop Header: Depth=2
	movl	-4(%rbp), %eax
	cmpl	-12(%rbp), %eax
	jge	.LBB46_30
# %bb.28:                               # %for.body50
                                        #   in Loop: Header=BB46_27 Depth=2
	movq	-48(%rbp), %rax
	movl	-4(%rbp), %ecx
	movl	-8(%rbp), %edx
	imull	-12(%rbp), %edx
	addl	%edx, %ecx
	shll	$2, %ecx
	movslq	%ecx, %rcx
	movl	(%rax,%rcx), %eax
	movl	%eax, -56(%rbp)
	movq	-56(%rbp), %rax
	andq	$65280, %rax            # imm = 0xFF00
	shlq	$8, %rax
	movq	-56(%rbp), %rcx
	andq	$255, %rcx
	shlq	$24, %rcx
	orq	%rcx, %rax
	movq	-56(%rbp), %rcx
	andq	$16711680, %rcx         # imm = 0xFF0000
	shrq	$8, %rcx
	orq	%rcx, %rax
	movl	$4278190080, %ecx       # imm = 0xFF000000
	andq	-56(%rbp), %rcx
	shrq	$24, %rcx
	orq	%rcx, %rax
	movq	%rax, -72(%rbp)
	movq	-72(%rbp), %rax
	movq	-40(%rbp), %rcx
	movslq	-8(%rbp), %rdx
	movq	(%rcx,%rdx,8), %rcx
	movslq	-4(%rbp), %rdx
	movw	%ax, (%rcx,%rdx,2)
# %bb.29:                               # %for.inc72
                                        #   in Loop: Header=BB46_27 Depth=2
	movl	-4(%rbp), %eax
	addl	$1, %eax
	movl	%eax, -4(%rbp)
	jmp	.LBB46_27
.LBB46_30:                              # %for.end74
                                        #   in Loop: Header=BB46_25 Depth=1
	jmp	.LBB46_31
.LBB46_31:                              # %for.inc75
                                        #   in Loop: Header=BB46_25 Depth=1
	movl	-8(%rbp), %eax
	addl	$1, %eax
	movl	%eax, -8(%rbp)
	jmp	.LBB46_25
.LBB46_32:                              # %for.end77
	jmp	.LBB46_33
.LBB46_33:                              # %sw.default
	movabsq	$.L.str.4, %rdi
	movl	$500, %esi              # imm = 0x1F4
	callq	error
.LBB46_34:                              # %sw.epilog
	jmp	.LBB46_44
.LBB46_35:                              # %if.else
	movl	$0, -8(%rbp)
.LBB46_36:                              # %for.cond78
                                        # =>This Loop Header: Depth=1
                                        #     Child Loop BB46_38 Depth 2
	movl	-8(%rbp), %eax
	cmpl	-20(%rbp), %eax
	jge	.LBB46_43
# %bb.37:                               # %for.body81
                                        #   in Loop: Header=BB46_36 Depth=1
	movl	$0, -4(%rbp)
.LBB46_38:                              # %for.cond82
                                        #   Parent Loop BB46_36 Depth=1
                                        # =>  This Inner Loop Header: Depth=2
	movl	-4(%rbp), %eax
	cmpl	-12(%rbp), %eax
	jge	.LBB46_41
# %bb.39:                               # %for.body85
                                        #   in Loop: Header=BB46_38 Depth=2
	movq	-40(%rbp), %rax
	movslq	-8(%rbp), %rcx
	movq	(%rax,%rcx,8), %rax
	movslq	-4(%rbp), %rcx
	movw	$0, (%rax,%rcx,2)
	movq	-40(%rbp), %rax
	movslq	-8(%rbp), %rcx
	movq	(%rax,%rcx,8), %rdi
	movslq	-4(%rbp), %rax
	shlq	$1, %rax
	addq	%rax, %rdi
	movq	-48(%rbp), %rsi
	movl	-4(%rbp), %eax
	movl	-8(%rbp), %ecx
	imull	-12(%rbp), %ecx
	addl	%ecx, %eax
	imull	-24(%rbp), %eax
	cltq
	addq	%rax, %rsi
	movslq	-24(%rbp), %rdx
	callq	memcpy
# %bb.40:                               # %for.inc100
                                        #   in Loop: Header=BB46_38 Depth=2
	movl	-4(%rbp), %eax
	addl	$1, %eax
	movl	%eax, -4(%rbp)
	jmp	.LBB46_38
.LBB46_41:                              # %for.end102
                                        #   in Loop: Header=BB46_36 Depth=1
	jmp	.LBB46_42
.LBB46_42:                              # %for.inc103
                                        #   in Loop: Header=BB46_36 Depth=1
	movl	-8(%rbp), %eax
	addl	$1, %eax
	movl	%eax, -8(%rbp)
	jmp	.LBB46_36
.LBB46_43:                              # %for.end105
	jmp	.LBB46_44
.LBB46_44:                              # %if.end106
	cmpl	$768168592, -60(%rbp)   # imm = 0x2DC95290
	jne	.LBB46_46
.LBB46_45:
	addq	$80, %rsp
	popq	%rbp
	.cfi_def_cfa %rsp, 8
	retq
.LBB46_46:                              # %func_exit
	.cfi_def_cfa %rbp, 16
	callq	detect_breach
	jmp	.LBB46_45
.Lfunc_end46:
	.size	buf2img.10, .Lfunc_end46-buf2img.10
	.cfi_endproc
                                        # -- End function
	.globl	field_picture.11        # -- Begin function field_picture.11
	.p2align	4, 0x90
	.type	field_picture.11,@function
field_picture.11:                       # @field_picture.11
	.cfi_startproc
# %bb.0:                                # %entry
	pushq	%rbp
	.cfi_def_cfa_offset 16
	.cfi_offset %rbp, -16
	movq	%rsp, %rbp
	.cfi_def_cfa_register %rbp
	subq	$32, %rsp
	movl	$1475773258, -16(%rbp)  # imm = 0x57F6834A
	movq	%rdi, -8(%rbp)
	movq	%rsi, -24(%rbp)
	movq	img, %rax
	movl	24(%rax), %eax
	movl	%eax, -28(%rbp)
	movq	stats, %rax
	movl	$0, 1472(%rax)
	movq	stats, %rax
	addq	$1472, %rax             # imm = 0x5C0
	movq	stats, %rcx
	movq	%rax, 1480(%rcx)
	movq	img, %rax
	movl	(%rax), %ecx
	shll	$1, %ecx
	movl	%ecx, (%rax)
	movq	img, %rax
	movl	72376(%rax), %ecx
	shll	$1, %ecx
	movl	%ecx, 72376(%rax)
	movq	input, %rax
	movl	68(%rax), %eax
	movq	img, %rcx
	addl	72732(%rcx), %eax
	cltd
	movl	$2, %ecx
	idivl	%ecx
	movq	img, %rdx
	movl	%eax, 60(%rdx)
	movq	img, %rax
	movl	68(%rax), %eax
	cltd
	idivl	%ecx
	movq	img, %rcx
	movl	%eax, 64(%rcx)
	movq	img, %rax
	movl	$1, 71800(%rax)
	movq	img, %rax
	movl	72488(%rax), %eax
	shrl	$1, %eax
	movq	img, %rcx
	movl	%eax, 72484(%rcx)
	movq	img, %rax
	movl	28(%rax), %edi
	movq	img, %rax
	movl	52(%rax), %esi
	movq	img, %rax
	movl	60(%rax), %edx
	movq	img, %rax
	movl	56(%rax), %ecx
	movq	img, %rax
	movl	64(%rax), %r8d
	callq	alloc_storable_picture
	movq	%rax, enc_top_picture
	movq	img, %rax
	movl	72448(%rax), %eax
	movq	enc_top_picture, %rcx
	movl	%eax, 4(%rcx)
	movq	img, %rax
	movl	72448(%rax), %eax
	movq	enc_top_picture, %rcx
	movl	%eax, 16(%rcx)
	movq	img, %rax
	movl	72464(%rax), %eax
	movq	enc_top_picture, %rcx
	movl	%eax, 6364(%rcx)
	movq	img, %rax
	movl	72464(%rax), %eax
	movq	enc_top_picture, %rcx
	movl	%eax, 6360(%rcx)
	movq	enc_top_picture, %rax
	movl	$0, 6412(%rax)
	movq	img, %rax
	movl	$0, 72400(%rax)
	movq	enc_top_picture, %rax
	movl	$0, 6416(%rax)
	movq	img, %rax
	movl	72448(%rax), %eax
	movq	img, %rcx
	movl	%eax, 72460(%rcx)
	movq	img, %rax
	movl	$1, 28(%rax)
	movq	enc_top_picture, %rax
	movq	%rax, enc_picture
	callq	copy_params
	callq	put_buffer_top
	callq	init_field
	movq	img, %rax
	cmpl	$1, 24(%rax)
	jne	.LBB47_2
# %bb.1:                                # %if.then
	movl	nextP_tr_fld, %eax
	addl	$-1, %eax
	movl	%eax, nextP_tr_fld
.LBB47_2:                               # %if.end
	movq	img, %rax
	movl	$1, 71800(%rax)
	movq	input, %rax
	cmpl	$0, 3236(%rax)
	je	.LBB47_7
# %bb.3:                                # %if.then15
	movq	input, %rax
	movl	3248(%rax), %eax
	movq	img, %rcx
	movl	%eax, 72620(%rcx)
	movq	input, %rax
	cmpl	$1, 2880(%rax)
	jne	.LBB47_5
# %bb.4:                                # %if.then17
	xorl	%edi, %edi
	movl	$1, %esi
	movl	$1, %edx
	callq	rc_init_pict
	jmp	.LBB47_6
.LBB47_5:                               # %if.else
	xorl	%edi, %edi
	movl	$1, %esi
	xorl	%edx, %edx
	callq	rc_init_pict
.LBB47_6:                               # %if.end18
	movl	$1, %edi
	callq	updateQuantizationParameter
	movq	img, %rcx
	movl	%eax, 40(%rcx)
.LBB47_7:                               # %if.end20
	movq	img, %rax
	movl	$1, 72596(%rax)
	movq	top_pic, %rdi
	callq	code_a_picture
	movq	enc_picture, %rax
	movl	$1, (%rax)
	movq	enc_top_picture, %rdi
	callq	store_picture_in_dpb
	movq	img, %rax
	movq	14160(%rax), %rax
	movq	24(%rax), %rax
	movq	(%rax), %rax
	movl	(%rax), %eax
	shll	$3, %eax
	movq	-8(%rbp), %rcx
	movl	%eax, 808(%rcx)
	movq	-8(%rbp), %rax
	movl	808(%rax), %eax
	movl	%eax, -12(%rbp)
	movq	img, %rax
	movl	28(%rax), %edi
	movq	img, %rax
	movl	52(%rax), %esi
	movq	img, %rax
	movl	60(%rax), %edx
	movq	img, %rax
	movl	56(%rax), %ecx
	movq	img, %rax
	movl	64(%rax), %r8d
	callq	alloc_storable_picture
	movq	%rax, enc_bottom_picture
	movq	img, %rax
	movl	72452(%rax), %eax
	movq	enc_bottom_picture, %rcx
	movl	%eax, 4(%rcx)
	movq	img, %rax
	movl	72452(%rax), %eax
	movq	enc_bottom_picture, %rcx
	movl	%eax, 16(%rcx)
	movq	img, %rax
	movl	72464(%rax), %eax
	movq	enc_bottom_picture, %rcx
	movl	%eax, 6364(%rcx)
	movq	img, %rax
	movl	72464(%rax), %eax
	movq	enc_bottom_picture, %rcx
	movl	%eax, 6360(%rcx)
	movq	enc_bottom_picture, %rax
	movl	$0, 6412(%rax)
	movq	img, %rax
	movl	$0, 72400(%rax)
	movq	enc_bottom_picture, %rax
	movl	$0, 6416(%rax)
	movq	img, %rax
	movl	72452(%rax), %eax
	movq	img, %rcx
	movl	%eax, 72460(%rcx)
	movq	img, %rax
	movl	$2, 28(%rax)
	movq	enc_bottom_picture, %rax
	movq	%rax, enc_picture
	callq	copy_params
	callq	put_buffer_bot
	movq	img, %rax
	movl	(%rax), %ecx
	addl	$1, %ecx
	movl	%ecx, (%rax)
	callq	init_field
	movq	img, %rax
	cmpl	$1, 24(%rax)
	jne	.LBB47_9
# %bb.8:                                # %if.then46
	movl	nextP_tr_fld, %eax
	addl	$1, %eax
	movl	%eax, nextP_tr_fld
.LBB47_9:                               # %if.end48
	movq	img, %rax
	cmpl	$2, 24(%rax)
	jne	.LBB47_12
# %bb.10:                               # %land.lhs.true
	movq	input, %rax
	cmpl	$1, 2888(%rax)
	je	.LBB47_12
# %bb.11:                               # %if.then52
	movq	img, %rax
	movl	$0, 24(%rax)
.LBB47_12:                              # %if.end54
	movq	img, %rax
	movl	$1, 71800(%rax)
	movq	input, %rax
	cmpl	$0, 3236(%rax)
	je	.LBB47_14
# %bb.13:                               # %if.then58
	movl	-12(%rbp), %edi
	callq	setbitscount
.LBB47_14:                              # %if.end59
	movq	input, %rax
	cmpl	$0, 3236(%rax)
	je	.LBB47_16
# %bb.15:                               # %if.then62
	xorl	%edi, %edi
	xorl	%esi, %esi
	xorl	%edx, %edx
	callq	rc_init_pict
	xorl	%edi, %edi
	callq	updateQuantizationParameter
	movq	img, %rcx
	movl	%eax, 40(%rcx)
.LBB47_16:                              # %if.end65
	movq	img, %rax
	movl	$0, 72596(%rax)
	movq	enc_picture, %rax
	movl	$2, (%rax)
	movq	bottom_pic, %rdi
	callq	code_a_picture
	movq	img, %rax
	movq	14160(%rax), %rax
	movq	24(%rax), %rax
	movq	(%rax), %rax
	movl	(%rax), %eax
	shll	$3, %eax
	movq	-24(%rbp), %rcx
	movl	%eax, 808(%rcx)
	movq	-8(%rbp), %rdi
	addq	$812, %rdi              # imm = 0x32C
	movq	-8(%rbp), %rsi
	addq	$816, %rsi              # imm = 0x330
	movq	-8(%rbp), %rdx
	addq	$820, %rdx              # imm = 0x334
	callq	distortion_fld
	cmpl	$1475773258, -16(%rbp)  # imm = 0x57F6834A
	jne	.LBB47_18
.LBB47_17:
	addq	$32, %rsp
	popq	%rbp
	.cfi_def_cfa %rsp, 8
	retq
.LBB47_18:                              # %func_exit
	.cfi_def_cfa %rbp, 16
	callq	detect_breach
	jmp	.LBB47_17
.Lfunc_end47:
	.size	field_picture.11, .Lfunc_end47-field_picture.11
	.cfi_endproc
                                        # -- End function
	.globl	buf2img.12              # -- Begin function buf2img.12
	.p2align	4, 0x90
	.type	buf2img.12,@function
buf2img.12:                             # @buf2img.12
	.cfi_startproc
# %bb.0:                                # %entry
	pushq	%rbp
	.cfi_def_cfa_offset 16
	.cfi_offset %rbp, -16
	movq	%rsp, %rbp
	.cfi_def_cfa_register %rbp
	subq	$80, %rsp
	movl	$1956639899, -60(%rbp)  # imm = 0x749FF49B
	movq	%rdi, -40(%rbp)
	movq	%rsi, -56(%rbp)
	movl	%edx, -12(%rbp)
	movl	%ecx, -24(%rbp)
	movl	%r8d, -20(%rbp)
	movslq	-20(%rbp), %rax
	cmpq	$2, %rax
	jbe	.LBB48_2
# %bb.1:                                # %if.then
	movabsq	$.L.str.3, %rdi
	movl	$500, %esi              # imm = 0x1F4
	callq	error
.LBB48_2:                               # %if.end
	movb	$0, %al
	callq	testEndian
	cmpl	$0, %eax
	je	.LBB48_35
# %bb.3:                                # %if.then2
	movl	-20(%rbp), %eax
	movl	%eax, %ecx
	subl	$1, %ecx
	je	.LBB48_6
	jmp	.LBB48_4
.LBB48_4:                               # %if.then2
	movl	%eax, %ecx
	subl	$2, %ecx
	je	.LBB48_15
	jmp	.LBB48_5
.LBB48_5:                               # %if.then2
	subl	$4, %eax
	je	.LBB48_24
	jmp	.LBB48_33
.LBB48_6:                               # %sw.bb
	movl	$0, -4(%rbp)
.LBB48_7:                               # %for.cond
                                        # =>This Loop Header: Depth=1
                                        #     Child Loop BB48_9 Depth 2
	movl	-4(%rbp), %eax
	cmpl	-24(%rbp), %eax
	jge	.LBB48_14
# %bb.8:                                # %for.body
                                        #   in Loop: Header=BB48_7 Depth=1
	movl	$0, -8(%rbp)
.LBB48_9:                               # %for.cond5
                                        #   Parent Loop BB48_7 Depth=1
                                        # =>  This Inner Loop Header: Depth=2
	movl	-8(%rbp), %eax
	cmpl	-12(%rbp), %eax
	jge	.LBB48_12
# %bb.10:                               # %for.body8
                                        #   in Loop: Header=BB48_9 Depth=2
	movq	-56(%rbp), %rax
	movl	-8(%rbp), %ecx
	movl	-4(%rbp), %edx
	imull	-12(%rbp), %edx
	addl	%edx, %ecx
	movslq	%ecx, %rcx
	movzbl	(%rax,%rcx), %eax
	movq	-40(%rbp), %rcx
	movslq	-4(%rbp), %rdx
	movq	(%rcx,%rdx,8), %rcx
	movslq	-8(%rbp), %rdx
	movw	%ax, (%rcx,%rdx,2)
# %bb.11:                               # %for.inc
                                        #   in Loop: Header=BB48_9 Depth=2
	movl	-8(%rbp), %eax
	addl	$1, %eax
	movl	%eax, -8(%rbp)
	jmp	.LBB48_9
.LBB48_12:                              # %for.end
                                        #   in Loop: Header=BB48_7 Depth=1
	jmp	.LBB48_13
.LBB48_13:                              # %for.inc14
                                        #   in Loop: Header=BB48_7 Depth=1
	movl	-4(%rbp), %eax
	addl	$1, %eax
	movl	%eax, -4(%rbp)
	jmp	.LBB48_7
.LBB48_14:                              # %for.end16
	jmp	.LBB48_34
.LBB48_15:                              # %sw.bb17
	movl	$0, -4(%rbp)
.LBB48_16:                              # %for.cond18
                                        # =>This Loop Header: Depth=1
                                        #     Child Loop BB48_18 Depth 2
	movl	-4(%rbp), %eax
	cmpl	-24(%rbp), %eax
	jge	.LBB48_23
# %bb.17:                               # %for.body21
                                        #   in Loop: Header=BB48_16 Depth=1
	movl	$0, -8(%rbp)
.LBB48_18:                              # %for.cond22
                                        #   Parent Loop BB48_16 Depth=1
                                        # =>  This Inner Loop Header: Depth=2
	movl	-8(%rbp), %eax
	cmpl	-12(%rbp), %eax
	jge	.LBB48_21
# %bb.19:                               # %for.body25
                                        #   in Loop: Header=BB48_18 Depth=2
	movq	-56(%rbp), %rax
	movl	-8(%rbp), %ecx
	movl	-4(%rbp), %edx
	imull	-12(%rbp), %edx
	addl	%edx, %ecx
	shll	$1, %ecx
	movslq	%ecx, %rcx
	movw	(%rax,%rcx), %ax
	movw	%ax, -14(%rbp)
	movzwl	-14(%rbp), %eax
	sarl	$8, %eax
	movzwl	-14(%rbp), %ecx
	andl	$255, %ecx
	shll	$8, %ecx
	orl	%ecx, %eax
	movw	%ax, -26(%rbp)
	movw	-26(%rbp), %ax
	movq	-40(%rbp), %rcx
	movslq	-4(%rbp), %rdx
	movq	(%rcx,%rdx,8), %rcx
	movslq	-8(%rbp), %rdx
	movw	%ax, (%rcx,%rdx,2)
# %bb.20:                               # %for.inc36
                                        #   in Loop: Header=BB48_18 Depth=2
	movl	-8(%rbp), %eax
	addl	$1, %eax
	movl	%eax, -8(%rbp)
	jmp	.LBB48_18
.LBB48_21:                              # %for.end38
                                        #   in Loop: Header=BB48_16 Depth=1
	jmp	.LBB48_22
.LBB48_22:                              # %for.inc39
                                        #   in Loop: Header=BB48_16 Depth=1
	movl	-4(%rbp), %eax
	addl	$1, %eax
	movl	%eax, -4(%rbp)
	jmp	.LBB48_16
.LBB48_23:                              # %for.end41
	jmp	.LBB48_34
.LBB48_24:                              # %sw.bb42
	movl	$0, -4(%rbp)
.LBB48_25:                              # %for.cond43
                                        # =>This Loop Header: Depth=1
                                        #     Child Loop BB48_27 Depth 2
	movl	-4(%rbp), %eax
	cmpl	-24(%rbp), %eax
	jge	.LBB48_32
# %bb.26:                               # %for.body46
                                        #   in Loop: Header=BB48_25 Depth=1
	movl	$0, -8(%rbp)
.LBB48_27:                              # %for.cond47
                                        #   Parent Loop BB48_25 Depth=1
                                        # =>  This Inner Loop Header: Depth=2
	movl	-8(%rbp), %eax
	cmpl	-12(%rbp), %eax
	jge	.LBB48_30
# %bb.28:                               # %for.body50
                                        #   in Loop: Header=BB48_27 Depth=2
	movq	-56(%rbp), %rax
	movl	-8(%rbp), %ecx
	movl	-4(%rbp), %edx
	imull	-12(%rbp), %edx
	addl	%edx, %ecx
	shll	$2, %ecx
	movslq	%ecx, %rcx
	movl	(%rax,%rcx), %eax
	movl	%eax, -48(%rbp)
	movq	-48(%rbp), %rax
	andq	$65280, %rax            # imm = 0xFF00
	shlq	$8, %rax
	movq	-48(%rbp), %rcx
	andq	$255, %rcx
	shlq	$24, %rcx
	orq	%rcx, %rax
	movq	-48(%rbp), %rcx
	andq	$16711680, %rcx         # imm = 0xFF0000
	shrq	$8, %rcx
	orq	%rcx, %rax
	movl	$4278190080, %ecx       # imm = 0xFF000000
	andq	-48(%rbp), %rcx
	shrq	$24, %rcx
	orq	%rcx, %rax
	movq	%rax, -72(%rbp)
	movq	-72(%rbp), %rax
	movq	-40(%rbp), %rcx
	movslq	-4(%rbp), %rdx
	movq	(%rcx,%rdx,8), %rcx
	movslq	-8(%rbp), %rdx
	movw	%ax, (%rcx,%rdx,2)
# %bb.29:                               # %for.inc72
                                        #   in Loop: Header=BB48_27 Depth=2
	movl	-8(%rbp), %eax
	addl	$1, %eax
	movl	%eax, -8(%rbp)
	jmp	.LBB48_27
.LBB48_30:                              # %for.end74
                                        #   in Loop: Header=BB48_25 Depth=1
	jmp	.LBB48_31
.LBB48_31:                              # %for.inc75
                                        #   in Loop: Header=BB48_25 Depth=1
	movl	-4(%rbp), %eax
	addl	$1, %eax
	movl	%eax, -4(%rbp)
	jmp	.LBB48_25
.LBB48_32:                              # %for.end77
	jmp	.LBB48_33
.LBB48_33:                              # %sw.default
	movabsq	$.L.str.4, %rdi
	movl	$500, %esi              # imm = 0x1F4
	callq	error
.LBB48_34:                              # %sw.epilog
	jmp	.LBB48_44
.LBB48_35:                              # %if.else
	movl	$0, -4(%rbp)
.LBB48_36:                              # %for.cond78
                                        # =>This Loop Header: Depth=1
                                        #     Child Loop BB48_38 Depth 2
	movl	-4(%rbp), %eax
	cmpl	-24(%rbp), %eax
	jge	.LBB48_43
# %bb.37:                               # %for.body81
                                        #   in Loop: Header=BB48_36 Depth=1
	movl	$0, -8(%rbp)
.LBB48_38:                              # %for.cond82
                                        #   Parent Loop BB48_36 Depth=1
                                        # =>  This Inner Loop Header: Depth=2
	movl	-8(%rbp), %eax
	cmpl	-12(%rbp), %eax
	jge	.LBB48_41
# %bb.39:                               # %for.body85
                                        #   in Loop: Header=BB48_38 Depth=2
	movq	-40(%rbp), %rax
	movslq	-4(%rbp), %rcx
	movq	(%rax,%rcx,8), %rax
	movslq	-8(%rbp), %rcx
	movw	$0, (%rax,%rcx,2)
	movq	-40(%rbp), %rax
	movslq	-4(%rbp), %rcx
	movq	(%rax,%rcx,8), %rdi
	movslq	-8(%rbp), %rax
	shlq	$1, %rax
	addq	%rax, %rdi
	movq	-56(%rbp), %rsi
	movl	-8(%rbp), %eax
	movl	-4(%rbp), %ecx
	imull	-12(%rbp), %ecx
	addl	%ecx, %eax
	imull	-20(%rbp), %eax
	cltq
	addq	%rax, %rsi
	movslq	-20(%rbp), %rdx
	callq	memcpy
# %bb.40:                               # %for.inc100
                                        #   in Loop: Header=BB48_38 Depth=2
	movl	-8(%rbp), %eax
	addl	$1, %eax
	movl	%eax, -8(%rbp)
	jmp	.LBB48_38
.LBB48_41:                              # %for.end102
                                        #   in Loop: Header=BB48_36 Depth=1
	jmp	.LBB48_42
.LBB48_42:                              # %for.inc103
                                        #   in Loop: Header=BB48_36 Depth=1
	movl	-4(%rbp), %eax
	addl	$1, %eax
	movl	%eax, -4(%rbp)
	jmp	.LBB48_36
.LBB48_43:                              # %for.end105
	jmp	.LBB48_44
.LBB48_44:                              # %if.end106
	cmpl	$1956639899, -60(%rbp)  # imm = 0x749FF49B
	jne	.LBB48_46
.LBB48_45:
	addq	$80, %rsp
	popq	%rbp
	.cfi_def_cfa %rsp, 8
	retq
.LBB48_46:                              # %func_exit
	.cfi_def_cfa %rbp, 16
	callq	detect_breach
	jmp	.LBB48_45
.Lfunc_end48:
	.size	buf2img.12, .Lfunc_end48-buf2img.12
	.cfi_endproc
                                        # -- End function
	.globl	buf2img.13              # -- Begin function buf2img.13
	.p2align	4, 0x90
	.type	buf2img.13,@function
buf2img.13:                             # @buf2img.13
	.cfi_startproc
# %bb.0:                                # %entry
	pushq	%rbp
	.cfi_def_cfa_offset 16
	.cfi_offset %rbp, -16
	movq	%rsp, %rbp
	.cfi_def_cfa_register %rbp
	subq	$80, %rsp
	movl	$673903695, -60(%rbp)   # imm = 0x282AF44F
	movq	%rdi, -40(%rbp)
	movq	%rsi, -48(%rbp)
	movl	%edx, -12(%rbp)
	movl	%ecx, -24(%rbp)
	movl	%r8d, -20(%rbp)
	movslq	-20(%rbp), %rax
	cmpq	$2, %rax
	jbe	.LBB49_2
# %bb.1:                                # %if.then
	movabsq	$.L.str.3, %rdi
	movl	$500, %esi              # imm = 0x1F4
	callq	error
.LBB49_2:                               # %if.end
	movb	$0, %al
	callq	testEndian
	cmpl	$0, %eax
	je	.LBB49_35
# %bb.3:                                # %if.then2
	movl	-20(%rbp), %eax
	movl	%eax, %ecx
	subl	$1, %ecx
	je	.LBB49_6
	jmp	.LBB49_4
.LBB49_4:                               # %if.then2
	movl	%eax, %ecx
	subl	$2, %ecx
	je	.LBB49_15
	jmp	.LBB49_5
.LBB49_5:                               # %if.then2
	subl	$4, %eax
	je	.LBB49_24
	jmp	.LBB49_33
.LBB49_6:                               # %sw.bb
	movl	$0, -4(%rbp)
.LBB49_7:                               # %for.cond
                                        # =>This Loop Header: Depth=1
                                        #     Child Loop BB49_9 Depth 2
	movl	-4(%rbp), %eax
	cmpl	-24(%rbp), %eax
	jge	.LBB49_14
# %bb.8:                                # %for.body
                                        #   in Loop: Header=BB49_7 Depth=1
	movl	$0, -8(%rbp)
.LBB49_9:                               # %for.cond5
                                        #   Parent Loop BB49_7 Depth=1
                                        # =>  This Inner Loop Header: Depth=2
	movl	-8(%rbp), %eax
	cmpl	-12(%rbp), %eax
	jge	.LBB49_12
# %bb.10:                               # %for.body8
                                        #   in Loop: Header=BB49_9 Depth=2
	movq	-48(%rbp), %rax
	movl	-8(%rbp), %ecx
	movl	-4(%rbp), %edx
	imull	-12(%rbp), %edx
	addl	%edx, %ecx
	movslq	%ecx, %rcx
	movzbl	(%rax,%rcx), %eax
	movq	-40(%rbp), %rcx
	movslq	-4(%rbp), %rdx
	movq	(%rcx,%rdx,8), %rcx
	movslq	-8(%rbp), %rdx
	movw	%ax, (%rcx,%rdx,2)
# %bb.11:                               # %for.inc
                                        #   in Loop: Header=BB49_9 Depth=2
	movl	-8(%rbp), %eax
	addl	$1, %eax
	movl	%eax, -8(%rbp)
	jmp	.LBB49_9
.LBB49_12:                              # %for.end
                                        #   in Loop: Header=BB49_7 Depth=1
	jmp	.LBB49_13
.LBB49_13:                              # %for.inc14
                                        #   in Loop: Header=BB49_7 Depth=1
	movl	-4(%rbp), %eax
	addl	$1, %eax
	movl	%eax, -4(%rbp)
	jmp	.LBB49_7
.LBB49_14:                              # %for.end16
	jmp	.LBB49_34
.LBB49_15:                              # %sw.bb17
	movl	$0, -4(%rbp)
.LBB49_16:                              # %for.cond18
                                        # =>This Loop Header: Depth=1
                                        #     Child Loop BB49_18 Depth 2
	movl	-4(%rbp), %eax
	cmpl	-24(%rbp), %eax
	jge	.LBB49_23
# %bb.17:                               # %for.body21
                                        #   in Loop: Header=BB49_16 Depth=1
	movl	$0, -8(%rbp)
.LBB49_18:                              # %for.cond22
                                        #   Parent Loop BB49_16 Depth=1
                                        # =>  This Inner Loop Header: Depth=2
	movl	-8(%rbp), %eax
	cmpl	-12(%rbp), %eax
	jge	.LBB49_21
# %bb.19:                               # %for.body25
                                        #   in Loop: Header=BB49_18 Depth=2
	movq	-48(%rbp), %rax
	movl	-8(%rbp), %ecx
	movl	-4(%rbp), %edx
	imull	-12(%rbp), %edx
	addl	%edx, %ecx
	shll	$1, %ecx
	movslq	%ecx, %rcx
	movw	(%rax,%rcx), %ax
	movw	%ax, -14(%rbp)
	movzwl	-14(%rbp), %eax
	sarl	$8, %eax
	movzwl	-14(%rbp), %ecx
	andl	$255, %ecx
	shll	$8, %ecx
	orl	%ecx, %eax
	movw	%ax, -26(%rbp)
	movw	-26(%rbp), %ax
	movq	-40(%rbp), %rcx
	movslq	-4(%rbp), %rdx
	movq	(%rcx,%rdx,8), %rcx
	movslq	-8(%rbp), %rdx
	movw	%ax, (%rcx,%rdx,2)
# %bb.20:                               # %for.inc36
                                        #   in Loop: Header=BB49_18 Depth=2
	movl	-8(%rbp), %eax
	addl	$1, %eax
	movl	%eax, -8(%rbp)
	jmp	.LBB49_18
.LBB49_21:                              # %for.end38
                                        #   in Loop: Header=BB49_16 Depth=1
	jmp	.LBB49_22
.LBB49_22:                              # %for.inc39
                                        #   in Loop: Header=BB49_16 Depth=1
	movl	-4(%rbp), %eax
	addl	$1, %eax
	movl	%eax, -4(%rbp)
	jmp	.LBB49_16
.LBB49_23:                              # %for.end41
	jmp	.LBB49_34
.LBB49_24:                              # %sw.bb42
	movl	$0, -4(%rbp)
.LBB49_25:                              # %for.cond43
                                        # =>This Loop Header: Depth=1
                                        #     Child Loop BB49_27 Depth 2
	movl	-4(%rbp), %eax
	cmpl	-24(%rbp), %eax
	jge	.LBB49_32
# %bb.26:                               # %for.body46
                                        #   in Loop: Header=BB49_25 Depth=1
	movl	$0, -8(%rbp)
.LBB49_27:                              # %for.cond47
                                        #   Parent Loop BB49_25 Depth=1
                                        # =>  This Inner Loop Header: Depth=2
	movl	-8(%rbp), %eax
	cmpl	-12(%rbp), %eax
	jge	.LBB49_30
# %bb.28:                               # %for.body50
                                        #   in Loop: Header=BB49_27 Depth=2
	movq	-48(%rbp), %rax
	movl	-8(%rbp), %ecx
	movl	-4(%rbp), %edx
	imull	-12(%rbp), %edx
	addl	%edx, %ecx
	shll	$2, %ecx
	movslq	%ecx, %rcx
	movl	(%rax,%rcx), %eax
	movl	%eax, -56(%rbp)
	movq	-56(%rbp), %rax
	andq	$65280, %rax            # imm = 0xFF00
	shlq	$8, %rax
	movq	-56(%rbp), %rcx
	andq	$255, %rcx
	shlq	$24, %rcx
	orq	%rcx, %rax
	movq	-56(%rbp), %rcx
	andq	$16711680, %rcx         # imm = 0xFF0000
	shrq	$8, %rcx
	orq	%rcx, %rax
	movl	$4278190080, %ecx       # imm = 0xFF000000
	andq	-56(%rbp), %rcx
	shrq	$24, %rcx
	orq	%rcx, %rax
	movq	%rax, -72(%rbp)
	movq	-72(%rbp), %rax
	movq	-40(%rbp), %rcx
	movslq	-4(%rbp), %rdx
	movq	(%rcx,%rdx,8), %rcx
	movslq	-8(%rbp), %rdx
	movw	%ax, (%rcx,%rdx,2)
# %bb.29:                               # %for.inc72
                                        #   in Loop: Header=BB49_27 Depth=2
	movl	-8(%rbp), %eax
	addl	$1, %eax
	movl	%eax, -8(%rbp)
	jmp	.LBB49_27
.LBB49_30:                              # %for.end74
                                        #   in Loop: Header=BB49_25 Depth=1
	jmp	.LBB49_31
.LBB49_31:                              # %for.inc75
                                        #   in Loop: Header=BB49_25 Depth=1
	movl	-4(%rbp), %eax
	addl	$1, %eax
	movl	%eax, -4(%rbp)
	jmp	.LBB49_25
.LBB49_32:                              # %for.end77
	jmp	.LBB49_33
.LBB49_33:                              # %sw.default
	movabsq	$.L.str.4, %rdi
	movl	$500, %esi              # imm = 0x1F4
	callq	error
.LBB49_34:                              # %sw.epilog
	jmp	.LBB49_44
.LBB49_35:                              # %if.else
	movl	$0, -4(%rbp)
.LBB49_36:                              # %for.cond78
                                        # =>This Loop Header: Depth=1
                                        #     Child Loop BB49_38 Depth 2
	movl	-4(%rbp), %eax
	cmpl	-24(%rbp), %eax
	jge	.LBB49_43
# %bb.37:                               # %for.body81
                                        #   in Loop: Header=BB49_36 Depth=1
	movl	$0, -8(%rbp)
.LBB49_38:                              # %for.cond82
                                        #   Parent Loop BB49_36 Depth=1
                                        # =>  This Inner Loop Header: Depth=2
	movl	-8(%rbp), %eax
	cmpl	-12(%rbp), %eax
	jge	.LBB49_41
# %bb.39:                               # %for.body85
                                        #   in Loop: Header=BB49_38 Depth=2
	movq	-40(%rbp), %rax
	movslq	-4(%rbp), %rcx
	movq	(%rax,%rcx,8), %rax
	movslq	-8(%rbp), %rcx
	movw	$0, (%rax,%rcx,2)
	movq	-40(%rbp), %rax
	movslq	-4(%rbp), %rcx
	movq	(%rax,%rcx,8), %rdi
	movslq	-8(%rbp), %rax
	shlq	$1, %rax
	addq	%rax, %rdi
	movq	-48(%rbp), %rsi
	movl	-8(%rbp), %eax
	movl	-4(%rbp), %ecx
	imull	-12(%rbp), %ecx
	addl	%ecx, %eax
	imull	-20(%rbp), %eax
	cltq
	addq	%rax, %rsi
	movslq	-20(%rbp), %rdx
	callq	memcpy
# %bb.40:                               # %for.inc100
                                        #   in Loop: Header=BB49_38 Depth=2
	movl	-8(%rbp), %eax
	addl	$1, %eax
	movl	%eax, -8(%rbp)
	jmp	.LBB49_38
.LBB49_41:                              # %for.end102
                                        #   in Loop: Header=BB49_36 Depth=1
	jmp	.LBB49_42
.LBB49_42:                              # %for.inc103
                                        #   in Loop: Header=BB49_36 Depth=1
	movl	-4(%rbp), %eax
	addl	$1, %eax
	movl	%eax, -4(%rbp)
	jmp	.LBB49_36
.LBB49_43:                              # %for.end105
	jmp	.LBB49_44
.LBB49_44:                              # %if.end106
	cmpl	$673903695, -60(%rbp)   # imm = 0x282AF44F
	jne	.LBB49_46
.LBB49_45:
	addq	$80, %rsp
	popq	%rbp
	.cfi_def_cfa %rsp, 8
	retq
.LBB49_46:                              # %func_exit
	.cfi_def_cfa %rbp, 16
	callq	detect_breach
	jmp	.LBB49_45
.Lfunc_end49:
	.size	buf2img.13, .Lfunc_end49-buf2img.13
	.cfi_endproc
                                        # -- End function
	.globl	frame_picture.14        # -- Begin function frame_picture.14
	.p2align	4, 0x90
	.type	frame_picture.14,@function
frame_picture.14:                       # @frame_picture.14
	.cfi_startproc
# %bb.0:                                # %entry
	pushq	%rbp
	.cfi_def_cfa_offset 16
	.cfi_offset %rbp, -16
	movq	%rsp, %rbp
	.cfi_def_cfa_register %rbp
	subq	$16, %rsp
	movl	$1212270217, -16(%rbp)  # imm = 0x4841C689
	movq	%rdi, -8(%rbp)
	movl	%esi, -12(%rbp)
	movq	img, %rax
	movl	$0, 28(%rax)
	movq	img, %rax
	movl	72488(%rax), %eax
	movq	img, %rcx
	movl	%eax, 72484(%rcx)
	cmpl	$2, -12(%rbp)
	jne	.LBB50_2
# %bb.1:                                # %if.then
	movq	img, %rax
	movl	28(%rax), %edi
	movq	img, %rax
	movl	52(%rax), %esi
	movq	img, %rax
	movl	60(%rax), %edx
	movq	img, %rax
	movl	56(%rax), %ecx
	movq	img, %rax
	movl	64(%rax), %r8d
	callq	alloc_storable_picture
	movq	%rax, enc_frame_picture3
	movq	img, %rax
	movl	72456(%rax), %eax
	movq	enc_frame_picture3, %rcx
	movl	%eax, 4(%rcx)
	movq	img, %rcx
	movl	%eax, 72460(%rcx)
	movq	img, %rax
	movl	72448(%rax), %eax
	movq	enc_frame_picture3, %rcx
	movl	%eax, 8(%rcx)
	movq	img, %rax
	movl	72452(%rax), %eax
	movq	enc_frame_picture3, %rcx
	movl	%eax, 12(%rcx)
	movq	img, %rax
	movl	72456(%rax), %eax
	movq	enc_frame_picture3, %rcx
	movl	%eax, 16(%rcx)
	movq	img, %rax
	movl	72464(%rax), %eax
	movq	enc_frame_picture3, %rcx
	movl	%eax, 6364(%rcx)
	movq	img, %rax
	movl	72464(%rax), %eax
	movq	enc_frame_picture3, %rcx
	movl	%eax, 6360(%rcx)
	movq	enc_frame_picture3, %rax
	movl	$1, 6412(%rax)
	movq	input, %rax
	cmpl	$0, 2884(%rax)
	setne	%al
	andb	$1, %al
	movzbl	%al, %eax
	movq	img, %rcx
	movl	%eax, 72400(%rcx)
	movq	enc_frame_picture3, %rcx
	movl	%eax, 6416(%rcx)
	movq	enc_frame_picture3, %rax
	movq	%rax, enc_picture
	callq	copy_params
	jmp	.LBB50_6
.LBB50_2:                               # %if.else
	cmpl	$1, -12(%rbp)
	jne	.LBB50_4
# %bb.3:                                # %if.then9
	movq	img, %rax
	movl	28(%rax), %edi
	movq	img, %rax
	movl	52(%rax), %esi
	movq	img, %rax
	movl	60(%rax), %edx
	movq	img, %rax
	movl	56(%rax), %ecx
	movq	img, %rax
	movl	64(%rax), %r8d
	callq	alloc_storable_picture
	movq	%rax, enc_frame_picture2
	movq	img, %rax
	movl	72456(%rax), %eax
	movq	enc_frame_picture2, %rcx
	movl	%eax, 4(%rcx)
	movq	img, %rcx
	movl	%eax, 72460(%rcx)
	movq	img, %rax
	movl	72448(%rax), %eax
	movq	enc_frame_picture2, %rcx
	movl	%eax, 8(%rcx)
	movq	img, %rax
	movl	72452(%rax), %eax
	movq	enc_frame_picture2, %rcx
	movl	%eax, 12(%rcx)
	movq	img, %rax
	movl	72456(%rax), %eax
	movq	enc_frame_picture2, %rcx
	movl	%eax, 16(%rcx)
	movq	img, %rax
	movl	72464(%rax), %eax
	movq	enc_frame_picture2, %rcx
	movl	%eax, 6364(%rcx)
	movq	img, %rax
	movl	72464(%rax), %eax
	movq	enc_frame_picture2, %rcx
	movl	%eax, 6360(%rcx)
	movq	enc_frame_picture2, %rax
	movl	$1, 6412(%rax)
	movq	input, %rax
	cmpl	$0, 2884(%rax)
	setne	%al
	andb	$1, %al
	movzbl	%al, %eax
	movq	img, %rcx
	movl	%eax, 72400(%rcx)
	movq	enc_frame_picture2, %rcx
	movl	%eax, 6416(%rcx)
	movq	enc_frame_picture2, %rax
	movq	%rax, enc_picture
	callq	copy_params
	jmp	.LBB50_5
.LBB50_4:                               # %if.else35
	movq	img, %rax
	movl	28(%rax), %edi
	movq	img, %rax
	movl	52(%rax), %esi
	movq	img, %rax
	movl	60(%rax), %edx
	movq	img, %rax
	movl	56(%rax), %ecx
	movq	img, %rax
	movl	64(%rax), %r8d
	callq	alloc_storable_picture
	movq	%rax, enc_frame_picture
	movq	img, %rax
	movl	72456(%rax), %eax
	movq	enc_frame_picture, %rcx
	movl	%eax, 4(%rcx)
	movq	img, %rcx
	movl	%eax, 72460(%rcx)
	movq	img, %rax
	movl	72448(%rax), %eax
	movq	enc_frame_picture, %rcx
	movl	%eax, 8(%rcx)
	movq	img, %rax
	movl	72452(%rax), %eax
	movq	enc_frame_picture, %rcx
	movl	%eax, 12(%rcx)
	movq	img, %rax
	movl	72456(%rax), %eax
	movq	enc_frame_picture, %rcx
	movl	%eax, 16(%rcx)
	movq	img, %rax
	movl	72464(%rax), %eax
	movq	enc_frame_picture, %rcx
	movl	%eax, 6364(%rcx)
	movq	img, %rax
	movl	72464(%rax), %eax
	movq	enc_frame_picture, %rcx
	movl	%eax, 6360(%rcx)
	movq	enc_frame_picture, %rax
	movl	$1, 6412(%rax)
	movq	input, %rax
	cmpl	$0, 2884(%rax)
	setne	%al
	andb	$1, %al
	movzbl	%al, %eax
	movq	img, %rcx
	movl	%eax, 72400(%rcx)
	movq	enc_frame_picture, %rcx
	movl	%eax, 6416(%rcx)
	movq	enc_frame_picture, %rax
	movq	%rax, enc_picture
	callq	copy_params
.LBB50_5:                               # %if.end
	jmp	.LBB50_6
.LBB50_6:                               # %if.end61
	movq	stats, %rax
	movl	$0, 1468(%rax)
	movq	stats, %rax
	addq	$1468, %rax             # imm = 0x5BC
	movq	stats, %rcx
	movq	%rax, 1480(%rcx)
	movq	img, %rax
	movl	$0, 71800(%rax)
	movq	-8(%rbp), %rdi
	callq	code_a_picture
	movq	img, %rax
	movq	14160(%rax), %rax
	movq	24(%rax), %rax
	movq	(%rax), %rax
	movl	(%rax), %eax
	shll	$3, %eax
	movq	-8(%rbp), %rcx
	movl	%eax, 808(%rcx)
	movq	img, %rax
	cmpl	$0, 28(%rax)
	jne	.LBB50_8
# %bb.7:                                # %if.then66
	callq	find_distortion
	movq	snr, %rax
	vmovss	(%rax), %xmm0           # xmm0 = mem[0],zero,zero,zero
	movq	-8(%rbp), %rax
	vmovss	%xmm0, 812(%rax)
	movq	snr, %rax
	vmovss	4(%rax), %xmm0          # xmm0 = mem[0],zero,zero,zero
	movq	-8(%rbp), %rax
	vmovss	%xmm0, 816(%rax)
	movq	snr, %rax
	vmovss	8(%rax), %xmm0          # xmm0 = mem[0],zero,zero,zero
	movq	-8(%rbp), %rax
	vmovss	%xmm0, 820(%rax)
.LBB50_8:                               # %if.end67
	cmpl	$1212270217, -16(%rbp)  # imm = 0x4841C689
	jne	.LBB50_10
.LBB50_9:
	addq	$16, %rsp
	popq	%rbp
	.cfi_def_cfa %rsp, 8
	retq
.LBB50_10:                              # %func_exit
	.cfi_def_cfa %rbp, 16
	callq	detect_breach
	jmp	.LBB50_9
.Lfunc_end50:
	.size	frame_picture.14, .Lfunc_end50-frame_picture.14
	.cfi_endproc
                                        # -- End function
	.p2align	4, 0x90         # -- Begin function distortion_fld.15
	.type	distortion_fld.15,@function
distortion_fld.15:                      # @distortion_fld.15
	.cfi_startproc
# %bb.0:                                # %entry
	pushq	%rbp
	.cfi_def_cfa_offset 16
	.cfi_offset %rbp, -16
	movq	%rsp, %rbp
	.cfi_def_cfa_register %rbp
	subq	$32, %rsp
	movl	$715345855, -4(%rbp)    # imm = 0x2AA34FBF
	movq	%rdi, -24(%rbp)
	movq	%rsi, -16(%rbp)
	movq	%rdx, -32(%rbp)
	movq	img, %rcx
	movl	(%rcx), %eax
	cltd
	movl	$2, %esi
	idivl	%esi
	movl	%eax, (%rcx)
	movq	img, %rcx
	movl	72376(%rcx), %eax
	cltd
	idivl	%esi
	movl	%eax, 72376(%rcx)
	movq	input, %rax
	movl	68(%rax), %eax
	movq	img, %rcx
	addl	72732(%rcx), %eax
	movq	img, %rcx
	movl	%eax, 60(%rcx)
	movq	img, %rax
	movl	68(%rax), %eax
	movq	img, %rcx
	movl	%eax, 64(%rcx)
	movq	img, %rax
	movl	52(%rax), %eax
	movq	img, %rcx
	imull	60(%rcx), %eax
	cltd
	movl	$256, %ecx              # imm = 0x100
	idivl	%ecx
	movq	img, %rcx
	movl	%eax, 16(%rcx)
	movb	$0, %al
	callq	combine_field
	movq	imgY_org_frm, %rax
	movq	%rax, imgY_org
	movq	imgUV_org_frm, %rax
	movq	%rax, imgUV_org
	callq	find_distortion
	movq	snr, %rax
	vmovss	(%rax), %xmm0           # xmm0 = mem[0],zero,zero,zero
	movq	-24(%rbp), %rax
	vmovss	%xmm0, (%rax)
	movq	snr, %rax
	vmovss	4(%rax), %xmm0          # xmm0 = mem[0],zero,zero,zero
	movq	-16(%rbp), %rax
	vmovss	%xmm0, (%rax)
	movq	snr, %rax
	vmovss	8(%rax), %xmm0          # xmm0 = mem[0],zero,zero,zero
	movq	-32(%rbp), %rax
	vmovss	%xmm0, (%rax)
	cmpl	$715345855, -4(%rbp)    # imm = 0x2AA34FBF
	jne	.LBB51_2
.LBB51_1:
	addq	$32, %rsp
	popq	%rbp
	.cfi_def_cfa %rsp, 8
	retq
.LBB51_2:                               # %func_exit
	.cfi_def_cfa %rbp, 16
	callq	detect_breach
	jmp	.LBB51_1
.Lfunc_end51:
	.size	distortion_fld.15, .Lfunc_end51-distortion_fld.15
	.cfi_endproc
                                        # -- End function
	.section	.rodata.cst8,"aM",@progbits,8
	.p2align	3               # -- Begin function init_field.16
.LCPI52_0:
	.quad	4607182418800017408     # double 1
	.text
	.p2align	4, 0x90
	.type	init_field.16,@function
init_field.16:                          # @init_field.16
	.cfi_startproc
# %bb.0:                                # %entry
	pushq	%rbp
	.cfi_def_cfa_offset 16
	.cfi_offset %rbp, -16
	movq	%rsp, %rbp
	.cfi_def_cfa_register %rbp
	subq	$16, %rsp
	movl	$274497160, -16(%rbp)   # imm = 0x105C7E88
	movq	last_P_no_fld, %rax
	movq	%rax, last_P_no
	movq	img, %rax
	movl	$0, 12(%rax)
	movq	img, %rax
	movl	$0, 20(%rax)
	movq	stats, %rax
	movl	$0, 24(%rax)
	movq	input, %rax
	movl	20(%rax), %ecx
	shll	$1, %ecx
	movl	%ecx, 20(%rax)
	movq	input, %rax
	movl	1236(%rax), %ecx
	shll	$1, %ecx
	movl	%ecx, 1236(%rax)
	movq	img, %rcx
	movl	(%rcx), %eax
	cltd
	movl	$2, %esi
	idivl	%esi
	movl	%eax, (%rcx)
	movq	img, %rcx
	movl	72376(%rcx), %eax
	cltd
	idivl	%esi
	movl	%eax, 72376(%rcx)
	movq	img, %rax
	movl	$0, 136(%rax)
	movq	img, %rax
	movl	$0, 140(%rax)
	movq	img, %rax
	movl	$0, 164(%rax)
	movq	img, %rax
	movl	$0, 156(%rax)
	movq	img, %rax
	movl	$0, 148(%rax)
	movq	img, %rax
	movl	$0, 160(%rax)
	movq	img, %rax
	movl	$0, 96(%rax)
	movq	img, %rax
	movl	$0, 152(%rax)
	movq	img, %rax
	movl	$0, 144(%rax)
	movq	img, %rax
	cmpl	$0, 71908(%rax)
	jne	.LBB52_27
# %bb.1:                                # %if.then
	movq	img, %rax
	movl	(%rax), %eax
	movq	input, %rcx
	movl	20(%rcx), %ecx
	addl	$2, %ecx
	imull	%ecx, %eax
	movq	img, %rcx
	addl	71796(%rcx), %eax
	movq	img, %rcx
	movl	%eax, 71792(%rcx)
	movq	img, %rax
	cmpl	$0, 71796(%rax)
	jne	.LBB52_3
# %bb.2:                                # %if.then9
	movq	img, %rax
	movl	71884(%rax), %eax
	movq	img, %rcx
	movl	%eax, 71888(%rcx)
	movq	img, %rax
	movl	71792(%rax), %eax
	movq	img, %rcx
	movl	%eax, 71884(%rcx)
.LBB52_3:                               # %if.end
	movq	input, %rax
	cmpl	$0, 2440(%rax)
	je	.LBB52_6
# %bb.4:                                # %land.lhs.true
	movq	img, %rax
	movl	(%rax), %eax
	addl	$1, %eax
	movq	input, %rcx
	cmpl	8(%rcx), %eax
	jne	.LBB52_6
# %bb.5:                                # %if.then15
	movq	input, %rax
	movl	2440(%rax), %eax
	movq	img, %rcx
	movl	%eax, 71792(%rcx)
.LBB52_6:                               # %if.end18
	movq	img, %rax
	cmpl	$0, (%rax)
	je	.LBB52_9
# %bb.7:                                # %land.lhs.true21
	movq	input, %rax
	cmpl	$0, 1236(%rax)
	je	.LBB52_9
# %bb.8:                                # %if.then24
	movq	img, %rax
	movl	71792(%rax), %eax
	movl	%eax, nextP_tr_fld
.LBB52_9:                               # %if.end26
	movq	input, %rax
	cmpl	$0, 3236(%rax)
	jne	.LBB52_24
# %bb.10:                               # %if.then28
	movq	img, %rax
	cmpl	$2, 24(%rax)
	jne	.LBB52_16
# %bb.11:                               # %if.then30
	movq	input, %rax
	cmpl	$0, 2452(%rax)
	jle	.LBB52_14
# %bb.12:                               # %land.lhs.true32
	movq	img, %rax
	movl	71792(%rax), %eax
	movq	input, %rcx
	cmpl	2452(%rcx), %eax
	jl	.LBB52_14
# %bb.13:                               # %if.then36
	movq	input, %rax
	movl	2456(%rax), %eax
	movq	img, %rcx
	movl	%eax, 40(%rcx)
	jmp	.LBB52_15
.LBB52_14:                              # %if.else
	movq	input, %rax
	movl	12(%rax), %eax
	movq	img, %rcx
	movl	%eax, 40(%rcx)
.LBB52_15:                              # %if.end38
	jmp	.LBB52_23
.LBB52_16:                              # %if.else39
	movq	input, %rax
	cmpl	$0, 2452(%rax)
	jle	.LBB52_19
# %bb.17:                               # %land.lhs.true42
	movq	img, %rax
	movl	71792(%rax), %eax
	movq	input, %rcx
	cmpl	2452(%rcx), %eax
	jl	.LBB52_19
# %bb.18:                               # %if.then46
	movq	input, %rax
	movl	2444(%rax), %eax
	movq	img, %rcx
	movl	%eax, 40(%rcx)
	jmp	.LBB52_20
.LBB52_19:                              # %if.else48
	movq	input, %rax
	movl	16(%rax), %eax
	movq	img, %rcx
	movl	%eax, 40(%rcx)
.LBB52_20:                              # %if.end50
	movq	img, %rax
	cmpl	$3, 24(%rax)
	jne	.LBB52_22
# %bb.21:                               # %if.then53
	movq	input, %rax
	movl	1276(%rax), %eax
	movq	img, %rcx
	movl	%eax, 40(%rcx)
	movq	input, %rax
	movl	1280(%rax), %eax
	movq	img, %rcx
	movl	%eax, 44(%rcx)
.LBB52_22:                              # %if.end56
	jmp	.LBB52_23
.LBB52_23:                              # %if.end57
	jmp	.LBB52_24
.LBB52_24:                              # %if.end58
	movq	img, %rax
	movl	88(%rax), %eax
	movq	img, %rcx
	movl	%eax, 92(%rcx)
	movq	input, %rax
	cmpl	$0, 76(%rax)
	jle	.LBB52_26
# %bb.25:                               # %if.then60
	movq	img, %rax
	movl	(%rax), %eax
	movq	input, %rcx
	cltd
	idivl	76(%rcx)
	movl	%eax, %ecx
	movq	img, %rax
	movl	52(%rax), %eax
	cltd
	movl	$16, %esi
	idivl	%esi
	movl	%eax, %esi
	movl	%ecx, %eax
	cltd
	idivl	%esi
	movq	img, %rax
	movl	%edx, 88(%rax)
.LBB52_26:                              # %if.end66
	jmp	.LBB52_77
.LBB52_27:                              # %if.else67
	movq	input, %rax
	movl	20(%rax), %eax
	addl	$2, %eax
	movq	img, %rcx
	movl	%eax, 71904(%rcx)
	movq	img, %rax
	movl	(%rax), %eax
	subl	$1, %eax
	movq	img, %rcx
	imull	71904(%rcx), %eax
	movq	img, %rcx
	addl	71796(%rcx), %eax
	movl	%eax, -8(%rbp)
	movq	img, %rax
	movl	(%rax), %eax
	movq	img, %rcx
	imull	71904(%rcx), %eax
	movq	img, %rcx
	addl	71796(%rcx), %eax
	movl	%eax, -12(%rbp)
	movq	img, %rax
	cmpl	$0, 71796(%rax)
	jne	.LBB52_33
# %bb.28:                               # %if.then82
	movl	-8(%rbp), %eax
	addl	$1, %eax
	movq	last_P_no, %rcx
	movl	%eax, (%rcx)
	movl	-8(%rbp), %eax
	movq	last_P_no, %rcx
	movl	%eax, 4(%rcx)
	movl	$1, -4(%rbp)
.LBB52_29:                              # %for.cond
                                        # =>This Inner Loop Header: Depth=1
	movl	-4(%rbp), %eax
	movq	img, %rcx
	cmpl	72376(%rcx), %eax
	jg	.LBB52_32
# %bb.30:                               # %for.body
                                        #   in Loop: Header=BB52_29 Depth=1
	movq	last_P_no, %rax
	movl	-4(%rbp), %ecx
	shll	$1, %ecx
	subl	$2, %ecx
	movslq	%ecx, %rcx
	movl	(%rax,%rcx,4), %eax
	movq	img, %rcx
	subl	71904(%rcx), %eax
	movq	last_P_no, %rcx
	movl	-4(%rbp), %edx
	shll	$1, %edx
	movslq	%edx, %rdx
	movl	%eax, (%rcx,%rdx,4)
	movq	last_P_no, %rax
	movl	-4(%rbp), %ecx
	shll	$1, %ecx
	subl	$1, %ecx
	movslq	%ecx, %rcx
	movl	(%rax,%rcx,4), %eax
	movq	img, %rcx
	subl	71904(%rcx), %eax
	movq	last_P_no, %rcx
	movl	-4(%rbp), %edx
	shll	$1, %edx
	addl	$1, %edx
	movslq	%edx, %rdx
	movl	%eax, (%rcx,%rdx,4)
# %bb.31:                               # %for.inc
                                        #   in Loop: Header=BB52_29 Depth=1
	movl	-4(%rbp), %eax
	addl	$1, %eax
	movl	%eax, -4(%rbp)
	jmp	.LBB52_29
.LBB52_32:                              # %for.end
	jmp	.LBB52_38
.LBB52_33:                              # %if.else105
	movl	-12(%rbp), %eax
	subl	$1, %eax
	movq	last_P_no, %rcx
	movl	%eax, (%rcx)
	movl	-8(%rbp), %eax
	movq	last_P_no, %rcx
	movl	%eax, 4(%rcx)
	movl	$1, -4(%rbp)
.LBB52_34:                              # %for.cond109
                                        # =>This Inner Loop Header: Depth=1
	movl	-4(%rbp), %eax
	movq	img, %rcx
	cmpl	72376(%rcx), %eax
	jg	.LBB52_37
# %bb.35:                               # %for.body112
                                        #   in Loop: Header=BB52_34 Depth=1
	movq	last_P_no, %rax
	movl	-4(%rbp), %ecx
	shll	$1, %ecx
	subl	$2, %ecx
	movslq	%ecx, %rcx
	movl	(%rax,%rcx,4), %eax
	movq	img, %rcx
	subl	71904(%rcx), %eax
	movq	last_P_no, %rcx
	movl	-4(%rbp), %edx
	shll	$1, %edx
	movslq	%edx, %rdx
	movl	%eax, (%rcx,%rdx,4)
	movq	last_P_no, %rax
	movl	-4(%rbp), %ecx
	shll	$1, %ecx
	subl	$1, %ecx
	movslq	%ecx, %rcx
	movl	(%rax,%rcx,4), %eax
	movq	img, %rcx
	subl	71904(%rcx), %eax
	movq	last_P_no, %rcx
	movl	-4(%rbp), %edx
	shll	$1, %edx
	addl	$1, %edx
	movslq	%edx, %rdx
	movl	%eax, (%rcx,%rdx,4)
# %bb.36:                               # %for.inc132
                                        #   in Loop: Header=BB52_34 Depth=1
	movl	-4(%rbp), %eax
	addl	$1, %eax
	movl	%eax, -4(%rbp)
	jmp	.LBB52_34
.LBB52_37:                              # %for.end134
	jmp	.LBB52_38
.LBB52_38:                              # %if.end135
	movq	input, %rax
	cmpl	$0, 2440(%rax)
	je	.LBB52_41
# %bb.39:                               # %land.lhs.true138
	movq	img, %rax
	movl	(%rax), %eax
	addl	$1, %eax
	movq	input, %rcx
	cmpl	8(%rcx), %eax
	jne	.LBB52_41
# %bb.40:                               # %if.then143
	movq	input, %rax
	movl	2440(%rax), %eax
	movl	%eax, -12(%rbp)
	movl	-12(%rbp), %eax
	subl	-8(%rbp), %eax
	movq	img, %rcx
	movl	%eax, 71904(%rcx)
.LBB52_41:                              # %if.end147
	vmovsd	.LCPI52_0(%rip), %xmm0  # xmm0 = mem[0],zero
	movq	input, %rax
	movl	20(%rax), %eax
	addl	$1, %eax
	vcvtsi2sd	%eax, %xmm0, %xmm1
	movq	input, %rax
	vcvtsi2sdl	1236(%rax), %xmm0, %xmm2
	vaddsd	%xmm0, %xmm2, %xmm0
	vdivsd	%xmm0, %xmm1, %xmm0
	movq	img, %rax
	vmovsd	%xmm0, 71896(%rax)
	movq	input, %rax
	cmpl	$3, 1320(%rax)
	jne	.LBB52_43
# %bb.42:                               # %if.then156
	vmovsd	.LCPI52_0(%rip), %xmm0  # xmm0 = mem[0],zero
	movq	img, %rax
	vmovsd	%xmm0, 71896(%rax)
.LBB52_43:                              # %if.end158
	movq	input, %rax
	cmpl	$0, 1320(%rax)
	je	.LBB52_45
# %bb.44:                               # %if.then161
	vmovsd	.LCPI52_0(%rip), %xmm0  # xmm0 = mem[0],zero
	movl	-8(%rbp), %eax
	movq	img, %rcx
	vaddsd	71896(%rcx), %xmm0, %xmm0
	movq	gop_structure, %rcx
	movq	img, %rdx
	movl	71908(%rdx), %edx
	subl	$1, %edx
	movslq	%edx, %rdx
	imulq	$24, %rdx, %rdx
	addq	%rdx, %rcx
	movl	4(%rcx), %ecx
	addl	$1, %ecx
	vcvtsi2sd	%ecx, %xmm0, %xmm1
	vmulsd	%xmm1, %xmm0, %xmm0
	vcvttsd2si	%xmm0, %ecx
	addl	%ecx, %eax
	movq	img, %rcx
	movl	%eax, 71792(%rcx)
	jmp	.LBB52_46
.LBB52_45:                              # %if.else174
	vmovsd	.LCPI52_0(%rip), %xmm0  # xmm0 = mem[0],zero
	movl	-8(%rbp), %eax
	movq	img, %rcx
	vaddsd	71896(%rcx), %xmm0, %xmm0
	movq	img, %rcx
	vcvtsi2sdl	71908(%rcx), %xmm0, %xmm1
	vmulsd	%xmm1, %xmm0, %xmm0
	vcvttsd2si	%xmm0, %ecx
	addl	%ecx, %eax
	movq	img, %rcx
	movl	%eax, 71792(%rcx)
.LBB52_46:                              # %if.end183
	movq	img, %rax
	movl	71792(%rax), %eax
	cmpl	-12(%rbp), %eax
	jl	.LBB52_48
# %bb.47:                               # %if.then187
	movl	-12(%rbp), %eax
	subl	$1, %eax
	movq	img, %rcx
	movl	%eax, 71792(%rcx)
.LBB52_48:                              # %if.end190
	movq	input, %rax
	cmpl	$0, 3236(%rax)
	jne	.LBB52_73
# %bb.49:                               # %land.lhs.true193
	movq	input, %rax
	cmpl	$3, 1320(%rax)
	je	.LBB52_73
# %bb.50:                               # %if.then197
	movq	input, %rax
	cmpl	$0, 2452(%rax)
	jle	.LBB52_53
# %bb.51:                               # %land.lhs.true201
	movq	img, %rax
	movl	71792(%rax), %eax
	movq	input, %rcx
	cmpl	2452(%rcx), %eax
	jl	.LBB52_53
# %bb.52:                               # %if.then206
	movq	input, %rax
	movl	2448(%rax), %eax
	movq	img, %rcx
	movl	%eax, 40(%rcx)
	jmp	.LBB52_54
.LBB52_53:                              # %if.else208
	movq	input, %rax
	movl	1240(%rax), %eax
	movq	img, %rcx
	movl	%eax, 40(%rcx)
.LBB52_54:                              # %if.end210
	movq	img, %rax
	cmpl	$0, 72496(%rax)
	je	.LBB52_72
# %bb.55:                               # %if.then212
	movq	input, %rax
	cmpl	$0, 2452(%rax)
	jle	.LBB52_64
# %bb.56:                               # %land.lhs.true216
	movq	img, %rax
	movl	71792(%rax), %eax
	movq	input, %rcx
	cmpl	2452(%rcx), %eax
	jl	.LBB52_64
# %bb.57:                               # %if.then221
	movq	input, %rax
	movl	2448(%rax), %eax
	movq	input, %rcx
	addl	2460(%rcx), %eax
	cmpl	$0, %eax
	jge	.LBB52_59
# %bb.58:                               # %cond.true
	xorl	%eax, %eax
	jmp	.LBB52_63
.LBB52_59:                              # %cond.false
	movq	input, %rax
	movl	2448(%rax), %eax
	movq	input, %rcx
	addl	2460(%rcx), %eax
	cmpl	$51, %eax
	jle	.LBB52_61
# %bb.60:                               # %cond.true231
	movl	$51, %eax
	jmp	.LBB52_62
.LBB52_61:                              # %cond.false232
	movq	input, %rax
	movl	2448(%rax), %eax
	movq	input, %rcx
	addl	2460(%rcx), %eax
.LBB52_62:                              # %cond.end
.LBB52_63:                              # %cond.end236
	movq	img, %rcx
	movl	%eax, 40(%rcx)
	jmp	.LBB52_71
.LBB52_64:                              # %if.else239
	movq	input, %rax
	movl	1240(%rax), %eax
	movq	input, %rcx
	addl	1244(%rcx), %eax
	cmpl	$0, %eax
	jge	.LBB52_66
# %bb.65:                               # %cond.true244
	xorl	%eax, %eax
	jmp	.LBB52_70
.LBB52_66:                              # %cond.false245
	movq	input, %rax
	movl	1240(%rax), %eax
	movq	input, %rcx
	addl	1244(%rcx), %eax
	cmpl	$51, %eax
	jle	.LBB52_68
# %bb.67:                               # %cond.true251
	movl	$51, %eax
	jmp	.LBB52_69
.LBB52_68:                              # %cond.false252
	movq	input, %rax
	movl	1240(%rax), %eax
	movq	input, %rcx
	addl	1244(%rcx), %eax
.LBB52_69:                              # %cond.end256
.LBB52_70:                              # %cond.end258
	movq	img, %rcx
	movl	%eax, 40(%rcx)
.LBB52_71:                              # %if.end261
	jmp	.LBB52_72
.LBB52_72:                              # %if.end262
	jmp	.LBB52_76
.LBB52_73:                              # %if.else263
	movq	input, %rax
	cmpl	$3, 1320(%rax)
	jne	.LBB52_75
# %bb.74:                               # %if.then267
	movq	gop_structure, %rax
	movq	img, %rcx
	movl	71908(%rcx), %ecx
	subl	$1, %ecx
	movslq	%ecx, %rcx
	imulq	$24, %rcx, %rcx
	addq	%rcx, %rax
	movl	12(%rax), %eax
	movq	img, %rcx
	movl	%eax, 40(%rcx)
.LBB52_75:                              # %if.end273
	jmp	.LBB52_76
.LBB52_76:                              # %if.end274
	jmp	.LBB52_77
.LBB52_77:                              # %if.end275
	movq	input, %rcx
	movl	20(%rcx), %eax
	cltd
	movl	$2, %esi
	idivl	%esi
	movl	%eax, 20(%rcx)
	movq	input, %rcx
	movl	1236(%rcx), %eax
	cltd
	idivl	%esi
	movl	%eax, 1236(%rcx)
	movq	img, %rax
	movl	72376(%rax), %ecx
	shll	$1, %ecx
	movl	%ecx, 72376(%rax)
	movq	img, %rax
	movl	(%rax), %eax
	shll	$1, %eax
	movq	img, %rcx
	addl	71796(%rcx), %eax
	movq	img, %rcx
	movl	%eax, (%rcx)
	movq	img, %rax
	movl	52(%rax), %eax
	movq	img, %rcx
	imull	60(%rcx), %eax
	cltd
	movl	$256, %ecx              # imm = 0x100
	idivl	%ecx
	movq	img, %rcx
	movl	%eax, 16(%rcx)
	cmpl	$274497160, -16(%rbp)   # imm = 0x105C7E88
	jne	.LBB52_79
.LBB52_78:
	addq	$16, %rsp
	popq	%rbp
	.cfi_def_cfa %rsp, 8
	retq
.LBB52_79:                              # %func_exit
	.cfi_def_cfa %rbp, 16
	callq	detect_breach
	jmp	.LBB52_78
.Lfunc_end52:
	.size	init_field.16, .Lfunc_end52-init_field.16
	.cfi_endproc
                                        # -- End function
	.section	.rodata.cst8,"aM",@progbits,8
	.p2align	3               # -- Begin function find_snr.17
.LCPI53_0:
	.quad	4621819117588971520     # double 10
	.text
	.p2align	4, 0x90
	.type	find_snr.17,@function
find_snr.17:                            # @find_snr.17
	.cfi_startproc
# %bb.0:                                # %entry
	pushq	%rbp
	.cfi_def_cfa_offset 16
	.cfi_offset %rbp, -16
	movq	%rsp, %rbp
	.cfi_def_cfa_register %rbp
	subq	$64, %rsp
	movl	$2105083743, -52(%rbp)  # imm = 0x7D79075F
	movq	$0, -16(%rbp)
	movq	$0, -24(%rbp)
	movq	$0, -32(%rbp)
	movq	img, %rax
	movl	72684(%rax), %eax
	movq	img, %rcx
	imull	72684(%rcx), %eax
	movl	%eax, -48(%rbp)
	movq	img, %rax
	movl	72688(%rax), %eax
	movq	img, %rcx
	imull	72688(%rcx), %eax
	movl	%eax, -40(%rbp)
	movq	input, %rax
	movl	68(%rax), %eax
	movq	input, %rcx
	imull	64(%rcx), %eax
	movl	%eax, -44(%rbp)
	movq	input, %rax
	movl	3304(%rax), %eax
	movq	input, %rcx
	imull	3308(%rcx), %eax
	movl	%eax, -36(%rbp)
	movq	img, %rax
	cmpl	$0, 71800(%rax)
	je	.LBB53_20
# %bb.1:                                # %if.then
	movq	$0, -16(%rbp)
	movl	$0, -4(%rbp)
.LBB53_2:                               # %for.cond
                                        # =>This Loop Header: Depth=1
                                        #     Child Loop BB53_4 Depth 2
	movl	-4(%rbp), %eax
	movq	input, %rcx
	cmpl	64(%rcx), %eax
	jge	.LBB53_9
# %bb.3:                                # %for.body
                                        #   in Loop: Header=BB53_2 Depth=1
	movl	$0, -8(%rbp)
.LBB53_4:                               # %for.cond8
                                        #   Parent Loop BB53_2 Depth=1
                                        # =>  This Inner Loop Header: Depth=2
	movl	-8(%rbp), %eax
	movq	input, %rcx
	cmpl	68(%rcx), %eax
	jge	.LBB53_7
# %bb.5:                                # %for.body11
                                        #   in Loop: Header=BB53_4 Depth=2
	movq	img, %rax
	movq	71776(%rax), %rax
	movq	imgY_org, %rcx
	movslq	-8(%rbp), %rdx
	movq	(%rcx,%rdx,8), %rcx
	movslq	-4(%rbp), %rdx
	movzwl	(%rcx,%rdx,2), %ecx
	movq	imgY_com, %rdx
	movslq	-8(%rbp), %rsi
	movq	(%rdx,%rsi,8), %rdx
	movslq	-4(%rbp), %rsi
	movzwl	(%rdx,%rsi,2), %edx
	subl	%edx, %ecx
	movslq	%ecx, %rcx
	movslq	(%rax,%rcx,4), %rax
	addq	-16(%rbp), %rax
	movq	%rax, -16(%rbp)
# %bb.6:                                # %for.inc
                                        #   in Loop: Header=BB53_4 Depth=2
	movl	-8(%rbp), %eax
	addl	$1, %eax
	movl	%eax, -8(%rbp)
	jmp	.LBB53_4
.LBB53_7:                               # %for.end
                                        #   in Loop: Header=BB53_2 Depth=1
	jmp	.LBB53_8
.LBB53_8:                               # %for.inc22
                                        #   in Loop: Header=BB53_2 Depth=1
	movl	-4(%rbp), %eax
	addl	$1, %eax
	movl	%eax, -4(%rbp)
	jmp	.LBB53_2
.LBB53_9:                               # %for.end24
	movq	img, %rax
	cmpl	$0, 72700(%rax)
	je	.LBB53_19
# %bb.10:                               # %if.then27
	movq	$0, -24(%rbp)
	movq	$0, -32(%rbp)
	movl	$0, -4(%rbp)
.LBB53_11:                              # %for.cond28
                                        # =>This Loop Header: Depth=1
                                        #     Child Loop BB53_13 Depth 2
	movl	-4(%rbp), %eax
	movq	input, %rcx
	cmpl	3308(%rcx), %eax
	jge	.LBB53_18
# %bb.12:                               # %for.body32
                                        #   in Loop: Header=BB53_11 Depth=1
	movl	$0, -8(%rbp)
.LBB53_13:                              # %for.cond33
                                        #   Parent Loop BB53_11 Depth=1
                                        # =>  This Inner Loop Header: Depth=2
	movl	-8(%rbp), %eax
	movq	input, %rcx
	cmpl	3304(%rcx), %eax
	jge	.LBB53_16
# %bb.14:                               # %for.body37
                                        #   in Loop: Header=BB53_13 Depth=2
	movq	img, %rax
	movq	71776(%rax), %rax
	movq	imgUV_org, %rcx
	movq	(%rcx), %rcx
	movslq	-8(%rbp), %rdx
	movq	(%rcx,%rdx,8), %rcx
	movslq	-4(%rbp), %rdx
	movzwl	(%rcx,%rdx,2), %ecx
	movq	imgUV_com, %rdx
	movq	(%rdx), %rdx
	movslq	-8(%rbp), %rsi
	movq	(%rdx,%rsi,8), %rdx
	movslq	-4(%rbp), %rsi
	movzwl	(%rdx,%rsi,2), %edx
	subl	%edx, %ecx
	movslq	%ecx, %rcx
	movslq	(%rax,%rcx,4), %rax
	addq	-24(%rbp), %rax
	movq	%rax, -24(%rbp)
	movq	img, %rax
	movq	71776(%rax), %rax
	movq	imgUV_org, %rcx
	movq	8(%rcx), %rcx
	movslq	-8(%rbp), %rdx
	movq	(%rcx,%rdx,8), %rcx
	movslq	-4(%rbp), %rdx
	movzwl	(%rcx,%rdx,2), %ecx
	movq	imgUV_com, %rdx
	movq	8(%rdx), %rdx
	movslq	-8(%rbp), %rsi
	movq	(%rdx,%rsi,8), %rdx
	movslq	-4(%rbp), %rsi
	movzwl	(%rdx,%rsi,2), %edx
	subl	%edx, %ecx
	movslq	%ecx, %rcx
	movslq	(%rax,%rcx,4), %rax
	addq	-32(%rbp), %rax
	movq	%rax, -32(%rbp)
# %bb.15:                               # %for.inc74
                                        #   in Loop: Header=BB53_13 Depth=2
	movl	-8(%rbp), %eax
	addl	$1, %eax
	movl	%eax, -8(%rbp)
	jmp	.LBB53_13
.LBB53_16:                              # %for.end76
                                        #   in Loop: Header=BB53_11 Depth=1
	jmp	.LBB53_17
.LBB53_17:                              # %for.inc77
                                        #   in Loop: Header=BB53_11 Depth=1
	movl	-4(%rbp), %eax
	addl	$1, %eax
	movl	%eax, -4(%rbp)
	jmp	.LBB53_11
.LBB53_18:                              # %for.end79
	jmp	.LBB53_19
.LBB53_19:                              # %if.end
	jmp	.LBB53_41
.LBB53_20:                              # %if.else
	movq	imgY_org_frm, %rax
	movq	%rax, imgY_org
	movq	imgUV_org_frm, %rax
	movq	%rax, imgUV_org
	movq	input, %rax
	cmpl	$2, 2880(%rax)
	jne	.LBB53_22
# %bb.21:                               # %if.then82
	movq	enc_frame_picture, %rax
	movq	%rax, enc_picture
.LBB53_22:                              # %if.end83
	movq	$0, -16(%rbp)
	movl	$0, -4(%rbp)
.LBB53_23:                              # %for.cond84
                                        # =>This Loop Header: Depth=1
                                        #     Child Loop BB53_25 Depth 2
	movl	-4(%rbp), %eax
	movq	input, %rcx
	cmpl	64(%rcx), %eax
	jge	.LBB53_30
# %bb.24:                               # %for.body88
                                        #   in Loop: Header=BB53_23 Depth=1
	movl	$0, -8(%rbp)
.LBB53_25:                              # %for.cond89
                                        #   Parent Loop BB53_23 Depth=1
                                        # =>  This Inner Loop Header: Depth=2
	movl	-8(%rbp), %eax
	movq	input, %rcx
	cmpl	68(%rcx), %eax
	jge	.LBB53_28
# %bb.26:                               # %for.body93
                                        #   in Loop: Header=BB53_25 Depth=2
	movq	img, %rax
	movq	71776(%rax), %rax
	movq	imgY_org, %rcx
	movslq	-8(%rbp), %rdx
	movq	(%rcx,%rdx,8), %rcx
	movslq	-4(%rbp), %rdx
	movzwl	(%rcx,%rdx,2), %ecx
	movq	enc_picture, %rdx
	movq	6424(%rdx), %rdx
	movslq	-8(%rbp), %rsi
	movq	(%rdx,%rsi,8), %rdx
	movslq	-4(%rbp), %rsi
	movzwl	(%rdx,%rsi,2), %edx
	subl	%edx, %ecx
	movslq	%ecx, %rcx
	movslq	(%rax,%rcx,4), %rax
	addq	-16(%rbp), %rax
	movq	%rax, -16(%rbp)
# %bb.27:                               # %for.inc110
                                        #   in Loop: Header=BB53_25 Depth=2
	movl	-8(%rbp), %eax
	addl	$1, %eax
	movl	%eax, -8(%rbp)
	jmp	.LBB53_25
.LBB53_28:                              # %for.end112
                                        #   in Loop: Header=BB53_23 Depth=1
	jmp	.LBB53_29
.LBB53_29:                              # %for.inc113
                                        #   in Loop: Header=BB53_23 Depth=1
	movl	-4(%rbp), %eax
	addl	$1, %eax
	movl	%eax, -4(%rbp)
	jmp	.LBB53_23
.LBB53_30:                              # %for.end115
	movq	img, %rax
	cmpl	$0, 72700(%rax)
	je	.LBB53_40
# %bb.31:                               # %if.then119
	movq	$0, -24(%rbp)
	movq	$0, -32(%rbp)
	movl	$0, -4(%rbp)
.LBB53_32:                              # %for.cond120
                                        # =>This Loop Header: Depth=1
                                        #     Child Loop BB53_34 Depth 2
	movl	-4(%rbp), %eax
	movq	input, %rcx
	cmpl	3308(%rcx), %eax
	jge	.LBB53_39
# %bb.33:                               # %for.body124
                                        #   in Loop: Header=BB53_32 Depth=1
	movl	$0, -8(%rbp)
.LBB53_34:                              # %for.cond125
                                        #   Parent Loop BB53_32 Depth=1
                                        # =>  This Inner Loop Header: Depth=2
	movl	-8(%rbp), %eax
	movq	input, %rcx
	cmpl	3304(%rcx), %eax
	jge	.LBB53_37
# %bb.35:                               # %for.body129
                                        #   in Loop: Header=BB53_34 Depth=2
	movq	img, %rax
	movq	71776(%rax), %rax
	movq	imgUV_org, %rcx
	movq	(%rcx), %rcx
	movslq	-8(%rbp), %rdx
	movq	(%rcx,%rdx,8), %rcx
	movslq	-4(%rbp), %rdx
	movzwl	(%rcx,%rdx,2), %ecx
	movq	enc_picture, %rdx
	movq	6464(%rdx), %rdx
	movq	(%rdx), %rdx
	movslq	-8(%rbp), %rsi
	movq	(%rdx,%rsi,8), %rdx
	movslq	-4(%rbp), %rsi
	movzwl	(%rdx,%rsi,2), %edx
	subl	%edx, %ecx
	movslq	%ecx, %rcx
	movslq	(%rax,%rcx,4), %rax
	addq	-24(%rbp), %rax
	movq	%rax, -24(%rbp)
	movq	img, %rax
	movq	71776(%rax), %rax
	movq	imgUV_org, %rcx
	movq	8(%rcx), %rcx
	movslq	-8(%rbp), %rdx
	movq	(%rcx,%rdx,8), %rcx
	movslq	-4(%rbp), %rdx
	movzwl	(%rcx,%rdx,2), %ecx
	movq	enc_picture, %rdx
	movq	6464(%rdx), %rdx
	movq	8(%rdx), %rdx
	movslq	-8(%rbp), %rsi
	movq	(%rdx,%rsi,8), %rdx
	movslq	-4(%rbp), %rsi
	movzwl	(%rdx,%rsi,2), %edx
	subl	%edx, %ecx
	movslq	%ecx, %rcx
	movslq	(%rax,%rcx,4), %rax
	addq	-32(%rbp), %rax
	movq	%rax, -32(%rbp)
# %bb.36:                               # %for.inc167
                                        #   in Loop: Header=BB53_34 Depth=2
	movl	-8(%rbp), %eax
	addl	$1, %eax
	movl	%eax, -8(%rbp)
	jmp	.LBB53_34
.LBB53_37:                              # %for.end169
                                        #   in Loop: Header=BB53_32 Depth=1
	jmp	.LBB53_38
.LBB53_38:                              # %for.inc170
                                        #   in Loop: Header=BB53_32 Depth=1
	movl	-4(%rbp), %eax
	addl	$1, %eax
	movl	%eax, -4(%rbp)
	jmp	.LBB53_32
.LBB53_39:                              # %for.end172
	jmp	.LBB53_40
.LBB53_40:                              # %if.end173
	jmp	.LBB53_41
.LBB53_41:                              # %if.end174
	cmpq	$0, -16(%rbp)
	jne	.LBB53_43
# %bb.42:                               # %if.then177
	movq	$1, -16(%rbp)
.LBB53_43:                              # %if.end178
	cmpq	$0, -24(%rbp)
	jne	.LBB53_45
# %bb.44:                               # %if.then181
	movq	$1, -24(%rbp)
.LBB53_45:                              # %if.end182
	cmpq	$0, -32(%rbp)
	jne	.LBB53_47
# %bb.46:                               # %if.then185
	movq	$1, -32(%rbp)
.LBB53_47:                              # %if.end186
	cmpq	$0, -16(%rbp)
	je	.LBB53_52
# %bb.48:                               # %if.then189
	movl	-48(%rbp), %eax
	vcvtsi2sd	%rax, %xmm0, %xmm0
	vcvtsi2sdl	-44(%rbp), %xmm0, %xmm1
	vcvtsi2sdq	-16(%rbp), %xmm0, %xmm2
	vdivsd	%xmm2, %xmm1, %xmm1
	vmulsd	%xmm1, %xmm0, %xmm0
	callq	log10
	vmovsd	.LCPI53_0(%rip), %xmm1  # xmm1 = mem[0],zero
	vmulsd	%xmm0, %xmm1, %xmm0
	vcvtsd2ss	%xmm0, %xmm0, %xmm0
	movq	snr, %rax
	vmovss	%xmm0, (%rax)
	movq	img, %rax
	cmpl	$0, 72700(%rax)
	je	.LBB53_50
# %bb.49:                               # %if.then199
	movl	-40(%rbp), %eax
	vcvtsi2sd	%rax, %xmm0, %xmm0
	vcvtsi2sdl	-36(%rbp), %xmm0, %xmm1
	vcvtsi2sdq	-24(%rbp), %xmm0, %xmm2
	vdivsd	%xmm2, %xmm1, %xmm1
	vmulsd	%xmm1, %xmm0, %xmm0
	callq	log10
	vmovsd	.LCPI53_0(%rip), %xmm1  # xmm1 = mem[0],zero
	vmulsd	%xmm1, %xmm0, %xmm0
	vcvtsd2ss	%xmm0, %xmm0, %xmm0
	movq	snr(%rip), %rax
	vmovss	%xmm0, 4(%rax)
	movl	-40(%rbp), %eax
	vcvtsi2sd	%rax, %xmm0, %xmm0
	vcvtsi2sdl	-36(%rbp), %xmm0, %xmm1
	vcvtsi2sdq	-32(%rbp), %xmm0, %xmm2
	vdivsd	%xmm2, %xmm1, %xmm1
	vmulsd	%xmm1, %xmm0, %xmm0
	callq	log10
	vmovsd	.LCPI53_0(%rip), %xmm1  # xmm1 = mem[0],zero
	vmulsd	%xmm0, %xmm1, %xmm0
	vcvtsd2ss	%xmm0, %xmm0, %xmm0
	movq	snr, %rax
	vmovss	%xmm0, 8(%rax)
	jmp	.LBB53_51
.LBB53_50:                              # %if.else216
	movq	snr, %rax
	vxorps	%xmm0, %xmm0, %xmm0
	vmovss	%xmm0, 4(%rax)
	movq	snr, %rax
	vmovss	%xmm0, 8(%rax)
.LBB53_51:                              # %if.end219
	jmp	.LBB53_52
.LBB53_52:                              # %if.end220
	movq	img, %rax
	cmpl	$0, (%rax)
	jne	.LBB53_54
# %bb.53:                               # %if.then223
	movq	snr, %rax
	vmovss	(%rax), %xmm0           # xmm0 = mem[0],zero,zero,zero
	movq	snr, %rax
	vmovss	%xmm0, 12(%rax)
	movq	snr, %rax
	vmovss	4(%rax), %xmm0          # xmm0 = mem[0],zero,zero,zero
	movq	snr, %rax
	vmovss	%xmm0, 16(%rax)
	movq	snr, %rax
	vmovss	8(%rax), %xmm0          # xmm0 = mem[0],zero,zero,zero
	movq	snr, %rax
	vmovss	%xmm0, 20(%rax)
	movq	snr, %rax
	vmovss	12(%rax), %xmm0         # xmm0 = mem[0],zero,zero,zero
	movq	snr, %rax
	vmovss	%xmm0, 60(%rax)
	movq	snr, %rax
	vmovss	16(%rax), %xmm0         # xmm0 = mem[0],zero,zero,zero
	movq	snr, %rax
	vmovss	%xmm0, 64(%rax)
	movq	snr, %rax
	vmovss	20(%rax), %xmm0         # xmm0 = mem[0],zero,zero,zero
	movq	snr, %rax
	vmovss	%xmm0, 68(%rax)
	movq	snr, %rax
	vxorps	%xmm0, %xmm0, %xmm0
	vmovss	%xmm0, 32(%rax)
	movq	snr, %rax
	vmovss	%xmm0, 44(%rax)
	movq	snr, %rax
	vmovss	%xmm0, 56(%rax)
	movq	snr, %rax
	vmovss	%xmm0, 24(%rax)
	movq	snr, %rax
	vmovss	%xmm0, 36(%rax)
	movq	snr, %rax
	vmovss	%xmm0, 48(%rax)
	movq	snr, %rax
	vmovss	%xmm0, 28(%rax)
	movq	snr, %rax
	vmovss	%xmm0, 40(%rax)
	movq	snr, %rax
	vmovss	%xmm0, 52(%rax)
	jmp	.LBB53_55
.LBB53_54:                              # %if.else245
	movq	snr, %rax
	vmovss	60(%rax), %xmm0         # xmm0 = mem[0],zero,zero,zero
	movq	img, %rax
	movl	(%rax), %eax
	addl	Bframe_ctr, %eax
	vcvtsi2ss	%eax, %xmm0, %xmm1
	vmulss	%xmm1, %xmm0, %xmm0
	movq	snr, %rax
	vaddss	(%rax), %xmm0, %xmm0
	movq	img, %rax
	movl	(%rax), %eax
	addl	Bframe_ctr, %eax
	addl	$1, %eax
	vcvtsi2ss	%eax, %xmm0, %xmm1
	vdivss	%xmm1, %xmm0, %xmm0
	movq	snr, %rax
	vmovss	%xmm0, 60(%rax)
	movq	snr, %rax
	vmovss	64(%rax), %xmm0         # xmm0 = mem[0],zero,zero,zero
	movq	img, %rax
	movl	(%rax), %eax
	addl	Bframe_ctr, %eax
	vcvtsi2ss	%eax, %xmm0, %xmm1
	vmulss	%xmm1, %xmm0, %xmm0
	movq	snr, %rax
	vaddss	4(%rax), %xmm0, %xmm0
	movq	img, %rax
	movl	(%rax), %eax
	addl	Bframe_ctr, %eax
	addl	$1, %eax
	vcvtsi2ss	%eax, %xmm0, %xmm1
	vdivss	%xmm1, %xmm0, %xmm0
	movq	snr, %rax
	vmovss	%xmm0, 64(%rax)
	movq	snr, %rax
	vmovss	68(%rax), %xmm0         # xmm0 = mem[0],zero,zero,zero
	movq	img, %rax
	movl	(%rax), %eax
	addl	Bframe_ctr, %eax
	vcvtsi2ss	%eax, %xmm0, %xmm1
	vmulss	%xmm1, %xmm0, %xmm0
	movq	snr, %rax
	vaddss	8(%rax), %xmm0, %xmm0
	movq	img, %rax
	movl	(%rax), %eax
	addl	Bframe_ctr, %eax
	addl	$1, %eax
	vcvtsi2ss	%eax, %xmm0, %xmm1
	vdivss	%xmm1, %xmm0, %xmm0
	movq	snr, %rax
	vmovss	%xmm0, 68(%rax)
.LBB53_55:                              # %if.end285
	movq	img, %rax
	cmpl	$2, 24(%rax)
	jne	.LBB53_57
# %bb.56:                               # %if.then288
	movq	snr, %rax
	vmovss	32(%rax), %xmm0         # xmm0 = mem[0],zero,zero,zero
	movl	Iframe_ctr, %eax
	subl	$1, %eax
	vcvtsi2ss	%eax, %xmm0, %xmm1
	vmulss	%xmm1, %xmm0, %xmm0
	movq	snr, %rax
	vaddss	(%rax), %xmm0, %xmm0
	vcvtsi2ssl	Iframe_ctr, %xmm0, %xmm1
	vdivss	%xmm1, %xmm0, %xmm0
	movq	snr, %rax
	vmovss	%xmm0, 32(%rax)
	movq	snr, %rax
	vmovss	44(%rax), %xmm0         # xmm0 = mem[0],zero,zero,zero
	movl	Iframe_ctr, %eax
	subl	$1, %eax
	vcvtsi2ss	%eax, %xmm0, %xmm1
	vmulss	%xmm1, %xmm0, %xmm0
	movq	snr, %rax
	vaddss	4(%rax), %xmm0, %xmm0
	vcvtsi2ssl	Iframe_ctr, %xmm0, %xmm1
	vdivss	%xmm1, %xmm0, %xmm0
	movq	snr, %rax
	vmovss	%xmm0, 44(%rax)
	movq	snr, %rax
	vmovss	56(%rax), %xmm0         # xmm0 = mem[0],zero,zero,zero
	movl	Iframe_ctr, %eax
	subl	$1, %eax
	vcvtsi2ss	%eax, %xmm0, %xmm1
	vmulss	%xmm1, %xmm0, %xmm0
	movq	snr, %rax
	vaddss	8(%rax), %xmm0, %xmm0
	vcvtsi2ssl	Iframe_ctr, %xmm0, %xmm1
	vdivss	%xmm1, %xmm0, %xmm0
	movq	snr, %rax
	vmovss	%xmm0, 56(%rax)
	jmp	.LBB53_61
.LBB53_57:                              # %if.else322
	movq	img, %rax
	cmpl	$1, 24(%rax)
	jne	.LBB53_59
# %bb.58:                               # %if.then326
	movq	snr, %rax
	vmovss	28(%rax), %xmm0         # xmm0 = mem[0],zero,zero,zero
	movl	Bframe_ctr, %eax
	subl	$1, %eax
	vcvtsi2ss	%eax, %xmm0, %xmm1
	vmulss	%xmm1, %xmm0, %xmm0
	movq	snr, %rax
	vaddss	(%rax), %xmm0, %xmm0
	vcvtsi2ssl	Bframe_ctr, %xmm0, %xmm1
	vdivss	%xmm1, %xmm0, %xmm0
	movq	snr, %rax
	vmovss	%xmm0, 28(%rax)
	movq	snr, %rax
	vmovss	40(%rax), %xmm0         # xmm0 = mem[0],zero,zero,zero
	movl	Bframe_ctr, %eax
	subl	$1, %eax
	vcvtsi2ss	%eax, %xmm0, %xmm1
	vmulss	%xmm1, %xmm0, %xmm0
	movq	snr, %rax
	vaddss	4(%rax), %xmm0, %xmm0
	vcvtsi2ssl	Bframe_ctr, %xmm0, %xmm1
	vdivss	%xmm1, %xmm0, %xmm0
	movq	snr, %rax
	vmovss	%xmm0, 40(%rax)
	movq	snr, %rax
	vmovss	52(%rax), %xmm0         # xmm0 = mem[0],zero,zero,zero
	movl	Bframe_ctr, %eax
	subl	$1, %eax
	vcvtsi2ss	%eax, %xmm0, %xmm1
	vmulss	%xmm1, %xmm0, %xmm0
	movq	snr, %rax
	vaddss	8(%rax), %xmm0, %xmm0
	vcvtsi2ssl	Bframe_ctr, %xmm0, %xmm1
	vdivss	%xmm1, %xmm0, %xmm0
	movq	snr, %rax
	vmovss	%xmm0, 52(%rax)
	jmp	.LBB53_60
.LBB53_59:                              # %if.else360
	movq	snr, %rax
	vmovss	24(%rax), %xmm0         # xmm0 = mem[0],zero,zero,zero
	movl	Pframe_ctr, %eax
	subl	$1, %eax
	vcvtsi2ss	%eax, %xmm0, %xmm1
	vmulss	%xmm1, %xmm0, %xmm0
	movq	snr, %rax
	vaddss	(%rax), %xmm0, %xmm0
	vcvtsi2ssl	Pframe_ctr, %xmm0, %xmm1
	vdivss	%xmm1, %xmm0, %xmm0
	movq	snr, %rax
	vmovss	%xmm0, 24(%rax)
	movq	snr, %rax
	vmovss	36(%rax), %xmm0         # xmm0 = mem[0],zero,zero,zero
	movl	Pframe_ctr, %eax
	subl	$1, %eax
	vcvtsi2ss	%eax, %xmm0, %xmm1
	vmulss	%xmm1, %xmm0, %xmm0
	movq	snr, %rax
	vaddss	4(%rax), %xmm0, %xmm0
	vcvtsi2ssl	Pframe_ctr, %xmm0, %xmm1
	vdivss	%xmm1, %xmm0, %xmm0
	movq	snr, %rax
	vmovss	%xmm0, 36(%rax)
	movq	snr, %rax
	vmovss	48(%rax), %xmm0         # xmm0 = mem[0],zero,zero,zero
	movl	Pframe_ctr, %eax
	subl	$1, %eax
	vcvtsi2ss	%eax, %xmm0, %xmm1
	vmulss	%xmm1, %xmm0, %xmm0
	movq	snr, %rax
	vaddss	8(%rax), %xmm0, %xmm0
	vcvtsi2ssl	Pframe_ctr, %xmm0, %xmm1
	vdivss	%xmm1, %xmm0, %xmm0
	movq	snr, %rax
	vmovss	%xmm0, 48(%rax)
.LBB53_60:                              # %if.end394
	jmp	.LBB53_61
.LBB53_61:                              # %if.end395
	cmpl	$2105083743, -52(%rbp)  # imm = 0x7D79075F
	jne	.LBB53_63
.LBB53_62:
	addq	$64, %rsp
	popq	%rbp
	.cfi_def_cfa %rsp, 8
	retq
.LBB53_63:                              # %func_exit
	.cfi_def_cfa %rbp, 16
	callq	detect_breach
	jmp	.LBB53_62
.Lfunc_end53:
	.size	find_snr.17, .Lfunc_end53-find_snr.17
	.cfi_endproc
                                        # -- End function
	.p2align	4, 0x90         # -- Begin function ReportNALNonVLCBits.18
	.type	ReportNALNonVLCBits.18,@function
ReportNALNonVLCBits.18:                 # @ReportNALNonVLCBits.18
	.cfi_startproc
# %bb.0:                                # %entry
	pushq	%rbp
	.cfi_def_cfa_offset 16
	.cfi_offset %rbp, -16
	movq	%rsp, %rbp
	.cfi_def_cfa_register %rbp
	subq	$16, %rsp
	movl	$1907926785, -4(%rbp)   # imm = 0x71B8A701
	movl	%edi, -8(%rbp)
	movl	%esi, -12(%rbp)
	movl	frame_no, %esi
	movq	stats, %rax
	movl	1492(%rax), %edx
	movabsq	$.L.str.5, %rdi
	movb	$0, %al
	callq	printf
	cmpl	$1907926785, -4(%rbp)   # imm = 0x71B8A701
	jne	.LBB54_2
.LBB54_1:
	addq	$16, %rsp
	popq	%rbp
	.cfi_def_cfa %rsp, 8
	retq
.LBB54_2:                               # %func_exit
	.cfi_def_cfa %rbp, 16
	callq	detect_breach
	jmp	.LBB54_1
.Lfunc_end54:
	.size	ReportNALNonVLCBits.18, .Lfunc_end54-ReportNALNonVLCBits.18
	.cfi_endproc
                                        # -- End function
	.p2align	4, 0x90         # -- Begin function rdPictureCoding.19
	.type	rdPictureCoding.19,@function
rdPictureCoding.19:                     # @rdPictureCoding.19
	.cfi_startproc
# %bb.0:                                # %entry
	pushq	%rbp
	.cfi_def_cfa_offset 16
	.cfi_offset %rbp, -16
	movq	%rsp, %rbp
	.cfi_def_cfa_register %rbp
	subq	$32, %rsp
	movl	$377588814, -24(%rbp)   # imm = 0x16818C4E
	movq	img, %rax
	movl	40(%rax), %eax
	movl	%eax, -20(%rbp)
	movq	img, %rax
	movl	40(%rax), %eax
	movl	%eax, -4(%rbp)
	movl	intras, %eax
	movl	%eax, -12(%rbp)
	movq	img, %rax
	movl	24(%rax), %eax
	movl	%eax, -16(%rbp)
	movl	$0, -8(%rbp)
	movq	img, %rax
	cmpl	$2, 24(%rax)
	je	.LBB55_9
# %bb.1:                                # %land.lhs.true
	movq	input, %rax
	cmpl	$0, 60(%rax)
	je	.LBB55_9
# %bb.2:                                # %if.then
	movq	img, %rax
	cmpl	$0, 24(%rax)
	jne	.LBB55_7
# %bb.3:                                # %if.then5
	xorl	%edi, %edi
	callq	test_wp_P_slice
	cmpl	$1, %eax
	jne	.LBB55_5
# %bb.4:                                # %if.then7
	movabsq	$PicParSet, %rax
	addq	$240, %rax
	movq	%rax, active_pps
	jmp	.LBB55_6
.LBB55_5:                               # %if.else
	movq	input, %rax
	movl	1304(%rax), %eax
	movl	%eax, -8(%rbp)
	movabsq	$PicParSet, %rax
	movq	%rax, active_pps
	movq	img, %rax
	movl	40(%rax), %ecx
	subl	$1, %ecx
	movl	%ecx, 40(%rax)
.LBB55_6:                               # %if.end
	jmp	.LBB55_8
.LBB55_7:                               # %if.else9
	movabsq	$PicParSet, %rax
	addq	$480, %rax              # imm = 0x1E0
	movq	%rax, active_pps
.LBB55_8:                               # %if.end10
	jmp	.LBB55_10
.LBB55_9:                               # %if.else11
	movq	img, %rax
	movl	40(%rax), %ecx
	subl	$1, %ecx
	movl	%ecx, 40(%rax)
.LBB55_10:                              # %if.end14
	movq	active_pps, %rax
	movq	%rax, -32(%rbp)
	movq	img, %rax
	movl	40(%rax), %eax
	movl	%eax, -20(%rbp)
	movq	img, %rax
	movl	$0, 72624(%rax)
	cmpl	$0, -8(%rbp)
	je	.LBB55_12
# %bb.11:                               # %if.then17
	movq	img, %rax
	movl	$0, 71804(%rax)
	movq	$0, enc_frame_picture2
	jmp	.LBB55_13
.LBB55_12:                              # %if.else18
	movq	frame_pic2, %rdi
	movl	$1, %esi
	callq	frame_picture
	movq	frame_pic, %rdi
	movq	frame_pic2, %rsi
	movl	-4(%rbp), %edx
	callq	picture_coding_decision
	movq	img, %rcx
	movl	%eax, 71804(%rcx)
.LBB55_13:                              # %if.end21
	movq	img, %rax
	cmpl	$0, 71804(%rax)
	jne	.LBB55_19
# %bb.14:                               # %if.then24
	movq	enc_frame_picture, %rax
	movq	%rax, enc_picture
	movq	img, %rax
	cmpl	$2, 24(%rax)
	je	.LBB55_17
# %bb.15:                               # %land.lhs.true27
	movq	input, %rax
	cmpl	$0, 60(%rax)
	je	.LBB55_17
# %bb.16:                               # %if.then30
	movl	-4(%rbp), %eax
	movq	img, %rcx
	movl	%eax, 40(%rcx)
	movabsq	$PicParSet, %rax
	movq	%rax, active_pps
	jmp	.LBB55_18
.LBB55_17:                              # %if.else32
	movl	-4(%rbp), %eax
	movq	img, %rcx
	movl	%eax, 40(%rcx)
.LBB55_18:                              # %if.end34
	movl	-12(%rbp), %eax
	movl	%eax, intras
	jmp	.LBB55_20
.LBB55_19:                              # %if.else35
	movl	intras, %eax
	movl	%eax, -12(%rbp)
.LBB55_20:                              # %if.end36
	movq	img, %rax
	cmpl	$2, 24(%rax)
	je	.LBB55_35
# %bb.21:                               # %land.lhs.true39
	movq	input, %rax
	cmpl	$0, 60(%rax)
	je	.LBB55_35
# %bb.22:                               # %if.then42
	movl	$0, -8(%rbp)
	movl	-4(%rbp), %eax
	movq	img, %rcx
	movl	%eax, 40(%rcx)
	movq	img, %rax
	cmpl	$0, 24(%rax)
	jne	.LBB55_27
# %bb.23:                               # %if.then46
	movl	$1, %edi
	callq	test_wp_P_slice
	cmpl	$1, %eax
	jne	.LBB55_25
# %bb.24:                               # %if.then49
	movabsq	$PicParSet, %rax
	addq	$240, %rax
	movq	%rax, active_pps
	jmp	.LBB55_26
.LBB55_25:                              # %if.else50
	movq	input, %rax
	movl	1304(%rax), %eax
	movl	%eax, -8(%rbp)
	movabsq	$PicParSet, %rax
	movq	%rax, active_pps
	movq	img, %rax
	movl	40(%rax), %ecx
	addl	$1, %ecx
	movl	%ecx, 40(%rax)
.LBB55_26:                              # %if.end53
	jmp	.LBB55_34
.LBB55_27:                              # %if.else54
	xorl	%edi, %edi
	callq	test_wp_B_slice
	cmpl	$1, %eax
	jne	.LBB55_29
# %bb.28:                               # %if.then57
	movabsq	$PicParSet, %rax
	addq	$240, %rax
	movq	%rax, active_pps
	jmp	.LBB55_33
.LBB55_29:                              # %if.else58
	movq	input, %rax
	movl	1308(%rax), %eax
	movl	%eax, -8(%rbp)
	movq	img, %rax
	cmpl	$0, 72496(%rax)
	je	.LBB55_31
# %bb.30:                               # %if.then60
	movl	-4(%rbp), %eax
	subl	$1, %eax
	movq	img, %rcx
	movl	%eax, 40(%rcx)
	jmp	.LBB55_32
.LBB55_31:                              # %if.else63
	movl	-4(%rbp), %eax
	addl	$1, %eax
	movq	img, %rcx
	movl	%eax, 40(%rcx)
.LBB55_32:                              # %if.end66
	jmp	.LBB55_33
.LBB55_33:                              # %if.end67
	jmp	.LBB55_34
.LBB55_34:                              # %if.end68
	jmp	.LBB55_36
.LBB55_35:                              # %if.else69
	movabsq	$PicParSet, %rax
	movq	%rax, active_pps
	movl	-4(%rbp), %eax
	addl	$1, %eax
	movq	img, %rcx
	movl	%eax, 40(%rcx)
.LBB55_36:                              # %if.end72
	movq	img, %rax
	cmpl	$0, 24(%rax)
	jne	.LBB55_40
# %bb.37:                               # %land.lhs.true75
	movq	input, %rax
	cmpl	$0, 60(%rax)
	je	.LBB55_40
# %bb.38:                               # %land.lhs.true78
	imull	$100, intras, %eax
	movq	img, %rcx
	xorl	%edx, %edx
	divl	72488(%rcx)
	cmpl	$75, %eax
	jb	.LBB55_40
# %bb.39:                               # %if.then80
	movq	img, %rax
	movl	$2, 24(%rax)
	movabsq	$PicParSet, %rax
	movq	%rax, active_pps
.LBB55_40:                              # %if.end82
	movq	img, %rax
	movl	$0, 72624(%rax)
	cmpl	$0, -8(%rbp)
	je	.LBB55_42
# %bb.41:                               # %if.then85
	movq	$0, enc_frame_picture3
	movl	-4(%rbp), %eax
	movq	img, %rcx
	movl	%eax, 40(%rcx)
	jmp	.LBB55_46
.LBB55_42:                              # %if.else87
	movq	frame_pic3, %rdi
	movl	$2, %esi
	callq	frame_picture
	movq	img, %rax
	cmpl	$0, 71804(%rax)
	jne	.LBB55_44
# %bb.43:                               # %if.then90
	movq	frame_pic, %rdi
	movq	frame_pic3, %rsi
	movl	-4(%rbp), %edx
	callq	picture_coding_decision
	shll	$1, %eax
	movq	img, %rcx
	movl	%eax, 71804(%rcx)
	jmp	.LBB55_45
.LBB55_44:                              # %if.else94
	movq	frame_pic2, %rdi
	movq	frame_pic3, %rsi
	movl	-4(%rbp), %edx
	callq	picture_coding_decision
	movq	img, %rcx
	addl	71804(%rcx), %eax
	movl	%eax, 71804(%rcx)
.LBB55_45:                              # %if.end98
	jmp	.LBB55_46
.LBB55_46:                              # %if.end99
	movq	img, %rax
	cmpl	$0, 71804(%rax)
	jne	.LBB55_48
# %bb.47:                               # %if.then102
	movq	enc_frame_picture, %rax
	movq	%rax, enc_picture
	movl	-16(%rbp), %eax
	movq	img, %rcx
	movl	%eax, 24(%rcx)
	movabsq	$PicParSet, %rax
	movq	%rax, active_pps
	movl	-4(%rbp), %eax
	movq	img, %rcx
	movl	%eax, 40(%rcx)
	movl	-12(%rbp), %eax
	movl	%eax, intras
	jmp	.LBB55_51
.LBB55_48:                              # %if.else105
	movq	img, %rax
	cmpl	$1, 71804(%rax)
	jne	.LBB55_50
# %bb.49:                               # %if.then108
	movq	enc_frame_picture2, %rax
	movq	%rax, enc_picture
	movl	-16(%rbp), %eax
	movq	img, %rcx
	movl	%eax, 24(%rcx)
	movq	-32(%rbp), %rax
	movq	%rax, active_pps
	movl	-20(%rbp), %eax
	movq	img, %rcx
	movl	%eax, 40(%rcx)
	movl	-12(%rbp), %eax
	movl	%eax, intras
.LBB55_50:                              # %if.end111
	jmp	.LBB55_51
.LBB55_51:                              # %if.end112
	cmpl	$377588814, -24(%rbp)   # imm = 0x16818C4E
	jne	.LBB55_53
.LBB55_52:
	addq	$32, %rsp
	popq	%rbp
	.cfi_def_cfa %rsp, 8
	retq
.LBB55_53:                              # %func_exit
	.cfi_def_cfa %rbp, 16
	callq	detect_breach
	jmp	.LBB55_52
.Lfunc_end55:
	.size	rdPictureCoding.19, .Lfunc_end55-rdPictureCoding.19
	.cfi_endproc
                                        # -- End function
	.p2align	4, 0x90         # -- Begin function ReportSP.20
	.type	ReportSP.20,@function
ReportSP.20:                            # @ReportSP.20
	.cfi_startproc
# %bb.0:                                # %entry
	pushq	%rbp
	.cfi_def_cfa_offset 16
	.cfi_offset %rbp, -16
	movq	%rsp, %rbp
	.cfi_def_cfa_register %rbp
	subq	$48, %rsp
	movl	$2085078536, -8(%rbp)   # imm = 0x7C47C608
	movl	%edi, -12(%rbp)
	movl	%esi, -4(%rbp)
	movl	frame_no, %esi
	movq	stats, %rax
	movl	16(%rax), %edx
	movq	stats, %rax
	subl	20(%rax), %edx
	movq	active_pps, %rax
	movl	192(%rax), %ecx
	movq	img, %rax
	movl	40(%rax), %r8d
	movq	snr, %rax
	vmovss	(%rax), %xmm0           # xmm0 = mem[0],zero,zero,zero
	vcvtss2sd	%xmm0, %xmm0, %xmm0
	movq	snr, %rax
	vmovss	4(%rax), %xmm1          # xmm1 = mem[0],zero,zero,zero
	vcvtss2sd	%xmm1, %xmm0, %xmm1
	movq	snr, %rax
	vmovss	8(%rax), %xmm2          # xmm2 = mem[0],zero,zero,zero
	vcvtss2sd	%xmm2, %xmm0, %xmm2
	movl	-12(%rbp), %r9d
	movl	-4(%rbp), %r10d
	movq	img, %rdi
	movl	71800(%rdi), %edi
	cmpl	$0, %edi
	movabsq	$.L.str.7, %rdi
	movabsq	$.L.str.8, %rax
	cmovneq	%rdi, %rax
	movl	intras, %r11d
	movabsq	$.L.str.10, %rdi
	movl	%r10d, (%rsp)
	movq	%rax, 8(%rsp)
	movl	%r11d, 16(%rsp)
	movb	$3, %al
	callq	printf
	cmpl	$2085078536, -8(%rbp)   # imm = 0x7C47C608
	jne	.LBB56_2
.LBB56_1:
	addq	$48, %rsp
	popq	%rbp
	.cfi_def_cfa %rsp, 8
	retq
.LBB56_2:                               # %func_exit
	.cfi_def_cfa %rbp, 16
	callq	detect_breach
	jmp	.LBB56_1
.Lfunc_end56:
	.size	ReportSP.20, .Lfunc_end56-ReportSP.20
	.cfi_endproc
                                        # -- End function
	.globl	field_picture.21        # -- Begin function field_picture.21
	.p2align	4, 0x90
	.type	field_picture.21,@function
field_picture.21:                       # @field_picture.21
	.cfi_startproc
# %bb.0:                                # %entry
	pushq	%rbp
	.cfi_def_cfa_offset 16
	.cfi_offset %rbp, -16
	movq	%rsp, %rbp
	.cfi_def_cfa_register %rbp
	subq	$32, %rsp
	movl	$451996186, -16(%rbp)   # imm = 0x1AF0EA1A
	movq	%rdi, -8(%rbp)
	movq	%rsi, -24(%rbp)
	movq	img, %rax
	movl	24(%rax), %eax
	movl	%eax, -28(%rbp)
	movq	stats, %rax
	movl	$0, 1472(%rax)
	movq	stats, %rax
	addq	$1472, %rax             # imm = 0x5C0
	movq	stats, %rcx
	movq	%rax, 1480(%rcx)
	movq	img, %rax
	movl	(%rax), %ecx
	shll	$1, %ecx
	movl	%ecx, (%rax)
	movq	img, %rax
	movl	72376(%rax), %ecx
	shll	$1, %ecx
	movl	%ecx, 72376(%rax)
	movq	input, %rax
	movl	68(%rax), %eax
	movq	img, %rcx
	addl	72732(%rcx), %eax
	cltd
	movl	$2, %ecx
	idivl	%ecx
	movq	img, %rdx
	movl	%eax, 60(%rdx)
	movq	img, %rax
	movl	68(%rax), %eax
	cltd
	idivl	%ecx
	movq	img, %rcx
	movl	%eax, 64(%rcx)
	movq	img, %rax
	movl	$1, 71800(%rax)
	movq	img, %rax
	movl	72488(%rax), %eax
	shrl	$1, %eax
	movq	img, %rcx
	movl	%eax, 72484(%rcx)
	movq	img, %rax
	movl	28(%rax), %edi
	movq	img, %rax
	movl	52(%rax), %esi
	movq	img, %rax
	movl	60(%rax), %edx
	movq	img, %rax
	movl	56(%rax), %ecx
	movq	img, %rax
	movl	64(%rax), %r8d
	callq	alloc_storable_picture
	movq	%rax, enc_top_picture
	movq	img, %rax
	movl	72448(%rax), %eax
	movq	enc_top_picture, %rcx
	movl	%eax, 4(%rcx)
	movq	img, %rax
	movl	72448(%rax), %eax
	movq	enc_top_picture, %rcx
	movl	%eax, 16(%rcx)
	movq	img, %rax
	movl	72464(%rax), %eax
	movq	enc_top_picture, %rcx
	movl	%eax, 6364(%rcx)
	movq	img, %rax
	movl	72464(%rax), %eax
	movq	enc_top_picture, %rcx
	movl	%eax, 6360(%rcx)
	movq	enc_top_picture, %rax
	movl	$0, 6412(%rax)
	movq	img, %rax
	movl	$0, 72400(%rax)
	movq	enc_top_picture, %rax
	movl	$0, 6416(%rax)
	movq	img, %rax
	movl	72448(%rax), %eax
	movq	img, %rcx
	movl	%eax, 72460(%rcx)
	movq	img, %rax
	movl	$1, 28(%rax)
	movq	enc_top_picture, %rax
	movq	%rax, enc_picture
	callq	copy_params
	callq	put_buffer_top
	callq	init_field
	movq	img, %rax
	cmpl	$1, 24(%rax)
	jne	.LBB57_2
# %bb.1:                                # %if.then
	movl	nextP_tr_fld, %eax
	addl	$-1, %eax
	movl	%eax, nextP_tr_fld
.LBB57_2:                               # %if.end
	movq	img, %rax
	movl	$1, 71800(%rax)
	movq	input, %rax
	cmpl	$0, 3236(%rax)
	je	.LBB57_7
# %bb.3:                                # %if.then15
	movq	input, %rax
	movl	3248(%rax), %eax
	movq	img, %rcx
	movl	%eax, 72620(%rcx)
	movq	input, %rax
	cmpl	$1, 2880(%rax)
	jne	.LBB57_5
# %bb.4:                                # %if.then17
	xorl	%edi, %edi
	movl	$1, %esi
	movl	$1, %edx
	callq	rc_init_pict
	jmp	.LBB57_6
.LBB57_5:                               # %if.else
	xorl	%edi, %edi
	movl	$1, %esi
	xorl	%edx, %edx
	callq	rc_init_pict
.LBB57_6:                               # %if.end18
	movl	$1, %edi
	callq	updateQuantizationParameter
	movq	img, %rcx
	movl	%eax, 40(%rcx)
.LBB57_7:                               # %if.end20
	movq	img, %rax
	movl	$1, 72596(%rax)
	movq	top_pic, %rdi
	callq	code_a_picture
	movq	enc_picture, %rax
	movl	$1, (%rax)
	movq	enc_top_picture, %rdi
	callq	store_picture_in_dpb
	movq	img, %rax
	movq	14160(%rax), %rax
	movq	24(%rax), %rax
	movq	(%rax), %rax
	movl	(%rax), %eax
	shll	$3, %eax
	movq	-8(%rbp), %rcx
	movl	%eax, 808(%rcx)
	movq	-8(%rbp), %rax
	movl	808(%rax), %eax
	movl	%eax, -12(%rbp)
	movq	img, %rax
	movl	28(%rax), %edi
	movq	img, %rax
