	.text
	.file	"image.c"
	.globl	MbAffPostProc           # -- Begin function MbAffPostProc
	.p2align	4, 0x90
	.type	MbAffPostProc,@function
MbAffPostProc:                          # @MbAffPostProc
	.cfi_startproc
# %bb.0:                                # %rand_bb
	pushq	%rbp
	.cfi_def_cfa_offset 16
	.cfi_offset %rbp, -16
	movq	%rsp, %rbp
	.cfi_def_cfa_register %rbp
	callq	get_rand
	cmpl	$0, %eax
	jne	.LBB0_9
# %bb.1:                                # %func_MbAffPostProc.12
	callq	MbAffPostProc.12
	popq	%rbp
	.cfi_def_cfa %rsp, 8
	retq
.LBB0_2:                                # %func_MbAffPostProc.48
	.cfi_def_cfa %rbp, 16
	callq	MbAffPostProc.48
	popq	%rbp
	.cfi_def_cfa %rsp, 8
	retq
.LBB0_3:                                # %func_MbAffPostProc.49
	.cfi_def_cfa %rbp, 16
	callq	MbAffPostProc.49
	popq	%rbp
	.cfi_def_cfa %rsp, 8
	retq
.LBB0_4:                                # %func_MbAffPostProc.96
	.cfi_def_cfa %rbp, 16
	callq	MbAffPostProc.96
	popq	%rbp
	.cfi_def_cfa %rsp, 8
	retq
.LBB0_5:                                # %func_MbAffPostProc.103
	.cfi_def_cfa %rbp, 16
	callq	MbAffPostProc.103
	popq	%rbp
	.cfi_def_cfa %rsp, 8
	retq
.LBB0_6:                                # %func_MbAffPostProc.112
	.cfi_def_cfa %rbp, 16
	callq	MbAffPostProc.112
	popq	%rbp
	.cfi_def_cfa %rsp, 8
	retq
.LBB0_7:                                # %func_MbAffPostProc.126
	.cfi_def_cfa %rbp, 16
	callq	MbAffPostProc.126
	popq	%rbp
	.cfi_def_cfa %rsp, 8
	retq
.LBB0_8:                                # %func_MbAffPostProc.168
	.cfi_def_cfa %rbp, 16
	callq	MbAffPostProc.168
	popq	%rbp
	.cfi_def_cfa %rsp, 8
	retq
.LBB0_9:                                # %ctrl0
	.cfi_def_cfa %rbp, 16
	cmpl	$1, %eax
	je	.LBB0_2
# %bb.10:                               # %ctrl1
	cmpl	$2, %eax
	je	.LBB0_3
# %bb.11:                               # %ctrl2
	cmpl	$3, %eax
	je	.LBB0_4
# %bb.12:                               # %ctrl3
	cmpl	$4, %eax
	je	.LBB0_5
# %bb.13:                               # %ctrl4
	cmpl	$5, %eax
	je	.LBB0_6
# %bb.14:                               # %ctrl5
	cmpl	$6, %eax
	je	.LBB0_7
	jmp	.LBB0_8
.Lfunc_end0:
	.size	MbAffPostProc, .Lfunc_end0-MbAffPostProc
	.cfi_endproc
                                        # -- End function
	.globl	code_a_picture          # -- Begin function code_a_picture
	.p2align	4, 0x90
	.type	code_a_picture,@function
code_a_picture:                         # @code_a_picture
	.cfi_startproc
# %bb.0:                                # %rand_bb
	pushq	%rbp
	.cfi_def_cfa_offset 16
	.cfi_offset %rbp, -16
	movq	%rsp, %rbp
	.cfi_def_cfa_register %rbp
	pushq	%rbx
	pushq	%rax
	.cfi_offset %rbx, -24
	movq	%rdi, %rbx
	callq	get_rand
	cmpl	$0, %eax
	jne	.LBB1_9
# %bb.1:                                # %func_code_a_picture.39
	movq	%rbx, %rdi
	callq	code_a_picture.39
	addq	$8, %rsp
	popq	%rbx
	popq	%rbp
	.cfi_def_cfa %rsp, 8
	retq
.LBB1_2:                                # %func_code_a_picture.47
	.cfi_def_cfa %rbp, 16
	movq	%rbx, %rdi
	callq	code_a_picture.47
	addq	$8, %rsp
	popq	%rbx
	popq	%rbp
	.cfi_def_cfa %rsp, 8
	retq
.LBB1_3:                                # %func_code_a_picture.67
	.cfi_def_cfa %rbp, 16
	movq	%rbx, %rdi
	callq	code_a_picture.67
	addq	$8, %rsp
	popq	%rbx
	popq	%rbp
	.cfi_def_cfa %rsp, 8
	retq
.LBB1_4:                                # %func_code_a_picture.89
	.cfi_def_cfa %rbp, 16
	movq	%rbx, %rdi
	callq	code_a_picture.89
	addq	$8, %rsp
	popq	%rbx
	popq	%rbp
	.cfi_def_cfa %rsp, 8
	retq
.LBB1_5:                                # %func_code_a_picture.95
	.cfi_def_cfa %rbp, 16
	movq	%rbx, %rdi
	callq	code_a_picture.95
	addq	$8, %rsp
	popq	%rbx
	popq	%rbp
	.cfi_def_cfa %rsp, 8
	retq
.LBB1_6:                                # %func_code_a_picture.125
	.cfi_def_cfa %rbp, 16
	movq	%rbx, %rdi
	callq	code_a_picture.125
	addq	$8, %rsp
	popq	%rbx
	popq	%rbp
	.cfi_def_cfa %rsp, 8
	retq
.LBB1_7:                                # %func_code_a_picture.136
	.cfi_def_cfa %rbp, 16
	movq	%rbx, %rdi
	callq	code_a_picture.136
	addq	$8, %rsp
	popq	%rbx
	popq	%rbp
	.cfi_def_cfa %rsp, 8
	retq
.LBB1_8:                                # %func_code_a_picture.150
	.cfi_def_cfa %rbp, 16
	movq	%rbx, %rdi
	callq	code_a_picture.150
	addq	$8, %rsp
	popq	%rbx
	popq	%rbp
	.cfi_def_cfa %rsp, 8
	retq
.LBB1_9:                                # %ctrl0
	.cfi_def_cfa %rbp, 16
	cmpl	$1, %eax
	je	.LBB1_2
# %bb.10:                               # %ctrl1
	cmpl	$2, %eax
	je	.LBB1_3
# %bb.11:                               # %ctrl2
	cmpl	$3, %eax
	je	.LBB1_4
# %bb.12:                               # %ctrl3
	cmpl	$4, %eax
	je	.LBB1_5
# %bb.13:                               # %ctrl4
	cmpl	$5, %eax
	je	.LBB1_6
# %bb.14:                               # %ctrl5
	cmpl	$6, %eax
	je	.LBB1_7
	jmp	.LBB1_8
.Lfunc_end1:
	.size	code_a_picture, .Lfunc_end1-code_a_picture
	.cfi_endproc
                                        # -- End function
	.globl	encode_one_frame        # -- Begin function encode_one_frame
	.p2align	4, 0x90
	.type	encode_one_frame,@function
encode_one_frame:                       # @encode_one_frame
	.cfi_startproc
# %bb.0:                                # %rand_bb
	pushq	%rbp
	.cfi_def_cfa_offset 16
	.cfi_offset %rbp, -16
	movq	%rsp, %rbp
	.cfi_def_cfa_register %rbp
	callq	get_rand
	cmpl	$0, %eax
	jne	.LBB2_9
# %bb.1:                                # %func_encode_one_frame.37
	callq	encode_one_frame.37
	popq	%rbp
	.cfi_def_cfa %rsp, 8
	retq
.LBB2_2:                                # %func_encode_one_frame.38
	.cfi_def_cfa %rbp, 16
	callq	encode_one_frame.38
	popq	%rbp
	.cfi_def_cfa %rsp, 8
	retq
.LBB2_3:                                # %func_encode_one_frame.60
	.cfi_def_cfa %rbp, 16
	callq	encode_one_frame.60
	popq	%rbp
	.cfi_def_cfa %rsp, 8
	retq
.LBB2_4:                                # %func_encode_one_frame.77
	.cfi_def_cfa %rbp, 16
	callq	encode_one_frame.77
	popq	%rbp
	.cfi_def_cfa %rsp, 8
	retq
.LBB2_5:                                # %func_encode_one_frame.133
	.cfi_def_cfa %rbp, 16
	callq	encode_one_frame.133
	popq	%rbp
	.cfi_def_cfa %rsp, 8
	retq
.LBB2_6:                                # %func_encode_one_frame.142
	.cfi_def_cfa %rbp, 16
	callq	encode_one_frame.142
	popq	%rbp
	.cfi_def_cfa %rsp, 8
	retq
.LBB2_7:                                # %func_encode_one_frame.151
	.cfi_def_cfa %rbp, 16
	callq	encode_one_frame.151
	popq	%rbp
	.cfi_def_cfa %rsp, 8
	retq
.LBB2_8:                                # %func_encode_one_frame.154
	.cfi_def_cfa %rbp, 16
	callq	encode_one_frame.154
	popq	%rbp
	.cfi_def_cfa %rsp, 8
	retq
.LBB2_9:                                # %ctrl0
	.cfi_def_cfa %rbp, 16
	cmpl	$1, %eax
	je	.LBB2_2
# %bb.10:                               # %ctrl1
	cmpl	$2, %eax
	je	.LBB2_3
# %bb.11:                               # %ctrl2
	cmpl	$3, %eax
	je	.LBB2_4
# %bb.12:                               # %ctrl3
	cmpl	$4, %eax
	je	.LBB2_5
# %bb.13:                               # %ctrl4
	cmpl	$5, %eax
	je	.LBB2_6
# %bb.14:                               # %ctrl5
	cmpl	$6, %eax
	je	.LBB2_7
	jmp	.LBB2_8
.Lfunc_end2:
	.size	encode_one_frame, .Lfunc_end2-encode_one_frame
	.cfi_endproc
                                        # -- End function
	.p2align	4, 0x90         # -- Begin function ReadOneFrame
	.type	ReadOneFrame,@function
ReadOneFrame:                           # @ReadOneFrame
	.cfi_startproc
# %bb.0:                                # %rand_bb
	pushq	%rbp
	.cfi_def_cfa_offset 16
	.cfi_offset %rbp, -16
	movq	%rsp, %rbp
	.cfi_def_cfa_register %rbp
	pushq	%r15
	pushq	%r14
	pushq	%r13
	pushq	%r12
	pushq	%rbx
	pushq	%rax
	.cfi_offset %rbx, -56
	.cfi_offset %r12, -48
	.cfi_offset %r13, -40
	.cfi_offset %r14, -32
	.cfi_offset %r15, -24
	movl	%r9d, -44(%rbp)         # 4-byte Spill
	movl	%r8d, %r12d
	movl	%ecx, %r13d
	movl	%edx, %ebx
	movl	%esi, %r14d
	movl	%edi, %r15d
	callq	get_rand
	cmpl	$0, %eax
	jne	.LBB3_9
# %bb.1:                                # %func_ReadOneFrame.25
	movl	%r15d, %edi
	movl	%r14d, %esi
	movl	%ebx, %edx
	movl	%r13d, %ecx
	movl	%r12d, %r8d
	movl	-44(%rbp), %r9d         # 4-byte Reload
	callq	ReadOneFrame.25
	addq	$8, %rsp
	popq	%rbx
	popq	%r12
	popq	%r13
	popq	%r14
	popq	%r15
	popq	%rbp
	.cfi_def_cfa %rsp, 8
	retq
.LBB3_2:                                # %func_ReadOneFrame.141
	.cfi_def_cfa %rbp, 16
	movl	%r15d, %edi
	movl	%r14d, %esi
	movl	%ebx, %edx
	movl	%r13d, %ecx
	movl	%r12d, %r8d
	callq	ReadOneFrame.141
	addq	$8, %rsp
	popq	%rbx
	popq	%r12
	popq	%r13
	popq	%r14
	popq	%r15
	popq	%rbp
	.cfi_def_cfa %rsp, 8
	retq
.LBB3_3:                                # %func_ReadOneFrame.158
	.cfi_def_cfa %rbp, 16
	movl	%r15d, %edi
	movl	%r14d, %esi
	movl	%ebx, %edx
	movl	%r13d, %ecx
	movl	%r12d, %r8d
	callq	ReadOneFrame.158
	addq	$8, %rsp
	popq	%rbx
	popq	%r12
	popq	%r13
	popq	%r14
	popq	%r15
	popq	%rbp
	.cfi_def_cfa %rsp, 8
	retq
.LBB3_4:                                # %func_ReadOneFrame.178
	.cfi_def_cfa %rbp, 16
	movl	%r15d, %edi
	movl	%r14d, %esi
	movl	%ebx, %edx
	movl	%r13d, %ecx
	movl	%r12d, %r8d
	callq	ReadOneFrame.178
	addq	$8, %rsp
	popq	%rbx
	popq	%r12
	popq	%r13
	popq	%r14
	popq	%r15
	popq	%rbp
	.cfi_def_cfa %rsp, 8
	retq
.LBB3_5:                                # %func_ReadOneFrame.180
	.cfi_def_cfa %rbp, 16
	movl	%r15d, %edi
	movl	%r14d, %esi
	movl	%ebx, %edx
	movl	%r13d, %ecx
	movl	%r12d, %r8d
	callq	ReadOneFrame.180
	addq	$8, %rsp
	popq	%rbx
	popq	%r12
	popq	%r13
	popq	%r14
	popq	%r15
	popq	%rbp
	.cfi_def_cfa %rsp, 8
	retq
.LBB3_6:                                # %func_ReadOneFrame.182
	.cfi_def_cfa %rbp, 16
	movl	%r15d, %edi
	movl	%r14d, %esi
	movl	%ebx, %edx
	movl	%r13d, %ecx
	movl	%r12d, %r8d
	callq	ReadOneFrame.182
	addq	$8, %rsp
	popq	%rbx
	popq	%r12
	popq	%r13
	popq	%r14
	popq	%r15
	popq	%rbp
	.cfi_def_cfa %rsp, 8
	retq
.LBB3_7:                                # %func_ReadOneFrame.185
	.cfi_def_cfa %rbp, 16
	callq	ReadOneFrame.185
	addq	$8, %rsp
	popq	%rbx
	popq	%r12
	popq	%r13
	popq	%r14
	popq	%r15
	popq	%rbp
	.cfi_def_cfa %rsp, 8
	retq
.LBB3_8:                                # %func_ReadOneFrame.188
	.cfi_def_cfa %rbp, 16
	callq	ReadOneFrame.188
	addq	$8, %rsp
	popq	%rbx
	popq	%r12
	popq	%r13
	popq	%r14
	popq	%r15
	popq	%rbp
	.cfi_def_cfa %rsp, 8
	retq
.LBB3_9:                                # %ctrl0
	.cfi_def_cfa %rbp, 16
	movl	-44(%rbp), %r9d         # 4-byte Reload
	cmpl	$1, %eax
	je	.LBB3_2
# %bb.10:                               # %ctrl1
	cmpl	$2, %eax
	je	.LBB3_3
# %bb.11:                               # %ctrl2
	cmpl	$3, %eax
	je	.LBB3_4
# %bb.12:                               # %ctrl3
	cmpl	$4, %eax
	je	.LBB3_5
# %bb.13:                               # %ctrl4
	cmpl	$5, %eax
	je	.LBB3_6
# %bb.14:                               # %ctrl5
	cmpl	$6, %eax
	movl	%r12d, %r8d
	movl	%r13d, %ecx
	movl	%ebx, %edx
	movl	%r14d, %esi
	movl	%r15d, %edi
	je	.LBB3_7
	jmp	.LBB3_8
.Lfunc_end3:
	.size	ReadOneFrame, .Lfunc_end3-ReadOneFrame
	.cfi_endproc
                                        # -- End function
	.p2align	4, 0x90         # -- Begin function PaddAutoCropBorders
	.type	PaddAutoCropBorders,@function
PaddAutoCropBorders:                    # @PaddAutoCropBorders
	.cfi_startproc
# %bb.0:                                # %rand_bb
	pushq	%rbp
	.cfi_def_cfa_offset 16
	.cfi_offset %rbp, -16
	movq	%rsp, %rbp
	.cfi_def_cfa_register %rbp
	pushq	%r15
	pushq	%r14
	pushq	%r13
	pushq	%r12
	pushq	%rbx
	subq	$24, %rsp
	.cfi_offset %rbx, -56
	.cfi_offset %r12, -48
	.cfi_offset %r13, -40
	.cfi_offset %r14, -32
	.cfi_offset %r15, -24
	movl	%r9d, -44(%rbp)         # 4-byte Spill
	movl	%r8d, %r15d
	movl	%ecx, %r12d
	movl	%edx, %ebx
	movl	%esi, %r14d
	movl	%edi, %r13d
	callq	get_rand
	cmpl	$0, %eax
	jne	.LBB4_9
# %bb.1:                                # %func_PaddAutoCropBorders.34
	movl	%r13d, %edi
	movl	%r14d, %esi
	movl	%ebx, %edx
	movl	%r12d, %ecx
	movl	%r15d, %r8d
	movl	-44(%rbp), %r9d         # 4-byte Reload
	movl	16(%rbp), %eax
	movl	%eax, (%rsp)
	movl	24(%rbp), %eax
	movl	%eax, 8(%rsp)
	callq	PaddAutoCropBorders.34
	addq	$24, %rsp
	popq	%rbx
	popq	%r12
	popq	%r13
	popq	%r14
	popq	%r15
	popq	%rbp
	.cfi_def_cfa %rsp, 8
	retq
.LBB4_2:                                # %func_PaddAutoCropBorders.44
	.cfi_def_cfa %rbp, 16
	movl	%r13d, %edi
	movl	%r14d, %esi
	movl	%ebx, %edx
	movl	%r12d, %ecx
	movl	%r15d, %r8d
	movl	%r11d, (%rsp)
	movl	%r10d, 8(%rsp)
	callq	PaddAutoCropBorders.44
	addq	$24, %rsp
	popq	%rbx
	popq	%r12
	popq	%r13
	popq	%r14
	popq	%r15
	popq	%rbp
	.cfi_def_cfa %rsp, 8
	retq
.LBB4_3:                                # %func_PaddAutoCropBorders.45
	.cfi_def_cfa %rbp, 16
	movl	%r13d, %edi
	movl	%r14d, %esi
	movl	%ebx, %edx
	movl	%r12d, %ecx
	movl	%r15d, %r8d
	movl	%r11d, (%rsp)
	movl	%r10d, 8(%rsp)
	callq	PaddAutoCropBorders.45
	addq	$24, %rsp
	popq	%rbx
	popq	%r12
	popq	%r13
	popq	%r14
	popq	%r15
	popq	%rbp
	.cfi_def_cfa %rsp, 8
	retq
.LBB4_4:                                # %func_PaddAutoCropBorders.101
	.cfi_def_cfa %rbp, 16
	movl	%r13d, %edi
	movl	%r14d, %esi
	movl	%ebx, %edx
	movl	%r12d, %ecx
	movl	%r15d, %r8d
	movl	%r11d, (%rsp)
	movl	%r10d, 8(%rsp)
	callq	PaddAutoCropBorders.101
	addq	$24, %rsp
	popq	%rbx
	popq	%r12
	popq	%r13
	popq	%r14
	popq	%r15
	popq	%rbp
	.cfi_def_cfa %rsp, 8
	retq
.LBB4_5:                                # %func_PaddAutoCropBorders.121
	.cfi_def_cfa %rbp, 16
	movl	%r13d, %edi
	movl	%r14d, %esi
	movl	%ebx, %edx
	movl	%r12d, %ecx
	movl	%r15d, %r8d
	movl	%r11d, (%rsp)
	movl	%r10d, 8(%rsp)
	callq	PaddAutoCropBorders.121
	addq	$24, %rsp
	popq	%rbx
	popq	%r12
	popq	%r13
	popq	%r14
	popq	%r15
	popq	%rbp
	.cfi_def_cfa %rsp, 8
	retq
.LBB4_6:                                # %func_PaddAutoCropBorders.153
	.cfi_def_cfa %rbp, 16
	movl	%r13d, %edi
	movl	%r14d, %esi
	movl	%ebx, %edx
	movl	%r12d, %ecx
	movl	%r15d, %r8d
	movl	%r11d, (%rsp)
	movl	%r10d, 8(%rsp)
	callq	PaddAutoCropBorders.153
	addq	$24, %rsp
	popq	%rbx
	popq	%r12
	popq	%r13
	popq	%r14
	popq	%r15
	popq	%rbp
	.cfi_def_cfa %rsp, 8
	retq
.LBB4_7:                                # %func_PaddAutoCropBorders.175
	.cfi_def_cfa %rbp, 16
	movl	%r11d, (%rsp)
	movl	%r10d, 8(%rsp)
	callq	PaddAutoCropBorders.175
	addq	$24, %rsp
	popq	%rbx
	popq	%r12
	popq	%r13
	popq	%r14
	popq	%r15
	popq	%rbp
	.cfi_def_cfa %rsp, 8
	retq
.LBB4_8:                                # %func_PaddAutoCropBorders.177
	.cfi_def_cfa %rbp, 16
	movl	%r11d, (%rsp)
	movl	%r10d, 8(%rsp)
	callq	PaddAutoCropBorders.177
	addq	$24, %rsp
	popq	%rbx
	popq	%r12
	popq	%r13
	popq	%r14
	popq	%r15
	popq	%rbp
	.cfi_def_cfa %rsp, 8
	retq
.LBB4_9:                                # %ctrl0
	.cfi_def_cfa %rbp, 16
	movl	-44(%rbp), %r9d         # 4-byte Reload
	movl	16(%rbp), %r11d
	movl	24(%rbp), %r10d
	cmpl	$1, %eax
	je	.LBB4_2
# %bb.10:                               # %ctrl1
	cmpl	$2, %eax
	je	.LBB4_3
# %bb.11:                               # %ctrl2
	cmpl	$3, %eax
	je	.LBB4_4
# %bb.12:                               # %ctrl3
	cmpl	$4, %eax
	je	.LBB4_5
# %bb.13:                               # %ctrl4
	cmpl	$5, %eax
	je	.LBB4_6
# %bb.14:                               # %ctrl5
	cmpl	$6, %eax
	movl	%r15d, %r8d
	movl	%r12d, %ecx
	movl	%ebx, %edx
	movl	%r14d, %esi
	movl	%r13d, %edi
	je	.LBB4_7
	jmp	.LBB4_8
.Lfunc_end4:
	.size	PaddAutoCropBorders, .Lfunc_end4-PaddAutoCropBorders
	.cfi_endproc
                                        # -- End function
	.globl	field_picture           # -- Begin function field_picture
	.p2align	4, 0x90
	.type	field_picture,@function
field_picture:                          # @field_picture
	.cfi_startproc
# %bb.0:                                # %rand_bb
	pushq	%rbp
	.cfi_def_cfa_offset 16
	.cfi_offset %rbp, -16
	movq	%rsp, %rbp
	.cfi_def_cfa_register %rbp
	pushq	%r14
	pushq	%rbx
	.cfi_offset %rbx, -32
	.cfi_offset %r14, -24
	movq	%rsi, %r14
	movq	%rdi, %rbx
	callq	get_rand
	cmpl	$0, %eax
	jne	.LBB5_9
# %bb.1:                                # %func_field_picture.19
	movq	%rbx, %rdi
	movq	%r14, %rsi
	callq	field_picture.19
	popq	%rbx
	popq	%r14
	popq	%rbp
	.cfi_def_cfa %rsp, 8
	retq
.LBB5_2:                                # %func_field_picture.52
	.cfi_def_cfa %rbp, 16
	movq	%rbx, %rdi
	movq	%r14, %rsi
	callq	field_picture.52
	popq	%rbx
	popq	%r14
	popq	%rbp
	.cfi_def_cfa %rsp, 8
	retq
.LBB5_3:                                # %func_field_picture.82
	.cfi_def_cfa %rbp, 16
	movq	%rbx, %rdi
	movq	%r14, %rsi
	callq	field_picture.82
	popq	%rbx
	popq	%r14
	popq	%rbp
	.cfi_def_cfa %rsp, 8
	retq
.LBB5_4:                                # %func_field_picture.94
	.cfi_def_cfa %rbp, 16
	movq	%rbx, %rdi
	movq	%r14, %rsi
	callq	field_picture.94
	popq	%rbx
	popq	%r14
	popq	%rbp
	.cfi_def_cfa %rsp, 8
	retq
.LBB5_5:                                # %func_field_picture.106
	.cfi_def_cfa %rbp, 16
	movq	%rbx, %rdi
	movq	%r14, %rsi
	callq	field_picture.106
	popq	%rbx
	popq	%r14
	popq	%rbp
	.cfi_def_cfa %rsp, 8
	retq
.LBB5_6:                                # %func_field_picture.124
	.cfi_def_cfa %rbp, 16
	movq	%rbx, %rdi
	movq	%r14, %rsi
	callq	field_picture.124
	popq	%rbx
	popq	%r14
	popq	%rbp
	.cfi_def_cfa %rsp, 8
	retq
.LBB5_7:                                # %func_field_picture.137
	.cfi_def_cfa %rbp, 16
	movq	%rbx, %rdi
	movq	%r14, %rsi
	callq	field_picture.137
	popq	%rbx
	popq	%r14
	popq	%rbp
	.cfi_def_cfa %rsp, 8
	retq
.LBB5_8:                                # %func_field_picture.155
	.cfi_def_cfa %rbp, 16
	movq	%rbx, %rdi
	movq	%r14, %rsi
	callq	field_picture.155
	popq	%rbx
	popq	%r14
	popq	%rbp
	.cfi_def_cfa %rsp, 8
	retq
.LBB5_9:                                # %ctrl0
	.cfi_def_cfa %rbp, 16
	cmpl	$1, %eax
	je	.LBB5_2
# %bb.10:                               # %ctrl1
	cmpl	$2, %eax
	je	.LBB5_3
# %bb.11:                               # %ctrl2
	cmpl	$3, %eax
	je	.LBB5_4
# %bb.12:                               # %ctrl3
	cmpl	$4, %eax
	je	.LBB5_5
# %bb.13:                               # %ctrl4
	cmpl	$5, %eax
	je	.LBB5_6
# %bb.14:                               # %ctrl5
	cmpl	$6, %eax
	je	.LBB5_7
	jmp	.LBB5_8
.Lfunc_end5:
	.size	field_picture, .Lfunc_end5-field_picture
	.cfi_endproc
                                        # -- End function
	.globl	frame_picture           # -- Begin function frame_picture
	.p2align	4, 0x90
	.type	frame_picture,@function
frame_picture:                          # @frame_picture
	.cfi_startproc
# %bb.0:                                # %rand_bb
	pushq	%rbp
	.cfi_def_cfa_offset 16
	.cfi_offset %rbp, -16
	movq	%rsp, %rbp
	.cfi_def_cfa_register %rbp
	pushq	%r14
	pushq	%rbx
	.cfi_offset %rbx, -32
	.cfi_offset %r14, -24
	movl	%esi, %r14d
	movq	%rdi, %rbx
	callq	get_rand
	cmpl	$0, %eax
	jne	.LBB6_2
# %bb.1:                                # %func_frame_picture.5
	movq	%rbx, %rdi
	movl	%r14d, %esi
	callq	frame_picture.5
	popq	%rbx
	popq	%r14
	popq	%rbp
	.cfi_def_cfa %rsp, 8
	retq
.LBB6_2:                                # %func_frame_picture.27
	.cfi_def_cfa %rbp, 16
	movq	%rbx, %rdi
	movl	%r14d, %esi
	callq	frame_picture.27
	popq	%rbx
	popq	%r14
	popq	%rbp
	.cfi_def_cfa %rsp, 8
	retq
.Lfunc_end6:
	.size	frame_picture, .Lfunc_end6-frame_picture
	.cfi_endproc
                                        # -- End function
	.p2align	4, 0x90         # -- Begin function picture_structure_decision
	.type	picture_structure_decision,@function
picture_structure_decision:             # @picture_structure_decision
	.cfi_startproc
# %bb.0:                                # %rand_bb
	pushq	%rbp
	.cfi_def_cfa_offset 16
	.cfi_offset %rbp, -16
	movq	%rsp, %rbp
	.cfi_def_cfa_register %rbp
	pushq	%r15
	pushq	%r14
	pushq	%rbx
	pushq	%rax
	.cfi_offset %rbx, -40
	.cfi_offset %r14, -32
	.cfi_offset %r15, -24
	movq	%rdx, %r14
	movq	%rsi, %r15
	movq	%rdi, %rbx
	callq	get_rand
	cmpl	$0, %eax
	jne	.LBB7_9
# %bb.1:                                # %func_picture_structure_decision.76
	movq	%rbx, %rdi
	movq	%r15, %rsi
	movq	%r14, %rdx
	callq	picture_structure_decision.76
	addq	$8, %rsp
	popq	%rbx
	popq	%r14
	popq	%r15
	popq	%rbp
	.cfi_def_cfa %rsp, 8
	retq
.LBB7_2:                                # %func_picture_structure_decision.109
	.cfi_def_cfa %rbp, 16
	movq	%rbx, %rdi
	movq	%r15, %rsi
	movq	%r14, %rdx
	callq	picture_structure_decision.109
	addq	$8, %rsp
	popq	%rbx
	popq	%r14
	popq	%r15
	popq	%rbp
	.cfi_def_cfa %rsp, 8
	retq
.LBB7_3:                                # %func_picture_structure_decision.117
	.cfi_def_cfa %rbp, 16
	movq	%rbx, %rdi
	movq	%r15, %rsi
	movq	%r14, %rdx
	callq	picture_structure_decision.117
	addq	$8, %rsp
	popq	%rbx
	popq	%r14
	popq	%r15
	popq	%rbp
	.cfi_def_cfa %rsp, 8
	retq
.LBB7_4:                                # %func_picture_structure_decision.134
	.cfi_def_cfa %rbp, 16
	movq	%rbx, %rdi
	movq	%r15, %rsi
	movq	%r14, %rdx
	callq	picture_structure_decision.134
	addq	$8, %rsp
	popq	%rbx
	popq	%r14
	popq	%r15
	popq	%rbp
	.cfi_def_cfa %rsp, 8
	retq
.LBB7_5:                                # %func_picture_structure_decision.161
	.cfi_def_cfa %rbp, 16
	movq	%rbx, %rdi
	movq	%r15, %rsi
	movq	%r14, %rdx
	callq	picture_structure_decision.161
	addq	$8, %rsp
	popq	%rbx
	popq	%r14
	popq	%r15
	popq	%rbp
	.cfi_def_cfa %rsp, 8
	retq
.LBB7_6:                                # %func_picture_structure_decision.174
	.cfi_def_cfa %rbp, 16
	movq	%rbx, %rdi
	movq	%r15, %rsi
	movq	%r14, %rdx
	callq	picture_structure_decision.174
	addq	$8, %rsp
	popq	%rbx
	popq	%r14
	popq	%r15
	popq	%rbp
	.cfi_def_cfa %rsp, 8
	retq
.LBB7_7:                                # %func_picture_structure_decision.183
	.cfi_def_cfa %rbp, 16
	movq	%rbx, %rdi
	movq	%r15, %rsi
	movq	%r14, %rdx
	callq	picture_structure_decision.183
	addq	$8, %rsp
	popq	%rbx
	popq	%r14
	popq	%r15
	popq	%rbp
	.cfi_def_cfa %rsp, 8
	retq
.LBB7_8:                                # %func_picture_structure_decision.187
	.cfi_def_cfa %rbp, 16
	movq	%rbx, %rdi
	movq	%r15, %rsi
	movq	%r14, %rdx
	callq	picture_structure_decision.187
	addq	$8, %rsp
	popq	%rbx
	popq	%r14
	popq	%r15
	popq	%rbp
	.cfi_def_cfa %rsp, 8
	retq
.LBB7_9:                                # %ctrl0
	.cfi_def_cfa %rbp, 16
	cmpl	$1, %eax
	je	.LBB7_2
# %bb.10:                               # %ctrl1
	cmpl	$2, %eax
	je	.LBB7_3
# %bb.11:                               # %ctrl2
	cmpl	$3, %eax
	je	.LBB7_4
# %bb.12:                               # %ctrl3
	cmpl	$4, %eax
	je	.LBB7_5
# %bb.13:                               # %ctrl4
	cmpl	$5, %eax
	je	.LBB7_6
# %bb.14:                               # %ctrl5
	cmpl	$6, %eax
	je	.LBB7_7
	jmp	.LBB7_8
.Lfunc_end7:
	.size	picture_structure_decision, .Lfunc_end7-picture_structure_decision
	.cfi_endproc
                                        # -- End function
	.p2align	4, 0x90         # -- Begin function field_mode_buffer
	.type	field_mode_buffer,@function
field_mode_buffer:                      # @field_mode_buffer
	.cfi_startproc
# %bb.0:                                # %rand_bb
	pushq	%rbp
	.cfi_def_cfa_offset 16
	.cfi_offset %rbp, -16
	movq	%rsp, %rbp
	.cfi_def_cfa_register %rbp
	pushq	%rbx
	subq	$24, %rsp
	.cfi_offset %rbx, -24
	vmovss	%xmm2, -20(%rbp)        # 4-byte Spill
	vmovss	%xmm1, -16(%rbp)        # 4-byte Spill
	vmovss	%xmm0, -12(%rbp)        # 4-byte Spill
	movl	%edi, %ebx
	callq	get_rand
	cmpl	$0, %eax
	jne	.LBB8_9
# %bb.1:                                # %func_field_mode_buffer.1
	movl	%ebx, %edi
	vmovss	-12(%rbp), %xmm0        # 4-byte Reload
                                        # xmm0 = mem[0],zero,zero,zero
	vmovss	-16(%rbp), %xmm1        # 4-byte Reload
                                        # xmm1 = mem[0],zero,zero,zero
	vmovss	-20(%rbp), %xmm2        # 4-byte Reload
                                        # xmm2 = mem[0],zero,zero,zero
	callq	field_mode_buffer.1
	addq	$24, %rsp
	popq	%rbx
	popq	%rbp
	.cfi_def_cfa %rsp, 8
	retq
.LBB8_2:                                # %func_field_mode_buffer.21
	.cfi_def_cfa %rbp, 16
	movl	%ebx, %edi
	callq	field_mode_buffer.21
	addq	$24, %rsp
	popq	%rbx
	popq	%rbp
	.cfi_def_cfa %rsp, 8
	retq
.LBB8_3:                                # %func_field_mode_buffer.58
	.cfi_def_cfa %rbp, 16
	movl	%ebx, %edi
	callq	field_mode_buffer.58
	addq	$24, %rsp
	popq	%rbx
	popq	%rbp
	.cfi_def_cfa %rsp, 8
	retq
.LBB8_4:                                # %func_field_mode_buffer.62
	.cfi_def_cfa %rbp, 16
	movl	%ebx, %edi
	callq	field_mode_buffer.62
	addq	$24, %rsp
	popq	%rbx
	popq	%rbp
	.cfi_def_cfa %rsp, 8
	retq
.LBB8_5:                                # %func_field_mode_buffer.123
	.cfi_def_cfa %rbp, 16
	movl	%ebx, %edi
	callq	field_mode_buffer.123
	addq	$24, %rsp
	popq	%rbx
	popq	%rbp
	.cfi_def_cfa %rsp, 8
	retq
.LBB8_6:                                # %func_field_mode_buffer.139
	.cfi_def_cfa %rbp, 16
	movl	%ebx, %edi
	callq	field_mode_buffer.139
	addq	$24, %rsp
	popq	%rbx
	popq	%rbp
	.cfi_def_cfa %rsp, 8
	retq
.LBB8_7:                                # %func_field_mode_buffer.157
	.cfi_def_cfa %rbp, 16
	movl	%ebx, %edi
	callq	field_mode_buffer.157
	addq	$24, %rsp
	popq	%rbx
	popq	%rbp
	.cfi_def_cfa %rsp, 8
	retq
.LBB8_8:                                # %func_field_mode_buffer.170
	.cfi_def_cfa %rbp, 16
	movl	%ebx, %edi
	callq	field_mode_buffer.170
	addq	$24, %rsp
	popq	%rbx
	popq	%rbp
	.cfi_def_cfa %rsp, 8
	retq
.LBB8_9:                                # %ctrl0
	.cfi_def_cfa %rbp, 16
	vmovss	-12(%rbp), %xmm0        # 4-byte Reload
                                        # xmm0 = mem[0],zero,zero,zero
	vmovss	-16(%rbp), %xmm1        # 4-byte Reload
                                        # xmm1 = mem[0],zero,zero,zero
	vmovss	-20(%rbp), %xmm2        # 4-byte Reload
                                        # xmm2 = mem[0],zero,zero,zero
	cmpl	$1, %eax
	je	.LBB8_2
# %bb.10:                               # %ctrl1
	cmpl	$2, %eax
	je	.LBB8_3
# %bb.11:                               # %ctrl2
	cmpl	$3, %eax
	je	.LBB8_4
# %bb.12:                               # %ctrl3
	cmpl	$4, %eax
	je	.LBB8_5
# %bb.13:                               # %ctrl4
	cmpl	$5, %eax
	je	.LBB8_6
# %bb.14:                               # %ctrl5
	cmpl	$6, %eax
	je	.LBB8_7
	jmp	.LBB8_8
.Lfunc_end8:
	.size	field_mode_buffer, .Lfunc_end8-field_mode_buffer
	.cfi_endproc
                                        # -- End function
	.p2align	4, 0x90         # -- Begin function writeout_picture
	.type	writeout_picture,@function
writeout_picture:                       # @writeout_picture
	.cfi_startproc
# %bb.0:                                # %rand_bb
	pushq	%rbp
	.cfi_def_cfa_offset 16
	.cfi_offset %rbp, -16
	movq	%rsp, %rbp
	.cfi_def_cfa_register %rbp
	pushq	%rbx
	pushq	%rax
	.cfi_offset %rbx, -24
	movq	%rdi, %rbx
	callq	get_rand
	cmpl	$0, %eax
	jne	.LBB9_9
# %bb.1:                                # %func_writeout_picture.15
	movq	%rbx, %rdi
	callq	writeout_picture.15
	addq	$8, %rsp
	popq	%rbx
	popq	%rbp
	.cfi_def_cfa %rsp, 8
	retq
.LBB9_2:                                # %func_writeout_picture.22
	.cfi_def_cfa %rbp, 16
	movq	%rbx, %rdi
	callq	writeout_picture.22
	addq	$8, %rsp
	popq	%rbx
	popq	%rbp
	.cfi_def_cfa %rsp, 8
	retq
.LBB9_3:                                # %func_writeout_picture.33
	.cfi_def_cfa %rbp, 16
	movq	%rbx, %rdi
	callq	writeout_picture.33
	addq	$8, %rsp
	popq	%rbx
	popq	%rbp
	.cfi_def_cfa %rsp, 8
	retq
.LBB9_4:                                # %func_writeout_picture.40
	.cfi_def_cfa %rbp, 16
	movq	%rbx, %rdi
	callq	writeout_picture.40
	addq	$8, %rsp
	popq	%rbx
	popq	%rbp
	.cfi_def_cfa %rsp, 8
	retq
.LBB9_5:                                # %func_writeout_picture.73
	.cfi_def_cfa %rbp, 16
	movq	%rbx, %rdi
	callq	writeout_picture.73
	addq	$8, %rsp
	popq	%rbx
	popq	%rbp
	.cfi_def_cfa %rsp, 8
	retq
.LBB9_6:                                # %func_writeout_picture.78
	.cfi_def_cfa %rbp, 16
	movq	%rbx, %rdi
	callq	writeout_picture.78
	addq	$8, %rsp
	popq	%rbx
	popq	%rbp
	.cfi_def_cfa %rsp, 8
	retq
.LBB9_7:                                # %func_writeout_picture.87
	.cfi_def_cfa %rbp, 16
	movq	%rbx, %rdi
	callq	writeout_picture.87
	addq	$8, %rsp
	popq	%rbx
	popq	%rbp
	.cfi_def_cfa %rsp, 8
	retq
.LBB9_8:                                # %func_writeout_picture.90
	.cfi_def_cfa %rbp, 16
	movq	%rbx, %rdi
	callq	writeout_picture.90
	addq	$8, %rsp
	popq	%rbx
	popq	%rbp
	.cfi_def_cfa %rsp, 8
	retq
.LBB9_9:                                # %ctrl0
	.cfi_def_cfa %rbp, 16
	cmpl	$1, %eax
	je	.LBB9_2
# %bb.10:                               # %ctrl1
	cmpl	$2, %eax
	je	.LBB9_3
# %bb.11:                               # %ctrl2
	cmpl	$3, %eax
	je	.LBB9_4
# %bb.12:                               # %ctrl3
	cmpl	$4, %eax
	je	.LBB9_5
# %bb.13:                               # %ctrl4
	cmpl	$5, %eax
	je	.LBB9_6
# %bb.14:                               # %ctrl5
	cmpl	$6, %eax
	je	.LBB9_7
	jmp	.LBB9_8
.Lfunc_end9:
	.size	writeout_picture, .Lfunc_end9-writeout_picture
	.cfi_endproc
                                        # -- End function
	.p2align	4, 0x90         # -- Begin function frame_mode_buffer
	.type	frame_mode_buffer,@function
frame_mode_buffer:                      # @frame_mode_buffer
	.cfi_startproc
# %bb.0:                                # %rand_bb
	pushq	%rbp
	.cfi_def_cfa_offset 16
	.cfi_offset %rbp, -16
	movq	%rsp, %rbp
	.cfi_def_cfa_register %rbp
	pushq	%rbx
	subq	$24, %rsp
	.cfi_offset %rbx, -24
	vmovss	%xmm2, -20(%rbp)        # 4-byte Spill
	vmovss	%xmm1, -16(%rbp)        # 4-byte Spill
	vmovss	%xmm0, -12(%rbp)        # 4-byte Spill
	movl	%edi, %ebx
	callq	get_rand
	cmpl	$0, %eax
	jne	.LBB10_9
# %bb.1:                                # %func_frame_mode_buffer.6
	movl	%ebx, %edi
	vmovss	-12(%rbp), %xmm0        # 4-byte Reload
                                        # xmm0 = mem[0],zero,zero,zero
	vmovss	-16(%rbp), %xmm1        # 4-byte Reload
                                        # xmm1 = mem[0],zero,zero,zero
	vmovss	-20(%rbp), %xmm2        # 4-byte Reload
                                        # xmm2 = mem[0],zero,zero,zero
	callq	frame_mode_buffer.6
	addq	$24, %rsp
	popq	%rbx
	popq	%rbp
	.cfi_def_cfa %rsp, 8
	retq
.LBB10_2:                               # %func_frame_mode_buffer.50
	.cfi_def_cfa %rbp, 16
	movl	%ebx, %edi
	callq	frame_mode_buffer.50
	addq	$24, %rsp
	popq	%rbx
	popq	%rbp
	.cfi_def_cfa %rsp, 8
	retq
.LBB10_3:                               # %func_frame_mode_buffer.72
	.cfi_def_cfa %rbp, 16
	movl	%ebx, %edi
	callq	frame_mode_buffer.72
	addq	$24, %rsp
	popq	%rbx
	popq	%rbp
	.cfi_def_cfa %rsp, 8
	retq
.LBB10_4:                               # %func_frame_mode_buffer.92
	.cfi_def_cfa %rbp, 16
	movl	%ebx, %edi
	callq	frame_mode_buffer.92
	addq	$24, %rsp
	popq	%rbx
	popq	%rbp
	.cfi_def_cfa %rsp, 8
	retq
.LBB10_5:                               # %func_frame_mode_buffer.98
	.cfi_def_cfa %rbp, 16
	movl	%ebx, %edi
	callq	frame_mode_buffer.98
	addq	$24, %rsp
	popq	%rbx
	popq	%rbp
	.cfi_def_cfa %rsp, 8
	retq
.LBB10_6:                               # %func_frame_mode_buffer.100
	.cfi_def_cfa %rbp, 16
	movl	%ebx, %edi
	callq	frame_mode_buffer.100
	addq	$24, %rsp
	popq	%rbx
	popq	%rbp
	.cfi_def_cfa %rsp, 8
	retq
.LBB10_7:                               # %func_frame_mode_buffer.102
	.cfi_def_cfa %rbp, 16
	movl	%ebx, %edi
	callq	frame_mode_buffer.102
	addq	$24, %rsp
	popq	%rbx
	popq	%rbp
	.cfi_def_cfa %rsp, 8
	retq
.LBB10_8:                               # %func_frame_mode_buffer.113
	.cfi_def_cfa %rbp, 16
	movl	%ebx, %edi
	callq	frame_mode_buffer.113
	addq	$24, %rsp
	popq	%rbx
	popq	%rbp
	.cfi_def_cfa %rsp, 8
	retq
.LBB10_9:                               # %ctrl0
	.cfi_def_cfa %rbp, 16
	vmovss	-12(%rbp), %xmm0        # 4-byte Reload
                                        # xmm0 = mem[0],zero,zero,zero
	vmovss	-16(%rbp), %xmm1        # 4-byte Reload
                                        # xmm1 = mem[0],zero,zero,zero
	vmovss	-20(%rbp), %xmm2        # 4-byte Reload
                                        # xmm2 = mem[0],zero,zero,zero
	cmpl	$1, %eax
	je	.LBB10_2
# %bb.10:                               # %ctrl1
	cmpl	$2, %eax
	je	.LBB10_3
# %bb.11:                               # %ctrl2
	cmpl	$3, %eax
	je	.LBB10_4
# %bb.12:                               # %ctrl3
	cmpl	$4, %eax
	je	.LBB10_5
# %bb.13:                               # %ctrl4
	cmpl	$5, %eax
	je	.LBB10_6
# %bb.14:                               # %ctrl5
	cmpl	$6, %eax
	je	.LBB10_7
	jmp	.LBB10_8
.Lfunc_end10:
	.size	frame_mode_buffer, .Lfunc_end10-frame_mode_buffer
	.cfi_endproc
                                        # -- End function
	.p2align	4, 0x90         # -- Begin function ReportNALNonVLCBits
	.type	ReportNALNonVLCBits,@function
ReportNALNonVLCBits:                    # @ReportNALNonVLCBits
	.cfi_startproc
# %bb.0:                                # %rand_bb
	pushq	%rbp
	.cfi_def_cfa_offset 16
	.cfi_offset %rbp, -16
	movq	%rsp, %rbp
	.cfi_def_cfa_register %rbp
	pushq	%r14
	pushq	%rbx
	.cfi_offset %rbx, -32
	.cfi_offset %r14, -24
	movl	%esi, %r14d
	movl	%edi, %ebx
	callq	get_rand
	cmpl	$0, %eax
	jne	.LBB11_2
# %bb.1:                                # %func_ReportNALNonVLCBits.28
	movl	%ebx, %edi
	movl	%r14d, %esi
	callq	ReportNALNonVLCBits.28
	popq	%rbx
	popq	%r14
	popq	%rbp
	.cfi_def_cfa %rsp, 8
	retq
.LBB11_2:                               # %func_ReportNALNonVLCBits.42
	.cfi_def_cfa %rbp, 16
	movl	%ebx, %edi
	movl	%r14d, %esi
	callq	ReportNALNonVLCBits.42
	popq	%rbx
	popq	%r14
	popq	%rbp
	.cfi_def_cfa %rsp, 8
	retq
.Lfunc_end11:
	.size	ReportNALNonVLCBits, .Lfunc_end11-ReportNALNonVLCBits
	.cfi_endproc
                                        # -- End function
	.p2align	4, 0x90         # -- Begin function ReportFirstframe
	.type	ReportFirstframe,@function
ReportFirstframe:                       # @ReportFirstframe
	.cfi_startproc
# %bb.0:                                # %rand_bb
	pushq	%rbp
	.cfi_def_cfa_offset 16
	.cfi_offset %rbp, -16
	movq	%rsp, %rbp
	.cfi_def_cfa_register %rbp
	pushq	%r14
	pushq	%rbx
	.cfi_offset %rbx, -32
	.cfi_offset %r14, -24
	movl	%esi, %r14d
	movl	%edi, %ebx
	callq	get_rand
	cmpl	$0, %eax
	jne	.LBB12_7
# %bb.1:                                # %func_ReportFirstframe.10
	movl	%ebx, %edi
	movl	%r14d, %esi
	callq	ReportFirstframe.10
	popq	%rbx
	popq	%r14
	popq	%rbp
	.cfi_def_cfa %rsp, 8
	retq
.LBB12_2:                               # %func_ReportFirstframe.29
	.cfi_def_cfa %rbp, 16
	movl	%ebx, %edi
	movl	%r14d, %esi
	callq	ReportFirstframe.29
	popq	%rbx
	popq	%r14
	popq	%rbp
	.cfi_def_cfa %rsp, 8
	retq
.LBB12_3:                               # %func_ReportFirstframe.88
	.cfi_def_cfa %rbp, 16
	movl	%ebx, %edi
	movl	%r14d, %esi
	callq	ReportFirstframe.88
	popq	%rbx
	popq	%r14
	popq	%rbp
	.cfi_def_cfa %rsp, 8
	retq
.LBB12_4:                               # %func_ReportFirstframe.135
	.cfi_def_cfa %rbp, 16
	movl	%ebx, %edi
	movl	%r14d, %esi
	callq	ReportFirstframe.135
	popq	%rbx
	popq	%r14
	popq	%rbp
	.cfi_def_cfa %rsp, 8
	retq
.LBB12_5:                               # %func_ReportFirstframe.140
	.cfi_def_cfa %rbp, 16
	movl	%ebx, %edi
	movl	%r14d, %esi
	callq	ReportFirstframe.140
	popq	%rbx
	popq	%r14
	popq	%rbp
	.cfi_def_cfa %rsp, 8
	retq
.LBB12_6:                               # %func_ReportFirstframe.149
	.cfi_def_cfa %rbp, 16
	movl	%ebx, %edi
	movl	%r14d, %esi
	callq	ReportFirstframe.149
	popq	%rbx
	popq	%r14
	popq	%rbp
	.cfi_def_cfa %rsp, 8
	retq
.LBB12_7:                               # %ctrl0
	.cfi_def_cfa %rbp, 16
	cmpl	$1, %eax
	je	.LBB12_2
# %bb.8:                                # %ctrl1
	cmpl	$2, %eax
	je	.LBB12_3
# %bb.9:                                # %ctrl2
	cmpl	$3, %eax
	je	.LBB12_4
# %bb.10:                               # %ctrl3
	cmpl	$4, %eax
	je	.LBB12_5
	jmp	.LBB12_6
.Lfunc_end12:
	.size	ReportFirstframe, .Lfunc_end12-ReportFirstframe
	.cfi_endproc
                                        # -- End function
	.p2align	4, 0x90         # -- Begin function ReportIntra
	.type	ReportIntra,@function
ReportIntra:                            # @ReportIntra
	.cfi_startproc
# %bb.0:                                # %rand_bb
	pushq	%rbp
	.cfi_def_cfa_offset 16
	.cfi_offset %rbp, -16
	movq	%rsp, %rbp
	.cfi_def_cfa_register %rbp
	pushq	%r14
	pushq	%rbx
	.cfi_offset %rbx, -32
	.cfi_offset %r14, -24
	movl	%esi, %r14d
	movl	%edi, %ebx
	callq	get_rand
	cmpl	$0, %eax
	jne	.LBB13_2
# %bb.1:                                # %func_ReportIntra.3
	movl	%ebx, %edi
	movl	%r14d, %esi
	callq	ReportIntra.3
	popq	%rbx
	popq	%r14
	popq	%rbp
	.cfi_def_cfa %rsp, 8
	retq
.LBB13_2:                               # %func_ReportIntra.84
	.cfi_def_cfa %rbp, 16
	movl	%ebx, %edi
	movl	%r14d, %esi
	callq	ReportIntra.84
	popq	%rbx
	popq	%r14
	popq	%rbp
	.cfi_def_cfa %rsp, 8
	retq
.Lfunc_end13:
	.size	ReportIntra, .Lfunc_end13-ReportIntra
	.cfi_endproc
                                        # -- End function
	.p2align	4, 0x90         # -- Begin function ReportSP
	.type	ReportSP,@function
ReportSP:                               # @ReportSP
	.cfi_startproc
# %bb.0:                                # %rand_bb
	pushq	%rbp
	.cfi_def_cfa_offset 16
	.cfi_offset %rbp, -16
	movq	%rsp, %rbp
	.cfi_def_cfa_register %rbp
	pushq	%r14
	pushq	%rbx
	.cfi_offset %rbx, -32
	.cfi_offset %r14, -24
	movl	%esi, %r14d
	movl	%edi, %ebx
	callq	get_rand
	cmpl	$0, %eax
	jne	.LBB14_2
# %bb.1:                                # %func_ReportSP.14
	movl	%ebx, %edi
	movl	%r14d, %esi
	callq	ReportSP.14
	popq	%rbx
	popq	%r14
	popq	%rbp
	.cfi_def_cfa %rsp, 8
	retq
.LBB14_2:                               # %func_ReportSP.53
	.cfi_def_cfa %rbp, 16
	movl	%ebx, %edi
	movl	%r14d, %esi
	callq	ReportSP.53
	popq	%rbx
	popq	%r14
	popq	%rbp
	.cfi_def_cfa %rsp, 8
	retq
.Lfunc_end14:
	.size	ReportSP, .Lfunc_end14-ReportSP
	.cfi_endproc
                                        # -- End function
	.p2align	4, 0x90         # -- Begin function ReportRB
	.type	ReportRB,@function
ReportRB:                               # @ReportRB
	.cfi_startproc
# %bb.0:                                # %rand_bb
	pushq	%rbp
	.cfi_def_cfa_offset 16
	.cfi_offset %rbp, -16
	movq	%rsp, %rbp
	.cfi_def_cfa_register %rbp
	pushq	%r14
	pushq	%rbx
	.cfi_offset %rbx, -32
	.cfi_offset %r14, -24
	movl	%esi, %r14d
	movl	%edi, %ebx
	callq	get_rand
	cmpl	$0, %eax
	jne	.LBB15_2
# %bb.1:                                # %func_ReportRB.11
	movl	%ebx, %edi
	movl	%r14d, %esi
	callq	ReportRB.11
	popq	%rbx
	popq	%r14
	popq	%rbp
	.cfi_def_cfa %rsp, 8
	retq
.LBB15_2:                               # %func_ReportRB.35
	.cfi_def_cfa %rbp, 16
	movl	%ebx, %edi
	movl	%r14d, %esi
	callq	ReportRB.35
	popq	%rbx
	popq	%r14
	popq	%rbp
	.cfi_def_cfa %rsp, 8
	retq
.Lfunc_end15:
	.size	ReportRB, .Lfunc_end15-ReportRB
	.cfi_endproc
                                        # -- End function
	.p2align	4, 0x90         # -- Begin function ReportB
	.type	ReportB,@function
ReportB:                                # @ReportB
	.cfi_startproc
# %bb.0:                                # %rand_bb
	pushq	%rbp
	.cfi_def_cfa_offset 16
	.cfi_offset %rbp, -16
	movq	%rsp, %rbp
	.cfi_def_cfa_register %rbp
	pushq	%r14
	pushq	%rbx
	.cfi_offset %rbx, -32
	.cfi_offset %r14, -24
	movl	%esi, %r14d
	movl	%edi, %ebx
	callq	get_rand
	cmpl	$0, %eax
	jne	.LBB16_2
# %bb.1:                                # %func_ReportB.24
	movl	%ebx, %edi
	movl	%r14d, %esi
	callq	ReportB.24
	popq	%rbx
	popq	%r14
	popq	%rbp
	.cfi_def_cfa %rsp, 8
	retq
.LBB16_2:                               # %func_ReportB.51
	.cfi_def_cfa %rbp, 16
	movl	%ebx, %edi
	movl	%r14d, %esi
	callq	ReportB.51
	popq	%rbx
	popq	%r14
	popq	%rbp
	.cfi_def_cfa %rsp, 8
	retq
.Lfunc_end16:
	.size	ReportB, .Lfunc_end16-ReportB
	.cfi_endproc
                                        # -- End function
	.p2align	4, 0x90         # -- Begin function ReportP
	.type	ReportP,@function
ReportP:                                # @ReportP
	.cfi_startproc
# %bb.0:                                # %rand_bb
	pushq	%rbp
	.cfi_def_cfa_offset 16
	.cfi_offset %rbp, -16
	movq	%rsp, %rbp
	.cfi_def_cfa_register %rbp
	pushq	%r14
	pushq	%rbx
	.cfi_offset %rbx, -32
	.cfi_offset %r14, -24
	movl	%esi, %r14d
	movl	%edi, %ebx
	callq	get_rand
	cmpl	$0, %eax
	jne	.LBB17_2
# %bb.1:                                # %func_ReportP.54
	movl	%ebx, %edi
	movl	%r14d, %esi
	callq	ReportP.54
	popq	%rbx
	popq	%r14
	popq	%rbp
	.cfi_def_cfa %rsp, 8
	retq
.LBB17_2:                               # %func_ReportP.65
	.cfi_def_cfa %rbp, 16
	movl	%ebx, %edi
	movl	%r14d, %esi
	callq	ReportP.65
	popq	%rbx
	popq	%r14
	popq	%rbp
	.cfi_def_cfa %rsp, 8
	retq
.Lfunc_end17:
	.size	ReportP, .Lfunc_end17-ReportP
	.cfi_endproc
                                        # -- End function
	.globl	copy_params             # -- Begin function copy_params
	.p2align	4, 0x90
	.type	copy_params,@function
copy_params:                            # @copy_params
	.cfi_startproc
# %bb.0:                                # %entry
	pushq	%rbp
	.cfi_def_cfa_offset 16
	.cfi_offset %rbp, -16
	movq	%rsp, %rbp
	.cfi_def_cfa_register %rbp
	movq	active_sps, %rax
	movl	1148(%rax), %eax
	movq	enc_picture, %rcx
	movl	%eax, 6556(%rcx)
	movq	active_sps, %rax
	movl	1160(%rax), %eax
	movq	enc_picture, %rcx
	movl	%eax, 6560(%rcx)
	movq	active_sps, %rax
	movl	32(%rax), %eax
	movq	enc_picture, %rcx
	movl	%eax, 6552(%rcx)
	movq	active_sps, %rax
	cmpl	$0, 1160(%rax)
	je	.LBB18_2
# %bb.1:                                # %if.then
	movq	active_sps, %rax
	movl	1164(%rax), %eax
	movq	enc_picture, %rcx
	movl	%eax, 6564(%rcx)
	movq	active_sps, %rax
	movl	1168(%rax), %eax
	movq	enc_picture, %rcx
	movl	%eax, 6568(%rcx)
	movq	active_sps, %rax
	movl	1172(%rax), %eax
	movq	enc_picture, %rcx
	movl	%eax, 6572(%rcx)
	movq	active_sps, %rax
	movl	1176(%rax), %eax
	movq	enc_picture, %rcx
	movl	%eax, 6576(%rcx)
	jmp	.LBB18_3
.LBB18_2:                               # %if.else
	movq	enc_picture, %rax
	movl	$0, 6564(%rax)
	movq	enc_picture, %rax
	movl	$0, 6568(%rax)
	movq	enc_picture, %rax
	movl	$0, 6572(%rax)
	movq	enc_picture, %rax
	movl	$0, 6576(%rax)
.LBB18_3:                               # %if.end
	popq	%rbp
	.cfi_def_cfa %rsp, 8
	retq
.Lfunc_end18:
	.size	copy_params, .Lfunc_end18-copy_params
	.cfi_endproc
                                        # -- End function
	.p2align	4, 0x90         # -- Begin function distortion_fld
	.type	distortion_fld,@function
distortion_fld:                         # @distortion_fld
	.cfi_startproc
# %bb.0:                                # %rand_bb
	pushq	%rbp
	.cfi_def_cfa_offset 16
	.cfi_offset %rbp, -16
	movq	%rsp, %rbp
	.cfi_def_cfa_register %rbp
	pushq	%r15
	pushq	%r14
	pushq	%rbx
	pushq	%rax
	.cfi_offset %rbx, -40
	.cfi_offset %r14, -32
	.cfi_offset %r15, -24
	movq	%rdx, %r14
	movq	%rsi, %r15
	movq	%rdi, %rbx
	callq	get_rand
	cmpl	$0, %eax
	jne	.LBB19_7
# %bb.1:                                # %func_distortion_fld.13
	movq	%rbx, %rdi
	movq	%r15, %rsi
	movq	%r14, %rdx
	callq	distortion_fld.13
	addq	$8, %rsp
	popq	%rbx
	popq	%r14
	popq	%r15
	popq	%rbp
	.cfi_def_cfa %rsp, 8
	retq
.LBB19_2:                               # %func_distortion_fld.70
	.cfi_def_cfa %rbp, 16
	movq	%rbx, %rdi
	movq	%r15, %rsi
	movq	%r14, %rdx
	callq	distortion_fld.70
	addq	$8, %rsp
	popq	%rbx
	popq	%r14
	popq	%r15
	popq	%rbp
	.cfi_def_cfa %rsp, 8
	retq
.LBB19_3:                               # %func_distortion_fld.91
	.cfi_def_cfa %rbp, 16
	movq	%rbx, %rdi
	movq	%r15, %rsi
	movq	%r14, %rdx
	callq	distortion_fld.91
	addq	$8, %rsp
	popq	%rbx
	popq	%r14
	popq	%r15
	popq	%rbp
	.cfi_def_cfa %rsp, 8
	retq
.LBB19_4:                               # %func_distortion_fld.114
	.cfi_def_cfa %rbp, 16
	movq	%rbx, %rdi
	movq	%r15, %rsi
	movq	%r14, %rdx
	callq	distortion_fld.114
	addq	$8, %rsp
	popq	%rbx
	popq	%r14
	popq	%r15
	popq	%rbp
	.cfi_def_cfa %rsp, 8
	retq
.LBB19_5:                               # %func_distortion_fld.115
	.cfi_def_cfa %rbp, 16
	movq	%rbx, %rdi
	movq	%r15, %rsi
	movq	%r14, %rdx
	callq	distortion_fld.115
	addq	$8, %rsp
	popq	%rbx
	popq	%r14
	popq	%r15
	popq	%rbp
	.cfi_def_cfa %rsp, 8
	retq
.LBB19_6:                               # %func_distortion_fld.131
	.cfi_def_cfa %rbp, 16
	movq	%rbx, %rdi
	movq	%r15, %rsi
	movq	%r14, %rdx
	callq	distortion_fld.131
	addq	$8, %rsp
	popq	%rbx
	popq	%r14
	popq	%r15
	popq	%rbp
	.cfi_def_cfa %rsp, 8
	retq
.LBB19_7:                               # %ctrl0
	.cfi_def_cfa %rbp, 16
	cmpl	$1, %eax
	je	.LBB19_2
# %bb.8:                                # %ctrl1
	cmpl	$2, %eax
	je	.LBB19_3
# %bb.9:                                # %ctrl2
	cmpl	$3, %eax
	je	.LBB19_4
# %bb.10:                               # %ctrl3
	cmpl	$4, %eax
	je	.LBB19_5
	jmp	.LBB19_6
.Lfunc_end19:
	.size	distortion_fld, .Lfunc_end19-distortion_fld
	.cfi_endproc
                                        # -- End function
	.globl	UnifiedOneForthPix      # -- Begin function UnifiedOneForthPix
	.p2align	4, 0x90
	.type	UnifiedOneForthPix,@function
UnifiedOneForthPix:                     # @UnifiedOneForthPix
	.cfi_startproc
# %bb.0:                                # %rand_bb
	pushq	%rbp
	.cfi_def_cfa_offset 16
	.cfi_offset %rbp, -16
	movq	%rsp, %rbp
	.cfi_def_cfa_register %rbp
	pushq	%rbx
	pushq	%rax
	.cfi_offset %rbx, -24
	movq	%rdi, %rbx
	callq	get_rand
	cmpl	$0, %eax
	jne	.LBB20_9
# %bb.1:                                # %func_UnifiedOneForthPix.36
	movq	%rbx, %rdi
	callq	UnifiedOneForthPix.36
	addq	$8, %rsp
	popq	%rbx
	popq	%rbp
	.cfi_def_cfa %rsp, 8
	retq
.LBB20_2:                               # %func_UnifiedOneForthPix.64
	.cfi_def_cfa %rbp, 16
	movq	%rbx, %rdi
	callq	UnifiedOneForthPix.64
	addq	$8, %rsp
	popq	%rbx
	popq	%rbp
	.cfi_def_cfa %rsp, 8
	retq
.LBB20_3:                               # %func_UnifiedOneForthPix.86
	.cfi_def_cfa %rbp, 16
	movq	%rbx, %rdi
	callq	UnifiedOneForthPix.86
	addq	$8, %rsp
	popq	%rbx
	popq	%rbp
	.cfi_def_cfa %rsp, 8
	retq
.LBB20_4:                               # %func_UnifiedOneForthPix.107
	.cfi_def_cfa %rbp, 16
	movq	%rbx, %rdi
	callq	UnifiedOneForthPix.107
	addq	$8, %rsp
	popq	%rbx
	popq	%rbp
	.cfi_def_cfa %rsp, 8
	retq
.LBB20_5:                               # %func_UnifiedOneForthPix.122
	.cfi_def_cfa %rbp, 16
	movq	%rbx, %rdi
	callq	UnifiedOneForthPix.122
	addq	$8, %rsp
	popq	%rbx
	popq	%rbp
	.cfi_def_cfa %rsp, 8
	retq
.LBB20_6:                               # %func_UnifiedOneForthPix.145
	.cfi_def_cfa %rbp, 16
	movq	%rbx, %rdi
	callq	UnifiedOneForthPix.145
	addq	$8, %rsp
	popq	%rbx
	popq	%rbp
	.cfi_def_cfa %rsp, 8
	retq
.LBB20_7:                               # %func_UnifiedOneForthPix.156
	.cfi_def_cfa %rbp, 16
	movq	%rbx, %rdi
	callq	UnifiedOneForthPix.156
	addq	$8, %rsp
	popq	%rbx
	popq	%rbp
	.cfi_def_cfa %rsp, 8
	retq
.LBB20_8:                               # %func_UnifiedOneForthPix.160
	.cfi_def_cfa %rbp, 16
	movq	%rbx, %rdi
	callq	UnifiedOneForthPix.160
	addq	$8, %rsp
	popq	%rbx
	popq	%rbp
	.cfi_def_cfa %rsp, 8
	retq
.LBB20_9:                               # %ctrl0
	.cfi_def_cfa %rbp, 16
	cmpl	$1, %eax
	je	.LBB20_2
# %bb.10:                               # %ctrl1
	cmpl	$2, %eax
	je	.LBB20_3
# %bb.11:                               # %ctrl2
	cmpl	$3, %eax
	je	.LBB20_4
# %bb.12:                               # %ctrl3
	cmpl	$4, %eax
	je	.LBB20_5
# %bb.13:                               # %ctrl4
	cmpl	$5, %eax
	je	.LBB20_6
# %bb.14:                               # %ctrl5
	cmpl	$6, %eax
	je	.LBB20_7
	jmp	.LBB20_8
.Lfunc_end20:
	.size	UnifiedOneForthPix, .Lfunc_end20-UnifiedOneForthPix
	.cfi_endproc
                                        # -- End function
	.p2align	4, 0x90         # -- Begin function GenerateFullPelRepresentation
	.type	GenerateFullPelRepresentation,@function
GenerateFullPelRepresentation:          # @GenerateFullPelRepresentation
	.cfi_startproc
# %bb.0:                                # %rand_bb
	pushq	%rbp
	.cfi_def_cfa_offset 16
	.cfi_offset %rbp, -16
	movq	%rsp, %rbp
	.cfi_def_cfa_register %rbp
	pushq	%r15
	pushq	%r14
	pushq	%r12
	pushq	%rbx
	.cfi_offset %rbx, -48
	.cfi_offset %r12, -40
	.cfi_offset %r14, -32
	.cfi_offset %r15, -24
	movl	%ecx, %r14d
	movl	%edx, %r15d
	movq	%rsi, %r12
	movq	%rdi, %rbx
	callq	get_rand
	cmpl	$0, %eax
	jne	.LBB21_9
# %bb.1:                                # %func_GenerateFullPelRepresentation.31
	movq	%rbx, %rdi
	movq	%r12, %rsi
	movl	%r15d, %edx
	movl	%r14d, %ecx
	callq	GenerateFullPelRepresentation.31
	popq	%rbx
	popq	%r12
	popq	%r14
	popq	%r15
	popq	%rbp
	.cfi_def_cfa %rsp, 8
	retq
.LBB21_2:                               # %func_GenerateFullPelRepresentation.32
	.cfi_def_cfa %rbp, 16
	movq	%rbx, %rdi
	movq	%r12, %rsi
	movl	%r15d, %edx
	movl	%r14d, %ecx
	callq	GenerateFullPelRepresentation.32
	popq	%rbx
	popq	%r12
	popq	%r14
	popq	%r15
	popq	%rbp
	.cfi_def_cfa %rsp, 8
	retq
.LBB21_3:                               # %func_GenerateFullPelRepresentation.80
	.cfi_def_cfa %rbp, 16
	movq	%rbx, %rdi
	movq	%r12, %rsi
	movl	%r15d, %edx
	movl	%r14d, %ecx
	callq	GenerateFullPelRepresentation.80
	popq	%rbx
	popq	%r12
	popq	%r14
	popq	%r15
	popq	%rbp
	.cfi_def_cfa %rsp, 8
	retq
.LBB21_4:                               # %func_GenerateFullPelRepresentation.93
	.cfi_def_cfa %rbp, 16
	movq	%rbx, %rdi
	movq	%r12, %rsi
	movl	%r15d, %edx
	movl	%r14d, %ecx
	callq	GenerateFullPelRepresentation.93
	popq	%rbx
	popq	%r12
	popq	%r14
	popq	%r15
	popq	%rbp
	.cfi_def_cfa %rsp, 8
	retq
.LBB21_5:                               # %func_GenerateFullPelRepresentation.99
	.cfi_def_cfa %rbp, 16
	movq	%rbx, %rdi
	movq	%r12, %rsi
	movl	%r15d, %edx
	movl	%r14d, %ecx
	callq	GenerateFullPelRepresentation.99
	popq	%rbx
	popq	%r12
	popq	%r14
	popq	%r15
	popq	%rbp
	.cfi_def_cfa %rsp, 8
	retq
.LBB21_6:                               # %func_GenerateFullPelRepresentation.129
	.cfi_def_cfa %rbp, 16
	movq	%rbx, %rdi
	movq	%r12, %rsi
	movl	%r15d, %edx
	movl	%r14d, %ecx
	callq	GenerateFullPelRepresentation.129
	popq	%rbx
	popq	%r12
	popq	%r14
	popq	%r15
	popq	%rbp
	.cfi_def_cfa %rsp, 8
	retq
.LBB21_7:                               # %func_GenerateFullPelRepresentation.132
	.cfi_def_cfa %rbp, 16
	movq	%rbx, %rdi
	movq	%r12, %rsi
	movl	%r15d, %edx
	movl	%r14d, %ecx
	callq	GenerateFullPelRepresentation.132
	popq	%rbx
	popq	%r12
	popq	%r14
	popq	%r15
	popq	%rbp
	.cfi_def_cfa %rsp, 8
	retq
.LBB21_8:                               # %func_GenerateFullPelRepresentation.147
	.cfi_def_cfa %rbp, 16
	movq	%rbx, %rdi
	movq	%r12, %rsi
	movl	%r15d, %edx
	movl	%r14d, %ecx
	callq	GenerateFullPelRepresentation.147
	popq	%rbx
	popq	%r12
	popq	%r14
	popq	%r15
	popq	%rbp
	.cfi_def_cfa %rsp, 8
	retq
.LBB21_9:                               # %ctrl0
	.cfi_def_cfa %rbp, 16
	cmpl	$1, %eax
	je	.LBB21_2
# %bb.10:                               # %ctrl1
	cmpl	$2, %eax
	je	.LBB21_3
# %bb.11:                               # %ctrl2
	cmpl	$3, %eax
	je	.LBB21_4
# %bb.12:                               # %ctrl3
	cmpl	$4, %eax
	je	.LBB21_5
# %bb.13:                               # %ctrl4
	cmpl	$5, %eax
	je	.LBB21_6
# %bb.14:                               # %ctrl5
	cmpl	$6, %eax
	je	.LBB21_7
	jmp	.LBB21_8
.Lfunc_end21:
	.size	GenerateFullPelRepresentation, .Lfunc_end21-GenerateFullPelRepresentation
	.cfi_endproc
                                        # -- End function
	.globl	dummy_slice_too_big     # -- Begin function dummy_slice_too_big
	.p2align	4, 0x90
	.type	dummy_slice_too_big,@function
dummy_slice_too_big:                    # @dummy_slice_too_big
	.cfi_startproc
# %bb.0:                                # %entry
	pushq	%rbp
	.cfi_def_cfa_offset 16
	.cfi_offset %rbp, -16
	movq	%rsp, %rbp
	.cfi_def_cfa_register %rbp
	movl	%edi, -4(%rbp)
	xorl	%eax, %eax
	popq	%rbp
	.cfi_def_cfa %rsp, 8
	retq
.Lfunc_end22:
	.size	dummy_slice_too_big, .Lfunc_end22-dummy_slice_too_big
	.cfi_endproc
                                        # -- End function
	.globl	copy_rdopt_data         # -- Begin function copy_rdopt_data
	.p2align	4, 0x90
	.type	copy_rdopt_data,@function
copy_rdopt_data:                        # @copy_rdopt_data
	.cfi_startproc
# %bb.0:                                # %rand_bb
	pushq	%rbp
	.cfi_def_cfa_offset 16
	.cfi_offset %rbp, -16
	movq	%rsp, %rbp
	.cfi_def_cfa_register %rbp
	pushq	%rbx
	pushq	%rax
	.cfi_offset %rbx, -24
	movl	%edi, %ebx
	callq	get_rand
	cmpl	$0, %eax
	jne	.LBB23_9
# %bb.1:                                # %func_copy_rdopt_data.7
	movl	%ebx, %edi
	callq	copy_rdopt_data.7
	addq	$8, %rsp
	popq	%rbx
	popq	%rbp
	.cfi_def_cfa %rsp, 8
	retq
.LBB23_2:                               # %func_copy_rdopt_data.30
	.cfi_def_cfa %rbp, 16
	movl	%ebx, %edi
	callq	copy_rdopt_data.30
	addq	$8, %rsp
	popq	%rbx
	popq	%rbp
	.cfi_def_cfa %rsp, 8
	retq
.LBB23_3:                               # %func_copy_rdopt_data.46
	.cfi_def_cfa %rbp, 16
	movl	%ebx, %edi
	callq	copy_rdopt_data.46
	addq	$8, %rsp
	popq	%rbx
	popq	%rbp
	.cfi_def_cfa %rsp, 8
	retq
.LBB23_4:                               # %func_copy_rdopt_data.66
	.cfi_def_cfa %rbp, 16
	movl	%ebx, %edi
	callq	copy_rdopt_data.66
	addq	$8, %rsp
	popq	%rbx
	popq	%rbp
	.cfi_def_cfa %rsp, 8
	retq
.LBB23_5:                               # %func_copy_rdopt_data.130
	.cfi_def_cfa %rbp, 16
	movl	%ebx, %edi
	callq	copy_rdopt_data.130
	addq	$8, %rsp
	popq	%rbx
	popq	%rbp
	.cfi_def_cfa %rsp, 8
	retq
.LBB23_6:                               # %func_copy_rdopt_data.166
	.cfi_def_cfa %rbp, 16
	movl	%ebx, %edi
	callq	copy_rdopt_data.166
	addq	$8, %rsp
	popq	%rbx
	popq	%rbp
	.cfi_def_cfa %rsp, 8
	retq
.LBB23_7:                               # %func_copy_rdopt_data.173
	.cfi_def_cfa %rbp, 16
	movl	%ebx, %edi
	callq	copy_rdopt_data.173
	addq	$8, %rsp
	popq	%rbx
	popq	%rbp
	.cfi_def_cfa %rsp, 8
	retq
.LBB23_8:                               # %func_copy_rdopt_data.184
	.cfi_def_cfa %rbp, 16
	movl	%ebx, %edi
	callq	copy_rdopt_data.184
	addq	$8, %rsp
	popq	%rbx
	popq	%rbp
	.cfi_def_cfa %rsp, 8
	retq
.LBB23_9:                               # %ctrl0
	.cfi_def_cfa %rbp, 16
	cmpl	$1, %eax
	je	.LBB23_2
# %bb.10:                               # %ctrl1
	cmpl	$2, %eax
	je	.LBB23_3
# %bb.11:                               # %ctrl2
	cmpl	$3, %eax
	je	.LBB23_4
# %bb.12:                               # %ctrl3
	cmpl	$4, %eax
	je	.LBB23_5
# %bb.13:                               # %ctrl4
	cmpl	$5, %eax
	je	.LBB23_6
# %bb.14:                               # %ctrl5
	cmpl	$6, %eax
	je	.LBB23_7
	jmp	.LBB23_8
.Lfunc_end23:
	.size	copy_rdopt_data, .Lfunc_end23-copy_rdopt_data
	.cfi_endproc
                                        # -- End function
	.globl	buf2img                 # -- Begin function buf2img
	.p2align	4, 0x90
	.type	buf2img,@function
buf2img:                                # @buf2img
	.cfi_startproc
# %bb.0:                                # %rand_bb
	pushq	%rbp
	.cfi_def_cfa_offset 16
	.cfi_offset %rbp, -16
	movq	%rsp, %rbp
	.cfi_def_cfa_register %rbp
	pushq	%r15
	pushq	%r14
	pushq	%r13
	pushq	%r12
	pushq	%rbx
	pushq	%rax
	.cfi_offset %rbx, -56
	.cfi_offset %r12, -48
	.cfi_offset %r13, -40
	.cfi_offset %r14, -32
	.cfi_offset %r15, -24
	movl	%r8d, %r14d
	movl	%ecx, %r15d
	movl	%edx, %r12d
	movq	%rsi, %r13
	movq	%rdi, %rbx
	callq	get_rand
	cmpl	$0, %eax
	jne	.LBB24_9
# %bb.1:                                # %func_buf2img.17
	movq	%rbx, %rdi
	movq	%r13, %rsi
	movl	%r12d, %edx
	movl	%r15d, %ecx
	movl	%r14d, %r8d
	callq	buf2img.17
	addq	$8, %rsp
	popq	%rbx
	popq	%r12
	popq	%r13
	popq	%r14
	popq	%r15
	popq	%rbp
	.cfi_def_cfa %rsp, 8
	retq
.LBB24_2:                               # %func_buf2img.20
	.cfi_def_cfa %rbp, 16
	movq	%rbx, %rdi
	movq	%r13, %rsi
	movl	%r12d, %edx
	movl	%r15d, %ecx
	movl	%r14d, %r8d
	callq	buf2img.20
	addq	$8, %rsp
	popq	%rbx
	popq	%r12
	popq	%r13
	popq	%r14
	popq	%r15
	popq	%rbp
	.cfi_def_cfa %rsp, 8
	retq
.LBB24_3:                               # %func_buf2img.85
	.cfi_def_cfa %rbp, 16
	movq	%rbx, %rdi
	movq	%r13, %rsi
	movl	%r12d, %edx
	movl	%r15d, %ecx
	movl	%r14d, %r8d
	callq	buf2img.85
	addq	$8, %rsp
	popq	%rbx
	popq	%r12
	popq	%r13
	popq	%r14
	popq	%r15
	popq	%rbp
	.cfi_def_cfa %rsp, 8
	retq
.LBB24_4:                               # %func_buf2img.104
	.cfi_def_cfa %rbp, 16
	movq	%rbx, %rdi
	movq	%r13, %rsi
	movl	%r12d, %edx
	movl	%r15d, %ecx
	movl	%r14d, %r8d
	callq	buf2img.104
	addq	$8, %rsp
	popq	%rbx
	popq	%r12
	popq	%r13
	popq	%r14
	popq	%r15
	popq	%rbp
	.cfi_def_cfa %rsp, 8
	retq
.LBB24_5:                               # %func_buf2img.116
	.cfi_def_cfa %rbp, 16
	movq	%rbx, %rdi
	movq	%r13, %rsi
	movl	%r12d, %edx
	movl	%r15d, %ecx
	movl	%r14d, %r8d
	callq	buf2img.116
	addq	$8, %rsp
	popq	%rbx
	popq	%r12
	popq	%r13
	popq	%r14
	popq	%r15
	popq	%rbp
	.cfi_def_cfa %rsp, 8
	retq
.LBB24_6:                               # %func_buf2img.138
	.cfi_def_cfa %rbp, 16
	movq	%rbx, %rdi
	movq	%r13, %rsi
	movl	%r12d, %edx
	movl	%r15d, %ecx
	movl	%r14d, %r8d
	callq	buf2img.138
	addq	$8, %rsp
	popq	%rbx
	popq	%r12
	popq	%r13
	popq	%r14
	popq	%r15
	popq	%rbp
	.cfi_def_cfa %rsp, 8
	retq
.LBB24_7:                               # %func_buf2img.143
	.cfi_def_cfa %rbp, 16
	movq	%rbx, %rdi
	movq	%r13, %rsi
	movl	%r12d, %edx
	movl	%r15d, %ecx
	movl	%r14d, %r8d
	callq	buf2img.143
	addq	$8, %rsp
	popq	%rbx
	popq	%r12
	popq	%r13
	popq	%r14
	popq	%r15
	popq	%rbp
	.cfi_def_cfa %rsp, 8
	retq
.LBB24_8:                               # %func_buf2img.144
	.cfi_def_cfa %rbp, 16
	movq	%rbx, %rdi
	movq	%r13, %rsi
	movl	%r12d, %edx
	movl	%r15d, %ecx
	movl	%r14d, %r8d
	callq	buf2img.144
	addq	$8, %rsp
	popq	%rbx
	popq	%r12
	popq	%r13
	popq	%r14
	popq	%r15
	popq	%rbp
	.cfi_def_cfa %rsp, 8
	retq
.LBB24_9:                               # %ctrl0
	.cfi_def_cfa %rbp, 16
	cmpl	$1, %eax
	je	.LBB24_2
# %bb.10:                               # %ctrl1
	cmpl	$2, %eax
	je	.LBB24_3
# %bb.11:                               # %ctrl2
	cmpl	$3, %eax
	je	.LBB24_4
# %bb.12:                               # %ctrl3
	cmpl	$4, %eax
	je	.LBB24_5
# %bb.13:                               # %ctrl4
	cmpl	$5, %eax
	je	.LBB24_6
# %bb.14:                               # %ctrl5
	cmpl	$6, %eax
	je	.LBB24_7
	jmp	.LBB24_8
.Lfunc_end24:
	.size	buf2img, .Lfunc_end24-buf2img
	.cfi_endproc
                                        # -- End function
	.p2align	4, 0x90         # -- Begin function writeUnit
	.type	writeUnit,@function
writeUnit:                              # @writeUnit
	.cfi_startproc
# %bb.0:                                # %rand_bb
	pushq	%rbp
	.cfi_def_cfa_offset 16
	.cfi_offset %rbp, -16
	movq	%rsp, %rbp
	.cfi_def_cfa_register %rbp
	pushq	%r14
	pushq	%rbx
	.cfi_offset %rbx, -32
	.cfi_offset %r14, -24
	movl	%esi, %r14d
	movq	%rdi, %rbx
	callq	get_rand
	cmpl	$0, %eax
	jne	.LBB25_7
# %bb.1:                                # %func_writeUnit.16
	movq	%rbx, %rdi
	movl	%r14d, %esi
	callq	writeUnit.16
	popq	%rbx
	popq	%r14
	popq	%rbp
	.cfi_def_cfa %rsp, 8
	retq
.LBB25_2:                               # %func_writeUnit.23
	.cfi_def_cfa %rbp, 16
	movq	%rbx, %rdi
	movl	%r14d, %esi
	callq	writeUnit.23
	popq	%rbx
	popq	%r14
	popq	%rbp
	.cfi_def_cfa %rsp, 8
	retq
.LBB25_3:                               # %func_writeUnit.43
	.cfi_def_cfa %rbp, 16
	movq	%rbx, %rdi
	movl	%r14d, %esi
	callq	writeUnit.43
	popq	%rbx
	popq	%r14
	popq	%rbp
	.cfi_def_cfa %rsp, 8
	retq
.LBB25_4:                               # %func_writeUnit.110
	.cfi_def_cfa %rbp, 16
	movq	%rbx, %rdi
	movl	%r14d, %esi
	callq	writeUnit.110
	popq	%rbx
	popq	%r14
	popq	%rbp
	.cfi_def_cfa %rsp, 8
	retq
.LBB25_5:                               # %func_writeUnit.119
	.cfi_def_cfa %rbp, 16
	movq	%rbx, %rdi
	movl	%r14d, %esi
	callq	writeUnit.119
	popq	%rbx
	popq	%r14
	popq	%rbp
	.cfi_def_cfa %rsp, 8
	retq
.LBB25_6:                               # %func_writeUnit.127
	.cfi_def_cfa %rbp, 16
	movq	%rbx, %rdi
	movl	%r14d, %esi
	callq	writeUnit.127
	popq	%rbx
	popq	%r14
	popq	%rbp
	.cfi_def_cfa %rsp, 8
	retq
.LBB25_7:                               # %ctrl0
	.cfi_def_cfa %rbp, 16
	cmpl	$1, %eax
	je	.LBB25_2
# %bb.8:                                # %ctrl1
	cmpl	$2, %eax
	je	.LBB25_3
# %bb.9:                                # %ctrl2
	cmpl	$3, %eax
	je	.LBB25_4
# %bb.10:                               # %ctrl3
	cmpl	$4, %eax
	je	.LBB25_5
	jmp	.LBB25_6
.Lfunc_end25:
	.size	writeUnit, .Lfunc_end25-writeUnit
	.cfi_endproc
                                        # -- End function
	.p2align	4, 0x90         # -- Begin function init_frame
	.type	init_frame,@function
init_frame:                             # @init_frame
	.cfi_startproc
# %bb.0:                                # %rand_bb
	pushq	%rbp
	.cfi_def_cfa_offset 16
	.cfi_offset %rbp, -16
	movq	%rsp, %rbp
	.cfi_def_cfa_register %rbp
	callq	get_rand
	cmpl	$0, %eax
	jne	.LBB26_7
# %bb.1:                                # %func_init_frame.4
	callq	init_frame.4
	popq	%rbp
	.cfi_def_cfa %rsp, 8
	retq
.LBB26_2:                               # %func_init_frame.8
	.cfi_def_cfa %rbp, 16
	callq	init_frame.8
	popq	%rbp
	.cfi_def_cfa %rsp, 8
	retq
.LBB26_3:                               # %func_init_frame.79
	.cfi_def_cfa %rbp, 16
	callq	init_frame.79
	popq	%rbp
	.cfi_def_cfa %rsp, 8
	retq
.LBB26_4:                               # %func_init_frame.118
	.cfi_def_cfa %rbp, 16
	callq	init_frame.118
	popq	%rbp
	.cfi_def_cfa %rsp, 8
	retq
.LBB26_5:                               # %func_init_frame.146
	.cfi_def_cfa %rbp, 16
	callq	init_frame.146
	popq	%rbp
	.cfi_def_cfa %rsp, 8
	retq
.LBB26_6:                               # %func_init_frame.159
	.cfi_def_cfa %rbp, 16
	callq	init_frame.159
	popq	%rbp
	.cfi_def_cfa %rsp, 8
	retq
.LBB26_7:                               # %ctrl0
	.cfi_def_cfa %rbp, 16
	cmpl	$1, %eax
	je	.LBB26_2
# %bb.8:                                # %ctrl1
	cmpl	$2, %eax
	je	.LBB26_3
# %bb.9:                                # %ctrl2
	cmpl	$3, %eax
	je	.LBB26_4
# %bb.10:                               # %ctrl3
	cmpl	$4, %eax
	je	.LBB26_5
	jmp	.LBB26_6
.Lfunc_end26:
	.size	init_frame, .Lfunc_end26-init_frame
	.cfi_endproc
                                        # -- End function
	.p2align	4, 0x90         # -- Begin function init_dec_ref_pic_marking_buffer
	.type	init_dec_ref_pic_marking_buffer,@function
init_dec_ref_pic_marking_buffer:        # @init_dec_ref_pic_marking_buffer
	.cfi_startproc
# %bb.0:                                # %entry
	pushq	%rbp
	.cfi_def_cfa_offset 16
	.cfi_offset %rbp, -16
	movq	%rsp, %rbp
	.cfi_def_cfa_register %rbp
	movq	img, %rax
	movq	$0, 72512(%rax)
	popq	%rbp
	.cfi_def_cfa %rsp, 8
	retq
.Lfunc_end27:
	.size	init_dec_ref_pic_marking_buffer, .Lfunc_end27-init_dec_ref_pic_marking_buffer
	.cfi_endproc
                                        # -- End function
	.p2align	4, 0x90         # -- Begin function init_field
	.type	init_field,@function
init_field:                             # @init_field
	.cfi_startproc
# %bb.0:                                # %rand_bb
	pushq	%rbp
	.cfi_def_cfa_offset 16
	.cfi_offset %rbp, -16
	movq	%rsp, %rbp
	.cfi_def_cfa_register %rbp
	callq	get_rand
	cmpl	$0, %eax
	jne	.LBB28_7
# %bb.1:                                # %func_init_field.2
	callq	init_field.2
	popq	%rbp
	.cfi_def_cfa %rsp, 8
	retq
.LBB28_2:                               # %func_init_field.18
	.cfi_def_cfa %rbp, 16
	callq	init_field.18
	popq	%rbp
	.cfi_def_cfa %rsp, 8
	retq
.LBB28_3:                               # %func_init_field.41
	.cfi_def_cfa %rbp, 16
	callq	init_field.41
	popq	%rbp
	.cfi_def_cfa %rsp, 8
	retq
.LBB28_4:                               # %func_init_field.59
	.cfi_def_cfa %rbp, 16
	callq	init_field.59
	popq	%rbp
	.cfi_def_cfa %rsp, 8
	retq
.LBB28_5:                               # %func_init_field.68
	.cfi_def_cfa %rbp, 16
	callq	init_field.68
	popq	%rbp
	.cfi_def_cfa %rsp, 8
	retq
.LBB28_6:                               # %func_init_field.75
	.cfi_def_cfa %rbp, 16
	callq	init_field.75
	popq	%rbp
	.cfi_def_cfa %rsp, 8
	retq
.LBB28_7:                               # %ctrl0
	.cfi_def_cfa %rbp, 16
	cmpl	$1, %eax
	je	.LBB28_2
# %bb.8:                                # %ctrl1
	cmpl	$2, %eax
	je	.LBB28_3
# %bb.9:                                # %ctrl2
	cmpl	$3, %eax
	je	.LBB28_4
# %bb.10:                               # %ctrl3
	cmpl	$4, %eax
	je	.LBB28_5
	jmp	.LBB28_6
.Lfunc_end28:
	.size	init_field, .Lfunc_end28-init_field
	.cfi_endproc
                                        # -- End function
	.p2align	4, 0x90         # -- Begin function find_snr
	.type	find_snr,@function
find_snr:                               # @find_snr
	.cfi_startproc
# %bb.0:                                # %rand_bb
	pushq	%rbp
	.cfi_def_cfa_offset 16
	.cfi_offset %rbp, -16
	movq	%rsp, %rbp
	.cfi_def_cfa_register %rbp
	callq	get_rand
	cmpl	$0, %eax
	jne	.LBB29_9
# %bb.1:                                # %func_find_snr.9
	callq	find_snr.9
	popq	%rbp
	.cfi_def_cfa %rsp, 8
	retq
.LBB29_2:                               # %func_find_snr.55
	.cfi_def_cfa %rbp, 16
	callq	find_snr.55
	popq	%rbp
	.cfi_def_cfa %rsp, 8
	retq
.LBB29_3:                               # %func_find_snr.61
	.cfi_def_cfa %rbp, 16
	callq	find_snr.61
	popq	%rbp
	.cfi_def_cfa %rsp, 8
	retq
.LBB29_4:                               # %func_find_snr.63
	.cfi_def_cfa %rbp, 16
	callq	find_snr.63
	popq	%rbp
	.cfi_def_cfa %rsp, 8
	retq
.LBB29_5:                               # %func_find_snr.74
	.cfi_def_cfa %rbp, 16
	callq	find_snr.74
	popq	%rbp
	.cfi_def_cfa %rsp, 8
	retq
.LBB29_6:                               # %func_find_snr.83
	.cfi_def_cfa %rbp, 16
	callq	find_snr.83
	popq	%rbp
	.cfi_def_cfa %rsp, 8
	retq
.LBB29_7:                               # %func_find_snr.97
	.cfi_def_cfa %rbp, 16
	callq	find_snr.97
	popq	%rbp
	.cfi_def_cfa %rsp, 8
	retq
.LBB29_8:                               # %func_find_snr.111
	.cfi_def_cfa %rbp, 16
	callq	find_snr.111
	popq	%rbp
	.cfi_def_cfa %rsp, 8
	retq
.LBB29_9:                               # %ctrl0
	.cfi_def_cfa %rbp, 16
	cmpl	$1, %eax
	je	.LBB29_2
# %bb.10:                               # %ctrl1
	cmpl	$2, %eax
	je	.LBB29_3
# %bb.11:                               # %ctrl2
	cmpl	$3, %eax
	je	.LBB29_4
# %bb.12:                               # %ctrl3
	cmpl	$4, %eax
	je	.LBB29_5
# %bb.13:                               # %ctrl4
	cmpl	$5, %eax
	je	.LBB29_6
# %bb.14:                               # %ctrl5
	cmpl	$6, %eax
	je	.LBB29_7
	jmp	.LBB29_8
.Lfunc_end29:
	.size	find_snr, .Lfunc_end29-find_snr
	.cfi_endproc
                                        # -- End function
	.p2align	4, 0x90         # -- Begin function find_distortion
	.type	find_distortion,@function
find_distortion:                        # @find_distortion
	.cfi_startproc
# %bb.0:                                # %rand_bb
	pushq	%rbp
	.cfi_def_cfa_offset 16
	.cfi_offset %rbp, -16
	movq	%rsp, %rbp
	.cfi_def_cfa_register %rbp
	callq	get_rand
	cmpl	$0, %eax
	jne	.LBB30_9
# %bb.1:                                # %func_find_distortion.56
	callq	find_distortion.56
	popq	%rbp
	.cfi_def_cfa %rsp, 8
	retq
.LBB30_2:                               # %func_find_distortion.69
	.cfi_def_cfa %rbp, 16
	callq	find_distortion.69
	popq	%rbp
	.cfi_def_cfa %rsp, 8
	retq
.LBB30_3:                               # %func_find_distortion.105
	.cfi_def_cfa %rbp, 16
	callq	find_distortion.105
	popq	%rbp
	.cfi_def_cfa %rsp, 8
	retq
.LBB30_4:                               # %func_find_distortion.120
	.cfi_def_cfa %rbp, 16
	callq	find_distortion.120
	popq	%rbp
	.cfi_def_cfa %rsp, 8
	retq
.LBB30_5:                               # %func_find_distortion.128
	.cfi_def_cfa %rbp, 16
	callq	find_distortion.128
	popq	%rbp
	.cfi_def_cfa %rsp, 8
	retq
.LBB30_6:                               # %func_find_distortion.152
	.cfi_def_cfa %rbp, 16
	callq	find_distortion.152
	popq	%rbp
	.cfi_def_cfa %rsp, 8
	retq
.LBB30_7:                               # %func_find_distortion.163
	.cfi_def_cfa %rbp, 16
	callq	find_distortion.163
	popq	%rbp
	.cfi_def_cfa %rsp, 8
	retq
.LBB30_8:                               # %func_find_distortion.172
	.cfi_def_cfa %rbp, 16
	callq	find_distortion.172
	popq	%rbp
	.cfi_def_cfa %rsp, 8
	retq
.LBB30_9:                               # %ctrl0
	.cfi_def_cfa %rbp, 16
	cmpl	$1, %eax
	je	.LBB30_2
# %bb.10:                               # %ctrl1
	cmpl	$2, %eax
	je	.LBB30_3
# %bb.11:                               # %ctrl2
	cmpl	$3, %eax
	je	.LBB30_4
# %bb.12:                               # %ctrl3
	cmpl	$4, %eax
	je	.LBB30_5
# %bb.13:                               # %ctrl4
	cmpl	$5, %eax
	je	.LBB30_6
# %bb.14:                               # %ctrl5
	cmpl	$6, %eax
	je	.LBB30_7
	jmp	.LBB30_8
.Lfunc_end30:
	.size	find_distortion, .Lfunc_end30-find_distortion
	.cfi_endproc
                                        # -- End function
	.p2align	4, 0x90         # -- Begin function copy_motion_vectors_MB
	.type	copy_motion_vectors_MB,@function
copy_motion_vectors_MB:                 # @copy_motion_vectors_MB
	.cfi_startproc
# %bb.0:                                # %rand_bb
	pushq	%rbp
	.cfi_def_cfa_offset 16
	.cfi_offset %rbp, -16
	movq	%rsp, %rbp
	.cfi_def_cfa_register %rbp
	callq	get_rand
	cmpl	$0, %eax
	jne	.LBB31_9
# %bb.1:                                # %func_copy_motion_vectors_MB.26
	callq	copy_motion_vectors_MB.26
	popq	%rbp
	.cfi_def_cfa %rsp, 8
	retq
.LBB31_2:                               # %func_copy_motion_vectors_MB.81
	.cfi_def_cfa %rbp, 16
	callq	copy_motion_vectors_MB.81
	popq	%rbp
	.cfi_def_cfa %rsp, 8
	retq
.LBB31_3:                               # %func_copy_motion_vectors_MB.108
	.cfi_def_cfa %rbp, 16
	callq	copy_motion_vectors_MB.108
	popq	%rbp
	.cfi_def_cfa %rsp, 8
	retq
.LBB31_4:                               # %func_copy_motion_vectors_MB.164
	.cfi_def_cfa %rbp, 16
	callq	copy_motion_vectors_MB.164
	popq	%rbp
	.cfi_def_cfa %rsp, 8
	retq
.LBB31_5:                               # %func_copy_motion_vectors_MB.167
	.cfi_def_cfa %rbp, 16
	callq	copy_motion_vectors_MB.167
	popq	%rbp
	.cfi_def_cfa %rsp, 8
	retq
.LBB31_6:                               # %func_copy_motion_vectors_MB.179
	.cfi_def_cfa %rbp, 16
	callq	copy_motion_vectors_MB.179
	popq	%rbp
	.cfi_def_cfa %rsp, 8
	retq
.LBB31_7:                               # %func_copy_motion_vectors_MB.181
	.cfi_def_cfa %rbp, 16
	callq	copy_motion_vectors_MB.181
	popq	%rbp
	.cfi_def_cfa %rsp, 8
	retq
.LBB31_8:                               # %func_copy_motion_vectors_MB.186
	.cfi_def_cfa %rbp, 16
	callq	copy_motion_vectors_MB.186
	popq	%rbp
	.cfi_def_cfa %rsp, 8
	retq
.LBB31_9:                               # %ctrl0
	.cfi_def_cfa %rbp, 16
	cmpl	$1, %eax
	je	.LBB31_2
# %bb.10:                               # %ctrl1
	cmpl	$2, %eax
	je	.LBB31_3
# %bb.11:                               # %ctrl2
	cmpl	$3, %eax
	je	.LBB31_4
# %bb.12:                               # %ctrl3
	cmpl	$4, %eax
	je	.LBB31_5
# %bb.13:                               # %ctrl4
	cmpl	$5, %eax
	je	.LBB31_6
# %bb.14:                               # %ctrl5
	cmpl	$6, %eax
	je	.LBB31_7
	jmp	.LBB31_8
.Lfunc_end31:
	.size	copy_motion_vectors_MB, .Lfunc_end31-copy_motion_vectors_MB
	.cfi_endproc
                                        # -- End function
	.p2align	4, 0x90         # -- Begin function CalculateFrameNumber
	.type	CalculateFrameNumber,@function
CalculateFrameNumber:                   # @CalculateFrameNumber
	.cfi_startproc
# %bb.0:                                # %entry
	pushq	%rbp
	.cfi_def_cfa_offset 16
	.cfi_offset %rbp, -16
	movq	%rsp, %rbp
	.cfi_def_cfa_register %rbp
	movq	img, %rax
	cmpl	$0, 71908(%rax)
	je	.LBB32_5
# %bb.1:                                # %if.then
	movq	input, %rax
	cmpl	$0, 1320(%rax)
	je	.LBB32_3
# %bb.2:                                # %if.then2
	movl	start_tr_in_this_IGOP, %eax
	movq	img, %rcx
	movl	(%rcx), %ecx
	subl	start_frame_no_in_this_IGOP, %ecx
	subl	$1, %ecx
	movq	input, %rdx
	movl	20(%rdx), %edx
	addl	$1, %edx
	imull	%edx, %ecx
	addl	%ecx, %eax
	movq	img, %rcx
	vmovsd	71896(%rcx), %xmm0      # xmm0 = mem[0],zero
	movq	gop_structure, %rcx
	movq	img, %rdx
	movl	71908(%rdx), %edx
	subl	$1, %edx
	movslq	%edx, %rdx
	imulq	$24, %rdx, %rdx
	addq	%rdx, %rcx
	movl	4(%rcx), %ecx
	addl	$1, %ecx
	vcvtsi2sd	%ecx, %xmm0, %xmm1
	vmulsd	%xmm1, %xmm0, %xmm0
	vcvttsd2si	%xmm0, %ecx
	addl	%ecx, %eax
	movl	%eax, frame_no
	jmp	.LBB32_4
.LBB32_3:                               # %if.else
	movl	start_tr_in_this_IGOP, %eax
	movq	img, %rcx
	movl	(%rcx), %ecx
	subl	start_frame_no_in_this_IGOP, %ecx
	subl	$1, %ecx
	movq	input, %rdx
	movl	20(%rdx), %edx
	addl	$1, %edx
	imull	%edx, %ecx
	addl	%ecx, %eax
	movq	img, %rcx
	vmovsd	71896(%rcx), %xmm0      # xmm0 = mem[0],zero
	movq	img, %rcx
	vcvtsi2sdl	71908(%rcx), %xmm0, %xmm1
	vmulsd	%xmm1, %xmm0, %xmm0
	vcvttsd2si	%xmm0, %ecx
	addl	%ecx, %eax
	movl	%eax, frame_no
.LBB32_4:                               # %if.end
	jmp	.LBB32_9
.LBB32_5:                               # %if.else24
	movl	start_tr_in_this_IGOP, %eax
	movq	img, %rcx
	movl	(%rcx), %ecx
	subl	start_frame_no_in_this_IGOP, %ecx
	movq	input, %rdx
	movl	20(%rdx), %edx
	addl	$1, %edx
	imull	%edx, %ecx
	addl	%ecx, %eax
	movl	%eax, frame_no
	movq	input, %rax
	cmpl	$0, 2440(%rax)
	je	.LBB32_8
# %bb.6:                                # %land.lhs.true
	movq	img, %rax
	movl	(%rax), %eax
	addl	$1, %eax
	movq	input, %rcx
	cmpl	8(%rcx), %eax
	jne	.LBB32_8
# %bb.7:                                # %if.then35
	movq	input, %rax
	movl	2440(%rax), %eax
	movl	%eax, frame_no
.LBB32_8:                               # %if.end37
	jmp	.LBB32_9
.LBB32_9:                               # %if.end38
	movl	frame_no, %eax
	popq	%rbp
	.cfi_def_cfa %rsp, 8
	retq
.Lfunc_end32:
	.size	CalculateFrameNumber, .Lfunc_end32-CalculateFrameNumber
	.cfi_endproc
                                        # -- End function
	.p2align	4, 0x90         # -- Begin function put_buffer_frame
	.type	put_buffer_frame,@function
put_buffer_frame:                       # @put_buffer_frame
	.cfi_startproc
# %bb.0:                                # %entry
	pushq	%rbp
	.cfi_def_cfa_offset 16
	.cfi_offset %rbp, -16
	movq	%rsp, %rbp
	.cfi_def_cfa_register %rbp
	movq	imgY_org_frm, %rax
	movq	%rax, imgY_org
	movq	imgUV_org_frm, %rax
	movq	%rax, imgUV_org
	popq	%rbp
	.cfi_def_cfa %rsp, 8
	retq
.Lfunc_end33:
	.size	put_buffer_frame, .Lfunc_end33-put_buffer_frame
	.cfi_endproc
                                        # -- End function
	.p2align	4, 0x90         # -- Begin function put_buffer_top
	.type	put_buffer_top,@function
put_buffer_top:                         # @put_buffer_top
	.cfi_startproc
# %bb.0:                                # %entry
	pushq	%rbp
	.cfi_def_cfa_offset 16
	.cfi_offset %rbp, -16
	movq	%rsp, %rbp
	.cfi_def_cfa_register %rbp
	movq	img, %rax
	movl	$0, 71796(%rax)
	movq	imgY_org_top, %rax
	movq	%rax, imgY_org
	movq	imgUV_org_top, %rax
	movq	%rax, imgUV_org
	popq	%rbp
	.cfi_def_cfa %rsp, 8
	retq
.Lfunc_end34:
	.size	put_buffer_top, .Lfunc_end34-put_buffer_top
	.cfi_endproc
                                        # -- End function
	.p2align	4, 0x90         # -- Begin function put_buffer_bot
	.type	put_buffer_bot,@function
put_buffer_bot:                         # @put_buffer_bot
	.cfi_startproc
# %bb.0:                                # %entry
	pushq	%rbp
	.cfi_def_cfa_offset 16
	.cfi_offset %rbp, -16
	movq	%rsp, %rbp
	.cfi_def_cfa_register %rbp
	movq	img, %rax
	movl	$1, 71796(%rax)
	movq	imgY_org_bot, %rax
	movq	%rax, imgY_org
	movq	imgUV_org_bot, %rax
	movq	%rax, imgUV_org
	popq	%rbp
	.cfi_def_cfa %rsp, 8
	retq
.Lfunc_end35:
	.size	put_buffer_bot, .Lfunc_end35-put_buffer_bot
	.cfi_endproc
                                        # -- End function
	.p2align	4, 0x90         # -- Begin function rdPictureCoding
	.type	rdPictureCoding,@function
rdPictureCoding:                        # @rdPictureCoding
	.cfi_startproc
# %bb.0:                                # %rand_bb
	pushq	%rbp
	.cfi_def_cfa_offset 16
	.cfi_offset %rbp, -16
	movq	%rsp, %rbp
	.cfi_def_cfa_register %rbp
	callq	get_rand
	cmpl	$0, %eax
	jne	.LBB36_9
# %bb.1:                                # %func_rdPictureCoding.57
	callq	rdPictureCoding.57
	popq	%rbp
	.cfi_def_cfa %rsp, 8
	retq
.LBB36_2:                               # %func_rdPictureCoding.71
	.cfi_def_cfa %rbp, 16
	callq	rdPictureCoding.71
	popq	%rbp
	.cfi_def_cfa %rsp, 8
	retq
.LBB36_3:                               # %func_rdPictureCoding.148
	.cfi_def_cfa %rbp, 16
	callq	rdPictureCoding.148
	popq	%rbp
	.cfi_def_cfa %rsp, 8
	retq
.LBB36_4:                               # %func_rdPictureCoding.162
	.cfi_def_cfa %rbp, 16
	callq	rdPictureCoding.162
	popq	%rbp
	.cfi_def_cfa %rsp, 8
	retq
.LBB36_5:                               # %func_rdPictureCoding.165
	.cfi_def_cfa %rbp, 16
	callq	rdPictureCoding.165
	popq	%rbp
	.cfi_def_cfa %rsp, 8
	retq
.LBB36_6:                               # %func_rdPictureCoding.169
	.cfi_def_cfa %rbp, 16
	callq	rdPictureCoding.169
	popq	%rbp
	.cfi_def_cfa %rsp, 8
	retq
.LBB36_7:                               # %func_rdPictureCoding.171
	.cfi_def_cfa %rbp, 16
	callq	rdPictureCoding.171
	popq	%rbp
	.cfi_def_cfa %rsp, 8
	retq
.LBB36_8:                               # %func_rdPictureCoding.176
	.cfi_def_cfa %rbp, 16
	callq	rdPictureCoding.176
	popq	%rbp
	.cfi_def_cfa %rsp, 8
	retq
.LBB36_9:                               # %ctrl0
	.cfi_def_cfa %rbp, 16
	cmpl	$1, %eax
	je	.LBB36_2
# %bb.10:                               # %ctrl1
	cmpl	$2, %eax
	je	.LBB36_3
# %bb.11:                               # %ctrl2
	cmpl	$3, %eax
	je	.LBB36_4
# %bb.12:                               # %ctrl3
	cmpl	$4, %eax
	je	.LBB36_5
# %bb.13:                               # %ctrl4
	cmpl	$5, %eax
	je	.LBB36_6
# %bb.14:                               # %ctrl5
	cmpl	$6, %eax
	je	.LBB36_7
	jmp	.LBB36_8
.Lfunc_end36:
	.size	rdPictureCoding, .Lfunc_end36-rdPictureCoding
	.cfi_endproc
                                        # -- End function
	.p2align	4, 0x90         # -- Begin function field_mode_buffer.1
	.type	field_mode_buffer.1,@function
field_mode_buffer.1:                    # @field_mode_buffer.1
	.cfi_startproc
# %bb.0:                                # %entry
	pushq	%rbp
	.cfi_def_cfa_offset 16
	.cfi_offset %rbp, -16
	movq	%rsp, %rbp
	.cfi_def_cfa_register %rbp
	subq	$32, %rsp
	movl	$848331782, -8(%rbp)    # imm = 0x32908406
	movl	%edi, -20(%rbp)
	vmovss	%xmm0, -4(%rbp)
	vmovss	%xmm1, -12(%rbp)
	vmovss	%xmm2, -16(%rbp)
	callq	put_buffer_frame
	vmovss	-4(%rbp), %xmm0         # xmm0 = mem[0],zero,zero,zero
	movq	snr, %rax
	vmovss	%xmm0, (%rax)
	vmovss	-12(%rbp), %xmm0        # xmm0 = mem[0],zero,zero,zero
	movq	snr, %rax
	vmovss	%xmm0, 4(%rax)
	vmovss	-16(%rbp), %xmm0        # xmm0 = mem[0],zero,zero,zero
	movq	snr, %rax
	vmovss	%xmm0, 8(%rax)
	cmpl	$848331782, -8(%rbp)    # imm = 0x32908406
	jne	.LBB37_2
.LBB37_1:
	addq	$32, %rsp
	popq	%rbp
	.cfi_def_cfa %rsp, 8
	retq
.LBB37_2:                               # %func_exit
	.cfi_def_cfa %rbp, 16
	callq	detect_breach
	jmp	.LBB37_1
.Lfunc_end37:
	.size	field_mode_buffer.1, .Lfunc_end37-field_mode_buffer.1
	.cfi_endproc
                                        # -- End function
	.section	.rodata.cst8,"aM",@progbits,8
	.p2align	3               # -- Begin function init_field.2
.LCPI38_0:
	.quad	4607182418800017408     # double 1
	.text
	.p2align	4, 0x90
	.type	init_field.2,@function
init_field.2:                           # @init_field.2
	.cfi_startproc
# %bb.0:                                # %entry
	pushq	%rbp
	.cfi_def_cfa_offset 16
	.cfi_offset %rbp, -16
	movq	%rsp, %rbp
	.cfi_def_cfa_register %rbp
	subq	$16, %rsp
	movl	$1401803646, -16(%rbp)  # imm = 0x538DD37E
	movq	last_P_no_fld, %rax
	movq	%rax, last_P_no
	movq	img, %rax
	movl	$0, 12(%rax)
	movq	img, %rax
	movl	$0, 20(%rax)
	movq	stats, %rax
	movl	$0, 24(%rax)
	movq	input, %rax
	movl	20(%rax), %ecx
	shll	$1, %ecx
	movl	%ecx, 20(%rax)
	movq	input, %rax
	movl	1236(%rax), %ecx
	shll	$1, %ecx
	movl	%ecx, 1236(%rax)
	movq	img, %rcx
	movl	(%rcx), %eax
	cltd
	movl	$2, %esi
	idivl	%esi
	movl	%eax, (%rcx)
	movq	img, %rcx
	movl	72376(%rcx), %eax
	cltd
	idivl	%esi
	movl	%eax, 72376(%rcx)
	movq	img, %rax
	movl	$0, 136(%rax)
	movq	img, %rax
	movl	$0, 140(%rax)
	movq	img, %rax
	movl	$0, 164(%rax)
	movq	img, %rax
	movl	$0, 156(%rax)
	movq	img, %rax
	movl	$0, 148(%rax)
	movq	img, %rax
	movl	$0, 160(%rax)
	movq	img, %rax
	movl	$0, 96(%rax)
	movq	img, %rax
	movl	$0, 152(%rax)
	movq	img, %rax
	movl	$0, 144(%rax)
	movq	img, %rax
	cmpl	$0, 71908(%rax)
	jne	.LBB38_27
# %bb.1:                                # %if.then
	movq	img, %rax
	movl	(%rax), %eax
	movq	input, %rcx
	movl	20(%rcx), %ecx
	addl	$2, %ecx
	imull	%ecx, %eax
	movq	img, %rcx
	addl	71796(%rcx), %eax
	movq	img, %rcx
	movl	%eax, 71792(%rcx)
	movq	img, %rax
	cmpl	$0, 71796(%rax)
	jne	.LBB38_3
# %bb.2:                                # %if.then9
	movq	img, %rax
	movl	71884(%rax), %eax
	movq	img, %rcx
	movl	%eax, 71888(%rcx)
	movq	img, %rax
	movl	71792(%rax), %eax
	movq	img, %rcx
	movl	%eax, 71884(%rcx)
.LBB38_3:                               # %if.end
	movq	input, %rax
	cmpl	$0, 2440(%rax)
	je	.LBB38_6
# %bb.4:                                # %land.lhs.true
	movq	img, %rax
	movl	(%rax), %eax
	addl	$1, %eax
	movq	input, %rcx
	cmpl	8(%rcx), %eax
	jne	.LBB38_6
# %bb.5:                                # %if.then15
	movq	input, %rax
	movl	2440(%rax), %eax
	movq	img, %rcx
	movl	%eax, 71792(%rcx)
.LBB38_6:                               # %if.end18
	movq	img, %rax
	cmpl	$0, (%rax)
	je	.LBB38_9
# %bb.7:                                # %land.lhs.true21
	movq	input, %rax
	cmpl	$0, 1236(%rax)
	je	.LBB38_9
# %bb.8:                                # %if.then24
	movq	img, %rax
	movl	71792(%rax), %eax
	movl	%eax, nextP_tr_fld
.LBB38_9:                               # %if.end26
	movq	input, %rax
	cmpl	$0, 3236(%rax)
	jne	.LBB38_24
# %bb.10:                               # %if.then28
	movq	img, %rax
	cmpl	$2, 24(%rax)
	jne	.LBB38_16
# %bb.11:                               # %if.then30
	movq	input, %rax
	cmpl	$0, 2452(%rax)
	jle	.LBB38_14
# %bb.12:                               # %land.lhs.true32
	movq	img, %rax
	movl	71792(%rax), %eax
	movq	input, %rcx
	cmpl	2452(%rcx), %eax
	jl	.LBB38_14
# %bb.13:                               # %if.then36
	movq	input, %rax
	movl	2456(%rax), %eax
	movq	img, %rcx
	movl	%eax, 40(%rcx)
	jmp	.LBB38_15
.LBB38_14:                              # %if.else
	movq	input, %rax
	movl	12(%rax), %eax
	movq	img, %rcx
	movl	%eax, 40(%rcx)
.LBB38_15:                              # %if.end38
	jmp	.LBB38_23
.LBB38_16:                              # %if.else39
	movq	input, %rax
	cmpl	$0, 2452(%rax)
	jle	.LBB38_19
# %bb.17:                               # %land.lhs.true42
	movq	img, %rax
	movl	71792(%rax), %eax
	movq	input, %rcx
	cmpl	2452(%rcx), %eax
	jl	.LBB38_19
# %bb.18:                               # %if.then46
	movq	input, %rax
	movl	2444(%rax), %eax
	movq	img, %rcx
	movl	%eax, 40(%rcx)
	jmp	.LBB38_20
.LBB38_19:                              # %if.else48
	movq	input, %rax
	movl	16(%rax), %eax
	movq	img, %rcx
	movl	%eax, 40(%rcx)
.LBB38_20:                              # %if.end50
	movq	img, %rax
	cmpl	$3, 24(%rax)
	jne	.LBB38_22
# %bb.21:                               # %if.then53
	movq	input, %rax
	movl	1276(%rax), %eax
	movq	img, %rcx
	movl	%eax, 40(%rcx)
	movq	input, %rax
	movl	1280(%rax), %eax
	movq	img, %rcx
	movl	%eax, 44(%rcx)
.LBB38_22:                              # %if.end56
	jmp	.LBB38_23
.LBB38_23:                              # %if.end57
	jmp	.LBB38_24
.LBB38_24:                              # %if.end58
	movq	img, %rax
	movl	88(%rax), %eax
	movq	img, %rcx
	movl	%eax, 92(%rcx)
	movq	input, %rax
	cmpl	$0, 76(%rax)
	jle	.LBB38_26
# %bb.25:                               # %if.then60
	movq	img, %rax
	movl	(%rax), %eax
	movq	input, %rcx
	cltd
	idivl	76(%rcx)
	movl	%eax, %ecx
	movq	img, %rax
	movl	52(%rax), %eax
	cltd
	movl	$16, %esi
	idivl	%esi
	movl	%eax, %esi
	movl	%ecx, %eax
	cltd
	idivl	%esi
	movq	img, %rax
	movl	%edx, 88(%rax)
.LBB38_26:                              # %if.end66
	jmp	.LBB38_77
.LBB38_27:                              # %if.else67
	movq	input, %rax
	movl	20(%rax), %eax
	addl	$2, %eax
	movq	img, %rcx
	movl	%eax, 71904(%rcx)
	movq	img, %rax
	movl	(%rax), %eax
	subl	$1, %eax
	movq	img, %rcx
	imull	71904(%rcx), %eax
	movq	img, %rcx
	addl	71796(%rcx), %eax
	movl	%eax, -8(%rbp)
	movq	img, %rax
	movl	(%rax), %eax
	movq	img, %rcx
	imull	71904(%rcx), %eax
	movq	img, %rcx
	addl	71796(%rcx), %eax
	movl	%eax, -12(%rbp)
	movq	img, %rax
	cmpl	$0, 71796(%rax)
	jne	.LBB38_33
# %bb.28:                               # %if.then82
	movl	-8(%rbp), %eax
	addl	$1, %eax
	movq	last_P_no, %rcx
	movl	%eax, (%rcx)
	movl	-8(%rbp), %eax
	movq	last_P_no, %rcx
	movl	%eax, 4(%rcx)
	movl	$1, -4(%rbp)
.LBB38_29:                              # %for.cond
                                        # =>This Inner Loop Header: Depth=1
	movl	-4(%rbp), %eax
	movq	img, %rcx
	cmpl	72376(%rcx), %eax
	jg	.LBB38_32
# %bb.30:                               # %for.body
                                        #   in Loop: Header=BB38_29 Depth=1
	movq	last_P_no, %rax
	movl	-4(%rbp), %ecx
	shll	$1, %ecx
	subl	$2, %ecx
	movslq	%ecx, %rcx
	movl	(%rax,%rcx,4), %eax
	movq	img, %rcx
	subl	71904(%rcx), %eax
	movq	last_P_no, %rcx
	movl	-4(%rbp), %edx
	shll	$1, %edx
	movslq	%edx, %rdx
	movl	%eax, (%rcx,%rdx,4)
	movq	last_P_no, %rax
	movl	-4(%rbp), %ecx
	shll	$1, %ecx
	subl	$1, %ecx
	movslq	%ecx, %rcx
	movl	(%rax,%rcx,4), %eax
	movq	img, %rcx
	subl	71904(%rcx), %eax
	movq	last_P_no, %rcx
	movl	-4(%rbp), %edx
	shll	$1, %edx
	addl	$1, %edx
	movslq	%edx, %rdx
	movl	%eax, (%rcx,%rdx,4)
# %bb.31:                               # %for.inc
                                        #   in Loop: Header=BB38_29 Depth=1
	movl	-4(%rbp), %eax
	addl	$1, %eax
	movl	%eax, -4(%rbp)
	jmp	.LBB38_29
.LBB38_32:                              # %for.end
	jmp	.LBB38_38
.LBB38_33:                              # %if.else105
	movl	-12(%rbp), %eax
	subl	$1, %eax
	movq	last_P_no, %rcx
	movl	%eax, (%rcx)
	movl	-8(%rbp), %eax
	movq	last_P_no, %rcx
	movl	%eax, 4(%rcx)
	movl	$1, -4(%rbp)
.LBB38_34:                              # %for.cond109
                                        # =>This Inner Loop Header: Depth=1
	movl	-4(%rbp), %eax
	movq	img, %rcx
	cmpl	72376(%rcx), %eax
	jg	.LBB38_37
# %bb.35:                               # %for.body112
                                        #   in Loop: Header=BB38_34 Depth=1
	movq	last_P_no, %rax
	movl	-4(%rbp), %ecx
	shll	$1, %ecx
	subl	$2, %ecx
	movslq	%ecx, %rcx
	movl	(%rax,%rcx,4), %eax
	movq	img, %rcx
	subl	71904(%rcx), %eax
	movq	last_P_no, %rcx
	movl	-4(%rbp), %edx
	shll	$1, %edx
	movslq	%edx, %rdx
	movl	%eax, (%rcx,%rdx,4)
	movq	last_P_no, %rax
	movl	-4(%rbp), %ecx
	shll	$1, %ecx
	subl	$1, %ecx
	movslq	%ecx, %rcx
	movl	(%rax,%rcx,4), %eax
	movq	img, %rcx
	subl	71904(%rcx), %eax
	movq	last_P_no, %rcx
	movl	-4(%rbp), %edx
	shll	$1, %edx
	addl	$1, %edx
	movslq	%edx, %rdx
	movl	%eax, (%rcx,%rdx,4)
# %bb.36:                               # %for.inc132
                                        #   in Loop: Header=BB38_34 Depth=1
	movl	-4(%rbp), %eax
	addl	$1, %eax
	movl	%eax, -4(%rbp)
	jmp	.LBB38_34
.LBB38_37:                              # %for.end134
	jmp	.LBB38_38
.LBB38_38:                              # %if.end135
	movq	input, %rax
	cmpl	$0, 2440(%rax)
	je	.LBB38_41
# %bb.39:                               # %land.lhs.true138
	movq	img, %rax
	movl	(%rax), %eax
	addl	$1, %eax
	movq	input, %rcx
	cmpl	8(%rcx), %eax
	jne	.LBB38_41
# %bb.40:                               # %if.then143
	movq	input, %rax
	movl	2440(%rax), %eax
	movl	%eax, -12(%rbp)
	movl	-12(%rbp), %eax
	subl	-8(%rbp), %eax
	movq	img, %rcx
	movl	%eax, 71904(%rcx)
.LBB38_41:                              # %if.end147
	vmovsd	.LCPI38_0(%rip), %xmm0  # xmm0 = mem[0],zero
	movq	input, %rax
	movl	20(%rax), %eax
	addl	$1, %eax
	vcvtsi2sd	%eax, %xmm0, %xmm1
	movq	input, %rax
	vcvtsi2sdl	1236(%rax), %xmm0, %xmm2
	vaddsd	%xmm0, %xmm2, %xmm0
	vdivsd	%xmm0, %xmm1, %xmm0
	movq	img, %rax
	vmovsd	%xmm0, 71896(%rax)
	movq	input, %rax
	cmpl	$3, 1320(%rax)
	jne	.LBB38_43
# %bb.42:                               # %if.then156
	vmovsd	.LCPI38_0(%rip), %xmm0  # xmm0 = mem[0],zero
	movq	img, %rax
	vmovsd	%xmm0, 71896(%rax)
.LBB38_43:                              # %if.end158
	movq	input, %rax
	cmpl	$0, 1320(%rax)
	je	.LBB38_45
# %bb.44:                               # %if.then161
	vmovsd	.LCPI38_0(%rip), %xmm0  # xmm0 = mem[0],zero
	movl	-8(%rbp), %eax
	movq	img, %rcx
	vaddsd	71896(%rcx), %xmm0, %xmm0
	movq	gop_structure, %rcx
	movq	img, %rdx
	movl	71908(%rdx), %edx
	subl	$1, %edx
	movslq	%edx, %rdx
	imulq	$24, %rdx, %rdx
	addq	%rdx, %rcx
	movl	4(%rcx), %ecx
	addl	$1, %ecx
	vcvtsi2sd	%ecx, %xmm0, %xmm1
	vmulsd	%xmm1, %xmm0, %xmm0
	vcvttsd2si	%xmm0, %ecx
	addl	%ecx, %eax
	movq	img, %rcx
	movl	%eax, 71792(%rcx)
	jmp	.LBB38_46
.LBB38_45:                              # %if.else174
	vmovsd	.LCPI38_0(%rip), %xmm0  # xmm0 = mem[0],zero
	movl	-8(%rbp), %eax
	movq	img, %rcx
	vaddsd	71896(%rcx), %xmm0, %xmm0
	movq	img, %rcx
	vcvtsi2sdl	71908(%rcx), %xmm0, %xmm1
	vmulsd	%xmm1, %xmm0, %xmm0
	vcvttsd2si	%xmm0, %ecx
	addl	%ecx, %eax
	movq	img, %rcx
	movl	%eax, 71792(%rcx)
.LBB38_46:                              # %if.end183
	movq	img, %rax
	movl	71792(%rax), %eax
	cmpl	-12(%rbp), %eax
	jl	.LBB38_48
# %bb.47:                               # %if.then187
	movl	-12(%rbp), %eax
	subl	$1, %eax
	movq	img, %rcx
	movl	%eax, 71792(%rcx)
.LBB38_48:                              # %if.end190
	movq	input, %rax
	cmpl	$0, 3236(%rax)
	jne	.LBB38_73
# %bb.49:                               # %land.lhs.true193
	movq	input, %rax
	cmpl	$3, 1320(%rax)
	je	.LBB38_73
# %bb.50:                               # %if.then197
	movq	input, %rax
	cmpl	$0, 2452(%rax)
	jle	.LBB38_53
# %bb.51:                               # %land.lhs.true201
	movq	img, %rax
	movl	71792(%rax), %eax
	movq	input, %rcx
	cmpl	2452(%rcx), %eax
	jl	.LBB38_53
# %bb.52:                               # %if.then206
	movq	input, %rax
	movl	2448(%rax), %eax
	movq	img, %rcx
	movl	%eax, 40(%rcx)
	jmp	.LBB38_54
.LBB38_53:                              # %if.else208
	movq	input, %rax
	movl	1240(%rax), %eax
	movq	img, %rcx
	movl	%eax, 40(%rcx)
.LBB38_54:                              # %if.end210
	movq	img, %rax
	cmpl	$0, 72496(%rax)
	je	.LBB38_72
# %bb.55:                               # %if.then212
	movq	input, %rax
	cmpl	$0, 2452(%rax)
	jle	.LBB38_64
# %bb.56:                               # %land.lhs.true216
	movq	img, %rax
	movl	71792(%rax), %eax
	movq	input, %rcx
	cmpl	2452(%rcx), %eax
	jl	.LBB38_64
# %bb.57:                               # %if.then221
	movq	input, %rax
	movl	2448(%rax), %eax
	movq	input, %rcx
	addl	2460(%rcx), %eax
	cmpl	$0, %eax
	jge	.LBB38_59
# %bb.58:                               # %cond.true
	xorl	%eax, %eax
	jmp	.LBB38_63
.LBB38_59:                              # %cond.false
	movq	input, %rax
	movl	2448(%rax), %eax
	movq	input, %rcx
	addl	2460(%rcx), %eax
	cmpl	$51, %eax
	jle	.LBB38_61
# %bb.60:                               # %cond.true231
	movl	$51, %eax
	jmp	.LBB38_62
.LBB38_61:                              # %cond.false232
	movq	input, %rax
	movl	2448(%rax), %eax
	movq	input, %rcx
	addl	2460(%rcx), %eax
.LBB38_62:                              # %cond.end
.LBB38_63:                              # %cond.end236
	movq	img, %rcx
	movl	%eax, 40(%rcx)
	jmp	.LBB38_71
.LBB38_64:                              # %if.else239
	movq	input, %rax
	movl	1240(%rax), %eax
	movq	input, %rcx
	addl	1244(%rcx), %eax
	cmpl	$0, %eax
	jge	.LBB38_66
# %bb.65:                               # %cond.true244
	xorl	%eax, %eax
	jmp	.LBB38_70
.LBB38_66:                              # %cond.false245
	movq	input, %rax
	movl	1240(%rax), %eax
	movq	input, %rcx
	addl	1244(%rcx), %eax
	cmpl	$51, %eax
	jle	.LBB38_68
# %bb.67:                               # %cond.true251
	movl	$51, %eax
	jmp	.LBB38_69
.LBB38_68:                              # %cond.false252
	movq	input, %rax
	movl	1240(%rax), %eax
	movq	input, %rcx
	addl	1244(%rcx), %eax
.LBB38_69:                              # %cond.end256
.LBB38_70:                              # %cond.end258
	movq	img, %rcx
	movl	%eax, 40(%rcx)
.LBB38_71:                              # %if.end261
	jmp	.LBB38_72
.LBB38_72:                              # %if.end262
	jmp	.LBB38_76
.LBB38_73:                              # %if.else263
	movq	input, %rax
	cmpl	$3, 1320(%rax)
	jne	.LBB38_75
# %bb.74:                               # %if.then267
	movq	gop_structure, %rax
	movq	img, %rcx
	movl	71908(%rcx), %ecx
	subl	$1, %ecx
	movslq	%ecx, %rcx
	imulq	$24, %rcx, %rcx
	addq	%rcx, %rax
	movl	12(%rax), %eax
	movq	img, %rcx
	movl	%eax, 40(%rcx)
.LBB38_75:                              # %if.end273
	jmp	.LBB38_76
.LBB38_76:                              # %if.end274
	jmp	.LBB38_77
.LBB38_77:                              # %if.end275
	movq	input, %rcx
	movl	20(%rcx), %eax
	cltd
	movl	$2, %esi
	idivl	%esi
	movl	%eax, 20(%rcx)
	movq	input, %rcx
	movl	1236(%rcx), %eax
	cltd
	idivl	%esi
	movl	%eax, 1236(%rcx)
	movq	img, %rax
	movl	72376(%rax), %ecx
	shll	$1, %ecx
	movl	%ecx, 72376(%rax)
	movq	img, %rax
	movl	(%rax), %eax
	shll	$1, %eax
	movq	img, %rcx
	addl	71796(%rcx), %eax
	movq	img, %rcx
	movl	%eax, (%rcx)
	movq	img, %rax
	movl	52(%rax), %eax
	movq	img, %rcx
	imull	60(%rcx), %eax
	cltd
	movl	$256, %ecx              # imm = 0x100
	idivl	%ecx
	movq	img, %rcx
	movl	%eax, 16(%rcx)
	cmpl	$1401803646, -16(%rbp)  # imm = 0x538DD37E
	jne	.LBB38_79
.LBB38_78:
	addq	$16, %rsp
	popq	%rbp
	.cfi_def_cfa %rsp, 8
	retq
.LBB38_79:                              # %func_exit
	.cfi_def_cfa %rbp, 16
	callq	detect_breach
	jmp	.LBB38_78
.Lfunc_end38:
	.size	init_field.2, .Lfunc_end38-init_field.2
	.cfi_endproc
                                        # -- End function
	.p2align	4, 0x90         # -- Begin function ReportIntra.3
	.type	ReportIntra.3,@function
ReportIntra.3:                          # @ReportIntra.3
	.cfi_startproc
# %bb.0:                                # %entry
	pushq	%rbp
	.cfi_def_cfa_offset 16
	.cfi_offset %rbp, -16
	movq	%rsp, %rbp
	.cfi_def_cfa_register %rbp
	subq	$48, %rsp
	movl	$546223866, -12(%rbp)   # imm = 0x208EB6FA
	movl	%edi, -8(%rbp)
	movl	%esi, -4(%rbp)
	movq	img, %rax
	movq	14152(%rax), %rax
	cmpl	$1, 4(%rax)
	jne	.LBB39_2
# %bb.1:                                # %if.then
	movl	frame_no, %esi
	movq	stats, %rax
	movl	16(%rax), %edx
	movq	stats, %rax
	subl	20(%rax), %edx
	movq	img, %rax
	movl	40(%rax), %r8d
	movq	snr, %rax
	vmovss	(%rax), %xmm0           # xmm0 = mem[0],zero,zero,zero
	vcvtss2sd	%xmm0, %xmm0, %xmm0
	movq	snr, %rax
	vmovss	4(%rax), %xmm1          # xmm1 = mem[0],zero,zero,zero
	vcvtss2sd	%xmm1, %xmm0, %xmm1
	movq	snr, %rax
	vmovss	8(%rax), %xmm2          # xmm2 = mem[0],zero,zero,zero
	vcvtss2sd	%xmm2, %xmm0, %xmm2
	movl	-8(%rbp), %r9d
	movl	-4(%rbp), %r10d
	movq	img, %rcx
	movl	71800(%rcx), %ecx
	cmpl	$0, %ecx
	movabsq	$.L.str.7, %rcx
	movabsq	$.L.str.8, %rax
	cmovneq	%rcx, %rax
	movl	intras, %r11d
	movabsq	$.L.str.6, %rdi
	movl	$0, %ecx
	movl	%r10d, (%rsp)
	movq	%rax, 8(%rsp)
	movl	%r11d, 16(%rsp)
	movb	$3, %al
	callq	printf
	jmp	.LBB39_3
.LBB39_2:                               # %if.else
	movl	frame_no, %esi
	movq	stats, %rax
	movl	16(%rax), %edx
	movq	stats, %rax
	subl	20(%rax), %edx
	movq	img, %rax
	movl	40(%rax), %r8d
	movq	snr, %rax
	vmovss	(%rax), %xmm0           # xmm0 = mem[0],zero,zero,zero
	vcvtss2sd	%xmm0, %xmm0, %xmm0
	movq	snr, %rax
	vmovss	4(%rax), %xmm1          # xmm1 = mem[0],zero,zero,zero
	vcvtss2sd	%xmm1, %xmm0, %xmm1
	movq	snr, %rax
	vmovss	8(%rax), %xmm2          # xmm2 = mem[0],zero,zero,zero
	vcvtss2sd	%xmm2, %xmm0, %xmm2
	movl	-8(%rbp), %r9d
	movl	-4(%rbp), %r10d
	movq	img, %rcx
	movl	71800(%rcx), %ecx
	cmpl	$0, %ecx
	movabsq	$.L.str.7, %rcx
	movabsq	$.L.str.8, %rax
	cmovneq	%rcx, %rax
	movl	intras, %r11d
	movabsq	$.L.str.9, %rdi
	movl	$0, %ecx
	movl	%r10d, (%rsp)
	movq	%rax, 8(%rsp)
	movl	%r11d, 16(%rsp)
	movb	$3, %al
	callq	printf
.LBB39_3:                               # %if.end
	cmpl	$546223866, -12(%rbp)   # imm = 0x208EB6FA
	jne	.LBB39_5
.LBB39_4:
	addq	$48, %rsp
	popq	%rbp
	.cfi_def_cfa %rsp, 8
	retq
.LBB39_5:                               # %func_exit
	.cfi_def_cfa %rbp, 16
	callq	detect_breach
	jmp	.LBB39_4
.Lfunc_end39:
	.size	ReportIntra.3, .Lfunc_end39-ReportIntra.3
	.cfi_endproc
                                        # -- End function
	.section	.rodata.cst8,"aM",@progbits,8
	.p2align	3               # -- Begin function init_frame.4
.LCPI40_0:
	.quad	4607182418800017408     # double 1
	.text
	.p2align	4, 0x90
	.type	init_frame.4,@function
init_frame.4:                           # @init_frame.4
	.cfi_startproc
# %bb.0:                                # %entry
	pushq	%rbp
	.cfi_def_cfa_offset 16
	.cfi_offset %rbp, -16
	movq	%rsp, %rbp
	.cfi_def_cfa_register %rbp
	subq	$16, %rsp
	movl	$1089971658, -16(%rbp)  # imm = 0x40F7A5CA
	movq	last_P_no_frm, %rax
	movq	%rax, last_P_no
	movq	img, %rax
	movl	$0, 12(%rax)
	movq	img, %rax
	movl	$0, 20(%rax)
	movq	stats, %rax
	movl	$0, 24(%rax)
	movq	img, %rax
	movl	$0, 136(%rax)
	movq	img, %rax
	movl	$0, 140(%rax)
	movq	img, %rax
	movl	$0, 164(%rax)
	movq	img, %rax
	movl	$0, 156(%rax)
	movq	img, %rax
	movl	$0, 148(%rax)
	movq	img, %rax
	movl	$0, 160(%rax)
	movq	img, %rax
	movl	$0, 96(%rax)
	movq	img, %rax
	movl	$0, 152(%rax)
	movq	img, %rax
	movl	$0, 144(%rax)
	movl	$0, -4(%rbp)
.LBB40_1:                               # %for.cond
                                        # =>This Inner Loop Header: Depth=1
	movl	-4(%rbp), %esi
	movq	img, %rax
	movl	52(%rax), %eax
	cltd
	movl	$16, %edi
	idivl	%edi
	movl	%eax, %ecx
	movq	img, %rax
	movl	60(%rax), %eax
	cltd
	idivl	%edi
	imull	%eax, %ecx
	cmpl	%ecx, %esi
	jge	.LBB40_4
# %bb.2:                                # %for.body
                                        #   in Loop: Header=BB40_1 Depth=1
	movq	img, %rax
	movq	14168(%rax), %rax
	movslq	-4(%rbp), %rcx
	imulq	$632, %rcx, %rcx        # imm = 0x278
	addq	%rcx, %rax
	movl	$-1, 4(%rax)
# %bb.3:                                # %for.inc
                                        #   in Loop: Header=BB40_1 Depth=1
	movl	-4(%rbp), %eax
	addl	$1, %eax
	movl	%eax, -4(%rbp)
	jmp	.LBB40_1
.LBB40_4:                               # %for.end
	movq	img, %rax
	cmpl	$0, 71908(%rax)
	jne	.LBB40_29
# %bb.5:                                # %if.then
	movl	start_tr_in_this_IGOP, %eax
	movq	img, %rcx
	movl	(%rcx), %ecx
	subl	start_frame_no_in_this_IGOP, %ecx
	movq	input, %rdx
	movl	20(%rdx), %edx
	addl	$1, %edx
	imull	%edx, %ecx
	addl	%ecx, %eax
	movq	img, %rcx
	movl	%eax, 71792(%rcx)
	movq	img, %rax
	movl	71876(%rax), %eax
	movq	img, %rcx
	movl	%eax, 71880(%rcx)
	movq	img, %rax
	movl	71792(%rax), %eax
	movq	img, %rcx
	movl	%eax, 71876(%rcx)
	movq	input, %rax
	cmpl	$0, 2440(%rax)
	je	.LBB40_8
# %bb.6:                                # %land.lhs.true
	movq	img, %rax
	movl	(%rax), %eax
	addl	$1, %eax
	movq	input, %rcx
	cmpl	8(%rcx), %eax
	jne	.LBB40_8
# %bb.7:                                # %if.then10
	movq	input, %rax
	movl	2440(%rax), %eax
	movq	img, %rcx
	movl	%eax, 71792(%rcx)
.LBB40_8:                               # %if.end
	movq	img, %rax
	movl	(%rax), %eax
	subl	start_frame_no_in_this_IGOP, %eax
	cmpl	$0, %eax
	je	.LBB40_11
# %bb.9:                                # %land.lhs.true16
	movq	input, %rax
	cmpl	$0, 1236(%rax)
	je	.LBB40_11
# %bb.10:                               # %if.then18
	movq	img, %rax
	movl	71792(%rax), %eax
	movl	%eax, nextP_tr_frm
.LBB40_11:                              # %if.end20
	movq	input, %rax
	cmpl	$0, 3236(%rax)
	jne	.LBB40_26
# %bb.12:                               # %if.then22
	movq	img, %rax
	cmpl	$2, 24(%rax)
	jne	.LBB40_18
# %bb.13:                               # %if.then24
	movq	input, %rax
	cmpl	$0, 2452(%rax)
	jle	.LBB40_16
# %bb.14:                               # %land.lhs.true26
	movq	img, %rax
	movl	71792(%rax), %eax
	movq	input, %rcx
	cmpl	2452(%rcx), %eax
	jl	.LBB40_16
# %bb.15:                               # %if.then30
	movq	input, %rax
	movl	2456(%rax), %eax
	movq	img, %rcx
	movl	%eax, 40(%rcx)
	jmp	.LBB40_17
.LBB40_16:                              # %if.else
	movq	input, %rax
	movl	12(%rax), %eax
	movq	img, %rcx
	movl	%eax, 40(%rcx)
.LBB40_17:                              # %if.end32
	jmp	.LBB40_25
.LBB40_18:                              # %if.else33
	movq	input, %rax
	cmpl	$0, 2452(%rax)
	jle	.LBB40_21
# %bb.19:                               # %land.lhs.true36
	movq	img, %rax
	movl	71792(%rax), %eax
	movq	input, %rcx
	cmpl	2452(%rcx), %eax
	jl	.LBB40_21
# %bb.20:                               # %if.then40
	movq	input, %rax
	movl	2444(%rax), %eax
	movq	img, %rcx
	movl	%eax, 40(%rcx)
	jmp	.LBB40_22
.LBB40_21:                              # %if.else42
	movq	input, %rax
	movl	16(%rax), %eax
	movq	img, %rcx
	movl	%eax, 40(%rcx)
.LBB40_22:                              # %if.end44
	movq	img, %rax
	cmpl	$3, 24(%rax)
	jne	.LBB40_24
# %bb.23:                               # %if.then47
	movq	input, %rax
	movl	1276(%rax), %eax
	movq	img, %rcx
	movl	%eax, 40(%rcx)
	movq	input, %rax
	movl	1280(%rax), %eax
	movq	img, %rcx
	movl	%eax, 44(%rcx)
.LBB40_24:                              # %if.end50
	jmp	.LBB40_25
.LBB40_25:                              # %if.end51
	jmp	.LBB40_26
.LBB40_26:                              # %if.end52
	movq	img, %rax
	movl	88(%rax), %eax
	movq	img, %rcx
	movl	%eax, 92(%rcx)
	movq	input, %rax
	cmpl	$0, 76(%rax)
	jle	.LBB40_28
# %bb.27:                               # %if.then54
	movq	img, %rax
	movl	(%rax), %eax
	subl	start_frame_no_in_this_IGOP, %eax
	movq	input, %rcx
	cltd
	idivl	76(%rcx)
	movl	%eax, %ecx
	movq	img, %rax
	movl	60(%rax), %eax
	cltd
	movl	$16, %esi
	idivl	%esi
	movl	%eax, %esi
	movl	%ecx, %eax
	cltd
	idivl	%esi
	movq	img, %rax
	movl	%edx, 88(%rax)
.LBB40_28:                              # %if.end62
	jmp	.LBB40_72
.LBB40_29:                              # %if.else63
	movq	input, %rax
	movl	20(%rax), %eax
	addl	$1, %eax
	movq	img, %rcx
	movl	%eax, 71904(%rcx)
	movl	start_tr_in_this_IGOP, %eax
	movq	img, %rcx
	movl	(%rcx), %ecx
	subl	start_frame_no_in_this_IGOP, %ecx
	subl	$1, %ecx
	movq	img, %rdx
	imull	71904(%rdx), %ecx
	addl	%ecx, %eax
	movl	%eax, -8(%rbp)
	movl	start_tr_in_this_IGOP, %eax
	movq	img, %rcx
	movl	(%rcx), %ecx
	subl	start_frame_no_in_this_IGOP, %ecx
	movq	img, %rdx
	imull	71904(%rdx), %ecx
	addl	%ecx, %eax
	movl	%eax, -12(%rbp)
	movl	-8(%rbp), %eax
	movq	last_P_no, %rcx
	movl	%eax, (%rcx)
	movl	$1, -4(%rbp)
.LBB40_30:                              # %for.cond78
                                        # =>This Inner Loop Header: Depth=1
	movl	-4(%rbp), %eax
	movq	img, %rcx
	cmpl	72376(%rcx), %eax
	jge	.LBB40_33
# %bb.31:                               # %for.body80
                                        #   in Loop: Header=BB40_30 Depth=1
	movq	last_P_no, %rax
	movl	-4(%rbp), %ecx
	subl	$1, %ecx
	movslq	%ecx, %rcx
	movl	(%rax,%rcx,4), %eax
	movq	img, %rcx
	subl	71904(%rcx), %eax
	movq	last_P_no, %rcx
	movslq	-4(%rbp), %rdx
	movl	%eax, (%rcx,%rdx,4)
# %bb.32:                               # %for.inc88
                                        #   in Loop: Header=BB40_30 Depth=1
	movl	-4(%rbp), %eax
	addl	$1, %eax
	movl	%eax, -4(%rbp)
	jmp	.LBB40_30
.LBB40_33:                              # %for.end90
	movq	input, %rax
	cmpl	$0, 2440(%rax)
	je	.LBB40_36
# %bb.34:                               # %land.lhs.true93
	movq	img, %rax
	movl	(%rax), %eax
	addl	$1, %eax
	movq	input, %rcx
	cmpl	8(%rcx), %eax
	jne	.LBB40_36
# %bb.35:                               # %if.then98
	movq	input, %rax
	movl	2440(%rax), %eax
	movl	%eax, -12(%rbp)
	movl	-12(%rbp), %eax
	subl	-8(%rbp), %eax
	movq	img, %rcx
	movl	%eax, 71904(%rcx)
.LBB40_36:                              # %if.end102
	vmovsd	.LCPI40_0(%rip), %xmm0  # xmm0 = mem[0],zero
	movq	input, %rax
	movl	20(%rax), %eax
	addl	$1, %eax
	vcvtsi2sd	%eax, %xmm0, %xmm1
	movq	input, %rax
	vcvtsi2sdl	1236(%rax), %xmm0, %xmm2
	vaddsd	%xmm0, %xmm2, %xmm0
	vdivsd	%xmm0, %xmm1, %xmm0
	movq	img, %rax
	vmovsd	%xmm0, 71896(%rax)
	movq	input, %rax
	cmpl	$3, 1320(%rax)
	jne	.LBB40_38
# %bb.37:                               # %if.then111
	vmovsd	.LCPI40_0(%rip), %xmm0  # xmm0 = mem[0],zero
	movq	img, %rax
	vmovsd	%xmm0, 71896(%rax)
.LBB40_38:                              # %if.end113
	movq	input, %rax
	cmpl	$0, 1320(%rax)
	je	.LBB40_40
# %bb.39:                               # %if.then116
	movl	-8(%rbp), %eax
	movq	img, %rcx
	vmovsd	71896(%rcx), %xmm0      # xmm0 = mem[0],zero
	movq	gop_structure, %rcx
	movq	img, %rdx
	movl	71908(%rdx), %edx
	subl	$1, %edx
	movslq	%edx, %rdx
	imulq	$24, %rdx, %rdx
	addq	%rdx, %rcx
	movl	4(%rcx), %ecx
	addl	$1, %ecx
	vcvtsi2sd	%ecx, %xmm0, %xmm1
	vmulsd	%xmm1, %xmm0, %xmm0
	vcvttsd2si	%xmm0, %ecx
	addl	%ecx, %eax
	movq	img, %rcx
	movl	%eax, 71792(%rcx)
	jmp	.LBB40_41
.LBB40_40:                              # %if.else128
	movl	-8(%rbp), %eax
	movq	img, %rcx
	vmovsd	71896(%rcx), %xmm0      # xmm0 = mem[0],zero
	movq	img, %rcx
	vcvtsi2sdl	71908(%rcx), %xmm0, %xmm1
	vmulsd	%xmm1, %xmm0, %xmm0
	vcvttsd2si	%xmm0, %ecx
	addl	%ecx, %eax
	movq	img, %rcx
	movl	%eax, 71792(%rcx)
.LBB40_41:                              # %if.end136
	movq	img, %rax
	movl	71792(%rax), %eax
	cmpl	-12(%rbp), %eax
	jl	.LBB40_43
# %bb.42:                               # %if.then140
	movl	-12(%rbp), %eax
	subl	$1, %eax
	movq	img, %rcx
	movl	%eax, 71792(%rcx)
.LBB40_43:                              # %if.end143
	movq	input, %rax
	cmpl	$0, 3236(%rax)
	jne	.LBB40_68
# %bb.44:                               # %land.lhs.true146
	movq	input, %rax
	cmpl	$3, 1320(%rax)
	je	.LBB40_68
# %bb.45:                               # %if.then150
	movq	input, %rax
	cmpl	$0, 2452(%rax)
	jle	.LBB40_48
# %bb.46:                               # %land.lhs.true154
	movq	img, %rax
	movl	71792(%rax), %eax
	movq	input, %rcx
	cmpl	2452(%rcx), %eax
	jl	.LBB40_48
# %bb.47:                               # %if.then159
	movq	input, %rax
	movl	2448(%rax), %eax
	movq	img, %rcx
	movl	%eax, 40(%rcx)
	jmp	.LBB40_49
.LBB40_48:                              # %if.else161
	movq	input, %rax
	movl	1240(%rax), %eax
	movq	img, %rcx
	movl	%eax, 40(%rcx)
.LBB40_49:                              # %if.end163
	movq	img, %rax
	cmpl	$0, 72496(%rax)
	je	.LBB40_67
# %bb.50:                               # %if.then165
	movq	input, %rax
	cmpl	$0, 2452(%rax)
	jle	.LBB40_59
# %bb.51:                               # %land.lhs.true169
	movq	img, %rax
	movl	71792(%rax), %eax
	movq	input, %rcx
	cmpl	2452(%rcx), %eax
	jl	.LBB40_59
# %bb.52:                               # %if.then174
	movq	input, %rax
	movl	2448(%rax), %eax
	movq	input, %rcx
	addl	2460(%rcx), %eax
	cmpl	$0, %eax
	jge	.LBB40_54
# %bb.53:                               # %cond.true
	xorl	%eax, %eax
	jmp	.LBB40_58
.LBB40_54:                              # %cond.false
	movq	input, %rax
	movl	2448(%rax), %eax
	movq	input, %rcx
	addl	2460(%rcx), %eax
	cmpl	$51, %eax
	jle	.LBB40_56
# %bb.55:                               # %cond.true184
	movl	$51, %eax
	jmp	.LBB40_57
.LBB40_56:                              # %cond.false185
	movq	input, %rax
	movl	2448(%rax), %eax
	movq	input, %rcx
	addl	2460(%rcx), %eax
.LBB40_57:                              # %cond.end
.LBB40_58:                              # %cond.end189
	movq	img, %rcx
	movl	%eax, 40(%rcx)
	jmp	.LBB40_66
.LBB40_59:                              # %if.else192
	movq	input, %rax
	movl	1240(%rax), %eax
	movq	input, %rcx
	addl	1244(%rcx), %eax
	cmpl	$0, %eax
	jge	.LBB40_61
# %bb.60:                               # %cond.true197
	xorl	%eax, %eax
	jmp	.LBB40_65
.LBB40_61:                              # %cond.false198
	movq	input, %rax
	movl	1240(%rax), %eax
	movq	input, %rcx
	addl	1244(%rcx), %eax
	cmpl	$51, %eax
	jle	.LBB40_63
# %bb.62:                               # %cond.true204
	movl	$51, %eax
	jmp	.LBB40_64
.LBB40_63:                              # %cond.false205
	movq	input, %rax
	movl	1240(%rax), %eax
	movq	input, %rcx
	addl	1244(%rcx), %eax
.LBB40_64:                              # %cond.end209
.LBB40_65:                              # %cond.end211
	movq	img, %rcx
	movl	%eax, 40(%rcx)
.LBB40_66:                              # %if.end214
	jmp	.LBB40_67
.LBB40_67:                              # %if.end215
	jmp	.LBB40_71
.LBB40_68:                              # %if.else216
	movq	input, %rax
	cmpl	$3, 1320(%rax)
	jne	.LBB40_70
# %bb.69:                               # %if.then220
	movq	gop_structure, %rax
	movq	img, %rcx
	movl	71908(%rcx), %ecx
	subl	$1, %ecx
	movslq	%ecx, %rcx
	imulq	$24, %rcx, %rcx
	addq	%rcx, %rax
	movl	12(%rax), %eax
	movq	img, %rcx
	movl	%eax, 40(%rcx)
.LBB40_70:                              # %if.end226
	jmp	.LBB40_71
.LBB40_71:                              # %if.end227
	jmp	.LBB40_72
.LBB40_72:                              # %if.end228
	movq	img, %rax
	movl	72384(%rax), %edi
	callq	UpdateSubseqInfo
	xorl	%edi, %edi
	xorl	%esi, %esi
	xorl	%edx, %edx
	movl	$4294967295, %ecx       # imm = 0xFFFFFFFF
	callq	UpdateSceneInformation
	movq	img, %rax
	movl	52(%rax), %eax
	movq	img, %rcx
	imull	60(%rcx), %eax
	cltd
	movl	$256, %ecx              # imm = 0x100
	idivl	%ecx
	movq	img, %rcx
	movl	%eax, 16(%rcx)
	movq	img, %rax
	movl	$0, 72504(%rax)
	movq	img, %rax
	movl	$0, 72508(%rax)
	callq	init_dec_ref_pic_marking_buffer
	cmpl	$1089971658, -16(%rbp)  # imm = 0x40F7A5CA
	jne	.LBB40_74
.LBB40_73:
	addq	$16, %rsp
	popq	%rbp
	.cfi_def_cfa %rsp, 8
	retq
.LBB40_74:                              # %func_exit
	.cfi_def_cfa %rbp, 16
	callq	detect_breach
	jmp	.LBB40_73
.Lfunc_end40:
	.size	init_frame.4, .Lfunc_end40-init_frame.4
	.cfi_endproc
                                        # -- End function
	.globl	frame_picture.5         # -- Begin function frame_picture.5
	.p2align	4, 0x90
	.type	frame_picture.5,@function
frame_picture.5:                        # @frame_picture.5
	.cfi_startproc
# %bb.0:                                # %entry
	pushq	%rbp
	.cfi_def_cfa_offset 16
	.cfi_offset %rbp, -16
	movq	%rsp, %rbp
	.cfi_def_cfa_register %rbp
	subq	$16, %rsp
	movl	$2124950545, -16(%rbp)  # imm = 0x7EA82C11
	movq	%rdi, -8(%rbp)
	movl	%esi, -12(%rbp)
	movq	img, %rax
	movl	$0, 28(%rax)
	movq	img, %rax
	movl	72488(%rax), %eax
	movq	img, %rcx
	movl	%eax, 72484(%rcx)
	cmpl	$2, -12(%rbp)
	jne	.LBB41_2
# %bb.1:                                # %if.then
	movq	img, %rax
	movl	28(%rax), %edi
	movq	img, %rax
	movl	52(%rax), %esi
	movq	img, %rax
	movl	60(%rax), %edx
	movq	img, %rax
	movl	56(%rax), %ecx
	movq	img, %rax
	movl	64(%rax), %r8d
	callq	alloc_storable_picture
	movq	%rax, enc_frame_picture3
	movq	img, %rax
	movl	72456(%rax), %eax
	movq	enc_frame_picture3, %rcx
	movl	%eax, 4(%rcx)
	movq	img, %rcx
	movl	%eax, 72460(%rcx)
	movq	img, %rax
	movl	72448(%rax), %eax
	movq	enc_frame_picture3, %rcx
	movl	%eax, 8(%rcx)
	movq	img, %rax
	movl	72452(%rax), %eax
	movq	enc_frame_picture3, %rcx
	movl	%eax, 12(%rcx)
	movq	img, %rax
	movl	72456(%rax), %eax
	movq	enc_frame_picture3, %rcx
	movl	%eax, 16(%rcx)
	movq	img, %rax
	movl	72464(%rax), %eax
	movq	enc_frame_picture3, %rcx
	movl	%eax, 6364(%rcx)
	movq	img, %rax
	movl	72464(%rax), %eax
	movq	enc_frame_picture3, %rcx
	movl	%eax, 6360(%rcx)
	movq	enc_frame_picture3, %rax
	movl	$1, 6412(%rax)
	movq	input, %rax
	cmpl	$0, 2884(%rax)
	setne	%al
	andb	$1, %al
	movzbl	%al, %eax
	movq	img, %rcx
	movl	%eax, 72400(%rcx)
	movq	enc_frame_picture3, %rcx
	movl	%eax, 6416(%rcx)
	movq	enc_frame_picture3, %rax
	movq	%rax, enc_picture
	callq	copy_params
	jmp	.LBB41_6
.LBB41_2:                               # %if.else
	cmpl	$1, -12(%rbp)
	jne	.LBB41_4
# %bb.3:                                # %if.then9
	movq	img, %rax
	movl	28(%rax), %edi
	movq	img, %rax
	movl	52(%rax), %esi
	movq	img, %rax
	movl	60(%rax), %edx
	movq	img, %rax
	movl	56(%rax), %ecx
	movq	img, %rax
	movl	64(%rax), %r8d
	callq	alloc_storable_picture
	movq	%rax, enc_frame_picture2
	movq	img, %rax
	movl	72456(%rax), %eax
	movq	enc_frame_picture2, %rcx
	movl	%eax, 4(%rcx)
	movq	img, %rcx
	movl	%eax, 72460(%rcx)
	movq	img, %rax
	movl	72448(%rax), %eax
	movq	enc_frame_picture2, %rcx
	movl	%eax, 8(%rcx)
	movq	img, %rax
	movl	72452(%rax), %eax
	movq	enc_frame_picture2, %rcx
	movl	%eax, 12(%rcx)
	movq	img, %rax
	movl	72456(%rax), %eax
	movq	enc_frame_picture2, %rcx
	movl	%eax, 16(%rcx)
	movq	img, %rax
	movl	72464(%rax), %eax
	movq	enc_frame_picture2, %rcx
	movl	%eax, 6364(%rcx)
	movq	img, %rax
	movl	72464(%rax), %eax
	movq	enc_frame_picture2, %rcx
	movl	%eax, 6360(%rcx)
	movq	enc_frame_picture2, %rax
	movl	$1, 6412(%rax)
	movq	input, %rax
	cmpl	$0, 2884(%rax)
	setne	%al
	andb	$1, %al
	movzbl	%al, %eax
	movq	img, %rcx
	movl	%eax, 72400(%rcx)
	movq	enc_frame_picture2, %rcx
	movl	%eax, 6416(%rcx)
	movq	enc_frame_picture2, %rax
	movq	%rax, enc_picture
	callq	copy_params
	jmp	.LBB41_5
.LBB41_4:                               # %if.else35
	movq	img, %rax
	movl	28(%rax), %edi
	movq	img, %rax
	movl	52(%rax), %esi
	movq	img, %rax
	movl	60(%rax), %edx
	movq	img, %rax
	movl	56(%rax), %ecx
	movq	img, %rax
	movl	64(%rax), %r8d
	callq	alloc_storable_picture
	movq	%rax, enc_frame_picture
	movq	img, %rax
	movl	72456(%rax), %eax
	movq	enc_frame_picture, %rcx
	movl	%eax, 4(%rcx)
	movq	img, %rcx
	movl	%eax, 72460(%rcx)
	movq	img, %rax
	movl	72448(%rax), %eax
	movq	enc_frame_picture, %rcx
	movl	%eax, 8(%rcx)
	movq	img, %rax
	movl	72452(%rax), %eax
	movq	enc_frame_picture, %rcx
	movl	%eax, 12(%rcx)
	movq	img, %rax
	movl	72456(%rax), %eax
	movq	enc_frame_picture, %rcx
	movl	%eax, 16(%rcx)
	movq	img, %rax
	movl	72464(%rax), %eax
	movq	enc_frame_picture, %rcx
	movl	%eax, 6364(%rcx)
	movq	img, %rax
	movl	72464(%rax), %eax
	movq	enc_frame_picture, %rcx
	movl	%eax, 6360(%rcx)
	movq	enc_frame_picture, %rax
	movl	$1, 6412(%rax)
	movq	input, %rax
	cmpl	$0, 2884(%rax)
	setne	%al
	andb	$1, %al
	movzbl	%al, %eax
	movq	img, %rcx
	movl	%eax, 72400(%rcx)
	movq	enc_frame_picture, %rcx
	movl	%eax, 6416(%rcx)
	movq	enc_frame_picture, %rax
	movq	%rax, enc_picture
	callq	copy_params
.LBB41_5:                               # %if.end
	jmp	.LBB41_6
.LBB41_6:                               # %if.end61
	movq	stats, %rax
	movl	$0, 1468(%rax)
	movq	stats, %rax
	addq	$1468, %rax             # imm = 0x5BC
	movq	stats, %rcx
	movq	%rax, 1480(%rcx)
	movq	img, %rax
	movl	$0, 71800(%rax)
	movq	-8(%rbp), %rdi
	callq	code_a_picture
	movq	img, %rax
	movq	14160(%rax), %rax
	movq	24(%rax), %rax
	movq	(%rax), %rax
	movl	(%rax), %eax
	shll	$3, %eax
	movq	-8(%rbp), %rcx
	movl	%eax, 808(%rcx)
	movq	img, %rax
	cmpl	$0, 28(%rax)
	jne	.LBB41_8
# %bb.7:                                # %if.then66
	callq	find_distortion
	movq	snr, %rax
	vmovss	(%rax), %xmm0           # xmm0 = mem[0],zero,zero,zero
	movq	-8(%rbp), %rax
	vmovss	%xmm0, 812(%rax)
	movq	snr, %rax
	vmovss	4(%rax), %xmm0          # xmm0 = mem[0],zero,zero,zero
	movq	-8(%rbp), %rax
	vmovss	%xmm0, 816(%rax)
	movq	snr, %rax
	vmovss	8(%rax), %xmm0          # xmm0 = mem[0],zero,zero,zero
	movq	-8(%rbp), %rax
	vmovss	%xmm0, 820(%rax)
.LBB41_8:                               # %if.end67
	cmpl	$2124950545, -16(%rbp)  # imm = 0x7EA82C11
	jne	.LBB41_10
.LBB41_9:
	addq	$16, %rsp
	popq	%rbp
	.cfi_def_cfa %rsp, 8
	retq
.LBB41_10:                              # %func_exit
	.cfi_def_cfa %rbp, 16
	callq	detect_breach
	jmp	.LBB41_9
.Lfunc_end41:
	.size	frame_picture.5, .Lfunc_end41-frame_picture.5
	.cfi_endproc
                                        # -- End function
	.p2align	4, 0x90         # -- Begin function frame_mode_buffer.6
	.type	frame_mode_buffer.6,@function
frame_mode_buffer.6:                    # @frame_mode_buffer.6
	.cfi_startproc
# %bb.0:                                # %entry
	pushq	%rbp
	.cfi_def_cfa_offset 16
	.cfi_offset %rbp, -16
	movq	%rsp, %rbp
	.cfi_def_cfa_register %rbp
	subq	$32, %rsp
	movl	$449170110, -8(%rbp)    # imm = 0x1AC5CABE
	movl	%edi, -20(%rbp)
	vmovss	%xmm0, -16(%rbp)
	vmovss	%xmm1, -4(%rbp)
	vmovss	%xmm2, -12(%rbp)
	callq	put_buffer_frame
	movq	input, %rax
	cmpl	$0, 2880(%rax)
	jne	.LBB42_2
# %bb.1:                                # %lor.lhs.false
	movq	input, %rax
	cmpl	$0, 2884(%rax)
	je	.LBB42_3
.LBB42_2:                               # %if.then
	movq	img, %rax
	movl	60(%rax), %eax
	cltd
	movl	$2, %ecx
	idivl	%ecx
	movq	img, %rdx
	movl	%eax, 60(%rdx)
	movq	img, %rax
	movl	64(%rax), %eax
	cltd
	idivl	%ecx
	movq	img, %rcx
	movl	%eax, 64(%rcx)
	movq	img, %rax
	movl	(%rax), %ecx
	shll	$1, %ecx
	movl	%ecx, (%rax)
	callq	put_buffer_top
	movq	img, %rax
	movl	(%rax), %ecx
	addl	$1, %ecx
	movl	%ecx, (%rax)
	callq	put_buffer_bot
	movq	img, %rcx
	movl	(%rcx), %eax
	cltd
	movl	$2, %esi
	idivl	%esi
	movl	%eax, (%rcx)
	movq	input, %rax
	movl	68(%rax), %eax
	movq	img, %rcx
	addl	72732(%rcx), %eax
	movq	img, %rcx
	movl	%eax, 60(%rcx)
	movq	img, %rax
	movl	68(%rax), %eax
	movq	img, %rcx
	movl	%eax, 64(%rcx)
	movq	img, %rax
	movl	52(%rax), %eax
	movq	img, %rcx
	imull	60(%rcx), %eax
	cltd
	movl	$256, %ecx              # imm = 0x100
	idivl	%ecx
	movq	img, %rcx
	movl	%eax, 16(%rcx)
	vmovss	-16(%rbp), %xmm0        # xmm0 = mem[0],zero,zero,zero
	movq	snr, %rax
	vmovss	%xmm0, (%rax)
	vmovss	-4(%rbp), %xmm0         # xmm0 = mem[0],zero,zero,zero
	movq	snr, %rax
	vmovss	%xmm0, 4(%rax)
	vmovss	-12(%rbp), %xmm0        # xmm0 = mem[0],zero,zero,zero
	movq	snr, %rax
	vmovss	%xmm0, 8(%rax)
	callq	put_buffer_frame
.LBB42_3:                               # %if.end
	cmpl	$449170110, -8(%rbp)    # imm = 0x1AC5CABE
	jne	.LBB42_5
.LBB42_4:
	addq	$32, %rsp
	popq	%rbp
	.cfi_def_cfa %rsp, 8
	retq
.LBB42_5:                               # %func_exit
	.cfi_def_cfa %rbp, 16
	callq	detect_breach
	jmp	.LBB42_4
.Lfunc_end42:
	.size	frame_mode_buffer.6, .Lfunc_end42-frame_mode_buffer.6
	.cfi_endproc
                                        # -- End function
	.globl	copy_rdopt_data.7       # -- Begin function copy_rdopt_data.7
	.p2align	4, 0x90
	.type	copy_rdopt_data.7,@function
copy_rdopt_data.7:                      # @copy_rdopt_data.7
	.cfi_startproc
# %bb.0:                                # %entry
	pushq	%rbp
	.cfi_def_cfa_offset 16
	.cfi_offset %rbp, -16
	movq	%rsp, %rbp
	.cfi_def_cfa_register %rbp
	subq	$64, %rsp
	movl	$989075765, -48(%rbp)   # imm = 0x3AF41935
	movl	%edi, -56(%rbp)
	movq	img, %rax
	movl	12(%rax), %eax
	movl	%eax, -52(%rbp)
	movq	img, %rax
	movq	14168(%rax), %rax
	movslq	-52(%rbp), %rcx
	imulq	$632, %rcx, %rcx        # imm = 0x278
	addq	%rcx, %rax
	movq	%rax, -24(%rbp)
	movq	img, %rax
	cmpl	$1, 24(%rax)
	sete	%al
	andb	$1, %al
	movzbl	%al, %eax
	movl	%eax, -36(%rbp)
	movq	img, %rax
	cmpl	$0, 72400(%rax)
	je	.LBB43_3
# %bb.1:                                # %land.lhs.true
	movq	-24(%rbp), %rax
	cmpl	$0, 532(%rax)
	je	.LBB43_3
# %bb.2:                                # %cond.true
	movq	img, %rax
	movl	12(%rax), %eax
	cltd
	movl	$2, %ecx
	idivl	%ecx
	cmpl	$0, %edx
	movl	$4, %eax
	cmovnel	%eax, %ecx
	jmp	.LBB43_4
.LBB43_3:                               # %cond.false
	xorl	%ecx, %ecx
	jmp	.LBB43_4
.LBB43_4:                               # %cond.end
	movl	%ecx, -40(%rbp)
	movq	rdopt, %rax
	movl	3224(%rax), %eax
	movl	%eax, -28(%rbp)
	movq	rdopt, %rax
	movl	3096(%rax), %eax
	movq	-24(%rbp), %rcx
	movl	%eax, 72(%rcx)
	movq	rdopt, %rax
	movl	3208(%rax), %eax
	movq	-24(%rbp), %rcx
	movl	%eax, 460(%rcx)
	movq	rdopt, %rax
	movq	3216(%rax), %rax
	movq	-24(%rbp), %rcx
	movq	%rax, 464(%rcx)
	movq	rdopt, %rax
	movl	3100(%rax), %eax
	movq	-24(%rbp), %rcx
	movl	%eax, 580(%rcx)
	movq	rdopt, %rax
	movl	3328(%rax), %eax
	movq	img, %rcx
	movl	%eax, 72380(%rcx)
	movq	rdopt, %rax
	movl	3348(%rax), %eax
	movq	-24(%rbp), %rcx
	movl	%eax, 592(%rcx)
	movq	rdopt, %rax
	movl	3352(%rax), %eax
	movq	-24(%rbp), %rcx
	movl	%eax, 596(%rcx)
	movq	rdopt, %rax
	movl	3344(%rax), %eax
	movq	-24(%rbp), %rcx
	movl	%eax, 12(%rcx)
	movq	rdopt, %rax
	movl	3332(%rax), %eax
	movq	-24(%rbp), %rcx
	movl	%eax, 524(%rcx)
	movl	$0, -4(%rbp)
.LBB43_5:                               # %for.cond
                                        # =>This Loop Header: Depth=1
                                        #     Child Loop BB43_7 Depth 2
                                        #       Child Loop BB43_9 Depth 3
                                        #         Child Loop BB43_11 Depth 4
	movl	-4(%rbp), %eax
	movq	img, %rcx
	movl	72692(%rcx), %ecx
	addl	$4, %ecx
	cmpl	%ecx, %eax
	jge	.LBB43_20
# %bb.6:                                # %for.body
                                        #   in Loop: Header=BB43_5 Depth=1
	movl	$0, -8(%rbp)
.LBB43_7:                               # %for.cond17
                                        #   Parent Loop BB43_5 Depth=1
                                        # =>  This Loop Header: Depth=2
                                        #       Child Loop BB43_9 Depth 3
                                        #         Child Loop BB43_11 Depth 4
	cmpl	$4, -8(%rbp)
	jge	.LBB43_18
# %bb.8:                                # %for.body20
                                        #   in Loop: Header=BB43_7 Depth=2
	movl	$0, -12(%rbp)
.LBB43_9:                               # %for.cond21
                                        #   Parent Loop BB43_5 Depth=1
                                        #     Parent Loop BB43_7 Depth=2
                                        # =>    This Loop Header: Depth=3
                                        #         Child Loop BB43_11 Depth 4
	cmpl	$2, -12(%rbp)
	jge	.LBB43_16
# %bb.10:                               # %for.body24
                                        #   in Loop: Header=BB43_9 Depth=3
	movl	$0, -16(%rbp)
.LBB43_11:                              # %for.cond25
                                        #   Parent Loop BB43_5 Depth=1
                                        #     Parent Loop BB43_7 Depth=2
                                        #       Parent Loop BB43_9 Depth=3
                                        # =>      This Inner Loop Header: Depth=4
	cmpl	$65, -16(%rbp)
	jge	.LBB43_14
# %bb.12:                               # %for.body28
                                        #   in Loop: Header=BB43_11 Depth=4
	movq	rdopt, %rax
	movq	3080(%rax), %rax
	movslq	-4(%rbp), %rcx
	movq	(%rax,%rcx,8), %rax
	movslq	-8(%rbp), %rcx
	movq	(%rax,%rcx,8), %rax
	movslq	-12(%rbp), %rcx
	movq	(%rax,%rcx,8), %rax
	movslq	-16(%rbp), %rcx
	movl	(%rax,%rcx,4), %eax
	movq	img, %rcx
	movq	14136(%rcx), %rcx
	movslq	-4(%rbp), %rdx
	movq	(%rcx,%rdx,8), %rcx
	movslq	-8(%rbp), %rdx
	movq	(%rcx,%rdx,8), %rcx
	movslq	-12(%rbp), %rdx
	movq	(%rcx,%rdx,8), %rcx
	movslq	-16(%rbp), %rdx
	movl	%eax, (%rcx,%rdx,4)
# %bb.13:                               # %for.inc
                                        #   in Loop: Header=BB43_11 Depth=4
	movl	-16(%rbp), %eax
	addl	$1, %eax
	movl	%eax, -16(%rbp)
	jmp	.LBB43_11
.LBB43_14:                              # %for.end
                                        #   in Loop: Header=BB43_9 Depth=3
	jmp	.LBB43_15
.LBB43_15:                              # %for.inc46
                                        #   in Loop: Header=BB43_9 Depth=3
	movl	-12(%rbp), %eax
	addl	$1, %eax
	movl	%eax, -12(%rbp)
	jmp	.LBB43_9
.LBB43_16:                              # %for.end48
                                        #   in Loop: Header=BB43_7 Depth=2
	jmp	.LBB43_17
.LBB43_17:                              # %for.inc49
                                        #   in Loop: Header=BB43_7 Depth=2
	movl	-8(%rbp), %eax
	addl	$1, %eax
	movl	%eax, -8(%rbp)
	jmp	.LBB43_7
.LBB43_18:                              # %for.end51
                                        #   in Loop: Header=BB43_5 Depth=1
	jmp	.LBB43_19
.LBB43_19:                              # %for.inc52
                                        #   in Loop: Header=BB43_5 Depth=1
	movl	-4(%rbp), %eax
	addl	$1, %eax
	movl	%eax, -4(%rbp)
	jmp	.LBB43_5
.LBB43_20:                              # %for.end54
	movl	$0, -4(%rbp)
.LBB43_21:                              # %for.cond55
                                        # =>This Loop Header: Depth=1
                                        #     Child Loop BB43_23 Depth 2
                                        #       Child Loop BB43_25 Depth 3
	cmpl	$3, -4(%rbp)
	jge	.LBB43_32
# %bb.22:                               # %for.body58
                                        #   in Loop: Header=BB43_21 Depth=1
	movl	$0, -12(%rbp)
.LBB43_23:                              # %for.cond59
                                        #   Parent Loop BB43_21 Depth=1
                                        # =>  This Loop Header: Depth=2
                                        #       Child Loop BB43_25 Depth 3
	cmpl	$2, -12(%rbp)
	jge	.LBB43_30
# %bb.24:                               # %for.body62
                                        #   in Loop: Header=BB43_23 Depth=2
	movl	$0, -16(%rbp)
.LBB43_25:                              # %for.cond63
                                        #   Parent Loop BB43_21 Depth=1
                                        #     Parent Loop BB43_23 Depth=2
                                        # =>    This Inner Loop Header: Depth=3
	cmpl	$18, -16(%rbp)
	jge	.LBB43_28
# %bb.26:                               # %for.body66
                                        #   in Loop: Header=BB43_25 Depth=3
	movq	rdopt, %rax
	movq	3088(%rax), %rax
	movslq	-4(%rbp), %rcx
	movq	(%rax,%rcx,8), %rax
	movslq	-12(%rbp), %rcx
	movq	(%rax,%rcx,8), %rax
	movslq	-16(%rbp), %rcx
	movl	(%rax,%rcx,4), %eax
	movq	img, %rcx
	movq	14144(%rcx), %rcx
	movslq	-4(%rbp), %rdx
	movq	(%rcx,%rdx,8), %rcx
	movslq	-12(%rbp), %rdx
	movq	(%rcx,%rdx,8), %rcx
	movslq	-16(%rbp), %rdx
	movl	%eax, (%rcx,%rdx,4)
# %bb.27:                               # %for.inc80
                                        #   in Loop: Header=BB43_25 Depth=3
	movl	-16(%rbp), %eax
	addl	$1, %eax
	movl	%eax, -16(%rbp)
	jmp	.LBB43_25
.LBB43_28:                              # %for.end82
                                        #   in Loop: Header=BB43_23 Depth=2
	jmp	.LBB43_29
.LBB43_29:                              # %for.inc83
                                        #   in Loop: Header=BB43_23 Depth=2
	movl	-12(%rbp), %eax
	addl	$1, %eax
	movl	%eax, -12(%rbp)
	jmp	.LBB43_23
.LBB43_30:                              # %for.end85
                                        #   in Loop: Header=BB43_21 Depth=1
	jmp	.LBB43_31
.LBB43_31:                              # %for.inc86
                                        #   in Loop: Header=BB43_21 Depth=1
	movl	-4(%rbp), %eax
	addl	$1, %eax
	movl	%eax, -4(%rbp)
	jmp	.LBB43_21
.LBB43_32:                              # %for.end88
	movl	$0, -8(%rbp)
.LBB43_33:                              # %for.cond89
                                        # =>This Loop Header: Depth=1
                                        #     Child Loop BB43_35 Depth 2
	cmpl	$4, -8(%rbp)
	jge	.LBB43_42
# %bb.34:                               # %for.body92
                                        #   in Loop: Header=BB43_33 Depth=1
	movl	$0, -4(%rbp)
.LBB43_35:                              # %for.cond93
                                        #   Parent Loop BB43_33 Depth=1
                                        # =>  This Inner Loop Header: Depth=2
	cmpl	$4, -4(%rbp)
	jge	.LBB43_40
# %bb.36:                               # %for.body96
                                        #   in Loop: Header=BB43_35 Depth=2
	movq	rdopt, %rax
	addq	$3264, %rax             # imm = 0xCC0
	movslq	-8(%rbp), %rcx
	shlq	$3, %rcx
	addq	%rcx, %rax
	movslq	-4(%rbp), %rcx
	movw	(%rax,%rcx,2), %ax
	movq	enc_picture, %rcx
	movq	6480(%rcx), %rcx
	movq	(%rcx), %rcx
	movq	img, %rdx
	movl	144(%rdx), %edx
	addl	-4(%rbp), %edx
	movslq	%edx, %rdx
	movq	(%rcx,%rdx,8), %rcx
	movq	img, %rdx
	movl	148(%rdx), %edx
	addl	-8(%rbp), %edx
	movslq	%edx, %rdx
	movw	%ax, (%rcx,%rdx,2)
	movq	enc_picture, %rax
	addq	$24, %rax
	movl	-40(%rbp), %ecx
	addl	$0, %ecx
	movslq	%ecx, %rcx
	imulq	$264, %rcx, %rcx        # imm = 0x108
	addq	%rcx, %rax
	movq	enc_picture, %rcx
	movq	6480(%rcx), %rcx
	movq	(%rcx), %rcx
	movq	img, %rdx
	movl	144(%rdx), %edx
	addl	-4(%rbp), %edx
	movslq	%edx, %rdx
	movq	(%rcx,%rdx,8), %rcx
	movq	img, %rdx
	movl	148(%rdx), %edx
	addl	-8(%rbp), %edx
	movslq	%edx, %rdx
	movswq	(%rcx,%rdx,2), %rcx
	movq	(%rax,%rcx,8), %rax
	movq	enc_picture, %rcx
	movq	6488(%rcx), %rcx
	movq	(%rcx), %rcx
	movq	img, %rdx
	movl	144(%rdx), %edx
	addl	-4(%rbp), %edx
	movslq	%edx, %rdx
	movq	(%rcx,%rdx,8), %rcx
	movq	img, %rdx
	movl	148(%rdx), %edx
	addl	-8(%rbp), %edx
	movslq	%edx, %rdx
	movq	%rax, (%rcx,%rdx,8)
	cmpl	$0, -36(%rbp)
	je	.LBB43_38
# %bb.37:                               # %if.then
                                        #   in Loop: Header=BB43_35 Depth=2
	movq	rdopt, %rax
	addq	$3264, %rax             # imm = 0xCC0
	addq	$32, %rax
	movslq	-8(%rbp), %rcx
	shlq	$3, %rcx
	addq	%rcx, %rax
	movslq	-4(%rbp), %rcx
	movw	(%rax,%rcx,2), %ax
	movq	enc_picture, %rcx
	movq	6480(%rcx), %rcx
	movq	8(%rcx), %rcx
	movq	img, %rdx
	movl	144(%rdx), %edx
	addl	-4(%rbp), %edx
	movslq	%edx, %rdx
	movq	(%rcx,%rdx,8), %rcx
	movq	img, %rdx
	movl	148(%rdx), %edx
	addl	-8(%rbp), %edx
	movslq	%edx, %rdx
	movw	%ax, (%rcx,%rdx,2)
	movq	enc_picture, %rax
	addq	$24, %rax
	movl	-40(%rbp), %ecx
	addl	$1, %ecx
	movslq	%ecx, %rcx
	imulq	$264, %rcx, %rcx        # imm = 0x108
	addq	%rcx, %rax
	movq	enc_picture, %rcx
	movq	6480(%rcx), %rcx
	movq	8(%rcx), %rcx
	movq	img, %rdx
	movl	144(%rdx), %edx
	addl	-4(%rbp), %edx
	movslq	%edx, %rdx
	movq	(%rcx,%rdx,8), %rcx
	movq	img, %rdx
	movl	148(%rdx), %edx
	addl	-8(%rbp), %edx
	movslq	%edx, %rdx
	movswq	(%rcx,%rdx,2), %rcx
	movq	(%rax,%rcx,8), %rax
	movq	enc_picture, %rcx
	movq	6488(%rcx), %rcx
	movq	8(%rcx), %rcx
	movq	img, %rdx
	movl	144(%rdx), %edx
	addl	-4(%rbp), %edx
	movslq	%edx, %rdx
	movq	(%rcx,%rdx,8), %rcx
	movq	img, %rdx
	movl	148(%rdx), %edx
	addl	-8(%rbp), %edx
	movslq	%edx, %rdx
	movq	%rax, (%rcx,%rdx,8)
.LBB43_38:                              # %if.end
                                        #   in Loop: Header=BB43_35 Depth=2
	jmp	.LBB43_39
.LBB43_39:                              # %for.inc176
                                        #   in Loop: Header=BB43_35 Depth=2
	movl	-4(%rbp), %eax
	addl	$1, %eax
	movl	%eax, -4(%rbp)
	jmp	.LBB43_35
.LBB43_40:                              # %for.end178
                                        #   in Loop: Header=BB43_33 Depth=1
	jmp	.LBB43_41
.LBB43_41:                              # %for.inc179
                                        #   in Loop: Header=BB43_33 Depth=1
	movl	-8(%rbp), %eax
	addl	$1, %eax
	movl	%eax, -8(%rbp)
	jmp	.LBB43_33
.LBB43_42:                              # %for.end181
	movl	$0, -8(%rbp)
.LBB43_43:                              # %for.cond182
                                        # =>This Loop Header: Depth=1
                                        #     Child Loop BB43_45 Depth 2
	cmpl	$16, -8(%rbp)
	jge	.LBB43_50
# %bb.44:                               # %for.body185
                                        #   in Loop: Header=BB43_43 Depth=1
	movl	$0, -4(%rbp)
.LBB43_45:                              # %for.cond186
                                        #   Parent Loop BB43_43 Depth=1
                                        # =>  This Inner Loop Header: Depth=2
	cmpl	$16, -4(%rbp)
	jge	.LBB43_48
# %bb.46:                               # %for.body189
                                        #   in Loop: Header=BB43_45 Depth=2
	movq	rdopt, %rax
	addq	$8, %rax
	movslq	-8(%rbp), %rcx
	shlq	$6, %rcx
	addq	%rcx, %rax
	movslq	-4(%rbp), %rcx
	movl	(%rax,%rcx,4), %eax
	movq	enc_picture, %rcx
	movq	6424(%rcx), %rcx
	movq	img, %rdx
	movl	156(%rdx), %edx
	addl	-8(%rbp), %edx
	movslq	%edx, %rdx
	movq	(%rcx,%rdx,8), %rcx
	movq	img, %rdx
	movl	152(%rdx), %edx
	addl	-4(%rbp), %edx
	movslq	%edx, %rdx
	movw	%ax, (%rcx,%rdx,2)
# %bb.47:                               # %for.inc201
                                        #   in Loop: Header=BB43_45 Depth=2
	movl	-4(%rbp), %eax
	addl	$1, %eax
	movl	%eax, -4(%rbp)
	jmp	.LBB43_45
.LBB43_48:                              # %for.end203
                                        #   in Loop: Header=BB43_43 Depth=1
	jmp	.LBB43_49
.LBB43_49:                              # %for.inc204
                                        #   in Loop: Header=BB43_43 Depth=1
	movl	-8(%rbp), %eax
	addl	$1, %eax
	movl	%eax, -8(%rbp)
	jmp	.LBB43_43
.LBB43_50:                              # %for.end206
	movq	img, %rax
	cmpl	$0, 72700(%rax)
	je	.LBB43_60
# %bb.51:                               # %if.then209
	movl	$0, -8(%rbp)
.LBB43_52:                              # %for.cond210
                                        # =>This Loop Header: Depth=1
                                        #     Child Loop BB43_54 Depth 2
	movl	-8(%rbp), %eax
	movq	img, %rcx
	cmpl	72712(%rcx), %eax
	jge	.LBB43_59
# %bb.53:                               # %for.body213
                                        #   in Loop: Header=BB43_52 Depth=1
	movl	$0, -4(%rbp)
.LBB43_54:                              # %for.cond214
                                        #   Parent Loop BB43_52 Depth=1
                                        # =>  This Inner Loop Header: Depth=2
	movl	-4(%rbp), %eax
	movq	img, %rcx
	cmpl	72708(%rcx), %eax
	jge	.LBB43_57
# %bb.55:                               # %for.body217
                                        #   in Loop: Header=BB43_54 Depth=2
	movq	rdopt, %rax
	addq	$1032, %rax             # imm = 0x408
	movslq	-8(%rbp), %rcx
	shlq	$6, %rcx
	addq	%rcx, %rax
	movslq	-4(%rbp), %rcx
	movl	(%rax,%rcx,4), %eax
	movq	enc_picture, %rcx
	movq	6464(%rcx), %rcx
	movq	(%rcx), %rcx
	movq	img, %rdx
	movl	164(%rdx), %edx
	addl	-8(%rbp), %edx
	movslq	%edx, %rdx
	movq	(%rcx,%rdx,8), %rcx
	movq	img, %rdx
	movl	160(%rdx), %edx
	addl	-4(%rbp), %edx
	movslq	%edx, %rdx
	movw	%ax, (%rcx,%rdx,2)
	movq	rdopt, %rax
	addq	$2056, %rax             # imm = 0x808
	movslq	-8(%rbp), %rcx
	shlq	$6, %rcx
	addq	%rcx, %rax
	movslq	-4(%rbp), %rcx
	movl	(%rax,%rcx,4), %eax
	movq	enc_picture, %rcx
	movq	6464(%rcx), %rcx
	movq	8(%rcx), %rcx
	movq	img, %rdx
	movl	164(%rdx), %edx
	addl	-8(%rbp), %edx
	movslq	%edx, %rdx
	movq	(%rcx,%rdx,8), %rcx
	movq	img, %rdx
	movl	160(%rdx), %edx
	addl	-4(%rbp), %edx
	movslq	%edx, %rdx
	movw	%ax, (%rcx,%rdx,2)
# %bb.56:                               # %for.inc245
                                        #   in Loop: Header=BB43_54 Depth=2
	movl	-4(%rbp), %eax
	addl	$1, %eax
	movl	%eax, -4(%rbp)
	jmp	.LBB43_54
.LBB43_57:                              # %for.end247
                                        #   in Loop: Header=BB43_52 Depth=1
	jmp	.LBB43_58
.LBB43_58:                              # %for.inc248
                                        #   in Loop: Header=BB43_52 Depth=1
	movl	-8(%rbp), %eax
	addl	$1, %eax
	movl	%eax, -8(%rbp)
	jmp	.LBB43_52
.LBB43_59:                              # %for.end250
	jmp	.LBB43_60
.LBB43_60:                              # %if.end251
	movl	$0, -4(%rbp)
.LBB43_61:                              # %for.cond252
                                        # =>This Inner Loop Header: Depth=1
	cmpl	$4, -4(%rbp)
	jge	.LBB43_64
# %bb.62:                               # %for.body255
                                        #   in Loop: Header=BB43_61 Depth=1
	movq	rdopt, %rax
	movslq	-4(%rbp), %rcx
	movl	3104(%rax,%rcx,4), %eax
	movq	-24(%rbp), %rcx
	movslq	-4(%rbp), %rdx
	movl	%eax, 472(%rcx,%rdx,4)
	movq	rdopt, %rax
	movslq	-4(%rbp), %rcx
	movl	3120(%rax,%rcx,4), %eax
	movq	-24(%rbp), %rcx
	movslq	-4(%rbp), %rdx
	movl	%eax, 488(%rcx,%rdx,4)
# %bb.63:                               # %for.inc268
                                        #   in Loop: Header=BB43_61 Depth=1
	movl	-4(%rbp), %eax
	addl	$1, %eax
	movl	%eax, -4(%rbp)
	jmp	.LBB43_61
.LBB43_64:                              # %for.end270
	movq	rdopt, %rax
	movl	3336(%rax), %eax
	movq	-24(%rbp), %rcx
	movl	%eax, 572(%rcx)
	cmpl	$8, -28(%rbp)
	jne	.LBB43_74
# %bb.65:                               # %if.then274
	movl	$0, -12(%rbp)
	movq	img, %rax
	movl	148(%rax), %eax
	movl	%eax, -8(%rbp)
.LBB43_66:                              # %for.cond276
                                        # =>This Loop Header: Depth=1
                                        #     Child Loop BB43_68 Depth 2
	movl	-8(%rbp), %eax
	movq	img, %rcx
	movl	148(%rcx), %ecx
	addl	$4, %ecx
	cmpl	%ecx, %eax
	jge	.LBB43_73
# %bb.67:                               # %for.body281
                                        #   in Loop: Header=BB43_66 Depth=1
	movq	img, %rax
	movl	144(%rax), %eax
	movl	%eax, -4(%rbp)
.LBB43_68:                              # %for.cond283
                                        #   Parent Loop BB43_66 Depth=1
                                        # =>  This Inner Loop Header: Depth=2
	movl	-4(%rbp), %eax
	movq	img, %rcx
	movl	144(%rcx), %ecx
	addl	$4, %ecx
	cmpl	%ecx, %eax
	jge	.LBB43_71
# %bb.69:                               # %for.body288
                                        #   in Loop: Header=BB43_68 Depth=2
	movq	rdopt, %rax
	movq	3136(%rax), %rax
	movslq	-4(%rbp), %rcx
	movq	(%rax,%rcx,8), %rax
	movslq	-8(%rbp), %rcx
	movl	(%rax,%rcx,4), %eax
	movq	img, %rcx
	movq	104(%rcx), %rcx
	movslq	-4(%rbp), %rdx
	movq	(%rcx,%rdx,8), %rcx
	movslq	-8(%rbp), %rdx
	movl	%eax, (%rcx,%rdx,4)
	movq	rdopt, %rax
	movslq	-12(%rbp), %rcx
	movl	3144(%rax,%rcx,4), %eax
	movq	-24(%rbp), %rcx
	movslq	-12(%rbp), %rdx
	movl	%eax, 332(%rcx,%rdx,4)
# %bb.70:                               # %for.inc303
                                        #   in Loop: Header=BB43_68 Depth=2
	movl	-4(%rbp), %eax
	addl	$1, %eax
	movl	%eax, -4(%rbp)
	movl	-12(%rbp), %eax
	addl	$1, %eax
	movl	%eax, -12(%rbp)
	jmp	.LBB43_68
.LBB43_71:                              # %for.end306
                                        #   in Loop: Header=BB43_66 Depth=1
	jmp	.LBB43_72
.LBB43_72:                              # %for.inc307
                                        #   in Loop: Header=BB43_66 Depth=1
	movl	-8(%rbp), %eax
	addl	$1, %eax
	movl	%eax, -8(%rbp)
	jmp	.LBB43_66
.LBB43_73:                              # %for.end309
	jmp	.LBB43_98
.LBB43_74:                              # %if.else
	cmpl	$9, -28(%rbp)
	je	.LBB43_85
# %bb.75:                               # %land.lhs.true312
	cmpl	$13, -28(%rbp)
	je	.LBB43_85
# %bb.76:                               # %if.then315
	movl	$0, -12(%rbp)
	movq	img, %rax
	movl	148(%rax), %eax
	movl	%eax, -8(%rbp)
.LBB43_77:                              # %for.cond317
                                        # =>This Loop Header: Depth=1
                                        #     Child Loop BB43_79 Depth 2
	movl	-8(%rbp), %eax
	movq	img, %rcx
	movl	148(%rcx), %ecx
	addl	$4, %ecx
	cmpl	%ecx, %eax
	jge	.LBB43_84
# %bb.78:                               # %for.body322
                                        #   in Loop: Header=BB43_77 Depth=1
	movq	img, %rax
	movl	144(%rax), %eax
	movl	%eax, -4(%rbp)
.LBB43_79:                              # %for.cond324
                                        #   Parent Loop BB43_77 Depth=1
                                        # =>  This Inner Loop Header: Depth=2
	movl	-4(%rbp), %eax
	movq	img, %rcx
	movl	144(%rcx), %ecx
	addl	$4, %ecx
	cmpl	%ecx, %eax
	jge	.LBB43_82
# %bb.80:                               # %for.body329
                                        #   in Loop: Header=BB43_79 Depth=2
	movq	img, %rax
	movq	104(%rax), %rax
	movslq	-4(%rbp), %rcx
	movq	(%rax,%rcx,8), %rax
	movslq	-8(%rbp), %rcx
	movl	$2, (%rax,%rcx,4)
	movq	-24(%rbp), %rax
	movslq	-12(%rbp), %rcx
	movl	$2, 332(%rax,%rcx,4)
# %bb.81:                               # %for.inc338
                                        #   in Loop: Header=BB43_79 Depth=2
	movl	-4(%rbp), %eax
	addl	$1, %eax
	movl	%eax, -4(%rbp)
	movl	-12(%rbp), %eax
	addl	$1, %eax
	movl	%eax, -12(%rbp)
	jmp	.LBB43_79
.LBB43_82:                              # %for.end341
                                        #   in Loop: Header=BB43_77 Depth=1
	jmp	.LBB43_83
.LBB43_83:                              # %for.inc342
                                        #   in Loop: Header=BB43_77 Depth=1
	movl	-8(%rbp), %eax
	addl	$1, %eax
	movl	%eax, -8(%rbp)
	jmp	.LBB43_77
.LBB43_84:                              # %for.end344
	jmp	.LBB43_97
.LBB43_85:                              # %if.else345
	cmpl	$9, -28(%rbp)
	je	.LBB43_87
# %bb.86:                               # %lor.lhs.false
	cmpl	$13, -28(%rbp)
	jne	.LBB43_96
.LBB43_87:                              # %if.then350
	movl	$0, -12(%rbp)
	movq	img, %rax
	movl	148(%rax), %eax
	movl	%eax, -8(%rbp)
.LBB43_88:                              # %for.cond352
                                        # =>This Loop Header: Depth=1
                                        #     Child Loop BB43_90 Depth 2
	movl	-8(%rbp), %eax
	movq	img, %rcx
	movl	148(%rcx), %ecx
	addl	$4, %ecx
	cmpl	%ecx, %eax
	jge	.LBB43_95
# %bb.89:                               # %for.body357
                                        #   in Loop: Header=BB43_88 Depth=1
	movq	img, %rax
	movl	144(%rax), %eax
	movl	%eax, -4(%rbp)
.LBB43_90:                              # %for.cond359
                                        #   Parent Loop BB43_88 Depth=1
                                        # =>  This Inner Loop Header: Depth=2
	movl	-4(%rbp), %eax
	movq	img, %rcx
	movl	144(%rcx), %ecx
	addl	$4, %ecx
	cmpl	%ecx, %eax
	jge	.LBB43_93
# %bb.91:                               # %for.body364
                                        #   in Loop: Header=BB43_90 Depth=2
	movq	rdopt, %rax
	movq	3136(%rax), %rax
	movslq	-4(%rbp), %rcx
	movq	(%rax,%rcx,8), %rax
	movslq	-8(%rbp), %rcx
	movl	(%rax,%rcx,4), %eax
	movq	img, %rcx
	movq	104(%rcx), %rcx
	movslq	-4(%rbp), %rdx
	movq	(%rcx,%rdx,8), %rcx
	movslq	-8(%rbp), %rdx
	movl	%eax, (%rcx,%rdx,4)
	movq	rdopt, %rax
	movslq	-12(%rbp), %rcx
	movl	3144(%rax,%rcx,4), %eax
	movq	-24(%rbp), %rcx
	movslq	-12(%rbp), %rdx
	movl	%eax, 332(%rcx,%rdx,4)
# %bb.92:                               # %for.inc381
                                        #   in Loop: Header=BB43_90 Depth=2
	movl	-4(%rbp), %eax
	addl	$1, %eax
	movl	%eax, -4(%rbp)
	movl	-12(%rbp), %eax
	addl	$1, %eax
	movl	%eax, -12(%rbp)
	jmp	.LBB43_90
.LBB43_93:                              # %for.end384
                                        #   in Loop: Header=BB43_88 Depth=1
	jmp	.LBB43_94
.LBB43_94:                              # %for.inc385
                                        #   in Loop: Header=BB43_88 Depth=1
	movl	-8(%rbp), %eax
	addl	$1, %eax
	movl	%eax, -8(%rbp)
	jmp	.LBB43_88
.LBB43_95:                              # %for.end387
	jmp	.LBB43_96
.LBB43_96:                              # %if.end388
	jmp	.LBB43_97
.LBB43_97:                              # %if.end389
	jmp	.LBB43_98
.LBB43_98:                              # %if.end390
	movq	img, %rax
	cmpl	$0, 72400(%rax)
	je	.LBB43_131
# %bb.99:                               # %if.then393
	callq	copy_motion_vectors_MB
	movq	-24(%rbp), %rax
	cmpl	$9, 72(%rax)
	je	.LBB43_119
# %bb.100:                              # %lor.lhs.false397
	movq	-24(%rbp), %rax
	cmpl	$10, 72(%rax)
	je	.LBB43_119
# %bb.101:                              # %lor.lhs.false401
	movq	-24(%rbp), %rax
	cmpl	$13, 72(%rax)
	je	.LBB43_119
# %bb.102:                              # %if.then405
	movl	$0, -8(%rbp)
.LBB43_103:                             # %for.cond406
                                        # =>This Loop Header: Depth=1
                                        #     Child Loop BB43_105 Depth 2
	cmpl	$4, -8(%rbp)
	jge	.LBB43_118
# %bb.104:                              # %for.body409
                                        #   in Loop: Header=BB43_103 Depth=1
	movl	$0, -4(%rbp)
.LBB43_105:                             # %for.cond410
                                        #   Parent Loop BB43_103 Depth=1
                                        # =>  This Inner Loop Header: Depth=2
	cmpl	$4, -4(%rbp)
	jge	.LBB43_116
# %bb.106:                              # %for.body413
                                        #   in Loop: Header=BB43_105 Depth=2
	movq	-24(%rbp), %rsi
	movl	-4(%rbp), %eax
	cltd
	movl	$2, %edi
	idivl	%edi
	movl	%eax, %ecx
	movl	-8(%rbp), %eax
	cltd
	idivl	%edi
	shll	$1, %eax
	addl	%eax, %ecx
	movslq	%ecx, %rax
	movl	472(%rsi,%rax,4), %eax
	movl	%eax, -32(%rbp)
	movq	-24(%rbp), %rsi
	movl	-4(%rbp), %eax
	cltd
	idivl	%edi
	movl	%eax, %ecx
	movl	-8(%rbp), %eax
	cltd
	idivl	%edi
	shll	$1, %eax
	addl	%eax, %ecx
	movslq	%ecx, %rax
	movl	488(%rsi,%rax,4), %eax
	movl	%eax, -44(%rbp)
	cmpl	$1, -44(%rbp)
	je	.LBB43_108
# %bb.107:                              # %if.then428
                                        #   in Loop: Header=BB43_105 Depth=2
	movq	rdopt, %rax
	movq	3240(%rax), %rax
	movslq	-4(%rbp), %rcx
	movq	(%rax,%rcx,8), %rax
	movslq	-8(%rbp), %rcx
	movq	(%rax,%rcx,8), %rax
	movq	(%rax), %rax
	movq	rdopt, %rcx
	addq	$3264, %rcx             # imm = 0xCC0
	movslq	-8(%rbp), %rdx
	shlq	$3, %rdx
	addq	%rdx, %rcx
	movslq	-4(%rbp), %rdx
	movswq	(%rcx,%rdx,2), %rcx
	movq	(%rax,%rcx,8), %rax
	movslq	-32(%rbp), %rcx
	movq	(%rax,%rcx,8), %rax
	movw	(%rax), %ax
	movq	enc_picture, %rcx
	movq	6504(%rcx), %rcx
	movq	(%rcx), %rcx
	movl	-4(%rbp), %edx
	movq	img, %rsi
	addl	144(%rsi), %edx
	movslq	%edx, %rdx
	movq	(%rcx,%rdx,8), %rcx
	movl	-8(%rbp), %edx
	movq	img, %rsi
	addl	148(%rsi), %edx
	movslq	%edx, %rdx
	movq	(%rcx,%rdx,8), %rcx
	movw	%ax, (%rcx)
	movq	rdopt, %rax
	movq	3240(%rax), %rax
	movslq	-4(%rbp), %rcx
	movq	(%rax,%rcx,8), %rax
	movslq	-8(%rbp), %rcx
	movq	(%rax,%rcx,8), %rax
	movq	(%rax), %rax
	movq	rdopt, %rcx
	addq	$3264, %rcx             # imm = 0xCC0
	movslq	-8(%rbp), %rdx
	shlq	$3, %rdx
	addq	%rdx, %rcx
	movslq	-4(%rbp), %rdx
	movswq	(%rcx,%rdx,2), %rcx
	movq	(%rax,%rcx,8), %rax
	movslq	-32(%rbp), %rcx
	movq	(%rax,%rcx,8), %rax
	movw	2(%rax), %ax
	movq	enc_picture, %rcx
	movq	6504(%rcx), %rcx
	movq	(%rcx), %rcx
	movl	-4(%rbp), %edx
	movq	img, %rsi
	addl	144(%rsi), %edx
	movslq	%edx, %rdx
	movq	(%rcx,%rdx,8), %rcx
	movl	-8(%rbp), %edx
	movq	img, %rsi
	addl	148(%rsi), %edx
	movslq	%edx, %rdx
	movq	(%rcx,%rdx,8), %rcx
	movw	%ax, 2(%rcx)
	jmp	.LBB43_109
.LBB43_108:                             # %if.else483
                                        #   in Loop: Header=BB43_105 Depth=2
	movq	enc_picture, %rax
	movq	6504(%rax), %rax
	movq	(%rax), %rax
	movl	-4(%rbp), %ecx
	movq	img, %rdx
	addl	144(%rdx), %ecx
	movslq	%ecx, %rcx
	movq	(%rax,%rcx,8), %rax
	movl	-8(%rbp), %ecx
	movq	img, %rdx
	addl	148(%rdx), %ecx
	movslq	%ecx, %rcx
	movq	(%rax,%rcx,8), %rax
	movw	$0, (%rax)
	movq	enc_picture, %rax
	movq	6504(%rax), %rax
	movq	(%rax), %rax
	movl	-4(%rbp), %ecx
	movq	img, %rdx
	addl	144(%rdx), %ecx
	movslq	%ecx, %rcx
	movq	(%rax,%rcx,8), %rax
	movl	-8(%rbp), %ecx
	movq	img, %rdx
	addl	148(%rdx), %ecx
	movslq	%ecx, %rcx
	movq	(%rax,%rcx,8), %rax
	movw	$0, 2(%rax)
.LBB43_109:                             # %if.end506
                                        #   in Loop: Header=BB43_105 Depth=2
	cmpl	$0, -36(%rbp)
	je	.LBB43_114
# %bb.110:                              # %if.then508
                                        #   in Loop: Header=BB43_105 Depth=2
	cmpl	$0, -44(%rbp)
	je	.LBB43_112
# %bb.111:                              # %if.then511
                                        #   in Loop: Header=BB43_105 Depth=2
	movq	rdopt, %rax
	movq	3240(%rax), %rax
	movslq	-4(%rbp), %rcx
	movq	(%rax,%rcx,8), %rax
	movslq	-8(%rbp), %rcx
	movq	(%rax,%rcx,8), %rax
	movq	8(%rax), %rax
	movq	rdopt, %rcx
	addq	$3264, %rcx             # imm = 0xCC0
	addq	$32, %rcx
	movslq	-8(%rbp), %rdx
	shlq	$3, %rdx
	addq	%rdx, %rcx
	movslq	-4(%rbp), %rdx
	movswq	(%rcx,%rdx,2), %rcx
	movq	(%rax,%rcx,8), %rax
	movslq	-32(%rbp), %rcx
	movq	(%rax,%rcx,8), %rax
	movw	(%rax), %ax
	movq	enc_picture, %rcx
	movq	6504(%rcx), %rcx
	movq	8(%rcx), %rcx
	movl	-4(%rbp), %edx
	movq	img, %rsi
	addl	144(%rsi), %edx
	movslq	%edx, %rdx
	movq	(%rcx,%rdx,8), %rcx
	movl	-8(%rbp), %edx
	movq	img, %rsi
	addl	148(%rsi), %edx
	movslq	%edx, %rdx
	movq	(%rcx,%rdx,8), %rcx
	movw	%ax, (%rcx)
	movq	rdopt, %rax
	movq	3240(%rax), %rax
	movslq	-4(%rbp), %rcx
	movq	(%rax,%rcx,8), %rax
	movslq	-8(%rbp), %rcx
	movq	(%rax,%rcx,8), %rax
	movq	8(%rax), %rax
	movq	rdopt, %rcx
	addq	$3264, %rcx             # imm = 0xCC0
	addq	$32, %rcx
	movslq	-8(%rbp), %rdx
	shlq	$3, %rdx
	addq	%rdx, %rcx
	movslq	-4(%rbp), %rdx
	movswq	(%rcx,%rdx,2), %rcx
	movq	(%rax,%rcx,8), %rax
	movslq	-32(%rbp), %rcx
	movq	(%rax,%rcx,8), %rax
	movw	2(%rax), %ax
	movq	enc_picture, %rcx
	movq	6504(%rcx), %rcx
	movq	8(%rcx), %rcx
	movl	-4(%rbp), %edx
	movq	img, %rsi
	addl	144(%rsi), %edx
	movslq	%edx, %rdx
	movq	(%rcx,%rdx,8), %rcx
	movl	-8(%rbp), %edx
	movq	img, %rsi
	addl	148(%rsi), %edx
	movslq	%edx, %rdx
	movq	(%rcx,%rdx,8), %rcx
	movw	%ax, 2(%rcx)
	jmp	.LBB43_113
.LBB43_112:                             # %if.else568
                                        #   in Loop: Header=BB43_105 Depth=2
	movq	enc_picture, %rax
	movq	6504(%rax), %rax
	movq	8(%rax), %rax
	movl	-4(%rbp), %ecx
	movq	img, %rdx
	addl	144(%rdx), %ecx
	movslq	%ecx, %rcx
	movq	(%rax,%rcx,8), %rax
	movl	-8(%rbp), %ecx
	movq	img, %rdx
	addl	148(%rdx), %ecx
	movslq	%ecx, %rcx
	movq	(%rax,%rcx,8), %rax
	movw	$0, (%rax)
	movq	enc_picture, %rax
	movq	6504(%rax), %rax
	movq	8(%rax), %rax
	movl	-4(%rbp), %ecx
	movq	img, %rdx
	addl	144(%rdx), %ecx
	movslq	%ecx, %rcx
	movq	(%rax,%rcx,8), %rax
	movl	-8(%rbp), %ecx
	movq	img, %rdx
	addl	148(%rdx), %ecx
	movslq	%ecx, %rcx
	movq	(%rax,%rcx,8), %rax
	movw	$0, 2(%rax)
.LBB43_113:                             # %if.end591
                                        #   in Loop: Header=BB43_105 Depth=2
	jmp	.LBB43_114
.LBB43_114:                             # %if.end592
                                        #   in Loop: Header=BB43_105 Depth=2
	jmp	.LBB43_115
.LBB43_115:                             # %for.inc593
                                        #   in Loop: Header=BB43_105 Depth=2
	movl	-4(%rbp), %eax
	addl	$1, %eax
	movl	%eax, -4(%rbp)
	jmp	.LBB43_105
.LBB43_116:                             # %for.end595
                                        #   in Loop: Header=BB43_103 Depth=1
	jmp	.LBB43_117
.LBB43_117:                             # %for.inc596
                                        #   in Loop: Header=BB43_103 Depth=1
	movl	-8(%rbp), %eax
	addl	$1, %eax
	movl	%eax, -8(%rbp)
	jmp	.LBB43_103
.LBB43_118:                             # %for.end598
	jmp	.LBB43_130
.LBB43_119:                             # %if.else599
	movl	$0, -8(%rbp)
.LBB43_120:                             # %for.cond600
                                        # =>This Loop Header: Depth=1
                                        #     Child Loop BB43_122 Depth 2
	cmpl	$4, -8(%rbp)
	jge	.LBB43_129
# %bb.121:                              # %for.body603
                                        #   in Loop: Header=BB43_120 Depth=1
	movl	$0, -4(%rbp)
.LBB43_122:                             # %for.cond604
                                        #   Parent Loop BB43_120 Depth=1
                                        # =>  This Inner Loop Header: Depth=2
	cmpl	$4, -4(%rbp)
	jge	.LBB43_127
# %bb.123:                              # %for.body607
                                        #   in Loop: Header=BB43_122 Depth=2
	movq	enc_picture, %rax
	movq	6504(%rax), %rax
	movq	(%rax), %rax
	movl	-4(%rbp), %ecx
	movq	img, %rdx
	addl	144(%rdx), %ecx
	movslq	%ecx, %rcx
	movq	(%rax,%rcx,8), %rax
	movl	-8(%rbp), %ecx
	movq	img, %rdx
	addl	148(%rdx), %ecx
	movslq	%ecx, %rcx
	movq	(%rax,%rcx,8), %rax
	movw	$0, (%rax)
	movq	enc_picture, %rax
	movq	6504(%rax), %rax
	movq	(%rax), %rax
	movl	-4(%rbp), %ecx
	movq	img, %rdx
	addl	144(%rdx), %ecx
	movslq	%ecx, %rcx
	movq	(%rax,%rcx,8), %rax
	movl	-8(%rbp), %ecx
	movq	img, %rdx
	addl	148(%rdx), %ecx
	movslq	%ecx, %rcx
	movq	(%rax,%rcx,8), %rax
	movw	$0, 2(%rax)
	cmpl	$0, -36(%rbp)
	je	.LBB43_125
# %bb.124:                              # %if.then631
                                        #   in Loop: Header=BB43_122 Depth=2
	movq	enc_picture, %rax
	movq	6504(%rax), %rax
	movq	8(%rax), %rax
	movl	-4(%rbp), %ecx
	movq	img, %rdx
	addl	144(%rdx), %ecx
	movslq	%ecx, %rcx
	movq	(%rax,%rcx,8), %rax
	movl	-8(%rbp), %ecx
	movq	img, %rdx
	addl	148(%rdx), %ecx
	movslq	%ecx, %rcx
	movq	(%rax,%rcx,8), %rax
	movw	$0, (%rax)
	movq	enc_picture, %rax
	movq	6504(%rax), %rax
	movq	8(%rax), %rax
	movl	-4(%rbp), %ecx
	movq	img, %rdx
	addl	144(%rdx), %ecx
	movslq	%ecx, %rcx
	movq	(%rax,%rcx,8), %rax
	movl	-8(%rbp), %ecx
	movq	img, %rdx
	addl	148(%rdx), %ecx
	movslq	%ecx, %rcx
	movq	(%rax,%rcx,8), %rax
	movw	$0, 2(%rax)
.LBB43_125:                             # %if.end654
                                        #   in Loop: Header=BB43_122 Depth=2
	jmp	.LBB43_126
.LBB43_126:                             # %for.inc655
                                        #   in Loop: Header=BB43_122 Depth=2
	movl	-4(%rbp), %eax
	addl	$1, %eax
	movl	%eax, -4(%rbp)
	jmp	.LBB43_122
.LBB43_127:                             # %for.end657
                                        #   in Loop: Header=BB43_120 Depth=1
	jmp	.LBB43_128
.LBB43_128:                             # %for.inc658
                                        #   in Loop: Header=BB43_120 Depth=1
	movl	-8(%rbp), %eax
	addl	$1, %eax
	movl	%eax, -8(%rbp)
	jmp	.LBB43_120
.LBB43_129:                             # %for.end660
	jmp	.LBB43_130
.LBB43_130:                             # %if.end661
	jmp	.LBB43_131
.LBB43_131:                             # %if.end662
	cmpl	$989075765, -48(%rbp)   # imm = 0x3AF41935
	jne	.LBB43_133
.LBB43_132:
	addq	$64, %rsp
	popq	%rbp
	.cfi_def_cfa %rsp, 8
	retq
.LBB43_133:                             # %func_exit
	.cfi_def_cfa %rbp, 16
	callq	detect_breach
	jmp	.LBB43_132
.Lfunc_end43:
	.size	copy_rdopt_data.7, .Lfunc_end43-copy_rdopt_data.7
	.cfi_endproc
                                        # -- End function
	.section	.rodata.cst8,"aM",@progbits,8
	.p2align	3               # -- Begin function init_frame.8
.LCPI44_0:
	.quad	4607182418800017408     # double 1
	.text
	.p2align	4, 0x90
	.type	init_frame.8,@function
init_frame.8:                           # @init_frame.8
	.cfi_startproc
# %bb.0:                                # %entry
	pushq	%rbp
	.cfi_def_cfa_offset 16
	.cfi_offset %rbp, -16
	movq	%rsp, %rbp
	.cfi_def_cfa_register %rbp
	subq	$16, %rsp
	movl	$190737389, -16(%rbp)   # imm = 0xB5E6BED
	movq	last_P_no_frm, %rax
	movq	%rax, last_P_no
	movq	img, %rax
	movl	$0, 12(%rax)
	movq	img, %rax
	movl	$0, 20(%rax)
	movq	stats, %rax
	movl	$0, 24(%rax)
	movq	img, %rax
	movl	$0, 136(%rax)
	movq	img, %rax
	movl	$0, 140(%rax)
	movq	img, %rax
	movl	$0, 164(%rax)
	movq	img, %rax
	movl	$0, 156(%rax)
	movq	img, %rax
	movl	$0, 148(%rax)
	movq	img, %rax
	movl	$0, 160(%rax)
	movq	img, %rax
	movl	$0, 96(%rax)
	movq	img, %rax
	movl	$0, 152(%rax)
	movq	img, %rax
	movl	$0, 144(%rax)
	movl	$0, -4(%rbp)
.LBB44_1:                               # %for.cond
                                        # =>This Inner Loop Header: Depth=1
	movl	-4(%rbp), %esi
	movq	img, %rax
	movl	52(%rax), %eax
	cltd
	movl	$16, %edi
	idivl	%edi
	movl	%eax, %ecx
	movq	img, %rax
	movl	60(%rax), %eax
	cltd
	idivl	%edi
	imull	%eax, %ecx
	cmpl	%ecx, %esi
	jge	.LBB44_4
# %bb.2:                                # %for.body
                                        #   in Loop: Header=BB44_1 Depth=1
	movq	img, %rax
	movq	14168(%rax), %rax
	movslq	-4(%rbp), %rcx
	imulq	$632, %rcx, %rcx        # imm = 0x278
	addq	%rcx, %rax
	movl	$-1, 4(%rax)
# %bb.3:                                # %for.inc
                                        #   in Loop: Header=BB44_1 Depth=1
	movl	-4(%rbp), %eax
	addl	$1, %eax
	movl	%eax, -4(%rbp)
	jmp	.LBB44_1
.LBB44_4:                               # %for.end
	movq	img, %rax
	cmpl	$0, 71908(%rax)
	jne	.LBB44_29
# %bb.5:                                # %if.then
	movl	start_tr_in_this_IGOP, %eax
	movq	img, %rcx
	movl	(%rcx), %ecx
	subl	start_frame_no_in_this_IGOP, %ecx
	movq	input, %rdx
	movl	20(%rdx), %edx
	addl	$1, %edx
	imull	%edx, %ecx
	addl	%ecx, %eax
	movq	img, %rcx
	movl	%eax, 71792(%rcx)
	movq	img, %rax
	movl	71876(%rax), %eax
	movq	img, %rcx
	movl	%eax, 71880(%rcx)
	movq	img, %rax
	movl	71792(%rax), %eax
	movq	img, %rcx
	movl	%eax, 71876(%rcx)
	movq	input, %rax
	cmpl	$0, 2440(%rax)
	je	.LBB44_8
# %bb.6:                                # %land.lhs.true
	movq	img, %rax
	movl	(%rax), %eax
	addl	$1, %eax
	movq	input, %rcx
	cmpl	8(%rcx), %eax
	jne	.LBB44_8
# %bb.7:                                # %if.then10
	movq	input, %rax
	movl	2440(%rax), %eax
	movq	img, %rcx
	movl	%eax, 71792(%rcx)
.LBB44_8:                               # %if.end
	movq	img, %rax
	movl	(%rax), %eax
	subl	start_frame_no_in_this_IGOP, %eax
	cmpl	$0, %eax
	je	.LBB44_11
# %bb.9:                                # %land.lhs.true16
	movq	input, %rax
	cmpl	$0, 1236(%rax)
	je	.LBB44_11
# %bb.10:                               # %if.then18
	movq	img, %rax
	movl	71792(%rax), %eax
	movl	%eax, nextP_tr_frm
.LBB44_11:                              # %if.end20
	movq	input, %rax
	cmpl	$0, 3236(%rax)
	jne	.LBB44_26
# %bb.12:                               # %if.then22
	movq	img, %rax
	cmpl	$2, 24(%rax)
	jne	.LBB44_18
# %bb.13:                               # %if.then24
	movq	input, %rax
	cmpl	$0, 2452(%rax)
	jle	.LBB44_16
# %bb.14:                               # %land.lhs.true26
	movq	img, %rax
	movl	71792(%rax), %eax
	movq	input, %rcx
	cmpl	2452(%rcx), %eax
	jl	.LBB44_16
# %bb.15:                               # %if.then30
	movq	input, %rax
	movl	2456(%rax), %eax
	movq	img, %rcx
	movl	%eax, 40(%rcx)
	jmp	.LBB44_17
.LBB44_16:                              # %if.else
	movq	input, %rax
	movl	12(%rax), %eax
	movq	img, %rcx
	movl	%eax, 40(%rcx)
.LBB44_17:                              # %if.end32
	jmp	.LBB44_25
.LBB44_18:                              # %if.else33
	movq	input, %rax
	cmpl	$0, 2452(%rax)
	jle	.LBB44_21
# %bb.19:                               # %land.lhs.true36
	movq	img, %rax
	movl	71792(%rax), %eax
	movq	input, %rcx
	cmpl	2452(%rcx), %eax
	jl	.LBB44_21
# %bb.20:                               # %if.then40
	movq	input, %rax
	movl	2444(%rax), %eax
	movq	img, %rcx
	movl	%eax, 40(%rcx)
	jmp	.LBB44_22
.LBB44_21:                              # %if.else42
	movq	input, %rax
	movl	16(%rax), %eax
	movq	img, %rcx
	movl	%eax, 40(%rcx)
.LBB44_22:                              # %if.end44
	movq	img, %rax
	cmpl	$3, 24(%rax)
	jne	.LBB44_24
# %bb.23:                               # %if.then47
	movq	input, %rax
	movl	1276(%rax), %eax
	movq	img, %rcx
	movl	%eax, 40(%rcx)
	movq	input, %rax
	movl	1280(%rax), %eax
	movq	img, %rcx
	movl	%eax, 44(%rcx)
.LBB44_24:                              # %if.end50
	jmp	.LBB44_25
.LBB44_25:                              # %if.end51
	jmp	.LBB44_26
.LBB44_26:                              # %if.end52
	movq	img, %rax
	movl	88(%rax), %eax
	movq	img, %rcx
	movl	%eax, 92(%rcx)
	movq	input, %rax
	cmpl	$0, 76(%rax)
	jle	.LBB44_28
# %bb.27:                               # %if.then54
	movq	img, %rax
	movl	(%rax), %eax
	subl	start_frame_no_in_this_IGOP, %eax
	movq	input, %rcx
	cltd
	idivl	76(%rcx)
	movl	%eax, %ecx
	movq	img, %rax
	movl	60(%rax), %eax
	cltd
	movl	$16, %esi
	idivl	%esi
	movl	%eax, %esi
	movl	%ecx, %eax
	cltd
	idivl	%esi
	movq	img, %rax
	movl	%edx, 88(%rax)
.LBB44_28:                              # %if.end62
	jmp	.LBB44_72
.LBB44_29:                              # %if.else63
	movq	input, %rax
	movl	20(%rax), %eax
	addl	$1, %eax
	movq	img, %rcx
	movl	%eax, 71904(%rcx)
	movl	start_tr_in_this_IGOP, %eax
	movq	img, %rcx
	movl	(%rcx), %ecx
	subl	start_frame_no_in_this_IGOP, %ecx
	subl	$1, %ecx
	movq	img, %rdx
	imull	71904(%rdx), %ecx
	addl	%ecx, %eax
	movl	%eax, -8(%rbp)
	movl	start_tr_in_this_IGOP, %eax
	movq	img, %rcx
	movl	(%rcx), %ecx
	subl	start_frame_no_in_this_IGOP, %ecx
	movq	img, %rdx
	imull	71904(%rdx), %ecx
	addl	%ecx, %eax
	movl	%eax, -12(%rbp)
	movl	-8(%rbp), %eax
	movq	last_P_no, %rcx
	movl	%eax, (%rcx)
	movl	$1, -4(%rbp)
.LBB44_30:                              # %for.cond78
                                        # =>This Inner Loop Header: Depth=1
	movl	-4(%rbp), %eax
	movq	img, %rcx
	cmpl	72376(%rcx), %eax
	jge	.LBB44_33
# %bb.31:                               # %for.body80
                                        #   in Loop: Header=BB44_30 Depth=1
	movq	last_P_no, %rax
	movl	-4(%rbp), %ecx
	subl	$1, %ecx
	movslq	%ecx, %rcx
	movl	(%rax,%rcx,4), %eax
	movq	img, %rcx
	subl	71904(%rcx), %eax
	movq	last_P_no, %rcx
	movslq	-4(%rbp), %rdx
	movl	%eax, (%rcx,%rdx,4)
# %bb.32:                               # %for.inc88
                                        #   in Loop: Header=BB44_30 Depth=1
	movl	-4(%rbp), %eax
	addl	$1, %eax
	movl	%eax, -4(%rbp)
	jmp	.LBB44_30
.LBB44_33:                              # %for.end90
	movq	input, %rax
	cmpl	$0, 2440(%rax)
	je	.LBB44_36
# %bb.34:                               # %land.lhs.true93
	movq	img, %rax
	movl	(%rax), %eax
	addl	$1, %eax
	movq	input, %rcx
	cmpl	8(%rcx), %eax
	jne	.LBB44_36
# %bb.35:                               # %if.then98
	movq	input, %rax
	movl	2440(%rax), %eax
	movl	%eax, -12(%rbp)
	movl	-12(%rbp), %eax
	subl	-8(%rbp), %eax
	movq	img, %rcx
	movl	%eax, 71904(%rcx)
.LBB44_36:                              # %if.end102
	vmovsd	.LCPI44_0(%rip), %xmm0  # xmm0 = mem[0],zero
	movq	input, %rax
	movl	20(%rax), %eax
	addl	$1, %eax
	vcvtsi2sd	%eax, %xmm0, %xmm1
	movq	input, %rax
	vcvtsi2sdl	1236(%rax), %xmm0, %xmm2
	vaddsd	%xmm0, %xmm2, %xmm0
	vdivsd	%xmm0, %xmm1, %xmm0
	movq	img, %rax
	vmovsd	%xmm0, 71896(%rax)
	movq	input, %rax
	cmpl	$3, 1320(%rax)
	jne	.LBB44_38
# %bb.37:                               # %if.then111
	vmovsd	.LCPI44_0(%rip), %xmm0  # xmm0 = mem[0],zero
	movq	img, %rax
	vmovsd	%xmm0, 71896(%rax)
.LBB44_38:                              # %if.end113
	movq	input, %rax
	cmpl	$0, 1320(%rax)
	je	.LBB44_40
# %bb.39:                               # %if.then116
	movl	-8(%rbp), %eax
	movq	img, %rcx
	vmovsd	71896(%rcx), %xmm0      # xmm0 = mem[0],zero
	movq	gop_structure, %rcx
	movq	img, %rdx
	movl	71908(%rdx), %edx
	subl	$1, %edx
	movslq	%edx, %rdx
	imulq	$24, %rdx, %rdx
	addq	%rdx, %rcx
	movl	4(%rcx), %ecx
	addl	$1, %ecx
	vcvtsi2sd	%ecx, %xmm0, %xmm1
	vmulsd	%xmm1, %xmm0, %xmm0
	vcvttsd2si	%xmm0, %ecx
	addl	%ecx, %eax
	movq	img, %rcx
	movl	%eax, 71792(%rcx)
	jmp	.LBB44_41
.LBB44_40:                              # %if.else128
	movl	-8(%rbp), %eax
	movq	img, %rcx
	vmovsd	71896(%rcx), %xmm0      # xmm0 = mem[0],zero
	movq	img, %rcx
	vcvtsi2sdl	71908(%rcx), %xmm0, %xmm1
	vmulsd	%xmm1, %xmm0, %xmm0
	vcvttsd2si	%xmm0, %ecx
	addl	%ecx, %eax
	movq	img, %rcx
	movl	%eax, 71792(%rcx)
.LBB44_41:                              # %if.end136
	movq	img, %rax
	movl	71792(%rax), %eax
	cmpl	-12(%rbp), %eax
	jl	.LBB44_43
# %bb.42:                               # %if.then140
	movl	-12(%rbp), %eax
	subl	$1, %eax
	movq	img, %rcx
	movl	%eax, 71792(%rcx)
.LBB44_43:                              # %if.end143
	movq	input, %rax
	cmpl	$0, 3236(%rax)
	jne	.LBB44_68
# %bb.44:                               # %land.lhs.true146
	movq	input, %rax
	cmpl	$3, 1320(%rax)
	je	.LBB44_68
# %bb.45:                               # %if.then150
	movq	input, %rax
	cmpl	$0, 2452(%rax)
	jle	.LBB44_48
# %bb.46:                               # %land.lhs.true154
	movq	img, %rax
	movl	71792(%rax), %eax
	movq	input, %rcx
	cmpl	2452(%rcx), %eax
	jl	.LBB44_48
# %bb.47:                               # %if.then159
	movq	input, %rax
	movl	2448(%rax), %eax
	movq	img, %rcx
	movl	%eax, 40(%rcx)
	jmp	.LBB44_49
.LBB44_48:                              # %if.else161
	movq	input, %rax
	movl	1240(%rax), %eax
	movq	img, %rcx
	movl	%eax, 40(%rcx)
.LBB44_49:                              # %if.end163
	movq	img, %rax
	cmpl	$0, 72496(%rax)
	je	.LBB44_67
# %bb.50:                               # %if.then165
	movq	input, %rax
	cmpl	$0, 2452(%rax)
	jle	.LBB44_59
# %bb.51:                               # %land.lhs.true169
	movq	img, %rax
	movl	71792(%rax), %eax
	movq	input, %rcx
	cmpl	2452(%rcx), %eax
	jl	.LBB44_59
# %bb.52:                               # %if.then174
	movq	input, %rax
	movl	2448(%rax), %eax
	movq	input, %rcx
	addl	2460(%rcx), %eax
	cmpl	$0, %eax
	jge	.LBB44_54
# %bb.53:                               # %cond.true
	xorl	%eax, %eax
	jmp	.LBB44_58
.LBB44_54:                              # %cond.false
	movq	input, %rax
	movl	2448(%rax), %eax
	movq	input, %rcx
	addl	2460(%rcx), %eax
	cmpl	$51, %eax
	jle	.LBB44_56
# %bb.55:                               # %cond.true184
	movl	$51, %eax
	jmp	.LBB44_57
.LBB44_56:                              # %cond.false185
	movq	input, %rax
	movl	2448(%rax), %eax
	movq	input, %rcx
	addl	2460(%rcx), %eax
.LBB44_57:                              # %cond.end
.LBB44_58:                              # %cond.end189
	movq	img, %rcx
	movl	%eax, 40(%rcx)
	jmp	.LBB44_66
.LBB44_59:                              # %if.else192
	movq	input, %rax
	movl	1240(%rax), %eax
	movq	input, %rcx
	addl	1244(%rcx), %eax
	cmpl	$0, %eax
	jge	.LBB44_61
# %bb.60:                               # %cond.true197
	xorl	%eax, %eax
	jmp	.LBB44_65
.LBB44_61:                              # %cond.false198
	movq	input, %rax
	movl	1240(%rax), %eax
	movq	input, %rcx
	addl	1244(%rcx), %eax
	cmpl	$51, %eax
	jle	.LBB44_63
# %bb.62:                               # %cond.true204
	movl	$51, %eax
	jmp	.LBB44_64
.LBB44_63:                              # %cond.false205
	movq	input, %rax
	movl	1240(%rax), %eax
	movq	input, %rcx
	addl	1244(%rcx), %eax
.LBB44_64:                              # %cond.end209
.LBB44_65:                              # %cond.end211
	movq	img, %rcx
	movl	%eax, 40(%rcx)
.LBB44_66:                              # %if.end214
	jmp	.LBB44_67
.LBB44_67:                              # %if.end215
	jmp	.LBB44_71
.LBB44_68:                              # %if.else216
	movq	input, %rax
	cmpl	$3, 1320(%rax)
	jne	.LBB44_70
# %bb.69:                               # %if.then220
	movq	gop_structure, %rax
	movq	img, %rcx
	movl	71908(%rcx), %ecx
	subl	$1, %ecx
	movslq	%ecx, %rcx
	imulq	$24, %rcx, %rcx
	addq	%rcx, %rax
	movl	12(%rax), %eax
	movq	img, %rcx
	movl	%eax, 40(%rcx)
.LBB44_70:                              # %if.end226
	jmp	.LBB44_71
.LBB44_71:                              # %if.end227
	jmp	.LBB44_72
.LBB44_72:                              # %if.end228
	movq	img, %rax
	movl	72384(%rax), %edi
	callq	UpdateSubseqInfo
	xorl	%edi, %edi
	xorl	%esi, %esi
	xorl	%edx, %edx
	movl	$4294967295, %ecx       # imm = 0xFFFFFFFF
	callq	UpdateSceneInformation
	movq	img, %rax
	movl	52(%rax), %eax
	movq	img, %rcx
	imull	60(%rcx), %eax
	cltd
	movl	$256, %ecx              # imm = 0x100
	idivl	%ecx
	movq	img, %rcx
	movl	%eax, 16(%rcx)
	movq	img, %rax
	movl	$0, 72504(%rax)
	movq	img, %rax
	movl	$0, 72508(%rax)
	callq	init_dec_ref_pic_marking_buffer
	cmpl	$190737389, -16(%rbp)   # imm = 0xB5E6BED
	jne	.LBB44_74
.LBB44_73:
	addq	$16, %rsp
	popq	%rbp
	.cfi_def_cfa %rsp, 8
	retq
.LBB44_74:                              # %func_exit
	.cfi_def_cfa %rbp, 16
	callq	detect_breach
	jmp	.LBB44_73
.Lfunc_end44:
	.size	init_frame.8, .Lfunc_end44-init_frame.8
	.cfi_endproc
                                        # -- End function
	.section	.rodata.cst8,"aM",@progbits,8
	.p2align	3               # -- Begin function find_snr.9
.LCPI45_0:
	.quad	4621819117588971520     # double 10
	.text
	.p2align	4, 0x90
	.type	find_snr.9,@function
find_snr.9:                             # @find_snr.9
	.cfi_startproc
# %bb.0:                                # %entry
	pushq	%rbp
	.cfi_def_cfa_offset 16
	.cfi_offset %rbp, -16
	movq	%rsp, %rbp
	.cfi_def_cfa_register %rbp
	subq	$64, %rsp
	movl	$51534561, -44(%rbp)    # imm = 0x3125AE1
	movq	$0, -16(%rbp)
	movq	$0, -32(%rbp)
	movq	$0, -24(%rbp)
	movq	img, %rax
	movl	72684(%rax), %eax
	movq	img, %rcx
	imull	72684(%rcx), %eax
	movl	%eax, -48(%rbp)
	movq	img, %rax
	movl	72688(%rax), %eax
	movq	img, %rcx
	imull	72688(%rcx), %eax
	movl	%eax, -40(%rbp)
	movq	input, %rax
	movl	68(%rax), %eax
	movq	input, %rcx
	imull	64(%rcx), %eax
	movl	%eax, -52(%rbp)
	movq	input, %rax
	movl	3304(%rax), %eax
	movq	input, %rcx
	imull	3308(%rcx), %eax
	movl	%eax, -36(%rbp)
	movq	img, %rax
	cmpl	$0, 71800(%rax)
	je	.LBB45_20
# %bb.1:                                # %if.then
	movq	$0, -16(%rbp)
	movl	$0, -8(%rbp)
.LBB45_2:                               # %for.cond
                                        # =>This Loop Header: Depth=1
                                        #     Child Loop BB45_4 Depth 2
	movl	-8(%rbp), %eax
	movq	input, %rcx
	cmpl	64(%rcx), %eax
	jge	.LBB45_9
# %bb.3:                                # %for.body
                                        #   in Loop: Header=BB45_2 Depth=1
	movl	$0, -4(%rbp)
.LBB45_4:                               # %for.cond8
                                        #   Parent Loop BB45_2 Depth=1
                                        # =>  This Inner Loop Header: Depth=2
	movl	-4(%rbp), %eax
	movq	input, %rcx
	cmpl	68(%rcx), %eax
	jge	.LBB45_7
# %bb.5:                                # %for.body11
                                        #   in Loop: Header=BB45_4 Depth=2
	movq	img, %rax
	movq	71776(%rax), %rax
	movq	imgY_org, %rcx
	movslq	-4(%rbp), %rdx
	movq	(%rcx,%rdx,8), %rcx
	movslq	-8(%rbp), %rdx
	movzwl	(%rcx,%rdx,2), %ecx
	movq	imgY_com, %rdx
	movslq	-4(%rbp), %rsi
	movq	(%rdx,%rsi,8), %rdx
	movslq	-8(%rbp), %rsi
	movzwl	(%rdx,%rsi,2), %edx
	subl	%edx, %ecx
	movslq	%ecx, %rcx
	movslq	(%rax,%rcx,4), %rax
	addq	-16(%rbp), %rax
	movq	%rax, -16(%rbp)
# %bb.6:                                # %for.inc
                                        #   in Loop: Header=BB45_4 Depth=2
	movl	-4(%rbp), %eax
	addl	$1, %eax
	movl	%eax, -4(%rbp)
	jmp	.LBB45_4
.LBB45_7:                               # %for.end
                                        #   in Loop: Header=BB45_2 Depth=1
	jmp	.LBB45_8
.LBB45_8:                               # %for.inc22
                                        #   in Loop: Header=BB45_2 Depth=1
	movl	-8(%rbp), %eax
	addl	$1, %eax
	movl	%eax, -8(%rbp)
	jmp	.LBB45_2
.LBB45_9:                               # %for.end24
	movq	img, %rax
	cmpl	$0, 72700(%rax)
	je	.LBB45_19
# %bb.10:                               # %if.then27
	movq	$0, -32(%rbp)
	movq	$0, -24(%rbp)
	movl	$0, -8(%rbp)
.LBB45_11:                              # %for.cond28
                                        # =>This Loop Header: Depth=1
                                        #     Child Loop BB45_13 Depth 2
	movl	-8(%rbp), %eax
	movq	input, %rcx
	cmpl	3308(%rcx), %eax
	jge	.LBB45_18
# %bb.12:                               # %for.body32
                                        #   in Loop: Header=BB45_11 Depth=1
	movl	$0, -4(%rbp)
.LBB45_13:                              # %for.cond33
                                        #   Parent Loop BB45_11 Depth=1
                                        # =>  This Inner Loop Header: Depth=2
	movl	-4(%rbp), %eax
	movq	input, %rcx
	cmpl	3304(%rcx), %eax
	jge	.LBB45_16
# %bb.14:                               # %for.body37
                                        #   in Loop: Header=BB45_13 Depth=2
	movq	img, %rax
	movq	71776(%rax), %rax
	movq	imgUV_org, %rcx
	movq	(%rcx), %rcx
	movslq	-4(%rbp), %rdx
	movq	(%rcx,%rdx,8), %rcx
	movslq	-8(%rbp), %rdx
	movzwl	(%rcx,%rdx,2), %ecx
	movq	imgUV_com, %rdx
	movq	(%rdx), %rdx
	movslq	-4(%rbp), %rsi
	movq	(%rdx,%rsi,8), %rdx
	movslq	-8(%rbp), %rsi
	movzwl	(%rdx,%rsi,2), %edx
	subl	%edx, %ecx
	movslq	%ecx, %rcx
	movslq	(%rax,%rcx,4), %rax
	addq	-32(%rbp), %rax
	movq	%rax, -32(%rbp)
	movq	img, %rax
	movq	71776(%rax), %rax
	movq	imgUV_org, %rcx
	movq	8(%rcx), %rcx
	movslq	-4(%rbp), %rdx
	movq	(%rcx,%rdx,8), %rcx
	movslq	-8(%rbp), %rdx
	movzwl	(%rcx,%rdx,2), %ecx
	movq	imgUV_com, %rdx
	movq	8(%rdx), %rdx
	movslq	-4(%rbp), %rsi
	movq	(%rdx,%rsi,8), %rdx
	movslq	-8(%rbp), %rsi
	movzwl	(%rdx,%rsi,2), %edx
	subl	%edx, %ecx
	movslq	%ecx, %rcx
	movslq	(%rax,%rcx,4), %rax
	addq	-24(%rbp), %rax
	movq	%rax, -24(%rbp)
# %bb.15:                               # %for.inc74
                                        #   in Loop: Header=BB45_13 Depth=2
	movl	-4(%rbp), %eax
	addl	$1, %eax
	movl	%eax, -4(%rbp)
	jmp	.LBB45_13
.LBB45_16:                              # %for.end76
                                        #   in Loop: Header=BB45_11 Depth=1
	jmp	.LBB45_17
.LBB45_17:                              # %for.inc77
                                        #   in Loop: Header=BB45_11 Depth=1
	movl	-8(%rbp), %eax
	addl	$1, %eax
	movl	%eax, -8(%rbp)
	jmp	.LBB45_11
.LBB45_18:                              # %for.end79
	jmp	.LBB45_19
.LBB45_19:                              # %if.end
	jmp	.LBB45_41
.LBB45_20:                              # %if.else
	movq	imgY_org_frm, %rax
	movq	%rax, imgY_org
	movq	imgUV_org_frm, %rax
	movq	%rax, imgUV_org
	movq	input, %rax
	cmpl	$2, 2880(%rax)
	jne	.LBB45_22
# %bb.21:                               # %if.then82
	movq	enc_frame_picture, %rax
	movq	%rax, enc_picture
.LBB45_22:                              # %if.end83
	movq	$0, -16(%rbp)
	movl	$0, -8(%rbp)
.LBB45_23:                              # %for.cond84
                                        # =>This Loop Header: Depth=1
                                        #     Child Loop BB45_25 Depth 2
	movl	-8(%rbp), %eax
	movq	input, %rcx
	cmpl	64(%rcx), %eax
	jge	.LBB45_30
# %bb.24:                               # %for.body88
                                        #   in Loop: Header=BB45_23 Depth=1
	movl	$0, -4(%rbp)
.LBB45_25:                              # %for.cond89
                                        #   Parent Loop BB45_23 Depth=1
                                        # =>  This Inner Loop Header: Depth=2
	movl	-4(%rbp), %eax
	movq	input, %rcx
	cmpl	68(%rcx), %eax
	jge	.LBB45_28
# %bb.26:                               # %for.body93
                                        #   in Loop: Header=BB45_25 Depth=2
	movq	img, %rax
	movq	71776(%rax), %rax
	movq	imgY_org, %rcx
	movslq	-4(%rbp), %rdx
	movq	(%rcx,%rdx,8), %rcx
	movslq	-8(%rbp), %rdx
	movzwl	(%rcx,%rdx,2), %ecx
	movq	enc_picture, %rdx
	movq	6424(%rdx), %rdx
	movslq	-4(%rbp), %rsi
	movq	(%rdx,%rsi,8), %rdx
	movslq	-8(%rbp), %rsi
	movzwl	(%rdx,%rsi,2), %edx
	subl	%edx, %ecx
	movslq	%ecx, %rcx
	movslq	(%rax,%rcx,4), %rax
	addq	-16(%rbp), %rax
	movq	%rax, -16(%rbp)
# %bb.27:                               # %for.inc110
                                        #   in Loop: Header=BB45_25 Depth=2
	movl	-4(%rbp), %eax
	addl	$1, %eax
	movl	%eax, -4(%rbp)
	jmp	.LBB45_25
.LBB45_28:                              # %for.end112
                                        #   in Loop: Header=BB45_23 Depth=1
	jmp	.LBB45_29
.LBB45_29:                              # %for.inc113
                                        #   in Loop: Header=BB45_23 Depth=1
	movl	-8(%rbp), %eax
	addl	$1, %eax
	movl	%eax, -8(%rbp)
	jmp	.LBB45_23
.LBB45_30:                              # %for.end115
	movq	img, %rax
	cmpl	$0, 72700(%rax)
	je	.LBB45_40
# %bb.31:                               # %if.then119
	movq	$0, -32(%rbp)
	movq	$0, -24(%rbp)
	movl	$0, -8(%rbp)
.LBB45_32:                              # %for.cond120
                                        # =>This Loop Header: Depth=1
                                        #     Child Loop BB45_34 Depth 2
	movl	-8(%rbp), %eax
	movq	input, %rcx
	cmpl	3308(%rcx), %eax
	jge	.LBB45_39
# %bb.33:                               # %for.body124
                                        #   in Loop: Header=BB45_32 Depth=1
	movl	$0, -4(%rbp)
.LBB45_34:                              # %for.cond125
                                        #   Parent Loop BB45_32 Depth=1
                                        # =>  This Inner Loop Header: Depth=2
	movl	-4(%rbp), %eax
	movq	input, %rcx
	cmpl	3304(%rcx), %eax
	jge	.LBB45_37
# %bb.35:                               # %for.body129
                                        #   in Loop: Header=BB45_34 Depth=2
	movq	img, %rax
	movq	71776(%rax), %rax
	movq	imgUV_org, %rcx
	movq	(%rcx), %rcx
	movslq	-4(%rbp), %rdx
	movq	(%rcx,%rdx,8), %rcx
	movslq	-8(%rbp), %rdx
	movzwl	(%rcx,%rdx,2), %ecx
	movq	enc_picture, %rdx
	movq	6464(%rdx), %rdx
	movq	(%rdx), %rdx
	movslq	-4(%rbp), %rsi
	movq	(%rdx,%rsi,8), %rdx
	movslq	-8(%rbp), %rsi
	movzwl	(%rdx,%rsi,2), %edx
	subl	%edx, %ecx
	movslq	%ecx, %rcx
	movslq	(%rax,%rcx,4), %rax
	addq	-32(%rbp), %rax
	movq	%rax, -32(%rbp)
	movq	img, %rax
	movq	71776(%rax), %rax
	movq	imgUV_org, %rcx
	movq	8(%rcx), %rcx
	movslq	-4(%rbp), %rdx
	movq	(%rcx,%rdx,8), %rcx
	movslq	-8(%rbp), %rdx
	movzwl	(%rcx,%rdx,2), %ecx
	movq	enc_picture, %rdx
	movq	6464(%rdx), %rdx
	movq	8(%rdx), %rdx
	movslq	-4(%rbp), %rsi
	movq	(%rdx,%rsi,8), %rdx
	movslq	-8(%rbp), %rsi
	movzwl	(%rdx,%rsi,2), %edx
	subl	%edx, %ecx
	movslq	%ecx, %rcx
	movslq	(%rax,%rcx,4), %rax
	addq	-24(%rbp), %rax
	movq	%rax, -24(%rbp)
# %bb.36:                               # %for.inc167
                                        #   in Loop: Header=BB45_34 Depth=2
	movl	-4(%rbp), %eax
	addl	$1, %eax
	movl	%eax, -4(%rbp)
	jmp	.LBB45_34
.LBB45_37:                              # %for.end169
                                        #   in Loop: Header=BB45_32 Depth=1
	jmp	.LBB45_38
.LBB45_38:                              # %for.inc170
                                        #   in Loop: Header=BB45_32 Depth=1
	movl	-8(%rbp), %eax
	addl	$1, %eax
	movl	%eax, -8(%rbp)
	jmp	.LBB45_32
.LBB45_39:                              # %for.end172
	jmp	.LBB45_40
.LBB45_40:                              # %if.end173
	jmp	.LBB45_41
.LBB45_41:                              # %if.end174
	cmpq	$0, -16(%rbp)
	jne	.LBB45_43
# %bb.42:                               # %if.then177
	movq	$1, -16(%rbp)
.LBB45_43:                              # %if.end178
	cmpq	$0, -32(%rbp)
	jne	.LBB45_45
# %bb.44:                               # %if.then181
	movq	$1, -32(%rbp)
.LBB45_45:                              # %if.end182
	cmpq	$0, -24(%rbp)
	jne	.LBB45_47
# %bb.46:                               # %if.then185
	movq	$1, -24(%rbp)
.LBB45_47:                              # %if.end186
	cmpq	$0, -16(%rbp)
	je	.LBB45_52
# %bb.48:                               # %if.then189
	movl	-48(%rbp), %eax
	vcvtsi2sd	%rax, %xmm0, %xmm0
	vcvtsi2sdl	-52(%rbp), %xmm0, %xmm1
	vcvtsi2sdq	-16(%rbp), %xmm0, %xmm2
	vdivsd	%xmm2, %xmm1, %xmm1
	vmulsd	%xmm1, %xmm0, %xmm0
	callq	log10
	vmovsd	.LCPI45_0(%rip), %xmm1  # xmm1 = mem[0],zero
	vmulsd	%xmm0, %xmm1, %xmm0
	vcvtsd2ss	%xmm0, %xmm0, %xmm0
	movq	snr, %rax
	vmovss	%xmm0, (%rax)
	movq	img, %rax
	cmpl	$0, 72700(%rax)
	je	.LBB45_50
# %bb.49:                               # %if.then199
	movl	-40(%rbp), %eax
	vcvtsi2sd	%rax, %xmm0, %xmm0
	vcvtsi2sdl	-36(%rbp), %xmm0, %xmm1
	vcvtsi2sdq	-32(%rbp), %xmm0, %xmm2
	vdivsd	%xmm2, %xmm1, %xmm1
	vmulsd	%xmm1, %xmm0, %xmm0
	callq	log10
	vmovsd	.LCPI45_0(%rip), %xmm1  # xmm1 = mem[0],zero
	vmulsd	%xmm1, %xmm0, %xmm0
	vcvtsd2ss	%xmm0, %xmm0, %xmm0
	movq	snr(%rip), %rax
	vmovss	%xmm0, 4(%rax)
	movl	-40(%rbp), %eax
	vcvtsi2sd	%rax, %xmm0, %xmm0
	vcvtsi2sdl	-36(%rbp), %xmm0, %xmm1
	vcvtsi2sdq	-24(%rbp), %xmm0, %xmm2
	vdivsd	%xmm2, %xmm1, %xmm1
	vmulsd	%xmm1, %xmm0, %xmm0
	callq	log10
	vmovsd	.LCPI45_0(%rip), %xmm1  # xmm1 = mem[0],zero
	vmulsd	%xmm0, %xmm1, %xmm0
	vcvtsd2ss	%xmm0, %xmm0, %xmm0
	movq	snr, %rax
	vmovss	%xmm0, 8(%rax)
	jmp	.LBB45_51
.LBB45_50:                              # %if.else216
	movq	snr, %rax
	vxorps	%xmm0, %xmm0, %xmm0
	vmovss	%xmm0, 4(%rax)
	movq	snr, %rax
	vmovss	%xmm0, 8(%rax)
.LBB45_51:                              # %if.end219
	jmp	.LBB45_52
.LBB45_52:                              # %if.end220
	movq	img, %rax
	cmpl	$0, (%rax)
	jne	.LBB45_54
# %bb.53:                               # %if.then223
	movq	snr, %rax
	vmovss	(%rax), %xmm0           # xmm0 = mem[0],zero,zero,zero
	movq	snr, %rax
	vmovss	%xmm0, 12(%rax)
	movq	snr, %rax
	vmovss	4(%rax), %xmm0          # xmm0 = mem[0],zero,zero,zero
	movq	snr, %rax
	vmovss	%xmm0, 16(%rax)
	movq	snr, %rax
	vmovss	8(%rax), %xmm0          # xmm0 = mem[0],zero,zero,zero
	movq	snr, %rax
	vmovss	%xmm0, 20(%rax)
	movq	snr, %rax
	vmovss	12(%rax), %xmm0         # xmm0 = mem[0],zero,zero,zero
	movq	snr, %rax
	vmovss	%xmm0, 60(%rax)
	movq	snr, %rax
	vmovss	16(%rax), %xmm0         # xmm0 = mem[0],zero,zero,zero
	movq	snr, %rax
	vmovss	%xmm0, 64(%rax)
	movq	snr, %rax
	vmovss	20(%rax), %xmm0         # xmm0 = mem[0],zero,zero,zero
	movq	snr, %rax
	vmovss	%xmm0, 68(%rax)
	movq	snr, %rax
	vxorps	%xmm0, %xmm0, %xmm0
	vmovss	%xmm0, 32(%rax)
	movq	snr, %rax
	vmovss	%xmm0, 44(%rax)
	movq	snr, %rax
	vmovss	%xmm0, 56(%rax)
	movq	snr, %rax
	vmovss	%xmm0, 24(%rax)
	movq	snr, %rax
	vmovss	%xmm0, 36(%rax)
	movq	snr, %rax
	vmovss	%xmm0, 48(%rax)
	movq	snr, %rax
	vmovss	%xmm0, 28(%rax)
	movq	snr, %rax
	vmovss	%xmm0, 40(%rax)
	movq	snr, %rax
	vmovss	%xmm0, 52(%rax)
	jmp	.LBB45_55
.LBB45_54:                              # %if.else245
	movq	snr, %rax
	vmovss	60(%rax), %xmm0         # xmm0 = mem[0],zero,zero,zero
	movq	img, %rax
	movl	(%rax), %eax
	addl	Bframe_ctr, %eax
	vcvtsi2ss	%eax, %xmm0, %xmm1
	vmulss	%xmm1, %xmm0, %xmm0
	movq	snr, %rax
	vaddss	(%rax), %xmm0, %xmm0
	movq	img, %rax
	movl	(%rax), %eax
	addl	Bframe_ctr, %eax
	addl	$1, %eax
	vcvtsi2ss	%eax, %xmm0, %xmm1
	vdivss	%xmm1, %xmm0, %xmm0
	movq	snr, %rax
	vmovss	%xmm0, 60(%rax)
	movq	snr, %rax
	vmovss	64(%rax), %xmm0         # xmm0 = mem[0],zero,zero,zero
	movq	img, %rax
	movl	(%rax), %eax
	addl	Bframe_ctr, %eax
	vcvtsi2ss	%eax, %xmm0, %xmm1
	vmulss	%xmm1, %xmm0, %xmm0
	movq	snr, %rax
	vaddss	4(%rax), %xmm0, %xmm0
	movq	img, %rax
	movl	(%rax), %eax
	addl	Bframe_ctr, %eax
	addl	$1, %eax
	vcvtsi2ss	%eax, %xmm0, %xmm1
	vdivss	%xmm1, %xmm0, %xmm0
	movq	snr, %rax
	vmovss	%xmm0, 64(%rax)
	movq	snr, %rax
	vmovss	68(%rax), %xmm0         # xmm0 = mem[0],zero,zero,zero
	movq	img, %rax
	movl	(%rax), %eax
	addl	Bframe_ctr, %eax
	vcvtsi2ss	%eax, %xmm0, %xmm1
	vmulss	%xmm1, %xmm0, %xmm0
	movq	snr, %rax
	vaddss	8(%rax), %xmm0, %xmm0
	movq	img, %rax
	movl	(%rax), %eax
	addl	Bframe_ctr, %eax
	addl	$1, %eax
	vcvtsi2ss	%eax, %xmm0, %xmm1
	vdivss	%xmm1, %xmm0, %xmm0
	movq	snr, %rax
	vmovss	%xmm0, 68(%rax)
.LBB45_55:                              # %if.end285
	movq	img, %rax
	cmpl	$2, 24(%rax)
	jne	.LBB45_57
# %bb.56:                               # %if.then288
	movq	snr, %rax
	vmovss	32(%rax), %xmm0         # xmm0 = mem[0],zero,zero,zero
	movl	Iframe_ctr, %eax
	subl	$1, %eax
	vcvtsi2ss	%eax, %xmm0, %xmm1
	vmulss	%xmm1, %xmm0, %xmm0
	movq	snr, %rax
	vaddss	(%rax), %xmm0, %xmm0
	vcvtsi2ssl	Iframe_ctr, %xmm0, %xmm1
	vdivss	%xmm1, %xmm0, %xmm0
	movq	snr, %rax
	vmovss	%xmm0, 32(%rax)
	movq	snr, %rax
	vmovss	44(%rax), %xmm0         # xmm0 = mem[0],zero,zero,zero
	movl	Iframe_ctr, %eax
	subl	$1, %eax
	vcvtsi2ss	%eax, %xmm0, %xmm1
	vmulss	%xmm1, %xmm0, %xmm0
	movq	snr, %rax
	vaddss	4(%rax), %xmm0, %xmm0
	vcvtsi2ssl	Iframe_ctr, %xmm0, %xmm1
	vdivss	%xmm1, %xmm0, %xmm0
	movq	snr, %rax
	vmovss	%xmm0, 44(%rax)
	movq	snr, %rax
	vmovss	56(%rax), %xmm0         # xmm0 = mem[0],zero,zero,zero
	movl	Iframe_ctr, %eax
	subl	$1, %eax
	vcvtsi2ss	%eax, %xmm0, %xmm1
	vmulss	%xmm1, %xmm0, %xmm0
	movq	snr, %rax
	vaddss	8(%rax), %xmm0, %xmm0
	vcvtsi2ssl	Iframe_ctr, %xmm0, %xmm1
	vdivss	%xmm1, %xmm0, %xmm0
	movq	snr, %rax
	vmovss	%xmm0, 56(%rax)
	jmp	.LBB45_61
.LBB45_57:                              # %if.else322
	movq	img, %rax
	cmpl	$1, 24(%rax)
	jne	.LBB45_59
# %bb.58:                               # %if.then326
	movq	snr, %rax
	vmovss	28(%rax), %xmm0         # xmm0 = mem[0],zero,zero,zero
	movl	Bframe_ctr, %eax
	subl	$1, %eax
	vcvtsi2ss	%eax, %xmm0, %xmm1
	vmulss	%xmm1, %xmm0, %xmm0
	movq	snr, %rax
	vaddss	(%rax), %xmm0, %xmm0
	vcvtsi2ssl	Bframe_ctr, %xmm0, %xmm1
	vdivss	%xmm1, %xmm0, %xmm0
	movq	snr, %rax
	vmovss	%xmm0, 28(%rax)
	movq	snr, %rax
	vmovss	40(%rax), %xmm0         # xmm0 = mem[0],zero,zero,zero
	movl	Bframe_ctr, %eax
	subl	$1, %eax
	vcvtsi2ss	%eax, %xmm0, %xmm1
	vmulss	%xmm1, %xmm0, %xmm0
	movq	snr, %rax
	vaddss	4(%rax), %xmm0, %xmm0
	vcvtsi2ssl	Bframe_ctr, %xmm0, %xmm1
	vdivss	%xmm1, %xmm0, %xmm0
	movq	snr, %rax
	vmovss	%xmm0, 40(%rax)
	movq	snr, %rax
	vmovss	52(%rax), %xmm0         # xmm0 = mem[0],zero,zero,zero
	movl	Bframe_ctr, %eax
	subl	$1, %eax
	vcvtsi2ss	%eax, %xmm0, %xmm1
	vmulss	%xmm1, %xmm0, %xmm0
	movq	snr, %rax
	vaddss	8(%rax), %xmm0, %xmm0
	vcvtsi2ssl	Bframe_ctr, %xmm0, %xmm1
	vdivss	%xmm1, %xmm0, %xmm0
	movq	snr, %rax
	vmovss	%xmm0, 52(%rax)
	jmp	.LBB45_60
.LBB45_59:                              # %if.else360
	movq	snr, %rax
	vmovss	24(%rax), %xmm0         # xmm0 = mem[0],zero,zero,zero
	movl	Pframe_ctr, %eax
	subl	$1, %eax
	vcvtsi2ss	%eax, %xmm0, %xmm1
	vmulss	%xmm1, %xmm0, %xmm0
	movq	snr, %rax
	vaddss	(%rax), %xmm0, %xmm0
	vcvtsi2ssl	Pframe_ctr, %xmm0, %xmm1
	vdivss	%xmm1, %xmm0, %xmm0
	movq	snr, %rax
	vmovss	%xmm0, 24(%rax)
	movq	snr, %rax
	vmovss	36(%rax), %xmm0         # xmm0 = mem[0],zero,zero,zero
	movl	Pframe_ctr, %eax
	subl	$1, %eax
	vcvtsi2ss	%eax, %xmm0, %xmm1
	vmulss	%xmm1, %xmm0, %xmm0
	movq	snr, %rax
	vaddss	4(%rax), %xmm0, %xmm0
	vcvtsi2ssl	Pframe_ctr, %xmm0, %xmm1
	vdivss	%xmm1, %xmm0, %xmm0
	movq	snr, %rax
	vmovss	%xmm0, 36(%rax)
	movq	snr, %rax
	vmovss	48(%rax), %xmm0         # xmm0 = mem[0],zero,zero,zero
	movl	Pframe_ctr, %eax
	subl	$1, %eax
	vcvtsi2ss	%eax, %xmm0, %xmm1
	vmulss	%xmm1, %xmm0, %xmm0
	movq	snr, %rax
	vaddss	8(%rax), %xmm0, %xmm0
	vcvtsi2ssl	Pframe_ctr, %xmm0, %xmm1
	vdivss	%xmm1, %xmm0, %xmm0
	movq	snr, %rax
	vmovss	%xmm0, 48(%rax)
.LBB45_60:                              # %if.end394
	jmp	.LBB45_61
.LBB45_61:                              # %if.end395
	cmpl	$51534561, -44(%rbp)    # imm = 0x3125AE1
	jne	.LBB45_63
.LBB45_62:
	addq	$64, %rsp
	popq	%rbp
	.cfi_def_cfa %rsp, 8
	retq
.LBB45_63:                              # %func_exit
	.cfi_def_cfa %rbp, 16
	callq	detect_breach
	jmp	.LBB45_62
.Lfunc_end45:
	.size	find_snr.9, .Lfunc_end45-find_snr.9
	.cfi_endproc
                                        # -- End function
	.p2align	4, 0x90         # -- Begin function ReportFirstframe.10
	.type	ReportFirstframe.10,@function
ReportFirstframe.10:                    # @ReportFirstframe.10
	.cfi_startproc
# %bb.0:                                # %entry
	pushq	%rbp
	.cfi_def_cfa_offset 16
	.cfi_offset %rbp, -16
	movq	%rsp, %rbp
	.cfi_def_cfa_register %rbp
	subq	$48, %rsp
	movl	$783493779, -12(%rbp)   # imm = 0x2EB32A93
	movl	%edi, -8(%rbp)
	movl	%esi, -4(%rbp)
	movl	frame_no, %esi
	movq	stats, %rax
	movl	16(%rax), %edx
	movq	stats, %rax
	subl	20(%rax), %edx
	movq	img, %rax
	movl	40(%rax), %r8d
	movq	snr, %rax
	vmovss	(%rax), %xmm0           # xmm0 = mem[0],zero,zero,zero
	vcvtss2sd	%xmm0, %xmm0, %xmm0
	movq	snr, %rax
	vmovss	4(%rax), %xmm1          # xmm1 = mem[0],zero,zero,zero
	vcvtss2sd	%xmm1, %xmm0, %xmm1
	movq	snr, %rax
	vmovss	8(%rax), %xmm2          # xmm2 = mem[0],zero,zero,zero
	vcvtss2sd	%xmm2, %xmm0, %xmm2
	movl	-8(%rbp), %r9d
	movl	-4(%rbp), %r10d
	movq	img, %rcx
	movl	71800(%rcx), %ecx
	cmpl	$0, %ecx
	movabsq	$.L.str.7, %rcx
	movabsq	$.L.str.8, %rax
	cmovneq	%rcx, %rax
	movl	intras, %r11d
	movabsq	$.L.str.6, %rdi
	movl	$0, %ecx
	movl	%r10d, (%rsp)
	movq	%rax, 8(%rsp)
	movl	%r11d, 16(%rsp)
	movb	$3, %al
	callq	printf
	movq	input, %rax
	cmpl	$0, 3236(%rax)
	je	.LBB46_6
# %bb.1:                                # %if.then
	movq	input, %rax
	cmpl	$0, 2880(%rax)
	jne	.LBB46_4
# %bb.2:                                # %land.lhs.true
	movq	input, %rax
	cmpl	$0, 2884(%rax)
	jne	.LBB46_4
# %bb.3:                                # %if.then6
	movq	stats, %rax
	movl	16(%rax), %eax
	movq	stats, %rcx
	subl	20(%rcx), %eax
	movl	%eax, -16(%rbp)
	jmp	.LBB46_5
.LBB46_4:                               # %if.else
	movq	stats, %rax
	movl	16(%rax), %eax
	subl	Iprev_bits, %eax
	movl	%eax, -16(%rbp)
	movq	stats, %rax
	movl	16(%rax), %eax
	movl	%eax, Iprev_bits
.LBB46_5:                               # %if.end
	jmp	.LBB46_6
.LBB46_6:                               # %if.end13
	movq	stats, %rax
	movl	16(%rax), %eax
	movq	stats, %rcx
	movl	%eax, 704(%rcx)
	movq	stats, %rax
	movl	$0, 16(%rax)
	cmpl	$783493779, -12(%rbp)   # imm = 0x2EB32A93
	jne	.LBB46_8
.LBB46_7:
	addq	$48, %rsp
	popq	%rbp
	.cfi_def_cfa %rsp, 8
	retq
.LBB46_8:                               # %func_exit
	.cfi_def_cfa %rbp, 16
	callq	detect_breach
	jmp	.LBB46_7
.Lfunc_end46:
	.size	ReportFirstframe.10, .Lfunc_end46-ReportFirstframe.10
	.cfi_endproc
                                        # -- End function
	.p2align	4, 0x90         # -- Begin function ReportRB.11
	.type	ReportRB.11,@function
ReportRB.11:                            # @ReportRB.11
	.cfi_startproc
# %bb.0:                                # %entry
	pushq	%rbp
	.cfi_def_cfa_offset 16
	.cfi_offset %rbp, -16
	movq	%rsp, %rbp
	.cfi_def_cfa_register %rbp
	pushq	%rbx
	subq	$56, %rsp
	.cfi_offset %rbx, -24
	movl	$492925607, -20(%rbp)   # imm = 0x1D6172A7
	movl	%edi, -12(%rbp)
	movl	%esi, -16(%rbp)
	movl	frame_no, %esi
	movq	stats, %rax
	movl	16(%rax), %edx
	movq	stats, %rax
	subl	20(%rax), %edx
	movq	active_pps, %rax
	movl	196(%rax), %ecx
	movq	img, %rax
	movl	40(%rax), %r8d
	movq	snr, %rax
	vmovss	(%rax), %xmm0           # xmm0 = mem[0],zero,zero,zero
	vcvtss2sd	%xmm0, %xmm0, %xmm0
	movq	snr, %rax
	vmovss	4(%rax), %xmm1          # xmm1 = mem[0],zero,zero,zero
	vcvtss2sd	%xmm1, %xmm0, %xmm1
	movq	snr, %rax
	vmovss	8(%rax), %xmm2          # xmm2 = mem[0],zero,zero,zero
	vcvtss2sd	%xmm2, %xmm0, %xmm2
	movl	-12(%rbp), %r9d
	movl	-16(%rbp), %r10d
	movq	img, %rdi
	movl	71800(%rdi), %edi
	cmpl	$0, %edi
	movabsq	$.L.str.7, %rdi
	movabsq	$.L.str.8, %rax
	cmovneq	%rdi, %rax
	movl	intras, %r11d
	movq	img, %rdi
	movl	71996(%rdi), %ebx
	movabsq	$.L.str.11, %rdi
	movl	%r10d, (%rsp)
	movq	%rax, 8(%rsp)
	movl	%r11d, 16(%rsp)
	movl	%ebx, 24(%rsp)
	movb	$3, %al
	callq	printf
	cmpl	$492925607, -20(%rbp)   # imm = 0x1D6172A7
	jne	.LBB47_2
.LBB47_1:
	addq	$56, %rsp
	popq	%rbx
	popq	%rbp
	.cfi_def_cfa %rsp, 8
	retq
.LBB47_2:                               # %func_exit
	.cfi_def_cfa %rbp, 16
	callq	detect_breach
	jmp	.LBB47_1
.Lfunc_end47:
	.size	ReportRB.11, .Lfunc_end47-ReportRB.11
	.cfi_endproc
                                        # -- End function
	.globl	MbAffPostProc.12        # -- Begin function MbAffPostProc.12
	.p2align	4, 0x90
	.type	MbAffPostProc.12,@function
MbAffPostProc.12:                       # @MbAffPostProc.12
	.cfi_startproc
# %bb.0:                                # %entry
	pushq	%rbp
	.cfi_def_cfa_offset 16
	.cfi_offset %rbp, -16
	movq	%rsp, %rbp
	.cfi_def_cfa_register %rbp
	subq	$1072, %rsp             # imm = 0x430
	movl	$1344781481, -44(%rbp)  # imm = 0x5027BCA9
	movq	enc_picture, %rax
	movq	6424(%rax), %rax
	movq	%rax, -32(%rbp)
	movq	enc_picture, %rax
	movq	6464(%rax), %rax
	movq	%rax, -40(%rbp)
	movq	img, %rax
	cmpl	$0, 72700(%rax)
	je	.LBB48_44
# %bb.1:                                # %if.then
	movl	$0, -20(%rbp)
.LBB48_2:                               # %for.cond
                                        # =>This Loop Header: Depth=1
                                        #     Child Loop BB48_5 Depth 2
                                        #       Child Loop BB48_7 Depth 3
                                        #     Child Loop BB48_13 Depth 2
                                        #       Child Loop BB48_15 Depth 3
                                        #     Child Loop BB48_21 Depth 2
                                        #       Child Loop BB48_23 Depth 3
                                        #         Child Loop BB48_25 Depth 4
                                        #       Child Loop BB48_31 Depth 3
                                        #         Child Loop BB48_33 Depth 4
	movl	-20(%rbp), %eax
	movq	img, %rcx
	cmpl	72484(%rcx), %eax
	jge	.LBB48_43
# %bb.3:                                # %for.body
                                        #   in Loop: Header=BB48_2 Depth=1
	movq	enc_picture, %rax
	movq	6472(%rax), %rax
	movslq	-20(%rbp), %rcx
	cmpb	$0, (%rax,%rcx)
	je	.LBB48_41
# %bb.4:                                # %if.then4
                                        #   in Loop: Header=BB48_2 Depth=1
	movl	-20(%rbp), %edi
	leaq	-12(%rbp), %rsi
	leaq	-16(%rbp), %rdx
	callq	get_mb_pos
	movl	$0, -8(%rbp)
.LBB48_5:                               # %for.cond5
                                        #   Parent Loop BB48_2 Depth=1
                                        # =>  This Loop Header: Depth=2
                                        #       Child Loop BB48_7 Depth 3
	cmpl	$32, -8(%rbp)
	jge	.LBB48_12
# %bb.6:                                # %for.body7
                                        #   in Loop: Header=BB48_5 Depth=2
	movl	$0, -4(%rbp)
.LBB48_7:                               # %for.cond8
                                        #   Parent Loop BB48_2 Depth=1
                                        #     Parent Loop BB48_5 Depth=2
                                        # =>    This Inner Loop Header: Depth=3
	cmpl	$16, -4(%rbp)
	jge	.LBB48_10
# %bb.8:                                # %for.body10
                                        #   in Loop: Header=BB48_7 Depth=3
	movq	-32(%rbp), %rax
	movl	-16(%rbp), %ecx
	addl	-8(%rbp), %ecx
	movslq	%ecx, %rcx
	movq	(%rax,%rcx,8), %rax
	movl	-12(%rbp), %ecx
	addl	-4(%rbp), %ecx
	movslq	%ecx, %rcx
	movw	(%rax,%rcx,2), %ax
	movslq	-4(%rbp), %rcx
	shlq	$6, %rcx
	leaq	-1072(%rbp), %rdx
	addq	%rcx, %rdx
	movslq	-8(%rbp), %rcx
	movw	%ax, (%rdx,%rcx,2)
# %bb.9:                                # %for.inc
                                        #   in Loop: Header=BB48_7 Depth=3
	movl	-4(%rbp), %eax
	addl	$1, %eax
	movl	%eax, -4(%rbp)
	jmp	.LBB48_7
.LBB48_10:                              # %for.end
                                        #   in Loop: Header=BB48_5 Depth=2
	jmp	.LBB48_11
.LBB48_11:                              # %for.inc20
                                        #   in Loop: Header=BB48_5 Depth=2
	movl	-8(%rbp), %eax
	addl	$1, %eax
	movl	%eax, -8(%rbp)
	jmp	.LBB48_5
.LBB48_12:                              # %for.end22
                                        #   in Loop: Header=BB48_2 Depth=1
	movl	$0, -8(%rbp)
.LBB48_13:                              # %for.cond23
                                        #   Parent Loop BB48_2 Depth=1
                                        # =>  This Loop Header: Depth=2
                                        #       Child Loop BB48_15 Depth 3
	cmpl	$16, -8(%rbp)
	jge	.LBB48_20
# %bb.14:                               # %for.body25
                                        #   in Loop: Header=BB48_13 Depth=2
	movl	$0, -4(%rbp)
.LBB48_15:                              # %for.cond26
                                        #   Parent Loop BB48_2 Depth=1
                                        #     Parent Loop BB48_13 Depth=2
                                        # =>    This Inner Loop Header: Depth=3
	cmpl	$16, -4(%rbp)
	jge	.LBB48_18
# %bb.16:                               # %for.body28
                                        #   in Loop: Header=BB48_15 Depth=3
	movslq	-4(%rbp), %rax
	shlq	$6, %rax
	leaq	-1072(%rbp), %rcx
	movq	%rcx, %rdx
	addq	%rax, %rdx
	movslq	-8(%rbp), %rax
	movw	(%rdx,%rax,2), %ax
	movq	-32(%rbp), %rdx
	movl	-16(%rbp), %esi
	movl	-8(%rbp), %edi
	shll	$1, %edi
	addl	%edi, %esi
	movslq	%esi, %rsi
	movq	(%rdx,%rsi,8), %rdx
	movl	-12(%rbp), %esi
	addl	-4(%rbp), %esi
	movslq	%esi, %rsi
	movw	%ax, (%rdx,%rsi,2)
	movslq	-4(%rbp), %rax
	shlq	$6, %rax
	addq	%rax, %rcx
	movl	-8(%rbp), %eax
	addl	$16, %eax
	cltq
	movw	(%rcx,%rax,2), %ax
	movq	-32(%rbp), %rcx
	movl	-16(%rbp), %edx
	movl	-8(%rbp), %esi
	shll	$1, %esi
	addl	$1, %esi
	addl	%esi, %edx
	movslq	%edx, %rdx
	movq	(%rcx,%rdx,8), %rcx
	movl	-12(%rbp), %edx
	addl	-4(%rbp), %edx
	movslq	%edx, %rdx
	movw	%ax, (%rcx,%rdx,2)
# %bb.17:                               # %for.inc52
                                        #   in Loop: Header=BB48_15 Depth=3
	movl	-4(%rbp), %eax
	addl	$1, %eax
	movl	%eax, -4(%rbp)
	jmp	.LBB48_15
.LBB48_18:                              # %for.end54
                                        #   in Loop: Header=BB48_13 Depth=2
	jmp	.LBB48_19
.LBB48_19:                              # %for.inc55
                                        #   in Loop: Header=BB48_13 Depth=2
	movl	-8(%rbp), %eax
	addl	$1, %eax
	movl	%eax, -8(%rbp)
	jmp	.LBB48_13
.LBB48_20:                              # %for.end57
                                        #   in Loop: Header=BB48_2 Depth=1
	movl	-12(%rbp), %ecx
	movq	img, %rsi
	movl	$16, %eax
	cltd
	idivl	72708(%rsi)
	movl	%eax, %esi
	movl	%ecx, %eax
	cltd
	idivl	%esi
	movl	%eax, -12(%rbp)
	movl	-16(%rbp), %ecx
	movq	img, %rsi
	movl	$16, %eax
	cltd
	idivl	72712(%rsi)
	movl	%eax, %esi
	movl	%ecx, %eax
	cltd
	idivl	%esi
	movl	%eax, -16(%rbp)
	movl	$0, -24(%rbp)
.LBB48_21:                              # %for.cond61
                                        #   Parent Loop BB48_2 Depth=1
                                        # =>  This Loop Header: Depth=2
                                        #       Child Loop BB48_23 Depth 3
                                        #         Child Loop BB48_25 Depth 4
                                        #       Child Loop BB48_31 Depth 3
                                        #         Child Loop BB48_33 Depth 4
	cmpl	$2, -24(%rbp)
	jge	.LBB48_40
# %bb.22:                               # %for.body63
                                        #   in Loop: Header=BB48_21 Depth=2
	movl	$0, -8(%rbp)
.LBB48_23:                              # %for.cond64
                                        #   Parent Loop BB48_2 Depth=1
                                        #     Parent Loop BB48_21 Depth=2
                                        # =>    This Loop Header: Depth=3
                                        #         Child Loop BB48_25 Depth 4
	movl	-8(%rbp), %eax
	movq	img, %rcx
	movl	72712(%rcx), %ecx
	shll	$1, %ecx
	cmpl	%ecx, %eax
	jge	.LBB48_30
# %bb.24:                               # %for.body68
                                        #   in Loop: Header=BB48_23 Depth=3
	movl	$0, -4(%rbp)
.LBB48_25:                              # %for.cond69
                                        #   Parent Loop BB48_2 Depth=1
                                        #     Parent Loop BB48_21 Depth=2
                                        #       Parent Loop BB48_23 Depth=3
                                        # =>      This Inner Loop Header: Depth=4
	movl	-4(%rbp), %eax
	movq	img, %rcx
	cmpl	72708(%rcx), %eax
	jge	.LBB48_28
# %bb.26:                               # %for.body72
                                        #   in Loop: Header=BB48_25 Depth=4
	movq	-40(%rbp), %rax
	movslq	-24(%rbp), %rcx
	movq	(%rax,%rcx,8), %rax
	movl	-16(%rbp), %ecx
	addl	-8(%rbp), %ecx
	movslq	%ecx, %rcx
	movq	(%rax,%rcx,8), %rax
	movl	-12(%rbp), %ecx
	addl	-4(%rbp), %ecx
	movslq	%ecx, %rcx
	movw	(%rax,%rcx,2), %ax
	movslq	-4(%rbp), %rcx
	shlq	$6, %rcx
	leaq	-1072(%rbp), %rdx
	addq	%rcx, %rdx
	movslq	-8(%rbp), %rcx
	movw	%ax, (%rdx,%rcx,2)
# %bb.27:                               # %for.inc85
                                        #   in Loop: Header=BB48_25 Depth=4
	movl	-4(%rbp), %eax
	addl	$1, %eax
	movl	%eax, -4(%rbp)
	jmp	.LBB48_25
.LBB48_28:                              # %for.end87
                                        #   in Loop: Header=BB48_23 Depth=3
	jmp	.LBB48_29
.LBB48_29:                              # %for.inc88
                                        #   in Loop: Header=BB48_23 Depth=3
	movl	-8(%rbp), %eax
	addl	$1, %eax
	movl	%eax, -8(%rbp)
	jmp	.LBB48_23
.LBB48_30:                              # %for.end90
                                        #   in Loop: Header=BB48_21 Depth=2
	movl	$0, -8(%rbp)
.LBB48_31:                              # %for.cond91
                                        #   Parent Loop BB48_2 Depth=1
                                        #     Parent Loop BB48_21 Depth=2
                                        # =>    This Loop Header: Depth=3
                                        #         Child Loop BB48_33 Depth 4
	movl	-8(%rbp), %eax
	movq	img, %rcx
	cmpl	72712(%rcx), %eax
	jge	.LBB48_38
# %bb.32:                               # %for.body94
                                        #   in Loop: Header=BB48_31 Depth=3
	movl	$0, -4(%rbp)
.LBB48_33:                              # %for.cond95
                                        #   Parent Loop BB48_2 Depth=1
                                        #     Parent Loop BB48_21 Depth=2
                                        #       Parent Loop BB48_31 Depth=3
                                        # =>      This Inner Loop Header: Depth=4
	movl	-4(%rbp), %eax
	movq	img, %rcx
	cmpl	72708(%rcx), %eax
	jge	.LBB48_36
# %bb.34:                               # %for.body98
                                        #   in Loop: Header=BB48_33 Depth=4
	movslq	-4(%rbp), %rax
	shlq	$6, %rax
	leaq	-1072(%rbp), %rcx
	movq	%rcx, %rdx
	addq	%rax, %rdx
	movslq	-8(%rbp), %rax
	movw	(%rdx,%rax,2), %ax
	movq	-40(%rbp), %rdx
	movslq	-24(%rbp), %rsi
	movq	(%rdx,%rsi,8), %rdx
	movl	-16(%rbp), %esi
	movl	-8(%rbp), %edi
	shll	$1, %edi
	addl	%edi, %esi
	movslq	%esi, %rsi
	movq	(%rdx,%rsi,8), %rdx
	movl	-12(%rbp), %esi
	addl	-4(%rbp), %esi
	movslq	%esi, %rsi
	movw	%ax, (%rdx,%rsi,2)
	movslq	-4(%rbp), %rax
	shlq	$6, %rax
	addq	%rax, %rcx
	movl	-8(%rbp), %eax
	movq	img, %rdx
	addl	72712(%rdx), %eax
	cltq
	movw	(%rcx,%rax,2), %ax
	movq	-40(%rbp), %rcx
	movslq	-24(%rbp), %rdx
	movq	(%rcx,%rdx,8), %rcx
	movl	-16(%rbp), %edx
	movl	-8(%rbp), %esi
	shll	$1, %esi
	addl	$1, %esi
	addl	%esi, %edx
	movslq	%edx, %rdx
	movq	(%rcx,%rdx,8), %rcx
	movl	-12(%rbp), %edx
	addl	-4(%rbp), %edx
	movslq	%edx, %rdx
	movw	%ax, (%rcx,%rdx,2)
# %bb.35:                               # %for.inc128
                                        #   in Loop: Header=BB48_33 Depth=4
	movl	-4(%rbp), %eax
	addl	$1, %eax
	movl	%eax, -4(%rbp)
	jmp	.LBB48_33
.LBB48_36:                              # %for.end130
                                        #   in Loop: Header=BB48_31 Depth=3
	jmp	.LBB48_37
.LBB48_37:                              # %for.inc131
                                        #   in Loop: Header=BB48_31 Depth=3
	movl	-8(%rbp), %eax
	addl	$1, %eax
	movl	%eax, -8(%rbp)
	jmp	.LBB48_31
.LBB48_38:                              # %for.end133
                                        #   in Loop: Header=BB48_21 Depth=2
	jmp	.LBB48_39
.LBB48_39:                              # %for.inc134
                                        #   in Loop: Header=BB48_21 Depth=2
	movl	-24(%rbp), %eax
	addl	$1, %eax
	movl	%eax, -24(%rbp)
	jmp	.LBB48_21
.LBB48_40:                              # %for.end136
                                        #   in Loop: Header=BB48_2 Depth=1
	jmp	.LBB48_41
.LBB48_41:                              # %if.end
                                        #   in Loop: Header=BB48_2 Depth=1
	jmp	.LBB48_42
.LBB48_42:                              # %for.inc137
                                        #   in Loop: Header=BB48_2 Depth=1
	movl	-20(%rbp), %eax
	addl	$2, %eax
	movl	%eax, -20(%rbp)
	jmp	.LBB48_2
.LBB48_43:                              # %for.end139
	jmp	.LBB48_67
.LBB48_44:                              # %if.else
	movl	$0, -20(%rbp)
.LBB48_45:                              # %for.cond140
                                        # =>This Loop Header: Depth=1
                                        #     Child Loop BB48_48 Depth 2
                                        #       Child Loop BB48_50 Depth 3
                                        #     Child Loop BB48_56 Depth 2
                                        #       Child Loop BB48_58 Depth 3
	movl	-20(%rbp), %eax
	movq	img, %rcx
	cmpl	72484(%rcx), %eax
	jge	.LBB48_66
# %bb.46:                               # %for.body143
                                        #   in Loop: Header=BB48_45 Depth=1
	movq	enc_picture, %rax
	movq	6472(%rax), %rax
	movslq	-20(%rbp), %rcx
	cmpb	$0, (%rax,%rcx)
	je	.LBB48_64
# %bb.47:                               # %if.then148
                                        #   in Loop: Header=BB48_45 Depth=1
	movl	-20(%rbp), %edi
	leaq	-12(%rbp), %rsi
	leaq	-16(%rbp), %rdx
	callq	get_mb_pos
	movl	$0, -8(%rbp)
.LBB48_48:                              # %for.cond149
                                        #   Parent Loop BB48_45 Depth=1
                                        # =>  This Loop Header: Depth=2
                                        #       Child Loop BB48_50 Depth 3
	cmpl	$32, -8(%rbp)
	jge	.LBB48_55
# %bb.49:                               # %for.body151
                                        #   in Loop: Header=BB48_48 Depth=2
	movl	$0, -4(%rbp)
.LBB48_50:                              # %for.cond152
                                        #   Parent Loop BB48_45 Depth=1
                                        #     Parent Loop BB48_48 Depth=2
                                        # =>    This Inner Loop Header: Depth=3
	cmpl	$16, -4(%rbp)
	jge	.LBB48_53
# %bb.51:                               # %for.body154
                                        #   in Loop: Header=BB48_50 Depth=3
	movq	-32(%rbp), %rax
	movl	-16(%rbp), %ecx
	addl	-8(%rbp), %ecx
	movslq	%ecx, %rcx
	movq	(%rax,%rcx,8), %rax
	movl	-12(%rbp), %ecx
	addl	-4(%rbp), %ecx
	movslq	%ecx, %rcx
	movw	(%rax,%rcx,2), %ax
	movslq	-4(%rbp), %rcx
	shlq	$6, %rcx
	leaq	-1072(%rbp), %rdx
	addq	%rcx, %rdx
	movslq	-8(%rbp), %rcx
	movw	%ax, (%rdx,%rcx,2)
# %bb.52:                               # %for.inc165
                                        #   in Loop: Header=BB48_50 Depth=3
	movl	-4(%rbp), %eax
	addl	$1, %eax
	movl	%eax, -4(%rbp)
	jmp	.LBB48_50
.LBB48_53:                              # %for.end167
                                        #   in Loop: Header=BB48_48 Depth=2
	jmp	.LBB48_54
.LBB48_54:                              # %for.inc168
                                        #   in Loop: Header=BB48_48 Depth=2
	movl	-8(%rbp), %eax
	addl	$1, %eax
	movl	%eax, -8(%rbp)
	jmp	.LBB48_48
.LBB48_55:                              # %for.end170
                                        #   in Loop: Header=BB48_45 Depth=1
	movl	$0, -8(%rbp)
.LBB48_56:                              # %for.cond171
                                        #   Parent Loop BB48_45 Depth=1
                                        # =>  This Loop Header: Depth=2
                                        #       Child Loop BB48_58 Depth 3
	cmpl	$16, -8(%rbp)
	jge	.LBB48_63
# %bb.57:                               # %for.body173
                                        #   in Loop: Header=BB48_56 Depth=2
	movl	$0, -4(%rbp)
.LBB48_58:                              # %for.cond174
                                        #   Parent Loop BB48_45 Depth=1
                                        #     Parent Loop BB48_56 Depth=2
                                        # =>    This Inner Loop Header: Depth=3
	cmpl	$16, -4(%rbp)
	jge	.LBB48_61
# %bb.59:                               # %for.body176
                                        #   in Loop: Header=BB48_58 Depth=3
	movslq	-4(%rbp), %rax
	shlq	$6, %rax
	leaq	-1072(%rbp), %rcx
	movq	%rcx, %rdx
	addq	%rax, %rdx
	movslq	-8(%rbp), %rax
	movw	(%rdx,%rax,2), %ax
	movq	-32(%rbp), %rdx
	movl	-16(%rbp), %esi
	movl	-8(%rbp), %edi
	shll	$1, %edi
	addl	%edi, %esi
	movslq	%esi, %rsi
	movq	(%rdx,%rsi,8), %rdx
	movl	-12(%rbp), %esi
	addl	-4(%rbp), %esi
	movslq	%esi, %rsi
	movw	%ax, (%rdx,%rsi,2)
	movslq	-4(%rbp), %rax
	shlq	$6, %rax
	addq	%rax, %rcx
	movl	-8(%rbp), %eax
	addl	$16, %eax
	cltq
	movw	(%rcx,%rax,2), %ax
	movq	-32(%rbp), %rcx
	movl	-16(%rbp), %edx
	movl	-8(%rbp), %esi
	shll	$1, %esi
	addl	$1, %esi
	addl	%esi, %edx
	movslq	%edx, %rdx
	movq	(%rcx,%rdx,8), %rcx
	movl	-12(%rbp), %edx
	addl	-4(%rbp), %edx
	movslq	%edx, %rdx
	movw	%ax, (%rcx,%rdx,2)
# %bb.60:                               # %for.inc201
                                        #   in Loop: Header=BB48_58 Depth=3
	movl	-4(%rbp), %eax
	addl	$1, %eax
	movl	%eax, -4(%rbp)
	jmp	.LBB48_58
.LBB48_61:                              # %for.end203
                                        #   in Loop: Header=BB48_56 Depth=2
	jmp	.LBB48_62
.LBB48_62:                              # %for.inc204
                                        #   in Loop: Header=BB48_56 Depth=2
	movl	-8(%rbp), %eax
	addl	$1, %eax
	movl	%eax, -8(%rbp)
	jmp	.LBB48_56
.LBB48_63:                              # %for.end206
                                        #   in Loop: Header=BB48_45 Depth=1
	jmp	.LBB48_64
.LBB48_64:                              # %if.end207
                                        #   in Loop: Header=BB48_45 Depth=1
	jmp	.LBB48_65
.LBB48_65:                              # %for.inc208
                                        #   in Loop: Header=BB48_45 Depth=1
	movl	-20(%rbp), %eax
	addl	$2, %eax
	movl	%eax, -20(%rbp)
	jmp	.LBB48_45
.LBB48_66:                              # %for.end210
	jmp	.LBB48_67
.LBB48_67:                              # %if.end211
	cmpl	$1344781481, -44(%rbp)  # imm = 0x5027BCA9
	jne	.LBB48_69
.LBB48_68:
	addq	$1072, %rsp             # imm = 0x430
	popq	%rbp
	.cfi_def_cfa %rsp, 8
	retq
.LBB48_69:                              # %func_exit
	.cfi_def_cfa %rbp, 16
	callq	detect_breach
	jmp	.LBB48_68
.Lfunc_end48:
	.size	MbAffPostProc.12, .Lfunc_end48-MbAffPostProc.12
	.cfi_endproc
                                        # -- End function
	.p2align	4, 0x90         # -- Begin function distortion_fld.13
	.type	distortion_fld.13,@function
distortion_fld.13:                      # @distortion_fld.13
	.cfi_startproc
# %bb.0:                                # %entry
	pushq	%rbp
	.cfi_def_cfa_offset 16
	.cfi_offset %rbp, -16
	movq	%rsp, %rbp
	.cfi_def_cfa_register %rbp
	subq	$32, %rsp
	movl	$49117230, -4(%rbp)     # imm = 0x2ED782E
	movq	%rdi, -16(%rbp)
	movq	%rsi, -24(%rbp)
	movq	%rdx, -32(%rbp)
	movq	img, %rcx
	movl	(%rcx), %eax
	cltd
	movl	$2, %esi
	idivl	%esi
	movl	%eax, (%rcx)
	movq	img, %rcx
	movl	72376(%rcx), %eax
	cltd
	idivl	%esi
	movl	%eax, 72376(%rcx)
	movq	input, %rax
	movl	68(%rax), %eax
	movq	img, %rcx
	addl	72732(%rcx), %eax
	movq	img, %rcx
	movl	%eax, 60(%rcx)
	movq	img, %rax
	movl	68(%rax), %eax
	movq	img, %rcx
	movl	%eax, 64(%rcx)
	movq	img, %rax
	movl	52(%rax), %eax
	movq	img, %rcx
	imull	60(%rcx), %eax
	cltd
	movl	$256, %ecx              # imm = 0x100
	idivl	%ecx
	movq	img, %rcx
	movl	%eax, 16(%rcx)
	movb	$0, %al
	callq	combine_field
	movq	imgY_org_frm, %rax
	movq	%rax, imgY_org
	movq	imgUV_org_frm, %rax
	movq	%rax, imgUV_org
	callq	find_distortion
	movq	snr, %rax
	vmovss	(%rax), %xmm0           # xmm0 = mem[0],zero,zero,zero
	movq	-16(%rbp), %rax
	vmovss	%xmm0, (%rax)
	movq	snr, %rax
	vmovss	4(%rax), %xmm0          # xmm0 = mem[0],zero,zero,zero
	movq	-24(%rbp), %rax
	vmovss	%xmm0, (%rax)
	movq	snr, %rax
	vmovss	8(%rax), %xmm0          # xmm0 = mem[0],zero,zero,zero
	movq	-32(%rbp), %rax
	vmovss	%xmm0, (%rax)
	cmpl	$49117230, -4(%rbp)     # imm = 0x2ED782E
	jne	.LBB49_2
.LBB49_1:
	addq	$32, %rsp
	popq	%rbp
	.cfi_def_cfa %rsp, 8
	retq
.LBB49_2:                               # %func_exit
	.cfi_def_cfa %rbp, 16
	callq	detect_breach
	jmp	.LBB49_1
.Lfunc_end49:
	.size	distortion_fld.13, .Lfunc_end49-distortion_fld.13
	.cfi_endproc
                                        # -- End function
	.p2align	4, 0x90         # -- Begin function ReportSP.14
	.type	ReportSP.14,@function
ReportSP.14:                            # @ReportSP.14
	.cfi_startproc
# %bb.0:                                # %entry
	pushq	%rbp
	.cfi_def_cfa_offset 16
	.cfi_offset %rbp, -16
	movq	%rsp, %rbp
	.cfi_def_cfa_register %rbp
	subq	$48, %rsp
	movl	$1582825705, -8(%rbp)   # imm = 0x5E5800E9
	movl	%edi, -4(%rbp)
	movl	%esi, -12(%rbp)
	movl	frame_no, %esi
	movq	stats, %rax
	movl	16(%rax), %edx
	movq	stats, %rax
	subl	20(%rax), %edx
	movq	active_pps, %rax
	movl	192(%rax), %ecx
	movq	img, %rax
	movl	40(%rax), %r8d
	movq	snr, %rax
	vmovss	(%rax), %xmm0           # xmm0 = mem[0],zero,zero,zero
	vcvtss2sd	%xmm0, %xmm0, %xmm0
	movq	snr, %rax
	vmovss	4(%rax), %xmm1          # xmm1 = mem[0],zero,zero,zero
	vcvtss2sd	%xmm1, %xmm0, %xmm1
	movq	snr, %rax
	vmovss	8(%rax), %xmm2          # xmm2 = mem[0],zero,zero,zero
	vcvtss2sd	%xmm2, %xmm0, %xmm2
	movl	-4(%rbp), %r9d
	movl	-12(%rbp), %r10d
	movq	img, %rdi
	movl	71800(%rdi), %edi
	cmpl	$0, %edi
	movabsq	$.L.str.7, %rdi
	movabsq	$.L.str.8, %rax
	cmovneq	%rdi, %rax
	movl	intras, %r11d
	movabsq	$.L.str.10, %rdi
	movl	%r10d, (%rsp)
	movq	%rax, 8(%rsp)
	movl	%r11d, 16(%rsp)
	movb	$3, %al
	callq	printf
	cmpl	$1582825705, -8(%rbp)   # imm = 0x5E5800E9
	jne	.LBB50_2
.LBB50_1:
	addq	$48, %rsp
	popq	%rbp
	.cfi_def_cfa %rsp, 8
	retq
.LBB50_2:                               # %func_exit
	.cfi_def_cfa %rbp, 16
	callq	detect_breach
	jmp	.LBB50_1
.Lfunc_end50:
	.size	ReportSP.14, .Lfunc_end50-ReportSP.14
	.cfi_endproc
                                        # -- End function
	.p2align	4, 0x90         # -- Begin function writeout_picture.15
	.type	writeout_picture.15,@function
writeout_picture.15:                    # @writeout_picture.15
	.cfi_startproc
# %bb.0:                                # %entry
	pushq	%rbp
	.cfi_def_cfa_offset 16
	.cfi_offset %rbp, -16
	movq	%rsp, %rbp
	.cfi_def_cfa_register %rbp
	subq	$48, %rsp
	movl	$801661783, -28(%rbp)   # imm = 0x2FC86357
	movq	%rdi, -24(%rbp)
	movq	-24(%rbp), %rax
	movq	img, %rcx
	movq	%rax, 14152(%rcx)
	movl	$0, -8(%rbp)
.LBB51_1:                               # %for.cond
                                        # =>This Loop Header: Depth=1
                                        #     Child Loop BB51_3 Depth 2
	movl	-8(%rbp), %eax
	movq	-24(%rbp), %rcx
	cmpl	(%rcx), %eax
	jge	.LBB51_8
# %bb.2:                                # %for.body
                                        #   in Loop: Header=BB51_1 Depth=1
	movq	-24(%rbp), %rax
	movslq	-8(%rbp), %rcx
	movq	8(%rax,%rcx,8), %rax
	movq	%rax, -16(%rbp)
	movl	$0, -4(%rbp)
.LBB51_3:                               # %for.cond1
                                        #   Parent Loop BB51_1 Depth=1
                                        # =>  This Inner Loop Header: Depth=2
	movl	-4(%rbp), %eax
	movq	-16(%rbp), %rcx
	cmpl	16(%rcx), %eax
	jge	.LBB51_6
# %bb.4:                                # %for.body3
                                        #   in Loop: Header=BB51_3 Depth=2
	movq	-16(%rbp), %rax
	movq	24(%rax), %rax
	movslq	-4(%rbp), %rcx
	imulq	$120, %rcx, %rcx
	addq	%rcx, %rax
	movq	(%rax), %rax
	movq	%rax, -40(%rbp)
	movq	-16(%rbp), %rax
	movq	24(%rax), %rax
	movslq	-4(%rbp), %rcx
	imulq	$120, %rcx, %rcx
	addq	%rcx, %rax
	movq	(%rax), %rdi
	movl	-4(%rbp), %esi
	callq	writeUnit
# %bb.5:                                # %for.inc
                                        #   in Loop: Header=BB51_3 Depth=2
	movl	-4(%rbp), %eax
	addl	$1, %eax
	movl	%eax, -4(%rbp)
	jmp	.LBB51_3
.LBB51_6:                               # %for.end
                                        #   in Loop: Header=BB51_1 Depth=1
	jmp	.LBB51_7
.LBB51_7:                               # %for.inc10
                                        #   in Loop: Header=BB51_1 Depth=1
	movl	-8(%rbp), %eax
	addl	$1, %eax
	movl	%eax, -8(%rbp)
	jmp	.LBB51_1
.LBB51_8:                               # %for.end12
	cmpl	$801661783, -28(%rbp)   # imm = 0x2FC86357
	jne	.LBB51_10
.LBB51_9:
	xorl	%eax, %eax
	addq	$48, %rsp
	popq	%rbp
	.cfi_def_cfa %rsp, 8
	retq
.LBB51_10:                              # %func_exit
	.cfi_def_cfa %rbp, 16
	callq	detect_breach
	jmp	.LBB51_9
.Lfunc_end51:
	.size	writeout_picture.15, .Lfunc_end51-writeout_picture.15
	.cfi_endproc
                                        # -- End function
	.p2align	4, 0x90         # -- Begin function writeUnit.16
	.type	writeUnit.16,@function
writeUnit.16:                           # @writeUnit.16
	.cfi_startproc
# %bb.0:                                # %entry
	pushq	%rbp
	.cfi_def_cfa_offset 16
	.cfi_offset %rbp, -16
	movq	%rsp, %rbp
	.cfi_def_cfa_register %rbp
	subq	$32, %rsp
	movl	$1208528468, -16(%rbp)  # imm = 0x4808AE54
	movq	%rdi, -24(%rbp)
	movl	%esi, -12(%rbp)
	movq	img, %rax
	movl	52(%rax), %edi
	movq	img, %rax
	imull	60(%rax), %edi
	shll	$2, %edi
	movb	$0, %al
	callq	AllocNALU
	movq	%rax, -8(%rbp)
	movq	img, %rax
	movl	12(%rax), %eax
	cmpl	$0, %eax
	movl	$3, %eax
	movl	$2, %ecx
	cmovel	%eax, %ecx
	addl	$2, %ecx
	movq	-8(%rbp), %rax
	movl	%ecx, (%rax)
	movq	-24(%rbp), %rax
	movl	(%rax), %eax
	addl	$1, %eax
	movq	-8(%rbp), %rcx
	movl	%eax, 4(%rcx)
	movq	-8(%rbp), %rax
	movq	24(%rax), %rdi
	addq	$1, %rdi
	movq	-24(%rbp), %rax
	movq	32(%rax), %rsi
	movq	-8(%rbp), %rax
	movl	4(%rax), %eax
	subl	$1, %eax
	movl	%eax, %edx
	callq	memcpy
	movq	img, %rax
	movq	14152(%rax), %rax
	cmpl	$0, 4(%rax)
	je	.LBB52_2
# %bb.1:                                # %if.then
	movq	-8(%rbp), %rax
	movl	$5, 12(%rax)
	movq	-8(%rbp), %rax
	movl	$3, 16(%rax)
	jmp	.LBB52_18
.LBB52_2:                               # %if.else
	movq	img, %rax
	cmpl	$1, 24(%rax)
	jne	.LBB52_10
# %bb.3:                                # %if.then6
	movq	input, %rax
	cmpl	$0, 2364(%rax)
	jne	.LBB52_5
# %bb.4:                                # %if.then9
	movq	-8(%rbp), %rax
	movl	$1, 12(%rax)
	jmp	.LBB52_6
.LBB52_5:                               # %if.else11
	movl	-12(%rbp), %eax
	addl	$2, %eax
	movq	-8(%rbp), %rcx
	movl	%eax, 12(%rcx)
.LBB52_6:                               # %if.end
	movq	img, %rax
	cmpl	$0, 72496(%rax)
	je	.LBB52_8
# %bb.7:                                # %if.then17
	movq	-8(%rbp), %rax
	movl	$2, 16(%rax)
	jmp	.LBB52_9
.LBB52_8:                               # %if.else19
	movq	-8(%rbp), %rax
	movl	$0, 16(%rax)
.LBB52_9:                               # %if.end21
	jmp	.LBB52_17
.LBB52_10:                              # %if.else22
	movq	input, %rax
	cmpl	$0, 2364(%rax)
	jne	.LBB52_12
# %bb.11:                               # %if.then26
	movq	-8(%rbp), %rax
	movl	$1, 12(%rax)
	jmp	.LBB52_13
.LBB52_12:                              # %if.else28
	movl	-12(%rbp), %eax
	addl	$2, %eax
	movq	-8(%rbp), %rcx
	movl	%eax, 12(%rcx)
.LBB52_13:                              # %if.end31
	movq	img, %rax
	cmpl	$0, 72496(%rax)
	je	.LBB52_15
# %bb.14:                               # %if.then35
	movq	-8(%rbp), %rax
	movl	$2, 16(%rax)
	jmp	.LBB52_16
.LBB52_15:                              # %if.else37
	movq	-8(%rbp), %rax
	movl	$0, 16(%rax)
.LBB52_16:                              # %if.end39
	jmp	.LBB52_17
.LBB52_17:                              # %if.end40
	jmp	.LBB52_18
.LBB52_18:                              # %if.end41
	movq	-8(%rbp), %rax
	movl	$0, 20(%rax)
	movq	WriteNALU, %rax
	movq	-8(%rbp), %rdi
	callq	*%rax
	movq	stats, %rcx
	addl	16(%rcx), %eax
	movl	%eax, 16(%rcx)
	movq	-8(%rbp), %rdi
	callq	FreeNALU
	cmpl	$1208528468, -16(%rbp)  # imm = 0x4808AE54
	jne	.LBB52_20
.LBB52_19:
	addq	$32, %rsp
	popq	%rbp
	.cfi_def_cfa %rsp, 8
	retq
.LBB52_20:                              # %func_exit
	.cfi_def_cfa %rbp, 16
	callq	detect_breach
	jmp	.LBB52_19
.Lfunc_end52:
	.size	writeUnit.16, .Lfunc_end52-writeUnit.16
	.cfi_endproc
                                        # -- End function
	.globl	buf2img.17              # -- Begin function buf2img.17
	.p2align	4, 0x90
	.type	buf2img.17,@function
buf2img.17:                             # @buf2img.17
	.cfi_startproc
# %bb.0:                                # %entry
	pushq	%rbp
	.cfi_def_cfa_offset 16
	.cfi_offset %rbp, -16
	movq	%rsp, %rbp
	.cfi_def_cfa_register %rbp
	subq	$80, %rsp
	movl	$696948244, -60(%rbp)   # imm = 0x298A9614
	movq	%rdi, -40(%rbp)
	movq	%rsi, -56(%rbp)
	movl	%edx, -12(%rbp)
	movl	%ecx, -20(%rbp)
	movl	%r8d, -24(%rbp)
	movslq	-24(%rbp), %rax
	cmpq	$2, %rax
	jbe	.LBB53_2
# %bb.1:                                # %if.then
	movabsq	$.L.str.3, %rdi
	movl	$500, %esi              # imm = 0x1F4
	callq	error
.LBB53_2:                               # %if.end
	movb	$0, %al
	callq	testEndian
	cmpl	$0, %eax
	je	.LBB53_35
# %bb.3:                                # %if.then2
	movl	-24(%rbp), %eax
	movl	%eax, %ecx
	subl	$1, %ecx
	je	.LBB53_6
	jmp	.LBB53_4
.LBB53_4:                               # %if.then2
	movl	%eax, %ecx
	subl	$2, %ecx
	je	.LBB53_15
	jmp	.LBB53_5
.LBB53_5:                               # %if.then2
	subl	$4, %eax
	je	.LBB53_24
	jmp	.LBB53_33
.LBB53_6:                               # %sw.bb
	movl	$0, -8(%rbp)
.LBB53_7:                               # %for.cond
                                        # =>This Loop Header: Depth=1
                                        #     Child Loop BB53_9 Depth 2
	movl	-8(%rbp), %eax
	cmpl	-20(%rbp), %eax
	jge	.LBB53_14
# %bb.8:                                # %for.body
                                        #   in Loop: Header=BB53_7 Depth=1
	movl	$0, -4(%rbp)
.LBB53_9:                               # %for.cond5
                                        #   Parent Loop BB53_7 Depth=1
                                        # =>  This Inner Loop Header: Depth=2
	movl	-4(%rbp), %eax
	cmpl	-12(%rbp), %eax
	jge	.LBB53_12
# %bb.10:                               # %for.body8
                                        #   in Loop: Header=BB53_9 Depth=2
	movq	-56(%rbp), %rax
	movl	-4(%rbp), %ecx
	movl	-8(%rbp), %edx
	imull	-12(%rbp), %edx
	addl	%edx, %ecx
	movslq	%ecx, %rcx
	movzbl	(%rax,%rcx), %eax
	movq	-40(%rbp), %rcx
	movslq	-8(%rbp), %rdx
	movq	(%rcx,%rdx,8), %rcx
	movslq	-4(%rbp), %rdx
	movw	%ax, (%rcx,%rdx,2)
# %bb.11:                               # %for.inc
                                        #   in Loop: Header=BB53_9 Depth=2
	movl	-4(%rbp), %eax
	addl	$1, %eax
	movl	%eax, -4(%rbp)
	jmp	.LBB53_9
.LBB53_12:                              # %for.end
                                        #   in Loop: Header=BB53_7 Depth=1
	jmp	.LBB53_13
.LBB53_13:                              # %for.inc14
                                        #   in Loop: Header=BB53_7 Depth=1
	movl	-8(%rbp), %eax
	addl	$1, %eax
	movl	%eax, -8(%rbp)
	jmp	.LBB53_7
.LBB53_14:                              # %for.end16
	jmp	.LBB53_34
.LBB53_15:                              # %sw.bb17
	movl	$0, -8(%rbp)
.LBB53_16:                              # %for.cond18
                                        # =>This Loop Header: Depth=1
                                        #     Child Loop BB53_18 Depth 2
	movl	-8(%rbp), %eax
	cmpl	-20(%rbp), %eax
	jge	.LBB53_23
# %bb.17:                               # %for.body21
                                        #   in Loop: Header=BB53_16 Depth=1
	movl	$0, -4(%rbp)
.LBB53_18:                              # %for.cond22
                                        #   Parent Loop BB53_16 Depth=1
                                        # =>  This Inner Loop Header: Depth=2
	movl	-4(%rbp), %eax
	cmpl	-12(%rbp), %eax
	jge	.LBB53_21
# %bb.19:                               # %for.body25
                                        #   in Loop: Header=BB53_18 Depth=2
	movq	-56(%rbp), %rax
	movl	-4(%rbp), %ecx
	movl	-8(%rbp), %edx
	imull	-12(%rbp), %edx
	addl	%edx, %ecx
	shll	$1, %ecx
	movslq	%ecx, %rcx
	movw	(%rax,%rcx), %ax
	movw	%ax, -14(%rbp)
	movzwl	-14(%rbp), %eax
	sarl	$8, %eax
	movzwl	-14(%rbp), %ecx
	andl	$255, %ecx
	shll	$8, %ecx
	orl	%ecx, %eax
	movw	%ax, -26(%rbp)
	movw	-26(%rbp), %ax
	movq	-40(%rbp), %rcx
	movslq	-8(%rbp), %rdx
	movq	(%rcx,%rdx,8), %rcx
	movslq	-4(%rbp), %rdx
	movw	%ax, (%rcx,%rdx,2)
# %bb.20:                               # %for.inc36
                                        #   in Loop: Header=BB53_18 Depth=2
	movl	-4(%rbp), %eax
	addl	$1, %eax
	movl	%eax, -4(%rbp)
	jmp	.LBB53_18
.LBB53_21:                              # %for.end38
                                        #   in Loop: Header=BB53_16 Depth=1
	jmp	.LBB53_22
.LBB53_22:                              # %for.inc39
                                        #   in Loop: Header=BB53_16 Depth=1
	movl	-8(%rbp), %eax
	addl	$1, %eax
	movl	%eax, -8(%rbp)
	jmp	.LBB53_16
.LBB53_23:                              # %for.end41
	jmp	.LBB53_34
.LBB53_24:                              # %sw.bb42
	movl	$0, -8(%rbp)
.LBB53_25:                              # %for.cond43
                                        # =>This Loop Header: Depth=1
                                        #     Child Loop BB53_27 Depth 2
	movl	-8(%rbp), %eax
	cmpl	-20(%rbp), %eax
	jge	.LBB53_32
# %bb.26:                               # %for.body46
                                        #   in Loop: Header=BB53_25 Depth=1
	movl	$0, -4(%rbp)
.LBB53_27:                              # %for.cond47
                                        #   Parent Loop BB53_25 Depth=1
                                        # =>  This Inner Loop Header: Depth=2
	movl	-4(%rbp), %eax
	cmpl	-12(%rbp), %eax
	jge	.LBB53_30
# %bb.28:                               # %for.body50
                                        #   in Loop: Header=BB53_27 Depth=2
	movq	-56(%rbp), %rax
	movl	-4(%rbp), %ecx
	movl	-8(%rbp), %edx
	imull	-12(%rbp), %edx
	addl	%edx, %ecx
	shll	$2, %ecx
	movslq	%ecx, %rcx
	movl	(%rax,%rcx), %eax
	movl	%eax, -48(%rbp)
	movq	-48(%rbp), %rax
	andq	$65280, %rax            # imm = 0xFF00
	shlq	$8, %rax
	movq	-48(%rbp), %rcx
	andq	$255, %rcx
	shlq	$24, %rcx
	orq	%rcx, %rax
	movq	-48(%rbp), %rcx
	andq	$16711680, %rcx         # imm = 0xFF0000
	shrq	$8, %rcx
	orq	%rcx, %rax
	movl	$4278190080, %ecx       # imm = 0xFF000000
	andq	-48(%rbp), %rcx
	shrq	$24, %rcx
	orq	%rcx, %rax
	movq	%rax, -72(%rbp)
	movq	-72(%rbp), %rax
	movq	-40(%rbp), %rcx
	movslq	-8(%rbp), %rdx
	movq	(%rcx,%rdx,8), %rcx
	movslq	-4(%rbp), %rdx
	movw	%ax, (%rcx,%rdx,2)
# %bb.29:                               # %for.inc72
                                        #   in Loop: Header=BB53_27 Depth=2
	movl	-4(%rbp), %eax
	addl	$1, %eax
	movl	%eax, -4(%rbp)
	jmp	.LBB53_27
.LBB53_30:                              # %for.end74
                                        #   in Loop: Header=BB53_25 Depth=1
	jmp	.LBB53_31
.LBB53_31:                              # %for.inc75
                                        #   in Loop: Header=BB53_25 Depth=1
	movl	-8(%rbp), %eax
	addl	$1, %eax
	movl	%eax, -8(%rbp)
	jmp	.LBB53_25
.LBB53_32:                              # %for.end77
	jmp	.LBB53_33
.LBB53_33:                              # %sw.default
	movabsq	$.L.str.4, %rdi
	movl	$500, %esi              # imm = 0x1F4
	callq	error
.LBB53_34:                              # %sw.epilog
	jmp	.LBB53_44
.LBB53_35:                              # %if.else
	movl	$0, -8(%rbp)
.LBB53_36:                              # %for.cond78
                                        # =>This Loop Header: Depth=1
                                        #     Child Loop BB53_38 Depth 2
	movl	-8(%rbp), %eax
	cmpl	-20(%rbp), %eax
	jge	.LBB53_43
# %bb.37:                               # %for.body81
                                        #   in Loop: Header=BB53_36 Depth=1
	movl	$0, -4(%rbp)
.LBB53_38:                              # %for.cond82
                                        #   Parent Loop BB53_36 Depth=1
                                        # =>  This Inner Loop Header: Depth=2
	movl	-4(%rbp), %eax
	cmpl	-12(%rbp), %eax
	jge	.LBB53_41
# %bb.39:                               # %for.body85
                                        #   in Loop: Header=BB53_38 Depth=2
	movq	-40(%rbp), %rax
	movslq	-8(%rbp), %rcx
	movq	(%rax,%rcx,8), %rax
	movslq	-4(%rbp), %rcx
	movw	$0, (%rax,%rcx,2)
	movq	-40(%rbp), %rax
	movslq	-8(%rbp), %rcx
	movq	(%rax,%rcx,8), %rdi
	movslq	-4(%rbp), %rax
	shlq	$1, %rax
	addq	%rax, %rdi
	movq	-56(%rbp), %rsi
	movl	-4(%rbp), %eax
	movl	-8(%rbp), %ecx
	imull	-12(%rbp), %ecx
	addl	%ecx, %eax
	imull	-24(%rbp), %eax
	cltq
	addq	%rax, %rsi
	movslq	-24(%rbp), %rdx
	callq	memcpy
# %bb.40:                               # %for.inc100
                                        #   in Loop: Header=BB53_38 Depth=2
	movl	-4(%rbp), %eax
	addl	$1, %eax
	movl	%eax, -4(%rbp)
	jmp	.LBB53_38
.LBB53_41:                              # %for.end102
                                        #   in Loop: Header=BB53_36 Depth=1
	jmp	.LBB53_42
.LBB53_42:                              # %for.inc103
                                        #   in Loop: Header=BB53_36 Depth=1
	movl	-8(%rbp), %eax
	addl	$1, %eax
	movl	%eax, -8(%rbp)
	jmp	.LBB53_36
.LBB53_43:                              # %for.end105
	jmp	.LBB53_44
.LBB53_44:                              # %if.end106
	cmpl	$696948244, -60(%rbp)   # imm = 0x298A9614
	jne	.LBB53_46
.LBB53_45:
	addq	$80, %rsp
	popq	%rbp
	.cfi_def_cfa %rsp, 8
	retq
.LBB53_46:                              # %func_exit
	.cfi_def_cfa %rbp, 16
	callq	detect_breach
	jmp	.LBB53_45
.Lfunc_end53:
	.size	buf2img.17, .Lfunc_end53-buf2img.17
	.cfi_endproc
                                        # -- End function
	.section	.rodata.cst8,"aM",@progbits,8
	.p2align	3               # -- Begin function init_field.18
.LCPI54_0:
	.quad	4607182418800017408     # double 1
	.text
	.p2align	4, 0x90
	.type	init_field.18,@function
init_field.18:                          # @init_field.18
	.cfi_startproc
# %bb.0:                                # %entry
	pushq	%rbp
	.cfi_def_cfa_offset 16
	.cfi_offset %rbp, -16
	movq	%rsp, %rbp
	.cfi_def_cfa_register %rbp
	subq	$16, %rsp
	movl	$76394349, -16(%rbp)    # imm = 0x48DAF6D
	movq	last_P_no_fld, %rax
	movq	%rax, last_P_no
	movq	img, %rax
	movl	$0, 12(%rax)
	movq	img, %rax
	movl	$0, 20(%rax)
	movq	stats, %rax
	movl	$0, 24(%rax)
	movq	input, %rax
	movl	20(%rax), %ecx
	shll	$1, %ecx
	movl	%ecx, 20(%rax)
	movq	input, %rax
	movl	1236(%rax), %ecx
	shll	$1, %ecx
	movl	%ecx, 1236(%rax)
	movq	img, %rcx
	movl	(%rcx), %eax
	cltd
	movl	$2, %esi
	idivl	%esi
	movl	%eax, (%rcx)
	movq	img, %rcx
	movl	72376(%rcx), %eax
	cltd
	idivl	%esi
	movl	%eax, 72376(%rcx)
	movq	img, %rax
	movl	$0, 136(%rax)
	movq	img, %rax
	movl	$0, 140(%rax)
	movq	img, %rax
	movl	$0, 164(%rax)
	movq	img, %rax
	movl	$0, 156(%rax)
	movq	img, %rax
	movl	$0, 148(%rax)
	movq	img, %rax
	movl	$0, 160(%rax)
	movq	img, %rax
	movl	$0, 96(%rax)
	movq	img, %rax
	movl	$0, 152(%rax)
	movq	img, %rax
	movl	$0, 144(%rax)
	movq	img, %rax
	cmpl	$0, 71908(%rax)
	jne	.LBB54_27
# %bb.1:                                # %if.then
	movq	img, %rax
	movl	(%rax), %eax
	movq	input, %rcx
	movl	20(%rcx), %ecx
	addl	$2, %ecx
	imull	%ecx, %eax
	movq	img, %rcx
	addl	71796(%rcx), %eax
	movq	img, %rcx
	movl	%eax, 71792(%rcx)
	movq	img, %rax
	cmpl	$0, 71796(%rax)
	jne	.LBB54_3
# %bb.2:                                # %if.then9
	movq	img, %rax
	movl	71884(%rax), %eax
	movq	img, %rcx
	movl	%eax, 71888(%rcx)
	movq	img, %rax
	movl	71792(%rax), %eax
	movq	img, %rcx
	movl	%eax, 71884(%rcx)
.LBB54_3:                               # %if.end
	movq	input, %rax
	cmpl	$0, 2440(%rax)
	je	.LBB54_6
# %bb.4:                                # %land.lhs.true
	movq	img, %rax
	movl	(%rax), %eax
	addl	$1, %eax
	movq	input, %rcx
	cmpl	8(%rcx), %eax
	jne	.LBB54_6
# %bb.5:                                # %if.then15
	movq	input, %rax
	movl	2440(%rax), %eax
	movq	img, %rcx
	movl	%eax, 71792(%rcx)
.LBB54_6:                               # %if.end18
	movq	img, %rax
	cmpl	$0, (%rax)
	je	.LBB54_9
# %bb.7:                                # %land.lhs.true21
	movq	input, %rax
	cmpl	$0, 1236(%rax)
	je	.LBB54_9
# %bb.8:                                # %if.then24
	movq	img, %rax
	movl	71792(%rax), %eax
	movl	%eax, nextP_tr_fld
.LBB54_9:                               # %if.end26
	movq	input, %rax
	cmpl	$0, 3236(%rax)
	jne	.LBB54_24
# %bb.10:                               # %if.then28
	movq	img, %rax
	cmpl	$2, 24(%rax)
	jne	.LBB54_16
# %bb.11:                               # %if.then30
	movq	input, %rax
	cmpl	$0, 2452(%rax)
	jle	.LBB54_14
# %bb.12:                               # %land.lhs.true32
	movq	img, %rax
	movl	71792(%rax), %eax
	movq	input, %rcx
	cmpl	2452(%rcx), %eax
	jl	.LBB54_14
# %bb.13:                               # %if.then36
	movq	input, %rax
	movl	2456(%rax), %eax
	movq	img, %rcx
	movl	%eax, 40(%rcx)
	jmp	.LBB54_15
.LBB54_14:                              # %if.else
	movq	input, %rax
	movl	12(%rax), %eax
	movq	img, %rcx
	movl	%eax, 40(%rcx)
.LBB54_15:                              # %if.end38
	jmp	.LBB54_23
.LBB54_16:                              # %if.else39
	movq	input, %rax
	cmpl	$0, 2452(%rax)
	jle	.LBB54_19
# %bb.17:                               # %land.lhs.true42
	movq	img, %rax
	movl	71792(%rax), %eax
	movq	input, %rcx
	cmpl	2452(%rcx), %eax
	jl	.LBB54_19
# %bb.18:                               # %if.then46
	movq	input, %rax
	movl	2444(%rax), %eax
	movq	img, %rcx
	movl	%eax, 40(%rcx)
	jmp	.LBB54_20
.LBB54_19:                              # %if.else48
	movq	input, %rax
	movl	16(%rax), %eax
	movq	img, %rcx
	movl	%eax, 40(%rcx)
.LBB54_20:                              # %if.end50
	movq	img, %rax
	cmpl	$3, 24(%rax)
	jne	.LBB54_22
# %bb.21:                               # %if.then53
	movq	input, %rax
	movl	1276(%rax), %eax
	movq	img, %rcx
	movl	%eax, 40(%rcx)
	movq	input, %rax
	movl	1280(%rax), %eax
	movq	img, %rcx
	movl	%eax, 44(%rcx)
.LBB54_22:                              # %if.end56
	jmp	.LBB54_23
.LBB54_23:                              # %if.end57
	jmp	.LBB54_24
.LBB54_24:                              # %if.end58
	movq	img, %rax
	movl	88(%rax), %eax
	movq	img, %rcx
	movl	%eax, 92(%rcx)
	movq	input, %rax
	cmpl	$0, 76(%rax)
	jle	.LBB54_26
# %bb.25:                               # %if.then60
	movq	img, %rax
	movl	(%rax), %eax
	movq	input, %rcx
	cltd
	idivl	76(%rcx)
	movl	%eax, %ecx
	movq	img, %rax
	movl	52(%rax), %eax
	cltd
	movl	$16, %esi
	idivl	%esi
	movl	%eax, %esi
	movl	%ecx, %eax
	cltd
	idivl	%esi
	movq	img, %rax
	movl	%edx, 88(%rax)
.LBB54_26:                              # %if.end66
	jmp	.LBB54_77
.LBB54_27:                              # %if.else67
	movq	input, %rax
	movl	20(%rax), %eax
	addl	$2, %eax
	movq	img, %rcx
	movl	%eax, 71904(%rcx)
	movq	img, %rax
	movl	(%rax), %eax
	subl	$1, %eax
	movq	img, %rcx
	imull	71904(%rcx), %eax
	movq	img, %rcx
	addl	71796(%rcx), %eax
	movl	%eax, -8(%rbp)
	movq	img, %rax
	movl	(%rax), %eax
	movq	img, %rcx
	imull	71904(%rcx), %eax
	movq	img, %rcx
	addl	71796(%rcx), %eax
	movl	%eax, -12(%rbp)
	movq	img, %rax
	cmpl	$0, 71796(%rax)
	jne	.LBB54_33
# %bb.28:                               # %if.then82
	movl	-8(%rbp), %eax
	addl	$1, %eax
	movq	last_P_no, %rcx
	movl	%eax, (%rcx)
	movl	-8(%rbp), %eax
	movq	last_P_no, %rcx
	movl	%eax, 4(%rcx)
	movl	$1, -4(%rbp)
.LBB54_29:                              # %for.cond
                                        # =>This Inner Loop Header: Depth=1
	movl	-4(%rbp), %eax
	movq	img, %rcx
	cmpl	72376(%rcx), %eax
	jg	.LBB54_32
# %bb.30:                               # %for.body
                                        #   in Loop: Header=BB54_29 Depth=1
	movq	last_P_no, %rax
	movl	-4(%rbp), %ecx
	shll	$1, %ecx
	subl	$2, %ecx
	movslq	%ecx, %rcx
	movl	(%rax,%rcx,4), %eax
	movq	img, %rcx
	subl	71904(%rcx), %eax
	movq	last_P_no, %rcx
	movl	-4(%rbp), %edx
	shll	$1, %edx
	movslq	%edx, %rdx
	movl	%eax, (%rcx,%rdx,4)
	movq	last_P_no, %rax
	movl	-4(%rbp), %ecx
	shll	$1, %ecx
	subl	$1, %ecx
	movslq	%ecx, %rcx
	movl	(%rax,%rcx,4), %eax
	movq	img, %rcx
	subl	71904(%rcx), %eax
	movq	last_P_no, %rcx
	movl	-4(%rbp), %edx
	shll	$1, %edx
	addl	$1, %edx
	movslq	%edx, %rdx
	movl	%eax, (%rcx,%rdx,4)
# %bb.31:                               # %for.inc
                                        #   in Loop: Header=BB54_29 Depth=1
	movl	-4(%rbp), %eax
	addl	$1, %eax
	movl	%eax, -4(%rbp)
	jmp	.LBB54_29
.LBB54_32:                              # %for.end
	jmp	.LBB54_38
.LBB54_33:                              # %if.else105
	movl	-12(%rbp), %eax
	subl	$1, %eax
	movq	last_P_no, %rcx
	movl	%eax, (%rcx)
	movl	-8(%rbp), %eax
	movq	last_P_no, %rcx
	movl	%eax, 4(%rcx)
	movl	$1, -4(%rbp)
.LBB54_34:                              # %for.cond109
                                        # =>This Inner Loop Header: Depth=1
	movl	-4(%rbp), %eax
	movq	img, %rcx
	cmpl	72376(%rcx), %eax
	jg	.LBB54_37
# %bb.35:                               # %for.body112
                                        #   in Loop: Header=BB54_34 Depth=1
	movq	last_P_no, %rax
	movl	-4(%rbp), %ecx
	shll	$1, %ecx
	subl	$2, %ecx
	movslq	%ecx, %rcx
	movl	(%rax,%rcx,4), %eax
	movq	img, %rcx
	subl	71904(%rcx), %eax
	movq	last_P_no, %rcx
	movl	-4(%rbp), %edx
	shll	$1, %edx
	movslq	%edx, %rdx
	movl	%eax, (%rcx,%rdx,4)
	movq	last_P_no, %rax
	movl	-4(%rbp), %ecx
	shll	$1, %ecx
	subl	$1, %ecx
	movslq	%ecx, %rcx
	movl	(%rax,%rcx,4), %eax
	movq	img, %rcx
	subl	71904(%rcx), %eax
	movq	last_P_no, %rcx
	movl	-4(%rbp), %edx
	shll	$1, %edx
	addl	$1, %edx
	movslq	%edx, %rdx
	movl	%eax, (%rcx,%rdx,4)
# %bb.36:                               # %for.inc132
                                        #   in Loop: Header=BB54_34 Depth=1
	movl	-4(%rbp), %eax
	addl	$1, %eax
	movl	%eax, -4(%rbp)
	jmp	.LBB54_34
.LBB54_37:                              # %for.end134
	jmp	.LBB54_38
.LBB54_38:                              # %if.end135
	movq	input, %rax
	cmpl	$0, 2440(%rax)
	je	.LBB54_41
# %bb.39:                               # %land.lhs.true138
	movq	img, %rax
	movl	(%rax), %eax
	addl	$1, %eax
	movq	input, %rcx
	cmpl	8(%rcx), %eax
	jne	.LBB54_41
# %bb.40:                               # %if.then143
	movq	input, %rax
	movl	2440(%rax), %eax
	movl	%eax, -12(%rbp)
	movl	-12(%rbp), %eax
	subl	-8(%rbp), %eax
	movq	img, %rcx
	movl	%eax, 71904(%rcx)
.LBB54_41:                              # %if.end147
	vmovsd	.LCPI54_0(%rip), %xmm0  # xmm0 = mem[0],zero
	movq	input, %rax
	movl	20(%rax), %eax
	addl	$1, %eax
	vcvtsi2sd	%eax, %xmm0, %xmm1
	movq	input, %rax
	vcvtsi2sdl	1236(%rax), %xmm0, %xmm2
	vaddsd	%xmm0, %xmm2, %xmm0
	vdivsd	%xmm0, %xmm1, %xmm0
	movq	img, %rax
	vmovsd	%xmm0, 71896(%rax)
	movq	input, %rax
	cmpl	$3, 1320(%rax)
	jne	.LBB54_43
# %bb.42:                               # %if.then156
	vmovsd	.LCPI54_0(%rip), %xmm0  # xmm0 = mem[0],zero
	movq	img, %rax
	vmovsd	%xmm0, 71896(%rax)
.LBB54_43:                              # %if.end158
	movq	input, %rax
	cmpl	$0, 1320(%rax)
	je	.LBB54_45
# %bb.44:                               # %if.then161
	vmovsd	.LCPI54_0(%rip), %xmm0  # xmm0 = mem[0],zero
	movl	-8(%rbp), %eax
	movq	img, %rcx
	vaddsd	71896(%rcx), %xmm0, %xmm0
	movq	gop_structure, %rcx
	movq	img, %rdx
	movl	71908(%rdx), %edx
	subl	$1, %edx
	movslq	%edx, %rdx
	imulq	$24, %rdx, %rdx
	addq	%rdx, %rcx
	movl	4(%rcx), %ecx
	addl	$1, %ecx
	vcvtsi2sd	%ecx, %xmm0, %xmm1
	vmulsd	%xmm1, %xmm0, %xmm0
	vcvttsd2si	%xmm0, %ecx
	addl	%ecx, %eax
	movq	img, %rcx
	movl	%eax, 71792(%rcx)
	jmp	.LBB54_46
.LBB54_45:                              # %if.else174
	vmovsd	.LCPI54_0(%rip), %xmm0  # xmm0 = mem[0],zero
	movl	-8(%rbp), %eax
	movq	img, %rcx
	vaddsd	71896(%rcx), %xmm0, %xmm0
	movq	img, %rcx
	vcvtsi2sdl	71908(%rcx), %xmm0, %xmm1
	vmulsd	%xmm1, %xmm0, %xmm0
	vcvttsd2si	%xmm0, %ecx
	addl	%ecx, %eax
	movq	img, %rcx
	movl	%eax, 71792(%rcx)
.LBB54_46:                              # %if.end183
	movq	img, %rax
	movl	71792(%rax), %eax
	cmpl	-12(%rbp), %eax
	jl	.LBB54_48
# %bb.47:                               # %if.then187
	movl	-12(%rbp), %eax
	subl	$1, %eax
	movq	img, %rcx
	movl	%eax, 71792(%rcx)
.LBB54_48:                              # %if.end190
	movq	input, %rax
	cmpl	$0, 3236(%rax)
	jne	.LBB54_73
# %bb.49:                               # %land.lhs.true193
	movq	input, %rax
	cmpl	$3, 1320(%rax)
	je	.LBB54_73
# %bb.50:                               # %if.then197
	movq	input, %rax
	cmpl	$0, 2452(%rax)
	jle	.LBB54_53
# %bb.51:                               # %land.lhs.true201
	movq	img, %rax
	movl	71792(%rax), %eax
	movq	input, %rcx
	cmpl	2452(%rcx), %eax
	jl	.LBB54_53
# %bb.52:                               # %if.then206
	movq	input, %rax
	movl	2448(%rax), %eax
	movq	img, %rcx
	movl	%eax, 40(%rcx)
	jmp	.LBB54_54
.LBB54_53:                              # %if.else208
	movq	input, %rax
	movl	1240(%rax), %eax
	movq	img, %rcx
	movl	%eax, 40(%rcx)
.LBB54_54:                              # %if.end210
	movq	img, %rax
	cmpl	$0, 72496(%rax)
	je	.LBB54_72
# %bb.55:                               # %if.then212
	movq	input, %rax
	cmpl	$0, 2452(%rax)
	jle	.LBB54_64
# %bb.56:                               # %land.lhs.true216
	movq	img, %rax
	movl	71792(%rax), %eax
	movq	input, %rcx
	cmpl	2452(%rcx), %eax
	jl	.LBB54_64
# %bb.57:                               # %if.then221
	movq	input, %rax
	movl	2448(%rax), %eax
	movq	input, %rcx
	addl	2460(%rcx), %eax
	cmpl	$0, %eax
	jge	.LBB54_59
# %bb.58:                               # %cond.true
	xorl	%eax, %eax
	jmp	.LBB54_63
.LBB54_59:                              # %cond.false
	movq	input, %rax
	movl	2448(%rax), %eax
	movq	input, %rcx
	addl	2460(%rcx), %eax
	cmpl	$51, %eax
	jle	.LBB54_61
# %bb.60:                               # %cond.true231
	movl	$51, %eax
	jmp	.LBB54_62
.LBB54_61:                              # %cond.false232
	movq	input, %rax
	movl	2448(%rax), %eax
	movq	input, %rcx
	addl	2460(%rcx), %eax
.LBB54_62:                              # %cond.end
.LBB54_63:                              # %cond.end236
	movq	img, %rcx
	movl	%eax, 40(%rcx)
	jmp	.LBB54_71
.LBB54_64:                              # %if.else239
	movq	input, %rax
	movl	1240(%rax), %eax
	movq	input, %rcx
	addl	1244(%rcx), %eax
	cmpl	$0, %eax
	jge	.LBB54_66
# %bb.65:                               # %cond.true244
	xorl	%eax, %eax
	jmp	.LBB54_70
.LBB54_66:                              # %cond.false245
	movq	input, %rax
	movl	1240(%rax), %eax
	movq	input, %rcx
	addl	1244(%rcx), %eax
	cmpl	$51, %eax
	jle	.LBB54_68
# %bb.67:                               # %cond.true251
	movl	$51, %eax
	jmp	.LBB54_69
.LBB54_68:                              # %cond.false252
	movq	input, %rax
	movl	1240(%rax), %eax
	movq	input, %rcx
	addl	1244(%rcx), %eax
.LBB54_69:                              # %cond.end256
.LBB54_70:                              # %cond.end258
	movq	img, %rcx
	movl	%eax, 40(%rcx)
.LBB54_71:                              # %if.end261
	jmp	.LBB54_72
.LBB54_72:                              # %if.end262
	jmp	.LBB54_76
.LBB54_73:                              # %if.else263
	movq	input, %rax
	cmpl	$3, 1320(%rax)
	jne	.LBB54_75
# %bb.74:                               # %if.then267
	movq	gop_structure, %rax
	movq	img, %rcx
	movl	71908(%rcx), %ecx
	subl	$1, %ecx
	movslq	%ecx, %rcx
	imulq	$24, %rcx, %rcx
	addq	%rcx, %rax
	movl	12(%rax), %eax
	movq	img, %rcx
	movl	%eax, 40(%rcx)
.LBB54_75:                              # %if.end273
	jmp	.LBB54_76
.LBB54_76:                              # %if.end274
	jmp	.LBB54_77
.LBB54_77:                              # %if.end275
	movq	input, %rcx
	movl	20(%rcx), %eax
	cltd
	movl	$2, %esi
	idivl	%esi
	movl	%eax, 20(%rcx)
	movq	input, %rcx
	movl	1236(%rcx), %eax
	cltd
	idivl	%esi
	movl	%eax, 1236(%rcx)
	movq	img, %rax
	movl	72376(%rax), %ecx
	shll	$1, %ecx
	movl	%ecx, 72376(%rax)
	movq	img, %rax
	movl	(%rax), %eax
	shll	$1, %eax
	movq	img, %rcx
	addl	71796(%rcx), %eax
	movq	img, %rcx
	movl	%eax, (%rcx)
	movq	img, %rax
	movl	52(%rax), %eax
	movq	img, %rcx
	imull	60(%rcx), %eax
	cltd
	movl	$256, %ecx              # imm = 0x100
	idivl	%ecx
	movq	img, %rcx
	movl	%eax, 16(%rcx)
	cmpl	$76394349, -16(%rbp)    # imm = 0x48DAF6D
	jne	.LBB54_79
.LBB54_78:
	addq	$16, %rsp
	popq	%rbp
	.cfi_def_cfa %rsp, 8
	retq
.LBB54_79:                              # %func_exit
	.cfi_def_cfa %rbp, 16
	callq	detect_breach
	jmp	.LBB54_78
.Lfunc_end54:
	.size	init_field.18, .Lfunc_end54-init_field.18
	.cfi_endproc
                                        # -- End function
	.globl	field_picture.19        # -- Begin function field_picture.19
	.p2align	4, 0x90
	.type	field_picture.19,@function
field_picture.19:                       # @field_picture.19
	.cfi_startproc
# %bb.0:                                # %entry
	pushq	%rbp
	.cfi_def_cfa_offset 16
	.cfi_offset %rbp, -16
	movq	%rsp, %rbp
	.cfi_def_cfa_register %rbp
	subq	$32, %rsp
	movl	$1184462158, -12(%rbp)  # imm = 0x4699754E
	movq	%rdi, -8(%rbp)
	movq	%rsi, -24(%rbp)
	movq	img, %rax
	movl	24(%rax), %eax
	movl	%eax, -28(%rbp)
	movq	stats, %rax
	movl	$0, 1472(%rax)
	movq	stats, %rax
	addq	$1472, %rax             # imm = 0x5C0
	movq	stats, %rcx
	movq	%rax, 1480(%rcx)
	movq	img, %rax
	movl	(%rax), %ecx
	shll	$1, %ecx
	movl	%ecx, (%rax)
	movq	img, %rax
	movl	72376(%rax), %ecx
	shll	$1, %ecx
	movl	%ecx, 72376(%rax)
	movq	input, %rax
	movl	68(%rax), %eax
	movq	img, %rcx
	addl	72732(%rcx), %eax
	cltd
	movl	$2, %ecx
	idivl	%ecx
	movq	img, %rdx
	movl	%eax, 60(%rdx)
	movq	img, %rax
	movl	68(%rax), %eax
	cltd
	idivl	%ecx
	movq	img, %rcx
	movl	%eax, 64(%rcx)
	movq	img, %rax
	movl	$1, 71800(%rax)
	movq	img, %rax
	movl	72488(%rax), %eax
	shrl	$1, %eax
	movq	img, %rcx
	movl	%eax, 72484(%rcx)
	movq	img, %rax
	movl	28(%rax), %edi
	movq	img, %rax
	movl	52(%rax), %esi
	movq	img, %rax
	movl	60(%rax), %edx
	movq	img, %rax
	movl	56(%rax), %ecx
	movq	img, %rax
	movl	64(%rax), %r8d
	callq	alloc_storable_picture
	movq	%rax, enc_top_picture
	movq	img, %rax
	movl	72448(%rax), %eax
	movq	enc_top_picture, %rcx
	movl	%eax, 4(%rcx)
	movq	img, %rax
	movl	72448(%rax), %eax
	movq	enc_top_picture, %rcx
	movl	%eax, 16(%rcx)
	movq	img, %rax
	movl	72464(%rax), %eax
	movq	enc_top_picture, %rcx
	movl	%eax, 6364(%rcx)
	movq	img, %rax
	movl	72464(%rax), %eax
	movq	enc_top_picture, %rcx
	movl	%eax, 6360(%rcx)
	movq	enc_top_picture, %rax
	movl	$0, 6412(%rax)
	movq	img, %rax
	movl	$0, 72400(%rax)
	movq	enc_top_picture, %rax
	movl	$0, 6416(%rax)
	movq	img, %rax
	movl	72448(%rax), %eax
	movq	img, %rcx
	movl	%eax, 72460(%rcx)
	movq	img, %rax
	movl	$1, 28(%rax)
	movq	enc_top_picture, %rax
	movq	%rax, enc_picture
	callq	copy_params
	callq	put_buffer_top
	callq	init_field
	movq	img, %rax
	cmpl	$1, 24(%rax)
	jne	.LBB55_2
# %bb.1:                                # %if.then
	movl	nextP_tr_fld, %eax
	addl	$-1, %eax
	movl	%eax, nextP_tr_fld
.LBB55_2:                               # %if.end
	movq	img, %rax
	movl	$1, 71800(%rax)
	movq	input, %rax
	cmpl	$0, 3236(%rax)
	je	.LBB55_7
# %bb.3:                                # %if.then15
	movq	input, %rax
	movl	3248(%rax), %eax
	movq	img, %rcx
	movl	%eax, 72620(%rcx)
	movq	input, %rax
	cmpl	$1, 2880(%rax)
	jne	.LBB55_5
# %bb.4:                                # %if.then17
	xorl	%edi, %edi
	movl	$1, %esi
	movl	$1, %edx
	callq	rc_init_pict
	jmp	.LBB55_6
.LBB55_5:                               # %if.else
	xorl	%edi, %edi
	movl	$1, %esi
	xorl	%edx, %edx
	callq	rc_init_pict
.LBB55_6:                               # %if.end18
	movl	$1, %edi
	callq	updateQuantizationParameter
	movq	img, %rcx
	movl	%eax, 40(%rcx)
.LBB55_7:                               # %if.end20
	movq	img, %rax
	movl	$1, 72596(%rax)
	movq	top_pic, %rdi
	callq	code_a_picture
	movq	enc_picture, %rax
	movl	$1, (%rax)
	movq	enc_top_picture, %rdi
	callq	store_picture_in_dpb
	movq	img, %rax
	movq	14160(%rax), %rax
	movq	24(%rax), %rax
	movq	(%rax), %rax
	movl	(%rax), %eax
	shll	$3, %eax
	movq	-8(%rbp), %rcx
	movl	%eax, 808(%rcx)
	movq	-8(%rbp), %rax
	movl	808(%rax), %eax
	movl	%eax, -16(%rbp)
	movq	img, %rax
	movl	28(%rax), %edi
	movq	img, %rax
	movl	52(%rax), %esi
	movq	img, %rax
	movl	60(%rax), %edx
	movq	img, %rax
	movl	56(%rax), %ecx
	movq	img, %rax
	movl	64(%rax), %r8d
	callq	alloc_storable_picture
	movq	%rax, enc_bottom_picture
	movq	img, %rax
	movl	72452(%rax), %eax
	movq	enc_bottom_picture, %rcx
	movl	%eax, 4(%rcx)
	movq	img, %rax
	movl	72452(%rax), %eax
	movq	enc_bottom_picture, %rcx
	movl	%eax, 16(%rcx)
	movq	img, %rax
	movl	72464(%rax), %eax
	movq	enc_bottom_picture, %rcx
	movl	%eax, 6364(%rcx)
	movq	img, %rax
	movl	72464(%rax), %eax
	movq	enc_bottom_picture, %rcx
	movl	%eax, 6360(%rcx)
	movq	enc_bottom_picture, %rax
	movl	$0, 6412(%rax)
	movq	img, %rax
	movl	$0, 72400(%rax)
	movq	enc_bottom_picture, %rax
	movl	$0, 6416(%rax)
	movq	img, %rax
	movl	72452(%rax), %eax
	movq	img, %rcx
	movl	%eax, 72460(%rcx)
	movq	img, %rax
	movl	$2, 28(%rax)
	movq	enc_bottom_picture, %rax
	movq	%rax, enc_picture
	callq	copy_params
	callq	put_buffer_bot
	movq	img, %rax
	movl	(%rax), %ecx
	addl	$1, %ecx
	movl	%ecx, (%rax)
	callq	init_field
	movq	img, %rax
	cmpl	$1, 24(%rax)
	jne	.LBB55_9
# %bb.8:                                # %if.then46
	movl	nextP_tr_fld, %eax
	addl	$1, %eax
	movl	%eax, nextP_tr_fld
.LBB55_9:                               # %if.end48
	movq	img, %rax
	cmpl	$2, 24(%rax)
	jne	.LBB55_12
# %bb.10:                               # %land.lhs.true
	movq	input, %rax
	cmpl	$1, 2888(%rax)
	je	.LBB55_12
# %bb.11:                               # %if.then52
	movq	img, %rax
	movl	$0, 24(%rax)
.LBB55_12:                              # %if.end54
	movq	img, %rax
	movl	$1, 71800(%rax)
	movq	input, %rax
	cmpl	$0, 3236(%rax)
	je	.LBB55_14
# %bb.13:                               # %if.then58
	movl	-16(%rbp), %edi
	callq	setbitscount
.LBB55_14:                              # %if.end59
	movq	input, %rax
	cmpl	$0, 3236(%rax)
	je	.LBB55_16
# %bb.15:                               # %if.then62
	xorl	%edi, %edi
	xorl	%esi, %esi
	xorl	%edx, %edx
	callq	rc_init_pict
	xorl	%edi, %edi
	callq	updateQuantizationParameter
	movq	img, %rcx
	movl	%eax, 40(%rcx)
.LBB55_16:                              # %if.end65
	movq	img, %rax
	movl	$0, 72596(%rax)
	movq	enc_picture, %rax
	movl	$2, (%rax)
	movq	bottom_pic, %rdi
	callq	code_a_picture
	movq	img, %rax
	movq	14160(%rax), %rax
	movq	24(%rax), %rax
	movq	(%rax), %rax
	movl	(%rax), %eax
	shll	$3, %eax
	movq	-24(%rbp), %rcx
	movl	%eax, 808(%rcx)
	movq	-8(%rbp), %rdi
	addq	$812, %rdi              # imm = 0x32C
	movq	-8(%rbp), %rsi
	addq	$816, %rsi              # imm = 0x330
	movq	-8(%rbp), %rdx
	addq	$820, %rdx              # imm = 0x334
	callq	distortion_fld
	cmpl	$1184462158, -12(%rbp)  # imm = 0x4699754E
	jne	.LBB55_18
.LBB55_17:
	addq	$32, %rsp
	popq	%rbp
	.cfi_def_cfa %rsp, 8
	retq
.LBB55_18:                              # %func_exit
	.cfi_def_cfa %rbp, 16
	callq	detect_breach
	jmp	.LBB55_17
.Lfunc_end55:
	.size	field_picture.19, .Lfunc_end55-field_picture.19
	.cfi_endproc
                                        # -- End function
	.globl	buf2img.20              # -- Begin function buf2img.20
	.p2align	4, 0x90
	.type	buf2img.20,@function
buf2img.20:                             # @buf2img.20
	.cfi_startproc
# %bb.0:                                # %entry
	pushq	%rbp
	.cfi_def_cfa_offset 16
	.cfi_offset %rbp, -16
	movq	%rsp, %rbp
	.cfi_def_cfa_register %rbp
	subq	$80, %rsp
	movl	$80356819, -60(%rbp)    # imm = 0x4CA25D3
	movq	%rdi, -40(%rbp)
	movq	%rsi, -56(%rbp)
	movl	%edx, -12(%rbp)
	movl	%ecx, -20(%rbp)
	movl	%r8d, -24(%rbp)
	movslq	-24(%rbp), %rax
	cmpq	$2, %rax
	jbe	.LBB56_2
# %bb.1:                                # %if.then
	movabsq	$.L.str.3, %rdi
	movl	$500, %esi              # imm = 0x1F4
	callq	error
.LBB56_2:                               # %if.end
	movb	$0, %al
	callq	testEndian
	cmpl	$0, %eax
	je	.LBB56_35
# %bb.3:                                # %if.then2
	movl	-24(%rbp), %eax
	movl	%eax, %ecx
	subl	$1, %ecx
	je	.LBB56_6
	jmp	.LBB56_4
.LBB56_4:                               # %if.then2
	movl	%eax, %ecx
	subl	$2, %ecx
	je	.LBB56_15
	jmp	.LBB56_5
.LBB56_5:                               # %if.then2
	subl	$4, %eax
	je	.LBB56_24
	jmp	.LBB56_33
.LBB56_6:                               # %sw.bb
	movl	$0, -4(%rbp)
.LBB56_7:                               # %for.cond
                                        # =>This Loop Header: Depth=1
                                        #     Child Loop BB56_9 Depth 2
	movl	-4(%rbp), %eax
	cmpl	-20(%rbp), %eax
	jge	.LBB56_14
# %bb.8:                                # %for.body
                                        #   in Loop: Header=BB56_7 Depth=1
