	.text
	.file	"image.c"
	.globl	MbAffPostProc           # -- Begin function MbAffPostProc
	.p2align	4, 0x90
	.type	MbAffPostProc,@function
MbAffPostProc:                          # @MbAffPostProc
	.cfi_startproc
# %bb.0:                                # %rand_bb
	pushq	%rbp
	.cfi_def_cfa_offset 16
	.cfi_offset %rbp, -16
	movq	%rsp, %rbp
	.cfi_def_cfa_register %rbp
	callq	get_urand
	cmpl	$0, %eax
	jne	.LBB0_9
# %bb.1:                                # %func_MbAffPostProc.39
	callq	MbAffPostProc.39
	popq	%rbp
	.cfi_def_cfa %rsp, 8
	retq
.LBB0_2:                                # %func_MbAffPostProc.51
	.cfi_def_cfa %rbp, 16
	callq	MbAffPostProc.51
	popq	%rbp
	.cfi_def_cfa %rsp, 8
	retq
.LBB0_3:                                # %func_MbAffPostProc.75
	.cfi_def_cfa %rbp, 16
	callq	MbAffPostProc.75
	popq	%rbp
	.cfi_def_cfa %rsp, 8
	retq
.LBB0_4:                                # %func_MbAffPostProc.78
	.cfi_def_cfa %rbp, 16
	callq	MbAffPostProc.78
	popq	%rbp
	.cfi_def_cfa %rsp, 8
	retq
.LBB0_5:                                # %func_MbAffPostProc.103
	.cfi_def_cfa %rbp, 16
	callq	MbAffPostProc.103
	popq	%rbp
	.cfi_def_cfa %rsp, 8
	retq
.LBB0_6:                                # %func_MbAffPostProc.132
	.cfi_def_cfa %rbp, 16
	callq	MbAffPostProc.132
	popq	%rbp
	.cfi_def_cfa %rsp, 8
	retq
.LBB0_7:                                # %func_MbAffPostProc.147
	.cfi_def_cfa %rbp, 16
	callq	MbAffPostProc.147
	popq	%rbp
	.cfi_def_cfa %rsp, 8
	retq
.LBB0_8:                                # %func_MbAffPostProc.149
	.cfi_def_cfa %rbp, 16
	callq	MbAffPostProc.149
	popq	%rbp
	.cfi_def_cfa %rsp, 8
	retq
.LBB0_9:                                # %ctrl0
	.cfi_def_cfa %rbp, 16
	cmpl	$1, %eax
	je	.LBB0_2
# %bb.10:                               # %ctrl1
	cmpl	$2, %eax
	je	.LBB0_3
# %bb.11:                               # %ctrl2
	cmpl	$3, %eax
	je	.LBB0_4
# %bb.12:                               # %ctrl3
	cmpl	$4, %eax
	je	.LBB0_5
# %bb.13:                               # %ctrl4
	cmpl	$5, %eax
	je	.LBB0_6
# %bb.14:                               # %ctrl5
	cmpl	$6, %eax
	je	.LBB0_7
	jmp	.LBB0_8
.Lfunc_end0:
	.size	MbAffPostProc, .Lfunc_end0-MbAffPostProc
	.cfi_endproc
                                        # -- End function
	.globl	code_a_picture          # -- Begin function code_a_picture
	.p2align	4, 0x90
	.type	code_a_picture,@function
code_a_picture:                         # @code_a_picture
	.cfi_startproc
# %bb.0:                                # %rand_bb
	pushq	%rbp
	.cfi_def_cfa_offset 16
	.cfi_offset %rbp, -16
	movq	%rsp, %rbp
	.cfi_def_cfa_register %rbp
	pushq	%rbx
	pushq	%rax
	.cfi_offset %rbx, -24
	movq	%rdi, %rbx
	callq	get_urand
	cmpl	$0, %eax
	jne	.LBB1_9
# %bb.1:                                # %func_code_a_picture.95
	movq	%rbx, %rdi
	callq	code_a_picture.95
	addq	$8, %rsp
	popq	%rbx
	popq	%rbp
	.cfi_def_cfa %rsp, 8
	retq
.LBB1_2:                                # %func_code_a_picture.135
	.cfi_def_cfa %rbp, 16
	movq	%rbx, %rdi
	callq	code_a_picture.135
	addq	$8, %rsp
	popq	%rbx
	popq	%rbp
	.cfi_def_cfa %rsp, 8
	retq
.LBB1_3:                                # %func_code_a_picture.152
	.cfi_def_cfa %rbp, 16
	movq	%rbx, %rdi
	callq	code_a_picture.152
	addq	$8, %rsp
	popq	%rbx
	popq	%rbp
	.cfi_def_cfa %rsp, 8
	retq
.LBB1_4:                                # %func_code_a_picture.175
	.cfi_def_cfa %rbp, 16
	movq	%rbx, %rdi
	callq	code_a_picture.175
	addq	$8, %rsp
	popq	%rbx
	popq	%rbp
	.cfi_def_cfa %rsp, 8
	retq
.LBB1_5:                                # %func_code_a_picture.180
	.cfi_def_cfa %rbp, 16
	movq	%rbx, %rdi
	callq	code_a_picture.180
	addq	$8, %rsp
	popq	%rbx
	popq	%rbp
	.cfi_def_cfa %rsp, 8
	retq
.LBB1_6:                                # %func_code_a_picture.182
	.cfi_def_cfa %rbp, 16
	movq	%rbx, %rdi
	callq	code_a_picture.182
	addq	$8, %rsp
	popq	%rbx
	popq	%rbp
	.cfi_def_cfa %rsp, 8
	retq
.LBB1_7:                                # %func_code_a_picture.184
	.cfi_def_cfa %rbp, 16
	movq	%rbx, %rdi
	callq	code_a_picture.184
	addq	$8, %rsp
	popq	%rbx
	popq	%rbp
	.cfi_def_cfa %rsp, 8
	retq
.LBB1_8:                                # %func_code_a_picture.187
	.cfi_def_cfa %rbp, 16
	movq	%rbx, %rdi
	callq	code_a_picture.187
	addq	$8, %rsp
	popq	%rbx
	popq	%rbp
	.cfi_def_cfa %rsp, 8
	retq
.LBB1_9:                                # %ctrl0
	.cfi_def_cfa %rbp, 16
	cmpl	$1, %eax
	je	.LBB1_2
# %bb.10:                               # %ctrl1
	cmpl	$2, %eax
	je	.LBB1_3
# %bb.11:                               # %ctrl2
	cmpl	$3, %eax
	je	.LBB1_4
# %bb.12:                               # %ctrl3
	cmpl	$4, %eax
	je	.LBB1_5
# %bb.13:                               # %ctrl4
	cmpl	$5, %eax
	je	.LBB1_6
# %bb.14:                               # %ctrl5
	cmpl	$6, %eax
	je	.LBB1_7
	jmp	.LBB1_8
.Lfunc_end1:
	.size	code_a_picture, .Lfunc_end1-code_a_picture
	.cfi_endproc
                                        # -- End function
	.globl	encode_one_frame        # -- Begin function encode_one_frame
	.p2align	4, 0x90
	.type	encode_one_frame,@function
encode_one_frame:                       # @encode_one_frame
	.cfi_startproc
# %bb.0:                                # %rand_bb
	pushq	%rbp
	.cfi_def_cfa_offset 16
	.cfi_offset %rbp, -16
	movq	%rsp, %rbp
	.cfi_def_cfa_register %rbp
	callq	get_urand
	cmpl	$0, %eax
	jne	.LBB2_9
# %bb.1:                                # %func_encode_one_frame.34
	callq	encode_one_frame.34
	popq	%rbp
	.cfi_def_cfa %rsp, 8
	retq
.LBB2_2:                                # %func_encode_one_frame.35
	.cfi_def_cfa %rbp, 16
	callq	encode_one_frame.35
	popq	%rbp
	.cfi_def_cfa %rsp, 8
	retq
.LBB2_3:                                # %func_encode_one_frame.38
	.cfi_def_cfa %rbp, 16
	callq	encode_one_frame.38
	popq	%rbp
	.cfi_def_cfa %rsp, 8
	retq
.LBB2_4:                                # %func_encode_one_frame.68
	.cfi_def_cfa %rbp, 16
	callq	encode_one_frame.68
	popq	%rbp
	.cfi_def_cfa %rsp, 8
	retq
.LBB2_5:                                # %func_encode_one_frame.87
	.cfi_def_cfa %rbp, 16
	callq	encode_one_frame.87
	popq	%rbp
	.cfi_def_cfa %rsp, 8
	retq
.LBB2_6:                                # %func_encode_one_frame.96
	.cfi_def_cfa %rbp, 16
	callq	encode_one_frame.96
	popq	%rbp
	.cfi_def_cfa %rsp, 8
	retq
.LBB2_7:                                # %func_encode_one_frame.98
	.cfi_def_cfa %rbp, 16
	callq	encode_one_frame.98
	popq	%rbp
	.cfi_def_cfa %rsp, 8
	retq
.LBB2_8:                                # %func_encode_one_frame.99
	.cfi_def_cfa %rbp, 16
	callq	encode_one_frame.99
	popq	%rbp
	.cfi_def_cfa %rsp, 8
	retq
.LBB2_9:                                # %ctrl0
	.cfi_def_cfa %rbp, 16
	cmpl	$1, %eax
	je	.LBB2_2
# %bb.10:                               # %ctrl1
	cmpl	$2, %eax
	je	.LBB2_3
# %bb.11:                               # %ctrl2
	cmpl	$3, %eax
	je	.LBB2_4
# %bb.12:                               # %ctrl3
	cmpl	$4, %eax
	je	.LBB2_5
# %bb.13:                               # %ctrl4
	cmpl	$5, %eax
	je	.LBB2_6
# %bb.14:                               # %ctrl5
	cmpl	$6, %eax
	je	.LBB2_7
	jmp	.LBB2_8
.Lfunc_end2:
	.size	encode_one_frame, .Lfunc_end2-encode_one_frame
	.cfi_endproc
                                        # -- End function
	.p2align	4, 0x90         # -- Begin function ReadOneFrame
	.type	ReadOneFrame,@function
ReadOneFrame:                           # @ReadOneFrame
	.cfi_startproc
# %bb.0:                                # %rand_bb
	pushq	%rbp
	.cfi_def_cfa_offset 16
	.cfi_offset %rbp, -16
	movq	%rsp, %rbp
	.cfi_def_cfa_register %rbp
	pushq	%r15
	pushq	%r14
	pushq	%r13
	pushq	%r12
	pushq	%rbx
	pushq	%rax
	.cfi_offset %rbx, -56
	.cfi_offset %r12, -48
	.cfi_offset %r13, -40
	.cfi_offset %r14, -32
	.cfi_offset %r15, -24
	movl	%r9d, -44(%rbp)         # 4-byte Spill
	movl	%r8d, %r12d
	movl	%ecx, %r13d
	movl	%edx, %ebx
	movl	%esi, %r14d
	movl	%edi, %r15d
	callq	get_urand
	cmpl	$0, %eax
	jne	.LBB3_9
# %bb.1:                                # %func_ReadOneFrame.22
	movl	%r15d, %edi
	movl	%r14d, %esi
	movl	%ebx, %edx
	movl	%r13d, %ecx
	movl	%r12d, %r8d
	movl	-44(%rbp), %r9d         # 4-byte Reload
	callq	ReadOneFrame.22
	addq	$8, %rsp
	popq	%rbx
	popq	%r12
	popq	%r13
	popq	%r14
	popq	%r15
	popq	%rbp
	.cfi_def_cfa %rsp, 8
	retq
.LBB3_2:                                # %func_ReadOneFrame.36
	.cfi_def_cfa %rbp, 16
	movl	%r15d, %edi
	movl	%r14d, %esi
	movl	%ebx, %edx
	movl	%r13d, %ecx
	movl	%r12d, %r8d
	callq	ReadOneFrame.36
	addq	$8, %rsp
	popq	%rbx
	popq	%r12
	popq	%r13
	popq	%r14
	popq	%r15
	popq	%rbp
	.cfi_def_cfa %rsp, 8
	retq
.LBB3_3:                                # %func_ReadOneFrame.65
	.cfi_def_cfa %rbp, 16
	movl	%r15d, %edi
	movl	%r14d, %esi
	movl	%ebx, %edx
	movl	%r13d, %ecx
	movl	%r12d, %r8d
	callq	ReadOneFrame.65
	addq	$8, %rsp
	popq	%rbx
	popq	%r12
	popq	%r13
	popq	%r14
	popq	%r15
	popq	%rbp
	.cfi_def_cfa %rsp, 8
	retq
.LBB3_4:                                # %func_ReadOneFrame.97
	.cfi_def_cfa %rbp, 16
	movl	%r15d, %edi
	movl	%r14d, %esi
	movl	%ebx, %edx
	movl	%r13d, %ecx
	movl	%r12d, %r8d
	callq	ReadOneFrame.97
	addq	$8, %rsp
	popq	%rbx
	popq	%r12
	popq	%r13
	popq	%r14
	popq	%r15
	popq	%rbp
	.cfi_def_cfa %rsp, 8
	retq
.LBB3_5:                                # %func_ReadOneFrame.104
	.cfi_def_cfa %rbp, 16
	movl	%r15d, %edi
	movl	%r14d, %esi
	movl	%ebx, %edx
	movl	%r13d, %ecx
	movl	%r12d, %r8d
	callq	ReadOneFrame.104
	addq	$8, %rsp
	popq	%rbx
	popq	%r12
	popq	%r13
	popq	%r14
	popq	%r15
	popq	%rbp
	.cfi_def_cfa %rsp, 8
	retq
.LBB3_6:                                # %func_ReadOneFrame.116
	.cfi_def_cfa %rbp, 16
	movl	%r15d, %edi
	movl	%r14d, %esi
	movl	%ebx, %edx
	movl	%r13d, %ecx
	movl	%r12d, %r8d
	callq	ReadOneFrame.116
	addq	$8, %rsp
	popq	%rbx
	popq	%r12
	popq	%r13
	popq	%r14
	popq	%r15
	popq	%rbp
	.cfi_def_cfa %rsp, 8
	retq
.LBB3_7:                                # %func_ReadOneFrame.139
	.cfi_def_cfa %rbp, 16
	callq	ReadOneFrame.139
	addq	$8, %rsp
	popq	%rbx
	popq	%r12
	popq	%r13
	popq	%r14
	popq	%r15
	popq	%rbp
	.cfi_def_cfa %rsp, 8
	retq
.LBB3_8:                                # %func_ReadOneFrame.162
	.cfi_def_cfa %rbp, 16
	callq	ReadOneFrame.162
	addq	$8, %rsp
	popq	%rbx
	popq	%r12
	popq	%r13
	popq	%r14
	popq	%r15
	popq	%rbp
	.cfi_def_cfa %rsp, 8
	retq
.LBB3_9:                                # %ctrl0
	.cfi_def_cfa %rbp, 16
	movl	-44(%rbp), %r9d         # 4-byte Reload
	cmpl	$1, %eax
	je	.LBB3_2
# %bb.10:                               # %ctrl1
	cmpl	$2, %eax
	je	.LBB3_3
# %bb.11:                               # %ctrl2
	cmpl	$3, %eax
	je	.LBB3_4
# %bb.12:                               # %ctrl3
	cmpl	$4, %eax
	je	.LBB3_5
# %bb.13:                               # %ctrl4
	cmpl	$5, %eax
	je	.LBB3_6
# %bb.14:                               # %ctrl5
	cmpl	$6, %eax
	movl	%r12d, %r8d
	movl	%r13d, %ecx
	movl	%ebx, %edx
	movl	%r14d, %esi
	movl	%r15d, %edi
	je	.LBB3_7
	jmp	.LBB3_8
.Lfunc_end3:
	.size	ReadOneFrame, .Lfunc_end3-ReadOneFrame
	.cfi_endproc
                                        # -- End function
	.p2align	4, 0x90         # -- Begin function PaddAutoCropBorders
	.type	PaddAutoCropBorders,@function
PaddAutoCropBorders:                    # @PaddAutoCropBorders
	.cfi_startproc
# %bb.0:                                # %rand_bb
	pushq	%rbp
	.cfi_def_cfa_offset 16
	.cfi_offset %rbp, -16
	movq	%rsp, %rbp
	.cfi_def_cfa_register %rbp
	pushq	%r15
	pushq	%r14
	pushq	%r13
	pushq	%r12
	pushq	%rbx
	subq	$24, %rsp
	.cfi_offset %rbx, -56
	.cfi_offset %r12, -48
	.cfi_offset %r13, -40
	.cfi_offset %r14, -32
	.cfi_offset %r15, -24
	movl	%r9d, -44(%rbp)         # 4-byte Spill
	movl	%r8d, %r15d
	movl	%ecx, %r12d
	movl	%edx, %ebx
	movl	%esi, %r14d
	movl	%edi, %r13d
	callq	get_urand
	cmpl	$0, %eax
	jne	.LBB4_9
# %bb.1:                                # %func_PaddAutoCropBorders.20
	movl	%r13d, %edi
	movl	%r14d, %esi
	movl	%ebx, %edx
	movl	%r12d, %ecx
	movl	%r15d, %r8d
	movl	-44(%rbp), %r9d         # 4-byte Reload
	movl	16(%rbp), %eax
	movl	%eax, (%rsp)
	movl	24(%rbp), %eax
	movl	%eax, 8(%rsp)
	callq	PaddAutoCropBorders.20
	addq	$24, %rsp
	popq	%rbx
	popq	%r12
	popq	%r13
	popq	%r14
	popq	%r15
	popq	%rbp
	.cfi_def_cfa %rsp, 8
	retq
.LBB4_2:                                # %func_PaddAutoCropBorders.46
	.cfi_def_cfa %rbp, 16
	movl	%r13d, %edi
	movl	%r14d, %esi
	movl	%ebx, %edx
	movl	%r12d, %ecx
	movl	%r15d, %r8d
	movl	%r11d, (%rsp)
	movl	%r10d, 8(%rsp)
	callq	PaddAutoCropBorders.46
	addq	$24, %rsp
	popq	%rbx
	popq	%r12
	popq	%r13
	popq	%r14
	popq	%r15
	popq	%rbp
	.cfi_def_cfa %rsp, 8
	retq
.LBB4_3:                                # %func_PaddAutoCropBorders.54
	.cfi_def_cfa %rbp, 16
	movl	%r13d, %edi
	movl	%r14d, %esi
	movl	%ebx, %edx
	movl	%r12d, %ecx
	movl	%r15d, %r8d
	movl	%r11d, (%rsp)
	movl	%r10d, 8(%rsp)
	callq	PaddAutoCropBorders.54
	addq	$24, %rsp
	popq	%rbx
	popq	%r12
	popq	%r13
	popq	%r14
	popq	%r15
	popq	%rbp
	.cfi_def_cfa %rsp, 8
	retq
.LBB4_4:                                # %func_PaddAutoCropBorders.70
	.cfi_def_cfa %rbp, 16
	movl	%r13d, %edi
	movl	%r14d, %esi
	movl	%ebx, %edx
	movl	%r12d, %ecx
	movl	%r15d, %r8d
	movl	%r11d, (%rsp)
	movl	%r10d, 8(%rsp)
	callq	PaddAutoCropBorders.70
	addq	$24, %rsp
	popq	%rbx
	popq	%r12
	popq	%r13
	popq	%r14
	popq	%r15
	popq	%rbp
	.cfi_def_cfa %rsp, 8
	retq
.LBB4_5:                                # %func_PaddAutoCropBorders.74
	.cfi_def_cfa %rbp, 16
	movl	%r13d, %edi
	movl	%r14d, %esi
	movl	%ebx, %edx
	movl	%r12d, %ecx
	movl	%r15d, %r8d
	movl	%r11d, (%rsp)
	movl	%r10d, 8(%rsp)
	callq	PaddAutoCropBorders.74
	addq	$24, %rsp
	popq	%rbx
	popq	%r12
	popq	%r13
	popq	%r14
	popq	%r15
	popq	%rbp
	.cfi_def_cfa %rsp, 8
	retq
.LBB4_6:                                # %func_PaddAutoCropBorders.101
	.cfi_def_cfa %rbp, 16
	movl	%r13d, %edi
	movl	%r14d, %esi
	movl	%ebx, %edx
	movl	%r12d, %ecx
	movl	%r15d, %r8d
	movl	%r11d, (%rsp)
	movl	%r10d, 8(%rsp)
	callq	PaddAutoCropBorders.101
	addq	$24, %rsp
	popq	%rbx
	popq	%r12
	popq	%r13
	popq	%r14
	popq	%r15
	popq	%rbp
	.cfi_def_cfa %rsp, 8
	retq
.LBB4_7:                                # %func_PaddAutoCropBorders.106
	.cfi_def_cfa %rbp, 16
	movl	%r11d, (%rsp)
	movl	%r10d, 8(%rsp)
	callq	PaddAutoCropBorders.106
	addq	$24, %rsp
	popq	%rbx
	popq	%r12
	popq	%r13
	popq	%r14
	popq	%r15
	popq	%rbp
	.cfi_def_cfa %rsp, 8
	retq
.LBB4_8:                                # %func_PaddAutoCropBorders.110
	.cfi_def_cfa %rbp, 16
	movl	%r11d, (%rsp)
	movl	%r10d, 8(%rsp)
	callq	PaddAutoCropBorders.110
	addq	$24, %rsp
	popq	%rbx
	popq	%r12
	popq	%r13
	popq	%r14
	popq	%r15
	popq	%rbp
	.cfi_def_cfa %rsp, 8
	retq
.LBB4_9:                                # %ctrl0
	.cfi_def_cfa %rbp, 16
	movl	-44(%rbp), %r9d         # 4-byte Reload
	movl	16(%rbp), %r11d
	movl	24(%rbp), %r10d
	cmpl	$1, %eax
	je	.LBB4_2
# %bb.10:                               # %ctrl1
	cmpl	$2, %eax
	je	.LBB4_3
# %bb.11:                               # %ctrl2
	cmpl	$3, %eax
	je	.LBB4_4
# %bb.12:                               # %ctrl3
	cmpl	$4, %eax
	je	.LBB4_5
# %bb.13:                               # %ctrl4
	cmpl	$5, %eax
	je	.LBB4_6
# %bb.14:                               # %ctrl5
	cmpl	$6, %eax
	movl	%r15d, %r8d
	movl	%r12d, %ecx
	movl	%ebx, %edx
	movl	%r14d, %esi
	movl	%r13d, %edi
	je	.LBB4_7
	jmp	.LBB4_8
.Lfunc_end4:
	.size	PaddAutoCropBorders, .Lfunc_end4-PaddAutoCropBorders
	.cfi_endproc
                                        # -- End function
	.globl	field_picture           # -- Begin function field_picture
	.p2align	4, 0x90
	.type	field_picture,@function
field_picture:                          # @field_picture
	.cfi_startproc
# %bb.0:                                # %rand_bb
	pushq	%rbp
	.cfi_def_cfa_offset 16
	.cfi_offset %rbp, -16
	movq	%rsp, %rbp
	.cfi_def_cfa_register %rbp
	pushq	%r14
	pushq	%rbx
	.cfi_offset %rbx, -32
	.cfi_offset %r14, -24
	movq	%rsi, %r14
	movq	%rdi, %rbx
	callq	get_urand
	cmpl	$0, %eax
	jne	.LBB5_9
# %bb.1:                                # %func_field_picture.58
	movq	%rbx, %rdi
	movq	%r14, %rsi
	callq	field_picture.58
	popq	%rbx
	popq	%r14
	popq	%rbp
	.cfi_def_cfa %rsp, 8
	retq
.LBB5_2:                                # %func_field_picture.160
	.cfi_def_cfa %rbp, 16
	movq	%rbx, %rdi
	movq	%r14, %rsi
	callq	field_picture.160
	popq	%rbx
	popq	%r14
	popq	%rbp
	.cfi_def_cfa %rsp, 8
	retq
.LBB5_3:                                # %func_field_picture.166
	.cfi_def_cfa %rbp, 16
	movq	%rbx, %rdi
	movq	%r14, %rsi
	callq	field_picture.166
	popq	%rbx
	popq	%r14
	popq	%rbp
	.cfi_def_cfa %rsp, 8
	retq
.LBB5_4:                                # %func_field_picture.174
	.cfi_def_cfa %rbp, 16
	movq	%rbx, %rdi
	movq	%r14, %rsi
	callq	field_picture.174
	popq	%rbx
	popq	%r14
	popq	%rbp
	.cfi_def_cfa %rsp, 8
	retq
.LBB5_5:                                # %func_field_picture.176
	.cfi_def_cfa %rbp, 16
	movq	%rbx, %rdi
	movq	%r14, %rsi
	callq	field_picture.176
	popq	%rbx
	popq	%r14
	popq	%rbp
	.cfi_def_cfa %rsp, 8
	retq
.LBB5_6:                                # %func_field_picture.179
	.cfi_def_cfa %rbp, 16
	movq	%rbx, %rdi
	movq	%r14, %rsi
	callq	field_picture.179
	popq	%rbx
	popq	%r14
	popq	%rbp
	.cfi_def_cfa %rsp, 8
	retq
.LBB5_7:                                # %func_field_picture.181
	.cfi_def_cfa %rbp, 16
	movq	%rbx, %rdi
	movq	%r14, %rsi
	callq	field_picture.181
	popq	%rbx
	popq	%r14
	popq	%rbp
	.cfi_def_cfa %rsp, 8
	retq
.LBB5_8:                                # %func_field_picture.186
	.cfi_def_cfa %rbp, 16
	movq	%rbx, %rdi
	movq	%r14, %rsi
	callq	field_picture.186
	popq	%rbx
	popq	%r14
	popq	%rbp
	.cfi_def_cfa %rsp, 8
	retq
.LBB5_9:                                # %ctrl0
	.cfi_def_cfa %rbp, 16
	cmpl	$1, %eax
	je	.LBB5_2
# %bb.10:                               # %ctrl1
	cmpl	$2, %eax
	je	.LBB5_3
# %bb.11:                               # %ctrl2
	cmpl	$3, %eax
	je	.LBB5_4
# %bb.12:                               # %ctrl3
	cmpl	$4, %eax
	je	.LBB5_5
# %bb.13:                               # %ctrl4
	cmpl	$5, %eax
	je	.LBB5_6
# %bb.14:                               # %ctrl5
	cmpl	$6, %eax
	je	.LBB5_7
	jmp	.LBB5_8
.Lfunc_end5:
	.size	field_picture, .Lfunc_end5-field_picture
	.cfi_endproc
                                        # -- End function
	.globl	frame_picture           # -- Begin function frame_picture
	.p2align	4, 0x90
	.type	frame_picture,@function
frame_picture:                          # @frame_picture
	.cfi_startproc
# %bb.0:                                # %rand_bb
	pushq	%rbp
	.cfi_def_cfa_offset 16
	.cfi_offset %rbp, -16
	movq	%rsp, %rbp
	.cfi_def_cfa_register %rbp
	pushq	%r14
	pushq	%rbx
	.cfi_offset %rbx, -32
	.cfi_offset %r14, -24
	movl	%esi, %r14d
	movq	%rdi, %rbx
	callq	get_urand
	cmpl	$0, %eax
	jne	.LBB6_2
# %bb.1:                                # %func_frame_picture.30
	movq	%rbx, %rdi
	movl	%r14d, %esi
	callq	frame_picture.30
	popq	%rbx
	popq	%r14
	popq	%rbp
	.cfi_def_cfa %rsp, 8
	retq
.LBB6_2:                                # %func_frame_picture.67
	.cfi_def_cfa %rbp, 16
	movq	%rbx, %rdi
	movl	%r14d, %esi
	callq	frame_picture.67
	popq	%rbx
	popq	%r14
	popq	%rbp
	.cfi_def_cfa %rsp, 8
	retq
.Lfunc_end6:
	.size	frame_picture, .Lfunc_end6-frame_picture
	.cfi_endproc
                                        # -- End function
	.p2align	4, 0x90         # -- Begin function picture_structure_decision
	.type	picture_structure_decision,@function
picture_structure_decision:             # @picture_structure_decision
	.cfi_startproc
# %bb.0:                                # %rand_bb
	pushq	%rbp
	.cfi_def_cfa_offset 16
	.cfi_offset %rbp, -16
	movq	%rsp, %rbp
	.cfi_def_cfa_register %rbp
	pushq	%r15
	pushq	%r14
	pushq	%rbx
	pushq	%rax
	.cfi_offset %rbx, -40
	.cfi_offset %r14, -32
	.cfi_offset %r15, -24
	movq	%rdx, %r14
	movq	%rsi, %r15
	movq	%rdi, %rbx
	callq	get_urand
	cmpl	$0, %eax
	jne	.LBB7_9
# %bb.1:                                # %func_picture_structure_decision.6
	movq	%rbx, %rdi
	movq	%r15, %rsi
	movq	%r14, %rdx
	callq	picture_structure_decision.6
	addq	$8, %rsp
	popq	%rbx
	popq	%r14
	popq	%r15
	popq	%rbp
	.cfi_def_cfa %rsp, 8
	retq
.LBB7_2:                                # %func_picture_structure_decision.72
	.cfi_def_cfa %rbp, 16
	movq	%rbx, %rdi
	movq	%r15, %rsi
	movq	%r14, %rdx
	callq	picture_structure_decision.72
	addq	$8, %rsp
	popq	%rbx
	popq	%r14
	popq	%r15
	popq	%rbp
	.cfi_def_cfa %rsp, 8
	retq
.LBB7_3:                                # %func_picture_structure_decision.120
	.cfi_def_cfa %rbp, 16
	movq	%rbx, %rdi
	movq	%r15, %rsi
	movq	%r14, %rdx
	callq	picture_structure_decision.120
	addq	$8, %rsp
	popq	%rbx
	popq	%r14
	popq	%r15
	popq	%rbp
	.cfi_def_cfa %rsp, 8
	retq
.LBB7_4:                                # %func_picture_structure_decision.126
	.cfi_def_cfa %rbp, 16
	movq	%rbx, %rdi
	movq	%r15, %rsi
	movq	%r14, %rdx
	callq	picture_structure_decision.126
	addq	$8, %rsp
	popq	%rbx
	popq	%r14
	popq	%r15
	popq	%rbp
	.cfi_def_cfa %rsp, 8
	retq
.LBB7_5:                                # %func_picture_structure_decision.129
	.cfi_def_cfa %rbp, 16
	movq	%rbx, %rdi
	movq	%r15, %rsi
	movq	%r14, %rdx
	callq	picture_structure_decision.129
	addq	$8, %rsp
	popq	%rbx
	popq	%r14
	popq	%r15
	popq	%rbp
	.cfi_def_cfa %rsp, 8
	retq
.LBB7_6:                                # %func_picture_structure_decision.131
	.cfi_def_cfa %rbp, 16
	movq	%rbx, %rdi
	movq	%r15, %rsi
	movq	%r14, %rdx
	callq	picture_structure_decision.131
	addq	$8, %rsp
	popq	%rbx
	popq	%r14
	popq	%r15
	popq	%rbp
	.cfi_def_cfa %rsp, 8
	retq
.LBB7_7:                                # %func_picture_structure_decision.141
	.cfi_def_cfa %rbp, 16
	movq	%rbx, %rdi
	movq	%r15, %rsi
	movq	%r14, %rdx
	callq	picture_structure_decision.141
	addq	$8, %rsp
	popq	%rbx
	popq	%r14
	popq	%r15
	popq	%rbp
	.cfi_def_cfa %rsp, 8
	retq
.LBB7_8:                                # %func_picture_structure_decision.150
	.cfi_def_cfa %rbp, 16
	movq	%rbx, %rdi
	movq	%r15, %rsi
	movq	%r14, %rdx
	callq	picture_structure_decision.150
	addq	$8, %rsp
	popq	%rbx
	popq	%r14
	popq	%r15
	popq	%rbp
	.cfi_def_cfa %rsp, 8
	retq
.LBB7_9:                                # %ctrl0
	.cfi_def_cfa %rbp, 16
	cmpl	$1, %eax
	je	.LBB7_2
# %bb.10:                               # %ctrl1
	cmpl	$2, %eax
	je	.LBB7_3
# %bb.11:                               # %ctrl2
	cmpl	$3, %eax
	je	.LBB7_4
# %bb.12:                               # %ctrl3
	cmpl	$4, %eax
	je	.LBB7_5
# %bb.13:                               # %ctrl4
	cmpl	$5, %eax
	je	.LBB7_6
# %bb.14:                               # %ctrl5
	cmpl	$6, %eax
	je	.LBB7_7
	jmp	.LBB7_8
.Lfunc_end7:
	.size	picture_structure_decision, .Lfunc_end7-picture_structure_decision
	.cfi_endproc
                                        # -- End function
	.p2align	4, 0x90         # -- Begin function field_mode_buffer
	.type	field_mode_buffer,@function
field_mode_buffer:                      # @field_mode_buffer
	.cfi_startproc
# %bb.0:                                # %rand_bb
	pushq	%rbp
	.cfi_def_cfa_offset 16
	.cfi_offset %rbp, -16
	movq	%rsp, %rbp
	.cfi_def_cfa_register %rbp
	pushq	%rbx
	subq	$24, %rsp
	.cfi_offset %rbx, -24
	vmovss	%xmm2, -20(%rbp)        # 4-byte Spill
	vmovss	%xmm1, -16(%rbp)        # 4-byte Spill
	vmovss	%xmm0, -12(%rbp)        # 4-byte Spill
	movl	%edi, %ebx
	callq	get_urand
	cmpl	$0, %eax
	jne	.LBB8_9
# %bb.1:                                # %func_field_mode_buffer.2
	movl	%ebx, %edi
	vmovss	-12(%rbp), %xmm0        # 4-byte Reload
                                        # xmm0 = mem[0],zero,zero,zero
	vmovss	-16(%rbp), %xmm1        # 4-byte Reload
                                        # xmm1 = mem[0],zero,zero,zero
	vmovss	-20(%rbp), %xmm2        # 4-byte Reload
                                        # xmm2 = mem[0],zero,zero,zero
	callq	field_mode_buffer.2
	addq	$24, %rsp
	popq	%rbx
	popq	%rbp
	.cfi_def_cfa %rsp, 8
	retq
.LBB8_2:                                # %func_field_mode_buffer.53
	.cfi_def_cfa %rbp, 16
	movl	%ebx, %edi
	callq	field_mode_buffer.53
	addq	$24, %rsp
	popq	%rbx
	popq	%rbp
	.cfi_def_cfa %rsp, 8
	retq
.LBB8_3:                                # %func_field_mode_buffer.66
	.cfi_def_cfa %rbp, 16
	movl	%ebx, %edi
	callq	field_mode_buffer.66
	addq	$24, %rsp
	popq	%rbx
	popq	%rbp
	.cfi_def_cfa %rsp, 8
	retq
.LBB8_4:                                # %func_field_mode_buffer.102
	.cfi_def_cfa %rbp, 16
	movl	%ebx, %edi
	callq	field_mode_buffer.102
	addq	$24, %rsp
	popq	%rbx
	popq	%rbp
	.cfi_def_cfa %rsp, 8
	retq
.LBB8_5:                                # %func_field_mode_buffer.122
	.cfi_def_cfa %rbp, 16
	movl	%ebx, %edi
	callq	field_mode_buffer.122
	addq	$24, %rsp
	popq	%rbx
	popq	%rbp
	.cfi_def_cfa %rsp, 8
	retq
.LBB8_6:                                # %func_field_mode_buffer.155
	.cfi_def_cfa %rbp, 16
	movl	%ebx, %edi
	callq	field_mode_buffer.155
	addq	$24, %rsp
	popq	%rbx
	popq	%rbp
	.cfi_def_cfa %rsp, 8
	retq
.LBB8_7:                                # %func_field_mode_buffer.163
	.cfi_def_cfa %rbp, 16
	movl	%ebx, %edi
	callq	field_mode_buffer.163
	addq	$24, %rsp
	popq	%rbx
	popq	%rbp
	.cfi_def_cfa %rsp, 8
	retq
.LBB8_8:                                # %func_field_mode_buffer.165
	.cfi_def_cfa %rbp, 16
	movl	%ebx, %edi
	callq	field_mode_buffer.165
	addq	$24, %rsp
	popq	%rbx
	popq	%rbp
	.cfi_def_cfa %rsp, 8
	retq
.LBB8_9:                                # %ctrl0
	.cfi_def_cfa %rbp, 16
	vmovss	-12(%rbp), %xmm0        # 4-byte Reload
                                        # xmm0 = mem[0],zero,zero,zero
	vmovss	-16(%rbp), %xmm1        # 4-byte Reload
                                        # xmm1 = mem[0],zero,zero,zero
	vmovss	-20(%rbp), %xmm2        # 4-byte Reload
                                        # xmm2 = mem[0],zero,zero,zero
	cmpl	$1, %eax
	je	.LBB8_2
# %bb.10:                               # %ctrl1
	cmpl	$2, %eax
	je	.LBB8_3
# %bb.11:                               # %ctrl2
	cmpl	$3, %eax
	je	.LBB8_4
# %bb.12:                               # %ctrl3
	cmpl	$4, %eax
	je	.LBB8_5
# %bb.13:                               # %ctrl4
	cmpl	$5, %eax
	je	.LBB8_6
# %bb.14:                               # %ctrl5
	cmpl	$6, %eax
	je	.LBB8_7
	jmp	.LBB8_8
.Lfunc_end8:
	.size	field_mode_buffer, .Lfunc_end8-field_mode_buffer
	.cfi_endproc
                                        # -- End function
	.p2align	4, 0x90         # -- Begin function writeout_picture
	.type	writeout_picture,@function
writeout_picture:                       # @writeout_picture
	.cfi_startproc
# %bb.0:                                # %rand_bb
	pushq	%rbp
	.cfi_def_cfa_offset 16
	.cfi_offset %rbp, -16
	movq	%rsp, %rbp
	.cfi_def_cfa_register %rbp
	pushq	%rbx
	pushq	%rax
	.cfi_offset %rbx, -24
	movq	%rdi, %rbx
	callq	get_urand
	cmpl	$0, %eax
	jne	.LBB9_9
# %bb.1:                                # %func_writeout_picture.5
	movq	%rbx, %rdi
	callq	writeout_picture.5
	addq	$8, %rsp
	popq	%rbx
	popq	%rbp
	.cfi_def_cfa %rsp, 8
	retq
.LBB9_2:                                # %func_writeout_picture.43
	.cfi_def_cfa %rbp, 16
	movq	%rbx, %rdi
	callq	writeout_picture.43
	addq	$8, %rsp
	popq	%rbx
	popq	%rbp
	.cfi_def_cfa %rsp, 8
	retq
.LBB9_3:                                # %func_writeout_picture.73
	.cfi_def_cfa %rbp, 16
	movq	%rbx, %rdi
	callq	writeout_picture.73
	addq	$8, %rsp
	popq	%rbx
	popq	%rbp
	.cfi_def_cfa %rsp, 8
	retq
.LBB9_4:                                # %func_writeout_picture.107
	.cfi_def_cfa %rbp, 16
	movq	%rbx, %rdi
	callq	writeout_picture.107
	addq	$8, %rsp
	popq	%rbx
	popq	%rbp
	.cfi_def_cfa %rsp, 8
	retq
.LBB9_5:                                # %func_writeout_picture.128
	.cfi_def_cfa %rbp, 16
	movq	%rbx, %rdi
	callq	writeout_picture.128
	addq	$8, %rsp
	popq	%rbx
	popq	%rbp
	.cfi_def_cfa %rsp, 8
	retq
.LBB9_6:                                # %func_writeout_picture.137
	.cfi_def_cfa %rbp, 16
	movq	%rbx, %rdi
	callq	writeout_picture.137
	addq	$8, %rsp
	popq	%rbx
	popq	%rbp
	.cfi_def_cfa %rsp, 8
	retq
.LBB9_7:                                # %func_writeout_picture.142
	.cfi_def_cfa %rbp, 16
	movq	%rbx, %rdi
	callq	writeout_picture.142
	addq	$8, %rsp
	popq	%rbx
	popq	%rbp
	.cfi_def_cfa %rsp, 8
	retq
.LBB9_8:                                # %func_writeout_picture.154
	.cfi_def_cfa %rbp, 16
	movq	%rbx, %rdi
	callq	writeout_picture.154
	addq	$8, %rsp
	popq	%rbx
	popq	%rbp
	.cfi_def_cfa %rsp, 8
	retq
.LBB9_9:                                # %ctrl0
	.cfi_def_cfa %rbp, 16
	cmpl	$1, %eax
	je	.LBB9_2
# %bb.10:                               # %ctrl1
	cmpl	$2, %eax
	je	.LBB9_3
# %bb.11:                               # %ctrl2
	cmpl	$3, %eax
	je	.LBB9_4
# %bb.12:                               # %ctrl3
	cmpl	$4, %eax
	je	.LBB9_5
# %bb.13:                               # %ctrl4
	cmpl	$5, %eax
	je	.LBB9_6
# %bb.14:                               # %ctrl5
	cmpl	$6, %eax
	je	.LBB9_7
	jmp	.LBB9_8
.Lfunc_end9:
	.size	writeout_picture, .Lfunc_end9-writeout_picture
	.cfi_endproc
                                        # -- End function
	.p2align	4, 0x90         # -- Begin function frame_mode_buffer
	.type	frame_mode_buffer,@function
frame_mode_buffer:                      # @frame_mode_buffer
	.cfi_startproc
# %bb.0:                                # %rand_bb
	pushq	%rbp
	.cfi_def_cfa_offset 16
	.cfi_offset %rbp, -16
	movq	%rsp, %rbp
	.cfi_def_cfa_register %rbp
	pushq	%rbx
	subq	$24, %rsp
	.cfi_offset %rbx, -24
	vmovss	%xmm2, -20(%rbp)        # 4-byte Spill
	vmovss	%xmm1, -16(%rbp)        # 4-byte Spill
	vmovss	%xmm0, -12(%rbp)        # 4-byte Spill
	movl	%edi, %ebx
	callq	get_urand
	cmpl	$0, %eax
	jne	.LBB10_9
# %bb.1:                                # %func_frame_mode_buffer.48
	movl	%ebx, %edi
	vmovss	-12(%rbp), %xmm0        # 4-byte Reload
                                        # xmm0 = mem[0],zero,zero,zero
	vmovss	-16(%rbp), %xmm1        # 4-byte Reload
                                        # xmm1 = mem[0],zero,zero,zero
	vmovss	-20(%rbp), %xmm2        # 4-byte Reload
                                        # xmm2 = mem[0],zero,zero,zero
	callq	frame_mode_buffer.48
	addq	$24, %rsp
	popq	%rbx
	popq	%rbp
	.cfi_def_cfa %rsp, 8
	retq
.LBB10_2:                               # %func_frame_mode_buffer.57
	.cfi_def_cfa %rbp, 16
	movl	%ebx, %edi
	callq	frame_mode_buffer.57
	addq	$24, %rsp
	popq	%rbx
	popq	%rbp
	.cfi_def_cfa %rsp, 8
	retq
.LBB10_3:                               # %func_frame_mode_buffer.76
	.cfi_def_cfa %rbp, 16
	movl	%ebx, %edi
	callq	frame_mode_buffer.76
	addq	$24, %rsp
	popq	%rbx
	popq	%rbp
	.cfi_def_cfa %rsp, 8
	retq
.LBB10_4:                               # %func_frame_mode_buffer.115
	.cfi_def_cfa %rbp, 16
	movl	%ebx, %edi
	callq	frame_mode_buffer.115
	addq	$24, %rsp
	popq	%rbx
	popq	%rbp
	.cfi_def_cfa %rsp, 8
	retq
.LBB10_5:                               # %func_frame_mode_buffer.140
	.cfi_def_cfa %rbp, 16
	movl	%ebx, %edi
	callq	frame_mode_buffer.140
	addq	$24, %rsp
	popq	%rbx
	popq	%rbp
	.cfi_def_cfa %rsp, 8
	retq
.LBB10_6:                               # %func_frame_mode_buffer.146
	.cfi_def_cfa %rbp, 16
	movl	%ebx, %edi
	callq	frame_mode_buffer.146
	addq	$24, %rsp
	popq	%rbx
	popq	%rbp
	.cfi_def_cfa %rsp, 8
	retq
.LBB10_7:                               # %func_frame_mode_buffer.156
	.cfi_def_cfa %rbp, 16
	movl	%ebx, %edi
	callq	frame_mode_buffer.156
	addq	$24, %rsp
	popq	%rbx
	popq	%rbp
	.cfi_def_cfa %rsp, 8
	retq
.LBB10_8:                               # %func_frame_mode_buffer.167
	.cfi_def_cfa %rbp, 16
	movl	%ebx, %edi
	callq	frame_mode_buffer.167
	addq	$24, %rsp
	popq	%rbx
	popq	%rbp
	.cfi_def_cfa %rsp, 8
	retq
.LBB10_9:                               # %ctrl0
	.cfi_def_cfa %rbp, 16
	vmovss	-12(%rbp), %xmm0        # 4-byte Reload
                                        # xmm0 = mem[0],zero,zero,zero
	vmovss	-16(%rbp), %xmm1        # 4-byte Reload
                                        # xmm1 = mem[0],zero,zero,zero
	vmovss	-20(%rbp), %xmm2        # 4-byte Reload
                                        # xmm2 = mem[0],zero,zero,zero
	cmpl	$1, %eax
	je	.LBB10_2
# %bb.10:                               # %ctrl1
	cmpl	$2, %eax
	je	.LBB10_3
# %bb.11:                               # %ctrl2
	cmpl	$3, %eax
	je	.LBB10_4
# %bb.12:                               # %ctrl3
	cmpl	$4, %eax
	je	.LBB10_5
# %bb.13:                               # %ctrl4
	cmpl	$5, %eax
	je	.LBB10_6
# %bb.14:                               # %ctrl5
	cmpl	$6, %eax
	je	.LBB10_7
	jmp	.LBB10_8
.Lfunc_end10:
	.size	frame_mode_buffer, .Lfunc_end10-frame_mode_buffer
	.cfi_endproc
                                        # -- End function
	.p2align	4, 0x90         # -- Begin function ReportNALNonVLCBits
	.type	ReportNALNonVLCBits,@function
ReportNALNonVLCBits:                    # @ReportNALNonVLCBits
	.cfi_startproc
# %bb.0:                                # %rand_bb
	pushq	%rbp
	.cfi_def_cfa_offset 16
	.cfi_offset %rbp, -16
	movq	%rsp, %rbp
	.cfi_def_cfa_register %rbp
	pushq	%r14
	pushq	%rbx
	.cfi_offset %rbx, -32
	.cfi_offset %r14, -24
	movl	%esi, %r14d
	movl	%edi, %ebx
	callq	get_urand
	cmpl	$0, %eax
	jne	.LBB11_2
# %bb.1:                                # %func_ReportNALNonVLCBits.17
	movl	%ebx, %edi
	movl	%r14d, %esi
	callq	ReportNALNonVLCBits.17
	popq	%rbx
	popq	%r14
	popq	%rbp
	.cfi_def_cfa %rsp, 8
	retq
.LBB11_2:                               # %func_ReportNALNonVLCBits.40
	.cfi_def_cfa %rbp, 16
	movl	%ebx, %edi
	movl	%r14d, %esi
	callq	ReportNALNonVLCBits.40
	popq	%rbx
	popq	%r14
	popq	%rbp
	.cfi_def_cfa %rsp, 8
	retq
.Lfunc_end11:
	.size	ReportNALNonVLCBits, .Lfunc_end11-ReportNALNonVLCBits
	.cfi_endproc
                                        # -- End function
	.p2align	4, 0x90         # -- Begin function ReportFirstframe
	.type	ReportFirstframe,@function
ReportFirstframe:                       # @ReportFirstframe
	.cfi_startproc
# %bb.0:                                # %rand_bb
	pushq	%rbp
	.cfi_def_cfa_offset 16
	.cfi_offset %rbp, -16
	movq	%rsp, %rbp
	.cfi_def_cfa_register %rbp
	pushq	%r14
	pushq	%rbx
	.cfi_offset %rbx, -32
	.cfi_offset %r14, -24
	movl	%esi, %r14d
	movl	%edi, %ebx
	callq	get_urand
	cmpl	$0, %eax
	jne	.LBB12_7
# %bb.1:                                # %func_ReportFirstframe.69
	movl	%ebx, %edi
	movl	%r14d, %esi
	callq	ReportFirstframe.69
	popq	%rbx
	popq	%r14
	popq	%rbp
	.cfi_def_cfa %rsp, 8
	retq
.LBB12_2:                               # %func_ReportFirstframe.71
	.cfi_def_cfa %rbp, 16
	movl	%ebx, %edi
	movl	%r14d, %esi
	callq	ReportFirstframe.71
	popq	%rbx
	popq	%r14
	popq	%rbp
	.cfi_def_cfa %rsp, 8
	retq
.LBB12_3:                               # %func_ReportFirstframe.83
	.cfi_def_cfa %rbp, 16
	movl	%ebx, %edi
	movl	%r14d, %esi
	callq	ReportFirstframe.83
	popq	%rbx
	popq	%r14
	popq	%rbp
	.cfi_def_cfa %rsp, 8
	retq
.LBB12_4:                               # %func_ReportFirstframe.86
	.cfi_def_cfa %rbp, 16
	movl	%ebx, %edi
	movl	%r14d, %esi
	callq	ReportFirstframe.86
	popq	%rbx
	popq	%r14
	popq	%rbp
	.cfi_def_cfa %rsp, 8
	retq
.LBB12_5:                               # %func_ReportFirstframe.114
	.cfi_def_cfa %rbp, 16
	movl	%ebx, %edi
	movl	%r14d, %esi
	callq	ReportFirstframe.114
	popq	%rbx
	popq	%r14
	popq	%rbp
	.cfi_def_cfa %rsp, 8
	retq
.LBB12_6:                               # %func_ReportFirstframe.118
	.cfi_def_cfa %rbp, 16
	movl	%ebx, %edi
	movl	%r14d, %esi
	callq	ReportFirstframe.118
	popq	%rbx
	popq	%r14
	popq	%rbp
	.cfi_def_cfa %rsp, 8
	retq
.LBB12_7:                               # %ctrl0
	.cfi_def_cfa %rbp, 16
	cmpl	$1, %eax
	je	.LBB12_2
# %bb.8:                                # %ctrl1
	cmpl	$2, %eax
	je	.LBB12_3
# %bb.9:                                # %ctrl2
	cmpl	$3, %eax
	je	.LBB12_4
# %bb.10:                               # %ctrl3
	cmpl	$4, %eax
	je	.LBB12_5
	jmp	.LBB12_6
.Lfunc_end12:
	.size	ReportFirstframe, .Lfunc_end12-ReportFirstframe
	.cfi_endproc
                                        # -- End function
	.p2align	4, 0x90         # -- Begin function ReportIntra
	.type	ReportIntra,@function
ReportIntra:                            # @ReportIntra
	.cfi_startproc
# %bb.0:                                # %rand_bb
	pushq	%rbp
	.cfi_def_cfa_offset 16
	.cfi_offset %rbp, -16
	movq	%rsp, %rbp
	.cfi_def_cfa_register %rbp
	pushq	%r14
	pushq	%rbx
	.cfi_offset %rbx, -32
	.cfi_offset %r14, -24
	movl	%esi, %r14d
	movl	%edi, %ebx
	callq	get_urand
	cmpl	$0, %eax
	jne	.LBB13_2
# %bb.1:                                # %func_ReportIntra.21
	movl	%ebx, %edi
	movl	%r14d, %esi
	callq	ReportIntra.21
	popq	%rbx
	popq	%r14
	popq	%rbp
	.cfi_def_cfa %rsp, 8
	retq
.LBB13_2:                               # %func_ReportIntra.50
	.cfi_def_cfa %rbp, 16
	movl	%ebx, %edi
	movl	%r14d, %esi
	callq	ReportIntra.50
	popq	%rbx
	popq	%r14
	popq	%rbp
	.cfi_def_cfa %rsp, 8
	retq
.Lfunc_end13:
	.size	ReportIntra, .Lfunc_end13-ReportIntra
	.cfi_endproc
                                        # -- End function
	.p2align	4, 0x90         # -- Begin function ReportSP
	.type	ReportSP,@function
ReportSP:                               # @ReportSP
	.cfi_startproc
# %bb.0:                                # %rand_bb
	pushq	%rbp
	.cfi_def_cfa_offset 16
	.cfi_offset %rbp, -16
	movq	%rsp, %rbp
	.cfi_def_cfa_register %rbp
	pushq	%r14
	pushq	%rbx
	.cfi_offset %rbx, -32
	.cfi_offset %r14, -24
	movl	%esi, %r14d
	movl	%edi, %ebx
	callq	get_urand
	cmpl	$0, %eax
	jne	.LBB14_2
# %bb.1:                                # %func_ReportSP.8
	movl	%ebx, %edi
	movl	%r14d, %esi
	callq	ReportSP.8
	popq	%rbx
	popq	%r14
	popq	%rbp
	.cfi_def_cfa %rsp, 8
	retq
.LBB14_2:                               # %func_ReportSP.18
	.cfi_def_cfa %rbp, 16
	movl	%ebx, %edi
	movl	%r14d, %esi
	callq	ReportSP.18
	popq	%rbx
	popq	%r14
	popq	%rbp
	.cfi_def_cfa %rsp, 8
	retq
.Lfunc_end14:
	.size	ReportSP, .Lfunc_end14-ReportSP
	.cfi_endproc
                                        # -- End function
	.p2align	4, 0x90         # -- Begin function ReportRB
	.type	ReportRB,@function
ReportRB:                               # @ReportRB
	.cfi_startproc
# %bb.0:                                # %rand_bb
	pushq	%rbp
	.cfi_def_cfa_offset 16
	.cfi_offset %rbp, -16
	movq	%rsp, %rbp
	.cfi_def_cfa_register %rbp
	pushq	%r14
	pushq	%rbx
	.cfi_offset %rbx, -32
	.cfi_offset %r14, -24
	movl	%esi, %r14d
	movl	%edi, %ebx
	callq	get_urand
	cmpl	$0, %eax
	jne	.LBB15_2
# %bb.1:                                # %func_ReportRB.13
	movl	%ebx, %edi
	movl	%r14d, %esi
	callq	ReportRB.13
	popq	%rbx
	popq	%r14
	popq	%rbp
	.cfi_def_cfa %rsp, 8
	retq
.LBB15_2:                               # %func_ReportRB.15
	.cfi_def_cfa %rbp, 16
	movl	%ebx, %edi
	movl	%r14d, %esi
	callq	ReportRB.15
	popq	%rbx
	popq	%r14
	popq	%rbp
	.cfi_def_cfa %rsp, 8
	retq
.Lfunc_end15:
	.size	ReportRB, .Lfunc_end15-ReportRB
	.cfi_endproc
                                        # -- End function
	.p2align	4, 0x90         # -- Begin function ReportB
	.type	ReportB,@function
ReportB:                                # @ReportB
	.cfi_startproc
# %bb.0:                                # %rand_bb
	pushq	%rbp
	.cfi_def_cfa_offset 16
	.cfi_offset %rbp, -16
	movq	%rsp, %rbp
	.cfi_def_cfa_register %rbp
	pushq	%r14
	pushq	%rbx
	.cfi_offset %rbx, -32
	.cfi_offset %r14, -24
	movl	%esi, %r14d
	movl	%edi, %ebx
	callq	get_urand
	cmpl	$0, %eax
	jne	.LBB16_2
# %bb.1:                                # %func_ReportB.7
	movl	%ebx, %edi
	movl	%r14d, %esi
	callq	ReportB.7
	popq	%rbx
	popq	%r14
	popq	%rbp
	.cfi_def_cfa %rsp, 8
	retq
.LBB16_2:                               # %func_ReportB.28
	.cfi_def_cfa %rbp, 16
	movl	%ebx, %edi
	movl	%r14d, %esi
	callq	ReportB.28
	popq	%rbx
	popq	%r14
	popq	%rbp
	.cfi_def_cfa %rsp, 8
	retq
.Lfunc_end16:
	.size	ReportB, .Lfunc_end16-ReportB
	.cfi_endproc
                                        # -- End function
	.p2align	4, 0x90         # -- Begin function ReportP
	.type	ReportP,@function
ReportP:                                # @ReportP
	.cfi_startproc
# %bb.0:                                # %rand_bb
	pushq	%rbp
	.cfi_def_cfa_offset 16
	.cfi_offset %rbp, -16
	movq	%rsp, %rbp
	.cfi_def_cfa_register %rbp
	pushq	%r14
	pushq	%rbx
	.cfi_offset %rbx, -32
	.cfi_offset %r14, -24
	movl	%esi, %r14d
	movl	%edi, %ebx
	callq	get_urand
	cmpl	$0, %eax
	jne	.LBB17_2
# %bb.1:                                # %func_ReportP.23
	movl	%ebx, %edi
	movl	%r14d, %esi
	callq	ReportP.23
	popq	%rbx
	popq	%r14
	popq	%rbp
	.cfi_def_cfa %rsp, 8
	retq
.LBB17_2:                               # %func_ReportP.31
	.cfi_def_cfa %rbp, 16
	movl	%ebx, %edi
	movl	%r14d, %esi
	callq	ReportP.31
	popq	%rbx
	popq	%r14
	popq	%rbp
	.cfi_def_cfa %rsp, 8
	retq
.Lfunc_end17:
	.size	ReportP, .Lfunc_end17-ReportP
	.cfi_endproc
                                        # -- End function
	.globl	copy_params             # -- Begin function copy_params
	.p2align	4, 0x90
	.type	copy_params,@function
copy_params:                            # @copy_params
	.cfi_startproc
# %bb.0:                                # %entry
	pushq	%rbp
	.cfi_def_cfa_offset 16
	.cfi_offset %rbp, -16
	movq	%rsp, %rbp
	.cfi_def_cfa_register %rbp
	movq	active_sps, %rax
	movl	1148(%rax), %eax
	movq	enc_picture, %rcx
	movl	%eax, 6556(%rcx)
	movq	active_sps, %rax
	movl	1160(%rax), %eax
	movq	enc_picture, %rcx
	movl	%eax, 6560(%rcx)
	movq	active_sps, %rax
	movl	32(%rax), %eax
	movq	enc_picture, %rcx
	movl	%eax, 6552(%rcx)
	movq	active_sps, %rax
	cmpl	$0, 1160(%rax)
	je	.LBB18_2
# %bb.1:                                # %if.then
	movq	active_sps, %rax
	movl	1164(%rax), %eax
	movq	enc_picture, %rcx
	movl	%eax, 6564(%rcx)
	movq	active_sps, %rax
	movl	1168(%rax), %eax
	movq	enc_picture, %rcx
	movl	%eax, 6568(%rcx)
	movq	active_sps, %rax
	movl	1172(%rax), %eax
	movq	enc_picture, %rcx
	movl	%eax, 6572(%rcx)
	movq	active_sps, %rax
	movl	1176(%rax), %eax
	movq	enc_picture, %rcx
	movl	%eax, 6576(%rcx)
	jmp	.LBB18_3
.LBB18_2:                               # %if.else
	movq	enc_picture, %rax
	movl	$0, 6564(%rax)
	movq	enc_picture, %rax
	movl	$0, 6568(%rax)
	movq	enc_picture, %rax
	movl	$0, 6572(%rax)
	movq	enc_picture, %rax
	movl	$0, 6576(%rax)
.LBB18_3:                               # %if.end
	popq	%rbp
	.cfi_def_cfa %rsp, 8
	retq
.Lfunc_end18:
	.size	copy_params, .Lfunc_end18-copy_params
	.cfi_endproc
                                        # -- End function
	.p2align	4, 0x90         # -- Begin function distortion_fld
	.type	distortion_fld,@function
distortion_fld:                         # @distortion_fld
	.cfi_startproc
# %bb.0:                                # %rand_bb
	pushq	%rbp
	.cfi_def_cfa_offset 16
	.cfi_offset %rbp, -16
	movq	%rsp, %rbp
	.cfi_def_cfa_register %rbp
	pushq	%r15
	pushq	%r14
	pushq	%rbx
	pushq	%rax
	.cfi_offset %rbx, -40
	.cfi_offset %r14, -32
	.cfi_offset %r15, -24
	movq	%rdx, %r14
	movq	%rsi, %r15
	movq	%rdi, %rbx
	callq	get_urand
	cmpl	$0, %eax
	jne	.LBB19_7
# %bb.1:                                # %func_distortion_fld.4
	movq	%rbx, %rdi
	movq	%r15, %rsi
	movq	%r14, %rdx
	callq	distortion_fld.4
	addq	$8, %rsp
	popq	%rbx
	popq	%r14
	popq	%r15
	popq	%rbp
	.cfi_def_cfa %rsp, 8
	retq
.LBB19_2:                               # %func_distortion_fld.44
	.cfi_def_cfa %rbp, 16
	movq	%rbx, %rdi
	movq	%r15, %rsi
	movq	%r14, %rdx
	callq	distortion_fld.44
	addq	$8, %rsp
	popq	%rbx
	popq	%r14
	popq	%r15
	popq	%rbp
	.cfi_def_cfa %rsp, 8
	retq
.LBB19_3:                               # %func_distortion_fld.89
	.cfi_def_cfa %rbp, 16
	movq	%rbx, %rdi
	movq	%r15, %rsi
	movq	%r14, %rdx
	callq	distortion_fld.89
	addq	$8, %rsp
	popq	%rbx
	popq	%r14
	popq	%r15
	popq	%rbp
	.cfi_def_cfa %rsp, 8
	retq
.LBB19_4:                               # %func_distortion_fld.90
	.cfi_def_cfa %rbp, 16
	movq	%rbx, %rdi
	movq	%r15, %rsi
	movq	%r14, %rdx
	callq	distortion_fld.90
	addq	$8, %rsp
	popq	%rbx
	popq	%r14
	popq	%r15
	popq	%rbp
	.cfi_def_cfa %rsp, 8
	retq
.LBB19_5:                               # %func_distortion_fld.127
	.cfi_def_cfa %rbp, 16
	movq	%rbx, %rdi
	movq	%r15, %rsi
	movq	%r14, %rdx
	callq	distortion_fld.127
	addq	$8, %rsp
	popq	%rbx
	popq	%r14
	popq	%r15
	popq	%rbp
	.cfi_def_cfa %rsp, 8
	retq
.LBB19_6:                               # %func_distortion_fld.161
	.cfi_def_cfa %rbp, 16
	movq	%rbx, %rdi
	movq	%r15, %rsi
	movq	%r14, %rdx
	callq	distortion_fld.161
	addq	$8, %rsp
	popq	%rbx
	popq	%r14
	popq	%r15
	popq	%rbp
	.cfi_def_cfa %rsp, 8
	retq
.LBB19_7:                               # %ctrl0
	.cfi_def_cfa %rbp, 16
	cmpl	$1, %eax
	je	.LBB19_2
# %bb.8:                                # %ctrl1
	cmpl	$2, %eax
	je	.LBB19_3
# %bb.9:                                # %ctrl2
	cmpl	$3, %eax
	je	.LBB19_4
# %bb.10:                               # %ctrl3
	cmpl	$4, %eax
	je	.LBB19_5
	jmp	.LBB19_6
.Lfunc_end19:
	.size	distortion_fld, .Lfunc_end19-distortion_fld
	.cfi_endproc
                                        # -- End function
	.globl	UnifiedOneForthPix      # -- Begin function UnifiedOneForthPix
	.p2align	4, 0x90
	.type	UnifiedOneForthPix,@function
UnifiedOneForthPix:                     # @UnifiedOneForthPix
	.cfi_startproc
# %bb.0:                                # %rand_bb
	pushq	%rbp
	.cfi_def_cfa_offset 16
	.cfi_offset %rbp, -16
	movq	%rsp, %rbp
	.cfi_def_cfa_register %rbp
	pushq	%rbx
	pushq	%rax
	.cfi_offset %rbx, -24
	movq	%rdi, %rbx
	callq	get_urand
	cmpl	$0, %eax
	jne	.LBB20_9
# %bb.1:                                # %func_UnifiedOneForthPix.24
	movq	%rbx, %rdi
	callq	UnifiedOneForthPix.24
	addq	$8, %rsp
	popq	%rbx
	popq	%rbp
	.cfi_def_cfa %rsp, 8
	retq
.LBB20_2:                               # %func_UnifiedOneForthPix.26
	.cfi_def_cfa %rbp, 16
	movq	%rbx, %rdi
	callq	UnifiedOneForthPix.26
	addq	$8, %rsp
	popq	%rbx
	popq	%rbp
	.cfi_def_cfa %rsp, 8
	retq
.LBB20_3:                               # %func_UnifiedOneForthPix.29
	.cfi_def_cfa %rbp, 16
	movq	%rbx, %rdi
	callq	UnifiedOneForthPix.29
	addq	$8, %rsp
	popq	%rbx
	popq	%rbp
	.cfi_def_cfa %rsp, 8
	retq
.LBB20_4:                               # %func_UnifiedOneForthPix.55
	.cfi_def_cfa %rbp, 16
	movq	%rbx, %rdi
	callq	UnifiedOneForthPix.55
	addq	$8, %rsp
	popq	%rbx
	popq	%rbp
	.cfi_def_cfa %rsp, 8
	retq
.LBB20_5:                               # %func_UnifiedOneForthPix.77
	.cfi_def_cfa %rbp, 16
	movq	%rbx, %rdi
	callq	UnifiedOneForthPix.77
	addq	$8, %rsp
	popq	%rbx
	popq	%rbp
	.cfi_def_cfa %rsp, 8
	retq
.LBB20_6:                               # %func_UnifiedOneForthPix.100
	.cfi_def_cfa %rbp, 16
	movq	%rbx, %rdi
	callq	UnifiedOneForthPix.100
	addq	$8, %rsp
	popq	%rbx
	popq	%rbp
	.cfi_def_cfa %rsp, 8
	retq
.LBB20_7:                               # %func_UnifiedOneForthPix.124
	.cfi_def_cfa %rbp, 16
	movq	%rbx, %rdi
	callq	UnifiedOneForthPix.124
	addq	$8, %rsp
	popq	%rbx
	popq	%rbp
	.cfi_def_cfa %rsp, 8
	retq
.LBB20_8:                               # %func_UnifiedOneForthPix.144
	.cfi_def_cfa %rbp, 16
	movq	%rbx, %rdi
	callq	UnifiedOneForthPix.144
	addq	$8, %rsp
	popq	%rbx
	popq	%rbp
	.cfi_def_cfa %rsp, 8
	retq
.LBB20_9:                               # %ctrl0
	.cfi_def_cfa %rbp, 16
	cmpl	$1, %eax
	je	.LBB20_2
# %bb.10:                               # %ctrl1
	cmpl	$2, %eax
	je	.LBB20_3
# %bb.11:                               # %ctrl2
	cmpl	$3, %eax
	je	.LBB20_4
# %bb.12:                               # %ctrl3
	cmpl	$4, %eax
	je	.LBB20_5
# %bb.13:                               # %ctrl4
	cmpl	$5, %eax
	je	.LBB20_6
# %bb.14:                               # %ctrl5
	cmpl	$6, %eax
	je	.LBB20_7
	jmp	.LBB20_8
.Lfunc_end20:
	.size	UnifiedOneForthPix, .Lfunc_end20-UnifiedOneForthPix
	.cfi_endproc
                                        # -- End function
	.p2align	4, 0x90         # -- Begin function GenerateFullPelRepresentation
	.type	GenerateFullPelRepresentation,@function
GenerateFullPelRepresentation:          # @GenerateFullPelRepresentation
	.cfi_startproc
# %bb.0:                                # %rand_bb
	pushq	%rbp
	.cfi_def_cfa_offset 16
	.cfi_offset %rbp, -16
	movq	%rsp, %rbp
	.cfi_def_cfa_register %rbp
	pushq	%r15
	pushq	%r14
	pushq	%r12
	pushq	%rbx
	.cfi_offset %rbx, -48
	.cfi_offset %r12, -40
	.cfi_offset %r14, -32
	.cfi_offset %r15, -24
	movl	%ecx, %r14d
	movl	%edx, %r15d
	movq	%rsi, %r12
	movq	%rdi, %rbx
	callq	get_urand
	cmpl	$0, %eax
	jne	.LBB21_9
# %bb.1:                                # %func_GenerateFullPelRepresentation.9
	movq	%rbx, %rdi
	movq	%r12, %rsi
	movl	%r15d, %edx
	movl	%r14d, %ecx
	callq	GenerateFullPelRepresentation.9
	popq	%rbx
	popq	%r12
	popq	%r14
	popq	%r15
	popq	%rbp
	.cfi_def_cfa %rsp, 8
	retq
.LBB21_2:                               # %func_GenerateFullPelRepresentation.11
	.cfi_def_cfa %rbp, 16
	movq	%rbx, %rdi
	movq	%r12, %rsi
	movl	%r15d, %edx
	movl	%r14d, %ecx
	callq	GenerateFullPelRepresentation.11
	popq	%rbx
	popq	%r12
	popq	%r14
	popq	%r15
	popq	%rbp
	.cfi_def_cfa %rsp, 8
	retq
.LBB21_3:                               # %func_GenerateFullPelRepresentation.25
	.cfi_def_cfa %rbp, 16
	movq	%rbx, %rdi
	movq	%r12, %rsi
	movl	%r15d, %edx
	movl	%r14d, %ecx
	callq	GenerateFullPelRepresentation.25
	popq	%rbx
	popq	%r12
	popq	%r14
	popq	%r15
	popq	%rbp
	.cfi_def_cfa %rsp, 8
	retq
.LBB21_4:                               # %func_GenerateFullPelRepresentation.27
	.cfi_def_cfa %rbp, 16
	movq	%rbx, %rdi
	movq	%r12, %rsi
	movl	%r15d, %edx
	movl	%r14d, %ecx
	callq	GenerateFullPelRepresentation.27
	popq	%rbx
	popq	%r12
	popq	%r14
	popq	%r15
	popq	%rbp
	.cfi_def_cfa %rsp, 8
	retq
.LBB21_5:                               # %func_GenerateFullPelRepresentation.125
	.cfi_def_cfa %rbp, 16
	movq	%rbx, %rdi
	movq	%r12, %rsi
	movl	%r15d, %edx
	movl	%r14d, %ecx
	callq	GenerateFullPelRepresentation.125
	popq	%rbx
	popq	%r12
	popq	%r14
	popq	%r15
	popq	%rbp
	.cfi_def_cfa %rsp, 8
	retq
.LBB21_6:                               # %func_GenerateFullPelRepresentation.130
	.cfi_def_cfa %rbp, 16
	movq	%rbx, %rdi
	movq	%r12, %rsi
	movl	%r15d, %edx
	movl	%r14d, %ecx
	callq	GenerateFullPelRepresentation.130
	popq	%rbx
	popq	%r12
	popq	%r14
	popq	%r15
	popq	%rbp
	.cfi_def_cfa %rsp, 8
	retq
.LBB21_7:                               # %func_GenerateFullPelRepresentation.157
	.cfi_def_cfa %rbp, 16
	movq	%rbx, %rdi
	movq	%r12, %rsi
	movl	%r15d, %edx
	movl	%r14d, %ecx
	callq	GenerateFullPelRepresentation.157
	popq	%rbx
	popq	%r12
	popq	%r14
	popq	%r15
	popq	%rbp
	.cfi_def_cfa %rsp, 8
	retq
.LBB21_8:                               # %func_GenerateFullPelRepresentation.168
	.cfi_def_cfa %rbp, 16
	movq	%rbx, %rdi
	movq	%r12, %rsi
	movl	%r15d, %edx
	movl	%r14d, %ecx
	callq	GenerateFullPelRepresentation.168
	popq	%rbx
	popq	%r12
	popq	%r14
	popq	%r15
	popq	%rbp
	.cfi_def_cfa %rsp, 8
	retq
.LBB21_9:                               # %ctrl0
	.cfi_def_cfa %rbp, 16
	cmpl	$1, %eax
	je	.LBB21_2
# %bb.10:                               # %ctrl1
	cmpl	$2, %eax
	je	.LBB21_3
# %bb.11:                               # %ctrl2
	cmpl	$3, %eax
	je	.LBB21_4
# %bb.12:                               # %ctrl3
	cmpl	$4, %eax
	je	.LBB21_5
# %bb.13:                               # %ctrl4
	cmpl	$5, %eax
	je	.LBB21_6
# %bb.14:                               # %ctrl5
	cmpl	$6, %eax
	je	.LBB21_7
	jmp	.LBB21_8
.Lfunc_end21:
	.size	GenerateFullPelRepresentation, .Lfunc_end21-GenerateFullPelRepresentation
	.cfi_endproc
                                        # -- End function
	.globl	dummy_slice_too_big     # -- Begin function dummy_slice_too_big
	.p2align	4, 0x90
	.type	dummy_slice_too_big,@function
dummy_slice_too_big:                    # @dummy_slice_too_big
	.cfi_startproc
# %bb.0:                                # %entry
	pushq	%rbp
	.cfi_def_cfa_offset 16
	.cfi_offset %rbp, -16
	movq	%rsp, %rbp
	.cfi_def_cfa_register %rbp
	movl	%edi, -4(%rbp)
	xorl	%eax, %eax
	popq	%rbp
	.cfi_def_cfa %rsp, 8
	retq
.Lfunc_end22:
	.size	dummy_slice_too_big, .Lfunc_end22-dummy_slice_too_big
	.cfi_endproc
                                        # -- End function
	.globl	copy_rdopt_data         # -- Begin function copy_rdopt_data
	.p2align	4, 0x90
	.type	copy_rdopt_data,@function
copy_rdopt_data:                        # @copy_rdopt_data
	.cfi_startproc
# %bb.0:                                # %rand_bb
	pushq	%rbp
	.cfi_def_cfa_offset 16
	.cfi_offset %rbp, -16
	movq	%rsp, %rbp
	.cfi_def_cfa_register %rbp
	pushq	%rbx
	pushq	%rax
	.cfi_offset %rbx, -24
	movl	%edi, %ebx
	callq	get_urand
	cmpl	$0, %eax
	jne	.LBB23_9
# %bb.1:                                # %func_copy_rdopt_data.10
	movl	%ebx, %edi
	callq	copy_rdopt_data.10
	addq	$8, %rsp
	popq	%rbx
	popq	%rbp
	.cfi_def_cfa %rsp, 8
	retq
.LBB23_2:                               # %func_copy_rdopt_data.33
	.cfi_def_cfa %rbp, 16
	movl	%ebx, %edi
	callq	copy_rdopt_data.33
	addq	$8, %rsp
	popq	%rbx
	popq	%rbp
	.cfi_def_cfa %rsp, 8
	retq
.LBB23_3:                               # %func_copy_rdopt_data.52
	.cfi_def_cfa %rbp, 16
	movl	%ebx, %edi
	callq	copy_rdopt_data.52
	addq	$8, %rsp
	popq	%rbx
	popq	%rbp
	.cfi_def_cfa %rsp, 8
	retq
.LBB23_4:                               # %func_copy_rdopt_data.79
	.cfi_def_cfa %rbp, 16
	movl	%ebx, %edi
	callq	copy_rdopt_data.79
	addq	$8, %rsp
	popq	%rbx
	popq	%rbp
	.cfi_def_cfa %rsp, 8
	retq
.LBB23_5:                               # %func_copy_rdopt_data.85
	.cfi_def_cfa %rbp, 16
	movl	%ebx, %edi
	callq	copy_rdopt_data.85
	addq	$8, %rsp
	popq	%rbx
	popq	%rbp
	.cfi_def_cfa %rsp, 8
	retq
.LBB23_6:                               # %func_copy_rdopt_data.88
	.cfi_def_cfa %rbp, 16
	movl	%ebx, %edi
	callq	copy_rdopt_data.88
	addq	$8, %rsp
	popq	%rbx
	popq	%rbp
	.cfi_def_cfa %rsp, 8
	retq
.LBB23_7:                               # %func_copy_rdopt_data.112
	.cfi_def_cfa %rbp, 16
	movl	%ebx, %edi
	callq	copy_rdopt_data.112
	addq	$8, %rsp
	popq	%rbx
	popq	%rbp
	.cfi_def_cfa %rsp, 8
	retq
.LBB23_8:                               # %func_copy_rdopt_data.138
	.cfi_def_cfa %rbp, 16
	movl	%ebx, %edi
	callq	copy_rdopt_data.138
	addq	$8, %rsp
	popq	%rbx
	popq	%rbp
	.cfi_def_cfa %rsp, 8
	retq
.LBB23_9:                               # %ctrl0
	.cfi_def_cfa %rbp, 16
	cmpl	$1, %eax
	je	.LBB23_2
# %bb.10:                               # %ctrl1
	cmpl	$2, %eax
	je	.LBB23_3
# %bb.11:                               # %ctrl2
	cmpl	$3, %eax
	je	.LBB23_4
# %bb.12:                               # %ctrl3
	cmpl	$4, %eax
	je	.LBB23_5
# %bb.13:                               # %ctrl4
	cmpl	$5, %eax
	je	.LBB23_6
# %bb.14:                               # %ctrl5
	cmpl	$6, %eax
	je	.LBB23_7
	jmp	.LBB23_8
.Lfunc_end23:
	.size	copy_rdopt_data, .Lfunc_end23-copy_rdopt_data
	.cfi_endproc
                                        # -- End function
	.globl	buf2img                 # -- Begin function buf2img
	.p2align	4, 0x90
	.type	buf2img,@function
buf2img:                                # @buf2img
	.cfi_startproc
# %bb.0:                                # %rand_bb
	pushq	%rbp
	.cfi_def_cfa_offset 16
	.cfi_offset %rbp, -16
	movq	%rsp, %rbp
	.cfi_def_cfa_register %rbp
	pushq	%r15
	pushq	%r14
	pushq	%r13
	pushq	%r12
	pushq	%rbx
	pushq	%rax
	.cfi_offset %rbx, -56
	.cfi_offset %r12, -48
	.cfi_offset %r13, -40
	.cfi_offset %r14, -32
	.cfi_offset %r15, -24
	movl	%r8d, %r14d
	movl	%ecx, %r15d
	movl	%edx, %r12d
	movq	%rsi, %r13
	movq	%rdi, %rbx
	callq	get_urand
	cmpl	$0, %eax
	jne	.LBB24_9
# %bb.1:                                # %func_buf2img.16
	movq	%rbx, %rdi
	movq	%r13, %rsi
	movl	%r12d, %edx
	movl	%r15d, %ecx
	movl	%r14d, %r8d
	callq	buf2img.16
	addq	$8, %rsp
	popq	%rbx
	popq	%r12
	popq	%r13
	popq	%r14
	popq	%r15
	popq	%rbp
	.cfi_def_cfa %rsp, 8
	retq
.LBB24_2:                               # %func_buf2img.37
	.cfi_def_cfa %rbp, 16
	movq	%rbx, %rdi
	movq	%r13, %rsi
	movl	%r12d, %edx
	movl	%r15d, %ecx
	movl	%r14d, %r8d
	callq	buf2img.37
	addq	$8, %rsp
	popq	%rbx
	popq	%r12
	popq	%r13
	popq	%r14
	popq	%r15
	popq	%rbp
	.cfi_def_cfa %rsp, 8
	retq
.LBB24_3:                               # %func_buf2img.91
	.cfi_def_cfa %rbp, 16
	movq	%rbx, %rdi
	movq	%r13, %rsi
	movl	%r12d, %edx
	movl	%r15d, %ecx
	movl	%r14d, %r8d
	callq	buf2img.91
	addq	$8, %rsp
	popq	%rbx
	popq	%r12
	popq	%r13
	popq	%r14
	popq	%r15
	popq	%rbp
	.cfi_def_cfa %rsp, 8
	retq
.LBB24_4:                               # %func_buf2img.93
	.cfi_def_cfa %rbp, 16
	movq	%rbx, %rdi
	movq	%r13, %rsi
	movl	%r12d, %edx
	movl	%r15d, %ecx
	movl	%r14d, %r8d
	callq	buf2img.93
	addq	$8, %rsp
	popq	%rbx
	popq	%r12
	popq	%r13
	popq	%r14
	popq	%r15
	popq	%rbp
	.cfi_def_cfa %rsp, 8
	retq
.LBB24_5:                               # %func_buf2img.109
	.cfi_def_cfa %rbp, 16
	movq	%rbx, %rdi
	movq	%r13, %rsi
	movl	%r12d, %edx
	movl	%r15d, %ecx
	movl	%r14d, %r8d
	callq	buf2img.109
	addq	$8, %rsp
	popq	%rbx
	popq	%r12
	popq	%r13
	popq	%r14
	popq	%r15
	popq	%rbp
	.cfi_def_cfa %rsp, 8
	retq
.LBB24_6:                               # %func_buf2img.119
	.cfi_def_cfa %rbp, 16
	movq	%rbx, %rdi
	movq	%r13, %rsi
	movl	%r12d, %edx
	movl	%r15d, %ecx
	movl	%r14d, %r8d
	callq	buf2img.119
	addq	$8, %rsp
	popq	%rbx
	popq	%r12
	popq	%r13
	popq	%r14
	popq	%r15
	popq	%rbp
	.cfi_def_cfa %rsp, 8
	retq
.LBB24_7:                               # %func_buf2img.133
	.cfi_def_cfa %rbp, 16
	movq	%rbx, %rdi
	movq	%r13, %rsi
	movl	%r12d, %edx
	movl	%r15d, %ecx
	movl	%r14d, %r8d
	callq	buf2img.133
	addq	$8, %rsp
	popq	%rbx
	popq	%r12
	popq	%r13
	popq	%r14
	popq	%r15
	popq	%rbp
	.cfi_def_cfa %rsp, 8
	retq
.LBB24_8:                               # %func_buf2img.134
	.cfi_def_cfa %rbp, 16
	movq	%rbx, %rdi
	movq	%r13, %rsi
	movl	%r12d, %edx
	movl	%r15d, %ecx
	movl	%r14d, %r8d
	callq	buf2img.134
	addq	$8, %rsp
	popq	%rbx
	popq	%r12
	popq	%r13
	popq	%r14
	popq	%r15
	popq	%rbp
	.cfi_def_cfa %rsp, 8
	retq
.LBB24_9:                               # %ctrl0
	.cfi_def_cfa %rbp, 16
	cmpl	$1, %eax
	je	.LBB24_2
# %bb.10:                               # %ctrl1
	cmpl	$2, %eax
	je	.LBB24_3
# %bb.11:                               # %ctrl2
	cmpl	$3, %eax
	je	.LBB24_4
# %bb.12:                               # %ctrl3
	cmpl	$4, %eax
	je	.LBB24_5
# %bb.13:                               # %ctrl4
	cmpl	$5, %eax
	je	.LBB24_6
# %bb.14:                               # %ctrl5
	cmpl	$6, %eax
	je	.LBB24_7
	jmp	.LBB24_8
.Lfunc_end24:
	.size	buf2img, .Lfunc_end24-buf2img
	.cfi_endproc
                                        # -- End function
	.p2align	4, 0x90         # -- Begin function writeUnit
	.type	writeUnit,@function
writeUnit:                              # @writeUnit
	.cfi_startproc
# %bb.0:                                # %rand_bb
	pushq	%rbp
	.cfi_def_cfa_offset 16
	.cfi_offset %rbp, -16
	movq	%rsp, %rbp
	.cfi_def_cfa_register %rbp
	pushq	%r14
	pushq	%rbx
	.cfi_offset %rbx, -32
	.cfi_offset %r14, -24
	movl	%esi, %r14d
	movq	%rdi, %rbx
	callq	get_urand
	cmpl	$0, %eax
	jne	.LBB25_7
# %bb.1:                                # %func_writeUnit.41
	movq	%rbx, %rdi
	movl	%r14d, %esi
	callq	writeUnit.41
	popq	%rbx
	popq	%r14
	popq	%rbp
	.cfi_def_cfa %rsp, 8
	retq
.LBB25_2:                               # %func_writeUnit.81
	.cfi_def_cfa %rbp, 16
	movq	%rbx, %rdi
	movl	%r14d, %esi
	callq	writeUnit.81
	popq	%rbx
	popq	%r14
	popq	%rbp
	.cfi_def_cfa %rsp, 8
	retq
.LBB25_3:                               # %func_writeUnit.108
	.cfi_def_cfa %rbp, 16
	movq	%rbx, %rdi
	movl	%r14d, %esi
	callq	writeUnit.108
	popq	%rbx
	popq	%r14
	popq	%rbp
	.cfi_def_cfa %rsp, 8
	retq
.LBB25_4:                               # %func_writeUnit.123
	.cfi_def_cfa %rbp, 16
	movq	%rbx, %rdi
	movl	%r14d, %esi
	callq	writeUnit.123
	popq	%rbx
	popq	%r14
	popq	%rbp
	.cfi_def_cfa %rsp, 8
	retq
.LBB25_5:                               # %func_writeUnit.151
	.cfi_def_cfa %rbp, 16
	movq	%rbx, %rdi
	movl	%r14d, %esi
	callq	writeUnit.151
	popq	%rbx
	popq	%r14
	popq	%rbp
	.cfi_def_cfa %rsp, 8
	retq
.LBB25_6:                               # %func_writeUnit.172
	.cfi_def_cfa %rbp, 16
	movq	%rbx, %rdi
	movl	%r14d, %esi
	callq	writeUnit.172
	popq	%rbx
	popq	%r14
	popq	%rbp
	.cfi_def_cfa %rsp, 8
	retq
.LBB25_7:                               # %ctrl0
	.cfi_def_cfa %rbp, 16
	cmpl	$1, %eax
	je	.LBB25_2
# %bb.8:                                # %ctrl1
	cmpl	$2, %eax
	je	.LBB25_3
# %bb.9:                                # %ctrl2
	cmpl	$3, %eax
	je	.LBB25_4
# %bb.10:                               # %ctrl3
	cmpl	$4, %eax
	je	.LBB25_5
	jmp	.LBB25_6
.Lfunc_end25:
	.size	writeUnit, .Lfunc_end25-writeUnit
	.cfi_endproc
                                        # -- End function
	.p2align	4, 0x90         # -- Begin function init_frame
	.type	init_frame,@function
init_frame:                             # @init_frame
	.cfi_startproc
# %bb.0:                                # %rand_bb
	pushq	%rbp
	.cfi_def_cfa_offset 16
	.cfi_offset %rbp, -16
	movq	%rsp, %rbp
	.cfi_def_cfa_register %rbp
	callq	get_urand
	cmpl	$0, %eax
	jne	.LBB26_7
# %bb.1:                                # %func_init_frame.3
	callq	init_frame.3
	popq	%rbp
	.cfi_def_cfa %rsp, 8
	retq
.LBB26_2:                               # %func_init_frame.19
	.cfi_def_cfa %rbp, 16
	callq	init_frame.19
	popq	%rbp
	.cfi_def_cfa %rsp, 8
	retq
.LBB26_3:                               # %func_init_frame.42
	.cfi_def_cfa %rbp, 16
	callq	init_frame.42
	popq	%rbp
	.cfi_def_cfa %rsp, 8
	retq
.LBB26_4:                               # %func_init_frame.49
	.cfi_def_cfa %rbp, 16
	callq	init_frame.49
	popq	%rbp
	.cfi_def_cfa %rsp, 8
	retq
.LBB26_5:                               # %func_init_frame.59
	.cfi_def_cfa %rbp, 16
	callq	init_frame.59
	popq	%rbp
	.cfi_def_cfa %rsp, 8
	retq
.LBB26_6:                               # %func_init_frame.80
	.cfi_def_cfa %rbp, 16
	callq	init_frame.80
	popq	%rbp
	.cfi_def_cfa %rsp, 8
	retq
.LBB26_7:                               # %ctrl0
	.cfi_def_cfa %rbp, 16
	cmpl	$1, %eax
	je	.LBB26_2
# %bb.8:                                # %ctrl1
	cmpl	$2, %eax
	je	.LBB26_3
# %bb.9:                                # %ctrl2
	cmpl	$3, %eax
	je	.LBB26_4
# %bb.10:                               # %ctrl3
	cmpl	$4, %eax
	je	.LBB26_5
	jmp	.LBB26_6
.Lfunc_end26:
	.size	init_frame, .Lfunc_end26-init_frame
	.cfi_endproc
                                        # -- End function
	.p2align	4, 0x90         # -- Begin function init_dec_ref_pic_marking_buffer
	.type	init_dec_ref_pic_marking_buffer,@function
init_dec_ref_pic_marking_buffer:        # @init_dec_ref_pic_marking_buffer
	.cfi_startproc
# %bb.0:                                # %entry
	pushq	%rbp
	.cfi_def_cfa_offset 16
	.cfi_offset %rbp, -16
	movq	%rsp, %rbp
	.cfi_def_cfa_register %rbp
	movq	img, %rax
	movq	$0, 72512(%rax)
	popq	%rbp
	.cfi_def_cfa %rsp, 8
	retq
.Lfunc_end27:
	.size	init_dec_ref_pic_marking_buffer, .Lfunc_end27-init_dec_ref_pic_marking_buffer
	.cfi_endproc
                                        # -- End function
	.p2align	4, 0x90         # -- Begin function init_field
	.type	init_field,@function
init_field:                             # @init_field
	.cfi_startproc
# %bb.0:                                # %rand_bb
	pushq	%rbp
	.cfi_def_cfa_offset 16
	.cfi_offset %rbp, -16
	movq	%rsp, %rbp
	.cfi_def_cfa_register %rbp
	callq	get_urand
	cmpl	$0, %eax
	jne	.LBB28_7
# %bb.1:                                # %func_init_field.56
	callq	init_field.56
	popq	%rbp
	.cfi_def_cfa %rsp, 8
	retq
.LBB28_2:                               # %func_init_field.92
	.cfi_def_cfa %rbp, 16
	callq	init_field.92
	popq	%rbp
	.cfi_def_cfa %rsp, 8
	retq
.LBB28_3:                               # %func_init_field.136
	.cfi_def_cfa %rbp, 16
	callq	init_field.136
	popq	%rbp
	.cfi_def_cfa %rsp, 8
	retq
.LBB28_4:                               # %func_init_field.143
	.cfi_def_cfa %rbp, 16
	callq	init_field.143
	popq	%rbp
	.cfi_def_cfa %rsp, 8
	retq
.LBB28_5:                               # %func_init_field.153
	.cfi_def_cfa %rbp, 16
	callq	init_field.153
	popq	%rbp
	.cfi_def_cfa %rsp, 8
	retq
.LBB28_6:                               # %func_init_field.171
	.cfi_def_cfa %rbp, 16
	callq	init_field.171
	popq	%rbp
	.cfi_def_cfa %rsp, 8
	retq
.LBB28_7:                               # %ctrl0
	.cfi_def_cfa %rbp, 16
	cmpl	$1, %eax
	je	.LBB28_2
# %bb.8:                                # %ctrl1
	cmpl	$2, %eax
	je	.LBB28_3
# %bb.9:                                # %ctrl2
	cmpl	$3, %eax
	je	.LBB28_4
# %bb.10:                               # %ctrl3
	cmpl	$4, %eax
	je	.LBB28_5
	jmp	.LBB28_6
.Lfunc_end28:
	.size	init_field, .Lfunc_end28-init_field
	.cfi_endproc
                                        # -- End function
	.p2align	4, 0x90         # -- Begin function find_snr
	.type	find_snr,@function
find_snr:                               # @find_snr
	.cfi_startproc
# %bb.0:                                # %rand_bb
	pushq	%rbp
	.cfi_def_cfa_offset 16
	.cfi_offset %rbp, -16
	movq	%rsp, %rbp
	.cfi_def_cfa_register %rbp
	callq	get_urand
	cmpl	$0, %eax
	jne	.LBB29_9
# %bb.1:                                # %func_find_snr.32
	callq	find_snr.32
	popq	%rbp
	.cfi_def_cfa %rsp, 8
	retq
.LBB29_2:                               # %func_find_snr.117
	.cfi_def_cfa %rbp, 16
	callq	find_snr.117
	popq	%rbp
	.cfi_def_cfa %rsp, 8
	retq
.LBB29_3:                               # %func_find_snr.164
	.cfi_def_cfa %rbp, 16
	callq	find_snr.164
	popq	%rbp
	.cfi_def_cfa %rsp, 8
	retq
.LBB29_4:                               # %func_find_snr.173
	.cfi_def_cfa %rbp, 16
	callq	find_snr.173
	popq	%rbp
	.cfi_def_cfa %rsp, 8
	retq
.LBB29_5:                               # %func_find_snr.178
	.cfi_def_cfa %rbp, 16
	callq	find_snr.178
	popq	%rbp
	.cfi_def_cfa %rsp, 8
	retq
.LBB29_6:                               # %func_find_snr.183
	.cfi_def_cfa %rbp, 16
	callq	find_snr.183
	popq	%rbp
	.cfi_def_cfa %rsp, 8
	retq
.LBB29_7:                               # %func_find_snr.185
	.cfi_def_cfa %rbp, 16
	callq	find_snr.185
	popq	%rbp
	.cfi_def_cfa %rsp, 8
	retq
.LBB29_8:                               # %func_find_snr.188
	.cfi_def_cfa %rbp, 16
	callq	find_snr.188
	popq	%rbp
	.cfi_def_cfa %rsp, 8
	retq
.LBB29_9:                               # %ctrl0
	.cfi_def_cfa %rbp, 16
	cmpl	$1, %eax
	je	.LBB29_2
# %bb.10:                               # %ctrl1
	cmpl	$2, %eax
	je	.LBB29_3
# %bb.11:                               # %ctrl2
	cmpl	$3, %eax
	je	.LBB29_4
# %bb.12:                               # %ctrl3
	cmpl	$4, %eax
	je	.LBB29_5
# %bb.13:                               # %ctrl4
	cmpl	$5, %eax
	je	.LBB29_6
# %bb.14:                               # %ctrl5
	cmpl	$6, %eax
	je	.LBB29_7
	jmp	.LBB29_8
.Lfunc_end29:
	.size	find_snr, .Lfunc_end29-find_snr
	.cfi_endproc
                                        # -- End function
	.p2align	4, 0x90         # -- Begin function find_distortion
	.type	find_distortion,@function
find_distortion:                        # @find_distortion
	.cfi_startproc
# %bb.0:                                # %rand_bb
	pushq	%rbp
	.cfi_def_cfa_offset 16
	.cfi_offset %rbp, -16
	movq	%rsp, %rbp
	.cfi_def_cfa_register %rbp
	callq	get_urand
	cmpl	$0, %eax
	jne	.LBB30_9
# %bb.1:                                # %func_find_distortion.14
	callq	find_distortion.14
	popq	%rbp
	.cfi_def_cfa %rsp, 8
	retq
.LBB30_2:                               # %func_find_distortion.61
	.cfi_def_cfa %rbp, 16
	callq	find_distortion.61
	popq	%rbp
	.cfi_def_cfa %rsp, 8
	retq
.LBB30_3:                               # %func_find_distortion.94
	.cfi_def_cfa %rbp, 16
	callq	find_distortion.94
	popq	%rbp
	.cfi_def_cfa %rsp, 8
	retq
.LBB30_4:                               # %func_find_distortion.111
	.cfi_def_cfa %rbp, 16
	callq	find_distortion.111
	popq	%rbp
	.cfi_def_cfa %rsp, 8
	retq
.LBB30_5:                               # %func_find_distortion.113
	.cfi_def_cfa %rbp, 16
	callq	find_distortion.113
	popq	%rbp
	.cfi_def_cfa %rsp, 8
	retq
.LBB30_6:                               # %func_find_distortion.121
	.cfi_def_cfa %rbp, 16
	callq	find_distortion.121
	popq	%rbp
	.cfi_def_cfa %rsp, 8
	retq
.LBB30_7:                               # %func_find_distortion.145
	.cfi_def_cfa %rbp, 16
	callq	find_distortion.145
	popq	%rbp
	.cfi_def_cfa %rsp, 8
	retq
.LBB30_8:                               # %func_find_distortion.158
	.cfi_def_cfa %rbp, 16
	callq	find_distortion.158
	popq	%rbp
	.cfi_def_cfa %rsp, 8
	retq
.LBB30_9:                               # %ctrl0
	.cfi_def_cfa %rbp, 16
	cmpl	$1, %eax
	je	.LBB30_2
# %bb.10:                               # %ctrl1
	cmpl	$2, %eax
	je	.LBB30_3
# %bb.11:                               # %ctrl2
	cmpl	$3, %eax
	je	.LBB30_4
# %bb.12:                               # %ctrl3
	cmpl	$4, %eax
	je	.LBB30_5
# %bb.13:                               # %ctrl4
	cmpl	$5, %eax
	je	.LBB30_6
# %bb.14:                               # %ctrl5
	cmpl	$6, %eax
	je	.LBB30_7
	jmp	.LBB30_8
.Lfunc_end30:
	.size	find_distortion, .Lfunc_end30-find_distortion
	.cfi_endproc
                                        # -- End function
	.p2align	4, 0x90         # -- Begin function copy_motion_vectors_MB
	.type	copy_motion_vectors_MB,@function
copy_motion_vectors_MB:                 # @copy_motion_vectors_MB
	.cfi_startproc
# %bb.0:                                # %rand_bb
	pushq	%rbp
	.cfi_def_cfa_offset 16
	.cfi_offset %rbp, -16
	movq	%rsp, %rbp
	.cfi_def_cfa_register %rbp
	callq	get_urand
	cmpl	$0, %eax
	jne	.LBB31_9
# %bb.1:                                # %func_copy_motion_vectors_MB.1
	callq	copy_motion_vectors_MB.1
	popq	%rbp
	.cfi_def_cfa %rsp, 8
	retq
.LBB31_2:                               # %func_copy_motion_vectors_MB.12
	.cfi_def_cfa %rbp, 16
	callq	copy_motion_vectors_MB.12
	popq	%rbp
	.cfi_def_cfa %rsp, 8
	retq
.LBB31_3:                               # %func_copy_motion_vectors_MB.47
	.cfi_def_cfa %rbp, 16
	callq	copy_motion_vectors_MB.47
	popq	%rbp
	.cfi_def_cfa %rsp, 8
	retq
.LBB31_4:                               # %func_copy_motion_vectors_MB.148
	.cfi_def_cfa %rbp, 16
	callq	copy_motion_vectors_MB.148
	popq	%rbp
	.cfi_def_cfa %rsp, 8
	retq
.LBB31_5:                               # %func_copy_motion_vectors_MB.159
	.cfi_def_cfa %rbp, 16
	callq	copy_motion_vectors_MB.159
	popq	%rbp
	.cfi_def_cfa %rsp, 8
	retq
.LBB31_6:                               # %func_copy_motion_vectors_MB.169
	.cfi_def_cfa %rbp, 16
	callq	copy_motion_vectors_MB.169
	popq	%rbp
	.cfi_def_cfa %rsp, 8
	retq
.LBB31_7:                               # %func_copy_motion_vectors_MB.170
	.cfi_def_cfa %rbp, 16
	callq	copy_motion_vectors_MB.170
	popq	%rbp
	.cfi_def_cfa %rsp, 8
	retq
.LBB31_8:                               # %func_copy_motion_vectors_MB.177
	.cfi_def_cfa %rbp, 16
	callq	copy_motion_vectors_MB.177
	popq	%rbp
	.cfi_def_cfa %rsp, 8
	retq
.LBB31_9:                               # %ctrl0
	.cfi_def_cfa %rbp, 16
	cmpl	$1, %eax
	je	.LBB31_2
# %bb.10:                               # %ctrl1
	cmpl	$2, %eax
	je	.LBB31_3
# %bb.11:                               # %ctrl2
	cmpl	$3, %eax
	je	.LBB31_4
# %bb.12:                               # %ctrl3
	cmpl	$4, %eax
	je	.LBB31_5
# %bb.13:                               # %ctrl4
	cmpl	$5, %eax
	je	.LBB31_6
# %bb.14:                               # %ctrl5
	cmpl	$6, %eax
	je	.LBB31_7
	jmp	.LBB31_8
.Lfunc_end31:
	.size	copy_motion_vectors_MB, .Lfunc_end31-copy_motion_vectors_MB
	.cfi_endproc
                                        # -- End function
	.p2align	4, 0x90         # -- Begin function CalculateFrameNumber
	.type	CalculateFrameNumber,@function
CalculateFrameNumber:                   # @CalculateFrameNumber
	.cfi_startproc
# %bb.0:                                # %entry
	pushq	%rbp
	.cfi_def_cfa_offset 16
	.cfi_offset %rbp, -16
	movq	%rsp, %rbp
	.cfi_def_cfa_register %rbp
	movq	img, %rax
	cmpl	$0, 71908(%rax)
	je	.LBB32_5
# %bb.1:                                # %if.then
	movq	input, %rax
	cmpl	$0, 1320(%rax)
	je	.LBB32_3
# %bb.2:                                # %if.then2
	movl	start_tr_in_this_IGOP, %eax
	movq	img, %rcx
	movl	(%rcx), %ecx
	subl	start_frame_no_in_this_IGOP, %ecx
	subl	$1, %ecx
	movq	input, %rdx
	movl	20(%rdx), %edx
	addl	$1, %edx
	imull	%edx, %ecx
	addl	%ecx, %eax
	movq	img, %rcx
	vmovsd	71896(%rcx), %xmm0      # xmm0 = mem[0],zero
	movq	gop_structure, %rcx
	movq	img, %rdx
	movl	71908(%rdx), %edx
	subl	$1, %edx
	movslq	%edx, %rdx
	imulq	$24, %rdx, %rdx
	addq	%rdx, %rcx
	movl	4(%rcx), %ecx
	addl	$1, %ecx
	vcvtsi2sd	%ecx, %xmm0, %xmm1
	vmulsd	%xmm1, %xmm0, %xmm0
	vcvttsd2si	%xmm0, %ecx
	addl	%ecx, %eax
	movl	%eax, frame_no
	jmp	.LBB32_4
.LBB32_3:                               # %if.else
	movl	start_tr_in_this_IGOP, %eax
	movq	img, %rcx
	movl	(%rcx), %ecx
	subl	start_frame_no_in_this_IGOP, %ecx
	subl	$1, %ecx
	movq	input, %rdx
	movl	20(%rdx), %edx
	addl	$1, %edx
	imull	%edx, %ecx
	addl	%ecx, %eax
	movq	img, %rcx
	vmovsd	71896(%rcx), %xmm0      # xmm0 = mem[0],zero
	movq	img, %rcx
	vcvtsi2sdl	71908(%rcx), %xmm0, %xmm1
	vmulsd	%xmm1, %xmm0, %xmm0
	vcvttsd2si	%xmm0, %ecx
	addl	%ecx, %eax
	movl	%eax, frame_no
.LBB32_4:                               # %if.end
	jmp	.LBB32_9
.LBB32_5:                               # %if.else24
	movl	start_tr_in_this_IGOP, %eax
	movq	img, %rcx
	movl	(%rcx), %ecx
	subl	start_frame_no_in_this_IGOP, %ecx
	movq	input, %rdx
	movl	20(%rdx), %edx
	addl	$1, %edx
	imull	%edx, %ecx
	addl	%ecx, %eax
	movl	%eax, frame_no
	movq	input, %rax
	cmpl	$0, 2440(%rax)
	je	.LBB32_8
# %bb.6:                                # %land.lhs.true
	movq	img, %rax
	movl	(%rax), %eax
	addl	$1, %eax
	movq	input, %rcx
	cmpl	8(%rcx), %eax
	jne	.LBB32_8
# %bb.7:                                # %if.then35
	movq	input, %rax
	movl	2440(%rax), %eax
	movl	%eax, frame_no
.LBB32_8:                               # %if.end37
	jmp	.LBB32_9
.LBB32_9:                               # %if.end38
	movl	frame_no, %eax
	popq	%rbp
	.cfi_def_cfa %rsp, 8
	retq
.Lfunc_end32:
	.size	CalculateFrameNumber, .Lfunc_end32-CalculateFrameNumber
	.cfi_endproc
                                        # -- End function
	.p2align	4, 0x90         # -- Begin function put_buffer_frame
	.type	put_buffer_frame,@function
put_buffer_frame:                       # @put_buffer_frame
	.cfi_startproc
# %bb.0:                                # %entry
	pushq	%rbp
	.cfi_def_cfa_offset 16
	.cfi_offset %rbp, -16
	movq	%rsp, %rbp
	.cfi_def_cfa_register %rbp
	movq	imgY_org_frm, %rax
	movq	%rax, imgY_org
	movq	imgUV_org_frm, %rax
	movq	%rax, imgUV_org
	popq	%rbp
	.cfi_def_cfa %rsp, 8
	retq
.Lfunc_end33:
	.size	put_buffer_frame, .Lfunc_end33-put_buffer_frame
	.cfi_endproc
                                        # -- End function
	.p2align	4, 0x90         # -- Begin function put_buffer_top
	.type	put_buffer_top,@function
put_buffer_top:                         # @put_buffer_top
	.cfi_startproc
# %bb.0:                                # %entry
	pushq	%rbp
	.cfi_def_cfa_offset 16
	.cfi_offset %rbp, -16
	movq	%rsp, %rbp
	.cfi_def_cfa_register %rbp
	movq	img, %rax
	movl	$0, 71796(%rax)
	movq	imgY_org_top, %rax
	movq	%rax, imgY_org
	movq	imgUV_org_top, %rax
	movq	%rax, imgUV_org
	popq	%rbp
	.cfi_def_cfa %rsp, 8
	retq
.Lfunc_end34:
	.size	put_buffer_top, .Lfunc_end34-put_buffer_top
	.cfi_endproc
                                        # -- End function
	.p2align	4, 0x90         # -- Begin function put_buffer_bot
	.type	put_buffer_bot,@function
put_buffer_bot:                         # @put_buffer_bot
	.cfi_startproc
# %bb.0:                                # %entry
	pushq	%rbp
	.cfi_def_cfa_offset 16
	.cfi_offset %rbp, -16
	movq	%rsp, %rbp
	.cfi_def_cfa_register %rbp
	movq	img, %rax
	movl	$1, 71796(%rax)
	movq	imgY_org_bot, %rax
	movq	%rax, imgY_org
	movq	imgUV_org_bot, %rax
	movq	%rax, imgUV_org
	popq	%rbp
	.cfi_def_cfa %rsp, 8
	retq
.Lfunc_end35:
	.size	put_buffer_bot, .Lfunc_end35-put_buffer_bot
	.cfi_endproc
                                        # -- End function
	.p2align	4, 0x90         # -- Begin function rdPictureCoding
	.type	rdPictureCoding,@function
rdPictureCoding:                        # @rdPictureCoding
	.cfi_startproc
# %bb.0:                                # %rand_bb
	pushq	%rbp
	.cfi_def_cfa_offset 16
	.cfi_offset %rbp, -16
	movq	%rsp, %rbp
	.cfi_def_cfa_register %rbp
	callq	get_urand
	cmpl	$0, %eax
	jne	.LBB36_9
# %bb.1:                                # %func_rdPictureCoding.45
	callq	rdPictureCoding.45
	popq	%rbp
	.cfi_def_cfa %rsp, 8
	retq
.LBB36_2:                               # %func_rdPictureCoding.60
	.cfi_def_cfa %rbp, 16
	callq	rdPictureCoding.60
	popq	%rbp
	.cfi_def_cfa %rsp, 8
	retq
.LBB36_3:                               # %func_rdPictureCoding.62
	.cfi_def_cfa %rbp, 16
	callq	rdPictureCoding.62
	popq	%rbp
	.cfi_def_cfa %rsp, 8
	retq
.LBB36_4:                               # %func_rdPictureCoding.63
	.cfi_def_cfa %rbp, 16
	callq	rdPictureCoding.63
	popq	%rbp
	.cfi_def_cfa %rsp, 8
	retq
.LBB36_5:                               # %func_rdPictureCoding.64
	.cfi_def_cfa %rbp, 16
	callq	rdPictureCoding.64
	popq	%rbp
	.cfi_def_cfa %rsp, 8
	retq
.LBB36_6:                               # %func_rdPictureCoding.82
	.cfi_def_cfa %rbp, 16
	callq	rdPictureCoding.82
	popq	%rbp
	.cfi_def_cfa %rsp, 8
	retq
.LBB36_7:                               # %func_rdPictureCoding.84
	.cfi_def_cfa %rbp, 16
	callq	rdPictureCoding.84
	popq	%rbp
	.cfi_def_cfa %rsp, 8
	retq
.LBB36_8:                               # %func_rdPictureCoding.105
	.cfi_def_cfa %rbp, 16
	callq	rdPictureCoding.105
	popq	%rbp
	.cfi_def_cfa %rsp, 8
	retq
.LBB36_9:                               # %ctrl0
	.cfi_def_cfa %rbp, 16
	cmpl	$1, %eax
	je	.LBB36_2
# %bb.10:                               # %ctrl1
	cmpl	$2, %eax
	je	.LBB36_3
# %bb.11:                               # %ctrl2
	cmpl	$3, %eax
	je	.LBB36_4
# %bb.12:                               # %ctrl3
	cmpl	$4, %eax
	je	.LBB36_5
# %bb.13:                               # %ctrl4
	cmpl	$5, %eax
	je	.LBB36_6
# %bb.14:                               # %ctrl5
	cmpl	$6, %eax
	je	.LBB36_7
	jmp	.LBB36_8
.Lfunc_end36:
	.size	rdPictureCoding, .Lfunc_end36-rdPictureCoding
	.cfi_endproc
                                        # -- End function
	.p2align	4, 0x90         # -- Begin function copy_motion_vectors_MB.1
	.type	copy_motion_vectors_MB.1,@function
copy_motion_vectors_MB.1:               # @copy_motion_vectors_MB.1
	.cfi_startproc
# %bb.0:                                # %entry
	pushq	%rbp
	.cfi_def_cfa_offset 16
	.cfi_offset %rbp, -16
	movq	%rsp, %rbp
	.cfi_def_cfa_register %rbp
	subq	$32, %rsp
	movl	$1997797939, -20(%rbp)  # imm = 0x7713FA33
	movl	$0, -8(%rbp)
.LBB37_1:                               # %for.cond
                                        # =>This Loop Header: Depth=1
                                        #     Child Loop BB37_3 Depth 2
                                        #       Child Loop BB37_5 Depth 3
                                        #         Child Loop BB37_7 Depth 4
	cmpl	$4, -8(%rbp)
	jge	.LBB37_20
# %bb.2:                                # %for.body
                                        #   in Loop: Header=BB37_1 Depth=1
	movl	$0, -12(%rbp)
.LBB37_3:                               # %for.cond1
                                        #   Parent Loop BB37_1 Depth=1
                                        # =>  This Loop Header: Depth=2
                                        #       Child Loop BB37_5 Depth 3
                                        #         Child Loop BB37_7 Depth 4
	cmpl	$4, -12(%rbp)
	jge	.LBB37_18
# %bb.4:                                # %for.body3
                                        #   in Loop: Header=BB37_3 Depth=2
	movl	$0, -4(%rbp)
.LBB37_5:                               # %for.cond4
                                        #   Parent Loop BB37_1 Depth=1
                                        #     Parent Loop BB37_3 Depth=2
                                        # =>    This Loop Header: Depth=3
                                        #         Child Loop BB37_7 Depth 4
	movl	-4(%rbp), %eax
	movq	img, %rcx
	cmpl	36(%rcx), %eax
	jge	.LBB37_16
# %bb.6:                                # %for.body6
                                        #   in Loop: Header=BB37_5 Depth=3
	movl	$0, -16(%rbp)
.LBB37_7:                               # %for.cond7
                                        #   Parent Loop BB37_1 Depth=1
                                        #     Parent Loop BB37_3 Depth=2
                                        #       Parent Loop BB37_5 Depth=3
                                        # =>      This Inner Loop Header: Depth=4
	cmpl	$9, -16(%rbp)
	jge	.LBB37_14
# %bb.8:                                # %for.body9
                                        #   in Loop: Header=BB37_7 Depth=4
	movq	rdopt, %rax
	movq	3240(%rax), %rax
	movslq	-8(%rbp), %rcx
	movq	(%rax,%rcx,8), %rax
	movslq	-12(%rbp), %rcx
	movq	(%rax,%rcx,8), %rax
	movq	(%rax), %rax
	movslq	-4(%rbp), %rcx
	movq	(%rax,%rcx,8), %rax
	movslq	-16(%rbp), %rcx
	movq	(%rax,%rcx,8), %rax
	movw	(%rax), %ax
	movq	img, %rcx
	movq	71928(%rcx), %rcx
	movslq	-8(%rbp), %rdx
	movq	(%rcx,%rdx,8), %rcx
	movslq	-12(%rbp), %rdx
	movq	(%rcx,%rdx,8), %rcx
	movq	(%rcx), %rcx
	movslq	-4(%rbp), %rdx
	movq	(%rcx,%rdx,8), %rcx
	movslq	-16(%rbp), %rdx
	movq	(%rcx,%rdx,8), %rcx
	movw	%ax, (%rcx)
	movq	rdopt, %rax
	movq	3240(%rax), %rax
	movslq	-8(%rbp), %rcx
	movq	(%rax,%rcx,8), %rax
	movslq	-12(%rbp), %rcx
	movq	(%rax,%rcx,8), %rax
	movq	(%rax), %rax
	movslq	-4(%rbp), %rcx
	movq	(%rax,%rcx,8), %rax
	movslq	-16(%rbp), %rcx
	movq	(%rax,%rcx,8), %rax
	movw	2(%rax), %ax
	movq	img, %rcx
	movq	71928(%rcx), %rcx
	movslq	-8(%rbp), %rdx
	movq	(%rcx,%rdx,8), %rcx
	movslq	-12(%rbp), %rdx
	movq	(%rcx,%rdx,8), %rcx
	movq	(%rcx), %rcx
	movslq	-4(%rbp), %rdx
	movq	(%rcx,%rdx,8), %rcx
	movslq	-16(%rbp), %rdx
	movq	(%rcx,%rdx,8), %rcx
	movw	%ax, 2(%rcx)
	movq	rdopt, %rax
	movq	3240(%rax), %rax
	movslq	-8(%rbp), %rcx
	movq	(%rax,%rcx,8), %rax
	movslq	-12(%rbp), %rcx
	movq	(%rax,%rcx,8), %rax
	movq	8(%rax), %rax
	movslq	-4(%rbp), %rcx
	movq	(%rax,%rcx,8), %rax
	movslq	-16(%rbp), %rcx
	movq	(%rax,%rcx,8), %rax
	movw	(%rax), %ax
	movq	img, %rcx
	movq	71928(%rcx), %rcx
	movslq	-8(%rbp), %rdx
	movq	(%rcx,%rdx,8), %rcx
	movslq	-12(%rbp), %rdx
	movq	(%rcx,%rdx,8), %rcx
	movq	8(%rcx), %rcx
	movslq	-4(%rbp), %rdx
	movq	(%rcx,%rdx,8), %rcx
	movslq	-16(%rbp), %rdx
	movq	(%rcx,%rdx,8), %rcx
	movw	%ax, (%rcx)
	movq	rdopt, %rax
	movq	3240(%rax), %rax
	movslq	-8(%rbp), %rcx
	movq	(%rax,%rcx,8), %rax
	movslq	-12(%rbp), %rcx
	movq	(%rax,%rcx,8), %rax
	movq	8(%rax), %rax
	movslq	-4(%rbp), %rcx
	movq	(%rax,%rcx,8), %rax
	movslq	-16(%rbp), %rcx
	movq	(%rax,%rcx,8), %rax
	movw	2(%rax), %ax
	movq	img, %rcx
	movq	71928(%rcx), %rcx
	movslq	-8(%rbp), %rdx
	movq	(%rcx,%rdx,8), %rcx
	movslq	-12(%rbp), %rdx
	movq	(%rcx,%rdx,8), %rcx
	movq	8(%rcx), %rcx
	movslq	-4(%rbp), %rdx
	movq	(%rcx,%rdx,8), %rcx
	movslq	-16(%rbp), %rdx
	movq	(%rcx,%rdx,8), %rcx
	movw	%ax, 2(%rcx)
	movq	input, %rax
	cmpl	$0, 1256(%rax)
	je	.LBB37_12
# %bb.9:                                # %land.lhs.true
                                        #   in Loop: Header=BB37_7 Depth=4
	cmpl	$1, -4(%rbp)
	jne	.LBB37_12
# %bb.10:                               # %land.lhs.true96
                                        #   in Loop: Header=BB37_7 Depth=4
	movq	img, %rax
	cmpl	$1, 24(%rax)
	jne	.LBB37_12
# %bb.11:                               # %if.then
                                        #   in Loop: Header=BB37_7 Depth=4
	movq	rdopt, %rax
	movq	3248(%rax), %rax
	movslq	-8(%rbp), %rcx
	movq	(%rax,%rcx,8), %rax
	movslq	-12(%rbp), %rcx
	movq	(%rax,%rcx,8), %rax
	movq	(%rax), %rax
	movslq	-4(%rbp), %rcx
	movq	(%rax,%rcx,8), %rax
	movslq	-16(%rbp), %rcx
	movq	(%rax,%rcx,8), %rax
	movw	(%rax), %ax
	movq	img, %rcx
	movq	71936(%rcx), %rcx
	movslq	-8(%rbp), %rdx
	movq	(%rcx,%rdx,8), %rcx
	movslq	-12(%rbp), %rdx
	movq	(%rcx,%rdx,8), %rcx
	movq	(%rcx), %rcx
	movslq	-4(%rbp), %rdx
	movq	(%rcx,%rdx,8), %rcx
	movslq	-16(%rbp), %rdx
	movq	(%rcx,%rdx,8), %rcx
	movw	%ax, (%rcx)
	movq	rdopt, %rax
	movq	3248(%rax), %rax
	movslq	-8(%rbp), %rcx
	movq	(%rax,%rcx,8), %rax
	movslq	-12(%rbp), %rcx
	movq	(%rax,%rcx,8), %rax
	movq	(%rax), %rax
	movslq	-4(%rbp), %rcx
	movq	(%rax,%rcx,8), %rax
	movslq	-16(%rbp), %rcx
	movq	(%rax,%rcx,8), %rax
	movw	2(%rax), %ax
	movq	img, %rcx
	movq	71936(%rcx), %rcx
	movslq	-8(%rbp), %rdx
	movq	(%rcx,%rdx,8), %rcx
	movslq	-12(%rbp), %rdx
	movq	(%rcx,%rdx,8), %rcx
	movq	(%rcx), %rcx
	movslq	-4(%rbp), %rdx
	movq	(%rcx,%rdx,8), %rcx
	movslq	-16(%rbp), %rdx
	movq	(%rcx,%rdx,8), %rcx
	movw	%ax, 2(%rcx)
	movq	rdopt, %rax
	movq	3248(%rax), %rax
	movslq	-8(%rbp), %rcx
	movq	(%rax,%rcx,8), %rax
	movslq	-12(%rbp), %rcx
	movq	(%rax,%rcx,8), %rax
	movq	8(%rax), %rax
	movslq	-4(%rbp), %rcx
	movq	(%rax,%rcx,8), %rax
	movslq	-16(%rbp), %rcx
	movq	(%rax,%rcx,8), %rax
	movw	(%rax), %ax
	movq	img, %rcx
	movq	71936(%rcx), %rcx
	movslq	-8(%rbp), %rdx
	movq	(%rcx,%rdx,8), %rcx
	movslq	-12(%rbp), %rdx
	movq	(%rcx,%rdx,8), %rcx
	movq	8(%rcx), %rcx
	movslq	-4(%rbp), %rdx
	movq	(%rcx,%rdx,8), %rcx
	movslq	-16(%rbp), %rdx
	movq	(%rcx,%rdx,8), %rcx
	movw	%ax, (%rcx)
	movq	rdopt, %rax
	movq	3248(%rax), %rax
	movslq	-8(%rbp), %rcx
	movq	(%rax,%rcx,8), %rax
	movslq	-12(%rbp), %rcx
	movq	(%rax,%rcx,8), %rax
	movq	8(%rax), %rax
	movslq	-4(%rbp), %rcx
	movq	(%rax,%rcx,8), %rax
	movslq	-16(%rbp), %rcx
	movq	(%rax,%rcx,8), %rax
	movw	2(%rax), %ax
	movq	img, %rcx
	movq	71936(%rcx), %rcx
	movslq	-8(%rbp), %rdx
	movq	(%rcx,%rdx,8), %rcx
	movslq	-12(%rbp), %rdx
	movq	(%rcx,%rdx,8), %rcx
	movq	8(%rcx), %rcx
	movslq	-4(%rbp), %rdx
	movq	(%rcx,%rdx,8), %rcx
	movslq	-16(%rbp), %rdx
	movq	(%rcx,%rdx,8), %rcx
	movw	%ax, 2(%rcx)
	movq	rdopt, %rax
	movq	3256(%rax), %rax
	movslq	-8(%rbp), %rcx
	movq	(%rax,%rcx,8), %rax
	movslq	-12(%rbp), %rcx
	movq	(%rax,%rcx,8), %rax
	movq	(%rax), %rax
	movslq	-4(%rbp), %rcx
	movq	(%rax,%rcx,8), %rax
	movslq	-16(%rbp), %rcx
	movq	(%rax,%rcx,8), %rax
	movw	(%rax), %ax
	movq	img, %rcx
	movq	71944(%rcx), %rcx
	movslq	-8(%rbp), %rdx
	movq	(%rcx,%rdx,8), %rcx
	movslq	-12(%rbp), %rdx
	movq	(%rcx,%rdx,8), %rcx
	movq	(%rcx), %rcx
	movslq	-4(%rbp), %rdx
	movq	(%rcx,%rdx,8), %rcx
	movslq	-16(%rbp), %rdx
	movq	(%rcx,%rdx,8), %rcx
	movw	%ax, (%rcx)
	movq	rdopt, %rax
	movq	3256(%rax), %rax
	movslq	-8(%rbp), %rcx
	movq	(%rax,%rcx,8), %rax
	movslq	-12(%rbp), %rcx
	movq	(%rax,%rcx,8), %rax
	movq	(%rax), %rax
	movslq	-4(%rbp), %rcx
	movq	(%rax,%rcx,8), %rax
	movslq	-16(%rbp), %rcx
	movq	(%rax,%rcx,8), %rax
	movw	2(%rax), %ax
	movq	img, %rcx
	movq	71944(%rcx), %rcx
	movslq	-8(%rbp), %rdx
	movq	(%rcx,%rdx,8), %rcx
	movslq	-12(%rbp), %rdx
	movq	(%rcx,%rdx,8), %rcx
	movq	(%rcx), %rcx
	movslq	-4(%rbp), %rdx
	movq	(%rcx,%rdx,8), %rcx
	movslq	-16(%rbp), %rdx
	movq	(%rcx,%rdx,8), %rcx
	movw	%ax, 2(%rcx)
	movq	rdopt, %rax
	movq	3256(%rax), %rax
	movslq	-8(%rbp), %rcx
	movq	(%rax,%rcx,8), %rax
	movslq	-12(%rbp), %rcx
	movq	(%rax,%rcx,8), %rax
	movq	8(%rax), %rax
	movslq	-4(%rbp), %rcx
	movq	(%rax,%rcx,8), %rax
	movslq	-16(%rbp), %rcx
	movq	(%rax,%rcx,8), %rax
	movw	(%rax), %ax
	movq	img, %rcx
	movq	71944(%rcx), %rcx
	movslq	-8(%rbp), %rdx
	movq	(%rcx,%rdx,8), %rcx
	movslq	-12(%rbp), %rdx
	movq	(%rcx,%rdx,8), %rcx
	movq	8(%rcx), %rcx
	movslq	-4(%rbp), %rdx
	movq	(%rcx,%rdx,8), %rcx
	movslq	-16(%rbp), %rdx
	movq	(%rcx,%rdx,8), %rcx
	movw	%ax, (%rcx)
	movq	rdopt, %rax
	movq	3256(%rax), %rax
	movslq	-8(%rbp), %rcx
	movq	(%rax,%rcx,8), %rax
	movslq	-12(%rbp), %rcx
	movq	(%rax,%rcx,8), %rax
	movq	8(%rax), %rax
	movslq	-4(%rbp), %rcx
	movq	(%rax,%rcx,8), %rax
	movslq	-16(%rbp), %rcx
	movq	(%rax,%rcx,8), %rax
	movw	2(%rax), %ax
	movq	img, %rcx
	movq	71944(%rcx), %rcx
	movslq	-8(%rbp), %rdx
	movq	(%rcx,%rdx,8), %rcx
	movslq	-12(%rbp), %rdx
	movq	(%rcx,%rdx,8), %rcx
	movq	8(%rcx), %rcx
	movslq	-4(%rbp), %rdx
	movq	(%rcx,%rdx,8), %rcx
	movslq	-16(%rbp), %rdx
	movq	(%rcx,%rdx,8), %rcx
	movw	%ax, 2(%rcx)
.LBB37_12:                              # %if.end
                                        #   in Loop: Header=BB37_7 Depth=4
	movq	rdopt, %rax
	movq	3232(%rax), %rax
	movslq	-8(%rbp), %rcx
	movq	(%rax,%rcx,8), %rax
	movslq	-12(%rbp), %rcx
	movq	(%rax,%rcx,8), %rax
	movq	(%rax), %rax
	movslq	-4(%rbp), %rcx
	movq	(%rax,%rcx,8), %rax
	movslq	-16(%rbp), %rcx
	movq	(%rax,%rcx,8), %rax
	movw	(%rax), %ax
	movq	img, %rcx
	movq	71920(%rcx), %rcx
	movslq	-8(%rbp), %rdx
	movq	(%rcx,%rdx,8), %rcx
	movslq	-12(%rbp), %rdx
	movq	(%rcx,%rdx,8), %rcx
	movq	(%rcx), %rcx
	movslq	-4(%rbp), %rdx
	movq	(%rcx,%rdx,8), %rcx
	movslq	-16(%rbp), %rdx
	movq	(%rcx,%rdx,8), %rcx
	movw	%ax, (%rcx)
	movq	rdopt, %rax
	movq	3232(%rax), %rax
	movslq	-8(%rbp), %rcx
	movq	(%rax,%rcx,8), %rax
	movslq	-12(%rbp), %rcx
	movq	(%rax,%rcx,8), %rax
	movq	(%rax), %rax
	movslq	-4(%rbp), %rcx
	movq	(%rax,%rcx,8), %rax
	movslq	-16(%rbp), %rcx
	movq	(%rax,%rcx,8), %rax
	movw	2(%rax), %ax
	movq	img, %rcx
	movq	71920(%rcx), %rcx
	movslq	-8(%rbp), %rdx
	movq	(%rcx,%rdx,8), %rcx
	movslq	-12(%rbp), %rdx
	movq	(%rcx,%rdx,8), %rcx
	movq	(%rcx), %rcx
	movslq	-4(%rbp), %rdx
	movq	(%rcx,%rdx,8), %rcx
	movslq	-16(%rbp), %rdx
	movq	(%rcx,%rdx,8), %rcx
	movw	%ax, 2(%rcx)
	movq	rdopt, %rax
	movq	3232(%rax), %rax
	movslq	-8(%rbp), %rcx
	movq	(%rax,%rcx,8), %rax
	movslq	-12(%rbp), %rcx
	movq	(%rax,%rcx,8), %rax
	movq	8(%rax), %rax
	movslq	-4(%rbp), %rcx
	movq	(%rax,%rcx,8), %rax
	movslq	-16(%rbp), %rcx
	movq	(%rax,%rcx,8), %rax
	movw	(%rax), %ax
	movq	img, %rcx
	movq	71920(%rcx), %rcx
	movslq	-8(%rbp), %rdx
	movq	(%rcx,%rdx,8), %rcx
	movslq	-12(%rbp), %rdx
	movq	(%rcx,%rdx,8), %rcx
	movq	8(%rcx), %rcx
	movslq	-4(%rbp), %rdx
	movq	(%rcx,%rdx,8), %rcx
	movslq	-16(%rbp), %rdx
	movq	(%rcx,%rdx,8), %rcx
	movw	%ax, (%rcx)
	movq	rdopt, %rax
	movq	3232(%rax), %rax
	movslq	-8(%rbp), %rcx
	movq	(%rax,%rcx,8), %rax
	movslq	-12(%rbp), %rcx
	movq	(%rax,%rcx,8), %rax
	movq	8(%rax), %rax
	movslq	-4(%rbp), %rcx
	movq	(%rax,%rcx,8), %rax
	movslq	-16(%rbp), %rcx
	movq	(%rax,%rcx,8), %rax
	movw	2(%rax), %ax
	movq	img, %rcx
	movq	71920(%rcx), %rcx
	movslq	-8(%rbp), %rdx
	movq	(%rcx,%rdx,8), %rcx
	movslq	-12(%rbp), %rdx
	movq	(%rcx,%rdx,8), %rcx
	movq	8(%rcx), %rcx
	movslq	-4(%rbp), %rdx
	movq	(%rcx,%rdx,8), %rcx
	movslq	-16(%rbp), %rdx
	movq	(%rcx,%rdx,8), %rcx
	movw	%ax, 2(%rcx)
# %bb.13:                               # %for.inc
                                        #   in Loop: Header=BB37_7 Depth=4
	movl	-16(%rbp), %eax
	addl	$1, %eax
	movl	%eax, -16(%rbp)
	jmp	.LBB37_7
.LBB37_14:                              # %for.end
                                        #   in Loop: Header=BB37_5 Depth=3
	jmp	.LBB37_15
.LBB37_15:                              # %for.inc359
                                        #   in Loop: Header=BB37_5 Depth=3
	movl	-4(%rbp), %eax
	addl	$1, %eax
	movl	%eax, -4(%rbp)
	jmp	.LBB37_5
.LBB37_16:                              # %for.end361
                                        #   in Loop: Header=BB37_3 Depth=2
	jmp	.LBB37_17
.LBB37_17:                              # %for.inc362
                                        #   in Loop: Header=BB37_3 Depth=2
	movl	-12(%rbp), %eax
	addl	$1, %eax
	movl	%eax, -12(%rbp)
	jmp	.LBB37_3
.LBB37_18:                              # %for.end364
                                        #   in Loop: Header=BB37_1 Depth=1
	jmp	.LBB37_19
.LBB37_19:                              # %for.inc365
                                        #   in Loop: Header=BB37_1 Depth=1
	movl	-8(%rbp), %eax
	addl	$1, %eax
	movl	%eax, -8(%rbp)
	jmp	.LBB37_1
.LBB37_20:                              # %for.end367
	cmpl	$1997797939, -20(%rbp)  # imm = 0x7713FA33
	jne	.LBB37_22
.LBB37_21:
	addq	$32, %rsp
	popq	%rbp
	.cfi_def_cfa %rsp, 8
	retq
.LBB37_22:                              # %func_exit
	.cfi_def_cfa %rbp, 16
	callq	detect_breach
	jmp	.LBB37_21
.Lfunc_end37:
	.size	copy_motion_vectors_MB.1, .Lfunc_end37-copy_motion_vectors_MB.1
	.cfi_endproc
                                        # -- End function
	.p2align	4, 0x90         # -- Begin function field_mode_buffer.2
	.type	field_mode_buffer.2,@function
field_mode_buffer.2:                    # @field_mode_buffer.2
	.cfi_startproc
# %bb.0:                                # %entry
	pushq	%rbp
	.cfi_def_cfa_offset 16
	.cfi_offset %rbp, -16
	movq	%rsp, %rbp
	.cfi_def_cfa_register %rbp
	subq	$32, %rsp
	movl	$1521782001, -8(%rbp)   # imm = 0x5AB48CF1
	movl	%edi, -20(%rbp)
	vmovss	%xmm0, -16(%rbp)
	vmovss	%xmm1, -12(%rbp)
	vmovss	%xmm2, -4(%rbp)
	callq	put_buffer_frame
	vmovss	-16(%rbp), %xmm0        # xmm0 = mem[0],zero,zero,zero
	movq	snr, %rax
	vmovss	%xmm0, (%rax)
	vmovss	-12(%rbp), %xmm0        # xmm0 = mem[0],zero,zero,zero
	movq	snr, %rax
	vmovss	%xmm0, 4(%rax)
	vmovss	-4(%rbp), %xmm0         # xmm0 = mem[0],zero,zero,zero
	movq	snr, %rax
	vmovss	%xmm0, 8(%rax)
	cmpl	$1521782001, -8(%rbp)   # imm = 0x5AB48CF1
	jne	.LBB38_2
.LBB38_1:
	addq	$32, %rsp
	popq	%rbp
	.cfi_def_cfa %rsp, 8
	retq
.LBB38_2:                               # %func_exit
	.cfi_def_cfa %rbp, 16
	callq	detect_breach
	jmp	.LBB38_1
.Lfunc_end38:
	.size	field_mode_buffer.2, .Lfunc_end38-field_mode_buffer.2
	.cfi_endproc
                                        # -- End function
	.section	.rodata.cst8,"aM",@progbits,8
	.p2align	3               # -- Begin function init_frame.3
.LCPI39_0:
	.quad	4607182418800017408     # double 1
	.text
	.p2align	4, 0x90
	.type	init_frame.3,@function
init_frame.3:                           # @init_frame.3
	.cfi_startproc
# %bb.0:                                # %entry
	pushq	%rbp
	.cfi_def_cfa_offset 16
	.cfi_offset %rbp, -16
	movq	%rsp, %rbp
	.cfi_def_cfa_register %rbp
	subq	$16, %rsp
	movl	$545250758, -16(%rbp)   # imm = 0x207FDDC6
	movq	last_P_no_frm, %rax
	movq	%rax, last_P_no
	movq	img, %rax
	movl	$0, 12(%rax)
	movq	img, %rax
	movl	$0, 20(%rax)
	movq	stats, %rax
	movl	$0, 24(%rax)
	movq	img, %rax
	movl	$0, 136(%rax)
	movq	img, %rax
	movl	$0, 140(%rax)
	movq	img, %rax
	movl	$0, 164(%rax)
	movq	img, %rax
	movl	$0, 156(%rax)
	movq	img, %rax
	movl	$0, 148(%rax)
	movq	img, %rax
	movl	$0, 160(%rax)
	movq	img, %rax
	movl	$0, 96(%rax)
	movq	img, %rax
	movl	$0, 152(%rax)
	movq	img, %rax
	movl	$0, 144(%rax)
	movl	$0, -4(%rbp)
.LBB39_1:                               # %for.cond
                                        # =>This Inner Loop Header: Depth=1
	movl	-4(%rbp), %esi
	movq	img, %rax
	movl	52(%rax), %eax
	cltd
	movl	$16, %edi
	idivl	%edi
	movl	%eax, %ecx
	movq	img, %rax
	movl	60(%rax), %eax
	cltd
	idivl	%edi
	imull	%eax, %ecx
	cmpl	%ecx, %esi
	jge	.LBB39_4
# %bb.2:                                # %for.body
                                        #   in Loop: Header=BB39_1 Depth=1
	movq	img, %rax
	movq	14168(%rax), %rax
	movslq	-4(%rbp), %rcx
	imulq	$632, %rcx, %rcx        # imm = 0x278
	addq	%rcx, %rax
	movl	$-1, 4(%rax)
# %bb.3:                                # %for.inc
                                        #   in Loop: Header=BB39_1 Depth=1
	movl	-4(%rbp), %eax
	addl	$1, %eax
	movl	%eax, -4(%rbp)
	jmp	.LBB39_1
.LBB39_4:                               # %for.end
	movq	img, %rax
	cmpl	$0, 71908(%rax)
	jne	.LBB39_29
# %bb.5:                                # %if.then
	movl	start_tr_in_this_IGOP, %eax
	movq	img, %rcx
	movl	(%rcx), %ecx
	subl	start_frame_no_in_this_IGOP, %ecx
	movq	input, %rdx
	movl	20(%rdx), %edx
	addl	$1, %edx
	imull	%edx, %ecx
	addl	%ecx, %eax
	movq	img, %rcx
	movl	%eax, 71792(%rcx)
	movq	img, %rax
	movl	71876(%rax), %eax
	movq	img, %rcx
	movl	%eax, 71880(%rcx)
	movq	img, %rax
	movl	71792(%rax), %eax
	movq	img, %rcx
	movl	%eax, 71876(%rcx)
	movq	input, %rax
	cmpl	$0, 2440(%rax)
	je	.LBB39_8
# %bb.6:                                # %land.lhs.true
	movq	img, %rax
	movl	(%rax), %eax
	addl	$1, %eax
	movq	input, %rcx
	cmpl	8(%rcx), %eax
	jne	.LBB39_8
# %bb.7:                                # %if.then10
	movq	input, %rax
	movl	2440(%rax), %eax
	movq	img, %rcx
	movl	%eax, 71792(%rcx)
.LBB39_8:                               # %if.end
	movq	img, %rax
	movl	(%rax), %eax
	subl	start_frame_no_in_this_IGOP, %eax
	cmpl	$0, %eax
	je	.LBB39_11
# %bb.9:                                # %land.lhs.true16
	movq	input, %rax
	cmpl	$0, 1236(%rax)
	je	.LBB39_11
# %bb.10:                               # %if.then18
	movq	img, %rax
	movl	71792(%rax), %eax
	movl	%eax, nextP_tr_frm
.LBB39_11:                              # %if.end20
	movq	input, %rax
	cmpl	$0, 3236(%rax)
	jne	.LBB39_26
# %bb.12:                               # %if.then22
	movq	img, %rax
	cmpl	$2, 24(%rax)
	jne	.LBB39_18
# %bb.13:                               # %if.then24
	movq	input, %rax
	cmpl	$0, 2452(%rax)
	jle	.LBB39_16
# %bb.14:                               # %land.lhs.true26
	movq	img, %rax
	movl	71792(%rax), %eax
	movq	input, %rcx
	cmpl	2452(%rcx), %eax
	jl	.LBB39_16
# %bb.15:                               # %if.then30
	movq	input, %rax
	movl	2456(%rax), %eax
	movq	img, %rcx
	movl	%eax, 40(%rcx)
	jmp	.LBB39_17
.LBB39_16:                              # %if.else
	movq	input, %rax
	movl	12(%rax), %eax
	movq	img, %rcx
	movl	%eax, 40(%rcx)
.LBB39_17:                              # %if.end32
	jmp	.LBB39_25
.LBB39_18:                              # %if.else33
	movq	input, %rax
	cmpl	$0, 2452(%rax)
	jle	.LBB39_21
# %bb.19:                               # %land.lhs.true36
	movq	img, %rax
	movl	71792(%rax), %eax
	movq	input, %rcx
	cmpl	2452(%rcx), %eax
	jl	.LBB39_21
# %bb.20:                               # %if.then40
	movq	input, %rax
	movl	2444(%rax), %eax
	movq	img, %rcx
	movl	%eax, 40(%rcx)
	jmp	.LBB39_22
.LBB39_21:                              # %if.else42
	movq	input, %rax
	movl	16(%rax), %eax
	movq	img, %rcx
	movl	%eax, 40(%rcx)
.LBB39_22:                              # %if.end44
	movq	img, %rax
	cmpl	$3, 24(%rax)
	jne	.LBB39_24
# %bb.23:                               # %if.then47
	movq	input, %rax
	movl	1276(%rax), %eax
	movq	img, %rcx
	movl	%eax, 40(%rcx)
	movq	input, %rax
	movl	1280(%rax), %eax
	movq	img, %rcx
	movl	%eax, 44(%rcx)
.LBB39_24:                              # %if.end50
	jmp	.LBB39_25
.LBB39_25:                              # %if.end51
	jmp	.LBB39_26
.LBB39_26:                              # %if.end52
	movq	img, %rax
	movl	88(%rax), %eax
	movq	img, %rcx
	movl	%eax, 92(%rcx)
	movq	input, %rax
	cmpl	$0, 76(%rax)
	jle	.LBB39_28
# %bb.27:                               # %if.then54
	movq	img, %rax
	movl	(%rax), %eax
	subl	start_frame_no_in_this_IGOP, %eax
	movq	input, %rcx
	cltd
	idivl	76(%rcx)
	movl	%eax, %ecx
	movq	img, %rax
	movl	60(%rax), %eax
	cltd
	movl	$16, %esi
	idivl	%esi
	movl	%eax, %esi
	movl	%ecx, %eax
	cltd
	idivl	%esi
	movq	img, %rax
	movl	%edx, 88(%rax)
.LBB39_28:                              # %if.end62
	jmp	.LBB39_72
.LBB39_29:                              # %if.else63
	movq	input, %rax
	movl	20(%rax), %eax
	addl	$1, %eax
	movq	img, %rcx
	movl	%eax, 71904(%rcx)
	movl	start_tr_in_this_IGOP, %eax
	movq	img, %rcx
	movl	(%rcx), %ecx
	subl	start_frame_no_in_this_IGOP, %ecx
	subl	$1, %ecx
	movq	img, %rdx
	imull	71904(%rdx), %ecx
	addl	%ecx, %eax
	movl	%eax, -12(%rbp)
	movl	start_tr_in_this_IGOP, %eax
	movq	img, %rcx
	movl	(%rcx), %ecx
	subl	start_frame_no_in_this_IGOP, %ecx
	movq	img, %rdx
	imull	71904(%rdx), %ecx
	addl	%ecx, %eax
	movl	%eax, -8(%rbp)
	movl	-12(%rbp), %eax
	movq	last_P_no, %rcx
	movl	%eax, (%rcx)
	movl	$1, -4(%rbp)
.LBB39_30:                              # %for.cond78
                                        # =>This Inner Loop Header: Depth=1
	movl	-4(%rbp), %eax
	movq	img, %rcx
	cmpl	72376(%rcx), %eax
	jge	.LBB39_33
# %bb.31:                               # %for.body80
                                        #   in Loop: Header=BB39_30 Depth=1
	movq	last_P_no, %rax
	movl	-4(%rbp), %ecx
	subl	$1, %ecx
	movslq	%ecx, %rcx
	movl	(%rax,%rcx,4), %eax
	movq	img, %rcx
	subl	71904(%rcx), %eax
	movq	last_P_no, %rcx
	movslq	-4(%rbp), %rdx
	movl	%eax, (%rcx,%rdx,4)
# %bb.32:                               # %for.inc88
                                        #   in Loop: Header=BB39_30 Depth=1
	movl	-4(%rbp), %eax
	addl	$1, %eax
	movl	%eax, -4(%rbp)
	jmp	.LBB39_30
.LBB39_33:                              # %for.end90
	movq	input, %rax
	cmpl	$0, 2440(%rax)
	je	.LBB39_36
# %bb.34:                               # %land.lhs.true93
	movq	img, %rax
	movl	(%rax), %eax
	addl	$1, %eax
	movq	input, %rcx
	cmpl	8(%rcx), %eax
	jne	.LBB39_36
# %bb.35:                               # %if.then98
	movq	input, %rax
	movl	2440(%rax), %eax
	movl	%eax, -8(%rbp)
	movl	-8(%rbp), %eax
	subl	-12(%rbp), %eax
	movq	img, %rcx
	movl	%eax, 71904(%rcx)
.LBB39_36:                              # %if.end102
	vmovsd	.LCPI39_0(%rip), %xmm0  # xmm0 = mem[0],zero
	movq	input, %rax
	movl	20(%rax), %eax
	addl	$1, %eax
	vcvtsi2sd	%eax, %xmm0, %xmm1
	movq	input, %rax
	vcvtsi2sdl	1236(%rax), %xmm0, %xmm2
	vaddsd	%xmm0, %xmm2, %xmm0
	vdivsd	%xmm0, %xmm1, %xmm0
	movq	img, %rax
	vmovsd	%xmm0, 71896(%rax)
	movq	input, %rax
	cmpl	$3, 1320(%rax)
	jne	.LBB39_38
# %bb.37:                               # %if.then111
	vmovsd	.LCPI39_0(%rip), %xmm0  # xmm0 = mem[0],zero
	movq	img, %rax
	vmovsd	%xmm0, 71896(%rax)
.LBB39_38:                              # %if.end113
	movq	input, %rax
	cmpl	$0, 1320(%rax)
	je	.LBB39_40
# %bb.39:                               # %if.then116
	movl	-12(%rbp), %eax
	movq	img, %rcx
	vmovsd	71896(%rcx), %xmm0      # xmm0 = mem[0],zero
	movq	gop_structure, %rcx
	movq	img, %rdx
	movl	71908(%rdx), %edx
	subl	$1, %edx
	movslq	%edx, %rdx
	imulq	$24, %rdx, %rdx
	addq	%rdx, %rcx
	movl	4(%rcx), %ecx
	addl	$1, %ecx
	vcvtsi2sd	%ecx, %xmm0, %xmm1
	vmulsd	%xmm1, %xmm0, %xmm0
	vcvttsd2si	%xmm0, %ecx
	addl	%ecx, %eax
	movq	img, %rcx
	movl	%eax, 71792(%rcx)
	jmp	.LBB39_41
.LBB39_40:                              # %if.else128
	movl	-12(%rbp), %eax
	movq	img, %rcx
	vmovsd	71896(%rcx), %xmm0      # xmm0 = mem[0],zero
	movq	img, %rcx
	vcvtsi2sdl	71908(%rcx), %xmm0, %xmm1
	vmulsd	%xmm1, %xmm0, %xmm0
	vcvttsd2si	%xmm0, %ecx
	addl	%ecx, %eax
	movq	img, %rcx
	movl	%eax, 71792(%rcx)
.LBB39_41:                              # %if.end136
	movq	img, %rax
	movl	71792(%rax), %eax
	cmpl	-8(%rbp), %eax
	jl	.LBB39_43
# %bb.42:                               # %if.then140
	movl	-8(%rbp), %eax
	subl	$1, %eax
	movq	img, %rcx
	movl	%eax, 71792(%rcx)
.LBB39_43:                              # %if.end143
	movq	input, %rax
	cmpl	$0, 3236(%rax)
	jne	.LBB39_68
# %bb.44:                               # %land.lhs.true146
	movq	input, %rax
	cmpl	$3, 1320(%rax)
	je	.LBB39_68
# %bb.45:                               # %if.then150
	movq	input, %rax
	cmpl	$0, 2452(%rax)
	jle	.LBB39_48
# %bb.46:                               # %land.lhs.true154
	movq	img, %rax
	movl	71792(%rax), %eax
	movq	input, %rcx
	cmpl	2452(%rcx), %eax
	jl	.LBB39_48
# %bb.47:                               # %if.then159
	movq	input, %rax
	movl	2448(%rax), %eax
	movq	img, %rcx
	movl	%eax, 40(%rcx)
	jmp	.LBB39_49
.LBB39_48:                              # %if.else161
	movq	input, %rax
	movl	1240(%rax), %eax
	movq	img, %rcx
	movl	%eax, 40(%rcx)
.LBB39_49:                              # %if.end163
	movq	img, %rax
	cmpl	$0, 72496(%rax)
	je	.LBB39_67
# %bb.50:                               # %if.then165
	movq	input, %rax
	cmpl	$0, 2452(%rax)
	jle	.LBB39_59
# %bb.51:                               # %land.lhs.true169
	movq	img, %rax
	movl	71792(%rax), %eax
	movq	input, %rcx
	cmpl	2452(%rcx), %eax
	jl	.LBB39_59
# %bb.52:                               # %if.then174
	movq	input, %rax
	movl	2448(%rax), %eax
	movq	input, %rcx
	addl	2460(%rcx), %eax
	cmpl	$0, %eax
	jge	.LBB39_54
# %bb.53:                               # %cond.true
	xorl	%eax, %eax
	jmp	.LBB39_58
.LBB39_54:                              # %cond.false
	movq	input, %rax
	movl	2448(%rax), %eax
	movq	input, %rcx
	addl	2460(%rcx), %eax
	cmpl	$51, %eax
	jle	.LBB39_56
# %bb.55:                               # %cond.true184
	movl	$51, %eax
	jmp	.LBB39_57
.LBB39_56:                              # %cond.false185
	movq	input, %rax
	movl	2448(%rax), %eax
	movq	input, %rcx
	addl	2460(%rcx), %eax
.LBB39_57:                              # %cond.end
.LBB39_58:                              # %cond.end189
	movq	img, %rcx
	movl	%eax, 40(%rcx)
	jmp	.LBB39_66
.LBB39_59:                              # %if.else192
	movq	input, %rax
	movl	1240(%rax), %eax
	movq	input, %rcx
	addl	1244(%rcx), %eax
	cmpl	$0, %eax
	jge	.LBB39_61
# %bb.60:                               # %cond.true197
	xorl	%eax, %eax
	jmp	.LBB39_65
.LBB39_61:                              # %cond.false198
	movq	input, %rax
	movl	1240(%rax), %eax
	movq	input, %rcx
	addl	1244(%rcx), %eax
	cmpl	$51, %eax
	jle	.LBB39_63
# %bb.62:                               # %cond.true204
	movl	$51, %eax
	jmp	.LBB39_64
.LBB39_63:                              # %cond.false205
	movq	input, %rax
	movl	1240(%rax), %eax
	movq	input, %rcx
	addl	1244(%rcx), %eax
.LBB39_64:                              # %cond.end209
.LBB39_65:                              # %cond.end211
	movq	img, %rcx
	movl	%eax, 40(%rcx)
.LBB39_66:                              # %if.end214
	jmp	.LBB39_67
.LBB39_67:                              # %if.end215
	jmp	.LBB39_71
.LBB39_68:                              # %if.else216
	movq	input, %rax
	cmpl	$3, 1320(%rax)
	jne	.LBB39_70
# %bb.69:                               # %if.then220
	movq	gop_structure, %rax
	movq	img, %rcx
	movl	71908(%rcx), %ecx
	subl	$1, %ecx
	movslq	%ecx, %rcx
	imulq	$24, %rcx, %rcx
	addq	%rcx, %rax
	movl	12(%rax), %eax
	movq	img, %rcx
	movl	%eax, 40(%rcx)
.LBB39_70:                              # %if.end226
	jmp	.LBB39_71
.LBB39_71:                              # %if.end227
	jmp	.LBB39_72
.LBB39_72:                              # %if.end228
	movq	img, %rax
	movl	72384(%rax), %edi
	callq	UpdateSubseqInfo
	xorl	%edi, %edi
	xorl	%esi, %esi
	xorl	%edx, %edx
	movl	$4294967295, %ecx       # imm = 0xFFFFFFFF
	callq	UpdateSceneInformation
	movq	img, %rax
	movl	52(%rax), %eax
	movq	img, %rcx
	imull	60(%rcx), %eax
	cltd
	movl	$256, %ecx              # imm = 0x100
	idivl	%ecx
	movq	img, %rcx
	movl	%eax, 16(%rcx)
	movq	img, %rax
	movl	$0, 72504(%rax)
	movq	img, %rax
	movl	$0, 72508(%rax)
	callq	init_dec_ref_pic_marking_buffer
	cmpl	$545250758, -16(%rbp)   # imm = 0x207FDDC6
	jne	.LBB39_74
.LBB39_73:
	addq	$16, %rsp
	popq	%rbp
	.cfi_def_cfa %rsp, 8
	retq
.LBB39_74:                              # %func_exit
	.cfi_def_cfa %rbp, 16
	callq	detect_breach
	jmp	.LBB39_73
.Lfunc_end39:
	.size	init_frame.3, .Lfunc_end39-init_frame.3
	.cfi_endproc
                                        # -- End function
	.p2align	4, 0x90         # -- Begin function distortion_fld.4
	.type	distortion_fld.4,@function
distortion_fld.4:                       # @distortion_fld.4
	.cfi_startproc
# %bb.0:                                # %entry
	pushq	%rbp
	.cfi_def_cfa_offset 16
	.cfi_offset %rbp, -16
	movq	%rsp, %rbp
	.cfi_def_cfa_register %rbp
	subq	$32, %rsp
	movl	$2007889358, -4(%rbp)   # imm = 0x77ADF5CE
	movq	%rdi, -24(%rbp)
	movq	%rsi, -32(%rbp)
	movq	%rdx, -16(%rbp)
	movq	img, %rcx
	movl	(%rcx), %eax
	cltd
	movl	$2, %esi
	idivl	%esi
	movl	%eax, (%rcx)
	movq	img, %rcx
	movl	72376(%rcx), %eax
	cltd
	idivl	%esi
	movl	%eax, 72376(%rcx)
	movq	input, %rax
	movl	68(%rax), %eax
	movq	img, %rcx
	addl	72732(%rcx), %eax
	movq	img, %rcx
	movl	%eax, 60(%rcx)
	movq	img, %rax
	movl	68(%rax), %eax
	movq	img, %rcx
	movl	%eax, 64(%rcx)
	movq	img, %rax
	movl	52(%rax), %eax
	movq	img, %rcx
	imull	60(%rcx), %eax
	cltd
	movl	$256, %ecx              # imm = 0x100
	idivl	%ecx
	movq	img, %rcx
	movl	%eax, 16(%rcx)
	movb	$0, %al
	callq	combine_field
	movq	imgY_org_frm, %rax
	movq	%rax, imgY_org
	movq	imgUV_org_frm, %rax
	movq	%rax, imgUV_org
	callq	find_distortion
	movq	snr, %rax
	vmovss	(%rax), %xmm0           # xmm0 = mem[0],zero,zero,zero
	movq	-24(%rbp), %rax
	vmovss	%xmm0, (%rax)
	movq	snr, %rax
	vmovss	4(%rax), %xmm0          # xmm0 = mem[0],zero,zero,zero
	movq	-32(%rbp), %rax
	vmovss	%xmm0, (%rax)
	movq	snr, %rax
	vmovss	8(%rax), %xmm0          # xmm0 = mem[0],zero,zero,zero
	movq	-16(%rbp), %rax
	vmovss	%xmm0, (%rax)
	cmpl	$2007889358, -4(%rbp)   # imm = 0x77ADF5CE
	jne	.LBB40_2
.LBB40_1:
	addq	$32, %rsp
	popq	%rbp
	.cfi_def_cfa %rsp, 8
	retq
.LBB40_2:                               # %func_exit
	.cfi_def_cfa %rbp, 16
	callq	detect_breach
	jmp	.LBB40_1
.Lfunc_end40:
	.size	distortion_fld.4, .Lfunc_end40-distortion_fld.4
	.cfi_endproc
                                        # -- End function
	.p2align	4, 0x90         # -- Begin function writeout_picture.5
	.type	writeout_picture.5,@function
writeout_picture.5:                     # @writeout_picture.5
	.cfi_startproc
# %bb.0:                                # %entry
	pushq	%rbp
	.cfi_def_cfa_offset 16
	.cfi_offset %rbp, -16
	movq	%rsp, %rbp
	.cfi_def_cfa_register %rbp
	subq	$48, %rsp
	movl	$1530005390, -28(%rbp)  # imm = 0x5B32078E
	movq	%rdi, -16(%rbp)
	movq	-16(%rbp), %rax
	movq	img, %rcx
	movq	%rax, 14152(%rcx)
	movl	$0, -8(%rbp)
.LBB41_1:                               # %for.cond
                                        # =>This Loop Header: Depth=1
                                        #     Child Loop BB41_3 Depth 2
	movl	-8(%rbp), %eax
	movq	-16(%rbp), %rcx
	cmpl	(%rcx), %eax
	jge	.LBB41_8
# %bb.2:                                # %for.body
                                        #   in Loop: Header=BB41_1 Depth=1
	movq	-16(%rbp), %rax
	movslq	-8(%rbp), %rcx
	movq	8(%rax,%rcx,8), %rax
	movq	%rax, -24(%rbp)
	movl	$0, -4(%rbp)
.LBB41_3:                               # %for.cond1
                                        #   Parent Loop BB41_1 Depth=1
                                        # =>  This Inner Loop Header: Depth=2
	movl	-4(%rbp), %eax
	movq	-24(%rbp), %rcx
	cmpl	16(%rcx), %eax
	jge	.LBB41_6
# %bb.4:                                # %for.body3
                                        #   in Loop: Header=BB41_3 Depth=2
	movq	-24(%rbp), %rax
	movq	24(%rax), %rax
	movslq	-4(%rbp), %rcx
	imulq	$120, %rcx, %rcx
	addq	%rcx, %rax
	movq	(%rax), %rax
	movq	%rax, -40(%rbp)
	movq	-24(%rbp), %rax
	movq	24(%rax), %rax
	movslq	-4(%rbp), %rcx
	imulq	$120, %rcx, %rcx
	addq	%rcx, %rax
	movq	(%rax), %rdi
	movl	-4(%rbp), %esi
	callq	writeUnit
# %bb.5:                                # %for.inc
                                        #   in Loop: Header=BB41_3 Depth=2
	movl	-4(%rbp), %eax
	addl	$1, %eax
	movl	%eax, -4(%rbp)
	jmp	.LBB41_3
.LBB41_6:                               # %for.end
                                        #   in Loop: Header=BB41_1 Depth=1
	jmp	.LBB41_7
.LBB41_7:                               # %for.inc10
                                        #   in Loop: Header=BB41_1 Depth=1
	movl	-8(%rbp), %eax
	addl	$1, %eax
	movl	%eax, -8(%rbp)
	jmp	.LBB41_1
.LBB41_8:                               # %for.end12
	cmpl	$1530005390, -28(%rbp)  # imm = 0x5B32078E
	jne	.LBB41_10
.LBB41_9:
	xorl	%eax, %eax
	addq	$48, %rsp
	popq	%rbp
	.cfi_def_cfa %rsp, 8
	retq
.LBB41_10:                              # %func_exit
	.cfi_def_cfa %rbp, 16
	callq	detect_breach
	jmp	.LBB41_9
.Lfunc_end41:
	.size	writeout_picture.5, .Lfunc_end41-writeout_picture.5
	.cfi_endproc
                                        # -- End function
	.section	.rodata.cst8,"aM",@progbits,8
	.p2align	3               # -- Begin function picture_structure_decision.6
.LCPI42_0:
	.quad	4605831338911806259     # double 0.84999999999999998
.LCPI42_1:
	.quad	4611686018427387904     # double 2
.LCPI42_2:
	.quad	4613937818241073152     # double 3
	.text
	.p2align	4, 0x90
	.type	picture_structure_decision.6,@function
picture_structure_decision.6:           # @picture_structure_decision.6
	.cfi_startproc
# %bb.0:                                # %entry
	pushq	%rbp
	.cfi_def_cfa_offset 16
	.cfi_offset %rbp, -16
	movq	%rsp, %rbp
	.cfi_def_cfa_register %rbp
	pushq	%rbx
	subq	$56, %rsp
	.cfi_offset %rbx, -24
	vmovsd	.LCPI42_1(%rip), %xmm0  # xmm0 = mem[0],zero
	vmovsd	.LCPI42_2(%rip), %xmm1  # xmm1 = mem[0],zero
	movl	$368354677, -40(%rbp)   # imm = 0x15F4A575
	movq	%rdi, -16(%rbp)
	movq	%rsi, -24(%rbp)
	movq	%rdx, -64(%rbp)
	movq	img, %rax
	cmpl	$1, 24(%rax)
	sete	%al
	andb	$1, %al
	movzbl	%al, %eax
	movl	%eax, -36(%rbp)
	movq	img, %rax
	vcvtsi2sdl	72676(%rax), %xmm0, %xmm2
	movq	img, %rax
	movl	40(%rax), %eax
	subl	$12, %eax
	vcvtsi2sd	%eax, %xmm0, %xmm3
	vdivsd	%xmm1, %xmm3, %xmm1
	vaddsd	%xmm1, %xmm2, %xmm1
	callq	pow
	vmovsd	.LCPI42_0(%rip), %xmm1  # xmm1 = mem[0],zero
	vmulsd	%xmm0, %xmm1, %xmm0
	movl	-36(%rbp), %eax
	cmpl	$0, %eax
	movl	$4, %eax
	movl	$1, %ecx
	cmovnel	%eax, %ecx
	vcvtsi2sd	%ecx, %xmm0, %xmm1
	vmulsd	%xmm1, %xmm0, %xmm0
	vmovsd	%xmm0, -56(%rbp)
	movq	-16(%rbp), %rax
	vmovss	812(%rax), %xmm0        # xmm0 = mem[0],zero,zero,zero
	movq	-16(%rbp), %rax
	vaddss	816(%rax), %xmm0, %xmm0
	movq	-16(%rbp), %rax
	vaddss	820(%rax), %xmm0, %xmm0
	vmovss	%xmm0, -44(%rbp)
	movq	-24(%rbp), %rax
	vmovss	812(%rax), %xmm0        # xmm0 = mem[0],zero,zero,zero
	movq	-24(%rbp), %rax
	vaddss	816(%rax), %xmm0, %xmm0
	movq	-24(%rbp), %rax
	vaddss	820(%rax), %xmm0, %xmm0
	vmovss	%xmm0, -32(%rbp)
	movq	-24(%rbp), %rax
	movl	808(%rax), %eax
	movq	-64(%rbp), %rcx
	addl	808(%rcx), %eax
	movl	%eax, -48(%rbp)
	movq	-16(%rbp), %rax
	movl	808(%rax), %eax
	movl	%eax, -28(%rbp)
	vmovss	-44(%rbp), %xmm0        # xmm0 = mem[0],zero,zero,zero
	vmovss	-32(%rbp), %xmm1        # xmm1 = mem[0],zero,zero,zero
	movl	-48(%rbp), %edi
	movl	-28(%rbp), %esi
	vmovsd	-56(%rbp), %xmm2        # xmm2 = mem[0],zero
	callq	decide_fld_frame
	movl	%eax, %ebx
	cmpl	$368354677, -40(%rbp)   # imm = 0x15F4A575
	jne	.LBB42_2
.LBB42_1:
	movl	%ebx, %eax
	addq	$56, %rsp
	popq	%rbx
	popq	%rbp
	.cfi_def_cfa %rsp, 8
	retq
.LBB42_2:                               # %func_exit
	.cfi_def_cfa %rbp, 16
	callq	detect_breach
	jmp	.LBB42_1
.Lfunc_end42:
	.size	picture_structure_decision.6, .Lfunc_end42-picture_structure_decision.6
	.cfi_endproc
                                        # -- End function
	.p2align	4, 0x90         # -- Begin function ReportB.7
	.type	ReportB.7,@function
ReportB.7:                              # @ReportB.7
	.cfi_startproc
# %bb.0:                                # %entry
	pushq	%rbp
	.cfi_def_cfa_offset 16
	.cfi_offset %rbp, -16
	movq	%rsp, %rbp
	.cfi_def_cfa_register %rbp
	pushq	%rbx
	subq	$56, %rsp
	.cfi_offset %rbx, -24
	movl	$512179295, -16(%rbp)   # imm = 0x1E873C5F
	movl	%edi, -20(%rbp)
	movl	%esi, -12(%rbp)
	movl	frame_no, %esi
	movq	stats, %rax
	movl	16(%rax), %edx
	movq	stats, %rax
	subl	20(%rax), %edx
	movq	active_pps, %rax
	movl	196(%rax), %ecx
	movq	img, %rax
	movl	40(%rax), %r8d
	movq	snr, %rax
	vmovss	(%rax), %xmm0           # xmm0 = mem[0],zero,zero,zero
	vcvtss2sd	%xmm0, %xmm0, %xmm0
	movq	snr, %rax
	vmovss	4(%rax), %xmm1          # xmm1 = mem[0],zero,zero,zero
	vcvtss2sd	%xmm1, %xmm0, %xmm1
	movq	snr, %rax
	vmovss	8(%rax), %xmm2          # xmm2 = mem[0],zero,zero,zero
	vcvtss2sd	%xmm2, %xmm0, %xmm2
	movl	-20(%rbp), %r9d
	movl	-12(%rbp), %r10d
	movq	img, %rdi
	movl	71800(%rdi), %edi
	cmpl	$0, %edi
	movabsq	$.L.str.7, %rdi
	movabsq	$.L.str.8, %rax
	cmovneq	%rdi, %rax
	movl	intras, %r11d
	movq	img, %rdi
	movl	71996(%rdi), %ebx
	movabsq	$.L.str.12, %rdi
	movl	%r10d, (%rsp)
	movq	%rax, 8(%rsp)
	movl	%r11d, 16(%rsp)
	movl	%ebx, 24(%rsp)
	movb	$3, %al
	callq	printf
	cmpl	$512179295, -16(%rbp)   # imm = 0x1E873C5F
	jne	.LBB43_2
.LBB43_1:
	addq	$56, %rsp
	popq	%rbx
	popq	%rbp
	.cfi_def_cfa %rsp, 8
	retq
.LBB43_2:                               # %func_exit
	.cfi_def_cfa %rbp, 16
	callq	detect_breach
	jmp	.LBB43_1
.Lfunc_end43:
	.size	ReportB.7, .Lfunc_end43-ReportB.7
	.cfi_endproc
                                        # -- End function
	.p2align	4, 0x90         # -- Begin function ReportSP.8
	.type	ReportSP.8,@function
ReportSP.8:                             # @ReportSP.8
	.cfi_startproc
# %bb.0:                                # %entry
	pushq	%rbp
	.cfi_def_cfa_offset 16
	.cfi_offset %rbp, -16
	movq	%rsp, %rbp
	.cfi_def_cfa_register %rbp
	subq	$48, %rsp
	movl	$688224303, -8(%rbp)    # imm = 0x2905782F
	movl	%edi, -12(%rbp)
	movl	%esi, -4(%rbp)
	movl	frame_no, %esi
	movq	stats, %rax
	movl	16(%rax), %edx
	movq	stats, %rax
	subl	20(%rax), %edx
	movq	active_pps, %rax
	movl	192(%rax), %ecx
	movq	img, %rax
	movl	40(%rax), %r8d
	movq	snr, %rax
	vmovss	(%rax), %xmm0           # xmm0 = mem[0],zero,zero,zero
	vcvtss2sd	%xmm0, %xmm0, %xmm0
	movq	snr, %rax
	vmovss	4(%rax), %xmm1          # xmm1 = mem[0],zero,zero,zero
	vcvtss2sd	%xmm1, %xmm0, %xmm1
	movq	snr, %rax
	vmovss	8(%rax), %xmm2          # xmm2 = mem[0],zero,zero,zero
	vcvtss2sd	%xmm2, %xmm0, %xmm2
	movl	-12(%rbp), %r9d
	movl	-4(%rbp), %r10d
	movq	img, %rdi
	movl	71800(%rdi), %edi
	cmpl	$0, %edi
	movabsq	$.L.str.7, %rdi
	movabsq	$.L.str.8, %rax
	cmovneq	%rdi, %rax
	movl	intras, %r11d
	movabsq	$.L.str.10, %rdi
	movl	%r10d, (%rsp)
	movq	%rax, 8(%rsp)
	movl	%r11d, 16(%rsp)
	movb	$3, %al
	callq	printf
	cmpl	$688224303, -8(%rbp)    # imm = 0x2905782F
	jne	.LBB44_2
.LBB44_1:
	addq	$48, %rsp
	popq	%rbp
	.cfi_def_cfa %rsp, 8
	retq
.LBB44_2:                               # %func_exit
	.cfi_def_cfa %rbp, 16
	callq	detect_breach
	jmp	.LBB44_1
.Lfunc_end44:
	.size	ReportSP.8, .Lfunc_end44-ReportSP.8
	.cfi_endproc
                                        # -- End function
	.p2align	4, 0x90         # -- Begin function GenerateFullPelRepresentation.9
	.type	GenerateFullPelRepresentation.9,@function
GenerateFullPelRepresentation.9:        # @GenerateFullPelRepresentation.9
	.cfi_startproc
# %bb.0:                                # %entry
	pushq	%rbp
	.cfi_def_cfa_offset 16
	.cfi_offset %rbp, -16
	movq	%rsp, %rbp
	.cfi_def_cfa_register %rbp
	pushq	%r15
	pushq	%r14
	pushq	%rbx
	subq	$40, %rsp
	.cfi_offset %rbx, -40
	.cfi_offset %r14, -32
	.cfi_offset %r15, -24
	movl	$669405705, -44(%rbp)   # imm = 0x27E65209
	movq	%rdi, -56(%rbp)
	movq	%rsi, -64(%rbp)
	movl	%edx, -36(%rbp)
	movl	%ecx, -40(%rbp)
	movl	$0, -32(%rbp)
.LBB45_1:                               # %for.cond
                                        # =>This Loop Header: Depth=1
                                        #     Child Loop BB45_3 Depth 2
	movl	-32(%rbp), %eax
	cmpl	-40(%rbp), %eax
	jge	.LBB45_8
# %bb.2:                                # %for.body
                                        #   in Loop: Header=BB45_1 Depth=1
	movl	$0, -28(%rbp)
.LBB45_3:                               # %for.cond1
                                        #   Parent Loop BB45_1 Depth=1
                                        # =>  This Inner Loop Header: Depth=2
	movl	-28(%rbp), %eax
	cmpl	-36(%rbp), %eax
	jge	.LBB45_6
# %bb.4:                                # %for.body3
                                        #   in Loop: Header=BB45_3 Depth=2
	movq	-64(%rbp), %rbx
	movl	-32(%rbp), %r14d
	movl	-28(%rbp), %r15d
	movq	-56(%rbp), %rdi
	movl	-32(%rbp), %esi
	shll	$2, %esi
	movl	-28(%rbp), %edx
	shll	$2, %edx
	movl	-40(%rbp), %ecx
	movl	-36(%rbp), %r8d
	callq	FastPelY_14
	movl	-36(%rbp), %r8d
	movq	%rbx, %rdi
	movl	%r14d, %esi
	movl	%r15d, %edx
	movzwl	%ax, %ecx
	callq	PutPel_11
# %bb.5:                                # %for.inc
                                        #   in Loop: Header=BB45_3 Depth=2
	movl	-28(%rbp), %eax
	addl	$1, %eax
	movl	%eax, -28(%rbp)
	jmp	.LBB45_3
.LBB45_6:                               # %for.end
                                        #   in Loop: Header=BB45_1 Depth=1
	jmp	.LBB45_7
.LBB45_7:                               # %for.inc5
                                        #   in Loop: Header=BB45_1 Depth=1
	movl	-32(%rbp), %eax
	addl	$1, %eax
	movl	%eax, -32(%rbp)
	jmp	.LBB45_1
.LBB45_8:                               # %for.end7
	cmpl	$669405705, -44(%rbp)   # imm = 0x27E65209
	jne	.LBB45_10
.LBB45_9:
	addq	$40, %rsp
	popq	%rbx
	popq	%r14
	popq	%r15
	popq	%rbp
	.cfi_def_cfa %rsp, 8
	retq
.LBB45_10:                              # %func_exit
	.cfi_def_cfa %rbp, 16
	callq	detect_breach
	jmp	.LBB45_9
.Lfunc_end45:
	.size	GenerateFullPelRepresentation.9, .Lfunc_end45-GenerateFullPelRepresentation.9
	.cfi_endproc
                                        # -- End function
	.globl	copy_rdopt_data.10      # -- Begin function copy_rdopt_data.10
	.p2align	4, 0x90
	.type	copy_rdopt_data.10,@function
copy_rdopt_data.10:                     # @copy_rdopt_data.10
	.cfi_startproc
# %bb.0:                                # %entry
	pushq	%rbp
	.cfi_def_cfa_offset 16
	.cfi_offset %rbp, -16
	movq	%rsp, %rbp
	.cfi_def_cfa_register %rbp
	subq	$64, %rsp
	movl	$964195475, -52(%rbp)   # imm = 0x39787493
	movl	%edi, -56(%rbp)
	movq	img, %rax
	movl	12(%rax), %eax
	movl	%eax, -48(%rbp)
	movq	img, %rax
	movq	14168(%rax), %rax
	movslq	-48(%rbp), %rcx
	imulq	$632, %rcx, %rcx        # imm = 0x278
	addq	%rcx, %rax
	movq	%rax, -24(%rbp)
	movq	img, %rax
	cmpl	$1, 24(%rax)
	sete	%al
	andb	$1, %al
	movzbl	%al, %eax
	movl	%eax, -36(%rbp)
	movq	img, %rax
	cmpl	$0, 72400(%rax)
	je	.LBB46_3
# %bb.1:                                # %land.lhs.true
	movq	-24(%rbp), %rax
	cmpl	$0, 532(%rax)
	je	.LBB46_3
# %bb.2:                                # %cond.true
	movq	img, %rax
	movl	12(%rax), %eax
	cltd
	movl	$2, %ecx
	idivl	%ecx
	cmpl	$0, %edx
	movl	$4, %eax
	cmovnel	%eax, %ecx
	jmp	.LBB46_4
.LBB46_3:                               # %cond.false
	xorl	%ecx, %ecx
	jmp	.LBB46_4
.LBB46_4:                               # %cond.end
	movl	%ecx, -44(%rbp)
	movq	rdopt, %rax
	movl	3224(%rax), %eax
	movl	%eax, -28(%rbp)
	movq	rdopt, %rax
	movl	3096(%rax), %eax
	movq	-24(%rbp), %rcx
	movl	%eax, 72(%rcx)
	movq	rdopt, %rax
	movl	3208(%rax), %eax
	movq	-24(%rbp), %rcx
	movl	%eax, 460(%rcx)
	movq	rdopt, %rax
	movq	3216(%rax), %rax
	movq	-24(%rbp), %rcx
	movq	%rax, 464(%rcx)
	movq	rdopt, %rax
	movl	3100(%rax), %eax
	movq	-24(%rbp), %rcx
	movl	%eax, 580(%rcx)
	movq	rdopt, %rax
	movl	3328(%rax), %eax
	movq	img, %rcx
	movl	%eax, 72380(%rcx)
	movq	rdopt, %rax
	movl	3348(%rax), %eax
	movq	-24(%rbp), %rcx
	movl	%eax, 592(%rcx)
	movq	rdopt, %rax
	movl	3352(%rax), %eax
	movq	-24(%rbp), %rcx
	movl	%eax, 596(%rcx)
	movq	rdopt, %rax
	movl	3344(%rax), %eax
	movq	-24(%rbp), %rcx
	movl	%eax, 12(%rcx)
	movq	rdopt, %rax
	movl	3332(%rax), %eax
	movq	-24(%rbp), %rcx
	movl	%eax, 524(%rcx)
	movl	$0, -4(%rbp)
.LBB46_5:                               # %for.cond
                                        # =>This Loop Header: Depth=1
                                        #     Child Loop BB46_7 Depth 2
                                        #       Child Loop BB46_9 Depth 3
                                        #         Child Loop BB46_11 Depth 4
	movl	-4(%rbp), %eax
	movq	img, %rcx
	movl	72692(%rcx), %ecx
	addl	$4, %ecx
	cmpl	%ecx, %eax
	jge	.LBB46_20
# %bb.6:                                # %for.body
                                        #   in Loop: Header=BB46_5 Depth=1
	movl	$0, -8(%rbp)
.LBB46_7:                               # %for.cond17
                                        #   Parent Loop BB46_5 Depth=1
                                        # =>  This Loop Header: Depth=2
                                        #       Child Loop BB46_9 Depth 3
                                        #         Child Loop BB46_11 Depth 4
	cmpl	$4, -8(%rbp)
	jge	.LBB46_18
# %bb.8:                                # %for.body20
                                        #   in Loop: Header=BB46_7 Depth=2
	movl	$0, -12(%rbp)
.LBB46_9:                               # %for.cond21
                                        #   Parent Loop BB46_5 Depth=1
                                        #     Parent Loop BB46_7 Depth=2
                                        # =>    This Loop Header: Depth=3
                                        #         Child Loop BB46_11 Depth 4
	cmpl	$2, -12(%rbp)
	jge	.LBB46_16
# %bb.10:                               # %for.body24
                                        #   in Loop: Header=BB46_9 Depth=3
	movl	$0, -16(%rbp)
.LBB46_11:                              # %for.cond25
                                        #   Parent Loop BB46_5 Depth=1
                                        #     Parent Loop BB46_7 Depth=2
                                        #       Parent Loop BB46_9 Depth=3
                                        # =>      This Inner Loop Header: Depth=4
	cmpl	$65, -16(%rbp)
	jge	.LBB46_14
# %bb.12:                               # %for.body28
                                        #   in Loop: Header=BB46_11 Depth=4
	movq	rdopt, %rax
	movq	3080(%rax), %rax
	movslq	-4(%rbp), %rcx
	movq	(%rax,%rcx,8), %rax
	movslq	-8(%rbp), %rcx
	movq	(%rax,%rcx,8), %rax
	movslq	-12(%rbp), %rcx
	movq	(%rax,%rcx,8), %rax
	movslq	-16(%rbp), %rcx
	movl	(%rax,%rcx,4), %eax
	movq	img, %rcx
	movq	14136(%rcx), %rcx
	movslq	-4(%rbp), %rdx
	movq	(%rcx,%rdx,8), %rcx
	movslq	-8(%rbp), %rdx
	movq	(%rcx,%rdx,8), %rcx
	movslq	-12(%rbp), %rdx
	movq	(%rcx,%rdx,8), %rcx
	movslq	-16(%rbp), %rdx
	movl	%eax, (%rcx,%rdx,4)
# %bb.13:                               # %for.inc
                                        #   in Loop: Header=BB46_11 Depth=4
	movl	-16(%rbp), %eax
	addl	$1, %eax
	movl	%eax, -16(%rbp)
	jmp	.LBB46_11
.LBB46_14:                              # %for.end
                                        #   in Loop: Header=BB46_9 Depth=3
	jmp	.LBB46_15
.LBB46_15:                              # %for.inc46
                                        #   in Loop: Header=BB46_9 Depth=3
	movl	-12(%rbp), %eax
	addl	$1, %eax
	movl	%eax, -12(%rbp)
	jmp	.LBB46_9
.LBB46_16:                              # %for.end48
                                        #   in Loop: Header=BB46_7 Depth=2
	jmp	.LBB46_17
.LBB46_17:                              # %for.inc49
                                        #   in Loop: Header=BB46_7 Depth=2
	movl	-8(%rbp), %eax
	addl	$1, %eax
	movl	%eax, -8(%rbp)
	jmp	.LBB46_7
.LBB46_18:                              # %for.end51
                                        #   in Loop: Header=BB46_5 Depth=1
	jmp	.LBB46_19
.LBB46_19:                              # %for.inc52
                                        #   in Loop: Header=BB46_5 Depth=1
	movl	-4(%rbp), %eax
	addl	$1, %eax
	movl	%eax, -4(%rbp)
	jmp	.LBB46_5
.LBB46_20:                              # %for.end54
	movl	$0, -4(%rbp)
.LBB46_21:                              # %for.cond55
                                        # =>This Loop Header: Depth=1
                                        #     Child Loop BB46_23 Depth 2
                                        #       Child Loop BB46_25 Depth 3
	cmpl	$3, -4(%rbp)
	jge	.LBB46_32
# %bb.22:                               # %for.body58
                                        #   in Loop: Header=BB46_21 Depth=1
	movl	$0, -12(%rbp)
.LBB46_23:                              # %for.cond59
                                        #   Parent Loop BB46_21 Depth=1
                                        # =>  This Loop Header: Depth=2
                                        #       Child Loop BB46_25 Depth 3
	cmpl	$2, -12(%rbp)
	jge	.LBB46_30
# %bb.24:                               # %for.body62
                                        #   in Loop: Header=BB46_23 Depth=2
	movl	$0, -16(%rbp)
.LBB46_25:                              # %for.cond63
                                        #   Parent Loop BB46_21 Depth=1
                                        #     Parent Loop BB46_23 Depth=2
                                        # =>    This Inner Loop Header: Depth=3
	cmpl	$18, -16(%rbp)
	jge	.LBB46_28
# %bb.26:                               # %for.body66
                                        #   in Loop: Header=BB46_25 Depth=3
	movq	rdopt, %rax
	movq	3088(%rax), %rax
	movslq	-4(%rbp), %rcx
	movq	(%rax,%rcx,8), %rax
	movslq	-12(%rbp), %rcx
	movq	(%rax,%rcx,8), %rax
	movslq	-16(%rbp), %rcx
	movl	(%rax,%rcx,4), %eax
	movq	img, %rcx
	movq	14144(%rcx), %rcx
	movslq	-4(%rbp), %rdx
	movq	(%rcx,%rdx,8), %rcx
	movslq	-12(%rbp), %rdx
	movq	(%rcx,%rdx,8), %rcx
	movslq	-16(%rbp), %rdx
	movl	%eax, (%rcx,%rdx,4)
# %bb.27:                               # %for.inc80
                                        #   in Loop: Header=BB46_25 Depth=3
	movl	-16(%rbp), %eax
	addl	$1, %eax
	movl	%eax, -16(%rbp)
	jmp	.LBB46_25
.LBB46_28:                              # %for.end82
                                        #   in Loop: Header=BB46_23 Depth=2
	jmp	.LBB46_29
.LBB46_29:                              # %for.inc83
                                        #   in Loop: Header=BB46_23 Depth=2
	movl	-12(%rbp), %eax
	addl	$1, %eax
	movl	%eax, -12(%rbp)
	jmp	.LBB46_23
.LBB46_30:                              # %for.end85
                                        #   in Loop: Header=BB46_21 Depth=1
	jmp	.LBB46_31
.LBB46_31:                              # %for.inc86
                                        #   in Loop: Header=BB46_21 Depth=1
	movl	-4(%rbp), %eax
	addl	$1, %eax
	movl	%eax, -4(%rbp)
	jmp	.LBB46_21
.LBB46_32:                              # %for.end88
	movl	$0, -8(%rbp)
.LBB46_33:                              # %for.cond89
                                        # =>This Loop Header: Depth=1
                                        #     Child Loop BB46_35 Depth 2
	cmpl	$4, -8(%rbp)
	jge	.LBB46_42
# %bb.34:                               # %for.body92
                                        #   in Loop: Header=BB46_33 Depth=1
	movl	$0, -4(%rbp)
.LBB46_35:                              # %for.cond93
                                        #   Parent Loop BB46_33 Depth=1
                                        # =>  This Inner Loop Header: Depth=2
	cmpl	$4, -4(%rbp)
	jge	.LBB46_40
# %bb.36:                               # %for.body96
                                        #   in Loop: Header=BB46_35 Depth=2
	movq	rdopt, %rax
	addq	$3264, %rax             # imm = 0xCC0
	movslq	-8(%rbp), %rcx
	shlq	$3, %rcx
	addq	%rcx, %rax
	movslq	-4(%rbp), %rcx
	movw	(%rax,%rcx,2), %ax
	movq	enc_picture, %rcx
	movq	6480(%rcx), %rcx
	movq	(%rcx), %rcx
	movq	img, %rdx
	movl	144(%rdx), %edx
	addl	-4(%rbp), %edx
	movslq	%edx, %rdx
	movq	(%rcx,%rdx,8), %rcx
	movq	img, %rdx
	movl	148(%rdx), %edx
	addl	-8(%rbp), %edx
	movslq	%edx, %rdx
	movw	%ax, (%rcx,%rdx,2)
	movq	enc_picture, %rax
	addq	$24, %rax
	movl	-44(%rbp), %ecx
	addl	$0, %ecx
	movslq	%ecx, %rcx
	imulq	$264, %rcx, %rcx        # imm = 0x108
	addq	%rcx, %rax
	movq	enc_picture, %rcx
	movq	6480(%rcx), %rcx
	movq	(%rcx), %rcx
	movq	img, %rdx
	movl	144(%rdx), %edx
	addl	-4(%rbp), %edx
	movslq	%edx, %rdx
	movq	(%rcx,%rdx,8), %rcx
	movq	img, %rdx
	movl	148(%rdx), %edx
	addl	-8(%rbp), %edx
	movslq	%edx, %rdx
	movswq	(%rcx,%rdx,2), %rcx
	movq	(%rax,%rcx,8), %rax
	movq	enc_picture, %rcx
	movq	6488(%rcx), %rcx
	movq	(%rcx), %rcx
	movq	img, %rdx
	movl	144(%rdx), %edx
	addl	-4(%rbp), %edx
	movslq	%edx, %rdx
	movq	(%rcx,%rdx,8), %rcx
	movq	img, %rdx
	movl	148(%rdx), %edx
	addl	-8(%rbp), %edx
	movslq	%edx, %rdx
	movq	%rax, (%rcx,%rdx,8)
	cmpl	$0, -36(%rbp)
	je	.LBB46_38
# %bb.37:                               # %if.then
                                        #   in Loop: Header=BB46_35 Depth=2
	movq	rdopt, %rax
	addq	$3264, %rax             # imm = 0xCC0
	addq	$32, %rax
	movslq	-8(%rbp), %rcx
	shlq	$3, %rcx
	addq	%rcx, %rax
	movslq	-4(%rbp), %rcx
	movw	(%rax,%rcx,2), %ax
	movq	enc_picture, %rcx
	movq	6480(%rcx), %rcx
	movq	8(%rcx), %rcx
	movq	img, %rdx
	movl	144(%rdx), %edx
	addl	-4(%rbp), %edx
	movslq	%edx, %rdx
	movq	(%rcx,%rdx,8), %rcx
	movq	img, %rdx
	movl	148(%rdx), %edx
	addl	-8(%rbp), %edx
	movslq	%edx, %rdx
	movw	%ax, (%rcx,%rdx,2)
	movq	enc_picture, %rax
	addq	$24, %rax
	movl	-44(%rbp), %ecx
	addl	$1, %ecx
	movslq	%ecx, %rcx
	imulq	$264, %rcx, %rcx        # imm = 0x108
	addq	%rcx, %rax
	movq	enc_picture, %rcx
	movq	6480(%rcx), %rcx
	movq	8(%rcx), %rcx
	movq	img, %rdx
	movl	144(%rdx), %edx
	addl	-4(%rbp), %edx
	movslq	%edx, %rdx
	movq	(%rcx,%rdx,8), %rcx
	movq	img, %rdx
	movl	148(%rdx), %edx
	addl	-8(%rbp), %edx
	movslq	%edx, %rdx
	movswq	(%rcx,%rdx,2), %rcx
	movq	(%rax,%rcx,8), %rax
	movq	enc_picture, %rcx
	movq	6488(%rcx), %rcx
	movq	8(%rcx), %rcx
	movq	img, %rdx
	movl	144(%rdx), %edx
	addl	-4(%rbp), %edx
	movslq	%edx, %rdx
	movq	(%rcx,%rdx,8), %rcx
	movq	img, %rdx
	movl	148(%rdx), %edx
	addl	-8(%rbp), %edx
	movslq	%edx, %rdx
	movq	%rax, (%rcx,%rdx,8)
.LBB46_38:                              # %if.end
                                        #   in Loop: Header=BB46_35 Depth=2
	jmp	.LBB46_39
.LBB46_39:                              # %for.inc176
                                        #   in Loop: Header=BB46_35 Depth=2
	movl	-4(%rbp), %eax
	addl	$1, %eax
	movl	%eax, -4(%rbp)
	jmp	.LBB46_35
.LBB46_40:                              # %for.end178
                                        #   in Loop: Header=BB46_33 Depth=1
	jmp	.LBB46_41
.LBB46_41:                              # %for.inc179
                                        #   in Loop: Header=BB46_33 Depth=1
	movl	-8(%rbp), %eax
	addl	$1, %eax
	movl	%eax, -8(%rbp)
	jmp	.LBB46_33
.LBB46_42:                              # %for.end181
	movl	$0, -8(%rbp)
.LBB46_43:                              # %for.cond182
                                        # =>This Loop Header: Depth=1
                                        #     Child Loop BB46_45 Depth 2
	cmpl	$16, -8(%rbp)
	jge	.LBB46_50
# %bb.44:                               # %for.body185
                                        #   in Loop: Header=BB46_43 Depth=1
	movl	$0, -4(%rbp)
.LBB46_45:                              # %for.cond186
                                        #   Parent Loop BB46_43 Depth=1
                                        # =>  This Inner Loop Header: Depth=2
	cmpl	$16, -4(%rbp)
	jge	.LBB46_48
# %bb.46:                               # %for.body189
                                        #   in Loop: Header=BB46_45 Depth=2
	movq	rdopt, %rax
	addq	$8, %rax
	movslq	-8(%rbp), %rcx
	shlq	$6, %rcx
	addq	%rcx, %rax
	movslq	-4(%rbp), %rcx
	movl	(%rax,%rcx,4), %eax
	movq	enc_picture, %rcx
	movq	6424(%rcx), %rcx
	movq	img, %rdx
	movl	156(%rdx), %edx
	addl	-8(%rbp), %edx
	movslq	%edx, %rdx
	movq	(%rcx,%rdx,8), %rcx
	movq	img, %rdx
	movl	152(%rdx), %edx
	addl	-4(%rbp), %edx
	movslq	%edx, %rdx
	movw	%ax, (%rcx,%rdx,2)
# %bb.47:                               # %for.inc201
                                        #   in Loop: Header=BB46_45 Depth=2
	movl	-4(%rbp), %eax
	addl	$1, %eax
	movl	%eax, -4(%rbp)
	jmp	.LBB46_45
.LBB46_48:                              # %for.end203
                                        #   in Loop: Header=BB46_43 Depth=1
	jmp	.LBB46_49
.LBB46_49:                              # %for.inc204
                                        #   in Loop: Header=BB46_43 Depth=1
	movl	-8(%rbp), %eax
	addl	$1, %eax
	movl	%eax, -8(%rbp)
	jmp	.LBB46_43
.LBB46_50:                              # %for.end206
	movq	img, %rax
	cmpl	$0, 72700(%rax)
	je	.LBB46_60
# %bb.51:                               # %if.then209
	movl	$0, -8(%rbp)
.LBB46_52:                              # %for.cond210
                                        # =>This Loop Header: Depth=1
                                        #     Child Loop BB46_54 Depth 2
	movl	-8(%rbp), %eax
	movq	img, %rcx
	cmpl	72712(%rcx), %eax
	jge	.LBB46_59
# %bb.53:                               # %for.body213
                                        #   in Loop: Header=BB46_52 Depth=1
	movl	$0, -4(%rbp)
.LBB46_54:                              # %for.cond214
                                        #   Parent Loop BB46_52 Depth=1
                                        # =>  This Inner Loop Header: Depth=2
	movl	-4(%rbp), %eax
	movq	img, %rcx
	cmpl	72708(%rcx), %eax
	jge	.LBB46_57
# %bb.55:                               # %for.body217
                                        #   in Loop: Header=BB46_54 Depth=2
	movq	rdopt, %rax
	addq	$1032, %rax             # imm = 0x408
	movslq	-8(%rbp), %rcx
	shlq	$6, %rcx
	addq	%rcx, %rax
	movslq	-4(%rbp), %rcx
	movl	(%rax,%rcx,4), %eax
	movq	enc_picture, %rcx
	movq	6464(%rcx), %rcx
	movq	(%rcx), %rcx
	movq	img, %rdx
	movl	164(%rdx), %edx
	addl	-8(%rbp), %edx
	movslq	%edx, %rdx
	movq	(%rcx,%rdx,8), %rcx
	movq	img, %rdx
	movl	160(%rdx), %edx
	addl	-4(%rbp), %edx
	movslq	%edx, %rdx
	movw	%ax, (%rcx,%rdx,2)
	movq	rdopt, %rax
	addq	$2056, %rax             # imm = 0x808
	movslq	-8(%rbp), %rcx
	shlq	$6, %rcx
	addq	%rcx, %rax
	movslq	-4(%rbp), %rcx
	movl	(%rax,%rcx,4), %eax
	movq	enc_picture, %rcx
	movq	6464(%rcx), %rcx
	movq	8(%rcx), %rcx
	movq	img, %rdx
	movl	164(%rdx), %edx
	addl	-8(%rbp), %edx
	movslq	%edx, %rdx
	movq	(%rcx,%rdx,8), %rcx
	movq	img, %rdx
	movl	160(%rdx), %edx
	addl	-4(%rbp), %edx
	movslq	%edx, %rdx
	movw	%ax, (%rcx,%rdx,2)
# %bb.56:                               # %for.inc245
                                        #   in Loop: Header=BB46_54 Depth=2
	movl	-4(%rbp), %eax
	addl	$1, %eax
	movl	%eax, -4(%rbp)
	jmp	.LBB46_54
.LBB46_57:                              # %for.end247
                                        #   in Loop: Header=BB46_52 Depth=1
	jmp	.LBB46_58
.LBB46_58:                              # %for.inc248
                                        #   in Loop: Header=BB46_52 Depth=1
	movl	-8(%rbp), %eax
	addl	$1, %eax
	movl	%eax, -8(%rbp)
	jmp	.LBB46_52
.LBB46_59:                              # %for.end250
	jmp	.LBB46_60
.LBB46_60:                              # %if.end251
	movl	$0, -4(%rbp)
.LBB46_61:                              # %for.cond252
                                        # =>This Inner Loop Header: Depth=1
	cmpl	$4, -4(%rbp)
	jge	.LBB46_64
# %bb.62:                               # %for.body255
                                        #   in Loop: Header=BB46_61 Depth=1
	movq	rdopt, %rax
	movslq	-4(%rbp), %rcx
	movl	3104(%rax,%rcx,4), %eax
	movq	-24(%rbp), %rcx
	movslq	-4(%rbp), %rdx
	movl	%eax, 472(%rcx,%rdx,4)
	movq	rdopt, %rax
	movslq	-4(%rbp), %rcx
	movl	3120(%rax,%rcx,4), %eax
	movq	-24(%rbp), %rcx
	movslq	-4(%rbp), %rdx
	movl	%eax, 488(%rcx,%rdx,4)
# %bb.63:                               # %for.inc268
                                        #   in Loop: Header=BB46_61 Depth=1
	movl	-4(%rbp), %eax
	addl	$1, %eax
	movl	%eax, -4(%rbp)
	jmp	.LBB46_61
.LBB46_64:                              # %for.end270
	movq	rdopt, %rax
	movl	3336(%rax), %eax
	movq	-24(%rbp), %rcx
	movl	%eax, 572(%rcx)
	cmpl	$8, -28(%rbp)
	jne	.LBB46_74
# %bb.65:                               # %if.then274
	movl	$0, -12(%rbp)
	movq	img, %rax
	movl	148(%rax), %eax
	movl	%eax, -8(%rbp)
.LBB46_66:                              # %for.cond276
                                        # =>This Loop Header: Depth=1
                                        #     Child Loop BB46_68 Depth 2
	movl	-8(%rbp), %eax
	movq	img, %rcx
	movl	148(%rcx), %ecx
	addl	$4, %ecx
	cmpl	%ecx, %eax
	jge	.LBB46_73
# %bb.67:                               # %for.body281
                                        #   in Loop: Header=BB46_66 Depth=1
	movq	img, %rax
	movl	144(%rax), %eax
	movl	%eax, -4(%rbp)
.LBB46_68:                              # %for.cond283
                                        #   Parent Loop BB46_66 Depth=1
                                        # =>  This Inner Loop Header: Depth=2
	movl	-4(%rbp), %eax
	movq	img, %rcx
	movl	144(%rcx), %ecx
	addl	$4, %ecx
	cmpl	%ecx, %eax
	jge	.LBB46_71
# %bb.69:                               # %for.body288
                                        #   in Loop: Header=BB46_68 Depth=2
	movq	rdopt, %rax
	movq	3136(%rax), %rax
	movslq	-4(%rbp), %rcx
	movq	(%rax,%rcx,8), %rax
	movslq	-8(%rbp), %rcx
	movl	(%rax,%rcx,4), %eax
	movq	img, %rcx
	movq	104(%rcx), %rcx
	movslq	-4(%rbp), %rdx
	movq	(%rcx,%rdx,8), %rcx
	movslq	-8(%rbp), %rdx
	movl	%eax, (%rcx,%rdx,4)
	movq	rdopt, %rax
	movslq	-12(%rbp), %rcx
	movl	3144(%rax,%rcx,4), %eax
	movq	-24(%rbp), %rcx
	movslq	-12(%rbp), %rdx
	movl	%eax, 332(%rcx,%rdx,4)
# %bb.70:                               # %for.inc303
                                        #   in Loop: Header=BB46_68 Depth=2
	movl	-4(%rbp), %eax
	addl	$1, %eax
	movl	%eax, -4(%rbp)
	movl	-12(%rbp), %eax
	addl	$1, %eax
	movl	%eax, -12(%rbp)
	jmp	.LBB46_68
.LBB46_71:                              # %for.end306
                                        #   in Loop: Header=BB46_66 Depth=1
	jmp	.LBB46_72
.LBB46_72:                              # %for.inc307
                                        #   in Loop: Header=BB46_66 Depth=1
	movl	-8(%rbp), %eax
	addl	$1, %eax
	movl	%eax, -8(%rbp)
	jmp	.LBB46_66
.LBB46_73:                              # %for.end309
	jmp	.LBB46_98
.LBB46_74:                              # %if.else
	cmpl	$9, -28(%rbp)
	je	.LBB46_85
# %bb.75:                               # %land.lhs.true312
	cmpl	$13, -28(%rbp)
	je	.LBB46_85
# %bb.76:                               # %if.then315
	movl	$0, -12(%rbp)
	movq	img, %rax
	movl	148(%rax), %eax
	movl	%eax, -8(%rbp)
.LBB46_77:                              # %for.cond317
                                        # =>This Loop Header: Depth=1
                                        #     Child Loop BB46_79 Depth 2
	movl	-8(%rbp), %eax
	movq	img, %rcx
	movl	148(%rcx), %ecx
	addl	$4, %ecx
	cmpl	%ecx, %eax
	jge	.LBB46_84
# %bb.78:                               # %for.body322
                                        #   in Loop: Header=BB46_77 Depth=1
	movq	img, %rax
	movl	144(%rax), %eax
	movl	%eax, -4(%rbp)
.LBB46_79:                              # %for.cond324
                                        #   Parent Loop BB46_77 Depth=1
                                        # =>  This Inner Loop Header: Depth=2
	movl	-4(%rbp), %eax
	movq	img, %rcx
	movl	144(%rcx), %ecx
	addl	$4, %ecx
	cmpl	%ecx, %eax
	jge	.LBB46_82
# %bb.80:                               # %for.body329
                                        #   in Loop: Header=BB46_79 Depth=2
	movq	img, %rax
	movq	104(%rax), %rax
	movslq	-4(%rbp), %rcx
	movq	(%rax,%rcx,8), %rax
	movslq	-8(%rbp), %rcx
	movl	$2, (%rax,%rcx,4)
	movq	-24(%rbp), %rax
	movslq	-12(%rbp), %rcx
	movl	$2, 332(%rax,%rcx,4)
# %bb.81:                               # %for.inc338
                                        #   in Loop: Header=BB46_79 Depth=2
	movl	-4(%rbp), %eax
	addl	$1, %eax
	movl	%eax, -4(%rbp)
	movl	-12(%rbp), %eax
	addl	$1, %eax
	movl	%eax, -12(%rbp)
	jmp	.LBB46_79
.LBB46_82:                              # %for.end341
                                        #   in Loop: Header=BB46_77 Depth=1
	jmp	.LBB46_83
.LBB46_83:                              # %for.inc342
                                        #   in Loop: Header=BB46_77 Depth=1
	movl	-8(%rbp), %eax
	addl	$1, %eax
	movl	%eax, -8(%rbp)
	jmp	.LBB46_77
.LBB46_84:                              # %for.end344
	jmp	.LBB46_97
.LBB46_85:                              # %if.else345
	cmpl	$9, -28(%rbp)
	je	.LBB46_87
# %bb.86:                               # %lor.lhs.false
	cmpl	$13, -28(%rbp)
	jne	.LBB46_96
.LBB46_87:                              # %if.then350
	movl	$0, -12(%rbp)
	movq	img, %rax
	movl	148(%rax), %eax
	movl	%eax, -8(%rbp)
.LBB46_88:                              # %for.cond352
                                        # =>This Loop Header: Depth=1
                                        #     Child Loop BB46_90 Depth 2
	movl	-8(%rbp), %eax
	movq	img, %rcx
	movl	148(%rcx), %ecx
	addl	$4, %ecx
	cmpl	%ecx, %eax
	jge	.LBB46_95
# %bb.89:                               # %for.body357
                                        #   in Loop: Header=BB46_88 Depth=1
	movq	img, %rax
	movl	144(%rax), %eax
	movl	%eax, -4(%rbp)
.LBB46_90:                              # %for.cond359
                                        #   Parent Loop BB46_88 Depth=1
                                        # =>  This Inner Loop Header: Depth=2
	movl	-4(%rbp), %eax
	movq	img, %rcx
	movl	144(%rcx), %ecx
	addl	$4, %ecx
	cmpl	%ecx, %eax
	jge	.LBB46_93
# %bb.91:                               # %for.body364
                                        #   in Loop: Header=BB46_90 Depth=2
	movq	rdopt, %rax
	movq	3136(%rax), %rax
	movslq	-4(%rbp), %rcx
	movq	(%rax,%rcx,8), %rax
	movslq	-8(%rbp), %rcx
	movl	(%rax,%rcx,4), %eax
	movq	img, %rcx
	movq	104(%rcx), %rcx
	movslq	-4(%rbp), %rdx
	movq	(%rcx,%rdx,8), %rcx
	movslq	-8(%rbp), %rdx
	movl	%eax, (%rcx,%rdx,4)
	movq	rdopt, %rax
	movslq	-12(%rbp), %rcx
	movl	3144(%rax,%rcx,4), %eax
	movq	-24(%rbp), %rcx
	movslq	-12(%rbp), %rdx
	movl	%eax, 332(%rcx,%rdx,4)
# %bb.92:                               # %for.inc381
                                        #   in Loop: Header=BB46_90 Depth=2
	movl	-4(%rbp), %eax
	addl	$1, %eax
	movl	%eax, -4(%rbp)
	movl	-12(%rbp), %eax
	addl	$1, %eax
	movl	%eax, -12(%rbp)
	jmp	.LBB46_90
.LBB46_93:                              # %for.end384
                                        #   in Loop: Header=BB46_88 Depth=1
	jmp	.LBB46_94
.LBB46_94:                              # %for.inc385
                                        #   in Loop: Header=BB46_88 Depth=1
	movl	-8(%rbp), %eax
	addl	$1, %eax
	movl	%eax, -8(%rbp)
	jmp	.LBB46_88
.LBB46_95:                              # %for.end387
	jmp	.LBB46_96
.LBB46_96:                              # %if.end388
	jmp	.LBB46_97
.LBB46_97:                              # %if.end389
	jmp	.LBB46_98
.LBB46_98:                              # %if.end390
	movq	img, %rax
	cmpl	$0, 72400(%rax)
	je	.LBB46_131
# %bb.99:                               # %if.then393
	callq	copy_motion_vectors_MB
	movq	-24(%rbp), %rax
	cmpl	$9, 72(%rax)
	je	.LBB46_119
# %bb.100:                              # %lor.lhs.false397
	movq	-24(%rbp), %rax
	cmpl	$10, 72(%rax)
	je	.LBB46_119
# %bb.101:                              # %lor.lhs.false401
	movq	-24(%rbp), %rax
	cmpl	$13, 72(%rax)
	je	.LBB46_119
# %bb.102:                              # %if.then405
	movl	$0, -8(%rbp)
.LBB46_103:                             # %for.cond406
                                        # =>This Loop Header: Depth=1
                                        #     Child Loop BB46_105 Depth 2
	cmpl	$4, -8(%rbp)
	jge	.LBB46_118
# %bb.104:                              # %for.body409
                                        #   in Loop: Header=BB46_103 Depth=1
	movl	$0, -4(%rbp)
.LBB46_105:                             # %for.cond410
                                        #   Parent Loop BB46_103 Depth=1
                                        # =>  This Inner Loop Header: Depth=2
	cmpl	$4, -4(%rbp)
	jge	.LBB46_116
# %bb.106:                              # %for.body413
                                        #   in Loop: Header=BB46_105 Depth=2
	movq	-24(%rbp), %rsi
	movl	-4(%rbp), %eax
	cltd
	movl	$2, %edi
	idivl	%edi
	movl	%eax, %ecx
	movl	-8(%rbp), %eax
	cltd
	idivl	%edi
	shll	$1, %eax
	addl	%eax, %ecx
	movslq	%ecx, %rax
	movl	472(%rsi,%rax,4), %eax
	movl	%eax, -32(%rbp)
	movq	-24(%rbp), %rsi
	movl	-4(%rbp), %eax
	cltd
	idivl	%edi
	movl	%eax, %ecx
	movl	-8(%rbp), %eax
	cltd
	idivl	%edi
	shll	$1, %eax
	addl	%eax, %ecx
	movslq	%ecx, %rax
	movl	488(%rsi,%rax,4), %eax
	movl	%eax, -40(%rbp)
	cmpl	$1, -40(%rbp)
	je	.LBB46_108
# %bb.107:                              # %if.then428
                                        #   in Loop: Header=BB46_105 Depth=2
	movq	rdopt, %rax
	movq	3240(%rax), %rax
	movslq	-4(%rbp), %rcx
	movq	(%rax,%rcx,8), %rax
	movslq	-8(%rbp), %rcx
	movq	(%rax,%rcx,8), %rax
	movq	(%rax), %rax
	movq	rdopt, %rcx
	addq	$3264, %rcx             # imm = 0xCC0
	movslq	-8(%rbp), %rdx
	shlq	$3, %rdx
	addq	%rdx, %rcx
	movslq	-4(%rbp), %rdx
	movswq	(%rcx,%rdx,2), %rcx
	movq	(%rax,%rcx,8), %rax
	movslq	-32(%rbp), %rcx
	movq	(%rax,%rcx,8), %rax
	movw	(%rax), %ax
	movq	enc_picture, %rcx
	movq	6504(%rcx), %rcx
	movq	(%rcx), %rcx
	movl	-4(%rbp), %edx
	movq	img, %rsi
	addl	144(%rsi), %edx
	movslq	%edx, %rdx
	movq	(%rcx,%rdx,8), %rcx
	movl	-8(%rbp), %edx
	movq	img, %rsi
	addl	148(%rsi), %edx
	movslq	%edx, %rdx
	movq	(%rcx,%rdx,8), %rcx
	movw	%ax, (%rcx)
	movq	rdopt, %rax
	movq	3240(%rax), %rax
	movslq	-4(%rbp), %rcx
	movq	(%rax,%rcx,8), %rax
	movslq	-8(%rbp), %rcx
	movq	(%rax,%rcx,8), %rax
	movq	(%rax), %rax
	movq	rdopt, %rcx
	addq	$3264, %rcx             # imm = 0xCC0
	movslq	-8(%rbp), %rdx
	shlq	$3, %rdx
	addq	%rdx, %rcx
	movslq	-4(%rbp), %rdx
	movswq	(%rcx,%rdx,2), %rcx
	movq	(%rax,%rcx,8), %rax
	movslq	-32(%rbp), %rcx
	movq	(%rax,%rcx,8), %rax
	movw	2(%rax), %ax
	movq	enc_picture, %rcx
	movq	6504(%rcx), %rcx
	movq	(%rcx), %rcx
	movl	-4(%rbp), %edx
	movq	img, %rsi
	addl	144(%rsi), %edx
	movslq	%edx, %rdx
	movq	(%rcx,%rdx,8), %rcx
	movl	-8(%rbp), %edx
	movq	img, %rsi
	addl	148(%rsi), %edx
	movslq	%edx, %rdx
	movq	(%rcx,%rdx,8), %rcx
	movw	%ax, 2(%rcx)
	jmp	.LBB46_109
.LBB46_108:                             # %if.else483
                                        #   in Loop: Header=BB46_105 Depth=2
	movq	enc_picture, %rax
	movq	6504(%rax), %rax
	movq	(%rax), %rax
	movl	-4(%rbp), %ecx
	movq	img, %rdx
	addl	144(%rdx), %ecx
	movslq	%ecx, %rcx
	movq	(%rax,%rcx,8), %rax
	movl	-8(%rbp), %ecx
	movq	img, %rdx
	addl	148(%rdx), %ecx
	movslq	%ecx, %rcx
	movq	(%rax,%rcx,8), %rax
	movw	$0, (%rax)
	movq	enc_picture, %rax
	movq	6504(%rax), %rax
	movq	(%rax), %rax
	movl	-4(%rbp), %ecx
	movq	img, %rdx
	addl	144(%rdx), %ecx
	movslq	%ecx, %rcx
	movq	(%rax,%rcx,8), %rax
	movl	-8(%rbp), %ecx
	movq	img, %rdx
	addl	148(%rdx), %ecx
	movslq	%ecx, %rcx
	movq	(%rax,%rcx,8), %rax
	movw	$0, 2(%rax)
.LBB46_109:                             # %if.end506
                                        #   in Loop: Header=BB46_105 Depth=2
	cmpl	$0, -36(%rbp)
	je	.LBB46_114
# %bb.110:                              # %if.then508
                                        #   in Loop: Header=BB46_105 Depth=2
	cmpl	$0, -40(%rbp)
	je	.LBB46_112
# %bb.111:                              # %if.then511
                                        #   in Loop: Header=BB46_105 Depth=2
	movq	rdopt, %rax
	movq	3240(%rax), %rax
	movslq	-4(%rbp), %rcx
	movq	(%rax,%rcx,8), %rax
	movslq	-8(%rbp), %rcx
	movq	(%rax,%rcx,8), %rax
	movq	8(%rax), %rax
	movq	rdopt, %rcx
	addq	$3264, %rcx             # imm = 0xCC0
	addq	$32, %rcx
	movslq	-8(%rbp), %rdx
	shlq	$3, %rdx
	addq	%rdx, %rcx
	movslq	-4(%rbp), %rdx
	movswq	(%rcx,%rdx,2), %rcx
	movq	(%rax,%rcx,8), %rax
	movslq	-32(%rbp), %rcx
	movq	(%rax,%rcx,8), %rax
	movw	(%rax), %ax
	movq	enc_picture, %rcx
	movq	6504(%rcx), %rcx
	movq	8(%rcx), %rcx
	movl	-4(%rbp), %edx
	movq	img, %rsi
	addl	144(%rsi), %edx
	movslq	%edx, %rdx
	movq	(%rcx,%rdx,8), %rcx
	movl	-8(%rbp), %edx
	movq	img, %rsi
	addl	148(%rsi), %edx
	movslq	%edx, %rdx
	movq	(%rcx,%rdx,8), %rcx
	movw	%ax, (%rcx)
	movq	rdopt, %rax
	movq	3240(%rax), %rax
	movslq	-4(%rbp), %rcx
	movq	(%rax,%rcx,8), %rax
	movslq	-8(%rbp), %rcx
	movq	(%rax,%rcx,8), %rax
	movq	8(%rax), %rax
	movq	rdopt, %rcx
	addq	$3264, %rcx             # imm = 0xCC0
	addq	$32, %rcx
	movslq	-8(%rbp), %rdx
	shlq	$3, %rdx
	addq	%rdx, %rcx
	movslq	-4(%rbp), %rdx
	movswq	(%rcx,%rdx,2), %rcx
	movq	(%rax,%rcx,8), %rax
	movslq	-32(%rbp), %rcx
	movq	(%rax,%rcx,8), %rax
	movw	2(%rax), %ax
	movq	enc_picture, %rcx
	movq	6504(%rcx), %rcx
	movq	8(%rcx), %rcx
	movl	-4(%rbp), %edx
	movq	img, %rsi
	addl	144(%rsi), %edx
	movslq	%edx, %rdx
	movq	(%rcx,%rdx,8), %rcx
	movl	-8(%rbp), %edx
	movq	img, %rsi
	addl	148(%rsi), %edx
	movslq	%edx, %rdx
	movq	(%rcx,%rdx,8), %rcx
	movw	%ax, 2(%rcx)
	jmp	.LBB46_113
.LBB46_112:                             # %if.else568
                                        #   in Loop: Header=BB46_105 Depth=2
	movq	enc_picture, %rax
	movq	6504(%rax), %rax
	movq	8(%rax), %rax
	movl	-4(%rbp), %ecx
	movq	img, %rdx
	addl	144(%rdx), %ecx
	movslq	%ecx, %rcx
	movq	(%rax,%rcx,8), %rax
	movl	-8(%rbp), %ecx
	movq	img, %rdx
	addl	148(%rdx), %ecx
	movslq	%ecx, %rcx
	movq	(%rax,%rcx,8), %rax
	movw	$0, (%rax)
	movq	enc_picture, %rax
	movq	6504(%rax), %rax
	movq	8(%rax), %rax
	movl	-4(%rbp), %ecx
	movq	img, %rdx
	addl	144(%rdx), %ecx
	movslq	%ecx, %rcx
	movq	(%rax,%rcx,8), %rax
	movl	-8(%rbp), %ecx
	movq	img, %rdx
	addl	148(%rdx), %ecx
	movslq	%ecx, %rcx
	movq	(%rax,%rcx,8), %rax
	movw	$0, 2(%rax)
.LBB46_113:                             # %if.end591
                                        #   in Loop: Header=BB46_105 Depth=2
	jmp	.LBB46_114
.LBB46_114:                             # %if.end592
                                        #   in Loop: Header=BB46_105 Depth=2
	jmp	.LBB46_115
.LBB46_115:                             # %for.inc593
                                        #   in Loop: Header=BB46_105 Depth=2
	movl	-4(%rbp), %eax
	addl	$1, %eax
	movl	%eax, -4(%rbp)
	jmp	.LBB46_105
.LBB46_116:                             # %for.end595
                                        #   in Loop: Header=BB46_103 Depth=1
	jmp	.LBB46_117
.LBB46_117:                             # %for.inc596
                                        #   in Loop: Header=BB46_103 Depth=1
	movl	-8(%rbp), %eax
	addl	$1, %eax
	movl	%eax, -8(%rbp)
	jmp	.LBB46_103
.LBB46_118:                             # %for.end598
	jmp	.LBB46_130
.LBB46_119:                             # %if.else599
	movl	$0, -8(%rbp)
.LBB46_120:                             # %for.cond600
                                        # =>This Loop Header: Depth=1
                                        #     Child Loop BB46_122 Depth 2
	cmpl	$4, -8(%rbp)
	jge	.LBB46_129
# %bb.121:                              # %for.body603
                                        #   in Loop: Header=BB46_120 Depth=1
	movl	$0, -4(%rbp)
.LBB46_122:                             # %for.cond604
                                        #   Parent Loop BB46_120 Depth=1
                                        # =>  This Inner Loop Header: Depth=2
	cmpl	$4, -4(%rbp)
	jge	.LBB46_127
# %bb.123:                              # %for.body607
                                        #   in Loop: Header=BB46_122 Depth=2
	movq	enc_picture, %rax
	movq	6504(%rax), %rax
	movq	(%rax), %rax
	movl	-4(%rbp), %ecx
	movq	img, %rdx
	addl	144(%rdx), %ecx
	movslq	%ecx, %rcx
	movq	(%rax,%rcx,8), %rax
	movl	-8(%rbp), %ecx
	movq	img, %rdx
	addl	148(%rdx), %ecx
	movslq	%ecx, %rcx
	movq	(%rax,%rcx,8), %rax
	movw	$0, (%rax)
	movq	enc_picture, %rax
	movq	6504(%rax), %rax
	movq	(%rax), %rax
	movl	-4(%rbp), %ecx
	movq	img, %rdx
	addl	144(%rdx), %ecx
	movslq	%ecx, %rcx
	movq	(%rax,%rcx,8), %rax
	movl	-8(%rbp), %ecx
	movq	img, %rdx
	addl	148(%rdx), %ecx
	movslq	%ecx, %rcx
	movq	(%rax,%rcx,8), %rax
	movw	$0, 2(%rax)
	cmpl	$0, -36(%rbp)
	je	.LBB46_125
# %bb.124:                              # %if.then631
                                        #   in Loop: Header=BB46_122 Depth=2
	movq	enc_picture, %rax
	movq	6504(%rax), %rax
	movq	8(%rax), %rax
	movl	-4(%rbp), %ecx
	movq	img, %rdx
	addl	144(%rdx), %ecx
	movslq	%ecx, %rcx
	movq	(%rax,%rcx,8), %rax
	movl	-8(%rbp), %ecx
	movq	img, %rdx
	addl	148(%rdx), %ecx
	movslq	%ecx, %rcx
	movq	(%rax,%rcx,8), %rax
	movw	$0, (%rax)
	movq	enc_picture, %rax
	movq	6504(%rax), %rax
	movq	8(%rax), %rax
	movl	-4(%rbp), %ecx
	movq	img, %rdx
	addl	144(%rdx), %ecx
	movslq	%ecx, %rcx
	movq	(%rax,%rcx,8), %rax
	movl	-8(%rbp), %ecx
	movq	img, %rdx
	addl	148(%rdx), %ecx
	movslq	%ecx, %rcx
	movq	(%rax,%rcx,8), %rax
	movw	$0, 2(%rax)
.LBB46_125:                             # %if.end654
                                        #   in Loop: Header=BB46_122 Depth=2
	jmp	.LBB46_126
.LBB46_126:                             # %for.inc655
                                        #   in Loop: Header=BB46_122 Depth=2
	movl	-4(%rbp), %eax
	addl	$1, %eax
	movl	%eax, -4(%rbp)
	jmp	.LBB46_122
.LBB46_127:                             # %for.end657
                                        #   in Loop: Header=BB46_120 Depth=1
	jmp	.LBB46_128
.LBB46_128:                             # %for.inc658
                                        #   in Loop: Header=BB46_120 Depth=1
	movl	-8(%rbp), %eax
	addl	$1, %eax
	movl	%eax, -8(%rbp)
	jmp	.LBB46_120
.LBB46_129:                             # %for.end660
	jmp	.LBB46_130
.LBB46_130:                             # %if.end661
	jmp	.LBB46_131
.LBB46_131:                             # %if.end662
	cmpl	$964195475, -52(%rbp)   # imm = 0x39787493
	jne	.LBB46_133
.LBB46_132:
	addq	$64, %rsp
	popq	%rbp
	.cfi_def_cfa %rsp, 8
	retq
.LBB46_133:                             # %func_exit
	.cfi_def_cfa %rbp, 16
	callq	detect_breach
	jmp	.LBB46_132
.Lfunc_end46:
	.size	copy_rdopt_data.10, .Lfunc_end46-copy_rdopt_data.10
	.cfi_endproc
                                        # -- End function
	.p2align	4, 0x90         # -- Begin function GenerateFullPelRepresentation.11
	.type	GenerateFullPelRepresentation.11,@function
GenerateFullPelRepresentation.11:       # @GenerateFullPelRepresentation.11
	.cfi_startproc
# %bb.0:                                # %entry
	pushq	%rbp
	.cfi_def_cfa_offset 16
	.cfi_offset %rbp, -16
	movq	%rsp, %rbp
	.cfi_def_cfa_register %rbp
	pushq	%r15
	pushq	%r14
	pushq	%rbx
	subq	$40, %rsp
	.cfi_offset %rbx, -40
	.cfi_offset %r14, -32
	.cfi_offset %r15, -24
	movl	$1425863144, -44(%rbp)  # imm = 0x54FCF1E8
	movq	%rdi, -64(%rbp)
	movq	%rsi, -56(%rbp)
	movl	%edx, -36(%rbp)
	movl	%ecx, -40(%rbp)
	movl	$0, -28(%rbp)
.LBB47_1:                               # %for.cond
                                        # =>This Loop Header: Depth=1
                                        #     Child Loop BB47_3 Depth 2
	movl	-28(%rbp), %eax
	cmpl	-40(%rbp), %eax
	jge	.LBB47_8
# %bb.2:                                # %for.body
                                        #   in Loop: Header=BB47_1 Depth=1
	movl	$0, -32(%rbp)
.LBB47_3:                               # %for.cond1
                                        #   Parent Loop BB47_1 Depth=1
                                        # =>  This Inner Loop Header: Depth=2
	movl	-32(%rbp), %eax
	cmpl	-36(%rbp), %eax
	jge	.LBB47_6
# %bb.4:                                # %for.body3
                                        #   in Loop: Header=BB47_3 Depth=2
	movq	-56(%rbp), %rbx
	movl	-28(%rbp), %r14d
	movl	-32(%rbp), %r15d
	movq	-64(%rbp), %rdi
	movl	-28(%rbp), %esi
	shll	$2, %esi
	movl	-32(%rbp), %edx
	shll	$2, %edx
	movl	-40(%rbp), %ecx
	movl	-36(%rbp), %r8d
	callq	FastPelY_14
	movl	-36(%rbp), %r8d
	movq	%rbx, %rdi
	movl	%r14d, %esi
	movl	%r15d, %edx
	movzwl	%ax, %ecx
	callq	PutPel_11
# %bb.5:                                # %for.inc
                                        #   in Loop: Header=BB47_3 Depth=2
	movl	-32(%rbp), %eax
	addl	$1, %eax
	movl	%eax, -32(%rbp)
	jmp	.LBB47_3
.LBB47_6:                               # %for.end
                                        #   in Loop: Header=BB47_1 Depth=1
	jmp	.LBB47_7
.LBB47_7:                               # %for.inc5
                                        #   in Loop: Header=BB47_1 Depth=1
	movl	-28(%rbp), %eax
	addl	$1, %eax
	movl	%eax, -28(%rbp)
	jmp	.LBB47_1
.LBB47_8:                               # %for.end7
	cmpl	$1425863144, -44(%rbp)  # imm = 0x54FCF1E8
	jne	.LBB47_10
.LBB47_9:
	addq	$40, %rsp
	popq	%rbx
	popq	%r14
	popq	%r15
	popq	%rbp
	.cfi_def_cfa %rsp, 8
	retq
.LBB47_10:                              # %func_exit
	.cfi_def_cfa %rbp, 16
	callq	detect_breach
	jmp	.LBB47_9
.Lfunc_end47:
	.size	GenerateFullPelRepresentation.11, .Lfunc_end47-GenerateFullPelRepresentation.11
	.cfi_endproc
                                        # -- End function
	.p2align	4, 0x90         # -- Begin function copy_motion_vectors_MB.12
	.type	copy_motion_vectors_MB.12,@function
copy_motion_vectors_MB.12:              # @copy_motion_vectors_MB.12
	.cfi_startproc
# %bb.0:                                # %entry
	pushq	%rbp
	.cfi_def_cfa_offset 16
	.cfi_offset %rbp, -16
	movq	%rsp, %rbp
	.cfi_def_cfa_register %rbp
	subq	$32, %rsp
	movl	$1952525856, -20(%rbp)  # imm = 0x74612E20
	movl	$0, -16(%rbp)
.LBB48_1:                               # %for.cond
                                        # =>This Loop Header: Depth=1
                                        #     Child Loop BB48_3 Depth 2
                                        #       Child Loop BB48_5 Depth 3
                                        #         Child Loop BB48_7 Depth 4
	cmpl	$4, -16(%rbp)
	jge	.LBB48_20
# %bb.2:                                # %for.body
                                        #   in Loop: Header=BB48_1 Depth=1
	movl	$0, -12(%rbp)
.LBB48_3:                               # %for.cond1
                                        #   Parent Loop BB48_1 Depth=1
                                        # =>  This Loop Header: Depth=2
                                        #       Child Loop BB48_5 Depth 3
                                        #         Child Loop BB48_7 Depth 4
	cmpl	$4, -12(%rbp)
	jge	.LBB48_18
# %bb.4:                                # %for.body3
                                        #   in Loop: Header=BB48_3 Depth=2
	movl	$0, -4(%rbp)
.LBB48_5:                               # %for.cond4
                                        #   Parent Loop BB48_1 Depth=1
                                        #     Parent Loop BB48_3 Depth=2
                                        # =>    This Loop Header: Depth=3
                                        #         Child Loop BB48_7 Depth 4
	movl	-4(%rbp), %eax
	movq	img, %rcx
	cmpl	36(%rcx), %eax
	jge	.LBB48_16
# %bb.6:                                # %for.body6
                                        #   in Loop: Header=BB48_5 Depth=3
	movl	$0, -8(%rbp)
.LBB48_7:                               # %for.cond7
                                        #   Parent Loop BB48_1 Depth=1
                                        #     Parent Loop BB48_3 Depth=2
                                        #       Parent Loop BB48_5 Depth=3
                                        # =>      This Inner Loop Header: Depth=4
	cmpl	$9, -8(%rbp)
	jge	.LBB48_14
# %bb.8:                                # %for.body9
                                        #   in Loop: Header=BB48_7 Depth=4
	movq	rdopt, %rax
	movq	3240(%rax), %rax
	movslq	-16(%rbp), %rcx
	movq	(%rax,%rcx,8), %rax
	movslq	-12(%rbp), %rcx
	movq	(%rax,%rcx,8), %rax
	movq	(%rax), %rax
	movslq	-4(%rbp), %rcx
	movq	(%rax,%rcx,8), %rax
	movslq	-8(%rbp), %rcx
	movq	(%rax,%rcx,8), %rax
	movw	(%rax), %ax
	movq	img, %rcx
	movq	71928(%rcx), %rcx
	movslq	-16(%rbp), %rdx
	movq	(%rcx,%rdx,8), %rcx
	movslq	-12(%rbp), %rdx
	movq	(%rcx,%rdx,8), %rcx
	movq	(%rcx), %rcx
	movslq	-4(%rbp), %rdx
	movq	(%rcx,%rdx,8), %rcx
	movslq	-8(%rbp), %rdx
	movq	(%rcx,%rdx,8), %rcx
	movw	%ax, (%rcx)
	movq	rdopt, %rax
	movq	3240(%rax), %rax
	movslq	-16(%rbp), %rcx
	movq	(%rax,%rcx,8), %rax
	movslq	-12(%rbp), %rcx
	movq	(%rax,%rcx,8), %rax
	movq	(%rax), %rax
	movslq	-4(%rbp), %rcx
	movq	(%rax,%rcx,8), %rax
	movslq	-8(%rbp), %rcx
	movq	(%rax,%rcx,8), %rax
	movw	2(%rax), %ax
	movq	img, %rcx
	movq	71928(%rcx), %rcx
	movslq	-16(%rbp), %rdx
	movq	(%rcx,%rdx,8), %rcx
	movslq	-12(%rbp), %rdx
	movq	(%rcx,%rdx,8), %rcx
	movq	(%rcx), %rcx
	movslq	-4(%rbp), %rdx
	movq	(%rcx,%rdx,8), %rcx
	movslq	-8(%rbp), %rdx
	movq	(%rcx,%rdx,8), %rcx
	movw	%ax, 2(%rcx)
	movq	rdopt, %rax
	movq	3240(%rax), %rax
	movslq	-16(%rbp), %rcx
	movq	(%rax,%rcx,8), %rax
	movslq	-12(%rbp), %rcx
	movq	(%rax,%rcx,8), %rax
	movq	8(%rax), %rax
	movslq	-4(%rbp), %rcx
	movq	(%rax,%rcx,8), %rax
	movslq	-8(%rbp), %rcx
	movq	(%rax,%rcx,8), %rax
	movw	(%rax), %ax
	movq	img, %rcx
	movq	71928(%rcx), %rcx
	movslq	-16(%rbp), %rdx
	movq	(%rcx,%rdx,8), %rcx
	movslq	-12(%rbp), %rdx
	movq	(%rcx,%rdx,8), %rcx
	movq	8(%rcx), %rcx
	movslq	-4(%rbp), %rdx
	movq	(%rcx,%rdx,8), %rcx
	movslq	-8(%rbp), %rdx
	movq	(%rcx,%rdx,8), %rcx
	movw	%ax, (%rcx)
	movq	rdopt, %rax
	movq	3240(%rax), %rax
	movslq	-16(%rbp), %rcx
	movq	(%rax,%rcx,8), %rax
	movslq	-12(%rbp), %rcx
	movq	(%rax,%rcx,8), %rax
	movq	8(%rax), %rax
	movslq	-4(%rbp), %rcx
	movq	(%rax,%rcx,8), %rax
	movslq	-8(%rbp), %rcx
	movq	(%rax,%rcx,8), %rax
	movw	2(%rax), %ax
	movq	img, %rcx
	movq	71928(%rcx), %rcx
	movslq	-16(%rbp), %rdx
	movq	(%rcx,%rdx,8), %rcx
	movslq	-12(%rbp), %rdx
	movq	(%rcx,%rdx,8), %rcx
	movq	8(%rcx), %rcx
	movslq	-4(%rbp), %rdx
	movq	(%rcx,%rdx,8), %rcx
	movslq	-8(%rbp), %rdx
	movq	(%rcx,%rdx,8), %rcx
	movw	%ax, 2(%rcx)
	movq	input, %rax
	cmpl	$0, 1256(%rax)
	je	.LBB48_12
# %bb.9:                                # %land.lhs.true
                                        #   in Loop: Header=BB48_7 Depth=4
	cmpl	$1, -4(%rbp)
	jne	.LBB48_12
# %bb.10:                               # %land.lhs.true96
                                        #   in Loop: Header=BB48_7 Depth=4
	movq	img, %rax
	cmpl	$1, 24(%rax)
	jne	.LBB48_12
# %bb.11:                               # %if.then
                                        #   in Loop: Header=BB48_7 Depth=4
	movq	rdopt, %rax
	movq	3248(%rax), %rax
	movslq	-16(%rbp), %rcx
	movq	(%rax,%rcx,8), %rax
	movslq	-12(%rbp), %rcx
	movq	(%rax,%rcx,8), %rax
	movq	(%rax), %rax
	movslq	-4(%rbp), %rcx
	movq	(%rax,%rcx,8), %rax
	movslq	-8(%rbp), %rcx
	movq	(%rax,%rcx,8), %rax
	movw	(%rax), %ax
	movq	img, %rcx
	movq	71936(%rcx), %rcx
	movslq	-16(%rbp), %rdx
	movq	(%rcx,%rdx,8), %rcx
	movslq	-12(%rbp), %rdx
	movq	(%rcx,%rdx,8), %rcx
	movq	(%rcx), %rcx
	movslq	-4(%rbp), %rdx
	movq	(%rcx,%rdx,8), %rcx
	movslq	-8(%rbp), %rdx
	movq	(%rcx,%rdx,8), %rcx
	movw	%ax, (%rcx)
	movq	rdopt, %rax
	movq	3248(%rax), %rax
	movslq	-16(%rbp), %rcx
	movq	(%rax,%rcx,8), %rax
	movslq	-12(%rbp), %rcx
	movq	(%rax,%rcx,8), %rax
	movq	(%rax), %rax
	movslq	-4(%rbp), %rcx
	movq	(%rax,%rcx,8), %rax
	movslq	-8(%rbp), %rcx
	movq	(%rax,%rcx,8), %rax
	movw	2(%rax), %ax
	movq	img, %rcx
	movq	71936(%rcx), %rcx
	movslq	-16(%rbp), %rdx
	movq	(%rcx,%rdx,8), %rcx
	movslq	-12(%rbp), %rdx
	movq	(%rcx,%rdx,8), %rcx
	movq	(%rcx), %rcx
	movslq	-4(%rbp), %rdx
	movq	(%rcx,%rdx,8), %rcx
	movslq	-8(%rbp), %rdx
	movq	(%rcx,%rdx,8), %rcx
	movw	%ax, 2(%rcx)
	movq	rdopt, %rax
	movq	3248(%rax), %rax
	movslq	-16(%rbp), %rcx
	movq	(%rax,%rcx,8), %rax
	movslq	-12(%rbp), %rcx
	movq	(%rax,%rcx,8), %rax
	movq	8(%rax), %rax
	movslq	-4(%rbp), %rcx
	movq	(%rax,%rcx,8), %rax
	movslq	-8(%rbp), %rcx
	movq	(%rax,%rcx,8), %rax
	movw	(%rax), %ax
	movq	img, %rcx
	movq	71936(%rcx), %rcx
	movslq	-16(%rbp), %rdx
	movq	(%rcx,%rdx,8), %rcx
	movslq	-12(%rbp), %rdx
	movq	(%rcx,%rdx,8), %rcx
	movq	8(%rcx), %rcx
	movslq	-4(%rbp), %rdx
	movq	(%rcx,%rdx,8), %rcx
	movslq	-8(%rbp), %rdx
	movq	(%rcx,%rdx,8), %rcx
	movw	%ax, (%rcx)
	movq	rdopt, %rax
	movq	3248(%rax), %rax
	movslq	-16(%rbp), %rcx
	movq	(%rax,%rcx,8), %rax
	movslq	-12(%rbp), %rcx
	movq	(%rax,%rcx,8), %rax
	movq	8(%rax), %rax
	movslq	-4(%rbp), %rcx
	movq	(%rax,%rcx,8), %rax
	movslq	-8(%rbp), %rcx
	movq	(%rax,%rcx,8), %rax
	movw	2(%rax), %ax
	movq	img, %rcx
	movq	71936(%rcx), %rcx
	movslq	-16(%rbp), %rdx
	movq	(%rcx,%rdx,8), %rcx
	movslq	-12(%rbp), %rdx
	movq	(%rcx,%rdx,8), %rcx
	movq	8(%rcx), %rcx
	movslq	-4(%rbp), %rdx
	movq	(%rcx,%rdx,8), %rcx
	movslq	-8(%rbp), %rdx
	movq	(%rcx,%rdx,8), %rcx
	movw	%ax, 2(%rcx)
	movq	rdopt, %rax
	movq	3256(%rax), %rax
	movslq	-16(%rbp), %rcx
	movq	(%rax,%rcx,8), %rax
	movslq	-12(%rbp), %rcx
	movq	(%rax,%rcx,8), %rax
	movq	(%rax), %rax
	movslq	-4(%rbp), %rcx
	movq	(%rax,%rcx,8), %rax
	movslq	-8(%rbp), %rcx
	movq	(%rax,%rcx,8), %rax
	movw	(%rax), %ax
	movq	img, %rcx
	movq	71944(%rcx), %rcx
	movslq	-16(%rbp), %rdx
	movq	(%rcx,%rdx,8), %rcx
	movslq	-12(%rbp), %rdx
	movq	(%rcx,%rdx,8), %rcx
	movq	(%rcx), %rcx
	movslq	-4(%rbp), %rdx
	movq	(%rcx,%rdx,8), %rcx
	movslq	-8(%rbp), %rdx
	movq	(%rcx,%rdx,8), %rcx
	movw	%ax, (%rcx)
	movq	rdopt, %rax
	movq	3256(%rax), %rax
	movslq	-16(%rbp), %rcx
	movq	(%rax,%rcx,8), %rax
	movslq	-12(%rbp), %rcx
	movq	(%rax,%rcx,8), %rax
	movq	(%rax), %rax
	movslq	-4(%rbp), %rcx
	movq	(%rax,%rcx,8), %rax
	movslq	-8(%rbp), %rcx
	movq	(%rax,%rcx,8), %rax
	movw	2(%rax), %ax
	movq	img, %rcx
	movq	71944(%rcx), %rcx
	movslq	-16(%rbp), %rdx
	movq	(%rcx,%rdx,8), %rcx
	movslq	-12(%rbp), %rdx
	movq	(%rcx,%rdx,8), %rcx
	movq	(%rcx), %rcx
	movslq	-4(%rbp), %rdx
	movq	(%rcx,%rdx,8), %rcx
	movslq	-8(%rbp), %rdx
	movq	(%rcx,%rdx,8), %rcx
	movw	%ax, 2(%rcx)
	movq	rdopt, %rax
	movq	3256(%rax), %rax
	movslq	-16(%rbp), %rcx
	movq	(%rax,%rcx,8), %rax
	movslq	-12(%rbp), %rcx
	movq	(%rax,%rcx,8), %rax
	movq	8(%rax), %rax
	movslq	-4(%rbp), %rcx
	movq	(%rax,%rcx,8), %rax
	movslq	-8(%rbp), %rcx
	movq	(%rax,%rcx,8), %rax
	movw	(%rax), %ax
	movq	img, %rcx
	movq	71944(%rcx), %rcx
	movslq	-16(%rbp), %rdx
	movq	(%rcx,%rdx,8), %rcx
	movslq	-12(%rbp), %rdx
	movq	(%rcx,%rdx,8), %rcx
	movq	8(%rcx), %rcx
	movslq	-4(%rbp), %rdx
	movq	(%rcx,%rdx,8), %rcx
	movslq	-8(%rbp), %rdx
	movq	(%rcx,%rdx,8), %rcx
	movw	%ax, (%rcx)
	movq	rdopt, %rax
	movq	3256(%rax), %rax
	movslq	-16(%rbp), %rcx
	movq	(%rax,%rcx,8), %rax
	movslq	-12(%rbp), %rcx
	movq	(%rax,%rcx,8), %rax
	movq	8(%rax), %rax
	movslq	-4(%rbp), %rcx
	movq	(%rax,%rcx,8), %rax
	movslq	-8(%rbp), %rcx
	movq	(%rax,%rcx,8), %rax
	movw	2(%rax), %ax
	movq	img, %rcx
	movq	71944(%rcx), %rcx
	movslq	-16(%rbp), %rdx
	movq	(%rcx,%rdx,8), %rcx
	movslq	-12(%rbp), %rdx
	movq	(%rcx,%rdx,8), %rcx
	movq	8(%rcx), %rcx
	movslq	-4(%rbp), %rdx
	movq	(%rcx,%rdx,8), %rcx
	movslq	-8(%rbp), %rdx
	movq	(%rcx,%rdx,8), %rcx
	movw	%ax, 2(%rcx)
.LBB48_12:                              # %if.end
                                        #   in Loop: Header=BB48_7 Depth=4
	movq	rdopt, %rax
	movq	3232(%rax), %rax
	movslq	-16(%rbp), %rcx
	movq	(%rax,%rcx,8), %rax
	movslq	-12(%rbp), %rcx
	movq	(%rax,%rcx,8), %rax
	movq	(%rax), %rax
	movslq	-4(%rbp), %rcx
	movq	(%rax,%rcx,8), %rax
	movslq	-8(%rbp), %rcx
	movq	(%rax,%rcx,8), %rax
	movw	(%rax), %ax
	movq	img, %rcx
	movq	71920(%rcx), %rcx
	movslq	-16(%rbp), %rdx
	movq	(%rcx,%rdx,8), %rcx
	movslq	-12(%rbp), %rdx
	movq	(%rcx,%rdx,8), %rcx
	movq	(%rcx), %rcx
	movslq	-4(%rbp), %rdx
	movq	(%rcx,%rdx,8), %rcx
	movslq	-8(%rbp), %rdx
	movq	(%rcx,%rdx,8), %rcx
	movw	%ax, (%rcx)
	movq	rdopt, %rax
	movq	3232(%rax), %rax
	movslq	-16(%rbp), %rcx
	movq	(%rax,%rcx,8), %rax
	movslq	-12(%rbp), %rcx
	movq	(%rax,%rcx,8), %rax
	movq	(%rax), %rax
	movslq	-4(%rbp), %rcx
	movq	(%rax,%rcx,8), %rax
	movslq	-8(%rbp), %rcx
	movq	(%rax,%rcx,8), %rax
	movw	2(%rax), %ax
	movq	img, %rcx
	movq	71920(%rcx), %rcx
	movslq	-16(%rbp), %rdx
	movq	(%rcx,%rdx,8), %rcx
	movslq	-12(%rbp), %rdx
	movq	(%rcx,%rdx,8), %rcx
	movq	(%rcx), %rcx
	movslq	-4(%rbp), %rdx
	movq	(%rcx,%rdx,8), %rcx
	movslq	-8(%rbp), %rdx
	movq	(%rcx,%rdx,8), %rcx
	movw	%ax, 2(%rcx)
	movq	rdopt, %rax
	movq	3232(%rax), %rax
	movslq	-16(%rbp), %rcx
	movq	(%rax,%rcx,8), %rax
	movslq	-12(%rbp), %rcx
	movq	(%rax,%rcx,8), %rax
	movq	8(%rax), %rax
	movslq	-4(%rbp), %rcx
	movq	(%rax,%rcx,8), %rax
	movslq	-8(%rbp), %rcx
	movq	(%rax,%rcx,8), %rax
	movw	(%rax), %ax
	movq	img, %rcx
	movq	71920(%rcx), %rcx
	movslq	-16(%rbp), %rdx
	movq	(%rcx,%rdx,8), %rcx
	movslq	-12(%rbp), %rdx
	movq	(%rcx,%rdx,8), %rcx
	movq	8(%rcx), %rcx
	movslq	-4(%rbp), %rdx
	movq	(%rcx,%rdx,8), %rcx
	movslq	-8(%rbp), %rdx
	movq	(%rcx,%rdx,8), %rcx
	movw	%ax, (%rcx)
	movq	rdopt, %rax
	movq	3232(%rax), %rax
	movslq	-16(%rbp), %rcx
	movq	(%rax,%rcx,8), %rax
	movslq	-12(%rbp), %rcx
	movq	(%rax,%rcx,8), %rax
	movq	8(%rax), %rax
	movslq	-4(%rbp), %rcx
	movq	(%rax,%rcx,8), %rax
	movslq	-8(%rbp), %rcx
	movq	(%rax,%rcx,8), %rax
	movw	2(%rax), %ax
	movq	img, %rcx
	movq	71920(%rcx), %rcx
	movslq	-16(%rbp), %rdx
	movq	(%rcx,%rdx,8), %rcx
	movslq	-12(%rbp), %rdx
	movq	(%rcx,%rdx,8), %rcx
	movq	8(%rcx), %rcx
	movslq	-4(%rbp), %rdx
	movq	(%rcx,%rdx,8), %rcx
	movslq	-8(%rbp), %rdx
	movq	(%rcx,%rdx,8), %rcx
	movw	%ax, 2(%rcx)
# %bb.13:                               # %for.inc
                                        #   in Loop: Header=BB48_7 Depth=4
	movl	-8(%rbp), %eax
	addl	$1, %eax
	movl	%eax, -8(%rbp)
	jmp	.LBB48_7
.LBB48_14:                              # %for.end
                                        #   in Loop: Header=BB48_5 Depth=3
	jmp	.LBB48_15
.LBB48_15:                              # %for.inc359
                                        #   in Loop: Header=BB48_5 Depth=3
	movl	-4(%rbp), %eax
	addl	$1, %eax
	movl	%eax, -4(%rbp)
	jmp	.LBB48_5
.LBB48_16:                              # %for.end361
                                        #   in Loop: Header=BB48_3 Depth=2
	jmp	.LBB48_17
.LBB48_17:                              # %for.inc362
                                        #   in Loop: Header=BB48_3 Depth=2
	movl	-12(%rbp), %eax
	addl	$1, %eax
	movl	%eax, -12(%rbp)
	jmp	.LBB48_3
.LBB48_18:                              # %for.end364
                                        #   in Loop: Header=BB48_1 Depth=1
	jmp	.LBB48_19
.LBB48_19:                              # %for.inc365
                                        #   in Loop: Header=BB48_1 Depth=1
	movl	-16(%rbp), %eax
	addl	$1, %eax
	movl	%eax, -16(%rbp)
	jmp	.LBB48_1
.LBB48_20:                              # %for.end367
	cmpl	$1952525856, -20(%rbp)  # imm = 0x74612E20
	jne	.LBB48_22
.LBB48_21:
	addq	$32, %rsp
	popq	%rbp
	.cfi_def_cfa %rsp, 8
	retq
.LBB48_22:                              # %func_exit
	.cfi_def_cfa %rbp, 16
	callq	detect_breach
	jmp	.LBB48_21
.Lfunc_end48:
	.size	copy_motion_vectors_MB.12, .Lfunc_end48-copy_motion_vectors_MB.12
	.cfi_endproc
                                        # -- End function
	.p2align	4, 0x90         # -- Begin function ReportRB.13
	.type	ReportRB.13,@function
ReportRB.13:                            # @ReportRB.13
	.cfi_startproc
# %bb.0:                                # %entry
	pushq	%rbp
	.cfi_def_cfa_offset 16
	.cfi_offset %rbp, -16
	movq	%rsp, %rbp
	.cfi_def_cfa_register %rbp
	pushq	%rbx
	subq	$56, %rsp
	.cfi_offset %rbx, -24
	movl	$2020522401, -20(%rbp)  # imm = 0x786EB9A1
	movl	%edi, -12(%rbp)
	movl	%esi, -16(%rbp)
	movl	frame_no, %esi
	movq	stats, %rax
	movl	16(%rax), %edx
	movq	stats, %rax
	subl	20(%rax), %edx
	movq	active_pps, %rax
	movl	196(%rax), %ecx
	movq	img, %rax
	movl	40(%rax), %r8d
	movq	snr, %rax
	vmovss	(%rax), %xmm0           # xmm0 = mem[0],zero,zero,zero
	vcvtss2sd	%xmm0, %xmm0, %xmm0
	movq	snr, %rax
	vmovss	4(%rax), %xmm1          # xmm1 = mem[0],zero,zero,zero
	vcvtss2sd	%xmm1, %xmm0, %xmm1
	movq	snr, %rax
	vmovss	8(%rax), %xmm2          # xmm2 = mem[0],zero,zero,zero
	vcvtss2sd	%xmm2, %xmm0, %xmm2
	movl	-12(%rbp), %r9d
	movl	-16(%rbp), %r10d
	movq	img, %rdi
	movl	71800(%rdi), %edi
	cmpl	$0, %edi
	movabsq	$.L.str.7, %rdi
	movabsq	$.L.str.8, %rax
	cmovneq	%rdi, %rax
	movl	intras, %r11d
	movq	img, %rdi
	movl	71996(%rdi), %ebx
	movabsq	$.L.str.11, %rdi
	movl	%r10d, (%rsp)
	movq	%rax, 8(%rsp)
	movl	%r11d, 16(%rsp)
	movl	%ebx, 24(%rsp)
	movb	$3, %al
	callq	printf
	cmpl	$2020522401, -20(%rbp)  # imm = 0x786EB9A1
	jne	.LBB49_2
.LBB49_1:
	addq	$56, %rsp
	popq	%rbx
	popq	%rbp
	.cfi_def_cfa %rsp, 8
	retq
.LBB49_2:                               # %func_exit
	.cfi_def_cfa %rbp, 16
	callq	detect_breach
	jmp	.LBB49_1
.Lfunc_end49:
	.size	ReportRB.13, .Lfunc_end49-ReportRB.13
	.cfi_endproc
                                        # -- End function
	.p2align	4, 0x90         # -- Begin function find_distortion.14
	.type	find_distortion.14,@function
find_distortion.14:                     # @find_distortion.14
	.cfi_startproc
# %bb.0:                                # %entry
	pushq	%rbp
	.cfi_def_cfa_offset 16
	.cfi_offset %rbp, -16
	movq	%rsp, %rbp
	.cfi_def_cfa_register %rbp
	pushq	%rbx
	subq	$40, %rsp
	.cfi_offset %rbx, -24
	movl	$814934539, -44(%rbp)   # imm = 0x3092EA0B
	movq	input, %rax
	movl	68(%rax), %eax
	movq	input, %rcx
	imull	64(%rcx), %eax
	movl	%eax, -48(%rbp)
	movq	img, %rax
	cmpl	$0, 28(%rax)
	je	.LBB50_20
# %bb.1:                                # %if.then
	movq	$0, -40(%rbp)
	movl	$0, -12(%rbp)
.LBB50_2:                               # %for.cond
                                        # =>This Loop Header: Depth=1
                                        #     Child Loop BB50_4 Depth 2
	movl	-12(%rbp), %eax
	movq	input, %rcx
	cmpl	64(%rcx), %eax
	jge	.LBB50_9
# %bb.3:                                # %for.body
                                        #   in Loop: Header=BB50_2 Depth=1
	movl	$0, -16(%rbp)
.LBB50_4:                               # %for.cond3
                                        #   Parent Loop BB50_2 Depth=1
                                        # =>  This Inner Loop Header: Depth=2
	movl	-16(%rbp), %eax
	movq	input, %rcx
	cmpl	68(%rcx), %eax
	jge	.LBB50_7
# %bb.5:                                # %for.body6
                                        #   in Loop: Header=BB50_4 Depth=2
	movq	img, %rax
	movq	71776(%rax), %rbx
	movq	imgY_org, %rax
	movslq	-16(%rbp), %rcx
	movq	(%rax,%rcx,8), %rax
	movslq	-12(%rbp), %rcx
	movzwl	(%rax,%rcx,2), %edi
	movq	imgY_com, %rax
	movslq	-16(%rbp), %rcx
	movq	(%rax,%rcx,8), %rax
	movslq	-12(%rbp), %rcx
	movzwl	(%rax,%rcx,2), %eax
	subl	%eax, %edi
	callq	abs
	cltq
	movslq	(%rbx,%rax,4), %rax
	addq	-40(%rbp), %rax
	movq	%rax, -40(%rbp)
# %bb.6:                                # %for.inc
                                        #   in Loop: Header=BB50_4 Depth=2
	movl	-16(%rbp), %eax
	addl	$1, %eax
	movl	%eax, -16(%rbp)
	jmp	.LBB50_4
.LBB50_7:                               # %for.end
                                        #   in Loop: Header=BB50_2 Depth=1
	jmp	.LBB50_8
.LBB50_8:                               # %for.inc17
                                        #   in Loop: Header=BB50_2 Depth=1
	movl	-12(%rbp), %eax
	addl	$1, %eax
	movl	%eax, -12(%rbp)
	jmp	.LBB50_2
.LBB50_9:                               # %for.end19
	movq	$0, -24(%rbp)
	movq	$0, -32(%rbp)
	movq	img, %rax
	cmpl	$0, 72700(%rax)
	je	.LBB50_19
# %bb.10:                               # %if.then22
	movl	$0, -12(%rbp)
.LBB50_11:                              # %for.cond23
                                        # =>This Loop Header: Depth=1
                                        #     Child Loop BB50_13 Depth 2
	movl	-12(%rbp), %eax
	movq	input, %rcx
	cmpl	3308(%rcx), %eax
	jge	.LBB50_18
# %bb.12:                               # %for.body26
                                        #   in Loop: Header=BB50_11 Depth=1
	movl	$0, -16(%rbp)
.LBB50_13:                              # %for.cond27
                                        #   Parent Loop BB50_11 Depth=1
                                        # =>  This Inner Loop Header: Depth=2
	movl	-16(%rbp), %eax
	movq	input, %rcx
	cmpl	3304(%rcx), %eax
	jge	.LBB50_16
# %bb.14:                               # %for.body30
                                        #   in Loop: Header=BB50_13 Depth=2
	movq	img, %rax
	movq	71776(%rax), %rbx
	movq	imgUV_org, %rax
	movq	(%rax), %rax
	movslq	-16(%rbp), %rcx
	movq	(%rax,%rcx,8), %rax
	movslq	-12(%rbp), %rcx
	movzwl	(%rax,%rcx,2), %edi
	movq	imgUV_com, %rax
	movq	(%rax), %rax
	movslq	-16(%rbp), %rcx
	movq	(%rax,%rcx,8), %rax
	movslq	-12(%rbp), %rcx
	movzwl	(%rax,%rcx,2), %eax
	subl	%eax, %edi
	callq	abs
	cltq
	movslq	(%rbx,%rax,4), %rax
	addq	-24(%rbp), %rax
	movq	%rax, -24(%rbp)
	movq	img, %rax
	movq	71776(%rax), %rbx
	movq	imgUV_org, %rax
	movq	8(%rax), %rax
	movslq	-16(%rbp), %rcx
	movq	(%rax,%rcx,8), %rax
	movslq	-12(%rbp), %rcx
	movzwl	(%rax,%rcx,2), %edi
	movq	imgUV_com, %rax
	movq	8(%rax), %rax
	movslq	-16(%rbp), %rcx
	movq	(%rax,%rcx,8), %rax
	movslq	-12(%rbp), %rcx
	movzwl	(%rax,%rcx,2), %eax
	subl	%eax, %edi
	callq	abs
	cltq
	movslq	(%rbx,%rax,4), %rax
	addq	-32(%rbp), %rax
	movq	%rax, -32(%rbp)
# %bb.15:                               # %for.inc69
                                        #   in Loop: Header=BB50_13 Depth=2
	movl	-16(%rbp), %eax
	addl	$1, %eax
	movl	%eax, -16(%rbp)
	jmp	.LBB50_13
.LBB50_16:                              # %for.end71
                                        #   in Loop: Header=BB50_11 Depth=1
	jmp	.LBB50_17
.LBB50_17:                              # %for.inc72
                                        #   in Loop: Header=BB50_11 Depth=1
	movl	-12(%rbp), %eax
	addl	$1, %eax
	movl	%eax, -12(%rbp)
	jmp	.LBB50_11
.LBB50_18:                              # %for.end74
	jmp	.LBB50_19
.LBB50_19:                              # %if.end
	jmp	.LBB50_39
.LBB50_20:                              # %if.else
	movq	imgY_org_frm, %rax
	movq	%rax, imgY_org
	movq	imgUV_org_frm, %rax
	movq	%rax, imgUV_org
	movq	$0, -40(%rbp)
	movl	$0, -12(%rbp)
.LBB50_21:                              # %for.cond75
                                        # =>This Loop Header: Depth=1
                                        #     Child Loop BB50_23 Depth 2
	movl	-12(%rbp), %eax
	movq	input, %rcx
	cmpl	64(%rcx), %eax
	jge	.LBB50_28
# %bb.22:                               # %for.body79
                                        #   in Loop: Header=BB50_21 Depth=1
	movl	$0, -16(%rbp)
.LBB50_23:                              # %for.cond80
                                        #   Parent Loop BB50_21 Depth=1
                                        # =>  This Inner Loop Header: Depth=2
	movl	-16(%rbp), %eax
	movq	input, %rcx
	cmpl	68(%rcx), %eax
	jge	.LBB50_26
# %bb.24:                               # %for.body84
                                        #   in Loop: Header=BB50_23 Depth=2
	movq	img, %rax
	movq	71776(%rax), %rbx
	movq	imgY_org, %rax
	movslq	-16(%rbp), %rcx
	movq	(%rax,%rcx,8), %rax
	movslq	-12(%rbp), %rcx
	movzwl	(%rax,%rcx,2), %edi
	movq	enc_picture, %rax
	movq	6424(%rax), %rax
	movslq	-16(%rbp), %rcx
	movq	(%rax,%rcx,8), %rax
	movslq	-12(%rbp), %rcx
	movzwl	(%rax,%rcx,2), %eax
	subl	%eax, %edi
	callq	abs
	cltq
	movslq	(%rbx,%rax,4), %rax
	addq	-40(%rbp), %rax
	movq	%rax, -40(%rbp)
# %bb.25:                               # %for.inc102
                                        #   in Loop: Header=BB50_23 Depth=2
	movl	-16(%rbp), %eax
	addl	$1, %eax
	movl	%eax, -16(%rbp)
	jmp	.LBB50_23
.LBB50_26:                              # %for.end104
                                        #   in Loop: Header=BB50_21 Depth=1
	jmp	.LBB50_27
.LBB50_27:                              # %for.inc105
                                        #   in Loop: Header=BB50_21 Depth=1
	movl	-12(%rbp), %eax
	addl	$1, %eax
	movl	%eax, -12(%rbp)
	jmp	.LBB50_21
.LBB50_28:                              # %for.end107
	movq	$0, -24(%rbp)
	movq	$0, -32(%rbp)
	movq	img, %rax
	cmpl	$0, 72700(%rax)
	je	.LBB50_38
# %bb.29:                               # %if.then111
	movl	$0, -12(%rbp)
.LBB50_30:                              # %for.cond112
                                        # =>This Loop Header: Depth=1
                                        #     Child Loop BB50_32 Depth 2
	movl	-12(%rbp), %eax
	movq	input, %rcx
	cmpl	3308(%rcx), %eax
	jge	.LBB50_37
# %bb.31:                               # %for.body116
                                        #   in Loop: Header=BB50_30 Depth=1
	movl	$0, -16(%rbp)
.LBB50_32:                              # %for.cond117
                                        #   Parent Loop BB50_30 Depth=1
                                        # =>  This Inner Loop Header: Depth=2
	movl	-16(%rbp), %eax
	movq	input, %rcx
	cmpl	3304(%rcx), %eax
	jge	.LBB50_35
# %bb.33:                               # %for.body121
                                        #   in Loop: Header=BB50_32 Depth=2
	movq	img, %rax
	movq	71776(%rax), %rbx
	movq	imgUV_org, %rax
	movq	(%rax), %rax
	movslq	-16(%rbp), %rcx
	movq	(%rax,%rcx,8), %rax
	movslq	-12(%rbp), %rcx
	movzwl	(%rax,%rcx,2), %edi
	movq	enc_picture, %rax
	movq	6464(%rax), %rax
	movq	(%rax), %rax
	movslq	-16(%rbp), %rcx
	movq	(%rax,%rcx,8), %rax
	movslq	-12(%rbp), %rcx
	movzwl	(%rax,%rcx,2), %eax
	subl	%eax, %edi
	callq	abs
	cltq
	movslq	(%rbx,%rax,4), %rax
	addq	-24(%rbp), %rax
	movq	%rax, -24(%rbp)
	movq	img, %rax
	movq	71776(%rax), %rbx
	movq	imgUV_org, %rax
	movq	8(%rax), %rax
	movslq	-16(%rbp), %rcx
	movq	(%rax,%rcx,8), %rax
	movslq	-12(%rbp), %rcx
	movzwl	(%rax,%rcx,2), %edi
	movq	enc_picture, %rax
	movq	6464(%rax), %rax
	movq	8(%rax), %rax
	movslq	-16(%rbp), %rcx
	movq	(%rax,%rcx,8), %rax
	movslq	-12(%rbp), %rcx
	movzwl	(%rax,%rcx,2), %eax
	subl	%eax, %edi
	callq	abs
	cltq
	movslq	(%rbx,%rax,4), %rax
	addq	-32(%rbp), %rax
	movq	%rax, -32(%rbp)
# %bb.34:                               # %for.inc161
                                        #   in Loop: Header=BB50_32 Depth=2
	movl	-16(%rbp), %eax
	addl	$1, %eax
	movl	%eax, -16(%rbp)
	jmp	.LBB50_32
.LBB50_35:                              # %for.end163
                                        #   in Loop: Header=BB50_30 Depth=1
	jmp	.LBB50_36
.LBB50_36:                              # %for.inc164
                                        #   in Loop: Header=BB50_30 Depth=1
	movl	-12(%rbp), %eax
	addl	$1, %eax
	movl	%eax, -12(%rbp)
	jmp	.LBB50_30
.LBB50_37:                              # %for.end166
	jmp	.LBB50_38
.LBB50_38:                              # %if.end167
	jmp	.LBB50_39
.LBB50_39:                              # %if.end168
	vcvtsi2ssq	-40(%rbp), %xmm0, %xmm0
	movq	snr, %rax
	vmovss	%xmm0, (%rax)
	vcvtsi2ssq	-24(%rbp), %xmm0, %xmm0
	movq	snr, %rax
	vmovss	%xmm0, 4(%rax)
	vcvtsi2ssq	-32(%rbp), %xmm0, %xmm0
	movq	snr, %rax
	vmovss	%xmm0, 8(%rax)
	cmpl	$814934539, -44(%rbp)   # imm = 0x3092EA0B
	jne	.LBB50_41
.LBB50_40:
	addq	$40, %rsp
	popq	%rbx
	popq	%rbp
	.cfi_def_cfa %rsp, 8
	retq
.LBB50_41:                              # %func_exit
	.cfi_def_cfa %rbp, 16
	callq	detect_breach
	jmp	.LBB50_40
.Lfunc_end50:
	.size	find_distortion.14, .Lfunc_end50-find_distortion.14
	.cfi_endproc
                                        # -- End function
	.p2align	4, 0x90         # -- Begin function ReportRB.15
	.type	ReportRB.15,@function
ReportRB.15:                            # @ReportRB.15
	.cfi_startproc
# %bb.0:                                # %entry
	pushq	%rbp
	.cfi_def_cfa_offset 16
	.cfi_offset %rbp, -16
	movq	%rsp, %rbp
	.cfi_def_cfa_register %rbp
	pushq	%rbx
	subq	$56, %rsp
	.cfi_offset %rbx, -24
	movl	$1641605673, -16(%rbp)  # imm = 0x61D8EA29
	movl	%edi, -20(%rbp)
	movl	%esi, -12(%rbp)
	movl	frame_no, %esi
	movq	stats, %rax
	movl	16(%rax), %edx
	movq	stats, %rax
	subl	20(%rax), %edx
	movq	active_pps, %rax
	movl	196(%rax), %ecx
	movq	img, %rax
	movl	40(%rax), %r8d
	movq	snr, %rax
	vmovss	(%rax), %xmm0           # xmm0 = mem[0],zero,zero,zero
	vcvtss2sd	%xmm0, %xmm0, %xmm0
	movq	snr, %rax
	vmovss	4(%rax), %xmm1          # xmm1 = mem[0],zero,zero,zero
	vcvtss2sd	%xmm1, %xmm0, %xmm1
	movq	snr, %rax
	vmovss	8(%rax), %xmm2          # xmm2 = mem[0],zero,zero,zero
	vcvtss2sd	%xmm2, %xmm0, %xmm2
	movl	-20(%rbp), %r9d
	movl	-12(%rbp), %r10d
	movq	img, %rdi
	movl	71800(%rdi), %edi
	cmpl	$0, %edi
	movabsq	$.L.str.7, %rdi
	movabsq	$.L.str.8, %rax
	cmovneq	%rdi, %rax
	movl	intras, %r11d
	movq	img, %rdi
	movl	71996(%rdi), %ebx
	movabsq	$.L.str.11, %rdi
	movl	%r10d, (%rsp)
	movq	%rax, 8(%rsp)
	movl	%r11d, 16(%rsp)
	movl	%ebx, 24(%rsp)
	movb	$3, %al
	callq	printf
	cmpl	$1641605673, -16(%rbp)  # imm = 0x61D8EA29
	jne	.LBB51_2
.LBB51_1:
	addq	$56, %rsp
	popq	%rbx
	popq	%rbp
	.cfi_def_cfa %rsp, 8
	retq
.LBB51_2:                               # %func_exit
	.cfi_def_cfa %rbp, 16
	callq	detect_breach
	jmp	.LBB51_1
.Lfunc_end51:
	.size	ReportRB.15, .Lfunc_end51-ReportRB.15
	.cfi_endproc
                                        # -- End function
	.globl	buf2img.16              # -- Begin function buf2img.16
	.p2align	4, 0x90
	.type	buf2img.16,@function
buf2img.16:                             # @buf2img.16
	.cfi_startproc
# %bb.0:                                # %entry
	pushq	%rbp
	.cfi_def_cfa_offset 16
	.cfi_offset %rbp, -16
	movq	%rsp, %rbp
	.cfi_def_cfa_register %rbp
	subq	$80, %rsp
	movl	$422602789, -60(%rbp)   # imm = 0x19306825
	movq	%rdi, -40(%rbp)
	movq	%rsi, -48(%rbp)
	movl	%edx, -12(%rbp)
	movl	%ecx, -24(%rbp)
	movl	%r8d, -20(%rbp)
	movslq	-20(%rbp), %rax
	cmpq	$2, %rax
	jbe	.LBB52_2
# %bb.1:                                # %if.then
	movabsq	$.L.str.3, %rdi
	movl	$500, %esi              # imm = 0x1F4
	callq	error
.LBB52_2:                               # %if.end
	movb	$0, %al
	callq	testEndian
	cmpl	$0, %eax
	je	.LBB52_35
# %bb.3:                                # %if.then2
	movl	-20(%rbp), %eax
	movl	%eax, %ecx
	subl	$1, %ecx
	je	.LBB52_6
	jmp	.LBB52_4
.LBB52_4:                               # %if.then2
	movl	%eax, %ecx
	subl	$2, %ecx
	je	.LBB52_15
	jmp	.LBB52_5
.LBB52_5:                               # %if.then2
	subl	$4, %eax
	je	.LBB52_24
	jmp	.LBB52_33
.LBB52_6:                               # %sw.bb
	movl	$0, -4(%rbp)
.LBB52_7:                               # %for.cond
                                        # =>This Loop Header: Depth=1
                                        #     Child Loop BB52_9 Depth 2
	movl	-4(%rbp), %eax
	cmpl	-24(%rbp), %eax
	jge	.LBB52_14
# %bb.8:                                # %for.body
                                        #   in Loop: Header=BB52_7 Depth=1
	movl	$0, -8(%rbp)
.LBB52_9:                               # %for.cond5
                                        #   Parent Loop BB52_7 Depth=1
                                        # =>  This Inner Loop Header: Depth=2
	movl	-8(%rbp), %eax
	cmpl	-12(%rbp), %eax
	jge	.LBB52_12
# %bb.10:                               # %for.body8
                                        #   in Loop: Header=BB52_9 Depth=2
	movq	-48(%rbp), %rax
	movl	-8(%rbp), %ecx
	movl	-4(%rbp), %edx
	imull	-12(%rbp), %edx
	addl	%edx, %ecx
	movslq	%ecx, %rcx
	movzbl	(%rax,%rcx), %eax
	movq	-40(%rbp), %rcx
	movslq	-4(%rbp), %rdx
	movq	(%rcx,%rdx,8), %rcx
	movslq	-8(%rbp), %rdx
	movw	%ax, (%rcx,%rdx,2)
# %bb.11:                               # %for.inc
                                        #   in Loop: Header=BB52_9 Depth=2
	movl	-8(%rbp), %eax
	addl	$1, %eax
	movl	%eax, -8(%rbp)
	jmp	.LBB52_9
.LBB52_12:                              # %for.end
                                        #   in Loop: Header=BB52_7 Depth=1
	jmp	.LBB52_13
.LBB52_13:                              # %for.inc14
                                        #   in Loop: Header=BB52_7 Depth=1
	movl	-4(%rbp), %eax
	addl	$1, %eax
	movl	%eax, -4(%rbp)
	jmp	.LBB52_7
.LBB52_14:                              # %for.end16
	jmp	.LBB52_34
.LBB52_15:                              # %sw.bb17
	movl	$0, -4(%rbp)
.LBB52_16:                              # %for.cond18
                                        # =>This Loop Header: Depth=1
                                        #     Child Loop BB52_18 Depth 2
	movl	-4(%rbp), %eax
	cmpl	-24(%rbp), %eax
	jge	.LBB52_23
# %bb.17:                               # %for.body21
                                        #   in Loop: Header=BB52_16 Depth=1
	movl	$0, -8(%rbp)
.LBB52_18:                              # %for.cond22
                                        #   Parent Loop BB52_16 Depth=1
                                        # =>  This Inner Loop Header: Depth=2
	movl	-8(%rbp), %eax
	cmpl	-12(%rbp), %eax
	jge	.LBB52_21
# %bb.19:                               # %for.body25
                                        #   in Loop: Header=BB52_18 Depth=2
	movq	-48(%rbp), %rax
	movl	-8(%rbp), %ecx
	movl	-4(%rbp), %edx
	imull	-12(%rbp), %edx
	addl	%edx, %ecx
	shll	$1, %ecx
	movslq	%ecx, %rcx
	movw	(%rax,%rcx), %ax
	movw	%ax, -14(%rbp)
	movzwl	-14(%rbp), %eax
	sarl	$8, %eax
	movzwl	-14(%rbp), %ecx
	andl	$255, %ecx
	shll	$8, %ecx
	orl	%ecx, %eax
	movw	%ax, -26(%rbp)
	movw	-26(%rbp), %ax
	movq	-40(%rbp), %rcx
	movslq	-4(%rbp), %rdx
	movq	(%rcx,%rdx,8), %rcx
	movslq	-8(%rbp), %rdx
	movw	%ax, (%rcx,%rdx,2)
# %bb.20:                               # %for.inc36
                                        #   in Loop: Header=BB52_18 Depth=2
	movl	-8(%rbp), %eax
	addl	$1, %eax
	movl	%eax, -8(%rbp)
	jmp	.LBB52_18
.LBB52_21:                              # %for.end38
                                        #   in Loop: Header=BB52_16 Depth=1
	jmp	.LBB52_22
.LBB52_22:                              # %for.inc39
                                        #   in Loop: Header=BB52_16 Depth=1
	movl	-4(%rbp), %eax
	addl	$1, %eax
	movl	%eax, -4(%rbp)
	jmp	.LBB52_16
.LBB52_23:                              # %for.end41
	jmp	.LBB52_34
.LBB52_24:                              # %sw.bb42
	movl	$0, -4(%rbp)
.LBB52_25:                              # %for.cond43
                                        # =>This Loop Header: Depth=1
                                        #     Child Loop BB52_27 Depth 2
	movl	-4(%rbp), %eax
	cmpl	-24(%rbp), %eax
	jge	.LBB52_32
# %bb.26:                               # %for.body46
                                        #   in Loop: Header=BB52_25 Depth=1
	movl	$0, -8(%rbp)
.LBB52_27:                              # %for.cond47
                                        #   Parent Loop BB52_25 Depth=1
                                        # =>  This Inner Loop Header: Depth=2
	movl	-8(%rbp), %eax
	cmpl	-12(%rbp), %eax
	jge	.LBB52_30
# %bb.28:                               # %for.body50
                                        #   in Loop: Header=BB52_27 Depth=2
	movq	-48(%rbp), %rax
	movl	-8(%rbp), %ecx
	movl	-4(%rbp), %edx
	imull	-12(%rbp), %edx
	addl	%edx, %ecx
	shll	$2, %ecx
	movslq	%ecx, %rcx
	movl	(%rax,%rcx), %eax
	movl	%eax, -56(%rbp)
	movq	-56(%rbp), %rax
	andq	$65280, %rax            # imm = 0xFF00
	shlq	$8, %rax
	movq	-56(%rbp), %rcx
	andq	$255, %rcx
	shlq	$24, %rcx
	orq	%rcx, %rax
	movq	-56(%rbp), %rcx
	andq	$16711680, %rcx         # imm = 0xFF0000
	shrq	$8, %rcx
	orq	%rcx, %rax
	movl	$4278190080, %ecx       # imm = 0xFF000000
	andq	-56(%rbp), %rcx
	shrq	$24, %rcx
	orq	%rcx, %rax
	movq	%rax, -72(%rbp)
	movq	-72(%rbp), %rax
	movq	-40(%rbp), %rcx
	movslq	-4(%rbp), %rdx
	movq	(%rcx,%rdx,8), %rcx
	movslq	-8(%rbp), %rdx
	movw	%ax, (%rcx,%rdx,2)
# %bb.29:                               # %for.inc72
                                        #   in Loop: Header=BB52_27 Depth=2
	movl	-8(%rbp), %eax
	addl	$1, %eax
	movl	%eax, -8(%rbp)
	jmp	.LBB52_27
.LBB52_30:                              # %for.end74
                                        #   in Loop: Header=BB52_25 Depth=1
	jmp	.LBB52_31
.LBB52_31:                              # %for.inc75
                                        #   in Loop: Header=BB52_25 Depth=1
	movl	-4(%rbp), %eax
	addl	$1, %eax
	movl	%eax, -4(%rbp)
	jmp	.LBB52_25
.LBB52_32:                              # %for.end77
	jmp	.LBB52_33
.LBB52_33:                              # %sw.default
	movabsq	$.L.str.4, %rdi
	movl	$500, %esi              # imm = 0x1F4
	callq	error
.LBB52_34:                              # %sw.epilog
	jmp	.LBB52_44
.LBB52_35:                              # %if.else
	movl	$0, -4(%rbp)
.LBB52_36:                              # %for.cond78
                                        # =>This Loop Header: Depth=1
                                        #     Child Loop BB52_38 Depth 2
	movl	-4(%rbp), %eax
	cmpl	-24(%rbp), %eax
	jge	.LBB52_43
# %bb.37:                               # %for.body81
                                        #   in Loop: Header=BB52_36 Depth=1
	movl	$0, -8(%rbp)
.LBB52_38:                              # %for.cond82
                                        #   Parent Loop BB52_36 Depth=1
                                        # =>  This Inner Loop Header: Depth=2
	movl	-8(%rbp), %eax
	cmpl	-12(%rbp), %eax
	jge	.LBB52_41
# %bb.39:                               # %for.body85
                                        #   in Loop: Header=BB52_38 Depth=2
	movq	-40(%rbp), %rax
	movslq	-4(%rbp), %rcx
	movq	(%rax,%rcx,8), %rax
	movslq	-8(%rbp), %rcx
	movw	$0, (%rax,%rcx,2)
	movq	-40(%rbp), %rax
	movslq	-4(%rbp), %rcx
	movq	(%rax,%rcx,8), %rdi
	movslq	-8(%rbp), %rax
	shlq	$1, %rax
	addq	%rax, %rdi
	movq	-48(%rbp), %rsi
	movl	-8(%rbp), %eax
	movl	-4(%rbp), %ecx
	imull	-12(%rbp), %ecx
	addl	%ecx, %eax
	imull	-20(%rbp), %eax
	cltq
	addq	%rax, %rsi
	movslq	-20(%rbp), %rdx
	callq	memcpy
# %bb.40:                               # %for.inc100
                                        #   in Loop: Header=BB52_38 Depth=2
	movl	-8(%rbp), %eax
	addl	$1, %eax
	movl	%eax, -8(%rbp)
	jmp	.LBB52_38
.LBB52_41:                              # %for.end102
                                        #   in Loop: Header=BB52_36 Depth=1
	jmp	.LBB52_42
.LBB52_42:                              # %for.inc103
                                        #   in Loop: Header=BB52_36 Depth=1
	movl	-4(%rbp), %eax
	addl	$1, %eax
	movl	%eax, -4(%rbp)
	jmp	.LBB52_36
.LBB52_43:                              # %for.end105
	jmp	.LBB52_44
.LBB52_44:                              # %if.end106
	cmpl	$422602789, -60(%rbp)   # imm = 0x19306825
	jne	.LBB52_46
.LBB52_45:
	addq	$80, %rsp
	popq	%rbp
	.cfi_def_cfa %rsp, 8
	retq
.LBB52_46:                              # %func_exit
	.cfi_def_cfa %rbp, 16
	callq	detect_breach
	jmp	.LBB52_45
.Lfunc_end52:
	.size	buf2img.16, .Lfunc_end52-buf2img.16
	.cfi_endproc
                                        # -- End function
	.p2align	4, 0x90         # -- Begin function ReportNALNonVLCBits.17
	.type	ReportNALNonVLCBits.17,@function
ReportNALNonVLCBits.17:                 # @ReportNALNonVLCBits.17
	.cfi_startproc
# %bb.0:                                # %entry
	pushq	%rbp
	.cfi_def_cfa_offset 16
	.cfi_offset %rbp, -16
	movq	%rsp, %rbp
	.cfi_def_cfa_register %rbp
	subq	$16, %rsp
	movl	$2114840847, -4(%rbp)   # imm = 0x7E0DE90F
	movl	%edi, -8(%rbp)
	movl	%esi, -12(%rbp)
	movl	frame_no, %esi
	movq	stats, %rax
	movl	1492(%rax), %edx
	movabsq	$.L.str.5, %rdi
	movb	$0, %al
	callq	printf
	cmpl	$2114840847, -4(%rbp)   # imm = 0x7E0DE90F
	jne	.LBB53_2
.LBB53_1:
	addq	$16, %rsp
	popq	%rbp
	.cfi_def_cfa %rsp, 8
	retq
.LBB53_2:                               # %func_exit
	.cfi_def_cfa %rbp, 16
	callq	detect_breach
	jmp	.LBB53_1
.Lfunc_end53:
	.size	ReportNALNonVLCBits.17, .Lfunc_end53-ReportNALNonVLCBits.17
	.cfi_endproc
                                        # -- End function
	.p2align	4, 0x90         # -- Begin function ReportSP.18
	.type	ReportSP.18,@function
ReportSP.18:                            # @ReportSP.18
	.cfi_startproc
# %bb.0:                                # %entry
	pushq	%rbp
	.cfi_def_cfa_offset 16
	.cfi_offset %rbp, -16
	movq	%rsp, %rbp
	.cfi_def_cfa_register %rbp
	subq	$48, %rsp
	movl	$1653842699, -12(%rbp)  # imm = 0x6293A30B
	movl	%edi, -4(%rbp)
	movl	%esi, -8(%rbp)
	movl	frame_no, %esi
	movq	stats, %rax
	movl	16(%rax), %edx
	movq	stats, %rax
	subl	20(%rax), %edx
	movq	active_pps, %rax
	movl	192(%rax), %ecx
	movq	img, %rax
	movl	40(%rax), %r8d
	movq	snr, %rax
	vmovss	(%rax), %xmm0           # xmm0 = mem[0],zero,zero,zero
	vcvtss2sd	%xmm0, %xmm0, %xmm0
	movq	snr, %rax
	vmovss	4(%rax), %xmm1          # xmm1 = mem[0],zero,zero,zero
	vcvtss2sd	%xmm1, %xmm0, %xmm1
	movq	snr, %rax
	vmovss	8(%rax), %xmm2          # xmm2 = mem[0],zero,zero,zero
	vcvtss2sd	%xmm2, %xmm0, %xmm2
	movl	-4(%rbp), %r9d
	movl	-8(%rbp), %r10d
	movq	img, %rdi
	movl	71800(%rdi), %edi
	cmpl	$0, %edi
	movabsq	$.L.str.7, %rdi
	movabsq	$.L.str.8, %rax
	cmovneq	%rdi, %rax
	movl	intras, %r11d
	movabsq	$.L.str.10, %rdi
	movl	%r10d, (%rsp)
	movq	%rax, 8(%rsp)
	movl	%r11d, 16(%rsp)
	movb	$3, %al
	callq	printf
	cmpl	$1653842699, -12(%rbp)  # imm = 0x6293A30B
	jne	.LBB54_2
.LBB54_1:
	addq	$48, %rsp
	popq	%rbp
	.cfi_def_cfa %rsp, 8
	retq
.LBB54_2:                               # %func_exit
	.cfi_def_cfa %rbp, 16
	callq	detect_breach
	jmp	.LBB54_1
.Lfunc_end54:
	.size	ReportSP.18, .Lfunc_end54-ReportSP.18
	.cfi_endproc
                                        # -- End function
	.section	.rodata.cst8,"aM",@progbits,8
	.p2align	3               # -- Begin function init_frame.19
.LCPI55_0:
	.quad	4607182418800017408     # double 1
	.text
	.p2align	4, 0x90
	.type	init_frame.19,@function
init_frame.19:                          # @init_frame.19
	.cfi_startproc
# %bb.0:                                # %entry
	pushq	%rbp
	.cfi_def_cfa_offset 16
	.cfi_offset %rbp, -16
	movq	%rsp, %rbp
	.cfi_def_cfa_register %rbp
	subq	$16, %rsp
	movl	$558358728, -16(%rbp)   # imm = 0x2147E0C8
	movq	last_P_no_frm, %rax
	movq	%rax, last_P_no
	movq	img, %rax
	movl	$0, 12(%rax)
	movq	img, %rax
	movl	$0, 20(%rax)
	movq	stats, %rax
	movl	$0, 24(%rax)
	movq	img, %rax
	movl	$0, 136(%rax)
	movq	img, %rax
	movl	$0, 140(%rax)
	movq	img, %rax
	movl	$0, 164(%rax)
	movq	img, %rax
	movl	$0, 156(%rax)
	movq	img, %rax
	movl	$0, 148(%rax)
	movq	img, %rax
	movl	$0, 160(%rax)
	movq	img, %rax
	movl	$0, 96(%rax)
	movq	img, %rax
	movl	$0, 152(%rax)
	movq	img, %rax
	movl	$0, 144(%rax)
	movl	$0, -4(%rbp)
.LBB55_1:                               # %for.cond
                                        # =>This Inner Loop Header: Depth=1
	movl	-4(%rbp), %esi
	movq	img, %rax
	movl	52(%rax), %eax
	cltd
	movl	$16, %edi
	idivl	%edi
	movl	%eax, %ecx
	movq	img, %rax
	movl	60(%rax), %eax
	cltd
	idivl	%edi
	imull	%eax, %ecx
	cmpl	%ecx, %esi
	jge	.LBB55_4
# %bb.2:                                # %for.body
                                        #   in Loop: Header=BB55_1 Depth=1
	movq	img, %rax
	movq	14168(%rax), %rax
	movslq	-4(%rbp), %rcx
	imulq	$632, %rcx, %rcx        # imm = 0x278
	addq	%rcx, %rax
	movl	$-1, 4(%rax)
# %bb.3:                                # %for.inc
                                        #   in Loop: Header=BB55_1 Depth=1
	movl	-4(%rbp), %eax
	addl	$1, %eax
	movl	%eax, -4(%rbp)
	jmp	.LBB55_1
.LBB55_4:                               # %for.end
	movq	img, %rax
	cmpl	$0, 71908(%rax)
	jne	.LBB55_29
# %bb.5:                                # %if.then
	movl	start_tr_in_this_IGOP, %eax
	movq	img, %rcx
	movl	(%rcx), %ecx
	subl	start_frame_no_in_this_IGOP, %ecx
	movq	input, %rdx
	movl	20(%rdx), %edx
	addl	$1, %edx
	imull	%edx, %ecx
	addl	%ecx, %eax
	movq	img, %rcx
	movl	%eax, 71792(%rcx)
	movq	img, %rax
	movl	71876(%rax), %eax
	movq	img, %rcx
	movl	%eax, 71880(%rcx)
	movq	img, %rax
	movl	71792(%rax), %eax
	movq	img, %rcx
	movl	%eax, 71876(%rcx)
	movq	input, %rax
	cmpl	$0, 2440(%rax)
	je	.LBB55_8
# %bb.6:                                # %land.lhs.true
	movq	img, %rax
	movl	(%rax), %eax
	addl	$1, %eax
	movq	input, %rcx
	cmpl	8(%rcx), %eax
	jne	.LBB55_8
# %bb.7:                                # %if.then10
	movq	input, %rax
	movl	2440(%rax), %eax
	movq	img, %rcx
	movl	%eax, 71792(%rcx)
.LBB55_8:                               # %if.end
	movq	img, %rax
	movl	(%rax), %eax
	subl	start_frame_no_in_this_IGOP, %eax
	cmpl	$0, %eax
	je	.LBB55_11
# %bb.9:                                # %land.lhs.true16
	movq	input, %rax
	cmpl	$0, 1236(%rax)
	je	.LBB55_11
# %bb.10:                               # %if.then18
	movq	img, %rax
	movl	71792(%rax), %eax
	movl	%eax, nextP_tr_frm
.LBB55_11:                              # %if.end20
	movq	input, %rax
	cmpl	$0, 3236(%rax)
	jne	.LBB55_26
# %bb.12:                               # %if.then22
	movq	img, %rax
	cmpl	$2, 24(%rax)
	jne	.LBB55_18
# %bb.13:                               # %if.then24
	movq	input, %rax
	cmpl	$0, 2452(%rax)
	jle	.LBB55_16
# %bb.14:                               # %land.lhs.true26
	movq	img, %rax
	movl	71792(%rax), %eax
	movq	input, %rcx
	cmpl	2452(%rcx), %eax
	jl	.LBB55_16
# %bb.15:                               # %if.then30
	movq	input, %rax
	movl	2456(%rax), %eax
	movq	img, %rcx
	movl	%eax, 40(%rcx)
	jmp	.LBB55_17
.LBB55_16:                              # %if.else
	movq	input, %rax
	movl	12(%rax), %eax
	movq	img, %rcx
	movl	%eax, 40(%rcx)
.LBB55_17:                              # %if.end32
	jmp	.LBB55_25
.LBB55_18:                              # %if.else33
	movq	input, %rax
	cmpl	$0, 2452(%rax)
	jle	.LBB55_21
# %bb.19:                               # %land.lhs.true36
	movq	img, %rax
	movl	71792(%rax), %eax
	movq	input, %rcx
	cmpl	2452(%rcx), %eax
	jl	.LBB55_21
# %bb.20:                               # %if.then40
	movq	input, %rax
	movl	2444(%rax), %eax
	movq	img, %rcx
	movl	%eax, 40(%rcx)
	jmp	.LBB55_22
.LBB55_21:                              # %if.else42
	movq	input, %rax
	movl	16(%rax), %eax
	movq	img, %rcx
	movl	%eax, 40(%rcx)
.LBB55_22:                              # %if.end44
	movq	img, %rax
	cmpl	$3, 24(%rax)
	jne	.LBB55_24
# %bb.23:                               # %if.then47
	movq	input, %rax
	movl	1276(%rax), %eax
	movq	img, %rcx
	movl	%eax, 40(%rcx)
	movq	input, %rax
	movl	1280(%rax), %eax
	movq	img, %rcx
	movl	%eax, 44(%rcx)
.LBB55_24:                              # %if.end50
	jmp	.LBB55_25
.LBB55_25:                              # %if.end51
	jmp	.LBB55_26
.LBB55_26:                              # %if.end52
	movq	img, %rax
	movl	88(%rax), %eax
	movq	img, %rcx
	movl	%eax, 92(%rcx)
	movq	input, %rax
	cmpl	$0, 76(%rax)
	jle	.LBB55_28
# %bb.27:                               # %if.then54
	movq	img, %rax
	movl	(%rax), %eax
	subl	start_frame_no_in_this_IGOP, %eax
	movq	input, %rcx
	cltd
	idivl	76(%rcx)
	movl	%eax, %ecx
	movq	img, %rax
	movl	60(%rax), %eax
	cltd
	movl	$16, %esi
	idivl	%esi
	movl	%eax, %esi
	movl	%ecx, %eax
	cltd
	idivl	%esi
	movq	img, %rax
	movl	%edx, 88(%rax)
.LBB55_28:                              # %if.end62
	jmp	.LBB55_72
.LBB55_29:                              # %if.else63
	movq	input, %rax
	movl	20(%rax), %eax
	addl	$1, %eax
	movq	img, %rcx
	movl	%eax, 71904(%rcx)
	movl	start_tr_in_this_IGOP, %eax
	movq	img, %rcx
	movl	(%rcx), %ecx
	subl	start_frame_no_in_this_IGOP, %ecx
	subl	$1, %ecx
	movq	img, %rdx
	imull	71904(%rdx), %ecx
	addl	%ecx, %eax
	movl	%eax, -12(%rbp)
	movl	start_tr_in_this_IGOP, %eax
	movq	img, %rcx
	movl	(%rcx), %ecx
	subl	start_frame_no_in_this_IGOP, %ecx
	movq	img, %rdx
	imull	71904(%rdx), %ecx
	addl	%ecx, %eax
	movl	%eax, -8(%rbp)
	movl	-12(%rbp), %eax
	movq	last_P_no, %rcx
	movl	%eax, (%rcx)
	movl	$1, -4(%rbp)
.LBB55_30:                              # %for.cond78
                                        # =>This Inner Loop Header: Depth=1
	movl	-4(%rbp), %eax
	movq	img, %rcx
	cmpl	72376(%rcx), %eax
	jge	.LBB55_33
# %bb.31:                               # %for.body80
                                        #   in Loop: Header=BB55_30 Depth=1
	movq	last_P_no, %rax
	movl	-4(%rbp), %ecx
	subl	$1, %ecx
	movslq	%ecx, %rcx
	movl	(%rax,%rcx,4), %eax
	movq	img, %rcx
	subl	71904(%rcx), %eax
	movq	last_P_no, %rcx
	movslq	-4(%rbp), %rdx
	movl	%eax, (%rcx,%rdx,4)
# %bb.32:                               # %for.inc88
                                        #   in Loop: Header=BB55_30 Depth=1
	movl	-4(%rbp), %eax
	addl	$1, %eax
	movl	%eax, -4(%rbp)
	jmp	.LBB55_30
.LBB55_33:                              # %for.end90
	movq	input, %rax
	cmpl	$0, 2440(%rax)
	je	.LBB55_36
# %bb.34:                               # %land.lhs.true93
	movq	img, %rax
	movl	(%rax), %eax
	addl	$1, %eax
	movq	input, %rcx
	cmpl	8(%rcx), %eax
	jne	.LBB55_36
# %bb.35:                               # %if.then98
	movq	input, %rax
	movl	2440(%rax), %eax
	movl	%eax, -8(%rbp)
	movl	-8(%rbp), %eax
	subl	-12(%rbp), %eax
	movq	img, %rcx
	movl	%eax, 71904(%rcx)
.LBB55_36:                              # %if.end102
	vmovsd	.LCPI55_0(%rip), %xmm0  # xmm0 = mem[0],zero
	movq	input, %rax
	movl	20(%rax), %eax
	addl	$1, %eax
	vcvtsi2sd	%eax, %xmm0, %xmm1
	movq	input, %rax
	vcvtsi2sdl	1236(%rax), %xmm0, %xmm2
	vaddsd	%xmm0, %xmm2, %xmm0
	vdivsd	%xmm0, %xmm1, %xmm0
	movq	img, %rax
	vmovsd	%xmm0, 71896(%rax)
	movq	input, %rax
	cmpl	$3, 1320(%rax)
	jne	.LBB55_38
# %bb.37:                               # %if.then111
	vmovsd	.LCPI55_0(%rip), %xmm0  # xmm0 = mem[0],zero
	movq	img, %rax
	vmovsd	%xmm0, 71896(%rax)
.LBB55_38:                              # %if.end113
	movq	input, %rax
	cmpl	$0, 1320(%rax)
	je	.LBB55_40
# %bb.39:                               # %if.then116
	movl	-12(%rbp), %eax
	movq	img, %rcx
	vmovsd	71896(%rcx), %xmm0      # xmm0 = mem[0],zero
	movq	gop_structure, %rcx
	movq	img, %rdx
	movl	71908(%rdx), %edx
	subl	$1, %edx
	movslq	%edx, %rdx
	imulq	$24, %rdx, %rdx
	addq	%rdx, %rcx
	movl	4(%rcx), %ecx
	addl	$1, %ecx
	vcvtsi2sd	%ecx, %xmm0, %xmm1
	vmulsd	%xmm1, %xmm0, %xmm0
	vcvttsd2si	%xmm0, %ecx
	addl	%ecx, %eax
	movq	img, %rcx
	movl	%eax, 71792(%rcx)
	jmp	.LBB55_41
.LBB55_40:                              # %if.else128
	movl	-12(%rbp), %eax
	movq	img, %rcx
	vmovsd	71896(%rcx), %xmm0      # xmm0 = mem[0],zero
	movq	img, %rcx
	vcvtsi2sdl	71908(%rcx), %xmm0, %xmm1
	vmulsd	%xmm1, %xmm0, %xmm0
	vcvttsd2si	%xmm0, %ecx
	addl	%ecx, %eax
	movq	img, %rcx
	movl	%eax, 71792(%rcx)
.LBB55_41:                              # %if.end136
	movq	img, %rax
	movl	71792(%rax), %eax
	cmpl	-8(%rbp), %eax
	jl	.LBB55_43
# %bb.42:                               # %if.then140
	movl	-8(%rbp), %eax
	subl	$1, %eax
	movq	img, %rcx
	movl	%eax, 71792(%rcx)
.LBB55_43:                              # %if.end143
	movq	input, %rax
	cmpl	$0, 3236(%rax)
	jne	.LBB55_68
# %bb.44:                               # %land.lhs.true146
	movq	input, %rax
	cmpl	$3, 1320(%rax)
	je	.LBB55_68
# %bb.45:                               # %if.then150
	movq	input, %rax
	cmpl	$0, 2452(%rax)
	jle	.LBB55_48
# %bb.46:                               # %land.lhs.true154
	movq	img, %rax
	movl	71792(%rax), %eax
	movq	input, %rcx
	cmpl	2452(%rcx), %eax
	jl	.LBB55_48
# %bb.47:                               # %if.then159
	movq	input, %rax
	movl	2448(%rax), %eax
	movq	img, %rcx
	movl	%eax, 40(%rcx)
	jmp	.LBB55_49
.LBB55_48:                              # %if.else161
	movq	input, %rax
	movl	1240(%rax), %eax
	movq	img, %rcx
	movl	%eax, 40(%rcx)
.LBB55_49:                              # %if.end163
	movq	img, %rax
	cmpl	$0, 72496(%rax)
	je	.LBB55_67
# %bb.50:                               # %if.then165
	movq	input, %rax
	cmpl	$0, 2452(%rax)
	jle	.LBB55_59
# %bb.51:                               # %land.lhs.true169
	movq	img, %rax
	movl	71792(%rax), %eax
	movq	input, %rcx
	cmpl	2452(%rcx), %eax
	jl	.LBB55_59
# %bb.52:                               # %if.then174
	movq	input, %rax
	movl	2448(%rax), %eax
	movq	input, %rcx
	addl	2460(%rcx), %eax
	cmpl	$0, %eax
	jge	.LBB55_54
# %bb.53:                               # %cond.true
	xorl	%eax, %eax
	jmp	.LBB55_58
.LBB55_54:                              # %cond.false
	movq	input, %rax
	movl	2448(%rax), %eax
	movq	input, %rcx
	addl	2460(%rcx), %eax
	cmpl	$51, %eax
	jle	.LBB55_56
# %bb.55:                               # %cond.true184
	movl	$51, %eax
	jmp	.LBB55_57
.LBB55_56:                              # %cond.false185
	movq	input, %rax
	movl	2448(%rax), %eax
	movq	input, %rcx
	addl	2460(%rcx), %eax
.LBB55_57:                              # %cond.end
.LBB55_58:                              # %cond.end189
	movq	img, %rcx
	movl	%eax, 40(%rcx)
	jmp	.LBB55_66
.LBB55_59:                              # %if.else192
	movq	input, %rax
	movl	1240(%rax), %eax
	movq	input, %rcx
	addl	1244(%rcx), %eax
	cmpl	$0, %eax
	jge	.LBB55_61
# %bb.60:                               # %cond.true197
	xorl	%eax, %eax
	jmp	.LBB55_65
.LBB55_61:                              # %cond.false198
	movq	input, %rax
	movl	1240(%rax), %eax
	movq	input, %rcx
	addl	1244(%rcx), %eax
	cmpl	$51, %eax
	jle	.LBB55_63
# %bb.62:                               # %cond.true204
	movl	$51, %eax
	jmp	.LBB55_64
.LBB55_63:                              # %cond.false205
	movq	input, %rax
	movl	1240(%rax), %eax
	movq	input, %rcx
	addl	1244(%rcx), %eax
.LBB55_64:                              # %cond.end209
.LBB55_65:                              # %cond.end211
	movq	img, %rcx
	movl	%eax, 40(%rcx)
.LBB55_66:                              # %if.end214
	jmp	.LBB55_67
.LBB55_67:                              # %if.end215
	jmp	.LBB55_71
.LBB55_68:                              # %if.else216
	movq	input, %rax
	cmpl	$3, 1320(%rax)
	jne	.LBB55_70
# %bb.69:                               # %if.then220
	movq	gop_structure, %rax
	movq	img, %rcx
	movl	71908(%rcx), %ecx
	subl	$1, %ecx
	movslq	%ecx, %rcx
	imulq	$24, %rcx, %rcx
	addq	%rcx, %rax
	movl	12(%rax), %eax
	movq	img, %rcx
	movl	%eax, 40(%rcx)
.LBB55_70:                              # %if.end226
	jmp	.LBB55_71
.LBB55_71:                              # %if.end227
	jmp	.LBB55_72
.LBB55_72:                              # %if.end228
	movq	img, %rax
	movl	72384(%rax), %edi
	callq	UpdateSubseqInfo
	xorl	%edi, %edi
	xorl	%esi, %esi
	xorl	%edx, %edx
	movl	$4294967295, %ecx       # imm = 0xFFFFFFFF
	callq	UpdateSceneInformation
	movq	img, %rax
	movl	52(%rax), %eax
	movq	img, %rcx
	imull	60(%rcx), %eax
	cltd
	movl	$256, %ecx              # imm = 0x100
	idivl	%ecx
	movq	img, %rcx
	movl	%eax, 16(%rcx)
	movq	img, %rax
	movl	$0, 72504(%rax)
	movq	img, %rax
	movl	$0, 72508(%rax)
	callq	init_dec_ref_pic_marking_buffer
	cmpl	$558358728, -16(%rbp)   # imm = 0x2147E0C8
	jne	.LBB55_74
.LBB55_73:
	addq	$16, %rsp
	popq	%rbp
	.cfi_def_cfa %rsp, 8
	retq
.LBB55_74:                              # %func_exit
	.cfi_def_cfa %rbp, 16
	callq	detect_breach
	jmp	.LBB55_73
.Lfunc_end55:
	.size	init_frame.19, .Lfunc_end55-init_frame.19
	.cfi_endproc
                                        # -- End function
	.p2align	4, 0x90         # -- Begin function PaddAutoCropBorders.20
	.type	PaddAutoCropBorders.20,@function
PaddAutoCropBorders.20:                 # @PaddAutoCropBorders.20
	.cfi_startproc
# %bb.0:                                # %entry
	pushq	%rbp
	.cfi_def_cfa_offset 16
	.cfi_offset %rbp, -16
	movq	%rsp, %rbp
	.cfi_def_cfa_register %rbp
	subq	$48, %rsp
	movl	24(%rbp), %eax
	movl	16(%rbp), %eax
	movl	$1353840197, -32(%rbp)  # imm = 0x50B1F645
	movl	%edi, -28(%rbp)
	movl	%esi, -16(%rbp)
	movl	%edx, -20(%rbp)
	movl	%ecx, -36(%rbp)
	movl	%r8d, -24(%rbp)
	movl	%r9d, -12(%rbp)
	movl	$0, -4(%rbp)
.LBB56_1:                               # %for.cond
                                        # =>This Loop Header: Depth=1
                                        #     Child Loop BB56_3 Depth 2
	movl	-4(%rbp), %eax
	cmpl	-16(%rbp), %eax
	jge	.LBB56_8
# %bb.2:                                # %for.body
                                        #   in Loop: Header=BB56_1 Depth=1
	movl	-28(%rbp), %eax
	movl	%eax, -8(%rbp)
.LBB56_3:                               # %for.cond1
                                        #   Parent Loop BB56_1 Depth=1
                                        # =>  This Inner Loop Header: Depth=2
	movl	-8(%rbp), %eax
	cmpl	-20(%rbp), %eax
	jge	.LBB56_6
# %bb.4:                                # %for.body3
                                        #   in Loop: Header=BB56_3 Depth=2
	movq	imgY_org_frm, %rax
	movslq	-4(%rbp), %rcx
	movq	(%rax,%rcx,8), %rax
	movl	-8(%rbp), %ecx
	subl	$1, %ecx
	movslq	%ecx, %rcx
	movw	(%rax,%rcx,2), %ax
	movq	imgY_org_frm, %rcx
	movslq	-4(%rbp), %rdx
	movq	(%rcx,%rdx,8), %rcx
	movslq	-8(%rbp), %rdx
	movw	%ax, (%rcx,%rdx,2)
# %bb.5:                                # %for.inc
                                        #   in Loop: Header=BB56_3 Depth=2
	movl	-8(%rbp), %eax
	addl	$1, %eax
	movl	%eax, -8(%rbp)
	jmp	.LBB56_3
.LBB56_6:                               # %for.end
                                        #   in Loop: Header=BB56_1 Depth=1
	jmp	.LBB56_7
.LBB56_7:                               # %for.inc10
                                        #   in Loop: Header=BB56_1 Depth=1
	movl	-4(%rbp), %eax
	addl	$1, %eax
	movl	%eax, -4(%rbp)
	jmp	.LBB56_1
.LBB56_8:                               # %for.end12
	movl	-16(%rbp), %eax
	movl	%eax, -4(%rbp)
.LBB56_9:                               # %for.cond13
                                        # =>This Loop Header: Depth=1
                                        #     Child Loop BB56_11 Depth 2
	movl	-4(%rbp), %eax
	cmpl	-36(%rbp), %eax
	jge	.LBB56_16
# %bb.10:                               # %for.body15
                                        #   in Loop: Header=BB56_9 Depth=1
	movl	$0, -8(%rbp)
.LBB56_11:                              # %for.cond16
                                        #   Parent Loop BB56_9 Depth=1
                                        # =>  This Inner Loop Header: Depth=2
	movl	-8(%rbp), %eax
	cmpl	-20(%rbp), %eax
	jge	.LBB56_14
# %bb.12:                               # %for.body18
                                        #   in Loop: Header=BB56_11 Depth=2
	movq	imgY_org_frm, %rax
	movl	-4(%rbp), %ecx
	subl	$1, %ecx
	movslq	%ecx, %rcx
	movq	(%rax,%rcx,8), %rax
	movslq	-8(%rbp), %rcx
	movw	(%rax,%rcx,2), %ax
	movq	imgY_org_frm, %rcx
	movslq	-4(%rbp), %rdx
	movq	(%rcx,%rdx,8), %rcx
	movslq	-8(%rbp), %rdx
	movw	%ax, (%rcx,%rdx,2)
# %bb.13:                               # %for.inc28
                                        #   in Loop: Header=BB56_11 Depth=2
	movl	-8(%rbp), %eax
	addl	$1, %eax
	movl	%eax, -8(%rbp)
	jmp	.LBB56_11
.LBB56_14:                              # %for.end30
                                        #   in Loop: Header=BB56_9 Depth=1
	jmp	.LBB56_15
.LBB56_15:                              # %for.inc31
                                        #   in Loop: Header=BB56_9 Depth=1
	movl	-4(%rbp), %eax
	addl	$1, %eax
	movl	%eax, -4(%rbp)
	jmp	.LBB56_9
.LBB56_16:                              # %for.end33
	movq	img, %rax
	cmpl	$0, 72700(%rax)
	je	.LBB56_34
# %bb.17:                               # %if.then
	movl	$0, -4(%rbp)
.LBB56_18:                              # %for.cond35
                                        # =>This Loop Header: Depth=1
                                        #     Child Loop BB56_20 Depth 2
	movl	-4(%rbp), %eax
	cmpl	-12(%rbp), %eax
	jge	.LBB56_25
# %bb.19:                               # %for.body37
                                        #   in Loop: Header=BB56_18 Depth=1
	movl	-24(%rbp), %eax
	movl	%eax, -8(%rbp)
.LBB56_20:                              # %for.cond38
                                        #   Parent Loop BB56_18 Depth=1
                                        # =>  This Inner Loop Header: Depth=2
	movl	-8(%rbp), %eax
	cmpl	16(%rbp), %eax
	jge	.LBB56_23
# %bb.21:                               # %for.body40
                                        #   in Loop: Header=BB56_20 Depth=2
	movq	imgUV_org_frm, %rax
	movq	(%rax), %rax
	movslq	-4(%rbp), %rcx
	movq	(%rax,%rcx,8), %rax
	movl	-8(%rbp), %ecx
	subl	$1, %ecx
	movslq	%ecx, %rcx
	movw	(%rax,%rcx,2), %ax
	movq	imgUV_org_frm, %rcx
	movq	(%rcx), %rcx
	movslq	-4(%rbp), %rdx
	movq	(%rcx,%rdx,8), %rcx
	movslq	-8(%rbp), %rdx
	movw	%ax, (%rcx,%rdx,2)
	movq	imgUV_org_frm, %rax
	movq	8(%rax), %rax
	movslq	-4(%rbp), %rcx
	movq	(%rax,%rcx,8), %rax
	movl	-8(%rbp), %ecx
	subl	$1, %ecx
	movslq	%ecx, %rcx
	movw	(%rax,%rcx,2), %ax
	movq	imgUV_org_frm, %rcx
	movq	8(%rcx), %rcx
	movslq	-4(%rbp), %rdx
	movq	(%rcx,%rdx,8), %rcx
	movslq	-8(%rbp), %rdx
	movw	%ax, (%rcx,%rdx,2)
# %bb.22:                               # %for.inc63
                                        #   in Loop: Header=BB56_20 Depth=2
	movl	-8(%rbp), %eax
	addl	$1, %eax
	movl	%eax, -8(%rbp)
	jmp	.LBB56_20
.LBB56_23:                              # %for.end65
                                        #   in Loop: Header=BB56_18 Depth=1
	jmp	.LBB56_24
.LBB56_24:                              # %for.inc66
                                        #   in Loop: Header=BB56_18 Depth=1
	movl	-4(%rbp), %eax
	addl	$1, %eax
	movl	%eax, -4(%rbp)
	jmp	.LBB56_18
.LBB56_25:                              # %for.end68
	movl	-12(%rbp), %eax
	movl	%eax, -4(%rbp)
.LBB56_26:                              # %for.cond69
                                        # =>This Loop Header: Depth=1
                                        #     Child Loop BB56_28 Depth 2
	movl	-4(%rbp), %eax
	cmpl	24(%rbp), %eax
	jge	.LBB56_33
# %bb.27:                               # %for.body71
                                        #   in Loop: Header=BB56_26 Depth=1
	movl	$0, -8(%rbp)
.LBB56_28:                              # %for.cond72
                                        #   Parent Loop BB56_26 Depth=1
                                        # =>  This Inner Loop Header: Depth=2
	movl	-8(%rbp), %eax
	cmpl	16(%rbp), %eax
	jge	.LBB56_31
# %bb.29:                               # %for.body74
                                        #   in Loop: Header=BB56_28 Depth=2
	movq	imgUV_org_frm, %rax
	movq	(%rax), %rax
	movl	-4(%rbp), %ecx
	subl	$1, %ecx
	movslq	%ecx, %rcx
	movq	(%rax,%rcx,8), %rax
	movslq	-8(%rbp), %rcx
	movw	(%rax,%rcx,2), %ax
	movq	imgUV_org_frm, %rcx
	movq	(%rcx), %rcx
	movslq	-4(%rbp), %rdx
	movq	(%rcx,%rdx,8), %rcx
	movslq	-8(%rbp), %rdx
	movw	%ax, (%rcx,%rdx,2)
	movq	imgUV_org_frm, %rax
	movq	8(%rax), %rax
	movl	-4(%rbp), %ecx
	subl	$1, %ecx
	movslq	%ecx, %rcx
	movq	(%rax,%rcx,8), %rax
	movslq	-8(%rbp), %rcx
	movw	(%rax,%rcx,2), %ax
	movq	imgUV_org_frm, %rcx
	movq	8(%rcx), %rcx
	movslq	-4(%rbp), %rdx
	movq	(%rcx,%rdx,8), %rcx
	movslq	-8(%rbp), %rdx
	movw	%ax, (%rcx,%rdx,2)
# %bb.30:                               # %for.inc97
                                        #   in Loop: Header=BB56_28 Depth=2
	movl	-8(%rbp), %eax
	addl	$1, %eax
	movl	%eax, -8(%rbp)
	jmp	.LBB56_28
.LBB56_31:                              # %for.end99
                                        #   in Loop: Header=BB56_26 Depth=1
	jmp	.LBB56_32
.LBB56_32:                              # %for.inc100
                                        #   in Loop: Header=BB56_26 Depth=1
	movl	-4(%rbp), %eax
	addl	$1, %eax
	movl	%eax, -4(%rbp)
	jmp	.LBB56_26
.LBB56_33:                              # %for.end102
	jmp	.LBB56_34
.LBB56_34:                              # %if.end
	cmpl	$1353840197, -32(%rbp)  # imm = 0x50B1F645
	jne	.LBB56_36
.LBB56_35:
	addq	$48, %rsp
	popq	%rbp
	.cfi_def_cfa %rsp, 8
	retq
.LBB56_36:                              # %func_exit
	.cfi_def_cfa %rbp, 16
	callq	detect_breach
	jmp	.LBB56_35
.Lfunc_end56:
	.size	PaddAutoCropBorders.20, .Lfunc_end56-PaddAutoCropBorders.20
	.cfi_endproc
                                        # -- End function
	.p2align	4, 0x90         # -- Begin function ReportIntra.21
	.type	ReportIntra.21,@function
ReportIntra.21:                         # @ReportIntra.21
	.cfi_startproc
# %bb.0:                                # %entry
	pushq	%rbp
	.cfi_def_cfa_offset 16
	.cfi_offset %rbp, -16
	movq	%rsp, %rbp
	.cfi_def_cfa_register %rbp
	subq	$48, %rsp
	movl	$283246692, -12(%rbp)   # imm = 0x10E20064
	movl	%edi, -4(%rbp)
	movl	%esi, -8(%rbp)
	movq	img, %rax
	movq	14152(%rax), %rax
	cmpl	$1, 4(%rax)
	jne	.LBB57_2
# %bb.1:                                # %if.then
	movl	frame_no, %esi
	movq	stats, %rax
	movl	16(%rax), %edx
	movq	stats, %rax
	subl	20(%rax), %edx
	movq	img, %rax
	movl	40(%rax), %r8d
	movq	snr, %rax
	vmovss	(%rax), %xmm0           # xmm0 = mem[0],zero,zero,zero
	vcvtss2sd	%xmm0, %xmm0, %xmm0
	movq	snr, %rax
	vmovss	4(%rax), %xmm1          # xmm1 = mem[0],zero,zero,zero
	vcvtss2sd	%xmm1, %xmm0, %xmm1
	movq	snr, %rax
	vmovss	8(%rax), %xmm2          # xmm2 = mem[0],zero,zero,zero
	vcvtss2sd	%xmm2, %xmm0, %xmm2
	movl	-4(%rbp), %r9d
	movl	-8(%rbp), %r10d
	movq	img, %rcx
	movl	71800(%rcx), %ecx
	cmpl	$0, %ecx
	movabsq	$.L.str.7, %rcx
	movabsq	$.L.str.8, %rax
	cmovneq	%rcx, %rax
	movl	intras, %r11d
	movabsq	$.L.str.6, %rdi
	movl	$0, %ecx
	movl	%r10d, (%rsp)
	movq	%rax, 8(%rsp)
	movl	%r11d, 16(%rsp)
	movb	$3, %al
	callq	printf
	jmp	.LBB57_3
.LBB57_2:                               # %if.else
	movl	frame_no, %esi
	movq	stats, %rax
	movl	16(%rax), %edx
	movq	stats, %rax
	subl	20(%rax), %edx
	movq	img, %rax
	movl	40(%rax), %r8d
	movq	snr, %rax
	vmovss	(%rax), %xmm0           # xmm0 = mem[0],zero,zero,zero
	vcvtss2sd	%xmm0, %xmm0, %xmm0
	movq	snr, %rax
	vmovss	4(%rax), %xmm1          # xmm1 = mem[0],zero,zero,zero
	vcvtss2sd	%xmm1, %xmm0, %xmm1
	movq	snr, %rax
	vmovss	8(%rax), %xmm2          # xmm2 = mem[0],zero,zero,zero
	vcvtss2sd	%xmm2, %xmm0, %xmm2
	movl	-4(%rbp), %r9d
	movl	-8(%rbp), %r10d
	movq	img, %rcx
	movl	71800(%rcx), %ecx
	cmpl	$0, %ecx
	movabsq	$.L.str.7, %rcx
	movabsq	$.L.str.8, %rax
	cmovneq	%rcx, %rax
	movl	intras, %r11d
	movabsq	$.L.str.9, %rdi
	movl	$0, %ecx
	movl	%r10d, (%rsp)
	movq	%rax, 8(%rsp)
	movl	%r11d, 16(%rsp)
	movb	$3, %al
	callq	printf
.LBB57_3:                               # %if.end
	cmpl	$283246692, -12(%rbp)   # imm = 0x10E20064
	jne	.LBB57_5
.LBB57_4:
	addq	$48, %rsp
	popq	%rbp
	.cfi_def_cfa %rsp, 8
	retq
.LBB57_5:                               # %func_exit
	.cfi_def_cfa %rbp, 16
	callq	detect_breach
	jmp	.LBB57_4
.Lfunc_end57:
	.size	ReportIntra.21, .Lfunc_end57-ReportIntra.21
	.cfi_endproc
                                        # -- End function
	.p2align	4, 0x90         # -- Begin function ReadOneFrame.22
	.type	ReadOneFrame.22,@function
ReadOneFrame.22:                        # @ReadOneFrame.22
	.cfi_startproc
# %bb.0:                                # %entry
	pushq	%rbp
	.cfi_def_cfa_offset 16
	.cfi_offset %rbp, -16
	movq	%rsp, %rbp
	.cfi_def_cfa_register %rbp
	subq	$80, %rsp
	xorl	%r10d, %r10d
	movl	$1968506273, -72(%rbp)  # imm = 0x755505A1
	movl	%edi, -64(%rbp)
	movl	%esi, -60(%rbp)
	movl	%edx, -40(%rbp)
	movl	%ecx, -44(%rbp)
	movl	%r8d, -28(%rbp)
	movl	%r9d, -36(%rbp)
	movq	img, %rax
	movl	72656(%rax), %eax
	cltd
	movl	$8, %ecx
	idivl	%ecx
	movl	%eax, -8(%rbp)
	movl	-40(%rbp), %eax
	imull	-44(%rbp), %eax
	movl	%eax, -68(%rbp)
	movl	-28(%rbp), %eax
	imull	-36(%rbp), %eax
	movl	%eax, -76(%rbp)
	movl	-68(%rbp), %eax
	imull	-8(%rbp), %eax
	movl	%eax, -4(%rbp)
	movl	-76(%rbp), %eax
	imull	-8(%rbp), %eax
	movl	%eax, -12(%rbp)
	movl	-4(%rbp), %eax
	movl	-12(%rbp), %ecx
	shll	$1, %ecx
	addl	%ecx, %eax
	cltq
	movq	%rax, -56(%rbp)
	movq	input, %rax
	cmpl	$1, 3312(%rax)
	jne	.LBB58_2
# %bb.1:                                # %land.rhs
	movq	input, %rax
	cmpl	$3, 72(%rax)
	sete	%r10b
.LBB58_2:                               # %land.end
	andb	$1, %r10b
	movzbl	%r10b, %eax
	movl	%eax, -32(%rbp)
	movl	-40(%rbp), %eax
	imull	-44(%rbp), %eax
	imull	-8(%rbp), %eax
	movl	%eax, %edi
	callq	malloc
	xorl	%ecx, %ecx
	movq	%rax, -24(%rbp)
	cmpq	%rax, %rcx
	jne	.LBB58_4
# %bb.3:                                # %if.then
	movabsq	$.L.str.14, %rdi
	callq	no_mem_exit
.LBB58_4:                               # %if.end
	movl	p_in, %edi
	movslq	-60(%rbp), %rsi
	xorl	%edx, %edx
	callq	lseek
	movslq	-60(%rbp), %rcx
	cmpq	%rcx, %rax
	je	.LBB58_6
# %bb.5:                                # %if.then18
	movabsq	$.L.str.15, %rdi
	movl	$4294967295, %esi       # imm = 0xFFFFFFFF
	callq	error
.LBB58_6:                               # %if.end19
	movl	p_in, %edi
	movq	-56(%rbp), %rsi
	movq	input, %rax
	movslq	1232(%rax), %rax
	imulq	%rax, %rsi
	movl	$1, %edx
	callq	lseek
	cmpq	$-1, %rax
	jne	.LBB58_8
# %bb.7:                                # %if.then25
	movq	input, %rax
	movl	1232(%rax), %ecx
	movabsq	$errortext, %rdi
	movl	$300, %esi              # imm = 0x12C
	movabsq	$.L.str.16, %rdx
	movb	$0, %al
	callq	snprintf
	movabsq	$errortext, %rdi
	movl	$4294967295, %esi       # imm = 0xFFFFFFFF
	callq	error
.LBB58_8:                               # %if.end28
	movl	p_in, %edi
	movq	-56(%rbp), %rsi
	movslq	-64(%rbp), %rax
	imulq	%rax, %rsi
	movl	$1, %edx
	callq	lseek
	cmpq	$-1, %rax
	jne	.LBB58_10
# %bb.9:                                # %if.then34
	movq	input, %rax
	movl	1232(%rax), %ecx
	addl	-64(%rbp), %ecx
	movabsq	$errortext, %rdi
	movl	$300, %esi              # imm = 0x12C
	movabsq	$.L.str.16, %rdx
	movb	$0, %al
	callq	snprintf
	movabsq	$errortext, %rdi
	movl	$4294967295, %esi       # imm = 0xFFFFFFFF
	callq	error
.LBB58_10:                              # %if.end38
	movq	img, %rax
	movl	72656(%rax), %eax
	cltd
	movl	$8, %ecx
	idivl	%ecx
	cmpl	$0, %edx
	jne	.LBB58_26
# %bb.11:                               # %if.then42
	cmpl	$0, -32(%rbp)
	je	.LBB58_13
# %bb.12:                               # %if.then43
	movl	p_in, %edi
	movq	-56(%rbp), %rax
	cqto
	movl	$3, %ecx
	idivq	%rcx
	movq	%rax, %rsi
	movl	$1, %edx
	callq	lseek
.LBB58_13:                              # %if.end46
	movl	p_in, %edi
	movq	-24(%rbp), %rsi
	movslq	-4(%rbp), %rdx
	callq	read
	movslq	-4(%rbp), %rcx
	cmpq	%rcx, %rax
	je	.LBB58_15
# %bb.14:                               # %if.then52
	movl	-4(%rbp), %esi
	movabsq	$.L.str.17, %rdi
	movb	$0, %al
	callq	printf
	movb	$0, %al
	callq	report_stats_on_error
	movl	$4294967295, %edi       # imm = 0xFFFFFFFF
	callq	exit
.LBB58_15:                              # %if.end54
	movq	imgY_org_frm, %rdi
	movq	-24(%rbp), %rsi
	movl	-40(%rbp), %edx
	movl	-44(%rbp), %ecx
	movl	-8(%rbp), %r8d
	callq	buf2img
	movq	img, %rax
	cmpl	$0, 72700(%rax)
	je	.LBB58_25
# %bb.16:                               # %if.then58
	movl	p_in, %edi
	movq	-24(%rbp), %rsi
	movslq	-12(%rbp), %rdx
	callq	read
	movslq	-12(%rbp), %rcx
	cmpq	%rcx, %rax
	je	.LBB58_18
# %bb.17:                               # %if.then64
	movl	-4(%rbp), %esi
	movabsq	$.L.str.17, %rdi
	movb	$0, %al
	callq	printf
	movb	$0, %al
	callq	report_stats_on_error
	movl	$4294967295, %edi       # imm = 0xFFFFFFFF
	callq	exit
.LBB58_18:                              # %if.end66
	movq	imgUV_org_frm, %rax
	movq	(%rax), %rdi
	movq	-24(%rbp), %rsi
	movl	-28(%rbp), %edx
	movl	-36(%rbp), %ecx
	movl	-8(%rbp), %r8d
	callq	buf2img
	cmpl	$0, -32(%rbp)
	je	.LBB58_20
# %bb.19:                               # %if.then68
	xorl	%esi, %esi
	movl	p_in, %edi
	subq	-56(%rbp), %rsi
	movl	$1, %edx
	callq	lseek
.LBB58_20:                              # %if.end70
	movl	p_in, %edi
	movq	-24(%rbp), %rsi
	movslq	-12(%rbp), %rdx
	callq	read
	movslq	-12(%rbp), %rcx
	cmpq	%rcx, %rax
	je	.LBB58_22
# %bb.21:                               # %if.then76
	movl	-4(%rbp), %esi
	movabsq	$.L.str.17, %rdi
	movb	$0, %al
	callq	printf
	movb	$0, %al
	callq	report_stats_on_error
	movl	$4294967295, %edi       # imm = 0xFFFFFFFF
	callq	exit
.LBB58_22:                              # %if.end78
	movq	imgUV_org_frm, %rax
	movq	8(%rax), %rdi
	movq	-24(%rbp), %rsi
	movl	-28(%rbp), %edx
	movl	-36(%rbp), %ecx
	movl	-8(%rbp), %r8d
	callq	buf2img
	cmpl	$0, -32(%rbp)
	je	.LBB58_24
# %bb.23:                               # %if.then81
	movl	p_in, %edi
	movq	-56(%rbp), %rax
	shlq	$1, %rax
	cqto
	movl	$3, %ecx
	idivq	%rcx
	movq	%rax, %rsi
	movl	$1, %edx
	callq	lseek
.LBB58_24:                              # %if.end85
	jmp	.LBB58_25
.LBB58_25:                              # %if.end86
	jmp	.LBB58_27
.LBB58_26:                              # %if.else
	movabsq	$.L.str.18, %rdi
	movb	$0, %al
	callq	printf
	movl	$4294967295, %edi       # imm = 0xFFFFFFFF
	callq	exit
.LBB58_27:                              # %if.end88
	movq	-24(%rbp), %rdi
	callq	free
	cmpl	$1968506273, -72(%rbp)  # imm = 0x755505A1
	jne	.LBB58_29
.LBB58_28:
	addq	$80, %rsp
	popq	%rbp
	.cfi_def_cfa %rsp, 8
	retq
.LBB58_29:                              # %func_exit
	.cfi_def_cfa %rbp, 16
	callq	detect_breach
	jmp	.LBB58_28
.Lfunc_end58:
	.size	ReadOneFrame.22, .Lfunc_end58-ReadOneFrame.22
	.cfi_endproc
                                        # -- End function
	.p2align	4, 0x90         # -- Begin function ReportP.23
	.type	ReportP.23,@function
ReportP.23:                             # @ReportP.23
	.cfi_startproc
# %bb.0:                                # %entry
	pushq	%rbp
	.cfi_def_cfa_offset 16
	.cfi_offset %rbp, -16
	movq	%rsp, %rbp
	.cfi_def_cfa_register %rbp
	subq	$48, %rsp
	movl	$1682371009, -12(%rbp)  # imm = 0x6446F1C1
	movl	%edi, -8(%rbp)
	movl	%esi, -4(%rbp)
	movl	frame_no, %esi
	movq	stats, %rax
	movl	16(%rax), %edx
	movq	stats, %rax
	subl	20(%rax), %edx
	movq	active_pps, %rax
	movl	192(%rax), %ecx
	movq	img, %rax
	movl	40(%rax), %r8d
	movq	snr, %rax
	vmovss	(%rax), %xmm0           # xmm0 = mem[0],zero,zero,zero
	vcvtss2sd	%xmm0, %xmm0, %xmm0
	movq	snr, %rax
	vmovss	4(%rax), %xmm1          # xmm1 = mem[0],zero,zero,zero
	vcvtss2sd	%xmm1, %xmm0, %xmm1
	movq	snr, %rax
	vmovss	8(%rax), %xmm2          # xmm2 = mem[0],zero,zero,zero
	vcvtss2sd	%xmm2, %xmm0, %xmm2
	movl	-8(%rbp), %r9d
	movl	-4(%rbp), %r10d
	movq	img, %rdi
	movl	71800(%rdi), %edi
	cmpl	$0, %edi
	movabsq	$.L.str.7, %rdi
	movabsq	$.L.str.8, %rax
	cmovneq	%rdi, %rax
	movl	intras, %r11d
	movabsq	$.L.str.13, %rdi
	movl	%r10d, (%rsp)
	movq	%rax, 8(%rsp)
	movl	%r11d, 16(%rsp)
	movb	$3, %al
	callq	printf
	cmpl	$1682371009, -12(%rbp)  # imm = 0x6446F1C1
	jne	.LBB59_2
.LBB59_1:
	addq	$48, %rsp
	popq	%rbp
	.cfi_def_cfa %rsp, 8
	retq
.LBB59_2:                               # %func_exit
	.cfi_def_cfa %rbp, 16
	callq	detect_breach
	jmp	.LBB59_1
.Lfunc_end59:
	.size	ReportP.23, .Lfunc_end59-ReportP.23
	.cfi_endproc
                                        # -- End function
	.globl	UnifiedOneForthPix.24   # -- Begin function UnifiedOneForthPix.24
	.p2align	4, 0x90
	.type	UnifiedOneForthPix.24,@function
UnifiedOneForthPix.24:                  # @UnifiedOneForthPix.24
	.cfi_startproc
# %bb.0:                                # %entry
	pushq	%rbp
	.cfi_def_cfa_offset 16
	.cfi_offset %rbp, -16
	movq	%rsp, %rbp
	.cfi_def_cfa_register %rbp
	pushq	%r15
	pushq	%r14
	pushq	%r13
	pushq	%r12
	pushq	%rbx
	subq	$88, %rsp
	.cfi_offset %rbx, -56
	.cfi_offset %r12, -48
	.cfi_offset %r13, -40
	.cfi_offset %r14, -32
	.cfi_offset %r15, -24
	movl	$1503420224, -108(%rbp) # imm = 0x599C5F40
	movq	%rdi, -64(%rbp)
	movq	-64(%rbp), %rax
	movq	6424(%rax), %rax
	movq	%rax, -104(%rbp)
	movq	-64(%rbp), %rax
	movl	6392(%rax), %eax
	movl	%eax, -52(%rbp)
	movq	-64(%rbp), %rax
	movl	6396(%rax), %eax
	movl	%eax, -56(%rbp)
	movq	-64(%rbp), %rax
	cmpq	$0, 6448(%rax)
	jne	.LBB60_2
# %bb.1:                                # %lor.lhs.false
	movq	-64(%rbp), %rax
	cmpq	$0, 6432(%rax)
	je	.LBB60_3
.LBB60_2:                               # %if.then
	jmp	.LBB60_266
.LBB60_3:                               # %if.end
	movq	-64(%rbp), %rax
	movl	6392(%rax), %eax
	movq	-64(%rbp), %rcx
	imull	6396(%rcx), %eax
	movslq	%eax, %rdi
	shlq	$1, %rdi
	callq	malloc
	xorl	%ecx, %ecx
	movq	-64(%rbp), %rdx
	movq	%rax, 6432(%rdx)
	movq	-64(%rbp), %rax
	cmpq	6432(%rax), %rcx
	jne	.LBB60_5
# %bb.4:                                # %if.then9
	movabsq	$.L.str.1, %rdi
	callq	no_mem_exit
.LBB60_5:                               # %if.end10
	movq	-64(%rbp), %rdi
	addq	$6448, %rdi             # imm = 0x1930
	movq	-64(%rbp), %rax
	movl	6396(%rax), %esi
	addl	$8, %esi
	shll	$2, %esi
	movq	-64(%rbp), %rax
	movl	6392(%rax), %edx
	addl	$8, %edx
	shll	$2, %edx
	callq	get_mem2Dpel
	movq	input, %rax
	cmpl	$0, 1284(%rax)
	jne	.LBB60_8
# %bb.6:                                # %lor.lhs.false19
	movq	input, %rax
	cmpl	$0, 1288(%rax)
	jne	.LBB60_8
# %bb.7:                                # %lor.lhs.false21
	movq	input, %rax
	cmpl	$0, 60(%rax)
	je	.LBB60_11
.LBB60_8:                               # %if.then23
	movq	-64(%rbp), %rax
	movl	6392(%rax), %eax
	movq	-64(%rbp), %rcx
	imull	6396(%rcx), %eax
	movslq	%eax, %rdi
	shlq	$1, %rdi
	callq	malloc
	xorl	%ecx, %ecx
	movq	-64(%rbp), %rdx
	movq	%rax, 6440(%rdx)
	movq	-64(%rbp), %rax
	cmpq	6440(%rax), %rcx
	jne	.LBB60_10
# %bb.9:                                # %if.then33
	movabsq	$.L.str.2, %rdi
	callq	no_mem_exit
.LBB60_10:                              # %if.end34
	movq	-64(%rbp), %rdi
	addq	$6456, %rdi             # imm = 0x1938
	movq	-64(%rbp), %rax
	movl	6396(%rax), %esi
	addl	$8, %esi
	shll	$2, %esi
	movq	-64(%rbp), %rax
	movl	6392(%rax), %edx
	addl	$8, %edx
	shll	$2, %edx
	callq	get_mem2Dpel
.LBB60_11:                              # %if.end42
	movq	-64(%rbp), %rax
	movq	6448(%rax), %rax
	movq	%rax, -80(%rbp)
	movq	-64(%rbp), %rax
	movq	6432(%rax), %rax
	movq	%rax, -120(%rbp)
	movl	$-4, -48(%rbp)
.LBB60_12:                              # %for.cond
                                        # =>This Loop Header: Depth=1
                                        #     Child Loop BB60_14 Depth 2
	movl	-48(%rbp), %eax
	movq	-64(%rbp), %rcx
	movl	6396(%rcx), %ecx
	addl	$4, %ecx
	cmpl	%ecx, %eax
	jge	.LBB60_91
# %bb.13:                               # %for.body
                                        #   in Loop: Header=BB60_12 Depth=1
	movl	$-4, -44(%rbp)
.LBB60_14:                              # %for.cond49
                                        #   Parent Loop BB60_12 Depth=1
                                        # =>  This Inner Loop Header: Depth=2
	movl	-44(%rbp), %eax
	movq	-64(%rbp), %rcx
	movl	6392(%rcx), %ecx
	addl	$4, %ecx
	cmpl	%ecx, %eax
	jge	.LBB60_89
# %bb.15:                               # %for.body54
                                        #   in Loop: Header=BB60_14 Depth=2
	movq	-64(%rbp), %rax
	movl	6396(%rax), %eax
	subl	$1, %eax
	cmpl	-48(%rbp), %eax
	jge	.LBB60_17
# %bb.16:                               # %cond.true
                                        #   in Loop: Header=BB60_14 Depth=2
	movq	-64(%rbp), %rax
	movl	6396(%rax), %eax
	subl	$1, %eax
	jmp	.LBB60_18
.LBB60_17:                              # %cond.false
                                        #   in Loop: Header=BB60_14 Depth=2
	movl	-48(%rbp), %eax
.LBB60_18:                              # %cond.end
                                        #   in Loop: Header=BB60_14 Depth=2
	xorl	%ecx, %ecx
	cmpl	%eax, %ecx
	jle	.LBB60_20
# %bb.19:                               # %cond.true62
                                        #   in Loop: Header=BB60_14 Depth=2
	xorl	%eax, %eax
	jmp	.LBB60_24
.LBB60_20:                              # %cond.false63
                                        #   in Loop: Header=BB60_14 Depth=2
	movq	-64(%rbp), %rax
	movl	6396(%rax), %eax
	subl	$1, %eax
	cmpl	-48(%rbp), %eax
	jge	.LBB60_22
# %bb.21:                               # %cond.true68
                                        #   in Loop: Header=BB60_14 Depth=2
	movq	-64(%rbp), %rax
	movl	6396(%rax), %eax
	subl	$1, %eax
	jmp	.LBB60_23
.LBB60_22:                              # %cond.false71
                                        #   in Loop: Header=BB60_14 Depth=2
	movl	-48(%rbp), %eax
.LBB60_23:                              # %cond.end72
                                        #   in Loop: Header=BB60_14 Depth=2
.LBB60_24:                              # %cond.end74
                                        #   in Loop: Header=BB60_14 Depth=2
	movl	%eax, -84(%rbp)
	movl	ONE_FOURTH_TAP, %eax
	movq	-104(%rbp), %rcx
	movslq	-84(%rbp), %rdx
	movq	(%rcx,%rdx,8), %rcx
	movq	-64(%rbp), %rdx
	movl	6392(%rdx), %edx
	subl	$1, %edx
	cmpl	-44(%rbp), %edx
	jge	.LBB60_26
# %bb.25:                               # %cond.true80
                                        #   in Loop: Header=BB60_14 Depth=2
	movq	-64(%rbp), %rdx
	movl	6392(%rdx), %edx
	subl	$1, %edx
	jmp	.LBB60_27
.LBB60_26:                              # %cond.false83
                                        #   in Loop: Header=BB60_14 Depth=2
	movl	-44(%rbp), %edx
.LBB60_27:                              # %cond.end84
                                        #   in Loop: Header=BB60_14 Depth=2
	xorl	%esi, %esi
	cmpl	%edx, %esi
	jle	.LBB60_29
# %bb.28:                               # %cond.true88
                                        #   in Loop: Header=BB60_14 Depth=2
	xorl	%edx, %edx
	jmp	.LBB60_33
.LBB60_29:                              # %cond.false89
                                        #   in Loop: Header=BB60_14 Depth=2
	movq	-64(%rbp), %rdx
	movl	6392(%rdx), %edx
	subl	$1, %edx
	cmpl	-44(%rbp), %edx
	jge	.LBB60_31
# %bb.30:                               # %cond.true94
                                        #   in Loop: Header=BB60_14 Depth=2
	movq	-64(%rbp), %rdx
	movl	6392(%rdx), %edx
	subl	$1, %edx
	jmp	.LBB60_32
.LBB60_31:                              # %cond.false97
                                        #   in Loop: Header=BB60_14 Depth=2
	movl	-44(%rbp), %edx
.LBB60_32:                              # %cond.end98
                                        #   in Loop: Header=BB60_14 Depth=2
.LBB60_33:                              # %cond.end100
                                        #   in Loop: Header=BB60_14 Depth=2
	movslq	%edx, %rdx
	movzwl	(%rcx,%rdx,2), %ecx
	movq	-104(%rbp), %rdx
	movslq	-84(%rbp), %rsi
	movq	(%rdx,%rsi,8), %rdx
	movq	-64(%rbp), %rsi
	movl	6392(%rsi), %esi
	subl	$1, %esi
	movl	-44(%rbp), %edi
	addl	$1, %edi
	cmpl	%edi, %esi
	jge	.LBB60_35
# %bb.34:                               # %cond.true112
                                        #   in Loop: Header=BB60_14 Depth=2
	movq	-64(%rbp), %rsi
	movl	6392(%rsi), %esi
	subl	$1, %esi
	jmp	.LBB60_36
.LBB60_35:                              # %cond.false115
                                        #   in Loop: Header=BB60_14 Depth=2
	movl	-44(%rbp), %esi
	addl	$1, %esi
.LBB60_36:                              # %cond.end117
                                        #   in Loop: Header=BB60_14 Depth=2
	xorl	%edi, %edi
	cmpl	%esi, %edi
	jle	.LBB60_38
# %bb.37:                               # %cond.true121
                                        #   in Loop: Header=BB60_14 Depth=2
	xorl	%esi, %esi
	jmp	.LBB60_42
.LBB60_38:                              # %cond.false122
                                        #   in Loop: Header=BB60_14 Depth=2
	movq	-64(%rbp), %rsi
	movl	6392(%rsi), %esi
	subl	$1, %esi
	movl	-44(%rbp), %edi
	addl	$1, %edi
	cmpl	%edi, %esi
	jge	.LBB60_40
# %bb.39:                               # %cond.true128
                                        #   in Loop: Header=BB60_14 Depth=2
	movq	-64(%rbp), %rsi
	movl	6392(%rsi), %esi
	subl	$1, %esi
	jmp	.LBB60_41
.LBB60_40:                              # %cond.false131
                                        #   in Loop: Header=BB60_14 Depth=2
	movl	-44(%rbp), %esi
	addl	$1, %esi
.LBB60_41:                              # %cond.end133
                                        #   in Loop: Header=BB60_14 Depth=2
.LBB60_42:                              # %cond.end135
                                        #   in Loop: Header=BB60_14 Depth=2
	movslq	%esi, %rsi
	movzwl	(%rdx,%rsi,2), %edx
	addl	%edx, %ecx
	imull	%ecx, %eax
	movl	ONE_FOURTH_TAP+8, %ecx
	movq	-104(%rbp), %rdx
	movslq	-84(%rbp), %rsi
	movq	(%rdx,%rsi,8), %rdx
	movq	-64(%rbp), %rsi
	movl	6392(%rsi), %esi
	subl	$1, %esi
	movl	-44(%rbp), %edi
	subl	$1, %edi
	cmpl	%edi, %esi
	jge	.LBB60_44
# %bb.43:                               # %cond.true149
                                        #   in Loop: Header=BB60_14 Depth=2
	movq	-64(%rbp), %rsi
	movl	6392(%rsi), %esi
	subl	$1, %esi
	jmp	.LBB60_45
.LBB60_44:                              # %cond.false152
                                        #   in Loop: Header=BB60_14 Depth=2
	movl	-44(%rbp), %esi
	subl	$1, %esi
.LBB60_45:                              # %cond.end154
                                        #   in Loop: Header=BB60_14 Depth=2
	xorl	%edi, %edi
	cmpl	%esi, %edi
	jle	.LBB60_47
# %bb.46:                               # %cond.true158
                                        #   in Loop: Header=BB60_14 Depth=2
	xorl	%esi, %esi
	jmp	.LBB60_51
.LBB60_47:                              # %cond.false159
                                        #   in Loop: Header=BB60_14 Depth=2
	movq	-64(%rbp), %rsi
	movl	6392(%rsi), %esi
	subl	$1, %esi
	movl	-44(%rbp), %edi
	subl	$1, %edi
	cmpl	%edi, %esi
	jge	.LBB60_49
# %bb.48:                               # %cond.true165
                                        #   in Loop: Header=BB60_14 Depth=2
	movq	-64(%rbp), %rsi
	movl	6392(%rsi), %esi
	subl	$1, %esi
	jmp	.LBB60_50
.LBB60_49:                              # %cond.false168
                                        #   in Loop: Header=BB60_14 Depth=2
	movl	-44(%rbp), %esi
	subl	$1, %esi
.LBB60_50:                              # %cond.end170
                                        #   in Loop: Header=BB60_14 Depth=2
.LBB60_51:                              # %cond.end172
                                        #   in Loop: Header=BB60_14 Depth=2
	movslq	%esi, %rsi
	movzwl	(%rdx,%rsi,2), %edx
	movq	-104(%rbp), %rsi
	movslq	-84(%rbp), %rdi
	movq	(%rsi,%rdi,8), %rsi
	movq	-64(%rbp), %rdi
	movl	6392(%rdi), %edi
	subl	$1, %edi
	movl	-44(%rbp), %ebx
	addl	$2, %ebx
	cmpl	%ebx, %edi
	jge	.LBB60_53
# %bb.52:                               # %cond.true184
                                        #   in Loop: Header=BB60_14 Depth=2
	movq	-64(%rbp), %rdi
	movl	6392(%rdi), %edi
	subl	$1, %edi
	jmp	.LBB60_54
.LBB60_53:                              # %cond.false187
                                        #   in Loop: Header=BB60_14 Depth=2
	movl	-44(%rbp), %edi
	addl	$2, %edi
.LBB60_54:                              # %cond.end189
                                        #   in Loop: Header=BB60_14 Depth=2
	xorl	%ebx, %ebx
	cmpl	%edi, %ebx
	jle	.LBB60_56
# %bb.55:                               # %cond.true193
                                        #   in Loop: Header=BB60_14 Depth=2
	xorl	%edi, %edi
	jmp	.LBB60_60
.LBB60_56:                              # %cond.false194
                                        #   in Loop: Header=BB60_14 Depth=2
	movq	-64(%rbp), %rdi
	movl	6392(%rdi), %edi
	subl	$1, %edi
	movl	-44(%rbp), %ebx
	addl	$2, %ebx
	cmpl	%ebx, %edi
	jge	.LBB60_58
# %bb.57:                               # %cond.true200
                                        #   in Loop: Header=BB60_14 Depth=2
	movq	-64(%rbp), %rdi
	movl	6392(%rdi), %edi
	subl	$1, %edi
	jmp	.LBB60_59
.LBB60_58:                              # %cond.false203
                                        #   in Loop: Header=BB60_14 Depth=2
	movl	-44(%rbp), %edi
	addl	$2, %edi
.LBB60_59:                              # %cond.end205
                                        #   in Loop: Header=BB60_14 Depth=2
.LBB60_60:                              # %cond.end207
                                        #   in Loop: Header=BB60_14 Depth=2
	movslq	%edi, %rdi
	movzwl	(%rsi,%rdi,2), %esi
	addl	%esi, %edx
	imull	%edx, %ecx
	addl	%ecx, %eax
	movl	ONE_FOURTH_TAP+16, %ecx
	movq	-104(%rbp), %rdx
	movslq	-84(%rbp), %rsi
	movq	(%rdx,%rsi,8), %rdx
	movq	-64(%rbp), %rsi
	movl	6392(%rsi), %esi
	subl	$1, %esi
	movl	-44(%rbp), %edi
	subl	$2, %edi
	cmpl	%edi, %esi
	jge	.LBB60_62
# %bb.61:                               # %cond.true222
                                        #   in Loop: Header=BB60_14 Depth=2
	movq	-64(%rbp), %rsi
	movl	6392(%rsi), %esi
	subl	$1, %esi
	jmp	.LBB60_63
.LBB60_62:                              # %cond.false225
                                        #   in Loop: Header=BB60_14 Depth=2
	movl	-44(%rbp), %esi
	subl	$2, %esi
.LBB60_63:                              # %cond.end227
                                        #   in Loop: Header=BB60_14 Depth=2
	xorl	%edi, %edi
	cmpl	%esi, %edi
	jle	.LBB60_65
# %bb.64:                               # %cond.true231
                                        #   in Loop: Header=BB60_14 Depth=2
	xorl	%esi, %esi
	jmp	.LBB60_69
.LBB60_65:                              # %cond.false232
                                        #   in Loop: Header=BB60_14 Depth=2
	movq	-64(%rbp), %rsi
	movl	6392(%rsi), %esi
	subl	$1, %esi
	movl	-44(%rbp), %edi
	subl	$2, %edi
	cmpl	%edi, %esi
	jge	.LBB60_67
# %bb.66:                               # %cond.true238
                                        #   in Loop: Header=BB60_14 Depth=2
	movq	-64(%rbp), %rsi
	movl	6392(%rsi), %esi
	subl	$1, %esi
	jmp	.LBB60_68
.LBB60_67:                              # %cond.false241
                                        #   in Loop: Header=BB60_14 Depth=2
	movl	-44(%rbp), %esi
	subl	$2, %esi
.LBB60_68:                              # %cond.end243
                                        #   in Loop: Header=BB60_14 Depth=2
.LBB60_69:                              # %cond.end245
                                        #   in Loop: Header=BB60_14 Depth=2
	movslq	%esi, %rsi
	movzwl	(%rdx,%rsi,2), %edx
	movq	-104(%rbp), %rsi
	movslq	-84(%rbp), %rdi
	movq	(%rsi,%rdi,8), %rsi
	movq	-64(%rbp), %rdi
	movl	6392(%rdi), %edi
	subl	$1, %edi
	movl	-44(%rbp), %ebx
	addl	$3, %ebx
	cmpl	%ebx, %edi
	jge	.LBB60_71
# %bb.70:                               # %cond.true257
                                        #   in Loop: Header=BB60_14 Depth=2
	movq	-64(%rbp), %rdi
	movl	6392(%rdi), %edi
	subl	$1, %edi
	jmp	.LBB60_72
.LBB60_71:                              # %cond.false260
                                        #   in Loop: Header=BB60_14 Depth=2
	movl	-44(%rbp), %edi
	addl	$3, %edi
.LBB60_72:                              # %cond.end262
                                        #   in Loop: Header=BB60_14 Depth=2
	xorl	%ebx, %ebx
	cmpl	%edi, %ebx
	jle	.LBB60_74
# %bb.73:                               # %cond.true266
                                        #   in Loop: Header=BB60_14 Depth=2
	xorl	%edi, %edi
	jmp	.LBB60_78
.LBB60_74:                              # %cond.false267
                                        #   in Loop: Header=BB60_14 Depth=2
	movq	-64(%rbp), %rdi
	movl	6392(%rdi), %edi
	subl	$1, %edi
	movl	-44(%rbp), %ebx
	addl	$3, %ebx
	cmpl	%ebx, %edi
	jge	.LBB60_76
# %bb.75:                               # %cond.true273
                                        #   in Loop: Header=BB60_14 Depth=2
	movq	-64(%rbp), %rdi
	movl	6392(%rdi), %edi
	subl	$1, %edi
	jmp	.LBB60_77
.LBB60_76:                              # %cond.false276
                                        #   in Loop: Header=BB60_14 Depth=2
	movl	-44(%rbp), %edi
	addl	$3, %edi
.LBB60_77:                              # %cond.end278
                                        #   in Loop: Header=BB60_14 Depth=2
.LBB60_78:                              # %cond.end280
                                        #   in Loop: Header=BB60_14 Depth=2
	movslq	%edi, %rdi
	movzwl	(%rsi,%rdi,2), %esi
	addl	%esi, %edx
	imull	%edx, %ecx
	addl	%ecx, %eax
	movl	%eax, -92(%rbp)
	movq	-104(%rbp), %rax
	movslq	-84(%rbp), %rcx
	movq	(%rax,%rcx,8), %rax
	movq	-64(%rbp), %rcx
	movl	6392(%rcx), %ecx
	subl	$1, %ecx
	cmpl	-44(%rbp), %ecx
	jge	.LBB60_80
# %bb.79:                               # %cond.true294
                                        #   in Loop: Header=BB60_14 Depth=2
	movq	-64(%rbp), %rcx
	movl	6392(%rcx), %ecx
	subl	$1, %ecx
	jmp	.LBB60_81
.LBB60_80:                              # %cond.false297
                                        #   in Loop: Header=BB60_14 Depth=2
	movl	-44(%rbp), %ecx
.LBB60_81:                              # %cond.end298
                                        #   in Loop: Header=BB60_14 Depth=2
	xorl	%edx, %edx
	cmpl	%ecx, %edx
	jle	.LBB60_83
# %bb.82:                               # %cond.true302
                                        #   in Loop: Header=BB60_14 Depth=2
	xorl	%ecx, %ecx
	jmp	.LBB60_87
.LBB60_83:                              # %cond.false303
                                        #   in Loop: Header=BB60_14 Depth=2
	movq	-64(%rbp), %rcx
	movl	6392(%rcx), %ecx
	subl	$1, %ecx
	cmpl	-44(%rbp), %ecx
	jge	.LBB60_85
# %bb.84:                               # %cond.true308
                                        #   in Loop: Header=BB60_14 Depth=2
	movq	-64(%rbp), %rcx
	movl	6392(%rcx), %ecx
	subl	$1, %ecx
	jmp	.LBB60_86
.LBB60_85:                              # %cond.false311
                                        #   in Loop: Header=BB60_14 Depth=2
	movl	-44(%rbp), %ecx
.LBB60_86:                              # %cond.end312
                                        #   in Loop: Header=BB60_14 Depth=2
.LBB60_87:                              # %cond.end314
                                        #   in Loop: Header=BB60_14 Depth=2
	movslq	%ecx, %rcx
	movzwl	(%rax,%rcx,2), %eax
	shll	$10, %eax
	movq	img4Y_tmp, %rcx
	movl	-48(%rbp), %edx
	addl	$4, %edx
	movslq	%edx, %rdx
	movq	(%rcx,%rdx,8), %rcx
	movl	-44(%rbp), %edx
	addl	$4, %edx
	shll	$1, %edx
	movslq	%edx, %rdx
	movl	%eax, (%rcx,%rdx,4)
	movl	-92(%rbp), %eax
	shll	$5, %eax
	movq	img4Y_tmp, %rcx
	movl	-48(%rbp), %edx
	addl	$4, %edx
	movslq	%edx, %rdx
	movq	(%rcx,%rdx,8), %rcx
	movl	-44(%rbp), %edx
	addl	$4, %edx
	shll	$1, %edx
	addl	$1, %edx
	movslq	%edx, %rdx
	movl	%eax, (%rcx,%rdx,4)
# %bb.88:                               # %for.inc
                                        #   in Loop: Header=BB60_14 Depth=2
	movl	-44(%rbp), %eax
	addl	$1, %eax
	movl	%eax, -44(%rbp)
	jmp	.LBB60_14
.LBB60_89:                              # %for.end
                                        #   in Loop: Header=BB60_12 Depth=1
	jmp	.LBB60_90
.LBB60_90:                              # %for.inc336
                                        #   in Loop: Header=BB60_12 Depth=1
	movl	-48(%rbp), %eax
	addl	$1, %eax
	movl	%eax, -48(%rbp)
	jmp	.LBB60_12
.LBB60_91:                              # %for.end338
	movl	$0, -44(%rbp)
.LBB60_92:                              # %for.cond339
                                        # =>This Loop Header: Depth=1
                                        #     Child Loop BB60_94 Depth 2
	movl	-44(%rbp), %eax
	movq	-64(%rbp), %rcx
	movl	6392(%rcx), %ecx
	addl	$8, %ecx
	shll	$1, %ecx
	cmpl	%ecx, %eax
	jge	.LBB60_132
# %bb.93:                               # %for.body345
                                        #   in Loop: Header=BB60_92 Depth=1
	movl	$0, -48(%rbp)
.LBB60_94:                              # %for.cond346
                                        #   Parent Loop BB60_92 Depth=1
