	.text
	.file	"image.c"
	.globl	MbAffPostProc           # -- Begin function MbAffPostProc
	.p2align	4, 0x90
	.type	MbAffPostProc,@function
MbAffPostProc:                          # @MbAffPostProc
	.cfi_startproc
# %bb.0:                                # %rand_bb
	pushq	%rbp
	.cfi_def_cfa_offset 16
	.cfi_offset %rbp, -16
	movq	%rsp, %rbp
	.cfi_def_cfa_register %rbp
	callq	get_rand
	cmpl	$0, %eax
	jne	.LBB0_9
# %bb.1:                                # %func_MbAffPostProc.19
	callq	MbAffPostProc.19
	popq	%rbp
	.cfi_def_cfa %rsp, 8
	retq
.LBB0_2:                                # %func_MbAffPostProc.26
	.cfi_def_cfa %rbp, 16
	callq	MbAffPostProc.26
	popq	%rbp
	.cfi_def_cfa %rsp, 8
	retq
.LBB0_3:                                # %func_MbAffPostProc.45
	.cfi_def_cfa %rbp, 16
	callq	MbAffPostProc.45
	popq	%rbp
	.cfi_def_cfa %rsp, 8
	retq
.LBB0_4:                                # %func_MbAffPostProc.60
	.cfi_def_cfa %rbp, 16
	callq	MbAffPostProc.60
	popq	%rbp
	.cfi_def_cfa %rsp, 8
	retq
.LBB0_5:                                # %func_MbAffPostProc.88
	.cfi_def_cfa %rbp, 16
	callq	MbAffPostProc.88
	popq	%rbp
	.cfi_def_cfa %rsp, 8
	retq
.LBB0_6:                                # %func_MbAffPostProc.105
	.cfi_def_cfa %rbp, 16
	callq	MbAffPostProc.105
	popq	%rbp
	.cfi_def_cfa %rsp, 8
	retq
.LBB0_7:                                # %func_MbAffPostProc.106
	.cfi_def_cfa %rbp, 16
	callq	MbAffPostProc.106
	popq	%rbp
	.cfi_def_cfa %rsp, 8
	retq
.LBB0_8:                                # %func_MbAffPostProc.146
	.cfi_def_cfa %rbp, 16
	callq	MbAffPostProc.146
	popq	%rbp
	.cfi_def_cfa %rsp, 8
	retq
.LBB0_9:                                # %ctrl0
	.cfi_def_cfa %rbp, 16
	cmpl	$1, %eax
	je	.LBB0_2
# %bb.10:                               # %ctrl1
	cmpl	$2, %eax
	je	.LBB0_3
# %bb.11:                               # %ctrl2
	cmpl	$3, %eax
	je	.LBB0_4
# %bb.12:                               # %ctrl3
	cmpl	$4, %eax
	je	.LBB0_5
# %bb.13:                               # %ctrl4
	cmpl	$5, %eax
	je	.LBB0_6
# %bb.14:                               # %ctrl5
	cmpl	$6, %eax
	je	.LBB0_7
	jmp	.LBB0_8
.Lfunc_end0:
	.size	MbAffPostProc, .Lfunc_end0-MbAffPostProc
	.cfi_endproc
                                        # -- End function
	.globl	code_a_picture          # -- Begin function code_a_picture
	.p2align	4, 0x90
	.type	code_a_picture,@function
code_a_picture:                         # @code_a_picture
	.cfi_startproc
# %bb.0:                                # %rand_bb
	pushq	%rbp
	.cfi_def_cfa_offset 16
	.cfi_offset %rbp, -16
	movq	%rsp, %rbp
	.cfi_def_cfa_register %rbp
	pushq	%rbx
	pushq	%rax
	.cfi_offset %rbx, -24
	movq	%rdi, %rbx
	callq	get_rand
	cmpl	$0, %eax
	jne	.LBB1_9
# %bb.1:                                # %func_code_a_picture.2
	movq	%rbx, %rdi
	callq	code_a_picture.2
	addq	$8, %rsp
	popq	%rbx
	popq	%rbp
	.cfi_def_cfa %rsp, 8
	retq
.LBB1_2:                                # %func_code_a_picture.12
	.cfi_def_cfa %rbp, 16
	movq	%rbx, %rdi
	callq	code_a_picture.12
	addq	$8, %rsp
	popq	%rbx
	popq	%rbp
	.cfi_def_cfa %rsp, 8
	retq
.LBB1_3:                                # %func_code_a_picture.37
	.cfi_def_cfa %rbp, 16
	movq	%rbx, %rdi
	callq	code_a_picture.37
	addq	$8, %rsp
	popq	%rbx
	popq	%rbp
	.cfi_def_cfa %rsp, 8
	retq
.LBB1_4:                                # %func_code_a_picture.111
	.cfi_def_cfa %rbp, 16
	movq	%rbx, %rdi
	callq	code_a_picture.111
	addq	$8, %rsp
	popq	%rbx
	popq	%rbp
	.cfi_def_cfa %rsp, 8
	retq
.LBB1_5:                                # %func_code_a_picture.117
	.cfi_def_cfa %rbp, 16
	movq	%rbx, %rdi
	callq	code_a_picture.117
	addq	$8, %rsp
	popq	%rbx
	popq	%rbp
	.cfi_def_cfa %rsp, 8
	retq
.LBB1_6:                                # %func_code_a_picture.124
	.cfi_def_cfa %rbp, 16
	movq	%rbx, %rdi
	callq	code_a_picture.124
	addq	$8, %rsp
	popq	%rbx
	popq	%rbp
	.cfi_def_cfa %rsp, 8
	retq
.LBB1_7:                                # %func_code_a_picture.150
	.cfi_def_cfa %rbp, 16
	movq	%rbx, %rdi
	callq	code_a_picture.150
	addq	$8, %rsp
	popq	%rbx
	popq	%rbp
	.cfi_def_cfa %rsp, 8
	retq
.LBB1_8:                                # %func_code_a_picture.181
	.cfi_def_cfa %rbp, 16
	movq	%rbx, %rdi
	callq	code_a_picture.181
	addq	$8, %rsp
	popq	%rbx
	popq	%rbp
	.cfi_def_cfa %rsp, 8
	retq
.LBB1_9:                                # %ctrl0
	.cfi_def_cfa %rbp, 16
	cmpl	$1, %eax
	je	.LBB1_2
# %bb.10:                               # %ctrl1
	cmpl	$2, %eax
	je	.LBB1_3
# %bb.11:                               # %ctrl2
	cmpl	$3, %eax
	je	.LBB1_4
# %bb.12:                               # %ctrl3
	cmpl	$4, %eax
	je	.LBB1_5
# %bb.13:                               # %ctrl4
	cmpl	$5, %eax
	je	.LBB1_6
# %bb.14:                               # %ctrl5
	cmpl	$6, %eax
	je	.LBB1_7
	jmp	.LBB1_8
.Lfunc_end1:
	.size	code_a_picture, .Lfunc_end1-code_a_picture
	.cfi_endproc
                                        # -- End function
	.globl	encode_one_frame        # -- Begin function encode_one_frame
	.p2align	4, 0x90
	.type	encode_one_frame,@function
encode_one_frame:                       # @encode_one_frame
	.cfi_startproc
# %bb.0:                                # %rand_bb
	pushq	%rbp
	.cfi_def_cfa_offset 16
	.cfi_offset %rbp, -16
	movq	%rsp, %rbp
	.cfi_def_cfa_register %rbp
	callq	get_rand
	cmpl	$0, %eax
	jne	.LBB2_9
# %bb.1:                                # %func_encode_one_frame.4
	callq	encode_one_frame.4
	popq	%rbp
	.cfi_def_cfa %rsp, 8
	retq
.LBB2_2:                                # %func_encode_one_frame.11
	.cfi_def_cfa %rbp, 16
	callq	encode_one_frame.11
	popq	%rbp
	.cfi_def_cfa %rsp, 8
	retq
.LBB2_3:                                # %func_encode_one_frame.32
	.cfi_def_cfa %rbp, 16
	callq	encode_one_frame.32
	popq	%rbp
	.cfi_def_cfa %rsp, 8
	retq
.LBB2_4:                                # %func_encode_one_frame.40
	.cfi_def_cfa %rbp, 16
	callq	encode_one_frame.40
	popq	%rbp
	.cfi_def_cfa %rsp, 8
	retq
.LBB2_5:                                # %func_encode_one_frame.70
	.cfi_def_cfa %rbp, 16
	callq	encode_one_frame.70
	popq	%rbp
	.cfi_def_cfa %rsp, 8
	retq
.LBB2_6:                                # %func_encode_one_frame.83
	.cfi_def_cfa %rbp, 16
	callq	encode_one_frame.83
	popq	%rbp
	.cfi_def_cfa %rsp, 8
	retq
.LBB2_7:                                # %func_encode_one_frame.158
	.cfi_def_cfa %rbp, 16
	callq	encode_one_frame.158
	popq	%rbp
	.cfi_def_cfa %rsp, 8
	retq
.LBB2_8:                                # %func_encode_one_frame.164
	.cfi_def_cfa %rbp, 16
	callq	encode_one_frame.164
	popq	%rbp
	.cfi_def_cfa %rsp, 8
	retq
.LBB2_9:                                # %ctrl0
	.cfi_def_cfa %rbp, 16
	cmpl	$1, %eax
	je	.LBB2_2
# %bb.10:                               # %ctrl1
	cmpl	$2, %eax
	je	.LBB2_3
# %bb.11:                               # %ctrl2
	cmpl	$3, %eax
	je	.LBB2_4
# %bb.12:                               # %ctrl3
	cmpl	$4, %eax
	je	.LBB2_5
# %bb.13:                               # %ctrl4
	cmpl	$5, %eax
	je	.LBB2_6
# %bb.14:                               # %ctrl5
	cmpl	$6, %eax
	je	.LBB2_7
	jmp	.LBB2_8
.Lfunc_end2:
	.size	encode_one_frame, .Lfunc_end2-encode_one_frame
	.cfi_endproc
                                        # -- End function
	.p2align	4, 0x90         # -- Begin function ReadOneFrame
	.type	ReadOneFrame,@function
ReadOneFrame:                           # @ReadOneFrame
	.cfi_startproc
# %bb.0:                                # %rand_bb
	pushq	%rbp
	.cfi_def_cfa_offset 16
	.cfi_offset %rbp, -16
	movq	%rsp, %rbp
	.cfi_def_cfa_register %rbp
	pushq	%r15
	pushq	%r14
	pushq	%r13
	pushq	%r12
	pushq	%rbx
	pushq	%rax
	.cfi_offset %rbx, -56
	.cfi_offset %r12, -48
	.cfi_offset %r13, -40
	.cfi_offset %r14, -32
	.cfi_offset %r15, -24
	movl	%r9d, -44(%rbp)         # 4-byte Spill
	movl	%r8d, %r12d
	movl	%ecx, %r13d
	movl	%edx, %ebx
	movl	%esi, %r14d
	movl	%edi, %r15d
	callq	get_rand
	cmpl	$0, %eax
	jne	.LBB3_9
# %bb.1:                                # %func_ReadOneFrame.43
	movl	%r15d, %edi
	movl	%r14d, %esi
	movl	%ebx, %edx
	movl	%r13d, %ecx
	movl	%r12d, %r8d
	movl	-44(%rbp), %r9d         # 4-byte Reload
	callq	ReadOneFrame.43
	addq	$8, %rsp
	popq	%rbx
	popq	%r12
	popq	%r13
	popq	%r14
	popq	%r15
	popq	%rbp
	.cfi_def_cfa %rsp, 8
	retq
.LBB3_2:                                # %func_ReadOneFrame.121
	.cfi_def_cfa %rbp, 16
	movl	%r15d, %edi
	movl	%r14d, %esi
	movl	%ebx, %edx
	movl	%r13d, %ecx
	movl	%r12d, %r8d
	callq	ReadOneFrame.121
	addq	$8, %rsp
	popq	%rbx
	popq	%r12
	popq	%r13
	popq	%r14
	popq	%r15
	popq	%rbp
	.cfi_def_cfa %rsp, 8
	retq
.LBB3_3:                                # %func_ReadOneFrame.137
	.cfi_def_cfa %rbp, 16
	movl	%r15d, %edi
	movl	%r14d, %esi
	movl	%ebx, %edx
	movl	%r13d, %ecx
	movl	%r12d, %r8d
	callq	ReadOneFrame.137
	addq	$8, %rsp
	popq	%rbx
	popq	%r12
	popq	%r13
	popq	%r14
	popq	%r15
	popq	%rbp
	.cfi_def_cfa %rsp, 8
	retq
.LBB3_4:                                # %func_ReadOneFrame.149
	.cfi_def_cfa %rbp, 16
	movl	%r15d, %edi
	movl	%r14d, %esi
	movl	%ebx, %edx
	movl	%r13d, %ecx
	movl	%r12d, %r8d
	callq	ReadOneFrame.149
	addq	$8, %rsp
	popq	%rbx
	popq	%r12
	popq	%r13
	popq	%r14
	popq	%r15
	popq	%rbp
	.cfi_def_cfa %rsp, 8
	retq
.LBB3_5:                                # %func_ReadOneFrame.153
	.cfi_def_cfa %rbp, 16
	movl	%r15d, %edi
	movl	%r14d, %esi
	movl	%ebx, %edx
	movl	%r13d, %ecx
	movl	%r12d, %r8d
	callq	ReadOneFrame.153
	addq	$8, %rsp
	popq	%rbx
	popq	%r12
	popq	%r13
	popq	%r14
	popq	%r15
	popq	%rbp
	.cfi_def_cfa %rsp, 8
	retq
.LBB3_6:                                # %func_ReadOneFrame.156
	.cfi_def_cfa %rbp, 16
	movl	%r15d, %edi
	movl	%r14d, %esi
	movl	%ebx, %edx
	movl	%r13d, %ecx
	movl	%r12d, %r8d
	callq	ReadOneFrame.156
	addq	$8, %rsp
	popq	%rbx
	popq	%r12
	popq	%r13
	popq	%r14
	popq	%r15
	popq	%rbp
	.cfi_def_cfa %rsp, 8
	retq
.LBB3_7:                                # %func_ReadOneFrame.157
	.cfi_def_cfa %rbp, 16
	callq	ReadOneFrame.157
	addq	$8, %rsp
	popq	%rbx
	popq	%r12
	popq	%r13
	popq	%r14
	popq	%r15
	popq	%rbp
	.cfi_def_cfa %rsp, 8
	retq
.LBB3_8:                                # %func_ReadOneFrame.168
	.cfi_def_cfa %rbp, 16
	callq	ReadOneFrame.168
	addq	$8, %rsp
	popq	%rbx
	popq	%r12
	popq	%r13
	popq	%r14
	popq	%r15
	popq	%rbp
	.cfi_def_cfa %rsp, 8
	retq
.LBB3_9:                                # %ctrl0
	.cfi_def_cfa %rbp, 16
	movl	-44(%rbp), %r9d         # 4-byte Reload
	cmpl	$1, %eax
	je	.LBB3_2
# %bb.10:                               # %ctrl1
	cmpl	$2, %eax
	je	.LBB3_3
# %bb.11:                               # %ctrl2
	cmpl	$3, %eax
	je	.LBB3_4
# %bb.12:                               # %ctrl3
	cmpl	$4, %eax
	je	.LBB3_5
# %bb.13:                               # %ctrl4
	cmpl	$5, %eax
	je	.LBB3_6
# %bb.14:                               # %ctrl5
	cmpl	$6, %eax
	movl	%r12d, %r8d
	movl	%r13d, %ecx
	movl	%ebx, %edx
	movl	%r14d, %esi
	movl	%r15d, %edi
	je	.LBB3_7
	jmp	.LBB3_8
.Lfunc_end3:
	.size	ReadOneFrame, .Lfunc_end3-ReadOneFrame
	.cfi_endproc
                                        # -- End function
	.p2align	4, 0x90         # -- Begin function PaddAutoCropBorders
	.type	PaddAutoCropBorders,@function
PaddAutoCropBorders:                    # @PaddAutoCropBorders
	.cfi_startproc
# %bb.0:                                # %rand_bb
	pushq	%rbp
	.cfi_def_cfa_offset 16
	.cfi_offset %rbp, -16
	movq	%rsp, %rbp
	.cfi_def_cfa_register %rbp
	pushq	%r15
	pushq	%r14
	pushq	%r13
	pushq	%r12
	pushq	%rbx
	subq	$24, %rsp
	.cfi_offset %rbx, -56
	.cfi_offset %r12, -48
	.cfi_offset %r13, -40
	.cfi_offset %r14, -32
	.cfi_offset %r15, -24
	movl	%r9d, -44(%rbp)         # 4-byte Spill
	movl	%r8d, %r15d
	movl	%ecx, %r12d
	movl	%edx, %ebx
	movl	%esi, %r14d
	movl	%edi, %r13d
	callq	get_rand
	cmpl	$0, %eax
	jne	.LBB4_9
# %bb.1:                                # %func_PaddAutoCropBorders.51
	movl	%r13d, %edi
	movl	%r14d, %esi
	movl	%ebx, %edx
	movl	%r12d, %ecx
	movl	%r15d, %r8d
	movl	-44(%rbp), %r9d         # 4-byte Reload
	movl	16(%rbp), %eax
	movl	%eax, (%rsp)
	movl	24(%rbp), %eax
	movl	%eax, 8(%rsp)
	callq	PaddAutoCropBorders.51
	addq	$24, %rsp
	popq	%rbx
	popq	%r12
	popq	%r13
	popq	%r14
	popq	%r15
	popq	%rbp
	.cfi_def_cfa %rsp, 8
	retq
.LBB4_2:                                # %func_PaddAutoCropBorders.59
	.cfi_def_cfa %rbp, 16
	movl	%r13d, %edi
	movl	%r14d, %esi
	movl	%ebx, %edx
	movl	%r12d, %ecx
	movl	%r15d, %r8d
	movl	%r11d, (%rsp)
	movl	%r10d, 8(%rsp)
	callq	PaddAutoCropBorders.59
	addq	$24, %rsp
	popq	%rbx
	popq	%r12
	popq	%r13
	popq	%r14
	popq	%r15
	popq	%rbp
	.cfi_def_cfa %rsp, 8
	retq
.LBB4_3:                                # %func_PaddAutoCropBorders.85
	.cfi_def_cfa %rbp, 16
	movl	%r13d, %edi
	movl	%r14d, %esi
	movl	%ebx, %edx
	movl	%r12d, %ecx
	movl	%r15d, %r8d
	movl	%r11d, (%rsp)
	movl	%r10d, 8(%rsp)
	callq	PaddAutoCropBorders.85
	addq	$24, %rsp
	popq	%rbx
	popq	%r12
	popq	%r13
	popq	%r14
	popq	%r15
	popq	%rbp
	.cfi_def_cfa %rsp, 8
	retq
.LBB4_4:                                # %func_PaddAutoCropBorders.87
	.cfi_def_cfa %rbp, 16
	movl	%r13d, %edi
	movl	%r14d, %esi
	movl	%ebx, %edx
	movl	%r12d, %ecx
	movl	%r15d, %r8d
	movl	%r11d, (%rsp)
	movl	%r10d, 8(%rsp)
	callq	PaddAutoCropBorders.87
	addq	$24, %rsp
	popq	%rbx
	popq	%r12
	popq	%r13
	popq	%r14
	popq	%r15
	popq	%rbp
	.cfi_def_cfa %rsp, 8
	retq
.LBB4_5:                                # %func_PaddAutoCropBorders.99
	.cfi_def_cfa %rbp, 16
	movl	%r13d, %edi
	movl	%r14d, %esi
	movl	%ebx, %edx
	movl	%r12d, %ecx
	movl	%r15d, %r8d
	movl	%r11d, (%rsp)
	movl	%r10d, 8(%rsp)
	callq	PaddAutoCropBorders.99
	addq	$24, %rsp
	popq	%rbx
	popq	%r12
	popq	%r13
	popq	%r14
	popq	%r15
	popq	%rbp
	.cfi_def_cfa %rsp, 8
	retq
.LBB4_6:                                # %func_PaddAutoCropBorders.104
	.cfi_def_cfa %rbp, 16
	movl	%r13d, %edi
	movl	%r14d, %esi
	movl	%ebx, %edx
	movl	%r12d, %ecx
	movl	%r15d, %r8d
	movl	%r11d, (%rsp)
	movl	%r10d, 8(%rsp)
	callq	PaddAutoCropBorders.104
	addq	$24, %rsp
	popq	%rbx
	popq	%r12
	popq	%r13
	popq	%r14
	popq	%r15
	popq	%rbp
	.cfi_def_cfa %rsp, 8
	retq
.LBB4_7:                                # %func_PaddAutoCropBorders.140
	.cfi_def_cfa %rbp, 16
	movl	%r11d, (%rsp)
	movl	%r10d, 8(%rsp)
	callq	PaddAutoCropBorders.140
	addq	$24, %rsp
	popq	%rbx
	popq	%r12
	popq	%r13
	popq	%r14
	popq	%r15
	popq	%rbp
	.cfi_def_cfa %rsp, 8
	retq
.LBB4_8:                                # %func_PaddAutoCropBorders.144
	.cfi_def_cfa %rbp, 16
	movl	%r11d, (%rsp)
	movl	%r10d, 8(%rsp)
	callq	PaddAutoCropBorders.144
	addq	$24, %rsp
	popq	%rbx
	popq	%r12
	popq	%r13
	popq	%r14
	popq	%r15
	popq	%rbp
	.cfi_def_cfa %rsp, 8
	retq
.LBB4_9:                                # %ctrl0
	.cfi_def_cfa %rbp, 16
	movl	-44(%rbp), %r9d         # 4-byte Reload
	movl	16(%rbp), %r11d
	movl	24(%rbp), %r10d
	cmpl	$1, %eax
	je	.LBB4_2
# %bb.10:                               # %ctrl1
	cmpl	$2, %eax
	je	.LBB4_3
# %bb.11:                               # %ctrl2
	cmpl	$3, %eax
	je	.LBB4_4
# %bb.12:                               # %ctrl3
	cmpl	$4, %eax
	je	.LBB4_5
# %bb.13:                               # %ctrl4
	cmpl	$5, %eax
	je	.LBB4_6
# %bb.14:                               # %ctrl5
	cmpl	$6, %eax
	movl	%r15d, %r8d
	movl	%r12d, %ecx
	movl	%ebx, %edx
	movl	%r14d, %esi
	movl	%r13d, %edi
	je	.LBB4_7
	jmp	.LBB4_8
.Lfunc_end4:
	.size	PaddAutoCropBorders, .Lfunc_end4-PaddAutoCropBorders
	.cfi_endproc
                                        # -- End function
	.globl	field_picture           # -- Begin function field_picture
	.p2align	4, 0x90
	.type	field_picture,@function
field_picture:                          # @field_picture
	.cfi_startproc
# %bb.0:                                # %rand_bb
	pushq	%rbp
	.cfi_def_cfa_offset 16
	.cfi_offset %rbp, -16
	movq	%rsp, %rbp
	.cfi_def_cfa_register %rbp
	pushq	%r14
	pushq	%rbx
	.cfi_offset %rbx, -32
	.cfi_offset %r14, -24
	movq	%rsi, %r14
	movq	%rdi, %rbx
	callq	get_rand
	cmpl	$0, %eax
	jne	.LBB5_9
# %bb.1:                                # %func_field_picture.23
	movq	%rbx, %rdi
	movq	%r14, %rsi
	callq	field_picture.23
	popq	%rbx
	popq	%r14
	popq	%rbp
	.cfi_def_cfa %rsp, 8
	retq
.LBB5_2:                                # %func_field_picture.63
	.cfi_def_cfa %rbp, 16
	movq	%rbx, %rdi
	movq	%r14, %rsi
	callq	field_picture.63
	popq	%rbx
	popq	%r14
	popq	%rbp
	.cfi_def_cfa %rsp, 8
	retq
.LBB5_3:                                # %func_field_picture.103
	.cfi_def_cfa %rbp, 16
	movq	%rbx, %rdi
	movq	%r14, %rsi
	callq	field_picture.103
	popq	%rbx
	popq	%r14
	popq	%rbp
	.cfi_def_cfa %rsp, 8
	retq
.LBB5_4:                                # %func_field_picture.128
	.cfi_def_cfa %rbp, 16
	movq	%rbx, %rdi
	movq	%r14, %rsi
	callq	field_picture.128
	popq	%rbx
	popq	%r14
	popq	%rbp
	.cfi_def_cfa %rsp, 8
	retq
.LBB5_5:                                # %func_field_picture.171
	.cfi_def_cfa %rbp, 16
	movq	%rbx, %rdi
	movq	%r14, %rsi
	callq	field_picture.171
	popq	%rbx
	popq	%r14
	popq	%rbp
	.cfi_def_cfa %rsp, 8
	retq
.LBB5_6:                                # %func_field_picture.178
	.cfi_def_cfa %rbp, 16
	movq	%rbx, %rdi
	movq	%r14, %rsi
	callq	field_picture.178
	popq	%rbx
	popq	%r14
	popq	%rbp
	.cfi_def_cfa %rsp, 8
	retq
.LBB5_7:                                # %func_field_picture.180
	.cfi_def_cfa %rbp, 16
	movq	%rbx, %rdi
	movq	%r14, %rsi
	callq	field_picture.180
	popq	%rbx
	popq	%r14
	popq	%rbp
	.cfi_def_cfa %rsp, 8
	retq
.LBB5_8:                                # %func_field_picture.182
	.cfi_def_cfa %rbp, 16
	movq	%rbx, %rdi
	movq	%r14, %rsi
	callq	field_picture.182
	popq	%rbx
	popq	%r14
	popq	%rbp
	.cfi_def_cfa %rsp, 8
	retq
.LBB5_9:                                # %ctrl0
	.cfi_def_cfa %rbp, 16
	cmpl	$1, %eax
	je	.LBB5_2
# %bb.10:                               # %ctrl1
	cmpl	$2, %eax
	je	.LBB5_3
# %bb.11:                               # %ctrl2
	cmpl	$3, %eax
	je	.LBB5_4
# %bb.12:                               # %ctrl3
	cmpl	$4, %eax
	je	.LBB5_5
# %bb.13:                               # %ctrl4
	cmpl	$5, %eax
	je	.LBB5_6
# %bb.14:                               # %ctrl5
	cmpl	$6, %eax
	je	.LBB5_7
	jmp	.LBB5_8
.Lfunc_end5:
	.size	field_picture, .Lfunc_end5-field_picture
	.cfi_endproc
                                        # -- End function
	.globl	frame_picture           # -- Begin function frame_picture
	.p2align	4, 0x90
	.type	frame_picture,@function
frame_picture:                          # @frame_picture
	.cfi_startproc
# %bb.0:                                # %rand_bb
	pushq	%rbp
	.cfi_def_cfa_offset 16
	.cfi_offset %rbp, -16
	movq	%rsp, %rbp
	.cfi_def_cfa_register %rbp
	pushq	%r14
	pushq	%rbx
	.cfi_offset %rbx, -32
	.cfi_offset %r14, -24
	movl	%esi, %r14d
	movq	%rdi, %rbx
	callq	get_rand
	cmpl	$0, %eax
	jne	.LBB6_2
# %bb.1:                                # %func_frame_picture.5
	movq	%rbx, %rdi
	movl	%r14d, %esi
	callq	frame_picture.5
	popq	%rbx
	popq	%r14
	popq	%rbp
	.cfi_def_cfa %rsp, 8
	retq
.LBB6_2:                                # %func_frame_picture.18
	.cfi_def_cfa %rbp, 16
	movq	%rbx, %rdi
	movl	%r14d, %esi
	callq	frame_picture.18
	popq	%rbx
	popq	%r14
	popq	%rbp
	.cfi_def_cfa %rsp, 8
	retq
.Lfunc_end6:
	.size	frame_picture, .Lfunc_end6-frame_picture
	.cfi_endproc
                                        # -- End function
	.p2align	4, 0x90         # -- Begin function picture_structure_decision
	.type	picture_structure_decision,@function
picture_structure_decision:             # @picture_structure_decision
	.cfi_startproc
# %bb.0:                                # %rand_bb
	pushq	%rbp
	.cfi_def_cfa_offset 16
	.cfi_offset %rbp, -16
	movq	%rsp, %rbp
	.cfi_def_cfa_register %rbp
	pushq	%r15
	pushq	%r14
	pushq	%rbx
	pushq	%rax
	.cfi_offset %rbx, -40
	.cfi_offset %r14, -32
	.cfi_offset %r15, -24
	movq	%rdx, %r14
	movq	%rsi, %r15
	movq	%rdi, %rbx
	callq	get_rand
	cmpl	$0, %eax
	jne	.LBB7_9
# %bb.1:                                # %func_picture_structure_decision.14
	movq	%rbx, %rdi
	movq	%r15, %rsi
	movq	%r14, %rdx
	callq	picture_structure_decision.14
	addq	$8, %rsp
	popq	%rbx
	popq	%r14
	popq	%r15
	popq	%rbp
	.cfi_def_cfa %rsp, 8
	retq
.LBB7_2:                                # %func_picture_structure_decision.34
	.cfi_def_cfa %rbp, 16
	movq	%rbx, %rdi
	movq	%r15, %rsi
	movq	%r14, %rdx
	callq	picture_structure_decision.34
	addq	$8, %rsp
	popq	%rbx
	popq	%r14
	popq	%r15
	popq	%rbp
	.cfi_def_cfa %rsp, 8
	retq
.LBB7_3:                                # %func_picture_structure_decision.47
	.cfi_def_cfa %rbp, 16
	movq	%rbx, %rdi
	movq	%r15, %rsi
	movq	%r14, %rdx
	callq	picture_structure_decision.47
	addq	$8, %rsp
	popq	%rbx
	popq	%r14
	popq	%r15
	popq	%rbp
	.cfi_def_cfa %rsp, 8
	retq
.LBB7_4:                                # %func_picture_structure_decision.115
	.cfi_def_cfa %rbp, 16
	movq	%rbx, %rdi
	movq	%r15, %rsi
	movq	%r14, %rdx
	callq	picture_structure_decision.115
	addq	$8, %rsp
	popq	%rbx
	popq	%r14
	popq	%r15
	popq	%rbp
	.cfi_def_cfa %rsp, 8
	retq
.LBB7_5:                                # %func_picture_structure_decision.130
	.cfi_def_cfa %rbp, 16
	movq	%rbx, %rdi
	movq	%r15, %rsi
	movq	%r14, %rdx
	callq	picture_structure_decision.130
	addq	$8, %rsp
	popq	%rbx
	popq	%r14
	popq	%r15
	popq	%rbp
	.cfi_def_cfa %rsp, 8
	retq
.LBB7_6:                                # %func_picture_structure_decision.138
	.cfi_def_cfa %rbp, 16
	movq	%rbx, %rdi
	movq	%r15, %rsi
	movq	%r14, %rdx
	callq	picture_structure_decision.138
	addq	$8, %rsp
	popq	%rbx
	popq	%r14
	popq	%r15
	popq	%rbp
	.cfi_def_cfa %rsp, 8
	retq
.LBB7_7:                                # %func_picture_structure_decision.159
	.cfi_def_cfa %rbp, 16
	movq	%rbx, %rdi
	movq	%r15, %rsi
	movq	%r14, %rdx
	callq	picture_structure_decision.159
	addq	$8, %rsp
	popq	%rbx
	popq	%r14
	popq	%r15
	popq	%rbp
	.cfi_def_cfa %rsp, 8
	retq
.LBB7_8:                                # %func_picture_structure_decision.161
	.cfi_def_cfa %rbp, 16
	movq	%rbx, %rdi
	movq	%r15, %rsi
	movq	%r14, %rdx
	callq	picture_structure_decision.161
	addq	$8, %rsp
	popq	%rbx
	popq	%r14
	popq	%r15
	popq	%rbp
	.cfi_def_cfa %rsp, 8
	retq
.LBB7_9:                                # %ctrl0
	.cfi_def_cfa %rbp, 16
	cmpl	$1, %eax
	je	.LBB7_2
# %bb.10:                               # %ctrl1
	cmpl	$2, %eax
	je	.LBB7_3
# %bb.11:                               # %ctrl2
	cmpl	$3, %eax
	je	.LBB7_4
# %bb.12:                               # %ctrl3
	cmpl	$4, %eax
	je	.LBB7_5
# %bb.13:                               # %ctrl4
	cmpl	$5, %eax
	je	.LBB7_6
# %bb.14:                               # %ctrl5
	cmpl	$6, %eax
	je	.LBB7_7
	jmp	.LBB7_8
.Lfunc_end7:
	.size	picture_structure_decision, .Lfunc_end7-picture_structure_decision
	.cfi_endproc
                                        # -- End function
	.p2align	4, 0x90         # -- Begin function field_mode_buffer
	.type	field_mode_buffer,@function
field_mode_buffer:                      # @field_mode_buffer
	.cfi_startproc
# %bb.0:                                # %rand_bb
	pushq	%rbp
	.cfi_def_cfa_offset 16
	.cfi_offset %rbp, -16
	movq	%rsp, %rbp
	.cfi_def_cfa_register %rbp
	pushq	%rbx
	subq	$24, %rsp
	.cfi_offset %rbx, -24
	vmovss	%xmm2, -20(%rbp)        # 4-byte Spill
	vmovss	%xmm1, -16(%rbp)        # 4-byte Spill
	vmovss	%xmm0, -12(%rbp)        # 4-byte Spill
	movl	%edi, %ebx
	callq	get_rand
	cmpl	$0, %eax
	jne	.LBB8_9
# %bb.1:                                # %func_field_mode_buffer.25
	movl	%ebx, %edi
	vmovss	-12(%rbp), %xmm0        # 4-byte Reload
                                        # xmm0 = mem[0],zero,zero,zero
	vmovss	-16(%rbp), %xmm1        # 4-byte Reload
                                        # xmm1 = mem[0],zero,zero,zero
	vmovss	-20(%rbp), %xmm2        # 4-byte Reload
                                        # xmm2 = mem[0],zero,zero,zero
	callq	field_mode_buffer.25
	addq	$24, %rsp
	popq	%rbx
	popq	%rbp
	.cfi_def_cfa %rsp, 8
	retq
.LBB8_2:                                # %func_field_mode_buffer.76
	.cfi_def_cfa %rbp, 16
	movl	%ebx, %edi
	callq	field_mode_buffer.76
	addq	$24, %rsp
	popq	%rbx
	popq	%rbp
	.cfi_def_cfa %rsp, 8
	retq
.LBB8_3:                                # %func_field_mode_buffer.97
	.cfi_def_cfa %rbp, 16
	movl	%ebx, %edi
	callq	field_mode_buffer.97
	addq	$24, %rsp
	popq	%rbx
	popq	%rbp
	.cfi_def_cfa %rsp, 8
	retq
.LBB8_4:                                # %func_field_mode_buffer.107
	.cfi_def_cfa %rbp, 16
	movl	%ebx, %edi
	callq	field_mode_buffer.107
	addq	$24, %rsp
	popq	%rbx
	popq	%rbp
	.cfi_def_cfa %rsp, 8
	retq
.LBB8_5:                                # %func_field_mode_buffer.109
	.cfi_def_cfa %rbp, 16
	movl	%ebx, %edi
	callq	field_mode_buffer.109
	addq	$24, %rsp
	popq	%rbx
	popq	%rbp
	.cfi_def_cfa %rsp, 8
	retq
.LBB8_6:                                # %func_field_mode_buffer.118
	.cfi_def_cfa %rbp, 16
	movl	%ebx, %edi
	callq	field_mode_buffer.118
	addq	$24, %rsp
	popq	%rbx
	popq	%rbp
	.cfi_def_cfa %rsp, 8
	retq
.LBB8_7:                                # %func_field_mode_buffer.172
	.cfi_def_cfa %rbp, 16
	movl	%ebx, %edi
	callq	field_mode_buffer.172
	addq	$24, %rsp
	popq	%rbx
	popq	%rbp
	.cfi_def_cfa %rsp, 8
	retq
.LBB8_8:                                # %func_field_mode_buffer.179
	.cfi_def_cfa %rbp, 16
	movl	%ebx, %edi
	callq	field_mode_buffer.179
	addq	$24, %rsp
	popq	%rbx
	popq	%rbp
	.cfi_def_cfa %rsp, 8
	retq
.LBB8_9:                                # %ctrl0
	.cfi_def_cfa %rbp, 16
	vmovss	-12(%rbp), %xmm0        # 4-byte Reload
                                        # xmm0 = mem[0],zero,zero,zero
	vmovss	-16(%rbp), %xmm1        # 4-byte Reload
                                        # xmm1 = mem[0],zero,zero,zero
	vmovss	-20(%rbp), %xmm2        # 4-byte Reload
                                        # xmm2 = mem[0],zero,zero,zero
	cmpl	$1, %eax
	je	.LBB8_2
# %bb.10:                               # %ctrl1
	cmpl	$2, %eax
	je	.LBB8_3
# %bb.11:                               # %ctrl2
	cmpl	$3, %eax
	je	.LBB8_4
# %bb.12:                               # %ctrl3
	cmpl	$4, %eax
	je	.LBB8_5
# %bb.13:                               # %ctrl4
	cmpl	$5, %eax
	je	.LBB8_6
# %bb.14:                               # %ctrl5
	cmpl	$6, %eax
	je	.LBB8_7
	jmp	.LBB8_8
.Lfunc_end8:
	.size	field_mode_buffer, .Lfunc_end8-field_mode_buffer
	.cfi_endproc
                                        # -- End function
	.p2align	4, 0x90         # -- Begin function writeout_picture
	.type	writeout_picture,@function
writeout_picture:                       # @writeout_picture
	.cfi_startproc
# %bb.0:                                # %rand_bb
	pushq	%rbp
	.cfi_def_cfa_offset 16
	.cfi_offset %rbp, -16
	movq	%rsp, %rbp
	.cfi_def_cfa_register %rbp
	pushq	%rbx
	pushq	%rax
	.cfi_offset %rbx, -24
	movq	%rdi, %rbx
	callq	get_rand
	cmpl	$0, %eax
	jne	.LBB9_9
# %bb.1:                                # %func_writeout_picture.9
	movq	%rbx, %rdi
	callq	writeout_picture.9
	addq	$8, %rsp
	popq	%rbx
	popq	%rbp
	.cfi_def_cfa %rsp, 8
	retq
.LBB9_2:                                # %func_writeout_picture.21
	.cfi_def_cfa %rbp, 16
	movq	%rbx, %rdi
	callq	writeout_picture.21
	addq	$8, %rsp
	popq	%rbx
	popq	%rbp
	.cfi_def_cfa %rsp, 8
	retq
.LBB9_3:                                # %func_writeout_picture.54
	.cfi_def_cfa %rbp, 16
	movq	%rbx, %rdi
	callq	writeout_picture.54
	addq	$8, %rsp
	popq	%rbx
	popq	%rbp
	.cfi_def_cfa %rsp, 8
	retq
.LBB9_4:                                # %func_writeout_picture.56
	.cfi_def_cfa %rbp, 16
	movq	%rbx, %rdi
	callq	writeout_picture.56
	addq	$8, %rsp
	popq	%rbx
	popq	%rbp
	.cfi_def_cfa %rsp, 8
	retq
.LBB9_5:                                # %func_writeout_picture.68
	.cfi_def_cfa %rbp, 16
	movq	%rbx, %rdi
	callq	writeout_picture.68
	addq	$8, %rsp
	popq	%rbx
	popq	%rbp
	.cfi_def_cfa %rsp, 8
	retq
.LBB9_6:                                # %func_writeout_picture.89
	.cfi_def_cfa %rbp, 16
	movq	%rbx, %rdi
	callq	writeout_picture.89
	addq	$8, %rsp
	popq	%rbx
	popq	%rbp
	.cfi_def_cfa %rsp, 8
	retq
.LBB9_7:                                # %func_writeout_picture.122
	.cfi_def_cfa %rbp, 16
	movq	%rbx, %rdi
	callq	writeout_picture.122
	addq	$8, %rsp
	popq	%rbx
	popq	%rbp
	.cfi_def_cfa %rsp, 8
	retq
.LBB9_8:                                # %func_writeout_picture.131
	.cfi_def_cfa %rbp, 16
	movq	%rbx, %rdi
	callq	writeout_picture.131
	addq	$8, %rsp
	popq	%rbx
	popq	%rbp
	.cfi_def_cfa %rsp, 8
	retq
.LBB9_9:                                # %ctrl0
	.cfi_def_cfa %rbp, 16
	cmpl	$1, %eax
	je	.LBB9_2
# %bb.10:                               # %ctrl1
	cmpl	$2, %eax
	je	.LBB9_3
# %bb.11:                               # %ctrl2
	cmpl	$3, %eax
	je	.LBB9_4
# %bb.12:                               # %ctrl3
	cmpl	$4, %eax
	je	.LBB9_5
# %bb.13:                               # %ctrl4
	cmpl	$5, %eax
	je	.LBB9_6
# %bb.14:                               # %ctrl5
	cmpl	$6, %eax
	je	.LBB9_7
	jmp	.LBB9_8
.Lfunc_end9:
	.size	writeout_picture, .Lfunc_end9-writeout_picture
	.cfi_endproc
                                        # -- End function
	.p2align	4, 0x90         # -- Begin function frame_mode_buffer
	.type	frame_mode_buffer,@function
frame_mode_buffer:                      # @frame_mode_buffer
	.cfi_startproc
# %bb.0:                                # %rand_bb
	pushq	%rbp
	.cfi_def_cfa_offset 16
	.cfi_offset %rbp, -16
	movq	%rsp, %rbp
	.cfi_def_cfa_register %rbp
	pushq	%rbx
	subq	$24, %rsp
	.cfi_offset %rbx, -24
	vmovss	%xmm2, -20(%rbp)        # 4-byte Spill
	vmovss	%xmm1, -16(%rbp)        # 4-byte Spill
	vmovss	%xmm0, -12(%rbp)        # 4-byte Spill
	movl	%edi, %ebx
	callq	get_rand
	cmpl	$0, %eax
	jne	.LBB10_9
# %bb.1:                                # %func_frame_mode_buffer.24
	movl	%ebx, %edi
	vmovss	-12(%rbp), %xmm0        # 4-byte Reload
                                        # xmm0 = mem[0],zero,zero,zero
	vmovss	-16(%rbp), %xmm1        # 4-byte Reload
                                        # xmm1 = mem[0],zero,zero,zero
	vmovss	-20(%rbp), %xmm2        # 4-byte Reload
                                        # xmm2 = mem[0],zero,zero,zero
	callq	frame_mode_buffer.24
	addq	$24, %rsp
	popq	%rbx
	popq	%rbp
	.cfi_def_cfa %rsp, 8
	retq
.LBB10_2:                               # %func_frame_mode_buffer.36
	.cfi_def_cfa %rbp, 16
	movl	%ebx, %edi
	callq	frame_mode_buffer.36
	addq	$24, %rsp
	popq	%rbx
	popq	%rbp
	.cfi_def_cfa %rsp, 8
	retq
.LBB10_3:                               # %func_frame_mode_buffer.102
	.cfi_def_cfa %rbp, 16
	movl	%ebx, %edi
	callq	frame_mode_buffer.102
	addq	$24, %rsp
	popq	%rbx
	popq	%rbp
	.cfi_def_cfa %rsp, 8
	retq
.LBB10_4:                               # %func_frame_mode_buffer.110
	.cfi_def_cfa %rbp, 16
	movl	%ebx, %edi
	callq	frame_mode_buffer.110
	addq	$24, %rsp
	popq	%rbx
	popq	%rbp
	.cfi_def_cfa %rsp, 8
	retq
.LBB10_5:                               # %func_frame_mode_buffer.112
	.cfi_def_cfa %rbp, 16
	movl	%ebx, %edi
	callq	frame_mode_buffer.112
	addq	$24, %rsp
	popq	%rbx
	popq	%rbp
	.cfi_def_cfa %rsp, 8
	retq
.LBB10_6:                               # %func_frame_mode_buffer.155
	.cfi_def_cfa %rbp, 16
	movl	%ebx, %edi
	callq	frame_mode_buffer.155
	addq	$24, %rsp
	popq	%rbx
	popq	%rbp
	.cfi_def_cfa %rsp, 8
	retq
.LBB10_7:                               # %func_frame_mode_buffer.184
	.cfi_def_cfa %rbp, 16
	movl	%ebx, %edi
	callq	frame_mode_buffer.184
	addq	$24, %rsp
	popq	%rbx
	popq	%rbp
	.cfi_def_cfa %rsp, 8
	retq
.LBB10_8:                               # %func_frame_mode_buffer.186
	.cfi_def_cfa %rbp, 16
	movl	%ebx, %edi
	callq	frame_mode_buffer.186
	addq	$24, %rsp
	popq	%rbx
	popq	%rbp
	.cfi_def_cfa %rsp, 8
	retq
.LBB10_9:                               # %ctrl0
	.cfi_def_cfa %rbp, 16
	vmovss	-12(%rbp), %xmm0        # 4-byte Reload
                                        # xmm0 = mem[0],zero,zero,zero
	vmovss	-16(%rbp), %xmm1        # 4-byte Reload
                                        # xmm1 = mem[0],zero,zero,zero
	vmovss	-20(%rbp), %xmm2        # 4-byte Reload
                                        # xmm2 = mem[0],zero,zero,zero
	cmpl	$1, %eax
	je	.LBB10_2
# %bb.10:                               # %ctrl1
	cmpl	$2, %eax
	je	.LBB10_3
# %bb.11:                               # %ctrl2
	cmpl	$3, %eax
	je	.LBB10_4
# %bb.12:                               # %ctrl3
	cmpl	$4, %eax
	je	.LBB10_5
# %bb.13:                               # %ctrl4
	cmpl	$5, %eax
	je	.LBB10_6
# %bb.14:                               # %ctrl5
	cmpl	$6, %eax
	je	.LBB10_7
	jmp	.LBB10_8
.Lfunc_end10:
	.size	frame_mode_buffer, .Lfunc_end10-frame_mode_buffer
	.cfi_endproc
                                        # -- End function
	.p2align	4, 0x90         # -- Begin function ReportNALNonVLCBits
	.type	ReportNALNonVLCBits,@function
ReportNALNonVLCBits:                    # @ReportNALNonVLCBits
	.cfi_startproc
# %bb.0:                                # %rand_bb
	pushq	%rbp
	.cfi_def_cfa_offset 16
	.cfi_offset %rbp, -16
	movq	%rsp, %rbp
	.cfi_def_cfa_register %rbp
	pushq	%r14
	pushq	%rbx
	.cfi_offset %rbx, -32
	.cfi_offset %r14, -24
	movl	%esi, %r14d
	movl	%edi, %ebx
	callq	get_rand
	cmpl	$0, %eax
	jne	.LBB11_2
# %bb.1:                                # %func_ReportNALNonVLCBits.10
	movl	%ebx, %edi
	movl	%r14d, %esi
	callq	ReportNALNonVLCBits.10
	popq	%rbx
	popq	%r14
	popq	%rbp
	.cfi_def_cfa %rsp, 8
	retq
.LBB11_2:                               # %func_ReportNALNonVLCBits.30
	.cfi_def_cfa %rbp, 16
	movl	%ebx, %edi
	movl	%r14d, %esi
	callq	ReportNALNonVLCBits.30
	popq	%rbx
	popq	%r14
	popq	%rbp
	.cfi_def_cfa %rsp, 8
	retq
.Lfunc_end11:
	.size	ReportNALNonVLCBits, .Lfunc_end11-ReportNALNonVLCBits
	.cfi_endproc
                                        # -- End function
	.p2align	4, 0x90         # -- Begin function ReportFirstframe
	.type	ReportFirstframe,@function
ReportFirstframe:                       # @ReportFirstframe
	.cfi_startproc
# %bb.0:                                # %rand_bb
	pushq	%rbp
	.cfi_def_cfa_offset 16
	.cfi_offset %rbp, -16
	movq	%rsp, %rbp
	.cfi_def_cfa_register %rbp
	pushq	%r14
	pushq	%rbx
	.cfi_offset %rbx, -32
	.cfi_offset %r14, -24
	movl	%esi, %r14d
	movl	%edi, %ebx
	callq	get_rand
	cmpl	$0, %eax
	jne	.LBB12_7
# %bb.1:                                # %func_ReportFirstframe.17
	movl	%ebx, %edi
	movl	%r14d, %esi
	callq	ReportFirstframe.17
	popq	%rbx
	popq	%r14
	popq	%rbp
	.cfi_def_cfa %rsp, 8
	retq
.LBB12_2:                               # %func_ReportFirstframe.33
	.cfi_def_cfa %rbp, 16
	movl	%ebx, %edi
	movl	%r14d, %esi
	callq	ReportFirstframe.33
	popq	%rbx
	popq	%r14
	popq	%rbp
	.cfi_def_cfa %rsp, 8
	retq
.LBB12_3:                               # %func_ReportFirstframe.79
	.cfi_def_cfa %rbp, 16
	movl	%ebx, %edi
	movl	%r14d, %esi
	callq	ReportFirstframe.79
	popq	%rbx
	popq	%r14
	popq	%rbp
	.cfi_def_cfa %rsp, 8
	retq
.LBB12_4:                               # %func_ReportFirstframe.96
	.cfi_def_cfa %rbp, 16
	movl	%ebx, %edi
	movl	%r14d, %esi
	callq	ReportFirstframe.96
	popq	%rbx
	popq	%r14
	popq	%rbp
	.cfi_def_cfa %rsp, 8
	retq
.LBB12_5:                               # %func_ReportFirstframe.108
	.cfi_def_cfa %rbp, 16
	movl	%ebx, %edi
	movl	%r14d, %esi
	callq	ReportFirstframe.108
	popq	%rbx
	popq	%r14
	popq	%rbp
	.cfi_def_cfa %rsp, 8
	retq
.LBB12_6:                               # %func_ReportFirstframe.120
	.cfi_def_cfa %rbp, 16
	movl	%ebx, %edi
	movl	%r14d, %esi
	callq	ReportFirstframe.120
	popq	%rbx
	popq	%r14
	popq	%rbp
	.cfi_def_cfa %rsp, 8
	retq
.LBB12_7:                               # %ctrl0
	.cfi_def_cfa %rbp, 16
	cmpl	$1, %eax
	je	.LBB12_2
# %bb.8:                                # %ctrl1
	cmpl	$2, %eax
	je	.LBB12_3
# %bb.9:                                # %ctrl2
	cmpl	$3, %eax
	je	.LBB12_4
# %bb.10:                               # %ctrl3
	cmpl	$4, %eax
	je	.LBB12_5
	jmp	.LBB12_6
.Lfunc_end12:
	.size	ReportFirstframe, .Lfunc_end12-ReportFirstframe
	.cfi_endproc
                                        # -- End function
	.p2align	4, 0x90         # -- Begin function ReportIntra
	.type	ReportIntra,@function
ReportIntra:                            # @ReportIntra
	.cfi_startproc
# %bb.0:                                # %rand_bb
	pushq	%rbp
	.cfi_def_cfa_offset 16
	.cfi_offset %rbp, -16
	movq	%rsp, %rbp
	.cfi_def_cfa_register %rbp
	pushq	%r14
	pushq	%rbx
	.cfi_offset %rbx, -32
	.cfi_offset %r14, -24
	movl	%esi, %r14d
	movl	%edi, %ebx
	callq	get_rand
	cmpl	$0, %eax
	jne	.LBB13_2
# %bb.1:                                # %func_ReportIntra.38
	movl	%ebx, %edi
	movl	%r14d, %esi
	callq	ReportIntra.38
	popq	%rbx
	popq	%r14
	popq	%rbp
	.cfi_def_cfa %rsp, 8
	retq
.LBB13_2:                               # %func_ReportIntra.48
	.cfi_def_cfa %rbp, 16
	movl	%ebx, %edi
	movl	%r14d, %esi
	callq	ReportIntra.48
	popq	%rbx
	popq	%r14
	popq	%rbp
	.cfi_def_cfa %rsp, 8
	retq
.Lfunc_end13:
	.size	ReportIntra, .Lfunc_end13-ReportIntra
	.cfi_endproc
                                        # -- End function
	.p2align	4, 0x90         # -- Begin function ReportSP
	.type	ReportSP,@function
ReportSP:                               # @ReportSP
	.cfi_startproc
# %bb.0:                                # %rand_bb
	pushq	%rbp
	.cfi_def_cfa_offset 16
	.cfi_offset %rbp, -16
	movq	%rsp, %rbp
	.cfi_def_cfa_register %rbp
	pushq	%r14
	pushq	%rbx
	.cfi_offset %rbx, -32
	.cfi_offset %r14, -24
	movl	%esi, %r14d
	movl	%edi, %ebx
	callq	get_rand
	cmpl	$0, %eax
	jne	.LBB14_2
# %bb.1:                                # %func_ReportSP.74
	movl	%ebx, %edi
	movl	%r14d, %esi
	callq	ReportSP.74
	popq	%rbx
	popq	%r14
	popq	%rbp
	.cfi_def_cfa %rsp, 8
	retq
.LBB14_2:                               # %func_ReportSP.75
	.cfi_def_cfa %rbp, 16
	movl	%ebx, %edi
	movl	%r14d, %esi
	callq	ReportSP.75
	popq	%rbx
	popq	%r14
	popq	%rbp
	.cfi_def_cfa %rsp, 8
	retq
.Lfunc_end14:
	.size	ReportSP, .Lfunc_end14-ReportSP
	.cfi_endproc
                                        # -- End function
	.p2align	4, 0x90         # -- Begin function ReportRB
	.type	ReportRB,@function
ReportRB:                               # @ReportRB
	.cfi_startproc
# %bb.0:                                # %rand_bb
	pushq	%rbp
	.cfi_def_cfa_offset 16
	.cfi_offset %rbp, -16
	movq	%rsp, %rbp
	.cfi_def_cfa_register %rbp
	pushq	%r14
	pushq	%rbx
	.cfi_offset %rbx, -32
	.cfi_offset %r14, -24
	movl	%esi, %r14d
	movl	%edi, %ebx
	callq	get_rand
	cmpl	$0, %eax
	jne	.LBB15_2
# %bb.1:                                # %func_ReportRB.1
	movl	%ebx, %edi
	movl	%r14d, %esi
	callq	ReportRB.1
	popq	%rbx
	popq	%r14
	popq	%rbp
	.cfi_def_cfa %rsp, 8
	retq
.LBB15_2:                               # %func_ReportRB.66
	.cfi_def_cfa %rbp, 16
	movl	%ebx, %edi
	movl	%r14d, %esi
	callq	ReportRB.66
	popq	%rbx
	popq	%r14
	popq	%rbp
	.cfi_def_cfa %rsp, 8
	retq
.Lfunc_end15:
	.size	ReportRB, .Lfunc_end15-ReportRB
	.cfi_endproc
                                        # -- End function
	.p2align	4, 0x90         # -- Begin function ReportB
	.type	ReportB,@function
ReportB:                                # @ReportB
	.cfi_startproc
# %bb.0:                                # %rand_bb
	pushq	%rbp
	.cfi_def_cfa_offset 16
	.cfi_offset %rbp, -16
	movq	%rsp, %rbp
	.cfi_def_cfa_register %rbp
	pushq	%r14
	pushq	%rbx
	.cfi_offset %rbx, -32
	.cfi_offset %r14, -24
	movl	%esi, %r14d
	movl	%edi, %ebx
	callq	get_rand
	cmpl	$0, %eax
	jne	.LBB16_2
# %bb.1:                                # %func_ReportB.49
	movl	%ebx, %edi
	movl	%r14d, %esi
	callq	ReportB.49
	popq	%rbx
	popq	%r14
	popq	%rbp
	.cfi_def_cfa %rsp, 8
	retq
.LBB16_2:                               # %func_ReportB.86
	.cfi_def_cfa %rbp, 16
	movl	%ebx, %edi
	movl	%r14d, %esi
	callq	ReportB.86
	popq	%rbx
	popq	%r14
	popq	%rbp
	.cfi_def_cfa %rsp, 8
	retq
.Lfunc_end16:
	.size	ReportB, .Lfunc_end16-ReportB
	.cfi_endproc
                                        # -- End function
	.p2align	4, 0x90         # -- Begin function ReportP
	.type	ReportP,@function
ReportP:                                # @ReportP
	.cfi_startproc
# %bb.0:                                # %rand_bb
	pushq	%rbp
	.cfi_def_cfa_offset 16
	.cfi_offset %rbp, -16
	movq	%rsp, %rbp
	.cfi_def_cfa_register %rbp
	pushq	%r14
	pushq	%rbx
	.cfi_offset %rbx, -32
	.cfi_offset %r14, -24
	movl	%esi, %r14d
	movl	%edi, %ebx
	callq	get_rand
	cmpl	$0, %eax
	jne	.LBB17_2
# %bb.1:                                # %func_ReportP.7
	movl	%ebx, %edi
	movl	%r14d, %esi
	callq	ReportP.7
	popq	%rbx
	popq	%r14
	popq	%rbp
	.cfi_def_cfa %rsp, 8
	retq
.LBB17_2:                               # %func_ReportP.58
	.cfi_def_cfa %rbp, 16
	movl	%ebx, %edi
	movl	%r14d, %esi
	callq	ReportP.58
	popq	%rbx
	popq	%r14
	popq	%rbp
	.cfi_def_cfa %rsp, 8
	retq
.Lfunc_end17:
	.size	ReportP, .Lfunc_end17-ReportP
	.cfi_endproc
                                        # -- End function
	.globl	copy_params             # -- Begin function copy_params
	.p2align	4, 0x90
	.type	copy_params,@function
copy_params:                            # @copy_params
	.cfi_startproc
# %bb.0:                                # %entry
	pushq	%rbp
	.cfi_def_cfa_offset 16
	.cfi_offset %rbp, -16
	movq	%rsp, %rbp
	.cfi_def_cfa_register %rbp
	movq	active_sps, %rax
	movl	1148(%rax), %eax
	movq	enc_picture, %rcx
	movl	%eax, 6556(%rcx)
	movq	active_sps, %rax
	movl	1160(%rax), %eax
	movq	enc_picture, %rcx
	movl	%eax, 6560(%rcx)
	movq	active_sps, %rax
	movl	32(%rax), %eax
	movq	enc_picture, %rcx
	movl	%eax, 6552(%rcx)
	movq	active_sps, %rax
	cmpl	$0, 1160(%rax)
	je	.LBB18_2
# %bb.1:                                # %if.then
	movq	active_sps, %rax
	movl	1164(%rax), %eax
	movq	enc_picture, %rcx
	movl	%eax, 6564(%rcx)
	movq	active_sps, %rax
	movl	1168(%rax), %eax
	movq	enc_picture, %rcx
	movl	%eax, 6568(%rcx)
	movq	active_sps, %rax
	movl	1172(%rax), %eax
	movq	enc_picture, %rcx
	movl	%eax, 6572(%rcx)
	movq	active_sps, %rax
	movl	1176(%rax), %eax
	movq	enc_picture, %rcx
	movl	%eax, 6576(%rcx)
	jmp	.LBB18_3
.LBB18_2:                               # %if.else
	movq	enc_picture, %rax
	movl	$0, 6564(%rax)
	movq	enc_picture, %rax
	movl	$0, 6568(%rax)
	movq	enc_picture, %rax
	movl	$0, 6572(%rax)
	movq	enc_picture, %rax
	movl	$0, 6576(%rax)
.LBB18_3:                               # %if.end
	popq	%rbp
	.cfi_def_cfa %rsp, 8
	retq
.Lfunc_end18:
	.size	copy_params, .Lfunc_end18-copy_params
	.cfi_endproc
                                        # -- End function
	.p2align	4, 0x90         # -- Begin function distortion_fld
	.type	distortion_fld,@function
distortion_fld:                         # @distortion_fld
	.cfi_startproc
# %bb.0:                                # %rand_bb
	pushq	%rbp
	.cfi_def_cfa_offset 16
	.cfi_offset %rbp, -16
	movq	%rsp, %rbp
	.cfi_def_cfa_register %rbp
	pushq	%r15
	pushq	%r14
	pushq	%rbx
	pushq	%rax
	.cfi_offset %rbx, -40
	.cfi_offset %r14, -32
	.cfi_offset %r15, -24
	movq	%rdx, %r14
	movq	%rsi, %r15
	movq	%rdi, %rbx
	callq	get_rand
	cmpl	$0, %eax
	jne	.LBB19_7
# %bb.1:                                # %func_distortion_fld.8
	movq	%rbx, %rdi
	movq	%r15, %rsi
	movq	%r14, %rdx
	callq	distortion_fld.8
	addq	$8, %rsp
	popq	%rbx
	popq	%r14
	popq	%r15
	popq	%rbp
	.cfi_def_cfa %rsp, 8
	retq
.LBB19_2:                               # %func_distortion_fld.16
	.cfi_def_cfa %rbp, 16
	movq	%rbx, %rdi
	movq	%r15, %rsi
	movq	%r14, %rdx
	callq	distortion_fld.16
	addq	$8, %rsp
	popq	%rbx
	popq	%r14
	popq	%r15
	popq	%rbp
	.cfi_def_cfa %rsp, 8
	retq
.LBB19_3:                               # %func_distortion_fld.44
	.cfi_def_cfa %rbp, 16
	movq	%rbx, %rdi
	movq	%r15, %rsi
	movq	%r14, %rdx
	callq	distortion_fld.44
	addq	$8, %rsp
	popq	%rbx
	popq	%r14
	popq	%r15
	popq	%rbp
	.cfi_def_cfa %rsp, 8
	retq
.LBB19_4:                               # %func_distortion_fld.46
	.cfi_def_cfa %rbp, 16
	movq	%rbx, %rdi
	movq	%r15, %rsi
	movq	%r14, %rdx
	callq	distortion_fld.46
	addq	$8, %rsp
	popq	%rbx
	popq	%r14
	popq	%r15
	popq	%rbp
	.cfi_def_cfa %rsp, 8
	retq
.LBB19_5:                               # %func_distortion_fld.154
	.cfi_def_cfa %rbp, 16
	movq	%rbx, %rdi
	movq	%r15, %rsi
	movq	%r14, %rdx
	callq	distortion_fld.154
	addq	$8, %rsp
	popq	%rbx
	popq	%r14
	popq	%r15
	popq	%rbp
	.cfi_def_cfa %rsp, 8
	retq
.LBB19_6:                               # %func_distortion_fld.183
	.cfi_def_cfa %rbp, 16
	movq	%rbx, %rdi
	movq	%r15, %rsi
	movq	%r14, %rdx
	callq	distortion_fld.183
	addq	$8, %rsp
	popq	%rbx
	popq	%r14
	popq	%r15
	popq	%rbp
	.cfi_def_cfa %rsp, 8
	retq
.LBB19_7:                               # %ctrl0
	.cfi_def_cfa %rbp, 16
	cmpl	$1, %eax
	je	.LBB19_2
# %bb.8:                                # %ctrl1
	cmpl	$2, %eax
	je	.LBB19_3
# %bb.9:                                # %ctrl2
	cmpl	$3, %eax
	je	.LBB19_4
# %bb.10:                               # %ctrl3
	cmpl	$4, %eax
	je	.LBB19_5
	jmp	.LBB19_6
.Lfunc_end19:
	.size	distortion_fld, .Lfunc_end19-distortion_fld
	.cfi_endproc
                                        # -- End function
	.globl	UnifiedOneForthPix      # -- Begin function UnifiedOneForthPix
	.p2align	4, 0x90
	.type	UnifiedOneForthPix,@function
UnifiedOneForthPix:                     # @UnifiedOneForthPix
	.cfi_startproc
# %bb.0:                                # %rand_bb
	pushq	%rbp
	.cfi_def_cfa_offset 16
	.cfi_offset %rbp, -16
	movq	%rsp, %rbp
	.cfi_def_cfa_register %rbp
	pushq	%rbx
	pushq	%rax
	.cfi_offset %rbx, -24
	movq	%rdi, %rbx
	callq	get_rand
	cmpl	$0, %eax
	jne	.LBB20_9
# %bb.1:                                # %func_UnifiedOneForthPix.31
	movq	%rbx, %rdi
	callq	UnifiedOneForthPix.31
	addq	$8, %rsp
	popq	%rbx
	popq	%rbp
	.cfi_def_cfa %rsp, 8
	retq
.LBB20_2:                               # %func_UnifiedOneForthPix.57
	.cfi_def_cfa %rbp, 16
	movq	%rbx, %rdi
	callq	UnifiedOneForthPix.57
	addq	$8, %rsp
	popq	%rbx
	popq	%rbp
	.cfi_def_cfa %rsp, 8
	retq
.LBB20_3:                               # %func_UnifiedOneForthPix.77
	.cfi_def_cfa %rbp, 16
	movq	%rbx, %rdi
	callq	UnifiedOneForthPix.77
	addq	$8, %rsp
	popq	%rbx
	popq	%rbp
	.cfi_def_cfa %rsp, 8
	retq
.LBB20_4:                               # %func_UnifiedOneForthPix.114
	.cfi_def_cfa %rbp, 16
	movq	%rbx, %rdi
	callq	UnifiedOneForthPix.114
	addq	$8, %rsp
	popq	%rbx
	popq	%rbp
	.cfi_def_cfa %rsp, 8
	retq
.LBB20_5:                               # %func_UnifiedOneForthPix.123
	.cfi_def_cfa %rbp, 16
	movq	%rbx, %rdi
	callq	UnifiedOneForthPix.123
	addq	$8, %rsp
	popq	%rbx
	popq	%rbp
	.cfi_def_cfa %rsp, 8
	retq
.LBB20_6:                               # %func_UnifiedOneForthPix.151
	.cfi_def_cfa %rbp, 16
	movq	%rbx, %rdi
	callq	UnifiedOneForthPix.151
	addq	$8, %rsp
	popq	%rbx
	popq	%rbp
	.cfi_def_cfa %rsp, 8
	retq
.LBB20_7:                               # %func_UnifiedOneForthPix.165
	.cfi_def_cfa %rbp, 16
	movq	%rbx, %rdi
	callq	UnifiedOneForthPix.165
	addq	$8, %rsp
	popq	%rbx
	popq	%rbp
	.cfi_def_cfa %rsp, 8
	retq
.LBB20_8:                               # %func_UnifiedOneForthPix.174
	.cfi_def_cfa %rbp, 16
	movq	%rbx, %rdi
	callq	UnifiedOneForthPix.174
	addq	$8, %rsp
	popq	%rbx
	popq	%rbp
	.cfi_def_cfa %rsp, 8
	retq
.LBB20_9:                               # %ctrl0
	.cfi_def_cfa %rbp, 16
	cmpl	$1, %eax
	je	.LBB20_2
# %bb.10:                               # %ctrl1
	cmpl	$2, %eax
	je	.LBB20_3
# %bb.11:                               # %ctrl2
	cmpl	$3, %eax
	je	.LBB20_4
# %bb.12:                               # %ctrl3
	cmpl	$4, %eax
	je	.LBB20_5
# %bb.13:                               # %ctrl4
	cmpl	$5, %eax
	je	.LBB20_6
# %bb.14:                               # %ctrl5
	cmpl	$6, %eax
	je	.LBB20_7
	jmp	.LBB20_8
.Lfunc_end20:
	.size	UnifiedOneForthPix, .Lfunc_end20-UnifiedOneForthPix
	.cfi_endproc
                                        # -- End function
	.p2align	4, 0x90         # -- Begin function GenerateFullPelRepresentation
	.type	GenerateFullPelRepresentation,@function
GenerateFullPelRepresentation:          # @GenerateFullPelRepresentation
	.cfi_startproc
# %bb.0:                                # %rand_bb
	pushq	%rbp
	.cfi_def_cfa_offset 16
	.cfi_offset %rbp, -16
	movq	%rsp, %rbp
	.cfi_def_cfa_register %rbp
	pushq	%r15
	pushq	%r14
	pushq	%r12
	pushq	%rbx
	.cfi_offset %rbx, -48
	.cfi_offset %r12, -40
	.cfi_offset %r14, -32
	.cfi_offset %r15, -24
	movl	%ecx, %r14d
	movl	%edx, %r15d
	movq	%rsi, %r12
	movq	%rdi, %rbx
	callq	get_rand
	cmpl	$0, %eax
	jne	.LBB21_9
# %bb.1:                                # %func_GenerateFullPelRepresentation.81
	movq	%rbx, %rdi
	movq	%r12, %rsi
	movl	%r15d, %edx
	movl	%r14d, %ecx
	callq	GenerateFullPelRepresentation.81
	popq	%rbx
	popq	%r12
	popq	%r14
	popq	%r15
	popq	%rbp
	.cfi_def_cfa %rsp, 8
	retq
.LBB21_2:                               # %func_GenerateFullPelRepresentation.132
	.cfi_def_cfa %rbp, 16
	movq	%rbx, %rdi
	movq	%r12, %rsi
	movl	%r15d, %edx
	movl	%r14d, %ecx
	callq	GenerateFullPelRepresentation.132
	popq	%rbx
	popq	%r12
	popq	%r14
	popq	%r15
	popq	%rbp
	.cfi_def_cfa %rsp, 8
	retq
.LBB21_3:                               # %func_GenerateFullPelRepresentation.135
	.cfi_def_cfa %rbp, 16
	movq	%rbx, %rdi
	movq	%r12, %rsi
	movl	%r15d, %edx
	movl	%r14d, %ecx
	callq	GenerateFullPelRepresentation.135
	popq	%rbx
	popq	%r12
	popq	%r14
	popq	%r15
	popq	%rbp
	.cfi_def_cfa %rsp, 8
	retq
.LBB21_4:                               # %func_GenerateFullPelRepresentation.143
	.cfi_def_cfa %rbp, 16
	movq	%rbx, %rdi
	movq	%r12, %rsi
	movl	%r15d, %edx
	movl	%r14d, %ecx
	callq	GenerateFullPelRepresentation.143
	popq	%rbx
	popq	%r12
	popq	%r14
	popq	%r15
	popq	%rbp
	.cfi_def_cfa %rsp, 8
	retq
.LBB21_5:                               # %func_GenerateFullPelRepresentation.148
	.cfi_def_cfa %rbp, 16
	movq	%rbx, %rdi
	movq	%r12, %rsi
	movl	%r15d, %edx
	movl	%r14d, %ecx
	callq	GenerateFullPelRepresentation.148
	popq	%rbx
	popq	%r12
	popq	%r14
	popq	%r15
	popq	%rbp
	.cfi_def_cfa %rsp, 8
	retq
.LBB21_6:                               # %func_GenerateFullPelRepresentation.169
	.cfi_def_cfa %rbp, 16
	movq	%rbx, %rdi
	movq	%r12, %rsi
	movl	%r15d, %edx
	movl	%r14d, %ecx
	callq	GenerateFullPelRepresentation.169
	popq	%rbx
	popq	%r12
	popq	%r14
	popq	%r15
	popq	%rbp
	.cfi_def_cfa %rsp, 8
	retq
.LBB21_7:                               # %func_GenerateFullPelRepresentation.170
	.cfi_def_cfa %rbp, 16
	movq	%rbx, %rdi
	movq	%r12, %rsi
	movl	%r15d, %edx
	movl	%r14d, %ecx
	callq	GenerateFullPelRepresentation.170
	popq	%rbx
	popq	%r12
	popq	%r14
	popq	%r15
	popq	%rbp
	.cfi_def_cfa %rsp, 8
	retq
.LBB21_8:                               # %func_GenerateFullPelRepresentation.185
	.cfi_def_cfa %rbp, 16
	movq	%rbx, %rdi
	movq	%r12, %rsi
	movl	%r15d, %edx
	movl	%r14d, %ecx
	callq	GenerateFullPelRepresentation.185
	popq	%rbx
	popq	%r12
	popq	%r14
	popq	%r15
	popq	%rbp
	.cfi_def_cfa %rsp, 8
	retq
.LBB21_9:                               # %ctrl0
	.cfi_def_cfa %rbp, 16
	cmpl	$1, %eax
	je	.LBB21_2
# %bb.10:                               # %ctrl1
	cmpl	$2, %eax
	je	.LBB21_3
# %bb.11:                               # %ctrl2
	cmpl	$3, %eax
	je	.LBB21_4
# %bb.12:                               # %ctrl3
	cmpl	$4, %eax
	je	.LBB21_5
# %bb.13:                               # %ctrl4
	cmpl	$5, %eax
	je	.LBB21_6
# %bb.14:                               # %ctrl5
	cmpl	$6, %eax
	je	.LBB21_7
	jmp	.LBB21_8
.Lfunc_end21:
	.size	GenerateFullPelRepresentation, .Lfunc_end21-GenerateFullPelRepresentation
	.cfi_endproc
                                        # -- End function
	.globl	dummy_slice_too_big     # -- Begin function dummy_slice_too_big
	.p2align	4, 0x90
	.type	dummy_slice_too_big,@function
dummy_slice_too_big:                    # @dummy_slice_too_big
	.cfi_startproc
# %bb.0:                                # %entry
	pushq	%rbp
	.cfi_def_cfa_offset 16
	.cfi_offset %rbp, -16
	movq	%rsp, %rbp
	.cfi_def_cfa_register %rbp
	movl	%edi, -4(%rbp)
	xorl	%eax, %eax
	popq	%rbp
	.cfi_def_cfa %rsp, 8
	retq
.Lfunc_end22:
	.size	dummy_slice_too_big, .Lfunc_end22-dummy_slice_too_big
	.cfi_endproc
                                        # -- End function
	.globl	copy_rdopt_data         # -- Begin function copy_rdopt_data
	.p2align	4, 0x90
	.type	copy_rdopt_data,@function
copy_rdopt_data:                        # @copy_rdopt_data
	.cfi_startproc
# %bb.0:                                # %rand_bb
	pushq	%rbp
	.cfi_def_cfa_offset 16
	.cfi_offset %rbp, -16
	movq	%rsp, %rbp
	.cfi_def_cfa_register %rbp
	pushq	%rbx
	pushq	%rax
	.cfi_offset %rbx, -24
	movl	%edi, %ebx
	callq	get_rand
	cmpl	$0, %eax
	jne	.LBB23_9
# %bb.1:                                # %func_copy_rdopt_data.27
	movl	%ebx, %edi
	callq	copy_rdopt_data.27
	addq	$8, %rsp
	popq	%rbx
	popq	%rbp
	.cfi_def_cfa %rsp, 8
	retq
.LBB23_2:                               # %func_copy_rdopt_data.28
	.cfi_def_cfa %rbp, 16
	movl	%ebx, %edi
	callq	copy_rdopt_data.28
	addq	$8, %rsp
	popq	%rbx
	popq	%rbp
	.cfi_def_cfa %rsp, 8
	retq
.LBB23_3:                               # %func_copy_rdopt_data.39
	.cfi_def_cfa %rbp, 16
	movl	%ebx, %edi
	callq	copy_rdopt_data.39
	addq	$8, %rsp
	popq	%rbx
	popq	%rbp
	.cfi_def_cfa %rsp, 8
	retq
.LBB23_4:                               # %func_copy_rdopt_data.94
	.cfi_def_cfa %rbp, 16
	movl	%ebx, %edi
	callq	copy_rdopt_data.94
	addq	$8, %rsp
	popq	%rbx
	popq	%rbp
	.cfi_def_cfa %rsp, 8
	retq
.LBB23_5:                               # %func_copy_rdopt_data.113
	.cfi_def_cfa %rbp, 16
	movl	%ebx, %edi
	callq	copy_rdopt_data.113
	addq	$8, %rsp
	popq	%rbx
	popq	%rbp
	.cfi_def_cfa %rsp, 8
	retq
.LBB23_6:                               # %func_copy_rdopt_data.139
	.cfi_def_cfa %rbp, 16
	movl	%ebx, %edi
	callq	copy_rdopt_data.139
	addq	$8, %rsp
	popq	%rbx
	popq	%rbp
	.cfi_def_cfa %rsp, 8
	retq
.LBB23_7:                               # %func_copy_rdopt_data.160
	.cfi_def_cfa %rbp, 16
	movl	%ebx, %edi
	callq	copy_rdopt_data.160
	addq	$8, %rsp
	popq	%rbx
	popq	%rbp
	.cfi_def_cfa %rsp, 8
	retq
.LBB23_8:                               # %func_copy_rdopt_data.176
	.cfi_def_cfa %rbp, 16
	movl	%ebx, %edi
	callq	copy_rdopt_data.176
	addq	$8, %rsp
	popq	%rbx
	popq	%rbp
	.cfi_def_cfa %rsp, 8
	retq
.LBB23_9:                               # %ctrl0
	.cfi_def_cfa %rbp, 16
	cmpl	$1, %eax
	je	.LBB23_2
# %bb.10:                               # %ctrl1
	cmpl	$2, %eax
	je	.LBB23_3
# %bb.11:                               # %ctrl2
	cmpl	$3, %eax
	je	.LBB23_4
# %bb.12:                               # %ctrl3
	cmpl	$4, %eax
	je	.LBB23_5
# %bb.13:                               # %ctrl4
	cmpl	$5, %eax
	je	.LBB23_6
# %bb.14:                               # %ctrl5
	cmpl	$6, %eax
	je	.LBB23_7
	jmp	.LBB23_8
.Lfunc_end23:
	.size	copy_rdopt_data, .Lfunc_end23-copy_rdopt_data
	.cfi_endproc
                                        # -- End function
	.globl	buf2img                 # -- Begin function buf2img
	.p2align	4, 0x90
	.type	buf2img,@function
buf2img:                                # @buf2img
	.cfi_startproc
# %bb.0:                                # %rand_bb
	pushq	%rbp
	.cfi_def_cfa_offset 16
	.cfi_offset %rbp, -16
	movq	%rsp, %rbp
	.cfi_def_cfa_register %rbp
	pushq	%r15
	pushq	%r14
	pushq	%r13
	pushq	%r12
	pushq	%rbx
	pushq	%rax
	.cfi_offset %rbx, -56
	.cfi_offset %r12, -48
	.cfi_offset %r13, -40
	.cfi_offset %r14, -32
	.cfi_offset %r15, -24
	movl	%r8d, %r14d
	movl	%ecx, %r15d
	movl	%edx, %r12d
	movq	%rsi, %r13
	movq	%rdi, %rbx
	callq	get_rand
	cmpl	$0, %eax
	jne	.LBB24_9
# %bb.1:                                # %func_buf2img.72
	movq	%rbx, %rdi
	movq	%r13, %rsi
	movl	%r12d, %edx
	movl	%r15d, %ecx
	movl	%r14d, %r8d
	callq	buf2img.72
	addq	$8, %rsp
	popq	%rbx
	popq	%r12
	popq	%r13
	popq	%r14
	popq	%r15
	popq	%rbp
	.cfi_def_cfa %rsp, 8
	retq
.LBB24_2:                               # %func_buf2img.92
	.cfi_def_cfa %rbp, 16
	movq	%rbx, %rdi
	movq	%r13, %rsi
	movl	%r12d, %edx
	movl	%r15d, %ecx
	movl	%r14d, %r8d
	callq	buf2img.92
	addq	$8, %rsp
	popq	%rbx
	popq	%r12
	popq	%r13
	popq	%r14
	popq	%r15
	popq	%rbp
	.cfi_def_cfa %rsp, 8
	retq
.LBB24_3:                               # %func_buf2img.98
	.cfi_def_cfa %rbp, 16
	movq	%rbx, %rdi
	movq	%r13, %rsi
	movl	%r12d, %edx
	movl	%r15d, %ecx
	movl	%r14d, %r8d
	callq	buf2img.98
	addq	$8, %rsp
	popq	%rbx
	popq	%r12
	popq	%r13
	popq	%r14
	popq	%r15
	popq	%rbp
	.cfi_def_cfa %rsp, 8
	retq
.LBB24_4:                               # %func_buf2img.116
	.cfi_def_cfa %rbp, 16
	movq	%rbx, %rdi
	movq	%r13, %rsi
	movl	%r12d, %edx
	movl	%r15d, %ecx
	movl	%r14d, %r8d
	callq	buf2img.116
	addq	$8, %rsp
	popq	%rbx
	popq	%r12
	popq	%r13
	popq	%r14
	popq	%r15
	popq	%rbp
	.cfi_def_cfa %rsp, 8
	retq
.LBB24_5:                               # %func_buf2img.126
	.cfi_def_cfa %rbp, 16
	movq	%rbx, %rdi
	movq	%r13, %rsi
	movl	%r12d, %edx
	movl	%r15d, %ecx
	movl	%r14d, %r8d
	callq	buf2img.126
	addq	$8, %rsp
	popq	%rbx
	popq	%r12
	popq	%r13
	popq	%r14
	popq	%r15
	popq	%rbp
	.cfi_def_cfa %rsp, 8
	retq
.LBB24_6:                               # %func_buf2img.129
	.cfi_def_cfa %rbp, 16
	movq	%rbx, %rdi
	movq	%r13, %rsi
	movl	%r12d, %edx
	movl	%r15d, %ecx
	movl	%r14d, %r8d
	callq	buf2img.129
	addq	$8, %rsp
	popq	%rbx
	popq	%r12
	popq	%r13
	popq	%r14
	popq	%r15
	popq	%rbp
	.cfi_def_cfa %rsp, 8
	retq
.LBB24_7:                               # %func_buf2img.133
	.cfi_def_cfa %rbp, 16
	movq	%rbx, %rdi
	movq	%r13, %rsi
	movl	%r12d, %edx
	movl	%r15d, %ecx
	movl	%r14d, %r8d
	callq	buf2img.133
	addq	$8, %rsp
	popq	%rbx
	popq	%r12
	popq	%r13
	popq	%r14
	popq	%r15
	popq	%rbp
	.cfi_def_cfa %rsp, 8
	retq
.LBB24_8:                               # %func_buf2img.166
	.cfi_def_cfa %rbp, 16
	movq	%rbx, %rdi
	movq	%r13, %rsi
	movl	%r12d, %edx
	movl	%r15d, %ecx
	movl	%r14d, %r8d
	callq	buf2img.166
	addq	$8, %rsp
	popq	%rbx
	popq	%r12
	popq	%r13
	popq	%r14
	popq	%r15
	popq	%rbp
	.cfi_def_cfa %rsp, 8
	retq
.LBB24_9:                               # %ctrl0
	.cfi_def_cfa %rbp, 16
	cmpl	$1, %eax
	je	.LBB24_2
# %bb.10:                               # %ctrl1
	cmpl	$2, %eax
	je	.LBB24_3
# %bb.11:                               # %ctrl2
	cmpl	$3, %eax
	je	.LBB24_4
# %bb.12:                               # %ctrl3
	cmpl	$4, %eax
	je	.LBB24_5
# %bb.13:                               # %ctrl4
	cmpl	$5, %eax
	je	.LBB24_6
# %bb.14:                               # %ctrl5
	cmpl	$6, %eax
	je	.LBB24_7
	jmp	.LBB24_8
.Lfunc_end24:
	.size	buf2img, .Lfunc_end24-buf2img
	.cfi_endproc
                                        # -- End function
	.p2align	4, 0x90         # -- Begin function writeUnit
	.type	writeUnit,@function
writeUnit:                              # @writeUnit
	.cfi_startproc
# %bb.0:                                # %rand_bb
	pushq	%rbp
	.cfi_def_cfa_offset 16
	.cfi_offset %rbp, -16
	movq	%rsp, %rbp
	.cfi_def_cfa_register %rbp
	pushq	%r14
	pushq	%rbx
	.cfi_offset %rbx, -32
	.cfi_offset %r14, -24
	movl	%esi, %r14d
	movq	%rdi, %rbx
	callq	get_rand
	cmpl	$0, %eax
	jne	.LBB25_7
# %bb.1:                                # %func_writeUnit.13
	movq	%rbx, %rdi
	movl	%r14d, %esi
	callq	writeUnit.13
	popq	%rbx
	popq	%r14
	popq	%rbp
	.cfi_def_cfa %rsp, 8
	retq
.LBB25_2:                               # %func_writeUnit.15
	.cfi_def_cfa %rbp, 16
	movq	%rbx, %rdi
	movl	%r14d, %esi
	callq	writeUnit.15
	popq	%rbx
	popq	%r14
	popq	%rbp
	.cfi_def_cfa %rsp, 8
	retq
.LBB25_3:                               # %func_writeUnit.42
	.cfi_def_cfa %rbp, 16
	movq	%rbx, %rdi
	movl	%r14d, %esi
	callq	writeUnit.42
	popq	%rbx
	popq	%r14
	popq	%rbp
	.cfi_def_cfa %rsp, 8
	retq
.LBB25_4:                               # %func_writeUnit.80
	.cfi_def_cfa %rbp, 16
	movq	%rbx, %rdi
	movl	%r14d, %esi
	callq	writeUnit.80
	popq	%rbx
	popq	%r14
	popq	%rbp
	.cfi_def_cfa %rsp, 8
	retq
.LBB25_5:                               # %func_writeUnit.125
	.cfi_def_cfa %rbp, 16
	movq	%rbx, %rdi
	movl	%r14d, %esi
	callq	writeUnit.125
	popq	%rbx
	popq	%r14
	popq	%rbp
	.cfi_def_cfa %rsp, 8
	retq
.LBB25_6:                               # %func_writeUnit.142
	.cfi_def_cfa %rbp, 16
	movq	%rbx, %rdi
	movl	%r14d, %esi
	callq	writeUnit.142
	popq	%rbx
	popq	%r14
	popq	%rbp
	.cfi_def_cfa %rsp, 8
	retq
.LBB25_7:                               # %ctrl0
	.cfi_def_cfa %rbp, 16
	cmpl	$1, %eax
	je	.LBB25_2
# %bb.8:                                # %ctrl1
	cmpl	$2, %eax
	je	.LBB25_3
# %bb.9:                                # %ctrl2
	cmpl	$3, %eax
	je	.LBB25_4
# %bb.10:                               # %ctrl3
	cmpl	$4, %eax
	je	.LBB25_5
	jmp	.LBB25_6
.Lfunc_end25:
	.size	writeUnit, .Lfunc_end25-writeUnit
	.cfi_endproc
                                        # -- End function
	.p2align	4, 0x90         # -- Begin function init_frame
	.type	init_frame,@function
init_frame:                             # @init_frame
	.cfi_startproc
# %bb.0:                                # %rand_bb
	pushq	%rbp
	.cfi_def_cfa_offset 16
	.cfi_offset %rbp, -16
	movq	%rsp, %rbp
	.cfi_def_cfa_register %rbp
	callq	get_rand
	cmpl	$0, %eax
	jne	.LBB26_7
# %bb.1:                                # %func_init_frame.6
	callq	init_frame.6
	popq	%rbp
	.cfi_def_cfa %rsp, 8
	retq
.LBB26_2:                               # %func_init_frame.78
	.cfi_def_cfa %rbp, 16
	callq	init_frame.78
	popq	%rbp
	.cfi_def_cfa %rsp, 8
	retq
.LBB26_3:                               # %func_init_frame.90
	.cfi_def_cfa %rbp, 16
	callq	init_frame.90
	popq	%rbp
	.cfi_def_cfa %rsp, 8
	retq
.LBB26_4:                               # %func_init_frame.162
	.cfi_def_cfa %rbp, 16
	callq	init_frame.162
	popq	%rbp
	.cfi_def_cfa %rsp, 8
	retq
.LBB26_5:                               # %func_init_frame.187
	.cfi_def_cfa %rbp, 16
	callq	init_frame.187
	popq	%rbp
	.cfi_def_cfa %rsp, 8
	retq
.LBB26_6:                               # %func_init_frame.188
	.cfi_def_cfa %rbp, 16
	callq	init_frame.188
	popq	%rbp
	.cfi_def_cfa %rsp, 8
	retq
.LBB26_7:                               # %ctrl0
	.cfi_def_cfa %rbp, 16
	cmpl	$1, %eax
	je	.LBB26_2
# %bb.8:                                # %ctrl1
	cmpl	$2, %eax
	je	.LBB26_3
# %bb.9:                                # %ctrl2
	cmpl	$3, %eax
	je	.LBB26_4
# %bb.10:                               # %ctrl3
	cmpl	$4, %eax
	je	.LBB26_5
	jmp	.LBB26_6
.Lfunc_end26:
	.size	init_frame, .Lfunc_end26-init_frame
	.cfi_endproc
                                        # -- End function
	.p2align	4, 0x90         # -- Begin function init_dec_ref_pic_marking_buffer
	.type	init_dec_ref_pic_marking_buffer,@function
init_dec_ref_pic_marking_buffer:        # @init_dec_ref_pic_marking_buffer
	.cfi_startproc
# %bb.0:                                # %entry
	pushq	%rbp
	.cfi_def_cfa_offset 16
	.cfi_offset %rbp, -16
	movq	%rsp, %rbp
	.cfi_def_cfa_register %rbp
	movq	img, %rax
	movq	$0, 72512(%rax)
	popq	%rbp
	.cfi_def_cfa %rsp, 8
	retq
.Lfunc_end27:
	.size	init_dec_ref_pic_marking_buffer, .Lfunc_end27-init_dec_ref_pic_marking_buffer
	.cfi_endproc
                                        # -- End function
	.p2align	4, 0x90         # -- Begin function init_field
	.type	init_field,@function
init_field:                             # @init_field
	.cfi_startproc
# %bb.0:                                # %rand_bb
	pushq	%rbp
	.cfi_def_cfa_offset 16
	.cfi_offset %rbp, -16
	movq	%rsp, %rbp
	.cfi_def_cfa_register %rbp
	callq	get_rand
	cmpl	$0, %eax
	jne	.LBB28_7
# %bb.1:                                # %func_init_field.29
	callq	init_field.29
	popq	%rbp
	.cfi_def_cfa %rsp, 8
	retq
.LBB28_2:                               # %func_init_field.41
	.cfi_def_cfa %rbp, 16
	callq	init_field.41
	popq	%rbp
	.cfi_def_cfa %rsp, 8
	retq
.LBB28_3:                               # %func_init_field.53
	.cfi_def_cfa %rbp, 16
	callq	init_field.53
	popq	%rbp
	.cfi_def_cfa %rsp, 8
	retq
.LBB28_4:                               # %func_init_field.55
	.cfi_def_cfa %rbp, 16
	callq	init_field.55
	popq	%rbp
	.cfi_def_cfa %rsp, 8
	retq
.LBB28_5:                               # %func_init_field.65
	.cfi_def_cfa %rbp, 16
	callq	init_field.65
	popq	%rbp
	.cfi_def_cfa %rsp, 8
	retq
.LBB28_6:                               # %func_init_field.93
	.cfi_def_cfa %rbp, 16
	callq	init_field.93
	popq	%rbp
	.cfi_def_cfa %rsp, 8
	retq
.LBB28_7:                               # %ctrl0
	.cfi_def_cfa %rbp, 16
	cmpl	$1, %eax
	je	.LBB28_2
# %bb.8:                                # %ctrl1
	cmpl	$2, %eax
	je	.LBB28_3
# %bb.9:                                # %ctrl2
	cmpl	$3, %eax
	je	.LBB28_4
# %bb.10:                               # %ctrl3
	cmpl	$4, %eax
	je	.LBB28_5
	jmp	.LBB28_6
.Lfunc_end28:
	.size	init_field, .Lfunc_end28-init_field
	.cfi_endproc
                                        # -- End function
	.p2align	4, 0x90         # -- Begin function find_snr
	.type	find_snr,@function
find_snr:                               # @find_snr
	.cfi_startproc
# %bb.0:                                # %rand_bb
	pushq	%rbp
	.cfi_def_cfa_offset 16
	.cfi_offset %rbp, -16
	movq	%rsp, %rbp
	.cfi_def_cfa_register %rbp
	callq	get_rand
	cmpl	$0, %eax
	jne	.LBB29_9
# %bb.1:                                # %func_find_snr.3
	callq	find_snr.3
	popq	%rbp
	.cfi_def_cfa %rsp, 8
	retq
.LBB29_2:                               # %func_find_snr.22
	.cfi_def_cfa %rbp, 16
	callq	find_snr.22
	popq	%rbp
	.cfi_def_cfa %rsp, 8
	retq
.LBB29_3:                               # %func_find_snr.35
	.cfi_def_cfa %rbp, 16
	callq	find_snr.35
	popq	%rbp
	.cfi_def_cfa %rsp, 8
	retq
.LBB29_4:                               # %func_find_snr.52
	.cfi_def_cfa %rbp, 16
	callq	find_snr.52
	popq	%rbp
	.cfi_def_cfa %rsp, 8
	retq
.LBB29_5:                               # %func_find_snr.71
	.cfi_def_cfa %rbp, 16
	callq	find_snr.71
	popq	%rbp
	.cfi_def_cfa %rsp, 8
	retq
.LBB29_6:                               # %func_find_snr.95
	.cfi_def_cfa %rbp, 16
	callq	find_snr.95
	popq	%rbp
	.cfi_def_cfa %rsp, 8
	retq
.LBB29_7:                               # %func_find_snr.127
	.cfi_def_cfa %rbp, 16
	callq	find_snr.127
	popq	%rbp
	.cfi_def_cfa %rsp, 8
	retq
.LBB29_8:                               # %func_find_snr.163
	.cfi_def_cfa %rbp, 16
	callq	find_snr.163
	popq	%rbp
	.cfi_def_cfa %rsp, 8
	retq
.LBB29_9:                               # %ctrl0
	.cfi_def_cfa %rbp, 16
	cmpl	$1, %eax
	je	.LBB29_2
# %bb.10:                               # %ctrl1
	cmpl	$2, %eax
	je	.LBB29_3
# %bb.11:                               # %ctrl2
	cmpl	$3, %eax
	je	.LBB29_4
# %bb.12:                               # %ctrl3
	cmpl	$4, %eax
	je	.LBB29_5
# %bb.13:                               # %ctrl4
	cmpl	$5, %eax
	je	.LBB29_6
# %bb.14:                               # %ctrl5
	cmpl	$6, %eax
	je	.LBB29_7
	jmp	.LBB29_8
.Lfunc_end29:
	.size	find_snr, .Lfunc_end29-find_snr
	.cfi_endproc
                                        # -- End function
	.p2align	4, 0x90         # -- Begin function find_distortion
	.type	find_distortion,@function
find_distortion:                        # @find_distortion
	.cfi_startproc
# %bb.0:                                # %rand_bb
	pushq	%rbp
	.cfi_def_cfa_offset 16
	.cfi_offset %rbp, -16
	movq	%rsp, %rbp
	.cfi_def_cfa_register %rbp
	callq	get_rand
	cmpl	$0, %eax
	jne	.LBB30_9
# %bb.1:                                # %func_find_distortion.73
	callq	find_distortion.73
	popq	%rbp
	.cfi_def_cfa %rsp, 8
	retq
.LBB30_2:                               # %func_find_distortion.84
	.cfi_def_cfa %rbp, 16
	callq	find_distortion.84
	popq	%rbp
	.cfi_def_cfa %rsp, 8
	retq
.LBB30_3:                               # %func_find_distortion.100
	.cfi_def_cfa %rbp, 16
	callq	find_distortion.100
	popq	%rbp
	.cfi_def_cfa %rsp, 8
	retq
.LBB30_4:                               # %func_find_distortion.119
	.cfi_def_cfa %rbp, 16
	callq	find_distortion.119
	popq	%rbp
	.cfi_def_cfa %rsp, 8
	retq
.LBB30_5:                               # %func_find_distortion.134
	.cfi_def_cfa %rbp, 16
	callq	find_distortion.134
	popq	%rbp
	.cfi_def_cfa %rsp, 8
	retq
.LBB30_6:                               # %func_find_distortion.141
	.cfi_def_cfa %rbp, 16
	callq	find_distortion.141
	popq	%rbp
	.cfi_def_cfa %rsp, 8
	retq
.LBB30_7:                               # %func_find_distortion.147
	.cfi_def_cfa %rbp, 16
	callq	find_distortion.147
	popq	%rbp
	.cfi_def_cfa %rsp, 8
	retq
.LBB30_8:                               # %func_find_distortion.167
	.cfi_def_cfa %rbp, 16
	callq	find_distortion.167
	popq	%rbp
	.cfi_def_cfa %rsp, 8
	retq
.LBB30_9:                               # %ctrl0
	.cfi_def_cfa %rbp, 16
	cmpl	$1, %eax
	je	.LBB30_2
# %bb.10:                               # %ctrl1
	cmpl	$2, %eax
	je	.LBB30_3
# %bb.11:                               # %ctrl2
	cmpl	$3, %eax
	je	.LBB30_4
# %bb.12:                               # %ctrl3
	cmpl	$4, %eax
	je	.LBB30_5
# %bb.13:                               # %ctrl4
	cmpl	$5, %eax
	je	.LBB30_6
# %bb.14:                               # %ctrl5
	cmpl	$6, %eax
	je	.LBB30_7
	jmp	.LBB30_8
.Lfunc_end30:
	.size	find_distortion, .Lfunc_end30-find_distortion
	.cfi_endproc
                                        # -- End function
	.p2align	4, 0x90         # -- Begin function copy_motion_vectors_MB
	.type	copy_motion_vectors_MB,@function
copy_motion_vectors_MB:                 # @copy_motion_vectors_MB
	.cfi_startproc
# %bb.0:                                # %rand_bb
	pushq	%rbp
	.cfi_def_cfa_offset 16
	.cfi_offset %rbp, -16
	movq	%rsp, %rbp
	.cfi_def_cfa_register %rbp
	callq	get_rand
	cmpl	$0, %eax
	jne	.LBB31_9
# %bb.1:                                # %func_copy_motion_vectors_MB.61
	callq	copy_motion_vectors_MB.61
	popq	%rbp
	.cfi_def_cfa %rsp, 8
	retq
.LBB31_2:                               # %func_copy_motion_vectors_MB.64
	.cfi_def_cfa %rbp, 16
	callq	copy_motion_vectors_MB.64
	popq	%rbp
	.cfi_def_cfa %rsp, 8
	retq
.LBB31_3:                               # %func_copy_motion_vectors_MB.69
	.cfi_def_cfa %rbp, 16
	callq	copy_motion_vectors_MB.69
	popq	%rbp
	.cfi_def_cfa %rsp, 8
	retq
.LBB31_4:                               # %func_copy_motion_vectors_MB.101
	.cfi_def_cfa %rbp, 16
	callq	copy_motion_vectors_MB.101
	popq	%rbp
	.cfi_def_cfa %rsp, 8
	retq
.LBB31_5:                               # %func_copy_motion_vectors_MB.152
	.cfi_def_cfa %rbp, 16
	callq	copy_motion_vectors_MB.152
	popq	%rbp
	.cfi_def_cfa %rsp, 8
	retq
.LBB31_6:                               # %func_copy_motion_vectors_MB.173
	.cfi_def_cfa %rbp, 16
	callq	copy_motion_vectors_MB.173
	popq	%rbp
	.cfi_def_cfa %rsp, 8
	retq
.LBB31_7:                               # %func_copy_motion_vectors_MB.175
	.cfi_def_cfa %rbp, 16
	callq	copy_motion_vectors_MB.175
	popq	%rbp
	.cfi_def_cfa %rsp, 8
	retq
.LBB31_8:                               # %func_copy_motion_vectors_MB.177
	.cfi_def_cfa %rbp, 16
	callq	copy_motion_vectors_MB.177
	popq	%rbp
	.cfi_def_cfa %rsp, 8
	retq
.LBB31_9:                               # %ctrl0
	.cfi_def_cfa %rbp, 16
	cmpl	$1, %eax
	je	.LBB31_2
# %bb.10:                               # %ctrl1
	cmpl	$2, %eax
	je	.LBB31_3
# %bb.11:                               # %ctrl2
	cmpl	$3, %eax
	je	.LBB31_4
# %bb.12:                               # %ctrl3
	cmpl	$4, %eax
	je	.LBB31_5
# %bb.13:                               # %ctrl4
	cmpl	$5, %eax
	je	.LBB31_6
# %bb.14:                               # %ctrl5
	cmpl	$6, %eax
	je	.LBB31_7
	jmp	.LBB31_8
.Lfunc_end31:
	.size	copy_motion_vectors_MB, .Lfunc_end31-copy_motion_vectors_MB
	.cfi_endproc
                                        # -- End function
	.p2align	4, 0x90         # -- Begin function CalculateFrameNumber
	.type	CalculateFrameNumber,@function
CalculateFrameNumber:                   # @CalculateFrameNumber
	.cfi_startproc
# %bb.0:                                # %entry
	pushq	%rbp
	.cfi_def_cfa_offset 16
	.cfi_offset %rbp, -16
	movq	%rsp, %rbp
	.cfi_def_cfa_register %rbp
	movq	img, %rax
	cmpl	$0, 71908(%rax)
	je	.LBB32_5
# %bb.1:                                # %if.then
	movq	input, %rax
	cmpl	$0, 1320(%rax)
	je	.LBB32_3
# %bb.2:                                # %if.then2
	movl	start_tr_in_this_IGOP, %eax
	movq	img, %rcx
	movl	(%rcx), %ecx
	subl	start_frame_no_in_this_IGOP, %ecx
	subl	$1, %ecx
	movq	input, %rdx
	movl	20(%rdx), %edx
	addl	$1, %edx
	imull	%edx, %ecx
	addl	%ecx, %eax
	movq	img, %rcx
	vmovsd	71896(%rcx), %xmm0      # xmm0 = mem[0],zero
	movq	gop_structure, %rcx
	movq	img, %rdx
	movl	71908(%rdx), %edx
	subl	$1, %edx
	movslq	%edx, %rdx
	imulq	$24, %rdx, %rdx
	addq	%rdx, %rcx
	movl	4(%rcx), %ecx
	addl	$1, %ecx
	vcvtsi2sd	%ecx, %xmm0, %xmm1
	vmulsd	%xmm1, %xmm0, %xmm0
	vcvttsd2si	%xmm0, %ecx
	addl	%ecx, %eax
	movl	%eax, frame_no
	jmp	.LBB32_4
.LBB32_3:                               # %if.else
	movl	start_tr_in_this_IGOP, %eax
	movq	img, %rcx
	movl	(%rcx), %ecx
	subl	start_frame_no_in_this_IGOP, %ecx
	subl	$1, %ecx
	movq	input, %rdx
	movl	20(%rdx), %edx
	addl	$1, %edx
	imull	%edx, %ecx
	addl	%ecx, %eax
	movq	img, %rcx
	vmovsd	71896(%rcx), %xmm0      # xmm0 = mem[0],zero
	movq	img, %rcx
	vcvtsi2sdl	71908(%rcx), %xmm0, %xmm1
	vmulsd	%xmm1, %xmm0, %xmm0
	vcvttsd2si	%xmm0, %ecx
	addl	%ecx, %eax
	movl	%eax, frame_no
.LBB32_4:                               # %if.end
	jmp	.LBB32_9
.LBB32_5:                               # %if.else24
	movl	start_tr_in_this_IGOP, %eax
	movq	img, %rcx
	movl	(%rcx), %ecx
	subl	start_frame_no_in_this_IGOP, %ecx
	movq	input, %rdx
	movl	20(%rdx), %edx
	addl	$1, %edx
	imull	%edx, %ecx
	addl	%ecx, %eax
	movl	%eax, frame_no
	movq	input, %rax
	cmpl	$0, 2440(%rax)
	je	.LBB32_8
# %bb.6:                                # %land.lhs.true
	movq	img, %rax
	movl	(%rax), %eax
	addl	$1, %eax
	movq	input, %rcx
	cmpl	8(%rcx), %eax
	jne	.LBB32_8
# %bb.7:                                # %if.then35
	movq	input, %rax
	movl	2440(%rax), %eax
	movl	%eax, frame_no
.LBB32_8:                               # %if.end37
	jmp	.LBB32_9
.LBB32_9:                               # %if.end38
	movl	frame_no, %eax
	popq	%rbp
	.cfi_def_cfa %rsp, 8
	retq
.Lfunc_end32:
	.size	CalculateFrameNumber, .Lfunc_end32-CalculateFrameNumber
	.cfi_endproc
                                        # -- End function
	.p2align	4, 0x90         # -- Begin function put_buffer_frame
	.type	put_buffer_frame,@function
put_buffer_frame:                       # @put_buffer_frame
	.cfi_startproc
# %bb.0:                                # %entry
	pushq	%rbp
	.cfi_def_cfa_offset 16
	.cfi_offset %rbp, -16
	movq	%rsp, %rbp
	.cfi_def_cfa_register %rbp
	movq	imgY_org_frm, %rax
	movq	%rax, imgY_org
	movq	imgUV_org_frm, %rax
	movq	%rax, imgUV_org
	popq	%rbp
	.cfi_def_cfa %rsp, 8
	retq
.Lfunc_end33:
	.size	put_buffer_frame, .Lfunc_end33-put_buffer_frame
	.cfi_endproc
                                        # -- End function
	.p2align	4, 0x90         # -- Begin function put_buffer_top
	.type	put_buffer_top,@function
put_buffer_top:                         # @put_buffer_top
	.cfi_startproc
# %bb.0:                                # %entry
	pushq	%rbp
	.cfi_def_cfa_offset 16
	.cfi_offset %rbp, -16
	movq	%rsp, %rbp
	.cfi_def_cfa_register %rbp
	movq	img, %rax
	movl	$0, 71796(%rax)
	movq	imgY_org_top, %rax
	movq	%rax, imgY_org
	movq	imgUV_org_top, %rax
	movq	%rax, imgUV_org
	popq	%rbp
	.cfi_def_cfa %rsp, 8
	retq
.Lfunc_end34:
	.size	put_buffer_top, .Lfunc_end34-put_buffer_top
	.cfi_endproc
                                        # -- End function
	.p2align	4, 0x90         # -- Begin function put_buffer_bot
	.type	put_buffer_bot,@function
put_buffer_bot:                         # @put_buffer_bot
	.cfi_startproc
# %bb.0:                                # %entry
	pushq	%rbp
	.cfi_def_cfa_offset 16
	.cfi_offset %rbp, -16
	movq	%rsp, %rbp
	.cfi_def_cfa_register %rbp
	movq	img, %rax
	movl	$1, 71796(%rax)
	movq	imgY_org_bot, %rax
	movq	%rax, imgY_org
	movq	imgUV_org_bot, %rax
	movq	%rax, imgUV_org
	popq	%rbp
	.cfi_def_cfa %rsp, 8
	retq
.Lfunc_end35:
	.size	put_buffer_bot, .Lfunc_end35-put_buffer_bot
	.cfi_endproc
                                        # -- End function
	.p2align	4, 0x90         # -- Begin function rdPictureCoding
	.type	rdPictureCoding,@function
rdPictureCoding:                        # @rdPictureCoding
	.cfi_startproc
# %bb.0:                                # %rand_bb
	pushq	%rbp
	.cfi_def_cfa_offset 16
	.cfi_offset %rbp, -16
	movq	%rsp, %rbp
	.cfi_def_cfa_register %rbp
	callq	get_rand
	cmpl	$0, %eax
	jne	.LBB36_9
# %bb.1:                                # %func_rdPictureCoding.20
	callq	rdPictureCoding.20
	popq	%rbp
	.cfi_def_cfa %rsp, 8
	retq
.LBB36_2:                               # %func_rdPictureCoding.50
	.cfi_def_cfa %rbp, 16
	callq	rdPictureCoding.50
	popq	%rbp
	.cfi_def_cfa %rsp, 8
	retq
.LBB36_3:                               # %func_rdPictureCoding.62
	.cfi_def_cfa %rbp, 16
	callq	rdPictureCoding.62
	popq	%rbp
	.cfi_def_cfa %rsp, 8
	retq
.LBB36_4:                               # %func_rdPictureCoding.67
	.cfi_def_cfa %rbp, 16
	callq	rdPictureCoding.67
	popq	%rbp
	.cfi_def_cfa %rsp, 8
	retq
.LBB36_5:                               # %func_rdPictureCoding.82
	.cfi_def_cfa %rbp, 16
	callq	rdPictureCoding.82
	popq	%rbp
	.cfi_def_cfa %rsp, 8
	retq
.LBB36_6:                               # %func_rdPictureCoding.91
	.cfi_def_cfa %rbp, 16
	callq	rdPictureCoding.91
	popq	%rbp
	.cfi_def_cfa %rsp, 8
	retq
.LBB36_7:                               # %func_rdPictureCoding.136
	.cfi_def_cfa %rbp, 16
	callq	rdPictureCoding.136
	popq	%rbp
	.cfi_def_cfa %rsp, 8
	retq
.LBB36_8:                               # %func_rdPictureCoding.145
	.cfi_def_cfa %rbp, 16
	callq	rdPictureCoding.145
	popq	%rbp
	.cfi_def_cfa %rsp, 8
	retq
.LBB36_9:                               # %ctrl0
	.cfi_def_cfa %rbp, 16
	cmpl	$1, %eax
	je	.LBB36_2
# %bb.10:                               # %ctrl1
	cmpl	$2, %eax
	je	.LBB36_3
# %bb.11:                               # %ctrl2
	cmpl	$3, %eax
	je	.LBB36_4
# %bb.12:                               # %ctrl3
	cmpl	$4, %eax
	je	.LBB36_5
# %bb.13:                               # %ctrl4
	cmpl	$5, %eax
	je	.LBB36_6
# %bb.14:                               # %ctrl5
	cmpl	$6, %eax
	je	.LBB36_7
	jmp	.LBB36_8
.Lfunc_end36:
	.size	rdPictureCoding, .Lfunc_end36-rdPictureCoding
	.cfi_endproc
                                        # -- End function
	.p2align	4, 0x90         # -- Begin function ReportRB.1
	.type	ReportRB.1,@function
ReportRB.1:                             # @ReportRB.1
	.cfi_startproc
# %bb.0:                                # %entry
	pushq	%rbp
	.cfi_def_cfa_offset 16
	.cfi_offset %rbp, -16
	movq	%rsp, %rbp
	.cfi_def_cfa_register %rbp
	pushq	%rbx
	subq	$56, %rsp
	.cfi_offset %rbx, -24
	movl	$2116284998, -20(%rbp)  # imm = 0x7E23F246
	movl	%edi, -16(%rbp)
	movl	%esi, -12(%rbp)
	movl	frame_no, %esi
	movq	stats, %rax
	movl	16(%rax), %edx
	movq	stats, %rax
	subl	20(%rax), %edx
	movq	active_pps, %rax
	movl	196(%rax), %ecx
	movq	img, %rax
	movl	40(%rax), %r8d
	movq	snr, %rax
	vmovss	(%rax), %xmm0           # xmm0 = mem[0],zero,zero,zero
	vcvtss2sd	%xmm0, %xmm0, %xmm0
	movq	snr, %rax
	vmovss	4(%rax), %xmm1          # xmm1 = mem[0],zero,zero,zero
	vcvtss2sd	%xmm1, %xmm0, %xmm1
	movq	snr, %rax
	vmovss	8(%rax), %xmm2          # xmm2 = mem[0],zero,zero,zero
	vcvtss2sd	%xmm2, %xmm0, %xmm2
	movl	-16(%rbp), %r9d
	movl	-12(%rbp), %r10d
	movq	img, %rdi
	movl	71800(%rdi), %edi
	cmpl	$0, %edi
	movabsq	$.L.str.7, %rdi
	movabsq	$.L.str.8, %rax
	cmovneq	%rdi, %rax
	movl	intras, %r11d
	movq	img, %rdi
	movl	71996(%rdi), %ebx
	movabsq	$.L.str.11, %rdi
	movl	%r10d, (%rsp)
	movq	%rax, 8(%rsp)
	movl	%r11d, 16(%rsp)
	movl	%ebx, 24(%rsp)
	movb	$3, %al
	callq	printf
	cmpl	$2116284998, -20(%rbp)  # imm = 0x7E23F246
	jne	.LBB37_2
.LBB37_1:
	addq	$56, %rsp
	popq	%rbx
	popq	%rbp
	.cfi_def_cfa %rsp, 8
	retq
.LBB37_2:                               # %func_exit
	.cfi_def_cfa %rbp, 16
	callq	detect_breach
	jmp	.LBB37_1
.Lfunc_end37:
	.size	ReportRB.1, .Lfunc_end37-ReportRB.1
	.cfi_endproc
                                        # -- End function
	.globl	code_a_picture.2        # -- Begin function code_a_picture.2
	.p2align	4, 0x90
	.type	code_a_picture.2,@function
code_a_picture.2:                       # @code_a_picture.2
	.cfi_startproc
# %bb.0:                                # %entry
	pushq	%rbp
	.cfi_def_cfa_offset 16
	.cfi_offset %rbp, -16
	movq	%rsp, %rbp
	.cfi_def_cfa_register %rbp
	subq	$32, %rsp
	movl	$67126388, -28(%rbp)    # imm = 0x4004474
	movq	%rdi, -24(%rbp)
	movl	$0, -12(%rbp)
	movl	$0, -8(%rbp)
	movq	-24(%rbp), %rax
	movq	img, %rcx
	movq	%rax, 14152(%rcx)
	movq	img, %rax
	movl	(%rax), %eax
	subl	start_frame_no_in_this_IGOP, %eax
	cmpl	$0, %eax
	jne	.LBB38_2
# %bb.1:                                # %land.lhs.true
	movq	img, %rax
	cmpl	$2, 28(%rax)
	movb	$1, %al
	jne	.LBB38_8
.LBB38_2:                               # %lor.rhs
	xorl	%eax, %eax
	movq	input, %rcx
	cmpl	$0, 1228(%rcx)
	je	.LBB38_7
# %bb.3:                                # %land.lhs.true2
	movq	img, %rax
	cmpl	$2, 24(%rax)
	je	.LBB38_6
# %bb.4:                                # %lor.lhs.false
	movq	img, %rax
	cmpl	$3, 24(%rax)
	je	.LBB38_6
# %bb.5:                                # %lor.lhs.false6
	xorl	%eax, %eax
	movq	img, %rcx
	cmpl	$4, 24(%rcx)
	jne	.LBB38_7
.LBB38_6:                               # %land.rhs
	movq	img, %rax
	cmpl	$2, 28(%rax)
	sete	%al
	xorb	$-1, %al
.LBB38_7:                               # %land.end
.LBB38_8:                               # %lor.end
	andb	$1, %al
	movzbl	%al, %eax
	movq	img, %rcx
	movq	14152(%rcx), %rcx
	movl	%eax, 4(%rcx)
	movq	-24(%rbp), %rax
	movl	$0, (%rax)
	movq	-24(%rbp), %rax
	vxorps	%xmm0, %xmm0, %xmm0
	vmovss	%xmm0, 812(%rax)
	movq	-24(%rbp), %rax
	vmovss	%xmm0, 820(%rax)
	movq	-24(%rbp), %rax
	vmovss	%xmm0, 816(%rax)
	movb	$0, %al
	callq	RandomIntraNewPicture
	movq	img, %rax
	movl	$1, 72652(%rax)
	movq	img, %rdi
	movq	active_pps, %rsi
	movq	active_sps, %rdx
	callq	FmoInit
	movb	$0, %al
	callq	FmoStartPicture
	movb	$0, %al
	callq	CalculateQuantParam
	movb	$0, %al
	callq	CalculateOffsetParam
	movq	input, %rax
	cmpl	$0, 3220(%rax)
	je	.LBB38_10
# %bb.9:                                # %if.then
	movb	$0, %al
	callq	CalculateQuant8Param
	movb	$0, %al
	callq	CalculateOffset8Param
.LBB38_10:                              # %if.end
	jmp	.LBB38_11
.LBB38_11:                              # %while.cond
                                        # =>This Loop Header: Depth=1
                                        #     Child Loop BB38_13 Depth 2
	movl	-12(%rbp), %eax
	movq	img, %rcx
	cmpl	16(%rcx), %eax
	jge	.LBB38_16
# %bb.12:                               # %while.body
                                        #   in Loop: Header=BB38_11 Depth=1
	jmp	.LBB38_13
.LBB38_13:                              # %while.cond15
                                        #   Parent Loop BB38_11 Depth=1
                                        # =>  This Inner Loop Header: Depth=2
	movl	-8(%rbp), %edi
	callq	FmoSliceGroupCompletelyCoded
	cmpl	$0, %eax
	setne	%al
	xorb	$-1, %al
	testb	$1, %al
	jne	.LBB38_14
	jmp	.LBB38_15
.LBB38_14:                              # %while.body19
                                        #   in Loop: Header=BB38_13 Depth=2
	movl	-8(%rbp), %edi
	movq	-24(%rbp), %rsi
	callq	encode_one_slice
	addl	-12(%rbp), %eax
	movl	%eax, -12(%rbp)
	movq	img, %rax
	movl	12(%rax), %edi
	callq	FmoSetLastMacroblockInSlice
	movq	img, %rax
	movl	20(%rax), %ecx
	addl	$1, %ecx
	movl	%ecx, 20(%rax)
	movq	stats, %rax
	movl	$0, 24(%rax)
	jmp	.LBB38_13
.LBB38_15:                              # %while.end
                                        #   in Loop: Header=BB38_11 Depth=1
	movl	-8(%rbp), %eax
	addl	$1, %eax
	movl	%eax, -8(%rbp)
	jmp	.LBB38_11
.LBB38_16:                              # %while.end22
	movb	$0, %al
	callq	FmoEndPicture
	movq	input, %rax
	cmpl	$2, 2464(%rax)
	jne	.LBB38_23
# %bb.17:                               # %land.lhs.true25
	movq	img, %rax
	cmpl	$1, 24(%rax)
	je	.LBB38_23
# %bb.18:                               # %if.then28
	movl	$0, -4(%rbp)
.LBB38_19:                              # %for.cond
                                        # =>This Inner Loop Header: Depth=1
	movl	-4(%rbp), %eax
	movq	input, %rcx
	cmpl	2904(%rcx), %eax
	jge	.LBB38_22
# %bb.20:                               # %for.body
                                        #   in Loop: Header=BB38_19 Depth=1
	movq	img, %rdi
	movq	decs, %rax
	movq	24(%rax), %rax
	movslq	-4(%rbp), %rcx
	movq	(%rax,%rcx,8), %rsi
	xorl	%edx, %edx
	callq	DeblockFrame
# %bb.21:                               # %for.inc
                                        #   in Loop: Header=BB38_19 Depth=1
	movl	-4(%rbp), %eax
	addl	$1, %eax
	movl	%eax, -4(%rbp)
	jmp	.LBB38_19
.LBB38_22:                              # %for.end
	jmp	.LBB38_23
.LBB38_23:                              # %if.end31
	movq	img, %rdi
	movq	enc_picture, %rax
	movq	6424(%rax), %rsi
	movq	enc_picture, %rax
	movq	6464(%rax), %rdx
	callq	DeblockFrame
	movq	img, %rax
	cmpl	$0, 72400(%rax)
	je	.LBB38_25
# %bb.24:                               # %if.then33
	callq	MbAffPostProc
.LBB38_25:                              # %if.end34
	cmpl	$67126388, -28(%rbp)    # imm = 0x4004474
	jne	.LBB38_27
.LBB38_26:
	addq	$32, %rsp
	popq	%rbp
	.cfi_def_cfa %rsp, 8
	retq
.LBB38_27:                              # %func_exit
	.cfi_def_cfa %rbp, 16
	callq	detect_breach
	jmp	.LBB38_26
.Lfunc_end38:
	.size	code_a_picture.2, .Lfunc_end38-code_a_picture.2
	.cfi_endproc
                                        # -- End function
	.section	.rodata.cst8,"aM",@progbits,8
	.p2align	3               # -- Begin function find_snr.3
.LCPI39_0:
	.quad	4621819117588971520     # double 10
	.text
	.p2align	4, 0x90
	.type	find_snr.3,@function
find_snr.3:                             # @find_snr.3
	.cfi_startproc
# %bb.0:                                # %entry
	pushq	%rbp
	.cfi_def_cfa_offset 16
	.cfi_offset %rbp, -16
	movq	%rsp, %rbp
	.cfi_def_cfa_register %rbp
	subq	$64, %rsp
	movl	$655543477, -48(%rbp)   # imm = 0x2712CCB5
	movq	$0, -16(%rbp)
	movq	$0, -24(%rbp)
	movq	$0, -32(%rbp)
	movq	img, %rax
	movl	72684(%rax), %eax
	movq	img, %rcx
	imull	72684(%rcx), %eax
	movl	%eax, -52(%rbp)
	movq	img, %rax
	movl	72688(%rax), %eax
	movq	img, %rcx
	imull	72688(%rcx), %eax
	movl	%eax, -40(%rbp)
	movq	input, %rax
	movl	68(%rax), %eax
	movq	input, %rcx
	imull	64(%rcx), %eax
	movl	%eax, -44(%rbp)
	movq	input, %rax
	movl	3304(%rax), %eax
	movq	input, %rcx
	imull	3308(%rcx), %eax
	movl	%eax, -36(%rbp)
	movq	img, %rax
	cmpl	$0, 71800(%rax)
	je	.LBB39_20
# %bb.1:                                # %if.then
	movq	$0, -16(%rbp)
	movl	$0, -4(%rbp)
.LBB39_2:                               # %for.cond
                                        # =>This Loop Header: Depth=1
                                        #     Child Loop BB39_4 Depth 2
	movl	-4(%rbp), %eax
	movq	input, %rcx
	cmpl	64(%rcx), %eax
	jge	.LBB39_9
# %bb.3:                                # %for.body
                                        #   in Loop: Header=BB39_2 Depth=1
	movl	$0, -8(%rbp)
.LBB39_4:                               # %for.cond8
                                        #   Parent Loop BB39_2 Depth=1
                                        # =>  This Inner Loop Header: Depth=2
	movl	-8(%rbp), %eax
	movq	input, %rcx
	cmpl	68(%rcx), %eax
	jge	.LBB39_7
# %bb.5:                                # %for.body11
                                        #   in Loop: Header=BB39_4 Depth=2
	movq	img, %rax
	movq	71776(%rax), %rax
	movq	imgY_org, %rcx
	movslq	-8(%rbp), %rdx
	movq	(%rcx,%rdx,8), %rcx
	movslq	-4(%rbp), %rdx
	movzwl	(%rcx,%rdx,2), %ecx
	movq	imgY_com, %rdx
	movslq	-8(%rbp), %rsi
	movq	(%rdx,%rsi,8), %rdx
	movslq	-4(%rbp), %rsi
	movzwl	(%rdx,%rsi,2), %edx
	subl	%edx, %ecx
	movslq	%ecx, %rcx
	movslq	(%rax,%rcx,4), %rax
	addq	-16(%rbp), %rax
	movq	%rax, -16(%rbp)
# %bb.6:                                # %for.inc
                                        #   in Loop: Header=BB39_4 Depth=2
	movl	-8(%rbp), %eax
	addl	$1, %eax
	movl	%eax, -8(%rbp)
	jmp	.LBB39_4
.LBB39_7:                               # %for.end
                                        #   in Loop: Header=BB39_2 Depth=1
	jmp	.LBB39_8
.LBB39_8:                               # %for.inc22
                                        #   in Loop: Header=BB39_2 Depth=1
	movl	-4(%rbp), %eax
	addl	$1, %eax
	movl	%eax, -4(%rbp)
	jmp	.LBB39_2
.LBB39_9:                               # %for.end24
	movq	img, %rax
	cmpl	$0, 72700(%rax)
	je	.LBB39_19
# %bb.10:                               # %if.then27
	movq	$0, -24(%rbp)
	movq	$0, -32(%rbp)
	movl	$0, -4(%rbp)
.LBB39_11:                              # %for.cond28
                                        # =>This Loop Header: Depth=1
                                        #     Child Loop BB39_13 Depth 2
	movl	-4(%rbp), %eax
	movq	input, %rcx
	cmpl	3308(%rcx), %eax
	jge	.LBB39_18
# %bb.12:                               # %for.body32
                                        #   in Loop: Header=BB39_11 Depth=1
	movl	$0, -8(%rbp)
.LBB39_13:                              # %for.cond33
                                        #   Parent Loop BB39_11 Depth=1
                                        # =>  This Inner Loop Header: Depth=2
	movl	-8(%rbp), %eax
	movq	input, %rcx
	cmpl	3304(%rcx), %eax
	jge	.LBB39_16
# %bb.14:                               # %for.body37
                                        #   in Loop: Header=BB39_13 Depth=2
	movq	img, %rax
	movq	71776(%rax), %rax
	movq	imgUV_org, %rcx
	movq	(%rcx), %rcx
	movslq	-8(%rbp), %rdx
	movq	(%rcx,%rdx,8), %rcx
	movslq	-4(%rbp), %rdx
	movzwl	(%rcx,%rdx,2), %ecx
	movq	imgUV_com, %rdx
	movq	(%rdx), %rdx
	movslq	-8(%rbp), %rsi
	movq	(%rdx,%rsi,8), %rdx
	movslq	-4(%rbp), %rsi
	movzwl	(%rdx,%rsi,2), %edx
	subl	%edx, %ecx
	movslq	%ecx, %rcx
	movslq	(%rax,%rcx,4), %rax
	addq	-24(%rbp), %rax
	movq	%rax, -24(%rbp)
	movq	img, %rax
	movq	71776(%rax), %rax
	movq	imgUV_org, %rcx
	movq	8(%rcx), %rcx
	movslq	-8(%rbp), %rdx
	movq	(%rcx,%rdx,8), %rcx
	movslq	-4(%rbp), %rdx
	movzwl	(%rcx,%rdx,2), %ecx
	movq	imgUV_com, %rdx
	movq	8(%rdx), %rdx
	movslq	-8(%rbp), %rsi
	movq	(%rdx,%rsi,8), %rdx
	movslq	-4(%rbp), %rsi
	movzwl	(%rdx,%rsi,2), %edx
	subl	%edx, %ecx
	movslq	%ecx, %rcx
	movslq	(%rax,%rcx,4), %rax
	addq	-32(%rbp), %rax
	movq	%rax, -32(%rbp)
# %bb.15:                               # %for.inc74
                                        #   in Loop: Header=BB39_13 Depth=2
	movl	-8(%rbp), %eax
	addl	$1, %eax
	movl	%eax, -8(%rbp)
	jmp	.LBB39_13
.LBB39_16:                              # %for.end76
                                        #   in Loop: Header=BB39_11 Depth=1
	jmp	.LBB39_17
.LBB39_17:                              # %for.inc77
                                        #   in Loop: Header=BB39_11 Depth=1
	movl	-4(%rbp), %eax
	addl	$1, %eax
	movl	%eax, -4(%rbp)
	jmp	.LBB39_11
.LBB39_18:                              # %for.end79
	jmp	.LBB39_19
.LBB39_19:                              # %if.end
	jmp	.LBB39_41
.LBB39_20:                              # %if.else
	movq	imgY_org_frm, %rax
	movq	%rax, imgY_org
	movq	imgUV_org_frm, %rax
	movq	%rax, imgUV_org
	movq	input, %rax
	cmpl	$2, 2880(%rax)
	jne	.LBB39_22
# %bb.21:                               # %if.then82
	movq	enc_frame_picture, %rax
	movq	%rax, enc_picture
.LBB39_22:                              # %if.end83
	movq	$0, -16(%rbp)
	movl	$0, -4(%rbp)
.LBB39_23:                              # %for.cond84
                                        # =>This Loop Header: Depth=1
                                        #     Child Loop BB39_25 Depth 2
	movl	-4(%rbp), %eax
	movq	input, %rcx
	cmpl	64(%rcx), %eax
	jge	.LBB39_30
# %bb.24:                               # %for.body88
                                        #   in Loop: Header=BB39_23 Depth=1
	movl	$0, -8(%rbp)
.LBB39_25:                              # %for.cond89
                                        #   Parent Loop BB39_23 Depth=1
                                        # =>  This Inner Loop Header: Depth=2
	movl	-8(%rbp), %eax
	movq	input, %rcx
	cmpl	68(%rcx), %eax
	jge	.LBB39_28
# %bb.26:                               # %for.body93
                                        #   in Loop: Header=BB39_25 Depth=2
	movq	img, %rax
	movq	71776(%rax), %rax
	movq	imgY_org, %rcx
	movslq	-8(%rbp), %rdx
	movq	(%rcx,%rdx,8), %rcx
	movslq	-4(%rbp), %rdx
	movzwl	(%rcx,%rdx,2), %ecx
	movq	enc_picture, %rdx
	movq	6424(%rdx), %rdx
	movslq	-8(%rbp), %rsi
	movq	(%rdx,%rsi,8), %rdx
	movslq	-4(%rbp), %rsi
	movzwl	(%rdx,%rsi,2), %edx
	subl	%edx, %ecx
	movslq	%ecx, %rcx
	movslq	(%rax,%rcx,4), %rax
	addq	-16(%rbp), %rax
	movq	%rax, -16(%rbp)
# %bb.27:                               # %for.inc110
                                        #   in Loop: Header=BB39_25 Depth=2
	movl	-8(%rbp), %eax
	addl	$1, %eax
	movl	%eax, -8(%rbp)
	jmp	.LBB39_25
.LBB39_28:                              # %for.end112
                                        #   in Loop: Header=BB39_23 Depth=1
	jmp	.LBB39_29
.LBB39_29:                              # %for.inc113
                                        #   in Loop: Header=BB39_23 Depth=1
	movl	-4(%rbp), %eax
	addl	$1, %eax
	movl	%eax, -4(%rbp)
	jmp	.LBB39_23
.LBB39_30:                              # %for.end115
	movq	img, %rax
	cmpl	$0, 72700(%rax)
	je	.LBB39_40
# %bb.31:                               # %if.then119
	movq	$0, -24(%rbp)
	movq	$0, -32(%rbp)
	movl	$0, -4(%rbp)
.LBB39_32:                              # %for.cond120
                                        # =>This Loop Header: Depth=1
                                        #     Child Loop BB39_34 Depth 2
	movl	-4(%rbp), %eax
	movq	input, %rcx
	cmpl	3308(%rcx), %eax
	jge	.LBB39_39
# %bb.33:                               # %for.body124
                                        #   in Loop: Header=BB39_32 Depth=1
	movl	$0, -8(%rbp)
.LBB39_34:                              # %for.cond125
                                        #   Parent Loop BB39_32 Depth=1
                                        # =>  This Inner Loop Header: Depth=2
	movl	-8(%rbp), %eax
	movq	input, %rcx
	cmpl	3304(%rcx), %eax
	jge	.LBB39_37
# %bb.35:                               # %for.body129
                                        #   in Loop: Header=BB39_34 Depth=2
	movq	img, %rax
	movq	71776(%rax), %rax
	movq	imgUV_org, %rcx
	movq	(%rcx), %rcx
	movslq	-8(%rbp), %rdx
	movq	(%rcx,%rdx,8), %rcx
	movslq	-4(%rbp), %rdx
	movzwl	(%rcx,%rdx,2), %ecx
	movq	enc_picture, %rdx
	movq	6464(%rdx), %rdx
	movq	(%rdx), %rdx
	movslq	-8(%rbp), %rsi
	movq	(%rdx,%rsi,8), %rdx
	movslq	-4(%rbp), %rsi
	movzwl	(%rdx,%rsi,2), %edx
	subl	%edx, %ecx
	movslq	%ecx, %rcx
	movslq	(%rax,%rcx,4), %rax
	addq	-24(%rbp), %rax
	movq	%rax, -24(%rbp)
	movq	img, %rax
	movq	71776(%rax), %rax
	movq	imgUV_org, %rcx
	movq	8(%rcx), %rcx
	movslq	-8(%rbp), %rdx
	movq	(%rcx,%rdx,8), %rcx
	movslq	-4(%rbp), %rdx
	movzwl	(%rcx,%rdx,2), %ecx
	movq	enc_picture, %rdx
	movq	6464(%rdx), %rdx
	movq	8(%rdx), %rdx
	movslq	-8(%rbp), %rsi
	movq	(%rdx,%rsi,8), %rdx
	movslq	-4(%rbp), %rsi
	movzwl	(%rdx,%rsi,2), %edx
	subl	%edx, %ecx
	movslq	%ecx, %rcx
	movslq	(%rax,%rcx,4), %rax
	addq	-32(%rbp), %rax
	movq	%rax, -32(%rbp)
# %bb.36:                               # %for.inc167
                                        #   in Loop: Header=BB39_34 Depth=2
	movl	-8(%rbp), %eax
	addl	$1, %eax
	movl	%eax, -8(%rbp)
	jmp	.LBB39_34
.LBB39_37:                              # %for.end169
                                        #   in Loop: Header=BB39_32 Depth=1
	jmp	.LBB39_38
.LBB39_38:                              # %for.inc170
                                        #   in Loop: Header=BB39_32 Depth=1
	movl	-4(%rbp), %eax
	addl	$1, %eax
	movl	%eax, -4(%rbp)
	jmp	.LBB39_32
.LBB39_39:                              # %for.end172
	jmp	.LBB39_40
.LBB39_40:                              # %if.end173
	jmp	.LBB39_41
.LBB39_41:                              # %if.end174
	cmpq	$0, -16(%rbp)
	jne	.LBB39_43
# %bb.42:                               # %if.then177
	movq	$1, -16(%rbp)
.LBB39_43:                              # %if.end178
	cmpq	$0, -24(%rbp)
	jne	.LBB39_45
# %bb.44:                               # %if.then181
	movq	$1, -24(%rbp)
.LBB39_45:                              # %if.end182
	cmpq	$0, -32(%rbp)
	jne	.LBB39_47
# %bb.46:                               # %if.then185
	movq	$1, -32(%rbp)
.LBB39_47:                              # %if.end186
	cmpq	$0, -16(%rbp)
	je	.LBB39_52
# %bb.48:                               # %if.then189
	movl	-52(%rbp), %eax
	vcvtsi2sd	%rax, %xmm0, %xmm0
	vcvtsi2sdl	-44(%rbp), %xmm0, %xmm1
	vcvtsi2sdq	-16(%rbp), %xmm0, %xmm2
	vdivsd	%xmm2, %xmm1, %xmm1
	vmulsd	%xmm1, %xmm0, %xmm0
	callq	log10
	vmovsd	.LCPI39_0(%rip), %xmm1  # xmm1 = mem[0],zero
	vmulsd	%xmm0, %xmm1, %xmm0
	vcvtsd2ss	%xmm0, %xmm0, %xmm0
	movq	snr, %rax
	vmovss	%xmm0, (%rax)
	movq	img, %rax
	cmpl	$0, 72700(%rax)
	je	.LBB39_50
# %bb.49:                               # %if.then199
	movl	-40(%rbp), %eax
	vcvtsi2sd	%rax, %xmm0, %xmm0
	vcvtsi2sdl	-36(%rbp), %xmm0, %xmm1
	vcvtsi2sdq	-24(%rbp), %xmm0, %xmm2
	vdivsd	%xmm2, %xmm1, %xmm1
	vmulsd	%xmm1, %xmm0, %xmm0
	callq	log10
	vmovsd	.LCPI39_0(%rip), %xmm1  # xmm1 = mem[0],zero
	vmulsd	%xmm1, %xmm0, %xmm0
	vcvtsd2ss	%xmm0, %xmm0, %xmm0
	movq	snr(%rip), %rax
	vmovss	%xmm0, 4(%rax)
	movl	-40(%rbp), %eax
	vcvtsi2sd	%rax, %xmm0, %xmm0
	vcvtsi2sdl	-36(%rbp), %xmm0, %xmm1
	vcvtsi2sdq	-32(%rbp), %xmm0, %xmm2
	vdivsd	%xmm2, %xmm1, %xmm1
	vmulsd	%xmm1, %xmm0, %xmm0
	callq	log10
	vmovsd	.LCPI39_0(%rip), %xmm1  # xmm1 = mem[0],zero
	vmulsd	%xmm0, %xmm1, %xmm0
	vcvtsd2ss	%xmm0, %xmm0, %xmm0
	movq	snr, %rax
	vmovss	%xmm0, 8(%rax)
	jmp	.LBB39_51
.LBB39_50:                              # %if.else216
	movq	snr, %rax
	vxorps	%xmm0, %xmm0, %xmm0
	vmovss	%xmm0, 4(%rax)
	movq	snr, %rax
	vmovss	%xmm0, 8(%rax)
.LBB39_51:                              # %if.end219
	jmp	.LBB39_52
.LBB39_52:                              # %if.end220
	movq	img, %rax
	cmpl	$0, (%rax)
	jne	.LBB39_54
# %bb.53:                               # %if.then223
	movq	snr, %rax
	vmovss	(%rax), %xmm0           # xmm0 = mem[0],zero,zero,zero
	movq	snr, %rax
	vmovss	%xmm0, 12(%rax)
	movq	snr, %rax
	vmovss	4(%rax), %xmm0          # xmm0 = mem[0],zero,zero,zero
	movq	snr, %rax
	vmovss	%xmm0, 16(%rax)
	movq	snr, %rax
	vmovss	8(%rax), %xmm0          # xmm0 = mem[0],zero,zero,zero
	movq	snr, %rax
	vmovss	%xmm0, 20(%rax)
	movq	snr, %rax
	vmovss	12(%rax), %xmm0         # xmm0 = mem[0],zero,zero,zero
	movq	snr, %rax
	vmovss	%xmm0, 60(%rax)
	movq	snr, %rax
	vmovss	16(%rax), %xmm0         # xmm0 = mem[0],zero,zero,zero
	movq	snr, %rax
	vmovss	%xmm0, 64(%rax)
	movq	snr, %rax
	vmovss	20(%rax), %xmm0         # xmm0 = mem[0],zero,zero,zero
	movq	snr, %rax
	vmovss	%xmm0, 68(%rax)
	movq	snr, %rax
	vxorps	%xmm0, %xmm0, %xmm0
	vmovss	%xmm0, 32(%rax)
	movq	snr, %rax
	vmovss	%xmm0, 44(%rax)
	movq	snr, %rax
	vmovss	%xmm0, 56(%rax)
	movq	snr, %rax
	vmovss	%xmm0, 24(%rax)
	movq	snr, %rax
	vmovss	%xmm0, 36(%rax)
	movq	snr, %rax
	vmovss	%xmm0, 48(%rax)
	movq	snr, %rax
	vmovss	%xmm0, 28(%rax)
	movq	snr, %rax
	vmovss	%xmm0, 40(%rax)
	movq	snr, %rax
	vmovss	%xmm0, 52(%rax)
	jmp	.LBB39_55
.LBB39_54:                              # %if.else245
	movq	snr, %rax
	vmovss	60(%rax), %xmm0         # xmm0 = mem[0],zero,zero,zero
	movq	img, %rax
	movl	(%rax), %eax
	addl	Bframe_ctr, %eax
	vcvtsi2ss	%eax, %xmm0, %xmm1
	vmulss	%xmm1, %xmm0, %xmm0
	movq	snr, %rax
	vaddss	(%rax), %xmm0, %xmm0
	movq	img, %rax
	movl	(%rax), %eax
	addl	Bframe_ctr, %eax
	addl	$1, %eax
	vcvtsi2ss	%eax, %xmm0, %xmm1
	vdivss	%xmm1, %xmm0, %xmm0
	movq	snr, %rax
	vmovss	%xmm0, 60(%rax)
	movq	snr, %rax
	vmovss	64(%rax), %xmm0         # xmm0 = mem[0],zero,zero,zero
	movq	img, %rax
	movl	(%rax), %eax
	addl	Bframe_ctr, %eax
	vcvtsi2ss	%eax, %xmm0, %xmm1
	vmulss	%xmm1, %xmm0, %xmm0
	movq	snr, %rax
	vaddss	4(%rax), %xmm0, %xmm0
	movq	img, %rax
	movl	(%rax), %eax
	addl	Bframe_ctr, %eax
	addl	$1, %eax
	vcvtsi2ss	%eax, %xmm0, %xmm1
	vdivss	%xmm1, %xmm0, %xmm0
	movq	snr, %rax
	vmovss	%xmm0, 64(%rax)
	movq	snr, %rax
	vmovss	68(%rax), %xmm0         # xmm0 = mem[0],zero,zero,zero
	movq	img, %rax
	movl	(%rax), %eax
	addl	Bframe_ctr, %eax
	vcvtsi2ss	%eax, %xmm0, %xmm1
	vmulss	%xmm1, %xmm0, %xmm0
	movq	snr, %rax
	vaddss	8(%rax), %xmm0, %xmm0
	movq	img, %rax
	movl	(%rax), %eax
	addl	Bframe_ctr, %eax
	addl	$1, %eax
	vcvtsi2ss	%eax, %xmm0, %xmm1
	vdivss	%xmm1, %xmm0, %xmm0
	movq	snr, %rax
	vmovss	%xmm0, 68(%rax)
.LBB39_55:                              # %if.end285
	movq	img, %rax
	cmpl	$2, 24(%rax)
	jne	.LBB39_57
# %bb.56:                               # %if.then288
	movq	snr, %rax
	vmovss	32(%rax), %xmm0         # xmm0 = mem[0],zero,zero,zero
	movl	Iframe_ctr, %eax
	subl	$1, %eax
	vcvtsi2ss	%eax, %xmm0, %xmm1
	vmulss	%xmm1, %xmm0, %xmm0
	movq	snr, %rax
	vaddss	(%rax), %xmm0, %xmm0
	vcvtsi2ssl	Iframe_ctr, %xmm0, %xmm1
	vdivss	%xmm1, %xmm0, %xmm0
	movq	snr, %rax
	vmovss	%xmm0, 32(%rax)
	movq	snr, %rax
	vmovss	44(%rax), %xmm0         # xmm0 = mem[0],zero,zero,zero
	movl	Iframe_ctr, %eax
	subl	$1, %eax
	vcvtsi2ss	%eax, %xmm0, %xmm1
	vmulss	%xmm1, %xmm0, %xmm0
	movq	snr, %rax
	vaddss	4(%rax), %xmm0, %xmm0
	vcvtsi2ssl	Iframe_ctr, %xmm0, %xmm1
	vdivss	%xmm1, %xmm0, %xmm0
	movq	snr, %rax
	vmovss	%xmm0, 44(%rax)
	movq	snr, %rax
	vmovss	56(%rax), %xmm0         # xmm0 = mem[0],zero,zero,zero
	movl	Iframe_ctr, %eax
	subl	$1, %eax
	vcvtsi2ss	%eax, %xmm0, %xmm1
	vmulss	%xmm1, %xmm0, %xmm0
	movq	snr, %rax
	vaddss	8(%rax), %xmm0, %xmm0
	vcvtsi2ssl	Iframe_ctr, %xmm0, %xmm1
	vdivss	%xmm1, %xmm0, %xmm0
	movq	snr, %rax
	vmovss	%xmm0, 56(%rax)
	jmp	.LBB39_61
.LBB39_57:                              # %if.else322
	movq	img, %rax
	cmpl	$1, 24(%rax)
	jne	.LBB39_59
# %bb.58:                               # %if.then326
	movq	snr, %rax
	vmovss	28(%rax), %xmm0         # xmm0 = mem[0],zero,zero,zero
	movl	Bframe_ctr, %eax
	subl	$1, %eax
	vcvtsi2ss	%eax, %xmm0, %xmm1
	vmulss	%xmm1, %xmm0, %xmm0
	movq	snr, %rax
	vaddss	(%rax), %xmm0, %xmm0
	vcvtsi2ssl	Bframe_ctr, %xmm0, %xmm1
	vdivss	%xmm1, %xmm0, %xmm0
	movq	snr, %rax
	vmovss	%xmm0, 28(%rax)
	movq	snr, %rax
	vmovss	40(%rax), %xmm0         # xmm0 = mem[0],zero,zero,zero
	movl	Bframe_ctr, %eax
	subl	$1, %eax
	vcvtsi2ss	%eax, %xmm0, %xmm1
	vmulss	%xmm1, %xmm0, %xmm0
	movq	snr, %rax
	vaddss	4(%rax), %xmm0, %xmm0
	vcvtsi2ssl	Bframe_ctr, %xmm0, %xmm1
	vdivss	%xmm1, %xmm0, %xmm0
	movq	snr, %rax
	vmovss	%xmm0, 40(%rax)
	movq	snr, %rax
	vmovss	52(%rax), %xmm0         # xmm0 = mem[0],zero,zero,zero
	movl	Bframe_ctr, %eax
	subl	$1, %eax
	vcvtsi2ss	%eax, %xmm0, %xmm1
	vmulss	%xmm1, %xmm0, %xmm0
	movq	snr, %rax
	vaddss	8(%rax), %xmm0, %xmm0
	vcvtsi2ssl	Bframe_ctr, %xmm0, %xmm1
	vdivss	%xmm1, %xmm0, %xmm0
	movq	snr, %rax
	vmovss	%xmm0, 52(%rax)
	jmp	.LBB39_60
.LBB39_59:                              # %if.else360
	movq	snr, %rax
	vmovss	24(%rax), %xmm0         # xmm0 = mem[0],zero,zero,zero
	movl	Pframe_ctr, %eax
	subl	$1, %eax
	vcvtsi2ss	%eax, %xmm0, %xmm1
	vmulss	%xmm1, %xmm0, %xmm0
	movq	snr, %rax
	vaddss	(%rax), %xmm0, %xmm0
	vcvtsi2ssl	Pframe_ctr, %xmm0, %xmm1
	vdivss	%xmm1, %xmm0, %xmm0
	movq	snr, %rax
	vmovss	%xmm0, 24(%rax)
	movq	snr, %rax
	vmovss	36(%rax), %xmm0         # xmm0 = mem[0],zero,zero,zero
	movl	Pframe_ctr, %eax
	subl	$1, %eax
	vcvtsi2ss	%eax, %xmm0, %xmm1
	vmulss	%xmm1, %xmm0, %xmm0
	movq	snr, %rax
	vaddss	4(%rax), %xmm0, %xmm0
	vcvtsi2ssl	Pframe_ctr, %xmm0, %xmm1
	vdivss	%xmm1, %xmm0, %xmm0
	movq	snr, %rax
	vmovss	%xmm0, 36(%rax)
	movq	snr, %rax
	vmovss	48(%rax), %xmm0         # xmm0 = mem[0],zero,zero,zero
	movl	Pframe_ctr, %eax
	subl	$1, %eax
	vcvtsi2ss	%eax, %xmm0, %xmm1
	vmulss	%xmm1, %xmm0, %xmm0
	movq	snr, %rax
	vaddss	8(%rax), %xmm0, %xmm0
	vcvtsi2ssl	Pframe_ctr, %xmm0, %xmm1
	vdivss	%xmm1, %xmm0, %xmm0
	movq	snr, %rax
	vmovss	%xmm0, 48(%rax)
.LBB39_60:                              # %if.end394
	jmp	.LBB39_61
.LBB39_61:                              # %if.end395
	cmpl	$655543477, -48(%rbp)   # imm = 0x2712CCB5
	jne	.LBB39_63
.LBB39_62:
	addq	$64, %rsp
	popq	%rbp
	.cfi_def_cfa %rsp, 8
	retq
.LBB39_63:                              # %func_exit
	.cfi_def_cfa %rbp, 16
	callq	detect_breach
	jmp	.LBB39_62
.Lfunc_end39:
	.size	find_snr.3, .Lfunc_end39-find_snr.3
	.cfi_endproc
                                        # -- End function
	.globl	encode_one_frame.4      # -- Begin function encode_one_frame.4
	.p2align	4, 0x90
	.type	encode_one_frame.4,@function
encode_one_frame.4:                     # @encode_one_frame.4
	.cfi_startproc
# %bb.0:                                # %entry
	pushq	%rbp
	.cfi_def_cfa_offset 16
	.cfi_offset %rbp, -16
	movq	%rsp, %rbp
	.cfi_def_cfa_register %rbp
	pushq	%rbx
	subq	$136, %rsp
	.cfi_offset %rbx, -24
	movl	$1145983886, -60(%rbp)  # imm = 0x444E538E
	movl	$0, -28(%rbp)
	movl	$0, -44(%rbp)
	vxorps	%xmm0, %xmm0, %xmm0
	vmovss	%xmm0, -56(%rbp)
	vmovss	%xmm0, -52(%rbp)
	vmovss	%xmm0, -68(%rbp)
	vmovss	%xmm0, -36(%rbp)
	vmovss	%xmm0, -32(%rbp)
	vmovss	%xmm0, -48(%rbp)
	vmovss	%xmm0, -64(%rbp)
	vmovss	%xmm0, -24(%rbp)
	movl	$0, -16(%rbp)
	movl	$0, me_time
	movq	img, %rax
	movl	$0, 71804(%rax)
	movq	$0, enc_frame_picture
	movq	$0, enc_frame_picture2
	movq	$0, enc_frame_picture3
	leaq	-128(%rbp), %rdi
	callq	ftime
	leaq	-80(%rbp), %rdi
	callq	time
	movq	img, %rax
	movl	$0, 72624(%rax)
	movq	input, %rax
	cmpl	$0, 56(%rax)
	je	.LBB40_3
# %bb.1:                                # %land.lhs.true
	movq	img, %rax
	cmpl	$0, (%rax)
	je	.LBB40_3
# %bb.2:                                # %if.then
	xorl	%edi, %edi
	xorl	%esi, %esi
	callq	write_PPS
	movq	stats, %rcx
	movl	%eax, 1492(%rcx)
	movq	stats, %rax
	movl	1492(%rax), %eax
	movq	stats, %rcx
	addl	1488(%rcx), %eax
	movl	%eax, 1488(%rcx)
.LBB40_3:                               # %if.end
	callq	put_buffer_frame
	callq	init_frame
	callq	CalculateFrameNumber
	movl	%eax, -40(%rbp)
	movl	-40(%rbp), %edi
	movq	input, %rax
	movl	220(%rax), %esi
	movq	input, %rax
	movl	64(%rax), %edx
	movq	input, %rax
	movl	68(%rax), %ecx
	movq	input, %rax
	movl	3308(%rax), %r8d
	movq	input, %rax
	movl	3304(%rax), %r9d
	callq	ReadOneFrame
	movq	input, %rax
	movl	64(%rax), %edi
	movq	input, %rax
	movl	68(%rax), %esi
	movq	img, %rax
	movl	52(%rax), %edx
	movq	img, %rax
	movl	60(%rax), %ecx
	movq	input, %rax
	movl	3308(%rax), %r8d
	movq	input, %rax
	movl	3304(%rax), %r9d
	movq	img, %rax
	movl	56(%rax), %eax
	movq	img, %rbx
	movl	64(%rbx), %ebx
	movl	%eax, (%rsp)
	movl	%ebx, 8(%rsp)
	callq	PaddAutoCropBorders
	movq	input, %rax
	movl	1248(%rax), %eax
	movq	img, %rcx
	movl	%eax, 71996(%rcx)
	movq	input, %rax
	movl	2928(%rax), %eax
	movq	img, %rcx
	movl	%eax, 71984(%rcx)
	movq	input, %rax
	movl	2932(%rax), %eax
	movq	img, %rcx
	movl	%eax, 71988(%rcx)
	movq	input, %rax
	movl	2936(%rax), %eax
	movq	img, %rcx
	movl	%eax, 71992(%rcx)
	movq	img, %rax
	cmpl	$1, 24(%rax)
	jne	.LBB40_5
# %bb.4:                                # %if.then14
	movl	Bframe_ctr, %eax
	addl	$1, %eax
	movl	%eax, Bframe_ctr
	jmp	.LBB40_9
.LBB40_5:                               # %if.else
	movq	img, %rax
	cmpl	$2, 24(%rax)
	jne	.LBB40_7
# %bb.6:                                # %if.then17
	movl	Iframe_ctr, %eax
	addl	$1, %eax
	movl	%eax, Iframe_ctr
	jmp	.LBB40_8
.LBB40_7:                               # %if.else19
	movl	Pframe_ctr, %eax
	addl	$1, %eax
	movl	%eax, Pframe_ctr
.LBB40_8:                               # %if.end21
	jmp	.LBB40_9
.LBB40_9:                               # %if.end22
	movq	input, %rax
	cmpl	$1, 2880(%rax)
	jne	.LBB40_11
# %bb.10:                               # %if.then24
	movq	img, %rax
	movl	$1, 72600(%rax)
	movq	img, %rax
	movl	$1, 72444(%rax)
	movq	top_pic, %rdi
	movq	bottom_pic, %rsi
	callq	field_picture
	movq	img, %rax
	movl	$1, 71800(%rax)
	jmp	.LBB40_38
.LBB40_11:                              # %if.else25
	movq	img, %rax
	movl	$0, 72600(%rax)
	movq	input, %rax
	cmpl	$0, 2884(%rax)
	je	.LBB40_13
# %bb.12:                               # %if.then28
	movl	$1, mb_adaptive
.LBB40_13:                              # %if.end29
	movq	img, %rax
	movl	$0, 72444(%rax)
	movq	input, %rax
	cmpl	$0, 3236(%rax)
	je	.LBB40_21
# %bb.14:                               # %if.then32
	movq	input, %rax
	cmpl	$0, 2884(%rax)
	je	.LBB40_19
# %bb.15:                               # %land.lhs.true35
	movq	input, %rax
	movl	3248(%rax), %eax
	movq	img, %rcx
	cmpl	72608(%rcx), %eax
	jge	.LBB40_19
# %bb.16:                               # %land.lhs.true37
	movq	img, %rax
	cmpl	$0, 24(%rax)
	jne	.LBB40_19
# %bb.17:                               # %land.lhs.true40
	movq	img, %rax
	cmpl	$0, 72612(%rax)
	jne	.LBB40_19
# %bb.18:                               # %if.then42
	movq	input, %rax
	movl	3248(%rax), %eax
	shll	$1, %eax
	movq	img, %rcx
	movl	%eax, 72620(%rcx)
	jmp	.LBB40_20
.LBB40_19:                              # %if.else44
	movq	input, %rax
	movl	3248(%rax), %eax
	movq	img, %rcx
	movl	%eax, 72620(%rcx)
.LBB40_20:                              # %if.end47
	movl	$1, %edi
	xorl	%esi, %esi
	movl	$1, %edx
	callq	rc_init_pict
	xorl	%edi, %edi
	callq	updateQuantizationParameter
	movq	img, %rcx
	movl	%eax, 40(%rcx)
	movq	img, %rax
	movl	24(%rax), %eax
	movl	%eax, -92(%rbp)
	movl	$0, QP
.LBB40_21:                              # %if.end50
	movq	active_sps, %rax
	cmpl	$0, 1148(%rax)
	je	.LBB40_23
# %bb.22:                               # %if.then52
	movq	img, %rax
	movl	$0, 72596(%rax)
.LBB40_23:                              # %if.end53
	movq	input, %rax
	cmpl	$0, 60(%rax)
	je	.LBB40_25
# %bb.24:                               # %if.then55
	movabsq	$PicParSet, %rax
	movq	%rax, active_pps
.LBB40_25:                              # %if.end56
	movq	frame_pic, %rdi
	xorl	%esi, %esi
	callq	frame_picture
	movq	input, %rax
	cmpl	$0, 1300(%rax)
	jne	.LBB40_27
# %bb.26:                               # %lor.lhs.false
	movq	img, %rax
	cmpl	$2, 24(%rax)
	je	.LBB40_29
.LBB40_27:                              # %land.lhs.true60
	movq	input, %rax
	cmpl	$0, 1296(%rax)
	je	.LBB40_29
# %bb.28:                               # %if.then62
	callq	rdPictureCoding
.LBB40_29:                              # %if.end63
	movq	input, %rax
	cmpl	$0, 2884(%rax)
	je	.LBB40_31
# %bb.30:                               # %if.then66
	movl	$0, mb_adaptive
.LBB40_31:                              # %if.end67
	movq	input, %rax
	cmpl	$2, 2880(%rax)
	jne	.LBB40_36
# %bb.32:                               # %if.then70
	movq	img, %rax
	movl	$1, 72600(%rax)
	movq	img, %rax
	movl	$0, 72624(%rax)
	movq	img, %rax
	movl	$0, 72628(%rax)
	movq	img, %rax
	movl	$1, 72444(%rax)
	movq	top_pic, %rdi
	movq	bottom_pic, %rsi
	callq	field_picture
	movq	top_pic, %rax
	vmovss	812(%rax), %xmm0        # xmm0 = mem[0],zero,zero,zero
	movq	top_pic, %rax
	vaddss	816(%rax), %xmm0, %xmm0
	movq	top_pic, %rax
	vaddss	820(%rax), %xmm0, %xmm0
	vmovss	%xmm0, -32(%rbp)
	movq	frame_pic, %rax
	vmovss	812(%rax), %xmm0        # xmm0 = mem[0],zero,zero,zero
	movq	frame_pic, %rax
	vaddss	816(%rax), %xmm0, %xmm0
	movq	frame_pic, %rax
	vaddss	820(%rax), %xmm0, %xmm0
	vmovss	%xmm0, -56(%rbp)
	movq	frame_pic, %rdi
	movq	top_pic, %rsi
	movq	bottom_pic, %rdx
	callq	picture_structure_decision
	movq	img, %rcx
	movl	%eax, 71800(%rcx)
	movq	img, %rax
	movl	71800(%rax), %edi
	callq	update_field_frame_contexts
	movq	img, %rax
	cmpl	$0, 71800(%rax)
	jne	.LBB40_34
# %bb.33:                               # %if.then86
	movq	img, %rax
	movl	$1, 72604(%rax)
	jmp	.LBB40_35
.LBB40_34:                              # %if.else87
	movq	img, %rax
	movl	$0, 72604(%rax)
.LBB40_35:                              # %if.end89
	jmp	.LBB40_37
.LBB40_36:                              # %if.else90
	movq	img, %rax
	movl	$0, 71800(%rax)
.LBB40_37:                              # %if.end92
	jmp	.LBB40_38
.LBB40_38:                              # %if.end93
	movq	img, %rax
	cmpl	$0, 71800(%rax)
	je	.LBB40_40
# %bb.39:                               # %if.then96
	movq	stats, %rax
	movl	1472(%rax), %eax
	movq	stats, %rcx
	addl	28(%rcx), %eax
	movl	%eax, 28(%rcx)
	jmp	.LBB40_41
.LBB40_40:                              # %if.else98
	movq	stats, %rax
	movl	1468(%rax), %eax
	movq	stats, %rcx
	addl	28(%rcx), %eax
	movl	%eax, 28(%rcx)
.LBB40_41:                              # %if.end101
	movq	img, %rax
	cmpl	$1, 24(%rax)
	je	.LBB40_43
# %bb.42:                               # %if.then104
	movq	img, %rax
	movl	71800(%rax), %eax
	movq	img, %rcx
	movl	%eax, 71872(%rcx)
.LBB40_43:                              # %if.end106
	movq	img, %rax
	cmpl	$0, 71800(%rax)
	je	.LBB40_45
# %bb.44:                               # %if.then109
	movl	-44(%rbp), %edi
	vmovss	-48(%rbp), %xmm0        # xmm0 = mem[0],zero,zero,zero
	vmovss	-64(%rbp), %xmm1        # xmm1 = mem[0],zero,zero,zero
	vmovss	-24(%rbp), %xmm2        # xmm2 = mem[0],zero,zero,zero
	callq	field_mode_buffer
	movq	top_pic, %rdi
	callq	writeout_picture
	movq	bottom_pic, %rdi
	callq	writeout_picture
	jmp	.LBB40_54
.LBB40_45:                              # %if.else112
	movl	-28(%rbp), %edi
	vmovss	-52(%rbp), %xmm0        # xmm0 = mem[0],zero,zero,zero
	vmovss	-68(%rbp), %xmm1        # xmm1 = mem[0],zero,zero,zero
	vmovss	-36(%rbp), %xmm2        # xmm2 = mem[0],zero,zero,zero
	callq	frame_mode_buffer
	movq	input, %rax
	cmpl	$0, 1296(%rax)
	je	.LBB40_48
# %bb.46:                               # %land.lhs.true115
	movq	img, %rax
	cmpl	$2, 71804(%rax)
	jne	.LBB40_48
# %bb.47:                               # %if.then118
	movq	frame_pic3, %rdi
	callq	writeout_picture
	jmp	.LBB40_53
.LBB40_48:                              # %if.else120
	movq	input, %rax
	cmpl	$0, 1296(%rax)
	je	.LBB40_51
# %bb.49:                               # %land.lhs.true123
	movq	img, %rax
	cmpl	$1, 71804(%rax)
	jne	.LBB40_51
# %bb.50:                               # %if.then126
	movq	frame_pic2, %rdi
	callq	writeout_picture
	jmp	.LBB40_52
.LBB40_51:                              # %if.else128
	movq	frame_pic, %rdi
	callq	writeout_picture
.LBB40_52:                              # %if.end130
	jmp	.LBB40_53
.LBB40_53:                              # %if.end131
	jmp	.LBB40_54
.LBB40_54:                              # %if.end132
	cmpq	$0, frame_pic3
	je	.LBB40_56
# %bb.55:                               # %if.then134
	movq	frame_pic3, %rdi
	callq	free_slice_list
.LBB40_56:                              # %if.end135
	cmpq	$0, frame_pic2
	je	.LBB40_58
# %bb.57:                               # %if.then137
	movq	frame_pic2, %rdi
	callq	free_slice_list
.LBB40_58:                              # %if.end138
	cmpq	$0, frame_pic
	je	.LBB40_60
# %bb.59:                               # %if.then140
	movq	frame_pic, %rdi
	callq	free_slice_list
.LBB40_60:                              # %if.end141
	cmpq	$0, top_pic
	je	.LBB40_62
# %bb.61:                               # %if.then143
	movq	top_pic, %rdi
	callq	free_slice_list
.LBB40_62:                              # %if.end144
	cmpq	$0, bottom_pic
	je	.LBB40_64
# %bb.63:                               # %if.then146
	movq	bottom_pic, %rdi
	callq	free_slice_list
.LBB40_64:                              # %if.end147
	movq	input, %rax
	cmpl	$0, 3236(%rax)
	je	.LBB40_66
# %bb.65:                               # %if.then150
	movq	stats, %rax
	movl	16(%rax), %eax
	movq	stats, %rcx
	subl	20(%rcx), %eax
	movl	%eax, -16(%rbp)
	movl	-16(%rbp), %edi
	callq	rc_update_pict_frame
.LBB40_66:                              # %if.end151
	callq	find_snr
	leaq	-88(%rbp), %rdi
	callq	time
	leaq	-112(%rbp), %rdi
	callq	ftime
	imulq	$1000, -88(%rbp), %rax  # imm = 0x3E8
	movzwl	-104(%rbp), %ecx
	addq	%rcx, %rax
	imulq	$1000, -80(%rbp), %rcx  # imm = 0x3E8
	movzwl	-120(%rbp), %edx
	addq	%rdx, %rcx
	subq	%rcx, %rax
	movl	%eax, -12(%rbp)
	movl	tot_time, %eax
	addl	-12(%rbp), %eax
	movl	%eax, tot_time
	movq	input, %rax
	cmpl	$2, 2880(%rax)
	jne	.LBB40_71
# %bb.67:                               # %if.then166
	movq	img, %rax
	cmpl	$0, 71800(%rax)
	je	.LBB40_69
# %bb.68:                               # %if.then169
	movq	enc_bottom_picture, %rdi
	callq	store_picture_in_dpb
	movq	enc_frame_picture, %rdi
	callq	free_storable_picture
	jmp	.LBB40_70
.LBB40_69:                              # %if.else170
	movq	enc_frame_picture, %rdi
	callq	replace_top_pic_with_frame
	movq	enc_bottom_picture, %rdi
	callq	free_storable_picture
.LBB40_70:                              # %if.end171
	jmp	.LBB40_81
.LBB40_71:                              # %if.else172
	movq	img, %rax
	cmpl	$0, 71800(%rax)
	je	.LBB40_73
# %bb.72:                               # %if.then175
	movq	enc_bottom_picture, %rdi
	callq	store_picture_in_dpb
	jmp	.LBB40_80
.LBB40_73:                              # %if.else176
	movq	img, %rax
	cmpl	$2, 71804(%rax)
	jne	.LBB40_75
# %bb.74:                               # %if.then180
	movq	enc_frame_picture3, %rdi
	callq	store_picture_in_dpb
	movq	enc_frame_picture, %rdi
	callq	free_storable_picture
	movq	enc_frame_picture2, %rdi
	callq	free_storable_picture
	jmp	.LBB40_79
.LBB40_75:                              # %if.else181
	movq	img, %rax
	cmpl	$1, 71804(%rax)
	jne	.LBB40_77
# %bb.76:                               # %if.then185
	movq	enc_frame_picture2, %rdi
	callq	store_picture_in_dpb
	movq	enc_frame_picture, %rdi
	callq	free_storable_picture
	movq	enc_frame_picture3, %rdi
	callq	free_storable_picture
	jmp	.LBB40_78
.LBB40_77:                              # %if.else186
	movq	enc_frame_picture, %rdi
	callq	store_picture_in_dpb
	movq	enc_frame_picture2, %rdi
	callq	free_storable_picture
	movq	enc_frame_picture3, %rdi
	callq	free_storable_picture
.LBB40_78:                              # %if.end187
	jmp	.LBB40_79
.LBB40_79:                              # %if.end188
	jmp	.LBB40_80
.LBB40_80:                              # %if.end189
	jmp	.LBB40_81
.LBB40_81:                              # %if.end190
	movq	stats, %rax
	movl	16(%rax), %eax
	movq	stats, %rcx
	subl	20(%rcx), %eax
	cltq
	movq	total_frame_buffer, %rcx
	movq	%rax, Bit_Buffer(,%rcx,8)
	movq	total_frame_buffer, %rax
	addq	$1, %rax
	movq	%rax, total_frame_buffer
	movq	img, %rax
	cmpl	$2, 72404(%rax)
	jne	.LBB40_89
# %bb.82:                               # %if.then198
	movq	img, %rax
	cmpl	$0, 72496(%rax)
	jne	.LBB40_84
# %bb.83:                               # %if.then200
	movl	encode_one_frame.consecutive_non_reference_pictures, %eax
	addl	$1, %eax
	movl	%eax, encode_one_frame.consecutive_non_reference_pictures
	jmp	.LBB40_85
.LBB40_84:                              # %if.else202
	movl	$0, encode_one_frame.consecutive_non_reference_pictures
.LBB40_85:                              # %if.end203
	movl	frame_no, %eax
	cmpl	encode_one_frame.prev_frame_no, %eax
	jl	.LBB40_87
# %bb.86:                               # %lor.lhs.false206
	cmpl	$1, encode_one_frame.consecutive_non_reference_pictures
	jle	.LBB40_88
.LBB40_87:                              # %if.then209
	movabsq	$.L.str, %rdi
	movl	$4294967295, %esi       # imm = 0xFFFFFFFF
	callq	error
.LBB40_88:                              # %if.end210
	movl	frame_no, %eax
	movl	%eax, encode_one_frame.prev_frame_no
.LBB40_89:                              # %if.end211
	movq	stats, %rax
	cmpl	$0, 1492(%rax)
	je	.LBB40_91
# %bb.90:                               # %if.then215
	movl	-12(%rbp), %edi
	movl	me_time, %esi
	callq	ReportNALNonVLCBits
.LBB40_91:                              # %if.end216
	movq	img, %rax
	movl	(%rax), %eax
	subl	start_frame_no_in_this_IGOP, %eax
	cmpl	$0, %eax
	jne	.LBB40_93
# %bb.92:                               # %if.then221
	movl	-12(%rbp), %edi
	movl	me_time, %esi
	callq	ReportFirstframe
	jmp	.LBB40_110
.LBB40_93:                              # %if.else222
	movq	input, %rax
	cmpl	$0, 3236(%rax)
	je	.LBB40_99
# %bb.94:                               # %if.then225
	movq	input, %rax
	cmpl	$0, 2880(%rax)
	jne	.LBB40_97
# %bb.95:                               # %land.lhs.true228
	movq	input, %rax
	cmpl	$0, 2884(%rax)
	jne	.LBB40_97
# %bb.96:                               # %if.then231
	movq	stats, %rax
	movl	16(%rax), %eax
	movq	stats, %rcx
	subl	20(%rcx), %eax
	movl	%eax, -16(%rbp)
	jmp	.LBB40_98
.LBB40_97:                              # %if.else235
	movq	stats, %rax
	movl	16(%rax), %eax
	subl	Pprev_bits, %eax
	movl	%eax, -16(%rbp)
	movq	stats, %rax
	movl	16(%rax), %eax
	movl	%eax, Pprev_bits
.LBB40_98:                              # %if.end239
	jmp	.LBB40_99
.LBB40_99:                              # %if.end240
	movq	img(%rip), %rax
	movl	24(%rax), %eax
	movl	%eax, %ecx
	subl	$1, %ecx
	je	.LBB40_104
	jmp	.LBB40_100
.LBB40_100:                             # %if.end240
	movl	%eax, %ecx
	subl	$2, %ecx
	je	.LBB40_102
	jmp	.LBB40_101
.LBB40_101:                             # %if.end240
	subl	$3, %eax
	je	.LBB40_103
	jmp	.LBB40_108
.LBB40_102:                             # %sw.bb
	movq	stats, %rax
	movl	16(%rax), %eax
	movq	stats, %rcx
	subl	20(%rcx), %eax
	movq	stats, %rcx
	addl	704(%rcx), %eax
	movl	%eax, 704(%rcx)
	movl	-12(%rbp), %edi
	movl	me_time, %esi
	callq	ReportIntra
	jmp	.LBB40_109
.LBB40_103:                             # %sw.bb246
	movq	stats, %rax
	movl	16(%rax), %eax
	movq	stats, %rcx
	subl	20(%rcx), %eax
	movq	stats, %rcx
	addl	708(%rcx), %eax
	movl	%eax, 708(%rcx)
	movl	-12(%rbp), %edi
	movl	me_time, %esi
	callq	ReportSP
	jmp	.LBB40_109
.LBB40_104:                             # %sw.bb251
	movq	stats, %rax
	movl	16(%rax), %eax
	movq	stats, %rcx
	subl	20(%rcx), %eax
	movq	stats, %rcx
	addl	712(%rcx), %eax
	movl	%eax, 712(%rcx)
	movq	img, %rax
	cmpl	$0, 72496(%rax)
	jle	.LBB40_106
# %bb.105:                              # %if.then259
	movl	-12(%rbp), %edi
	movl	me_time, %esi
	callq	ReportRB
	jmp	.LBB40_107
.LBB40_106:                             # %if.else260
	movl	-12(%rbp), %edi
	movl	me_time, %esi
	callq	ReportB
.LBB40_107:                             # %if.end261
	jmp	.LBB40_109
.LBB40_108:                             # %sw.default
	movq	stats, %rax
	movl	16(%rax), %eax
	movq	stats, %rcx
	subl	20(%rcx), %eax
	movq	stats, %rcx
	addl	708(%rcx), %eax
	movl	%eax, 708(%rcx)
	movl	-12(%rbp), %edi
	movl	me_time, %esi
	callq	ReportP
.LBB40_109:                             # %sw.epilog
	jmp	.LBB40_110
.LBB40_110:                             # %if.end267
	movq	stats, %rax
	movl	16(%rax), %eax
	movq	stats, %rcx
	movl	%eax, 20(%rcx)
	movq	input, %rax
	cmpl	$0, 3236(%rax)
	je	.LBB40_120
# %bb.111:                              # %if.then272
	movl	-16(%rbp), %edi
	callq	rc_update_pict
	movq	img, %rax
	cmpl	$0, 24(%rax)
	jne	.LBB40_114
# %bb.112:                              # %land.lhs.true276
	movq	active_sps, %rax
	cmpl	$0, 1148(%rax)
	je	.LBB40_114
# %bb.113:                              # %if.then279
	movb	$0, %al
	callq	updateRCModel
	jmp	.LBB40_119
.LBB40_114:                             # %if.else280
	movq	img, %rax
	cmpl	$0, 24(%rax)
	jne	.LBB40_118
# %bb.115:                              # %land.lhs.true284
	movq	active_sps, %rax
	cmpl	$0, 1148(%rax)
	jne	.LBB40_118
# %bb.116:                              # %land.lhs.true287
	movq	img, %rax
	cmpl	$0, 72612(%rax)
	jne	.LBB40_118
# %bb.117:                              # %if.then291
	movb	$0, %al
	callq	updateRCModel
.LBB40_118:                             # %if.end292
	jmp	.LBB40_119
.LBB40_119:                             # %if.end293
	jmp	.LBB40_120
.LBB40_120:                             # %if.end294
	movq	stats, %rax
	movl	$0, 1492(%rax)
	movq	img, %rax
	movl	(%rax), %eax
	subl	start_frame_no_in_this_IGOP, %eax
	cmpl	$0, %eax
	jne	.LBB40_122
# %bb.121:                              # %if.then300
	movl	$0, -20(%rbp)
	jmp	.LBB40_123
.LBB40_122:                             # %if.else301
	movl	$1, -20(%rbp)
.LBB40_123:                             # %return
	movl	-20(%rbp), %ebx
	cmpl	$1145983886, -60(%rbp)  # imm = 0x444E538E
	jne	.LBB40_125
.LBB40_124:
	movl	%ebx, %eax
	addq	$136, %rsp
	popq	%rbx
	popq	%rbp
	.cfi_def_cfa %rsp, 8
	retq
.LBB40_125:                             # %func_exit
	.cfi_def_cfa %rbp, 16
	callq	detect_breach
	jmp	.LBB40_124
.Lfunc_end40:
	.size	encode_one_frame.4, .Lfunc_end40-encode_one_frame.4
	.cfi_endproc
                                        # -- End function
	.globl	frame_picture.5         # -- Begin function frame_picture.5
	.p2align	4, 0x90
	.type	frame_picture.5,@function
frame_picture.5:                        # @frame_picture.5
	.cfi_startproc
# %bb.0:                                # %entry
	pushq	%rbp
	.cfi_def_cfa_offset 16
	.cfi_offset %rbp, -16
	movq	%rsp, %rbp
	.cfi_def_cfa_register %rbp
	subq	$16, %rsp
	movl	$165556468, -16(%rbp)   # imm = 0x9DE30F4
	movq	%rdi, -8(%rbp)
	movl	%esi, -12(%rbp)
	movq	img, %rax
	movl	$0, 28(%rax)
	movq	img, %rax
	movl	72488(%rax), %eax
	movq	img, %rcx
	movl	%eax, 72484(%rcx)
	cmpl	$2, -12(%rbp)
	jne	.LBB41_2
# %bb.1:                                # %if.then
	movq	img, %rax
	movl	28(%rax), %edi
	movq	img, %rax
	movl	52(%rax), %esi
	movq	img, %rax
	movl	60(%rax), %edx
	movq	img, %rax
	movl	56(%rax), %ecx
	movq	img, %rax
	movl	64(%rax), %r8d
	callq	alloc_storable_picture
	movq	%rax, enc_frame_picture3
	movq	img, %rax
	movl	72456(%rax), %eax
	movq	enc_frame_picture3, %rcx
	movl	%eax, 4(%rcx)
	movq	img, %rcx
	movl	%eax, 72460(%rcx)
	movq	img, %rax
	movl	72448(%rax), %eax
	movq	enc_frame_picture3, %rcx
	movl	%eax, 8(%rcx)
	movq	img, %rax
	movl	72452(%rax), %eax
	movq	enc_frame_picture3, %rcx
	movl	%eax, 12(%rcx)
	movq	img, %rax
	movl	72456(%rax), %eax
	movq	enc_frame_picture3, %rcx
	movl	%eax, 16(%rcx)
	movq	img, %rax
	movl	72464(%rax), %eax
	movq	enc_frame_picture3, %rcx
	movl	%eax, 6364(%rcx)
	movq	img, %rax
	movl	72464(%rax), %eax
	movq	enc_frame_picture3, %rcx
	movl	%eax, 6360(%rcx)
	movq	enc_frame_picture3, %rax
	movl	$1, 6412(%rax)
	movq	input, %rax
	cmpl	$0, 2884(%rax)
	setne	%al
	andb	$1, %al
	movzbl	%al, %eax
	movq	img, %rcx
	movl	%eax, 72400(%rcx)
	movq	enc_frame_picture3, %rcx
	movl	%eax, 6416(%rcx)
	movq	enc_frame_picture3, %rax
	movq	%rax, enc_picture
	callq	copy_params
	jmp	.LBB41_6
.LBB41_2:                               # %if.else
	cmpl	$1, -12(%rbp)
	jne	.LBB41_4
# %bb.3:                                # %if.then9
	movq	img, %rax
	movl	28(%rax), %edi
	movq	img, %rax
	movl	52(%rax), %esi
	movq	img, %rax
	movl	60(%rax), %edx
	movq	img, %rax
	movl	56(%rax), %ecx
	movq	img, %rax
	movl	64(%rax), %r8d
	callq	alloc_storable_picture
	movq	%rax, enc_frame_picture2
	movq	img, %rax
	movl	72456(%rax), %eax
	movq	enc_frame_picture2, %rcx
	movl	%eax, 4(%rcx)
	movq	img, %rcx
	movl	%eax, 72460(%rcx)
	movq	img, %rax
	movl	72448(%rax), %eax
	movq	enc_frame_picture2, %rcx
	movl	%eax, 8(%rcx)
	movq	img, %rax
	movl	72452(%rax), %eax
	movq	enc_frame_picture2, %rcx
	movl	%eax, 12(%rcx)
	movq	img, %rax
	movl	72456(%rax), %eax
	movq	enc_frame_picture2, %rcx
	movl	%eax, 16(%rcx)
	movq	img, %rax
	movl	72464(%rax), %eax
	movq	enc_frame_picture2, %rcx
	movl	%eax, 6364(%rcx)
	movq	img, %rax
	movl	72464(%rax), %eax
	movq	enc_frame_picture2, %rcx
	movl	%eax, 6360(%rcx)
	movq	enc_frame_picture2, %rax
	movl	$1, 6412(%rax)
	movq	input, %rax
	cmpl	$0, 2884(%rax)
	setne	%al
	andb	$1, %al
	movzbl	%al, %eax
	movq	img, %rcx
	movl	%eax, 72400(%rcx)
	movq	enc_frame_picture2, %rcx
	movl	%eax, 6416(%rcx)
	movq	enc_frame_picture2, %rax
	movq	%rax, enc_picture
	callq	copy_params
	jmp	.LBB41_5
.LBB41_4:                               # %if.else35
	movq	img, %rax
	movl	28(%rax), %edi
	movq	img, %rax
	movl	52(%rax), %esi
	movq	img, %rax
	movl	60(%rax), %edx
	movq	img, %rax
	movl	56(%rax), %ecx
	movq	img, %rax
	movl	64(%rax), %r8d
	callq	alloc_storable_picture
	movq	%rax, enc_frame_picture
	movq	img, %rax
	movl	72456(%rax), %eax
	movq	enc_frame_picture, %rcx
	movl	%eax, 4(%rcx)
	movq	img, %rcx
	movl	%eax, 72460(%rcx)
	movq	img, %rax
	movl	72448(%rax), %eax
	movq	enc_frame_picture, %rcx
	movl	%eax, 8(%rcx)
	movq	img, %rax
	movl	72452(%rax), %eax
	movq	enc_frame_picture, %rcx
	movl	%eax, 12(%rcx)
	movq	img, %rax
	movl	72456(%rax), %eax
	movq	enc_frame_picture, %rcx
	movl	%eax, 16(%rcx)
	movq	img, %rax
	movl	72464(%rax), %eax
	movq	enc_frame_picture, %rcx
	movl	%eax, 6364(%rcx)
	movq	img, %rax
	movl	72464(%rax), %eax
	movq	enc_frame_picture, %rcx
	movl	%eax, 6360(%rcx)
	movq	enc_frame_picture, %rax
	movl	$1, 6412(%rax)
	movq	input, %rax
	cmpl	$0, 2884(%rax)
	setne	%al
	andb	$1, %al
	movzbl	%al, %eax
	movq	img, %rcx
	movl	%eax, 72400(%rcx)
	movq	enc_frame_picture, %rcx
	movl	%eax, 6416(%rcx)
	movq	enc_frame_picture, %rax
	movq	%rax, enc_picture
	callq	copy_params
.LBB41_5:                               # %if.end
	jmp	.LBB41_6
.LBB41_6:                               # %if.end61
	movq	stats, %rax
	movl	$0, 1468(%rax)
	movq	stats, %rax
	addq	$1468, %rax             # imm = 0x5BC
	movq	stats, %rcx
	movq	%rax, 1480(%rcx)
	movq	img, %rax
	movl	$0, 71800(%rax)
	movq	-8(%rbp), %rdi
	callq	code_a_picture
	movq	img, %rax
	movq	14160(%rax), %rax
	movq	24(%rax), %rax
	movq	(%rax), %rax
	movl	(%rax), %eax
	shll	$3, %eax
	movq	-8(%rbp), %rcx
	movl	%eax, 808(%rcx)
	movq	img, %rax
	cmpl	$0, 28(%rax)
	jne	.LBB41_8
# %bb.7:                                # %if.then66
	callq	find_distortion
	movq	snr, %rax
	vmovss	(%rax), %xmm0           # xmm0 = mem[0],zero,zero,zero
	movq	-8(%rbp), %rax
	vmovss	%xmm0, 812(%rax)
	movq	snr, %rax
	vmovss	4(%rax), %xmm0          # xmm0 = mem[0],zero,zero,zero
	movq	-8(%rbp), %rax
	vmovss	%xmm0, 816(%rax)
	movq	snr, %rax
	vmovss	8(%rax), %xmm0          # xmm0 = mem[0],zero,zero,zero
	movq	-8(%rbp), %rax
	vmovss	%xmm0, 820(%rax)
.LBB41_8:                               # %if.end67
	cmpl	$165556468, -16(%rbp)   # imm = 0x9DE30F4
	jne	.LBB41_10
.LBB41_9:
	addq	$16, %rsp
	popq	%rbp
	.cfi_def_cfa %rsp, 8
	retq
.LBB41_10:                              # %func_exit
	.cfi_def_cfa %rbp, 16
	callq	detect_breach
	jmp	.LBB41_9
.Lfunc_end41:
	.size	frame_picture.5, .Lfunc_end41-frame_picture.5
	.cfi_endproc
                                        # -- End function
	.section	.rodata.cst8,"aM",@progbits,8
	.p2align	3               # -- Begin function init_frame.6
.LCPI42_0:
	.quad	4607182418800017408     # double 1
	.text
	.p2align	4, 0x90
	.type	init_frame.6,@function
init_frame.6:                           # @init_frame.6
	.cfi_startproc
# %bb.0:                                # %entry
	pushq	%rbp
	.cfi_def_cfa_offset 16
	.cfi_offset %rbp, -16
	movq	%rsp, %rbp
	.cfi_def_cfa_register %rbp
	subq	$16, %rsp
	movl	$1062270594, -16(%rbp)  # imm = 0x3F50F682
	movq	last_P_no_frm, %rax
	movq	%rax, last_P_no
	movq	img, %rax
	movl	$0, 12(%rax)
	movq	img, %rax
	movl	$0, 20(%rax)
	movq	stats, %rax
	movl	$0, 24(%rax)
	movq	img, %rax
	movl	$0, 136(%rax)
	movq	img, %rax
	movl	$0, 140(%rax)
	movq	img, %rax
	movl	$0, 164(%rax)
	movq	img, %rax
	movl	$0, 156(%rax)
	movq	img, %rax
	movl	$0, 148(%rax)
	movq	img, %rax
	movl	$0, 160(%rax)
	movq	img, %rax
	movl	$0, 96(%rax)
	movq	img, %rax
	movl	$0, 152(%rax)
	movq	img, %rax
	movl	$0, 144(%rax)
	movl	$0, -4(%rbp)
.LBB42_1:                               # %for.cond
                                        # =>This Inner Loop Header: Depth=1
	movl	-4(%rbp), %esi
	movq	img, %rax
	movl	52(%rax), %eax
	cltd
	movl	$16, %edi
	idivl	%edi
	movl	%eax, %ecx
	movq	img, %rax
	movl	60(%rax), %eax
	cltd
	idivl	%edi
	imull	%eax, %ecx
	cmpl	%ecx, %esi
	jge	.LBB42_4
# %bb.2:                                # %for.body
                                        #   in Loop: Header=BB42_1 Depth=1
	movq	img, %rax
	movq	14168(%rax), %rax
	movslq	-4(%rbp), %rcx
	imulq	$632, %rcx, %rcx        # imm = 0x278
	addq	%rcx, %rax
	movl	$-1, 4(%rax)
# %bb.3:                                # %for.inc
                                        #   in Loop: Header=BB42_1 Depth=1
	movl	-4(%rbp), %eax
	addl	$1, %eax
	movl	%eax, -4(%rbp)
	jmp	.LBB42_1
.LBB42_4:                               # %for.end
	movq	img, %rax
	cmpl	$0, 71908(%rax)
	jne	.LBB42_29
# %bb.5:                                # %if.then
	movl	start_tr_in_this_IGOP, %eax
	movq	img, %rcx
	movl	(%rcx), %ecx
	subl	start_frame_no_in_this_IGOP, %ecx
	movq	input, %rdx
	movl	20(%rdx), %edx
	addl	$1, %edx
	imull	%edx, %ecx
	addl	%ecx, %eax
	movq	img, %rcx
	movl	%eax, 71792(%rcx)
	movq	img, %rax
	movl	71876(%rax), %eax
	movq	img, %rcx
	movl	%eax, 71880(%rcx)
	movq	img, %rax
	movl	71792(%rax), %eax
	movq	img, %rcx
	movl	%eax, 71876(%rcx)
	movq	input, %rax
	cmpl	$0, 2440(%rax)
	je	.LBB42_8
# %bb.6:                                # %land.lhs.true
	movq	img, %rax
	movl	(%rax), %eax
	addl	$1, %eax
	movq	input, %rcx
	cmpl	8(%rcx), %eax
	jne	.LBB42_8
# %bb.7:                                # %if.then10
	movq	input, %rax
	movl	2440(%rax), %eax
	movq	img, %rcx
	movl	%eax, 71792(%rcx)
.LBB42_8:                               # %if.end
	movq	img, %rax
	movl	(%rax), %eax
	subl	start_frame_no_in_this_IGOP, %eax
	cmpl	$0, %eax
	je	.LBB42_11
# %bb.9:                                # %land.lhs.true16
	movq	input, %rax
	cmpl	$0, 1236(%rax)
	je	.LBB42_11
# %bb.10:                               # %if.then18
	movq	img, %rax
	movl	71792(%rax), %eax
	movl	%eax, nextP_tr_frm
.LBB42_11:                              # %if.end20
	movq	input, %rax
	cmpl	$0, 3236(%rax)
	jne	.LBB42_26
# %bb.12:                               # %if.then22
	movq	img, %rax
	cmpl	$2, 24(%rax)
	jne	.LBB42_18
# %bb.13:                               # %if.then24
	movq	input, %rax
	cmpl	$0, 2452(%rax)
	jle	.LBB42_16
# %bb.14:                               # %land.lhs.true26
	movq	img, %rax
	movl	71792(%rax), %eax
	movq	input, %rcx
	cmpl	2452(%rcx), %eax
	jl	.LBB42_16
# %bb.15:                               # %if.then30
	movq	input, %rax
	movl	2456(%rax), %eax
	movq	img, %rcx
	movl	%eax, 40(%rcx)
	jmp	.LBB42_17
.LBB42_16:                              # %if.else
	movq	input, %rax
	movl	12(%rax), %eax
	movq	img, %rcx
	movl	%eax, 40(%rcx)
.LBB42_17:                              # %if.end32
	jmp	.LBB42_25
.LBB42_18:                              # %if.else33
	movq	input, %rax
	cmpl	$0, 2452(%rax)
	jle	.LBB42_21
# %bb.19:                               # %land.lhs.true36
	movq	img, %rax
	movl	71792(%rax), %eax
	movq	input, %rcx
	cmpl	2452(%rcx), %eax
	jl	.LBB42_21
# %bb.20:                               # %if.then40
	movq	input, %rax
	movl	2444(%rax), %eax
	movq	img, %rcx
	movl	%eax, 40(%rcx)
	jmp	.LBB42_22
.LBB42_21:                              # %if.else42
	movq	input, %rax
	movl	16(%rax), %eax
	movq	img, %rcx
	movl	%eax, 40(%rcx)
.LBB42_22:                              # %if.end44
	movq	img, %rax
	cmpl	$3, 24(%rax)
	jne	.LBB42_24
# %bb.23:                               # %if.then47
	movq	input, %rax
	movl	1276(%rax), %eax
	movq	img, %rcx
	movl	%eax, 40(%rcx)
	movq	input, %rax
	movl	1280(%rax), %eax
	movq	img, %rcx
	movl	%eax, 44(%rcx)
.LBB42_24:                              # %if.end50
	jmp	.LBB42_25
.LBB42_25:                              # %if.end51
	jmp	.LBB42_26
.LBB42_26:                              # %if.end52
	movq	img, %rax
	movl	88(%rax), %eax
	movq	img, %rcx
	movl	%eax, 92(%rcx)
	movq	input, %rax
	cmpl	$0, 76(%rax)
	jle	.LBB42_28
# %bb.27:                               # %if.then54
	movq	img, %rax
	movl	(%rax), %eax
	subl	start_frame_no_in_this_IGOP, %eax
	movq	input, %rcx
	cltd
	idivl	76(%rcx)
	movl	%eax, %ecx
	movq	img, %rax
	movl	60(%rax), %eax
	cltd
	movl	$16, %esi
	idivl	%esi
	movl	%eax, %esi
	movl	%ecx, %eax
	cltd
	idivl	%esi
	movq	img, %rax
	movl	%edx, 88(%rax)
.LBB42_28:                              # %if.end62
	jmp	.LBB42_72
.LBB42_29:                              # %if.else63
	movq	input, %rax
	movl	20(%rax), %eax
	addl	$1, %eax
	movq	img, %rcx
	movl	%eax, 71904(%rcx)
	movl	start_tr_in_this_IGOP, %eax
	movq	img, %rcx
	movl	(%rcx), %ecx
	subl	start_frame_no_in_this_IGOP, %ecx
	subl	$1, %ecx
	movq	img, %rdx
	imull	71904(%rdx), %ecx
	addl	%ecx, %eax
	movl	%eax, -8(%rbp)
	movl	start_tr_in_this_IGOP, %eax
	movq	img, %rcx
	movl	(%rcx), %ecx
	subl	start_frame_no_in_this_IGOP, %ecx
	movq	img, %rdx
	imull	71904(%rdx), %ecx
	addl	%ecx, %eax
	movl	%eax, -12(%rbp)
	movl	-8(%rbp), %eax
	movq	last_P_no, %rcx
	movl	%eax, (%rcx)
	movl	$1, -4(%rbp)
.LBB42_30:                              # %for.cond78
                                        # =>This Inner Loop Header: Depth=1
	movl	-4(%rbp), %eax
	movq	img, %rcx
	cmpl	72376(%rcx), %eax
	jge	.LBB42_33
# %bb.31:                               # %for.body80
                                        #   in Loop: Header=BB42_30 Depth=1
	movq	last_P_no, %rax
	movl	-4(%rbp), %ecx
	subl	$1, %ecx
	movslq	%ecx, %rcx
	movl	(%rax,%rcx,4), %eax
	movq	img, %rcx
	subl	71904(%rcx), %eax
	movq	last_P_no, %rcx
	movslq	-4(%rbp), %rdx
	movl	%eax, (%rcx,%rdx,4)
# %bb.32:                               # %for.inc88
                                        #   in Loop: Header=BB42_30 Depth=1
	movl	-4(%rbp), %eax
	addl	$1, %eax
	movl	%eax, -4(%rbp)
	jmp	.LBB42_30
.LBB42_33:                              # %for.end90
	movq	input, %rax
	cmpl	$0, 2440(%rax)
	je	.LBB42_36
# %bb.34:                               # %land.lhs.true93
	movq	img, %rax
	movl	(%rax), %eax
	addl	$1, %eax
	movq	input, %rcx
	cmpl	8(%rcx), %eax
	jne	.LBB42_36
# %bb.35:                               # %if.then98
	movq	input, %rax
	movl	2440(%rax), %eax
	movl	%eax, -12(%rbp)
	movl	-12(%rbp), %eax
	subl	-8(%rbp), %eax
	movq	img, %rcx
	movl	%eax, 71904(%rcx)
.LBB42_36:                              # %if.end102
	vmovsd	.LCPI42_0(%rip), %xmm0  # xmm0 = mem[0],zero
	movq	input, %rax
	movl	20(%rax), %eax
	addl	$1, %eax
	vcvtsi2sd	%eax, %xmm0, %xmm1
	movq	input, %rax
	vcvtsi2sdl	1236(%rax), %xmm0, %xmm2
	vaddsd	%xmm0, %xmm2, %xmm0
	vdivsd	%xmm0, %xmm1, %xmm0
	movq	img, %rax
	vmovsd	%xmm0, 71896(%rax)
	movq	input, %rax
	cmpl	$3, 1320(%rax)
	jne	.LBB42_38
# %bb.37:                               # %if.then111
	vmovsd	.LCPI42_0(%rip), %xmm0  # xmm0 = mem[0],zero
	movq	img, %rax
	vmovsd	%xmm0, 71896(%rax)
.LBB42_38:                              # %if.end113
	movq	input, %rax
	cmpl	$0, 1320(%rax)
	je	.LBB42_40
# %bb.39:                               # %if.then116
	movl	-8(%rbp), %eax
	movq	img, %rcx
	vmovsd	71896(%rcx), %xmm0      # xmm0 = mem[0],zero
	movq	gop_structure, %rcx
	movq	img, %rdx
	movl	71908(%rdx), %edx
	subl	$1, %edx
	movslq	%edx, %rdx
	imulq	$24, %rdx, %rdx
	addq	%rdx, %rcx
	movl	4(%rcx), %ecx
	addl	$1, %ecx
	vcvtsi2sd	%ecx, %xmm0, %xmm1
	vmulsd	%xmm1, %xmm0, %xmm0
	vcvttsd2si	%xmm0, %ecx
	addl	%ecx, %eax
	movq	img, %rcx
	movl	%eax, 71792(%rcx)
	jmp	.LBB42_41
.LBB42_40:                              # %if.else128
	movl	-8(%rbp), %eax
	movq	img, %rcx
	vmovsd	71896(%rcx), %xmm0      # xmm0 = mem[0],zero
	movq	img, %rcx
	vcvtsi2sdl	71908(%rcx), %xmm0, %xmm1
	vmulsd	%xmm1, %xmm0, %xmm0
	vcvttsd2si	%xmm0, %ecx
	addl	%ecx, %eax
	movq	img, %rcx
	movl	%eax, 71792(%rcx)
.LBB42_41:                              # %if.end136
	movq	img, %rax
	movl	71792(%rax), %eax
	cmpl	-12(%rbp), %eax
	jl	.LBB42_43
# %bb.42:                               # %if.then140
	movl	-12(%rbp), %eax
	subl	$1, %eax
	movq	img, %rcx
	movl	%eax, 71792(%rcx)
.LBB42_43:                              # %if.end143
	movq	input, %rax
	cmpl	$0, 3236(%rax)
	jne	.LBB42_68
# %bb.44:                               # %land.lhs.true146
	movq	input, %rax
	cmpl	$3, 1320(%rax)
	je	.LBB42_68
# %bb.45:                               # %if.then150
	movq	input, %rax
	cmpl	$0, 2452(%rax)
	jle	.LBB42_48
# %bb.46:                               # %land.lhs.true154
	movq	img, %rax
	movl	71792(%rax), %eax
	movq	input, %rcx
	cmpl	2452(%rcx), %eax
	jl	.LBB42_48
# %bb.47:                               # %if.then159
	movq	input, %rax
	movl	2448(%rax), %eax
	movq	img, %rcx
	movl	%eax, 40(%rcx)
	jmp	.LBB42_49
.LBB42_48:                              # %if.else161
	movq	input, %rax
	movl	1240(%rax), %eax
	movq	img, %rcx
	movl	%eax, 40(%rcx)
.LBB42_49:                              # %if.end163
	movq	img, %rax
	cmpl	$0, 72496(%rax)
	je	.LBB42_67
# %bb.50:                               # %if.then165
	movq	input, %rax
	cmpl	$0, 2452(%rax)
	jle	.LBB42_59
# %bb.51:                               # %land.lhs.true169
	movq	img, %rax
	movl	71792(%rax), %eax
	movq	input, %rcx
	cmpl	2452(%rcx), %eax
	jl	.LBB42_59
# %bb.52:                               # %if.then174
	movq	input, %rax
	movl	2448(%rax), %eax
	movq	input, %rcx
	addl	2460(%rcx), %eax
	cmpl	$0, %eax
	jge	.LBB42_54
# %bb.53:                               # %cond.true
	xorl	%eax, %eax
	jmp	.LBB42_58
.LBB42_54:                              # %cond.false
	movq	input, %rax
	movl	2448(%rax), %eax
	movq	input, %rcx
	addl	2460(%rcx), %eax
	cmpl	$51, %eax
	jle	.LBB42_56
# %bb.55:                               # %cond.true184
	movl	$51, %eax
	jmp	.LBB42_57
.LBB42_56:                              # %cond.false185
	movq	input, %rax
	movl	2448(%rax), %eax
	movq	input, %rcx
	addl	2460(%rcx), %eax
.LBB42_57:                              # %cond.end
.LBB42_58:                              # %cond.end189
	movq	img, %rcx
	movl	%eax, 40(%rcx)
	jmp	.LBB42_66
.LBB42_59:                              # %if.else192
	movq	input, %rax
	movl	1240(%rax), %eax
	movq	input, %rcx
	addl	1244(%rcx), %eax
	cmpl	$0, %eax
	jge	.LBB42_61
# %bb.60:                               # %cond.true197
	xorl	%eax, %eax
	jmp	.LBB42_65
.LBB42_61:                              # %cond.false198
	movq	input, %rax
	movl	1240(%rax), %eax
	movq	input, %rcx
	addl	1244(%rcx), %eax
	cmpl	$51, %eax
	jle	.LBB42_63
# %bb.62:                               # %cond.true204
	movl	$51, %eax
	jmp	.LBB42_64
.LBB42_63:                              # %cond.false205
	movq	input, %rax
	movl	1240(%rax), %eax
	movq	input, %rcx
	addl	1244(%rcx), %eax
.LBB42_64:                              # %cond.end209
.LBB42_65:                              # %cond.end211
	movq	img, %rcx
	movl	%eax, 40(%rcx)
.LBB42_66:                              # %if.end214
	jmp	.LBB42_67
.LBB42_67:                              # %if.end215
	jmp	.LBB42_71
.LBB42_68:                              # %if.else216
	movq	input, %rax
	cmpl	$3, 1320(%rax)
	jne	.LBB42_70
# %bb.69:                               # %if.then220
	movq	gop_structure, %rax
	movq	img, %rcx
	movl	71908(%rcx), %ecx
	subl	$1, %ecx
	movslq	%ecx, %rcx
	imulq	$24, %rcx, %rcx
	addq	%rcx, %rax
	movl	12(%rax), %eax
	movq	img, %rcx
	movl	%eax, 40(%rcx)
.LBB42_70:                              # %if.end226
	jmp	.LBB42_71
.LBB42_71:                              # %if.end227
	jmp	.LBB42_72
.LBB42_72:                              # %if.end228
	movq	img, %rax
	movl	72384(%rax), %edi
	callq	UpdateSubseqInfo
	xorl	%edi, %edi
	xorl	%esi, %esi
	xorl	%edx, %edx
	movl	$4294967295, %ecx       # imm = 0xFFFFFFFF
	callq	UpdateSceneInformation
	movq	img, %rax
	movl	52(%rax), %eax
	movq	img, %rcx
	imull	60(%rcx), %eax
	cltd
	movl	$256, %ecx              # imm = 0x100
	idivl	%ecx
	movq	img, %rcx
	movl	%eax, 16(%rcx)
	movq	img, %rax
	movl	$0, 72504(%rax)
	movq	img, %rax
	movl	$0, 72508(%rax)
	callq	init_dec_ref_pic_marking_buffer
	cmpl	$1062270594, -16(%rbp)  # imm = 0x3F50F682
	jne	.LBB42_74
.LBB42_73:
	addq	$16, %rsp
	popq	%rbp
	.cfi_def_cfa %rsp, 8
	retq
.LBB42_74:                              # %func_exit
	.cfi_def_cfa %rbp, 16
	callq	detect_breach
	jmp	.LBB42_73
.Lfunc_end42:
	.size	init_frame.6, .Lfunc_end42-init_frame.6
	.cfi_endproc
                                        # -- End function
	.p2align	4, 0x90         # -- Begin function ReportP.7
	.type	ReportP.7,@function
ReportP.7:                              # @ReportP.7
	.cfi_startproc
# %bb.0:                                # %entry
	pushq	%rbp
	.cfi_def_cfa_offset 16
	.cfi_offset %rbp, -16
	movq	%rsp, %rbp
	.cfi_def_cfa_register %rbp
	subq	$48, %rsp
	movl	$164579540, -8(%rbp)    # imm = 0x9CF48D4
	movl	%edi, -4(%rbp)
	movl	%esi, -12(%rbp)
	movl	frame_no, %esi
	movq	stats, %rax
	movl	16(%rax), %edx
	movq	stats, %rax
	subl	20(%rax), %edx
	movq	active_pps, %rax
	movl	192(%rax), %ecx
	movq	img, %rax
	movl	40(%rax), %r8d
	movq	snr, %rax
	vmovss	(%rax), %xmm0           # xmm0 = mem[0],zero,zero,zero
	vcvtss2sd	%xmm0, %xmm0, %xmm0
	movq	snr, %rax
	vmovss	4(%rax), %xmm1          # xmm1 = mem[0],zero,zero,zero
	vcvtss2sd	%xmm1, %xmm0, %xmm1
	movq	snr, %rax
	vmovss	8(%rax), %xmm2          # xmm2 = mem[0],zero,zero,zero
	vcvtss2sd	%xmm2, %xmm0, %xmm2
	movl	-4(%rbp), %r9d
	movl	-12(%rbp), %r10d
	movq	img, %rdi
	movl	71800(%rdi), %edi
	cmpl	$0, %edi
	movabsq	$.L.str.7, %rdi
	movabsq	$.L.str.8, %rax
	cmovneq	%rdi, %rax
	movl	intras, %r11d
	movabsq	$.L.str.13, %rdi
	movl	%r10d, (%rsp)
	movq	%rax, 8(%rsp)
	movl	%r11d, 16(%rsp)
	movb	$3, %al
	callq	printf
	cmpl	$164579540, -8(%rbp)    # imm = 0x9CF48D4
	jne	.LBB43_2
.LBB43_1:
	addq	$48, %rsp
	popq	%rbp
	.cfi_def_cfa %rsp, 8
	retq
.LBB43_2:                               # %func_exit
	.cfi_def_cfa %rbp, 16
	callq	detect_breach
	jmp	.LBB43_1
.Lfunc_end43:
	.size	ReportP.7, .Lfunc_end43-ReportP.7
	.cfi_endproc
                                        # -- End function
	.p2align	4, 0x90         # -- Begin function distortion_fld.8
	.type	distortion_fld.8,@function
distortion_fld.8:                       # @distortion_fld.8
	.cfi_startproc
# %bb.0:                                # %entry
	pushq	%rbp
	.cfi_def_cfa_offset 16
	.cfi_offset %rbp, -16
	movq	%rsp, %rbp
	.cfi_def_cfa_register %rbp
	subq	$32, %rsp
	movl	$832009138, -4(%rbp)    # imm = 0x319773B2
	movq	%rdi, -24(%rbp)
	movq	%rsi, -32(%rbp)
	movq	%rdx, -16(%rbp)
	movq	img, %rcx
	movl	(%rcx), %eax
	cltd
	movl	$2, %esi
	idivl	%esi
	movl	%eax, (%rcx)
	movq	img, %rcx
	movl	72376(%rcx), %eax
	cltd
	idivl	%esi
	movl	%eax, 72376(%rcx)
	movq	input, %rax
	movl	68(%rax), %eax
	movq	img, %rcx
	addl	72732(%rcx), %eax
	movq	img, %rcx
	movl	%eax, 60(%rcx)
	movq	img, %rax
	movl	68(%rax), %eax
	movq	img, %rcx
	movl	%eax, 64(%rcx)
	movq	img, %rax
	movl	52(%rax), %eax
	movq	img, %rcx
	imull	60(%rcx), %eax
	cltd
	movl	$256, %ecx              # imm = 0x100
	idivl	%ecx
	movq	img, %rcx
	movl	%eax, 16(%rcx)
	movb	$0, %al
	callq	combine_field
	movq	imgY_org_frm, %rax
	movq	%rax, imgY_org
	movq	imgUV_org_frm, %rax
	movq	%rax, imgUV_org
	callq	find_distortion
	movq	snr, %rax
	vmovss	(%rax), %xmm0           # xmm0 = mem[0],zero,zero,zero
	movq	-24(%rbp), %rax
	vmovss	%xmm0, (%rax)
	movq	snr, %rax
	vmovss	4(%rax), %xmm0          # xmm0 = mem[0],zero,zero,zero
	movq	-32(%rbp), %rax
	vmovss	%xmm0, (%rax)
	movq	snr, %rax
	vmovss	8(%rax), %xmm0          # xmm0 = mem[0],zero,zero,zero
	movq	-16(%rbp), %rax
	vmovss	%xmm0, (%rax)
	cmpl	$832009138, -4(%rbp)    # imm = 0x319773B2
	jne	.LBB44_2
.LBB44_1:
	addq	$32, %rsp
	popq	%rbp
	.cfi_def_cfa %rsp, 8
	retq
.LBB44_2:                               # %func_exit
	.cfi_def_cfa %rbp, 16
	callq	detect_breach
	jmp	.LBB44_1
.Lfunc_end44:
	.size	distortion_fld.8, .Lfunc_end44-distortion_fld.8
	.cfi_endproc
                                        # -- End function
	.p2align	4, 0x90         # -- Begin function writeout_picture.9
	.type	writeout_picture.9,@function
writeout_picture.9:                     # @writeout_picture.9
	.cfi_startproc
# %bb.0:                                # %entry
	pushq	%rbp
	.cfi_def_cfa_offset 16
	.cfi_offset %rbp, -16
	movq	%rsp, %rbp
	.cfi_def_cfa_register %rbp
	subq	$48, %rsp
	movl	$1673282906, -28(%rbp)  # imm = 0x63BC455A
	movq	%rdi, -16(%rbp)
	movq	-16(%rbp), %rax
	movq	img, %rcx
	movq	%rax, 14152(%rcx)
	movl	$0, -8(%rbp)
.LBB45_1:                               # %for.cond
                                        # =>This Loop Header: Depth=1
                                        #     Child Loop BB45_3 Depth 2
	movl	-8(%rbp), %eax
	movq	-16(%rbp), %rcx
	cmpl	(%rcx), %eax
	jge	.LBB45_8
# %bb.2:                                # %for.body
                                        #   in Loop: Header=BB45_1 Depth=1
	movq	-16(%rbp), %rax
	movslq	-8(%rbp), %rcx
	movq	8(%rax,%rcx,8), %rax
	movq	%rax, -24(%rbp)
	movl	$0, -4(%rbp)
.LBB45_3:                               # %for.cond1
                                        #   Parent Loop BB45_1 Depth=1
                                        # =>  This Inner Loop Header: Depth=2
	movl	-4(%rbp), %eax
	movq	-24(%rbp), %rcx
	cmpl	16(%rcx), %eax
	jge	.LBB45_6
# %bb.4:                                # %for.body3
                                        #   in Loop: Header=BB45_3 Depth=2
	movq	-24(%rbp), %rax
	movq	24(%rax), %rax
	movslq	-4(%rbp), %rcx
	imulq	$120, %rcx, %rcx
	addq	%rcx, %rax
	movq	(%rax), %rax
	movq	%rax, -40(%rbp)
	movq	-24(%rbp), %rax
	movq	24(%rax), %rax
	movslq	-4(%rbp), %rcx
	imulq	$120, %rcx, %rcx
	addq	%rcx, %rax
	movq	(%rax), %rdi
	movl	-4(%rbp), %esi
	callq	writeUnit
# %bb.5:                                # %for.inc
                                        #   in Loop: Header=BB45_3 Depth=2
	movl	-4(%rbp), %eax
	addl	$1, %eax
	movl	%eax, -4(%rbp)
	jmp	.LBB45_3
.LBB45_6:                               # %for.end
                                        #   in Loop: Header=BB45_1 Depth=1
	jmp	.LBB45_7
.LBB45_7:                               # %for.inc10
                                        #   in Loop: Header=BB45_1 Depth=1
	movl	-8(%rbp), %eax
	addl	$1, %eax
	movl	%eax, -8(%rbp)
	jmp	.LBB45_1
.LBB45_8:                               # %for.end12
	cmpl	$1673282906, -28(%rbp)  # imm = 0x63BC455A
	jne	.LBB45_10
.LBB45_9:
	xorl	%eax, %eax
	addq	$48, %rsp
	popq	%rbp
	.cfi_def_cfa %rsp, 8
	retq
.LBB45_10:                              # %func_exit
	.cfi_def_cfa %rbp, 16
	callq	detect_breach
	jmp	.LBB45_9
.Lfunc_end45:
	.size	writeout_picture.9, .Lfunc_end45-writeout_picture.9
	.cfi_endproc
                                        # -- End function
	.p2align	4, 0x90         # -- Begin function ReportNALNonVLCBits.10
	.type	ReportNALNonVLCBits.10,@function
ReportNALNonVLCBits.10:                 # @ReportNALNonVLCBits.10
	.cfi_startproc
# %bb.0:                                # %entry
	pushq	%rbp
	.cfi_def_cfa_offset 16
	.cfi_offset %rbp, -16
	movq	%rsp, %rbp
	.cfi_def_cfa_register %rbp
	subq	$16, %rsp
	movl	$1315187684, -4(%rbp)   # imm = 0x4E642BE4
	movl	%edi, -12(%rbp)
	movl	%esi, -8(%rbp)
	movl	frame_no, %esi
	movq	stats, %rax
	movl	1492(%rax), %edx
	movabsq	$.L.str.5, %rdi
	movb	$0, %al
	callq	printf
	cmpl	$1315187684, -4(%rbp)   # imm = 0x4E642BE4
	jne	.LBB46_2
.LBB46_1:
	addq	$16, %rsp
	popq	%rbp
	.cfi_def_cfa %rsp, 8
	retq
.LBB46_2:                               # %func_exit
	.cfi_def_cfa %rbp, 16
	callq	detect_breach
	jmp	.LBB46_1
.Lfunc_end46:
	.size	ReportNALNonVLCBits.10, .Lfunc_end46-ReportNALNonVLCBits.10
	.cfi_endproc
                                        # -- End function
	.globl	encode_one_frame.11     # -- Begin function encode_one_frame.11
	.p2align	4, 0x90
	.type	encode_one_frame.11,@function
encode_one_frame.11:                    # @encode_one_frame.11
	.cfi_startproc
# %bb.0:                                # %entry
	pushq	%rbp
	.cfi_def_cfa_offset 16
	.cfi_offset %rbp, -16
	movq	%rsp, %rbp
	.cfi_def_cfa_register %rbp
	pushq	%rbx
	subq	$136, %rsp
	.cfi_offset %rbx, -24
	movl	$625695498, -68(%rbp)   # imm = 0x254B5B0A
	movl	$0, -44(%rbp)
	movl	$0, -32(%rbp)
	vxorps	%xmm0, %xmm0, %xmm0
	vmovss	%xmm0, -64(%rbp)
	vmovss	%xmm0, -48(%rbp)
	vmovss	%xmm0, -52(%rbp)
	vmovss	%xmm0, -56(%rbp)
	vmovss	%xmm0, -40(%rbp)
	vmovss	%xmm0, -28(%rbp)
	vmovss	%xmm0, -24(%rbp)
	vmovss	%xmm0, -36(%rbp)
	movl	$0, -16(%rbp)
	movl	$0, me_time
	movq	img, %rax
	movl	$0, 71804(%rax)
	movq	$0, enc_frame_picture
	movq	$0, enc_frame_picture2
	movq	$0, enc_frame_picture3
	leaq	-128(%rbp), %rdi
	callq	ftime
	leaq	-88(%rbp), %rdi
	callq	time
	movq	img, %rax
	movl	$0, 72624(%rax)
	movq	input, %rax
	cmpl	$0, 56(%rax)
	je	.LBB47_3
# %bb.1:                                # %land.lhs.true
	movq	img, %rax
	cmpl	$0, (%rax)
	je	.LBB47_3
# %bb.2:                                # %if.then
	xorl	%edi, %edi
	xorl	%esi, %esi
	callq	write_PPS
	movq	stats, %rcx
	movl	%eax, 1492(%rcx)
	movq	stats, %rax
	movl	1492(%rax), %eax
	movq	stats, %rcx
	addl	1488(%rcx), %eax
	movl	%eax, 1488(%rcx)
.LBB47_3:                               # %if.end
	callq	put_buffer_frame
	callq	init_frame
	callq	CalculateFrameNumber
	movl	%eax, -60(%rbp)
	movl	-60(%rbp), %edi
	movq	input, %rax
	movl	220(%rax), %esi
	movq	input, %rax
	movl	64(%rax), %edx
	movq	input, %rax
	movl	68(%rax), %ecx
	movq	input, %rax
	movl	3308(%rax), %r8d
	movq	input, %rax
	movl	3304(%rax), %r9d
	callq	ReadOneFrame
	movq	input, %rax
	movl	64(%rax), %edi
	movq	input, %rax
	movl	68(%rax), %esi
	movq	img, %rax
	movl	52(%rax), %edx
	movq	img, %rax
	movl	60(%rax), %ecx
	movq	input, %rax
	movl	3308(%rax), %r8d
	movq	input, %rax
	movl	3304(%rax), %r9d
	movq	img, %rax
	movl	56(%rax), %eax
	movq	img, %rbx
	movl	64(%rbx), %ebx
	movl	%eax, (%rsp)
	movl	%ebx, 8(%rsp)
	callq	PaddAutoCropBorders
	movq	input, %rax
	movl	1248(%rax), %eax
	movq	img, %rcx
	movl	%eax, 71996(%rcx)
	movq	input, %rax
	movl	2928(%rax), %eax
	movq	img, %rcx
	movl	%eax, 71984(%rcx)
	movq	input, %rax
	movl	2932(%rax), %eax
	movq	img, %rcx
	movl	%eax, 71988(%rcx)
	movq	input, %rax
	movl	2936(%rax), %eax
	movq	img, %rcx
	movl	%eax, 71992(%rcx)
	movq	img, %rax
	cmpl	$1, 24(%rax)
	jne	.LBB47_5
# %bb.4:                                # %if.then14
	movl	Bframe_ctr, %eax
	addl	$1, %eax
	movl	%eax, Bframe_ctr
	jmp	.LBB47_9
.LBB47_5:                               # %if.else
	movq	img, %rax
	cmpl	$2, 24(%rax)
	jne	.LBB47_7
# %bb.6:                                # %if.then17
	movl	Iframe_ctr, %eax
	addl	$1, %eax
	movl	%eax, Iframe_ctr
	jmp	.LBB47_8
.LBB47_7:                               # %if.else19
	movl	Pframe_ctr, %eax
	addl	$1, %eax
	movl	%eax, Pframe_ctr
.LBB47_8:                               # %if.end21
	jmp	.LBB47_9
.LBB47_9:                               # %if.end22
	movq	input, %rax
	cmpl	$1, 2880(%rax)
	jne	.LBB47_11
# %bb.10:                               # %if.then24
	movq	img, %rax
	movl	$1, 72600(%rax)
	movq	img, %rax
	movl	$1, 72444(%rax)
	movq	top_pic, %rdi
	movq	bottom_pic, %rsi
	callq	field_picture
	movq	img, %rax
	movl	$1, 71800(%rax)
	jmp	.LBB47_38
.LBB47_11:                              # %if.else25
	movq	img, %rax
	movl	$0, 72600(%rax)
	movq	input, %rax
	cmpl	$0, 2884(%rax)
	je	.LBB47_13
# %bb.12:                               # %if.then28
	movl	$1, mb_adaptive
.LBB47_13:                              # %if.end29
	movq	img, %rax
	movl	$0, 72444(%rax)
	movq	input, %rax
	cmpl	$0, 3236(%rax)
	je	.LBB47_21
# %bb.14:                               # %if.then32
	movq	input, %rax
	cmpl	$0, 2884(%rax)
	je	.LBB47_19
# %bb.15:                               # %land.lhs.true35
	movq	input, %rax
	movl	3248(%rax), %eax
	movq	img, %rcx
	cmpl	72608(%rcx), %eax
	jge	.LBB47_19
# %bb.16:                               # %land.lhs.true37
	movq	img, %rax
	cmpl	$0, 24(%rax)
	jne	.LBB47_19
# %bb.17:                               # %land.lhs.true40
	movq	img, %rax
	cmpl	$0, 72612(%rax)
	jne	.LBB47_19
# %bb.18:                               # %if.then42
	movq	input, %rax
	movl	3248(%rax), %eax
	shll	$1, %eax
	movq	img, %rcx
	movl	%eax, 72620(%rcx)
	jmp	.LBB47_20
.LBB47_19:                              # %if.else44
	movq	input, %rax
	movl	3248(%rax), %eax
	movq	img, %rcx
	movl	%eax, 72620(%rcx)
.LBB47_20:                              # %if.end47
	movl	$1, %edi
	xorl	%esi, %esi
	movl	$1, %edx
	callq	rc_init_pict
	xorl	%edi, %edi
	callq	updateQuantizationParameter
	movq	img, %rcx
	movl	%eax, 40(%rcx)
	movq	img, %rax
	movl	24(%rax), %eax
	movl	%eax, -92(%rbp)
	movl	$0, QP
.LBB47_21:                              # %if.end50
	movq	active_sps, %rax
	cmpl	$0, 1148(%rax)
	je	.LBB47_23
# %bb.22:                               # %if.then52
	movq	img, %rax
	movl	$0, 72596(%rax)
.LBB47_23:                              # %if.end53
	movq	input, %rax
	cmpl	$0, 60(%rax)
	je	.LBB47_25
# %bb.24:                               # %if.then55
	movabsq	$PicParSet, %rax
	movq	%rax, active_pps
.LBB47_25:                              # %if.end56
	movq	frame_pic, %rdi
	xorl	%esi, %esi
	callq	frame_picture
	movq	input, %rax
	cmpl	$0, 1300(%rax)
	jne	.LBB47_27
# %bb.26:                               # %lor.lhs.false
	movq	img, %rax
	cmpl	$2, 24(%rax)
	je	.LBB47_29
.LBB47_27:                              # %land.lhs.true60
	movq	input, %rax
	cmpl	$0, 1296(%rax)
	je	.LBB47_29
# %bb.28:                               # %if.then62
	callq	rdPictureCoding
.LBB47_29:                              # %if.end63
	movq	input, %rax
	cmpl	$0, 2884(%rax)
	je	.LBB47_31
# %bb.30:                               # %if.then66
	movl	$0, mb_adaptive
.LBB47_31:                              # %if.end67
	movq	input, %rax
	cmpl	$2, 2880(%rax)
	jne	.LBB47_36
# %bb.32:                               # %if.then70
	movq	img, %rax
	movl	$1, 72600(%rax)
	movq	img, %rax
	movl	$0, 72624(%rax)
	movq	img, %rax
	movl	$0, 72628(%rax)
	movq	img, %rax
	movl	$1, 72444(%rax)
	movq	top_pic, %rdi
	movq	bottom_pic, %rsi
	callq	field_picture
	movq	top_pic, %rax
	vmovss	812(%rax), %xmm0        # xmm0 = mem[0],zero,zero,zero
	movq	top_pic, %rax
	vaddss	816(%rax), %xmm0, %xmm0
	movq	top_pic, %rax
	vaddss	820(%rax), %xmm0, %xmm0
	vmovss	%xmm0, -40(%rbp)
	movq	frame_pic, %rax
	vmovss	812(%rax), %xmm0        # xmm0 = mem[0],zero,zero,zero
	movq	frame_pic, %rax
	vaddss	816(%rax), %xmm0, %xmm0
	movq	frame_pic, %rax
	vaddss	820(%rax), %xmm0, %xmm0
	vmovss	%xmm0, -64(%rbp)
	movq	frame_pic, %rdi
	movq	top_pic, %rsi
	movq	bottom_pic, %rdx
	callq	picture_structure_decision
	movq	img, %rcx
	movl	%eax, 71800(%rcx)
	movq	img, %rax
	movl	71800(%rax), %edi
	callq	update_field_frame_contexts
	movq	img, %rax
	cmpl	$0, 71800(%rax)
	jne	.LBB47_34
# %bb.33:                               # %if.then86
	movq	img, %rax
	movl	$1, 72604(%rax)
	jmp	.LBB47_35
.LBB47_34:                              # %if.else87
	movq	img, %rax
	movl	$0, 72604(%rax)
.LBB47_35:                              # %if.end89
	jmp	.LBB47_37
.LBB47_36:                              # %if.else90
	movq	img, %rax
	movl	$0, 71800(%rax)
.LBB47_37:                              # %if.end92
	jmp	.LBB47_38
.LBB47_38:                              # %if.end93
	movq	img, %rax
	cmpl	$0, 71800(%rax)
	je	.LBB47_40
# %bb.39:                               # %if.then96
	movq	stats, %rax
	movl	1472(%rax), %eax
	movq	stats, %rcx
	addl	28(%rcx), %eax
	movl	%eax, 28(%rcx)
	jmp	.LBB47_41
.LBB47_40:                              # %if.else98
	movq	stats, %rax
	movl	1468(%rax), %eax
	movq	stats, %rcx
	addl	28(%rcx), %eax
	movl	%eax, 28(%rcx)
.LBB47_41:                              # %if.end101
	movq	img, %rax
	cmpl	$1, 24(%rax)
	je	.LBB47_43
# %bb.42:                               # %if.then104
	movq	img, %rax
	movl	71800(%rax), %eax
	movq	img, %rcx
	movl	%eax, 71872(%rcx)
.LBB47_43:                              # %if.end106
	movq	img, %rax
	cmpl	$0, 71800(%rax)
	je	.LBB47_45
# %bb.44:                               # %if.then109
	movl	-32(%rbp), %edi
	vmovss	-28(%rbp), %xmm0        # xmm0 = mem[0],zero,zero,zero
	vmovss	-24(%rbp), %xmm1        # xmm1 = mem[0],zero,zero,zero
	vmovss	-36(%rbp), %xmm2        # xmm2 = mem[0],zero,zero,zero
	callq	field_mode_buffer
	movq	top_pic, %rdi
	callq	writeout_picture
	movq	bottom_pic, %rdi
	callq	writeout_picture
	jmp	.LBB47_54
.LBB47_45:                              # %if.else112
	movl	-44(%rbp), %edi
	vmovss	-48(%rbp), %xmm0        # xmm0 = mem[0],zero,zero,zero
	vmovss	-52(%rbp), %xmm1        # xmm1 = mem[0],zero,zero,zero
	vmovss	-56(%rbp), %xmm2        # xmm2 = mem[0],zero,zero,zero
	callq	frame_mode_buffer
	movq	input, %rax
	cmpl	$0, 1296(%rax)
	je	.LBB47_48
# %bb.46:                               # %land.lhs.true115
	movq	img, %rax
	cmpl	$2, 71804(%rax)
	jne	.LBB47_48
# %bb.47:                               # %if.then118
	movq	frame_pic3, %rdi
	callq	writeout_picture
	jmp	.LBB47_53
.LBB47_48:                              # %if.else120
	movq	input, %rax
	cmpl	$0, 1296(%rax)
	je	.LBB47_51
# %bb.49:                               # %land.lhs.true123
	movq	img, %rax
	cmpl	$1, 71804(%rax)
	jne	.LBB47_51
# %bb.50:                               # %if.then126
	movq	frame_pic2, %rdi
	callq	writeout_picture
	jmp	.LBB47_52
.LBB47_51:                              # %if.else128
	movq	frame_pic, %rdi
	callq	writeout_picture
.LBB47_52:                              # %if.end130
	jmp	.LBB47_53
.LBB47_53:                              # %if.end131
	jmp	.LBB47_54
.LBB47_54:                              # %if.end132
	cmpq	$0, frame_pic3
	je	.LBB47_56
# %bb.55:                               # %if.then134
	movq	frame_pic3, %rdi
	callq	free_slice_list
.LBB47_56:                              # %if.end135
	cmpq	$0, frame_pic2
	je	.LBB47_58
# %bb.57:                               # %if.then137
	movq	frame_pic2, %rdi
	callq	free_slice_list
.LBB47_58:                              # %if.end138
	cmpq	$0, frame_pic
	je	.LBB47_60
# %bb.59:                               # %if.then140
	movq	frame_pic, %rdi
	callq	free_slice_list
.LBB47_60:                              # %if.end141
	cmpq	$0, top_pic
	je	.LBB47_62
# %bb.61:                               # %if.then143
	movq	top_pic, %rdi
	callq	free_slice_list
.LBB47_62:                              # %if.end144
	cmpq	$0, bottom_pic
	je	.LBB47_64
# %bb.63:                               # %if.then146
	movq	bottom_pic, %rdi
	callq	free_slice_list
.LBB47_64:                              # %if.end147
	movq	input, %rax
	cmpl	$0, 3236(%rax)
	je	.LBB47_66
# %bb.65:                               # %if.then150
	movq	stats, %rax
	movl	16(%rax), %eax
	movq	stats, %rcx
	subl	20(%rcx), %eax
	movl	%eax, -16(%rbp)
	movl	-16(%rbp), %edi
	callq	rc_update_pict_frame
.LBB47_66:                              # %if.end151
	callq	find_snr
	leaq	-80(%rbp), %rdi
	callq	time
	leaq	-112(%rbp), %rdi
	callq	ftime
	imulq	$1000, -80(%rbp), %rax  # imm = 0x3E8
	movzwl	-104(%rbp), %ecx
	addq	%rcx, %rax
	imulq	$1000, -88(%rbp), %rcx  # imm = 0x3E8
	movzwl	-120(%rbp), %edx
	addq	%rdx, %rcx
	subq	%rcx, %rax
	movl	%eax, -12(%rbp)
	movl	tot_time, %eax
	addl	-12(%rbp), %eax
	movl	%eax, tot_time
	movq	input, %rax
	cmpl	$2, 2880(%rax)
	jne	.LBB47_71
# %bb.67:                               # %if.then166
	movq	img, %rax
	cmpl	$0, 71800(%rax)
	je	.LBB47_69
# %bb.68:                               # %if.then169
	movq	enc_bottom_picture, %rdi
	callq	store_picture_in_dpb
	movq	enc_frame_picture, %rdi
	callq	free_storable_picture
	jmp	.LBB47_70
.LBB47_69:                              # %if.else170
	movq	enc_frame_picture, %rdi
	callq	replace_top_pic_with_frame
	movq	enc_bottom_picture, %rdi
	callq	free_storable_picture
.LBB47_70:                              # %if.end171
	jmp	.LBB47_81
.LBB47_71:                              # %if.else172
	movq	img, %rax
	cmpl	$0, 71800(%rax)
	je	.LBB47_73
# %bb.72:                               # %if.then175
	movq	enc_bottom_picture, %rdi
	callq	store_picture_in_dpb
	jmp	.LBB47_80
.LBB47_73:                              # %if.else176
	movq	img, %rax
	cmpl	$2, 71804(%rax)
	jne	.LBB47_75
# %bb.74:                               # %if.then180
	movq	enc_frame_picture3, %rdi
	callq	store_picture_in_dpb
	movq	enc_frame_picture, %rdi
	callq	free_storable_picture
	movq	enc_frame_picture2, %rdi
	callq	free_storable_picture
	jmp	.LBB47_79
.LBB47_75:                              # %if.else181
	movq	img, %rax
	cmpl	$1, 71804(%rax)
	jne	.LBB47_77
# %bb.76:                               # %if.then185
	movq	enc_frame_picture2, %rdi
	callq	store_picture_in_dpb
	movq	enc_frame_picture, %rdi
	callq	free_storable_picture
	movq	enc_frame_picture3, %rdi
	callq	free_storable_picture
	jmp	.LBB47_78
.LBB47_77:                              # %if.else186
	movq	enc_frame_picture, %rdi
	callq	store_picture_in_dpb
	movq	enc_frame_picture2, %rdi
	callq	free_storable_picture
	movq	enc_frame_picture3, %rdi
	callq	free_storable_picture
.LBB47_78:                              # %if.end187
	jmp	.LBB47_79
.LBB47_79:                              # %if.end188
	jmp	.LBB47_80
.LBB47_80:                              # %if.end189
	jmp	.LBB47_81
.LBB47_81:                              # %if.end190
	movq	stats, %rax
	movl	16(%rax), %eax
	movq	stats, %rcx
	subl	20(%rcx), %eax
	cltq
	movq	total_frame_buffer, %rcx
	movq	%rax, Bit_Buffer(,%rcx,8)
	movq	total_frame_buffer, %rax
	addq	$1, %rax
	movq	%rax, total_frame_buffer
	movq	img, %rax
	cmpl	$2, 72404(%rax)
	jne	.LBB47_89
# %bb.82:                               # %if.then198
	movq	img, %rax
	cmpl	$0, 72496(%rax)
	jne	.LBB47_84
# %bb.83:                               # %if.then200
	movl	encode_one_frame.consecutive_non_reference_pictures, %eax
	addl	$1, %eax
	movl	%eax, encode_one_frame.consecutive_non_reference_pictures
	jmp	.LBB47_85
.LBB47_84:                              # %if.else202
	movl	$0, encode_one_frame.consecutive_non_reference_pictures
.LBB47_85:                              # %if.end203
	movl	frame_no, %eax
	cmpl	encode_one_frame.prev_frame_no, %eax
	jl	.LBB47_87
# %bb.86:                               # %lor.lhs.false206
	cmpl	$1, encode_one_frame.consecutive_non_reference_pictures
	jle	.LBB47_88
.LBB47_87:                              # %if.then209
	movabsq	$.L.str, %rdi
	movl	$4294967295, %esi       # imm = 0xFFFFFFFF
	callq	error
.LBB47_88:                              # %if.end210
	movl	frame_no, %eax
	movl	%eax, encode_one_frame.prev_frame_no
.LBB47_89:                              # %if.end211
	movq	stats, %rax
	cmpl	$0, 1492(%rax)
	je	.LBB47_91
# %bb.90:                               # %if.then215
	movl	-12(%rbp), %edi
	movl	me_time, %esi
	callq	ReportNALNonVLCBits
.LBB47_91:                              # %if.end216
	movq	img, %rax
	movl	(%rax), %eax
	subl	start_frame_no_in_this_IGOP, %eax
	cmpl	$0, %eax
	jne	.LBB47_93
# %bb.92:                               # %if.then221
	movl	-12(%rbp), %edi
	movl	me_time, %esi
	callq	ReportFirstframe
	jmp	.LBB47_110
.LBB47_93:                              # %if.else222
	movq	input, %rax
	cmpl	$0, 3236(%rax)
	je	.LBB47_99
# %bb.94:                               # %if.then225
	movq	input, %rax
	cmpl	$0, 2880(%rax)
	jne	.LBB47_97
# %bb.95:                               # %land.lhs.true228
	movq	input, %rax
	cmpl	$0, 2884(%rax)
	jne	.LBB47_97
# %bb.96:                               # %if.then231
	movq	stats, %rax
	movl	16(%rax), %eax
	movq	stats, %rcx
	subl	20(%rcx), %eax
	movl	%eax, -16(%rbp)
	jmp	.LBB47_98
.LBB47_97:                              # %if.else235
	movq	stats, %rax
	movl	16(%rax), %eax
	subl	Pprev_bits, %eax
	movl	%eax, -16(%rbp)
	movq	stats, %rax
	movl	16(%rax), %eax
	movl	%eax, Pprev_bits
.LBB47_98:                              # %if.end239
	jmp	.LBB47_99
.LBB47_99:                              # %if.end240
	movq	img(%rip), %rax
	movl	24(%rax), %eax
	movl	%eax, %ecx
	subl	$1, %ecx
	je	.LBB47_104
	jmp	.LBB47_100
.LBB47_100:                             # %if.end240
	movl	%eax, %ecx
	subl	$2, %ecx
	je	.LBB47_102
	jmp	.LBB47_101
.LBB47_101:                             # %if.end240
	subl	$3, %eax
	je	.LBB47_103
	jmp	.LBB47_108
.LBB47_102:                             # %sw.bb
	movq	stats, %rax
	movl	16(%rax), %eax
	movq	stats, %rcx
	subl	20(%rcx), %eax
	movq	stats, %rcx
	addl	704(%rcx), %eax
	movl	%eax, 704(%rcx)
	movl	-12(%rbp), %edi
	movl	me_time, %esi
	callq	ReportIntra
	jmp	.LBB47_109
.LBB47_103:                             # %sw.bb246
	movq	stats, %rax
	movl	16(%rax), %eax
	movq	stats, %rcx
	subl	20(%rcx), %eax
	movq	stats, %rcx
	addl	708(%rcx), %eax
	movl	%eax, 708(%rcx)
	movl	-12(%rbp), %edi
	movl	me_time, %esi
	callq	ReportSP
	jmp	.LBB47_109
.LBB47_104:                             # %sw.bb251
	movq	stats, %rax
	movl	16(%rax), %eax
	movq	stats, %rcx
	subl	20(%rcx), %eax
	movq	stats, %rcx
	addl	712(%rcx), %eax
	movl	%eax, 712(%rcx)
	movq	img, %rax
	cmpl	$0, 72496(%rax)
	jle	.LBB47_106
# %bb.105:                              # %if.then259
	movl	-12(%rbp), %edi
	movl	me_time, %esi
	callq	ReportRB
	jmp	.LBB47_107
.LBB47_106:                             # %if.else260
	movl	-12(%rbp), %edi
	movl	me_time, %esi
	callq	ReportB
.LBB47_107:                             # %if.end261
	jmp	.LBB47_109
.LBB47_108:                             # %sw.default
	movq	stats, %rax
	movl	16(%rax), %eax
	movq	stats, %rcx
	subl	20(%rcx), %eax
	movq	stats, %rcx
	addl	708(%rcx), %eax
	movl	%eax, 708(%rcx)
	movl	-12(%rbp), %edi
	movl	me_time, %esi
	callq	ReportP
.LBB47_109:                             # %sw.epilog
	jmp	.LBB47_110
.LBB47_110:                             # %if.end267
	movq	stats, %rax
	movl	16(%rax), %eax
	movq	stats, %rcx
	movl	%eax, 20(%rcx)
	movq	input, %rax
	cmpl	$0, 3236(%rax)
	je	.LBB47_120
# %bb.111:                              # %if.then272
	movl	-16(%rbp), %edi
	callq	rc_update_pict
	movq	img, %rax
	cmpl	$0, 24(%rax)
	jne	.LBB47_114
# %bb.112:                              # %land.lhs.true276
	movq	active_sps, %rax
	cmpl	$0, 1148(%rax)
	je	.LBB47_114
# %bb.113:                              # %if.then279
	movb	$0, %al
	callq	updateRCModel
	jmp	.LBB47_119
.LBB47_114:                             # %if.else280
	movq	img, %rax
	cmpl	$0, 24(%rax)
	jne	.LBB47_118
# %bb.115:                              # %land.lhs.true284
	movq	active_sps, %rax
	cmpl	$0, 1148(%rax)
	jne	.LBB47_118
# %bb.116:                              # %land.lhs.true287
	movq	img, %rax
	cmpl	$0, 72612(%rax)
	jne	.LBB47_118
# %bb.117:                              # %if.then291
	movb	$0, %al
	callq	updateRCModel
.LBB47_118:                             # %if.end292
	jmp	.LBB47_119
.LBB47_119:                             # %if.end293
	jmp	.LBB47_120
.LBB47_120:                             # %if.end294
	movq	stats, %rax
	movl	$0, 1492(%rax)
	movq	img, %rax
	movl	(%rax), %eax
	subl	start_frame_no_in_this_IGOP, %eax
	cmpl	$0, %eax
	jne	.LBB47_122
# %bb.121:                              # %if.then300
	movl	$0, -20(%rbp)
	jmp	.LBB47_123
.LBB47_122:                             # %if.else301
	movl	$1, -20(%rbp)
.LBB47_123:                             # %return
	movl	-20(%rbp), %ebx
	cmpl	$625695498, -68(%rbp)   # imm = 0x254B5B0A
	jne	.LBB47_125
.LBB47_124:
	movl	%ebx, %eax
	addq	$136, %rsp
	popq	%rbx
	popq	%rbp
	.cfi_def_cfa %rsp, 8
	retq
.LBB47_125:                             # %func_exit
	.cfi_def_cfa %rbp, 16
	callq	detect_breach
	jmp	.LBB47_124
.Lfunc_end47:
	.size	encode_one_frame.11, .Lfunc_end47-encode_one_frame.11
	.cfi_endproc
                                        # -- End function
	.globl	code_a_picture.12       # -- Begin function code_a_picture.12
	.p2align	4, 0x90
	.type	code_a_picture.12,@function
code_a_picture.12:                      # @code_a_picture.12
	.cfi_startproc
# %bb.0:                                # %entry
	pushq	%rbp
	.cfi_def_cfa_offset 16
	.cfi_offset %rbp, -16
	movq	%rsp, %rbp
	.cfi_def_cfa_register %rbp
	subq	$32, %rsp
	movl	$1631547332, -28(%rbp)  # imm = 0x613F6FC4
	movq	%rdi, -24(%rbp)
	movl	$0, -12(%rbp)
	movl	$0, -4(%rbp)
	movq	-24(%rbp), %rax
	movq	img, %rcx
	movq	%rax, 14152(%rcx)
	movq	img, %rax
	movl	(%rax), %eax
	subl	start_frame_no_in_this_IGOP, %eax
	cmpl	$0, %eax
	jne	.LBB48_2
# %bb.1:                                # %land.lhs.true
	movq	img, %rax
	cmpl	$2, 28(%rax)
	movb	$1, %al
	jne	.LBB48_8
.LBB48_2:                               # %lor.rhs
	xorl	%eax, %eax
	movq	input, %rcx
	cmpl	$0, 1228(%rcx)
	je	.LBB48_7
# %bb.3:                                # %land.lhs.true2
	movq	img, %rax
	cmpl	$2, 24(%rax)
	je	.LBB48_6
# %bb.4:                                # %lor.lhs.false
	movq	img, %rax
	cmpl	$3, 24(%rax)
	je	.LBB48_6
# %bb.5:                                # %lor.lhs.false6
	xorl	%eax, %eax
	movq	img, %rcx
	cmpl	$4, 24(%rcx)
	jne	.LBB48_7
.LBB48_6:                               # %land.rhs
	movq	img, %rax
	cmpl	$2, 28(%rax)
	sete	%al
	xorb	$-1, %al
.LBB48_7:                               # %land.end
.LBB48_8:                               # %lor.end
	andb	$1, %al
	movzbl	%al, %eax
	movq	img, %rcx
	movq	14152(%rcx), %rcx
	movl	%eax, 4(%rcx)
	movq	-24(%rbp), %rax
	movl	$0, (%rax)
	movq	-24(%rbp), %rax
	vxorps	%xmm0, %xmm0, %xmm0
	vmovss	%xmm0, 812(%rax)
	movq	-24(%rbp), %rax
	vmovss	%xmm0, 820(%rax)
	movq	-24(%rbp), %rax
	vmovss	%xmm0, 816(%rax)
	movb	$0, %al
	callq	RandomIntraNewPicture
	movq	img, %rax
	movl	$1, 72652(%rax)
	movq	img, %rdi
	movq	active_pps, %rsi
	movq	active_sps, %rdx
	callq	FmoInit
	movb	$0, %al
	callq	FmoStartPicture
	movb	$0, %al
	callq	CalculateQuantParam
	movb	$0, %al
	callq	CalculateOffsetParam
	movq	input, %rax
	cmpl	$0, 3220(%rax)
	je	.LBB48_10
# %bb.9:                                # %if.then
	movb	$0, %al
	callq	CalculateQuant8Param
	movb	$0, %al
	callq	CalculateOffset8Param
.LBB48_10:                              # %if.end
	jmp	.LBB48_11
.LBB48_11:                              # %while.cond
                                        # =>This Loop Header: Depth=1
                                        #     Child Loop BB48_13 Depth 2
	movl	-12(%rbp), %eax
	movq	img, %rcx
	cmpl	16(%rcx), %eax
	jge	.LBB48_16
# %bb.12:                               # %while.body
                                        #   in Loop: Header=BB48_11 Depth=1
	jmp	.LBB48_13
.LBB48_13:                              # %while.cond15
                                        #   Parent Loop BB48_11 Depth=1
                                        # =>  This Inner Loop Header: Depth=2
	movl	-4(%rbp), %edi
	callq	FmoSliceGroupCompletelyCoded
	cmpl	$0, %eax
	setne	%al
	xorb	$-1, %al
	testb	$1, %al
	jne	.LBB48_14
	jmp	.LBB48_15
.LBB48_14:                              # %while.body19
                                        #   in Loop: Header=BB48_13 Depth=2
	movl	-4(%rbp), %edi
	movq	-24(%rbp), %rsi
	callq	encode_one_slice
	addl	-12(%rbp), %eax
	movl	%eax, -12(%rbp)
	movq	img, %rax
	movl	12(%rax), %edi
	callq	FmoSetLastMacroblockInSlice
	movq	img, %rax
	movl	20(%rax), %ecx
	addl	$1, %ecx
	movl	%ecx, 20(%rax)
	movq	stats, %rax
	movl	$0, 24(%rax)
	jmp	.LBB48_13
.LBB48_15:                              # %while.end
                                        #   in Loop: Header=BB48_11 Depth=1
	movl	-4(%rbp), %eax
	addl	$1, %eax
	movl	%eax, -4(%rbp)
	jmp	.LBB48_11
.LBB48_16:                              # %while.end22
	movb	$0, %al
	callq	FmoEndPicture
	movq	input, %rax
	cmpl	$2, 2464(%rax)
	jne	.LBB48_23
# %bb.17:                               # %land.lhs.true25
	movq	img, %rax
	cmpl	$1, 24(%rax)
	je	.LBB48_23
# %bb.18:                               # %if.then28
	movl	$0, -8(%rbp)
.LBB48_19:                              # %for.cond
                                        # =>This Inner Loop Header: Depth=1
	movl	-8(%rbp), %eax
	movq	input, %rcx
	cmpl	2904(%rcx), %eax
	jge	.LBB48_22
# %bb.20:                               # %for.body
                                        #   in Loop: Header=BB48_19 Depth=1
	movq	img, %rdi
	movq	decs, %rax
	movq	24(%rax), %rax
	movslq	-8(%rbp), %rcx
	movq	(%rax,%rcx,8), %rsi
	xorl	%edx, %edx
	callq	DeblockFrame
# %bb.21:                               # %for.inc
                                        #   in Loop: Header=BB48_19 Depth=1
	movl	-8(%rbp), %eax
	addl	$1, %eax
	movl	%eax, -8(%rbp)
	jmp	.LBB48_19
.LBB48_22:                              # %for.end
	jmp	.LBB48_23
.LBB48_23:                              # %if.end31
	movq	img, %rdi
	movq	enc_picture, %rax
	movq	6424(%rax), %rsi
	movq	enc_picture, %rax
	movq	6464(%rax), %rdx
	callq	DeblockFrame
	movq	img, %rax
	cmpl	$0, 72400(%rax)
	je	.LBB48_25
# %bb.24:                               # %if.then33
	callq	MbAffPostProc
.LBB48_25:                              # %if.end34
	cmpl	$1631547332, -28(%rbp)  # imm = 0x613F6FC4
	jne	.LBB48_27
.LBB48_26:
	addq	$32, %rsp
	popq	%rbp
	.cfi_def_cfa %rsp, 8
	retq
.LBB48_27:                              # %func_exit
	.cfi_def_cfa %rbp, 16
	callq	detect_breach
	jmp	.LBB48_26
.Lfunc_end48:
	.size	code_a_picture.12, .Lfunc_end48-code_a_picture.12
	.cfi_endproc
                                        # -- End function
	.p2align	4, 0x90         # -- Begin function writeUnit.13
	.type	writeUnit.13,@function
writeUnit.13:                           # @writeUnit.13
	.cfi_startproc
# %bb.0:                                # %entry
	pushq	%rbp
	.cfi_def_cfa_offset 16
	.cfi_offset %rbp, -16
	movq	%rsp, %rbp
	.cfi_def_cfa_register %rbp
	subq	$32, %rsp
	movl	$1665118822, -16(%rbp)  # imm = 0x633FB266
	movq	%rdi, -24(%rbp)
	movl	%esi, -12(%rbp)
	movq	img, %rax
	movl	52(%rax), %edi
	movq	img, %rax
	imull	60(%rax), %edi
	shll	$2, %edi
	movb	$0, %al
	callq	AllocNALU
	movq	%rax, -8(%rbp)
	movq	img, %rax
	movl	12(%rax), %eax
	cmpl	$0, %eax
	movl	$3, %eax
	movl	$2, %ecx
	cmovel	%eax, %ecx
	addl	$2, %ecx
	movq	-8(%rbp), %rax
	movl	%ecx, (%rax)
	movq	-24(%rbp), %rax
	movl	(%rax), %eax
	addl	$1, %eax
	movq	-8(%rbp), %rcx
	movl	%eax, 4(%rcx)
	movq	-8(%rbp), %rax
	movq	24(%rax), %rdi
	addq	$1, %rdi
	movq	-24(%rbp), %rax
	movq	32(%rax), %rsi
	movq	-8(%rbp), %rax
	movl	4(%rax), %eax
	subl	$1, %eax
	movl	%eax, %edx
	callq	memcpy
	movq	img, %rax
	movq	14152(%rax), %rax
	cmpl	$0, 4(%rax)
	je	.LBB49_2
# %bb.1:                                # %if.then
	movq	-8(%rbp), %rax
	movl	$5, 12(%rax)
	movq	-8(%rbp), %rax
	movl	$3, 16(%rax)
	jmp	.LBB49_18
.LBB49_2:                               # %if.else
	movq	img, %rax
	cmpl	$1, 24(%rax)
	jne	.LBB49_10
# %bb.3:                                # %if.then6
	movq	input, %rax
	cmpl	$0, 2364(%rax)
	jne	.LBB49_5
# %bb.4:                                # %if.then9
	movq	-8(%rbp), %rax
	movl	$1, 12(%rax)
	jmp	.LBB49_6
.LBB49_5:                               # %if.else11
	movl	-12(%rbp), %eax
	addl	$2, %eax
	movq	-8(%rbp), %rcx
	movl	%eax, 12(%rcx)
.LBB49_6:                               # %if.end
	movq	img, %rax
	cmpl	$0, 72496(%rax)
	je	.LBB49_8
# %bb.7:                                # %if.then17
	movq	-8(%rbp), %rax
	movl	$2, 16(%rax)
	jmp	.LBB49_9
.LBB49_8:                               # %if.else19
	movq	-8(%rbp), %rax
	movl	$0, 16(%rax)
.LBB49_9:                               # %if.end21
	jmp	.LBB49_17
.LBB49_10:                              # %if.else22
	movq	input, %rax
	cmpl	$0, 2364(%rax)
	jne	.LBB49_12
# %bb.11:                               # %if.then26
	movq	-8(%rbp), %rax
	movl	$1, 12(%rax)
	jmp	.LBB49_13
.LBB49_12:                              # %if.else28
	movl	-12(%rbp), %eax
	addl	$2, %eax
	movq	-8(%rbp), %rcx
	movl	%eax, 12(%rcx)
.LBB49_13:                              # %if.end31
	movq	img, %rax
	cmpl	$0, 72496(%rax)
	je	.LBB49_15
# %bb.14:                               # %if.then35
	movq	-8(%rbp), %rax
	movl	$2, 16(%rax)
	jmp	.LBB49_16
.LBB49_15:                              # %if.else37
	movq	-8(%rbp), %rax
	movl	$0, 16(%rax)
.LBB49_16:                              # %if.end39
	jmp	.LBB49_17
.LBB49_17:                              # %if.end40
	jmp	.LBB49_18
.LBB49_18:                              # %if.end41
	movq	-8(%rbp), %rax
	movl	$0, 20(%rax)
	movq	WriteNALU, %rax
	movq	-8(%rbp), %rdi
	callq	*%rax
	movq	stats, %rcx
	addl	16(%rcx), %eax
	movl	%eax, 16(%rcx)
	movq	-8(%rbp), %rdi
	callq	FreeNALU
	cmpl	$1665118822, -16(%rbp)  # imm = 0x633FB266
	jne	.LBB49_20
.LBB49_19:
	addq	$32, %rsp
	popq	%rbp
	.cfi_def_cfa %rsp, 8
	retq
.LBB49_20:                              # %func_exit
	.cfi_def_cfa %rbp, 16
	callq	detect_breach
	jmp	.LBB49_19
.Lfunc_end49:
	.size	writeUnit.13, .Lfunc_end49-writeUnit.13
	.cfi_endproc
                                        # -- End function
	.section	.rodata.cst8,"aM",@progbits,8
	.p2align	3               # -- Begin function picture_structure_decision.14
.LCPI50_0:
	.quad	4605831338911806259     # double 0.84999999999999998
.LCPI50_1:
	.quad	4611686018427387904     # double 2
.LCPI50_2:
	.quad	4613937818241073152     # double 3
	.text
	.p2align	4, 0x90
	.type	picture_structure_decision.14,@function
picture_structure_decision.14:          # @picture_structure_decision.14
	.cfi_startproc
# %bb.0:                                # %entry
	pushq	%rbp
	.cfi_def_cfa_offset 16
	.cfi_offset %rbp, -16
	movq	%rsp, %rbp
	.cfi_def_cfa_register %rbp
	pushq	%rbx
	subq	$56, %rsp
	.cfi_offset %rbx, -24
	vmovsd	.LCPI50_1(%rip), %xmm0  # xmm0 = mem[0],zero
	vmovsd	.LCPI50_2(%rip), %xmm1  # xmm1 = mem[0],zero
	movl	$1049540315, -44(%rbp)  # imm = 0x3E8EB6DB
	movq	%rdi, -24(%rbp)
	movq	%rsi, -16(%rbp)
	movq	%rdx, -56(%rbp)
	movq	img, %rax
	cmpl	$1, 24(%rax)
	sete	%al
	andb	$1, %al
	movzbl	%al, %eax
	movl	%eax, -36(%rbp)
	movq	img, %rax
	vcvtsi2sdl	72676(%rax), %xmm0, %xmm2
	movq	img, %rax
	movl	40(%rax), %eax
	subl	$12, %eax
	vcvtsi2sd	%eax, %xmm0, %xmm3
	vdivsd	%xmm1, %xmm3, %xmm1
	vaddsd	%xmm1, %xmm2, %xmm1
	callq	pow
	vmovsd	.LCPI50_0(%rip), %xmm1  # xmm1 = mem[0],zero
	vmulsd	%xmm0, %xmm1, %xmm0
	movl	-36(%rbp), %eax
	cmpl	$0, %eax
	movl	$4, %eax
	movl	$1, %ecx
	cmovnel	%eax, %ecx
	vcvtsi2sd	%ecx, %xmm0, %xmm1
	vmulsd	%xmm1, %xmm0, %xmm0
	vmovsd	%xmm0, -64(%rbp)
	movq	-24(%rbp), %rax
	vmovss	812(%rax), %xmm0        # xmm0 = mem[0],zero,zero,zero
	movq	-24(%rbp), %rax
	vaddss	816(%rax), %xmm0, %xmm0
	movq	-24(%rbp), %rax
	vaddss	820(%rax), %xmm0, %xmm0
	vmovss	%xmm0, -28(%rbp)
	movq	-16(%rbp), %rax
	vmovss	812(%rax), %xmm0        # xmm0 = mem[0],zero,zero,zero
	movq	-16(%rbp), %rax
	vaddss	816(%rax), %xmm0, %xmm0
	movq	-16(%rbp), %rax
	vaddss	820(%rax), %xmm0, %xmm0
	vmovss	%xmm0, -32(%rbp)
	movq	-16(%rbp), %rax
	movl	808(%rax), %eax
	movq	-56(%rbp), %rcx
	addl	808(%rcx), %eax
	movl	%eax, -40(%rbp)
	movq	-24(%rbp), %rax
	movl	808(%rax), %eax
	movl	%eax, -48(%rbp)
	vmovss	-28(%rbp), %xmm0        # xmm0 = mem[0],zero,zero,zero
	vmovss	-32(%rbp), %xmm1        # xmm1 = mem[0],zero,zero,zero
	movl	-40(%rbp), %edi
	movl	-48(%rbp), %esi
	vmovsd	-64(%rbp), %xmm2        # xmm2 = mem[0],zero
	callq	decide_fld_frame
	movl	%eax, %ebx
	cmpl	$1049540315, -44(%rbp)  # imm = 0x3E8EB6DB
	jne	.LBB50_2
.LBB50_1:
	movl	%ebx, %eax
	addq	$56, %rsp
	popq	%rbx
	popq	%rbp
	.cfi_def_cfa %rsp, 8
	retq
.LBB50_2:                               # %func_exit
	.cfi_def_cfa %rbp, 16
	callq	detect_breach
	jmp	.LBB50_1
.Lfunc_end50:
	.size	picture_structure_decision.14, .Lfunc_end50-picture_structure_decision.14
	.cfi_endproc
                                        # -- End function
	.p2align	4, 0x90         # -- Begin function writeUnit.15
	.type	writeUnit.15,@function
writeUnit.15:                           # @writeUnit.15
	.cfi_startproc
# %bb.0:                                # %entry
	pushq	%rbp
	.cfi_def_cfa_offset 16
	.cfi_offset %rbp, -16
	movq	%rsp, %rbp
	.cfi_def_cfa_register %rbp
	subq	$32, %rsp
	movl	$158444353, -16(%rbp)   # imm = 0x971AB41
	movq	%rdi, -24(%rbp)
	movl	%esi, -12(%rbp)
	movq	img, %rax
	movl	52(%rax), %edi
	movq	img, %rax
	imull	60(%rax), %edi
	shll	$2, %edi
	movb	$0, %al
	callq	AllocNALU
	movq	%rax, -8(%rbp)
	movq	img, %rax
	movl	12(%rax), %eax
	cmpl	$0, %eax
	movl	$3, %eax
	movl	$2, %ecx
	cmovel	%eax, %ecx
	addl	$2, %ecx
	movq	-8(%rbp), %rax
	movl	%ecx, (%rax)
	movq	-24(%rbp), %rax
	movl	(%rax), %eax
	addl	$1, %eax
	movq	-8(%rbp), %rcx
	movl	%eax, 4(%rcx)
	movq	-8(%rbp), %rax
	movq	24(%rax), %rdi
	addq	$1, %rdi
	movq	-24(%rbp), %rax
	movq	32(%rax), %rsi
	movq	-8(%rbp), %rax
	movl	4(%rax), %eax
	subl	$1, %eax
	movl	%eax, %edx
	callq	memcpy
	movq	img, %rax
	movq	14152(%rax), %rax
	cmpl	$0, 4(%rax)
	je	.LBB51_2
# %bb.1:                                # %if.then
	movq	-8(%rbp), %rax
	movl	$5, 12(%rax)
	movq	-8(%rbp), %rax
	movl	$3, 16(%rax)
	jmp	.LBB51_18
.LBB51_2:                               # %if.else
	movq	img, %rax
	cmpl	$1, 24(%rax)
	jne	.LBB51_10
# %bb.3:                                # %if.then6
	movq	input, %rax
	cmpl	$0, 2364(%rax)
	jne	.LBB51_5
# %bb.4:                                # %if.then9
	movq	-8(%rbp), %rax
	movl	$1, 12(%rax)
	jmp	.LBB51_6
.LBB51_5:                               # %if.else11
	movl	-12(%rbp), %eax
	addl	$2, %eax
	movq	-8(%rbp), %rcx
	movl	%eax, 12(%rcx)
.LBB51_6:                               # %if.end
	movq	img, %rax
	cmpl	$0, 72496(%rax)
	je	.LBB51_8
# %bb.7:                                # %if.then17
	movq	-8(%rbp), %rax
	movl	$2, 16(%rax)
	jmp	.LBB51_9
.LBB51_8:                               # %if.else19
	movq	-8(%rbp), %rax
	movl	$0, 16(%rax)
.LBB51_9:                               # %if.end21
	jmp	.LBB51_17
.LBB51_10:                              # %if.else22
	movq	input, %rax
	cmpl	$0, 2364(%rax)
	jne	.LBB51_12
# %bb.11:                               # %if.then26
	movq	-8(%rbp), %rax
	movl	$1, 12(%rax)
	jmp	.LBB51_13
.LBB51_12:                              # %if.else28
	movl	-12(%rbp), %eax
	addl	$2, %eax
	movq	-8(%rbp), %rcx
	movl	%eax, 12(%rcx)
.LBB51_13:                              # %if.end31
	movq	img, %rax
	cmpl	$0, 72496(%rax)
	je	.LBB51_15
# %bb.14:                               # %if.then35
	movq	-8(%rbp), %rax
	movl	$2, 16(%rax)
	jmp	.LBB51_16
.LBB51_15:                              # %if.else37
	movq	-8(%rbp), %rax
	movl	$0, 16(%rax)
.LBB51_16:                              # %if.end39
	jmp	.LBB51_17
.LBB51_17:                              # %if.end40
	jmp	.LBB51_18
.LBB51_18:                              # %if.end41
	movq	-8(%rbp), %rax
	movl	$0, 20(%rax)
	movq	WriteNALU, %rax
	movq	-8(%rbp), %rdi
	callq	*%rax
	movq	stats, %rcx
	addl	16(%rcx), %eax
	movl	%eax, 16(%rcx)
	movq	-8(%rbp), %rdi
	callq	FreeNALU
	cmpl	$158444353, -16(%rbp)   # imm = 0x971AB41
	jne	.LBB51_20
.LBB51_19:
	addq	$32, %rsp
	popq	%rbp
	.cfi_def_cfa %rsp, 8
	retq
.LBB51_20:                              # %func_exit
	.cfi_def_cfa %rbp, 16
	callq	detect_breach
	jmp	.LBB51_19
.Lfunc_end51:
	.size	writeUnit.15, .Lfunc_end51-writeUnit.15
	.cfi_endproc
                                        # -- End function
	.p2align	4, 0x90         # -- Begin function distortion_fld.16
	.type	distortion_fld.16,@function
distortion_fld.16:                      # @distortion_fld.16
	.cfi_startproc
# %bb.0:                                # %entry
	pushq	%rbp
	.cfi_def_cfa_offset 16
	.cfi_offset %rbp, -16
	movq	%rsp, %rbp
	.cfi_def_cfa_register %rbp
	subq	$32, %rsp
	movl	$1818617177, -4(%rbp)   # imm = 0x6C65E559
	movq	%rdi, -16(%rbp)
	movq	%rsi, -24(%rbp)
	movq	%rdx, -32(%rbp)
	movq	img, %rcx
	movl	(%rcx), %eax
	cltd
	movl	$2, %esi
	idivl	%esi
	movl	%eax, (%rcx)
	movq	img, %rcx
	movl	72376(%rcx), %eax
	cltd
	idivl	%esi
	movl	%eax, 72376(%rcx)
	movq	input, %rax
	movl	68(%rax), %eax
	movq	img, %rcx
	addl	72732(%rcx), %eax
	movq	img, %rcx
	movl	%eax, 60(%rcx)
	movq	img, %rax
	movl	68(%rax), %eax
	movq	img, %rcx
	movl	%eax, 64(%rcx)
	movq	img, %rax
	movl	52(%rax), %eax
	movq	img, %rcx
	imull	60(%rcx), %eax
	cltd
	movl	$256, %ecx              # imm = 0x100
	idivl	%ecx
	movq	img, %rcx
	movl	%eax, 16(%rcx)
	movb	$0, %al
	callq	combine_field
	movq	imgY_org_frm, %rax
	movq	%rax, imgY_org
	movq	imgUV_org_frm, %rax
	movq	%rax, imgUV_org
	callq	find_distortion
	movq	snr, %rax
	vmovss	(%rax), %xmm0           # xmm0 = mem[0],zero,zero,zero
	movq	-16(%rbp), %rax
	vmovss	%xmm0, (%rax)
	movq	snr, %rax
	vmovss	4(%rax), %xmm0          # xmm0 = mem[0],zero,zero,zero
	movq	-24(%rbp), %rax
	vmovss	%xmm0, (%rax)
	movq	snr, %rax
	vmovss	8(%rax), %xmm0          # xmm0 = mem[0],zero,zero,zero
	movq	-32(%rbp), %rax
	vmovss	%xmm0, (%rax)
	cmpl	$1818617177, -4(%rbp)   # imm = 0x6C65E559
	jne	.LBB52_2
.LBB52_1:
	addq	$32, %rsp
	popq	%rbp
	.cfi_def_cfa %rsp, 8
	retq
.LBB52_2:                               # %func_exit
	.cfi_def_cfa %rbp, 16
	callq	detect_breach
	jmp	.LBB52_1
.Lfunc_end52:
	.size	distortion_fld.16, .Lfunc_end52-distortion_fld.16
	.cfi_endproc
                                        # -- End function
	.p2align	4, 0x90         # -- Begin function ReportFirstframe.17
	.type	ReportFirstframe.17,@function
ReportFirstframe.17:                    # @ReportFirstframe.17
	.cfi_startproc
# %bb.0:                                # %entry
	pushq	%rbp
	.cfi_def_cfa_offset 16
	.cfi_offset %rbp, -16
	movq	%rsp, %rbp
	.cfi_def_cfa_register %rbp
	subq	$48, %rsp
	movl	$1781510196, -12(%rbp)  # imm = 0x6A2FB034
	movl	%edi, -16(%rbp)
	movl	%esi, -8(%rbp)
	movl	frame_no, %esi
	movq	stats, %rax
	movl	16(%rax), %edx
	movq	stats, %rax
	subl	20(%rax), %edx
	movq	img, %rax
	movl	40(%rax), %r8d
	movq	snr, %rax
	vmovss	(%rax), %xmm0           # xmm0 = mem[0],zero,zero,zero
	vcvtss2sd	%xmm0, %xmm0, %xmm0
	movq	snr, %rax
	vmovss	4(%rax), %xmm1          # xmm1 = mem[0],zero,zero,zero
	vcvtss2sd	%xmm1, %xmm0, %xmm1
	movq	snr, %rax
	vmovss	8(%rax), %xmm2          # xmm2 = mem[0],zero,zero,zero
	vcvtss2sd	%xmm2, %xmm0, %xmm2
	movl	-16(%rbp), %r9d
	movl	-8(%rbp), %r10d
	movq	img, %rcx
	movl	71800(%rcx), %ecx
	cmpl	$0, %ecx
	movabsq	$.L.str.7, %rcx
	movabsq	$.L.str.8, %rax
	cmovneq	%rcx, %rax
	movl	intras, %r11d
	movabsq	$.L.str.6, %rdi
	movl	$0, %ecx
	movl	%r10d, (%rsp)
	movq	%rax, 8(%rsp)
	movl	%r11d, 16(%rsp)
	movb	$3, %al
	callq	printf
	movq	input, %rax
	cmpl	$0, 3236(%rax)
	je	.LBB53_6
# %bb.1:                                # %if.then
	movq	input, %rax
	cmpl	$0, 2880(%rax)
	jne	.LBB53_4
# %bb.2:                                # %land.lhs.true
	movq	input, %rax
	cmpl	$0, 2884(%rax)
	jne	.LBB53_4
# %bb.3:                                # %if.then6
	movq	stats, %rax
	movl	16(%rax), %eax
	movq	stats, %rcx
	subl	20(%rcx), %eax
	movl	%eax, -4(%rbp)
	jmp	.LBB53_5
.LBB53_4:                               # %if.else
	movq	stats, %rax
	movl	16(%rax), %eax
	subl	Iprev_bits, %eax
	movl	%eax, -4(%rbp)
	movq	stats, %rax
	movl	16(%rax), %eax
	movl	%eax, Iprev_bits
.LBB53_5:                               # %if.end
	jmp	.LBB53_6
.LBB53_6:                               # %if.end13
	movq	stats, %rax
	movl	16(%rax), %eax
	movq	stats, %rcx
	movl	%eax, 704(%rcx)
	movq	stats, %rax
	movl	$0, 16(%rax)
	cmpl	$1781510196, -12(%rbp)  # imm = 0x6A2FB034
	jne	.LBB53_8
.LBB53_7:
	addq	$48, %rsp
	popq	%rbp
	.cfi_def_cfa %rsp, 8
	retq
.LBB53_8:                               # %func_exit
	.cfi_def_cfa %rbp, 16
	callq	detect_breach
	jmp	.LBB53_7
.Lfunc_end53:
	.size	ReportFirstframe.17, .Lfunc_end53-ReportFirstframe.17
	.cfi_endproc
                                        # -- End function
	.globl	frame_picture.18        # -- Begin function frame_picture.18
	.p2align	4, 0x90
	.type	frame_picture.18,@function
frame_picture.18:                       # @frame_picture.18
	.cfi_startproc
# %bb.0:                                # %entry
	pushq	%rbp
	.cfi_def_cfa_offset 16
	.cfi_offset %rbp, -16
	movq	%rsp, %rbp
	.cfi_def_cfa_register %rbp
	subq	$16, %rsp
	movl	$95024114, -16(%rbp)    # imm = 0x5A9F3F2
	movq	%rdi, -8(%rbp)
	movl	%esi, -12(%rbp)
	movq	img, %rax
	movl	$0, 28(%rax)
	movq	img, %rax
	movl	72488(%rax), %eax
	movq	img, %rcx
	movl	%eax, 72484(%rcx)
	cmpl	$2, -12(%rbp)
	jne	.LBB54_2
# %bb.1:                                # %if.then
	movq	img, %rax
	movl	28(%rax), %edi
	movq	img, %rax
	movl	52(%rax), %esi
	movq	img, %rax
	movl	60(%rax), %edx
	movq	img, %rax
	movl	56(%rax), %ecx
	movq	img, %rax
	movl	64(%rax), %r8d
	callq	alloc_storable_picture
	movq	%rax, enc_frame_picture3
	movq	img, %rax
	movl	72456(%rax), %eax
	movq	enc_frame_picture3, %rcx
	movl	%eax, 4(%rcx)
	movq	img, %rcx
	movl	%eax, 72460(%rcx)
	movq	img, %rax
	movl	72448(%rax), %eax
	movq	enc_frame_picture3, %rcx
	movl	%eax, 8(%rcx)
	movq	img, %rax
	movl	72452(%rax), %eax
	movq	enc_frame_picture3, %rcx
	movl	%eax, 12(%rcx)
	movq	img, %rax
	movl	72456(%rax), %eax
	movq	enc_frame_picture3, %rcx
	movl	%eax, 16(%rcx)
	movq	img, %rax
	movl	72464(%rax), %eax
	movq	enc_frame_picture3, %rcx
	movl	%eax, 6364(%rcx)
	movq	img, %rax
	movl	72464(%rax), %eax
	movq	enc_frame_picture3, %rcx
	movl	%eax, 6360(%rcx)
	movq	enc_frame_picture3, %rax
	movl	$1, 6412(%rax)
	movq	input, %rax
	cmpl	$0, 2884(%rax)
	setne	%al
	andb	$1, %al
	movzbl	%al, %eax
	movq	img, %rcx
	movl	%eax, 72400(%rcx)
	movq	enc_frame_picture3, %rcx
	movl	%eax, 6416(%rcx)
	movq	enc_frame_picture3, %rax
	movq	%rax, enc_picture
	callq	copy_params
	jmp	.LBB54_6
.LBB54_2:                               # %if.else
	cmpl	$1, -12(%rbp)
	jne	.LBB54_4
# %bb.3:                                # %if.then9
	movq	img, %rax
	movl	28(%rax), %edi
	movq	img, %rax
	movl	52(%rax), %esi
	movq	img, %rax
	movl	60(%rax), %edx
	movq	img, %rax
	movl	56(%rax), %ecx
	movq	img, %rax
	movl	64(%rax), %r8d
	callq	alloc_storable_picture
	movq	%rax, enc_frame_picture2
	movq	img, %rax
	movl	72456(%rax), %eax
	movq	enc_frame_picture2, %rcx
	movl	%eax, 4(%rcx)
	movq	img, %rcx
	movl	%eax, 72460(%rcx)
	movq	img, %rax
	movl	72448(%rax), %eax
	movq	enc_frame_picture2, %rcx
	movl	%eax, 8(%rcx)
	movq	img, %rax
	movl	72452(%rax), %eax
	movq	enc_frame_picture2, %rcx
	movl	%eax, 12(%rcx)
	movq	img, %rax
	movl	72456(%rax), %eax
	movq	enc_frame_picture2, %rcx
	movl	%eax, 16(%rcx)
	movq	img, %rax
	movl	72464(%rax), %eax
	movq	enc_frame_picture2, %rcx
	movl	%eax, 6364(%rcx)
	movq	img, %rax
	movl	72464(%rax), %eax
	movq	enc_frame_picture2, %rcx
	movl	%eax, 6360(%rcx)
	movq	enc_frame_picture2, %rax
	movl	$1, 6412(%rax)
	movq	input, %rax
	cmpl	$0, 2884(%rax)
	setne	%al
	andb	$1, %al
	movzbl	%al, %eax
	movq	img, %rcx
	movl	%eax, 72400(%rcx)
	movq	enc_frame_picture2, %rcx
	movl	%eax, 6416(%rcx)
	movq	enc_frame_picture2, %rax
	movq	%rax, enc_picture
	callq	copy_params
	jmp	.LBB54_5
.LBB54_4:                               # %if.else35
	movq	img, %rax
	movl	28(%rax), %edi
	movq	img, %rax
	movl	52(%rax), %esi
	movq	img, %rax
	movl	60(%rax), %edx
	movq	img, %rax
	movl	56(%rax), %ecx
	movq	img, %rax
	movl	64(%rax), %r8d
	callq	alloc_storable_picture
	movq	%rax, enc_frame_picture
	movq	img, %rax
	movl	72456(%rax), %eax
	movq	enc_frame_picture, %rcx
	movl	%eax, 4(%rcx)
	movq	img, %rcx
	movl	%eax, 72460(%rcx)
	movq	img, %rax
	movl	72448(%rax), %eax
	movq	enc_frame_picture, %rcx
	movl	%eax, 8(%rcx)
	movq	img, %rax
	movl	72452(%rax), %eax
	movq	enc_frame_picture, %rcx
	movl	%eax, 12(%rcx)
	movq	img, %rax
	movl	72456(%rax), %eax
	movq	enc_frame_picture, %rcx
	movl	%eax, 16(%rcx)
	movq	img, %rax
	movl	72464(%rax), %eax
	movq	enc_frame_picture, %rcx
	movl	%eax, 6364(%rcx)
	movq	img, %rax
	movl	72464(%rax), %eax
	movq	enc_frame_picture, %rcx
	movl	%eax, 6360(%rcx)
	movq	enc_frame_picture, %rax
	movl	$1, 6412(%rax)
	movq	input, %rax
	cmpl	$0, 2884(%rax)
	setne	%al
	andb	$1, %al
	movzbl	%al, %eax
	movq	img, %rcx
	movl	%eax, 72400(%rcx)
	movq	enc_frame_picture, %rcx
	movl	%eax, 6416(%rcx)
	movq	enc_frame_picture, %rax
	movq	%rax, enc_picture
	callq	copy_params
.LBB54_5:                               # %if.end
	jmp	.LBB54_6
.LBB54_6:                               # %if.end61
	movq	stats, %rax
	movl	$0, 1468(%rax)
	movq	stats, %rax
	addq	$1468, %rax             # imm = 0x5BC
	movq	stats, %rcx
	movq	%rax, 1480(%rcx)
	movq	img, %rax
	movl	$0, 71800(%rax)
	movq	-8(%rbp), %rdi
	callq	code_a_picture
	movq	img, %rax
	movq	14160(%rax), %rax
	movq	24(%rax), %rax
	movq	(%rax), %rax
	movl	(%rax), %eax
	shll	$3, %eax
	movq	-8(%rbp), %rcx
	movl	%eax, 808(%rcx)
	movq	img, %rax
	cmpl	$0, 28(%rax)
	jne	.LBB54_8
# %bb.7:                                # %if.then66
	callq	find_distortion
	movq	snr, %rax
	vmovss	(%rax), %xmm0           # xmm0 = mem[0],zero,zero,zero
	movq	-8(%rbp), %rax
	vmovss	%xmm0, 812(%rax)
	movq	snr, %rax
	vmovss	4(%rax), %xmm0          # xmm0 = mem[0],zero,zero,zero
	movq	-8(%rbp), %rax
	vmovss	%xmm0, 816(%rax)
	movq	snr, %rax
	vmovss	8(%rax), %xmm0          # xmm0 = mem[0],zero,zero,zero
	movq	-8(%rbp), %rax
	vmovss	%xmm0, 820(%rax)
.LBB54_8:                               # %if.end67
	cmpl	$95024114, -16(%rbp)    # imm = 0x5A9F3F2
	jne	.LBB54_10
.LBB54_9:
	addq	$16, %rsp
	popq	%rbp
	.cfi_def_cfa %rsp, 8
	retq
.LBB54_10:                              # %func_exit
	.cfi_def_cfa %rbp, 16
	callq	detect_breach
	jmp	.LBB54_9
.Lfunc_end54:
	.size	frame_picture.18, .Lfunc_end54-frame_picture.18
	.cfi_endproc
                                        # -- End function
	.globl	MbAffPostProc.19        # -- Begin function MbAffPostProc.19
	.p2align	4, 0x90
	.type	MbAffPostProc.19,@function
MbAffPostProc.19:                       # @MbAffPostProc.19
	.cfi_startproc
# %bb.0:                                # %entry
	pushq	%rbp
	.cfi_def_cfa_offset 16
	.cfi_offset %rbp, -16
	movq	%rsp, %rbp
	.cfi_def_cfa_register %rbp
	subq	$1072, %rsp             # imm = 0x430
	movl	$1482733927, -44(%rbp)  # imm = 0x5860B967
	movq	enc_picture, %rax
	movq	6424(%rax), %rax
	movq	%rax, -32(%rbp)
	movq	enc_picture, %rax
	movq	6464(%rax), %rax
	movq	%rax, -40(%rbp)
	movq	img, %rax
	cmpl	$0, 72700(%rax)
	je	.LBB55_44
# %bb.1:                                # %if.then
	movl	$0, -20(%rbp)
.LBB55_2:                               # %for.cond
                                        # =>This Loop Header: Depth=1
                                        #     Child Loop BB55_5 Depth 2
                                        #       Child Loop BB55_7 Depth 3
                                        #     Child Loop BB55_13 Depth 2
                                        #       Child Loop BB55_15 Depth 3
                                        #     Child Loop BB55_21 Depth 2
                                        #       Child Loop BB55_23 Depth 3
                                        #         Child Loop BB55_25 Depth 4
                                        #       Child Loop BB55_31 Depth 3
                                        #         Child Loop BB55_33 Depth 4
	movl	-20(%rbp), %eax
	movq	img, %rcx
	cmpl	72484(%rcx), %eax
	jge	.LBB55_43
# %bb.3:                                # %for.body
                                        #   in Loop: Header=BB55_2 Depth=1
	movq	enc_picture, %rax
	movq	6472(%rax), %rax
	movslq	-20(%rbp), %rcx
	cmpb	$0, (%rax,%rcx)
	je	.LBB55_41
# %bb.4:                                # %if.then4
                                        #   in Loop: Header=BB55_2 Depth=1
	movl	-20(%rbp), %edi
	leaq	-12(%rbp), %rsi
	leaq	-16(%rbp), %rdx
	callq	get_mb_pos
	movl	$0, -4(%rbp)
.LBB55_5:                               # %for.cond5
                                        #   Parent Loop BB55_2 Depth=1
                                        # =>  This Loop Header: Depth=2
                                        #       Child Loop BB55_7 Depth 3
	cmpl	$32, -4(%rbp)
	jge	.LBB55_12
# %bb.6:                                # %for.body7
                                        #   in Loop: Header=BB55_5 Depth=2
	movl	$0, -8(%rbp)
.LBB55_7:                               # %for.cond8
                                        #   Parent Loop BB55_2 Depth=1
                                        #     Parent Loop BB55_5 Depth=2
                                        # =>    This Inner Loop Header: Depth=3
	cmpl	$16, -8(%rbp)
	jge	.LBB55_10
# %bb.8:                                # %for.body10
                                        #   in Loop: Header=BB55_7 Depth=3
	movq	-32(%rbp), %rax
	movl	-16(%rbp), %ecx
	addl	-4(%rbp), %ecx
	movslq	%ecx, %rcx
	movq	(%rax,%rcx,8), %rax
	movl	-12(%rbp), %ecx
	addl	-8(%rbp), %ecx
	movslq	%ecx, %rcx
	movw	(%rax,%rcx,2), %ax
	movslq	-8(%rbp), %rcx
	shlq	$6, %rcx
	leaq	-1072(%rbp), %rdx
	addq	%rcx, %rdx
	movslq	-4(%rbp), %rcx
	movw	%ax, (%rdx,%rcx,2)
# %bb.9:                                # %for.inc
                                        #   in Loop: Header=BB55_7 Depth=3
	movl	-8(%rbp), %eax
	addl	$1, %eax
	movl	%eax, -8(%rbp)
	jmp	.LBB55_7
.LBB55_10:                              # %for.end
                                        #   in Loop: Header=BB55_5 Depth=2
	jmp	.LBB55_11
.LBB55_11:                              # %for.inc20
                                        #   in Loop: Header=BB55_5 Depth=2
	movl	-4(%rbp), %eax
	addl	$1, %eax
	movl	%eax, -4(%rbp)
	jmp	.LBB55_5
.LBB55_12:                              # %for.end22
                                        #   in Loop: Header=BB55_2 Depth=1
	movl	$0, -4(%rbp)
.LBB55_13:                              # %for.cond23
                                        #   Parent Loop BB55_2 Depth=1
                                        # =>  This Loop Header: Depth=2
                                        #       Child Loop BB55_15 Depth 3
	cmpl	$16, -4(%rbp)
	jge	.LBB55_20
# %bb.14:                               # %for.body25
                                        #   in Loop: Header=BB55_13 Depth=2
	movl	$0, -8(%rbp)
.LBB55_15:                              # %for.cond26
                                        #   Parent Loop BB55_2 Depth=1
                                        #     Parent Loop BB55_13 Depth=2
                                        # =>    This Inner Loop Header: Depth=3
	cmpl	$16, -8(%rbp)
	jge	.LBB55_18
# %bb.16:                               # %for.body28
                                        #   in Loop: Header=BB55_15 Depth=3
	movslq	-8(%rbp), %rax
	shlq	$6, %rax
	leaq	-1072(%rbp), %rcx
	movq	%rcx, %rdx
	addq	%rax, %rdx
	movslq	-4(%rbp), %rax
	movw	(%rdx,%rax,2), %ax
	movq	-32(%rbp), %rdx
	movl	-16(%rbp), %esi
	movl	-4(%rbp), %edi
	shll	$1, %edi
	addl	%edi, %esi
	movslq	%esi, %rsi
	movq	(%rdx,%rsi,8), %rdx
	movl	-12(%rbp), %esi
	addl	-8(%rbp), %esi
	movslq	%esi, %rsi
	movw	%ax, (%rdx,%rsi,2)
	movslq	-8(%rbp), %rax
	shlq	$6, %rax
	addq	%rax, %rcx
	movl	-4(%rbp), %eax
	addl	$16, %eax
	cltq
	movw	(%rcx,%rax,2), %ax
	movq	-32(%rbp), %rcx
	movl	-16(%rbp), %edx
	movl	-4(%rbp), %esi
	shll	$1, %esi
	addl	$1, %esi
	addl	%esi, %edx
	movslq	%edx, %rdx
	movq	(%rcx,%rdx,8), %rcx
	movl	-12(%rbp), %edx
	addl	-8(%rbp), %edx
	movslq	%edx, %rdx
	movw	%ax, (%rcx,%rdx,2)
# %bb.17:                               # %for.inc52
                                        #   in Loop: Header=BB55_15 Depth=3
	movl	-8(%rbp), %eax
	addl	$1, %eax
	movl	%eax, -8(%rbp)
	jmp	.LBB55_15
.LBB55_18:                              # %for.end54
                                        #   in Loop: Header=BB55_13 Depth=2
	jmp	.LBB55_19
.LBB55_19:                              # %for.inc55
                                        #   in Loop: Header=BB55_13 Depth=2
	movl	-4(%rbp), %eax
	addl	$1, %eax
	movl	%eax, -4(%rbp)
	jmp	.LBB55_13
.LBB55_20:                              # %for.end57
                                        #   in Loop: Header=BB55_2 Depth=1
	movl	-12(%rbp), %ecx
	movq	img, %rsi
	movl	$16, %eax
	cltd
	idivl	72708(%rsi)
	movl	%eax, %esi
	movl	%ecx, %eax
	cltd
	idivl	%esi
	movl	%eax, -12(%rbp)
	movl	-16(%rbp), %ecx
	movq	img, %rsi
	movl	$16, %eax
	cltd
	idivl	72712(%rsi)
	movl	%eax, %esi
	movl	%ecx, %eax
	cltd
	idivl	%esi
	movl	%eax, -16(%rbp)
	movl	$0, -24(%rbp)
.LBB55_21:                              # %for.cond61
                                        #   Parent Loop BB55_2 Depth=1
                                        # =>  This Loop Header: Depth=2
                                        #       Child Loop BB55_23 Depth 3
                                        #         Child Loop BB55_25 Depth 4
                                        #       Child Loop BB55_31 Depth 3
                                        #         Child Loop BB55_33 Depth 4
	cmpl	$2, -24(%rbp)
	jge	.LBB55_40
# %bb.22:                               # %for.body63
                                        #   in Loop: Header=BB55_21 Depth=2
	movl	$0, -4(%rbp)
.LBB55_23:                              # %for.cond64
                                        #   Parent Loop BB55_2 Depth=1
                                        #     Parent Loop BB55_21 Depth=2
                                        # =>    This Loop Header: Depth=3
                                        #         Child Loop BB55_25 Depth 4
	movl	-4(%rbp), %eax
	movq	img, %rcx
	movl	72712(%rcx), %ecx
	shll	$1, %ecx
	cmpl	%ecx, %eax
	jge	.LBB55_30
# %bb.24:                               # %for.body68
                                        #   in Loop: Header=BB55_23 Depth=3
	movl	$0, -8(%rbp)
.LBB55_25:                              # %for.cond69
                                        #   Parent Loop BB55_2 Depth=1
                                        #     Parent Loop BB55_21 Depth=2
                                        #       Parent Loop BB55_23 Depth=3
                                        # =>      This Inner Loop Header: Depth=4
	movl	-8(%rbp), %eax
	movq	img, %rcx
	cmpl	72708(%rcx), %eax
	jge	.LBB55_28
# %bb.26:                               # %for.body72
                                        #   in Loop: Header=BB55_25 Depth=4
	movq	-40(%rbp), %rax
	movslq	-24(%rbp), %rcx
	movq	(%rax,%rcx,8), %rax
	movl	-16(%rbp), %ecx
	addl	-4(%rbp), %ecx
	movslq	%ecx, %rcx
	movq	(%rax,%rcx,8), %rax
	movl	-12(%rbp), %ecx
	addl	-8(%rbp), %ecx
	movslq	%ecx, %rcx
	movw	(%rax,%rcx,2), %ax
	movslq	-8(%rbp), %rcx
	shlq	$6, %rcx
	leaq	-1072(%rbp), %rdx
	addq	%rcx, %rdx
	movslq	-4(%rbp), %rcx
	movw	%ax, (%rdx,%rcx,2)
# %bb.27:                               # %for.inc85
                                        #   in Loop: Header=BB55_25 Depth=4
	movl	-8(%rbp), %eax
	addl	$1, %eax
	movl	%eax, -8(%rbp)
	jmp	.LBB55_25
.LBB55_28:                              # %for.end87
                                        #   in Loop: Header=BB55_23 Depth=3
	jmp	.LBB55_29
.LBB55_29:                              # %for.inc88
                                        #   in Loop: Header=BB55_23 Depth=3
	movl	-4(%rbp), %eax
	addl	$1, %eax
	movl	%eax, -4(%rbp)
	jmp	.LBB55_23
.LBB55_30:                              # %for.end90
                                        #   in Loop: Header=BB55_21 Depth=2
	movl	$0, -4(%rbp)
.LBB55_31:                              # %for.cond91
                                        #   Parent Loop BB55_2 Depth=1
                                        #     Parent Loop BB55_21 Depth=2
                                        # =>    This Loop Header: Depth=3
                                        #         Child Loop BB55_33 Depth 4
	movl	-4(%rbp), %eax
	movq	img, %rcx
	cmpl	72712(%rcx), %eax
	jge	.LBB55_38
# %bb.32:                               # %for.body94
                                        #   in Loop: Header=BB55_31 Depth=3
	movl	$0, -8(%rbp)
.LBB55_33:                              # %for.cond95
                                        #   Parent Loop BB55_2 Depth=1
                                        #     Parent Loop BB55_21 Depth=2
                                        #       Parent Loop BB55_31 Depth=3
                                        # =>      This Inner Loop Header: Depth=4
	movl	-8(%rbp), %eax
	movq	img, %rcx
	cmpl	72708(%rcx), %eax
	jge	.LBB55_36
# %bb.34:                               # %for.body98
                                        #   in Loop: Header=BB55_33 Depth=4
	movslq	-8(%rbp), %rax
	shlq	$6, %rax
	leaq	-1072(%rbp), %rcx
	movq	%rcx, %rdx
	addq	%rax, %rdx
	movslq	-4(%rbp), %rax
	movw	(%rdx,%rax,2), %ax
	movq	-40(%rbp), %rdx
	movslq	-24(%rbp), %rsi
	movq	(%rdx,%rsi,8), %rdx
	movl	-16(%rbp), %esi
	movl	-4(%rbp), %edi
	shll	$1, %edi
	addl	%edi, %esi
	movslq	%esi, %rsi
	movq	(%rdx,%rsi,8), %rdx
	movl	-12(%rbp), %esi
	addl	-8(%rbp), %esi
	movslq	%esi, %rsi
	movw	%ax, (%rdx,%rsi,2)
	movslq	-8(%rbp), %rax
	shlq	$6, %rax
	addq	%rax, %rcx
	movl	-4(%rbp), %eax
	movq	img, %rdx
	addl	72712(%rdx), %eax
	cltq
	movw	(%rcx,%rax,2), %ax
	movq	-40(%rbp), %rcx
	movslq	-24(%rbp), %rdx
	movq	(%rcx,%rdx,8), %rcx
	movl	-16(%rbp), %edx
	movl	-4(%rbp), %esi
	shll	$1, %esi
	addl	$1, %esi
	addl	%esi, %edx
	movslq	%edx, %rdx
	movq	(%rcx,%rdx,8), %rcx
	movl	-12(%rbp), %edx
	addl	-8(%rbp), %edx
	movslq	%edx, %rdx
	movw	%ax, (%rcx,%rdx,2)
# %bb.35:                               # %for.inc128
                                        #   in Loop: Header=BB55_33 Depth=4
	movl	-8(%rbp), %eax
	addl	$1, %eax
	movl	%eax, -8(%rbp)
	jmp	.LBB55_33
.LBB55_36:                              # %for.end130
                                        #   in Loop: Header=BB55_31 Depth=3
	jmp	.LBB55_37
.LBB55_37:                              # %for.inc131
                                        #   in Loop: Header=BB55_31 Depth=3
	movl	-4(%rbp), %eax
	addl	$1, %eax
	movl	%eax, -4(%rbp)
	jmp	.LBB55_31
.LBB55_38:                              # %for.end133
                                        #   in Loop: Header=BB55_21 Depth=2
	jmp	.LBB55_39
.LBB55_39:                              # %for.inc134
                                        #   in Loop: Header=BB55_21 Depth=2
	movl	-24(%rbp), %eax
	addl	$1, %eax
	movl	%eax, -24(%rbp)
	jmp	.LBB55_21
.LBB55_40:                              # %for.end136
                                        #   in Loop: Header=BB55_2 Depth=1
	jmp	.LBB55_41
.LBB55_41:                              # %if.end
                                        #   in Loop: Header=BB55_2 Depth=1
	jmp	.LBB55_42
.LBB55_42:                              # %for.inc137
                                        #   in Loop: Header=BB55_2 Depth=1
	movl	-20(%rbp), %eax
	addl	$2, %eax
	movl	%eax, -20(%rbp)
	jmp	.LBB55_2
.LBB55_43:                              # %for.end139
	jmp	.LBB55_67
.LBB55_44:                              # %if.else
	movl	$0, -20(%rbp)
.LBB55_45:                              # %for.cond140
                                        # =>This Loop Header: Depth=1
                                        #     Child Loop BB55_48 Depth 2
                                        #       Child Loop BB55_50 Depth 3
                                        #     Child Loop BB55_56 Depth 2
                                        #       Child Loop BB55_58 Depth 3
	movl	-20(%rbp), %eax
	movq	img, %rcx
	cmpl	72484(%rcx), %eax
	jge	.LBB55_66
# %bb.46:                               # %for.body143
                                        #   in Loop: Header=BB55_45 Depth=1
	movq	enc_picture, %rax
	movq	6472(%rax), %rax
	movslq	-20(%rbp), %rcx
	cmpb	$0, (%rax,%rcx)
	je	.LBB55_64
# %bb.47:                               # %if.then148
                                        #   in Loop: Header=BB55_45 Depth=1
	movl	-20(%rbp), %edi
	leaq	-12(%rbp), %rsi
	leaq	-16(%rbp), %rdx
	callq	get_mb_pos
	movl	$0, -4(%rbp)
.LBB55_48:                              # %for.cond149
                                        #   Parent Loop BB55_45 Depth=1
                                        # =>  This Loop Header: Depth=2
                                        #       Child Loop BB55_50 Depth 3
	cmpl	$32, -4(%rbp)
	jge	.LBB55_55
# %bb.49:                               # %for.body151
                                        #   in Loop: Header=BB55_48 Depth=2
	movl	$0, -8(%rbp)
.LBB55_50:                              # %for.cond152
                                        #   Parent Loop BB55_45 Depth=1
                                        #     Parent Loop BB55_48 Depth=2
                                        # =>    This Inner Loop Header: Depth=3
	cmpl	$16, -8(%rbp)
	jge	.LBB55_53
# %bb.51:                               # %for.body154
                                        #   in Loop: Header=BB55_50 Depth=3
	movq	-32(%rbp), %rax
	movl	-16(%rbp), %ecx
	addl	-4(%rbp), %ecx
	movslq	%ecx, %rcx
	movq	(%rax,%rcx,8), %rax
	movl	-12(%rbp), %ecx
	addl	-8(%rbp), %ecx
	movslq	%ecx, %rcx
	movw	(%rax,%rcx,2), %ax
	movslq	-8(%rbp), %rcx
	shlq	$6, %rcx
	leaq	-1072(%rbp), %rdx
	addq	%rcx, %rdx
	movslq	-4(%rbp), %rcx
	movw	%ax, (%rdx,%rcx,2)
# %bb.52:                               # %for.inc165
                                        #   in Loop: Header=BB55_50 Depth=3
	movl	-8(%rbp), %eax
	addl	$1, %eax
	movl	%eax, -8(%rbp)
	jmp	.LBB55_50
.LBB55_53:                              # %for.end167
                                        #   in Loop: Header=BB55_48 Depth=2
	jmp	.LBB55_54
.LBB55_54:                              # %for.inc168
                                        #   in Loop: Header=BB55_48 Depth=2
	movl	-4(%rbp), %eax
	addl	$1, %eax
	movl	%eax, -4(%rbp)
	jmp	.LBB55_48
.LBB55_55:                              # %for.end170
                                        #   in Loop: Header=BB55_45 Depth=1
	movl	$0, -4(%rbp)
.LBB55_56:                              # %for.cond171
                                        #   Parent Loop BB55_45 Depth=1
                                        # =>  This Loop Header: Depth=2
                                        #       Child Loop BB55_58 Depth 3
	cmpl	$16, -4(%rbp)
	jge	.LBB55_63
# %bb.57:                               # %for.body173
                                        #   in Loop: Header=BB55_56 Depth=2
	movl	$0, -8(%rbp)
.LBB55_58:                              # %for.cond174
                                        #   Parent Loop BB55_45 Depth=1
                                        #     Parent Loop BB55_56 Depth=2
                                        # =>    This Inner Loop Header: Depth=3
	cmpl	$16, -8(%rbp)
	jge	.LBB55_61
# %bb.59:                               # %for.body176
                                        #   in Loop: Header=BB55_58 Depth=3
	movslq	-8(%rbp), %rax
	shlq	$6, %rax
	leaq	-1072(%rbp), %rcx
	movq	%rcx, %rdx
	addq	%rax, %rdx
	movslq	-4(%rbp), %rax
	movw	(%rdx,%rax,2), %ax
	movq	-32(%rbp), %rdx
	movl	-16(%rbp), %esi
	movl	-4(%rbp), %edi
	shll	$1, %edi
	addl	%edi, %esi
	movslq	%esi, %rsi
	movq	(%rdx,%rsi,8), %rdx
	movl	-12(%rbp), %esi
	addl	-8(%rbp), %esi
	movslq	%esi, %rsi
	movw	%ax, (%rdx,%rsi,2)
	movslq	-8(%rbp), %rax
	shlq	$6, %rax
	addq	%rax, %rcx
	movl	-4(%rbp), %eax
	addl	$16, %eax
	cltq
	movw	(%rcx,%rax,2), %ax
	movq	-32(%rbp), %rcx
	movl	-16(%rbp), %edx
	movl	-4(%rbp), %esi
	shll	$1, %esi
	addl	$1, %esi
	addl	%esi, %edx
	movslq	%edx, %rdx
	movq	(%rcx,%rdx,8), %rcx
	movl	-12(%rbp), %edx
	addl	-8(%rbp), %edx
	movslq	%edx, %rdx
	movw	%ax, (%rcx,%rdx,2)
# %bb.60:                               # %for.inc201
                                        #   in Loop: Header=BB55_58 Depth=3
	movl	-8(%rbp), %eax
	addl	$1, %eax
	movl	%eax, -8(%rbp)
	jmp	.LBB55_58
.LBB55_61:                              # %for.end203
                                        #   in Loop: Header=BB55_56 Depth=2
	jmp	.LBB55_62
.LBB55_62:                              # %for.inc204
                                        #   in Loop: Header=BB55_56 Depth=2
	movl	-4(%rbp), %eax
	addl	$1, %eax
	movl	%eax, -4(%rbp)
	jmp	.LBB55_56
.LBB55_63:                              # %for.end206
                                        #   in Loop: Header=BB55_45 Depth=1
	jmp	.LBB55_64
.LBB55_64:                              # %if.end207
                                        #   in Loop: Header=BB55_45 Depth=1
	jmp	.LBB55_65
.LBB55_65:                              # %for.inc208
                                        #   in Loop: Header=BB55_45 Depth=1
	movl	-20(%rbp), %eax
	addl	$2, %eax
	movl	%eax, -20(%rbp)
	jmp	.LBB55_45
.LBB55_66:                              # %for.end210
	jmp	.LBB55_67
.LBB55_67:                              # %if.end211
	cmpl	$1482733927, -44(%rbp)  # imm = 0x5860B967
	jne	.LBB55_69
.LBB55_68:
	addq	$1072, %rsp             # imm = 0x430
	popq	%rbp
	.cfi_def_cfa %rsp, 8
	retq
.LBB55_69:                              # %func_exit
	.cfi_def_cfa %rbp, 16
	callq	detect_breach
	jmp	.LBB55_68
.Lfunc_end55:
	.size	MbAffPostProc.19, .Lfunc_end55-MbAffPostProc.19
	.cfi_endproc
                                        # -- End function
	.p2align	4, 0x90         # -- Begin function rdPictureCoding.20
	.type	rdPictureCoding.20,@function
rdPictureCoding.20:                     # @rdPictureCoding.20
	.cfi_startproc
# %bb.0:                                # %entry
	pushq	%rbp
	.cfi_def_cfa_offset 16
	.cfi_offset %rbp, -16
	movq	%rsp, %rbp
	.cfi_def_cfa_register %rbp
	subq	$32, %rsp
	movl	$343200653, -24(%rbp)   # imm = 0x1474D38D
	movq	img, %rax
	movl	40(%rax), %eax
	movl	%eax, -20(%rbp)
	movq	img, %rax
	movl	40(%rax), %eax
	movl	%eax, -4(%rbp)
	movl	intras, %eax
	movl	%eax, -12(%rbp)
	movq	img, %rax
	movl	24(%rax), %eax
	movl	%eax, -16(%rbp)
	movl	$0, -8(%rbp)
	movq	img, %rax
	cmpl	$2, 24(%rax)
	je	.LBB56_9
# %bb.1:                                # %land.lhs.true
	movq	input, %rax
	cmpl	$0, 60(%rax)
	je	.LBB56_9
# %bb.2:                                # %if.then
	movq	img, %rax
	cmpl	$0, 24(%rax)
	jne	.LBB56_7
# %bb.3:                                # %if.then5
	xorl	%edi, %edi
	callq	test_wp_P_slice
	cmpl	$1, %eax
	jne	.LBB56_5
# %bb.4:                                # %if.then7
	movabsq	$PicParSet, %rax
	addq	$240, %rax
	movq	%rax, active_pps
	jmp	.LBB56_6
.LBB56_5:                               # %if.else
	movq	input, %rax
	movl	1304(%rax), %eax
	movl	%eax, -8(%rbp)
	movabsq	$PicParSet, %rax
	movq	%rax, active_pps
	movq	img, %rax
	movl	40(%rax), %ecx
	subl	$1, %ecx
	movl	%ecx, 40(%rax)
.LBB56_6:                               # %if.end
	jmp	.LBB56_8
.LBB56_7:                               # %if.else9
	movabsq	$PicParSet, %rax
	addq	$480, %rax              # imm = 0x1E0
	movq	%rax, active_pps
.LBB56_8:                               # %if.end10
	jmp	.LBB56_10
.LBB56_9:                               # %if.else11
	movq	img, %rax
	movl	40(%rax), %ecx
	subl	$1, %ecx
	movl	%ecx, 40(%rax)
.LBB56_10:                              # %if.end14
	movq	active_pps, %rax
	movq	%rax, -32(%rbp)
	movq	img, %rax
	movl	40(%rax), %eax
	movl	%eax, -20(%rbp)
	movq	img, %rax
	movl	$0, 72624(%rax)
	cmpl	$0, -8(%rbp)
	je	.LBB56_12
# %bb.11:                               # %if.then17
	movq	img, %rax
	movl	$0, 71804(%rax)
	movq	$0, enc_frame_picture2
	jmp	.LBB56_13
.LBB56_12:                              # %if.else18
	movq	frame_pic2, %rdi
	movl	$1, %esi
	callq	frame_picture
	movq	frame_pic, %rdi
	movq	frame_pic2, %rsi
	movl	-4(%rbp), %edx
	callq	picture_coding_decision
	movq	img, %rcx
	movl	%eax, 71804(%rcx)
.LBB56_13:                              # %if.end21
	movq	img, %rax
	cmpl	$0, 71804(%rax)
	jne	.LBB56_19
# %bb.14:                               # %if.then24
	movq	enc_frame_picture, %rax
	movq	%rax, enc_picture
	movq	img, %rax
	cmpl	$2, 24(%rax)
	je	.LBB56_17
# %bb.15:                               # %land.lhs.true27
	movq	input, %rax
	cmpl	$0, 60(%rax)
	je	.LBB56_17
# %bb.16:                               # %if.then30
	movl	-4(%rbp), %eax
	movq	img, %rcx
	movl	%eax, 40(%rcx)
	movabsq	$PicParSet, %rax
	movq	%rax, active_pps
	jmp	.LBB56_18
.LBB56_17:                              # %if.else32
	movl	-4(%rbp), %eax
	movq	img, %rcx
	movl	%eax, 40(%rcx)
.LBB56_18:                              # %if.end34
	movl	-12(%rbp), %eax
	movl	%eax, intras
	jmp	.LBB56_20
.LBB56_19:                              # %if.else35
	movl	intras, %eax
	movl	%eax, -12(%rbp)
.LBB56_20:                              # %if.end36
	movq	img, %rax
	cmpl	$2, 24(%rax)
	je	.LBB56_35
# %bb.21:                               # %land.lhs.true39
	movq	input, %rax
	cmpl	$0, 60(%rax)
	je	.LBB56_35
# %bb.22:                               # %if.then42
	movl	$0, -8(%rbp)
	movl	-4(%rbp), %eax
	movq	img, %rcx
	movl	%eax, 40(%rcx)
	movq	img, %rax
	cmpl	$0, 24(%rax)
	jne	.LBB56_27
# %bb.23:                               # %if.then46
	movl	$1, %edi
	callq	test_wp_P_slice
	cmpl	$1, %eax
	jne	.LBB56_25
# %bb.24:                               # %if.then49
	movabsq	$PicParSet, %rax
	addq	$240, %rax
	movq	%rax, active_pps
	jmp	.LBB56_26
.LBB56_25:                              # %if.else50
	movq	input, %rax
	movl	1304(%rax), %eax
	movl	%eax, -8(%rbp)
	movabsq	$PicParSet, %rax
	movq	%rax, active_pps
	movq	img, %rax
	movl	40(%rax), %ecx
	addl	$1, %ecx
	movl	%ecx, 40(%rax)
.LBB56_26:                              # %if.end53
	jmp	.LBB56_34
.LBB56_27:                              # %if.else54
	xorl	%edi, %edi
	callq	test_wp_B_slice
	cmpl	$1, %eax
	jne	.LBB56_29
# %bb.28:                               # %if.then57
	movabsq	$PicParSet, %rax
	addq	$240, %rax
	movq	%rax, active_pps
	jmp	.LBB56_33
.LBB56_29:                              # %if.else58
	movq	input, %rax
	movl	1308(%rax), %eax
	movl	%eax, -8(%rbp)
	movq	img, %rax
	cmpl	$0, 72496(%rax)
	je	.LBB56_31
# %bb.30:                               # %if.then60
	movl	-4(%rbp), %eax
	subl	$1, %eax
	movq	img, %rcx
	movl	%eax, 40(%rcx)
	jmp	.LBB56_32
.LBB56_31:                              # %if.else63
	movl	-4(%rbp), %eax
	addl	$1, %eax
	movq	img, %rcx
	movl	%eax, 40(%rcx)
.LBB56_32:                              # %if.end66
	jmp	.LBB56_33
.LBB56_33:                              # %if.end67
	jmp	.LBB56_34
.LBB56_34:                              # %if.end68
	jmp	.LBB56_36
.LBB56_35:                              # %if.else69
	movabsq	$PicParSet, %rax
	movq	%rax, active_pps
	movl	-4(%rbp), %eax
	addl	$1, %eax
	movq	img, %rcx
	movl	%eax, 40(%rcx)
.LBB56_36:                              # %if.end72
	movq	img, %rax
	cmpl	$0, 24(%rax)
	jne	.LBB56_40
# %bb.37:                               # %land.lhs.true75
	movq	input, %rax
	cmpl	$0, 60(%rax)
	je	.LBB56_40
# %bb.38:                               # %land.lhs.true78
	imull	$100, intras, %eax
	movq	img, %rcx
	xorl	%edx, %edx
	divl	72488(%rcx)
	cmpl	$75, %eax
	jb	.LBB56_40
# %bb.39:                               # %if.then80
	movq	img, %rax
	movl	$2, 24(%rax)
	movabsq	$PicParSet, %rax
	movq	%rax, active_pps
.LBB56_40:                              # %if.end82
	movq	img, %rax
	movl	$0, 72624(%rax)
	cmpl	$0, -8(%rbp)
	je	.LBB56_42
# %bb.41:                               # %if.then85
	movq	$0, enc_frame_picture3
	movl	-4(%rbp), %eax
	movq	img, %rcx
	movl	%eax, 40(%rcx)
	jmp	.LBB56_46
.LBB56_42:                              # %if.else87
	movq	frame_pic3, %rdi
	movl	$2, %esi
	callq	frame_picture
	movq	img, %rax
	cmpl	$0, 71804(%rax)
	jne	.LBB56_44
# %bb.43:                               # %if.then90
	movq	frame_pic, %rdi
	movq	frame_pic3, %rsi
	movl	-4(%rbp), %edx
	callq	picture_coding_decision
	shll	$1, %eax
	movq	img, %rcx
	movl	%eax, 71804(%rcx)
	jmp	.LBB56_45
.LBB56_44:                              # %if.else94
	movq	frame_pic2, %rdi
	movq	frame_pic3, %rsi
	movl	-4(%rbp), %edx
	callq	picture_coding_decision
	movq	img, %rcx
	addl	71804(%rcx), %eax
	movl	%eax, 71804(%rcx)
.LBB56_45:                              # %if.end98
	jmp	.LBB56_46
.LBB56_46:                              # %if.end99
	movq	img, %rax
	cmpl	$0, 71804(%rax)
	jne	.LBB56_48
# %bb.47:                               # %if.then102
	movq	enc_frame_picture, %rax
	movq	%rax, enc_picture
	movl	-16(%rbp), %eax
	movq	img, %rcx
	movl	%eax, 24(%rcx)
	movabsq	$PicParSet, %rax
	movq	%rax, active_pps
	movl	-4(%rbp), %eax
	movq	img, %rcx
	movl	%eax, 40(%rcx)
	movl	-12(%rbp), %eax
	movl	%eax, intras
	jmp	.LBB56_51
.LBB56_48:                              # %if.else105
	movq	img, %rax
	cmpl	$1, 71804(%rax)
	jne	.LBB56_50
# %bb.49:                               # %if.then108
	movq	enc_frame_picture2, %rax
	movq	%rax, enc_picture
	movl	-16(%rbp), %eax
	movq	img, %rcx
	movl	%eax, 24(%rcx)
	movq	-32(%rbp), %rax
	movq	%rax, active_pps
	movl	-20(%rbp), %eax
	movq	img, %rcx
	movl	%eax, 40(%rcx)
	movl	-12(%rbp), %eax
	movl	%eax, intras
.LBB56_50:                              # %if.end111
	jmp	.LBB56_51
.LBB56_51:                              # %if.end112
	cmpl	$343200653, -24(%rbp)   # imm = 0x1474D38D
	jne	.LBB56_53
.LBB56_52:
	addq	$32, %rsp
	popq	%rbp
	.cfi_def_cfa %rsp, 8
	retq
.LBB56_53:                              # %func_exit
	.cfi_def_cfa %rbp, 16
	callq	detect_breach
	jmp	.LBB56_52
.Lfunc_end56:
	.size	rdPictureCoding.20, .Lfunc_end56-rdPictureCoding.20
	.cfi_endproc
                                        # -- End function
	.p2align	4, 0x90         # -- Begin function writeout_picture.21
	.type	writeout_picture.21,@function
writeout_picture.21:                    # @writeout_picture.21
	.cfi_startproc
# %bb.0:                                # %entry
	pushq	%rbp
	.cfi_def_cfa_offset 16
	.cfi_offset %rbp, -16
	movq	%rsp, %rbp
	.cfi_def_cfa_register %rbp
	subq	$48, %rsp
	movl	$658769165, -28(%rbp)   # imm = 0x2744050D
	movq	%rdi, -24(%rbp)
	movq	-24(%rbp), %rax
	movq	img, %rcx
	movq	%rax, 14152(%rcx)
	movl	$0, -8(%rbp)
.LBB57_1:                               # %for.cond
                                        # =>This Loop Header: Depth=1
                                        #     Child Loop BB57_3 Depth 2
	movl	-8(%rbp), %eax
	movq	-24(%rbp), %rcx
	cmpl	(%rcx), %eax
	jge	.LBB57_8
# %bb.2:                                # %for.body
                                        #   in Loop: Header=BB57_1 Depth=1
	movq	-24(%rbp), %rax
	movslq	-8(%rbp), %rcx
	movq	8(%rax,%rcx,8), %rax
	movq	%rax, -16(%rbp)
	movl	$0, -4(%rbp)
.LBB57_3:                               # %for.cond1
                                        #   Parent Loop BB57_1 Depth=1
                                        # =>  This Inner Loop Header: Depth=2
	movl	-4(%rbp), %eax
	movq	-16(%rbp), %rcx
	cmpl	16(%rcx), %eax
	jge	.LBB57_6
# %bb.4:                                # %for.body3
                                        #   in Loop: Header=BB57_3 Depth=2
	movq	-16(%rbp), %rax
	movq	24(%rax), %rax
	movslq	-4(%rbp), %rcx
	imulq	$120, %rcx, %rcx
	addq	%rcx, %rax
	movq	(%rax), %rax
	movq	%rax, -40(%rbp)
	movq	-16(%rbp), %rax
	movq	24(%rax), %rax
	movslq	-4(%rbp), %rcx
	imulq	$120, %rcx, %rcx
	addq	%rcx, %rax
	movq	(%rax), %rdi
	movl	-4(%rbp), %esi
	callq	writeUnit
# %bb.5:                                # %for.inc
                                        #   in Loop: Header=BB57_3 Depth=2
	movl	-4(%rbp), %eax
	addl	$1, %eax
	movl	%eax, -4(%rbp)
	jmp	.LBB57_3
.LBB57_6:                               # %for.end
                                        #   in Loop: Header=BB57_1 Depth=1
	jmp	.LBB57_7
.LBB57_7:                               # %for.inc10
                                        #   in Loop: Header=BB57_1 Depth=1
	movl	-8(%rbp), %eax
	addl	$1, %eax
	movl	%eax, -8(%rbp)
	jmp	.LBB57_1
.LBB57_8:                               # %for.end12
	cmpl	$658769165, -28(%rbp)   # imm = 0x2744050D
	jne	.LBB57_10
.LBB57_9:
	xorl	%eax, %eax
	addq	$48, %rsp
	popq	%rbp
	.cfi_def_cfa %rsp, 8
	retq
.LBB57_10:                              # %func_exit
	.cfi_def_cfa %rbp, 16
	callq	detect_breach
	jmp	.LBB57_9
.Lfunc_end57:
	.size	writeout_picture.21, .Lfunc_end57-writeout_picture.21
	.cfi_endproc
                                        # -- End function
	.section	.rodata.cst8,"aM",@progbits,8
	.p2align	3               # -- Begin function find_snr.22
.LCPI58_0:
	.quad	4621819117588971520     # double 10
	.text
	.p2align	4, 0x90
	.type	find_snr.22,@function
find_snr.22:                            # @find_snr.22
	.cfi_startproc
# %bb.0:                                # %entry
	pushq	%rbp
	.cfi_def_cfa_offset 16
	.cfi_offset %rbp, -16
	movq	%rsp, %rbp
	.cfi_def_cfa_register %rbp
	subq	$64, %rsp
	movl	$372529024, -44(%rbp)   # imm = 0x16345780
	movq	$0, -16(%rbp)
	movq	$0, -32(%rbp)
	movq	$0, -24(%rbp)
	movq	img, %rax
	movl	72684(%rax), %eax
	movq	img, %rcx
	imull	72684(%rcx), %eax
	movl	%eax, -52(%rbp)
	movq	img, %rax
	movl	72688(%rax), %eax
	movq	img, %rcx
	imull	72688(%rcx), %eax
	movl	%eax, -40(%rbp)
	movq	input, %rax
	movl	68(%rax), %eax
	movq	input, %rcx
	imull	64(%rcx), %eax
	movl	%eax, -48(%rbp)
	movq	input, %rax
	movl	3304(%rax), %eax
	movq	input, %rcx
	imull	3308(%rcx), %eax
	movl	%eax, -36(%rbp)
	movq	img, %rax
	cmpl	$0, 71800(%rax)
	je	.LBB58_20
# %bb.1:                                # %if.then
	movq	$0, -16(%rbp)
	movl	$0, -8(%rbp)
.LBB58_2:                               # %for.cond
                                        # =>This Loop Header: Depth=1
                                        #     Child Loop BB58_4 Depth 2
	movl	-8(%rbp), %eax
	movq	input, %rcx
	cmpl	64(%rcx), %eax
	jge	.LBB58_9
# %bb.3:                                # %for.body
                                        #   in Loop: Header=BB58_2 Depth=1
	movl	$0, -4(%rbp)
.LBB58_4:                               # %for.cond8
                                        #   Parent Loop BB58_2 Depth=1
                                        # =>  This Inner Loop Header: Depth=2
	movl	-4(%rbp), %eax
	movq	input, %rcx
	cmpl	68(%rcx), %eax
	jge	.LBB58_7
# %bb.5:                                # %for.body11
                                        #   in Loop: Header=BB58_4 Depth=2
	movq	img, %rax
	movq	71776(%rax), %rax
	movq	imgY_org, %rcx
	movslq	-4(%rbp), %rdx
	movq	(%rcx,%rdx,8), %rcx
	movslq	-8(%rbp), %rdx
	movzwl	(%rcx,%rdx,2), %ecx
	movq	imgY_com, %rdx
	movslq	-4(%rbp), %rsi
	movq	(%rdx,%rsi,8), %rdx
	movslq	-8(%rbp), %rsi
	movzwl	(%rdx,%rsi,2), %edx
	subl	%edx, %ecx
	movslq	%ecx, %rcx
	movslq	(%rax,%rcx,4), %rax
	addq	-16(%rbp), %rax
	movq	%rax, -16(%rbp)
# %bb.6:                                # %for.inc
                                        #   in Loop: Header=BB58_4 Depth=2
	movl	-4(%rbp), %eax
	addl	$1, %eax
	movl	%eax, -4(%rbp)
	jmp	.LBB58_4
.LBB58_7:                               # %for.end
                                        #   in Loop: Header=BB58_2 Depth=1
	jmp	.LBB58_8
.LBB58_8:                               # %for.inc22
                                        #   in Loop: Header=BB58_2 Depth=1
	movl	-8(%rbp), %eax
	addl	$1, %eax
	movl	%eax, -8(%rbp)
	jmp	.LBB58_2
.LBB58_9:                               # %for.end24
	movq	img, %rax
	cmpl	$0, 72700(%rax)
	je	.LBB58_19
# %bb.10:                               # %if.then27
	movq	$0, -32(%rbp)
	movq	$0, -24(%rbp)
	movl	$0, -8(%rbp)
.LBB58_11:                              # %for.cond28
                                        # =>This Loop Header: Depth=1
                                        #     Child Loop BB58_13 Depth 2
	movl	-8(%rbp), %eax
	movq	input, %rcx
	cmpl	3308(%rcx), %eax
	jge	.LBB58_18
# %bb.12:                               # %for.body32
                                        #   in Loop: Header=BB58_11 Depth=1
	movl	$0, -4(%rbp)
.LBB58_13:                              # %for.cond33
                                        #   Parent Loop BB58_11 Depth=1
                                        # =>  This Inner Loop Header: Depth=2
	movl	-4(%rbp), %eax
	movq	input, %rcx
	cmpl	3304(%rcx), %eax
	jge	.LBB58_16
# %bb.14:                               # %for.body37
                                        #   in Loop: Header=BB58_13 Depth=2
	movq	img, %rax
	movq	71776(%rax), %rax
	movq	imgUV_org, %rcx
	movq	(%rcx), %rcx
	movslq	-4(%rbp), %rdx
	movq	(%rcx,%rdx,8), %rcx
	movslq	-8(%rbp), %rdx
	movzwl	(%rcx,%rdx,2), %ecx
	movq	imgUV_com, %rdx
	movq	(%rdx), %rdx
	movslq	-4(%rbp), %rsi
	movq	(%rdx,%rsi,8), %rdx
	movslq	-8(%rbp), %rsi
	movzwl	(%rdx,%rsi,2), %edx
	subl	%edx, %ecx
	movslq	%ecx, %rcx
	movslq	(%rax,%rcx,4), %rax
	addq	-32(%rbp), %rax
	movq	%rax, -32(%rbp)
	movq	img, %rax
	movq	71776(%rax), %rax
	movq	imgUV_org, %rcx
	movq	8(%rcx), %rcx
	movslq	-4(%rbp), %rdx
	movq	(%rcx,%rdx,8), %rcx
	movslq	-8(%rbp), %rdx
	movzwl	(%rcx,%rdx,2), %ecx
	movq	imgUV_com, %rdx
	movq	8(%rdx), %rdx
	movslq	-4(%rbp), %rsi
	movq	(%rdx,%rsi,8), %rdx
	movslq	-8(%rbp), %rsi
	movzwl	(%rdx,%rsi,2), %edx
	subl	%edx, %ecx
	movslq	%ecx, %rcx
	movslq	(%rax,%rcx,4), %rax
	addq	-24(%rbp), %rax
	movq	%rax, -24(%rbp)
# %bb.15:                               # %for.inc74
                                        #   in Loop: Header=BB58_13 Depth=2
	movl	-4(%rbp), %eax
	addl	$1, %eax
	movl	%eax, -4(%rbp)
	jmp	.LBB58_13
.LBB58_16:                              # %for.end76
                                        #   in Loop: Header=BB58_11 Depth=1
	jmp	.LBB58_17
.LBB58_17:                              # %for.inc77
                                        #   in Loop: Header=BB58_11 Depth=1
	movl	-8(%rbp), %eax
	addl	$1, %eax
	movl	%eax, -8(%rbp)
	jmp	.LBB58_11
.LBB58_18:                              # %for.end79
	jmp	.LBB58_19
.LBB58_19:                              # %if.end
	jmp	.LBB58_41
.LBB58_20:                              # %if.else
	movq	imgY_org_frm, %rax
	movq	%rax, imgY_org
	movq	imgUV_org_frm, %rax
	movq	%rax, imgUV_org
	movq	input, %rax
	cmpl	$2, 2880(%rax)
	jne	.LBB58_22
# %bb.21:                               # %if.then82
	movq	enc_frame_picture, %rax
	movq	%rax, enc_picture
.LBB58_22:                              # %if.end83
	movq	$0, -16(%rbp)
	movl	$0, -8(%rbp)
.LBB58_23:                              # %for.cond84
                                        # =>This Loop Header: Depth=1
                                        #     Child Loop BB58_25 Depth 2
	movl	-8(%rbp), %eax
	movq	input, %rcx
	cmpl	64(%rcx), %eax
	jge	.LBB58_30
# %bb.24:                               # %for.body88
                                        #   in Loop: Header=BB58_23 Depth=1
	movl	$0, -4(%rbp)
.LBB58_25:                              # %for.cond89
                                        #   Parent Loop BB58_23 Depth=1
                                        # =>  This Inner Loop Header: Depth=2
	movl	-4(%rbp), %eax
	movq	input, %rcx
	cmpl	68(%rcx), %eax
	jge	.LBB58_28
# %bb.26:                               # %for.body93
                                        #   in Loop: Header=BB58_25 Depth=2
	movq	img, %rax
	movq	71776(%rax), %rax
	movq	imgY_org, %rcx
	movslq	-4(%rbp), %rdx
	movq	(%rcx,%rdx,8), %rcx
	movslq	-8(%rbp), %rdx
	movzwl	(%rcx,%rdx,2), %ecx
	movq	enc_picture, %rdx
	movq	6424(%rdx), %rdx
	movslq	-4(%rbp), %rsi
	movq	(%rdx,%rsi,8), %rdx
	movslq	-8(%rbp), %rsi
	movzwl	(%rdx,%rsi,2), %edx
	subl	%edx, %ecx
	movslq	%ecx, %rcx
	movslq	(%rax,%rcx,4), %rax
	addq	-16(%rbp), %rax
	movq	%rax, -16(%rbp)
# %bb.27:                               # %for.inc110
                                        #   in Loop: Header=BB58_25 Depth=2
	movl	-4(%rbp), %eax
	addl	$1, %eax
	movl	%eax, -4(%rbp)
	jmp	.LBB58_25
.LBB58_28:                              # %for.end112
                                        #   in Loop: Header=BB58_23 Depth=1
	jmp	.LBB58_29
.LBB58_29:                              # %for.inc113
                                        #   in Loop: Header=BB58_23 Depth=1
	movl	-8(%rbp), %eax
	addl	$1, %eax
	movl	%eax, -8(%rbp)
	jmp	.LBB58_23
.LBB58_30:                              # %for.end115
	movq	img, %rax
	cmpl	$0, 72700(%rax)
	je	.LBB58_40
# %bb.31:                               # %if.then119
	movq	$0, -32(%rbp)
	movq	$0, -24(%rbp)
	movl	$0, -8(%rbp)
.LBB58_32:                              # %for.cond120
                                        # =>This Loop Header: Depth=1
                                        #     Child Loop BB58_34 Depth 2
	movl	-8(%rbp), %eax
	movq	input, %rcx
	cmpl	3308(%rcx), %eax
	jge	.LBB58_39
# %bb.33:                               # %for.body124
                                        #   in Loop: Header=BB58_32 Depth=1
	movl	$0, -4(%rbp)
.LBB58_34:                              # %for.cond125
                                        #   Parent Loop BB58_32 Depth=1
                                        # =>  This Inner Loop Header: Depth=2
	movl	-4(%rbp), %eax
	movq	input, %rcx
	cmpl	3304(%rcx), %eax
	jge	.LBB58_37
# %bb.35:                               # %for.body129
                                        #   in Loop: Header=BB58_34 Depth=2
	movq	img, %rax
	movq	71776(%rax), %rax
	movq	imgUV_org, %rcx
	movq	(%rcx), %rcx
	movslq	-4(%rbp), %rdx
	movq	(%rcx,%rdx,8), %rcx
	movslq	-8(%rbp), %rdx
	movzwl	(%rcx,%rdx,2), %ecx
	movq	enc_picture, %rdx
	movq	6464(%rdx), %rdx
	movq	(%rdx), %rdx
	movslq	-4(%rbp), %rsi
	movq	(%rdx,%rsi,8), %rdx
	movslq	-8(%rbp), %rsi
	movzwl	(%rdx,%rsi,2), %edx
	subl	%edx, %ecx
	movslq	%ecx, %rcx
	movslq	(%rax,%rcx,4), %rax
	addq	-32(%rbp), %rax
	movq	%rax, -32(%rbp)
	movq	img, %rax
	movq	71776(%rax), %rax
	movq	imgUV_org, %rcx
	movq	8(%rcx), %rcx
	movslq	-4(%rbp), %rdx
	movq	(%rcx,%rdx,8), %rcx
	movslq	-8(%rbp), %rdx
	movzwl	(%rcx,%rdx,2), %ecx
	movq	enc_picture, %rdx
	movq	6464(%rdx), %rdx
	movq	8(%rdx), %rdx
	movslq	-4(%rbp), %rsi
	movq	(%rdx,%rsi,8), %rdx
	movslq	-8(%rbp), %rsi
	movzwl	(%rdx,%rsi,2), %edx
	subl	%edx, %ecx
	movslq	%ecx, %rcx
	movslq	(%rax,%rcx,4), %rax
	addq	-24(%rbp), %rax
	movq	%rax, -24(%rbp)
# %bb.36:                               # %for.inc167
                                        #   in Loop: Header=BB58_34 Depth=2
	movl	-4(%rbp), %eax
	addl	$1, %eax
	movl	%eax, -4(%rbp)
	jmp	.LBB58_34
.LBB58_37:                              # %for.end169
                                        #   in Loop: Header=BB58_32 Depth=1
	jmp	.LBB58_38
.LBB58_38:                              # %for.inc170
                                        #   in Loop: Header=BB58_32 Depth=1
	movl	-8(%rbp), %eax
	addl	$1, %eax
	movl	%eax, -8(%rbp)
	jmp	.LBB58_32
.LBB58_39:                              # %for.end172
	jmp	.LBB58_40
.LBB58_40:                              # %if.end173
	jmp	.LBB58_41
.LBB58_41:                              # %if.end174
	cmpq	$0, -16(%rbp)
	jne	.LBB58_43
# %bb.42:                               # %if.then177
	movq	$1, -16(%rbp)
.LBB58_43:                              # %if.end178
	cmpq	$0, -32(%rbp)
	jne	.LBB58_45
# %bb.44:                               # %if.then181
	movq	$1, -32(%rbp)
.LBB58_45:                              # %if.end182
	cmpq	$0, -24(%rbp)
	jne	.LBB58_47
# %bb.46:                               # %if.then185
	movq	$1, -24(%rbp)
.LBB58_47:                              # %if.end186
	cmpq	$0, -16(%rbp)
	je	.LBB58_52
# %bb.48:                               # %if.then189
	movl	-52(%rbp), %eax
	vcvtsi2sd	%rax, %xmm0, %xmm0
	vcvtsi2sdl	-48(%rbp), %xmm0, %xmm1
	vcvtsi2sdq	-16(%rbp), %xmm0, %xmm2
	vdivsd	%xmm2, %xmm1, %xmm1
	vmulsd	%xmm1, %xmm0, %xmm0
	callq	log10
	vmovsd	.LCPI58_0(%rip), %xmm1  # xmm1 = mem[0],zero
	vmulsd	%xmm0, %xmm1, %xmm0
	vcvtsd2ss	%xmm0, %xmm0, %xmm0
	movq	snr, %rax
	vmovss	%xmm0, (%rax)
	movq	img, %rax
	cmpl	$0, 72700(%rax)
	je	.LBB58_50
# %bb.49:                               # %if.then199
	movl	-40(%rbp), %eax
	vcvtsi2sd	%rax, %xmm0, %xmm0
	vcvtsi2sdl	-36(%rbp), %xmm0, %xmm1
	vcvtsi2sdq	-32(%rbp), %xmm0, %xmm2
	vdivsd	%xmm2, %xmm1, %xmm1
	vmulsd	%xmm1, %xmm0, %xmm0
	callq	log10
	vmovsd	.LCPI58_0(%rip), %xmm1  # xmm1 = mem[0],zero
	vmulsd	%xmm1, %xmm0, %xmm0
	vcvtsd2ss	%xmm0, %xmm0, %xmm0
	movq	snr(%rip), %rax
	vmovss	%xmm0, 4(%rax)
	movl	-40(%rbp), %eax
	vcvtsi2sd	%rax, %xmm0, %xmm0
	vcvtsi2sdl	-36(%rbp), %xmm0, %xmm1
	vcvtsi2sdq	-24(%rbp), %xmm0, %xmm2
	vdivsd	%xmm2, %xmm1, %xmm1
	vmulsd	%xmm1, %xmm0, %xmm0
	callq	log10
	vmovsd	.LCPI58_0(%rip), %xmm1  # xmm1 = mem[0],zero
	vmulsd	%xmm0, %xmm1, %xmm0
	vcvtsd2ss	%xmm0, %xmm0, %xmm0
	movq	snr, %rax
	vmovss	%xmm0, 8(%rax)
	jmp	.LBB58_51
.LBB58_50:                              # %if.else216
	movq	snr, %rax
	vxorps	%xmm0, %xmm0, %xmm0
	vmovss	%xmm0, 4(%rax)
	movq	snr, %rax
	vmovss	%xmm0, 8(%rax)
.LBB58_51:                              # %if.end219
	jmp	.LBB58_52
.LBB58_52:                              # %if.end220
	movq	img, %rax
	cmpl	$0, (%rax)
	jne	.LBB58_54
# %bb.53:                               # %if.then223
	movq	snr, %rax
	vmovss	(%rax), %xmm0           # xmm0 = mem[0],zero,zero,zero
	movq	snr, %rax
	vmovss	%xmm0, 12(%rax)
	movq	snr, %rax
	vmovss	4(%rax), %xmm0          # xmm0 = mem[0],zero,zero,zero
	movq	snr, %rax
	vmovss	%xmm0, 16(%rax)
	movq	snr, %rax
	vmovss	8(%rax), %xmm0          # xmm0 = mem[0],zero,zero,zero
	movq	snr, %rax
	vmovss	%xmm0, 20(%rax)
	movq	snr, %rax
	vmovss	12(%rax), %xmm0         # xmm0 = mem[0],zero,zero,zero
	movq	snr, %rax
	vmovss	%xmm0, 60(%rax)
	movq	snr, %rax
	vmovss	16(%rax), %xmm0         # xmm0 = mem[0],zero,zero,zero
	movq	snr, %rax
	vmovss	%xmm0, 64(%rax)
	movq	snr, %rax
	vmovss	20(%rax), %xmm0         # xmm0 = mem[0],zero,zero,zero
	movq	snr, %rax
	vmovss	%xmm0, 68(%rax)
	movq	snr, %rax
	vxorps	%xmm0, %xmm0, %xmm0
	vmovss	%xmm0, 32(%rax)
	movq	snr, %rax
	vmovss	%xmm0, 44(%rax)
	movq	snr, %rax
	vmovss	%xmm0, 56(%rax)
	movq	snr, %rax
	vmovss	%xmm0, 24(%rax)
	movq	snr, %rax
	vmovss	%xmm0, 36(%rax)
	movq	snr, %rax
	vmovss	%xmm0, 48(%rax)
	movq	snr, %rax
	vmovss	%xmm0, 28(%rax)
	movq	snr, %rax
	vmovss	%xmm0, 40(%rax)
	movq	snr, %rax
	vmovss	%xmm0, 52(%rax)
	jmp	.LBB58_55
.LBB58_54:                              # %if.else245
	movq	snr, %rax
	vmovss	60(%rax), %xmm0         # xmm0 = mem[0],zero,zero,zero
	movq	img, %rax
	movl	(%rax), %eax
	addl	Bframe_ctr, %eax
	vcvtsi2ss	%eax, %xmm0, %xmm1
	vmulss	%xmm1, %xmm0, %xmm0
	movq	snr, %rax
	vaddss	(%rax), %xmm0, %xmm0
	movq	img, %rax
	movl	(%rax), %eax
	addl	Bframe_ctr, %eax
	addl	$1, %eax
	vcvtsi2ss	%eax, %xmm0, %xmm1
	vdivss	%xmm1, %xmm0, %xmm0
	movq	snr, %rax
	vmovss	%xmm0, 60(%rax)
	movq	snr, %rax
	vmovss	64(%rax), %xmm0         # xmm0 = mem[0],zero,zero,zero
	movq	img, %rax
	movl	(%rax), %eax
	addl	Bframe_ctr, %eax
	vcvtsi2ss	%eax, %xmm0, %xmm1
	vmulss	%xmm1, %xmm0, %xmm0
	movq	snr, %rax
	vaddss	4(%rax), %xmm0, %xmm0
	movq	img, %rax
	movl	(%rax), %eax
	addl	Bframe_ctr, %eax
	addl	$1, %eax
	vcvtsi2ss	%eax, %xmm0, %xmm1
	vdivss	%xmm1, %xmm0, %xmm0
	movq	snr, %rax
	vmovss	%xmm0, 64(%rax)
	movq	snr, %rax
	vmovss	68(%rax), %xmm0         # xmm0 = mem[0],zero,zero,zero
	movq	img, %rax
	movl	(%rax), %eax
	addl	Bframe_ctr, %eax
	vcvtsi2ss	%eax, %xmm0, %xmm1
	vmulss	%xmm1, %xmm0, %xmm0
	movq	snr, %rax
	vaddss	8(%rax), %xmm0, %xmm0
	movq	img, %rax
	movl	(%rax), %eax
	addl	Bframe_ctr, %eax
	addl	$1, %eax
	vcvtsi2ss	%eax, %xmm0, %xmm1
	vdivss	%xmm1, %xmm0, %xmm0
	movq	snr, %rax
	vmovss	%xmm0, 68(%rax)
.LBB58_55:                              # %if.end285
	movq	img, %rax
	cmpl	$2, 24(%rax)
	jne	.LBB58_57
# %bb.56:                               # %if.then288
	movq	snr, %rax
	vmovss	32(%rax), %xmm0         # xmm0 = mem[0],zero,zero,zero
	movl	Iframe_ctr, %eax
	subl	$1, %eax
	vcvtsi2ss	%eax, %xmm0, %xmm1
	vmulss	%xmm1, %xmm0, %xmm0
	movq	snr, %rax
	vaddss	(%rax), %xmm0, %xmm0
	vcvtsi2ssl	Iframe_ctr, %xmm0, %xmm1
	vdivss	%xmm1, %xmm0, %xmm0
	movq	snr, %rax
	vmovss	%xmm0, 32(%rax)
	movq	snr, %rax
	vmovss	44(%rax), %xmm0         # xmm0 = mem[0],zero,zero,zero
	movl	Iframe_ctr, %eax
	subl	$1, %eax
	vcvtsi2ss	%eax, %xmm0, %xmm1
	vmulss	%xmm1, %xmm0, %xmm0
	movq	snr, %rax
	vaddss	4(%rax), %xmm0, %xmm0
	vcvtsi2ssl	Iframe_ctr, %xmm0, %xmm1
	vdivss	%xmm1, %xmm0, %xmm0
	movq	snr, %rax
	vmovss	%xmm0, 44(%rax)
	movq	snr, %rax
	vmovss	56(%rax), %xmm0         # xmm0 = mem[0],zero,zero,zero
	movl	Iframe_ctr, %eax
	subl	$1, %eax
	vcvtsi2ss	%eax, %xmm0, %xmm1
	vmulss	%xmm1, %xmm0, %xmm0
	movq	snr, %rax
	vaddss	8(%rax), %xmm0, %xmm0
	vcvtsi2ssl	Iframe_ctr, %xmm0, %xmm1
	vdivss	%xmm1, %xmm0, %xmm0
	movq	snr, %rax
	vmovss	%xmm0, 56(%rax)
	jmp	.LBB58_61
.LBB58_57:                              # %if.else322
	movq	img, %rax
	cmpl	$1, 24(%rax)
	jne	.LBB58_59
# %bb.58:                               # %if.then326
	movq	snr, %rax
	vmovss	28(%rax), %xmm0         # xmm0 = mem[0],zero,zero,zero
	movl	Bframe_ctr, %eax
	subl	$1, %eax
	vcvtsi2ss	%eax, %xmm0, %xmm1
	vmulss	%xmm1, %xmm0, %xmm0
	movq	snr, %rax
	vaddss	(%rax), %xmm0, %xmm0
	vcvtsi2ssl	Bframe_ctr, %xmm0, %xmm1
	vdivss	%xmm1, %xmm0, %xmm0
	movq	snr, %rax
	vmovss	%xmm0, 28(%rax)
	movq	snr, %rax
	vmovss	40(%rax), %xmm0         # xmm0 = mem[0],zero,zero,zero
	movl	Bframe_ctr, %eax
	subl	$1, %eax
	vcvtsi2ss	%eax, %xmm0, %xmm1
	vmulss	%xmm1, %xmm0, %xmm0
	movq	snr, %rax
	vaddss	4(%rax), %xmm0, %xmm0
	vcvtsi2ssl	Bframe_ctr, %xmm0, %xmm1
	vdivss	%xmm1, %xmm0, %xmm0
	movq	snr, %rax
	vmovss	%xmm0, 40(%rax)
	movq	snr, %rax
	vmovss	52(%rax), %xmm0         # xmm0 = mem[0],zero,zero,zero
	movl	Bframe_ctr, %eax
	subl	$1, %eax
	vcvtsi2ss	%eax, %xmm0, %xmm1
	vmulss	%xmm1, %xmm0, %xmm0
	movq	snr, %rax
	vaddss	8(%rax), %xmm0, %xmm0
	vcvtsi2ssl	Bframe_ctr, %xmm0, %xmm1
	vdivss	%xmm1, %xmm0, %xmm0
	movq	snr, %rax
	vmovss	%xmm0, 52(%rax)
	jmp	.LBB58_60
.LBB58_59:                              # %if.else360
	movq	snr, %rax
	vmovss	24(%rax), %xmm0         # xmm0 = mem[0],zero,zero,zero
	movl	Pframe_ctr, %eax
	subl	$1, %eax
	vcvtsi2ss	%eax, %xmm0, %xmm1
	vmulss	%xmm1, %xmm0, %xmm0
	movq	snr, %rax
	vaddss	(%rax), %xmm0, %xmm0
	vcvtsi2ssl	Pframe_ctr, %xmm0, %xmm1
	vdivss	%xmm1, %xmm0, %xmm0
	movq	snr, %rax
	vmovss	%xmm0, 24(%rax)
	movq	snr, %rax
	vmovss	36(%rax), %xmm0         # xmm0 = mem[0],zero,zero,zero
	movl	Pframe_ctr, %eax
	subl	$1, %eax
	vcvtsi2ss	%eax, %xmm0, %xmm1
	vmulss	%xmm1, %xmm0, %xmm0
	movq	snr, %rax
	vaddss	4(%rax), %xmm0, %xmm0
	vcvtsi2ssl	Pframe_ctr, %xmm0, %xmm1
	vdivss	%xmm1, %xmm0, %xmm0
	movq	snr, %rax
	vmovss	%xmm0, 36(%rax)
	movq	snr, %rax
	vmovss	48(%rax), %xmm0         # xmm0 = mem[0],zero,zero,zero
	movl	Pframe_ctr, %eax
	subl	$1, %eax
	vcvtsi2ss	%eax, %xmm0, %xmm1
	vmulss	%xmm1, %xmm0, %xmm0
	movq	snr, %rax
	vaddss	8(%rax), %xmm0, %xmm0
	vcvtsi2ssl	Pframe_ctr, %xmm0, %xmm1
	vdivss	%xmm1, %xmm0, %xmm0
	movq	snr, %rax
	vmovss	%xmm0, 48(%rax)
.LBB58_60:                              # %if.end394
	jmp	.LBB58_61
.LBB58_61:                              # %if.end395
	cmpl	$372529024, -44(%rbp)   # imm = 0x16345780
	jne	.LBB58_63
.LBB58_62:
	addq	$64, %rsp
	popq	%rbp
	.cfi_def_cfa %rsp, 8
	retq
.LBB58_63:                              # %func_exit
	.cfi_def_cfa %rbp, 16
	callq	detect_breach
	jmp	.LBB58_62
.Lfunc_end58:
	.size	find_snr.22, .Lfunc_end58-find_snr.22
	.cfi_endproc
                                        # -- End function
	.globl	field_picture.23        # -- Begin function field_picture.23
	.p2align	4, 0x90
	.type	field_picture.23,@function
field_picture.23:                       # @field_picture.23
	.cfi_startproc
# %bb.0:                                # %entry
	pushq	%rbp
	.cfi_def_cfa_offset 16
	.cfi_offset %rbp, -16
	movq	%rsp, %rbp
	.cfi_def_cfa_register %rbp
	subq	$32, %rsp
	movl	$170847843, -16(%rbp)   # imm = 0xA2EEE63
	movq	%rdi, -8(%rbp)
	movq	%rsi, -24(%rbp)
	movq	img, %rax
	movl	24(%rax), %eax
	movl	%eax, -28(%rbp)
	movq	stats, %rax
	movl	$0, 1472(%rax)
	movq	stats, %rax
	addq	$1472, %rax             # imm = 0x5C0
	movq	stats, %rcx
	movq	%rax, 1480(%rcx)
	movq	img, %rax
	movl	(%rax), %ecx
	shll	$1, %ecx
	movl	%ecx, (%rax)
	movq	img, %rax
	movl	72376(%rax), %ecx
	shll	$1, %ecx
	movl	%ecx, 72376(%rax)
	movq	input, %rax
	movl	68(%rax), %eax
	movq	img, %rcx
	addl	72732(%rcx), %eax
	cltd
	movl	$2, %ecx
	idivl	%ecx
	movq	img, %rdx
	movl	%eax, 60(%rdx)
	movq	img, %rax
	movl	68(%rax), %eax
	cltd
	idivl	%ecx
	movq	img, %rcx
	movl	%eax, 64(%rcx)
	movq	img, %rax
	movl	$1, 71800(%rax)
	movq	img, %rax
	movl	72488(%rax), %eax
	shrl	$1, %eax
	movq	img, %rcx
	movl	%eax, 72484(%rcx)
	movq	img, %rax
	movl	28(%rax), %edi
	movq	img, %rax
	movl	52(%rax), %esi
	movq	img, %rax
	movl	60(%rax), %edx
	movq	img, %rax
	movl	56(%rax), %ecx
	movq	img, %rax
	movl	64(%rax), %r8d
	callq	alloc_storable_picture
	movq	%rax, enc_top_picture
	movq	img, %rax
	movl	72448(%rax), %eax
	movq	enc_top_picture, %rcx
	movl	%eax, 4(%rcx)
	movq	img, %rax
	movl	72448(%rax), %eax
	movq	enc_top_picture, %rcx
	movl	%eax, 16(%rcx)
	movq	img, %rax
	movl	72464(%rax), %eax
	movq	enc_top_picture, %rcx
	movl	%eax, 6364(%rcx)
	movq	img, %rax
	movl	72464(%rax), %eax
	movq	enc_top_picture, %rcx
	movl	%eax, 6360(%rcx)
	movq	enc_top_picture, %rax
	movl	$0, 6412(%rax)
	movq	img, %rax
	movl	$0, 72400(%rax)
	movq	enc_top_picture, %rax
	movl	$0, 6416(%rax)
	movq	img, %rax
	movl	72448(%rax), %eax
	movq	img, %rcx
	movl	%eax, 72460(%rcx)
	movq	img, %rax
	movl	$1, 28(%rax)
	movq	enc_top_picture, %rax
	movq	%rax, enc_picture
	callq	copy_params
	callq	put_buffer_top
	callq	init_field
	movq	img, %rax
	cmpl	$1, 24(%rax)
	jne	.LBB59_2
# %bb.1:                                # %if.then
	movl	nextP_tr_fld, %eax
	addl	$-1, %eax
	movl	%eax, nextP_tr_fld
.LBB59_2:                               # %if.end
	movq	img, %rax
	movl	$1, 71800(%rax)
	movq	input, %rax
	cmpl	$0, 3236(%rax)
	je	.LBB59_7
# %bb.3:                                # %if.then15
	movq	input, %rax
	movl	3248(%rax), %eax
	movq	img, %rcx
	movl	%eax, 72620(%rcx)
	movq	input, %rax
	cmpl	$1, 2880(%rax)
	jne	.LBB59_5
# %bb.4:                                # %if.then17
	xorl	%edi, %edi
	movl	$1, %esi
	movl	$1, %edx
	callq	rc_init_pict
	jmp	.LBB59_6
.LBB59_5:                               # %if.else
	xorl	%edi, %edi
	movl	$1, %esi
	xorl	%edx, %edx
	callq	rc_init_pict
.LBB59_6:                               # %if.end18
	movl	$1, %edi
	callq	updateQuantizationParameter
	movq	img, %rcx
	movl	%eax, 40(%rcx)
.LBB59_7:                               # %if.end20
	movq	img, %rax
	movl	$1, 72596(%rax)
	movq	top_pic, %rdi
	callq	code_a_picture
	movq	enc_picture, %rax
	movl	$1, (%rax)
	movq	enc_top_picture, %rdi
	callq	store_picture_in_dpb
	movq	img, %rax
	movq	14160(%rax), %rax
	movq	24(%rax), %rax
	movq	(%rax), %rax
	movl	(%rax), %eax
	shll	$3, %eax
	movq	-8(%rbp), %rcx
	movl	%eax, 808(%rcx)
	movq	-8(%rbp), %rax
	movl	808(%rax), %eax
	movl	%eax, -12(%rbp)
	movq	img, %rax
	movl	28(%rax), %edi
	movq	img, %rax
	movl	52(%rax), %esi
	movq	img, %rax
	movl	60(%rax), %edx
	movq	img, %rax
	movl	56(%rax), %ecx
	movq	img, %rax
	movl	64(%rax), %r8d
	callq	alloc_storable_picture
	movq	%rax, enc_bottom_picture
	movq	img, %rax
	movl	72452(%rax), %eax
	movq	enc_bottom_picture, %rcx
	movl	%eax, 4(%rcx)
	movq	img, %rax
	movl	72452(%rax), %eax
	movq	enc_bottom_picture, %rcx
	movl	%eax, 16(%rcx)
	movq	img, %rax
	movl	72464(%rax), %eax
	movq	enc_bottom_picture, %rcx
	movl	%eax, 6364(%rcx)
	movq	img, %rax
	movl	72464(%rax), %eax
	movq	enc_bottom_picture, %rcx
	movl	%eax, 6360(%rcx)
	movq	enc_bottom_picture, %rax
	movl	$0, 6412(%rax)
	movq	img, %rax
	movl	$0, 72400(%rax)
	movq	enc_bottom_picture, %rax
	movl	$0, 6416(%rax)
	movq	img, %rax
	movl	72452(%rax), %eax
	movq	img, %rcx
	movl	%eax, 72460(%rcx)
	movq	img, %rax
	movl	$2, 28(%rax)
	movq	enc_bottom_picture, %rax
	movq	%rax, enc_picture
	callq	copy_params
	callq	put_buffer_bot
	movq	img, %rax
	movl	(%rax), %ecx
	addl	$1, %ecx
	movl	%ecx, (%rax)
	callq	init_field
	movq	img, %rax
	cmpl	$1, 24(%rax)
	jne	.LBB59_9
# %bb.8:                                # %if.then46
	movl	nextP_tr_fld, %eax
	addl	$1, %eax
	movl	%eax, nextP_tr_fld
.LBB59_9:                               # %if.end48
	movq	img, %rax
	cmpl	$2, 24(%rax)
	jne	.LBB59_12
# %bb.10:                               # %land.lhs.true
	movq	input, %rax
	cmpl	$1, 2888(%rax)
	je	.LBB59_12
# %bb.11:                               # %if.then52
	movq	img, %rax
	movl	$0, 24(%rax)
.LBB59_12:                              # %if.end54
	movq	img, %rax
	movl	$1, 71800(%rax)
	movq	input, %rax
	cmpl	$0, 3236(%rax)
	je	.LBB59_14
# %bb.13:                               # %if.then58
	movl	-12(%rbp), %edi
	callq	setbitscount
.LBB59_14:                              # %if.end59
	movq	input, %rax
	cmpl	$0, 3236(%rax)
	je	.LBB59_16
# %bb.15:                               # %if.then62
	xorl	%edi, %edi
	xorl	%esi, %esi
	xorl	%edx, %edx
	callq	rc_init_pict
	xorl	%edi, %edi
	callq	updateQuantizationParameter
	movq	img, %rcx
	movl	%eax, 40(%rcx)
.LBB59_16:                              # %if.end65
	movq	img, %rax
	movl	$0, 72596(%rax)
	movq	enc_picture, %rax
	movl	$2, (%rax)
	movq	bottom_pic, %rdi
	callq	code_a_picture
	movq	img, %rax
	movq	14160(%rax), %rax
	movq	24(%rax), %rax
	movq	(%rax), %rax
	movl	(%rax), %eax
	shll	$3, %eax
	movq	-24(%rbp), %rcx
	movl	%eax, 808(%rcx)
	movq	-8(%rbp), %rdi
	addq	$812, %rdi              # imm = 0x32C
	movq	-8(%rbp), %rsi
	addq	$816, %rsi              # imm = 0x330
	movq	-8(%rbp), %rdx
	addq	$820, %rdx              # imm = 0x334
	callq	distortion_fld
	cmpl	$170847843, -16(%rbp)   # imm = 0xA2EEE63
	jne	.LBB59_18
.LBB59_17:
	addq	$32, %rsp
	popq	%rbp
	.cfi_def_cfa %rsp, 8
	retq
.LBB59_18:                              # %func_exit
	.cfi_def_cfa %rbp, 16
	callq	detect_breach
	jmp	.LBB59_17
.Lfunc_end59:
	.size	field_picture.23, .Lfunc_end59-field_picture.23
	.cfi_endproc
                                        # -- End function
	.p2align	4, 0x90         # -- Begin function frame_mode_buffer.24
	.type	frame_mode_buffer.24,@function
frame_mode_buffer.24:                   # @frame_mode_buffer.24
	.cfi_startproc
# %bb.0:                                # %entry
	pushq	%rbp
	.cfi_def_cfa_offset 16
	.cfi_offset %rbp, -16
	movq	%rsp, %rbp
	.cfi_def_cfa_register %rbp
	subq	$32, %rsp
	movl	$1062347293, -12(%rbp)  # imm = 0x3F52221D
	movl	%edi, -20(%rbp)
	vmovss	%xmm0, -8(%rbp)
	vmovss	%xmm1, -16(%rbp)
	vmovss	%xmm2, -4(%rbp)
	callq	put_buffer_frame
	movq	input, %rax
	cmpl	$0, 2880(%rax)
	jne	.LBB60_2
# %bb.1:                                # %lor.lhs.false
	movq	input, %rax
	cmpl	$0, 2884(%rax)
	je	.LBB60_3
.LBB60_2:                               # %if.then
	movq	img, %rax
	movl	60(%rax), %eax
	cltd
	movl	$2, %ecx
	idivl	%ecx
	movq	img, %rdx
	movl	%eax, 60(%rdx)
	movq	img, %rax
	movl	64(%rax), %eax
	cltd
	idivl	%ecx
	movq	img, %rcx
	movl	%eax, 64(%rcx)
	movq	img, %rax
	movl	(%rax), %ecx
	shll	$1, %ecx
	movl	%ecx, (%rax)
	callq	put_buffer_top
	movq	img, %rax
	movl	(%rax), %ecx
	addl	$1, %ecx
	movl	%ecx, (%rax)
	callq	put_buffer_bot
	movq	img, %rcx
	movl	(%rcx), %eax
	cltd
	movl	$2, %esi
	idivl	%esi
	movl	%eax, (%rcx)
	movq	input, %rax
	movl	68(%rax), %eax
	movq	img, %rcx
	addl	72732(%rcx), %eax
	movq	img, %rcx
	movl	%eax, 60(%rcx)
	movq	img, %rax
	movl	68(%rax), %eax
