	.text
	.file	"image.c"
	.globl	MbAffPostProc           # -- Begin function MbAffPostProc
	.p2align	4, 0x90
	.type	MbAffPostProc,@function
MbAffPostProc:                          # @MbAffPostProc
	.cfi_startproc
# %bb.0:                                # %rand_bb
	pushq	%rbp
	.cfi_def_cfa_offset 16
	.cfi_offset %rbp, -16
	movq	%rsp, %rbp
	.cfi_def_cfa_register %rbp
	callq	get_urand
	cmpl	$0, %eax
	jne	.LBB0_9
# %bb.1:                                # %func_MbAffPostProc.49
	callq	MbAffPostProc.49
	popq	%rbp
	.cfi_def_cfa %rsp, 8
	retq
.LBB0_2:                                # %func_MbAffPostProc.74
	.cfi_def_cfa %rbp, 16
	callq	MbAffPostProc.74
	popq	%rbp
	.cfi_def_cfa %rsp, 8
	retq
.LBB0_3:                                # %func_MbAffPostProc.78
	.cfi_def_cfa %rbp, 16
	callq	MbAffPostProc.78
	popq	%rbp
	.cfi_def_cfa %rsp, 8
	retq
.LBB0_4:                                # %func_MbAffPostProc.82
	.cfi_def_cfa %rbp, 16
	callq	MbAffPostProc.82
	popq	%rbp
	.cfi_def_cfa %rsp, 8
	retq
.LBB0_5:                                # %func_MbAffPostProc.131
	.cfi_def_cfa %rbp, 16
	callq	MbAffPostProc.131
	popq	%rbp
	.cfi_def_cfa %rsp, 8
	retq
.LBB0_6:                                # %func_MbAffPostProc.143
	.cfi_def_cfa %rbp, 16
	callq	MbAffPostProc.143
	popq	%rbp
	.cfi_def_cfa %rsp, 8
	retq
.LBB0_7:                                # %func_MbAffPostProc.149
	.cfi_def_cfa %rbp, 16
	callq	MbAffPostProc.149
	popq	%rbp
	.cfi_def_cfa %rsp, 8
	retq
.LBB0_8:                                # %func_MbAffPostProc.152
	.cfi_def_cfa %rbp, 16
	callq	MbAffPostProc.152
	popq	%rbp
	.cfi_def_cfa %rsp, 8
	retq
.LBB0_9:                                # %ctrl0
	.cfi_def_cfa %rbp, 16
	cmpl	$1, %eax
	je	.LBB0_2
# %bb.10:                               # %ctrl1
	cmpl	$2, %eax
	je	.LBB0_3
# %bb.11:                               # %ctrl2
	cmpl	$3, %eax
	je	.LBB0_4
# %bb.12:                               # %ctrl3
	cmpl	$4, %eax
	je	.LBB0_5
# %bb.13:                               # %ctrl4
	cmpl	$5, %eax
	je	.LBB0_6
# %bb.14:                               # %ctrl5
	cmpl	$6, %eax
	je	.LBB0_7
	jmp	.LBB0_8
.Lfunc_end0:
	.size	MbAffPostProc, .Lfunc_end0-MbAffPostProc
	.cfi_endproc
                                        # -- End function
	.globl	code_a_picture          # -- Begin function code_a_picture
	.p2align	4, 0x90
	.type	code_a_picture,@function
code_a_picture:                         # @code_a_picture
	.cfi_startproc
# %bb.0:                                # %rand_bb
	pushq	%rbp
	.cfi_def_cfa_offset 16
	.cfi_offset %rbp, -16
	movq	%rsp, %rbp
	.cfi_def_cfa_register %rbp
	pushq	%rbx
	pushq	%rax
	.cfi_offset %rbx, -24
	movq	%rdi, %rbx
	callq	get_urand
	cmpl	$0, %eax
	jne	.LBB1_9
# %bb.1:                                # %func_code_a_picture.1
	movq	%rbx, %rdi
	callq	code_a_picture.1
	addq	$8, %rsp
	popq	%rbx
	popq	%rbp
	.cfi_def_cfa %rsp, 8
	retq
.LBB1_2:                                # %func_code_a_picture.4
	.cfi_def_cfa %rbp, 16
	movq	%rbx, %rdi
	callq	code_a_picture.4
	addq	$8, %rsp
	popq	%rbx
	popq	%rbp
	.cfi_def_cfa %rsp, 8
	retq
.LBB1_3:                                # %func_code_a_picture.15
	.cfi_def_cfa %rbp, 16
	movq	%rbx, %rdi
	callq	code_a_picture.15
	addq	$8, %rsp
	popq	%rbx
	popq	%rbp
	.cfi_def_cfa %rsp, 8
	retq
.LBB1_4:                                # %func_code_a_picture.50
	.cfi_def_cfa %rbp, 16
	movq	%rbx, %rdi
	callq	code_a_picture.50
	addq	$8, %rsp
	popq	%rbx
	popq	%rbp
	.cfi_def_cfa %rsp, 8
	retq
.LBB1_5:                                # %func_code_a_picture.51
	.cfi_def_cfa %rbp, 16
	movq	%rbx, %rdi
	callq	code_a_picture.51
	addq	$8, %rsp
	popq	%rbx
	popq	%rbp
	.cfi_def_cfa %rsp, 8
	retq
.LBB1_6:                                # %func_code_a_picture.66
	.cfi_def_cfa %rbp, 16
	movq	%rbx, %rdi
	callq	code_a_picture.66
	addq	$8, %rsp
	popq	%rbx
	popq	%rbp
	.cfi_def_cfa %rsp, 8
	retq
.LBB1_7:                                # %func_code_a_picture.80
	.cfi_def_cfa %rbp, 16
	movq	%rbx, %rdi
	callq	code_a_picture.80
	addq	$8, %rsp
	popq	%rbx
	popq	%rbp
	.cfi_def_cfa %rsp, 8
	retq
.LBB1_8:                                # %func_code_a_picture.86
	.cfi_def_cfa %rbp, 16
	movq	%rbx, %rdi
	callq	code_a_picture.86
	addq	$8, %rsp
	popq	%rbx
	popq	%rbp
	.cfi_def_cfa %rsp, 8
	retq
.LBB1_9:                                # %ctrl0
	.cfi_def_cfa %rbp, 16
	cmpl	$1, %eax
	je	.LBB1_2
# %bb.10:                               # %ctrl1
	cmpl	$2, %eax
	je	.LBB1_3
# %bb.11:                               # %ctrl2
	cmpl	$3, %eax
	je	.LBB1_4
# %bb.12:                               # %ctrl3
	cmpl	$4, %eax
	je	.LBB1_5
# %bb.13:                               # %ctrl4
	cmpl	$5, %eax
	je	.LBB1_6
# %bb.14:                               # %ctrl5
	cmpl	$6, %eax
	je	.LBB1_7
	jmp	.LBB1_8
.Lfunc_end1:
	.size	code_a_picture, .Lfunc_end1-code_a_picture
	.cfi_endproc
                                        # -- End function
	.globl	encode_one_frame        # -- Begin function encode_one_frame
	.p2align	4, 0x90
	.type	encode_one_frame,@function
encode_one_frame:                       # @encode_one_frame
	.cfi_startproc
# %bb.0:                                # %rand_bb
	pushq	%rbp
	.cfi_def_cfa_offset 16
	.cfi_offset %rbp, -16
	movq	%rsp, %rbp
	.cfi_def_cfa_register %rbp
	callq	get_urand
	cmpl	$0, %eax
	jne	.LBB2_9
# %bb.1:                                # %func_encode_one_frame.10
	callq	encode_one_frame.10
	popq	%rbp
	.cfi_def_cfa %rsp, 8
	retq
.LBB2_2:                                # %func_encode_one_frame.11
	.cfi_def_cfa %rbp, 16
	callq	encode_one_frame.11
	popq	%rbp
	.cfi_def_cfa %rsp, 8
	retq
.LBB2_3:                                # %func_encode_one_frame.91
	.cfi_def_cfa %rbp, 16
	callq	encode_one_frame.91
	popq	%rbp
	.cfi_def_cfa %rsp, 8
	retq
.LBB2_4:                                # %func_encode_one_frame.97
	.cfi_def_cfa %rbp, 16
	callq	encode_one_frame.97
	popq	%rbp
	.cfi_def_cfa %rsp, 8
	retq
.LBB2_5:                                # %func_encode_one_frame.102
	.cfi_def_cfa %rbp, 16
	callq	encode_one_frame.102
	popq	%rbp
	.cfi_def_cfa %rsp, 8
	retq
.LBB2_6:                                # %func_encode_one_frame.109
	.cfi_def_cfa %rbp, 16
	callq	encode_one_frame.109
	popq	%rbp
	.cfi_def_cfa %rsp, 8
	retq
.LBB2_7:                                # %func_encode_one_frame.162
	.cfi_def_cfa %rbp, 16
	callq	encode_one_frame.162
	popq	%rbp
	.cfi_def_cfa %rsp, 8
	retq
.LBB2_8:                                # %func_encode_one_frame.169
	.cfi_def_cfa %rbp, 16
	callq	encode_one_frame.169
	popq	%rbp
	.cfi_def_cfa %rsp, 8
	retq
.LBB2_9:                                # %ctrl0
	.cfi_def_cfa %rbp, 16
	cmpl	$1, %eax
	je	.LBB2_2
# %bb.10:                               # %ctrl1
	cmpl	$2, %eax
	je	.LBB2_3
# %bb.11:                               # %ctrl2
	cmpl	$3, %eax
	je	.LBB2_4
# %bb.12:                               # %ctrl3
	cmpl	$4, %eax
	je	.LBB2_5
# %bb.13:                               # %ctrl4
	cmpl	$5, %eax
	je	.LBB2_6
# %bb.14:                               # %ctrl5
	cmpl	$6, %eax
	je	.LBB2_7
	jmp	.LBB2_8
.Lfunc_end2:
	.size	encode_one_frame, .Lfunc_end2-encode_one_frame
	.cfi_endproc
                                        # -- End function
	.p2align	4, 0x90         # -- Begin function ReadOneFrame
	.type	ReadOneFrame,@function
ReadOneFrame:                           # @ReadOneFrame
	.cfi_startproc
# %bb.0:                                # %rand_bb
	pushq	%rbp
	.cfi_def_cfa_offset 16
	.cfi_offset %rbp, -16
	movq	%rsp, %rbp
	.cfi_def_cfa_register %rbp
	pushq	%r15
	pushq	%r14
	pushq	%r13
	pushq	%r12
	pushq	%rbx
	pushq	%rax
	.cfi_offset %rbx, -56
	.cfi_offset %r12, -48
	.cfi_offset %r13, -40
	.cfi_offset %r14, -32
	.cfi_offset %r15, -24
	movl	%r9d, -44(%rbp)         # 4-byte Spill
	movl	%r8d, %r12d
	movl	%ecx, %r13d
	movl	%edx, %ebx
	movl	%esi, %r14d
	movl	%edi, %r15d
	callq	get_urand
	cmpl	$0, %eax
	jne	.LBB3_9
# %bb.1:                                # %func_ReadOneFrame.39
	movl	%r15d, %edi
	movl	%r14d, %esi
	movl	%ebx, %edx
	movl	%r13d, %ecx
	movl	%r12d, %r8d
	movl	-44(%rbp), %r9d         # 4-byte Reload
	callq	ReadOneFrame.39
	addq	$8, %rsp
	popq	%rbx
	popq	%r12
	popq	%r13
	popq	%r14
	popq	%r15
	popq	%rbp
	.cfi_def_cfa %rsp, 8
	retq
.LBB3_2:                                # %func_ReadOneFrame.60
	.cfi_def_cfa %rbp, 16
	movl	%r15d, %edi
	movl	%r14d, %esi
	movl	%ebx, %edx
	movl	%r13d, %ecx
	movl	%r12d, %r8d
	callq	ReadOneFrame.60
	addq	$8, %rsp
	popq	%rbx
	popq	%r12
	popq	%r13
	popq	%r14
	popq	%r15
	popq	%rbp
	.cfi_def_cfa %rsp, 8
	retq
.LBB3_3:                                # %func_ReadOneFrame.136
	.cfi_def_cfa %rbp, 16
	movl	%r15d, %edi
	movl	%r14d, %esi
	movl	%ebx, %edx
	movl	%r13d, %ecx
	movl	%r12d, %r8d
	callq	ReadOneFrame.136
	addq	$8, %rsp
	popq	%rbx
	popq	%r12
	popq	%r13
	popq	%r14
	popq	%r15
	popq	%rbp
	.cfi_def_cfa %rsp, 8
	retq
.LBB3_4:                                # %func_ReadOneFrame.159
	.cfi_def_cfa %rbp, 16
	movl	%r15d, %edi
	movl	%r14d, %esi
	movl	%ebx, %edx
	movl	%r13d, %ecx
	movl	%r12d, %r8d
	callq	ReadOneFrame.159
	addq	$8, %rsp
	popq	%rbx
	popq	%r12
	popq	%r13
	popq	%r14
	popq	%r15
	popq	%rbp
	.cfi_def_cfa %rsp, 8
	retq
.LBB3_5:                                # %func_ReadOneFrame.161
	.cfi_def_cfa %rbp, 16
	movl	%r15d, %edi
	movl	%r14d, %esi
	movl	%ebx, %edx
	movl	%r13d, %ecx
	movl	%r12d, %r8d
	callq	ReadOneFrame.161
	addq	$8, %rsp
	popq	%rbx
	popq	%r12
	popq	%r13
	popq	%r14
	popq	%r15
	popq	%rbp
	.cfi_def_cfa %rsp, 8
	retq
.LBB3_6:                                # %func_ReadOneFrame.166
	.cfi_def_cfa %rbp, 16
	movl	%r15d, %edi
	movl	%r14d, %esi
	movl	%ebx, %edx
	movl	%r13d, %ecx
	movl	%r12d, %r8d
	callq	ReadOneFrame.166
	addq	$8, %rsp
	popq	%rbx
	popq	%r12
	popq	%r13
	popq	%r14
	popq	%r15
	popq	%rbp
	.cfi_def_cfa %rsp, 8
	retq
.LBB3_7:                                # %func_ReadOneFrame.174
	.cfi_def_cfa %rbp, 16
	callq	ReadOneFrame.174
	addq	$8, %rsp
	popq	%rbx
	popq	%r12
	popq	%r13
	popq	%r14
	popq	%r15
	popq	%rbp
	.cfi_def_cfa %rsp, 8
	retq
.LBB3_8:                                # %func_ReadOneFrame.182
	.cfi_def_cfa %rbp, 16
	callq	ReadOneFrame.182
	addq	$8, %rsp
	popq	%rbx
	popq	%r12
	popq	%r13
	popq	%r14
	popq	%r15
	popq	%rbp
	.cfi_def_cfa %rsp, 8
	retq
.LBB3_9:                                # %ctrl0
	.cfi_def_cfa %rbp, 16
	movl	-44(%rbp), %r9d         # 4-byte Reload
	cmpl	$1, %eax
	je	.LBB3_2
# %bb.10:                               # %ctrl1
	cmpl	$2, %eax
	je	.LBB3_3
# %bb.11:                               # %ctrl2
	cmpl	$3, %eax
	je	.LBB3_4
# %bb.12:                               # %ctrl3
	cmpl	$4, %eax
	je	.LBB3_5
# %bb.13:                               # %ctrl4
	cmpl	$5, %eax
	je	.LBB3_6
# %bb.14:                               # %ctrl5
	cmpl	$6, %eax
	movl	%r12d, %r8d
	movl	%r13d, %ecx
	movl	%ebx, %edx
	movl	%r14d, %esi
	movl	%r15d, %edi
	je	.LBB3_7
	jmp	.LBB3_8
.Lfunc_end3:
	.size	ReadOneFrame, .Lfunc_end3-ReadOneFrame
	.cfi_endproc
                                        # -- End function
	.p2align	4, 0x90         # -- Begin function PaddAutoCropBorders
	.type	PaddAutoCropBorders,@function
PaddAutoCropBorders:                    # @PaddAutoCropBorders
	.cfi_startproc
# %bb.0:                                # %rand_bb
	pushq	%rbp
	.cfi_def_cfa_offset 16
	.cfi_offset %rbp, -16
	movq	%rsp, %rbp
	.cfi_def_cfa_register %rbp
	pushq	%r15
	pushq	%r14
	pushq	%r13
	pushq	%r12
	pushq	%rbx
	subq	$24, %rsp
	.cfi_offset %rbx, -56
	.cfi_offset %r12, -48
	.cfi_offset %r13, -40
	.cfi_offset %r14, -32
	.cfi_offset %r15, -24
	movl	%r9d, -44(%rbp)         # 4-byte Spill
	movl	%r8d, %r15d
	movl	%ecx, %r12d
	movl	%edx, %ebx
	movl	%esi, %r14d
	movl	%edi, %r13d
	callq	get_urand
	cmpl	$0, %eax
	jne	.LBB4_9
# %bb.1:                                # %func_PaddAutoCropBorders.5
	movl	%r13d, %edi
	movl	%r14d, %esi
	movl	%ebx, %edx
	movl	%r12d, %ecx
	movl	%r15d, %r8d
	movl	-44(%rbp), %r9d         # 4-byte Reload
	movl	16(%rbp), %eax
	movl	%eax, (%rsp)
	movl	24(%rbp), %eax
	movl	%eax, 8(%rsp)
	callq	PaddAutoCropBorders.5
	addq	$24, %rsp
	popq	%rbx
	popq	%r12
	popq	%r13
	popq	%r14
	popq	%r15
	popq	%rbp
	.cfi_def_cfa %rsp, 8
	retq
.LBB4_2:                                # %func_PaddAutoCropBorders.21
	.cfi_def_cfa %rbp, 16
	movl	%r13d, %edi
	movl	%r14d, %esi
	movl	%ebx, %edx
	movl	%r12d, %ecx
	movl	%r15d, %r8d
	movl	%r11d, (%rsp)
	movl	%r10d, 8(%rsp)
	callq	PaddAutoCropBorders.21
	addq	$24, %rsp
	popq	%rbx
	popq	%r12
	popq	%r13
	popq	%r14
	popq	%r15
	popq	%rbp
	.cfi_def_cfa %rsp, 8
	retq
.LBB4_3:                                # %func_PaddAutoCropBorders.22
	.cfi_def_cfa %rbp, 16
	movl	%r13d, %edi
	movl	%r14d, %esi
	movl	%ebx, %edx
	movl	%r12d, %ecx
	movl	%r15d, %r8d
	movl	%r11d, (%rsp)
	movl	%r10d, 8(%rsp)
	callq	PaddAutoCropBorders.22
	addq	$24, %rsp
	popq	%rbx
	popq	%r12
	popq	%r13
	popq	%r14
	popq	%r15
	popq	%rbp
	.cfi_def_cfa %rsp, 8
	retq
.LBB4_4:                                # %func_PaddAutoCropBorders.48
	.cfi_def_cfa %rbp, 16
	movl	%r13d, %edi
	movl	%r14d, %esi
	movl	%ebx, %edx
	movl	%r12d, %ecx
	movl	%r15d, %r8d
	movl	%r11d, (%rsp)
	movl	%r10d, 8(%rsp)
	callq	PaddAutoCropBorders.48
	addq	$24, %rsp
	popq	%rbx
	popq	%r12
	popq	%r13
	popq	%r14
	popq	%r15
	popq	%rbp
	.cfi_def_cfa %rsp, 8
	retq
.LBB4_5:                                # %func_PaddAutoCropBorders.57
	.cfi_def_cfa %rbp, 16
	movl	%r13d, %edi
	movl	%r14d, %esi
	movl	%ebx, %edx
	movl	%r12d, %ecx
	movl	%r15d, %r8d
	movl	%r11d, (%rsp)
	movl	%r10d, 8(%rsp)
	callq	PaddAutoCropBorders.57
	addq	$24, %rsp
	popq	%rbx
	popq	%r12
	popq	%r13
	popq	%r14
	popq	%r15
	popq	%rbp
	.cfi_def_cfa %rsp, 8
	retq
.LBB4_6:                                # %func_PaddAutoCropBorders.75
	.cfi_def_cfa %rbp, 16
	movl	%r13d, %edi
	movl	%r14d, %esi
	movl	%ebx, %edx
	movl	%r12d, %ecx
	movl	%r15d, %r8d
	movl	%r11d, (%rsp)
	movl	%r10d, 8(%rsp)
	callq	PaddAutoCropBorders.75
	addq	$24, %rsp
	popq	%rbx
	popq	%r12
	popq	%r13
	popq	%r14
	popq	%r15
	popq	%rbp
	.cfi_def_cfa %rsp, 8
	retq
.LBB4_7:                                # %func_PaddAutoCropBorders.123
	.cfi_def_cfa %rbp, 16
	movl	%r11d, (%rsp)
	movl	%r10d, 8(%rsp)
	callq	PaddAutoCropBorders.123
	addq	$24, %rsp
	popq	%rbx
	popq	%r12
	popq	%r13
	popq	%r14
	popq	%r15
	popq	%rbp
	.cfi_def_cfa %rsp, 8
	retq
.LBB4_8:                                # %func_PaddAutoCropBorders.140
	.cfi_def_cfa %rbp, 16
	movl	%r11d, (%rsp)
	movl	%r10d, 8(%rsp)
	callq	PaddAutoCropBorders.140
	addq	$24, %rsp
	popq	%rbx
	popq	%r12
	popq	%r13
	popq	%r14
	popq	%r15
	popq	%rbp
	.cfi_def_cfa %rsp, 8
	retq
.LBB4_9:                                # %ctrl0
	.cfi_def_cfa %rbp, 16
	movl	-44(%rbp), %r9d         # 4-byte Reload
	movl	16(%rbp), %r11d
	movl	24(%rbp), %r10d
	cmpl	$1, %eax
	je	.LBB4_2
# %bb.10:                               # %ctrl1
	cmpl	$2, %eax
	je	.LBB4_3
# %bb.11:                               # %ctrl2
	cmpl	$3, %eax
	je	.LBB4_4
# %bb.12:                               # %ctrl3
	cmpl	$4, %eax
	je	.LBB4_5
# %bb.13:                               # %ctrl4
	cmpl	$5, %eax
	je	.LBB4_6
# %bb.14:                               # %ctrl5
	cmpl	$6, %eax
	movl	%r15d, %r8d
	movl	%r12d, %ecx
	movl	%ebx, %edx
	movl	%r14d, %esi
	movl	%r13d, %edi
	je	.LBB4_7
	jmp	.LBB4_8
.Lfunc_end4:
	.size	PaddAutoCropBorders, .Lfunc_end4-PaddAutoCropBorders
	.cfi_endproc
                                        # -- End function
	.globl	field_picture           # -- Begin function field_picture
	.p2align	4, 0x90
	.type	field_picture,@function
field_picture:                          # @field_picture
	.cfi_startproc
# %bb.0:                                # %rand_bb
	pushq	%rbp
	.cfi_def_cfa_offset 16
	.cfi_offset %rbp, -16
	movq	%rsp, %rbp
	.cfi_def_cfa_register %rbp
	pushq	%r14
	pushq	%rbx
	.cfi_offset %rbx, -32
	.cfi_offset %r14, -24
	movq	%rsi, %r14
	movq	%rdi, %rbx
	callq	get_urand
	cmpl	$0, %eax
	jne	.LBB5_9
# %bb.1:                                # %func_field_picture.24
	movq	%rbx, %rdi
	movq	%r14, %rsi
	callq	field_picture.24
	popq	%rbx
	popq	%r14
	popq	%rbp
	.cfi_def_cfa %rsp, 8
	retq
.LBB5_2:                                # %func_field_picture.89
	.cfi_def_cfa %rbp, 16
	movq	%rbx, %rdi
	movq	%r14, %rsi
	callq	field_picture.89
	popq	%rbx
	popq	%r14
	popq	%rbp
	.cfi_def_cfa %rsp, 8
	retq
.LBB5_3:                                # %func_field_picture.96
	.cfi_def_cfa %rbp, 16
	movq	%rbx, %rdi
	movq	%r14, %rsi
	callq	field_picture.96
	popq	%rbx
	popq	%r14
	popq	%rbp
	.cfi_def_cfa %rsp, 8
	retq
.LBB5_4:                                # %func_field_picture.106
	.cfi_def_cfa %rbp, 16
	movq	%rbx, %rdi
	movq	%r14, %rsi
	callq	field_picture.106
	popq	%rbx
	popq	%r14
	popq	%rbp
	.cfi_def_cfa %rsp, 8
	retq
.LBB5_5:                                # %func_field_picture.122
	.cfi_def_cfa %rbp, 16
	movq	%rbx, %rdi
	movq	%r14, %rsi
	callq	field_picture.122
	popq	%rbx
	popq	%r14
	popq	%rbp
	.cfi_def_cfa %rsp, 8
	retq
.LBB5_6:                                # %func_field_picture.126
	.cfi_def_cfa %rbp, 16
	movq	%rbx, %rdi
	movq	%r14, %rsi
	callq	field_picture.126
	popq	%rbx
	popq	%r14
	popq	%rbp
	.cfi_def_cfa %rsp, 8
	retq
.LBB5_7:                                # %func_field_picture.128
	.cfi_def_cfa %rbp, 16
	movq	%rbx, %rdi
	movq	%r14, %rsi
	callq	field_picture.128
	popq	%rbx
	popq	%r14
	popq	%rbp
	.cfi_def_cfa %rsp, 8
	retq
.LBB5_8:                                # %func_field_picture.132
	.cfi_def_cfa %rbp, 16
	movq	%rbx, %rdi
	movq	%r14, %rsi
	callq	field_picture.132
	popq	%rbx
	popq	%r14
	popq	%rbp
	.cfi_def_cfa %rsp, 8
	retq
.LBB5_9:                                # %ctrl0
	.cfi_def_cfa %rbp, 16
	cmpl	$1, %eax
	je	.LBB5_2
# %bb.10:                               # %ctrl1
	cmpl	$2, %eax
	je	.LBB5_3
# %bb.11:                               # %ctrl2
	cmpl	$3, %eax
	je	.LBB5_4
# %bb.12:                               # %ctrl3
	cmpl	$4, %eax
	je	.LBB5_5
# %bb.13:                               # %ctrl4
	cmpl	$5, %eax
	je	.LBB5_6
# %bb.14:                               # %ctrl5
	cmpl	$6, %eax
	je	.LBB5_7
	jmp	.LBB5_8
.Lfunc_end5:
	.size	field_picture, .Lfunc_end5-field_picture
	.cfi_endproc
                                        # -- End function
	.globl	frame_picture           # -- Begin function frame_picture
	.p2align	4, 0x90
	.type	frame_picture,@function
frame_picture:                          # @frame_picture
	.cfi_startproc
# %bb.0:                                # %rand_bb
	pushq	%rbp
	.cfi_def_cfa_offset 16
	.cfi_offset %rbp, -16
	movq	%rsp, %rbp
	.cfi_def_cfa_register %rbp
	pushq	%r14
	pushq	%rbx
	.cfi_offset %rbx, -32
	.cfi_offset %r14, -24
	movl	%esi, %r14d
	movq	%rdi, %rbx
	callq	get_urand
	cmpl	$0, %eax
	jne	.LBB6_2
# %bb.1:                                # %func_frame_picture.13
	movq	%rbx, %rdi
	movl	%r14d, %esi
	callq	frame_picture.13
	popq	%rbx
	popq	%r14
	popq	%rbp
	.cfi_def_cfa %rsp, 8
	retq
.LBB6_2:                                # %func_frame_picture.87
	.cfi_def_cfa %rbp, 16
	movq	%rbx, %rdi
	movl	%r14d, %esi
	callq	frame_picture.87
	popq	%rbx
	popq	%r14
	popq	%rbp
	.cfi_def_cfa %rsp, 8
	retq
.Lfunc_end6:
	.size	frame_picture, .Lfunc_end6-frame_picture
	.cfi_endproc
                                        # -- End function
	.p2align	4, 0x90         # -- Begin function picture_structure_decision
	.type	picture_structure_decision,@function
picture_structure_decision:             # @picture_structure_decision
	.cfi_startproc
# %bb.0:                                # %rand_bb
	pushq	%rbp
	.cfi_def_cfa_offset 16
	.cfi_offset %rbp, -16
	movq	%rsp, %rbp
	.cfi_def_cfa_register %rbp
	pushq	%r15
	pushq	%r14
	pushq	%rbx
	pushq	%rax
	.cfi_offset %rbx, -40
	.cfi_offset %r14, -32
	.cfi_offset %r15, -24
	movq	%rdx, %r14
	movq	%rsi, %r15
	movq	%rdi, %rbx
	callq	get_urand
	cmpl	$0, %eax
	jne	.LBB7_9
# %bb.1:                                # %func_picture_structure_decision.88
	movq	%rbx, %rdi
	movq	%r15, %rsi
	movq	%r14, %rdx
	callq	picture_structure_decision.88
	addq	$8, %rsp
	popq	%rbx
	popq	%r14
	popq	%r15
	popq	%rbp
	.cfi_def_cfa %rsp, 8
	retq
.LBB7_2:                                # %func_picture_structure_decision.116
	.cfi_def_cfa %rbp, 16
	movq	%rbx, %rdi
	movq	%r15, %rsi
	movq	%r14, %rdx
	callq	picture_structure_decision.116
	addq	$8, %rsp
	popq	%rbx
	popq	%r14
	popq	%r15
	popq	%rbp
	.cfi_def_cfa %rsp, 8
	retq
.LBB7_3:                                # %func_picture_structure_decision.133
	.cfi_def_cfa %rbp, 16
	movq	%rbx, %rdi
	movq	%r15, %rsi
	movq	%r14, %rdx
	callq	picture_structure_decision.133
	addq	$8, %rsp
	popq	%rbx
	popq	%r14
	popq	%r15
	popq	%rbp
	.cfi_def_cfa %rsp, 8
	retq
.LBB7_4:                                # %func_picture_structure_decision.150
	.cfi_def_cfa %rbp, 16
	movq	%rbx, %rdi
	movq	%r15, %rsi
	movq	%r14, %rdx
	callq	picture_structure_decision.150
	addq	$8, %rsp
	popq	%rbx
	popq	%r14
	popq	%r15
	popq	%rbp
	.cfi_def_cfa %rsp, 8
	retq
.LBB7_5:                                # %func_picture_structure_decision.155
	.cfi_def_cfa %rbp, 16
	movq	%rbx, %rdi
	movq	%r15, %rsi
	movq	%r14, %rdx
	callq	picture_structure_decision.155
	addq	$8, %rsp
	popq	%rbx
	popq	%r14
	popq	%r15
	popq	%rbp
	.cfi_def_cfa %rsp, 8
	retq
.LBB7_6:                                # %func_picture_structure_decision.168
	.cfi_def_cfa %rbp, 16
	movq	%rbx, %rdi
	movq	%r15, %rsi
	movq	%r14, %rdx
	callq	picture_structure_decision.168
	addq	$8, %rsp
	popq	%rbx
	popq	%r14
	popq	%r15
	popq	%rbp
	.cfi_def_cfa %rsp, 8
	retq
.LBB7_7:                                # %func_picture_structure_decision.173
	.cfi_def_cfa %rbp, 16
	movq	%rbx, %rdi
	movq	%r15, %rsi
	movq	%r14, %rdx
	callq	picture_structure_decision.173
	addq	$8, %rsp
	popq	%rbx
	popq	%r14
	popq	%r15
	popq	%rbp
	.cfi_def_cfa %rsp, 8
	retq
.LBB7_8:                                # %func_picture_structure_decision.186
	.cfi_def_cfa %rbp, 16
	movq	%rbx, %rdi
	movq	%r15, %rsi
	movq	%r14, %rdx
	callq	picture_structure_decision.186
	addq	$8, %rsp
	popq	%rbx
	popq	%r14
	popq	%r15
	popq	%rbp
	.cfi_def_cfa %rsp, 8
	retq
.LBB7_9:                                # %ctrl0
	.cfi_def_cfa %rbp, 16
	cmpl	$1, %eax
	je	.LBB7_2
# %bb.10:                               # %ctrl1
	cmpl	$2, %eax
	je	.LBB7_3
# %bb.11:                               # %ctrl2
	cmpl	$3, %eax
	je	.LBB7_4
# %bb.12:                               # %ctrl3
	cmpl	$4, %eax
	je	.LBB7_5
# %bb.13:                               # %ctrl4
	cmpl	$5, %eax
	je	.LBB7_6
# %bb.14:                               # %ctrl5
	cmpl	$6, %eax
	je	.LBB7_7
	jmp	.LBB7_8
.Lfunc_end7:
	.size	picture_structure_decision, .Lfunc_end7-picture_structure_decision
	.cfi_endproc
                                        # -- End function
	.p2align	4, 0x90         # -- Begin function field_mode_buffer
	.type	field_mode_buffer,@function
field_mode_buffer:                      # @field_mode_buffer
	.cfi_startproc
# %bb.0:                                # %rand_bb
	pushq	%rbp
	.cfi_def_cfa_offset 16
	.cfi_offset %rbp, -16
	movq	%rsp, %rbp
	.cfi_def_cfa_register %rbp
	pushq	%rbx
	subq	$24, %rsp
	.cfi_offset %rbx, -24
	vmovss	%xmm2, -20(%rbp)        # 4-byte Spill
	vmovss	%xmm1, -16(%rbp)        # 4-byte Spill
	vmovss	%xmm0, -12(%rbp)        # 4-byte Spill
	movl	%edi, %ebx
	callq	get_urand
	cmpl	$0, %eax
	jne	.LBB8_9
# %bb.1:                                # %func_field_mode_buffer.41
	movl	%ebx, %edi
	vmovss	-12(%rbp), %xmm0        # 4-byte Reload
                                        # xmm0 = mem[0],zero,zero,zero
	vmovss	-16(%rbp), %xmm1        # 4-byte Reload
                                        # xmm1 = mem[0],zero,zero,zero
	vmovss	-20(%rbp), %xmm2        # 4-byte Reload
                                        # xmm2 = mem[0],zero,zero,zero
	callq	field_mode_buffer.41
	addq	$24, %rsp
	popq	%rbx
	popq	%rbp
	.cfi_def_cfa %rsp, 8
	retq
.LBB8_2:                                # %func_field_mode_buffer.105
	.cfi_def_cfa %rbp, 16
	movl	%ebx, %edi
	callq	field_mode_buffer.105
	addq	$24, %rsp
	popq	%rbx
	popq	%rbp
	.cfi_def_cfa %rsp, 8
	retq
.LBB8_3:                                # %func_field_mode_buffer.107
	.cfi_def_cfa %rbp, 16
	movl	%ebx, %edi
	callq	field_mode_buffer.107
	addq	$24, %rsp
	popq	%rbx
	popq	%rbp
	.cfi_def_cfa %rsp, 8
	retq
.LBB8_4:                                # %func_field_mode_buffer.135
	.cfi_def_cfa %rbp, 16
	movl	%ebx, %edi
	callq	field_mode_buffer.135
	addq	$24, %rsp
	popq	%rbx
	popq	%rbp
	.cfi_def_cfa %rsp, 8
	retq
.LBB8_5:                                # %func_field_mode_buffer.172
	.cfi_def_cfa %rbp, 16
	movl	%ebx, %edi
	callq	field_mode_buffer.172
	addq	$24, %rsp
	popq	%rbx
	popq	%rbp
	.cfi_def_cfa %rsp, 8
	retq
.LBB8_6:                                # %func_field_mode_buffer.176
	.cfi_def_cfa %rbp, 16
	movl	%ebx, %edi
	callq	field_mode_buffer.176
	addq	$24, %rsp
	popq	%rbx
	popq	%rbp
	.cfi_def_cfa %rsp, 8
	retq
.LBB8_7:                                # %func_field_mode_buffer.183
	.cfi_def_cfa %rbp, 16
	movl	%ebx, %edi
	callq	field_mode_buffer.183
	addq	$24, %rsp
	popq	%rbx
	popq	%rbp
	.cfi_def_cfa %rsp, 8
	retq
.LBB8_8:                                # %func_field_mode_buffer.184
	.cfi_def_cfa %rbp, 16
	movl	%ebx, %edi
	callq	field_mode_buffer.184
	addq	$24, %rsp
	popq	%rbx
	popq	%rbp
	.cfi_def_cfa %rsp, 8
	retq
.LBB8_9:                                # %ctrl0
	.cfi_def_cfa %rbp, 16
	vmovss	-12(%rbp), %xmm0        # 4-byte Reload
                                        # xmm0 = mem[0],zero,zero,zero
	vmovss	-16(%rbp), %xmm1        # 4-byte Reload
                                        # xmm1 = mem[0],zero,zero,zero
	vmovss	-20(%rbp), %xmm2        # 4-byte Reload
                                        # xmm2 = mem[0],zero,zero,zero
	cmpl	$1, %eax
	je	.LBB8_2
# %bb.10:                               # %ctrl1
	cmpl	$2, %eax
	je	.LBB8_3
# %bb.11:                               # %ctrl2
	cmpl	$3, %eax
	je	.LBB8_4
# %bb.12:                               # %ctrl3
	cmpl	$4, %eax
	je	.LBB8_5
# %bb.13:                               # %ctrl4
	cmpl	$5, %eax
	je	.LBB8_6
# %bb.14:                               # %ctrl5
	cmpl	$6, %eax
	je	.LBB8_7
	jmp	.LBB8_8
.Lfunc_end8:
	.size	field_mode_buffer, .Lfunc_end8-field_mode_buffer
	.cfi_endproc
                                        # -- End function
	.p2align	4, 0x90         # -- Begin function writeout_picture
	.type	writeout_picture,@function
writeout_picture:                       # @writeout_picture
	.cfi_startproc
# %bb.0:                                # %rand_bb
	pushq	%rbp
	.cfi_def_cfa_offset 16
	.cfi_offset %rbp, -16
	movq	%rsp, %rbp
	.cfi_def_cfa_register %rbp
	pushq	%rbx
	pushq	%rax
	.cfi_offset %rbx, -24
	movq	%rdi, %rbx
	callq	get_urand
	cmpl	$0, %eax
	jne	.LBB9_9
# %bb.1:                                # %func_writeout_picture.69
	movq	%rbx, %rdi
	callq	writeout_picture.69
	addq	$8, %rsp
	popq	%rbx
	popq	%rbp
	.cfi_def_cfa %rsp, 8
	retq
.LBB9_2:                                # %func_writeout_picture.71
	.cfi_def_cfa %rbp, 16
	movq	%rbx, %rdi
	callq	writeout_picture.71
	addq	$8, %rsp
	popq	%rbx
	popq	%rbp
	.cfi_def_cfa %rsp, 8
	retq
.LBB9_3:                                # %func_writeout_picture.134
	.cfi_def_cfa %rbp, 16
	movq	%rbx, %rdi
	callq	writeout_picture.134
	addq	$8, %rsp
	popq	%rbx
	popq	%rbp
	.cfi_def_cfa %rsp, 8
	retq
.LBB9_4:                                # %func_writeout_picture.146
	.cfi_def_cfa %rbp, 16
	movq	%rbx, %rdi
	callq	writeout_picture.146
	addq	$8, %rsp
	popq	%rbx
	popq	%rbp
	.cfi_def_cfa %rsp, 8
	retq
.LBB9_5:                                # %func_writeout_picture.154
	.cfi_def_cfa %rbp, 16
	movq	%rbx, %rdi
	callq	writeout_picture.154
	addq	$8, %rsp
	popq	%rbx
	popq	%rbp
	.cfi_def_cfa %rsp, 8
	retq
.LBB9_6:                                # %func_writeout_picture.175
	.cfi_def_cfa %rbp, 16
	movq	%rbx, %rdi
	callq	writeout_picture.175
	addq	$8, %rsp
	popq	%rbx
	popq	%rbp
	.cfi_def_cfa %rsp, 8
	retq
.LBB9_7:                                # %func_writeout_picture.180
	.cfi_def_cfa %rbp, 16
	movq	%rbx, %rdi
	callq	writeout_picture.180
	addq	$8, %rsp
	popq	%rbx
	popq	%rbp
	.cfi_def_cfa %rsp, 8
	retq
.LBB9_8:                                # %func_writeout_picture.181
	.cfi_def_cfa %rbp, 16
	movq	%rbx, %rdi
	callq	writeout_picture.181
	addq	$8, %rsp
	popq	%rbx
	popq	%rbp
	.cfi_def_cfa %rsp, 8
	retq
.LBB9_9:                                # %ctrl0
	.cfi_def_cfa %rbp, 16
	cmpl	$1, %eax
	je	.LBB9_2
# %bb.10:                               # %ctrl1
	cmpl	$2, %eax
	je	.LBB9_3
# %bb.11:                               # %ctrl2
	cmpl	$3, %eax
	je	.LBB9_4
# %bb.12:                               # %ctrl3
	cmpl	$4, %eax
	je	.LBB9_5
# %bb.13:                               # %ctrl4
	cmpl	$5, %eax
	je	.LBB9_6
# %bb.14:                               # %ctrl5
	cmpl	$6, %eax
	je	.LBB9_7
	jmp	.LBB9_8
.Lfunc_end9:
	.size	writeout_picture, .Lfunc_end9-writeout_picture
	.cfi_endproc
                                        # -- End function
	.p2align	4, 0x90         # -- Begin function frame_mode_buffer
	.type	frame_mode_buffer,@function
frame_mode_buffer:                      # @frame_mode_buffer
	.cfi_startproc
# %bb.0:                                # %rand_bb
	pushq	%rbp
	.cfi_def_cfa_offset 16
	.cfi_offset %rbp, -16
	movq	%rsp, %rbp
	.cfi_def_cfa_register %rbp
	pushq	%rbx
	subq	$24, %rsp
	.cfi_offset %rbx, -24
	vmovss	%xmm2, -20(%rbp)        # 4-byte Spill
	vmovss	%xmm1, -16(%rbp)        # 4-byte Spill
	vmovss	%xmm0, -12(%rbp)        # 4-byte Spill
	movl	%edi, %ebx
	callq	get_urand
	cmpl	$0, %eax
	jne	.LBB10_9
# %bb.1:                                # %func_frame_mode_buffer.16
	movl	%ebx, %edi
	vmovss	-12(%rbp), %xmm0        # 4-byte Reload
                                        # xmm0 = mem[0],zero,zero,zero
	vmovss	-16(%rbp), %xmm1        # 4-byte Reload
                                        # xmm1 = mem[0],zero,zero,zero
	vmovss	-20(%rbp), %xmm2        # 4-byte Reload
                                        # xmm2 = mem[0],zero,zero,zero
	callq	frame_mode_buffer.16
	addq	$24, %rsp
	popq	%rbx
	popq	%rbp
	.cfi_def_cfa %rsp, 8
	retq
.LBB10_2:                               # %func_frame_mode_buffer.34
	.cfi_def_cfa %rbp, 16
	movl	%ebx, %edi
	callq	frame_mode_buffer.34
	addq	$24, %rsp
	popq	%rbx
	popq	%rbp
	.cfi_def_cfa %rsp, 8
	retq
.LBB10_3:                               # %func_frame_mode_buffer.56
	.cfi_def_cfa %rbp, 16
	movl	%ebx, %edi
	callq	frame_mode_buffer.56
	addq	$24, %rsp
	popq	%rbx
	popq	%rbp
	.cfi_def_cfa %rsp, 8
	retq
.LBB10_4:                               # %func_frame_mode_buffer.112
	.cfi_def_cfa %rbp, 16
	movl	%ebx, %edi
	callq	frame_mode_buffer.112
	addq	$24, %rsp
	popq	%rbx
	popq	%rbp
	.cfi_def_cfa %rsp, 8
	retq
.LBB10_5:                               # %func_frame_mode_buffer.113
	.cfi_def_cfa %rbp, 16
	movl	%ebx, %edi
	callq	frame_mode_buffer.113
	addq	$24, %rsp
	popq	%rbx
	popq	%rbp
	.cfi_def_cfa %rsp, 8
	retq
.LBB10_6:                               # %func_frame_mode_buffer.114
	.cfi_def_cfa %rbp, 16
	movl	%ebx, %edi
	callq	frame_mode_buffer.114
	addq	$24, %rsp
	popq	%rbx
	popq	%rbp
	.cfi_def_cfa %rsp, 8
	retq
.LBB10_7:                               # %func_frame_mode_buffer.151
	.cfi_def_cfa %rbp, 16
	movl	%ebx, %edi
	callq	frame_mode_buffer.151
	addq	$24, %rsp
	popq	%rbx
	popq	%rbp
	.cfi_def_cfa %rsp, 8
	retq
.LBB10_8:                               # %func_frame_mode_buffer.153
	.cfi_def_cfa %rbp, 16
	movl	%ebx, %edi
	callq	frame_mode_buffer.153
	addq	$24, %rsp
	popq	%rbx
	popq	%rbp
	.cfi_def_cfa %rsp, 8
	retq
.LBB10_9:                               # %ctrl0
	.cfi_def_cfa %rbp, 16
	vmovss	-12(%rbp), %xmm0        # 4-byte Reload
                                        # xmm0 = mem[0],zero,zero,zero
	vmovss	-16(%rbp), %xmm1        # 4-byte Reload
                                        # xmm1 = mem[0],zero,zero,zero
	vmovss	-20(%rbp), %xmm2        # 4-byte Reload
                                        # xmm2 = mem[0],zero,zero,zero
	cmpl	$1, %eax
	je	.LBB10_2
# %bb.10:                               # %ctrl1
	cmpl	$2, %eax
	je	.LBB10_3
# %bb.11:                               # %ctrl2
	cmpl	$3, %eax
	je	.LBB10_4
# %bb.12:                               # %ctrl3
	cmpl	$4, %eax
	je	.LBB10_5
# %bb.13:                               # %ctrl4
	cmpl	$5, %eax
	je	.LBB10_6
# %bb.14:                               # %ctrl5
	cmpl	$6, %eax
	je	.LBB10_7
	jmp	.LBB10_8
.Lfunc_end10:
	.size	frame_mode_buffer, .Lfunc_end10-frame_mode_buffer
	.cfi_endproc
                                        # -- End function
	.p2align	4, 0x90         # -- Begin function ReportNALNonVLCBits
	.type	ReportNALNonVLCBits,@function
ReportNALNonVLCBits:                    # @ReportNALNonVLCBits
	.cfi_startproc
# %bb.0:                                # %rand_bb
	pushq	%rbp
	.cfi_def_cfa_offset 16
	.cfi_offset %rbp, -16
	movq	%rsp, %rbp
	.cfi_def_cfa_register %rbp
	pushq	%r14
	pushq	%rbx
	.cfi_offset %rbx, -32
	.cfi_offset %r14, -24
	movl	%esi, %r14d
	movl	%edi, %ebx
	callq	get_urand
	cmpl	$0, %eax
	jne	.LBB11_2
# %bb.1:                                # %func_ReportNALNonVLCBits.20
	movl	%ebx, %edi
	movl	%r14d, %esi
	callq	ReportNALNonVLCBits.20
	popq	%rbx
	popq	%r14
	popq	%rbp
	.cfi_def_cfa %rsp, 8
	retq
.LBB11_2:                               # %func_ReportNALNonVLCBits.31
	.cfi_def_cfa %rbp, 16
	movl	%ebx, %edi
	movl	%r14d, %esi
	callq	ReportNALNonVLCBits.31
	popq	%rbx
	popq	%r14
	popq	%rbp
	.cfi_def_cfa %rsp, 8
	retq
.Lfunc_end11:
	.size	ReportNALNonVLCBits, .Lfunc_end11-ReportNALNonVLCBits
	.cfi_endproc
                                        # -- End function
	.p2align	4, 0x90         # -- Begin function ReportFirstframe
	.type	ReportFirstframe,@function
ReportFirstframe:                       # @ReportFirstframe
	.cfi_startproc
# %bb.0:                                # %rand_bb
	pushq	%rbp
	.cfi_def_cfa_offset 16
	.cfi_offset %rbp, -16
	movq	%rsp, %rbp
	.cfi_def_cfa_register %rbp
	pushq	%r14
	pushq	%rbx
	.cfi_offset %rbx, -32
	.cfi_offset %r14, -24
	movl	%esi, %r14d
	movl	%edi, %ebx
	callq	get_urand
	cmpl	$0, %eax
	jne	.LBB12_7
# %bb.1:                                # %func_ReportFirstframe.9
	movl	%ebx, %edi
	movl	%r14d, %esi
	callq	ReportFirstframe.9
	popq	%rbx
	popq	%r14
	popq	%rbp
	.cfi_def_cfa %rsp, 8
	retq
.LBB12_2:                               # %func_ReportFirstframe.27
	.cfi_def_cfa %rbp, 16
	movl	%ebx, %edi
	movl	%r14d, %esi
	callq	ReportFirstframe.27
	popq	%rbx
	popq	%r14
	popq	%rbp
	.cfi_def_cfa %rsp, 8
	retq
.LBB12_3:                               # %func_ReportFirstframe.58
	.cfi_def_cfa %rbp, 16
	movl	%ebx, %edi
	movl	%r14d, %esi
	callq	ReportFirstframe.58
	popq	%rbx
	popq	%r14
	popq	%rbp
	.cfi_def_cfa %rsp, 8
	retq
.LBB12_4:                               # %func_ReportFirstframe.61
	.cfi_def_cfa %rbp, 16
	movl	%ebx, %edi
	movl	%r14d, %esi
	callq	ReportFirstframe.61
	popq	%rbx
	popq	%r14
	popq	%rbp
	.cfi_def_cfa %rsp, 8
	retq
.LBB12_5:                               # %func_ReportFirstframe.85
	.cfi_def_cfa %rbp, 16
	movl	%ebx, %edi
	movl	%r14d, %esi
	callq	ReportFirstframe.85
	popq	%rbx
	popq	%r14
	popq	%rbp
	.cfi_def_cfa %rsp, 8
	retq
.LBB12_6:                               # %func_ReportFirstframe.95
	.cfi_def_cfa %rbp, 16
	movl	%ebx, %edi
	movl	%r14d, %esi
	callq	ReportFirstframe.95
	popq	%rbx
	popq	%r14
	popq	%rbp
	.cfi_def_cfa %rsp, 8
	retq
.LBB12_7:                               # %ctrl0
	.cfi_def_cfa %rbp, 16
	cmpl	$1, %eax
	je	.LBB12_2
# %bb.8:                                # %ctrl1
	cmpl	$2, %eax
	je	.LBB12_3
# %bb.9:                                # %ctrl2
	cmpl	$3, %eax
	je	.LBB12_4
# %bb.10:                               # %ctrl3
	cmpl	$4, %eax
	je	.LBB12_5
	jmp	.LBB12_6
.Lfunc_end12:
	.size	ReportFirstframe, .Lfunc_end12-ReportFirstframe
	.cfi_endproc
                                        # -- End function
	.p2align	4, 0x90         # -- Begin function ReportIntra
	.type	ReportIntra,@function
ReportIntra:                            # @ReportIntra
	.cfi_startproc
# %bb.0:                                # %rand_bb
	pushq	%rbp
	.cfi_def_cfa_offset 16
	.cfi_offset %rbp, -16
	movq	%rsp, %rbp
	.cfi_def_cfa_register %rbp
	pushq	%r14
	pushq	%rbx
	.cfi_offset %rbx, -32
	.cfi_offset %r14, -24
	movl	%esi, %r14d
	movl	%edi, %ebx
	callq	get_urand
	cmpl	$0, %eax
	jne	.LBB13_2
# %bb.1:                                # %func_ReportIntra.2
	movl	%ebx, %edi
	movl	%r14d, %esi
	callq	ReportIntra.2
	popq	%rbx
	popq	%r14
	popq	%rbp
	.cfi_def_cfa %rsp, 8
	retq
.LBB13_2:                               # %func_ReportIntra.98
	.cfi_def_cfa %rbp, 16
	movl	%ebx, %edi
	movl	%r14d, %esi
	callq	ReportIntra.98
	popq	%rbx
	popq	%r14
	popq	%rbp
	.cfi_def_cfa %rsp, 8
	retq
.Lfunc_end13:
	.size	ReportIntra, .Lfunc_end13-ReportIntra
	.cfi_endproc
                                        # -- End function
	.p2align	4, 0x90         # -- Begin function ReportSP
	.type	ReportSP,@function
ReportSP:                               # @ReportSP
	.cfi_startproc
# %bb.0:                                # %rand_bb
	pushq	%rbp
	.cfi_def_cfa_offset 16
	.cfi_offset %rbp, -16
	movq	%rsp, %rbp
	.cfi_def_cfa_register %rbp
	pushq	%r14
	pushq	%rbx
	.cfi_offset %rbx, -32
	.cfi_offset %r14, -24
	movl	%esi, %r14d
	movl	%edi, %ebx
	callq	get_urand
	cmpl	$0, %eax
	jne	.LBB14_2
# %bb.1:                                # %func_ReportSP.18
	movl	%ebx, %edi
	movl	%r14d, %esi
	callq	ReportSP.18
	popq	%rbx
	popq	%r14
	popq	%rbp
	.cfi_def_cfa %rsp, 8
	retq
.LBB14_2:                               # %func_ReportSP.38
	.cfi_def_cfa %rbp, 16
	movl	%ebx, %edi
	movl	%r14d, %esi
	callq	ReportSP.38
	popq	%rbx
	popq	%r14
	popq	%rbp
	.cfi_def_cfa %rsp, 8
	retq
.Lfunc_end14:
	.size	ReportSP, .Lfunc_end14-ReportSP
	.cfi_endproc
                                        # -- End function
	.p2align	4, 0x90         # -- Begin function ReportRB
	.type	ReportRB,@function
ReportRB:                               # @ReportRB
	.cfi_startproc
# %bb.0:                                # %rand_bb
	pushq	%rbp
	.cfi_def_cfa_offset 16
	.cfi_offset %rbp, -16
	movq	%rsp, %rbp
	.cfi_def_cfa_register %rbp
	pushq	%r14
	pushq	%rbx
	.cfi_offset %rbx, -32
	.cfi_offset %r14, -24
	movl	%esi, %r14d
	movl	%edi, %ebx
	callq	get_urand
	cmpl	$0, %eax
	jne	.LBB15_2
# %bb.1:                                # %func_ReportRB.6
	movl	%ebx, %edi
	movl	%r14d, %esi
	callq	ReportRB.6
	popq	%rbx
	popq	%r14
	popq	%rbp
	.cfi_def_cfa %rsp, 8
	retq
.LBB15_2:                               # %func_ReportRB.8
	.cfi_def_cfa %rbp, 16
	movl	%ebx, %edi
	movl	%r14d, %esi
	callq	ReportRB.8
	popq	%rbx
	popq	%r14
	popq	%rbp
	.cfi_def_cfa %rsp, 8
	retq
.Lfunc_end15:
	.size	ReportRB, .Lfunc_end15-ReportRB
	.cfi_endproc
                                        # -- End function
	.p2align	4, 0x90         # -- Begin function ReportB
	.type	ReportB,@function
ReportB:                                # @ReportB
	.cfi_startproc
# %bb.0:                                # %rand_bb
	pushq	%rbp
	.cfi_def_cfa_offset 16
	.cfi_offset %rbp, -16
	movq	%rsp, %rbp
	.cfi_def_cfa_register %rbp
	pushq	%r14
	pushq	%rbx
	.cfi_offset %rbx, -32
	.cfi_offset %r14, -24
	movl	%esi, %r14d
	movl	%edi, %ebx
	callq	get_urand
	cmpl	$0, %eax
	jne	.LBB16_2
# %bb.1:                                # %func_ReportB.17
	movl	%ebx, %edi
	movl	%r14d, %esi
	callq	ReportB.17
	popq	%rbx
	popq	%r14
	popq	%rbp
	.cfi_def_cfa %rsp, 8
	retq
.LBB16_2:                               # %func_ReportB.70
	.cfi_def_cfa %rbp, 16
	movl	%ebx, %edi
	movl	%r14d, %esi
	callq	ReportB.70
	popq	%rbx
	popq	%r14
	popq	%rbp
	.cfi_def_cfa %rsp, 8
	retq
.Lfunc_end16:
	.size	ReportB, .Lfunc_end16-ReportB
	.cfi_endproc
                                        # -- End function
	.p2align	4, 0x90         # -- Begin function ReportP
	.type	ReportP,@function
ReportP:                                # @ReportP
	.cfi_startproc
# %bb.0:                                # %rand_bb
	pushq	%rbp
	.cfi_def_cfa_offset 16
	.cfi_offset %rbp, -16
	movq	%rsp, %rbp
	.cfi_def_cfa_register %rbp
	pushq	%r14
	pushq	%rbx
	.cfi_offset %rbx, -32
	.cfi_offset %r14, -24
	movl	%esi, %r14d
	movl	%edi, %ebx
	callq	get_urand
	cmpl	$0, %eax
	jne	.LBB17_2
# %bb.1:                                # %func_ReportP.19
	movl	%ebx, %edi
	movl	%r14d, %esi
	callq	ReportP.19
	popq	%rbx
	popq	%r14
	popq	%rbp
	.cfi_def_cfa %rsp, 8
	retq
.LBB17_2:                               # %func_ReportP.30
	.cfi_def_cfa %rbp, 16
	movl	%ebx, %edi
	movl	%r14d, %esi
	callq	ReportP.30
	popq	%rbx
	popq	%r14
	popq	%rbp
	.cfi_def_cfa %rsp, 8
	retq
.Lfunc_end17:
	.size	ReportP, .Lfunc_end17-ReportP
	.cfi_endproc
                                        # -- End function
	.globl	copy_params             # -- Begin function copy_params
	.p2align	4, 0x90
	.type	copy_params,@function
copy_params:                            # @copy_params
	.cfi_startproc
# %bb.0:                                # %entry
	pushq	%rbp
	.cfi_def_cfa_offset 16
	.cfi_offset %rbp, -16
	movq	%rsp, %rbp
	.cfi_def_cfa_register %rbp
	movq	active_sps, %rax
	movl	1148(%rax), %eax
	movq	enc_picture, %rcx
	movl	%eax, 6556(%rcx)
	movq	active_sps, %rax
	movl	1160(%rax), %eax
	movq	enc_picture, %rcx
	movl	%eax, 6560(%rcx)
	movq	active_sps, %rax
	movl	32(%rax), %eax
	movq	enc_picture, %rcx
	movl	%eax, 6552(%rcx)
	movq	active_sps, %rax
	cmpl	$0, 1160(%rax)
	je	.LBB18_2
# %bb.1:                                # %if.then
	movq	active_sps, %rax
	movl	1164(%rax), %eax
	movq	enc_picture, %rcx
	movl	%eax, 6564(%rcx)
	movq	active_sps, %rax
	movl	1168(%rax), %eax
	movq	enc_picture, %rcx
	movl	%eax, 6568(%rcx)
	movq	active_sps, %rax
	movl	1172(%rax), %eax
	movq	enc_picture, %rcx
	movl	%eax, 6572(%rcx)
	movq	active_sps, %rax
	movl	1176(%rax), %eax
	movq	enc_picture, %rcx
	movl	%eax, 6576(%rcx)
	jmp	.LBB18_3
.LBB18_2:                               # %if.else
	movq	enc_picture, %rax
	movl	$0, 6564(%rax)
	movq	enc_picture, %rax
	movl	$0, 6568(%rax)
	movq	enc_picture, %rax
	movl	$0, 6572(%rax)
	movq	enc_picture, %rax
	movl	$0, 6576(%rax)
.LBB18_3:                               # %if.end
	popq	%rbp
	.cfi_def_cfa %rsp, 8
	retq
.Lfunc_end18:
	.size	copy_params, .Lfunc_end18-copy_params
	.cfi_endproc
                                        # -- End function
	.p2align	4, 0x90         # -- Begin function distortion_fld
	.type	distortion_fld,@function
distortion_fld:                         # @distortion_fld
	.cfi_startproc
# %bb.0:                                # %rand_bb
	pushq	%rbp
	.cfi_def_cfa_offset 16
	.cfi_offset %rbp, -16
	movq	%rsp, %rbp
	.cfi_def_cfa_register %rbp
	pushq	%r15
	pushq	%r14
	pushq	%rbx
	pushq	%rax
	.cfi_offset %rbx, -40
	.cfi_offset %r14, -32
	.cfi_offset %r15, -24
	movq	%rdx, %r14
	movq	%rsi, %r15
	movq	%rdi, %rbx
	callq	get_urand
	cmpl	$0, %eax
	jne	.LBB19_7
# %bb.1:                                # %func_distortion_fld.36
	movq	%rbx, %rdi
	movq	%r15, %rsi
	movq	%r14, %rdx
	callq	distortion_fld.36
	addq	$8, %rsp
	popq	%rbx
	popq	%r14
	popq	%r15
	popq	%rbp
	.cfi_def_cfa %rsp, 8
	retq
.LBB19_2:                               # %func_distortion_fld.37
	.cfi_def_cfa %rbp, 16
	movq	%rbx, %rdi
	movq	%r15, %rsi
	movq	%r14, %rdx
	callq	distortion_fld.37
	addq	$8, %rsp
	popq	%rbx
	popq	%r14
	popq	%r15
	popq	%rbp
	.cfi_def_cfa %rsp, 8
	retq
.LBB19_3:                               # %func_distortion_fld.62
	.cfi_def_cfa %rbp, 16
	movq	%rbx, %rdi
	movq	%r15, %rsi
	movq	%r14, %rdx
	callq	distortion_fld.62
	addq	$8, %rsp
	popq	%rbx
	popq	%r14
	popq	%r15
	popq	%rbp
	.cfi_def_cfa %rsp, 8
	retq
.LBB19_4:                               # %func_distortion_fld.103
	.cfi_def_cfa %rbp, 16
	movq	%rbx, %rdi
	movq	%r15, %rsi
	movq	%r14, %rdx
	callq	distortion_fld.103
	addq	$8, %rsp
	popq	%rbx
	popq	%r14
	popq	%r15
	popq	%rbp
	.cfi_def_cfa %rsp, 8
	retq
.LBB19_5:                               # %func_distortion_fld.125
	.cfi_def_cfa %rbp, 16
	movq	%rbx, %rdi
	movq	%r15, %rsi
	movq	%r14, %rdx
	callq	distortion_fld.125
	addq	$8, %rsp
	popq	%rbx
	popq	%r14
	popq	%r15
	popq	%rbp
	.cfi_def_cfa %rsp, 8
	retq
.LBB19_6:                               # %func_distortion_fld.129
	.cfi_def_cfa %rbp, 16
	movq	%rbx, %rdi
	movq	%r15, %rsi
	movq	%r14, %rdx
	callq	distortion_fld.129
	addq	$8, %rsp
	popq	%rbx
	popq	%r14
	popq	%r15
	popq	%rbp
	.cfi_def_cfa %rsp, 8
	retq
.LBB19_7:                               # %ctrl0
	.cfi_def_cfa %rbp, 16
	cmpl	$1, %eax
	je	.LBB19_2
# %bb.8:                                # %ctrl1
	cmpl	$2, %eax
	je	.LBB19_3
# %bb.9:                                # %ctrl2
	cmpl	$3, %eax
	je	.LBB19_4
# %bb.10:                               # %ctrl3
	cmpl	$4, %eax
	je	.LBB19_5
	jmp	.LBB19_6
.Lfunc_end19:
	.size	distortion_fld, .Lfunc_end19-distortion_fld
	.cfi_endproc
                                        # -- End function
	.globl	UnifiedOneForthPix      # -- Begin function UnifiedOneForthPix
	.p2align	4, 0x90
	.type	UnifiedOneForthPix,@function
UnifiedOneForthPix:                     # @UnifiedOneForthPix
	.cfi_startproc
# %bb.0:                                # %rand_bb
	pushq	%rbp
	.cfi_def_cfa_offset 16
	.cfi_offset %rbp, -16
	movq	%rsp, %rbp
	.cfi_def_cfa_register %rbp
	pushq	%rbx
	pushq	%rax
	.cfi_offset %rbx, -24
	movq	%rdi, %rbx
	callq	get_urand
	cmpl	$0, %eax
	jne	.LBB20_9
# %bb.1:                                # %func_UnifiedOneForthPix.43
	movq	%rbx, %rdi
	callq	UnifiedOneForthPix.43
	addq	$8, %rsp
	popq	%rbx
	popq	%rbp
	.cfi_def_cfa %rsp, 8
	retq
.LBB20_2:                               # %func_UnifiedOneForthPix.44
	.cfi_def_cfa %rbp, 16
	movq	%rbx, %rdi
	callq	UnifiedOneForthPix.44
	addq	$8, %rsp
	popq	%rbx
	popq	%rbp
	.cfi_def_cfa %rsp, 8
	retq
.LBB20_3:                               # %func_UnifiedOneForthPix.59
	.cfi_def_cfa %rbp, 16
	movq	%rbx, %rdi
	callq	UnifiedOneForthPix.59
	addq	$8, %rsp
	popq	%rbx
	popq	%rbp
	.cfi_def_cfa %rsp, 8
	retq
.LBB20_4:                               # %func_UnifiedOneForthPix.79
	.cfi_def_cfa %rbp, 16
	movq	%rbx, %rdi
	callq	UnifiedOneForthPix.79
	addq	$8, %rsp
	popq	%rbx
	popq	%rbp
	.cfi_def_cfa %rsp, 8
	retq
.LBB20_5:                               # %func_UnifiedOneForthPix.104
	.cfi_def_cfa %rbp, 16
	movq	%rbx, %rdi
	callq	UnifiedOneForthPix.104
	addq	$8, %rsp
	popq	%rbx
	popq	%rbp
	.cfi_def_cfa %rsp, 8
	retq
.LBB20_6:                               # %func_UnifiedOneForthPix.120
	.cfi_def_cfa %rbp, 16
	movq	%rbx, %rdi
	callq	UnifiedOneForthPix.120
	addq	$8, %rsp
	popq	%rbx
	popq	%rbp
	.cfi_def_cfa %rsp, 8
	retq
.LBB20_7:                               # %func_UnifiedOneForthPix.130
	.cfi_def_cfa %rbp, 16
	movq	%rbx, %rdi
	callq	UnifiedOneForthPix.130
	addq	$8, %rsp
	popq	%rbx
	popq	%rbp
	.cfi_def_cfa %rsp, 8
	retq
.LBB20_8:                               # %func_UnifiedOneForthPix.170
	.cfi_def_cfa %rbp, 16
	movq	%rbx, %rdi
	callq	UnifiedOneForthPix.170
	addq	$8, %rsp
	popq	%rbx
	popq	%rbp
	.cfi_def_cfa %rsp, 8
	retq
.LBB20_9:                               # %ctrl0
	.cfi_def_cfa %rbp, 16
	cmpl	$1, %eax
	je	.LBB20_2
# %bb.10:                               # %ctrl1
	cmpl	$2, %eax
	je	.LBB20_3
# %bb.11:                               # %ctrl2
	cmpl	$3, %eax
	je	.LBB20_4
# %bb.12:                               # %ctrl3
	cmpl	$4, %eax
	je	.LBB20_5
# %bb.13:                               # %ctrl4
	cmpl	$5, %eax
	je	.LBB20_6
# %bb.14:                               # %ctrl5
	cmpl	$6, %eax
	je	.LBB20_7
	jmp	.LBB20_8
.Lfunc_end20:
	.size	UnifiedOneForthPix, .Lfunc_end20-UnifiedOneForthPix
	.cfi_endproc
                                        # -- End function
	.p2align	4, 0x90         # -- Begin function GenerateFullPelRepresentation
	.type	GenerateFullPelRepresentation,@function
GenerateFullPelRepresentation:          # @GenerateFullPelRepresentation
	.cfi_startproc
# %bb.0:                                # %rand_bb
	pushq	%rbp
	.cfi_def_cfa_offset 16
	.cfi_offset %rbp, -16
	movq	%rsp, %rbp
	.cfi_def_cfa_register %rbp
	pushq	%r15
	pushq	%r14
	pushq	%r12
	pushq	%rbx
	.cfi_offset %rbx, -48
	.cfi_offset %r12, -40
	.cfi_offset %r14, -32
	.cfi_offset %r15, -24
	movl	%ecx, %r14d
	movl	%edx, %r15d
	movq	%rsi, %r12
	movq	%rdi, %rbx
	callq	get_urand
	cmpl	$0, %eax
	jne	.LBB21_9
# %bb.1:                                # %func_GenerateFullPelRepresentation.28
	movq	%rbx, %rdi
	movq	%r12, %rsi
	movl	%r15d, %edx
	movl	%r14d, %ecx
	callq	GenerateFullPelRepresentation.28
	popq	%rbx
	popq	%r12
	popq	%r14
	popq	%r15
	popq	%rbp
	.cfi_def_cfa %rsp, 8
	retq
.LBB21_2:                               # %func_GenerateFullPelRepresentation.32
	.cfi_def_cfa %rbp, 16
	movq	%rbx, %rdi
	movq	%r12, %rsi
	movl	%r15d, %edx
	movl	%r14d, %ecx
	callq	GenerateFullPelRepresentation.32
	popq	%rbx
	popq	%r12
	popq	%r14
	popq	%r15
	popq	%rbp
	.cfi_def_cfa %rsp, 8
	retq
.LBB21_3:                               # %func_GenerateFullPelRepresentation.45
	.cfi_def_cfa %rbp, 16
	movq	%rbx, %rdi
	movq	%r12, %rsi
	movl	%r15d, %edx
	movl	%r14d, %ecx
	callq	GenerateFullPelRepresentation.45
	popq	%rbx
	popq	%r12
	popq	%r14
	popq	%r15
	popq	%rbp
	.cfi_def_cfa %rsp, 8
	retq
.LBB21_4:                               # %func_GenerateFullPelRepresentation.68
	.cfi_def_cfa %rbp, 16
	movq	%rbx, %rdi
	movq	%r12, %rsi
	movl	%r15d, %edx
	movl	%r14d, %ecx
	callq	GenerateFullPelRepresentation.68
	popq	%rbx
	popq	%r12
	popq	%r14
	popq	%r15
	popq	%rbp
	.cfi_def_cfa %rsp, 8
	retq
.LBB21_5:                               # %func_GenerateFullPelRepresentation.83
	.cfi_def_cfa %rbp, 16
	movq	%rbx, %rdi
	movq	%r12, %rsi
	movl	%r15d, %edx
	movl	%r14d, %ecx
	callq	GenerateFullPelRepresentation.83
	popq	%rbx
	popq	%r12
	popq	%r14
	popq	%r15
	popq	%rbp
	.cfi_def_cfa %rsp, 8
	retq
.LBB21_6:                               # %func_GenerateFullPelRepresentation.110
	.cfi_def_cfa %rbp, 16
	movq	%rbx, %rdi
	movq	%r12, %rsi
	movl	%r15d, %edx
	movl	%r14d, %ecx
	callq	GenerateFullPelRepresentation.110
	popq	%rbx
	popq	%r12
	popq	%r14
	popq	%r15
	popq	%rbp
	.cfi_def_cfa %rsp, 8
	retq
.LBB21_7:                               # %func_GenerateFullPelRepresentation.117
	.cfi_def_cfa %rbp, 16
	movq	%rbx, %rdi
	movq	%r12, %rsi
	movl	%r15d, %edx
	movl	%r14d, %ecx
	callq	GenerateFullPelRepresentation.117
	popq	%rbx
	popq	%r12
	popq	%r14
	popq	%r15
	popq	%rbp
	.cfi_def_cfa %rsp, 8
	retq
.LBB21_8:                               # %func_GenerateFullPelRepresentation.139
	.cfi_def_cfa %rbp, 16
	movq	%rbx, %rdi
	movq	%r12, %rsi
	movl	%r15d, %edx
	movl	%r14d, %ecx
	callq	GenerateFullPelRepresentation.139
	popq	%rbx
	popq	%r12
	popq	%r14
	popq	%r15
	popq	%rbp
	.cfi_def_cfa %rsp, 8
	retq
.LBB21_9:                               # %ctrl0
	.cfi_def_cfa %rbp, 16
	cmpl	$1, %eax
	je	.LBB21_2
# %bb.10:                               # %ctrl1
	cmpl	$2, %eax
	je	.LBB21_3
# %bb.11:                               # %ctrl2
	cmpl	$3, %eax
	je	.LBB21_4
# %bb.12:                               # %ctrl3
	cmpl	$4, %eax
	je	.LBB21_5
# %bb.13:                               # %ctrl4
	cmpl	$5, %eax
	je	.LBB21_6
# %bb.14:                               # %ctrl5
	cmpl	$6, %eax
	je	.LBB21_7
	jmp	.LBB21_8
.Lfunc_end21:
	.size	GenerateFullPelRepresentation, .Lfunc_end21-GenerateFullPelRepresentation
	.cfi_endproc
                                        # -- End function
	.globl	dummy_slice_too_big     # -- Begin function dummy_slice_too_big
	.p2align	4, 0x90
	.type	dummy_slice_too_big,@function
dummy_slice_too_big:                    # @dummy_slice_too_big
	.cfi_startproc
# %bb.0:                                # %entry
	pushq	%rbp
	.cfi_def_cfa_offset 16
	.cfi_offset %rbp, -16
	movq	%rsp, %rbp
	.cfi_def_cfa_register %rbp
	movl	%edi, -4(%rbp)
	xorl	%eax, %eax
	popq	%rbp
	.cfi_def_cfa %rsp, 8
	retq
.Lfunc_end22:
	.size	dummy_slice_too_big, .Lfunc_end22-dummy_slice_too_big
	.cfi_endproc
                                        # -- End function
	.globl	copy_rdopt_data         # -- Begin function copy_rdopt_data
	.p2align	4, 0x90
	.type	copy_rdopt_data,@function
copy_rdopt_data:                        # @copy_rdopt_data
	.cfi_startproc
# %bb.0:                                # %rand_bb
	pushq	%rbp
	.cfi_def_cfa_offset 16
	.cfi_offset %rbp, -16
	movq	%rsp, %rbp
	.cfi_def_cfa_register %rbp
	pushq	%rbx
	pushq	%rax
	.cfi_offset %rbx, -24
	movl	%edi, %ebx
	callq	get_urand
	cmpl	$0, %eax
	jne	.LBB23_9
# %bb.1:                                # %func_copy_rdopt_data.14
	movl	%ebx, %edi
	callq	copy_rdopt_data.14
	addq	$8, %rsp
	popq	%rbx
	popq	%rbp
	.cfi_def_cfa %rsp, 8
	retq
.LBB23_2:                               # %func_copy_rdopt_data.25
	.cfi_def_cfa %rbp, 16
	movl	%ebx, %edi
	callq	copy_rdopt_data.25
	addq	$8, %rsp
	popq	%rbx
	popq	%rbp
	.cfi_def_cfa %rsp, 8
	retq
.LBB23_3:                               # %func_copy_rdopt_data.99
	.cfi_def_cfa %rbp, 16
	movl	%ebx, %edi
	callq	copy_rdopt_data.99
	addq	$8, %rsp
	popq	%rbx
	popq	%rbp
	.cfi_def_cfa %rsp, 8
	retq
.LBB23_4:                               # %func_copy_rdopt_data.127
	.cfi_def_cfa %rbp, 16
	movl	%ebx, %edi
	callq	copy_rdopt_data.127
	addq	$8, %rsp
	popq	%rbx
	popq	%rbp
	.cfi_def_cfa %rsp, 8
	retq
.LBB23_5:                               # %func_copy_rdopt_data.156
	.cfi_def_cfa %rbp, 16
	movl	%ebx, %edi
	callq	copy_rdopt_data.156
	addq	$8, %rsp
	popq	%rbx
	popq	%rbp
	.cfi_def_cfa %rsp, 8
	retq
.LBB23_6:                               # %func_copy_rdopt_data.158
	.cfi_def_cfa %rbp, 16
	movl	%ebx, %edi
	callq	copy_rdopt_data.158
	addq	$8, %rsp
	popq	%rbx
	popq	%rbp
	.cfi_def_cfa %rsp, 8
	retq
.LBB23_7:                               # %func_copy_rdopt_data.165
	.cfi_def_cfa %rbp, 16
	movl	%ebx, %edi
	callq	copy_rdopt_data.165
	addq	$8, %rsp
	popq	%rbx
	popq	%rbp
	.cfi_def_cfa %rsp, 8
	retq
.LBB23_8:                               # %func_copy_rdopt_data.178
	.cfi_def_cfa %rbp, 16
	movl	%ebx, %edi
	callq	copy_rdopt_data.178
	addq	$8, %rsp
	popq	%rbx
	popq	%rbp
	.cfi_def_cfa %rsp, 8
	retq
.LBB23_9:                               # %ctrl0
	.cfi_def_cfa %rbp, 16
	cmpl	$1, %eax
	je	.LBB23_2
# %bb.10:                               # %ctrl1
	cmpl	$2, %eax
	je	.LBB23_3
# %bb.11:                               # %ctrl2
	cmpl	$3, %eax
	je	.LBB23_4
# %bb.12:                               # %ctrl3
	cmpl	$4, %eax
	je	.LBB23_5
# %bb.13:                               # %ctrl4
	cmpl	$5, %eax
	je	.LBB23_6
# %bb.14:                               # %ctrl5
	cmpl	$6, %eax
	je	.LBB23_7
	jmp	.LBB23_8
.Lfunc_end23:
	.size	copy_rdopt_data, .Lfunc_end23-copy_rdopt_data
	.cfi_endproc
                                        # -- End function
	.globl	buf2img                 # -- Begin function buf2img
	.p2align	4, 0x90
	.type	buf2img,@function
buf2img:                                # @buf2img
	.cfi_startproc
# %bb.0:                                # %rand_bb
	pushq	%rbp
	.cfi_def_cfa_offset 16
	.cfi_offset %rbp, -16
	movq	%rsp, %rbp
	.cfi_def_cfa_register %rbp
	pushq	%r15
	pushq	%r14
	pushq	%r13
	pushq	%r12
	pushq	%rbx
	pushq	%rax
	.cfi_offset %rbx, -56
	.cfi_offset %r12, -48
	.cfi_offset %r13, -40
	.cfi_offset %r14, -32
	.cfi_offset %r15, -24
	movl	%r8d, %r14d
	movl	%ecx, %r15d
	movl	%edx, %r12d
	movq	%rsi, %r13
	movq	%rdi, %rbx
	callq	get_urand
	cmpl	$0, %eax
	jne	.LBB24_9
# %bb.1:                                # %func_buf2img.7
	movq	%rbx, %rdi
	movq	%r13, %rsi
	movl	%r12d, %edx
	movl	%r15d, %ecx
	movl	%r14d, %r8d
	callq	buf2img.7
	addq	$8, %rsp
	popq	%rbx
	popq	%r12
	popq	%r13
	popq	%r14
	popq	%r15
	popq	%rbp
	.cfi_def_cfa %rsp, 8
	retq
.LBB24_2:                               # %func_buf2img.33
	.cfi_def_cfa %rbp, 16
	movq	%rbx, %rdi
	movq	%r13, %rsi
	movl	%r12d, %edx
	movl	%r15d, %ecx
	movl	%r14d, %r8d
	callq	buf2img.33
	addq	$8, %rsp
	popq	%rbx
	popq	%r12
	popq	%r13
	popq	%r14
	popq	%r15
	popq	%rbp
	.cfi_def_cfa %rsp, 8
	retq
.LBB24_3:                               # %func_buf2img.35
	.cfi_def_cfa %rbp, 16
	movq	%rbx, %rdi
	movq	%r13, %rsi
	movl	%r12d, %edx
	movl	%r15d, %ecx
	movl	%r14d, %r8d
	callq	buf2img.35
	addq	$8, %rsp
	popq	%rbx
	popq	%r12
	popq	%r13
	popq	%r14
	popq	%r15
	popq	%rbp
	.cfi_def_cfa %rsp, 8
	retq
.LBB24_4:                               # %func_buf2img.40
	.cfi_def_cfa %rbp, 16
	movq	%rbx, %rdi
	movq	%r13, %rsi
	movl	%r12d, %edx
	movl	%r15d, %ecx
	movl	%r14d, %r8d
	callq	buf2img.40
	addq	$8, %rsp
	popq	%rbx
	popq	%r12
	popq	%r13
	popq	%r14
	popq	%r15
	popq	%rbp
	.cfi_def_cfa %rsp, 8
	retq
.LBB24_5:                               # %func_buf2img.54
	.cfi_def_cfa %rbp, 16
	movq	%rbx, %rdi
	movq	%r13, %rsi
	movl	%r12d, %edx
	movl	%r15d, %ecx
	movl	%r14d, %r8d
	callq	buf2img.54
	addq	$8, %rsp
	popq	%rbx
	popq	%r12
	popq	%r13
	popq	%r14
	popq	%r15
	popq	%rbp
	.cfi_def_cfa %rsp, 8
	retq
.LBB24_6:                               # %func_buf2img.64
	.cfi_def_cfa %rbp, 16
	movq	%rbx, %rdi
	movq	%r13, %rsi
	movl	%r12d, %edx
	movl	%r15d, %ecx
	movl	%r14d, %r8d
	callq	buf2img.64
	addq	$8, %rsp
	popq	%rbx
	popq	%r12
	popq	%r13
	popq	%r14
	popq	%r15
	popq	%rbp
	.cfi_def_cfa %rsp, 8
	retq
.LBB24_7:                               # %func_buf2img.93
	.cfi_def_cfa %rbp, 16
	movq	%rbx, %rdi
	movq	%r13, %rsi
	movl	%r12d, %edx
	movl	%r15d, %ecx
	movl	%r14d, %r8d
	callq	buf2img.93
	addq	$8, %rsp
	popq	%rbx
	popq	%r12
	popq	%r13
	popq	%r14
	popq	%r15
	popq	%rbp
	.cfi_def_cfa %rsp, 8
	retq
.LBB24_8:                               # %func_buf2img.142
	.cfi_def_cfa %rbp, 16
	movq	%rbx, %rdi
	movq	%r13, %rsi
	movl	%r12d, %edx
	movl	%r15d, %ecx
	movl	%r14d, %r8d
	callq	buf2img.142
	addq	$8, %rsp
	popq	%rbx
	popq	%r12
	popq	%r13
	popq	%r14
	popq	%r15
	popq	%rbp
	.cfi_def_cfa %rsp, 8
	retq
.LBB24_9:                               # %ctrl0
	.cfi_def_cfa %rbp, 16
	cmpl	$1, %eax
	je	.LBB24_2
# %bb.10:                               # %ctrl1
	cmpl	$2, %eax
	je	.LBB24_3
# %bb.11:                               # %ctrl2
	cmpl	$3, %eax
	je	.LBB24_4
# %bb.12:                               # %ctrl3
	cmpl	$4, %eax
	je	.LBB24_5
# %bb.13:                               # %ctrl4
	cmpl	$5, %eax
	je	.LBB24_6
# %bb.14:                               # %ctrl5
	cmpl	$6, %eax
	je	.LBB24_7
	jmp	.LBB24_8
.Lfunc_end24:
	.size	buf2img, .Lfunc_end24-buf2img
	.cfi_endproc
                                        # -- End function
	.p2align	4, 0x90         # -- Begin function writeUnit
	.type	writeUnit,@function
writeUnit:                              # @writeUnit
	.cfi_startproc
# %bb.0:                                # %rand_bb
	pushq	%rbp
	.cfi_def_cfa_offset 16
	.cfi_offset %rbp, -16
	movq	%rsp, %rbp
	.cfi_def_cfa_register %rbp
	pushq	%r14
	pushq	%rbx
	.cfi_offset %rbx, -32
	.cfi_offset %r14, -24
	movl	%esi, %r14d
	movq	%rdi, %rbx
	callq	get_urand
	cmpl	$0, %eax
	jne	.LBB25_7
# %bb.1:                                # %func_writeUnit.55
	movq	%rbx, %rdi
	movl	%r14d, %esi
	callq	writeUnit.55
	popq	%rbx
	popq	%r14
	popq	%rbp
	.cfi_def_cfa %rsp, 8
	retq
.LBB25_2:                               # %func_writeUnit.137
	.cfi_def_cfa %rbp, 16
	movq	%rbx, %rdi
	movl	%r14d, %esi
	callq	writeUnit.137
	popq	%rbx
	popq	%r14
	popq	%rbp
	.cfi_def_cfa %rsp, 8
	retq
.LBB25_3:                               # %func_writeUnit.138
	.cfi_def_cfa %rbp, 16
	movq	%rbx, %rdi
	movl	%r14d, %esi
	callq	writeUnit.138
	popq	%rbx
	popq	%r14
	popq	%rbp
	.cfi_def_cfa %rsp, 8
	retq
.LBB25_4:                               # %func_writeUnit.141
	.cfi_def_cfa %rbp, 16
	movq	%rbx, %rdi
	movl	%r14d, %esi
	callq	writeUnit.141
	popq	%rbx
	popq	%r14
	popq	%rbp
	.cfi_def_cfa %rsp, 8
	retq
.LBB25_5:                               # %func_writeUnit.171
	.cfi_def_cfa %rbp, 16
	movq	%rbx, %rdi
	movl	%r14d, %esi
	callq	writeUnit.171
	popq	%rbx
	popq	%r14
	popq	%rbp
	.cfi_def_cfa %rsp, 8
	retq
.LBB25_6:                               # %func_writeUnit.179
	.cfi_def_cfa %rbp, 16
	movq	%rbx, %rdi
	movl	%r14d, %esi
	callq	writeUnit.179
	popq	%rbx
	popq	%r14
	popq	%rbp
	.cfi_def_cfa %rsp, 8
	retq
.LBB25_7:                               # %ctrl0
	.cfi_def_cfa %rbp, 16
	cmpl	$1, %eax
	je	.LBB25_2
# %bb.8:                                # %ctrl1
	cmpl	$2, %eax
	je	.LBB25_3
# %bb.9:                                # %ctrl2
	cmpl	$3, %eax
	je	.LBB25_4
# %bb.10:                               # %ctrl3
	cmpl	$4, %eax
	je	.LBB25_5
	jmp	.LBB25_6
.Lfunc_end25:
	.size	writeUnit, .Lfunc_end25-writeUnit
	.cfi_endproc
                                        # -- End function
	.p2align	4, 0x90         # -- Begin function init_frame
	.type	init_frame,@function
init_frame:                             # @init_frame
	.cfi_startproc
# %bb.0:                                # %rand_bb
	pushq	%rbp
	.cfi_def_cfa_offset 16
	.cfi_offset %rbp, -16
	movq	%rsp, %rbp
	.cfi_def_cfa_register %rbp
	callq	get_urand
	cmpl	$0, %eax
	jne	.LBB26_7
# %bb.1:                                # %func_init_frame.72
	callq	init_frame.72
	popq	%rbp
	.cfi_def_cfa %rsp, 8
	retq
.LBB26_2:                               # %func_init_frame.76
	.cfi_def_cfa %rbp, 16
	callq	init_frame.76
	popq	%rbp
	.cfi_def_cfa %rsp, 8
	retq
.LBB26_3:                               # %func_init_frame.81
	.cfi_def_cfa %rbp, 16
	callq	init_frame.81
	popq	%rbp
	.cfi_def_cfa %rsp, 8
	retq
.LBB26_4:                               # %func_init_frame.90
	.cfi_def_cfa %rbp, 16
	callq	init_frame.90
	popq	%rbp
	.cfi_def_cfa %rsp, 8
	retq
.LBB26_5:                               # %func_init_frame.163
	.cfi_def_cfa %rbp, 16
	callq	init_frame.163
	popq	%rbp
	.cfi_def_cfa %rsp, 8
	retq
.LBB26_6:                               # %func_init_frame.164
	.cfi_def_cfa %rbp, 16
	callq	init_frame.164
	popq	%rbp
	.cfi_def_cfa %rsp, 8
	retq
.LBB26_7:                               # %ctrl0
	.cfi_def_cfa %rbp, 16
	cmpl	$1, %eax
	je	.LBB26_2
# %bb.8:                                # %ctrl1
	cmpl	$2, %eax
	je	.LBB26_3
# %bb.9:                                # %ctrl2
	cmpl	$3, %eax
	je	.LBB26_4
# %bb.10:                               # %ctrl3
	cmpl	$4, %eax
	je	.LBB26_5
	jmp	.LBB26_6
.Lfunc_end26:
	.size	init_frame, .Lfunc_end26-init_frame
	.cfi_endproc
                                        # -- End function
	.p2align	4, 0x90         # -- Begin function init_dec_ref_pic_marking_buffer
	.type	init_dec_ref_pic_marking_buffer,@function
init_dec_ref_pic_marking_buffer:        # @init_dec_ref_pic_marking_buffer
	.cfi_startproc
# %bb.0:                                # %entry
	pushq	%rbp
	.cfi_def_cfa_offset 16
	.cfi_offset %rbp, -16
	movq	%rsp, %rbp
	.cfi_def_cfa_register %rbp
	movq	img, %rax
	movq	$0, 72512(%rax)
	popq	%rbp
	.cfi_def_cfa %rsp, 8
	retq
.Lfunc_end27:
	.size	init_dec_ref_pic_marking_buffer, .Lfunc_end27-init_dec_ref_pic_marking_buffer
	.cfi_endproc
                                        # -- End function
	.p2align	4, 0x90         # -- Begin function init_field
	.type	init_field,@function
init_field:                             # @init_field
	.cfi_startproc
# %bb.0:                                # %rand_bb
	pushq	%rbp
	.cfi_def_cfa_offset 16
	.cfi_offset %rbp, -16
	movq	%rsp, %rbp
	.cfi_def_cfa_register %rbp
	callq	get_urand
	cmpl	$0, %eax
	jne	.LBB28_7
# %bb.1:                                # %func_init_field.26
	callq	init_field.26
	popq	%rbp
	.cfi_def_cfa %rsp, 8
	retq
.LBB28_2:                               # %func_init_field.63
	.cfi_def_cfa %rbp, 16
	callq	init_field.63
	popq	%rbp
	.cfi_def_cfa %rsp, 8
	retq
.LBB28_3:                               # %func_init_field.94
	.cfi_def_cfa %rbp, 16
	callq	init_field.94
	popq	%rbp
	.cfi_def_cfa %rsp, 8
	retq
.LBB28_4:                               # %func_init_field.101
	.cfi_def_cfa %rbp, 16
	callq	init_field.101
	popq	%rbp
	.cfi_def_cfa %rsp, 8
	retq
.LBB28_5:                               # %func_init_field.147
	.cfi_def_cfa %rbp, 16
	callq	init_field.147
	popq	%rbp
	.cfi_def_cfa %rsp, 8
	retq
.LBB28_6:                               # %func_init_field.148
	.cfi_def_cfa %rbp, 16
	callq	init_field.148
	popq	%rbp
	.cfi_def_cfa %rsp, 8
	retq
.LBB28_7:                               # %ctrl0
	.cfi_def_cfa %rbp, 16
	cmpl	$1, %eax
	je	.LBB28_2
# %bb.8:                                # %ctrl1
	cmpl	$2, %eax
	je	.LBB28_3
# %bb.9:                                # %ctrl2
	cmpl	$3, %eax
	je	.LBB28_4
# %bb.10:                               # %ctrl3
	cmpl	$4, %eax
	je	.LBB28_5
	jmp	.LBB28_6
.Lfunc_end28:
	.size	init_field, .Lfunc_end28-init_field
	.cfi_endproc
                                        # -- End function
	.p2align	4, 0x90         # -- Begin function find_snr
	.type	find_snr,@function
find_snr:                               # @find_snr
	.cfi_startproc
# %bb.0:                                # %rand_bb
	pushq	%rbp
	.cfi_def_cfa_offset 16
	.cfi_offset %rbp, -16
	movq	%rsp, %rbp
	.cfi_def_cfa_register %rbp
	callq	get_urand
	cmpl	$0, %eax
	jne	.LBB29_9
# %bb.1:                                # %func_find_snr.47
	callq	find_snr.47
	popq	%rbp
	.cfi_def_cfa %rsp, 8
	retq
.LBB29_2:                               # %func_find_snr.67
	.cfi_def_cfa %rbp, 16
	callq	find_snr.67
	popq	%rbp
	.cfi_def_cfa %rsp, 8
	retq
.LBB29_3:                               # %func_find_snr.77
	.cfi_def_cfa %rbp, 16
	callq	find_snr.77
	popq	%rbp
	.cfi_def_cfa %rsp, 8
	retq
.LBB29_4:                               # %func_find_snr.108
	.cfi_def_cfa %rbp, 16
	callq	find_snr.108
	popq	%rbp
	.cfi_def_cfa %rsp, 8
	retq
.LBB29_5:                               # %func_find_snr.111
	.cfi_def_cfa %rbp, 16
	callq	find_snr.111
	popq	%rbp
	.cfi_def_cfa %rsp, 8
	retq
.LBB29_6:                               # %func_find_snr.115
	.cfi_def_cfa %rbp, 16
	callq	find_snr.115
	popq	%rbp
	.cfi_def_cfa %rsp, 8
	retq
.LBB29_7:                               # %func_find_snr.121
	.cfi_def_cfa %rbp, 16
	callq	find_snr.121
	popq	%rbp
	.cfi_def_cfa %rsp, 8
	retq
.LBB29_8:                               # %func_find_snr.157
	.cfi_def_cfa %rbp, 16
	callq	find_snr.157
	popq	%rbp
	.cfi_def_cfa %rsp, 8
	retq
.LBB29_9:                               # %ctrl0
	.cfi_def_cfa %rbp, 16
	cmpl	$1, %eax
	je	.LBB29_2
# %bb.10:                               # %ctrl1
	cmpl	$2, %eax
	je	.LBB29_3
# %bb.11:                               # %ctrl2
	cmpl	$3, %eax
	je	.LBB29_4
# %bb.12:                               # %ctrl3
	cmpl	$4, %eax
	je	.LBB29_5
# %bb.13:                               # %ctrl4
	cmpl	$5, %eax
	je	.LBB29_6
# %bb.14:                               # %ctrl5
	cmpl	$6, %eax
	je	.LBB29_7
	jmp	.LBB29_8
.Lfunc_end29:
	.size	find_snr, .Lfunc_end29-find_snr
	.cfi_endproc
                                        # -- End function
	.p2align	4, 0x90         # -- Begin function find_distortion
	.type	find_distortion,@function
find_distortion:                        # @find_distortion
	.cfi_startproc
# %bb.0:                                # %rand_bb
	pushq	%rbp
	.cfi_def_cfa_offset 16
	.cfi_offset %rbp, -16
	movq	%rsp, %rbp
	.cfi_def_cfa_register %rbp
	callq	get_urand
	cmpl	$0, %eax
	jne	.LBB30_9
# %bb.1:                                # %func_find_distortion.12
	callq	find_distortion.12
	popq	%rbp
	.cfi_def_cfa %rsp, 8
	retq
.LBB30_2:                               # %func_find_distortion.23
	.cfi_def_cfa %rbp, 16
	callq	find_distortion.23
	popq	%rbp
	.cfi_def_cfa %rsp, 8
	retq
.LBB30_3:                               # %func_find_distortion.29
	.cfi_def_cfa %rbp, 16
	callq	find_distortion.29
	popq	%rbp
	.cfi_def_cfa %rsp, 8
	retq
.LBB30_4:                               # %func_find_distortion.46
	.cfi_def_cfa %rbp, 16
	callq	find_distortion.46
	popq	%rbp
	.cfi_def_cfa %rsp, 8
	retq
.LBB30_5:                               # %func_find_distortion.73
	.cfi_def_cfa %rbp, 16
	callq	find_distortion.73
	popq	%rbp
	.cfi_def_cfa %rsp, 8
	retq
.LBB30_6:                               # %func_find_distortion.118
	.cfi_def_cfa %rbp, 16
	callq	find_distortion.118
	popq	%rbp
	.cfi_def_cfa %rsp, 8
	retq
.LBB30_7:                               # %func_find_distortion.124
	.cfi_def_cfa %rbp, 16
	callq	find_distortion.124
	popq	%rbp
	.cfi_def_cfa %rsp, 8
	retq
.LBB30_8:                               # %func_find_distortion.145
	.cfi_def_cfa %rbp, 16
	callq	find_distortion.145
	popq	%rbp
	.cfi_def_cfa %rsp, 8
	retq
.LBB30_9:                               # %ctrl0
	.cfi_def_cfa %rbp, 16
	cmpl	$1, %eax
	je	.LBB30_2
# %bb.10:                               # %ctrl1
	cmpl	$2, %eax
	je	.LBB30_3
# %bb.11:                               # %ctrl2
	cmpl	$3, %eax
	je	.LBB30_4
# %bb.12:                               # %ctrl3
	cmpl	$4, %eax
	je	.LBB30_5
# %bb.13:                               # %ctrl4
	cmpl	$5, %eax
	je	.LBB30_6
# %bb.14:                               # %ctrl5
	cmpl	$6, %eax
	je	.LBB30_7
	jmp	.LBB30_8
.Lfunc_end30:
	.size	find_distortion, .Lfunc_end30-find_distortion
	.cfi_endproc
                                        # -- End function
	.p2align	4, 0x90         # -- Begin function copy_motion_vectors_MB
	.type	copy_motion_vectors_MB,@function
copy_motion_vectors_MB:                 # @copy_motion_vectors_MB
	.cfi_startproc
# %bb.0:                                # %rand_bb
	pushq	%rbp
	.cfi_def_cfa_offset 16
	.cfi_offset %rbp, -16
	movq	%rsp, %rbp
	.cfi_def_cfa_register %rbp
	callq	get_urand
	cmpl	$0, %eax
	jne	.LBB31_9
# %bb.1:                                # %func_copy_motion_vectors_MB.42
	callq	copy_motion_vectors_MB.42
	popq	%rbp
	.cfi_def_cfa %rsp, 8
	retq
.LBB31_2:                               # %func_copy_motion_vectors_MB.52
	.cfi_def_cfa %rbp, 16
	callq	copy_motion_vectors_MB.52
	popq	%rbp
	.cfi_def_cfa %rsp, 8
	retq
.LBB31_3:                               # %func_copy_motion_vectors_MB.53
	.cfi_def_cfa %rbp, 16
	callq	copy_motion_vectors_MB.53
	popq	%rbp
	.cfi_def_cfa %rsp, 8
	retq
.LBB31_4:                               # %func_copy_motion_vectors_MB.65
	.cfi_def_cfa %rbp, 16
	callq	copy_motion_vectors_MB.65
	popq	%rbp
	.cfi_def_cfa %rsp, 8
	retq
.LBB31_5:                               # %func_copy_motion_vectors_MB.84
	.cfi_def_cfa %rbp, 16
	callq	copy_motion_vectors_MB.84
	popq	%rbp
	.cfi_def_cfa %rsp, 8
	retq
.LBB31_6:                               # %func_copy_motion_vectors_MB.92
	.cfi_def_cfa %rbp, 16
	callq	copy_motion_vectors_MB.92
	popq	%rbp
	.cfi_def_cfa %rsp, 8
	retq
.LBB31_7:                               # %func_copy_motion_vectors_MB.119
	.cfi_def_cfa %rbp, 16
	callq	copy_motion_vectors_MB.119
	popq	%rbp
	.cfi_def_cfa %rsp, 8
	retq
.LBB31_8:                               # %func_copy_motion_vectors_MB.144
	.cfi_def_cfa %rbp, 16
	callq	copy_motion_vectors_MB.144
	popq	%rbp
	.cfi_def_cfa %rsp, 8
	retq
.LBB31_9:                               # %ctrl0
	.cfi_def_cfa %rbp, 16
	cmpl	$1, %eax
	je	.LBB31_2
# %bb.10:                               # %ctrl1
	cmpl	$2, %eax
	je	.LBB31_3
# %bb.11:                               # %ctrl2
	cmpl	$3, %eax
	je	.LBB31_4
# %bb.12:                               # %ctrl3
	cmpl	$4, %eax
	je	.LBB31_5
# %bb.13:                               # %ctrl4
	cmpl	$5, %eax
	je	.LBB31_6
# %bb.14:                               # %ctrl5
	cmpl	$6, %eax
	je	.LBB31_7
	jmp	.LBB31_8
.Lfunc_end31:
	.size	copy_motion_vectors_MB, .Lfunc_end31-copy_motion_vectors_MB
	.cfi_endproc
                                        # -- End function
	.p2align	4, 0x90         # -- Begin function CalculateFrameNumber
	.type	CalculateFrameNumber,@function
CalculateFrameNumber:                   # @CalculateFrameNumber
	.cfi_startproc
# %bb.0:                                # %entry
	pushq	%rbp
	.cfi_def_cfa_offset 16
	.cfi_offset %rbp, -16
	movq	%rsp, %rbp
	.cfi_def_cfa_register %rbp
	movq	img, %rax
	cmpl	$0, 71908(%rax)
	je	.LBB32_5
# %bb.1:                                # %if.then
	movq	input, %rax
	cmpl	$0, 1320(%rax)
	je	.LBB32_3
# %bb.2:                                # %if.then2
	movl	start_tr_in_this_IGOP, %eax
	movq	img, %rcx
	movl	(%rcx), %ecx
	subl	start_frame_no_in_this_IGOP, %ecx
	subl	$1, %ecx
	movq	input, %rdx
	movl	20(%rdx), %edx
	addl	$1, %edx
	imull	%edx, %ecx
	addl	%ecx, %eax
	movq	img, %rcx
	vmovsd	71896(%rcx), %xmm0      # xmm0 = mem[0],zero
	movq	gop_structure, %rcx
	movq	img, %rdx
	movl	71908(%rdx), %edx
	subl	$1, %edx
	movslq	%edx, %rdx
	imulq	$24, %rdx, %rdx
	addq	%rdx, %rcx
	movl	4(%rcx), %ecx
	addl	$1, %ecx
	vcvtsi2sd	%ecx, %xmm0, %xmm1
	vmulsd	%xmm1, %xmm0, %xmm0
	vcvttsd2si	%xmm0, %ecx
	addl	%ecx, %eax
	movl	%eax, frame_no
	jmp	.LBB32_4
.LBB32_3:                               # %if.else
	movl	start_tr_in_this_IGOP, %eax
	movq	img, %rcx
	movl	(%rcx), %ecx
	subl	start_frame_no_in_this_IGOP, %ecx
	subl	$1, %ecx
	movq	input, %rdx
	movl	20(%rdx), %edx
	addl	$1, %edx
	imull	%edx, %ecx
	addl	%ecx, %eax
	movq	img, %rcx
	vmovsd	71896(%rcx), %xmm0      # xmm0 = mem[0],zero
	movq	img, %rcx
	vcvtsi2sdl	71908(%rcx), %xmm0, %xmm1
	vmulsd	%xmm1, %xmm0, %xmm0
	vcvttsd2si	%xmm0, %ecx
	addl	%ecx, %eax
	movl	%eax, frame_no
.LBB32_4:                               # %if.end
	jmp	.LBB32_9
.LBB32_5:                               # %if.else24
	movl	start_tr_in_this_IGOP, %eax
	movq	img, %rcx
	movl	(%rcx), %ecx
	subl	start_frame_no_in_this_IGOP, %ecx
	movq	input, %rdx
	movl	20(%rdx), %edx
	addl	$1, %edx
	imull	%edx, %ecx
	addl	%ecx, %eax
	movl	%eax, frame_no
	movq	input, %rax
	cmpl	$0, 2440(%rax)
	je	.LBB32_8
# %bb.6:                                # %land.lhs.true
	movq	img, %rax
	movl	(%rax), %eax
	addl	$1, %eax
	movq	input, %rcx
	cmpl	8(%rcx), %eax
	jne	.LBB32_8
# %bb.7:                                # %if.then35
	movq	input, %rax
	movl	2440(%rax), %eax
	movl	%eax, frame_no
.LBB32_8:                               # %if.end37
	jmp	.LBB32_9
.LBB32_9:                               # %if.end38
	movl	frame_no, %eax
	popq	%rbp
	.cfi_def_cfa %rsp, 8
	retq
.Lfunc_end32:
	.size	CalculateFrameNumber, .Lfunc_end32-CalculateFrameNumber
	.cfi_endproc
                                        # -- End function
	.p2align	4, 0x90         # -- Begin function put_buffer_frame
	.type	put_buffer_frame,@function
put_buffer_frame:                       # @put_buffer_frame
	.cfi_startproc
# %bb.0:                                # %entry
	pushq	%rbp
	.cfi_def_cfa_offset 16
	.cfi_offset %rbp, -16
	movq	%rsp, %rbp
	.cfi_def_cfa_register %rbp
	movq	imgY_org_frm, %rax
	movq	%rax, imgY_org
	movq	imgUV_org_frm, %rax
	movq	%rax, imgUV_org
	popq	%rbp
	.cfi_def_cfa %rsp, 8
	retq
.Lfunc_end33:
	.size	put_buffer_frame, .Lfunc_end33-put_buffer_frame
	.cfi_endproc
                                        # -- End function
	.p2align	4, 0x90         # -- Begin function put_buffer_top
	.type	put_buffer_top,@function
put_buffer_top:                         # @put_buffer_top
	.cfi_startproc
# %bb.0:                                # %entry
	pushq	%rbp
	.cfi_def_cfa_offset 16
	.cfi_offset %rbp, -16
	movq	%rsp, %rbp
	.cfi_def_cfa_register %rbp
	movq	img, %rax
	movl	$0, 71796(%rax)
	movq	imgY_org_top, %rax
	movq	%rax, imgY_org
	movq	imgUV_org_top, %rax
	movq	%rax, imgUV_org
	popq	%rbp
	.cfi_def_cfa %rsp, 8
	retq
.Lfunc_end34:
	.size	put_buffer_top, .Lfunc_end34-put_buffer_top
	.cfi_endproc
                                        # -- End function
	.p2align	4, 0x90         # -- Begin function put_buffer_bot
	.type	put_buffer_bot,@function
put_buffer_bot:                         # @put_buffer_bot
	.cfi_startproc
# %bb.0:                                # %entry
	pushq	%rbp
	.cfi_def_cfa_offset 16
	.cfi_offset %rbp, -16
	movq	%rsp, %rbp
	.cfi_def_cfa_register %rbp
	movq	img, %rax
	movl	$1, 71796(%rax)
	movq	imgY_org_bot, %rax
	movq	%rax, imgY_org
	movq	imgUV_org_bot, %rax
	movq	%rax, imgUV_org
	popq	%rbp
	.cfi_def_cfa %rsp, 8
	retq
.Lfunc_end35:
	.size	put_buffer_bot, .Lfunc_end35-put_buffer_bot
	.cfi_endproc
                                        # -- End function
	.p2align	4, 0x90         # -- Begin function rdPictureCoding
	.type	rdPictureCoding,@function
rdPictureCoding:                        # @rdPictureCoding
	.cfi_startproc
# %bb.0:                                # %rand_bb
	pushq	%rbp
	.cfi_def_cfa_offset 16
	.cfi_offset %rbp, -16
	movq	%rsp, %rbp
	.cfi_def_cfa_register %rbp
	callq	get_urand
	cmpl	$0, %eax
	jne	.LBB36_9
# %bb.1:                                # %func_rdPictureCoding.3
	callq	rdPictureCoding.3
	popq	%rbp
	.cfi_def_cfa %rsp, 8
	retq
.LBB36_2:                               # %func_rdPictureCoding.100
	.cfi_def_cfa %rbp, 16
	callq	rdPictureCoding.100
	popq	%rbp
	.cfi_def_cfa %rsp, 8
	retq
.LBB36_3:                               # %func_rdPictureCoding.160
	.cfi_def_cfa %rbp, 16
	callq	rdPictureCoding.160
	popq	%rbp
	.cfi_def_cfa %rsp, 8
	retq
.LBB36_4:                               # %func_rdPictureCoding.167
	.cfi_def_cfa %rbp, 16
	callq	rdPictureCoding.167
	popq	%rbp
	.cfi_def_cfa %rsp, 8
	retq
.LBB36_5:                               # %func_rdPictureCoding.177
	.cfi_def_cfa %rbp, 16
	callq	rdPictureCoding.177
	popq	%rbp
	.cfi_def_cfa %rsp, 8
	retq
.LBB36_6:                               # %func_rdPictureCoding.185
	.cfi_def_cfa %rbp, 16
	callq	rdPictureCoding.185
	popq	%rbp
	.cfi_def_cfa %rsp, 8
	retq
.LBB36_7:                               # %func_rdPictureCoding.187
	.cfi_def_cfa %rbp, 16
	callq	rdPictureCoding.187
	popq	%rbp
	.cfi_def_cfa %rsp, 8
	retq
.LBB36_8:                               # %func_rdPictureCoding.188
	.cfi_def_cfa %rbp, 16
	callq	rdPictureCoding.188
	popq	%rbp
	.cfi_def_cfa %rsp, 8
	retq
.LBB36_9:                               # %ctrl0
	.cfi_def_cfa %rbp, 16
	cmpl	$1, %eax
	je	.LBB36_2
# %bb.10:                               # %ctrl1
	cmpl	$2, %eax
	je	.LBB36_3
# %bb.11:                               # %ctrl2
	cmpl	$3, %eax
	je	.LBB36_4
# %bb.12:                               # %ctrl3
	cmpl	$4, %eax
	je	.LBB36_5
# %bb.13:                               # %ctrl4
	cmpl	$5, %eax
	je	.LBB36_6
# %bb.14:                               # %ctrl5
	cmpl	$6, %eax
	je	.LBB36_7
	jmp	.LBB36_8
.Lfunc_end36:
	.size	rdPictureCoding, .Lfunc_end36-rdPictureCoding
	.cfi_endproc
                                        # -- End function
	.globl	code_a_picture.1        # -- Begin function code_a_picture.1
	.p2align	4, 0x90
	.type	code_a_picture.1,@function
code_a_picture.1:                       # @code_a_picture.1
	.cfi_startproc
# %bb.0:                                # %entry
	pushq	%rbp
	.cfi_def_cfa_offset 16
	.cfi_offset %rbp, -16
	movq	%rsp, %rbp
	.cfi_def_cfa_register %rbp
	subq	$32, %rsp
	movl	$1818999244, -28(%rbp)  # imm = 0x6C6BB9CC
	movq	%rdi, -24(%rbp)
	movl	$0, -12(%rbp)
	movl	$0, -8(%rbp)
	movq	-24(%rbp), %rax
	movq	img, %rcx
	movq	%rax, 14152(%rcx)
	movq	img, %rax
	movl	(%rax), %eax
	subl	start_frame_no_in_this_IGOP, %eax
	cmpl	$0, %eax
	jne	.LBB37_2
# %bb.1:                                # %land.lhs.true
	movq	img, %rax
	cmpl	$2, 28(%rax)
	movb	$1, %al
	jne	.LBB37_8
.LBB37_2:                               # %lor.rhs
	xorl	%eax, %eax
	movq	input, %rcx
	cmpl	$0, 1228(%rcx)
	je	.LBB37_7
# %bb.3:                                # %land.lhs.true2
	movq	img, %rax
	cmpl	$2, 24(%rax)
	je	.LBB37_6
# %bb.4:                                # %lor.lhs.false
	movq	img, %rax
	cmpl	$3, 24(%rax)
	je	.LBB37_6
# %bb.5:                                # %lor.lhs.false6
	xorl	%eax, %eax
	movq	img, %rcx
	cmpl	$4, 24(%rcx)
	jne	.LBB37_7
.LBB37_6:                               # %land.rhs
	movq	img, %rax
	cmpl	$2, 28(%rax)
	sete	%al
	xorb	$-1, %al
.LBB37_7:                               # %land.end
.LBB37_8:                               # %lor.end
	andb	$1, %al
	movzbl	%al, %eax
	movq	img, %rcx
	movq	14152(%rcx), %rcx
	movl	%eax, 4(%rcx)
	movq	-24(%rbp), %rax
	movl	$0, (%rax)
	movq	-24(%rbp), %rax
	vxorps	%xmm0, %xmm0, %xmm0
	vmovss	%xmm0, 812(%rax)
	movq	-24(%rbp), %rax
	vmovss	%xmm0, 820(%rax)
	movq	-24(%rbp), %rax
	vmovss	%xmm0, 816(%rax)
	movb	$0, %al
	callq	RandomIntraNewPicture
	movq	img, %rax
	movl	$1, 72652(%rax)
	movq	img, %rdi
	movq	active_pps, %rsi
	movq	active_sps, %rdx
	callq	FmoInit
	movb	$0, %al
	callq	FmoStartPicture
	movb	$0, %al
	callq	CalculateQuantParam
	movb	$0, %al
	callq	CalculateOffsetParam
	movq	input, %rax
	cmpl	$0, 3220(%rax)
	je	.LBB37_10
# %bb.9:                                # %if.then
	movb	$0, %al
	callq	CalculateQuant8Param
	movb	$0, %al
	callq	CalculateOffset8Param
.LBB37_10:                              # %if.end
	jmp	.LBB37_11
.LBB37_11:                              # %while.cond
                                        # =>This Loop Header: Depth=1
                                        #     Child Loop BB37_13 Depth 2
	movl	-12(%rbp), %eax
	movq	img, %rcx
	cmpl	16(%rcx), %eax
	jge	.LBB37_16
# %bb.12:                               # %while.body
                                        #   in Loop: Header=BB37_11 Depth=1
	jmp	.LBB37_13
.LBB37_13:                              # %while.cond15
                                        #   Parent Loop BB37_11 Depth=1
                                        # =>  This Inner Loop Header: Depth=2
	movl	-8(%rbp), %edi
	callq	FmoSliceGroupCompletelyCoded
	cmpl	$0, %eax
	setne	%al
	xorb	$-1, %al
	testb	$1, %al
	jne	.LBB37_14
	jmp	.LBB37_15
.LBB37_14:                              # %while.body19
                                        #   in Loop: Header=BB37_13 Depth=2
	movl	-8(%rbp), %edi
	movq	-24(%rbp), %rsi
	callq	encode_one_slice
	addl	-12(%rbp), %eax
	movl	%eax, -12(%rbp)
	movq	img, %rax
	movl	12(%rax), %edi
	callq	FmoSetLastMacroblockInSlice
	movq	img, %rax
	movl	20(%rax), %ecx
	addl	$1, %ecx
	movl	%ecx, 20(%rax)
	movq	stats, %rax
	movl	$0, 24(%rax)
	jmp	.LBB37_13
.LBB37_15:                              # %while.end
                                        #   in Loop: Header=BB37_11 Depth=1
	movl	-8(%rbp), %eax
	addl	$1, %eax
	movl	%eax, -8(%rbp)
	jmp	.LBB37_11
.LBB37_16:                              # %while.end22
	movb	$0, %al
	callq	FmoEndPicture
	movq	input, %rax
	cmpl	$2, 2464(%rax)
	jne	.LBB37_23
# %bb.17:                               # %land.lhs.true25
	movq	img, %rax
	cmpl	$1, 24(%rax)
	je	.LBB37_23
# %bb.18:                               # %if.then28
	movl	$0, -4(%rbp)
.LBB37_19:                              # %for.cond
                                        # =>This Inner Loop Header: Depth=1
	movl	-4(%rbp), %eax
	movq	input, %rcx
	cmpl	2904(%rcx), %eax
	jge	.LBB37_22
# %bb.20:                               # %for.body
                                        #   in Loop: Header=BB37_19 Depth=1
	movq	img, %rdi
	movq	decs, %rax
	movq	24(%rax), %rax
	movslq	-4(%rbp), %rcx
	movq	(%rax,%rcx,8), %rsi
	xorl	%edx, %edx
	callq	DeblockFrame
# %bb.21:                               # %for.inc
                                        #   in Loop: Header=BB37_19 Depth=1
	movl	-4(%rbp), %eax
	addl	$1, %eax
	movl	%eax, -4(%rbp)
	jmp	.LBB37_19
.LBB37_22:                              # %for.end
	jmp	.LBB37_23
.LBB37_23:                              # %if.end31
	movq	img, %rdi
	movq	enc_picture, %rax
	movq	6424(%rax), %rsi
	movq	enc_picture, %rax
	movq	6464(%rax), %rdx
	callq	DeblockFrame
	movq	img, %rax
	cmpl	$0, 72400(%rax)
	je	.LBB37_25
# %bb.24:                               # %if.then33
	callq	MbAffPostProc
.LBB37_25:                              # %if.end34
	cmpl	$1818999244, -28(%rbp)  # imm = 0x6C6BB9CC
	jne	.LBB37_27
.LBB37_26:
	addq	$32, %rsp
	popq	%rbp
	.cfi_def_cfa %rsp, 8
	retq
.LBB37_27:                              # %func_exit
	.cfi_def_cfa %rbp, 16
	callq	detect_breach
	jmp	.LBB37_26
.Lfunc_end37:
	.size	code_a_picture.1, .Lfunc_end37-code_a_picture.1
	.cfi_endproc
                                        # -- End function
	.p2align	4, 0x90         # -- Begin function ReportIntra.2
	.type	ReportIntra.2,@function
ReportIntra.2:                          # @ReportIntra.2
	.cfi_startproc
# %bb.0:                                # %entry
	pushq	%rbp
	.cfi_def_cfa_offset 16
	.cfi_offset %rbp, -16
	movq	%rsp, %rbp
	.cfi_def_cfa_register %rbp
	subq	$48, %rsp
	movl	$350687078, -12(%rbp)   # imm = 0x14E70F66
	movl	%edi, -4(%rbp)
	movl	%esi, -8(%rbp)
	movq	img, %rax
	movq	14152(%rax), %rax
	cmpl	$1, 4(%rax)
	jne	.LBB38_2
# %bb.1:                                # %if.then
	movl	frame_no, %esi
	movq	stats, %rax
	movl	16(%rax), %edx
	movq	stats, %rax
	subl	20(%rax), %edx
	movq	img, %rax
	movl	40(%rax), %r8d
	movq	snr, %rax
	vmovss	(%rax), %xmm0           # xmm0 = mem[0],zero,zero,zero
	vcvtss2sd	%xmm0, %xmm0, %xmm0
	movq	snr, %rax
	vmovss	4(%rax), %xmm1          # xmm1 = mem[0],zero,zero,zero
	vcvtss2sd	%xmm1, %xmm0, %xmm1
	movq	snr, %rax
	vmovss	8(%rax), %xmm2          # xmm2 = mem[0],zero,zero,zero
	vcvtss2sd	%xmm2, %xmm0, %xmm2
	movl	-4(%rbp), %r9d
	movl	-8(%rbp), %r10d
	movq	img, %rcx
	movl	71800(%rcx), %ecx
	cmpl	$0, %ecx
	movabsq	$.L.str.7, %rcx
	movabsq	$.L.str.8, %rax
	cmovneq	%rcx, %rax
	movl	intras, %r11d
	movabsq	$.L.str.6, %rdi
	movl	$0, %ecx
	movl	%r10d, (%rsp)
	movq	%rax, 8(%rsp)
	movl	%r11d, 16(%rsp)
	movb	$3, %al
	callq	printf
	jmp	.LBB38_3
.LBB38_2:                               # %if.else
	movl	frame_no, %esi
	movq	stats, %rax
	movl	16(%rax), %edx
	movq	stats, %rax
	subl	20(%rax), %edx
	movq	img, %rax
	movl	40(%rax), %r8d
	movq	snr, %rax
	vmovss	(%rax), %xmm0           # xmm0 = mem[0],zero,zero,zero
	vcvtss2sd	%xmm0, %xmm0, %xmm0
	movq	snr, %rax
	vmovss	4(%rax), %xmm1          # xmm1 = mem[0],zero,zero,zero
	vcvtss2sd	%xmm1, %xmm0, %xmm1
	movq	snr, %rax
	vmovss	8(%rax), %xmm2          # xmm2 = mem[0],zero,zero,zero
	vcvtss2sd	%xmm2, %xmm0, %xmm2
	movl	-4(%rbp), %r9d
	movl	-8(%rbp), %r10d
	movq	img, %rcx
	movl	71800(%rcx), %ecx
	cmpl	$0, %ecx
	movabsq	$.L.str.7, %rcx
	movabsq	$.L.str.8, %rax
	cmovneq	%rcx, %rax
	movl	intras, %r11d
	movabsq	$.L.str.9, %rdi
	movl	$0, %ecx
	movl	%r10d, (%rsp)
	movq	%rax, 8(%rsp)
	movl	%r11d, 16(%rsp)
	movb	$3, %al
	callq	printf
.LBB38_3:                               # %if.end
	cmpl	$350687078, -12(%rbp)   # imm = 0x14E70F66
	jne	.LBB38_5
.LBB38_4:
	addq	$48, %rsp
	popq	%rbp
	.cfi_def_cfa %rsp, 8
	retq
.LBB38_5:                               # %func_exit
	.cfi_def_cfa %rbp, 16
	callq	detect_breach
	jmp	.LBB38_4
.Lfunc_end38:
	.size	ReportIntra.2, .Lfunc_end38-ReportIntra.2
	.cfi_endproc
                                        # -- End function
	.p2align	4, 0x90         # -- Begin function rdPictureCoding.3
	.type	rdPictureCoding.3,@function
rdPictureCoding.3:                      # @rdPictureCoding.3
	.cfi_startproc
# %bb.0:                                # %entry
	pushq	%rbp
	.cfi_def_cfa_offset 16
	.cfi_offset %rbp, -16
	movq	%rsp, %rbp
	.cfi_def_cfa_register %rbp
	subq	$32, %rsp
	movl	$1827039738, -24(%rbp)  # imm = 0x6CE669FA
	movq	img, %rax
	movl	40(%rax), %eax
	movl	%eax, -20(%rbp)
	movq	img, %rax
	movl	40(%rax), %eax
	movl	%eax, -4(%rbp)
	movl	intras, %eax
	movl	%eax, -12(%rbp)
	movq	img, %rax
	movl	24(%rax), %eax
	movl	%eax, -16(%rbp)
	movl	$0, -8(%rbp)
	movq	img, %rax
	cmpl	$2, 24(%rax)
	je	.LBB39_9
# %bb.1:                                # %land.lhs.true
	movq	input, %rax
	cmpl	$0, 60(%rax)
	je	.LBB39_9
# %bb.2:                                # %if.then
	movq	img, %rax
	cmpl	$0, 24(%rax)
	jne	.LBB39_7
# %bb.3:                                # %if.then5
	xorl	%edi, %edi
	callq	test_wp_P_slice
	cmpl	$1, %eax
	jne	.LBB39_5
# %bb.4:                                # %if.then7
	movabsq	$PicParSet, %rax
	addq	$240, %rax
	movq	%rax, active_pps
	jmp	.LBB39_6
.LBB39_5:                               # %if.else
	movq	input, %rax
	movl	1304(%rax), %eax
	movl	%eax, -8(%rbp)
	movabsq	$PicParSet, %rax
	movq	%rax, active_pps
	movq	img, %rax
	movl	40(%rax), %ecx
	subl	$1, %ecx
	movl	%ecx, 40(%rax)
.LBB39_6:                               # %if.end
	jmp	.LBB39_8
.LBB39_7:                               # %if.else9
	movabsq	$PicParSet, %rax
	addq	$480, %rax              # imm = 0x1E0
	movq	%rax, active_pps
.LBB39_8:                               # %if.end10
	jmp	.LBB39_10
.LBB39_9:                               # %if.else11
	movq	img, %rax
	movl	40(%rax), %ecx
	subl	$1, %ecx
	movl	%ecx, 40(%rax)
.LBB39_10:                              # %if.end14
	movq	active_pps, %rax
	movq	%rax, -32(%rbp)
	movq	img, %rax
	movl	40(%rax), %eax
	movl	%eax, -20(%rbp)
	movq	img, %rax
	movl	$0, 72624(%rax)
	cmpl	$0, -8(%rbp)
	je	.LBB39_12
# %bb.11:                               # %if.then17
	movq	img, %rax
	movl	$0, 71804(%rax)
	movq	$0, enc_frame_picture2
	jmp	.LBB39_13
.LBB39_12:                              # %if.else18
	movq	frame_pic2, %rdi
	movl	$1, %esi
	callq	frame_picture
	movq	frame_pic, %rdi
	movq	frame_pic2, %rsi
	movl	-4(%rbp), %edx
	callq	picture_coding_decision
	movq	img, %rcx
	movl	%eax, 71804(%rcx)
.LBB39_13:                              # %if.end21
	movq	img, %rax
	cmpl	$0, 71804(%rax)
	jne	.LBB39_19
# %bb.14:                               # %if.then24
	movq	enc_frame_picture, %rax
	movq	%rax, enc_picture
	movq	img, %rax
	cmpl	$2, 24(%rax)
	je	.LBB39_17
# %bb.15:                               # %land.lhs.true27
	movq	input, %rax
	cmpl	$0, 60(%rax)
	je	.LBB39_17
# %bb.16:                               # %if.then30
	movl	-4(%rbp), %eax
	movq	img, %rcx
	movl	%eax, 40(%rcx)
	movabsq	$PicParSet, %rax
	movq	%rax, active_pps
	jmp	.LBB39_18
.LBB39_17:                              # %if.else32
	movl	-4(%rbp), %eax
	movq	img, %rcx
	movl	%eax, 40(%rcx)
.LBB39_18:                              # %if.end34
	movl	-12(%rbp), %eax
	movl	%eax, intras
	jmp	.LBB39_20
.LBB39_19:                              # %if.else35
	movl	intras, %eax
	movl	%eax, -12(%rbp)
.LBB39_20:                              # %if.end36
	movq	img, %rax
	cmpl	$2, 24(%rax)
	je	.LBB39_35
# %bb.21:                               # %land.lhs.true39
	movq	input, %rax
	cmpl	$0, 60(%rax)
	je	.LBB39_35
# %bb.22:                               # %if.then42
	movl	$0, -8(%rbp)
	movl	-4(%rbp), %eax
	movq	img, %rcx
	movl	%eax, 40(%rcx)
	movq	img, %rax
	cmpl	$0, 24(%rax)
	jne	.LBB39_27
# %bb.23:                               # %if.then46
	movl	$1, %edi
	callq	test_wp_P_slice
	cmpl	$1, %eax
	jne	.LBB39_25
# %bb.24:                               # %if.then49
	movabsq	$PicParSet, %rax
	addq	$240, %rax
	movq	%rax, active_pps
	jmp	.LBB39_26
.LBB39_25:                              # %if.else50
	movq	input, %rax
	movl	1304(%rax), %eax
	movl	%eax, -8(%rbp)
	movabsq	$PicParSet, %rax
	movq	%rax, active_pps
	movq	img, %rax
	movl	40(%rax), %ecx
	addl	$1, %ecx
	movl	%ecx, 40(%rax)
.LBB39_26:                              # %if.end53
	jmp	.LBB39_34
.LBB39_27:                              # %if.else54
	xorl	%edi, %edi
	callq	test_wp_B_slice
	cmpl	$1, %eax
	jne	.LBB39_29
# %bb.28:                               # %if.then57
	movabsq	$PicParSet, %rax
	addq	$240, %rax
	movq	%rax, active_pps
	jmp	.LBB39_33
.LBB39_29:                              # %if.else58
	movq	input, %rax
	movl	1308(%rax), %eax
	movl	%eax, -8(%rbp)
	movq	img, %rax
	cmpl	$0, 72496(%rax)
	je	.LBB39_31
# %bb.30:                               # %if.then60
	movl	-4(%rbp), %eax
	subl	$1, %eax
	movq	img, %rcx
	movl	%eax, 40(%rcx)
	jmp	.LBB39_32
.LBB39_31:                              # %if.else63
	movl	-4(%rbp), %eax
	addl	$1, %eax
	movq	img, %rcx
	movl	%eax, 40(%rcx)
.LBB39_32:                              # %if.end66
	jmp	.LBB39_33
.LBB39_33:                              # %if.end67
	jmp	.LBB39_34
.LBB39_34:                              # %if.end68
	jmp	.LBB39_36
.LBB39_35:                              # %if.else69
	movabsq	$PicParSet, %rax
	movq	%rax, active_pps
	movl	-4(%rbp), %eax
	addl	$1, %eax
	movq	img, %rcx
	movl	%eax, 40(%rcx)
.LBB39_36:                              # %if.end72
	movq	img, %rax
	cmpl	$0, 24(%rax)
	jne	.LBB39_40
# %bb.37:                               # %land.lhs.true75
	movq	input, %rax
	cmpl	$0, 60(%rax)
	je	.LBB39_40
# %bb.38:                               # %land.lhs.true78
	imull	$100, intras, %eax
	movq	img, %rcx
	xorl	%edx, %edx
	divl	72488(%rcx)
	cmpl	$75, %eax
	jb	.LBB39_40
# %bb.39:                               # %if.then80
	movq	img, %rax
	movl	$2, 24(%rax)
	movabsq	$PicParSet, %rax
	movq	%rax, active_pps
.LBB39_40:                              # %if.end82
	movq	img, %rax
	movl	$0, 72624(%rax)
	cmpl	$0, -8(%rbp)
	je	.LBB39_42
# %bb.41:                               # %if.then85
	movq	$0, enc_frame_picture3
	movl	-4(%rbp), %eax
	movq	img, %rcx
	movl	%eax, 40(%rcx)
	jmp	.LBB39_46
.LBB39_42:                              # %if.else87
	movq	frame_pic3, %rdi
	movl	$2, %esi
	callq	frame_picture
	movq	img, %rax
	cmpl	$0, 71804(%rax)
	jne	.LBB39_44
# %bb.43:                               # %if.then90
	movq	frame_pic, %rdi
	movq	frame_pic3, %rsi
	movl	-4(%rbp), %edx
	callq	picture_coding_decision
	shll	$1, %eax
	movq	img, %rcx
	movl	%eax, 71804(%rcx)
	jmp	.LBB39_45
.LBB39_44:                              # %if.else94
	movq	frame_pic2, %rdi
	movq	frame_pic3, %rsi
	movl	-4(%rbp), %edx
	callq	picture_coding_decision
	movq	img, %rcx
	addl	71804(%rcx), %eax
	movl	%eax, 71804(%rcx)
.LBB39_45:                              # %if.end98
	jmp	.LBB39_46
.LBB39_46:                              # %if.end99
	movq	img, %rax
	cmpl	$0, 71804(%rax)
	jne	.LBB39_48
# %bb.47:                               # %if.then102
	movq	enc_frame_picture, %rax
	movq	%rax, enc_picture
	movl	-16(%rbp), %eax
	movq	img, %rcx
	movl	%eax, 24(%rcx)
	movabsq	$PicParSet, %rax
	movq	%rax, active_pps
	movl	-4(%rbp), %eax
	movq	img, %rcx
	movl	%eax, 40(%rcx)
	movl	-12(%rbp), %eax
	movl	%eax, intras
	jmp	.LBB39_51
.LBB39_48:                              # %if.else105
	movq	img, %rax
	cmpl	$1, 71804(%rax)
	jne	.LBB39_50
# %bb.49:                               # %if.then108
	movq	enc_frame_picture2, %rax
	movq	%rax, enc_picture
	movl	-16(%rbp), %eax
	movq	img, %rcx
	movl	%eax, 24(%rcx)
	movq	-32(%rbp), %rax
	movq	%rax, active_pps
	movl	-20(%rbp), %eax
	movq	img, %rcx
	movl	%eax, 40(%rcx)
	movl	-12(%rbp), %eax
	movl	%eax, intras
.LBB39_50:                              # %if.end111
	jmp	.LBB39_51
.LBB39_51:                              # %if.end112
	cmpl	$1827039738, -24(%rbp)  # imm = 0x6CE669FA
	jne	.LBB39_53
.LBB39_52:
	addq	$32, %rsp
	popq	%rbp
	.cfi_def_cfa %rsp, 8
	retq
.LBB39_53:                              # %func_exit
	.cfi_def_cfa %rbp, 16
	callq	detect_breach
	jmp	.LBB39_52
.Lfunc_end39:
	.size	rdPictureCoding.3, .Lfunc_end39-rdPictureCoding.3
	.cfi_endproc
                                        # -- End function
	.globl	code_a_picture.4        # -- Begin function code_a_picture.4
	.p2align	4, 0x90
	.type	code_a_picture.4,@function
code_a_picture.4:                       # @code_a_picture.4
	.cfi_startproc
# %bb.0:                                # %entry
	pushq	%rbp
	.cfi_def_cfa_offset 16
	.cfi_offset %rbp, -16
	movq	%rsp, %rbp
	.cfi_def_cfa_register %rbp
	subq	$32, %rsp
	movl	$1438719808, -28(%rbp)  # imm = 0x55C11F40
	movq	%rdi, -24(%rbp)
	movl	$0, -12(%rbp)
	movl	$0, -8(%rbp)
	movq	-24(%rbp), %rax
	movq	img, %rcx
	movq	%rax, 14152(%rcx)
	movq	img, %rax
	movl	(%rax), %eax
	subl	start_frame_no_in_this_IGOP, %eax
	cmpl	$0, %eax
	jne	.LBB40_2
# %bb.1:                                # %land.lhs.true
	movq	img, %rax
	cmpl	$2, 28(%rax)
	movb	$1, %al
	jne	.LBB40_8
.LBB40_2:                               # %lor.rhs
	xorl	%eax, %eax
	movq	input, %rcx
	cmpl	$0, 1228(%rcx)
	je	.LBB40_7
# %bb.3:                                # %land.lhs.true2
	movq	img, %rax
	cmpl	$2, 24(%rax)
	je	.LBB40_6
# %bb.4:                                # %lor.lhs.false
	movq	img, %rax
	cmpl	$3, 24(%rax)
	je	.LBB40_6
# %bb.5:                                # %lor.lhs.false6
	xorl	%eax, %eax
	movq	img, %rcx
	cmpl	$4, 24(%rcx)
	jne	.LBB40_7
.LBB40_6:                               # %land.rhs
	movq	img, %rax
	cmpl	$2, 28(%rax)
	sete	%al
	xorb	$-1, %al
.LBB40_7:                               # %land.end
.LBB40_8:                               # %lor.end
	andb	$1, %al
	movzbl	%al, %eax
	movq	img, %rcx
	movq	14152(%rcx), %rcx
	movl	%eax, 4(%rcx)
	movq	-24(%rbp), %rax
	movl	$0, (%rax)
	movq	-24(%rbp), %rax
	vxorps	%xmm0, %xmm0, %xmm0
	vmovss	%xmm0, 812(%rax)
	movq	-24(%rbp), %rax
	vmovss	%xmm0, 820(%rax)
	movq	-24(%rbp), %rax
	vmovss	%xmm0, 816(%rax)
	movb	$0, %al
	callq	RandomIntraNewPicture
	movq	img, %rax
	movl	$1, 72652(%rax)
	movq	img, %rdi
	movq	active_pps, %rsi
	movq	active_sps, %rdx
	callq	FmoInit
	movb	$0, %al
	callq	FmoStartPicture
	movb	$0, %al
	callq	CalculateQuantParam
	movb	$0, %al
	callq	CalculateOffsetParam
	movq	input, %rax
	cmpl	$0, 3220(%rax)
	je	.LBB40_10
# %bb.9:                                # %if.then
	movb	$0, %al
	callq	CalculateQuant8Param
	movb	$0, %al
	callq	CalculateOffset8Param
.LBB40_10:                              # %if.end
	jmp	.LBB40_11
.LBB40_11:                              # %while.cond
                                        # =>This Loop Header: Depth=1
                                        #     Child Loop BB40_13 Depth 2
	movl	-12(%rbp), %eax
	movq	img, %rcx
	cmpl	16(%rcx), %eax
	jge	.LBB40_16
# %bb.12:                               # %while.body
                                        #   in Loop: Header=BB40_11 Depth=1
	jmp	.LBB40_13
.LBB40_13:                              # %while.cond15
                                        #   Parent Loop BB40_11 Depth=1
                                        # =>  This Inner Loop Header: Depth=2
	movl	-8(%rbp), %edi
	callq	FmoSliceGroupCompletelyCoded
	cmpl	$0, %eax
	setne	%al
	xorb	$-1, %al
	testb	$1, %al
	jne	.LBB40_14
	jmp	.LBB40_15
.LBB40_14:                              # %while.body19
                                        #   in Loop: Header=BB40_13 Depth=2
	movl	-8(%rbp), %edi
	movq	-24(%rbp), %rsi
	callq	encode_one_slice
	addl	-12(%rbp), %eax
	movl	%eax, -12(%rbp)
	movq	img, %rax
	movl	12(%rax), %edi
	callq	FmoSetLastMacroblockInSlice
	movq	img, %rax
	movl	20(%rax), %ecx
	addl	$1, %ecx
	movl	%ecx, 20(%rax)
	movq	stats, %rax
	movl	$0, 24(%rax)
	jmp	.LBB40_13
.LBB40_15:                              # %while.end
                                        #   in Loop: Header=BB40_11 Depth=1
	movl	-8(%rbp), %eax
	addl	$1, %eax
	movl	%eax, -8(%rbp)
	jmp	.LBB40_11
.LBB40_16:                              # %while.end22
	movb	$0, %al
	callq	FmoEndPicture
	movq	input, %rax
	cmpl	$2, 2464(%rax)
	jne	.LBB40_23
# %bb.17:                               # %land.lhs.true25
	movq	img, %rax
	cmpl	$1, 24(%rax)
	je	.LBB40_23
# %bb.18:                               # %if.then28
	movl	$0, -4(%rbp)
.LBB40_19:                              # %for.cond
                                        # =>This Inner Loop Header: Depth=1
	movl	-4(%rbp), %eax
	movq	input, %rcx
	cmpl	2904(%rcx), %eax
	jge	.LBB40_22
# %bb.20:                               # %for.body
                                        #   in Loop: Header=BB40_19 Depth=1
	movq	img, %rdi
	movq	decs, %rax
	movq	24(%rax), %rax
	movslq	-4(%rbp), %rcx
	movq	(%rax,%rcx,8), %rsi
	xorl	%edx, %edx
	callq	DeblockFrame
# %bb.21:                               # %for.inc
                                        #   in Loop: Header=BB40_19 Depth=1
	movl	-4(%rbp), %eax
	addl	$1, %eax
	movl	%eax, -4(%rbp)
	jmp	.LBB40_19
.LBB40_22:                              # %for.end
	jmp	.LBB40_23
.LBB40_23:                              # %if.end31
	movq	img, %rdi
	movq	enc_picture, %rax
	movq	6424(%rax), %rsi
	movq	enc_picture, %rax
	movq	6464(%rax), %rdx
	callq	DeblockFrame
	movq	img, %rax
	cmpl	$0, 72400(%rax)
	je	.LBB40_25
# %bb.24:                               # %if.then33
	callq	MbAffPostProc
.LBB40_25:                              # %if.end34
	cmpl	$1438719808, -28(%rbp)  # imm = 0x55C11F40
	jne	.LBB40_27
.LBB40_26:
	addq	$32, %rsp
	popq	%rbp
	.cfi_def_cfa %rsp, 8
	retq
.LBB40_27:                              # %func_exit
	.cfi_def_cfa %rbp, 16
	callq	detect_breach
	jmp	.LBB40_26
.Lfunc_end40:
	.size	code_a_picture.4, .Lfunc_end40-code_a_picture.4
	.cfi_endproc
                                        # -- End function
	.p2align	4, 0x90         # -- Begin function PaddAutoCropBorders.5
	.type	PaddAutoCropBorders.5,@function
PaddAutoCropBorders.5:                  # @PaddAutoCropBorders.5
	.cfi_startproc
# %bb.0:                                # %entry
	pushq	%rbp
	.cfi_def_cfa_offset 16
	.cfi_offset %rbp, -16
	movq	%rsp, %rbp
	.cfi_def_cfa_register %rbp
	subq	$48, %rsp
	movl	24(%rbp), %eax
	movl	16(%rbp), %eax
	movl	$901159054, -24(%rbp)   # imm = 0x35B6988E
	movl	%edi, -28(%rbp)
	movl	%esi, -16(%rbp)
	movl	%edx, -12(%rbp)
	movl	%ecx, -32(%rbp)
	movl	%r8d, -36(%rbp)
	movl	%r9d, -20(%rbp)
	movl	$0, -4(%rbp)
.LBB41_1:                               # %for.cond
                                        # =>This Loop Header: Depth=1
                                        #     Child Loop BB41_3 Depth 2
	movl	-4(%rbp), %eax
	cmpl	-16(%rbp), %eax
	jge	.LBB41_8
# %bb.2:                                # %for.body
                                        #   in Loop: Header=BB41_1 Depth=1
	movl	-28(%rbp), %eax
	movl	%eax, -8(%rbp)
.LBB41_3:                               # %for.cond1
                                        #   Parent Loop BB41_1 Depth=1
                                        # =>  This Inner Loop Header: Depth=2
	movl	-8(%rbp), %eax
	cmpl	-12(%rbp), %eax
	jge	.LBB41_6
# %bb.4:                                # %for.body3
                                        #   in Loop: Header=BB41_3 Depth=2
	movq	imgY_org_frm, %rax
	movslq	-4(%rbp), %rcx
	movq	(%rax,%rcx,8), %rax
	movl	-8(%rbp), %ecx
	subl	$1, %ecx
	movslq	%ecx, %rcx
	movw	(%rax,%rcx,2), %ax
	movq	imgY_org_frm, %rcx
	movslq	-4(%rbp), %rdx
	movq	(%rcx,%rdx,8), %rcx
	movslq	-8(%rbp), %rdx
	movw	%ax, (%rcx,%rdx,2)
# %bb.5:                                # %for.inc
                                        #   in Loop: Header=BB41_3 Depth=2
	movl	-8(%rbp), %eax
	addl	$1, %eax
	movl	%eax, -8(%rbp)
	jmp	.LBB41_3
.LBB41_6:                               # %for.end
                                        #   in Loop: Header=BB41_1 Depth=1
	jmp	.LBB41_7
.LBB41_7:                               # %for.inc10
                                        #   in Loop: Header=BB41_1 Depth=1
	movl	-4(%rbp), %eax
	addl	$1, %eax
	movl	%eax, -4(%rbp)
	jmp	.LBB41_1
.LBB41_8:                               # %for.end12
	movl	-16(%rbp), %eax
	movl	%eax, -4(%rbp)
.LBB41_9:                               # %for.cond13
                                        # =>This Loop Header: Depth=1
                                        #     Child Loop BB41_11 Depth 2
	movl	-4(%rbp), %eax
	cmpl	-32(%rbp), %eax
	jge	.LBB41_16
# %bb.10:                               # %for.body15
                                        #   in Loop: Header=BB41_9 Depth=1
	movl	$0, -8(%rbp)
.LBB41_11:                              # %for.cond16
                                        #   Parent Loop BB41_9 Depth=1
                                        # =>  This Inner Loop Header: Depth=2
	movl	-8(%rbp), %eax
	cmpl	-12(%rbp), %eax
	jge	.LBB41_14
# %bb.12:                               # %for.body18
                                        #   in Loop: Header=BB41_11 Depth=2
	movq	imgY_org_frm, %rax
	movl	-4(%rbp), %ecx
	subl	$1, %ecx
	movslq	%ecx, %rcx
	movq	(%rax,%rcx,8), %rax
	movslq	-8(%rbp), %rcx
	movw	(%rax,%rcx,2), %ax
	movq	imgY_org_frm, %rcx
	movslq	-4(%rbp), %rdx
	movq	(%rcx,%rdx,8), %rcx
	movslq	-8(%rbp), %rdx
	movw	%ax, (%rcx,%rdx,2)
# %bb.13:                               # %for.inc28
                                        #   in Loop: Header=BB41_11 Depth=2
	movl	-8(%rbp), %eax
	addl	$1, %eax
	movl	%eax, -8(%rbp)
	jmp	.LBB41_11
.LBB41_14:                              # %for.end30
                                        #   in Loop: Header=BB41_9 Depth=1
	jmp	.LBB41_15
.LBB41_15:                              # %for.inc31
                                        #   in Loop: Header=BB41_9 Depth=1
	movl	-4(%rbp), %eax
	addl	$1, %eax
	movl	%eax, -4(%rbp)
	jmp	.LBB41_9
.LBB41_16:                              # %for.end33
	movq	img, %rax
	cmpl	$0, 72700(%rax)
	je	.LBB41_34
# %bb.17:                               # %if.then
	movl	$0, -4(%rbp)
.LBB41_18:                              # %for.cond35
                                        # =>This Loop Header: Depth=1
                                        #     Child Loop BB41_20 Depth 2
	movl	-4(%rbp), %eax
	cmpl	-20(%rbp), %eax
	jge	.LBB41_25
# %bb.19:                               # %for.body37
                                        #   in Loop: Header=BB41_18 Depth=1
	movl	-36(%rbp), %eax
	movl	%eax, -8(%rbp)
.LBB41_20:                              # %for.cond38
                                        #   Parent Loop BB41_18 Depth=1
                                        # =>  This Inner Loop Header: Depth=2
	movl	-8(%rbp), %eax
	cmpl	16(%rbp), %eax
	jge	.LBB41_23
# %bb.21:                               # %for.body40
                                        #   in Loop: Header=BB41_20 Depth=2
	movq	imgUV_org_frm, %rax
	movq	(%rax), %rax
	movslq	-4(%rbp), %rcx
	movq	(%rax,%rcx,8), %rax
	movl	-8(%rbp), %ecx
	subl	$1, %ecx
	movslq	%ecx, %rcx
	movw	(%rax,%rcx,2), %ax
	movq	imgUV_org_frm, %rcx
	movq	(%rcx), %rcx
	movslq	-4(%rbp), %rdx
	movq	(%rcx,%rdx,8), %rcx
	movslq	-8(%rbp), %rdx
	movw	%ax, (%rcx,%rdx,2)
	movq	imgUV_org_frm, %rax
	movq	8(%rax), %rax
	movslq	-4(%rbp), %rcx
	movq	(%rax,%rcx,8), %rax
	movl	-8(%rbp), %ecx
	subl	$1, %ecx
	movslq	%ecx, %rcx
	movw	(%rax,%rcx,2), %ax
	movq	imgUV_org_frm, %rcx
	movq	8(%rcx), %rcx
	movslq	-4(%rbp), %rdx
	movq	(%rcx,%rdx,8), %rcx
	movslq	-8(%rbp), %rdx
	movw	%ax, (%rcx,%rdx,2)
# %bb.22:                               # %for.inc63
                                        #   in Loop: Header=BB41_20 Depth=2
	movl	-8(%rbp), %eax
	addl	$1, %eax
	movl	%eax, -8(%rbp)
	jmp	.LBB41_20
.LBB41_23:                              # %for.end65
                                        #   in Loop: Header=BB41_18 Depth=1
	jmp	.LBB41_24
.LBB41_24:                              # %for.inc66
                                        #   in Loop: Header=BB41_18 Depth=1
	movl	-4(%rbp), %eax
	addl	$1, %eax
	movl	%eax, -4(%rbp)
	jmp	.LBB41_18
.LBB41_25:                              # %for.end68
	movl	-20(%rbp), %eax
	movl	%eax, -4(%rbp)
.LBB41_26:                              # %for.cond69
                                        # =>This Loop Header: Depth=1
                                        #     Child Loop BB41_28 Depth 2
	movl	-4(%rbp), %eax
	cmpl	24(%rbp), %eax
	jge	.LBB41_33
# %bb.27:                               # %for.body71
                                        #   in Loop: Header=BB41_26 Depth=1
	movl	$0, -8(%rbp)
.LBB41_28:                              # %for.cond72
                                        #   Parent Loop BB41_26 Depth=1
                                        # =>  This Inner Loop Header: Depth=2
	movl	-8(%rbp), %eax
	cmpl	16(%rbp), %eax
	jge	.LBB41_31
# %bb.29:                               # %for.body74
                                        #   in Loop: Header=BB41_28 Depth=2
	movq	imgUV_org_frm, %rax
	movq	(%rax), %rax
	movl	-4(%rbp), %ecx
	subl	$1, %ecx
	movslq	%ecx, %rcx
	movq	(%rax,%rcx,8), %rax
	movslq	-8(%rbp), %rcx
	movw	(%rax,%rcx,2), %ax
	movq	imgUV_org_frm, %rcx
	movq	(%rcx), %rcx
	movslq	-4(%rbp), %rdx
	movq	(%rcx,%rdx,8), %rcx
	movslq	-8(%rbp), %rdx
	movw	%ax, (%rcx,%rdx,2)
	movq	imgUV_org_frm, %rax
	movq	8(%rax), %rax
	movl	-4(%rbp), %ecx
	subl	$1, %ecx
	movslq	%ecx, %rcx
	movq	(%rax,%rcx,8), %rax
	movslq	-8(%rbp), %rcx
	movw	(%rax,%rcx,2), %ax
	movq	imgUV_org_frm, %rcx
	movq	8(%rcx), %rcx
	movslq	-4(%rbp), %rdx
	movq	(%rcx,%rdx,8), %rcx
	movslq	-8(%rbp), %rdx
	movw	%ax, (%rcx,%rdx,2)
# %bb.30:                               # %for.inc97
                                        #   in Loop: Header=BB41_28 Depth=2
	movl	-8(%rbp), %eax
	addl	$1, %eax
	movl	%eax, -8(%rbp)
	jmp	.LBB41_28
.LBB41_31:                              # %for.end99
                                        #   in Loop: Header=BB41_26 Depth=1
	jmp	.LBB41_32
.LBB41_32:                              # %for.inc100
                                        #   in Loop: Header=BB41_26 Depth=1
	movl	-4(%rbp), %eax
	addl	$1, %eax
	movl	%eax, -4(%rbp)
	jmp	.LBB41_26
.LBB41_33:                              # %for.end102
	jmp	.LBB41_34
.LBB41_34:                              # %if.end
	cmpl	$901159054, -24(%rbp)   # imm = 0x35B6988E
	jne	.LBB41_36
.LBB41_35:
	addq	$48, %rsp
	popq	%rbp
	.cfi_def_cfa %rsp, 8
	retq
.LBB41_36:                              # %func_exit
	.cfi_def_cfa %rbp, 16
	callq	detect_breach
	jmp	.LBB41_35
.Lfunc_end41:
	.size	PaddAutoCropBorders.5, .Lfunc_end41-PaddAutoCropBorders.5
	.cfi_endproc
                                        # -- End function
	.p2align	4, 0x90         # -- Begin function ReportRB.6
	.type	ReportRB.6,@function
ReportRB.6:                             # @ReportRB.6
	.cfi_startproc
# %bb.0:                                # %entry
	pushq	%rbp
	.cfi_def_cfa_offset 16
	.cfi_offset %rbp, -16
	movq	%rsp, %rbp
	.cfi_def_cfa_register %rbp
	pushq	%rbx
	subq	$56, %rsp
	.cfi_offset %rbx, -24
	movl	$1032118280, -16(%rbp)  # imm = 0x3D84E008
	movl	%edi, -12(%rbp)
	movl	%esi, -20(%rbp)
	movl	frame_no, %esi
	movq	stats, %rax
	movl	16(%rax), %edx
	movq	stats, %rax
	subl	20(%rax), %edx
	movq	active_pps, %rax
	movl	196(%rax), %ecx
	movq	img, %rax
	movl	40(%rax), %r8d
	movq	snr, %rax
	vmovss	(%rax), %xmm0           # xmm0 = mem[0],zero,zero,zero
	vcvtss2sd	%xmm0, %xmm0, %xmm0
	movq	snr, %rax
	vmovss	4(%rax), %xmm1          # xmm1 = mem[0],zero,zero,zero
	vcvtss2sd	%xmm1, %xmm0, %xmm1
	movq	snr, %rax
	vmovss	8(%rax), %xmm2          # xmm2 = mem[0],zero,zero,zero
	vcvtss2sd	%xmm2, %xmm0, %xmm2
	movl	-12(%rbp), %r9d
	movl	-20(%rbp), %r10d
	movq	img, %rdi
	movl	71800(%rdi), %edi
	cmpl	$0, %edi
	movabsq	$.L.str.7, %rdi
	movabsq	$.L.str.8, %rax
	cmovneq	%rdi, %rax
	movl	intras, %r11d
	movq	img, %rdi
	movl	71996(%rdi), %ebx
	movabsq	$.L.str.11, %rdi
	movl	%r10d, (%rsp)
	movq	%rax, 8(%rsp)
	movl	%r11d, 16(%rsp)
	movl	%ebx, 24(%rsp)
	movb	$3, %al
	callq	printf
	cmpl	$1032118280, -16(%rbp)  # imm = 0x3D84E008
	jne	.LBB42_2
.LBB42_1:
	addq	$56, %rsp
	popq	%rbx
	popq	%rbp
	.cfi_def_cfa %rsp, 8
	retq
.LBB42_2:                               # %func_exit
	.cfi_def_cfa %rbp, 16
	callq	detect_breach
	jmp	.LBB42_1
.Lfunc_end42:
	.size	ReportRB.6, .Lfunc_end42-ReportRB.6
	.cfi_endproc
                                        # -- End function
	.globl	buf2img.7               # -- Begin function buf2img.7
	.p2align	4, 0x90
	.type	buf2img.7,@function
buf2img.7:                              # @buf2img.7
	.cfi_startproc
# %bb.0:                                # %entry
	pushq	%rbp
	.cfi_def_cfa_offset 16
	.cfi_offset %rbp, -16
	movq	%rsp, %rbp
	.cfi_def_cfa_register %rbp
	subq	$80, %rsp
	movl	$608862274, -60(%rbp)   # imm = 0x244A8042
	movq	%rdi, -40(%rbp)
	movq	%rsi, -48(%rbp)
	movl	%edx, -12(%rbp)
	movl	%ecx, -20(%rbp)
	movl	%r8d, -24(%rbp)
	movslq	-24(%rbp), %rax
	cmpq	$2, %rax
	jbe	.LBB43_2
# %bb.1:                                # %if.then
	movabsq	$.L.str.3, %rdi
	movl	$500, %esi              # imm = 0x1F4
	callq	error
.LBB43_2:                               # %if.end
	movb	$0, %al
	callq	testEndian
	cmpl	$0, %eax
	je	.LBB43_35
# %bb.3:                                # %if.then2
	movl	-24(%rbp), %eax
	movl	%eax, %ecx
	subl	$1, %ecx
	je	.LBB43_6
	jmp	.LBB43_4
.LBB43_4:                               # %if.then2
	movl	%eax, %ecx
	subl	$2, %ecx
	je	.LBB43_15
	jmp	.LBB43_5
.LBB43_5:                               # %if.then2
	subl	$4, %eax
	je	.LBB43_24
	jmp	.LBB43_33
.LBB43_6:                               # %sw.bb
	movl	$0, -4(%rbp)
.LBB43_7:                               # %for.cond
                                        # =>This Loop Header: Depth=1
                                        #     Child Loop BB43_9 Depth 2
	movl	-4(%rbp), %eax
	cmpl	-20(%rbp), %eax
	jge	.LBB43_14
# %bb.8:                                # %for.body
                                        #   in Loop: Header=BB43_7 Depth=1
	movl	$0, -8(%rbp)
.LBB43_9:                               # %for.cond5
                                        #   Parent Loop BB43_7 Depth=1
                                        # =>  This Inner Loop Header: Depth=2
	movl	-8(%rbp), %eax
	cmpl	-12(%rbp), %eax
	jge	.LBB43_12
# %bb.10:                               # %for.body8
                                        #   in Loop: Header=BB43_9 Depth=2
	movq	-48(%rbp), %rax
	movl	-8(%rbp), %ecx
	movl	-4(%rbp), %edx
	imull	-12(%rbp), %edx
	addl	%edx, %ecx
	movslq	%ecx, %rcx
	movzbl	(%rax,%rcx), %eax
	movq	-40(%rbp), %rcx
	movslq	-4(%rbp), %rdx
	movq	(%rcx,%rdx,8), %rcx
	movslq	-8(%rbp), %rdx
	movw	%ax, (%rcx,%rdx,2)
# %bb.11:                               # %for.inc
                                        #   in Loop: Header=BB43_9 Depth=2
	movl	-8(%rbp), %eax
	addl	$1, %eax
	movl	%eax, -8(%rbp)
	jmp	.LBB43_9
.LBB43_12:                              # %for.end
                                        #   in Loop: Header=BB43_7 Depth=1
	jmp	.LBB43_13
.LBB43_13:                              # %for.inc14
                                        #   in Loop: Header=BB43_7 Depth=1
	movl	-4(%rbp), %eax
	addl	$1, %eax
	movl	%eax, -4(%rbp)
	jmp	.LBB43_7
.LBB43_14:                              # %for.end16
	jmp	.LBB43_34
.LBB43_15:                              # %sw.bb17
	movl	$0, -4(%rbp)
.LBB43_16:                              # %for.cond18
                                        # =>This Loop Header: Depth=1
                                        #     Child Loop BB43_18 Depth 2
	movl	-4(%rbp), %eax
	cmpl	-20(%rbp), %eax
	jge	.LBB43_23
# %bb.17:                               # %for.body21
                                        #   in Loop: Header=BB43_16 Depth=1
	movl	$0, -8(%rbp)
.LBB43_18:                              # %for.cond22
                                        #   Parent Loop BB43_16 Depth=1
                                        # =>  This Inner Loop Header: Depth=2
	movl	-8(%rbp), %eax
	cmpl	-12(%rbp), %eax
	jge	.LBB43_21
# %bb.19:                               # %for.body25
                                        #   in Loop: Header=BB43_18 Depth=2
	movq	-48(%rbp), %rax
	movl	-8(%rbp), %ecx
	movl	-4(%rbp), %edx
	imull	-12(%rbp), %edx
	addl	%edx, %ecx
	shll	$1, %ecx
	movslq	%ecx, %rcx
	movw	(%rax,%rcx), %ax
	movw	%ax, -14(%rbp)
	movzwl	-14(%rbp), %eax
	sarl	$8, %eax
	movzwl	-14(%rbp), %ecx
	andl	$255, %ecx
	shll	$8, %ecx
	orl	%ecx, %eax
	movw	%ax, -26(%rbp)
	movw	-26(%rbp), %ax
	movq	-40(%rbp), %rcx
	movslq	-4(%rbp), %rdx
	movq	(%rcx,%rdx,8), %rcx
	movslq	-8(%rbp), %rdx
	movw	%ax, (%rcx,%rdx,2)
# %bb.20:                               # %for.inc36
                                        #   in Loop: Header=BB43_18 Depth=2
	movl	-8(%rbp), %eax
	addl	$1, %eax
	movl	%eax, -8(%rbp)
	jmp	.LBB43_18
.LBB43_21:                              # %for.end38
                                        #   in Loop: Header=BB43_16 Depth=1
	jmp	.LBB43_22
.LBB43_22:                              # %for.inc39
                                        #   in Loop: Header=BB43_16 Depth=1
	movl	-4(%rbp), %eax
	addl	$1, %eax
	movl	%eax, -4(%rbp)
	jmp	.LBB43_16
.LBB43_23:                              # %for.end41
	jmp	.LBB43_34
.LBB43_24:                              # %sw.bb42
	movl	$0, -4(%rbp)
.LBB43_25:                              # %for.cond43
                                        # =>This Loop Header: Depth=1
                                        #     Child Loop BB43_27 Depth 2
	movl	-4(%rbp), %eax
	cmpl	-20(%rbp), %eax
	jge	.LBB43_32
# %bb.26:                               # %for.body46
                                        #   in Loop: Header=BB43_25 Depth=1
	movl	$0, -8(%rbp)
.LBB43_27:                              # %for.cond47
                                        #   Parent Loop BB43_25 Depth=1
                                        # =>  This Inner Loop Header: Depth=2
	movl	-8(%rbp), %eax
	cmpl	-12(%rbp), %eax
	jge	.LBB43_30
# %bb.28:                               # %for.body50
                                        #   in Loop: Header=BB43_27 Depth=2
	movq	-48(%rbp), %rax
	movl	-8(%rbp), %ecx
	movl	-4(%rbp), %edx
	imull	-12(%rbp), %edx
	addl	%edx, %ecx
	shll	$2, %ecx
	movslq	%ecx, %rcx
	movl	(%rax,%rcx), %eax
	movl	%eax, -56(%rbp)
	movq	-56(%rbp), %rax
	andq	$65280, %rax            # imm = 0xFF00
	shlq	$8, %rax
	movq	-56(%rbp), %rcx
	andq	$255, %rcx
	shlq	$24, %rcx
	orq	%rcx, %rax
	movq	-56(%rbp), %rcx
	andq	$16711680, %rcx         # imm = 0xFF0000
	shrq	$8, %rcx
	orq	%rcx, %rax
	movl	$4278190080, %ecx       # imm = 0xFF000000
	andq	-56(%rbp), %rcx
	shrq	$24, %rcx
	orq	%rcx, %rax
	movq	%rax, -72(%rbp)
	movq	-72(%rbp), %rax
	movq	-40(%rbp), %rcx
	movslq	-4(%rbp), %rdx
	movq	(%rcx,%rdx,8), %rcx
	movslq	-8(%rbp), %rdx
	movw	%ax, (%rcx,%rdx,2)
# %bb.29:                               # %for.inc72
                                        #   in Loop: Header=BB43_27 Depth=2
	movl	-8(%rbp), %eax
	addl	$1, %eax
	movl	%eax, -8(%rbp)
	jmp	.LBB43_27
.LBB43_30:                              # %for.end74
                                        #   in Loop: Header=BB43_25 Depth=1
	jmp	.LBB43_31
.LBB43_31:                              # %for.inc75
                                        #   in Loop: Header=BB43_25 Depth=1
	movl	-4(%rbp), %eax
	addl	$1, %eax
	movl	%eax, -4(%rbp)
	jmp	.LBB43_25
.LBB43_32:                              # %for.end77
	jmp	.LBB43_33
.LBB43_33:                              # %sw.default
	movabsq	$.L.str.4, %rdi
	movl	$500, %esi              # imm = 0x1F4
	callq	error
.LBB43_34:                              # %sw.epilog
	jmp	.LBB43_44
.LBB43_35:                              # %if.else
	movl	$0, -4(%rbp)
.LBB43_36:                              # %for.cond78
                                        # =>This Loop Header: Depth=1
                                        #     Child Loop BB43_38 Depth 2
	movl	-4(%rbp), %eax
	cmpl	-20(%rbp), %eax
	jge	.LBB43_43
# %bb.37:                               # %for.body81
                                        #   in Loop: Header=BB43_36 Depth=1
	movl	$0, -8(%rbp)
.LBB43_38:                              # %for.cond82
                                        #   Parent Loop BB43_36 Depth=1
                                        # =>  This Inner Loop Header: Depth=2
	movl	-8(%rbp), %eax
	cmpl	-12(%rbp), %eax
	jge	.LBB43_41
# %bb.39:                               # %for.body85
                                        #   in Loop: Header=BB43_38 Depth=2
	movq	-40(%rbp), %rax
	movslq	-4(%rbp), %rcx
	movq	(%rax,%rcx,8), %rax
	movslq	-8(%rbp), %rcx
	movw	$0, (%rax,%rcx,2)
	movq	-40(%rbp), %rax
	movslq	-4(%rbp), %rcx
	movq	(%rax,%rcx,8), %rdi
	movslq	-8(%rbp), %rax
	shlq	$1, %rax
	addq	%rax, %rdi
	movq	-48(%rbp), %rsi
	movl	-8(%rbp), %eax
	movl	-4(%rbp), %ecx
	imull	-12(%rbp), %ecx
	addl	%ecx, %eax
	imull	-24(%rbp), %eax
	cltq
	addq	%rax, %rsi
	movslq	-24(%rbp), %rdx
	callq	memcpy
# %bb.40:                               # %for.inc100
                                        #   in Loop: Header=BB43_38 Depth=2
	movl	-8(%rbp), %eax
	addl	$1, %eax
	movl	%eax, -8(%rbp)
	jmp	.LBB43_38
.LBB43_41:                              # %for.end102
                                        #   in Loop: Header=BB43_36 Depth=1
	jmp	.LBB43_42
.LBB43_42:                              # %for.inc103
                                        #   in Loop: Header=BB43_36 Depth=1
	movl	-4(%rbp), %eax
	addl	$1, %eax
	movl	%eax, -4(%rbp)
	jmp	.LBB43_36
.LBB43_43:                              # %for.end105
	jmp	.LBB43_44
.LBB43_44:                              # %if.end106
	cmpl	$608862274, -60(%rbp)   # imm = 0x244A8042
	jne	.LBB43_46
.LBB43_45:
	addq	$80, %rsp
	popq	%rbp
	.cfi_def_cfa %rsp, 8
	retq
.LBB43_46:                              # %func_exit
	.cfi_def_cfa %rbp, 16
	callq	detect_breach
	jmp	.LBB43_45
.Lfunc_end43:
	.size	buf2img.7, .Lfunc_end43-buf2img.7
	.cfi_endproc
                                        # -- End function
	.p2align	4, 0x90         # -- Begin function ReportRB.8
	.type	ReportRB.8,@function
ReportRB.8:                             # @ReportRB.8
	.cfi_startproc
# %bb.0:                                # %entry
	pushq	%rbp
	.cfi_def_cfa_offset 16
	.cfi_offset %rbp, -16
	movq	%rsp, %rbp
	.cfi_def_cfa_register %rbp
	pushq	%rbx
	subq	$56, %rsp
	.cfi_offset %rbx, -24
	movl	$1018018839, -16(%rbp)  # imm = 0x3CADBC17
	movl	%edi, -20(%rbp)
	movl	%esi, -12(%rbp)
	movl	frame_no, %esi
	movq	stats, %rax
	movl	16(%rax), %edx
	movq	stats, %rax
	subl	20(%rax), %edx
	movq	active_pps, %rax
	movl	196(%rax), %ecx
	movq	img, %rax
	movl	40(%rax), %r8d
	movq	snr, %rax
	vmovss	(%rax), %xmm0           # xmm0 = mem[0],zero,zero,zero
	vcvtss2sd	%xmm0, %xmm0, %xmm0
	movq	snr, %rax
	vmovss	4(%rax), %xmm1          # xmm1 = mem[0],zero,zero,zero
	vcvtss2sd	%xmm1, %xmm0, %xmm1
	movq	snr, %rax
	vmovss	8(%rax), %xmm2          # xmm2 = mem[0],zero,zero,zero
	vcvtss2sd	%xmm2, %xmm0, %xmm2
	movl	-20(%rbp), %r9d
	movl	-12(%rbp), %r10d
	movq	img, %rdi
	movl	71800(%rdi), %edi
	cmpl	$0, %edi
	movabsq	$.L.str.7, %rdi
	movabsq	$.L.str.8, %rax
	cmovneq	%rdi, %rax
	movl	intras, %r11d
	movq	img, %rdi
	movl	71996(%rdi), %ebx
	movabsq	$.L.str.11, %rdi
	movl	%r10d, (%rsp)
	movq	%rax, 8(%rsp)
	movl	%r11d, 16(%rsp)
	movl	%ebx, 24(%rsp)
	movb	$3, %al
	callq	printf
	cmpl	$1018018839, -16(%rbp)  # imm = 0x3CADBC17
	jne	.LBB44_2
.LBB44_1:
	addq	$56, %rsp
	popq	%rbx
	popq	%rbp
	.cfi_def_cfa %rsp, 8
	retq
.LBB44_2:                               # %func_exit
	.cfi_def_cfa %rbp, 16
	callq	detect_breach
	jmp	.LBB44_1
.Lfunc_end44:
	.size	ReportRB.8, .Lfunc_end44-ReportRB.8
	.cfi_endproc
                                        # -- End function
	.p2align	4, 0x90         # -- Begin function ReportFirstframe.9
	.type	ReportFirstframe.9,@function
ReportFirstframe.9:                     # @ReportFirstframe.9
	.cfi_startproc
# %bb.0:                                # %entry
	pushq	%rbp
	.cfi_def_cfa_offset 16
	.cfi_offset %rbp, -16
	movq	%rsp, %rbp
	.cfi_def_cfa_register %rbp
	subq	$48, %rsp
	movl	$1466772883, -16(%rbp)  # imm = 0x576D2D93
	movl	%edi, -8(%rbp)
	movl	%esi, -4(%rbp)
	movl	frame_no, %esi
	movq	stats, %rax
	movl	16(%rax), %edx
	movq	stats, %rax
	subl	20(%rax), %edx
	movq	img, %rax
	movl	40(%rax), %r8d
	movq	snr, %rax
	vmovss	(%rax), %xmm0           # xmm0 = mem[0],zero,zero,zero
	vcvtss2sd	%xmm0, %xmm0, %xmm0
	movq	snr, %rax
	vmovss	4(%rax), %xmm1          # xmm1 = mem[0],zero,zero,zero
	vcvtss2sd	%xmm1, %xmm0, %xmm1
	movq	snr, %rax
	vmovss	8(%rax), %xmm2          # xmm2 = mem[0],zero,zero,zero
	vcvtss2sd	%xmm2, %xmm0, %xmm2
	movl	-8(%rbp), %r9d
	movl	-4(%rbp), %r10d
	movq	img, %rcx
	movl	71800(%rcx), %ecx
	cmpl	$0, %ecx
	movabsq	$.L.str.7, %rcx
	movabsq	$.L.str.8, %rax
	cmovneq	%rcx, %rax
	movl	intras, %r11d
	movabsq	$.L.str.6, %rdi
	movl	$0, %ecx
	movl	%r10d, (%rsp)
	movq	%rax, 8(%rsp)
	movl	%r11d, 16(%rsp)
	movb	$3, %al
	callq	printf
	movq	input, %rax
	cmpl	$0, 3236(%rax)
	je	.LBB45_6
# %bb.1:                                # %if.then
	movq	input, %rax
	cmpl	$0, 2880(%rax)
	jne	.LBB45_4
# %bb.2:                                # %land.lhs.true
	movq	input, %rax
	cmpl	$0, 2884(%rax)
	jne	.LBB45_4
# %bb.3:                                # %if.then6
	movq	stats, %rax
	movl	16(%rax), %eax
	movq	stats, %rcx
	subl	20(%rcx), %eax
	movl	%eax, -12(%rbp)
	jmp	.LBB45_5
.LBB45_4:                               # %if.else
	movq	stats, %rax
	movl	16(%rax), %eax
	subl	Iprev_bits, %eax
	movl	%eax, -12(%rbp)
	movq	stats, %rax
	movl	16(%rax), %eax
	movl	%eax, Iprev_bits
.LBB45_5:                               # %if.end
	jmp	.LBB45_6
.LBB45_6:                               # %if.end13
	movq	stats, %rax
	movl	16(%rax), %eax
	movq	stats, %rcx
	movl	%eax, 704(%rcx)
	movq	stats, %rax
	movl	$0, 16(%rax)
	cmpl	$1466772883, -16(%rbp)  # imm = 0x576D2D93
	jne	.LBB45_8
.LBB45_7:
	addq	$48, %rsp
	popq	%rbp
	.cfi_def_cfa %rsp, 8
	retq
.LBB45_8:                               # %func_exit
	.cfi_def_cfa %rbp, 16
	callq	detect_breach
	jmp	.LBB45_7
.Lfunc_end45:
	.size	ReportFirstframe.9, .Lfunc_end45-ReportFirstframe.9
	.cfi_endproc
                                        # -- End function
	.globl	encode_one_frame.10     # -- Begin function encode_one_frame.10
	.p2align	4, 0x90
	.type	encode_one_frame.10,@function
encode_one_frame.10:                    # @encode_one_frame.10
	.cfi_startproc
# %bb.0:                                # %entry
	pushq	%rbp
	.cfi_def_cfa_offset 16
	.cfi_offset %rbp, -16
	movq	%rsp, %rbp
	.cfi_def_cfa_register %rbp
	pushq	%rbx
	subq	$136, %rsp
	.cfi_offset %rbx, -24
	movl	$1509886887, -44(%rbp)  # imm = 0x59FF0BA7
	movl	$0, -60(%rbp)
	movl	$0, -32(%rbp)
	vxorps	%xmm0, %xmm0, %xmm0
	vmovss	%xmm0, -40(%rbp)
	vmovss	%xmm0, -52(%rbp)
	vmovss	%xmm0, -68(%rbp)
	vmovss	%xmm0, -24(%rbp)
	vmovss	%xmm0, -48(%rbp)
	vmovss	%xmm0, -36(%rbp)
	vmovss	%xmm0, -56(%rbp)
	vmovss	%xmm0, -64(%rbp)
	movl	$0, -16(%rbp)
	movl	$0, me_time
	movq	img, %rax
	movl	$0, 71804(%rax)
	movq	$0, enc_frame_picture
	movq	$0, enc_frame_picture2
	movq	$0, enc_frame_picture3
	leaq	-112(%rbp), %rdi
	callq	ftime
	leaq	-88(%rbp), %rdi
	callq	time
	movq	img, %rax
	movl	$0, 72624(%rax)
	movq	input, %rax
	cmpl	$0, 56(%rax)
	je	.LBB46_3
# %bb.1:                                # %land.lhs.true
	movq	img, %rax
	cmpl	$0, (%rax)
	je	.LBB46_3
# %bb.2:                                # %if.then
	xorl	%edi, %edi
	xorl	%esi, %esi
	callq	write_PPS
	movq	stats, %rcx
	movl	%eax, 1492(%rcx)
	movq	stats, %rax
	movl	1492(%rax), %eax
	movq	stats, %rcx
	addl	1488(%rcx), %eax
	movl	%eax, 1488(%rcx)
.LBB46_3:                               # %if.end
	callq	put_buffer_frame
	callq	init_frame
	callq	CalculateFrameNumber
	movl	%eax, -28(%rbp)
	movl	-28(%rbp), %edi
	movq	input, %rax
	movl	220(%rax), %esi
	movq	input, %rax
	movl	64(%rax), %edx
	movq	input, %rax
	movl	68(%rax), %ecx
	movq	input, %rax
	movl	3308(%rax), %r8d
	movq	input, %rax
	movl	3304(%rax), %r9d
	callq	ReadOneFrame
	movq	input, %rax
	movl	64(%rax), %edi
	movq	input, %rax
	movl	68(%rax), %esi
	movq	img, %rax
	movl	52(%rax), %edx
	movq	img, %rax
	movl	60(%rax), %ecx
	movq	input, %rax
	movl	3308(%rax), %r8d
	movq	input, %rax
	movl	3304(%rax), %r9d
	movq	img, %rax
	movl	56(%rax), %eax
	movq	img, %rbx
	movl	64(%rbx), %ebx
	movl	%eax, (%rsp)
	movl	%ebx, 8(%rsp)
	callq	PaddAutoCropBorders
	movq	input, %rax
	movl	1248(%rax), %eax
	movq	img, %rcx
	movl	%eax, 71996(%rcx)
	movq	input, %rax
	movl	2928(%rax), %eax
	movq	img, %rcx
	movl	%eax, 71984(%rcx)
	movq	input, %rax
	movl	2932(%rax), %eax
	movq	img, %rcx
	movl	%eax, 71988(%rcx)
	movq	input, %rax
	movl	2936(%rax), %eax
	movq	img, %rcx
	movl	%eax, 71992(%rcx)
	movq	img, %rax
	cmpl	$1, 24(%rax)
	jne	.LBB46_5
# %bb.4:                                # %if.then14
	movl	Bframe_ctr, %eax
	addl	$1, %eax
	movl	%eax, Bframe_ctr
	jmp	.LBB46_9
.LBB46_5:                               # %if.else
	movq	img, %rax
	cmpl	$2, 24(%rax)
	jne	.LBB46_7
# %bb.6:                                # %if.then17
	movl	Iframe_ctr, %eax
	addl	$1, %eax
	movl	%eax, Iframe_ctr
	jmp	.LBB46_8
.LBB46_7:                               # %if.else19
	movl	Pframe_ctr, %eax
	addl	$1, %eax
	movl	%eax, Pframe_ctr
.LBB46_8:                               # %if.end21
	jmp	.LBB46_9
.LBB46_9:                               # %if.end22
	movq	input, %rax
	cmpl	$1, 2880(%rax)
	jne	.LBB46_11
# %bb.10:                               # %if.then24
	movq	img, %rax
	movl	$1, 72600(%rax)
	movq	img, %rax
	movl	$1, 72444(%rax)
	movq	top_pic, %rdi
	movq	bottom_pic, %rsi
	callq	field_picture
	movq	img, %rax
	movl	$1, 71800(%rax)
	jmp	.LBB46_38
.LBB46_11:                              # %if.else25
	movq	img, %rax
	movl	$0, 72600(%rax)
	movq	input, %rax
	cmpl	$0, 2884(%rax)
	je	.LBB46_13
# %bb.12:                               # %if.then28
	movl	$1, mb_adaptive
.LBB46_13:                              # %if.end29
	movq	img, %rax
	movl	$0, 72444(%rax)
	movq	input, %rax
	cmpl	$0, 3236(%rax)
	je	.LBB46_21
# %bb.14:                               # %if.then32
	movq	input, %rax
	cmpl	$0, 2884(%rax)
	je	.LBB46_19
# %bb.15:                               # %land.lhs.true35
	movq	input, %rax
	movl	3248(%rax), %eax
	movq	img, %rcx
	cmpl	72608(%rcx), %eax
	jge	.LBB46_19
# %bb.16:                               # %land.lhs.true37
	movq	img, %rax
	cmpl	$0, 24(%rax)
	jne	.LBB46_19
# %bb.17:                               # %land.lhs.true40
	movq	img, %rax
	cmpl	$0, 72612(%rax)
	jne	.LBB46_19
# %bb.18:                               # %if.then42
	movq	input, %rax
	movl	3248(%rax), %eax
	shll	$1, %eax
	movq	img, %rcx
	movl	%eax, 72620(%rcx)
	jmp	.LBB46_20
.LBB46_19:                              # %if.else44
	movq	input, %rax
	movl	3248(%rax), %eax
	movq	img, %rcx
	movl	%eax, 72620(%rcx)
.LBB46_20:                              # %if.end47
	movl	$1, %edi
	xorl	%esi, %esi
	movl	$1, %edx
	callq	rc_init_pict
	xorl	%edi, %edi
	callq	updateQuantizationParameter
	movq	img, %rcx
	movl	%eax, 40(%rcx)
	movq	img, %rax
	movl	24(%rax), %eax
	movl	%eax, -92(%rbp)
	movl	$0, QP
.LBB46_21:                              # %if.end50
	movq	active_sps, %rax
	cmpl	$0, 1148(%rax)
	je	.LBB46_23
# %bb.22:                               # %if.then52
	movq	img, %rax
	movl	$0, 72596(%rax)
.LBB46_23:                              # %if.end53
	movq	input, %rax
	cmpl	$0, 60(%rax)
	je	.LBB46_25
# %bb.24:                               # %if.then55
	movabsq	$PicParSet, %rax
	movq	%rax, active_pps
.LBB46_25:                              # %if.end56
	movq	frame_pic, %rdi
	xorl	%esi, %esi
	callq	frame_picture
	movq	input, %rax
	cmpl	$0, 1300(%rax)
	jne	.LBB46_27
# %bb.26:                               # %lor.lhs.false
	movq	img, %rax
	cmpl	$2, 24(%rax)
	je	.LBB46_29
.LBB46_27:                              # %land.lhs.true60
	movq	input, %rax
	cmpl	$0, 1296(%rax)
	je	.LBB46_29
# %bb.28:                               # %if.then62
	callq	rdPictureCoding
.LBB46_29:                              # %if.end63
	movq	input, %rax
	cmpl	$0, 2884(%rax)
	je	.LBB46_31
# %bb.30:                               # %if.then66
	movl	$0, mb_adaptive
.LBB46_31:                              # %if.end67
	movq	input, %rax
	cmpl	$2, 2880(%rax)
	jne	.LBB46_36
# %bb.32:                               # %if.then70
	movq	img, %rax
	movl	$1, 72600(%rax)
	movq	img, %rax
	movl	$0, 72624(%rax)
	movq	img, %rax
	movl	$0, 72628(%rax)
	movq	img, %rax
	movl	$1, 72444(%rax)
	movq	top_pic, %rdi
	movq	bottom_pic, %rsi
	callq	field_picture
	movq	top_pic, %rax
	vmovss	812(%rax), %xmm0        # xmm0 = mem[0],zero,zero,zero
	movq	top_pic, %rax
	vaddss	816(%rax), %xmm0, %xmm0
	movq	top_pic, %rax
	vaddss	820(%rax), %xmm0, %xmm0
	vmovss	%xmm0, -48(%rbp)
	movq	frame_pic, %rax
	vmovss	812(%rax), %xmm0        # xmm0 = mem[0],zero,zero,zero
	movq	frame_pic, %rax
	vaddss	816(%rax), %xmm0, %xmm0
	movq	frame_pic, %rax
	vaddss	820(%rax), %xmm0, %xmm0
	vmovss	%xmm0, -40(%rbp)
	movq	frame_pic, %rdi
	movq	top_pic, %rsi
	movq	bottom_pic, %rdx
	callq	picture_structure_decision
	movq	img, %rcx
	movl	%eax, 71800(%rcx)
	movq	img, %rax
	movl	71800(%rax), %edi
	callq	update_field_frame_contexts
	movq	img, %rax
	cmpl	$0, 71800(%rax)
	jne	.LBB46_34
# %bb.33:                               # %if.then86
	movq	img, %rax
	movl	$1, 72604(%rax)
	jmp	.LBB46_35
.LBB46_34:                              # %if.else87
	movq	img, %rax
	movl	$0, 72604(%rax)
.LBB46_35:                              # %if.end89
	jmp	.LBB46_37
.LBB46_36:                              # %if.else90
	movq	img, %rax
	movl	$0, 71800(%rax)
.LBB46_37:                              # %if.end92
	jmp	.LBB46_38
.LBB46_38:                              # %if.end93
	movq	img, %rax
	cmpl	$0, 71800(%rax)
	je	.LBB46_40
# %bb.39:                               # %if.then96
	movq	stats, %rax
	movl	1472(%rax), %eax
	movq	stats, %rcx
	addl	28(%rcx), %eax
	movl	%eax, 28(%rcx)
	jmp	.LBB46_41
.LBB46_40:                              # %if.else98
	movq	stats, %rax
	movl	1468(%rax), %eax
	movq	stats, %rcx
	addl	28(%rcx), %eax
	movl	%eax, 28(%rcx)
.LBB46_41:                              # %if.end101
	movq	img, %rax
	cmpl	$1, 24(%rax)
	je	.LBB46_43
# %bb.42:                               # %if.then104
	movq	img, %rax
	movl	71800(%rax), %eax
	movq	img, %rcx
	movl	%eax, 71872(%rcx)
.LBB46_43:                              # %if.end106
	movq	img, %rax
	cmpl	$0, 71800(%rax)
	je	.LBB46_45
# %bb.44:                               # %if.then109
	movl	-32(%rbp), %edi
	vmovss	-36(%rbp), %xmm0        # xmm0 = mem[0],zero,zero,zero
	vmovss	-56(%rbp), %xmm1        # xmm1 = mem[0],zero,zero,zero
	vmovss	-64(%rbp), %xmm2        # xmm2 = mem[0],zero,zero,zero
	callq	field_mode_buffer
	movq	top_pic, %rdi
	callq	writeout_picture
	movq	bottom_pic, %rdi
	callq	writeout_picture
	jmp	.LBB46_54
.LBB46_45:                              # %if.else112
	movl	-60(%rbp), %edi
	vmovss	-52(%rbp), %xmm0        # xmm0 = mem[0],zero,zero,zero
	vmovss	-68(%rbp), %xmm1        # xmm1 = mem[0],zero,zero,zero
	vmovss	-24(%rbp), %xmm2        # xmm2 = mem[0],zero,zero,zero
	callq	frame_mode_buffer
	movq	input, %rax
	cmpl	$0, 1296(%rax)
	je	.LBB46_48
# %bb.46:                               # %land.lhs.true115
	movq	img, %rax
	cmpl	$2, 71804(%rax)
	jne	.LBB46_48
# %bb.47:                               # %if.then118
	movq	frame_pic3, %rdi
	callq	writeout_picture
	jmp	.LBB46_53
.LBB46_48:                              # %if.else120
	movq	input, %rax
	cmpl	$0, 1296(%rax)
	je	.LBB46_51
# %bb.49:                               # %land.lhs.true123
	movq	img, %rax
	cmpl	$1, 71804(%rax)
	jne	.LBB46_51
# %bb.50:                               # %if.then126
	movq	frame_pic2, %rdi
	callq	writeout_picture
	jmp	.LBB46_52
.LBB46_51:                              # %if.else128
	movq	frame_pic, %rdi
	callq	writeout_picture
.LBB46_52:                              # %if.end130
	jmp	.LBB46_53
.LBB46_53:                              # %if.end131
	jmp	.LBB46_54
.LBB46_54:                              # %if.end132
	cmpq	$0, frame_pic3
	je	.LBB46_56
# %bb.55:                               # %if.then134
	movq	frame_pic3, %rdi
	callq	free_slice_list
.LBB46_56:                              # %if.end135
	cmpq	$0, frame_pic2
	je	.LBB46_58
# %bb.57:                               # %if.then137
	movq	frame_pic2, %rdi
	callq	free_slice_list
.LBB46_58:                              # %if.end138
	cmpq	$0, frame_pic
	je	.LBB46_60
# %bb.59:                               # %if.then140
	movq	frame_pic, %rdi
	callq	free_slice_list
.LBB46_60:                              # %if.end141
	cmpq	$0, top_pic
	je	.LBB46_62
# %bb.61:                               # %if.then143
	movq	top_pic, %rdi
	callq	free_slice_list
.LBB46_62:                              # %if.end144
	cmpq	$0, bottom_pic
	je	.LBB46_64
# %bb.63:                               # %if.then146
	movq	bottom_pic, %rdi
	callq	free_slice_list
.LBB46_64:                              # %if.end147
	movq	input, %rax
	cmpl	$0, 3236(%rax)
	je	.LBB46_66
# %bb.65:                               # %if.then150
	movq	stats, %rax
	movl	16(%rax), %eax
	movq	stats, %rcx
	subl	20(%rcx), %eax
	movl	%eax, -16(%rbp)
	movl	-16(%rbp), %edi
	callq	rc_update_pict_frame
.LBB46_66:                              # %if.end151
	callq	find_snr
	leaq	-80(%rbp), %rdi
	callq	time
	leaq	-128(%rbp), %rdi
	callq	ftime
	imulq	$1000, -80(%rbp), %rax  # imm = 0x3E8
	movzwl	-120(%rbp), %ecx
	addq	%rcx, %rax
	imulq	$1000, -88(%rbp), %rcx  # imm = 0x3E8
	movzwl	-104(%rbp), %edx
	addq	%rdx, %rcx
	subq	%rcx, %rax
	movl	%eax, -12(%rbp)
	movl	tot_time, %eax
	addl	-12(%rbp), %eax
	movl	%eax, tot_time
	movq	input, %rax
	cmpl	$2, 2880(%rax)
	jne	.LBB46_71
# %bb.67:                               # %if.then166
	movq	img, %rax
	cmpl	$0, 71800(%rax)
	je	.LBB46_69
# %bb.68:                               # %if.then169
	movq	enc_bottom_picture, %rdi
	callq	store_picture_in_dpb
	movq	enc_frame_picture, %rdi
	callq	free_storable_picture
	jmp	.LBB46_70
.LBB46_69:                              # %if.else170
	movq	enc_frame_picture, %rdi
	callq	replace_top_pic_with_frame
	movq	enc_bottom_picture, %rdi
	callq	free_storable_picture
.LBB46_70:                              # %if.end171
	jmp	.LBB46_81
.LBB46_71:                              # %if.else172
	movq	img, %rax
	cmpl	$0, 71800(%rax)
	je	.LBB46_73
# %bb.72:                               # %if.then175
	movq	enc_bottom_picture, %rdi
	callq	store_picture_in_dpb
	jmp	.LBB46_80
.LBB46_73:                              # %if.else176
	movq	img, %rax
	cmpl	$2, 71804(%rax)
	jne	.LBB46_75
# %bb.74:                               # %if.then180
	movq	enc_frame_picture3, %rdi
	callq	store_picture_in_dpb
	movq	enc_frame_picture, %rdi
	callq	free_storable_picture
	movq	enc_frame_picture2, %rdi
	callq	free_storable_picture
	jmp	.LBB46_79
.LBB46_75:                              # %if.else181
	movq	img, %rax
	cmpl	$1, 71804(%rax)
	jne	.LBB46_77
# %bb.76:                               # %if.then185
	movq	enc_frame_picture2, %rdi
	callq	store_picture_in_dpb
	movq	enc_frame_picture, %rdi
	callq	free_storable_picture
	movq	enc_frame_picture3, %rdi
	callq	free_storable_picture
	jmp	.LBB46_78
.LBB46_77:                              # %if.else186
	movq	enc_frame_picture, %rdi
	callq	store_picture_in_dpb
	movq	enc_frame_picture2, %rdi
	callq	free_storable_picture
	movq	enc_frame_picture3, %rdi
	callq	free_storable_picture
.LBB46_78:                              # %if.end187
	jmp	.LBB46_79
.LBB46_79:                              # %if.end188
	jmp	.LBB46_80
.LBB46_80:                              # %if.end189
	jmp	.LBB46_81
.LBB46_81:                              # %if.end190
	movq	stats, %rax
	movl	16(%rax), %eax
	movq	stats, %rcx
	subl	20(%rcx), %eax
	cltq
	movq	total_frame_buffer, %rcx
	movq	%rax, Bit_Buffer(,%rcx,8)
	movq	total_frame_buffer, %rax
	addq	$1, %rax
	movq	%rax, total_frame_buffer
	movq	img, %rax
	cmpl	$2, 72404(%rax)
	jne	.LBB46_89
# %bb.82:                               # %if.then198
	movq	img, %rax
	cmpl	$0, 72496(%rax)
	jne	.LBB46_84
# %bb.83:                               # %if.then200
	movl	encode_one_frame.consecutive_non_reference_pictures, %eax
	addl	$1, %eax
	movl	%eax, encode_one_frame.consecutive_non_reference_pictures
	jmp	.LBB46_85
.LBB46_84:                              # %if.else202
	movl	$0, encode_one_frame.consecutive_non_reference_pictures
.LBB46_85:                              # %if.end203
	movl	frame_no, %eax
	cmpl	encode_one_frame.prev_frame_no, %eax
	jl	.LBB46_87
# %bb.86:                               # %lor.lhs.false206
	cmpl	$1, encode_one_frame.consecutive_non_reference_pictures
	jle	.LBB46_88
.LBB46_87:                              # %if.then209
	movabsq	$.L.str, %rdi
	movl	$4294967295, %esi       # imm = 0xFFFFFFFF
	callq	error
.LBB46_88:                              # %if.end210
	movl	frame_no, %eax
	movl	%eax, encode_one_frame.prev_frame_no
.LBB46_89:                              # %if.end211
	movq	stats, %rax
	cmpl	$0, 1492(%rax)
	je	.LBB46_91
# %bb.90:                               # %if.then215
	movl	-12(%rbp), %edi
	movl	me_time, %esi
	callq	ReportNALNonVLCBits
.LBB46_91:                              # %if.end216
	movq	img, %rax
	movl	(%rax), %eax
	subl	start_frame_no_in_this_IGOP, %eax
	cmpl	$0, %eax
	jne	.LBB46_93
# %bb.92:                               # %if.then221
	movl	-12(%rbp), %edi
	movl	me_time, %esi
	callq	ReportFirstframe
	jmp	.LBB46_110
.LBB46_93:                              # %if.else222
	movq	input, %rax
	cmpl	$0, 3236(%rax)
	je	.LBB46_99
# %bb.94:                               # %if.then225
	movq	input, %rax
	cmpl	$0, 2880(%rax)
	jne	.LBB46_97
# %bb.95:                               # %land.lhs.true228
	movq	input, %rax
	cmpl	$0, 2884(%rax)
	jne	.LBB46_97
# %bb.96:                               # %if.then231
	movq	stats, %rax
	movl	16(%rax), %eax
	movq	stats, %rcx
	subl	20(%rcx), %eax
	movl	%eax, -16(%rbp)
	jmp	.LBB46_98
.LBB46_97:                              # %if.else235
	movq	stats, %rax
	movl	16(%rax), %eax
	subl	Pprev_bits, %eax
	movl	%eax, -16(%rbp)
	movq	stats, %rax
	movl	16(%rax), %eax
	movl	%eax, Pprev_bits
.LBB46_98:                              # %if.end239
	jmp	.LBB46_99
.LBB46_99:                              # %if.end240
	movq	img(%rip), %rax
	movl	24(%rax), %eax
	movl	%eax, %ecx
	subl	$1, %ecx
	je	.LBB46_104
	jmp	.LBB46_100
.LBB46_100:                             # %if.end240
	movl	%eax, %ecx
	subl	$2, %ecx
	je	.LBB46_102
	jmp	.LBB46_101
.LBB46_101:                             # %if.end240
	subl	$3, %eax
	je	.LBB46_103
	jmp	.LBB46_108
.LBB46_102:                             # %sw.bb
	movq	stats, %rax
	movl	16(%rax), %eax
	movq	stats, %rcx
	subl	20(%rcx), %eax
	movq	stats, %rcx
	addl	704(%rcx), %eax
	movl	%eax, 704(%rcx)
	movl	-12(%rbp), %edi
	movl	me_time, %esi
	callq	ReportIntra
	jmp	.LBB46_109
.LBB46_103:                             # %sw.bb246
	movq	stats, %rax
	movl	16(%rax), %eax
	movq	stats, %rcx
	subl	20(%rcx), %eax
	movq	stats, %rcx
	addl	708(%rcx), %eax
	movl	%eax, 708(%rcx)
	movl	-12(%rbp), %edi
	movl	me_time, %esi
	callq	ReportSP
	jmp	.LBB46_109
.LBB46_104:                             # %sw.bb251
	movq	stats, %rax
	movl	16(%rax), %eax
	movq	stats, %rcx
	subl	20(%rcx), %eax
	movq	stats, %rcx
	addl	712(%rcx), %eax
	movl	%eax, 712(%rcx)
	movq	img, %rax
	cmpl	$0, 72496(%rax)
	jle	.LBB46_106
# %bb.105:                              # %if.then259
	movl	-12(%rbp), %edi
	movl	me_time, %esi
	callq	ReportRB
	jmp	.LBB46_107
.LBB46_106:                             # %if.else260
	movl	-12(%rbp), %edi
	movl	me_time, %esi
	callq	ReportB
.LBB46_107:                             # %if.end261
	jmp	.LBB46_109
.LBB46_108:                             # %sw.default
	movq	stats, %rax
	movl	16(%rax), %eax
	movq	stats, %rcx
	subl	20(%rcx), %eax
	movq	stats, %rcx
	addl	708(%rcx), %eax
	movl	%eax, 708(%rcx)
	movl	-12(%rbp), %edi
	movl	me_time, %esi
	callq	ReportP
.LBB46_109:                             # %sw.epilog
	jmp	.LBB46_110
.LBB46_110:                             # %if.end267
	movq	stats, %rax
	movl	16(%rax), %eax
	movq	stats, %rcx
	movl	%eax, 20(%rcx)
	movq	input, %rax
	cmpl	$0, 3236(%rax)
	je	.LBB46_120
# %bb.111:                              # %if.then272
	movl	-16(%rbp), %edi
	callq	rc_update_pict
	movq	img, %rax
	cmpl	$0, 24(%rax)
	jne	.LBB46_114
# %bb.112:                              # %land.lhs.true276
	movq	active_sps, %rax
	cmpl	$0, 1148(%rax)
	je	.LBB46_114
# %bb.113:                              # %if.then279
	movb	$0, %al
	callq	updateRCModel
	jmp	.LBB46_119
.LBB46_114:                             # %if.else280
	movq	img, %rax
	cmpl	$0, 24(%rax)
	jne	.LBB46_118
# %bb.115:                              # %land.lhs.true284
	movq	active_sps, %rax
	cmpl	$0, 1148(%rax)
	jne	.LBB46_118
# %bb.116:                              # %land.lhs.true287
	movq	img, %rax
	cmpl	$0, 72612(%rax)
	jne	.LBB46_118
# %bb.117:                              # %if.then291
	movb	$0, %al
	callq	updateRCModel
.LBB46_118:                             # %if.end292
	jmp	.LBB46_119
.LBB46_119:                             # %if.end293
	jmp	.LBB46_120
.LBB46_120:                             # %if.end294
	movq	stats, %rax
	movl	$0, 1492(%rax)
	movq	img, %rax
	movl	(%rax), %eax
	subl	start_frame_no_in_this_IGOP, %eax
	cmpl	$0, %eax
	jne	.LBB46_122
# %bb.121:                              # %if.then300
	movl	$0, -20(%rbp)
	jmp	.LBB46_123
.LBB46_122:                             # %if.else301
	movl	$1, -20(%rbp)
.LBB46_123:                             # %return
	movl	-20(%rbp), %ebx
	cmpl	$1509886887, -44(%rbp)  # imm = 0x59FF0BA7
	jne	.LBB46_125
.LBB46_124:
	movl	%ebx, %eax
	addq	$136, %rsp
	popq	%rbx
	popq	%rbp
	.cfi_def_cfa %rsp, 8
	retq
.LBB46_125:                             # %func_exit
	.cfi_def_cfa %rbp, 16
	callq	detect_breach
	jmp	.LBB46_124
.Lfunc_end46:
	.size	encode_one_frame.10, .Lfunc_end46-encode_one_frame.10
	.cfi_endproc
                                        # -- End function
	.globl	encode_one_frame.11     # -- Begin function encode_one_frame.11
	.p2align	4, 0x90
	.type	encode_one_frame.11,@function
encode_one_frame.11:                    # @encode_one_frame.11
	.cfi_startproc
# %bb.0:                                # %entry
	pushq	%rbp
	.cfi_def_cfa_offset 16
	.cfi_offset %rbp, -16
	movq	%rsp, %rbp
	.cfi_def_cfa_register %rbp
	pushq	%rbx
	subq	$136, %rsp
	.cfi_offset %rbx, -24
	movl	$2050596864, -28(%rbp)  # imm = 0x7A39A000
	movl	$0, -56(%rbp)
	movl	$0, -36(%rbp)
	vxorps	%xmm0, %xmm0, %xmm0
	vmovss	%xmm0, -40(%rbp)
	vmovss	%xmm0, -52(%rbp)
	vmovss	%xmm0, -32(%rbp)
	vmovss	%xmm0, -48(%rbp)
	vmovss	%xmm0, -44(%rbp)
	vmovss	%xmm0, -24(%rbp)
	vmovss	%xmm0, -64(%rbp)
	vmovss	%xmm0, -60(%rbp)
	movl	$0, -16(%rbp)
	movl	$0, me_time
	movq	img, %rax
	movl	$0, 71804(%rax)
	movq	$0, enc_frame_picture
	movq	$0, enc_frame_picture2
	movq	$0, enc_frame_picture3
	leaq	-112(%rbp), %rdi
	callq	ftime
	leaq	-88(%rbp), %rdi
	callq	time
	movq	img, %rax
	movl	$0, 72624(%rax)
	movq	input, %rax
	cmpl	$0, 56(%rax)
	je	.LBB47_3
# %bb.1:                                # %land.lhs.true
	movq	img, %rax
	cmpl	$0, (%rax)
	je	.LBB47_3
# %bb.2:                                # %if.then
	xorl	%edi, %edi
	xorl	%esi, %esi
	callq	write_PPS
	movq	stats, %rcx
	movl	%eax, 1492(%rcx)
	movq	stats, %rax
	movl	1492(%rax), %eax
	movq	stats, %rcx
	addl	1488(%rcx), %eax
	movl	%eax, 1488(%rcx)
.LBB47_3:                               # %if.end
	callq	put_buffer_frame
	callq	init_frame
	callq	CalculateFrameNumber
	movl	%eax, -68(%rbp)
	movl	-68(%rbp), %edi
	movq	input, %rax
	movl	220(%rax), %esi
	movq	input, %rax
	movl	64(%rax), %edx
	movq	input, %rax
	movl	68(%rax), %ecx
	movq	input, %rax
	movl	3308(%rax), %r8d
	movq	input, %rax
	movl	3304(%rax), %r9d
	callq	ReadOneFrame
	movq	input, %rax
	movl	64(%rax), %edi
	movq	input, %rax
	movl	68(%rax), %esi
	movq	img, %rax
	movl	52(%rax), %edx
	movq	img, %rax
	movl	60(%rax), %ecx
	movq	input, %rax
	movl	3308(%rax), %r8d
	movq	input, %rax
	movl	3304(%rax), %r9d
	movq	img, %rax
	movl	56(%rax), %eax
	movq	img, %rbx
	movl	64(%rbx), %ebx
	movl	%eax, (%rsp)
	movl	%ebx, 8(%rsp)
	callq	PaddAutoCropBorders
	movq	input, %rax
	movl	1248(%rax), %eax
	movq	img, %rcx
	movl	%eax, 71996(%rcx)
	movq	input, %rax
	movl	2928(%rax), %eax
	movq	img, %rcx
	movl	%eax, 71984(%rcx)
	movq	input, %rax
	movl	2932(%rax), %eax
	movq	img, %rcx
	movl	%eax, 71988(%rcx)
	movq	input, %rax
	movl	2936(%rax), %eax
	movq	img, %rcx
	movl	%eax, 71992(%rcx)
	movq	img, %rax
	cmpl	$1, 24(%rax)
	jne	.LBB47_5
# %bb.4:                                # %if.then14
	movl	Bframe_ctr, %eax
	addl	$1, %eax
	movl	%eax, Bframe_ctr
	jmp	.LBB47_9
.LBB47_5:                               # %if.else
	movq	img, %rax
	cmpl	$2, 24(%rax)
	jne	.LBB47_7
# %bb.6:                                # %if.then17
	movl	Iframe_ctr, %eax
	addl	$1, %eax
	movl	%eax, Iframe_ctr
	jmp	.LBB47_8
.LBB47_7:                               # %if.else19
	movl	Pframe_ctr, %eax
	addl	$1, %eax
	movl	%eax, Pframe_ctr
.LBB47_8:                               # %if.end21
	jmp	.LBB47_9
.LBB47_9:                               # %if.end22
	movq	input, %rax
	cmpl	$1, 2880(%rax)
	jne	.LBB47_11
# %bb.10:                               # %if.then24
	movq	img, %rax
	movl	$1, 72600(%rax)
	movq	img, %rax
	movl	$1, 72444(%rax)
	movq	top_pic, %rdi
	movq	bottom_pic, %rsi
	callq	field_picture
	movq	img, %rax
	movl	$1, 71800(%rax)
	jmp	.LBB47_38
.LBB47_11:                              # %if.else25
	movq	img, %rax
	movl	$0, 72600(%rax)
	movq	input, %rax
	cmpl	$0, 2884(%rax)
	je	.LBB47_13
# %bb.12:                               # %if.then28
	movl	$1, mb_adaptive
.LBB47_13:                              # %if.end29
	movq	img, %rax
	movl	$0, 72444(%rax)
	movq	input, %rax
	cmpl	$0, 3236(%rax)
	je	.LBB47_21
# %bb.14:                               # %if.then32
	movq	input, %rax
	cmpl	$0, 2884(%rax)
	je	.LBB47_19
# %bb.15:                               # %land.lhs.true35
	movq	input, %rax
	movl	3248(%rax), %eax
	movq	img, %rcx
	cmpl	72608(%rcx), %eax
	jge	.LBB47_19
# %bb.16:                               # %land.lhs.true37
	movq	img, %rax
	cmpl	$0, 24(%rax)
	jne	.LBB47_19
# %bb.17:                               # %land.lhs.true40
	movq	img, %rax
	cmpl	$0, 72612(%rax)
	jne	.LBB47_19
# %bb.18:                               # %if.then42
	movq	input, %rax
	movl	3248(%rax), %eax
	shll	$1, %eax
	movq	img, %rcx
	movl	%eax, 72620(%rcx)
	jmp	.LBB47_20
.LBB47_19:                              # %if.else44
	movq	input, %rax
	movl	3248(%rax), %eax
	movq	img, %rcx
	movl	%eax, 72620(%rcx)
.LBB47_20:                              # %if.end47
	movl	$1, %edi
	xorl	%esi, %esi
	movl	$1, %edx
	callq	rc_init_pict
	xorl	%edi, %edi
	callq	updateQuantizationParameter
	movq	img, %rcx
	movl	%eax, 40(%rcx)
	movq	img, %rax
	movl	24(%rax), %eax
	movl	%eax, -92(%rbp)
	movl	$0, QP
.LBB47_21:                              # %if.end50
	movq	active_sps, %rax
	cmpl	$0, 1148(%rax)
	je	.LBB47_23
# %bb.22:                               # %if.then52
	movq	img, %rax
	movl	$0, 72596(%rax)
.LBB47_23:                              # %if.end53
	movq	input, %rax
	cmpl	$0, 60(%rax)
	je	.LBB47_25
# %bb.24:                               # %if.then55
	movabsq	$PicParSet, %rax
	movq	%rax, active_pps
.LBB47_25:                              # %if.end56
	movq	frame_pic, %rdi
	xorl	%esi, %esi
	callq	frame_picture
	movq	input, %rax
	cmpl	$0, 1300(%rax)
	jne	.LBB47_27
# %bb.26:                               # %lor.lhs.false
	movq	img, %rax
	cmpl	$2, 24(%rax)
	je	.LBB47_29
.LBB47_27:                              # %land.lhs.true60
	movq	input, %rax
	cmpl	$0, 1296(%rax)
	je	.LBB47_29
# %bb.28:                               # %if.then62
	callq	rdPictureCoding
.LBB47_29:                              # %if.end63
	movq	input, %rax
	cmpl	$0, 2884(%rax)
	je	.LBB47_31
# %bb.30:                               # %if.then66
	movl	$0, mb_adaptive
.LBB47_31:                              # %if.end67
	movq	input, %rax
	cmpl	$2, 2880(%rax)
	jne	.LBB47_36
# %bb.32:                               # %if.then70
	movq	img, %rax
	movl	$1, 72600(%rax)
	movq	img, %rax
	movl	$0, 72624(%rax)
	movq	img, %rax
	movl	$0, 72628(%rax)
	movq	img, %rax
	movl	$1, 72444(%rax)
	movq	top_pic, %rdi
	movq	bottom_pic, %rsi
	callq	field_picture
	movq	top_pic, %rax
	vmovss	812(%rax), %xmm0        # xmm0 = mem[0],zero,zero,zero
	movq	top_pic, %rax
	vaddss	816(%rax), %xmm0, %xmm0
	movq	top_pic, %rax
	vaddss	820(%rax), %xmm0, %xmm0
	vmovss	%xmm0, -44(%rbp)
	movq	frame_pic, %rax
	vmovss	812(%rax), %xmm0        # xmm0 = mem[0],zero,zero,zero
	movq	frame_pic, %rax
	vaddss	816(%rax), %xmm0, %xmm0
	movq	frame_pic, %rax
	vaddss	820(%rax), %xmm0, %xmm0
	vmovss	%xmm0, -40(%rbp)
	movq	frame_pic, %rdi
	movq	top_pic, %rsi
	movq	bottom_pic, %rdx
	callq	picture_structure_decision
	movq	img, %rcx
	movl	%eax, 71800(%rcx)
	movq	img, %rax
	movl	71800(%rax), %edi
	callq	update_field_frame_contexts
	movq	img, %rax
	cmpl	$0, 71800(%rax)
	jne	.LBB47_34
# %bb.33:                               # %if.then86
	movq	img, %rax
	movl	$1, 72604(%rax)
	jmp	.LBB47_35
.LBB47_34:                              # %if.else87
	movq	img, %rax
	movl	$0, 72604(%rax)
.LBB47_35:                              # %if.end89
	jmp	.LBB47_37
.LBB47_36:                              # %if.else90
	movq	img, %rax
	movl	$0, 71800(%rax)
.LBB47_37:                              # %if.end92
	jmp	.LBB47_38
.LBB47_38:                              # %if.end93
	movq	img, %rax
	cmpl	$0, 71800(%rax)
	je	.LBB47_40
# %bb.39:                               # %if.then96
	movq	stats, %rax
	movl	1472(%rax), %eax
	movq	stats, %rcx
	addl	28(%rcx), %eax
	movl	%eax, 28(%rcx)
	jmp	.LBB47_41
.LBB47_40:                              # %if.else98
	movq	stats, %rax
	movl	1468(%rax), %eax
	movq	stats, %rcx
	addl	28(%rcx), %eax
	movl	%eax, 28(%rcx)
.LBB47_41:                              # %if.end101
	movq	img, %rax
	cmpl	$1, 24(%rax)
	je	.LBB47_43
# %bb.42:                               # %if.then104
	movq	img, %rax
	movl	71800(%rax), %eax
	movq	img, %rcx
	movl	%eax, 71872(%rcx)
.LBB47_43:                              # %if.end106
	movq	img, %rax
	cmpl	$0, 71800(%rax)
	je	.LBB47_45
# %bb.44:                               # %if.then109
	movl	-36(%rbp), %edi
	vmovss	-24(%rbp), %xmm0        # xmm0 = mem[0],zero,zero,zero
	vmovss	-64(%rbp), %xmm1        # xmm1 = mem[0],zero,zero,zero
	vmovss	-60(%rbp), %xmm2        # xmm2 = mem[0],zero,zero,zero
	callq	field_mode_buffer
	movq	top_pic, %rdi
	callq	writeout_picture
	movq	bottom_pic, %rdi
	callq	writeout_picture
	jmp	.LBB47_54
.LBB47_45:                              # %if.else112
	movl	-56(%rbp), %edi
	vmovss	-52(%rbp), %xmm0        # xmm0 = mem[0],zero,zero,zero
	vmovss	-32(%rbp), %xmm1        # xmm1 = mem[0],zero,zero,zero
	vmovss	-48(%rbp), %xmm2        # xmm2 = mem[0],zero,zero,zero
	callq	frame_mode_buffer
	movq	input, %rax
	cmpl	$0, 1296(%rax)
	je	.LBB47_48
# %bb.46:                               # %land.lhs.true115
	movq	img, %rax
	cmpl	$2, 71804(%rax)
	jne	.LBB47_48
# %bb.47:                               # %if.then118
	movq	frame_pic3, %rdi
	callq	writeout_picture
	jmp	.LBB47_53
.LBB47_48:                              # %if.else120
	movq	input, %rax
	cmpl	$0, 1296(%rax)
	je	.LBB47_51
# %bb.49:                               # %land.lhs.true123
	movq	img, %rax
	cmpl	$1, 71804(%rax)
	jne	.LBB47_51
# %bb.50:                               # %if.then126
	movq	frame_pic2, %rdi
	callq	writeout_picture
	jmp	.LBB47_52
.LBB47_51:                              # %if.else128
	movq	frame_pic, %rdi
	callq	writeout_picture
.LBB47_52:                              # %if.end130
	jmp	.LBB47_53
.LBB47_53:                              # %if.end131
	jmp	.LBB47_54
.LBB47_54:                              # %if.end132
	cmpq	$0, frame_pic3
	je	.LBB47_56
# %bb.55:                               # %if.then134
	movq	frame_pic3, %rdi
	callq	free_slice_list
.LBB47_56:                              # %if.end135
	cmpq	$0, frame_pic2
	je	.LBB47_58
# %bb.57:                               # %if.then137
	movq	frame_pic2, %rdi
	callq	free_slice_list
.LBB47_58:                              # %if.end138
	cmpq	$0, frame_pic
	je	.LBB47_60
# %bb.59:                               # %if.then140
	movq	frame_pic, %rdi
	callq	free_slice_list
.LBB47_60:                              # %if.end141
	cmpq	$0, top_pic
	je	.LBB47_62
# %bb.61:                               # %if.then143
	movq	top_pic, %rdi
	callq	free_slice_list
.LBB47_62:                              # %if.end144
	cmpq	$0, bottom_pic
	je	.LBB47_64
# %bb.63:                               # %if.then146
	movq	bottom_pic, %rdi
	callq	free_slice_list
.LBB47_64:                              # %if.end147
	movq	input, %rax
	cmpl	$0, 3236(%rax)
	je	.LBB47_66
# %bb.65:                               # %if.then150
	movq	stats, %rax
	movl	16(%rax), %eax
	movq	stats, %rcx
	subl	20(%rcx), %eax
	movl	%eax, -16(%rbp)
	movl	-16(%rbp), %edi
	callq	rc_update_pict_frame
.LBB47_66:                              # %if.end151
	callq	find_snr
	leaq	-80(%rbp), %rdi
	callq	time
	leaq	-128(%rbp), %rdi
	callq	ftime
	imulq	$1000, -80(%rbp), %rax  # imm = 0x3E8
	movzwl	-120(%rbp), %ecx
	addq	%rcx, %rax
	imulq	$1000, -88(%rbp), %rcx  # imm = 0x3E8
	movzwl	-104(%rbp), %edx
	addq	%rdx, %rcx
	subq	%rcx, %rax
	movl	%eax, -12(%rbp)
	movl	tot_time, %eax
	addl	-12(%rbp), %eax
	movl	%eax, tot_time
	movq	input, %rax
	cmpl	$2, 2880(%rax)
	jne	.LBB47_71
# %bb.67:                               # %if.then166
	movq	img, %rax
	cmpl	$0, 71800(%rax)
	je	.LBB47_69
# %bb.68:                               # %if.then169
	movq	enc_bottom_picture, %rdi
	callq	store_picture_in_dpb
	movq	enc_frame_picture, %rdi
	callq	free_storable_picture
	jmp	.LBB47_70
.LBB47_69:                              # %if.else170
	movq	enc_frame_picture, %rdi
	callq	replace_top_pic_with_frame
	movq	enc_bottom_picture, %rdi
	callq	free_storable_picture
.LBB47_70:                              # %if.end171
	jmp	.LBB47_81
.LBB47_71:                              # %if.else172
	movq	img, %rax
	cmpl	$0, 71800(%rax)
	je	.LBB47_73
# %bb.72:                               # %if.then175
	movq	enc_bottom_picture, %rdi
	callq	store_picture_in_dpb
	jmp	.LBB47_80
.LBB47_73:                              # %if.else176
	movq	img, %rax
	cmpl	$2, 71804(%rax)
	jne	.LBB47_75
# %bb.74:                               # %if.then180
	movq	enc_frame_picture3, %rdi
	callq	store_picture_in_dpb
	movq	enc_frame_picture, %rdi
	callq	free_storable_picture
	movq	enc_frame_picture2, %rdi
	callq	free_storable_picture
	jmp	.LBB47_79
.LBB47_75:                              # %if.else181
	movq	img, %rax
	cmpl	$1, 71804(%rax)
	jne	.LBB47_77
# %bb.76:                               # %if.then185
	movq	enc_frame_picture2, %rdi
	callq	store_picture_in_dpb
	movq	enc_frame_picture, %rdi
	callq	free_storable_picture
	movq	enc_frame_picture3, %rdi
	callq	free_storable_picture
	jmp	.LBB47_78
.LBB47_77:                              # %if.else186
	movq	enc_frame_picture, %rdi
	callq	store_picture_in_dpb
	movq	enc_frame_picture2, %rdi
	callq	free_storable_picture
	movq	enc_frame_picture3, %rdi
	callq	free_storable_picture
.LBB47_78:                              # %if.end187
	jmp	.LBB47_79
.LBB47_79:                              # %if.end188
	jmp	.LBB47_80
.LBB47_80:                              # %if.end189
	jmp	.LBB47_81
.LBB47_81:                              # %if.end190
	movq	stats, %rax
	movl	16(%rax), %eax
	movq	stats, %rcx
	subl	20(%rcx), %eax
	cltq
	movq	total_frame_buffer, %rcx
	movq	%rax, Bit_Buffer(,%rcx,8)
	movq	total_frame_buffer, %rax
	addq	$1, %rax
	movq	%rax, total_frame_buffer
	movq	img, %rax
	cmpl	$2, 72404(%rax)
	jne	.LBB47_89
# %bb.82:                               # %if.then198
	movq	img, %rax
	cmpl	$0, 72496(%rax)
	jne	.LBB47_84
# %bb.83:                               # %if.then200
	movl	encode_one_frame.consecutive_non_reference_pictures, %eax
	addl	$1, %eax
	movl	%eax, encode_one_frame.consecutive_non_reference_pictures
	jmp	.LBB47_85
.LBB47_84:                              # %if.else202
	movl	$0, encode_one_frame.consecutive_non_reference_pictures
.LBB47_85:                              # %if.end203
	movl	frame_no, %eax
	cmpl	encode_one_frame.prev_frame_no, %eax
	jl	.LBB47_87
# %bb.86:                               # %lor.lhs.false206
	cmpl	$1, encode_one_frame.consecutive_non_reference_pictures
	jle	.LBB47_88
.LBB47_87:                              # %if.then209
	movabsq	$.L.str, %rdi
	movl	$4294967295, %esi       # imm = 0xFFFFFFFF
	callq	error
.LBB47_88:                              # %if.end210
	movl	frame_no, %eax
	movl	%eax, encode_one_frame.prev_frame_no
.LBB47_89:                              # %if.end211
	movq	stats, %rax
	cmpl	$0, 1492(%rax)
	je	.LBB47_91
# %bb.90:                               # %if.then215
	movl	-12(%rbp), %edi
	movl	me_time, %esi
	callq	ReportNALNonVLCBits
.LBB47_91:                              # %if.end216
	movq	img, %rax
	movl	(%rax), %eax
	subl	start_frame_no_in_this_IGOP, %eax
	cmpl	$0, %eax
	jne	.LBB47_93
# %bb.92:                               # %if.then221
	movl	-12(%rbp), %edi
	movl	me_time, %esi
	callq	ReportFirstframe
	jmp	.LBB47_110
.LBB47_93:                              # %if.else222
	movq	input, %rax
	cmpl	$0, 3236(%rax)
	je	.LBB47_99
# %bb.94:                               # %if.then225
	movq	input, %rax
	cmpl	$0, 2880(%rax)
	jne	.LBB47_97
# %bb.95:                               # %land.lhs.true228
	movq	input, %rax
	cmpl	$0, 2884(%rax)
	jne	.LBB47_97
# %bb.96:                               # %if.then231
	movq	stats, %rax
	movl	16(%rax), %eax
	movq	stats, %rcx
	subl	20(%rcx), %eax
	movl	%eax, -16(%rbp)
	jmp	.LBB47_98
.LBB47_97:                              # %if.else235
	movq	stats, %rax
	movl	16(%rax), %eax
	subl	Pprev_bits, %eax
	movl	%eax, -16(%rbp)
	movq	stats, %rax
	movl	16(%rax), %eax
	movl	%eax, Pprev_bits
.LBB47_98:                              # %if.end239
	jmp	.LBB47_99
.LBB47_99:                              # %if.end240
	movq	img(%rip), %rax
	movl	24(%rax), %eax
	movl	%eax, %ecx
	subl	$1, %ecx
	je	.LBB47_104
	jmp	.LBB47_100
.LBB47_100:                             # %if.end240
	movl	%eax, %ecx
	subl	$2, %ecx
	je	.LBB47_102
	jmp	.LBB47_101
.LBB47_101:                             # %if.end240
	subl	$3, %eax
	je	.LBB47_103
	jmp	.LBB47_108
.LBB47_102:                             # %sw.bb
	movq	stats, %rax
	movl	16(%rax), %eax
	movq	stats, %rcx
	subl	20(%rcx), %eax
	movq	stats, %rcx
	addl	704(%rcx), %eax
	movl	%eax, 704(%rcx)
	movl	-12(%rbp), %edi
	movl	me_time, %esi
	callq	ReportIntra
	jmp	.LBB47_109
.LBB47_103:                             # %sw.bb246
	movq	stats, %rax
	movl	16(%rax), %eax
	movq	stats, %rcx
	subl	20(%rcx), %eax
	movq	stats, %rcx
	addl	708(%rcx), %eax
	movl	%eax, 708(%rcx)
	movl	-12(%rbp), %edi
	movl	me_time, %esi
	callq	ReportSP
	jmp	.LBB47_109
.LBB47_104:                             # %sw.bb251
	movq	stats, %rax
	movl	16(%rax), %eax
	movq	stats, %rcx
	subl	20(%rcx), %eax
	movq	stats, %rcx
	addl	712(%rcx), %eax
	movl	%eax, 712(%rcx)
	movq	img, %rax
	cmpl	$0, 72496(%rax)
	jle	.LBB47_106
# %bb.105:                              # %if.then259
	movl	-12(%rbp), %edi
	movl	me_time, %esi
	callq	ReportRB
	jmp	.LBB47_107
.LBB47_106:                             # %if.else260
	movl	-12(%rbp), %edi
	movl	me_time, %esi
	callq	ReportB
.LBB47_107:                             # %if.end261
	jmp	.LBB47_109
.LBB47_108:                             # %sw.default
	movq	stats, %rax
	movl	16(%rax), %eax
	movq	stats, %rcx
	subl	20(%rcx), %eax
	movq	stats, %rcx
	addl	708(%rcx), %eax
	movl	%eax, 708(%rcx)
	movl	-12(%rbp), %edi
	movl	me_time, %esi
	callq	ReportP
.LBB47_109:                             # %sw.epilog
	jmp	.LBB47_110
.LBB47_110:                             # %if.end267
	movq	stats, %rax
	movl	16(%rax), %eax
	movq	stats, %rcx
	movl	%eax, 20(%rcx)
	movq	input, %rax
	cmpl	$0, 3236(%rax)
	je	.LBB47_120
# %bb.111:                              # %if.then272
	movl	-16(%rbp), %edi
	callq	rc_update_pict
	movq	img, %rax
	cmpl	$0, 24(%rax)
	jne	.LBB47_114
# %bb.112:                              # %land.lhs.true276
	movq	active_sps, %rax
	cmpl	$0, 1148(%rax)
	je	.LBB47_114
# %bb.113:                              # %if.then279
	movb	$0, %al
	callq	updateRCModel
	jmp	.LBB47_119
.LBB47_114:                             # %if.else280
	movq	img, %rax
	cmpl	$0, 24(%rax)
	jne	.LBB47_118
# %bb.115:                              # %land.lhs.true284
	movq	active_sps, %rax
	cmpl	$0, 1148(%rax)
	jne	.LBB47_118
# %bb.116:                              # %land.lhs.true287
	movq	img, %rax
	cmpl	$0, 72612(%rax)
	jne	.LBB47_118
# %bb.117:                              # %if.then291
	movb	$0, %al
	callq	updateRCModel
.LBB47_118:                             # %if.end292
	jmp	.LBB47_119
.LBB47_119:                             # %if.end293
	jmp	.LBB47_120
.LBB47_120:                             # %if.end294
	movq	stats, %rax
	movl	$0, 1492(%rax)
	movq	img, %rax
	movl	(%rax), %eax
	subl	start_frame_no_in_this_IGOP, %eax
	cmpl	$0, %eax
	jne	.LBB47_122
# %bb.121:                              # %if.then300
	movl	$0, -20(%rbp)
	jmp	.LBB47_123
.LBB47_122:                             # %if.else301
	movl	$1, -20(%rbp)
.LBB47_123:                             # %return
	movl	-20(%rbp), %ebx
	cmpl	$2050596864, -28(%rbp)  # imm = 0x7A39A000
	jne	.LBB47_125
.LBB47_124:
	movl	%ebx, %eax
	addq	$136, %rsp
	popq	%rbx
	popq	%rbp
	.cfi_def_cfa %rsp, 8
	retq
.LBB47_125:                             # %func_exit
	.cfi_def_cfa %rbp, 16
	callq	detect_breach
	jmp	.LBB47_124
.Lfunc_end47:
	.size	encode_one_frame.11, .Lfunc_end47-encode_one_frame.11
	.cfi_endproc
                                        # -- End function
	.p2align	4, 0x90         # -- Begin function find_distortion.12
	.type	find_distortion.12,@function
find_distortion.12:                     # @find_distortion.12
	.cfi_startproc
# %bb.0:                                # %entry
	pushq	%rbp
	.cfi_def_cfa_offset 16
	.cfi_offset %rbp, -16
	movq	%rsp, %rbp
	.cfi_def_cfa_register %rbp
	pushq	%rbx
	subq	$40, %rsp
	.cfi_offset %rbx, -24
	movl	$1754603724, -44(%rbp)  # imm = 0x689520CC
	movq	input, %rax
	movl	68(%rax), %eax
	movq	input, %rcx
	imull	64(%rcx), %eax
	movl	%eax, -48(%rbp)
	movq	img, %rax
	cmpl	$0, 28(%rax)
	je	.LBB48_20
# %bb.1:                                # %if.then
	movq	$0, -24(%rbp)
	movl	$0, -12(%rbp)
.LBB48_2:                               # %for.cond
                                        # =>This Loop Header: Depth=1
                                        #     Child Loop BB48_4 Depth 2
	movl	-12(%rbp), %eax
	movq	input, %rcx
	cmpl	64(%rcx), %eax
	jge	.LBB48_9
# %bb.3:                                # %for.body
                                        #   in Loop: Header=BB48_2 Depth=1
	movl	$0, -16(%rbp)
.LBB48_4:                               # %for.cond3
                                        #   Parent Loop BB48_2 Depth=1
                                        # =>  This Inner Loop Header: Depth=2
	movl	-16(%rbp), %eax
	movq	input, %rcx
	cmpl	68(%rcx), %eax
	jge	.LBB48_7
# %bb.5:                                # %for.body6
                                        #   in Loop: Header=BB48_4 Depth=2
	movq	img, %rax
	movq	71776(%rax), %rbx
	movq	imgY_org, %rax
	movslq	-16(%rbp), %rcx
	movq	(%rax,%rcx,8), %rax
	movslq	-12(%rbp), %rcx
	movzwl	(%rax,%rcx,2), %edi
	movq	imgY_com, %rax
	movslq	-16(%rbp), %rcx
	movq	(%rax,%rcx,8), %rax
	movslq	-12(%rbp), %rcx
	movzwl	(%rax,%rcx,2), %eax
	subl	%eax, %edi
	callq	abs
	cltq
	movslq	(%rbx,%rax,4), %rax
	addq	-24(%rbp), %rax
	movq	%rax, -24(%rbp)
# %bb.6:                                # %for.inc
                                        #   in Loop: Header=BB48_4 Depth=2
	movl	-16(%rbp), %eax
	addl	$1, %eax
	movl	%eax, -16(%rbp)
	jmp	.LBB48_4
.LBB48_7:                               # %for.end
                                        #   in Loop: Header=BB48_2 Depth=1
	jmp	.LBB48_8
.LBB48_8:                               # %for.inc17
                                        #   in Loop: Header=BB48_2 Depth=1
	movl	-12(%rbp), %eax
	addl	$1, %eax
	movl	%eax, -12(%rbp)
	jmp	.LBB48_2
.LBB48_9:                               # %for.end19
	movq	$0, -32(%rbp)
	movq	$0, -40(%rbp)
	movq	img, %rax
	cmpl	$0, 72700(%rax)
	je	.LBB48_19
# %bb.10:                               # %if.then22
	movl	$0, -12(%rbp)
.LBB48_11:                              # %for.cond23
                                        # =>This Loop Header: Depth=1
                                        #     Child Loop BB48_13 Depth 2
	movl	-12(%rbp), %eax
	movq	input, %rcx
	cmpl	3308(%rcx), %eax
	jge	.LBB48_18
# %bb.12:                               # %for.body26
                                        #   in Loop: Header=BB48_11 Depth=1
	movl	$0, -16(%rbp)
.LBB48_13:                              # %for.cond27
                                        #   Parent Loop BB48_11 Depth=1
                                        # =>  This Inner Loop Header: Depth=2
	movl	-16(%rbp), %eax
	movq	input, %rcx
	cmpl	3304(%rcx), %eax
	jge	.LBB48_16
# %bb.14:                               # %for.body30
                                        #   in Loop: Header=BB48_13 Depth=2
	movq	img, %rax
	movq	71776(%rax), %rbx
	movq	imgUV_org, %rax
	movq	(%rax), %rax
	movslq	-16(%rbp), %rcx
	movq	(%rax,%rcx,8), %rax
	movslq	-12(%rbp), %rcx
	movzwl	(%rax,%rcx,2), %edi
	movq	imgUV_com, %rax
	movq	(%rax), %rax
	movslq	-16(%rbp), %rcx
	movq	(%rax,%rcx,8), %rax
	movslq	-12(%rbp), %rcx
	movzwl	(%rax,%rcx,2), %eax
	subl	%eax, %edi
	callq	abs
	cltq
	movslq	(%rbx,%rax,4), %rax
	addq	-32(%rbp), %rax
	movq	%rax, -32(%rbp)
	movq	img, %rax
	movq	71776(%rax), %rbx
	movq	imgUV_org, %rax
	movq	8(%rax), %rax
	movslq	-16(%rbp), %rcx
	movq	(%rax,%rcx,8), %rax
	movslq	-12(%rbp), %rcx
	movzwl	(%rax,%rcx,2), %edi
	movq	imgUV_com, %rax
	movq	8(%rax), %rax
	movslq	-16(%rbp), %rcx
	movq	(%rax,%rcx,8), %rax
	movslq	-12(%rbp), %rcx
	movzwl	(%rax,%rcx,2), %eax
	subl	%eax, %edi
	callq	abs
	cltq
	movslq	(%rbx,%rax,4), %rax
	addq	-40(%rbp), %rax
	movq	%rax, -40(%rbp)
# %bb.15:                               # %for.inc69
                                        #   in Loop: Header=BB48_13 Depth=2
	movl	-16(%rbp), %eax
	addl	$1, %eax
	movl	%eax, -16(%rbp)
	jmp	.LBB48_13
.LBB48_16:                              # %for.end71
                                        #   in Loop: Header=BB48_11 Depth=1
	jmp	.LBB48_17
.LBB48_17:                              # %for.inc72
                                        #   in Loop: Header=BB48_11 Depth=1
	movl	-12(%rbp), %eax
	addl	$1, %eax
	movl	%eax, -12(%rbp)
	jmp	.LBB48_11
.LBB48_18:                              # %for.end74
	jmp	.LBB48_19
.LBB48_19:                              # %if.end
	jmp	.LBB48_39
.LBB48_20:                              # %if.else
	movq	imgY_org_frm, %rax
	movq	%rax, imgY_org
	movq	imgUV_org_frm, %rax
	movq	%rax, imgUV_org
	movq	$0, -24(%rbp)
	movl	$0, -12(%rbp)
.LBB48_21:                              # %for.cond75
                                        # =>This Loop Header: Depth=1
                                        #     Child Loop BB48_23 Depth 2
	movl	-12(%rbp), %eax
	movq	input, %rcx
	cmpl	64(%rcx), %eax
	jge	.LBB48_28
# %bb.22:                               # %for.body79
                                        #   in Loop: Header=BB48_21 Depth=1
	movl	$0, -16(%rbp)
.LBB48_23:                              # %for.cond80
                                        #   Parent Loop BB48_21 Depth=1
                                        # =>  This Inner Loop Header: Depth=2
	movl	-16(%rbp), %eax
	movq	input, %rcx
	cmpl	68(%rcx), %eax
	jge	.LBB48_26
# %bb.24:                               # %for.body84
                                        #   in Loop: Header=BB48_23 Depth=2
	movq	img, %rax
	movq	71776(%rax), %rbx
	movq	imgY_org, %rax
	movslq	-16(%rbp), %rcx
	movq	(%rax,%rcx,8), %rax
	movslq	-12(%rbp), %rcx
	movzwl	(%rax,%rcx,2), %edi
	movq	enc_picture, %rax
	movq	6424(%rax), %rax
	movslq	-16(%rbp), %rcx
	movq	(%rax,%rcx,8), %rax
	movslq	-12(%rbp), %rcx
	movzwl	(%rax,%rcx,2), %eax
	subl	%eax, %edi
	callq	abs
	cltq
	movslq	(%rbx,%rax,4), %rax
	addq	-24(%rbp), %rax
	movq	%rax, -24(%rbp)
# %bb.25:                               # %for.inc102
                                        #   in Loop: Header=BB48_23 Depth=2
	movl	-16(%rbp), %eax
	addl	$1, %eax
	movl	%eax, -16(%rbp)
	jmp	.LBB48_23
.LBB48_26:                              # %for.end104
                                        #   in Loop: Header=BB48_21 Depth=1
	jmp	.LBB48_27
.LBB48_27:                              # %for.inc105
                                        #   in Loop: Header=BB48_21 Depth=1
	movl	-12(%rbp), %eax
	addl	$1, %eax
	movl	%eax, -12(%rbp)
	jmp	.LBB48_21
.LBB48_28:                              # %for.end107
	movq	$0, -32(%rbp)
	movq	$0, -40(%rbp)
	movq	img, %rax
	cmpl	$0, 72700(%rax)
	je	.LBB48_38
# %bb.29:                               # %if.then111
	movl	$0, -12(%rbp)
.LBB48_30:                              # %for.cond112
                                        # =>This Loop Header: Depth=1
                                        #     Child Loop BB48_32 Depth 2
	movl	-12(%rbp), %eax
	movq	input, %rcx
	cmpl	3308(%rcx), %eax
	jge	.LBB48_37
# %bb.31:                               # %for.body116
                                        #   in Loop: Header=BB48_30 Depth=1
	movl	$0, -16(%rbp)
.LBB48_32:                              # %for.cond117
                                        #   Parent Loop BB48_30 Depth=1
                                        # =>  This Inner Loop Header: Depth=2
	movl	-16(%rbp), %eax
	movq	input, %rcx
	cmpl	3304(%rcx), %eax
	jge	.LBB48_35
# %bb.33:                               # %for.body121
                                        #   in Loop: Header=BB48_32 Depth=2
	movq	img, %rax
	movq	71776(%rax), %rbx
	movq	imgUV_org, %rax
	movq	(%rax), %rax
	movslq	-16(%rbp), %rcx
	movq	(%rax,%rcx,8), %rax
	movslq	-12(%rbp), %rcx
	movzwl	(%rax,%rcx,2), %edi
	movq	enc_picture, %rax
	movq	6464(%rax), %rax
	movq	(%rax), %rax
	movslq	-16(%rbp), %rcx
	movq	(%rax,%rcx,8), %rax
	movslq	-12(%rbp), %rcx
	movzwl	(%rax,%rcx,2), %eax
	subl	%eax, %edi
	callq	abs
	cltq
	movslq	(%rbx,%rax,4), %rax
	addq	-32(%rbp), %rax
	movq	%rax, -32(%rbp)
	movq	img, %rax
	movq	71776(%rax), %rbx
	movq	imgUV_org, %rax
	movq	8(%rax), %rax
	movslq	-16(%rbp), %rcx
	movq	(%rax,%rcx,8), %rax
	movslq	-12(%rbp), %rcx
	movzwl	(%rax,%rcx,2), %edi
	movq	enc_picture, %rax
	movq	6464(%rax), %rax
	movq	8(%rax), %rax
	movslq	-16(%rbp), %rcx
	movq	(%rax,%rcx,8), %rax
	movslq	-12(%rbp), %rcx
	movzwl	(%rax,%rcx,2), %eax
	subl	%eax, %edi
	callq	abs
	cltq
	movslq	(%rbx,%rax,4), %rax
	addq	-40(%rbp), %rax
	movq	%rax, -40(%rbp)
# %bb.34:                               # %for.inc161
                                        #   in Loop: Header=BB48_32 Depth=2
	movl	-16(%rbp), %eax
	addl	$1, %eax
	movl	%eax, -16(%rbp)
	jmp	.LBB48_32
.LBB48_35:                              # %for.end163
                                        #   in Loop: Header=BB48_30 Depth=1
	jmp	.LBB48_36
.LBB48_36:                              # %for.inc164
                                        #   in Loop: Header=BB48_30 Depth=1
	movl	-12(%rbp), %eax
	addl	$1, %eax
	movl	%eax, -12(%rbp)
	jmp	.LBB48_30
.LBB48_37:                              # %for.end166
	jmp	.LBB48_38
.LBB48_38:                              # %if.end167
	jmp	.LBB48_39
.LBB48_39:                              # %if.end168
	vcvtsi2ssq	-24(%rbp), %xmm0, %xmm0
	movq	snr, %rax
	vmovss	%xmm0, (%rax)
	vcvtsi2ssq	-32(%rbp), %xmm0, %xmm0
	movq	snr, %rax
	vmovss	%xmm0, 4(%rax)
	vcvtsi2ssq	-40(%rbp), %xmm0, %xmm0
	movq	snr, %rax
	vmovss	%xmm0, 8(%rax)
	cmpl	$1754603724, -44(%rbp)  # imm = 0x689520CC
	jne	.LBB48_41
.LBB48_40:
	addq	$40, %rsp
	popq	%rbx
	popq	%rbp
	.cfi_def_cfa %rsp, 8
	retq
.LBB48_41:                              # %func_exit
	.cfi_def_cfa %rbp, 16
	callq	detect_breach
	jmp	.LBB48_40
.Lfunc_end48:
	.size	find_distortion.12, .Lfunc_end48-find_distortion.12
	.cfi_endproc
                                        # -- End function
	.globl	frame_picture.13        # -- Begin function frame_picture.13
	.p2align	4, 0x90
	.type	frame_picture.13,@function
frame_picture.13:                       # @frame_picture.13
	.cfi_startproc
# %bb.0:                                # %entry
	pushq	%rbp
	.cfi_def_cfa_offset 16
	.cfi_offset %rbp, -16
	movq	%rsp, %rbp
	.cfi_def_cfa_register %rbp
	subq	$16, %rsp
	movl	$195658633, -16(%rbp)   # imm = 0xBA98389
	movq	%rdi, -8(%rbp)
	movl	%esi, -12(%rbp)
	movq	img, %rax
	movl	$0, 28(%rax)
	movq	img, %rax
	movl	72488(%rax), %eax
	movq	img, %rcx
	movl	%eax, 72484(%rcx)
	cmpl	$2, -12(%rbp)
	jne	.LBB49_2
# %bb.1:                                # %if.then
	movq	img, %rax
	movl	28(%rax), %edi
	movq	img, %rax
	movl	52(%rax), %esi
	movq	img, %rax
	movl	60(%rax), %edx
	movq	img, %rax
	movl	56(%rax), %ecx
	movq	img, %rax
	movl	64(%rax), %r8d
	callq	alloc_storable_picture
	movq	%rax, enc_frame_picture3
	movq	img, %rax
	movl	72456(%rax), %eax
	movq	enc_frame_picture3, %rcx
	movl	%eax, 4(%rcx)
	movq	img, %rcx
	movl	%eax, 72460(%rcx)
	movq	img, %rax
	movl	72448(%rax), %eax
	movq	enc_frame_picture3, %rcx
	movl	%eax, 8(%rcx)
	movq	img, %rax
	movl	72452(%rax), %eax
	movq	enc_frame_picture3, %rcx
	movl	%eax, 12(%rcx)
	movq	img, %rax
	movl	72456(%rax), %eax
	movq	enc_frame_picture3, %rcx
	movl	%eax, 16(%rcx)
	movq	img, %rax
	movl	72464(%rax), %eax
	movq	enc_frame_picture3, %rcx
	movl	%eax, 6364(%rcx)
	movq	img, %rax
	movl	72464(%rax), %eax
	movq	enc_frame_picture3, %rcx
	movl	%eax, 6360(%rcx)
	movq	enc_frame_picture3, %rax
	movl	$1, 6412(%rax)
	movq	input, %rax
	cmpl	$0, 2884(%rax)
	setne	%al
	andb	$1, %al
	movzbl	%al, %eax
	movq	img, %rcx
	movl	%eax, 72400(%rcx)
	movq	enc_frame_picture3, %rcx
	movl	%eax, 6416(%rcx)
	movq	enc_frame_picture3, %rax
	movq	%rax, enc_picture
	callq	copy_params
	jmp	.LBB49_6
.LBB49_2:                               # %if.else
	cmpl	$1, -12(%rbp)
	jne	.LBB49_4
# %bb.3:                                # %if.then9
	movq	img, %rax
	movl	28(%rax), %edi
	movq	img, %rax
	movl	52(%rax), %esi
	movq	img, %rax
	movl	60(%rax), %edx
	movq	img, %rax
	movl	56(%rax), %ecx
	movq	img, %rax
	movl	64(%rax), %r8d
	callq	alloc_storable_picture
	movq	%rax, enc_frame_picture2
	movq	img, %rax
	movl	72456(%rax), %eax
	movq	enc_frame_picture2, %rcx
	movl	%eax, 4(%rcx)
	movq	img, %rcx
	movl	%eax, 72460(%rcx)
	movq	img, %rax
	movl	72448(%rax), %eax
	movq	enc_frame_picture2, %rcx
	movl	%eax, 8(%rcx)
	movq	img, %rax
	movl	72452(%rax), %eax
	movq	enc_frame_picture2, %rcx
	movl	%eax, 12(%rcx)
	movq	img, %rax
	movl	72456(%rax), %eax
	movq	enc_frame_picture2, %rcx
	movl	%eax, 16(%rcx)
	movq	img, %rax
	movl	72464(%rax), %eax
	movq	enc_frame_picture2, %rcx
	movl	%eax, 6364(%rcx)
	movq	img, %rax
	movl	72464(%rax), %eax
	movq	enc_frame_picture2, %rcx
	movl	%eax, 6360(%rcx)
	movq	enc_frame_picture2, %rax
	movl	$1, 6412(%rax)
	movq	input, %rax
	cmpl	$0, 2884(%rax)
	setne	%al
	andb	$1, %al
	movzbl	%al, %eax
	movq	img, %rcx
	movl	%eax, 72400(%rcx)
	movq	enc_frame_picture2, %rcx
	movl	%eax, 6416(%rcx)
	movq	enc_frame_picture2, %rax
	movq	%rax, enc_picture
	callq	copy_params
	jmp	.LBB49_5
.LBB49_4:                               # %if.else35
	movq	img, %rax
	movl	28(%rax), %edi
	movq	img, %rax
	movl	52(%rax), %esi
	movq	img, %rax
	movl	60(%rax), %edx
	movq	img, %rax
	movl	56(%rax), %ecx
	movq	img, %rax
	movl	64(%rax), %r8d
	callq	alloc_storable_picture
	movq	%rax, enc_frame_picture
	movq	img, %rax
	movl	72456(%rax), %eax
	movq	enc_frame_picture, %rcx
	movl	%eax, 4(%rcx)
	movq	img, %rcx
	movl	%eax, 72460(%rcx)
	movq	img, %rax
	movl	72448(%rax), %eax
	movq	enc_frame_picture, %rcx
	movl	%eax, 8(%rcx)
	movq	img, %rax
	movl	72452(%rax), %eax
	movq	enc_frame_picture, %rcx
	movl	%eax, 12(%rcx)
	movq	img, %rax
	movl	72456(%rax), %eax
	movq	enc_frame_picture, %rcx
	movl	%eax, 16(%rcx)
	movq	img, %rax
	movl	72464(%rax), %eax
	movq	enc_frame_picture, %rcx
	movl	%eax, 6364(%rcx)
	movq	img, %rax
	movl	72464(%rax), %eax
	movq	enc_frame_picture, %rcx
	movl	%eax, 6360(%rcx)
	movq	enc_frame_picture, %rax
	movl	$1, 6412(%rax)
	movq	input, %rax
	cmpl	$0, 2884(%rax)
	setne	%al
	andb	$1, %al
	movzbl	%al, %eax
	movq	img, %rcx
	movl	%eax, 72400(%rcx)
	movq	enc_frame_picture, %rcx
	movl	%eax, 6416(%rcx)
	movq	enc_frame_picture, %rax
	movq	%rax, enc_picture
	callq	copy_params
.LBB49_5:                               # %if.end
	jmp	.LBB49_6
.LBB49_6:                               # %if.end61
	movq	stats, %rax
	movl	$0, 1468(%rax)
	movq	stats, %rax
	addq	$1468, %rax             # imm = 0x5BC
	movq	stats, %rcx
	movq	%rax, 1480(%rcx)
	movq	img, %rax
	movl	$0, 71800(%rax)
	movq	-8(%rbp), %rdi
	callq	code_a_picture
	movq	img, %rax
	movq	14160(%rax), %rax
	movq	24(%rax), %rax
	movq	(%rax), %rax
	movl	(%rax), %eax
	shll	$3, %eax
	movq	-8(%rbp), %rcx
	movl	%eax, 808(%rcx)
	movq	img, %rax
	cmpl	$0, 28(%rax)
	jne	.LBB49_8
# %bb.7:                                # %if.then66
	callq	find_distortion
	movq	snr, %rax
	vmovss	(%rax), %xmm0           # xmm0 = mem[0],zero,zero,zero
	movq	-8(%rbp), %rax
	vmovss	%xmm0, 812(%rax)
	movq	snr, %rax
	vmovss	4(%rax), %xmm0          # xmm0 = mem[0],zero,zero,zero
	movq	-8(%rbp), %rax
	vmovss	%xmm0, 816(%rax)
	movq	snr, %rax
	vmovss	8(%rax), %xmm0          # xmm0 = mem[0],zero,zero,zero
	movq	-8(%rbp), %rax
	vmovss	%xmm0, 820(%rax)
.LBB49_8:                               # %if.end67
	cmpl	$195658633, -16(%rbp)   # imm = 0xBA98389
	jne	.LBB49_10
.LBB49_9:
	addq	$16, %rsp
	popq	%rbp
	.cfi_def_cfa %rsp, 8
	retq
.LBB49_10:                              # %func_exit
	.cfi_def_cfa %rbp, 16
	callq	detect_breach
	jmp	.LBB49_9
.Lfunc_end49:
	.size	frame_picture.13, .Lfunc_end49-frame_picture.13
	.cfi_endproc
                                        # -- End function
	.globl	copy_rdopt_data.14      # -- Begin function copy_rdopt_data.14
	.p2align	4, 0x90
	.type	copy_rdopt_data.14,@function
copy_rdopt_data.14:                     # @copy_rdopt_data.14
	.cfi_startproc
# %bb.0:                                # %entry
	pushq	%rbp
	.cfi_def_cfa_offset 16
	.cfi_offset %rbp, -16
	movq	%rsp, %rbp
	.cfi_def_cfa_register %rbp
	subq	$64, %rsp
	movl	$2121264103, -52(%rbp)  # imm = 0x7E6FEBE7
	movl	%edi, -56(%rbp)
	movq	img, %rax
	movl	12(%rax), %eax
	movl	%eax, -48(%rbp)
	movq	img, %rax
	movq	14168(%rax), %rax
	movslq	-48(%rbp), %rcx
	imulq	$632, %rcx, %rcx        # imm = 0x278
	addq	%rcx, %rax
	movq	%rax, -24(%rbp)
	movq	img, %rax
	cmpl	$1, 24(%rax)
	sete	%al
	andb	$1, %al
	movzbl	%al, %eax
	movl	%eax, -36(%rbp)
	movq	img, %rax
	cmpl	$0, 72400(%rax)
	je	.LBB50_3
# %bb.1:                                # %land.lhs.true
	movq	-24(%rbp), %rax
	cmpl	$0, 532(%rax)
	je	.LBB50_3
# %bb.2:                                # %cond.true
	movq	img, %rax
	movl	12(%rax), %eax
	cltd
	movl	$2, %ecx
	idivl	%ecx
	cmpl	$0, %edx
	movl	$4, %eax
	cmovnel	%eax, %ecx
	jmp	.LBB50_4
.LBB50_3:                               # %cond.false
	xorl	%ecx, %ecx
	jmp	.LBB50_4
.LBB50_4:                               # %cond.end
	movl	%ecx, -40(%rbp)
	movq	rdopt, %rax
	movl	3224(%rax), %eax
	movl	%eax, -28(%rbp)
	movq	rdopt, %rax
	movl	3096(%rax), %eax
	movq	-24(%rbp), %rcx
	movl	%eax, 72(%rcx)
	movq	rdopt, %rax
	movl	3208(%rax), %eax
	movq	-24(%rbp), %rcx
	movl	%eax, 460(%rcx)
	movq	rdopt, %rax
	movq	3216(%rax), %rax
	movq	-24(%rbp), %rcx
	movq	%rax, 464(%rcx)
	movq	rdopt, %rax
	movl	3100(%rax), %eax
	movq	-24(%rbp), %rcx
	movl	%eax, 580(%rcx)
	movq	rdopt, %rax
	movl	3328(%rax), %eax
	movq	img, %rcx
	movl	%eax, 72380(%rcx)
	movq	rdopt, %rax
	movl	3348(%rax), %eax
	movq	-24(%rbp), %rcx
	movl	%eax, 592(%rcx)
	movq	rdopt, %rax
	movl	3352(%rax), %eax
	movq	-24(%rbp), %rcx
	movl	%eax, 596(%rcx)
	movq	rdopt, %rax
	movl	3344(%rax), %eax
	movq	-24(%rbp), %rcx
	movl	%eax, 12(%rcx)
	movq	rdopt, %rax
	movl	3332(%rax), %eax
	movq	-24(%rbp), %rcx
	movl	%eax, 524(%rcx)
	movl	$0, -4(%rbp)
.LBB50_5:                               # %for.cond
                                        # =>This Loop Header: Depth=1
                                        #     Child Loop BB50_7 Depth 2
                                        #       Child Loop BB50_9 Depth 3
                                        #         Child Loop BB50_11 Depth 4
	movl	-4(%rbp), %eax
	movq	img, %rcx
	movl	72692(%rcx), %ecx
	addl	$4, %ecx
	cmpl	%ecx, %eax
	jge	.LBB50_20
# %bb.6:                                # %for.body
                                        #   in Loop: Header=BB50_5 Depth=1
	movl	$0, -8(%rbp)
.LBB50_7:                               # %for.cond17
                                        #   Parent Loop BB50_5 Depth=1
                                        # =>  This Loop Header: Depth=2
                                        #       Child Loop BB50_9 Depth 3
                                        #         Child Loop BB50_11 Depth 4
	cmpl	$4, -8(%rbp)
	jge	.LBB50_18
# %bb.8:                                # %for.body20
                                        #   in Loop: Header=BB50_7 Depth=2
	movl	$0, -12(%rbp)
.LBB50_9:                               # %for.cond21
                                        #   Parent Loop BB50_5 Depth=1
                                        #     Parent Loop BB50_7 Depth=2
                                        # =>    This Loop Header: Depth=3
                                        #         Child Loop BB50_11 Depth 4
	cmpl	$2, -12(%rbp)
	jge	.LBB50_16
# %bb.10:                               # %for.body24
                                        #   in Loop: Header=BB50_9 Depth=3
	movl	$0, -16(%rbp)
.LBB50_11:                              # %for.cond25
                                        #   Parent Loop BB50_5 Depth=1
                                        #     Parent Loop BB50_7 Depth=2
                                        #       Parent Loop BB50_9 Depth=3
                                        # =>      This Inner Loop Header: Depth=4
	cmpl	$65, -16(%rbp)
	jge	.LBB50_14
# %bb.12:                               # %for.body28
                                        #   in Loop: Header=BB50_11 Depth=4
	movq	rdopt, %rax
	movq	3080(%rax), %rax
	movslq	-4(%rbp), %rcx
	movq	(%rax,%rcx,8), %rax
	movslq	-8(%rbp), %rcx
	movq	(%rax,%rcx,8), %rax
	movslq	-12(%rbp), %rcx
	movq	(%rax,%rcx,8), %rax
	movslq	-16(%rbp), %rcx
	movl	(%rax,%rcx,4), %eax
	movq	img, %rcx
	movq	14136(%rcx), %rcx
	movslq	-4(%rbp), %rdx
	movq	(%rcx,%rdx,8), %rcx
	movslq	-8(%rbp), %rdx
	movq	(%rcx,%rdx,8), %rcx
	movslq	-12(%rbp), %rdx
	movq	(%rcx,%rdx,8), %rcx
	movslq	-16(%rbp), %rdx
	movl	%eax, (%rcx,%rdx,4)
# %bb.13:                               # %for.inc
                                        #   in Loop: Header=BB50_11 Depth=4
	movl	-16(%rbp), %eax
	addl	$1, %eax
	movl	%eax, -16(%rbp)
	jmp	.LBB50_11
.LBB50_14:                              # %for.end
                                        #   in Loop: Header=BB50_9 Depth=3
	jmp	.LBB50_15
.LBB50_15:                              # %for.inc46
                                        #   in Loop: Header=BB50_9 Depth=3
	movl	-12(%rbp), %eax
	addl	$1, %eax
	movl	%eax, -12(%rbp)
	jmp	.LBB50_9
.LBB50_16:                              # %for.end48
                                        #   in Loop: Header=BB50_7 Depth=2
	jmp	.LBB50_17
.LBB50_17:                              # %for.inc49
                                        #   in Loop: Header=BB50_7 Depth=2
	movl	-8(%rbp), %eax
	addl	$1, %eax
	movl	%eax, -8(%rbp)
	jmp	.LBB50_7
.LBB50_18:                              # %for.end51
                                        #   in Loop: Header=BB50_5 Depth=1
	jmp	.LBB50_19
.LBB50_19:                              # %for.inc52
                                        #   in Loop: Header=BB50_5 Depth=1
	movl	-4(%rbp), %eax
	addl	$1, %eax
	movl	%eax, -4(%rbp)
	jmp	.LBB50_5
.LBB50_20:                              # %for.end54
	movl	$0, -4(%rbp)
.LBB50_21:                              # %for.cond55
                                        # =>This Loop Header: Depth=1
                                        #     Child Loop BB50_23 Depth 2
                                        #       Child Loop BB50_25 Depth 3
	cmpl	$3, -4(%rbp)
	jge	.LBB50_32
# %bb.22:                               # %for.body58
                                        #   in Loop: Header=BB50_21 Depth=1
	movl	$0, -12(%rbp)
.LBB50_23:                              # %for.cond59
                                        #   Parent Loop BB50_21 Depth=1
                                        # =>  This Loop Header: Depth=2
                                        #       Child Loop BB50_25 Depth 3
	cmpl	$2, -12(%rbp)
	jge	.LBB50_30
# %bb.24:                               # %for.body62
                                        #   in Loop: Header=BB50_23 Depth=2
	movl	$0, -16(%rbp)
.LBB50_25:                              # %for.cond63
                                        #   Parent Loop BB50_21 Depth=1
                                        #     Parent Loop BB50_23 Depth=2
                                        # =>    This Inner Loop Header: Depth=3
	cmpl	$18, -16(%rbp)
	jge	.LBB50_28
# %bb.26:                               # %for.body66
                                        #   in Loop: Header=BB50_25 Depth=3
	movq	rdopt, %rax
	movq	3088(%rax), %rax
	movslq	-4(%rbp), %rcx
	movq	(%rax,%rcx,8), %rax
	movslq	-12(%rbp), %rcx
	movq	(%rax,%rcx,8), %rax
	movslq	-16(%rbp), %rcx
	movl	(%rax,%rcx,4), %eax
	movq	img, %rcx
	movq	14144(%rcx), %rcx
	movslq	-4(%rbp), %rdx
	movq	(%rcx,%rdx,8), %rcx
	movslq	-12(%rbp), %rdx
	movq	(%rcx,%rdx,8), %rcx
	movslq	-16(%rbp), %rdx
	movl	%eax, (%rcx,%rdx,4)
# %bb.27:                               # %for.inc80
                                        #   in Loop: Header=BB50_25 Depth=3
	movl	-16(%rbp), %eax
	addl	$1, %eax
	movl	%eax, -16(%rbp)
	jmp	.LBB50_25
.LBB50_28:                              # %for.end82
                                        #   in Loop: Header=BB50_23 Depth=2
	jmp	.LBB50_29
.LBB50_29:                              # %for.inc83
                                        #   in Loop: Header=BB50_23 Depth=2
	movl	-12(%rbp), %eax
	addl	$1, %eax
	movl	%eax, -12(%rbp)
	jmp	.LBB50_23
.LBB50_30:                              # %for.end85
                                        #   in Loop: Header=BB50_21 Depth=1
	jmp	.LBB50_31
.LBB50_31:                              # %for.inc86
                                        #   in Loop: Header=BB50_21 Depth=1
	movl	-4(%rbp), %eax
	addl	$1, %eax
	movl	%eax, -4(%rbp)
	jmp	.LBB50_21
.LBB50_32:                              # %for.end88
	movl	$0, -8(%rbp)
.LBB50_33:                              # %for.cond89
                                        # =>This Loop Header: Depth=1
                                        #     Child Loop BB50_35 Depth 2
	cmpl	$4, -8(%rbp)
	jge	.LBB50_42
# %bb.34:                               # %for.body92
                                        #   in Loop: Header=BB50_33 Depth=1
	movl	$0, -4(%rbp)
.LBB50_35:                              # %for.cond93
                                        #   Parent Loop BB50_33 Depth=1
                                        # =>  This Inner Loop Header: Depth=2
	cmpl	$4, -4(%rbp)
	jge	.LBB50_40
# %bb.36:                               # %for.body96
                                        #   in Loop: Header=BB50_35 Depth=2
	movq	rdopt, %rax
	addq	$3264, %rax             # imm = 0xCC0
	movslq	-8(%rbp), %rcx
	shlq	$3, %rcx
	addq	%rcx, %rax
	movslq	-4(%rbp), %rcx
	movw	(%rax,%rcx,2), %ax
	movq	enc_picture, %rcx
	movq	6480(%rcx), %rcx
	movq	(%rcx), %rcx
	movq	img, %rdx
	movl	144(%rdx), %edx
	addl	-4(%rbp), %edx
	movslq	%edx, %rdx
	movq	(%rcx,%rdx,8), %rcx
	movq	img, %rdx
	movl	148(%rdx), %edx
	addl	-8(%rbp), %edx
	movslq	%edx, %rdx
	movw	%ax, (%rcx,%rdx,2)
	movq	enc_picture, %rax
	addq	$24, %rax
	movl	-40(%rbp), %ecx
	addl	$0, %ecx
	movslq	%ecx, %rcx
	imulq	$264, %rcx, %rcx        # imm = 0x108
	addq	%rcx, %rax
	movq	enc_picture, %rcx
	movq	6480(%rcx), %rcx
	movq	(%rcx), %rcx
	movq	img, %rdx
	movl	144(%rdx), %edx
	addl	-4(%rbp), %edx
	movslq	%edx, %rdx
	movq	(%rcx,%rdx,8), %rcx
	movq	img, %rdx
	movl	148(%rdx), %edx
	addl	-8(%rbp), %edx
	movslq	%edx, %rdx
	movswq	(%rcx,%rdx,2), %rcx
	movq	(%rax,%rcx,8), %rax
	movq	enc_picture, %rcx
	movq	6488(%rcx), %rcx
	movq	(%rcx), %rcx
	movq	img, %rdx
	movl	144(%rdx), %edx
	addl	-4(%rbp), %edx
	movslq	%edx, %rdx
	movq	(%rcx,%rdx,8), %rcx
	movq	img, %rdx
	movl	148(%rdx), %edx
	addl	-8(%rbp), %edx
	movslq	%edx, %rdx
	movq	%rax, (%rcx,%rdx,8)
	cmpl	$0, -36(%rbp)
	je	.LBB50_38
# %bb.37:                               # %if.then
                                        #   in Loop: Header=BB50_35 Depth=2
	movq	rdopt, %rax
	addq	$3264, %rax             # imm = 0xCC0
	addq	$32, %rax
	movslq	-8(%rbp), %rcx
	shlq	$3, %rcx
	addq	%rcx, %rax
	movslq	-4(%rbp), %rcx
	movw	(%rax,%rcx,2), %ax
	movq	enc_picture, %rcx
	movq	6480(%rcx), %rcx
	movq	8(%rcx), %rcx
	movq	img, %rdx
	movl	144(%rdx), %edx
	addl	-4(%rbp), %edx
	movslq	%edx, %rdx
	movq	(%rcx,%rdx,8), %rcx
	movq	img, %rdx
	movl	148(%rdx), %edx
	addl	-8(%rbp), %edx
	movslq	%edx, %rdx
	movw	%ax, (%rcx,%rdx,2)
	movq	enc_picture, %rax
	addq	$24, %rax
	movl	-40(%rbp), %ecx
	addl	$1, %ecx
	movslq	%ecx, %rcx
	imulq	$264, %rcx, %rcx        # imm = 0x108
	addq	%rcx, %rax
	movq	enc_picture, %rcx
	movq	6480(%rcx), %rcx
	movq	8(%rcx), %rcx
	movq	img, %rdx
	movl	144(%rdx), %edx
	addl	-4(%rbp), %edx
	movslq	%edx, %rdx
	movq	(%rcx,%rdx,8), %rcx
	movq	img, %rdx
	movl	148(%rdx), %edx
	addl	-8(%rbp), %edx
	movslq	%edx, %rdx
	movswq	(%rcx,%rdx,2), %rcx
	movq	(%rax,%rcx,8), %rax
	movq	enc_picture, %rcx
	movq	6488(%rcx), %rcx
	movq	8(%rcx), %rcx
	movq	img, %rdx
	movl	144(%rdx), %edx
	addl	-4(%rbp), %edx
	movslq	%edx, %rdx
	movq	(%rcx,%rdx,8), %rcx
	movq	img, %rdx
	movl	148(%rdx), %edx
	addl	-8(%rbp), %edx
	movslq	%edx, %rdx
	movq	%rax, (%rcx,%rdx,8)
.LBB50_38:                              # %if.end
                                        #   in Loop: Header=BB50_35 Depth=2
	jmp	.LBB50_39
.LBB50_39:                              # %for.inc176
                                        #   in Loop: Header=BB50_35 Depth=2
	movl	-4(%rbp), %eax
	addl	$1, %eax
	movl	%eax, -4(%rbp)
	jmp	.LBB50_35
.LBB50_40:                              # %for.end178
                                        #   in Loop: Header=BB50_33 Depth=1
	jmp	.LBB50_41
.LBB50_41:                              # %for.inc179
                                        #   in Loop: Header=BB50_33 Depth=1
	movl	-8(%rbp), %eax
	addl	$1, %eax
	movl	%eax, -8(%rbp)
	jmp	.LBB50_33
.LBB50_42:                              # %for.end181
	movl	$0, -8(%rbp)
.LBB50_43:                              # %for.cond182
                                        # =>This Loop Header: Depth=1
                                        #     Child Loop BB50_45 Depth 2
	cmpl	$16, -8(%rbp)
	jge	.LBB50_50
# %bb.44:                               # %for.body185
                                        #   in Loop: Header=BB50_43 Depth=1
	movl	$0, -4(%rbp)
.LBB50_45:                              # %for.cond186
                                        #   Parent Loop BB50_43 Depth=1
                                        # =>  This Inner Loop Header: Depth=2
	cmpl	$16, -4(%rbp)
	jge	.LBB50_48
# %bb.46:                               # %for.body189
                                        #   in Loop: Header=BB50_45 Depth=2
	movq	rdopt, %rax
	addq	$8, %rax
	movslq	-8(%rbp), %rcx
	shlq	$6, %rcx
	addq	%rcx, %rax
	movslq	-4(%rbp), %rcx
	movl	(%rax,%rcx,4), %eax
	movq	enc_picture, %rcx
	movq	6424(%rcx), %rcx
	movq	img, %rdx
	movl	156(%rdx), %edx
	addl	-8(%rbp), %edx
	movslq	%edx, %rdx
	movq	(%rcx,%rdx,8), %rcx
	movq	img, %rdx
	movl	152(%rdx), %edx
	addl	-4(%rbp), %edx
	movslq	%edx, %rdx
	movw	%ax, (%rcx,%rdx,2)
# %bb.47:                               # %for.inc201
                                        #   in Loop: Header=BB50_45 Depth=2
	movl	-4(%rbp), %eax
	addl	$1, %eax
	movl	%eax, -4(%rbp)
	jmp	.LBB50_45
.LBB50_48:                              # %for.end203
                                        #   in Loop: Header=BB50_43 Depth=1
	jmp	.LBB50_49
.LBB50_49:                              # %for.inc204
                                        #   in Loop: Header=BB50_43 Depth=1
	movl	-8(%rbp), %eax
	addl	$1, %eax
	movl	%eax, -8(%rbp)
	jmp	.LBB50_43
.LBB50_50:                              # %for.end206
	movq	img, %rax
	cmpl	$0, 72700(%rax)
	je	.LBB50_60
# %bb.51:                               # %if.then209
	movl	$0, -8(%rbp)
.LBB50_52:                              # %for.cond210
                                        # =>This Loop Header: Depth=1
                                        #     Child Loop BB50_54 Depth 2
	movl	-8(%rbp), %eax
	movq	img, %rcx
	cmpl	72712(%rcx), %eax
	jge	.LBB50_59
# %bb.53:                               # %for.body213
                                        #   in Loop: Header=BB50_52 Depth=1
	movl	$0, -4(%rbp)
.LBB50_54:                              # %for.cond214
                                        #   Parent Loop BB50_52 Depth=1
                                        # =>  This Inner Loop Header: Depth=2
	movl	-4(%rbp), %eax
	movq	img, %rcx
	cmpl	72708(%rcx), %eax
	jge	.LBB50_57
# %bb.55:                               # %for.body217
                                        #   in Loop: Header=BB50_54 Depth=2
	movq	rdopt, %rax
	addq	$1032, %rax             # imm = 0x408
	movslq	-8(%rbp), %rcx
	shlq	$6, %rcx
	addq	%rcx, %rax
	movslq	-4(%rbp), %rcx
	movl	(%rax,%rcx,4), %eax
	movq	enc_picture, %rcx
	movq	6464(%rcx), %rcx
	movq	(%rcx), %rcx
	movq	img, %rdx
	movl	164(%rdx), %edx
	addl	-8(%rbp), %edx
	movslq	%edx, %rdx
	movq	(%rcx,%rdx,8), %rcx
	movq	img, %rdx
	movl	160(%rdx), %edx
	addl	-4(%rbp), %edx
	movslq	%edx, %rdx
	movw	%ax, (%rcx,%rdx,2)
	movq	rdopt, %rax
	addq	$2056, %rax             # imm = 0x808
	movslq	-8(%rbp), %rcx
	shlq	$6, %rcx
	addq	%rcx, %rax
	movslq	-4(%rbp), %rcx
	movl	(%rax,%rcx,4), %eax
	movq	enc_picture, %rcx
	movq	6464(%rcx), %rcx
	movq	8(%rcx), %rcx
	movq	img, %rdx
	movl	164(%rdx), %edx
	addl	-8(%rbp), %edx
	movslq	%edx, %rdx
	movq	(%rcx,%rdx,8), %rcx
	movq	img, %rdx
	movl	160(%rdx), %edx
	addl	-4(%rbp), %edx
	movslq	%edx, %rdx
	movw	%ax, (%rcx,%rdx,2)
# %bb.56:                               # %for.inc245
                                        #   in Loop: Header=BB50_54 Depth=2
	movl	-4(%rbp), %eax
	addl	$1, %eax
	movl	%eax, -4(%rbp)
	jmp	.LBB50_54
.LBB50_57:                              # %for.end247
                                        #   in Loop: Header=BB50_52 Depth=1
	jmp	.LBB50_58
.LBB50_58:                              # %for.inc248
                                        #   in Loop: Header=BB50_52 Depth=1
	movl	-8(%rbp), %eax
	addl	$1, %eax
	movl	%eax, -8(%rbp)
	jmp	.LBB50_52
.LBB50_59:                              # %for.end250
	jmp	.LBB50_60
.LBB50_60:                              # %if.end251
	movl	$0, -4(%rbp)
.LBB50_61:                              # %for.cond252
                                        # =>This Inner Loop Header: Depth=1
	cmpl	$4, -4(%rbp)
	jge	.LBB50_64
# %bb.62:                               # %for.body255
                                        #   in Loop: Header=BB50_61 Depth=1
	movq	rdopt, %rax
	movslq	-4(%rbp), %rcx
	movl	3104(%rax,%rcx,4), %eax
	movq	-24(%rbp), %rcx
	movslq	-4(%rbp), %rdx
	movl	%eax, 472(%rcx,%rdx,4)
	movq	rdopt, %rax
	movslq	-4(%rbp), %rcx
	movl	3120(%rax,%rcx,4), %eax
	movq	-24(%rbp), %rcx
	movslq	-4(%rbp), %rdx
	movl	%eax, 488(%rcx,%rdx,4)
# %bb.63:                               # %for.inc268
                                        #   in Loop: Header=BB50_61 Depth=1
	movl	-4(%rbp), %eax
	addl	$1, %eax
	movl	%eax, -4(%rbp)
	jmp	.LBB50_61
.LBB50_64:                              # %for.end270
	movq	rdopt, %rax
	movl	3336(%rax), %eax
	movq	-24(%rbp), %rcx
	movl	%eax, 572(%rcx)
	cmpl	$8, -28(%rbp)
	jne	.LBB50_74
# %bb.65:                               # %if.then274
	movl	$0, -12(%rbp)
	movq	img, %rax
	movl	148(%rax), %eax
	movl	%eax, -8(%rbp)
.LBB50_66:                              # %for.cond276
                                        # =>This Loop Header: Depth=1
                                        #     Child Loop BB50_68 Depth 2
	movl	-8(%rbp), %eax
	movq	img, %rcx
	movl	148(%rcx), %ecx
	addl	$4, %ecx
	cmpl	%ecx, %eax
	jge	.LBB50_73
# %bb.67:                               # %for.body281
                                        #   in Loop: Header=BB50_66 Depth=1
	movq	img, %rax
	movl	144(%rax), %eax
	movl	%eax, -4(%rbp)
.LBB50_68:                              # %for.cond283
                                        #   Parent Loop BB50_66 Depth=1
                                        # =>  This Inner Loop Header: Depth=2
	movl	-4(%rbp), %eax
	movq	img, %rcx
	movl	144(%rcx), %ecx
	addl	$4, %ecx
	cmpl	%ecx, %eax
	jge	.LBB50_71
# %bb.69:                               # %for.body288
                                        #   in Loop: Header=BB50_68 Depth=2
	movq	rdopt, %rax
	movq	3136(%rax), %rax
	movslq	-4(%rbp), %rcx
	movq	(%rax,%rcx,8), %rax
	movslq	-8(%rbp), %rcx
	movl	(%rax,%rcx,4), %eax
	movq	img, %rcx
	movq	104(%rcx), %rcx
	movslq	-4(%rbp), %rdx
	movq	(%rcx,%rdx,8), %rcx
	movslq	-8(%rbp), %rdx
	movl	%eax, (%rcx,%rdx,4)
	movq	rdopt, %rax
	movslq	-12(%rbp), %rcx
	movl	3144(%rax,%rcx,4), %eax
	movq	-24(%rbp), %rcx
	movslq	-12(%rbp), %rdx
	movl	%eax, 332(%rcx,%rdx,4)
# %bb.70:                               # %for.inc303
                                        #   in Loop: Header=BB50_68 Depth=2
	movl	-4(%rbp), %eax
	addl	$1, %eax
	movl	%eax, -4(%rbp)
	movl	-12(%rbp), %eax
	addl	$1, %eax
	movl	%eax, -12(%rbp)
	jmp	.LBB50_68
.LBB50_71:                              # %for.end306
                                        #   in Loop: Header=BB50_66 Depth=1
	jmp	.LBB50_72
.LBB50_72:                              # %for.inc307
                                        #   in Loop: Header=BB50_66 Depth=1
	movl	-8(%rbp), %eax
	addl	$1, %eax
	movl	%eax, -8(%rbp)
	jmp	.LBB50_66
.LBB50_73:                              # %for.end309
	jmp	.LBB50_98
.LBB50_74:                              # %if.else
	cmpl	$9, -28(%rbp)
	je	.LBB50_85
# %bb.75:                               # %land.lhs.true312
	cmpl	$13, -28(%rbp)
	je	.LBB50_85
# %bb.76:                               # %if.then315
	movl	$0, -12(%rbp)
	movq	img, %rax
	movl	148(%rax), %eax
	movl	%eax, -8(%rbp)
.LBB50_77:                              # %for.cond317
                                        # =>This Loop Header: Depth=1
                                        #     Child Loop BB50_79 Depth 2
	movl	-8(%rbp), %eax
	movq	img, %rcx
	movl	148(%rcx), %ecx
	addl	$4, %ecx
	cmpl	%ecx, %eax
	jge	.LBB50_84
# %bb.78:                               # %for.body322
                                        #   in Loop: Header=BB50_77 Depth=1
	movq	img, %rax
	movl	144(%rax), %eax
	movl	%eax, -4(%rbp)
.LBB50_79:                              # %for.cond324
                                        #   Parent Loop BB50_77 Depth=1
                                        # =>  This Inner Loop Header: Depth=2
	movl	-4(%rbp), %eax
	movq	img, %rcx
	movl	144(%rcx), %ecx
	addl	$4, %ecx
	cmpl	%ecx, %eax
	jge	.LBB50_82
# %bb.80:                               # %for.body329
                                        #   in Loop: Header=BB50_79 Depth=2
	movq	img, %rax
	movq	104(%rax), %rax
	movslq	-4(%rbp), %rcx
	movq	(%rax,%rcx,8), %rax
	movslq	-8(%rbp), %rcx
	movl	$2, (%rax,%rcx,4)
	movq	-24(%rbp), %rax
	movslq	-12(%rbp), %rcx
	movl	$2, 332(%rax,%rcx,4)
# %bb.81:                               # %for.inc338
                                        #   in Loop: Header=BB50_79 Depth=2
	movl	-4(%rbp), %eax
	addl	$1, %eax
	movl	%eax, -4(%rbp)
	movl	-12(%rbp), %eax
	addl	$1, %eax
	movl	%eax, -12(%rbp)
	jmp	.LBB50_79
.LBB50_82:                              # %for.end341
                                        #   in Loop: Header=BB50_77 Depth=1
	jmp	.LBB50_83
.LBB50_83:                              # %for.inc342
                                        #   in Loop: Header=BB50_77 Depth=1
	movl	-8(%rbp), %eax
	addl	$1, %eax
	movl	%eax, -8(%rbp)
	jmp	.LBB50_77
.LBB50_84:                              # %for.end344
	jmp	.LBB50_97
.LBB50_85:                              # %if.else345
	cmpl	$9, -28(%rbp)
	je	.LBB50_87
# %bb.86:                               # %lor.lhs.false
	cmpl	$13, -28(%rbp)
	jne	.LBB50_96
.LBB50_87:                              # %if.then350
	movl	$0, -12(%rbp)
	movq	img, %rax
	movl	148(%rax), %eax
	movl	%eax, -8(%rbp)
.LBB50_88:                              # %for.cond352
                                        # =>This Loop Header: Depth=1
                                        #     Child Loop BB50_90 Depth 2
	movl	-8(%rbp), %eax
	movq	img, %rcx
	movl	148(%rcx), %ecx
	addl	$4, %ecx
	cmpl	%ecx, %eax
	jge	.LBB50_95
# %bb.89:                               # %for.body357
                                        #   in Loop: Header=BB50_88 Depth=1
	movq	img, %rax
	movl	144(%rax), %eax
	movl	%eax, -4(%rbp)
.LBB50_90:                              # %for.cond359
                                        #   Parent Loop BB50_88 Depth=1
                                        # =>  This Inner Loop Header: Depth=2
	movl	-4(%rbp), %eax
	movq	img, %rcx
	movl	144(%rcx), %ecx
	addl	$4, %ecx
	cmpl	%ecx, %eax
	jge	.LBB50_93
# %bb.91:                               # %for.body364
                                        #   in Loop: Header=BB50_90 Depth=2
	movq	rdopt, %rax
	movq	3136(%rax), %rax
	movslq	-4(%rbp), %rcx
	movq	(%rax,%rcx,8), %rax
	movslq	-8(%rbp), %rcx
	movl	(%rax,%rcx,4), %eax
	movq	img, %rcx
	movq	104(%rcx), %rcx
	movslq	-4(%rbp), %rdx
	movq	(%rcx,%rdx,8), %rcx
	movslq	-8(%rbp), %rdx
	movl	%eax, (%rcx,%rdx,4)
	movq	rdopt, %rax
	movslq	-12(%rbp), %rcx
	movl	3144(%rax,%rcx,4), %eax
	movq	-24(%rbp), %rcx
	movslq	-12(%rbp), %rdx
	movl	%eax, 332(%rcx,%rdx,4)
# %bb.92:                               # %for.inc381
                                        #   in Loop: Header=BB50_90 Depth=2
	movl	-4(%rbp), %eax
	addl	$1, %eax
	movl	%eax, -4(%rbp)
	movl	-12(%rbp), %eax
	addl	$1, %eax
	movl	%eax, -12(%rbp)
	jmp	.LBB50_90
.LBB50_93:                              # %for.end384
                                        #   in Loop: Header=BB50_88 Depth=1
	jmp	.LBB50_94
.LBB50_94:                              # %for.inc385
                                        #   in Loop: Header=BB50_88 Depth=1
	movl	-8(%rbp), %eax
	addl	$1, %eax
	movl	%eax, -8(%rbp)
	jmp	.LBB50_88
.LBB50_95:                              # %for.end387
	jmp	.LBB50_96
.LBB50_96:                              # %if.end388
	jmp	.LBB50_97
.LBB50_97:                              # %if.end389
	jmp	.LBB50_98
.LBB50_98:                              # %if.end390
	movq	img, %rax
	cmpl	$0, 72400(%rax)
	je	.LBB50_131
# %bb.99:                               # %if.then393
	callq	copy_motion_vectors_MB
	movq	-24(%rbp), %rax
	cmpl	$9, 72(%rax)
	je	.LBB50_119
# %bb.100:                              # %lor.lhs.false397
	movq	-24(%rbp), %rax
	cmpl	$10, 72(%rax)
	je	.LBB50_119
# %bb.101:                              # %lor.lhs.false401
	movq	-24(%rbp), %rax
	cmpl	$13, 72(%rax)
	je	.LBB50_119
# %bb.102:                              # %if.then405
	movl	$0, -8(%rbp)
.LBB50_103:                             # %for.cond406
                                        # =>This Loop Header: Depth=1
                                        #     Child Loop BB50_105 Depth 2
	cmpl	$4, -8(%rbp)
	jge	.LBB50_118
# %bb.104:                              # %for.body409
                                        #   in Loop: Header=BB50_103 Depth=1
	movl	$0, -4(%rbp)
.LBB50_105:                             # %for.cond410
                                        #   Parent Loop BB50_103 Depth=1
                                        # =>  This Inner Loop Header: Depth=2
	cmpl	$4, -4(%rbp)
	jge	.LBB50_116
# %bb.106:                              # %for.body413
                                        #   in Loop: Header=BB50_105 Depth=2
	movq	-24(%rbp), %rsi
	movl	-4(%rbp), %eax
	cltd
	movl	$2, %edi
	idivl	%edi
	movl	%eax, %ecx
	movl	-8(%rbp), %eax
	cltd
	idivl	%edi
	shll	$1, %eax
	addl	%eax, %ecx
	movslq	%ecx, %rax
	movl	472(%rsi,%rax,4), %eax
	movl	%eax, -32(%rbp)
	movq	-24(%rbp), %rsi
	movl	-4(%rbp), %eax
	cltd
	idivl	%edi
	movl	%eax, %ecx
	movl	-8(%rbp), %eax
	cltd
	idivl	%edi
	shll	$1, %eax
	addl	%eax, %ecx
	movslq	%ecx, %rax
	movl	488(%rsi,%rax,4), %eax
	movl	%eax, -44(%rbp)
	cmpl	$1, -44(%rbp)
	je	.LBB50_108
# %bb.107:                              # %if.then428
                                        #   in Loop: Header=BB50_105 Depth=2
	movq	rdopt, %rax
	movq	3240(%rax), %rax
	movslq	-4(%rbp), %rcx
	movq	(%rax,%rcx,8), %rax
	movslq	-8(%rbp), %rcx
	movq	(%rax,%rcx,8), %rax
	movq	(%rax), %rax
	movq	rdopt, %rcx
	addq	$3264, %rcx             # imm = 0xCC0
	movslq	-8(%rbp), %rdx
	shlq	$3, %rdx
	addq	%rdx, %rcx
	movslq	-4(%rbp), %rdx
	movswq	(%rcx,%rdx,2), %rcx
	movq	(%rax,%rcx,8), %rax
	movslq	-32(%rbp), %rcx
	movq	(%rax,%rcx,8), %rax
	movw	(%rax), %ax
	movq	enc_picture, %rcx
	movq	6504(%rcx), %rcx
	movq	(%rcx), %rcx
	movl	-4(%rbp), %edx
	movq	img, %rsi
	addl	144(%rsi), %edx
	movslq	%edx, %rdx
	movq	(%rcx,%rdx,8), %rcx
	movl	-8(%rbp), %edx
	movq	img, %rsi
	addl	148(%rsi), %edx
	movslq	%edx, %rdx
	movq	(%rcx,%rdx,8), %rcx
	movw	%ax, (%rcx)
	movq	rdopt, %rax
	movq	3240(%rax), %rax
	movslq	-4(%rbp), %rcx
	movq	(%rax,%rcx,8), %rax
	movslq	-8(%rbp), %rcx
	movq	(%rax,%rcx,8), %rax
	movq	(%rax), %rax
	movq	rdopt, %rcx
	addq	$3264, %rcx             # imm = 0xCC0
	movslq	-8(%rbp), %rdx
	shlq	$3, %rdx
	addq	%rdx, %rcx
	movslq	-4(%rbp), %rdx
	movswq	(%rcx,%rdx,2), %rcx
	movq	(%rax,%rcx,8), %rax
	movslq	-32(%rbp), %rcx
	movq	(%rax,%rcx,8), %rax
	movw	2(%rax), %ax
	movq	enc_picture, %rcx
	movq	6504(%rcx), %rcx
	movq	(%rcx), %rcx
	movl	-4(%rbp), %edx
	movq	img, %rsi
	addl	144(%rsi), %edx
	movslq	%edx, %rdx
	movq	(%rcx,%rdx,8), %rcx
	movl	-8(%rbp), %edx
	movq	img, %rsi
	addl	148(%rsi), %edx
	movslq	%edx, %rdx
	movq	(%rcx,%rdx,8), %rcx
	movw	%ax, 2(%rcx)
	jmp	.LBB50_109
.LBB50_108:                             # %if.else483
                                        #   in Loop: Header=BB50_105 Depth=2
	movq	enc_picture, %rax
	movq	6504(%rax), %rax
	movq	(%rax), %rax
	movl	-4(%rbp), %ecx
	movq	img, %rdx
	addl	144(%rdx), %ecx
	movslq	%ecx, %rcx
	movq	(%rax,%rcx,8), %rax
	movl	-8(%rbp), %ecx
	movq	img, %rdx
	addl	148(%rdx), %ecx
	movslq	%ecx, %rcx
	movq	(%rax,%rcx,8), %rax
	movw	$0, (%rax)
	movq	enc_picture, %rax
	movq	6504(%rax), %rax
	movq	(%rax), %rax
	movl	-4(%rbp), %ecx
	movq	img, %rdx
	addl	144(%rdx), %ecx
	movslq	%ecx, %rcx
	movq	(%rax,%rcx,8), %rax
	movl	-8(%rbp), %ecx
	movq	img, %rdx
	addl	148(%rdx), %ecx
	movslq	%ecx, %rcx
	movq	(%rax,%rcx,8), %rax
	movw	$0, 2(%rax)
.LBB50_109:                             # %if.end506
                                        #   in Loop: Header=BB50_105 Depth=2
	cmpl	$0, -36(%rbp)
	je	.LBB50_114
# %bb.110:                              # %if.then508
                                        #   in Loop: Header=BB50_105 Depth=2
	cmpl	$0, -44(%rbp)
	je	.LBB50_112
# %bb.111:                              # %if.then511
                                        #   in Loop: Header=BB50_105 Depth=2
	movq	rdopt, %rax
	movq	3240(%rax), %rax
	movslq	-4(%rbp), %rcx
	movq	(%rax,%rcx,8), %rax
	movslq	-8(%rbp), %rcx
	movq	(%rax,%rcx,8), %rax
	movq	8(%rax), %rax
	movq	rdopt, %rcx
	addq	$3264, %rcx             # imm = 0xCC0
	addq	$32, %rcx
	movslq	-8(%rbp), %rdx
	shlq	$3, %rdx
	addq	%rdx, %rcx
	movslq	-4(%rbp), %rdx
	movswq	(%rcx,%rdx,2), %rcx
	movq	(%rax,%rcx,8), %rax
	movslq	-32(%rbp), %rcx
	movq	(%rax,%rcx,8), %rax
	movw	(%rax), %ax
	movq	enc_picture, %rcx
	movq	6504(%rcx), %rcx
	movq	8(%rcx), %rcx
	movl	-4(%rbp), %edx
	movq	img, %rsi
	addl	144(%rsi), %edx
	movslq	%edx, %rdx
	movq	(%rcx,%rdx,8), %rcx
	movl	-8(%rbp), %edx
	movq	img, %rsi
	addl	148(%rsi), %edx
	movslq	%edx, %rdx
	movq	(%rcx,%rdx,8), %rcx
	movw	%ax, (%rcx)
	movq	rdopt, %rax
	movq	3240(%rax), %rax
	movslq	-4(%rbp), %rcx
	movq	(%rax,%rcx,8), %rax
	movslq	-8(%rbp), %rcx
	movq	(%rax,%rcx,8), %rax
	movq	8(%rax), %rax
	movq	rdopt, %rcx
	addq	$3264, %rcx             # imm = 0xCC0
	addq	$32, %rcx
	movslq	-8(%rbp), %rdx
	shlq	$3, %rdx
	addq	%rdx, %rcx
	movslq	-4(%rbp), %rdx
	movswq	(%rcx,%rdx,2), %rcx
	movq	(%rax,%rcx,8), %rax
	movslq	-32(%rbp), %rcx
	movq	(%rax,%rcx,8), %rax
	movw	2(%rax), %ax
	movq	enc_picture, %rcx
	movq	6504(%rcx), %rcx
	movq	8(%rcx), %rcx
	movl	-4(%rbp), %edx
	movq	img, %rsi
	addl	144(%rsi), %edx
	movslq	%edx, %rdx
	movq	(%rcx,%rdx,8), %rcx
	movl	-8(%rbp), %edx
	movq	img, %rsi
	addl	148(%rsi), %edx
	movslq	%edx, %rdx
	movq	(%rcx,%rdx,8), %rcx
	movw	%ax, 2(%rcx)
	jmp	.LBB50_113
.LBB50_112:                             # %if.else568
                                        #   in Loop: Header=BB50_105 Depth=2
	movq	enc_picture, %rax
	movq	6504(%rax), %rax
	movq	8(%rax), %rax
	movl	-4(%rbp), %ecx
	movq	img, %rdx
	addl	144(%rdx), %ecx
	movslq	%ecx, %rcx
	movq	(%rax,%rcx,8), %rax
	movl	-8(%rbp), %ecx
	movq	img, %rdx
	addl	148(%rdx), %ecx
	movslq	%ecx, %rcx
	movq	(%rax,%rcx,8), %rax
	movw	$0, (%rax)
	movq	enc_picture, %rax
	movq	6504(%rax), %rax
	movq	8(%rax), %rax
	movl	-4(%rbp), %ecx
	movq	img, %rdx
	addl	144(%rdx), %ecx
	movslq	%ecx, %rcx
	movq	(%rax,%rcx,8), %rax
	movl	-8(%rbp), %ecx
	movq	img, %rdx
	addl	148(%rdx), %ecx
	movslq	%ecx, %rcx
	movq	(%rax,%rcx,8), %rax
	movw	$0, 2(%rax)
.LBB50_113:                             # %if.end591
                                        #   in Loop: Header=BB50_105 Depth=2
	jmp	.LBB50_114
.LBB50_114:                             # %if.end592
                                        #   in Loop: Header=BB50_105 Depth=2
	jmp	.LBB50_115
.LBB50_115:                             # %for.inc593
                                        #   in Loop: Header=BB50_105 Depth=2
	movl	-4(%rbp), %eax
	addl	$1, %eax
	movl	%eax, -4(%rbp)
	jmp	.LBB50_105
.LBB50_116:                             # %for.end595
                                        #   in Loop: Header=BB50_103 Depth=1
	jmp	.LBB50_117
.LBB50_117:                             # %for.inc596
                                        #   in Loop: Header=BB50_103 Depth=1
	movl	-8(%rbp), %eax
	addl	$1, %eax
	movl	%eax, -8(%rbp)
	jmp	.LBB50_103
.LBB50_118:                             # %for.end598
	jmp	.LBB50_130
.LBB50_119:                             # %if.else599
	movl	$0, -8(%rbp)
.LBB50_120:                             # %for.cond600
                                        # =>This Loop Header: Depth=1
                                        #     Child Loop BB50_122 Depth 2
	cmpl	$4, -8(%rbp)
	jge	.LBB50_129
# %bb.121:                              # %for.body603
                                        #   in Loop: Header=BB50_120 Depth=1
	movl	$0, -4(%rbp)
.LBB50_122:                             # %for.cond604
                                        #   Parent Loop BB50_120 Depth=1
                                        # =>  This Inner Loop Header: Depth=2
	cmpl	$4, -4(%rbp)
	jge	.LBB50_127
# %bb.123:                              # %for.body607
                                        #   in Loop: Header=BB50_122 Depth=2
	movq	enc_picture, %rax
	movq	6504(%rax), %rax
	movq	(%rax), %rax
	movl	-4(%rbp), %ecx
	movq	img, %rdx
	addl	144(%rdx), %ecx
	movslq	%ecx, %rcx
	movq	(%rax,%rcx,8), %rax
	movl	-8(%rbp), %ecx
	movq	img, %rdx
	addl	148(%rdx), %ecx
	movslq	%ecx, %rcx
	movq	(%rax,%rcx,8), %rax
	movw	$0, (%rax)
	movq	enc_picture, %rax
	movq	6504(%rax), %rax
	movq	(%rax), %rax
	movl	-4(%rbp), %ecx
	movq	img, %rdx
	addl	144(%rdx), %ecx
	movslq	%ecx, %rcx
	movq	(%rax,%rcx,8), %rax
	movl	-8(%rbp), %ecx
	movq	img, %rdx
	addl	148(%rdx), %ecx
	movslq	%ecx, %rcx
	movq	(%rax,%rcx,8), %rax
	movw	$0, 2(%rax)
	cmpl	$0, -36(%rbp)
	je	.LBB50_125
# %bb.124:                              # %if.then631
                                        #   in Loop: Header=BB50_122 Depth=2
	movq	enc_picture, %rax
	movq	6504(%rax), %rax
	movq	8(%rax), %rax
	movl	-4(%rbp), %ecx
	movq	img, %rdx
	addl	144(%rdx), %ecx
	movslq	%ecx, %rcx
	movq	(%rax,%rcx,8), %rax
	movl	-8(%rbp), %ecx
	movq	img, %rdx
	addl	148(%rdx), %ecx
	movslq	%ecx, %rcx
	movq	(%rax,%rcx,8), %rax
	movw	$0, (%rax)
	movq	enc_picture, %rax
	movq	6504(%rax), %rax
	movq	8(%rax), %rax
	movl	-4(%rbp), %ecx
	movq	img, %rdx
	addl	144(%rdx), %ecx
	movslq	%ecx, %rcx
	movq	(%rax,%rcx,8), %rax
	movl	-8(%rbp), %ecx
	movq	img, %rdx
	addl	148(%rdx), %ecx
	movslq	%ecx, %rcx
	movq	(%rax,%rcx,8), %rax
	movw	$0, 2(%rax)
.LBB50_125:                             # %if.end654
                                        #   in Loop: Header=BB50_122 Depth=2
	jmp	.LBB50_126
.LBB50_126:                             # %for.inc655
                                        #   in Loop: Header=BB50_122 Depth=2
	movl	-4(%rbp), %eax
	addl	$1, %eax
	movl	%eax, -4(%rbp)
	jmp	.LBB50_122
.LBB50_127:                             # %for.end657
                                        #   in Loop: Header=BB50_120 Depth=1
	jmp	.LBB50_128
.LBB50_128:                             # %for.inc658
                                        #   in Loop: Header=BB50_120 Depth=1
	movl	-8(%rbp), %eax
	addl	$1, %eax
	movl	%eax, -8(%rbp)
	jmp	.LBB50_120
.LBB50_129:                             # %for.end660
	jmp	.LBB50_130
.LBB50_130:                             # %if.end661
	jmp	.LBB50_131
.LBB50_131:                             # %if.end662
	cmpl	$2121264103, -52(%rbp)  # imm = 0x7E6FEBE7
	jne	.LBB50_133
.LBB50_132:
	addq	$64, %rsp
	popq	%rbp
	.cfi_def_cfa %rsp, 8
	retq
.LBB50_133:                             # %func_exit
	.cfi_def_cfa %rbp, 16
	callq	detect_breach
	jmp	.LBB50_132
.Lfunc_end50:
	.size	copy_rdopt_data.14, .Lfunc_end50-copy_rdopt_data.14
	.cfi_endproc
                                        # -- End function
	.globl	code_a_picture.15       # -- Begin function code_a_picture.15
	.p2align	4, 0x90
	.type	code_a_picture.15,@function
code_a_picture.15:                      # @code_a_picture.15
	.cfi_startproc
# %bb.0:                                # %entry
	pushq	%rbp
	.cfi_def_cfa_offset 16
	.cfi_offset %rbp, -16
	movq	%rsp, %rbp
	.cfi_def_cfa_register %rbp
	subq	$32, %rsp
	movl	$1841814335, -28(%rbp)  # imm = 0x6DC7DB3F
	movq	%rdi, -24(%rbp)
	movl	$0, -12(%rbp)
	movl	$0, -8(%rbp)
	movq	-24(%rbp), %rax
	movq	img, %rcx
	movq	%rax, 14152(%rcx)
	movq	img, %rax
	movl	(%rax), %eax
	subl	start_frame_no_in_this_IGOP, %eax
	cmpl	$0, %eax
	jne	.LBB51_2
# %bb.1:                                # %land.lhs.true
	movq	img, %rax
	cmpl	$2, 28(%rax)
	movb	$1, %al
	jne	.LBB51_8
.LBB51_2:                               # %lor.rhs
	xorl	%eax, %eax
	movq	input, %rcx
	cmpl	$0, 1228(%rcx)
	je	.LBB51_7
# %bb.3:                                # %land.lhs.true2
	movq	img, %rax
	cmpl	$2, 24(%rax)
	je	.LBB51_6
# %bb.4:                                # %lor.lhs.false
	movq	img, %rax
	cmpl	$3, 24(%rax)
	je	.LBB51_6
# %bb.5:                                # %lor.lhs.false6
	xorl	%eax, %eax
	movq	img, %rcx
	cmpl	$4, 24(%rcx)
	jne	.LBB51_7
.LBB51_6:                               # %land.rhs
	movq	img, %rax
	cmpl	$2, 28(%rax)
	sete	%al
	xorb	$-1, %al
.LBB51_7:                               # %land.end
.LBB51_8:                               # %lor.end
	andb	$1, %al
	movzbl	%al, %eax
	movq	img, %rcx
	movq	14152(%rcx), %rcx
	movl	%eax, 4(%rcx)
	movq	-24(%rbp), %rax
	movl	$0, (%rax)
	movq	-24(%rbp), %rax
	vxorps	%xmm0, %xmm0, %xmm0
	vmovss	%xmm0, 812(%rax)
	movq	-24(%rbp), %rax
	vmovss	%xmm0, 820(%rax)
	movq	-24(%rbp), %rax
	vmovss	%xmm0, 816(%rax)
	movb	$0, %al
	callq	RandomIntraNewPicture
	movq	img, %rax
	movl	$1, 72652(%rax)
	movq	img, %rdi
	movq	active_pps, %rsi
	movq	active_sps, %rdx
	callq	FmoInit
	movb	$0, %al
	callq	FmoStartPicture
	movb	$0, %al
	callq	CalculateQuantParam
	movb	$0, %al
	callq	CalculateOffsetParam
	movq	input, %rax
	cmpl	$0, 3220(%rax)
	je	.LBB51_10
# %bb.9:                                # %if.then
	movb	$0, %al
	callq	CalculateQuant8Param
	movb	$0, %al
	callq	CalculateOffset8Param
.LBB51_10:                              # %if.end
	jmp	.LBB51_11
.LBB51_11:                              # %while.cond
                                        # =>This Loop Header: Depth=1
                                        #     Child Loop BB51_13 Depth 2
	movl	-12(%rbp), %eax
	movq	img, %rcx
	cmpl	16(%rcx), %eax
	jge	.LBB51_16
# %bb.12:                               # %while.body
                                        #   in Loop: Header=BB51_11 Depth=1
	jmp	.LBB51_13
.LBB51_13:                              # %while.cond15
                                        #   Parent Loop BB51_11 Depth=1
                                        # =>  This Inner Loop Header: Depth=2
	movl	-8(%rbp), %edi
	callq	FmoSliceGroupCompletelyCoded
	cmpl	$0, %eax
	setne	%al
	xorb	$-1, %al
	testb	$1, %al
	jne	.LBB51_14
	jmp	.LBB51_15
.LBB51_14:                              # %while.body19
                                        #   in Loop: Header=BB51_13 Depth=2
	movl	-8(%rbp), %edi
	movq	-24(%rbp), %rsi
	callq	encode_one_slice
	addl	-12(%rbp), %eax
	movl	%eax, -12(%rbp)
	movq	img, %rax
	movl	12(%rax), %edi
	callq	FmoSetLastMacroblockInSlice
	movq	img, %rax
	movl	20(%rax), %ecx
	addl	$1, %ecx
	movl	%ecx, 20(%rax)
	movq	stats, %rax
	movl	$0, 24(%rax)
	jmp	.LBB51_13
.LBB51_15:                              # %while.end
                                        #   in Loop: Header=BB51_11 Depth=1
	movl	-8(%rbp), %eax
	addl	$1, %eax
	movl	%eax, -8(%rbp)
	jmp	.LBB51_11
.LBB51_16:                              # %while.end22
	movb	$0, %al
	callq	FmoEndPicture
	movq	input, %rax
	cmpl	$2, 2464(%rax)
	jne	.LBB51_23
# %bb.17:                               # %land.lhs.true25
	movq	img, %rax
	cmpl	$1, 24(%rax)
	je	.LBB51_23
# %bb.18:                               # %if.then28
	movl	$0, -4(%rbp)
.LBB51_19:                              # %for.cond
                                        # =>This Inner Loop Header: Depth=1
	movl	-4(%rbp), %eax
	movq	input, %rcx
	cmpl	2904(%rcx), %eax
	jge	.LBB51_22
# %bb.20:                               # %for.body
                                        #   in Loop: Header=BB51_19 Depth=1
	movq	img, %rdi
	movq	decs, %rax
	movq	24(%rax), %rax
	movslq	-4(%rbp), %rcx
	movq	(%rax,%rcx,8), %rsi
	xorl	%edx, %edx
	callq	DeblockFrame
# %bb.21:                               # %for.inc
                                        #   in Loop: Header=BB51_19 Depth=1
	movl	-4(%rbp), %eax
	addl	$1, %eax
	movl	%eax, -4(%rbp)
	jmp	.LBB51_19
.LBB51_22:                              # %for.end
	jmp	.LBB51_23
.LBB51_23:                              # %if.end31
	movq	img, %rdi
	movq	enc_picture, %rax
	movq	6424(%rax), %rsi
	movq	enc_picture, %rax
	movq	6464(%rax), %rdx
	callq	DeblockFrame
	movq	img, %rax
	cmpl	$0, 72400(%rax)
	je	.LBB51_25
# %bb.24:                               # %if.then33
	callq	MbAffPostProc
.LBB51_25:                              # %if.end34
	cmpl	$1841814335, -28(%rbp)  # imm = 0x6DC7DB3F
	jne	.LBB51_27
.LBB51_26:
	addq	$32, %rsp
	popq	%rbp
	.cfi_def_cfa %rsp, 8
	retq
.LBB51_27:                              # %func_exit
	.cfi_def_cfa %rbp, 16
	callq	detect_breach
	jmp	.LBB51_26
.Lfunc_end51:
	.size	code_a_picture.15, .Lfunc_end51-code_a_picture.15
	.cfi_endproc
                                        # -- End function
	.p2align	4, 0x90         # -- Begin function frame_mode_buffer.16
	.type	frame_mode_buffer.16,@function
frame_mode_buffer.16:                   # @frame_mode_buffer.16
	.cfi_startproc
# %bb.0:                                # %entry
	pushq	%rbp
	.cfi_def_cfa_offset 16
	.cfi_offset %rbp, -16
	movq	%rsp, %rbp
	.cfi_def_cfa_register %rbp
	subq	$32, %rsp
	movl	$753966822, -16(%rbp)   # imm = 0x2CF09EE6
	movl	%edi, -20(%rbp)
	vmovss	%xmm0, -4(%rbp)
	vmovss	%xmm1, -12(%rbp)
	vmovss	%xmm2, -8(%rbp)
	callq	put_buffer_frame
	movq	input, %rax
	cmpl	$0, 2880(%rax)
	jne	.LBB52_2
# %bb.1:                                # %lor.lhs.false
	movq	input, %rax
	cmpl	$0, 2884(%rax)
	je	.LBB52_3
.LBB52_2:                               # %if.then
	movq	img, %rax
	movl	60(%rax), %eax
	cltd
	movl	$2, %ecx
	idivl	%ecx
	movq	img, %rdx
	movl	%eax, 60(%rdx)
	movq	img, %rax
	movl	64(%rax), %eax
	cltd
	idivl	%ecx
	movq	img, %rcx
	movl	%eax, 64(%rcx)
	movq	img, %rax
	movl	(%rax), %ecx
	shll	$1, %ecx
	movl	%ecx, (%rax)
	callq	put_buffer_top
	movq	img, %rax
	movl	(%rax), %ecx
	addl	$1, %ecx
	movl	%ecx, (%rax)
	callq	put_buffer_bot
	movq	img, %rcx
	movl	(%rcx), %eax
	cltd
	movl	$2, %esi
	idivl	%esi
	movl	%eax, (%rcx)
	movq	input, %rax
	movl	68(%rax), %eax
	movq	img, %rcx
	addl	72732(%rcx), %eax
	movq	img, %rcx
	movl	%eax, 60(%rcx)
	movq	img, %rax
	movl	68(%rax), %eax
	movq	img, %rcx
	movl	%eax, 64(%rcx)
	movq	img, %rax
	movl	52(%rax), %eax
	movq	img, %rcx
	imull	60(%rcx), %eax
	cltd
	movl	$256, %ecx              # imm = 0x100
	idivl	%ecx
	movq	img, %rcx
	movl	%eax, 16(%rcx)
	vmovss	-4(%rbp), %xmm0         # xmm0 = mem[0],zero,zero,zero
	movq	snr, %rax
	vmovss	%xmm0, (%rax)
	vmovss	-12(%rbp), %xmm0        # xmm0 = mem[0],zero,zero,zero
	movq	snr, %rax
	vmovss	%xmm0, 4(%rax)
	vmovss	-8(%rbp), %xmm0         # xmm0 = mem[0],zero,zero,zero
	movq	snr, %rax
	vmovss	%xmm0, 8(%rax)
	callq	put_buffer_frame
.LBB52_3:                               # %if.end
	cmpl	$753966822, -16(%rbp)   # imm = 0x2CF09EE6
	jne	.LBB52_5
.LBB52_4:
	addq	$32, %rsp
	popq	%rbp
	.cfi_def_cfa %rsp, 8
	retq
.LBB52_5:                               # %func_exit
	.cfi_def_cfa %rbp, 16
	callq	detect_breach
	jmp	.LBB52_4
.Lfunc_end52:
	.size	frame_mode_buffer.16, .Lfunc_end52-frame_mode_buffer.16
	.cfi_endproc
                                        # -- End function
	.p2align	4, 0x90         # -- Begin function ReportB.17
	.type	ReportB.17,@function
ReportB.17:                             # @ReportB.17
	.cfi_startproc
# %bb.0:                                # %entry
	pushq	%rbp
	.cfi_def_cfa_offset 16
	.cfi_offset %rbp, -16
	movq	%rsp, %rbp
	.cfi_def_cfa_register %rbp
	pushq	%rbx
	subq	$56, %rsp
	.cfi_offset %rbx, -24
	movl	$1823461417, -20(%rbp)  # imm = 0x6CAFD029
	movl	%edi, -16(%rbp)
	movl	%esi, -12(%rbp)
	movl	frame_no, %esi
	movq	stats, %rax
	movl	16(%rax), %edx
	movq	stats, %rax
	subl	20(%rax), %edx
	movq	active_pps, %rax
	movl	196(%rax), %ecx
	movq	img, %rax
	movl	40(%rax), %r8d
	movq	snr, %rax
	vmovss	(%rax), %xmm0           # xmm0 = mem[0],zero,zero,zero
	vcvtss2sd	%xmm0, %xmm0, %xmm0
	movq	snr, %rax
	vmovss	4(%rax), %xmm1          # xmm1 = mem[0],zero,zero,zero
	vcvtss2sd	%xmm1, %xmm0, %xmm1
	movq	snr, %rax
	vmovss	8(%rax), %xmm2          # xmm2 = mem[0],zero,zero,zero
	vcvtss2sd	%xmm2, %xmm0, %xmm2
	movl	-16(%rbp), %r9d
	movl	-12(%rbp), %r10d
	movq	img, %rdi
	movl	71800(%rdi), %edi
	cmpl	$0, %edi
	movabsq	$.L.str.7, %rdi
	movabsq	$.L.str.8, %rax
	cmovneq	%rdi, %rax
	movl	intras, %r11d
	movq	img, %rdi
	movl	71996(%rdi), %ebx
	movabsq	$.L.str.12, %rdi
	movl	%r10d, (%rsp)
	movq	%rax, 8(%rsp)
	movl	%r11d, 16(%rsp)
	movl	%ebx, 24(%rsp)
	movb	$3, %al
	callq	printf
	cmpl	$1823461417, -20(%rbp)  # imm = 0x6CAFD029
	jne	.LBB53_2
.LBB53_1:
	addq	$56, %rsp
	popq	%rbx
	popq	%rbp
	.cfi_def_cfa %rsp, 8
	retq
.LBB53_2:                               # %func_exit
	.cfi_def_cfa %rbp, 16
	callq	detect_breach
	jmp	.LBB53_1
.Lfunc_end53:
	.size	ReportB.17, .Lfunc_end53-ReportB.17
	.cfi_endproc
                                        # -- End function
	.p2align	4, 0x90         # -- Begin function ReportSP.18
	.type	ReportSP.18,@function
ReportSP.18:                            # @ReportSP.18
	.cfi_startproc
# %bb.0:                                # %entry
	pushq	%rbp
	.cfi_def_cfa_offset 16
	.cfi_offset %rbp, -16
	movq	%rsp, %rbp
	.cfi_def_cfa_register %rbp
	subq	$48, %rsp
	movl	$223776269, -12(%rbp)   # imm = 0xD568E0D
	movl	%edi, -4(%rbp)
	movl	%esi, -8(%rbp)
	movl	frame_no, %esi
	movq	stats, %rax
	movl	16(%rax), %edx
	movq	stats, %rax
	subl	20(%rax), %edx
	movq	active_pps, %rax
	movl	192(%rax), %ecx
	movq	img, %rax
	movl	40(%rax), %r8d
	movq	snr, %rax
	vmovss	(%rax), %xmm0           # xmm0 = mem[0],zero,zero,zero
	vcvtss2sd	%xmm0, %xmm0, %xmm0
	movq	snr, %rax
	vmovss	4(%rax), %xmm1          # xmm1 = mem[0],zero,zero,zero
	vcvtss2sd	%xmm1, %xmm0, %xmm1
	movq	snr, %rax
	vmovss	8(%rax), %xmm2          # xmm2 = mem[0],zero,zero,zero
	vcvtss2sd	%xmm2, %xmm0, %xmm2
	movl	-4(%rbp), %r9d
	movl	-8(%rbp), %r10d
	movq	img, %rdi
	movl	71800(%rdi), %edi
	cmpl	$0, %edi
	movabsq	$.L.str.7, %rdi
	movabsq	$.L.str.8, %rax
	cmovneq	%rdi, %rax
	movl	intras, %r11d
	movabsq	$.L.str.10, %rdi
	movl	%r10d, (%rsp)
	movq	%rax, 8(%rsp)
	movl	%r11d, 16(%rsp)
	movb	$3, %al
	callq	printf
	cmpl	$223776269, -12(%rbp)   # imm = 0xD568E0D
	jne	.LBB54_2
.LBB54_1:
	addq	$48, %rsp
	popq	%rbp
	.cfi_def_cfa %rsp, 8
	retq
.LBB54_2:                               # %func_exit
	.cfi_def_cfa %rbp, 16
	callq	detect_breach
	jmp	.LBB54_1
.Lfunc_end54:
	.size	ReportSP.18, .Lfunc_end54-ReportSP.18
	.cfi_endproc
                                        # -- End function
	.p2align	4, 0x90         # -- Begin function ReportP.19
	.type	ReportP.19,@function
ReportP.19:                             # @ReportP.19
	.cfi_startproc
# %bb.0:                                # %entry
	pushq	%rbp
	.cfi_def_cfa_offset 16
	.cfi_offset %rbp, -16
	movq	%rsp, %rbp
	.cfi_def_cfa_register %rbp
	subq	$48, %rsp
	movl	$2068107176, -12(%rbp)  # imm = 0x7B44CFA8
	movl	%edi, -4(%rbp)
	movl	%esi, -8(%rbp)
	movl	frame_no, %esi
	movq	stats, %rax
	movl	16(%rax), %edx
	movq	stats, %rax
	subl	20(%rax), %edx
	movq	active_pps, %rax
	movl	192(%rax), %ecx
	movq	img, %rax
	movl	40(%rax), %r8d
	movq	snr, %rax
	vmovss	(%rax), %xmm0           # xmm0 = mem[0],zero,zero,zero
	vcvtss2sd	%xmm0, %xmm0, %xmm0
	movq	snr, %rax
	vmovss	4(%rax), %xmm1          # xmm1 = mem[0],zero,zero,zero
	vcvtss2sd	%xmm1, %xmm0, %xmm1
	movq	snr, %rax
	vmovss	8(%rax), %xmm2          # xmm2 = mem[0],zero,zero,zero
	vcvtss2sd	%xmm2, %xmm0, %xmm2
	movl	-4(%rbp), %r9d
	movl	-8(%rbp), %r10d
	movq	img, %rdi
	movl	71800(%rdi), %edi
	cmpl	$0, %edi
	movabsq	$.L.str.7, %rdi
	movabsq	$.L.str.8, %rax
	cmovneq	%rdi, %rax
	movl	intras, %r11d
	movabsq	$.L.str.13, %rdi
	movl	%r10d, (%rsp)
	movq	%rax, 8(%rsp)
	movl	%r11d, 16(%rsp)
	movb	$3, %al
	callq	printf
	cmpl	$2068107176, -12(%rbp)  # imm = 0x7B44CFA8
	jne	.LBB55_2
.LBB55_1:
	addq	$48, %rsp
	popq	%rbp
	.cfi_def_cfa %rsp, 8
	retq
.LBB55_2:                               # %func_exit
	.cfi_def_cfa %rbp, 16
	callq	detect_breach
	jmp	.LBB55_1
.Lfunc_end55:
	.size	ReportP.19, .Lfunc_end55-ReportP.19
	.cfi_endproc
                                        # -- End function
	.p2align	4, 0x90         # -- Begin function ReportNALNonVLCBits.20
	.type	ReportNALNonVLCBits.20,@function
ReportNALNonVLCBits.20:                 # @ReportNALNonVLCBits.20
	.cfi_startproc
# %bb.0:                                # %entry
	pushq	%rbp
	.cfi_def_cfa_offset 16
	.cfi_offset %rbp, -16
	movq	%rsp, %rbp
	.cfi_def_cfa_register %rbp
	subq	$16, %rsp
	movl	$442690284, -4(%rbp)    # imm = 0x1A62EAEC
	movl	%edi, -8(%rbp)
	movl	%esi, -12(%rbp)
	movl	frame_no, %esi
	movq	stats, %rax
	movl	1492(%rax), %edx
	movabsq	$.L.str.5, %rdi
	movb	$0, %al
	callq	printf
	cmpl	$442690284, -4(%rbp)    # imm = 0x1A62EAEC
	jne	.LBB56_2
.LBB56_1:
	addq	$16, %rsp
	popq	%rbp
	.cfi_def_cfa %rsp, 8
	retq
.LBB56_2:                               # %func_exit
	.cfi_def_cfa %rbp, 16
	callq	detect_breach
	jmp	.LBB56_1
.Lfunc_end56:
	.size	ReportNALNonVLCBits.20, .Lfunc_end56-ReportNALNonVLCBits.20
	.cfi_endproc
                                        # -- End function
	.p2align	4, 0x90         # -- Begin function PaddAutoCropBorders.21
	.type	PaddAutoCropBorders.21,@function
PaddAutoCropBorders.21:                 # @PaddAutoCropBorders.21
	.cfi_startproc
# %bb.0:                                # %entry
	pushq	%rbp
	.cfi_def_cfa_offset 16
	.cfi_offset %rbp, -16
	movq	%rsp, %rbp
	.cfi_def_cfa_register %rbp
	subq	$48, %rsp
	movl	24(%rbp), %eax
	movl	16(%rbp), %eax
	movl	$1320221085, -36(%rbp)  # imm = 0x4EB0F99D
	movl	%edi, -28(%rbp)
	movl	%esi, -16(%rbp)
	movl	%edx, -12(%rbp)
	movl	%ecx, -32(%rbp)
	movl	%r8d, -24(%rbp)
	movl	%r9d, -20(%rbp)
	movl	$0, -4(%rbp)
.LBB57_1:                               # %for.cond
                                        # =>This Loop Header: Depth=1
                                        #     Child Loop BB57_3 Depth 2
	movl	-4(%rbp), %eax
	cmpl	-16(%rbp), %eax
	jge	.LBB57_8
# %bb.2:                                # %for.body
                                        #   in Loop: Header=BB57_1 Depth=1
	movl	-28(%rbp), %eax
	movl	%eax, -8(%rbp)
.LBB57_3:                               # %for.cond1
                                        #   Parent Loop BB57_1 Depth=1
                                        # =>  This Inner Loop Header: Depth=2
	movl	-8(%rbp), %eax
	cmpl	-12(%rbp), %eax
	jge	.LBB57_6
# %bb.4:                                # %for.body3
                                        #   in Loop: Header=BB57_3 Depth=2
	movq	imgY_org_frm, %rax
	movslq	-4(%rbp), %rcx
	movq	(%rax,%rcx,8), %rax
	movl	-8(%rbp), %ecx
	subl	$1, %ecx
	movslq	%ecx, %rcx
	movw	(%rax,%rcx,2), %ax
	movq	imgY_org_frm, %rcx
	movslq	-4(%rbp), %rdx
	movq	(%rcx,%rdx,8), %rcx
	movslq	-8(%rbp), %rdx
	movw	%ax, (%rcx,%rdx,2)
# %bb.5:                                # %for.inc
                                        #   in Loop: Header=BB57_3 Depth=2
	movl	-8(%rbp), %eax
	addl	$1, %eax
	movl	%eax, -8(%rbp)
	jmp	.LBB57_3
.LBB57_6:                               # %for.end
                                        #   in Loop: Header=BB57_1 Depth=1
	jmp	.LBB57_7
.LBB57_7:                               # %for.inc10
                                        #   in Loop: Header=BB57_1 Depth=1
	movl	-4(%rbp), %eax
	addl	$1, %eax
	movl	%eax, -4(%rbp)
	jmp	.LBB57_1
.LBB57_8:                               # %for.end12
	movl	-16(%rbp), %eax
	movl	%eax, -4(%rbp)
.LBB57_9:                               # %for.cond13
                                        # =>This Loop Header: Depth=1
                                        #     Child Loop BB57_11 Depth 2
	movl	-4(%rbp), %eax
	cmpl	-32(%rbp), %eax
	jge	.LBB57_16
# %bb.10:                               # %for.body15
                                        #   in Loop: Header=BB57_9 Depth=1
	movl	$0, -8(%rbp)
.LBB57_11:                              # %for.cond16
                                        #   Parent Loop BB57_9 Depth=1
                                        # =>  This Inner Loop Header: Depth=2
	movl	-8(%rbp), %eax
	cmpl	-12(%rbp), %eax
	jge	.LBB57_14
# %bb.12:                               # %for.body18
                                        #   in Loop: Header=BB57_11 Depth=2
	movq	imgY_org_frm, %rax
	movl	-4(%rbp), %ecx
	subl	$1, %ecx
	movslq	%ecx, %rcx
	movq	(%rax,%rcx,8), %rax
	movslq	-8(%rbp), %rcx
	movw	(%rax,%rcx,2), %ax
	movq	imgY_org_frm, %rcx
	movslq	-4(%rbp), %rdx
	movq	(%rcx,%rdx,8), %rcx
	movslq	-8(%rbp), %rdx
	movw	%ax, (%rcx,%rdx,2)
# %bb.13:                               # %for.inc28
                                        #   in Loop: Header=BB57_11 Depth=2
	movl	-8(%rbp), %eax
	addl	$1, %eax
	movl	%eax, -8(%rbp)
	jmp	.LBB57_11
.LBB57_14:                              # %for.end30
                                        #   in Loop: Header=BB57_9 Depth=1
	jmp	.LBB57_15
.LBB57_15:                              # %for.inc31
                                        #   in Loop: Header=BB57_9 Depth=1
	movl	-4(%rbp), %eax
	addl	$1, %eax
	movl	%eax, -4(%rbp)
	jmp	.LBB57_9
.LBB57_16:                              # %for.end33
	movq	img, %rax
	cmpl	$0, 72700(%rax)
	je	.LBB57_34
# %bb.17:                               # %if.then
	movl	$0, -4(%rbp)
.LBB57_18:                              # %for.cond35
                                        # =>This Loop Header: Depth=1
                                        #     Child Loop BB57_20 Depth 2
	movl	-4(%rbp), %eax
	cmpl	-20(%rbp), %eax
	jge	.LBB57_25
# %bb.19:                               # %for.body37
                                        #   in Loop: Header=BB57_18 Depth=1
	movl	-24(%rbp), %eax
	movl	%eax, -8(%rbp)
.LBB57_20:                              # %for.cond38
                                        #   Parent Loop BB57_18 Depth=1
                                        # =>  This Inner Loop Header: Depth=2
	movl	-8(%rbp), %eax
	cmpl	16(%rbp), %eax
	jge	.LBB57_23
# %bb.21:                               # %for.body40
                                        #   in Loop: Header=BB57_20 Depth=2
	movq	imgUV_org_frm, %rax
	movq	(%rax), %rax
	movslq	-4(%rbp), %rcx
	movq	(%rax,%rcx,8), %rax
	movl	-8(%rbp), %ecx
	subl	$1, %ecx
	movslq	%ecx, %rcx
	movw	(%rax,%rcx,2), %ax
	movq	imgUV_org_frm, %rcx
	movq	(%rcx), %rcx
	movslq	-4(%rbp), %rdx
	movq	(%rcx,%rdx,8), %rcx
	movslq	-8(%rbp), %rdx
	movw	%ax, (%rcx,%rdx,2)
	movq	imgUV_org_frm, %rax
	movq	8(%rax), %rax
	movslq	-4(%rbp), %rcx
	movq	(%rax,%rcx,8), %rax
	movl	-8(%rbp), %ecx
	subl	$1, %ecx
	movslq	%ecx, %rcx
	movw	(%rax,%rcx,2), %ax
	movq	imgUV_org_frm, %rcx
	movq	8(%rcx), %rcx
	movslq	-4(%rbp), %rdx
	movq	(%rcx,%rdx,8), %rcx
	movslq	-8(%rbp), %rdx
	movw	%ax, (%rcx,%rdx,2)
# %bb.22:                               # %for.inc63
                                        #   in Loop: Header=BB57_20 Depth=2
	movl	-8(%rbp), %eax
	addl	$1, %eax
	movl	%eax, -8(%rbp)
	jmp	.LBB57_20
.LBB57_23:                              # %for.end65
                                        #   in Loop: Header=BB57_18 Depth=1
	jmp	.LBB57_24
.LBB57_24:                              # %for.inc66
                                        #   in Loop: Header=BB57_18 Depth=1
	movl	-4(%rbp), %eax
	addl	$1, %eax
	movl	%eax, -4(%rbp)
	jmp	.LBB57_18
.LBB57_25:                              # %for.end68
	movl	-20(%rbp), %eax
	movl	%eax, -4(%rbp)
.LBB57_26:                              # %for.cond69
                                        # =>This Loop Header: Depth=1
                                        #     Child Loop BB57_28 Depth 2
	movl	-4(%rbp), %eax
	cmpl	24(%rbp), %eax
	jge	.LBB57_33
# %bb.27:                               # %for.body71
                                        #   in Loop: Header=BB57_26 Depth=1
	movl	$0, -8(%rbp)
.LBB57_28:                              # %for.cond72
                                        #   Parent Loop BB57_26 Depth=1
                                        # =>  This Inner Loop Header: Depth=2
	movl	-8(%rbp), %eax
	cmpl	16(%rbp), %eax
	jge	.LBB57_31
# %bb.29:                               # %for.body74
                                        #   in Loop: Header=BB57_28 Depth=2
	movq	imgUV_org_frm, %rax
	movq	(%rax), %rax
	movl	-4(%rbp), %ecx
	subl	$1, %ecx
	movslq	%ecx, %rcx
	movq	(%rax,%rcx,8), %rax
	movslq	-8(%rbp), %rcx
	movw	(%rax,%rcx,2), %ax
	movq	imgUV_org_frm, %rcx
	movq	(%rcx), %rcx
	movslq	-4(%rbp), %rdx
	movq	(%rcx,%rdx,8), %rcx
	movslq	-8(%rbp), %rdx
	movw	%ax, (%rcx,%rdx,2)
	movq	imgUV_org_frm, %rax
	movq	8(%rax), %rax
	movl	-4(%rbp), %ecx
	subl	$1, %ecx
	movslq	%ecx, %rcx
	movq	(%rax,%rcx,8), %rax
	movslq	-8(%rbp), %rcx
	movw	(%rax,%rcx,2), %ax
	movq	imgUV_org_frm, %rcx
	movq	8(%rcx), %rcx
	movslq	-4(%rbp), %rdx
	movq	(%rcx,%rdx,8), %rcx
	movslq	-8(%rbp), %rdx
	movw	%ax, (%rcx,%rdx,2)
# %bb.30:                               # %for.inc97
                                        #   in Loop: Header=BB57_28 Depth=2
	movl	-8(%rbp), %eax
	addl	$1, %eax
	movl	%eax, -8(%rbp)
	jmp	.LBB57_28
.LBB57_31:                              # %for.end99
                                        #   in Loop: Header=BB57_26 Depth=1
	jmp	.LBB57_32
.LBB57_32:                              # %for.inc100
                                        #   in Loop: Header=BB57_26 Depth=1
	movl	-4(%rbp), %eax
	addl	$1, %eax
	movl	%eax, -4(%rbp)
	jmp	.LBB57_26
.LBB57_33:                              # %for.end102
	jmp	.LBB57_34
.LBB57_34:                              # %if.end
	cmpl	$1320221085, -36(%rbp)  # imm = 0x4EB0F99D
	jne	.LBB57_36
.LBB57_35:
	addq	$48, %rsp
	popq	%rbp
	.cfi_def_cfa %rsp, 8
	retq
.LBB57_36:                              # %func_exit
	.cfi_def_cfa %rbp, 16
	callq	detect_breach
	jmp	.LBB57_35
.Lfunc_end57:
	.size	PaddAutoCropBorders.21, .Lfunc_end57-PaddAutoCropBorders.21
	.cfi_endproc
                                        # -- End function
	.p2align	4, 0x90         # -- Begin function PaddAutoCropBorders.22
	.type	PaddAutoCropBorders.22,@function
PaddAutoCropBorders.22:                 # @PaddAutoCropBorders.22
	.cfi_startproc
# %bb.0:                                # %entry
	pushq	%rbp
	.cfi_def_cfa_offset 16
	.cfi_offset %rbp, -16
	movq	%rsp, %rbp
	.cfi_def_cfa_register %rbp
	subq	$48, %rsp
	movl	24(%rbp), %eax
	movl	16(%rbp), %eax
	movl	$1453553776, -32(%rbp)  # imm = 0x56A37870
	movl	%edi, -24(%rbp)
	movl	%esi, -20(%rbp)
	movl	%edx, -16(%rbp)
	movl	%ecx, -28(%rbp)
	movl	%r8d, -36(%rbp)
	movl	%r9d, -12(%rbp)
	movl	$0, -4(%rbp)
.LBB58_1:                               # %for.cond
                                        # =>This Loop Header: Depth=1
                                        #     Child Loop BB58_3 Depth 2
	movl	-4(%rbp), %eax
	cmpl	-20(%rbp), %eax
	jge	.LBB58_8
# %bb.2:                                # %for.body
                                        #   in Loop: Header=BB58_1 Depth=1
	movl	-24(%rbp), %eax
	movl	%eax, -8(%rbp)
.LBB58_3:                               # %for.cond1
                                        #   Parent Loop BB58_1 Depth=1
                                        # =>  This Inner Loop Header: Depth=2
	movl	-8(%rbp), %eax
	cmpl	-16(%rbp), %eax
	jge	.LBB58_6
# %bb.4:                                # %for.body3
                                        #   in Loop: Header=BB58_3 Depth=2
	movq	imgY_org_frm, %rax
	movslq	-4(%rbp), %rcx
	movq	(%rax,%rcx,8), %rax
	movl	-8(%rbp), %ecx
	subl	$1, %ecx
	movslq	%ecx, %rcx
	movw	(%rax,%rcx,2), %ax
	movq	imgY_org_frm, %rcx
	movslq	-4(%rbp), %rdx
	movq	(%rcx,%rdx,8), %rcx
	movslq	-8(%rbp), %rdx
	movw	%ax, (%rcx,%rdx,2)
# %bb.5:                                # %for.inc
                                        #   in Loop: Header=BB58_3 Depth=2
	movl	-8(%rbp), %eax
	addl	$1, %eax
	movl	%eax, -8(%rbp)
	jmp	.LBB58_3
.LBB58_6:                               # %for.end
                                        #   in Loop: Header=BB58_1 Depth=1
	jmp	.LBB58_7
.LBB58_7:                               # %for.inc10
                                        #   in Loop: Header=BB58_1 Depth=1
	movl	-4(%rbp), %eax
	addl	$1, %eax
	movl	%eax, -4(%rbp)
	jmp	.LBB58_1
.LBB58_8:                               # %for.end12
	movl	-20(%rbp), %eax
	movl	%eax, -4(%rbp)
.LBB58_9:                               # %for.cond13
                                        # =>This Loop Header: Depth=1
                                        #     Child Loop BB58_11 Depth 2
	movl	-4(%rbp), %eax
	cmpl	-28(%rbp), %eax
	jge	.LBB58_16
# %bb.10:                               # %for.body15
                                        #   in Loop: Header=BB58_9 Depth=1
	movl	$0, -8(%rbp)
.LBB58_11:                              # %for.cond16
                                        #   Parent Loop BB58_9 Depth=1
                                        # =>  This Inner Loop Header: Depth=2
	movl	-8(%rbp), %eax
	cmpl	-16(%rbp), %eax
	jge	.LBB58_14
# %bb.12:                               # %for.body18
                                        #   in Loop: Header=BB58_11 Depth=2
	movq	imgY_org_frm, %rax
	movl	-4(%rbp), %ecx
	subl	$1, %ecx
	movslq	%ecx, %rcx
	movq	(%rax,%rcx,8), %rax
	movslq	-8(%rbp), %rcx
	movw	(%rax,%rcx,2), %ax
	movq	imgY_org_frm, %rcx
	movslq	-4(%rbp), %rdx
	movq	(%rcx,%rdx,8), %rcx
	movslq	-8(%rbp), %rdx
	movw	%ax, (%rcx,%rdx,2)
# %bb.13:                               # %for.inc28
                                        #   in Loop: Header=BB58_11 Depth=2
	movl	-8(%rbp), %eax
	addl	$1, %eax
	movl	%eax, -8(%rbp)
	jmp	.LBB58_11
.LBB58_14:                              # %for.end30
                                        #   in Loop: Header=BB58_9 Depth=1
	jmp	.LBB58_15
.LBB58_15:                              # %for.inc31
                                        #   in Loop: Header=BB58_9 Depth=1
	movl	-4(%rbp), %eax
	addl	$1, %eax
	movl	%eax, -4(%rbp)
	jmp	.LBB58_9
.LBB58_16:                              # %for.end33
	movq	img, %rax
	cmpl	$0, 72700(%rax)
	je	.LBB58_34
# %bb.17:                               # %if.then
	movl	$0, -4(%rbp)
.LBB58_18:                              # %for.cond35
                                        # =>This Loop Header: Depth=1
                                        #     Child Loop BB58_20 Depth 2
	movl	-4(%rbp), %eax
	cmpl	-12(%rbp), %eax
	jge	.LBB58_25
# %bb.19:                               # %for.body37
                                        #   in Loop: Header=BB58_18 Depth=1
	movl	-36(%rbp), %eax
	movl	%eax, -8(%rbp)
.LBB58_20:                              # %for.cond38
                                        #   Parent Loop BB58_18 Depth=1
                                        # =>  This Inner Loop Header: Depth=2
	movl	-8(%rbp), %eax
	cmpl	16(%rbp), %eax
	jge	.LBB58_23
# %bb.21:                               # %for.body40
                                        #   in Loop: Header=BB58_20 Depth=2
	movq	imgUV_org_frm, %rax
	movq	(%rax), %rax
	movslq	-4(%rbp), %rcx
	movq	(%rax,%rcx,8), %rax
	movl	-8(%rbp), %ecx
	subl	$1, %ecx
	movslq	%ecx, %rcx
	movw	(%rax,%rcx,2), %ax
	movq	imgUV_org_frm, %rcx
	movq	(%rcx), %rcx
	movslq	-4(%rbp), %rdx
	movq	(%rcx,%rdx,8), %rcx
	movslq	-8(%rbp), %rdx
	movw	%ax, (%rcx,%rdx,2)
	movq	imgUV_org_frm, %rax
	movq	8(%rax), %rax
	movslq	-4(%rbp), %rcx
	movq	(%rax,%rcx,8), %rax
	movl	-8(%rbp), %ecx
	subl	$1, %ecx
	movslq	%ecx, %rcx
	movw	(%rax,%rcx,2), %ax
	movq	imgUV_org_frm, %rcx
	movq	8(%rcx), %rcx
	movslq	-4(%rbp), %rdx
	movq	(%rcx,%rdx,8), %rcx
	movslq	-8(%rbp), %rdx
	movw	%ax, (%rcx,%rdx,2)
# %bb.22:                               # %for.inc63
                                        #   in Loop: Header=BB58_20 Depth=2
	movl	-8(%rbp), %eax
	addl	$1, %eax
	movl	%eax, -8(%rbp)
	jmp	.LBB58_20
.LBB58_23:                              # %for.end65
                                        #   in Loop: Header=BB58_18 Depth=1
	jmp	.LBB58_24
.LBB58_24:                              # %for.inc66
                                        #   in Loop: Header=BB58_18 Depth=1
	movl	-4(%rbp), %eax
	addl	$1, %eax
	movl	%eax, -4(%rbp)
	jmp	.LBB58_18
.LBB58_25:                              # %for.end68
	movl	-12(%rbp), %eax
	movl	%eax, -4(%rbp)
.LBB58_26:                              # %for.cond69
                                        # =>This Loop Header: Depth=1
                                        #     Child Loop BB58_28 Depth 2
	movl	-4(%rbp), %eax
	cmpl	24(%rbp), %eax
	jge	.LBB58_33
# %bb.27:                               # %for.body71
                                        #   in Loop: Header=BB58_26 Depth=1
	movl	$0, -8(%rbp)
.LBB58_28:                              # %for.cond72
                                        #   Parent Loop BB58_26 Depth=1
                                        # =>  This Inner Loop Header: Depth=2
	movl	-8(%rbp), %eax
	cmpl	16(%rbp), %eax
	jge	.LBB58_31
# %bb.29:                               # %for.body74
                                        #   in Loop: Header=BB58_28 Depth=2
	movq	imgUV_org_frm, %rax
	movq	(%rax), %rax
	movl	-4(%rbp), %ecx
	subl	$1, %ecx
	movslq	%ecx, %rcx
	movq	(%rax,%rcx,8), %rax
	movslq	-8(%rbp), %rcx
	movw	(%rax,%rcx,2), %ax
	movq	imgUV_org_frm, %rcx
	movq	(%rcx), %rcx
	movslq	-4(%rbp), %rdx
	movq	(%rcx,%rdx,8), %rcx
	movslq	-8(%rbp), %rdx
	movw	%ax, (%rcx,%rdx,2)
	movq	imgUV_org_frm, %rax
	movq	8(%rax), %rax
	movl	-4(%rbp), %ecx
	subl	$1, %ecx
	movslq	%ecx, %rcx
	movq	(%rax,%rcx,8), %rax
	movslq	-8(%rbp), %rcx
	movw	(%rax,%rcx,2), %ax
	movq	imgUV_org_frm, %rcx
	movq	8(%rcx), %rcx
	movslq	-4(%rbp), %rdx
	movq	(%rcx,%rdx,8), %rcx
	movslq	-8(%rbp), %rdx
	movw	%ax, (%rcx,%rdx,2)
# %bb.30:                               # %for.inc97
                                        #   in Loop: Header=BB58_28 Depth=2
	movl	-8(%rbp), %eax
	addl	$1, %eax
	movl	%eax, -8(%rbp)
	jmp	.LBB58_28
.LBB58_31:                              # %for.end99
                                        #   in Loop: Header=BB58_26 Depth=1
	jmp	.LBB58_32
.LBB58_32:                              # %for.inc100
                                        #   in Loop: Header=BB58_26 Depth=1
	movl	-4(%rbp), %eax
	addl	$1, %eax
	movl	%eax, -4(%rbp)
	jmp	.LBB58_26
.LBB58_33:                              # %for.end102
	jmp	.LBB58_34
.LBB58_34:                              # %if.end
	cmpl	$1453553776, -32(%rbp)  # imm = 0x56A37870
	jne	.LBB58_36
.LBB58_35:
	addq	$48, %rsp
	popq	%rbp
	.cfi_def_cfa %rsp, 8
	retq
.LBB58_36:                              # %func_exit
	.cfi_def_cfa %rbp, 16
	callq	detect_breach
	jmp	.LBB58_35
.Lfunc_end58:
	.size	PaddAutoCropBorders.22, .Lfunc_end58-PaddAutoCropBorders.22
	.cfi_endproc
                                        # -- End function
	.p2align	4, 0x90         # -- Begin function find_distortion.23
	.type	find_distortion.23,@function
find_distortion.23:                     # @find_distortion.23
	.cfi_startproc
# %bb.0:                                # %entry
	pushq	%rbp
	.cfi_def_cfa_offset 16
	.cfi_offset %rbp, -16
	movq	%rsp, %rbp
	.cfi_def_cfa_register %rbp
	pushq	%rbx
	subq	$40, %rsp
	.cfi_offset %rbx, -24
	movl	$971338904, -44(%rbp)   # imm = 0x39E57498
	movq	input, %rax
	movl	68(%rax), %eax
	movq	input, %rcx
	imull	64(%rcx), %eax
	movl	%eax, -48(%rbp)
	movq	img, %rax
	cmpl	$0, 28(%rax)
	je	.LBB59_20
# %bb.1:                                # %if.then
	movq	$0, -32(%rbp)
	movl	$0, -12(%rbp)
.LBB59_2:                               # %for.cond
                                        # =>This Loop Header: Depth=1
                                        #     Child Loop BB59_4 Depth 2
	movl	-12(%rbp), %eax
	movq	input, %rcx
	cmpl	64(%rcx), %eax
	jge	.LBB59_9
# %bb.3:                                # %for.body
                                        #   in Loop: Header=BB59_2 Depth=1
	movl	$0, -16(%rbp)
.LBB59_4:                               # %for.cond3
                                        #   Parent Loop BB59_2 Depth=1
                                        # =>  This Inner Loop Header: Depth=2
	movl	-16(%rbp), %eax
	movq	input, %rcx
	cmpl	68(%rcx), %eax
	jge	.LBB59_7
# %bb.5:                                # %for.body6
                                        #   in Loop: Header=BB59_4 Depth=2
	movq	img, %rax
	movq	71776(%rax), %rbx
	movq	imgY_org, %rax
	movslq	-16(%rbp), %rcx
	movq	(%rax,%rcx,8), %rax
	movslq	-12(%rbp), %rcx
	movzwl	(%rax,%rcx,2), %edi
	movq	imgY_com, %rax
	movslq	-16(%rbp), %rcx
	movq	(%rax,%rcx,8), %rax
	movslq	-12(%rbp), %rcx
	movzwl	(%rax,%rcx,2), %eax
	subl	%eax, %edi
	callq	abs
	cltq
	movslq	(%rbx,%rax,4), %rax
	addq	-32(%rbp), %rax
	movq	%rax, -32(%rbp)
# %bb.6:                                # %for.inc
                                        #   in Loop: Header=BB59_4 Depth=2
	movl	-16(%rbp), %eax
	addl	$1, %eax
	movl	%eax, -16(%rbp)
	jmp	.LBB59_4
.LBB59_7:                               # %for.end
                                        #   in Loop: Header=BB59_2 Depth=1
	jmp	.LBB59_8
.LBB59_8:                               # %for.inc17
                                        #   in Loop: Header=BB59_2 Depth=1
	movl	-12(%rbp), %eax
	addl	$1, %eax
	movl	%eax, -12(%rbp)
	jmp	.LBB59_2
.LBB59_9:                               # %for.end19
	movq	$0, -40(%rbp)
	movq	$0, -24(%rbp)
	movq	img, %rax
	cmpl	$0, 72700(%rax)
	je	.LBB59_19
# %bb.10:                               # %if.then22
	movl	$0, -12(%rbp)
.LBB59_11:                              # %for.cond23
                                        # =>This Loop Header: Depth=1
                                        #     Child Loop BB59_13 Depth 2
	movl	-12(%rbp), %eax
	movq	input, %rcx
	cmpl	3308(%rcx), %eax
	jge	.LBB59_18
# %bb.12:                               # %for.body26
                                        #   in Loop: Header=BB59_11 Depth=1
	movl	$0, -16(%rbp)
.LBB59_13:                              # %for.cond27
                                        #   Parent Loop BB59_11 Depth=1
                                        # =>  This Inner Loop Header: Depth=2
	movl	-16(%rbp), %eax
	movq	input, %rcx
	cmpl	3304(%rcx), %eax
	jge	.LBB59_16
# %bb.14:                               # %for.body30
                                        #   in Loop: Header=BB59_13 Depth=2
	movq	img, %rax
	movq	71776(%rax), %rbx
	movq	imgUV_org, %rax
	movq	(%rax), %rax
	movslq	-16(%rbp), %rcx
	movq	(%rax,%rcx,8), %rax
	movslq	-12(%rbp), %rcx
	movzwl	(%rax,%rcx,2), %edi
	movq	imgUV_com, %rax
	movq	(%rax), %rax
	movslq	-16(%rbp), %rcx
	movq	(%rax,%rcx,8), %rax
	movslq	-12(%rbp), %rcx
	movzwl	(%rax,%rcx,2), %eax
	subl	%eax, %edi
	callq	abs
	cltq
	movslq	(%rbx,%rax,4), %rax
	addq	-40(%rbp), %rax
	movq	%rax, -40(%rbp)
	movq	img, %rax
	movq	71776(%rax), %rbx
	movq	imgUV_org, %rax
	movq	8(%rax), %rax
	movslq	-16(%rbp), %rcx
	movq	(%rax,%rcx,8), %rax
	movslq	-12(%rbp), %rcx
	movzwl	(%rax,%rcx,2), %edi
	movq	imgUV_com, %rax
	movq	8(%rax), %rax
	movslq	-16(%rbp), %rcx
	movq	(%rax,%rcx,8), %rax
	movslq	-12(%rbp), %rcx
	movzwl	(%rax,%rcx,2), %eax
	subl	%eax, %edi
	callq	abs
	cltq
	movslq	(%rbx,%rax,4), %rax
	addq	-24(%rbp), %rax
	movq	%rax, -24(%rbp)
# %bb.15:                               # %for.inc69
                                        #   in Loop: Header=BB59_13 Depth=2
	movl	-16(%rbp), %eax
	addl	$1, %eax
	movl	%eax, -16(%rbp)
	jmp	.LBB59_13
.LBB59_16:                              # %for.end71
                                        #   in Loop: Header=BB59_11 Depth=1
	jmp	.LBB59_17
.LBB59_17:                              # %for.inc72
                                        #   in Loop: Header=BB59_11 Depth=1
	movl	-12(%rbp), %eax
	addl	$1, %eax
