	.text
	.file	"intrarefresh.c"
	.globl	RandomIntraInit         # -- Begin function RandomIntraInit
	.p2align	4, 0x90
	.type	RandomIntraInit,@function
RandomIntraInit:                        # @RandomIntraInit
	.cfi_startproc
# %bb.0:                                # %rand_bb
	pushq	%rbp
	.cfi_def_cfa_offset 16
	.cfi_offset %rbp, -16
	movq	%rsp, %rbp
	.cfi_def_cfa_register %rbp
	pushq	%r15
	pushq	%r14
	pushq	%rbx
	pushq	%rax
	.cfi_offset %rbx, -40
	.cfi_offset %r14, -32
	.cfi_offset %r15, -24
	movl	%edx, %r14d
	movl	%esi, %r15d
	movl	%edi, %ebx
	callq	get_urand
	cmpl	$0, %eax
	jne	.LBB0_5
# %bb.1:                                # %func_RandomIntraInit.3
	movl	%ebx, %edi
	movl	%r15d, %esi
	movl	%r14d, %edx
	callq	RandomIntraInit.3
	addq	$8, %rsp
	popq	%rbx
	popq	%r14
	popq	%r15
	popq	%rbp
	.cfi_def_cfa %rsp, 8
	retq
.LBB0_2:                                # %func_RandomIntraInit.4
	.cfi_def_cfa %rbp, 16
	movl	%ebx, %edi
	movl	%r15d, %esi
	movl	%r14d, %edx
	callq	RandomIntraInit.4
	addq	$8, %rsp
	popq	%rbx
	popq	%r14
	popq	%r15
	popq	%rbp
	.cfi_def_cfa %rsp, 8
	retq
.LBB0_3:                                # %func_RandomIntraInit.5
	.cfi_def_cfa %rbp, 16
	movl	%ebx, %edi
	movl	%r15d, %esi
	movl	%r14d, %edx
	callq	RandomIntraInit.5
	addq	$8, %rsp
	popq	%rbx
	popq	%r14
	popq	%r15
	popq	%rbp
	.cfi_def_cfa %rsp, 8
	retq
.LBB0_4:                                # %func_RandomIntraInit.6
	.cfi_def_cfa %rbp, 16
	movl	%ebx, %edi
	movl	%r15d, %esi
	movl	%r14d, %edx
	callq	RandomIntraInit.6
	addq	$8, %rsp
	popq	%rbx
	popq	%r14
	popq	%r15
	popq	%rbp
	.cfi_def_cfa %rsp, 8
	retq
.LBB0_5:                                # %ctrl0
	.cfi_def_cfa %rbp, 16
	cmpl	$1, %eax
	je	.LBB0_2
# %bb.6:                                # %ctrl1
	cmpl	$2, %eax
	je	.LBB0_3
	jmp	.LBB0_4
.Lfunc_end0:
	.size	RandomIntraInit, .Lfunc_end0-RandomIntraInit
	.cfi_endproc
                                        # -- End function
	.globl	RandomIntra             # -- Begin function RandomIntra
	.p2align	4, 0x90
	.type	RandomIntra,@function
RandomIntra:                            # @RandomIntra
	.cfi_startproc
# %bb.0:                                # %rand_bb
	pushq	%rbp
	.cfi_def_cfa_offset 16
	.cfi_offset %rbp, -16
	movq	%rsp, %rbp
	.cfi_def_cfa_register %rbp
	pushq	%rbx
	pushq	%rax
	.cfi_offset %rbx, -24
	movl	%edi, %ebx
	callq	get_urand
	cmpl	$0, %eax
	jne	.LBB1_5
# %bb.1:                                # %func_RandomIntra.7
	movl	%ebx, %edi
	callq	RandomIntra.7
	addq	$8, %rsp
	popq	%rbx
	popq	%rbp
	.cfi_def_cfa %rsp, 8
	retq
.LBB1_2:                                # %func_RandomIntra.8
	.cfi_def_cfa %rbp, 16
	movl	%ebx, %edi
	callq	RandomIntra.8
	addq	$8, %rsp
	popq	%rbx
	popq	%rbp
	.cfi_def_cfa %rsp, 8
	retq
.LBB1_3:                                # %func_RandomIntra.9
	.cfi_def_cfa %rbp, 16
	movl	%ebx, %edi
	callq	RandomIntra.9
	addq	$8, %rsp
	popq	%rbx
	popq	%rbp
	.cfi_def_cfa %rsp, 8
	retq
.LBB1_4:                                # %func_RandomIntra.10
	.cfi_def_cfa %rbp, 16
	movl	%ebx, %edi
	callq	RandomIntra.10
	addq	$8, %rsp
	popq	%rbx
	popq	%rbp
	.cfi_def_cfa %rsp, 8
	retq
.LBB1_5:                                # %ctrl0
	.cfi_def_cfa %rbp, 16
	cmpl	$1, %eax
	je	.LBB1_2
# %bb.6:                                # %ctrl1
	cmpl	$2, %eax
	je	.LBB1_3
	jmp	.LBB1_4
.Lfunc_end1:
	.size	RandomIntra, .Lfunc_end1-RandomIntra
	.cfi_endproc
                                        # -- End function
	.globl	RandomIntraNewPicture   # -- Begin function RandomIntraNewPicture
	.p2align	4, 0x90
	.type	RandomIntraNewPicture,@function
RandomIntraNewPicture:                  # @RandomIntraNewPicture
	.cfi_startproc
# %bb.0:                                # %rand_bb
	pushq	%rbp
	.cfi_def_cfa_offset 16
	.cfi_offset %rbp, -16
	movq	%rsp, %rbp
	.cfi_def_cfa_register %rbp
	callq	get_urand
	cmpl	$0, %eax
	jne	.LBB2_2
# %bb.1:                                # %func_RandomIntraNewPicture.1
	callq	RandomIntraNewPicture.1
	popq	%rbp
	.cfi_def_cfa %rsp, 8
	retq
.LBB2_2:                                # %func_RandomIntraNewPicture.2
	.cfi_def_cfa %rbp, 16
	callq	RandomIntraNewPicture.2
	popq	%rbp
	.cfi_def_cfa %rsp, 8
	retq
.Lfunc_end2:
	.size	RandomIntraNewPicture, .Lfunc_end2-RandomIntraNewPicture
	.cfi_endproc
                                        # -- End function
	.globl	RandomIntraUninit       # -- Begin function RandomIntraUninit
	.p2align	4, 0x90
	.type	RandomIntraUninit,@function
RandomIntraUninit:                      # @RandomIntraUninit
	.cfi_startproc
# %bb.0:                                # %entry
	pushq	%rbp
	.cfi_def_cfa_offset 16
	.cfi_offset %rbp, -16
	movq	%rsp, %rbp
	.cfi_def_cfa_register %rbp
	movq	RefreshPattern, %rdi
	callq	free
	movq	IntraMBs, %rdi
	callq	free
	popq	%rbp
	.cfi_def_cfa %rsp, 8
	retq
.Lfunc_end3:
	.size	RandomIntraUninit, .Lfunc_end3-RandomIntraUninit
	.cfi_endproc
                                        # -- End function
	.globl	RandomIntraNewPicture.1 # -- Begin function RandomIntraNewPicture.1
	.p2align	4, 0x90
	.type	RandomIntraNewPicture.1,@function
RandomIntraNewPicture.1:                # @RandomIntraNewPicture.1
	.cfi_startproc
# %bb.0:                                # %entry
	pushq	%rbp
	.cfi_def_cfa_offset 16
	.cfi_offset %rbp, -16
	movq	%rsp, %rbp
	.cfi_def_cfa_register %rbp
	subq	$16, %rsp
	movl	$1084580386, -12(%rbp)  # imm = 0x40A56222
	movl	NumberIntraPerPicture, %eax
	addl	WalkAround, %eax
	movl	%eax, WalkAround
	movl	$0, -4(%rbp)
	movl	WalkAround, %eax
	movl	%eax, -8(%rbp)
.LBB4_1:                                # %for.cond
                                        # =>This Inner Loop Header: Depth=1
	movl	-4(%rbp), %eax
	cmpl	NumberIntraPerPicture, %eax
	jge	.LBB4_4
# %bb.2:                                # %for.body
                                        #   in Loop: Header=BB4_1 Depth=1
	movq	RefreshPattern, %rcx
	movl	-8(%rbp), %eax
	cltd
	idivl	NumberOfMBs
	movslq	%edx, %rax
	movl	(%rcx,%rax,4), %eax
	movq	IntraMBs, %rcx
	movslq	-4(%rbp), %rdx
	movl	%eax, (%rcx,%rdx,4)
# %bb.3:                                # %for.inc
                                        #   in Loop: Header=BB4_1 Depth=1
	movl	-4(%rbp), %eax
	addl	$1, %eax
	movl	%eax, -4(%rbp)
	movl	-8(%rbp), %eax
	addl	$1, %eax
	movl	%eax, -8(%rbp)
	jmp	.LBB4_1
.LBB4_4:                                # %for.end
	cmpl	$1084580386, -12(%rbp)  # imm = 0x40A56222
	jne	.LBB4_6
.LBB4_5:
	addq	$16, %rsp
	popq	%rbp
	.cfi_def_cfa %rsp, 8
	retq
.LBB4_6:                                # %func_exit
	.cfi_def_cfa %rbp, 16
	callq	detect_breach
	jmp	.LBB4_5
.Lfunc_end4:
	.size	RandomIntraNewPicture.1, .Lfunc_end4-RandomIntraNewPicture.1
	.cfi_endproc
                                        # -- End function
	.globl	RandomIntraNewPicture.2 # -- Begin function RandomIntraNewPicture.2
	.p2align	4, 0x90
	.type	RandomIntraNewPicture.2,@function
RandomIntraNewPicture.2:                # @RandomIntraNewPicture.2
	.cfi_startproc
# %bb.0:                                # %entry
	pushq	%rbp
	.cfi_def_cfa_offset 16
	.cfi_offset %rbp, -16
	movq	%rsp, %rbp
	.cfi_def_cfa_register %rbp
	subq	$16, %rsp
	movl	$1317732171, -12(%rbp)  # imm = 0x4E8AFF4B
	movl	NumberIntraPerPicture, %eax
	addl	WalkAround, %eax
	movl	%eax, WalkAround
	movl	$0, -4(%rbp)
	movl	WalkAround, %eax
	movl	%eax, -8(%rbp)
.LBB5_1:                                # %for.cond
                                        # =>This Inner Loop Header: Depth=1
	movl	-4(%rbp), %eax
	cmpl	NumberIntraPerPicture, %eax
	jge	.LBB5_4
# %bb.2:                                # %for.body
                                        #   in Loop: Header=BB5_1 Depth=1
	movq	RefreshPattern, %rcx
	movl	-8(%rbp), %eax
	cltd
	idivl	NumberOfMBs
	movslq	%edx, %rax
	movl	(%rcx,%rax,4), %eax
	movq	IntraMBs, %rcx
	movslq	-4(%rbp), %rdx
	movl	%eax, (%rcx,%rdx,4)
# %bb.3:                                # %for.inc
                                        #   in Loop: Header=BB5_1 Depth=1
	movl	-4(%rbp), %eax
	addl	$1, %eax
	movl	%eax, -4(%rbp)
	movl	-8(%rbp), %eax
	addl	$1, %eax
	movl	%eax, -8(%rbp)
	jmp	.LBB5_1
.LBB5_4:                                # %for.end
	cmpl	$1317732171, -12(%rbp)  # imm = 0x4E8AFF4B
	jne	.LBB5_6
.LBB5_5:
	addq	$16, %rsp
	popq	%rbp
	.cfi_def_cfa %rsp, 8
	retq
.LBB5_6:                                # %func_exit
	.cfi_def_cfa %rbp, 16
	callq	detect_breach
	jmp	.LBB5_5
.Lfunc_end5:
	.size	RandomIntraNewPicture.2, .Lfunc_end5-RandomIntraNewPicture.2
	.cfi_endproc
                                        # -- End function
	.globl	RandomIntraInit.3       # -- Begin function RandomIntraInit.3
	.p2align	4, 0x90
	.type	RandomIntraInit.3,@function
RandomIntraInit.3:                      # @RandomIntraInit.3
	.cfi_startproc
# %bb.0:                                # %entry
	pushq	%rbp
	.cfi_def_cfa_offset 16
	.cfi_offset %rbp, -16
	movq	%rsp, %rbp
	.cfi_def_cfa_register %rbp
	subq	$32, %rsp
	movl	$2011559167, -16(%rbp)  # imm = 0x77E5F4FF
	movl	%edi, -20(%rbp)
	movl	%esi, -24(%rbp)
	movl	%edx, -12(%rbp)
	movl	$1, %edi
	callq	srand
	movl	-20(%rbp), %eax
	imull	-24(%rbp), %eax
	movl	%eax, NumberOfMBs
	movl	-12(%rbp), %eax
	movl	%eax, NumberIntraPerPicture
	movslq	NumberOfMBs, %rdi
	shlq	$2, %rdi
	callq	malloc
	movq	%rax, RefreshPattern
	cmpq	$0, RefreshPattern
	jne	.LBB6_2
# %bb.1:                                # %if.then
	movabsq	$.L.str, %rdi
	callq	no_mem_exit
.LBB6_2:                                # %if.end
	movslq	-12(%rbp), %rdi
	shlq	$2, %rdi
	callq	malloc
	movq	%rax, IntraMBs
	cmpq	$0, IntraMBs
	jne	.LBB6_4
# %bb.3:                                # %if.then8
	movabsq	$.L.str.1, %rdi
	callq	no_mem_exit
.LBB6_4:                                # %if.end9
	movl	$0, -4(%rbp)
.LBB6_5:                                # %for.cond
                                        # =>This Inner Loop Header: Depth=1
	movl	-4(%rbp), %eax
	cmpl	NumberOfMBs, %eax
	jge	.LBB6_8
# %bb.6:                                # %for.body
                                        #   in Loop: Header=BB6_5 Depth=1
	movq	RefreshPattern, %rax
	movslq	-4(%rbp), %rcx
	movl	$-1, (%rax,%rcx,4)
# %bb.7:                                # %for.inc
                                        #   in Loop: Header=BB6_5 Depth=1
	movl	-4(%rbp), %eax
	addl	$1, %eax
	movl	%eax, -4(%rbp)
	jmp	.LBB6_5
.LBB6_8:                                # %for.end
	movl	$0, -4(%rbp)
.LBB6_9:                                # %for.cond12
                                        # =>This Loop Header: Depth=1
                                        #     Child Loop BB6_11 Depth 2
	movl	-4(%rbp), %eax
	cmpl	NumberOfMBs, %eax
	jge	.LBB6_15
# %bb.10:                               # %for.body15
                                        #   in Loop: Header=BB6_9 Depth=1
	jmp	.LBB6_11
.LBB6_11:                               # %do.body
                                        #   Parent Loop BB6_9 Depth=1
                                        # =>  This Inner Loop Header: Depth=2
	callq	rand
	cltd
	idivl	NumberOfMBs
	movl	%edx, -8(%rbp)
# %bb.12:                               # %do.cond
                                        #   in Loop: Header=BB6_11 Depth=2
	movq	RefreshPattern, %rax
	movslq	-8(%rbp), %rcx
	cmpl	$-1, (%rax,%rcx,4)
	jne	.LBB6_11
# %bb.13:                               # %do.end
                                        #   in Loop: Header=BB6_9 Depth=1
	movl	-4(%rbp), %eax
	movq	RefreshPattern, %rcx
	movslq	-8(%rbp), %rdx
	movl	%eax, (%rcx,%rdx,4)
# %bb.14:                               # %for.inc23
                                        #   in Loop: Header=BB6_9 Depth=1
	movl	-4(%rbp), %eax
	addl	$1, %eax
	movl	%eax, -4(%rbp)
	jmp	.LBB6_9
.LBB6_15:                               # %for.end25
	cmpl	$2011559167, -16(%rbp)  # imm = 0x77E5F4FF
	jne	.LBB6_17
.LBB6_16:
	addq	$32, %rsp
	popq	%rbp
	.cfi_def_cfa %rsp, 8
	retq
.LBB6_17:                               # %func_exit
	.cfi_def_cfa %rbp, 16
	callq	detect_breach
	jmp	.LBB6_16
.Lfunc_end6:
	.size	RandomIntraInit.3, .Lfunc_end6-RandomIntraInit.3
	.cfi_endproc
                                        # -- End function
	.globl	RandomIntraInit.4       # -- Begin function RandomIntraInit.4
	.p2align	4, 0x90
	.type	RandomIntraInit.4,@function
RandomIntraInit.4:                      # @RandomIntraInit.4
	.cfi_startproc
# %bb.0:                                # %entry
	pushq	%rbp
	.cfi_def_cfa_offset 16
	.cfi_offset %rbp, -16
	movq	%rsp, %rbp
	.cfi_def_cfa_register %rbp
	subq	$32, %rsp
	movl	$204471587, -24(%rbp)   # imm = 0xC2FFD23
	movl	%edi, -20(%rbp)
	movl	%esi, -16(%rbp)
	movl	%edx, -12(%rbp)
	movl	$1, %edi
	callq	srand
	movl	-20(%rbp), %eax
	imull	-16(%rbp), %eax
	movl	%eax, NumberOfMBs
	movl	-12(%rbp), %eax
	movl	%eax, NumberIntraPerPicture
	movslq	NumberOfMBs, %rdi
	shlq	$2, %rdi
	callq	malloc
	movq	%rax, RefreshPattern
	cmpq	$0, RefreshPattern
	jne	.LBB7_2
# %bb.1:                                # %if.then
	movabsq	$.L.str, %rdi
	callq	no_mem_exit
.LBB7_2:                                # %if.end
	movslq	-12(%rbp), %rdi
	shlq	$2, %rdi
	callq	malloc
	movq	%rax, IntraMBs
	cmpq	$0, IntraMBs
	jne	.LBB7_4
# %bb.3:                                # %if.then8
	movabsq	$.L.str.1, %rdi
	callq	no_mem_exit
.LBB7_4:                                # %if.end9
	movl	$0, -4(%rbp)
.LBB7_5:                                # %for.cond
                                        # =>This Inner Loop Header: Depth=1
	movl	-4(%rbp), %eax
	cmpl	NumberOfMBs, %eax
	jge	.LBB7_8
# %bb.6:                                # %for.body
                                        #   in Loop: Header=BB7_5 Depth=1
	movq	RefreshPattern, %rax
	movslq	-4(%rbp), %rcx
	movl	$-1, (%rax,%rcx,4)
# %bb.7:                                # %for.inc
                                        #   in Loop: Header=BB7_5 Depth=1
	movl	-4(%rbp), %eax
	addl	$1, %eax
	movl	%eax, -4(%rbp)
	jmp	.LBB7_5
.LBB7_8:                                # %for.end
	movl	$0, -4(%rbp)
.LBB7_9:                                # %for.cond12
                                        # =>This Loop Header: Depth=1
                                        #     Child Loop BB7_11 Depth 2
	movl	-4(%rbp), %eax
	cmpl	NumberOfMBs, %eax
	jge	.LBB7_15
# %bb.10:                               # %for.body15
                                        #   in Loop: Header=BB7_9 Depth=1
	jmp	.LBB7_11
.LBB7_11:                               # %do.body
                                        #   Parent Loop BB7_9 Depth=1
                                        # =>  This Inner Loop Header: Depth=2
	callq	rand
	cltd
	idivl	NumberOfMBs
	movl	%edx, -8(%rbp)
# %bb.12:                               # %do.cond
                                        #   in Loop: Header=BB7_11 Depth=2
	movq	RefreshPattern, %rax
	movslq	-8(%rbp), %rcx
	cmpl	$-1, (%rax,%rcx,4)
	jne	.LBB7_11
# %bb.13:                               # %do.end
                                        #   in Loop: Header=BB7_9 Depth=1
	movl	-4(%rbp), %eax
	movq	RefreshPattern, %rcx
	movslq	-8(%rbp), %rdx
	movl	%eax, (%rcx,%rdx,4)
# %bb.14:                               # %for.inc23
                                        #   in Loop: Header=BB7_9 Depth=1
	movl	-4(%rbp), %eax
	addl	$1, %eax
	movl	%eax, -4(%rbp)
	jmp	.LBB7_9
.LBB7_15:                               # %for.end25
	cmpl	$204471587, -24(%rbp)   # imm = 0xC2FFD23
	jne	.LBB7_17
.LBB7_16:
	addq	$32, %rsp
	popq	%rbp
	.cfi_def_cfa %rsp, 8
	retq
.LBB7_17:                               # %func_exit
	.cfi_def_cfa %rbp, 16
	callq	detect_breach
	jmp	.LBB7_16
.Lfunc_end7:
	.size	RandomIntraInit.4, .Lfunc_end7-RandomIntraInit.4
	.cfi_endproc
                                        # -- End function
	.globl	RandomIntraInit.5       # -- Begin function RandomIntraInit.5
	.p2align	4, 0x90
	.type	RandomIntraInit.5,@function
RandomIntraInit.5:                      # @RandomIntraInit.5
	.cfi_startproc
# %bb.0:                                # %entry
	pushq	%rbp
	.cfi_def_cfa_offset 16
	.cfi_offset %rbp, -16
	movq	%rsp, %rbp
	.cfi_def_cfa_register %rbp
	subq	$32, %rsp
	movl	$1677197036, -20(%rbp)  # imm = 0x63F7FEEC
	movl	%edi, -16(%rbp)
	movl	%esi, -24(%rbp)
	movl	%edx, -8(%rbp)
	movl	$1, %edi
	callq	srand
	movl	-16(%rbp), %eax
	imull	-24(%rbp), %eax
	movl	%eax, NumberOfMBs
	movl	-8(%rbp), %eax
	movl	%eax, NumberIntraPerPicture
	movslq	NumberOfMBs, %rdi
	shlq	$2, %rdi
	callq	malloc
	movq	%rax, RefreshPattern
	cmpq	$0, RefreshPattern
	jne	.LBB8_2
# %bb.1:                                # %if.then
	movabsq	$.L.str, %rdi
	callq	no_mem_exit
.LBB8_2:                                # %if.end
	movslq	-8(%rbp), %rdi
	shlq	$2, %rdi
	callq	malloc
	movq	%rax, IntraMBs
	cmpq	$0, IntraMBs
	jne	.LBB8_4
# %bb.3:                                # %if.then8
	movabsq	$.L.str.1, %rdi
	callq	no_mem_exit
.LBB8_4:                                # %if.end9
	movl	$0, -4(%rbp)
.LBB8_5:                                # %for.cond
                                        # =>This Inner Loop Header: Depth=1
	movl	-4(%rbp), %eax
	cmpl	NumberOfMBs, %eax
	jge	.LBB8_8
# %bb.6:                                # %for.body
                                        #   in Loop: Header=BB8_5 Depth=1
	movq	RefreshPattern, %rax
	movslq	-4(%rbp), %rcx
	movl	$-1, (%rax,%rcx,4)
# %bb.7:                                # %for.inc
                                        #   in Loop: Header=BB8_5 Depth=1
	movl	-4(%rbp), %eax
	addl	$1, %eax
	movl	%eax, -4(%rbp)
	jmp	.LBB8_5
.LBB8_8:                                # %for.end
	movl	$0, -4(%rbp)
.LBB8_9:                                # %for.cond12
                                        # =>This Loop Header: Depth=1
                                        #     Child Loop BB8_11 Depth 2
	movl	-4(%rbp), %eax
	cmpl	NumberOfMBs, %eax
	jge	.LBB8_15
# %bb.10:                               # %for.body15
                                        #   in Loop: Header=BB8_9 Depth=1
	jmp	.LBB8_11
.LBB8_11:                               # %do.body
                                        #   Parent Loop BB8_9 Depth=1
                                        # =>  This Inner Loop Header: Depth=2
	callq	rand
	cltd
	idivl	NumberOfMBs
	movl	%edx, -12(%rbp)
# %bb.12:                               # %do.cond
                                        #   in Loop: Header=BB8_11 Depth=2
	movq	RefreshPattern, %rax
	movslq	-12(%rbp), %rcx
	cmpl	$-1, (%rax,%rcx,4)
	jne	.LBB8_11
# %bb.13:                               # %do.end
                                        #   in Loop: Header=BB8_9 Depth=1
	movl	-4(%rbp), %eax
	movq	RefreshPattern, %rcx
	movslq	-12(%rbp), %rdx
	movl	%eax, (%rcx,%rdx,4)
# %bb.14:                               # %for.inc23
                                        #   in Loop: Header=BB8_9 Depth=1
	movl	-4(%rbp), %eax
	addl	$1, %eax
	movl	%eax, -4(%rbp)
	jmp	.LBB8_9
.LBB8_15:                               # %for.end25
	cmpl	$1677197036, -20(%rbp)  # imm = 0x63F7FEEC
	jne	.LBB8_17
.LBB8_16:
	addq	$32, %rsp
	popq	%rbp
	.cfi_def_cfa %rsp, 8
	retq
.LBB8_17:                               # %func_exit
	.cfi_def_cfa %rbp, 16
	callq	detect_breach
	jmp	.LBB8_16
.Lfunc_end8:
	.size	RandomIntraInit.5, .Lfunc_end8-RandomIntraInit.5
	.cfi_endproc
                                        # -- End function
	.globl	RandomIntraInit.6       # -- Begin function RandomIntraInit.6
	.p2align	4, 0x90
	.type	RandomIntraInit.6,@function
RandomIntraInit.6:                      # @RandomIntraInit.6
	.cfi_startproc
# %bb.0:                                # %entry
	pushq	%rbp
	.cfi_def_cfa_offset 16
	.cfi_offset %rbp, -16
	movq	%rsp, %rbp
	.cfi_def_cfa_register %rbp
	subq	$32, %rsp
	movl	$112220596, -24(%rbp)   # imm = 0x6B059B4
	movl	%edi, -16(%rbp)
	movl	%esi, -20(%rbp)
	movl	%edx, -12(%rbp)
	movl	$1, %edi
	callq	srand
	movl	-16(%rbp), %eax
	imull	-20(%rbp), %eax
	movl	%eax, NumberOfMBs
	movl	-12(%rbp), %eax
	movl	%eax, NumberIntraPerPicture
	movslq	NumberOfMBs, %rdi
	shlq	$2, %rdi
	callq	malloc
	movq	%rax, RefreshPattern
	cmpq	$0, RefreshPattern
	jne	.LBB9_2
# %bb.1:                                # %if.then
	movabsq	$.L.str, %rdi
	callq	no_mem_exit
.LBB9_2:                                # %if.end
	movslq	-12(%rbp), %rdi
	shlq	$2, %rdi
	callq	malloc
	movq	%rax, IntraMBs
	cmpq	$0, IntraMBs
	jne	.LBB9_4
# %bb.3:                                # %if.then8
	movabsq	$.L.str.1, %rdi
	callq	no_mem_exit
.LBB9_4:                                # %if.end9
	movl	$0, -4(%rbp)
.LBB9_5:                                # %for.cond
                                        # =>This Inner Loop Header: Depth=1
	movl	-4(%rbp), %eax
	cmpl	NumberOfMBs, %eax
	jge	.LBB9_8
# %bb.6:                                # %for.body
                                        #   in Loop: Header=BB9_5 Depth=1
	movq	RefreshPattern, %rax
	movslq	-4(%rbp), %rcx
	movl	$-1, (%rax,%rcx,4)
# %bb.7:                                # %for.inc
                                        #   in Loop: Header=BB9_5 Depth=1
	movl	-4(%rbp), %eax
	addl	$1, %eax
	movl	%eax, -4(%rbp)
	jmp	.LBB9_5
.LBB9_8:                                # %for.end
	movl	$0, -4(%rbp)
.LBB9_9:                                # %for.cond12
                                        # =>This Loop Header: Depth=1
                                        #     Child Loop BB9_11 Depth 2
	movl	-4(%rbp), %eax
	cmpl	NumberOfMBs, %eax
	jge	.LBB9_15
# %bb.10:                               # %for.body15
                                        #   in Loop: Header=BB9_9 Depth=1
	jmp	.LBB9_11
.LBB9_11:                               # %do.body
                                        #   Parent Loop BB9_9 Depth=1
                                        # =>  This Inner Loop Header: Depth=2
	callq	rand
	cltd
	idivl	NumberOfMBs
	movl	%edx, -8(%rbp)
# %bb.12:                               # %do.cond
                                        #   in Loop: Header=BB9_11 Depth=2
	movq	RefreshPattern, %rax
	movslq	-8(%rbp), %rcx
	cmpl	$-1, (%rax,%rcx,4)
	jne	.LBB9_11
# %bb.13:                               # %do.end
                                        #   in Loop: Header=BB9_9 Depth=1
	movl	-4(%rbp), %eax
	movq	RefreshPattern, %rcx
	movslq	-8(%rbp), %rdx
	movl	%eax, (%rcx,%rdx,4)
# %bb.14:                               # %for.inc23
                                        #   in Loop: Header=BB9_9 Depth=1
	movl	-4(%rbp), %eax
	addl	$1, %eax
	movl	%eax, -4(%rbp)
	jmp	.LBB9_9
.LBB9_15:                               # %for.end25
	cmpl	$112220596, -24(%rbp)   # imm = 0x6B059B4
	jne	.LBB9_17
.LBB9_16:
	addq	$32, %rsp
	popq	%rbp
	.cfi_def_cfa %rsp, 8
	retq
.LBB9_17:                               # %func_exit
	.cfi_def_cfa %rbp, 16
	callq	detect_breach
	jmp	.LBB9_16
.Lfunc_end9:
	.size	RandomIntraInit.6, .Lfunc_end9-RandomIntraInit.6
	.cfi_endproc
                                        # -- End function
	.globl	RandomIntra.7           # -- Begin function RandomIntra.7
	.p2align	4, 0x90
	.type	RandomIntra.7,@function
RandomIntra.7:                          # @RandomIntra.7
	.cfi_startproc
# %bb.0:                                # %entry
	pushq	%rbp
	.cfi_def_cfa_offset 16
	.cfi_offset %rbp, -16
	movq	%rsp, %rbp
	.cfi_def_cfa_register %rbp
	pushq	%rbx
	subq	$24, %rsp
	.cfi_offset %rbx, -24
	movl	$385273081, -20(%rbp)   # imm = 0x16F6CCF9
	movl	%edi, -24(%rbp)
	movl	$0, -12(%rbp)
.LBB10_1:                               # %for.cond
                                        # =>This Inner Loop Header: Depth=1
	movl	-12(%rbp), %eax
	cmpl	NumberIntraPerPicture, %eax
	jge	.LBB10_6
# %bb.2:                                # %for.body
                                        #   in Loop: Header=BB10_1 Depth=1
	movq	IntraMBs, %rax
	movslq	-12(%rbp), %rcx
	movl	(%rax,%rcx,4), %eax
	cmpl	-24(%rbp), %eax
	jne	.LBB10_4
# %bb.3:                                # %if.then
	movl	$1, -16(%rbp)
	jmp	.LBB10_7
.LBB10_4:                               # %if.end
                                        #   in Loop: Header=BB10_1 Depth=1
	jmp	.LBB10_5
.LBB10_5:                               # %for.inc
                                        #   in Loop: Header=BB10_1 Depth=1
	movl	-12(%rbp), %eax
	addl	$1, %eax
	movl	%eax, -12(%rbp)
	jmp	.LBB10_1
.LBB10_6:                               # %for.end
	movl	$0, -16(%rbp)
.LBB10_7:                               # %return
	movl	-16(%rbp), %ebx
	cmpl	$385273081, -20(%rbp)   # imm = 0x16F6CCF9
	jne	.LBB10_9
.LBB10_8:
	movl	%ebx, %eax
	addq	$24, %rsp
	popq	%rbx
	popq	%rbp
	.cfi_def_cfa %rsp, 8
	retq
.LBB10_9:                               # %func_exit
	.cfi_def_cfa %rbp, 16
	callq	detect_breach
	jmp	.LBB10_8
.Lfunc_end10:
	.size	RandomIntra.7, .Lfunc_end10-RandomIntra.7
	.cfi_endproc
                                        # -- End function
	.globl	RandomIntra.8           # -- Begin function RandomIntra.8
	.p2align	4, 0x90
	.type	RandomIntra.8,@function
RandomIntra.8:                          # @RandomIntra.8
	.cfi_startproc
# %bb.0:                                # %entry
	pushq	%rbp
	.cfi_def_cfa_offset 16
	.cfi_offset %rbp, -16
	movq	%rsp, %rbp
	.cfi_def_cfa_register %rbp
	pushq	%rbx
	subq	$24, %rsp
	.cfi_offset %rbx, -24
	movl	$190954582, -24(%rbp)   # imm = 0xB61BC56
	movl	%edi, -20(%rbp)
	movl	$0, -12(%rbp)
.LBB11_1:                               # %for.cond
                                        # =>This Inner Loop Header: Depth=1
	movl	-12(%rbp), %eax
	cmpl	NumberIntraPerPicture, %eax
	jge	.LBB11_6
# %bb.2:                                # %for.body
                                        #   in Loop: Header=BB11_1 Depth=1
	movq	IntraMBs, %rax
	movslq	-12(%rbp), %rcx
	movl	(%rax,%rcx,4), %eax
	cmpl	-20(%rbp), %eax
	jne	.LBB11_4
# %bb.3:                                # %if.then
	movl	$1, -16(%rbp)
	jmp	.LBB11_7
.LBB11_4:                               # %if.end
                                        #   in Loop: Header=BB11_1 Depth=1
	jmp	.LBB11_5
.LBB11_5:                               # %for.inc
                                        #   in Loop: Header=BB11_1 Depth=1
	movl	-12(%rbp), %eax
	addl	$1, %eax
	movl	%eax, -12(%rbp)
	jmp	.LBB11_1
.LBB11_6:                               # %for.end
	movl	$0, -16(%rbp)
.LBB11_7:                               # %return
	movl	-16(%rbp), %ebx
	cmpl	$190954582, -24(%rbp)   # imm = 0xB61BC56
	jne	.LBB11_9
.LBB11_8:
	movl	%ebx, %eax
	addq	$24, %rsp
	popq	%rbx
	popq	%rbp
	.cfi_def_cfa %rsp, 8
	retq
.LBB11_9:                               # %func_exit
	.cfi_def_cfa %rbp, 16
	callq	detect_breach
	jmp	.LBB11_8
.Lfunc_end11:
	.size	RandomIntra.8, .Lfunc_end11-RandomIntra.8
	.cfi_endproc
                                        # -- End function
	.globl	RandomIntra.9           # -- Begin function RandomIntra.9
	.p2align	4, 0x90
	.type	RandomIntra.9,@function
RandomIntra.9:                          # @RandomIntra.9
	.cfi_startproc
# %bb.0:                                # %entry
	pushq	%rbp
	.cfi_def_cfa_offset 16
	.cfi_offset %rbp, -16
	movq	%rsp, %rbp
	.cfi_def_cfa_register %rbp
	pushq	%rbx
	subq	$24, %rsp
	.cfi_offset %rbx, -24
	movl	$1056932502, -24(%rbp)  # imm = 0x3EFF8296
	movl	%edi, -20(%rbp)
	movl	$0, -12(%rbp)
.LBB12_1:                               # %for.cond
                                        # =>This Inner Loop Header: Depth=1
	movl	-12(%rbp), %eax
	cmpl	NumberIntraPerPicture, %eax
	jge	.LBB12_6
# %bb.2:                                # %for.body
                                        #   in Loop: Header=BB12_1 Depth=1
	movq	IntraMBs, %rax
	movslq	-12(%rbp), %rcx
	movl	(%rax,%rcx,4), %eax
	cmpl	-20(%rbp), %eax
	jne	.LBB12_4
# %bb.3:                                # %if.then
	movl	$1, -16(%rbp)
	jmp	.LBB12_7
.LBB12_4:                               # %if.end
                                        #   in Loop: Header=BB12_1 Depth=1
	jmp	.LBB12_5
.LBB12_5:                               # %for.inc
                                        #   in Loop: Header=BB12_1 Depth=1
	movl	-12(%rbp), %eax
	addl	$1, %eax
	movl	%eax, -12(%rbp)
	jmp	.LBB12_1
.LBB12_6:                               # %for.end
	movl	$0, -16(%rbp)
.LBB12_7:                               # %return
	movl	-16(%rbp), %ebx
	cmpl	$1056932502, -24(%rbp)  # imm = 0x3EFF8296
	jne	.LBB12_9
.LBB12_8:
	movl	%ebx, %eax
	addq	$24, %rsp
	popq	%rbx
	popq	%rbp
	.cfi_def_cfa %rsp, 8
	retq
.LBB12_9:                               # %func_exit
	.cfi_def_cfa %rbp, 16
	callq	detect_breach
	jmp	.LBB12_8
.Lfunc_end12:
	.size	RandomIntra.9, .Lfunc_end12-RandomIntra.9
	.cfi_endproc
                                        # -- End function
	.globl	RandomIntra.10          # -- Begin function RandomIntra.10
	.p2align	4, 0x90
	.type	RandomIntra.10,@function
RandomIntra.10:                         # @RandomIntra.10
	.cfi_startproc
# %bb.0:                                # %entry
	pushq	%rbp
	.cfi_def_cfa_offset 16
	.cfi_offset %rbp, -16
	movq	%rsp, %rbp
	.cfi_def_cfa_register %rbp
	pushq	%rbx
	subq	$24, %rsp
	.cfi_offset %rbx, -24
	movl	$274551720, -24(%rbp)   # imm = 0x105D53A8
	movl	%edi, -20(%rbp)
	movl	$0, -12(%rbp)
.LBB13_1:                               # %for.cond
                                        # =>This Inner Loop Header: Depth=1
	movl	-12(%rbp), %eax
	cmpl	NumberIntraPerPicture, %eax
	jge	.LBB13_6
# %bb.2:                                # %for.body
                                        #   in Loop: Header=BB13_1 Depth=1
	movq	IntraMBs, %rax
	movslq	-12(%rbp), %rcx
	movl	(%rax,%rcx,4), %eax
	cmpl	-20(%rbp), %eax
	jne	.LBB13_4
# %bb.3:                                # %if.then
	movl	$1, -16(%rbp)
	jmp	.LBB13_7
.LBB13_4:                               # %if.end
                                        #   in Loop: Header=BB13_1 Depth=1
	jmp	.LBB13_5
.LBB13_5:                               # %for.inc
                                        #   in Loop: Header=BB13_1 Depth=1
	movl	-12(%rbp), %eax
	addl	$1, %eax
	movl	%eax, -12(%rbp)
	jmp	.LBB13_1
.LBB13_6:                               # %for.end
	movl	$0, -16(%rbp)
.LBB13_7:                               # %return
	movl	-16(%rbp), %ebx
	cmpl	$274551720, -24(%rbp)   # imm = 0x105D53A8
	jne	.LBB13_9
.LBB13_8:
	movl	%ebx, %eax
	addq	$24, %rsp
	popq	%rbx
	popq	%rbp
	.cfi_def_cfa %rsp, 8
	retq
.LBB13_9:                               # %func_exit
	.cfi_def_cfa %rbp, 16
	callq	detect_breach
	jmp	.LBB13_8
.Lfunc_end13:
	.size	RandomIntra.10, .Lfunc_end13-RandomIntra.10
	.cfi_endproc
                                        # -- End function
	.type	NumberOfMBs,@object     # @NumberOfMBs
	.local	NumberOfMBs
	.comm	NumberOfMBs,4,4
	.type	NumberIntraPerPicture,@object # @NumberIntraPerPicture
	.local	NumberIntraPerPicture
	.comm	NumberIntraPerPicture,4,4
	.type	RefreshPattern,@object  # @RefreshPattern
	.local	RefreshPattern
	.comm	RefreshPattern,8,8
	.type	.L.str,@object          # @.str
	.section	.rodata.str1.1,"aMS",@progbits,1
.L.str:
	.asciz	"RandomIntraInit: RefreshPattern"
	.size	.L.str, 32

	.type	IntraMBs,@object        # @IntraMBs
	.local	IntraMBs
	.comm	IntraMBs,8,8
	.type	.L.str.1,@object        # @.str.1
.L.str.1:
	.asciz	"RandomIntraInit: IntraMBs"
	.size	.L.str.1, 26

	.type	WalkAround,@object      # @WalkAround
	.local	WalkAround
	.comm	WalkAround,4,4
	.type	top_pic,@object         # @top_pic
	.comm	top_pic,8,8
	.type	bottom_pic,@object      # @bottom_pic
	.comm	bottom_pic,8,8
	.type	frame_pic,@object       # @frame_pic
	.comm	frame_pic,8,8
	.type	frame_pic2,@object      # @frame_pic2
	.comm	frame_pic2,8,8
	.type	frame_pic3,@object      # @frame_pic3
	.comm	frame_pic3,8,8
	.type	imgY_org,@object        # @imgY_org
	.comm	imgY_org,8,8
	.type	imgUV_org,@object       # @imgUV_org
	.comm	imgUV_org,8,8
	.type	img4Y_tmp,@object       # @img4Y_tmp
	.comm	img4Y_tmp,8,8
	.type	log2_max_frame_num_minus4,@object # @log2_max_frame_num_minus4
	.comm	log2_max_frame_num_minus4,4,4
	.type	log2_max_pic_order_cnt_lsb_minus4,@object # @log2_max_pic_order_cnt_lsb_minus4
	.comm	log2_max_pic_order_cnt_lsb_minus4,4,4
	.type	me_tot_time,@object     # @me_tot_time
	.comm	me_tot_time,4,4
	.type	me_time,@object         # @me_time
	.comm	me_time,4,4
	.type	active_pps,@object      # @active_pps
	.comm	active_pps,8,8
	.type	active_sps,@object      # @active_sps
	.comm	active_sps,8,8
	.type	mb_adaptive,@object     # @mb_adaptive
	.comm	mb_adaptive,4,4
	.type	MBPairIsField,@object   # @MBPairIsField
	.comm	MBPairIsField,4,4
	.type	wp_weight,@object       # @wp_weight
	.comm	wp_weight,8,8
	.type	wp_offset,@object       # @wp_offset
	.comm	wp_offset,8,8
	.type	wbp_weight,@object      # @wbp_weight
	.comm	wbp_weight,8,8
	.type	luma_log_weight_denom,@object # @luma_log_weight_denom
	.comm	luma_log_weight_denom,4,4
	.type	chroma_log_weight_denom,@object # @chroma_log_weight_denom
	.comm	chroma_log_weight_denom,4,4
	.type	wp_luma_round,@object   # @wp_luma_round
	.comm	wp_luma_round,4,4
	.type	wp_chroma_round,@object # @wp_chroma_round
	.comm	wp_chroma_round,4,4
	.type	imgY_org_top,@object    # @imgY_org_top
	.comm	imgY_org_top,8,8
	.type	imgY_org_bot,@object    # @imgY_org_bot
	.comm	imgY_org_bot,8,8
	.type	imgUV_org_top,@object   # @imgUV_org_top
	.comm	imgUV_org_top,8,8
	.type	imgUV_org_bot,@object   # @imgUV_org_bot
	.comm	imgUV_org_bot,8,8
	.type	imgY_org_frm,@object    # @imgY_org_frm
	.comm	imgY_org_frm,8,8
	.type	imgUV_org_frm,@object   # @imgUV_org_frm
	.comm	imgUV_org_frm,8,8
	.type	imgY_com,@object        # @imgY_com
	.comm	imgY_com,8,8
	.type	imgUV_com,@object       # @imgUV_com
	.comm	imgUV_com,8,8
	.type	direct_ref_idx,@object  # @direct_ref_idx
	.comm	direct_ref_idx,8,8
	.type	direct_pdir,@object     # @direct_pdir
	.comm	direct_pdir,8,8
	.type	pixel_map,@object       # @pixel_map
	.comm	pixel_map,8,8
	.type	refresh_map,@object     # @refresh_map
	.comm	refresh_map,8,8
	.type	intras,@object          # @intras
	.comm	intras,4,4
	.type	Iframe_ctr,@object      # @Iframe_ctr
	.comm	Iframe_ctr,4,4
	.type	Pframe_ctr,@object      # @Pframe_ctr
	.comm	Pframe_ctr,4,4
	.type	Bframe_ctr,@object      # @Bframe_ctr
	.comm	Bframe_ctr,4,4
	.type	frame_no,@object        # @frame_no
	.comm	frame_no,4,4
	.type	nextP_tr_fld,@object    # @nextP_tr_fld
	.comm	nextP_tr_fld,4,4
	.type	nextP_tr_frm,@object    # @nextP_tr_frm
	.comm	nextP_tr_frm,4,4
	.type	tot_time,@object        # @tot_time
	.comm	tot_time,4,4
	.type	errortext,@object       # @errortext
	.comm	errortext,300,16
	.type	resTrans_R,@object      # @resTrans_R
	.comm	resTrans_R,1024,16
	.type	resTrans_G,@object      # @resTrans_G
	.comm	resTrans_G,1024,16
	.type	resTrans_B,@object      # @resTrans_B
	.comm	resTrans_B,1024,16
	.type	rec_resR,@object        # @rec_resR
	.comm	rec_resR,1024,16
	.type	rec_resG,@object        # @rec_resG
	.comm	rec_resG,1024,16
	.type	rec_resB,@object        # @rec_resB
	.comm	rec_resB,1024,16
	.type	mprRGB,@object          # @mprRGB
	.comm	mprRGB,3072,16
	.type	dc_level,@object        # @dc_level
	.comm	dc_level,128,16
	.type	dc_level_temp,@object   # @dc_level_temp
	.comm	dc_level_temp,128,16
	.type	cbp_chroma_block,@object # @cbp_chroma_block
	.comm	cbp_chroma_block,128,16
	.type	cbp_chroma_block_temp,@object # @cbp_chroma_block_temp
	.comm	cbp_chroma_block_temp,128,16
	.type	b8_ipredmode8x8,@object # @b8_ipredmode8x8
	.comm	b8_ipredmode8x8,64,16
	.type	b8_intra_pred_modes8x8,@object # @b8_intra_pred_modes8x8
	.comm	b8_intra_pred_modes8x8,64,16
	.type	gop_structure,@object   # @gop_structure
	.comm	gop_structure,8,8
	.type	rdopt,@object           # @rdopt
	.comm	rdopt,8,8
	.type	rddata_top_frame_mb,@object # @rddata_top_frame_mb
	.comm	rddata_top_frame_mb,3360,8
	.type	rddata_bot_frame_mb,@object # @rddata_bot_frame_mb
	.comm	rddata_bot_frame_mb,3360,8
	.type	rddata_top_field_mb,@object # @rddata_top_field_mb
	.comm	rddata_top_field_mb,3360,8
	.type	rddata_bot_field_mb,@object # @rddata_bot_field_mb
	.comm	rddata_bot_field_mb,3360,8
	.type	p_stat,@object          # @p_stat
	.comm	p_stat,8,8
	.type	p_log,@object           # @p_log
	.comm	p_log,8,8
	.type	p_trace,@object         # @p_trace
	.comm	p_trace,8,8
	.type	p_in,@object            # @p_in
	.comm	p_in,4,4
	.type	p_dec,@object           # @p_dec
	.comm	p_dec,4,4
	.type	glob_remapping_of_pic_nums_idc_l0,@object # @glob_remapping_of_pic_nums_idc_l0
	.comm	glob_remapping_of_pic_nums_idc_l0,80,16
	.type	glob_abs_diff_pic_num_minus1_l0,@object # @glob_abs_diff_pic_num_minus1_l0
	.comm	glob_abs_diff_pic_num_minus1_l0,80,16
	.type	glob_long_term_pic_idx_l0,@object # @glob_long_term_pic_idx_l0
	.comm	glob_long_term_pic_idx_l0,80,16
	.type	glob_remapping_of_pic_nums_idc_l1,@object # @glob_remapping_of_pic_nums_idc_l1
	.comm	glob_remapping_of_pic_nums_idc_l1,80,16
	.type	glob_abs_diff_pic_num_minus1_l1,@object # @glob_abs_diff_pic_num_minus1_l1
	.comm	glob_abs_diff_pic_num_minus1_l1,80,16
	.type	glob_long_term_pic_idx_l1,@object # @glob_long_term_pic_idx_l1
	.comm	glob_long_term_pic_idx_l1,80,16
	.type	Bytes_After_Header,@object # @Bytes_After_Header
	.comm	Bytes_After_Header,4,4
	.type	rpc_bytes_to_go,@object # @rpc_bytes_to_go
	.comm	rpc_bytes_to_go,4,4
	.type	rpc_bits_to_go,@object  # @rpc_bits_to_go
	.comm	rpc_bits_to_go,4,4

	.ident	"clang version 9.0.1 (git@github.com:llvm/llvm-project.git 9b2d207cf4b43cfc1a2b6940b3c06e50a1bd127f)"
	.section	".note.GNU-stack","",@progbits
