	.text
	.file	"leaky_bucket.c"
	.globl	get_LeakyBucketRate     # -- Begin function get_LeakyBucketRate
	.p2align	4, 0x90
	.type	get_LeakyBucketRate,@function
get_LeakyBucketRate:                    # @get_LeakyBucketRate
	.cfi_startproc
# %bb.0:                                # %rand_bb
	pushq	%rbp
	.cfi_def_cfa_offset 16
	.cfi_offset %rbp, -16
	movq	%rsp, %rbp
	.cfi_def_cfa_register %rbp
	pushq	%r14
	pushq	%rbx
	.cfi_offset %rbx, -32
	.cfi_offset %r14, -24
	movq	%rsi, %r14
	movq	%rdi, %rbx
	callq	get_rand
	cmpl	$0, %eax
	jne	.LBB0_17
# %bb.1:                                # %func_get_LeakyBucketRate.5
	movq	%rbx, %rdi
	movq	%r14, %rsi
	callq	get_LeakyBucketRate.5
	popq	%rbx
	popq	%r14
	popq	%rbp
	.cfi_def_cfa %rsp, 8
	retq
.LBB0_2:                                # %func_get_LeakyBucketRate.20
	.cfi_def_cfa %rbp, 16
	movq	%rbx, %rdi
	movq	%r14, %rsi
	callq	get_LeakyBucketRate.20
	popq	%rbx
	popq	%r14
	popq	%rbp
	.cfi_def_cfa %rsp, 8
	retq
.LBB0_3:                                # %func_get_LeakyBucketRate.25
	.cfi_def_cfa %rbp, 16
	movq	%rbx, %rdi
	movq	%r14, %rsi
	callq	get_LeakyBucketRate.25
	popq	%rbx
	popq	%r14
	popq	%rbp
	.cfi_def_cfa %rsp, 8
	retq
.LBB0_4:                                # %func_get_LeakyBucketRate.27
	.cfi_def_cfa %rbp, 16
	movq	%rbx, %rdi
	movq	%r14, %rsi
	callq	get_LeakyBucketRate.27
	popq	%rbx
	popq	%r14
	popq	%rbp
	.cfi_def_cfa %rsp, 8
	retq
.LBB0_5:                                # %func_get_LeakyBucketRate.34
	.cfi_def_cfa %rbp, 16
	movq	%rbx, %rdi
	movq	%r14, %rsi
	callq	get_LeakyBucketRate.34
	popq	%rbx
	popq	%r14
	popq	%rbp
	.cfi_def_cfa %rsp, 8
	retq
.LBB0_6:                                # %func_get_LeakyBucketRate.39
	.cfi_def_cfa %rbp, 16
	movq	%rbx, %rdi
	movq	%r14, %rsi
	callq	get_LeakyBucketRate.39
	popq	%rbx
	popq	%r14
	popq	%rbp
	.cfi_def_cfa %rsp, 8
	retq
.LBB0_7:                                # %func_get_LeakyBucketRate.45
	.cfi_def_cfa %rbp, 16
	movq	%rbx, %rdi
	movq	%r14, %rsi
	callq	get_LeakyBucketRate.45
	popq	%rbx
	popq	%r14
	popq	%rbp
	.cfi_def_cfa %rsp, 8
	retq
.LBB0_8:                                # %func_get_LeakyBucketRate.46
	.cfi_def_cfa %rbp, 16
	movq	%rbx, %rdi
	movq	%r14, %rsi
	callq	get_LeakyBucketRate.46
	popq	%rbx
	popq	%r14
	popq	%rbp
	.cfi_def_cfa %rsp, 8
	retq
.LBB0_9:                                # %func_get_LeakyBucketRate.47
	.cfi_def_cfa %rbp, 16
	movq	%rbx, %rdi
	movq	%r14, %rsi
	callq	get_LeakyBucketRate.47
	popq	%rbx
	popq	%r14
	popq	%rbp
	.cfi_def_cfa %rsp, 8
	retq
.LBB0_10:                               # %func_get_LeakyBucketRate.50
	.cfi_def_cfa %rbp, 16
	movq	%rbx, %rdi
	movq	%r14, %rsi
	callq	get_LeakyBucketRate.50
	popq	%rbx
	popq	%r14
	popq	%rbp
	.cfi_def_cfa %rsp, 8
	retq
.LBB0_11:                               # %func_get_LeakyBucketRate.54
	.cfi_def_cfa %rbp, 16
	movq	%rbx, %rdi
	movq	%r14, %rsi
	callq	get_LeakyBucketRate.54
	popq	%rbx
	popq	%r14
	popq	%rbp
	.cfi_def_cfa %rsp, 8
	retq
.LBB0_12:                               # %func_get_LeakyBucketRate.57
	.cfi_def_cfa %rbp, 16
	movq	%rbx, %rdi
	movq	%r14, %rsi
	callq	get_LeakyBucketRate.57
	popq	%rbx
	popq	%r14
	popq	%rbp
	.cfi_def_cfa %rsp, 8
	retq
.LBB0_13:                               # %func_get_LeakyBucketRate.60
	.cfi_def_cfa %rbp, 16
	movq	%rbx, %rdi
	movq	%r14, %rsi
	callq	get_LeakyBucketRate.60
	popq	%rbx
	popq	%r14
	popq	%rbp
	.cfi_def_cfa %rsp, 8
	retq
.LBB0_14:                               # %func_get_LeakyBucketRate.62
	.cfi_def_cfa %rbp, 16
	movq	%rbx, %rdi
	movq	%r14, %rsi
	callq	get_LeakyBucketRate.62
	popq	%rbx
	popq	%r14
	popq	%rbp
	.cfi_def_cfa %rsp, 8
	retq
.LBB0_15:                               # %func_get_LeakyBucketRate.63
	.cfi_def_cfa %rbp, 16
	movq	%rbx, %rdi
	movq	%r14, %rsi
	callq	get_LeakyBucketRate.63
	popq	%rbx
	popq	%r14
	popq	%rbp
	.cfi_def_cfa %rsp, 8
	retq
.LBB0_16:                               # %func_get_LeakyBucketRate.65
	.cfi_def_cfa %rbp, 16
	movq	%rbx, %rdi
	movq	%r14, %rsi
	callq	get_LeakyBucketRate.65
	popq	%rbx
	popq	%r14
	popq	%rbp
	.cfi_def_cfa %rsp, 8
	retq
.LBB0_17:                               # %ctrl0
	.cfi_def_cfa %rbp, 16
	cmpl	$1, %eax
	je	.LBB0_2
# %bb.18:                               # %ctrl1
	cmpl	$2, %eax
	je	.LBB0_3
# %bb.19:                               # %ctrl2
	cmpl	$3, %eax
	je	.LBB0_4
# %bb.20:                               # %ctrl3
	cmpl	$4, %eax
	je	.LBB0_5
# %bb.21:                               # %ctrl4
	cmpl	$5, %eax
	je	.LBB0_6
# %bb.22:                               # %ctrl5
	cmpl	$6, %eax
	je	.LBB0_7
# %bb.23:                               # %ctrl6
	cmpl	$7, %eax
	je	.LBB0_8
# %bb.24:                               # %ctrl7
	cmpl	$8, %eax
	je	.LBB0_9
# %bb.25:                               # %ctrl8
	cmpl	$9, %eax
	je	.LBB0_10
# %bb.26:                               # %ctrl9
	cmpl	$10, %eax
	je	.LBB0_11
# %bb.27:                               # %ctrl10
	cmpl	$11, %eax
	je	.LBB0_12
# %bb.28:                               # %ctrl11
	cmpl	$12, %eax
	je	.LBB0_13
# %bb.29:                               # %ctrl12
	cmpl	$13, %eax
	je	.LBB0_14
# %bb.30:                               # %ctrl13
	cmpl	$14, %eax
	je	.LBB0_15
	jmp	.LBB0_16
.Lfunc_end0:
	.size	get_LeakyBucketRate, .Lfunc_end0-get_LeakyBucketRate
	.cfi_endproc
                                        # -- End function
	.globl	PutBigDoubleWord        # -- Begin function PutBigDoubleWord
	.p2align	4, 0x90
	.type	PutBigDoubleWord,@function
PutBigDoubleWord:                       # @PutBigDoubleWord
	.cfi_startproc
# %bb.0:                                # %rand_bb
	pushq	%rbp
	.cfi_def_cfa_offset 16
	.cfi_offset %rbp, -16
	movq	%rsp, %rbp
	.cfi_def_cfa_register %rbp
	pushq	%r14
	pushq	%rbx
	.cfi_offset %rbx, -32
	.cfi_offset %r14, -24
	movq	%rsi, %r14
	movq	%rdi, %rbx
	callq	get_rand
	cmpl	$0, %eax
	jne	.LBB1_2
# %bb.1:                                # %func_PutBigDoubleWord.6
	movq	%rbx, %rdi
	movq	%r14, %rsi
	callq	PutBigDoubleWord.6
	popq	%rbx
	popq	%r14
	popq	%rbp
	.cfi_def_cfa %rsp, 8
	retq
.LBB1_2:                                # %func_PutBigDoubleWord.8
	.cfi_def_cfa %rbp, 16
	movq	%rbx, %rdi
	movq	%r14, %rsi
	callq	PutBigDoubleWord.8
	popq	%rbx
	popq	%r14
	popq	%rbp
	.cfi_def_cfa %rsp, 8
	retq
.Lfunc_end1:
	.size	PutBigDoubleWord, .Lfunc_end1-PutBigDoubleWord
	.cfi_endproc
                                        # -- End function
	.globl	write_buffer            # -- Begin function write_buffer
	.p2align	4, 0x90
	.type	write_buffer,@function
write_buffer:                           # @write_buffer
	.cfi_startproc
# %bb.0:                                # %rand_bb
	pushq	%rbp
	.cfi_def_cfa_offset 16
	.cfi_offset %rbp, -16
	movq	%rsp, %rbp
	.cfi_def_cfa_register %rbp
	pushq	%r15
	pushq	%r14
	pushq	%r12
	pushq	%rbx
	.cfi_offset %rbx, -48
	.cfi_offset %r12, -40
	.cfi_offset %r14, -32
	.cfi_offset %r15, -24
	movq	%rcx, %r14
	movq	%rdx, %r15
	movq	%rsi, %r12
	movq	%rdi, %rbx
	callq	get_rand
	cmpl	$0, %eax
	jne	.LBB2_17
# %bb.1:                                # %func_write_buffer.1
	movq	%rbx, %rdi
	movq	%r12, %rsi
	movq	%r15, %rdx
	movq	%r14, %rcx
	callq	write_buffer.1
	popq	%rbx
	popq	%r12
	popq	%r14
	popq	%r15
	popq	%rbp
	.cfi_def_cfa %rsp, 8
	retq
.LBB2_2:                                # %func_write_buffer.9
	.cfi_def_cfa %rbp, 16
	movq	%rbx, %rdi
	movq	%r12, %rsi
	movq	%r15, %rdx
	movq	%r14, %rcx
	callq	write_buffer.9
	popq	%rbx
	popq	%r12
	popq	%r14
	popq	%r15
	popq	%rbp
	.cfi_def_cfa %rsp, 8
	retq
.LBB2_3:                                # %func_write_buffer.13
	.cfi_def_cfa %rbp, 16
	movq	%rbx, %rdi
	movq	%r12, %rsi
	movq	%r15, %rdx
	movq	%r14, %rcx
	callq	write_buffer.13
	popq	%rbx
	popq	%r12
	popq	%r14
	popq	%r15
	popq	%rbp
	.cfi_def_cfa %rsp, 8
	retq
.LBB2_4:                                # %func_write_buffer.14
	.cfi_def_cfa %rbp, 16
	movq	%rbx, %rdi
	movq	%r12, %rsi
	movq	%r15, %rdx
	movq	%r14, %rcx
	callq	write_buffer.14
	popq	%rbx
	popq	%r12
	popq	%r14
	popq	%r15
	popq	%rbp
	.cfi_def_cfa %rsp, 8
	retq
.LBB2_5:                                # %func_write_buffer.21
	.cfi_def_cfa %rbp, 16
	movq	%rbx, %rdi
	movq	%r12, %rsi
	movq	%r15, %rdx
	movq	%r14, %rcx
	callq	write_buffer.21
	popq	%rbx
	popq	%r12
	popq	%r14
	popq	%r15
	popq	%rbp
	.cfi_def_cfa %rsp, 8
	retq
.LBB2_6:                                # %func_write_buffer.26
	.cfi_def_cfa %rbp, 16
	movq	%rbx, %rdi
	movq	%r12, %rsi
	movq	%r15, %rdx
	movq	%r14, %rcx
	callq	write_buffer.26
	popq	%rbx
	popq	%r12
	popq	%r14
	popq	%r15
	popq	%rbp
	.cfi_def_cfa %rsp, 8
	retq
.LBB2_7:                                # %func_write_buffer.31
	.cfi_def_cfa %rbp, 16
	movq	%rbx, %rdi
	movq	%r12, %rsi
	movq	%r15, %rdx
	movq	%r14, %rcx
	callq	write_buffer.31
	popq	%rbx
	popq	%r12
	popq	%r14
	popq	%r15
	popq	%rbp
	.cfi_def_cfa %rsp, 8
	retq
.LBB2_8:                                # %func_write_buffer.37
	.cfi_def_cfa %rbp, 16
	movq	%rbx, %rdi
	movq	%r12, %rsi
	movq	%r15, %rdx
	movq	%r14, %rcx
	callq	write_buffer.37
	popq	%rbx
	popq	%r12
	popq	%r14
	popq	%r15
	popq	%rbp
	.cfi_def_cfa %rsp, 8
	retq
.LBB2_9:                                # %func_write_buffer.42
	.cfi_def_cfa %rbp, 16
	movq	%rbx, %rdi
	movq	%r12, %rsi
	movq	%r15, %rdx
	movq	%r14, %rcx
	callq	write_buffer.42
	popq	%rbx
	popq	%r12
	popq	%r14
	popq	%r15
	popq	%rbp
	.cfi_def_cfa %rsp, 8
	retq
.LBB2_10:                               # %func_write_buffer.52
	.cfi_def_cfa %rbp, 16
	movq	%rbx, %rdi
	movq	%r12, %rsi
	movq	%r15, %rdx
	movq	%r14, %rcx
	callq	write_buffer.52
	popq	%rbx
	popq	%r12
	popq	%r14
	popq	%r15
	popq	%rbp
	.cfi_def_cfa %rsp, 8
	retq
.LBB2_11:                               # %func_write_buffer.55
	.cfi_def_cfa %rbp, 16
	movq	%rbx, %rdi
	movq	%r12, %rsi
	movq	%r15, %rdx
	movq	%r14, %rcx
	callq	write_buffer.55
	popq	%rbx
	popq	%r12
	popq	%r14
	popq	%r15
	popq	%rbp
	.cfi_def_cfa %rsp, 8
	retq
.LBB2_12:                               # %func_write_buffer.56
	.cfi_def_cfa %rbp, 16
	movq	%rbx, %rdi
	movq	%r12, %rsi
	movq	%r15, %rdx
	movq	%r14, %rcx
	callq	write_buffer.56
	popq	%rbx
	popq	%r12
	popq	%r14
	popq	%r15
	popq	%rbp
	.cfi_def_cfa %rsp, 8
	retq
.LBB2_13:                               # %func_write_buffer.58
	.cfi_def_cfa %rbp, 16
	movq	%rbx, %rdi
	movq	%r12, %rsi
	movq	%r15, %rdx
	movq	%r14, %rcx
	callq	write_buffer.58
	popq	%rbx
	popq	%r12
	popq	%r14
	popq	%r15
	popq	%rbp
	.cfi_def_cfa %rsp, 8
	retq
.LBB2_14:                               # %func_write_buffer.61
	.cfi_def_cfa %rbp, 16
	movq	%rbx, %rdi
	movq	%r12, %rsi
	movq	%r15, %rdx
	movq	%r14, %rcx
	callq	write_buffer.61
	popq	%rbx
	popq	%r12
	popq	%r14
	popq	%r15
	popq	%rbp
	.cfi_def_cfa %rsp, 8
	retq
.LBB2_15:                               # %func_write_buffer.64
	.cfi_def_cfa %rbp, 16
	movq	%rbx, %rdi
	movq	%r12, %rsi
	movq	%r15, %rdx
	movq	%r14, %rcx
	callq	write_buffer.64
	popq	%rbx
	popq	%r12
	popq	%r14
	popq	%r15
	popq	%rbp
	.cfi_def_cfa %rsp, 8
	retq
.LBB2_16:                               # %func_write_buffer.66
	.cfi_def_cfa %rbp, 16
	movq	%rbx, %rdi
	movq	%r12, %rsi
	movq	%r15, %rdx
	movq	%r14, %rcx
	callq	write_buffer.66
	popq	%rbx
	popq	%r12
	popq	%r14
	popq	%r15
	popq	%rbp
	.cfi_def_cfa %rsp, 8
	retq
.LBB2_17:                               # %ctrl0
	.cfi_def_cfa %rbp, 16
	cmpl	$1, %eax
	je	.LBB2_2
# %bb.18:                               # %ctrl1
	cmpl	$2, %eax
	je	.LBB2_3
# %bb.19:                               # %ctrl2
	cmpl	$3, %eax
	je	.LBB2_4
# %bb.20:                               # %ctrl3
	cmpl	$4, %eax
	je	.LBB2_5
# %bb.21:                               # %ctrl4
	cmpl	$5, %eax
	je	.LBB2_6
# %bb.22:                               # %ctrl5
	cmpl	$6, %eax
	je	.LBB2_7
# %bb.23:                               # %ctrl6
	cmpl	$7, %eax
	je	.LBB2_8
# %bb.24:                               # %ctrl7
	cmpl	$8, %eax
	je	.LBB2_9
# %bb.25:                               # %ctrl8
	cmpl	$9, %eax
	je	.LBB2_10
# %bb.26:                               # %ctrl9
	cmpl	$10, %eax
	je	.LBB2_11
# %bb.27:                               # %ctrl10
	cmpl	$11, %eax
	je	.LBB2_12
# %bb.28:                               # %ctrl11
	cmpl	$12, %eax
	je	.LBB2_13
# %bb.29:                               # %ctrl12
	cmpl	$13, %eax
	je	.LBB2_14
# %bb.30:                               # %ctrl13
	cmpl	$14, %eax
	je	.LBB2_15
	jmp	.LBB2_16
.Lfunc_end2:
	.size	write_buffer, .Lfunc_end2-write_buffer
	.cfi_endproc
                                        # -- End function
	.globl	Sort                    # -- Begin function Sort
	.p2align	4, 0x90
	.type	Sort,@function
Sort:                                   # @Sort
	.cfi_startproc
# %bb.0:                                # %rand_bb
	pushq	%rbp
	.cfi_def_cfa_offset 16
	.cfi_offset %rbp, -16
	movq	%rsp, %rbp
	.cfi_def_cfa_register %rbp
	pushq	%r14
	pushq	%rbx
	.cfi_offset %rbx, -32
	.cfi_offset %r14, -24
	movq	%rsi, %r14
	movq	%rdi, %rbx
	callq	get_rand
	cmpl	$0, %eax
	jne	.LBB3_17
# %bb.1:                                # %func_Sort.3
	movq	%rbx, %rdi
	movq	%r14, %rsi
	callq	Sort.3
	popq	%rbx
	popq	%r14
	popq	%rbp
	.cfi_def_cfa %rsp, 8
	retq
.LBB3_2:                                # %func_Sort.10
	.cfi_def_cfa %rbp, 16
	movq	%rbx, %rdi
	movq	%r14, %rsi
	callq	Sort.10
	popq	%rbx
	popq	%r14
	popq	%rbp
	.cfi_def_cfa %rsp, 8
	retq
.LBB3_3:                                # %func_Sort.11
	.cfi_def_cfa %rbp, 16
	movq	%rbx, %rdi
	movq	%r14, %rsi
	callq	Sort.11
	popq	%rbx
	popq	%r14
	popq	%rbp
	.cfi_def_cfa %rsp, 8
	retq
.LBB3_4:                                # %func_Sort.12
	.cfi_def_cfa %rbp, 16
	movq	%rbx, %rdi
	movq	%r14, %rsi
	callq	Sort.12
	popq	%rbx
	popq	%r14
	popq	%rbp
	.cfi_def_cfa %rsp, 8
	retq
.LBB3_5:                                # %func_Sort.17
	.cfi_def_cfa %rbp, 16
	movq	%rbx, %rdi
	movq	%r14, %rsi
	callq	Sort.17
	popq	%rbx
	popq	%r14
	popq	%rbp
	.cfi_def_cfa %rsp, 8
	retq
.LBB3_6:                                # %func_Sort.18
	.cfi_def_cfa %rbp, 16
	movq	%rbx, %rdi
	movq	%r14, %rsi
	callq	Sort.18
	popq	%rbx
	popq	%r14
	popq	%rbp
	.cfi_def_cfa %rsp, 8
	retq
.LBB3_7:                                # %func_Sort.19
	.cfi_def_cfa %rbp, 16
	movq	%rbx, %rdi
	movq	%r14, %rsi
	callq	Sort.19
	popq	%rbx
	popq	%r14
	popq	%rbp
	.cfi_def_cfa %rsp, 8
	retq
.LBB3_8:                                # %func_Sort.23
	.cfi_def_cfa %rbp, 16
	movq	%rbx, %rdi
	movq	%r14, %rsi
	callq	Sort.23
	popq	%rbx
	popq	%r14
	popq	%rbp
	.cfi_def_cfa %rsp, 8
	retq
.LBB3_9:                                # %func_Sort.24
	.cfi_def_cfa %rbp, 16
	movq	%rbx, %rdi
	movq	%r14, %rsi
	callq	Sort.24
	popq	%rbx
	popq	%r14
	popq	%rbp
	.cfi_def_cfa %rsp, 8
	retq
.LBB3_10:                               # %func_Sort.28
	.cfi_def_cfa %rbp, 16
	movq	%rbx, %rdi
	movq	%r14, %rsi
	callq	Sort.28
	popq	%rbx
	popq	%r14
	popq	%rbp
	.cfi_def_cfa %rsp, 8
	retq
.LBB3_11:                               # %func_Sort.29
	.cfi_def_cfa %rbp, 16
	movq	%rbx, %rdi
	movq	%r14, %rsi
	callq	Sort.29
	popq	%rbx
	popq	%r14
	popq	%rbp
	.cfi_def_cfa %rsp, 8
	retq
.LBB3_12:                               # %func_Sort.30
	.cfi_def_cfa %rbp, 16
	movq	%rbx, %rdi
	movq	%r14, %rsi
	callq	Sort.30
	popq	%rbx
	popq	%r14
	popq	%rbp
	.cfi_def_cfa %rsp, 8
	retq
.LBB3_13:                               # %func_Sort.35
	.cfi_def_cfa %rbp, 16
	movq	%rbx, %rdi
	movq	%r14, %rsi
	callq	Sort.35
	popq	%rbx
	popq	%r14
	popq	%rbp
	.cfi_def_cfa %rsp, 8
	retq
.LBB3_14:                               # %func_Sort.36
	.cfi_def_cfa %rbp, 16
	movq	%rbx, %rdi
	movq	%r14, %rsi
	callq	Sort.36
	popq	%rbx
	popq	%r14
	popq	%rbp
	.cfi_def_cfa %rsp, 8
	retq
.LBB3_15:                               # %func_Sort.38
	.cfi_def_cfa %rbp, 16
	movq	%rbx, %rdi
	movq	%r14, %rsi
	callq	Sort.38
	popq	%rbx
	popq	%r14
	popq	%rbp
	.cfi_def_cfa %rsp, 8
	retq
.LBB3_16:                               # %func_Sort.43
	.cfi_def_cfa %rbp, 16
	movq	%rbx, %rdi
	movq	%r14, %rsi
	callq	Sort.43
	popq	%rbx
	popq	%r14
	popq	%rbp
	.cfi_def_cfa %rsp, 8
	retq
.LBB3_17:                               # %ctrl0
	.cfi_def_cfa %rbp, 16
	cmpl	$1, %eax
	je	.LBB3_2
# %bb.18:                               # %ctrl1
	cmpl	$2, %eax
	je	.LBB3_3
# %bb.19:                               # %ctrl2
	cmpl	$3, %eax
	je	.LBB3_4
# %bb.20:                               # %ctrl3
	cmpl	$4, %eax
	je	.LBB3_5
# %bb.21:                               # %ctrl4
	cmpl	$5, %eax
	je	.LBB3_6
# %bb.22:                               # %ctrl5
	cmpl	$6, %eax
	je	.LBB3_7
# %bb.23:                               # %ctrl6
	cmpl	$7, %eax
	je	.LBB3_8
# %bb.24:                               # %ctrl7
	cmpl	$8, %eax
	je	.LBB3_9
# %bb.25:                               # %ctrl8
	cmpl	$9, %eax
	je	.LBB3_10
# %bb.26:                               # %ctrl9
	cmpl	$10, %eax
	je	.LBB3_11
# %bb.27:                               # %ctrl10
	cmpl	$11, %eax
	je	.LBB3_12
# %bb.28:                               # %ctrl11
	cmpl	$12, %eax
	je	.LBB3_13
# %bb.29:                               # %ctrl12
	cmpl	$13, %eax
	je	.LBB3_14
# %bb.30:                               # %ctrl13
	cmpl	$14, %eax
	je	.LBB3_15
	jmp	.LBB3_16
.Lfunc_end3:
	.size	Sort, .Lfunc_end3-Sort
	.cfi_endproc
                                        # -- End function
	.globl	calc_buffer             # -- Begin function calc_buffer
	.p2align	4, 0x90
	.type	calc_buffer,@function
calc_buffer:                            # @calc_buffer
	.cfi_startproc
# %bb.0:                                # %rand_bb
	pushq	%rbp
	.cfi_def_cfa_offset 16
	.cfi_offset %rbp, -16
	movq	%rsp, %rbp
	.cfi_def_cfa_register %rbp
	callq	get_rand
	cmpl	$0, %eax
	jne	.LBB4_17
# %bb.1:                                # %func_calc_buffer.2
	callq	calc_buffer.2
	popq	%rbp
	.cfi_def_cfa %rsp, 8
	retq
.LBB4_2:                                # %func_calc_buffer.4
	.cfi_def_cfa %rbp, 16
	callq	calc_buffer.4
	popq	%rbp
	.cfi_def_cfa %rsp, 8
	retq
.LBB4_3:                                # %func_calc_buffer.7
	.cfi_def_cfa %rbp, 16
	callq	calc_buffer.7
	popq	%rbp
	.cfi_def_cfa %rsp, 8
	retq
.LBB4_4:                                # %func_calc_buffer.15
	.cfi_def_cfa %rbp, 16
	callq	calc_buffer.15
	popq	%rbp
	.cfi_def_cfa %rsp, 8
	retq
.LBB4_5:                                # %func_calc_buffer.16
	.cfi_def_cfa %rbp, 16
	callq	calc_buffer.16
	popq	%rbp
	.cfi_def_cfa %rsp, 8
	retq
.LBB4_6:                                # %func_calc_buffer.22
	.cfi_def_cfa %rbp, 16
	callq	calc_buffer.22
	popq	%rbp
	.cfi_def_cfa %rsp, 8
	retq
.LBB4_7:                                # %func_calc_buffer.32
	.cfi_def_cfa %rbp, 16
	callq	calc_buffer.32
	popq	%rbp
	.cfi_def_cfa %rsp, 8
	retq
.LBB4_8:                                # %func_calc_buffer.33
	.cfi_def_cfa %rbp, 16
	callq	calc_buffer.33
	popq	%rbp
	.cfi_def_cfa %rsp, 8
	retq
.LBB4_9:                                # %func_calc_buffer.40
	.cfi_def_cfa %rbp, 16
	callq	calc_buffer.40
	popq	%rbp
	.cfi_def_cfa %rsp, 8
	retq
.LBB4_10:                               # %func_calc_buffer.41
	.cfi_def_cfa %rbp, 16
	callq	calc_buffer.41
	popq	%rbp
	.cfi_def_cfa %rsp, 8
	retq
.LBB4_11:                               # %func_calc_buffer.44
	.cfi_def_cfa %rbp, 16
	callq	calc_buffer.44
	popq	%rbp
	.cfi_def_cfa %rsp, 8
	retq
.LBB4_12:                               # %func_calc_buffer.48
	.cfi_def_cfa %rbp, 16
	callq	calc_buffer.48
	popq	%rbp
	.cfi_def_cfa %rsp, 8
	retq
.LBB4_13:                               # %func_calc_buffer.49
	.cfi_def_cfa %rbp, 16
	callq	calc_buffer.49
	popq	%rbp
	.cfi_def_cfa %rsp, 8
	retq
.LBB4_14:                               # %func_calc_buffer.51
	.cfi_def_cfa %rbp, 16
	callq	calc_buffer.51
	popq	%rbp
	.cfi_def_cfa %rsp, 8
	retq
.LBB4_15:                               # %func_calc_buffer.53
	.cfi_def_cfa %rbp, 16
	callq	calc_buffer.53
	popq	%rbp
	.cfi_def_cfa %rsp, 8
	retq
.LBB4_16:                               # %func_calc_buffer.59
	.cfi_def_cfa %rbp, 16
	callq	calc_buffer.59
	popq	%rbp
	.cfi_def_cfa %rsp, 8
	retq
.LBB4_17:                               # %ctrl0
	.cfi_def_cfa %rbp, 16
	cmpl	$1, %eax
	je	.LBB4_2
# %bb.18:                               # %ctrl1
	cmpl	$2, %eax
	je	.LBB4_3
# %bb.19:                               # %ctrl2
	cmpl	$3, %eax
	je	.LBB4_4
# %bb.20:                               # %ctrl3
	cmpl	$4, %eax
	je	.LBB4_5
# %bb.21:                               # %ctrl4
	cmpl	$5, %eax
	je	.LBB4_6
# %bb.22:                               # %ctrl5
	cmpl	$6, %eax
	je	.LBB4_7
# %bb.23:                               # %ctrl6
	cmpl	$7, %eax
	je	.LBB4_8
# %bb.24:                               # %ctrl7
	cmpl	$8, %eax
	je	.LBB4_9
# %bb.25:                               # %ctrl8
	cmpl	$9, %eax
	je	.LBB4_10
# %bb.26:                               # %ctrl9
	cmpl	$10, %eax
	je	.LBB4_11
# %bb.27:                               # %ctrl10
	cmpl	$11, %eax
	je	.LBB4_12
# %bb.28:                               # %ctrl11
	cmpl	$12, %eax
	je	.LBB4_13
# %bb.29:                               # %ctrl12
	cmpl	$13, %eax
	je	.LBB4_14
# %bb.30:                               # %ctrl13
	cmpl	$14, %eax
	je	.LBB4_15
	jmp	.LBB4_16
.Lfunc_end4:
	.size	calc_buffer, .Lfunc_end4-calc_buffer
	.cfi_endproc
                                        # -- End function
	.globl	write_buffer.1          # -- Begin function write_buffer.1
	.p2align	4, 0x90
	.type	write_buffer.1,@function
write_buffer.1:                         # @write_buffer.1
	.cfi_startproc
# %bb.0:                                # %entry
	pushq	%rbp
	.cfi_def_cfa_offset 16
	.cfi_offset %rbp, -16
	movq	%rsp, %rbp
	.cfi_def_cfa_register %rbp
	subq	$64, %rsp
	movl	$1869062912, -28(%rbp)  # imm = 0x6F67A300
	movq	%rdi, -24(%rbp)
	movq	%rsi, -48(%rbp)
	movq	%rdx, -56(%rbp)
	movq	%rcx, -40(%rbp)
	movq	input, %rdi
	addq	$2680, %rdi             # imm = 0xA78
	movabsq	$.L.str.4, %rsi
	callq	fopen
	movq	%rax, -16(%rbp)
	cmpq	$0, %rax
	jne	.LBB5_2
# %bb.1:                                # %if.then
	movq	input, %rcx
	addq	$2680, %rcx             # imm = 0xA78
	movabsq	$errortext, %rdi
	movl	$300, %esi              # imm = 0x12C
	movabsq	$.L.str.5, %rdx
	movb	$0, %al
	callq	snprintf
	movabsq	$errortext, %rdi
	movl	$1, %esi
	callq	error
.LBB5_2:                                # %if.end
	movq	-24(%rbp), %rdi
	movq	-16(%rbp), %rsi
	callq	PutBigDoubleWord
	movq	-24(%rbp), %rsi
	movabsq	$.L.str.6, %rdi
	movb	$0, %al
	callq	printf
	movq	$0, -8(%rbp)
.LBB5_3:                                # %for.cond
                                        # =>This Inner Loop Header: Depth=1
	movq	-8(%rbp), %rax
	cmpq	-24(%rbp), %rax
	jae	.LBB5_6
# %bb.4:                                # %for.body
                                        #   in Loop: Header=BB5_3 Depth=1
	movq	-48(%rbp), %rax
	movq	-8(%rbp), %rcx
	movq	(%rax,%rcx,8), %rdi
	movq	-16(%rbp), %rsi
	callq	PutBigDoubleWord
	movq	-56(%rbp), %rax
	movq	-8(%rbp), %rcx
	movq	(%rax,%rcx,8), %rdi
	movq	-16(%rbp), %rsi
	callq	PutBigDoubleWord
	movq	-40(%rbp), %rax
	movq	-8(%rbp), %rcx
	movq	(%rax,%rcx,8), %rdi
	movq	-16(%rbp), %rsi
	callq	PutBigDoubleWord
	movq	-48(%rbp), %rax
	movq	-8(%rbp), %rcx
	movq	(%rax,%rcx,8), %rsi
	movq	-56(%rbp), %rax
	movq	-8(%rbp), %rcx
	movq	(%rax,%rcx,8), %rdx
	movq	-40(%rbp), %rax
	movq	-8(%rbp), %rcx
	movq	(%rax,%rcx,8), %rcx
	movabsq	$.L.str.7, %rdi
	movb	$0, %al
	callq	printf
# %bb.5:                                # %for.inc
                                        #   in Loop: Header=BB5_3 Depth=1
	movq	-8(%rbp), %rax
	addq	$1, %rax
	movq	%rax, -8(%rbp)
	jmp	.LBB5_3
.LBB5_6:                                # %for.end
	movq	-16(%rbp), %rdi
	callq	fclose
	cmpl	$1869062912, -28(%rbp)  # imm = 0x6F67A300
	jne	.LBB5_8
.LBB5_7:
	addq	$64, %rsp
	popq	%rbp
	.cfi_def_cfa %rsp, 8
	retq
.LBB5_8:                                # %func_exit
	.cfi_def_cfa %rbp, 16
	callq	detect_breach
	jmp	.LBB5_7
.Lfunc_end5:
	.size	write_buffer.1, .Lfunc_end5-write_buffer.1
	.cfi_endproc
                                        # -- End function
	.section	.rodata.cst4,"aM",@progbits,4
	.p2align	2               # -- Begin function calc_buffer.2
.LCPI6_0:
	.long	1593835520              # float 9.22337203E+18
	.text
	.globl	calc_buffer.2
	.p2align	4, 0x90
	.type	calc_buffer.2,@function
calc_buffer.2:                          # @calc_buffer.2
	.cfi_startproc
# %bb.0:                                # %entry
	pushq	%rbp
	.cfi_def_cfa_offset 16
	.cfi_offset %rbp, -16
	movq	%rsp, %rbp
	.cfi_def_cfa_register %rbp
	subq	$128, %rsp
	movl	$429412653, -100(%rbp)  # imm = 0x1998512D
	movq	$0, -120(%rbp)
	movq	stdout, %rdi
	movabsq	$.L.str.8, %rsi
	movb	$0, %al
	callq	fprintf
	movq	total_frame_buffer, %rsi
	movq	input, %rax
	movl	8(%rax), %edx
	movabsq	$.L.str.9, %rdi
	movb	$0, %al
	callq	printf
	movq	input, %rax
	movslq	2476(%rax), %rax
	movq	%rax, -40(%rbp)
	movq	total_frame_buffer, %rdi
	addq	$1, %rdi
	movl	$8, %esi
	callq	calloc
	movq	%rax, -16(%rbp)
	cmpq	$0, -16(%rbp)
	jne	.LBB6_2
# %bb.1:                                # %if.then
	movabsq	$.L.str.10, %rdi
	callq	no_mem_exit
.LBB6_2:                                # %if.end
	movq	-40(%rbp), %rdi
	movl	$8, %esi
	callq	calloc
	movq	%rax, -32(%rbp)
	cmpq	$0, -32(%rbp)
	jne	.LBB6_4
# %bb.3:                                # %if.then6
	movabsq	$.L.str.11, %rdi
	callq	no_mem_exit
.LBB6_4:                                # %if.end7
	movq	-40(%rbp), %rdi
	movl	$8, %esi
	callq	calloc
	movq	%rax, -64(%rbp)
	cmpq	$0, -64(%rbp)
	jne	.LBB6_6
# %bb.5:                                # %if.then10
	movabsq	$.L.str.12, %rdi
	callq	no_mem_exit
.LBB6_6:                                # %if.end11
	movq	-40(%rbp), %rdi
	movl	$8, %esi
	callq	calloc
	movq	%rax, -72(%rbp)
	cmpq	$0, -72(%rbp)
	jne	.LBB6_8
# %bb.7:                                # %if.then14
	movabsq	$.L.str.13, %rdi
	callq	no_mem_exit
.LBB6_8:                                # %if.end15
	movq	$0, -96(%rbp)
	movq	$0, -8(%rbp)
.LBB6_9:                                # %for.cond
                                        # =>This Inner Loop Header: Depth=1
	movq	-8(%rbp), %rax
	cmpq	total_frame_buffer, %rax
	jae	.LBB6_12
# %bb.10:                               # %for.body
                                        #   in Loop: Header=BB6_9 Depth=1
	movq	-8(%rbp), %rax
	movq	Bit_Buffer(,%rax,8), %rax
	addq	-96(%rbp), %rax
	movq	%rax, -96(%rbp)
# %bb.11:                               # %for.inc
                                        #   in Loop: Header=BB6_9 Depth=1
	movq	-8(%rbp), %rax
	addq	$1, %rax
	movq	%rax, -8(%rbp)
	jmp	.LBB6_9
.LBB6_12:                               # %for.end
	movq	-96(%rbp), %rax
	vcvtsi2ss	%rax, %xmm0, %xmm1
	movq	%rax, %rcx
	shrq	%rcx
	movl	%eax, %edx
	andl	$1, %edx
	orq	%rcx, %rdx
	vcvtsi2ss	%rdx, %xmm0, %xmm0
	vaddss	%xmm0, %xmm0, %xmm0
	testq	%rax, %rax
	js	.LBB6_14
# %bb.13:                               # %for.end
	vmovaps	%xmm1, %xmm0
.LBB6_14:                               # %for.end
	movq	total_frame_buffer(%rip), %rax
	vcvtsi2ss	%rax, %xmm0, %xmm1
	movq	%rax, %rcx
	shrq	%rcx
	movl	%eax, %edx
	andl	$1, %edx
	orq	%rcx, %rdx
	vcvtsi2ss	%rdx, %xmm0, %xmm2
	vaddss	%xmm2, %xmm2, %xmm2
	testq	%rax, %rax
	js	.LBB6_16
# %bb.15:                               # %for.end
	vmovaps	%xmm1, %xmm2
.LBB6_16:                               # %for.end
	vdivss	%xmm2, %xmm0, %xmm0
	vmovss	.LCPI6_0(%rip), %xmm1   # xmm1 = mem[0],zero,zero,zero
	vsubss	%xmm1, %xmm0, %xmm2
	vcvttss2si	%xmm2, %rax
	movabsq	$-9223372036854775808, %rcx # imm = 0x8000000000000000
	xorq	%rcx, %rax
	vcvttss2si	%xmm0, %rcx
	vucomiss	%xmm1, %xmm0
	cmovbq	%rcx, %rax
	movq	%rax, -80(%rbp)
	movq	-40(%rbp), %rdi
	movq	-32(%rbp), %rsi
	callq	get_LeakyBucketRate
	movl	$1, %ecx
	cmpl	%eax, %ecx
	je	.LBB6_29
# %bb.17:                               # %if.then24
	movq	$0, -24(%rbp)
.LBB6_18:                               # %for.cond25
                                        # =>This Inner Loop Header: Depth=1
	movq	-24(%rbp), %rax
	cmpq	-40(%rbp), %rax
	jae	.LBB6_28
# %bb.19:                               # %for.body28
                                        #   in Loop: Header=BB6_18 Depth=1
	cmpq	$0, -24(%rbp)
	jne	.LBB6_23
# %bb.20:                               # %if.then31
                                        #   in Loop: Header=BB6_18 Depth=1
	movq	-80(%rbp), %rax
	vcvtsi2ss	%rax, %xmm0, %xmm0
	movq	%rax, %rcx
	shrq	%rcx
	movl	%eax, %edx
	andl	$1, %edx
	orq	%rcx, %rdx
	vcvtsi2ss	%rdx, %xmm0, %xmm1
	vaddss	%xmm1, %xmm1, %xmm1
	testq	%rax, %rax
	js	.LBB6_22
# %bb.21:                               # %if.then31
                                        #   in Loop: Header=BB6_18 Depth=1
	vmovaps	%xmm0, %xmm1
.LBB6_22:                               # %if.then31
                                        #   in Loop: Header=BB6_18 Depth=1
	movq	img(%rip), %rax
	vmovss	48(%rax), %xmm0         # xmm0 = mem[0],zero,zero,zero
	vmulss	%xmm0, %xmm1, %xmm0
	vmovss	.LCPI6_0(%rip), %xmm1   # xmm1 = mem[0],zero,zero,zero
	vsubss	%xmm1, %xmm0, %xmm2
	vcvttss2si	%xmm2, %rax
	movabsq	$-9223372036854775808, %rcx # imm = 0x8000000000000000
	xorq	%rcx, %rax
	vcvttss2si	%xmm0, %rcx
	vucomiss	%xmm1, %xmm0
	cmovbq	%rcx, %rax
	movq	input, %rcx
	movl	20(%rcx), %ecx
	addl	$1, %ecx
	movslq	%ecx, %rcx
	xorl	%edx, %edx
	divq	%rcx
	movq	-32(%rbp), %rcx
	movq	-24(%rbp), %rdx
	movq	%rax, (%rcx,%rdx,8)
	jmp	.LBB6_26
.LBB6_23:                               # %if.else
                                        #   in Loop: Header=BB6_18 Depth=1
	movq	-32(%rbp), %rax
	movq	-24(%rbp), %rcx
	movq	-8(%rax,%rcx,8), %rax
	movq	%rax, %rcx
	shrq	%rcx
	movl	%eax, %edx
	andl	$1, %edx
	orq	%rcx, %rdx
	vcvtsi2ss	%rdx, %xmm0, %xmm0
	vaddss	%xmm0, %xmm0, %xmm0
	vcvtsi2ss	%rax, %xmm0, %xmm1
	testq	%rax, %rax
	js	.LBB6_25
# %bb.24:                               # %if.else
                                        #   in Loop: Header=BB6_18 Depth=1
	vmovaps	%xmm1, %xmm0
.LBB6_25:                               # %if.else
                                        #   in Loop: Header=BB6_18 Depth=1
	movq	-80(%rbp), %rax
	shrq	$2, %rax
	vcvtsi2ss	%rax, %xmm0, %xmm1
	movq	img(%rip), %rax
	vmovss	48(%rax), %xmm2         # xmm2 = mem[0],zero,zero,zero
	vmulss	%xmm2, %xmm1, %xmm1
	movq	input(%rip), %rax
	movl	20(%rax), %eax
	addl	$1, %eax
	vcvtsi2ss	%eax, %xmm0, %xmm2
	vdivss	%xmm2, %xmm1, %xmm1
	vaddss	%xmm1, %xmm0, %xmm0
	vmovss	.LCPI6_0(%rip), %xmm1   # xmm1 = mem[0],zero,zero,zero
	vsubss	%xmm1, %xmm0, %xmm2
	vcvttss2si	%xmm2, %rax
	movabsq	$-9223372036854775808, %rcx # imm = 0x8000000000000000
	xorq	%rcx, %rax
	vcvttss2si	%xmm0, %rcx
	vucomiss	%xmm1, %xmm0
	cmovbq	%rcx, %rax
	movq	-32(%rbp), %rcx
	movq	-24(%rbp), %rdx
	movq	%rax, (%rcx,%rdx,8)
.LBB6_26:                               # %if.end51
                                        #   in Loop: Header=BB6_18 Depth=1
	jmp	.LBB6_27
.LBB6_27:                               # %for.inc52
                                        #   in Loop: Header=BB6_18 Depth=1
	movq	-24(%rbp), %rax
	addq	$1, %rax
	movq	%rax, -24(%rbp)
	jmp	.LBB6_18
.LBB6_28:                               # %for.end54
	jmp	.LBB6_29
.LBB6_29:                               # %if.end55
	movq	-40(%rbp), %rdi
	movq	-32(%rbp), %rsi
	callq	Sort
	imulq	$20, -80(%rbp), %rax
	movq	%rax, -56(%rbp)
	movq	$0, -24(%rbp)
.LBB6_30:                               # %for.cond57
                                        # =>This Loop Header: Depth=1
                                        #     Child Loop BB6_34 Depth 2
                                        #     Child Loop BB6_42 Depth 2
	movq	-24(%rbp), %rax
	cmpq	-40(%rbp), %rax
	jae	.LBB6_52
# %bb.31:                               # %for.body60
                                        #   in Loop: Header=BB6_30 Depth=1
	movq	-32(%rbp), %rax
	movq	-24(%rbp), %rcx
	movq	(%rax,%rcx,8), %rax
	movq	input(%rip), %rcx
	movl	20(%rcx), %ecx
	addl	$1, %ecx
	movslq	%ecx, %rcx
	imulq	%rcx, %rax
	movq	%rax, %rcx
	shrq	%rcx
	movl	%eax, %edx
	andl	$1, %edx
	orq	%rcx, %rdx
	vcvtsi2ss	%rdx, %xmm0, %xmm0
	vaddss	%xmm0, %xmm0, %xmm0
	vcvtsi2ss	%rax, %xmm0, %xmm1
	testq	%rax, %rax
	js	.LBB6_33
# %bb.32:                               # %for.body60
                                        #   in Loop: Header=BB6_30 Depth=1
	vmovaps	%xmm1, %xmm0
.LBB6_33:                               # %for.body60
                                        #   in Loop: Header=BB6_30 Depth=1
	movq	img, %rax
	vdivss	48(%rax), %xmm0, %xmm0
	vcvttss2si	%xmm0, %rax
	movq	%rax, -128(%rbp)
	movq	-56(%rbp), %rax
	movq	%rax, -48(%rbp)
	movq	-48(%rbp), %rax
	movq	-16(%rbp), %rcx
	movq	%rax, (%rcx)
	movq	-56(%rbp), %rax
	movq	%rax, -88(%rbp)
	movq	$0, -8(%rbp)
.LBB6_34:                               # %for.cond71
                                        #   Parent Loop BB6_30 Depth=1
                                        # =>  This Inner Loop Header: Depth=2
	movq	-8(%rbp), %rax
	cmpq	total_frame_buffer, %rax
	jae	.LBB6_41
# %bb.35:                               # %for.body74
                                        #   in Loop: Header=BB6_34 Depth=2
	movq	-16(%rbp), %rax
	movq	-8(%rbp), %rcx
	movq	(%rax,%rcx,8), %rax
	movq	-8(%rbp), %rcx
	subq	Bit_Buffer(,%rcx,8), %rax
	movq	-16(%rbp), %rcx
	movq	-8(%rbp), %rdx
	movq	%rax, (%rcx,%rdx,8)
	movq	-16(%rbp), %rax
	movq	-8(%rbp), %rcx
	movq	(%rax,%rcx,8), %rax
	cmpq	-88(%rbp), %rax
	jge	.LBB6_37
# %bb.36:                               # %if.then82
                                        #   in Loop: Header=BB6_34 Depth=2
	movq	-16(%rbp), %rax
	movq	-8(%rbp), %rcx
	movq	(%rax,%rcx,8), %rax
	movq	%rax, -88(%rbp)
	movq	-8(%rbp), %rax
	movq	%rax, -120(%rbp)
.LBB6_37:                               # %if.end84
                                        #   in Loop: Header=BB6_34 Depth=2
	movq	-16(%rbp), %rax
	movq	-8(%rbp), %rcx
	movq	(%rax,%rcx,8), %rax
	addq	-128(%rbp), %rax
	movq	-16(%rbp), %rcx
	movq	-8(%rbp), %rdx
	movq	%rax, 8(%rcx,%rdx,8)
	movq	-16(%rbp), %rax
	movq	-8(%rbp), %rcx
	movq	8(%rax,%rcx,8), %rax
	cmpq	-56(%rbp), %rax
	jle	.LBB6_39
# %bb.38:                               # %if.then93
                                        #   in Loop: Header=BB6_34 Depth=2
	movq	-56(%rbp), %rax
	movq	-16(%rbp), %rcx
	movq	-8(%rbp), %rdx
	movq	%rax, 8(%rcx,%rdx,8)
.LBB6_39:                               # %if.end96
                                        #   in Loop: Header=BB6_34 Depth=2
	jmp	.LBB6_40
.LBB6_40:                               # %for.inc97
                                        #   in Loop: Header=BB6_34 Depth=2
	movq	-8(%rbp), %rax
	addq	$1, %rax
	movq	%rax, -8(%rbp)
	jmp	.LBB6_34
.LBB6_41:                               # %for.end99
                                        #   in Loop: Header=BB6_30 Depth=1
	movq	-56(%rbp), %rax
	subq	-88(%rbp), %rax
	movq	%rax, -112(%rbp)
	movq	Bit_Buffer, %rax
	movq	%rax, -48(%rbp)
	movq	-48(%rbp), %rax
	movq	-16(%rbp), %rcx
	movq	%rax, (%rcx)
	movq	$0, -8(%rbp)
.LBB6_42:                               # %for.cond102
                                        #   Parent Loop BB6_30 Depth=1
                                        # =>  This Inner Loop Header: Depth=2
	movq	-8(%rbp), %rax
	movq	-120(%rbp), %rcx
	addq	$1, %rcx
	cmpq	%rcx, %rax
	jae	.LBB6_49
# %bb.43:                               # %for.body106
                                        #   in Loop: Header=BB6_42 Depth=2
	movq	-16(%rbp), %rax
	movq	-8(%rbp), %rcx
	movq	(%rax,%rcx,8), %rax
	movq	-8(%rbp), %rcx
	subq	Bit_Buffer(,%rcx,8), %rax
	movq	-16(%rbp), %rcx
	movq	-8(%rbp), %rdx
	movq	%rax, (%rcx,%rdx,8)
	movq	-16(%rbp), %rax
	movq	-8(%rbp), %rcx
	cmpq	$0, (%rax,%rcx,8)
	jge	.LBB6_45
# %bb.44:                               # %if.then114
                                        #   in Loop: Header=BB6_42 Depth=2
	movq	-16(%rbp), %rax
	movq	-8(%rbp), %rcx
	movq	(%rax,%rcx,8), %rax
	movq	-48(%rbp), %rcx
	subq	%rax, %rcx
	movq	%rcx, -48(%rbp)
	movq	-16(%rbp), %rax
	movq	-8(%rbp), %rcx
	movq	$0, (%rax,%rcx,8)
.LBB6_45:                               # %if.end118
                                        #   in Loop: Header=BB6_42 Depth=2
	movq	-16(%rbp), %rax
	movq	-8(%rbp), %rcx
	movq	(%rax,%rcx,8), %rax
	addq	-128(%rbp), %rax
	movq	-16(%rbp), %rcx
	movq	-8(%rbp), %rdx
	movq	%rax, 8(%rcx,%rdx,8)
	movq	-16(%rbp), %rax
	movq	-8(%rbp), %rcx
	movq	8(%rax,%rcx,8), %rax
	cmpq	-112(%rbp), %rax
	jle	.LBB6_47
# %bb.46:                               # %if.then127
                                        #   in Loop: Header=BB6_30 Depth=1
	jmp	.LBB6_50
.LBB6_47:                               # %if.end128
                                        #   in Loop: Header=BB6_42 Depth=2
	jmp	.LBB6_48
.LBB6_48:                               # %for.inc129
                                        #   in Loop: Header=BB6_42 Depth=2
	movq	-8(%rbp), %rax
	addq	$1, %rax
	movq	%rax, -8(%rbp)
	jmp	.LBB6_42
.LBB6_49:                               # %for.end131.loopexit
                                        #   in Loop: Header=BB6_30 Depth=1
	jmp	.LBB6_50
.LBB6_50:                               # %for.end131
                                        #   in Loop: Header=BB6_30 Depth=1
	movq	-112(%rbp), %rax
	movq	-64(%rbp), %rcx
	movq	-24(%rbp), %rdx
	movq	%rax, (%rcx,%rdx,8)
	movq	-48(%rbp), %rax
	movq	-72(%rbp), %rcx
	movq	-24(%rbp), %rdx
	movq	%rax, (%rcx,%rdx,8)
# %bb.51:                               # %for.inc134
                                        #   in Loop: Header=BB6_30 Depth=1
	movq	-24(%rbp), %rax
	addq	$1, %rax
	movq	%rax, -24(%rbp)
	jmp	.LBB6_30
.LBB6_52:                               # %for.end136
	movq	-40(%rbp), %rdi
	movq	-32(%rbp), %rsi
	movq	-64(%rbp), %rdx
	movq	-72(%rbp), %rcx
	callq	write_buffer
	movq	-16(%rbp), %rdi
	callq	free
	movq	-32(%rbp), %rdi
	callq	free
	movq	-64(%rbp), %rdi
	callq	free
	movq	-72(%rbp), %rdi
	callq	free
	cmpl	$429412653, -100(%rbp)  # imm = 0x1998512D
	jne	.LBB6_54
.LBB6_53:
	addq	$128, %rsp
	popq	%rbp
	.cfi_def_cfa %rsp, 8
	retq
.LBB6_54:                               # %func_exit
	.cfi_def_cfa %rbp, 16
	callq	detect_breach
	jmp	.LBB6_53
.Lfunc_end6:
	.size	calc_buffer.2, .Lfunc_end6-calc_buffer.2
	.cfi_endproc
                                        # -- End function
	.globl	Sort.3                  # -- Begin function Sort.3
	.p2align	4, 0x90
	.type	Sort.3,@function
Sort.3:                                 # @Sort.3
	.cfi_startproc
# %bb.0:                                # %entry
	pushq	%rbp
	.cfi_def_cfa_offset 16
	.cfi_offset %rbp, -16
	movq	%rsp, %rbp
	.cfi_def_cfa_register %rbp
	subq	$48, %rsp
	movl	$1281011128, -28(%rbp)  # imm = 0x4C5AADB8
	movq	%rdi, -40(%rbp)
	movq	%rsi, -16(%rbp)
	movq	$0, -8(%rbp)
.LBB7_1:                                # %for.cond
                                        # =>This Loop Header: Depth=1
                                        #     Child Loop BB7_3 Depth 2
	movq	-8(%rbp), %rax
	movq	-40(%rbp), %rcx
	subq	$1, %rcx
	cmpq	%rcx, %rax
	jae	.LBB7_10
# %bb.2:                                # %for.body
                                        #   in Loop: Header=BB7_1 Depth=1
	movq	-8(%rbp), %rax
	addq	$1, %rax
	movq	%rax, -24(%rbp)
.LBB7_3:                                # %for.cond1
                                        #   Parent Loop BB7_1 Depth=1
                                        # =>  This Inner Loop Header: Depth=2
	movq	-24(%rbp), %rax
	cmpq	-40(%rbp), %rax
	jae	.LBB7_8
# %bb.4:                                # %for.body3
                                        #   in Loop: Header=BB7_3 Depth=2
	movq	-16(%rbp), %rax
	movq	-8(%rbp), %rcx
	movq	(%rax,%rcx,8), %rax
	movq	-16(%rbp), %rcx
	movq	-24(%rbp), %rdx
	cmpq	(%rcx,%rdx,8), %rax
	jbe	.LBB7_6
# %bb.5:                                # %if.then
                                        #   in Loop: Header=BB7_3 Depth=2
	movq	-16(%rbp), %rax
	movq	-8(%rbp), %rcx
	movq	(%rax,%rcx,8), %rax
	movq	%rax, -48(%rbp)
	movq	-16(%rbp), %rax
	movq	-24(%rbp), %rcx
	movq	(%rax,%rcx,8), %rax
	movq	-16(%rbp), %rcx
	movq	-8(%rbp), %rdx
	movq	%rax, (%rcx,%rdx,8)
	movq	-48(%rbp), %rax
	movq	-16(%rbp), %rcx
	movq	-24(%rbp), %rdx
	movq	%rax, (%rcx,%rdx,8)
.LBB7_6:                                # %if.end
                                        #   in Loop: Header=BB7_3 Depth=2
	jmp	.LBB7_7
.LBB7_7:                                # %for.inc
                                        #   in Loop: Header=BB7_3 Depth=2
	movq	-24(%rbp), %rax
	addq	$1, %rax
	movq	%rax, -24(%rbp)
	jmp	.LBB7_3
.LBB7_8:                                # %for.end
                                        #   in Loop: Header=BB7_1 Depth=1
	jmp	.LBB7_9
.LBB7_9:                                # %for.inc10
                                        #   in Loop: Header=BB7_1 Depth=1
	movq	-8(%rbp), %rax
	addq	$1, %rax
	movq	%rax, -8(%rbp)
	jmp	.LBB7_1
.LBB7_10:                               # %for.end12
	cmpl	$1281011128, -28(%rbp)  # imm = 0x4C5AADB8
	jne	.LBB7_12
.LBB7_11:
	addq	$48, %rsp
	popq	%rbp
	.cfi_def_cfa %rsp, 8
	retq
.LBB7_12:                               # %func_exit
	.cfi_def_cfa %rbp, 16
	callq	detect_breach
	jmp	.LBB7_11
.Lfunc_end7:
	.size	Sort.3, .Lfunc_end7-Sort.3
	.cfi_endproc
                                        # -- End function
	.section	.rodata.cst4,"aM",@progbits,4
	.p2align	2               # -- Begin function calc_buffer.4
.LCPI8_0:
	.long	1593835520              # float 9.22337203E+18
	.text
	.globl	calc_buffer.4
	.p2align	4, 0x90
	.type	calc_buffer.4,@function
calc_buffer.4:                          # @calc_buffer.4
	.cfi_startproc
# %bb.0:                                # %entry
	pushq	%rbp
	.cfi_def_cfa_offset 16
	.cfi_offset %rbp, -16
	movq	%rsp, %rbp
	.cfi_def_cfa_register %rbp
	subq	$128, %rsp
	movl	$577144376, -100(%rbp)  # imm = 0x22668638
	movq	$0, -112(%rbp)
	movq	stdout, %rdi
	movabsq	$.L.str.8, %rsi
	movb	$0, %al
	callq	fprintf
	movq	total_frame_buffer, %rsi
	movq	input, %rax
	movl	8(%rax), %edx
	movabsq	$.L.str.9, %rdi
	movb	$0, %al
	callq	printf
	movq	input, %rax
	movslq	2476(%rax), %rax
	movq	%rax, -40(%rbp)
	movq	total_frame_buffer, %rdi
	addq	$1, %rdi
	movl	$8, %esi
	callq	calloc
	movq	%rax, -16(%rbp)
	cmpq	$0, -16(%rbp)
	jne	.LBB8_2
# %bb.1:                                # %if.then
	movabsq	$.L.str.10, %rdi
	callq	no_mem_exit
.LBB8_2:                                # %if.end
	movq	-40(%rbp), %rdi
	movl	$8, %esi
	callq	calloc
	movq	%rax, -32(%rbp)
	cmpq	$0, -32(%rbp)
	jne	.LBB8_4
# %bb.3:                                # %if.then6
	movabsq	$.L.str.11, %rdi
	callq	no_mem_exit
.LBB8_4:                                # %if.end7
	movq	-40(%rbp), %rdi
	movl	$8, %esi
	callq	calloc
	movq	%rax, -64(%rbp)
	cmpq	$0, -64(%rbp)
	jne	.LBB8_6
# %bb.5:                                # %if.then10
	movabsq	$.L.str.12, %rdi
	callq	no_mem_exit
.LBB8_6:                                # %if.end11
	movq	-40(%rbp), %rdi
	movl	$8, %esi
	callq	calloc
	movq	%rax, -72(%rbp)
	cmpq	$0, -72(%rbp)
	jne	.LBB8_8
# %bb.7:                                # %if.then14
	movabsq	$.L.str.13, %rdi
	callq	no_mem_exit
.LBB8_8:                                # %if.end15
	movq	$0, -96(%rbp)
	movq	$0, -8(%rbp)
.LBB8_9:                                # %for.cond
                                        # =>This Inner Loop Header: Depth=1
	movq	-8(%rbp), %rax
	cmpq	total_frame_buffer, %rax
	jae	.LBB8_12
# %bb.10:                               # %for.body
                                        #   in Loop: Header=BB8_9 Depth=1
	movq	-8(%rbp), %rax
	movq	Bit_Buffer(,%rax,8), %rax
	addq	-96(%rbp), %rax
	movq	%rax, -96(%rbp)
# %bb.11:                               # %for.inc
                                        #   in Loop: Header=BB8_9 Depth=1
	movq	-8(%rbp), %rax
	addq	$1, %rax
	movq	%rax, -8(%rbp)
	jmp	.LBB8_9
.LBB8_12:                               # %for.end
	movq	-96(%rbp), %rax
	vcvtsi2ss	%rax, %xmm0, %xmm1
	movq	%rax, %rcx
	shrq	%rcx
	movl	%eax, %edx
	andl	$1, %edx
	orq	%rcx, %rdx
	vcvtsi2ss	%rdx, %xmm0, %xmm0
	vaddss	%xmm0, %xmm0, %xmm0
	testq	%rax, %rax
	js	.LBB8_14
# %bb.13:                               # %for.end
	vmovaps	%xmm1, %xmm0
.LBB8_14:                               # %for.end
	movq	total_frame_buffer(%rip), %rax
	vcvtsi2ss	%rax, %xmm0, %xmm1
	movq	%rax, %rcx
	shrq	%rcx
	movl	%eax, %edx
	andl	$1, %edx
	orq	%rcx, %rdx
	vcvtsi2ss	%rdx, %xmm0, %xmm2
	vaddss	%xmm2, %xmm2, %xmm2
	testq	%rax, %rax
	js	.LBB8_16
# %bb.15:                               # %for.end
	vmovaps	%xmm1, %xmm2
.LBB8_16:                               # %for.end
	vdivss	%xmm2, %xmm0, %xmm0
	vmovss	.LCPI8_0(%rip), %xmm1   # xmm1 = mem[0],zero,zero,zero
	vsubss	%xmm1, %xmm0, %xmm2
	vcvttss2si	%xmm2, %rax
	movabsq	$-9223372036854775808, %rcx # imm = 0x8000000000000000
	xorq	%rcx, %rax
	vcvttss2si	%xmm0, %rcx
	vucomiss	%xmm1, %xmm0
	cmovbq	%rcx, %rax
	movq	%rax, -80(%rbp)
	movq	-40(%rbp), %rdi
	movq	-32(%rbp), %rsi
	callq	get_LeakyBucketRate
	movl	$1, %ecx
	cmpl	%eax, %ecx
	je	.LBB8_29
# %bb.17:                               # %if.then24
	movq	$0, -24(%rbp)
.LBB8_18:                               # %for.cond25
                                        # =>This Inner Loop Header: Depth=1
	movq	-24(%rbp), %rax
	cmpq	-40(%rbp), %rax
	jae	.LBB8_28
# %bb.19:                               # %for.body28
                                        #   in Loop: Header=BB8_18 Depth=1
	cmpq	$0, -24(%rbp)
	jne	.LBB8_23
# %bb.20:                               # %if.then31
                                        #   in Loop: Header=BB8_18 Depth=1
	movq	-80(%rbp), %rax
	vcvtsi2ss	%rax, %xmm0, %xmm0
	movq	%rax, %rcx
	shrq	%rcx
	movl	%eax, %edx
	andl	$1, %edx
	orq	%rcx, %rdx
	vcvtsi2ss	%rdx, %xmm0, %xmm1
	vaddss	%xmm1, %xmm1, %xmm1
	testq	%rax, %rax
	js	.LBB8_22
# %bb.21:                               # %if.then31
                                        #   in Loop: Header=BB8_18 Depth=1
	vmovaps	%xmm0, %xmm1
.LBB8_22:                               # %if.then31
                                        #   in Loop: Header=BB8_18 Depth=1
	movq	img(%rip), %rax
	vmovss	48(%rax), %xmm0         # xmm0 = mem[0],zero,zero,zero
	vmulss	%xmm0, %xmm1, %xmm0
	vmovss	.LCPI8_0(%rip), %xmm1   # xmm1 = mem[0],zero,zero,zero
	vsubss	%xmm1, %xmm0, %xmm2
	vcvttss2si	%xmm2, %rax
	movabsq	$-9223372036854775808, %rcx # imm = 0x8000000000000000
	xorq	%rcx, %rax
	vcvttss2si	%xmm0, %rcx
	vucomiss	%xmm1, %xmm0
	cmovbq	%rcx, %rax
	movq	input, %rcx
	movl	20(%rcx), %ecx
	addl	$1, %ecx
	movslq	%ecx, %rcx
	xorl	%edx, %edx
	divq	%rcx
	movq	-32(%rbp), %rcx
	movq	-24(%rbp), %rdx
	movq	%rax, (%rcx,%rdx,8)
	jmp	.LBB8_26
.LBB8_23:                               # %if.else
                                        #   in Loop: Header=BB8_18 Depth=1
	movq	-32(%rbp), %rax
	movq	-24(%rbp), %rcx
	movq	-8(%rax,%rcx,8), %rax
	movq	%rax, %rcx
	shrq	%rcx
	movl	%eax, %edx
	andl	$1, %edx
	orq	%rcx, %rdx
	vcvtsi2ss	%rdx, %xmm0, %xmm0
	vaddss	%xmm0, %xmm0, %xmm0
	vcvtsi2ss	%rax, %xmm0, %xmm1
	testq	%rax, %rax
	js	.LBB8_25
# %bb.24:                               # %if.else
                                        #   in Loop: Header=BB8_18 Depth=1
	vmovaps	%xmm1, %xmm0
.LBB8_25:                               # %if.else
                                        #   in Loop: Header=BB8_18 Depth=1
	movq	-80(%rbp), %rax
	shrq	$2, %rax
	vcvtsi2ss	%rax, %xmm0, %xmm1
	movq	img(%rip), %rax
	vmovss	48(%rax), %xmm2         # xmm2 = mem[0],zero,zero,zero
	vmulss	%xmm2, %xmm1, %xmm1
	movq	input(%rip), %rax
	movl	20(%rax), %eax
	addl	$1, %eax
	vcvtsi2ss	%eax, %xmm0, %xmm2
	vdivss	%xmm2, %xmm1, %xmm1
	vaddss	%xmm1, %xmm0, %xmm0
	vmovss	.LCPI8_0(%rip), %xmm1   # xmm1 = mem[0],zero,zero,zero
	vsubss	%xmm1, %xmm0, %xmm2
	vcvttss2si	%xmm2, %rax
	movabsq	$-9223372036854775808, %rcx # imm = 0x8000000000000000
	xorq	%rcx, %rax
	vcvttss2si	%xmm0, %rcx
	vucomiss	%xmm1, %xmm0
	cmovbq	%rcx, %rax
	movq	-32(%rbp), %rcx
	movq	-24(%rbp), %rdx
	movq	%rax, (%rcx,%rdx,8)
.LBB8_26:                               # %if.end51
                                        #   in Loop: Header=BB8_18 Depth=1
	jmp	.LBB8_27
.LBB8_27:                               # %for.inc52
                                        #   in Loop: Header=BB8_18 Depth=1
	movq	-24(%rbp), %rax
	addq	$1, %rax
	movq	%rax, -24(%rbp)
	jmp	.LBB8_18
.LBB8_28:                               # %for.end54
	jmp	.LBB8_29
.LBB8_29:                               # %if.end55
	movq	-40(%rbp), %rdi
	movq	-32(%rbp), %rsi
	callq	Sort
	imulq	$20, -80(%rbp), %rax
	movq	%rax, -56(%rbp)
	movq	$0, -24(%rbp)
.LBB8_30:                               # %for.cond57
                                        # =>This Loop Header: Depth=1
                                        #     Child Loop BB8_34 Depth 2
                                        #     Child Loop BB8_42 Depth 2
	movq	-24(%rbp), %rax
	cmpq	-40(%rbp), %rax
	jae	.LBB8_52
# %bb.31:                               # %for.body60
                                        #   in Loop: Header=BB8_30 Depth=1
	movq	-32(%rbp), %rax
	movq	-24(%rbp), %rcx
	movq	(%rax,%rcx,8), %rax
	movq	input(%rip), %rcx
	movl	20(%rcx), %ecx
	addl	$1, %ecx
	movslq	%ecx, %rcx
	imulq	%rcx, %rax
	movq	%rax, %rcx
	shrq	%rcx
	movl	%eax, %edx
	andl	$1, %edx
	orq	%rcx, %rdx
	vcvtsi2ss	%rdx, %xmm0, %xmm0
	vaddss	%xmm0, %xmm0, %xmm0
	vcvtsi2ss	%rax, %xmm0, %xmm1
	testq	%rax, %rax
	js	.LBB8_33
# %bb.32:                               # %for.body60
                                        #   in Loop: Header=BB8_30 Depth=1
	vmovaps	%xmm1, %xmm0
.LBB8_33:                               # %for.body60
                                        #   in Loop: Header=BB8_30 Depth=1
	movq	img, %rax
	vdivss	48(%rax), %xmm0, %xmm0
	vcvttss2si	%xmm0, %rax
	movq	%rax, -128(%rbp)
	movq	-56(%rbp), %rax
	movq	%rax, -48(%rbp)
	movq	-48(%rbp), %rax
	movq	-16(%rbp), %rcx
	movq	%rax, (%rcx)
	movq	-56(%rbp), %rax
	movq	%rax, -88(%rbp)
	movq	$0, -8(%rbp)
.LBB8_34:                               # %for.cond71
                                        #   Parent Loop BB8_30 Depth=1
                                        # =>  This Inner Loop Header: Depth=2
	movq	-8(%rbp), %rax
	cmpq	total_frame_buffer, %rax
	jae	.LBB8_41
# %bb.35:                               # %for.body74
                                        #   in Loop: Header=BB8_34 Depth=2
	movq	-16(%rbp), %rax
	movq	-8(%rbp), %rcx
	movq	(%rax,%rcx,8), %rax
	movq	-8(%rbp), %rcx
	subq	Bit_Buffer(,%rcx,8), %rax
	movq	-16(%rbp), %rcx
	movq	-8(%rbp), %rdx
	movq	%rax, (%rcx,%rdx,8)
	movq	-16(%rbp), %rax
	movq	-8(%rbp), %rcx
	movq	(%rax,%rcx,8), %rax
	cmpq	-88(%rbp), %rax
	jge	.LBB8_37
# %bb.36:                               # %if.then82
                                        #   in Loop: Header=BB8_34 Depth=2
	movq	-16(%rbp), %rax
	movq	-8(%rbp), %rcx
	movq	(%rax,%rcx,8), %rax
	movq	%rax, -88(%rbp)
	movq	-8(%rbp), %rax
	movq	%rax, -112(%rbp)
.LBB8_37:                               # %if.end84
                                        #   in Loop: Header=BB8_34 Depth=2
	movq	-16(%rbp), %rax
	movq	-8(%rbp), %rcx
	movq	(%rax,%rcx,8), %rax
	addq	-128(%rbp), %rax
	movq	-16(%rbp), %rcx
	movq	-8(%rbp), %rdx
	movq	%rax, 8(%rcx,%rdx,8)
	movq	-16(%rbp), %rax
	movq	-8(%rbp), %rcx
	movq	8(%rax,%rcx,8), %rax
	cmpq	-56(%rbp), %rax
	jle	.LBB8_39
# %bb.38:                               # %if.then93
                                        #   in Loop: Header=BB8_34 Depth=2
	movq	-56(%rbp), %rax
	movq	-16(%rbp), %rcx
	movq	-8(%rbp), %rdx
	movq	%rax, 8(%rcx,%rdx,8)
.LBB8_39:                               # %if.end96
                                        #   in Loop: Header=BB8_34 Depth=2
	jmp	.LBB8_40
.LBB8_40:                               # %for.inc97
                                        #   in Loop: Header=BB8_34 Depth=2
	movq	-8(%rbp), %rax
	addq	$1, %rax
	movq	%rax, -8(%rbp)
	jmp	.LBB8_34
.LBB8_41:                               # %for.end99
                                        #   in Loop: Header=BB8_30 Depth=1
	movq	-56(%rbp), %rax
	subq	-88(%rbp), %rax
	movq	%rax, -120(%rbp)
	movq	Bit_Buffer, %rax
	movq	%rax, -48(%rbp)
	movq	-48(%rbp), %rax
	movq	-16(%rbp), %rcx
	movq	%rax, (%rcx)
	movq	$0, -8(%rbp)
.LBB8_42:                               # %for.cond102
                                        #   Parent Loop BB8_30 Depth=1
                                        # =>  This Inner Loop Header: Depth=2
	movq	-8(%rbp), %rax
	movq	-112(%rbp), %rcx
	addq	$1, %rcx
	cmpq	%rcx, %rax
	jae	.LBB8_49
# %bb.43:                               # %for.body106
                                        #   in Loop: Header=BB8_42 Depth=2
	movq	-16(%rbp), %rax
	movq	-8(%rbp), %rcx
	movq	(%rax,%rcx,8), %rax
	movq	-8(%rbp), %rcx
	subq	Bit_Buffer(,%rcx,8), %rax
	movq	-16(%rbp), %rcx
	movq	-8(%rbp), %rdx
	movq	%rax, (%rcx,%rdx,8)
	movq	-16(%rbp), %rax
	movq	-8(%rbp), %rcx
	cmpq	$0, (%rax,%rcx,8)
	jge	.LBB8_45
# %bb.44:                               # %if.then114
                                        #   in Loop: Header=BB8_42 Depth=2
	movq	-16(%rbp), %rax
	movq	-8(%rbp), %rcx
	movq	(%rax,%rcx,8), %rax
	movq	-48(%rbp), %rcx
	subq	%rax, %rcx
	movq	%rcx, -48(%rbp)
	movq	-16(%rbp), %rax
	movq	-8(%rbp), %rcx
	movq	$0, (%rax,%rcx,8)
.LBB8_45:                               # %if.end118
                                        #   in Loop: Header=BB8_42 Depth=2
	movq	-16(%rbp), %rax
	movq	-8(%rbp), %rcx
	movq	(%rax,%rcx,8), %rax
	addq	-128(%rbp), %rax
	movq	-16(%rbp), %rcx
	movq	-8(%rbp), %rdx
	movq	%rax, 8(%rcx,%rdx,8)
	movq	-16(%rbp), %rax
	movq	-8(%rbp), %rcx
	movq	8(%rax,%rcx,8), %rax
	cmpq	-120(%rbp), %rax
	jle	.LBB8_47
# %bb.46:                               # %if.then127
                                        #   in Loop: Header=BB8_30 Depth=1
	jmp	.LBB8_50
.LBB8_47:                               # %if.end128
                                        #   in Loop: Header=BB8_42 Depth=2
	jmp	.LBB8_48
.LBB8_48:                               # %for.inc129
                                        #   in Loop: Header=BB8_42 Depth=2
	movq	-8(%rbp), %rax
	addq	$1, %rax
	movq	%rax, -8(%rbp)
	jmp	.LBB8_42
.LBB8_49:                               # %for.end131.loopexit
                                        #   in Loop: Header=BB8_30 Depth=1
	jmp	.LBB8_50
.LBB8_50:                               # %for.end131
                                        #   in Loop: Header=BB8_30 Depth=1
	movq	-120(%rbp), %rax
	movq	-64(%rbp), %rcx
	movq	-24(%rbp), %rdx
	movq	%rax, (%rcx,%rdx,8)
	movq	-48(%rbp), %rax
	movq	-72(%rbp), %rcx
	movq	-24(%rbp), %rdx
	movq	%rax, (%rcx,%rdx,8)
# %bb.51:                               # %for.inc134
                                        #   in Loop: Header=BB8_30 Depth=1
	movq	-24(%rbp), %rax
	addq	$1, %rax
	movq	%rax, -24(%rbp)
	jmp	.LBB8_30
.LBB8_52:                               # %for.end136
	movq	-40(%rbp), %rdi
	movq	-32(%rbp), %rsi
	movq	-64(%rbp), %rdx
	movq	-72(%rbp), %rcx
	callq	write_buffer
	movq	-16(%rbp), %rdi
	callq	free
	movq	-32(%rbp), %rdi
	callq	free
	movq	-64(%rbp), %rdi
	callq	free
	movq	-72(%rbp), %rdi
	callq	free
	cmpl	$577144376, -100(%rbp)  # imm = 0x22668638
	jne	.LBB8_54
.LBB8_53:
	addq	$128, %rsp
	popq	%rbp
	.cfi_def_cfa %rsp, 8
	retq
.LBB8_54:                               # %func_exit
	.cfi_def_cfa %rbp, 16
	callq	detect_breach
	jmp	.LBB8_53
.Lfunc_end8:
	.size	calc_buffer.4, .Lfunc_end8-calc_buffer.4
	.cfi_endproc
                                        # -- End function
	.globl	get_LeakyBucketRate.5   # -- Begin function get_LeakyBucketRate.5
	.p2align	4, 0x90
	.type	get_LeakyBucketRate.5,@function
get_LeakyBucketRate.5:                  # @get_LeakyBucketRate.5
	.cfi_startproc
# %bb.0:                                # %entry
	pushq	%rbp
	.cfi_def_cfa_offset 16
	.cfi_offset %rbp, -16
	movq	%rsp, %rbp
	.cfi_def_cfa_register %rbp
	pushq	%rbx
	subq	$56, %rsp
	.cfi_offset %rbx, -24
	movl	$448128347, -36(%rbp)   # imm = 0x1AB5E55B
	movq	%rdi, -48(%rbp)
	movq	%rsi, -64(%rbp)
	movq	input, %rdi
	addq	$2480, %rdi             # imm = 0x9B0
	movabsq	$.L.str, %rsi
	callq	fopen
	movq	%rax, -32(%rbp)
	cmpq	$0, %rax
	jne	.LBB9_2
# %bb.1:                                # %if.then
	movabsq	$.L.str.1, %rdi
	movb	$0, %al
	callq	printf
	movl	$0, -12(%rbp)
	jmp	.LBB9_9
.LBB9_2:                                # %if.end
	movq	$0, -24(%rbp)
.LBB9_3:                                # %for.cond
                                        # =>This Inner Loop Header: Depth=1
	movq	-24(%rbp), %rax
	cmpq	-48(%rbp), %rax
	jae	.LBB9_8
# %bb.4:                                # %for.body
                                        #   in Loop: Header=BB9_3 Depth=1
	movq	-32(%rbp), %rdi
	movabsq	$.L.str.2, %rsi
	leaq	-56(%rbp), %rdx
	movb	$0, %al
	callq	__isoc99_fscanf
	movl	$1, %ecx
	cmpl	%eax, %ecx
	je	.LBB9_6
# %bb.5:                                # %if.then5
	movabsq	$.L.str.3, %rdi
	movb	$0, %al
	callq	printf
	movq	-32(%rbp), %rdi
	callq	fclose
	movl	$0, -12(%rbp)
	jmp	.LBB9_9
.LBB9_6:                                # %if.end8
                                        #   in Loop: Header=BB9_3 Depth=1
	movq	-56(%rbp), %rax
	movq	-64(%rbp), %rcx
	movq	-24(%rbp), %rdx
	movq	%rax, (%rcx,%rdx,8)
# %bb.7:                                # %for.inc
                                        #   in Loop: Header=BB9_3 Depth=1
	movq	-24(%rbp), %rax
	addq	$1, %rax
	movq	%rax, -24(%rbp)
	jmp	.LBB9_3
.LBB9_8:                                # %for.end
	movq	-32(%rbp), %rdi
	callq	fclose
	movl	$1, -12(%rbp)
.LBB9_9:                                # %return
	movl	-12(%rbp), %ebx
	cmpl	$448128347, -36(%rbp)   # imm = 0x1AB5E55B
	jne	.LBB9_11
.LBB9_10:
	movl	%ebx, %eax
	addq	$56, %rsp
	popq	%rbx
	popq	%rbp
	.cfi_def_cfa %rsp, 8
	retq
.LBB9_11:                               # %func_exit
	.cfi_def_cfa %rbp, 16
	callq	detect_breach
	jmp	.LBB9_10
.Lfunc_end9:
	.size	get_LeakyBucketRate.5, .Lfunc_end9-get_LeakyBucketRate.5
	.cfi_endproc
                                        # -- End function
	.globl	PutBigDoubleWord.6      # -- Begin function PutBigDoubleWord.6
	.p2align	4, 0x90
	.type	PutBigDoubleWord.6,@function
PutBigDoubleWord.6:                     # @PutBigDoubleWord.6
	.cfi_startproc
# %bb.0:                                # %entry
	pushq	%rbp
	.cfi_def_cfa_offset 16
	.cfi_offset %rbp, -16
	movq	%rsp, %rbp
	.cfi_def_cfa_register %rbp
	subq	$32, %rsp
	movl	$1904204081, -20(%rbp)  # imm = 0x717FD931
	movq	%rdi, -16(%rbp)
	movq	%rsi, -8(%rbp)
	movq	-16(%rbp), %rdi
	shrq	$24, %rdi
	andq	$255, %rdi
	movq	-8(%rbp), %rsi
                                        # kill: def $edi killed $edi killed $rdi
	callq	fputc
	movq	-16(%rbp), %rdi
	shrq	$16, %rdi
	andq	$255, %rdi
	movq	-8(%rbp), %rsi
                                        # kill: def $edi killed $edi killed $rdi
	callq	fputc
	movq	-16(%rbp), %rdi
	shrq	$8, %rdi
	andq	$255, %rdi
	movq	-8(%rbp), %rsi
                                        # kill: def $edi killed $edi killed $rdi
	callq	fputc
	movq	-16(%rbp), %rdi
	andq	$255, %rdi
	movq	-8(%rbp), %rsi
                                        # kill: def $edi killed $edi killed $rdi
	callq	fputc
	cmpl	$1904204081, -20(%rbp)  # imm = 0x717FD931
	jne	.LBB10_2
.LBB10_1:
	addq	$32, %rsp
	popq	%rbp
	.cfi_def_cfa %rsp, 8
	retq
.LBB10_2:                               # %func_exit
	.cfi_def_cfa %rbp, 16
	callq	detect_breach
	jmp	.LBB10_1
.Lfunc_end10:
	.size	PutBigDoubleWord.6, .Lfunc_end10-PutBigDoubleWord.6
	.cfi_endproc
                                        # -- End function
	.section	.rodata.cst4,"aM",@progbits,4
	.p2align	2               # -- Begin function calc_buffer.7
.LCPI11_0:
	.long	1593835520              # float 9.22337203E+18
	.text
	.globl	calc_buffer.7
	.p2align	4, 0x90
	.type	calc_buffer.7,@function
calc_buffer.7:                          # @calc_buffer.7
	.cfi_startproc
# %bb.0:                                # %entry
	pushq	%rbp
	.cfi_def_cfa_offset 16
	.cfi_offset %rbp, -16
	movq	%rsp, %rbp
	.cfi_def_cfa_register %rbp
	subq	$128, %rsp
	movl	$1549618185, -100(%rbp) # imm = 0x5C5D4C09
	movq	$0, -128(%rbp)
	movq	stdout, %rdi
	movabsq	$.L.str.8, %rsi
	movb	$0, %al
	callq	fprintf
	movq	total_frame_buffer, %rsi
	movq	input, %rax
	movl	8(%rax), %edx
	movabsq	$.L.str.9, %rdi
	movb	$0, %al
	callq	printf
	movq	input, %rax
	movslq	2476(%rax), %rax
	movq	%rax, -40(%rbp)
	movq	total_frame_buffer, %rdi
	addq	$1, %rdi
	movl	$8, %esi
	callq	calloc
	movq	%rax, -16(%rbp)
	cmpq	$0, -16(%rbp)
	jne	.LBB11_2
# %bb.1:                                # %if.then
	movabsq	$.L.str.10, %rdi
	callq	no_mem_exit
.LBB11_2:                               # %if.end
	movq	-40(%rbp), %rdi
	movl	$8, %esi
	callq	calloc
	movq	%rax, -32(%rbp)
	cmpq	$0, -32(%rbp)
	jne	.LBB11_4
# %bb.3:                                # %if.then6
	movabsq	$.L.str.11, %rdi
	callq	no_mem_exit
.LBB11_4:                               # %if.end7
	movq	-40(%rbp), %rdi
	movl	$8, %esi
	callq	calloc
	movq	%rax, -64(%rbp)
	cmpq	$0, -64(%rbp)
	jne	.LBB11_6
# %bb.5:                                # %if.then10
	movabsq	$.L.str.12, %rdi
	callq	no_mem_exit
.LBB11_6:                               # %if.end11
	movq	-40(%rbp), %rdi
	movl	$8, %esi
	callq	calloc
	movq	%rax, -72(%rbp)
	cmpq	$0, -72(%rbp)
	jne	.LBB11_8
# %bb.7:                                # %if.then14
	movabsq	$.L.str.13, %rdi
	callq	no_mem_exit
.LBB11_8:                               # %if.end15
	movq	$0, -96(%rbp)
	movq	$0, -8(%rbp)
.LBB11_9:                               # %for.cond
                                        # =>This Inner Loop Header: Depth=1
	movq	-8(%rbp), %rax
	cmpq	total_frame_buffer, %rax
	jae	.LBB11_12
# %bb.10:                               # %for.body
                                        #   in Loop: Header=BB11_9 Depth=1
	movq	-8(%rbp), %rax
	movq	Bit_Buffer(,%rax,8), %rax
	addq	-96(%rbp), %rax
	movq	%rax, -96(%rbp)
# %bb.11:                               # %for.inc
                                        #   in Loop: Header=BB11_9 Depth=1
	movq	-8(%rbp), %rax
	addq	$1, %rax
	movq	%rax, -8(%rbp)
	jmp	.LBB11_9
.LBB11_12:                              # %for.end
	movq	-96(%rbp), %rax
	vcvtsi2ss	%rax, %xmm0, %xmm1
	movq	%rax, %rcx
	shrq	%rcx
	movl	%eax, %edx
	andl	$1, %edx
	orq	%rcx, %rdx
	vcvtsi2ss	%rdx, %xmm0, %xmm0
	vaddss	%xmm0, %xmm0, %xmm0
	testq	%rax, %rax
	js	.LBB11_14
# %bb.13:                               # %for.end
	vmovaps	%xmm1, %xmm0
.LBB11_14:                              # %for.end
	movq	total_frame_buffer(%rip), %rax
	vcvtsi2ss	%rax, %xmm0, %xmm1
	movq	%rax, %rcx
	shrq	%rcx
	movl	%eax, %edx
	andl	$1, %edx
	orq	%rcx, %rdx
	vcvtsi2ss	%rdx, %xmm0, %xmm2
	vaddss	%xmm2, %xmm2, %xmm2
	testq	%rax, %rax
	js	.LBB11_16
# %bb.15:                               # %for.end
	vmovaps	%xmm1, %xmm2
.LBB11_16:                              # %for.end
	vdivss	%xmm2, %xmm0, %xmm0
	vmovss	.LCPI11_0(%rip), %xmm1  # xmm1 = mem[0],zero,zero,zero
	vsubss	%xmm1, %xmm0, %xmm2
	vcvttss2si	%xmm2, %rax
	movabsq	$-9223372036854775808, %rcx # imm = 0x8000000000000000
	xorq	%rcx, %rax
	vcvttss2si	%xmm0, %rcx
	vucomiss	%xmm1, %xmm0
	cmovbq	%rcx, %rax
	movq	%rax, -80(%rbp)
	movq	-40(%rbp), %rdi
	movq	-32(%rbp), %rsi
	callq	get_LeakyBucketRate
	movl	$1, %ecx
	cmpl	%eax, %ecx
	je	.LBB11_29
# %bb.17:                               # %if.then24
	movq	$0, -24(%rbp)
.LBB11_18:                              # %for.cond25
                                        # =>This Inner Loop Header: Depth=1
	movq	-24(%rbp), %rax
	cmpq	-40(%rbp), %rax
	jae	.LBB11_28
# %bb.19:                               # %for.body28
                                        #   in Loop: Header=BB11_18 Depth=1
	cmpq	$0, -24(%rbp)
	jne	.LBB11_23
# %bb.20:                               # %if.then31
                                        #   in Loop: Header=BB11_18 Depth=1
	movq	-80(%rbp), %rax
	vcvtsi2ss	%rax, %xmm0, %xmm0
	movq	%rax, %rcx
	shrq	%rcx
	movl	%eax, %edx
	andl	$1, %edx
	orq	%rcx, %rdx
	vcvtsi2ss	%rdx, %xmm0, %xmm1
	vaddss	%xmm1, %xmm1, %xmm1
	testq	%rax, %rax
	js	.LBB11_22
# %bb.21:                               # %if.then31
                                        #   in Loop: Header=BB11_18 Depth=1
	vmovaps	%xmm0, %xmm1
.LBB11_22:                              # %if.then31
                                        #   in Loop: Header=BB11_18 Depth=1
	movq	img(%rip), %rax
	vmovss	48(%rax), %xmm0         # xmm0 = mem[0],zero,zero,zero
	vmulss	%xmm0, %xmm1, %xmm0
	vmovss	.LCPI11_0(%rip), %xmm1  # xmm1 = mem[0],zero,zero,zero
	vsubss	%xmm1, %xmm0, %xmm2
	vcvttss2si	%xmm2, %rax
	movabsq	$-9223372036854775808, %rcx # imm = 0x8000000000000000
	xorq	%rcx, %rax
	vcvttss2si	%xmm0, %rcx
	vucomiss	%xmm1, %xmm0
	cmovbq	%rcx, %rax
	movq	input, %rcx
	movl	20(%rcx), %ecx
	addl	$1, %ecx
	movslq	%ecx, %rcx
	xorl	%edx, %edx
	divq	%rcx
	movq	-32(%rbp), %rcx
	movq	-24(%rbp), %rdx
	movq	%rax, (%rcx,%rdx,8)
	jmp	.LBB11_26
.LBB11_23:                              # %if.else
                                        #   in Loop: Header=BB11_18 Depth=1
	movq	-32(%rbp), %rax
	movq	-24(%rbp), %rcx
	movq	-8(%rax,%rcx,8), %rax
	movq	%rax, %rcx
	shrq	%rcx
	movl	%eax, %edx
	andl	$1, %edx
	orq	%rcx, %rdx
	vcvtsi2ss	%rdx, %xmm0, %xmm0
	vaddss	%xmm0, %xmm0, %xmm0
	vcvtsi2ss	%rax, %xmm0, %xmm1
	testq	%rax, %rax
	js	.LBB11_25
# %bb.24:                               # %if.else
                                        #   in Loop: Header=BB11_18 Depth=1
	vmovaps	%xmm1, %xmm0
.LBB11_25:                              # %if.else
                                        #   in Loop: Header=BB11_18 Depth=1
	movq	-80(%rbp), %rax
	shrq	$2, %rax
	vcvtsi2ss	%rax, %xmm0, %xmm1
	movq	img(%rip), %rax
	vmovss	48(%rax), %xmm2         # xmm2 = mem[0],zero,zero,zero
	vmulss	%xmm2, %xmm1, %xmm1
	movq	input(%rip), %rax
	movl	20(%rax), %eax
	addl	$1, %eax
	vcvtsi2ss	%eax, %xmm0, %xmm2
	vdivss	%xmm2, %xmm1, %xmm1
	vaddss	%xmm1, %xmm0, %xmm0
	vmovss	.LCPI11_0(%rip), %xmm1  # xmm1 = mem[0],zero,zero,zero
	vsubss	%xmm1, %xmm0, %xmm2
	vcvttss2si	%xmm2, %rax
	movabsq	$-9223372036854775808, %rcx # imm = 0x8000000000000000
	xorq	%rcx, %rax
	vcvttss2si	%xmm0, %rcx
	vucomiss	%xmm1, %xmm0
	cmovbq	%rcx, %rax
	movq	-32(%rbp), %rcx
	movq	-24(%rbp), %rdx
	movq	%rax, (%rcx,%rdx,8)
.LBB11_26:                              # %if.end51
                                        #   in Loop: Header=BB11_18 Depth=1
	jmp	.LBB11_27
.LBB11_27:                              # %for.inc52
                                        #   in Loop: Header=BB11_18 Depth=1
	movq	-24(%rbp), %rax
	addq	$1, %rax
	movq	%rax, -24(%rbp)
	jmp	.LBB11_18
.LBB11_28:                              # %for.end54
	jmp	.LBB11_29
.LBB11_29:                              # %if.end55
	movq	-40(%rbp), %rdi
	movq	-32(%rbp), %rsi
	callq	Sort
	imulq	$20, -80(%rbp), %rax
	movq	%rax, -56(%rbp)
	movq	$0, -24(%rbp)
.LBB11_30:                              # %for.cond57
                                        # =>This Loop Header: Depth=1
                                        #     Child Loop BB11_34 Depth 2
                                        #     Child Loop BB11_42 Depth 2
	movq	-24(%rbp), %rax
	cmpq	-40(%rbp), %rax
	jae	.LBB11_52
# %bb.31:                               # %for.body60
                                        #   in Loop: Header=BB11_30 Depth=1
	movq	-32(%rbp), %rax
	movq	-24(%rbp), %rcx
	movq	(%rax,%rcx,8), %rax
	movq	input(%rip), %rcx
	movl	20(%rcx), %ecx
	addl	$1, %ecx
	movslq	%ecx, %rcx
	imulq	%rcx, %rax
	movq	%rax, %rcx
	shrq	%rcx
	movl	%eax, %edx
	andl	$1, %edx
	orq	%rcx, %rdx
	vcvtsi2ss	%rdx, %xmm0, %xmm0
	vaddss	%xmm0, %xmm0, %xmm0
	vcvtsi2ss	%rax, %xmm0, %xmm1
	testq	%rax, %rax
	js	.LBB11_33
# %bb.32:                               # %for.body60
                                        #   in Loop: Header=BB11_30 Depth=1
	vmovaps	%xmm1, %xmm0
.LBB11_33:                              # %for.body60
                                        #   in Loop: Header=BB11_30 Depth=1
	movq	img, %rax
	vdivss	48(%rax), %xmm0, %xmm0
	vcvttss2si	%xmm0, %rax
	movq	%rax, -112(%rbp)
	movq	-56(%rbp), %rax
	movq	%rax, -48(%rbp)
	movq	-48(%rbp), %rax
	movq	-16(%rbp), %rcx
	movq	%rax, (%rcx)
	movq	-56(%rbp), %rax
	movq	%rax, -88(%rbp)
	movq	$0, -8(%rbp)
.LBB11_34:                              # %for.cond71
                                        #   Parent Loop BB11_30 Depth=1
                                        # =>  This Inner Loop Header: Depth=2
	movq	-8(%rbp), %rax
	cmpq	total_frame_buffer, %rax
	jae	.LBB11_41
# %bb.35:                               # %for.body74
                                        #   in Loop: Header=BB11_34 Depth=2
	movq	-16(%rbp), %rax
	movq	-8(%rbp), %rcx
	movq	(%rax,%rcx,8), %rax
	movq	-8(%rbp), %rcx
	subq	Bit_Buffer(,%rcx,8), %rax
	movq	-16(%rbp), %rcx
	movq	-8(%rbp), %rdx
	movq	%rax, (%rcx,%rdx,8)
	movq	-16(%rbp), %rax
	movq	-8(%rbp), %rcx
	movq	(%rax,%rcx,8), %rax
	cmpq	-88(%rbp), %rax
	jge	.LBB11_37
# %bb.36:                               # %if.then82
                                        #   in Loop: Header=BB11_34 Depth=2
	movq	-16(%rbp), %rax
	movq	-8(%rbp), %rcx
	movq	(%rax,%rcx,8), %rax
	movq	%rax, -88(%rbp)
	movq	-8(%rbp), %rax
	movq	%rax, -128(%rbp)
.LBB11_37:                              # %if.end84
                                        #   in Loop: Header=BB11_34 Depth=2
	movq	-16(%rbp), %rax
	movq	-8(%rbp), %rcx
	movq	(%rax,%rcx,8), %rax
	addq	-112(%rbp), %rax
	movq	-16(%rbp), %rcx
	movq	-8(%rbp), %rdx
	movq	%rax, 8(%rcx,%rdx,8)
	movq	-16(%rbp), %rax
	movq	-8(%rbp), %rcx
	movq	8(%rax,%rcx,8), %rax
	cmpq	-56(%rbp), %rax
	jle	.LBB11_39
# %bb.38:                               # %if.then93
                                        #   in Loop: Header=BB11_34 Depth=2
	movq	-56(%rbp), %rax
	movq	-16(%rbp), %rcx
	movq	-8(%rbp), %rdx
	movq	%rax, 8(%rcx,%rdx,8)
.LBB11_39:                              # %if.end96
                                        #   in Loop: Header=BB11_34 Depth=2
	jmp	.LBB11_40
.LBB11_40:                              # %for.inc97
                                        #   in Loop: Header=BB11_34 Depth=2
	movq	-8(%rbp), %rax
	addq	$1, %rax
	movq	%rax, -8(%rbp)
	jmp	.LBB11_34
.LBB11_41:                              # %for.end99
                                        #   in Loop: Header=BB11_30 Depth=1
	movq	-56(%rbp), %rax
	subq	-88(%rbp), %rax
	movq	%rax, -120(%rbp)
	movq	Bit_Buffer, %rax
	movq	%rax, -48(%rbp)
	movq	-48(%rbp), %rax
	movq	-16(%rbp), %rcx
	movq	%rax, (%rcx)
	movq	$0, -8(%rbp)
.LBB11_42:                              # %for.cond102
                                        #   Parent Loop BB11_30 Depth=1
                                        # =>  This Inner Loop Header: Depth=2
	movq	-8(%rbp), %rax
	movq	-128(%rbp), %rcx
	addq	$1, %rcx
	cmpq	%rcx, %rax
	jae	.LBB11_49
# %bb.43:                               # %for.body106
                                        #   in Loop: Header=BB11_42 Depth=2
	movq	-16(%rbp), %rax
	movq	-8(%rbp), %rcx
	movq	(%rax,%rcx,8), %rax
	movq	-8(%rbp), %rcx
	subq	Bit_Buffer(,%rcx,8), %rax
	movq	-16(%rbp), %rcx
	movq	-8(%rbp), %rdx
	movq	%rax, (%rcx,%rdx,8)
	movq	-16(%rbp), %rax
	movq	-8(%rbp), %rcx
	cmpq	$0, (%rax,%rcx,8)
	jge	.LBB11_45
# %bb.44:                               # %if.then114
                                        #   in Loop: Header=BB11_42 Depth=2
	movq	-16(%rbp), %rax
	movq	-8(%rbp), %rcx
	movq	(%rax,%rcx,8), %rax
	movq	-48(%rbp), %rcx
	subq	%rax, %rcx
	movq	%rcx, -48(%rbp)
	movq	-16(%rbp), %rax
	movq	-8(%rbp), %rcx
	movq	$0, (%rax,%rcx,8)
.LBB11_45:                              # %if.end118
                                        #   in Loop: Header=BB11_42 Depth=2
	movq	-16(%rbp), %rax
	movq	-8(%rbp), %rcx
	movq	(%rax,%rcx,8), %rax
	addq	-112(%rbp), %rax
	movq	-16(%rbp), %rcx
	movq	-8(%rbp), %rdx
	movq	%rax, 8(%rcx,%rdx,8)
	movq	-16(%rbp), %rax
	movq	-8(%rbp), %rcx
	movq	8(%rax,%rcx,8), %rax
	cmpq	-120(%rbp), %rax
	jle	.LBB11_47
# %bb.46:                               # %if.then127
                                        #   in Loop: Header=BB11_30 Depth=1
	jmp	.LBB11_50
.LBB11_47:                              # %if.end128
                                        #   in Loop: Header=BB11_42 Depth=2
	jmp	.LBB11_48
.LBB11_48:                              # %for.inc129
                                        #   in Loop: Header=BB11_42 Depth=2
	movq	-8(%rbp), %rax
	addq	$1, %rax
	movq	%rax, -8(%rbp)
	jmp	.LBB11_42
.LBB11_49:                              # %for.end131.loopexit
                                        #   in Loop: Header=BB11_30 Depth=1
	jmp	.LBB11_50
.LBB11_50:                              # %for.end131
                                        #   in Loop: Header=BB11_30 Depth=1
	movq	-120(%rbp), %rax
	movq	-64(%rbp), %rcx
	movq	-24(%rbp), %rdx
	movq	%rax, (%rcx,%rdx,8)
	movq	-48(%rbp), %rax
	movq	-72(%rbp), %rcx
	movq	-24(%rbp), %rdx
	movq	%rax, (%rcx,%rdx,8)
# %bb.51:                               # %for.inc134
                                        #   in Loop: Header=BB11_30 Depth=1
	movq	-24(%rbp), %rax
	addq	$1, %rax
	movq	%rax, -24(%rbp)
	jmp	.LBB11_30
.LBB11_52:                              # %for.end136
	movq	-40(%rbp), %rdi
	movq	-32(%rbp), %rsi
	movq	-64(%rbp), %rdx
	movq	-72(%rbp), %rcx
	callq	write_buffer
	movq	-16(%rbp), %rdi
	callq	free
	movq	-32(%rbp), %rdi
	callq	free
	movq	-64(%rbp), %rdi
	callq	free
	movq	-72(%rbp), %rdi
	callq	free
	cmpl	$1549618185, -100(%rbp) # imm = 0x5C5D4C09
	jne	.LBB11_54
.LBB11_53:
	addq	$128, %rsp
	popq	%rbp
	.cfi_def_cfa %rsp, 8
	retq
.LBB11_54:                              # %func_exit
	.cfi_def_cfa %rbp, 16
	callq	detect_breach
	jmp	.LBB11_53
.Lfunc_end11:
	.size	calc_buffer.7, .Lfunc_end11-calc_buffer.7
	.cfi_endproc
                                        # -- End function
	.globl	PutBigDoubleWord.8      # -- Begin function PutBigDoubleWord.8
	.p2align	4, 0x90
	.type	PutBigDoubleWord.8,@function
PutBigDoubleWord.8:                     # @PutBigDoubleWord.8
	.cfi_startproc
# %bb.0:                                # %entry
	pushq	%rbp
	.cfi_def_cfa_offset 16
	.cfi_offset %rbp, -16
	movq	%rsp, %rbp
	.cfi_def_cfa_register %rbp
	subq	$32, %rsp
	movl	$131668140, -20(%rbp)   # imm = 0x7D918AC
	movq	%rdi, -8(%rbp)
	movq	%rsi, -16(%rbp)
	movq	-8(%rbp), %rdi
	shrq	$24, %rdi
	andq	$255, %rdi
	movq	-16(%rbp), %rsi
                                        # kill: def $edi killed $edi killed $rdi
	callq	fputc
	movq	-8(%rbp), %rdi
	shrq	$16, %rdi
	andq	$255, %rdi
	movq	-16(%rbp), %rsi
                                        # kill: def $edi killed $edi killed $rdi
	callq	fputc
	movq	-8(%rbp), %rdi
	shrq	$8, %rdi
	andq	$255, %rdi
	movq	-16(%rbp), %rsi
                                        # kill: def $edi killed $edi killed $rdi
	callq	fputc
	movq	-8(%rbp), %rdi
	andq	$255, %rdi
	movq	-16(%rbp), %rsi
                                        # kill: def $edi killed $edi killed $rdi
	callq	fputc
	cmpl	$131668140, -20(%rbp)   # imm = 0x7D918AC
	jne	.LBB12_2
.LBB12_1:
	addq	$32, %rsp
	popq	%rbp
	.cfi_def_cfa %rsp, 8
	retq
.LBB12_2:                               # %func_exit
	.cfi_def_cfa %rbp, 16
	callq	detect_breach
	jmp	.LBB12_1
.Lfunc_end12:
	.size	PutBigDoubleWord.8, .Lfunc_end12-PutBigDoubleWord.8
	.cfi_endproc
                                        # -- End function
	.globl	write_buffer.9          # -- Begin function write_buffer.9
	.p2align	4, 0x90
	.type	write_buffer.9,@function
write_buffer.9:                         # @write_buffer.9
	.cfi_startproc
# %bb.0:                                # %entry
	pushq	%rbp
	.cfi_def_cfa_offset 16
	.cfi_offset %rbp, -16
	movq	%rsp, %rbp
	.cfi_def_cfa_register %rbp
	subq	$64, %rsp
	movl	$564196894, -28(%rbp)   # imm = 0x21A0F61E
	movq	%rdi, -24(%rbp)
	movq	%rsi, -40(%rbp)
	movq	%rdx, -56(%rbp)
	movq	%rcx, -48(%rbp)
	movq	input, %rdi
	addq	$2680, %rdi             # imm = 0xA78
	movabsq	$.L.str.4, %rsi
	callq	fopen
	movq	%rax, -16(%rbp)
	cmpq	$0, %rax
	jne	.LBB13_2
# %bb.1:                                # %if.then
	movq	input, %rcx
	addq	$2680, %rcx             # imm = 0xA78
	movabsq	$errortext, %rdi
	movl	$300, %esi              # imm = 0x12C
	movabsq	$.L.str.5, %rdx
	movb	$0, %al
	callq	snprintf
	movabsq	$errortext, %rdi
	movl	$1, %esi
	callq	error
.LBB13_2:                               # %if.end
	movq	-24(%rbp), %rdi
	movq	-16(%rbp), %rsi
	callq	PutBigDoubleWord
	movq	-24(%rbp), %rsi
	movabsq	$.L.str.6, %rdi
	movb	$0, %al
	callq	printf
	movq	$0, -8(%rbp)
.LBB13_3:                               # %for.cond
                                        # =>This Inner Loop Header: Depth=1
	movq	-8(%rbp), %rax
	cmpq	-24(%rbp), %rax
	jae	.LBB13_6
# %bb.4:                                # %for.body
                                        #   in Loop: Header=BB13_3 Depth=1
	movq	-40(%rbp), %rax
	movq	-8(%rbp), %rcx
	movq	(%rax,%rcx,8), %rdi
	movq	-16(%rbp), %rsi
	callq	PutBigDoubleWord
	movq	-56(%rbp), %rax
	movq	-8(%rbp), %rcx
	movq	(%rax,%rcx,8), %rdi
	movq	-16(%rbp), %rsi
	callq	PutBigDoubleWord
	movq	-48(%rbp), %rax
	movq	-8(%rbp), %rcx
	movq	(%rax,%rcx,8), %rdi
	movq	-16(%rbp), %rsi
	callq	PutBigDoubleWord
	movq	-40(%rbp), %rax
	movq	-8(%rbp), %rcx
	movq	(%rax,%rcx,8), %rsi
	movq	-56(%rbp), %rax
	movq	-8(%rbp), %rcx
	movq	(%rax,%rcx,8), %rdx
	movq	-48(%rbp), %rax
	movq	-8(%rbp), %rcx
	movq	(%rax,%rcx,8), %rcx
	movabsq	$.L.str.7, %rdi
	movb	$0, %al
	callq	printf
# %bb.5:                                # %for.inc
                                        #   in Loop: Header=BB13_3 Depth=1
	movq	-8(%rbp), %rax
	addq	$1, %rax
	movq	%rax, -8(%rbp)
	jmp	.LBB13_3
.LBB13_6:                               # %for.end
	movq	-16(%rbp), %rdi
	callq	fclose
	cmpl	$564196894, -28(%rbp)   # imm = 0x21A0F61E
	jne	.LBB13_8
.LBB13_7:
	addq	$64, %rsp
	popq	%rbp
	.cfi_def_cfa %rsp, 8
	retq
.LBB13_8:                               # %func_exit
	.cfi_def_cfa %rbp, 16
	callq	detect_breach
	jmp	.LBB13_7
.Lfunc_end13:
	.size	write_buffer.9, .Lfunc_end13-write_buffer.9
	.cfi_endproc
                                        # -- End function
	.globl	Sort.10                 # -- Begin function Sort.10
	.p2align	4, 0x90
	.type	Sort.10,@function
Sort.10:                                # @Sort.10
	.cfi_startproc
# %bb.0:                                # %entry
	pushq	%rbp
	.cfi_def_cfa_offset 16
	.cfi_offset %rbp, -16
	movq	%rsp, %rbp
	.cfi_def_cfa_register %rbp
	subq	$48, %rsp
	movl	$1235878736, -28(%rbp)  # imm = 0x49AA0350
	movq	%rdi, -40(%rbp)
	movq	%rsi, -24(%rbp)
	movq	$0, -8(%rbp)
.LBB14_1:                               # %for.cond
                                        # =>This Loop Header: Depth=1
                                        #     Child Loop BB14_3 Depth 2
	movq	-8(%rbp), %rax
	movq	-40(%rbp), %rcx
	subq	$1, %rcx
	cmpq	%rcx, %rax
	jae	.LBB14_10
# %bb.2:                                # %for.body
                                        #   in Loop: Header=BB14_1 Depth=1
	movq	-8(%rbp), %rax
	addq	$1, %rax
	movq	%rax, -16(%rbp)
.LBB14_3:                               # %for.cond1
                                        #   Parent Loop BB14_1 Depth=1
                                        # =>  This Inner Loop Header: Depth=2
	movq	-16(%rbp), %rax
	cmpq	-40(%rbp), %rax
	jae	.LBB14_8
# %bb.4:                                # %for.body3
                                        #   in Loop: Header=BB14_3 Depth=2
	movq	-24(%rbp), %rax
	movq	-8(%rbp), %rcx
	movq	(%rax,%rcx,8), %rax
	movq	-24(%rbp), %rcx
	movq	-16(%rbp), %rdx
	cmpq	(%rcx,%rdx,8), %rax
	jbe	.LBB14_6
# %bb.5:                                # %if.then
                                        #   in Loop: Header=BB14_3 Depth=2
	movq	-24(%rbp), %rax
	movq	-8(%rbp), %rcx
	movq	(%rax,%rcx,8), %rax
	movq	%rax, -48(%rbp)
	movq	-24(%rbp), %rax
	movq	-16(%rbp), %rcx
	movq	(%rax,%rcx,8), %rax
	movq	-24(%rbp), %rcx
	movq	-8(%rbp), %rdx
	movq	%rax, (%rcx,%rdx,8)
	movq	-48(%rbp), %rax
	movq	-24(%rbp), %rcx
	movq	-16(%rbp), %rdx
	movq	%rax, (%rcx,%rdx,8)
.LBB14_6:                               # %if.end
                                        #   in Loop: Header=BB14_3 Depth=2
	jmp	.LBB14_7
.LBB14_7:                               # %for.inc
                                        #   in Loop: Header=BB14_3 Depth=2
	movq	-16(%rbp), %rax
	addq	$1, %rax
	movq	%rax, -16(%rbp)
	jmp	.LBB14_3
.LBB14_8:                               # %for.end
                                        #   in Loop: Header=BB14_1 Depth=1
	jmp	.LBB14_9
.LBB14_9:                               # %for.inc10
                                        #   in Loop: Header=BB14_1 Depth=1
	movq	-8(%rbp), %rax
	addq	$1, %rax
	movq	%rax, -8(%rbp)
	jmp	.LBB14_1
.LBB14_10:                              # %for.end12
	cmpl	$1235878736, -28(%rbp)  # imm = 0x49AA0350
	jne	.LBB14_12
.LBB14_11:
	addq	$48, %rsp
	popq	%rbp
	.cfi_def_cfa %rsp, 8
	retq
.LBB14_12:                              # %func_exit
	.cfi_def_cfa %rbp, 16
	callq	detect_breach
	jmp	.LBB14_11
.Lfunc_end14:
	.size	Sort.10, .Lfunc_end14-Sort.10
	.cfi_endproc
                                        # -- End function
	.globl	Sort.11                 # -- Begin function Sort.11
	.p2align	4, 0x90
	.type	Sort.11,@function
Sort.11:                                # @Sort.11
	.cfi_startproc
# %bb.0:                                # %entry
	pushq	%rbp
	.cfi_def_cfa_offset 16
	.cfi_offset %rbp, -16
	movq	%rsp, %rbp
	.cfi_def_cfa_register %rbp
	subq	$48, %rsp
	movl	$1220648017, -28(%rbp)  # imm = 0x48C19C51
	movq	%rdi, -40(%rbp)
	movq	%rsi, -16(%rbp)
	movq	$0, -8(%rbp)
.LBB15_1:                               # %for.cond
                                        # =>This Loop Header: Depth=1
                                        #     Child Loop BB15_3 Depth 2
	movq	-8(%rbp), %rax
	movq	-40(%rbp), %rcx
	subq	$1, %rcx
	cmpq	%rcx, %rax
	jae	.LBB15_10
# %bb.2:                                # %for.body
                                        #   in Loop: Header=BB15_1 Depth=1
	movq	-8(%rbp), %rax
	addq	$1, %rax
	movq	%rax, -24(%rbp)
.LBB15_3:                               # %for.cond1
                                        #   Parent Loop BB15_1 Depth=1
                                        # =>  This Inner Loop Header: Depth=2
	movq	-24(%rbp), %rax
	cmpq	-40(%rbp), %rax
	jae	.LBB15_8
# %bb.4:                                # %for.body3
                                        #   in Loop: Header=BB15_3 Depth=2
	movq	-16(%rbp), %rax
	movq	-8(%rbp), %rcx
	movq	(%rax,%rcx,8), %rax
	movq	-16(%rbp), %rcx
	movq	-24(%rbp), %rdx
	cmpq	(%rcx,%rdx,8), %rax
	jbe	.LBB15_6
# %bb.5:                                # %if.then
                                        #   in Loop: Header=BB15_3 Depth=2
	movq	-16(%rbp), %rax
	movq	-8(%rbp), %rcx
	movq	(%rax,%rcx,8), %rax
	movq	%rax, -48(%rbp)
	movq	-16(%rbp), %rax
	movq	-24(%rbp), %rcx
	movq	(%rax,%rcx,8), %rax
	movq	-16(%rbp), %rcx
	movq	-8(%rbp), %rdx
	movq	%rax, (%rcx,%rdx,8)
	movq	-48(%rbp), %rax
	movq	-16(%rbp), %rcx
	movq	-24(%rbp), %rdx
	movq	%rax, (%rcx,%rdx,8)
.LBB15_6:                               # %if.end
                                        #   in Loop: Header=BB15_3 Depth=2
	jmp	.LBB15_7
.LBB15_7:                               # %for.inc
                                        #   in Loop: Header=BB15_3 Depth=2
	movq	-24(%rbp), %rax
	addq	$1, %rax
	movq	%rax, -24(%rbp)
	jmp	.LBB15_3
.LBB15_8:                               # %for.end
                                        #   in Loop: Header=BB15_1 Depth=1
	jmp	.LBB15_9
.LBB15_9:                               # %for.inc10
                                        #   in Loop: Header=BB15_1 Depth=1
	movq	-8(%rbp), %rax
	addq	$1, %rax
	movq	%rax, -8(%rbp)
	jmp	.LBB15_1
.LBB15_10:                              # %for.end12
	cmpl	$1220648017, -28(%rbp)  # imm = 0x48C19C51
	jne	.LBB15_12
.LBB15_11:
	addq	$48, %rsp
	popq	%rbp
	.cfi_def_cfa %rsp, 8
	retq
.LBB15_12:                              # %func_exit
	.cfi_def_cfa %rbp, 16
	callq	detect_breach
	jmp	.LBB15_11
.Lfunc_end15:
	.size	Sort.11, .Lfunc_end15-Sort.11
	.cfi_endproc
                                        # -- End function
	.globl	Sort.12                 # -- Begin function Sort.12
	.p2align	4, 0x90
	.type	Sort.12,@function
Sort.12:                                # @Sort.12
	.cfi_startproc
# %bb.0:                                # %entry
	pushq	%rbp
	.cfi_def_cfa_offset 16
	.cfi_offset %rbp, -16
	movq	%rsp, %rbp
	.cfi_def_cfa_register %rbp
	subq	$48, %rsp
	movl	$1468917598, -28(%rbp)  # imm = 0x578DE75E
	movq	%rdi, -40(%rbp)
	movq	%rsi, -24(%rbp)
	movq	$0, -8(%rbp)
.LBB16_1:                               # %for.cond
                                        # =>This Loop Header: Depth=1
                                        #     Child Loop BB16_3 Depth 2
	movq	-8(%rbp), %rax
	movq	-40(%rbp), %rcx
	subq	$1, %rcx
	cmpq	%rcx, %rax
	jae	.LBB16_10
# %bb.2:                                # %for.body
                                        #   in Loop: Header=BB16_1 Depth=1
	movq	-8(%rbp), %rax
	addq	$1, %rax
	movq	%rax, -16(%rbp)
.LBB16_3:                               # %for.cond1
                                        #   Parent Loop BB16_1 Depth=1
                                        # =>  This Inner Loop Header: Depth=2
	movq	-16(%rbp), %rax
	cmpq	-40(%rbp), %rax
	jae	.LBB16_8
# %bb.4:                                # %for.body3
                                        #   in Loop: Header=BB16_3 Depth=2
	movq	-24(%rbp), %rax
	movq	-8(%rbp), %rcx
	movq	(%rax,%rcx,8), %rax
	movq	-24(%rbp), %rcx
	movq	-16(%rbp), %rdx
	cmpq	(%rcx,%rdx,8), %rax
	jbe	.LBB16_6
# %bb.5:                                # %if.then
                                        #   in Loop: Header=BB16_3 Depth=2
	movq	-24(%rbp), %rax
	movq	-8(%rbp), %rcx
	movq	(%rax,%rcx,8), %rax
	movq	%rax, -48(%rbp)
	movq	-24(%rbp), %rax
	movq	-16(%rbp), %rcx
	movq	(%rax,%rcx,8), %rax
	movq	-24(%rbp), %rcx
	movq	-8(%rbp), %rdx
	movq	%rax, (%rcx,%rdx,8)
	movq	-48(%rbp), %rax
	movq	-24(%rbp), %rcx
	movq	-16(%rbp), %rdx
	movq	%rax, (%rcx,%rdx,8)
.LBB16_6:                               # %if.end
                                        #   in Loop: Header=BB16_3 Depth=2
	jmp	.LBB16_7
.LBB16_7:                               # %for.inc
                                        #   in Loop: Header=BB16_3 Depth=2
	movq	-16(%rbp), %rax
	addq	$1, %rax
	movq	%rax, -16(%rbp)
	jmp	.LBB16_3
.LBB16_8:                               # %for.end
                                        #   in Loop: Header=BB16_1 Depth=1
	jmp	.LBB16_9
.LBB16_9:                               # %for.inc10
                                        #   in Loop: Header=BB16_1 Depth=1
	movq	-8(%rbp), %rax
	addq	$1, %rax
	movq	%rax, -8(%rbp)
	jmp	.LBB16_1
.LBB16_10:                              # %for.end12
	cmpl	$1468917598, -28(%rbp)  # imm = 0x578DE75E
	jne	.LBB16_12
.LBB16_11:
	addq	$48, %rsp
	popq	%rbp
	.cfi_def_cfa %rsp, 8
	retq
.LBB16_12:                              # %func_exit
	.cfi_def_cfa %rbp, 16
	callq	detect_breach
	jmp	.LBB16_11
.Lfunc_end16:
	.size	Sort.12, .Lfunc_end16-Sort.12
	.cfi_endproc
                                        # -- End function
	.globl	write_buffer.13         # -- Begin function write_buffer.13
	.p2align	4, 0x90
	.type	write_buffer.13,@function
write_buffer.13:                        # @write_buffer.13
	.cfi_startproc
# %bb.0:                                # %entry
	pushq	%rbp
	.cfi_def_cfa_offset 16
	.cfi_offset %rbp, -16
	movq	%rsp, %rbp
	.cfi_def_cfa_register %rbp
	subq	$64, %rsp
	movl	$1269926052, -28(%rbp)  # imm = 0x4BB188A4
	movq	%rdi, -24(%rbp)
	movq	%rsi, -56(%rbp)
	movq	%rdx, -48(%rbp)
	movq	%rcx, -40(%rbp)
	movq	input, %rdi
	addq	$2680, %rdi             # imm = 0xA78
	movabsq	$.L.str.4, %rsi
	callq	fopen
	movq	%rax, -16(%rbp)
	cmpq	$0, %rax
	jne	.LBB17_2
# %bb.1:                                # %if.then
	movq	input, %rcx
	addq	$2680, %rcx             # imm = 0xA78
	movabsq	$errortext, %rdi
	movl	$300, %esi              # imm = 0x12C
	movabsq	$.L.str.5, %rdx
	movb	$0, %al
	callq	snprintf
	movabsq	$errortext, %rdi
	movl	$1, %esi
	callq	error
.LBB17_2:                               # %if.end
	movq	-24(%rbp), %rdi
	movq	-16(%rbp), %rsi
	callq	PutBigDoubleWord
	movq	-24(%rbp), %rsi
	movabsq	$.L.str.6, %rdi
	movb	$0, %al
	callq	printf
	movq	$0, -8(%rbp)
.LBB17_3:                               # %for.cond
                                        # =>This Inner Loop Header: Depth=1
	movq	-8(%rbp), %rax
	cmpq	-24(%rbp), %rax
	jae	.LBB17_6
# %bb.4:                                # %for.body
                                        #   in Loop: Header=BB17_3 Depth=1
	movq	-56(%rbp), %rax
	movq	-8(%rbp), %rcx
	movq	(%rax,%rcx,8), %rdi
	movq	-16(%rbp), %rsi
	callq	PutBigDoubleWord
	movq	-48(%rbp), %rax
	movq	-8(%rbp), %rcx
	movq	(%rax,%rcx,8), %rdi
	movq	-16(%rbp), %rsi
	callq	PutBigDoubleWord
	movq	-40(%rbp), %rax
	movq	-8(%rbp), %rcx
	movq	(%rax,%rcx,8), %rdi
	movq	-16(%rbp), %rsi
	callq	PutBigDoubleWord
	movq	-56(%rbp), %rax
	movq	-8(%rbp), %rcx
	movq	(%rax,%rcx,8), %rsi
	movq	-48(%rbp), %rax
	movq	-8(%rbp), %rcx
	movq	(%rax,%rcx,8), %rdx
	movq	-40(%rbp), %rax
	movq	-8(%rbp), %rcx
	movq	(%rax,%rcx,8), %rcx
	movabsq	$.L.str.7, %rdi
	movb	$0, %al
	callq	printf
# %bb.5:                                # %for.inc
                                        #   in Loop: Header=BB17_3 Depth=1
	movq	-8(%rbp), %rax
	addq	$1, %rax
	movq	%rax, -8(%rbp)
	jmp	.LBB17_3
.LBB17_6:                               # %for.end
	movq	-16(%rbp), %rdi
	callq	fclose
	cmpl	$1269926052, -28(%rbp)  # imm = 0x4BB188A4
	jne	.LBB17_8
.LBB17_7:
	addq	$64, %rsp
	popq	%rbp
	.cfi_def_cfa %rsp, 8
	retq
.LBB17_8:                               # %func_exit
	.cfi_def_cfa %rbp, 16
	callq	detect_breach
	jmp	.LBB17_7
.Lfunc_end17:
	.size	write_buffer.13, .Lfunc_end17-write_buffer.13
	.cfi_endproc
                                        # -- End function
	.globl	write_buffer.14         # -- Begin function write_buffer.14
	.p2align	4, 0x90
	.type	write_buffer.14,@function
write_buffer.14:                        # @write_buffer.14
	.cfi_startproc
# %bb.0:                                # %entry
	pushq	%rbp
	.cfi_def_cfa_offset 16
	.cfi_offset %rbp, -16
	movq	%rsp, %rbp
	.cfi_def_cfa_register %rbp
	subq	$64, %rsp
	movl	$1069132747, -28(%rbp)  # imm = 0x3FB9ABCB
	movq	%rdi, -24(%rbp)
	movq	%rsi, -40(%rbp)
	movq	%rdx, -56(%rbp)
	movq	%rcx, -48(%rbp)
	movq	input, %rdi
	addq	$2680, %rdi             # imm = 0xA78
	movabsq	$.L.str.4, %rsi
	callq	fopen
	movq	%rax, -16(%rbp)
	cmpq	$0, %rax
	jne	.LBB18_2
# %bb.1:                                # %if.then
	movq	input, %rcx
	addq	$2680, %rcx             # imm = 0xA78
	movabsq	$errortext, %rdi
	movl	$300, %esi              # imm = 0x12C
	movabsq	$.L.str.5, %rdx
	movb	$0, %al
	callq	snprintf
	movabsq	$errortext, %rdi
	movl	$1, %esi
	callq	error
.LBB18_2:                               # %if.end
	movq	-24(%rbp), %rdi
	movq	-16(%rbp), %rsi
	callq	PutBigDoubleWord
	movq	-24(%rbp), %rsi
	movabsq	$.L.str.6, %rdi
	movb	$0, %al
	callq	printf
	movq	$0, -8(%rbp)
.LBB18_3:                               # %for.cond
                                        # =>This Inner Loop Header: Depth=1
	movq	-8(%rbp), %rax
	cmpq	-24(%rbp), %rax
	jae	.LBB18_6
# %bb.4:                                # %for.body
                                        #   in Loop: Header=BB18_3 Depth=1
	movq	-40(%rbp), %rax
	movq	-8(%rbp), %rcx
	movq	(%rax,%rcx,8), %rdi
	movq	-16(%rbp), %rsi
	callq	PutBigDoubleWord
	movq	-56(%rbp), %rax
	movq	-8(%rbp), %rcx
	movq	(%rax,%rcx,8), %rdi
	movq	-16(%rbp), %rsi
	callq	PutBigDoubleWord
	movq	-48(%rbp), %rax
	movq	-8(%rbp), %rcx
	movq	(%rax,%rcx,8), %rdi
	movq	-16(%rbp), %rsi
	callq	PutBigDoubleWord
	movq	-40(%rbp), %rax
	movq	-8(%rbp), %rcx
	movq	(%rax,%rcx,8), %rsi
	movq	-56(%rbp), %rax
	movq	-8(%rbp), %rcx
	movq	(%rax,%rcx,8), %rdx
	movq	-48(%rbp), %rax
	movq	-8(%rbp), %rcx
	movq	(%rax,%rcx,8), %rcx
	movabsq	$.L.str.7, %rdi
	movb	$0, %al
	callq	printf
# %bb.5:                                # %for.inc
                                        #   in Loop: Header=BB18_3 Depth=1
	movq	-8(%rbp), %rax
	addq	$1, %rax
	movq	%rax, -8(%rbp)
	jmp	.LBB18_3
.LBB18_6:                               # %for.end
	movq	-16(%rbp), %rdi
	callq	fclose
	cmpl	$1069132747, -28(%rbp)  # imm = 0x3FB9ABCB
	jne	.LBB18_8
.LBB18_7:
	addq	$64, %rsp
	popq	%rbp
	.cfi_def_cfa %rsp, 8
	retq
.LBB18_8:                               # %func_exit
	.cfi_def_cfa %rbp, 16
	callq	detect_breach
	jmp	.LBB18_7
.Lfunc_end18:
	.size	write_buffer.14, .Lfunc_end18-write_buffer.14
	.cfi_endproc
                                        # -- End function
	.section	.rodata.cst4,"aM",@progbits,4
	.p2align	2               # -- Begin function calc_buffer.15
.LCPI19_0:
	.long	1593835520              # float 9.22337203E+18
	.text
	.globl	calc_buffer.15
	.p2align	4, 0x90
	.type	calc_buffer.15,@function
calc_buffer.15:                         # @calc_buffer.15
	.cfi_startproc
# %bb.0:                                # %entry
	pushq	%rbp
	.cfi_def_cfa_offset 16
	.cfi_offset %rbp, -16
	movq	%rsp, %rbp
	.cfi_def_cfa_register %rbp
	subq	$128, %rsp
	movl	$81138296, -100(%rbp)   # imm = 0x4D61278
	movq	$0, -112(%rbp)
	movq	stdout, %rdi
	movabsq	$.L.str.8, %rsi
	movb	$0, %al
	callq	fprintf
	movq	total_frame_buffer, %rsi
	movq	input, %rax
	movl	8(%rax), %edx
	movabsq	$.L.str.9, %rdi
	movb	$0, %al
	callq	printf
	movq	input, %rax
	movslq	2476(%rax), %rax
	movq	%rax, -40(%rbp)
	movq	total_frame_buffer, %rdi
	addq	$1, %rdi
	movl	$8, %esi
	callq	calloc
	movq	%rax, -16(%rbp)
	cmpq	$0, -16(%rbp)
	jne	.LBB19_2
# %bb.1:                                # %if.then
	movabsq	$.L.str.10, %rdi
	callq	no_mem_exit
.LBB19_2:                               # %if.end
	movq	-40(%rbp), %rdi
	movl	$8, %esi
	callq	calloc
	movq	%rax, -32(%rbp)
	cmpq	$0, -32(%rbp)
	jne	.LBB19_4
# %bb.3:                                # %if.then6
	movabsq	$.L.str.11, %rdi
	callq	no_mem_exit
.LBB19_4:                               # %if.end7
	movq	-40(%rbp), %rdi
	movl	$8, %esi
	callq	calloc
	movq	%rax, -72(%rbp)
	cmpq	$0, -72(%rbp)
	jne	.LBB19_6
# %bb.5:                                # %if.then10
	movabsq	$.L.str.12, %rdi
	callq	no_mem_exit
.LBB19_6:                               # %if.end11
	movq	-40(%rbp), %rdi
	movl	$8, %esi
	callq	calloc
	movq	%rax, -64(%rbp)
	cmpq	$0, -64(%rbp)
	jne	.LBB19_8
# %bb.7:                                # %if.then14
	movabsq	$.L.str.13, %rdi
	callq	no_mem_exit
.LBB19_8:                               # %if.end15
	movq	$0, -88(%rbp)
	movq	$0, -8(%rbp)
.LBB19_9:                               # %for.cond
                                        # =>This Inner Loop Header: Depth=1
	movq	-8(%rbp), %rax
	cmpq	total_frame_buffer, %rax
	jae	.LBB19_12
# %bb.10:                               # %for.body
                                        #   in Loop: Header=BB19_9 Depth=1
	movq	-8(%rbp), %rax
	movq	Bit_Buffer(,%rax,8), %rax
	addq	-88(%rbp), %rax
	movq	%rax, -88(%rbp)
# %bb.11:                               # %for.inc
                                        #   in Loop: Header=BB19_9 Depth=1
	movq	-8(%rbp), %rax
	addq	$1, %rax
	movq	%rax, -8(%rbp)
	jmp	.LBB19_9
.LBB19_12:                              # %for.end
	movq	-88(%rbp), %rax
	vcvtsi2ss	%rax, %xmm0, %xmm1
	movq	%rax, %rcx
	shrq	%rcx
	movl	%eax, %edx
	andl	$1, %edx
	orq	%rcx, %rdx
	vcvtsi2ss	%rdx, %xmm0, %xmm0
	vaddss	%xmm0, %xmm0, %xmm0
	testq	%rax, %rax
	js	.LBB19_14
# %bb.13:                               # %for.end
	vmovaps	%xmm1, %xmm0
.LBB19_14:                              # %for.end
	movq	total_frame_buffer(%rip), %rax
	vcvtsi2ss	%rax, %xmm0, %xmm1
	movq	%rax, %rcx
	shrq	%rcx
	movl	%eax, %edx
	andl	$1, %edx
	orq	%rcx, %rdx
	vcvtsi2ss	%rdx, %xmm0, %xmm2
	vaddss	%xmm2, %xmm2, %xmm2
	testq	%rax, %rax
	js	.LBB19_16
# %bb.15:                               # %for.end
	vmovaps	%xmm1, %xmm2
.LBB19_16:                              # %for.end
	vdivss	%xmm2, %xmm0, %xmm0
	vmovss	.LCPI19_0(%rip), %xmm1  # xmm1 = mem[0],zero,zero,zero
	vsubss	%xmm1, %xmm0, %xmm2
	vcvttss2si	%xmm2, %rax
	movabsq	$-9223372036854775808, %rcx # imm = 0x8000000000000000
	xorq	%rcx, %rax
	vcvttss2si	%xmm0, %rcx
	vucomiss	%xmm1, %xmm0
	cmovbq	%rcx, %rax
	movq	%rax, -96(%rbp)
	movq	-40(%rbp), %rdi
	movq	-32(%rbp), %rsi
	callq	get_LeakyBucketRate
	movl	$1, %ecx
	cmpl	%eax, %ecx
	je	.LBB19_29
# %bb.17:                               # %if.then24
	movq	$0, -24(%rbp)
.LBB19_18:                              # %for.cond25
                                        # =>This Inner Loop Header: Depth=1
	movq	-24(%rbp), %rax
	cmpq	-40(%rbp), %rax
	jae	.LBB19_28
# %bb.19:                               # %for.body28
                                        #   in Loop: Header=BB19_18 Depth=1
	cmpq	$0, -24(%rbp)
	jne	.LBB19_23
# %bb.20:                               # %if.then31
                                        #   in Loop: Header=BB19_18 Depth=1
	movq	-96(%rbp), %rax
	vcvtsi2ss	%rax, %xmm0, %xmm0
	movq	%rax, %rcx
	shrq	%rcx
	movl	%eax, %edx
	andl	$1, %edx
	orq	%rcx, %rdx
	vcvtsi2ss	%rdx, %xmm0, %xmm1
	vaddss	%xmm1, %xmm1, %xmm1
	testq	%rax, %rax
	js	.LBB19_22
# %bb.21:                               # %if.then31
                                        #   in Loop: Header=BB19_18 Depth=1
	vmovaps	%xmm0, %xmm1
.LBB19_22:                              # %if.then31
                                        #   in Loop: Header=BB19_18 Depth=1
	movq	img(%rip), %rax
	vmovss	48(%rax), %xmm0         # xmm0 = mem[0],zero,zero,zero
	vmulss	%xmm0, %xmm1, %xmm0
	vmovss	.LCPI19_0(%rip), %xmm1  # xmm1 = mem[0],zero,zero,zero
	vsubss	%xmm1, %xmm0, %xmm2
	vcvttss2si	%xmm2, %rax
	movabsq	$-9223372036854775808, %rcx # imm = 0x8000000000000000
	xorq	%rcx, %rax
	vcvttss2si	%xmm0, %rcx
	vucomiss	%xmm1, %xmm0
	cmovbq	%rcx, %rax
	movq	input, %rcx
	movl	20(%rcx), %ecx
	addl	$1, %ecx
	movslq	%ecx, %rcx
	xorl	%edx, %edx
	divq	%rcx
	movq	-32(%rbp), %rcx
	movq	-24(%rbp), %rdx
	movq	%rax, (%rcx,%rdx,8)
	jmp	.LBB19_26
.LBB19_23:                              # %if.else
                                        #   in Loop: Header=BB19_18 Depth=1
	movq	-32(%rbp), %rax
	movq	-24(%rbp), %rcx
	movq	-8(%rax,%rcx,8), %rax
	movq	%rax, %rcx
	shrq	%rcx
	movl	%eax, %edx
	andl	$1, %edx
	orq	%rcx, %rdx
	vcvtsi2ss	%rdx, %xmm0, %xmm0
	vaddss	%xmm0, %xmm0, %xmm0
	vcvtsi2ss	%rax, %xmm0, %xmm1
	testq	%rax, %rax
	js	.LBB19_25
# %bb.24:                               # %if.else
                                        #   in Loop: Header=BB19_18 Depth=1
	vmovaps	%xmm1, %xmm0
.LBB19_25:                              # %if.else
                                        #   in Loop: Header=BB19_18 Depth=1
	movq	-96(%rbp), %rax
	shrq	$2, %rax
	vcvtsi2ss	%rax, %xmm0, %xmm1
	movq	img(%rip), %rax
	vmovss	48(%rax), %xmm2         # xmm2 = mem[0],zero,zero,zero
	vmulss	%xmm2, %xmm1, %xmm1
	movq	input(%rip), %rax
	movl	20(%rax), %eax
	addl	$1, %eax
	vcvtsi2ss	%eax, %xmm0, %xmm2
	vdivss	%xmm2, %xmm1, %xmm1
	vaddss	%xmm1, %xmm0, %xmm0
	vmovss	.LCPI19_0(%rip), %xmm1  # xmm1 = mem[0],zero,zero,zero
	vsubss	%xmm1, %xmm0, %xmm2
	vcvttss2si	%xmm2, %rax
	movabsq	$-9223372036854775808, %rcx # imm = 0x8000000000000000
	xorq	%rcx, %rax
	vcvttss2si	%xmm0, %rcx
	vucomiss	%xmm1, %xmm0
	cmovbq	%rcx, %rax
	movq	-32(%rbp), %rcx
	movq	-24(%rbp), %rdx
	movq	%rax, (%rcx,%rdx,8)
.LBB19_26:                              # %if.end51
                                        #   in Loop: Header=BB19_18 Depth=1
	jmp	.LBB19_27
.LBB19_27:                              # %for.inc52
                                        #   in Loop: Header=BB19_18 Depth=1
	movq	-24(%rbp), %rax
	addq	$1, %rax
	movq	%rax, -24(%rbp)
	jmp	.LBB19_18
.LBB19_28:                              # %for.end54
	jmp	.LBB19_29
.LBB19_29:                              # %if.end55
	movq	-40(%rbp), %rdi
	movq	-32(%rbp), %rsi
	callq	Sort
	imulq	$20, -96(%rbp), %rax
	movq	%rax, -56(%rbp)
	movq	$0, -24(%rbp)
.LBB19_30:                              # %for.cond57
                                        # =>This Loop Header: Depth=1
                                        #     Child Loop BB19_34 Depth 2
                                        #     Child Loop BB19_42 Depth 2
	movq	-24(%rbp), %rax
	cmpq	-40(%rbp), %rax
	jae	.LBB19_52
# %bb.31:                               # %for.body60
                                        #   in Loop: Header=BB19_30 Depth=1
	movq	-32(%rbp), %rax
	movq	-24(%rbp), %rcx
	movq	(%rax,%rcx,8), %rax
	movq	input(%rip), %rcx
	movl	20(%rcx), %ecx
	addl	$1, %ecx
	movslq	%ecx, %rcx
	imulq	%rcx, %rax
	movq	%rax, %rcx
	shrq	%rcx
	movl	%eax, %edx
	andl	$1, %edx
	orq	%rcx, %rdx
	vcvtsi2ss	%rdx, %xmm0, %xmm0
	vaddss	%xmm0, %xmm0, %xmm0
	vcvtsi2ss	%rax, %xmm0, %xmm1
	testq	%rax, %rax
	js	.LBB19_33
# %bb.32:                               # %for.body60
                                        #   in Loop: Header=BB19_30 Depth=1
	vmovaps	%xmm1, %xmm0
.LBB19_33:                              # %for.body60
                                        #   in Loop: Header=BB19_30 Depth=1
	movq	img, %rax
	vdivss	48(%rax), %xmm0, %xmm0
	vcvttss2si	%xmm0, %rax
	movq	%rax, -120(%rbp)
	movq	-56(%rbp), %rax
	movq	%rax, -48(%rbp)
	movq	-48(%rbp), %rax
	movq	-16(%rbp), %rcx
	movq	%rax, (%rcx)
	movq	-56(%rbp), %rax
	movq	%rax, -80(%rbp)
	movq	$0, -8(%rbp)
.LBB19_34:                              # %for.cond71
                                        #   Parent Loop BB19_30 Depth=1
                                        # =>  This Inner Loop Header: Depth=2
	movq	-8(%rbp), %rax
	cmpq	total_frame_buffer, %rax
	jae	.LBB19_41
# %bb.35:                               # %for.body74
                                        #   in Loop: Header=BB19_34 Depth=2
	movq	-16(%rbp), %rax
	movq	-8(%rbp), %rcx
	movq	(%rax,%rcx,8), %rax
	movq	-8(%rbp), %rcx
	subq	Bit_Buffer(,%rcx,8), %rax
	movq	-16(%rbp), %rcx
	movq	-8(%rbp), %rdx
	movq	%rax, (%rcx,%rdx,8)
	movq	-16(%rbp), %rax
	movq	-8(%rbp), %rcx
	movq	(%rax,%rcx,8), %rax
	cmpq	-80(%rbp), %rax
	jge	.LBB19_37
# %bb.36:                               # %if.then82
                                        #   in Loop: Header=BB19_34 Depth=2
	movq	-16(%rbp), %rax
	movq	-8(%rbp), %rcx
	movq	(%rax,%rcx,8), %rax
	movq	%rax, -80(%rbp)
	movq	-8(%rbp), %rax
	movq	%rax, -112(%rbp)
.LBB19_37:                              # %if.end84
                                        #   in Loop: Header=BB19_34 Depth=2
	movq	-16(%rbp), %rax
	movq	-8(%rbp), %rcx
	movq	(%rax,%rcx,8), %rax
	addq	-120(%rbp), %rax
	movq	-16(%rbp), %rcx
	movq	-8(%rbp), %rdx
	movq	%rax, 8(%rcx,%rdx,8)
	movq	-16(%rbp), %rax
	movq	-8(%rbp), %rcx
	movq	8(%rax,%rcx,8), %rax
	cmpq	-56(%rbp), %rax
	jle	.LBB19_39
# %bb.38:                               # %if.then93
                                        #   in Loop: Header=BB19_34 Depth=2
	movq	-56(%rbp), %rax
	movq	-16(%rbp), %rcx
	movq	-8(%rbp), %rdx
	movq	%rax, 8(%rcx,%rdx,8)
.LBB19_39:                              # %if.end96
                                        #   in Loop: Header=BB19_34 Depth=2
	jmp	.LBB19_40
.LBB19_40:                              # %for.inc97
                                        #   in Loop: Header=BB19_34 Depth=2
	movq	-8(%rbp), %rax
	addq	$1, %rax
	movq	%rax, -8(%rbp)
	jmp	.LBB19_34
.LBB19_41:                              # %for.end99
                                        #   in Loop: Header=BB19_30 Depth=1
	movq	-56(%rbp), %rax
	subq	-80(%rbp), %rax
	movq	%rax, -128(%rbp)
	movq	Bit_Buffer, %rax
	movq	%rax, -48(%rbp)
	movq	-48(%rbp), %rax
	movq	-16(%rbp), %rcx
	movq	%rax, (%rcx)
	movq	$0, -8(%rbp)
.LBB19_42:                              # %for.cond102
                                        #   Parent Loop BB19_30 Depth=1
                                        # =>  This Inner Loop Header: Depth=2
	movq	-8(%rbp), %rax
	movq	-112(%rbp), %rcx
	addq	$1, %rcx
	cmpq	%rcx, %rax
	jae	.LBB19_49
# %bb.43:                               # %for.body106
                                        #   in Loop: Header=BB19_42 Depth=2
	movq	-16(%rbp), %rax
	movq	-8(%rbp), %rcx
	movq	(%rax,%rcx,8), %rax
	movq	-8(%rbp), %rcx
	subq	Bit_Buffer(,%rcx,8), %rax
	movq	-16(%rbp), %rcx
	movq	-8(%rbp), %rdx
	movq	%rax, (%rcx,%rdx,8)
	movq	-16(%rbp), %rax
	movq	-8(%rbp), %rcx
	cmpq	$0, (%rax,%rcx,8)
	jge	.LBB19_45
# %bb.44:                               # %if.then114
                                        #   in Loop: Header=BB19_42 Depth=2
	movq	-16(%rbp), %rax
	movq	-8(%rbp), %rcx
	movq	(%rax,%rcx,8), %rax
	movq	-48(%rbp), %rcx
	subq	%rax, %rcx
	movq	%rcx, -48(%rbp)
	movq	-16(%rbp), %rax
	movq	-8(%rbp), %rcx
	movq	$0, (%rax,%rcx,8)
.LBB19_45:                              # %if.end118
                                        #   in Loop: Header=BB19_42 Depth=2
	movq	-16(%rbp), %rax
	movq	-8(%rbp), %rcx
	movq	(%rax,%rcx,8), %rax
	addq	-120(%rbp), %rax
	movq	-16(%rbp), %rcx
	movq	-8(%rbp), %rdx
	movq	%rax, 8(%rcx,%rdx,8)
	movq	-16(%rbp), %rax
	movq	-8(%rbp), %rcx
	movq	8(%rax,%rcx,8), %rax
	cmpq	-128(%rbp), %rax
	jle	.LBB19_47
# %bb.46:                               # %if.then127
                                        #   in Loop: Header=BB19_30 Depth=1
	jmp	.LBB19_50
.LBB19_47:                              # %if.end128
                                        #   in Loop: Header=BB19_42 Depth=2
	jmp	.LBB19_48
.LBB19_48:                              # %for.inc129
                                        #   in Loop: Header=BB19_42 Depth=2
	movq	-8(%rbp), %rax
	addq	$1, %rax
	movq	%rax, -8(%rbp)
	jmp	.LBB19_42
.LBB19_49:                              # %for.end131.loopexit
                                        #   in Loop: Header=BB19_30 Depth=1
	jmp	.LBB19_50
.LBB19_50:                              # %for.end131
                                        #   in Loop: Header=BB19_30 Depth=1
	movq	-128(%rbp), %rax
	movq	-72(%rbp), %rcx
	movq	-24(%rbp), %rdx
	movq	%rax, (%rcx,%rdx,8)
	movq	-48(%rbp), %rax
	movq	-64(%rbp), %rcx
	movq	-24(%rbp), %rdx
	movq	%rax, (%rcx,%rdx,8)
# %bb.51:                               # %for.inc134
                                        #   in Loop: Header=BB19_30 Depth=1
	movq	-24(%rbp), %rax
	addq	$1, %rax
	movq	%rax, -24(%rbp)
	jmp	.LBB19_30
.LBB19_52:                              # %for.end136
	movq	-40(%rbp), %rdi
	movq	-32(%rbp), %rsi
	movq	-72(%rbp), %rdx
	movq	-64(%rbp), %rcx
	callq	write_buffer
	movq	-16(%rbp), %rdi
	callq	free
	movq	-32(%rbp), %rdi
	callq	free
	movq	-72(%rbp), %rdi
	callq	free
	movq	-64(%rbp), %rdi
	callq	free
	cmpl	$81138296, -100(%rbp)   # imm = 0x4D61278
	jne	.LBB19_54
.LBB19_53:
	addq	$128, %rsp
	popq	%rbp
	.cfi_def_cfa %rsp, 8
	retq
.LBB19_54:                              # %func_exit
	.cfi_def_cfa %rbp, 16
	callq	detect_breach
	jmp	.LBB19_53
.Lfunc_end19:
	.size	calc_buffer.15, .Lfunc_end19-calc_buffer.15
	.cfi_endproc
                                        # -- End function
	.section	.rodata.cst4,"aM",@progbits,4
	.p2align	2               # -- Begin function calc_buffer.16
.LCPI20_0:
	.long	1593835520              # float 9.22337203E+18
	.text
	.globl	calc_buffer.16
	.p2align	4, 0x90
	.type	calc_buffer.16,@function
calc_buffer.16:                         # @calc_buffer.16
	.cfi_startproc
# %bb.0:                                # %entry
	pushq	%rbp
	.cfi_def_cfa_offset 16
	.cfi_offset %rbp, -16
	movq	%rsp, %rbp
	.cfi_def_cfa_register %rbp
	subq	$128, %rsp
	movl	$688171433, -100(%rbp)  # imm = 0x2904A9A9
	movq	$0, -112(%rbp)
	movq	stdout, %rdi
	movabsq	$.L.str.8, %rsi
	movb	$0, %al
	callq	fprintf
	movq	total_frame_buffer, %rsi
	movq	input, %rax
	movl	8(%rax), %edx
	movabsq	$.L.str.9, %rdi
	movb	$0, %al
	callq	printf
	movq	input, %rax
	movslq	2476(%rax), %rax
	movq	%rax, -40(%rbp)
	movq	total_frame_buffer, %rdi
	addq	$1, %rdi
	movl	$8, %esi
	callq	calloc
	movq	%rax, -16(%rbp)
	cmpq	$0, -16(%rbp)
	jne	.LBB20_2
# %bb.1:                                # %if.then
	movabsq	$.L.str.10, %rdi
	callq	no_mem_exit
.LBB20_2:                               # %if.end
	movq	-40(%rbp), %rdi
	movl	$8, %esi
	callq	calloc
	movq	%rax, -32(%rbp)
	cmpq	$0, -32(%rbp)
	jne	.LBB20_4
# %bb.3:                                # %if.then6
	movabsq	$.L.str.11, %rdi
	callq	no_mem_exit
.LBB20_4:                               # %if.end7
	movq	-40(%rbp), %rdi
	movl	$8, %esi
	callq	calloc
	movq	%rax, -64(%rbp)
	cmpq	$0, -64(%rbp)
	jne	.LBB20_6
# %bb.5:                                # %if.then10
	movabsq	$.L.str.12, %rdi
	callq	no_mem_exit
.LBB20_6:                               # %if.end11
	movq	-40(%rbp), %rdi
	movl	$8, %esi
	callq	calloc
	movq	%rax, -72(%rbp)
	cmpq	$0, -72(%rbp)
	jne	.LBB20_8
# %bb.7:                                # %if.then14
	movabsq	$.L.str.13, %rdi
	callq	no_mem_exit
.LBB20_8:                               # %if.end15
	movq	$0, -96(%rbp)
	movq	$0, -8(%rbp)
.LBB20_9:                               # %for.cond
                                        # =>This Inner Loop Header: Depth=1
	movq	-8(%rbp), %rax
	cmpq	total_frame_buffer, %rax
	jae	.LBB20_12
# %bb.10:                               # %for.body
                                        #   in Loop: Header=BB20_9 Depth=1
	movq	-8(%rbp), %rax
	movq	Bit_Buffer(,%rax,8), %rax
	addq	-96(%rbp), %rax
	movq	%rax, -96(%rbp)
# %bb.11:                               # %for.inc
                                        #   in Loop: Header=BB20_9 Depth=1
	movq	-8(%rbp), %rax
	addq	$1, %rax
	movq	%rax, -8(%rbp)
	jmp	.LBB20_9
.LBB20_12:                              # %for.end
	movq	-96(%rbp), %rax
	vcvtsi2ss	%rax, %xmm0, %xmm1
	movq	%rax, %rcx
	shrq	%rcx
	movl	%eax, %edx
	andl	$1, %edx
	orq	%rcx, %rdx
	vcvtsi2ss	%rdx, %xmm0, %xmm0
	vaddss	%xmm0, %xmm0, %xmm0
	testq	%rax, %rax
	js	.LBB20_14
# %bb.13:                               # %for.end
	vmovaps	%xmm1, %xmm0
.LBB20_14:                              # %for.end
	movq	total_frame_buffer(%rip), %rax
	vcvtsi2ss	%rax, %xmm0, %xmm1
	movq	%rax, %rcx
	shrq	%rcx
	movl	%eax, %edx
	andl	$1, %edx
	orq	%rcx, %rdx
	vcvtsi2ss	%rdx, %xmm0, %xmm2
	vaddss	%xmm2, %xmm2, %xmm2
	testq	%rax, %rax
	js	.LBB20_16
# %bb.15:                               # %for.end
	vmovaps	%xmm1, %xmm2
.LBB20_16:                              # %for.end
	vdivss	%xmm2, %xmm0, %xmm0
	vmovss	.LCPI20_0(%rip), %xmm1  # xmm1 = mem[0],zero,zero,zero
	vsubss	%xmm1, %xmm0, %xmm2
	vcvttss2si	%xmm2, %rax
	movabsq	$-9223372036854775808, %rcx # imm = 0x8000000000000000
	xorq	%rcx, %rax
	vcvttss2si	%xmm0, %rcx
	vucomiss	%xmm1, %xmm0
	cmovbq	%rcx, %rax
	movq	%rax, -80(%rbp)
	movq	-40(%rbp), %rdi
	movq	-32(%rbp), %rsi
	callq	get_LeakyBucketRate
	movl	$1, %ecx
	cmpl	%eax, %ecx
	je	.LBB20_29
# %bb.17:                               # %if.then24
	movq	$0, -24(%rbp)
.LBB20_18:                              # %for.cond25
                                        # =>This Inner Loop Header: Depth=1
	movq	-24(%rbp), %rax
	cmpq	-40(%rbp), %rax
	jae	.LBB20_28
# %bb.19:                               # %for.body28
                                        #   in Loop: Header=BB20_18 Depth=1
	cmpq	$0, -24(%rbp)
	jne	.LBB20_23
# %bb.20:                               # %if.then31
                                        #   in Loop: Header=BB20_18 Depth=1
	movq	-80(%rbp), %rax
	vcvtsi2ss	%rax, %xmm0, %xmm0
	movq	%rax, %rcx
	shrq	%rcx
	movl	%eax, %edx
	andl	$1, %edx
	orq	%rcx, %rdx
	vcvtsi2ss	%rdx, %xmm0, %xmm1
	vaddss	%xmm1, %xmm1, %xmm1
	testq	%rax, %rax
	js	.LBB20_22
# %bb.21:                               # %if.then31
                                        #   in Loop: Header=BB20_18 Depth=1
	vmovaps	%xmm0, %xmm1
.LBB20_22:                              # %if.then31
                                        #   in Loop: Header=BB20_18 Depth=1
	movq	img(%rip), %rax
	vmovss	48(%rax), %xmm0         # xmm0 = mem[0],zero,zero,zero
	vmulss	%xmm0, %xmm1, %xmm0
	vmovss	.LCPI20_0(%rip), %xmm1  # xmm1 = mem[0],zero,zero,zero
	vsubss	%xmm1, %xmm0, %xmm2
	vcvttss2si	%xmm2, %rax
	movabsq	$-9223372036854775808, %rcx # imm = 0x8000000000000000
	xorq	%rcx, %rax
	vcvttss2si	%xmm0, %rcx
	vucomiss	%xmm1, %xmm0
	cmovbq	%rcx, %rax
	movq	input, %rcx
	movl	20(%rcx), %ecx
	addl	$1, %ecx
	movslq	%ecx, %rcx
	xorl	%edx, %edx
	divq	%rcx
	movq	-32(%rbp), %rcx
	movq	-24(%rbp), %rdx
	movq	%rax, (%rcx,%rdx,8)
	jmp	.LBB20_26
.LBB20_23:                              # %if.else
                                        #   in Loop: Header=BB20_18 Depth=1
	movq	-32(%rbp), %rax
	movq	-24(%rbp), %rcx
	movq	-8(%rax,%rcx,8), %rax
	movq	%rax, %rcx
	shrq	%rcx
	movl	%eax, %edx
	andl	$1, %edx
	orq	%rcx, %rdx
	vcvtsi2ss	%rdx, %xmm0, %xmm0
	vaddss	%xmm0, %xmm0, %xmm0
	vcvtsi2ss	%rax, %xmm0, %xmm1
	testq	%rax, %rax
	js	.LBB20_25
# %bb.24:                               # %if.else
                                        #   in Loop: Header=BB20_18 Depth=1
	vmovaps	%xmm1, %xmm0
.LBB20_25:                              # %if.else
                                        #   in Loop: Header=BB20_18 Depth=1
	movq	-80(%rbp), %rax
	shrq	$2, %rax
	vcvtsi2ss	%rax, %xmm0, %xmm1
	movq	img(%rip), %rax
	vmovss	48(%rax), %xmm2         # xmm2 = mem[0],zero,zero,zero
	vmulss	%xmm2, %xmm1, %xmm1
	movq	input(%rip), %rax
	movl	20(%rax), %eax
	addl	$1, %eax
	vcvtsi2ss	%eax, %xmm0, %xmm2
	vdivss	%xmm2, %xmm1, %xmm1
	vaddss	%xmm1, %xmm0, %xmm0
	vmovss	.LCPI20_0(%rip), %xmm1  # xmm1 = mem[0],zero,zero,zero
	vsubss	%xmm1, %xmm0, %xmm2
	vcvttss2si	%xmm2, %rax
	movabsq	$-9223372036854775808, %rcx # imm = 0x8000000000000000
	xorq	%rcx, %rax
	vcvttss2si	%xmm0, %rcx
	vucomiss	%xmm1, %xmm0
	cmovbq	%rcx, %rax
	movq	-32(%rbp), %rcx
	movq	-24(%rbp), %rdx
	movq	%rax, (%rcx,%rdx,8)
.LBB20_26:                              # %if.end51
                                        #   in Loop: Header=BB20_18 Depth=1
	jmp	.LBB20_27
.LBB20_27:                              # %for.inc52
                                        #   in Loop: Header=BB20_18 Depth=1
	movq	-24(%rbp), %rax
	addq	$1, %rax
	movq	%rax, -24(%rbp)
	jmp	.LBB20_18
.LBB20_28:                              # %for.end54
	jmp	.LBB20_29
.LBB20_29:                              # %if.end55
	movq	-40(%rbp), %rdi
	movq	-32(%rbp), %rsi
	callq	Sort
	imulq	$20, -80(%rbp), %rax
	movq	%rax, -56(%rbp)
	movq	$0, -24(%rbp)
.LBB20_30:                              # %for.cond57
                                        # =>This Loop Header: Depth=1
                                        #     Child Loop BB20_34 Depth 2
                                        #     Child Loop BB20_42 Depth 2
	movq	-24(%rbp), %rax
	cmpq	-40(%rbp), %rax
	jae	.LBB20_52
# %bb.31:                               # %for.body60
                                        #   in Loop: Header=BB20_30 Depth=1
	movq	-32(%rbp), %rax
	movq	-24(%rbp), %rcx
	movq	(%rax,%rcx,8), %rax
	movq	input(%rip), %rcx
	movl	20(%rcx), %ecx
	addl	$1, %ecx
	movslq	%ecx, %rcx
	imulq	%rcx, %rax
	movq	%rax, %rcx
	shrq	%rcx
	movl	%eax, %edx
	andl	$1, %edx
	orq	%rcx, %rdx
	vcvtsi2ss	%rdx, %xmm0, %xmm0
	vaddss	%xmm0, %xmm0, %xmm0
	vcvtsi2ss	%rax, %xmm0, %xmm1
	testq	%rax, %rax
	js	.LBB20_33
# %bb.32:                               # %for.body60
                                        #   in Loop: Header=BB20_30 Depth=1
	vmovaps	%xmm1, %xmm0
.LBB20_33:                              # %for.body60
                                        #   in Loop: Header=BB20_30 Depth=1
	movq	img, %rax
	vdivss	48(%rax), %xmm0, %xmm0
	vcvttss2si	%xmm0, %rax
	movq	%rax, -120(%rbp)
	movq	-56(%rbp), %rax
	movq	%rax, -48(%rbp)
	movq	-48(%rbp), %rax
	movq	-16(%rbp), %rcx
	movq	%rax, (%rcx)
	movq	-56(%rbp), %rax
	movq	%rax, -88(%rbp)
	movq	$0, -8(%rbp)
.LBB20_34:                              # %for.cond71
                                        #   Parent Loop BB20_30 Depth=1
                                        # =>  This Inner Loop Header: Depth=2
	movq	-8(%rbp), %rax
	cmpq	total_frame_buffer, %rax
	jae	.LBB20_41
# %bb.35:                               # %for.body74
                                        #   in Loop: Header=BB20_34 Depth=2
	movq	-16(%rbp), %rax
	movq	-8(%rbp), %rcx
	movq	(%rax,%rcx,8), %rax
	movq	-8(%rbp), %rcx
	subq	Bit_Buffer(,%rcx,8), %rax
	movq	-16(%rbp), %rcx
	movq	-8(%rbp), %rdx
	movq	%rax, (%rcx,%rdx,8)
	movq	-16(%rbp), %rax
	movq	-8(%rbp), %rcx
	movq	(%rax,%rcx,8), %rax
	cmpq	-88(%rbp), %rax
	jge	.LBB20_37
# %bb.36:                               # %if.then82
                                        #   in Loop: Header=BB20_34 Depth=2
	movq	-16(%rbp), %rax
	movq	-8(%rbp), %rcx
	movq	(%rax,%rcx,8), %rax
	movq	%rax, -88(%rbp)
	movq	-8(%rbp), %rax
	movq	%rax, -112(%rbp)
.LBB20_37:                              # %if.end84
                                        #   in Loop: Header=BB20_34 Depth=2
	movq	-16(%rbp), %rax
	movq	-8(%rbp), %rcx
	movq	(%rax,%rcx,8), %rax
	addq	-120(%rbp), %rax
	movq	-16(%rbp), %rcx
	movq	-8(%rbp), %rdx
	movq	%rax, 8(%rcx,%rdx,8)
	movq	-16(%rbp), %rax
	movq	-8(%rbp), %rcx
	movq	8(%rax,%rcx,8), %rax
	cmpq	-56(%rbp), %rax
	jle	.LBB20_39
# %bb.38:                               # %if.then93
                                        #   in Loop: Header=BB20_34 Depth=2
	movq	-56(%rbp), %rax
	movq	-16(%rbp), %rcx
	movq	-8(%rbp), %rdx
	movq	%rax, 8(%rcx,%rdx,8)
.LBB20_39:                              # %if.end96
                                        #   in Loop: Header=BB20_34 Depth=2
	jmp	.LBB20_40
.LBB20_40:                              # %for.inc97
                                        #   in Loop: Header=BB20_34 Depth=2
	movq	-8(%rbp), %rax
	addq	$1, %rax
	movq	%rax, -8(%rbp)
	jmp	.LBB20_34
.LBB20_41:                              # %for.end99
                                        #   in Loop: Header=BB20_30 Depth=1
	movq	-56(%rbp), %rax
	subq	-88(%rbp), %rax
	movq	%rax, -128(%rbp)
	movq	Bit_Buffer, %rax
	movq	%rax, -48(%rbp)
	movq	-48(%rbp), %rax
	movq	-16(%rbp), %rcx
	movq	%rax, (%rcx)
	movq	$0, -8(%rbp)
.LBB20_42:                              # %for.cond102
                                        #   Parent Loop BB20_30 Depth=1
                                        # =>  This Inner Loop Header: Depth=2
	movq	-8(%rbp), %rax
	movq	-112(%rbp), %rcx
	addq	$1, %rcx
	cmpq	%rcx, %rax
	jae	.LBB20_49
# %bb.43:                               # %for.body106
                                        #   in Loop: Header=BB20_42 Depth=2
	movq	-16(%rbp), %rax
	movq	-8(%rbp), %rcx
	movq	(%rax,%rcx,8), %rax
	movq	-8(%rbp), %rcx
	subq	Bit_Buffer(,%rcx,8), %rax
	movq	-16(%rbp), %rcx
	movq	-8(%rbp), %rdx
	movq	%rax, (%rcx,%rdx,8)
	movq	-16(%rbp), %rax
	movq	-8(%rbp), %rcx
	cmpq	$0, (%rax,%rcx,8)
	jge	.LBB20_45
# %bb.44:                               # %if.then114
                                        #   in Loop: Header=BB20_42 Depth=2
	movq	-16(%rbp), %rax
	movq	-8(%rbp), %rcx
	movq	(%rax,%rcx,8), %rax
	movq	-48(%rbp), %rcx
	subq	%rax, %rcx
	movq	%rcx, -48(%rbp)
	movq	-16(%rbp), %rax
	movq	-8(%rbp), %rcx
	movq	$0, (%rax,%rcx,8)
.LBB20_45:                              # %if.end118
                                        #   in Loop: Header=BB20_42 Depth=2
	movq	-16(%rbp), %rax
	movq	-8(%rbp), %rcx
	movq	(%rax,%rcx,8), %rax
	addq	-120(%rbp), %rax
	movq	-16(%rbp), %rcx
	movq	-8(%rbp), %rdx
	movq	%rax, 8(%rcx,%rdx,8)
	movq	-16(%rbp), %rax
	movq	-8(%rbp), %rcx
	movq	8(%rax,%rcx,8), %rax
	cmpq	-128(%rbp), %rax
	jle	.LBB20_47
# %bb.46:                               # %if.then127
                                        #   in Loop: Header=BB20_30 Depth=1
	jmp	.LBB20_50
.LBB20_47:                              # %if.end128
                                        #   in Loop: Header=BB20_42 Depth=2
	jmp	.LBB20_48
.LBB20_48:                              # %for.inc129
                                        #   in Loop: Header=BB20_42 Depth=2
	movq	-8(%rbp), %rax
	addq	$1, %rax
	movq	%rax, -8(%rbp)
	jmp	.LBB20_42
.LBB20_49:                              # %for.end131.loopexit
                                        #   in Loop: Header=BB20_30 Depth=1
	jmp	.LBB20_50
.LBB20_50:                              # %for.end131
                                        #   in Loop: Header=BB20_30 Depth=1
	movq	-128(%rbp), %rax
	movq	-64(%rbp), %rcx
	movq	-24(%rbp), %rdx
	movq	%rax, (%rcx,%rdx,8)
	movq	-48(%rbp), %rax
	movq	-72(%rbp), %rcx
	movq	-24(%rbp), %rdx
	movq	%rax, (%rcx,%rdx,8)
# %bb.51:                               # %for.inc134
                                        #   in Loop: Header=BB20_30 Depth=1
	movq	-24(%rbp), %rax
	addq	$1, %rax
	movq	%rax, -24(%rbp)
	jmp	.LBB20_30
.LBB20_52:                              # %for.end136
	movq	-40(%rbp), %rdi
	movq	-32(%rbp), %rsi
	movq	-64(%rbp), %rdx
	movq	-72(%rbp), %rcx
	callq	write_buffer
	movq	-16(%rbp), %rdi
	callq	free
	movq	-32(%rbp), %rdi
	callq	free
	movq	-64(%rbp), %rdi
	callq	free
	movq	-72(%rbp), %rdi
	callq	free
	cmpl	$688171433, -100(%rbp)  # imm = 0x2904A9A9
	jne	.LBB20_54
.LBB20_53:
	addq	$128, %rsp
	popq	%rbp
	.cfi_def_cfa %rsp, 8
	retq
.LBB20_54:                              # %func_exit
	.cfi_def_cfa %rbp, 16
	callq	detect_breach
	jmp	.LBB20_53
.Lfunc_end20:
	.size	calc_buffer.16, .Lfunc_end20-calc_buffer.16
	.cfi_endproc
                                        # -- End function
	.globl	Sort.17                 # -- Begin function Sort.17
	.p2align	4, 0x90
	.type	Sort.17,@function
Sort.17:                                # @Sort.17
	.cfi_startproc
# %bb.0:                                # %entry
	pushq	%rbp
	.cfi_def_cfa_offset 16
	.cfi_offset %rbp, -16
	movq	%rsp, %rbp
	.cfi_def_cfa_register %rbp
	subq	$48, %rsp
	movl	$240768207, -28(%rbp)   # imm = 0xE59D4CF
	movq	%rdi, -40(%rbp)
	movq	%rsi, -16(%rbp)
	movq	$0, -8(%rbp)
.LBB21_1:                               # %for.cond
                                        # =>This Loop Header: Depth=1
                                        #     Child Loop BB21_3 Depth 2
	movq	-8(%rbp), %rax
	movq	-40(%rbp), %rcx
	subq	$1, %rcx
	cmpq	%rcx, %rax
	jae	.LBB21_10
# %bb.2:                                # %for.body
                                        #   in Loop: Header=BB21_1 Depth=1
	movq	-8(%rbp), %rax
	addq	$1, %rax
	movq	%rax, -24(%rbp)
.LBB21_3:                               # %for.cond1
                                        #   Parent Loop BB21_1 Depth=1
                                        # =>  This Inner Loop Header: Depth=2
	movq	-24(%rbp), %rax
	cmpq	-40(%rbp), %rax
	jae	.LBB21_8
# %bb.4:                                # %for.body3
                                        #   in Loop: Header=BB21_3 Depth=2
	movq	-16(%rbp), %rax
	movq	-8(%rbp), %rcx
	movq	(%rax,%rcx,8), %rax
	movq	-16(%rbp), %rcx
	movq	-24(%rbp), %rdx
	cmpq	(%rcx,%rdx,8), %rax
	jbe	.LBB21_6
# %bb.5:                                # %if.then
                                        #   in Loop: Header=BB21_3 Depth=2
	movq	-16(%rbp), %rax
	movq	-8(%rbp), %rcx
	movq	(%rax,%rcx,8), %rax
	movq	%rax, -48(%rbp)
	movq	-16(%rbp), %rax
	movq	-24(%rbp), %rcx
	movq	(%rax,%rcx,8), %rax
	movq	-16(%rbp), %rcx
	movq	-8(%rbp), %rdx
	movq	%rax, (%rcx,%rdx,8)
	movq	-48(%rbp), %rax
	movq	-16(%rbp), %rcx
	movq	-24(%rbp), %rdx
	movq	%rax, (%rcx,%rdx,8)
.LBB21_6:                               # %if.end
                                        #   in Loop: Header=BB21_3 Depth=2
	jmp	.LBB21_7
.LBB21_7:                               # %for.inc
                                        #   in Loop: Header=BB21_3 Depth=2
	movq	-24(%rbp), %rax
	addq	$1, %rax
	movq	%rax, -24(%rbp)
	jmp	.LBB21_3
.LBB21_8:                               # %for.end
                                        #   in Loop: Header=BB21_1 Depth=1
	jmp	.LBB21_9
.LBB21_9:                               # %for.inc10
                                        #   in Loop: Header=BB21_1 Depth=1
	movq	-8(%rbp), %rax
	addq	$1, %rax
	movq	%rax, -8(%rbp)
	jmp	.LBB21_1
.LBB21_10:                              # %for.end12
	cmpl	$240768207, -28(%rbp)   # imm = 0xE59D4CF
	jne	.LBB21_12
.LBB21_11:
	addq	$48, %rsp
	popq	%rbp
	.cfi_def_cfa %rsp, 8
	retq
.LBB21_12:                              # %func_exit
	.cfi_def_cfa %rbp, 16
	callq	detect_breach
	jmp	.LBB21_11
.Lfunc_end21:
	.size	Sort.17, .Lfunc_end21-Sort.17
	.cfi_endproc
                                        # -- End function
	.globl	Sort.18                 # -- Begin function Sort.18
	.p2align	4, 0x90
	.type	Sort.18,@function
Sort.18:                                # @Sort.18
	.cfi_startproc
# %bb.0:                                # %entry
	pushq	%rbp
	.cfi_def_cfa_offset 16
	.cfi_offset %rbp, -16
	movq	%rsp, %rbp
	.cfi_def_cfa_register %rbp
	subq	$48, %rsp
	movl	$467425979, -28(%rbp)   # imm = 0x1BDC5ABB
	movq	%rdi, -40(%rbp)
	movq	%rsi, -16(%rbp)
	movq	$0, -8(%rbp)
.LBB22_1:                               # %for.cond
                                        # =>This Loop Header: Depth=1
                                        #     Child Loop BB22_3 Depth 2
	movq	-8(%rbp), %rax
	movq	-40(%rbp), %rcx
	subq	$1, %rcx
	cmpq	%rcx, %rax
	jae	.LBB22_10
# %bb.2:                                # %for.body
                                        #   in Loop: Header=BB22_1 Depth=1
	movq	-8(%rbp), %rax
	addq	$1, %rax
	movq	%rax, -24(%rbp)
.LBB22_3:                               # %for.cond1
                                        #   Parent Loop BB22_1 Depth=1
                                        # =>  This Inner Loop Header: Depth=2
	movq	-24(%rbp), %rax
	cmpq	-40(%rbp), %rax
	jae	.LBB22_8
# %bb.4:                                # %for.body3
                                        #   in Loop: Header=BB22_3 Depth=2
	movq	-16(%rbp), %rax
	movq	-8(%rbp), %rcx
	movq	(%rax,%rcx,8), %rax
	movq	-16(%rbp), %rcx
	movq	-24(%rbp), %rdx
	cmpq	(%rcx,%rdx,8), %rax
	jbe	.LBB22_6
# %bb.5:                                # %if.then
                                        #   in Loop: Header=BB22_3 Depth=2
	movq	-16(%rbp), %rax
	movq	-8(%rbp), %rcx
	movq	(%rax,%rcx,8), %rax
	movq	%rax, -48(%rbp)
	movq	-16(%rbp), %rax
	movq	-24(%rbp), %rcx
	movq	(%rax,%rcx,8), %rax
	movq	-16(%rbp), %rcx
	movq	-8(%rbp), %rdx
	movq	%rax, (%rcx,%rdx,8)
	movq	-48(%rbp), %rax
	movq	-16(%rbp), %rcx
	movq	-24(%rbp), %rdx
	movq	%rax, (%rcx,%rdx,8)
.LBB22_6:                               # %if.end
                                        #   in Loop: Header=BB22_3 Depth=2
	jmp	.LBB22_7
.LBB22_7:                               # %for.inc
                                        #   in Loop: Header=BB22_3 Depth=2
	movq	-24(%rbp), %rax
	addq	$1, %rax
	movq	%rax, -24(%rbp)
	jmp	.LBB22_3
.LBB22_8:                               # %for.end
                                        #   in Loop: Header=BB22_1 Depth=1
	jmp	.LBB22_9
.LBB22_9:                               # %for.inc10
                                        #   in Loop: Header=BB22_1 Depth=1
	movq	-8(%rbp), %rax
	addq	$1, %rax
	movq	%rax, -8(%rbp)
	jmp	.LBB22_1
.LBB22_10:                              # %for.end12
	cmpl	$467425979, -28(%rbp)   # imm = 0x1BDC5ABB
	jne	.LBB22_12
.LBB22_11:
	addq	$48, %rsp
	popq	%rbp
	.cfi_def_cfa %rsp, 8
	retq
.LBB22_12:                              # %func_exit
	.cfi_def_cfa %rbp, 16
	callq	detect_breach
	jmp	.LBB22_11
.Lfunc_end22:
	.size	Sort.18, .Lfunc_end22-Sort.18
	.cfi_endproc
                                        # -- End function
	.globl	Sort.19                 # -- Begin function Sort.19
	.p2align	4, 0x90
	.type	Sort.19,@function
Sort.19:                                # @Sort.19
	.cfi_startproc
# %bb.0:                                # %entry
	pushq	%rbp
	.cfi_def_cfa_offset 16
	.cfi_offset %rbp, -16
	movq	%rsp, %rbp
	.cfi_def_cfa_register %rbp
	subq	$48, %rsp
	movl	$1548135112, -28(%rbp)  # imm = 0x5C46AAC8
	movq	%rdi, -40(%rbp)
	movq	%rsi, -16(%rbp)
	movq	$0, -8(%rbp)
.LBB23_1:                               # %for.cond
                                        # =>This Loop Header: Depth=1
                                        #     Child Loop BB23_3 Depth 2
	movq	-8(%rbp), %rax
	movq	-40(%rbp), %rcx
	subq	$1, %rcx
	cmpq	%rcx, %rax
	jae	.LBB23_10
# %bb.2:                                # %for.body
                                        #   in Loop: Header=BB23_1 Depth=1
	movq	-8(%rbp), %rax
	addq	$1, %rax
	movq	%rax, -24(%rbp)
.LBB23_3:                               # %for.cond1
                                        #   Parent Loop BB23_1 Depth=1
                                        # =>  This Inner Loop Header: Depth=2
	movq	-24(%rbp), %rax
	cmpq	-40(%rbp), %rax
	jae	.LBB23_8
# %bb.4:                                # %for.body3
                                        #   in Loop: Header=BB23_3 Depth=2
	movq	-16(%rbp), %rax
	movq	-8(%rbp), %rcx
	movq	(%rax,%rcx,8), %rax
	movq	-16(%rbp), %rcx
	movq	-24(%rbp), %rdx
	cmpq	(%rcx,%rdx,8), %rax
	jbe	.LBB23_6
# %bb.5:                                # %if.then
                                        #   in Loop: Header=BB23_3 Depth=2
	movq	-16(%rbp), %rax
	movq	-8(%rbp), %rcx
	movq	(%rax,%rcx,8), %rax
	movq	%rax, -48(%rbp)
	movq	-16(%rbp), %rax
	movq	-24(%rbp), %rcx
	movq	(%rax,%rcx,8), %rax
	movq	-16(%rbp), %rcx
	movq	-8(%rbp), %rdx
	movq	%rax, (%rcx,%rdx,8)
	movq	-48(%rbp), %rax
	movq	-16(%rbp), %rcx
	movq	-24(%rbp), %rdx
	movq	%rax, (%rcx,%rdx,8)
.LBB23_6:                               # %if.end
                                        #   in Loop: Header=BB23_3 Depth=2
	jmp	.LBB23_7
.LBB23_7:                               # %for.inc
                                        #   in Loop: Header=BB23_3 Depth=2
	movq	-24(%rbp), %rax
	addq	$1, %rax
	movq	%rax, -24(%rbp)
	jmp	.LBB23_3
.LBB23_8:                               # %for.end
                                        #   in Loop: Header=BB23_1 Depth=1
	jmp	.LBB23_9
.LBB23_9:                               # %for.inc10
                                        #   in Loop: Header=BB23_1 Depth=1
	movq	-8(%rbp), %rax
	addq	$1, %rax
	movq	%rax, -8(%rbp)
	jmp	.LBB23_1
.LBB23_10:                              # %for.end12
	cmpl	$1548135112, -28(%rbp)  # imm = 0x5C46AAC8
	jne	.LBB23_12
.LBB23_11:
	addq	$48, %rsp
	popq	%rbp
	.cfi_def_cfa %rsp, 8
	retq
.LBB23_12:                              # %func_exit
	.cfi_def_cfa %rbp, 16
	callq	detect_breach
	jmp	.LBB23_11
.Lfunc_end23:
	.size	Sort.19, .Lfunc_end23-Sort.19
	.cfi_endproc
                                        # -- End function
	.globl	get_LeakyBucketRate.20  # -- Begin function get_LeakyBucketRate.20
	.p2align	4, 0x90
	.type	get_LeakyBucketRate.20,@function
get_LeakyBucketRate.20:                 # @get_LeakyBucketRate.20
	.cfi_startproc
# %bb.0:                                # %entry
	pushq	%rbp
	.cfi_def_cfa_offset 16
	.cfi_offset %rbp, -16
	movq	%rsp, %rbp
	.cfi_def_cfa_register %rbp
	pushq	%rbx
	subq	$56, %rsp
	.cfi_offset %rbx, -24
	movl	$940052892, -36(%rbp)   # imm = 0x3808119C
	movq	%rdi, -56(%rbp)
	movq	%rsi, -48(%rbp)
	movq	input, %rdi
	addq	$2480, %rdi             # imm = 0x9B0
	movabsq	$.L.str, %rsi
	callq	fopen
	movq	%rax, -32(%rbp)
	cmpq	$0, %rax
	jne	.LBB24_2
# %bb.1:                                # %if.then
	movabsq	$.L.str.1, %rdi
	movb	$0, %al
	callq	printf
	movl	$0, -12(%rbp)
	jmp	.LBB24_9
.LBB24_2:                               # %if.end
	movq	$0, -24(%rbp)
.LBB24_3:                               # %for.cond
                                        # =>This Inner Loop Header: Depth=1
	movq	-24(%rbp), %rax
	cmpq	-56(%rbp), %rax
	jae	.LBB24_8
# %bb.4:                                # %for.body
                                        #   in Loop: Header=BB24_3 Depth=1
	movq	-32(%rbp), %rdi
	movabsq	$.L.str.2, %rsi
	leaq	-64(%rbp), %rdx
	movb	$0, %al
	callq	__isoc99_fscanf
	movl	$1, %ecx
	cmpl	%eax, %ecx
	je	.LBB24_6
# %bb.5:                                # %if.then5
	movabsq	$.L.str.3, %rdi
	movb	$0, %al
	callq	printf
	movq	-32(%rbp), %rdi
	callq	fclose
	movl	$0, -12(%rbp)
	jmp	.LBB24_9
.LBB24_6:                               # %if.end8
                                        #   in Loop: Header=BB24_3 Depth=1
	movq	-64(%rbp), %rax
	movq	-48(%rbp), %rcx
	movq	-24(%rbp), %rdx
	movq	%rax, (%rcx,%rdx,8)
# %bb.7:                                # %for.inc
                                        #   in Loop: Header=BB24_3 Depth=1
	movq	-24(%rbp), %rax
	addq	$1, %rax
	movq	%rax, -24(%rbp)
	jmp	.LBB24_3
.LBB24_8:                               # %for.end
	movq	-32(%rbp), %rdi
	callq	fclose
	movl	$1, -12(%rbp)
.LBB24_9:                               # %return
	movl	-12(%rbp), %ebx
	cmpl	$940052892, -36(%rbp)   # imm = 0x3808119C
	jne	.LBB24_11
.LBB24_10:
	movl	%ebx, %eax
	addq	$56, %rsp
	popq	%rbx
	popq	%rbp
	.cfi_def_cfa %rsp, 8
	retq
.LBB24_11:                              # %func_exit
	.cfi_def_cfa %rbp, 16
	callq	detect_breach
	jmp	.LBB24_10
.Lfunc_end24:
	.size	get_LeakyBucketRate.20, .Lfunc_end24-get_LeakyBucketRate.20
	.cfi_endproc
                                        # -- End function
	.globl	write_buffer.21         # -- Begin function write_buffer.21
	.p2align	4, 0x90
	.type	write_buffer.21,@function
write_buffer.21:                        # @write_buffer.21
	.cfi_startproc
# %bb.0:                                # %entry
	pushq	%rbp
	.cfi_def_cfa_offset 16
	.cfi_offset %rbp, -16
	movq	%rsp, %rbp
	.cfi_def_cfa_register %rbp
	subq	$64, %rsp
	movl	$1574866082, -28(%rbp)  # imm = 0x5DDE8CA2
	movq	%rdi, -24(%rbp)
	movq	%rsi, -40(%rbp)
	movq	%rdx, -48(%rbp)
	movq	%rcx, -56(%rbp)
	movq	input, %rdi
	addq	$2680, %rdi             # imm = 0xA78
	movabsq	$.L.str.4, %rsi
	callq	fopen
	movq	%rax, -16(%rbp)
	cmpq	$0, %rax
	jne	.LBB25_2
# %bb.1:                                # %if.then
	movq	input, %rcx
	addq	$2680, %rcx             # imm = 0xA78
	movabsq	$errortext, %rdi
	movl	$300, %esi              # imm = 0x12C
	movabsq	$.L.str.5, %rdx
	movb	$0, %al
	callq	snprintf
	movabsq	$errortext, %rdi
	movl	$1, %esi
	callq	error
.LBB25_2:                               # %if.end
	movq	-24(%rbp), %rdi
	movq	-16(%rbp), %rsi
	callq	PutBigDoubleWord
	movq	-24(%rbp), %rsi
	movabsq	$.L.str.6, %rdi
	movb	$0, %al
	callq	printf
	movq	$0, -8(%rbp)
.LBB25_3:                               # %for.cond
                                        # =>This Inner Loop Header: Depth=1
	movq	-8(%rbp), %rax
	cmpq	-24(%rbp), %rax
	jae	.LBB25_6
# %bb.4:                                # %for.body
                                        #   in Loop: Header=BB25_3 Depth=1
	movq	-40(%rbp), %rax
	movq	-8(%rbp), %rcx
	movq	(%rax,%rcx,8), %rdi
	movq	-16(%rbp), %rsi
	callq	PutBigDoubleWord
	movq	-48(%rbp), %rax
	movq	-8(%rbp), %rcx
	movq	(%rax,%rcx,8), %rdi
	movq	-16(%rbp), %rsi
	callq	PutBigDoubleWord
	movq	-56(%rbp), %rax
	movq	-8(%rbp), %rcx
	movq	(%rax,%rcx,8), %rdi
	movq	-16(%rbp), %rsi
	callq	PutBigDoubleWord
	movq	-40(%rbp), %rax
	movq	-8(%rbp), %rcx
	movq	(%rax,%rcx,8), %rsi
	movq	-48(%rbp), %rax
	movq	-8(%rbp), %rcx
	movq	(%rax,%rcx,8), %rdx
	movq	-56(%rbp), %rax
	movq	-8(%rbp), %rcx
	movq	(%rax,%rcx,8), %rcx
	movabsq	$.L.str.7, %rdi
	movb	$0, %al
	callq	printf
# %bb.5:                                # %for.inc
                                        #   in Loop: Header=BB25_3 Depth=1
	movq	-8(%rbp), %rax
	addq	$1, %rax
	movq	%rax, -8(%rbp)
	jmp	.LBB25_3
.LBB25_6:                               # %for.end
	movq	-16(%rbp), %rdi
	callq	fclose
	cmpl	$1574866082, -28(%rbp)  # imm = 0x5DDE8CA2
	jne	.LBB25_8
.LBB25_7:
	addq	$64, %rsp
	popq	%rbp
	.cfi_def_cfa %rsp, 8
	retq
.LBB25_8:                               # %func_exit
	.cfi_def_cfa %rbp, 16
	callq	detect_breach
	jmp	.LBB25_7
.Lfunc_end25:
	.size	write_buffer.21, .Lfunc_end25-write_buffer.21
	.cfi_endproc
                                        # -- End function
	.section	.rodata.cst4,"aM",@progbits,4
	.p2align	2               # -- Begin function calc_buffer.22
.LCPI26_0:
	.long	1593835520              # float 9.22337203E+18
	.text
	.globl	calc_buffer.22
	.p2align	4, 0x90
	.type	calc_buffer.22,@function
calc_buffer.22:                         # @calc_buffer.22
	.cfi_startproc
# %bb.0:                                # %entry
	pushq	%rbp
	.cfi_def_cfa_offset 16
	.cfi_offset %rbp, -16
	movq	%rsp, %rbp
	.cfi_def_cfa_register %rbp
	subq	$128, %rsp
	movl	$1906937331, -100(%rbp) # imm = 0x71A98DF3
	movq	$0, -128(%rbp)
	movq	stdout, %rdi
	movabsq	$.L.str.8, %rsi
	movb	$0, %al
	callq	fprintf
	movq	total_frame_buffer, %rsi
	movq	input, %rax
	movl	8(%rax), %edx
	movabsq	$.L.str.9, %rdi
	movb	$0, %al
	callq	printf
	movq	input, %rax
	movslq	2476(%rax), %rax
	movq	%rax, -40(%rbp)
	movq	total_frame_buffer, %rdi
	addq	$1, %rdi
	movl	$8, %esi
	callq	calloc
	movq	%rax, -16(%rbp)
	cmpq	$0, -16(%rbp)
	jne	.LBB26_2
# %bb.1:                                # %if.then
	movabsq	$.L.str.10, %rdi
	callq	no_mem_exit
.LBB26_2:                               # %if.end
	movq	-40(%rbp), %rdi
	movl	$8, %esi
	callq	calloc
	movq	%rax, -32(%rbp)
	cmpq	$0, -32(%rbp)
	jne	.LBB26_4
# %bb.3:                                # %if.then6
	movabsq	$.L.str.11, %rdi
	callq	no_mem_exit
.LBB26_4:                               # %if.end7
	movq	-40(%rbp), %rdi
	movl	$8, %esi
	callq	calloc
	movq	%rax, -72(%rbp)
	cmpq	$0, -72(%rbp)
	jne	.LBB26_6
# %bb.5:                                # %if.then10
	movabsq	$.L.str.12, %rdi
	callq	no_mem_exit
.LBB26_6:                               # %if.end11
	movq	-40(%rbp), %rdi
	movl	$8, %esi
	callq	calloc
	movq	%rax, -64(%rbp)
	cmpq	$0, -64(%rbp)
	jne	.LBB26_8
# %bb.7:                                # %if.then14
	movabsq	$.L.str.13, %rdi
	callq	no_mem_exit
.LBB26_8:                               # %if.end15
	movq	$0, -96(%rbp)
	movq	$0, -8(%rbp)
.LBB26_9:                               # %for.cond
                                        # =>This Inner Loop Header: Depth=1
	movq	-8(%rbp), %rax
	cmpq	total_frame_buffer, %rax
	jae	.LBB26_12
# %bb.10:                               # %for.body
                                        #   in Loop: Header=BB26_9 Depth=1
	movq	-8(%rbp), %rax
	movq	Bit_Buffer(,%rax,8), %rax
	addq	-96(%rbp), %rax
	movq	%rax, -96(%rbp)
# %bb.11:                               # %for.inc
                                        #   in Loop: Header=BB26_9 Depth=1
	movq	-8(%rbp), %rax
	addq	$1, %rax
	movq	%rax, -8(%rbp)
	jmp	.LBB26_9
.LBB26_12:                              # %for.end
	movq	-96(%rbp), %rax
	vcvtsi2ss	%rax, %xmm0, %xmm1
	movq	%rax, %rcx
	shrq	%rcx
	movl	%eax, %edx
	andl	$1, %edx
	orq	%rcx, %rdx
	vcvtsi2ss	%rdx, %xmm0, %xmm0
	vaddss	%xmm0, %xmm0, %xmm0
	testq	%rax, %rax
	js	.LBB26_14
# %bb.13:                               # %for.end
	vmovaps	%xmm1, %xmm0
.LBB26_14:                              # %for.end
	movq	total_frame_buffer(%rip), %rax
	vcvtsi2ss	%rax, %xmm0, %xmm1
	movq	%rax, %rcx
	shrq	%rcx
	movl	%eax, %edx
	andl	$1, %edx
	orq	%rcx, %rdx
	vcvtsi2ss	%rdx, %xmm0, %xmm2
	vaddss	%xmm2, %xmm2, %xmm2
	testq	%rax, %rax
	js	.LBB26_16
# %bb.15:                               # %for.end
	vmovaps	%xmm1, %xmm2
.LBB26_16:                              # %for.end
	vdivss	%xmm2, %xmm0, %xmm0
	vmovss	.LCPI26_0(%rip), %xmm1  # xmm1 = mem[0],zero,zero,zero
	vsubss	%xmm1, %xmm0, %xmm2
	vcvttss2si	%xmm2, %rax
	movabsq	$-9223372036854775808, %rcx # imm = 0x8000000000000000
	xorq	%rcx, %rax
	vcvttss2si	%xmm0, %rcx
	vucomiss	%xmm1, %xmm0
	cmovbq	%rcx, %rax
	movq	%rax, -88(%rbp)
	movq	-40(%rbp), %rdi
	movq	-32(%rbp), %rsi
	callq	get_LeakyBucketRate
	movl	$1, %ecx
	cmpl	%eax, %ecx
	je	.LBB26_29
# %bb.17:                               # %if.then24
	movq	$0, -24(%rbp)
.LBB26_18:                              # %for.cond25
                                        # =>This Inner Loop Header: Depth=1
	movq	-24(%rbp), %rax
	cmpq	-40(%rbp), %rax
	jae	.LBB26_28
# %bb.19:                               # %for.body28
                                        #   in Loop: Header=BB26_18 Depth=1
	cmpq	$0, -24(%rbp)
	jne	.LBB26_23
# %bb.20:                               # %if.then31
                                        #   in Loop: Header=BB26_18 Depth=1
	movq	-88(%rbp), %rax
	vcvtsi2ss	%rax, %xmm0, %xmm0
	movq	%rax, %rcx
	shrq	%rcx
	movl	%eax, %edx
	andl	$1, %edx
	orq	%rcx, %rdx
	vcvtsi2ss	%rdx, %xmm0, %xmm1
	vaddss	%xmm1, %xmm1, %xmm1
	testq	%rax, %rax
	js	.LBB26_22
# %bb.21:                               # %if.then31
                                        #   in Loop: Header=BB26_18 Depth=1
	vmovaps	%xmm0, %xmm1
.LBB26_22:                              # %if.then31
                                        #   in Loop: Header=BB26_18 Depth=1
	movq	img(%rip), %rax
	vmovss	48(%rax), %xmm0         # xmm0 = mem[0],zero,zero,zero
	vmulss	%xmm0, %xmm1, %xmm0
	vmovss	.LCPI26_0(%rip), %xmm1  # xmm1 = mem[0],zero,zero,zero
	vsubss	%xmm1, %xmm0, %xmm2
	vcvttss2si	%xmm2, %rax
	movabsq	$-9223372036854775808, %rcx # imm = 0x8000000000000000
	xorq	%rcx, %rax
	vcvttss2si	%xmm0, %rcx
	vucomiss	%xmm1, %xmm0
	cmovbq	%rcx, %rax
	movq	input, %rcx
	movl	20(%rcx), %ecx
	addl	$1, %ecx
	movslq	%ecx, %rcx
	xorl	%edx, %edx
	divq	%rcx
	movq	-32(%rbp), %rcx
	movq	-24(%rbp), %rdx
	movq	%rax, (%rcx,%rdx,8)
	jmp	.LBB26_26
.LBB26_23:                              # %if.else
                                        #   in Loop: Header=BB26_18 Depth=1
	movq	-32(%rbp), %rax
	movq	-24(%rbp), %rcx
	movq	-8(%rax,%rcx,8), %rax
	movq	%rax, %rcx
	shrq	%rcx
	movl	%eax, %edx
	andl	$1, %edx
	orq	%rcx, %rdx
	vcvtsi2ss	%rdx, %xmm0, %xmm0
	vaddss	%xmm0, %xmm0, %xmm0
	vcvtsi2ss	%rax, %xmm0, %xmm1
	testq	%rax, %rax
	js	.LBB26_25
# %bb.24:                               # %if.else
                                        #   in Loop: Header=BB26_18 Depth=1
	vmovaps	%xmm1, %xmm0
.LBB26_25:                              # %if.else
                                        #   in Loop: Header=BB26_18 Depth=1
	movq	-88(%rbp), %rax
	shrq	$2, %rax
	vcvtsi2ss	%rax, %xmm0, %xmm1
	movq	img(%rip), %rax
	vmovss	48(%rax), %xmm2         # xmm2 = mem[0],zero,zero,zero
	vmulss	%xmm2, %xmm1, %xmm1
	movq	input(%rip), %rax
	movl	20(%rax), %eax
	addl	$1, %eax
	vcvtsi2ss	%eax, %xmm0, %xmm2
	vdivss	%xmm2, %xmm1, %xmm1
	vaddss	%xmm1, %xmm0, %xmm0
	vmovss	.LCPI26_0(%rip), %xmm1  # xmm1 = mem[0],zero,zero,zero
	vsubss	%xmm1, %xmm0, %xmm2
	vcvttss2si	%xmm2, %rax
	movabsq	$-9223372036854775808, %rcx # imm = 0x8000000000000000
	xorq	%rcx, %rax
	vcvttss2si	%xmm0, %rcx
	vucomiss	%xmm1, %xmm0
	cmovbq	%rcx, %rax
	movq	-32(%rbp), %rcx
	movq	-24(%rbp), %rdx
	movq	%rax, (%rcx,%rdx,8)
.LBB26_26:                              # %if.end51
                                        #   in Loop: Header=BB26_18 Depth=1
	jmp	.LBB26_27
.LBB26_27:                              # %for.inc52
                                        #   in Loop: Header=BB26_18 Depth=1
	movq	-24(%rbp), %rax
	addq	$1, %rax
	movq	%rax, -24(%rbp)
	jmp	.LBB26_18
.LBB26_28:                              # %for.end54
	jmp	.LBB26_29
.LBB26_29:                              # %if.end55
	movq	-40(%rbp), %rdi
	movq	-32(%rbp), %rsi
	callq	Sort
	imulq	$20, -88(%rbp), %rax
	movq	%rax, -56(%rbp)
	movq	$0, -24(%rbp)
.LBB26_30:                              # %for.cond57
                                        # =>This Loop Header: Depth=1
                                        #     Child Loop BB26_34 Depth 2
                                        #     Child Loop BB26_42 Depth 2
	movq	-24(%rbp), %rax
	cmpq	-40(%rbp), %rax
	jae	.LBB26_52
# %bb.31:                               # %for.body60
                                        #   in Loop: Header=BB26_30 Depth=1
	movq	-32(%rbp), %rax
	movq	-24(%rbp), %rcx
	movq	(%rax,%rcx,8), %rax
	movq	input(%rip), %rcx
	movl	20(%rcx), %ecx
	addl	$1, %ecx
	movslq	%ecx, %rcx
	imulq	%rcx, %rax
	movq	%rax, %rcx
	shrq	%rcx
	movl	%eax, %edx
	andl	$1, %edx
	orq	%rcx, %rdx
	vcvtsi2ss	%rdx, %xmm0, %xmm0
	vaddss	%xmm0, %xmm0, %xmm0
	vcvtsi2ss	%rax, %xmm0, %xmm1
	testq	%rax, %rax
	js	.LBB26_33
# %bb.32:                               # %for.body60
                                        #   in Loop: Header=BB26_30 Depth=1
	vmovaps	%xmm1, %xmm0
.LBB26_33:                              # %for.body60
                                        #   in Loop: Header=BB26_30 Depth=1
	movq	img, %rax
	vdivss	48(%rax), %xmm0, %xmm0
	vcvttss2si	%xmm0, %rax
	movq	%rax, -112(%rbp)
	movq	-56(%rbp), %rax
	movq	%rax, -48(%rbp)
	movq	-48(%rbp), %rax
	movq	-16(%rbp), %rcx
	movq	%rax, (%rcx)
	movq	-56(%rbp), %rax
	movq	%rax, -80(%rbp)
	movq	$0, -8(%rbp)
.LBB26_34:                              # %for.cond71
                                        #   Parent Loop BB26_30 Depth=1
                                        # =>  This Inner Loop Header: Depth=2
	movq	-8(%rbp), %rax
	cmpq	total_frame_buffer, %rax
	jae	.LBB26_41
# %bb.35:                               # %for.body74
                                        #   in Loop: Header=BB26_34 Depth=2
	movq	-16(%rbp), %rax
	movq	-8(%rbp), %rcx
	movq	(%rax,%rcx,8), %rax
	movq	-8(%rbp), %rcx
	subq	Bit_Buffer(,%rcx,8), %rax
	movq	-16(%rbp), %rcx
	movq	-8(%rbp), %rdx
	movq	%rax, (%rcx,%rdx,8)
	movq	-16(%rbp), %rax
	movq	-8(%rbp), %rcx
	movq	(%rax,%rcx,8), %rax
	cmpq	-80(%rbp), %rax
	jge	.LBB26_37
# %bb.36:                               # %if.then82
                                        #   in Loop: Header=BB26_34 Depth=2
	movq	-16(%rbp), %rax
	movq	-8(%rbp), %rcx
	movq	(%rax,%rcx,8), %rax
	movq	%rax, -80(%rbp)
	movq	-8(%rbp), %rax
	movq	%rax, -128(%rbp)
.LBB26_37:                              # %if.end84
                                        #   in Loop: Header=BB26_34 Depth=2
	movq	-16(%rbp), %rax
	movq	-8(%rbp), %rcx
	movq	(%rax,%rcx,8), %rax
	addq	-112(%rbp), %rax
	movq	-16(%rbp), %rcx
	movq	-8(%rbp), %rdx
	movq	%rax, 8(%rcx,%rdx,8)
	movq	-16(%rbp), %rax
	movq	-8(%rbp), %rcx
	movq	8(%rax,%rcx,8), %rax
	cmpq	-56(%rbp), %rax
	jle	.LBB26_39
# %bb.38:                               # %if.then93
                                        #   in Loop: Header=BB26_34 Depth=2
	movq	-56(%rbp), %rax
	movq	-16(%rbp), %rcx
	movq	-8(%rbp), %rdx
	movq	%rax, 8(%rcx,%rdx,8)
.LBB26_39:                              # %if.end96
                                        #   in Loop: Header=BB26_34 Depth=2
	jmp	.LBB26_40
.LBB26_40:                              # %for.inc97
                                        #   in Loop: Header=BB26_34 Depth=2
	movq	-8(%rbp), %rax
	addq	$1, %rax
	movq	%rax, -8(%rbp)
	jmp	.LBB26_34
.LBB26_41:                              # %for.end99
                                        #   in Loop: Header=BB26_30 Depth=1
	movq	-56(%rbp), %rax
	subq	-80(%rbp), %rax
	movq	%rax, -120(%rbp)
	movq	Bit_Buffer, %rax
	movq	%rax, -48(%rbp)
	movq	-48(%rbp), %rax
	movq	-16(%rbp), %rcx
	movq	%rax, (%rcx)
	movq	$0, -8(%rbp)
.LBB26_42:                              # %for.cond102
                                        #   Parent Loop BB26_30 Depth=1
                                        # =>  This Inner Loop Header: Depth=2
	movq	-8(%rbp), %rax
	movq	-128(%rbp), %rcx
	addq	$1, %rcx
	cmpq	%rcx, %rax
	jae	.LBB26_49
# %bb.43:                               # %for.body106
                                        #   in Loop: Header=BB26_42 Depth=2
	movq	-16(%rbp), %rax
	movq	-8(%rbp), %rcx
	movq	(%rax,%rcx,8), %rax
	movq	-8(%rbp), %rcx
	subq	Bit_Buffer(,%rcx,8), %rax
	movq	-16(%rbp), %rcx
	movq	-8(%rbp), %rdx
	movq	%rax, (%rcx,%rdx,8)
	movq	-16(%rbp), %rax
	movq	-8(%rbp), %rcx
	cmpq	$0, (%rax,%rcx,8)
	jge	.LBB26_45
# %bb.44:                               # %if.then114
                                        #   in Loop: Header=BB26_42 Depth=2
	movq	-16(%rbp), %rax
	movq	-8(%rbp), %rcx
	movq	(%rax,%rcx,8), %rax
	movq	-48(%rbp), %rcx
	subq	%rax, %rcx
	movq	%rcx, -48(%rbp)
	movq	-16(%rbp), %rax
	movq	-8(%rbp), %rcx
	movq	$0, (%rax,%rcx,8)
.LBB26_45:                              # %if.end118
                                        #   in Loop: Header=BB26_42 Depth=2
	movq	-16(%rbp), %rax
	movq	-8(%rbp), %rcx
	movq	(%rax,%rcx,8), %rax
	addq	-112(%rbp), %rax
	movq	-16(%rbp), %rcx
	movq	-8(%rbp), %rdx
	movq	%rax, 8(%rcx,%rdx,8)
	movq	-16(%rbp), %rax
	movq	-8(%rbp), %rcx
	movq	8(%rax,%rcx,8), %rax
	cmpq	-120(%rbp), %rax
	jle	.LBB26_47
# %bb.46:                               # %if.then127
                                        #   in Loop: Header=BB26_30 Depth=1
	jmp	.LBB26_50
.LBB26_47:                              # %if.end128
                                        #   in Loop: Header=BB26_42 Depth=2
	jmp	.LBB26_48
.LBB26_48:                              # %for.inc129
                                        #   in Loop: Header=BB26_42 Depth=2
	movq	-8(%rbp), %rax
	addq	$1, %rax
	movq	%rax, -8(%rbp)
	jmp	.LBB26_42
.LBB26_49:                              # %for.end131.loopexit
                                        #   in Loop: Header=BB26_30 Depth=1
	jmp	.LBB26_50
.LBB26_50:                              # %for.end131
                                        #   in Loop: Header=BB26_30 Depth=1
	movq	-120(%rbp), %rax
	movq	-72(%rbp), %rcx
	movq	-24(%rbp), %rdx
	movq	%rax, (%rcx,%rdx,8)
	movq	-48(%rbp), %rax
	movq	-64(%rbp), %rcx
	movq	-24(%rbp), %rdx
	movq	%rax, (%rcx,%rdx,8)
# %bb.51:                               # %for.inc134
                                        #   in Loop: Header=BB26_30 Depth=1
	movq	-24(%rbp), %rax
	addq	$1, %rax
	movq	%rax, -24(%rbp)
	jmp	.LBB26_30
.LBB26_52:                              # %for.end136
	movq	-40(%rbp), %rdi
	movq	-32(%rbp), %rsi
	movq	-72(%rbp), %rdx
	movq	-64(%rbp), %rcx
	callq	write_buffer
	movq	-16(%rbp), %rdi
	callq	free
	movq	-32(%rbp), %rdi
	callq	free
	movq	-72(%rbp), %rdi
	callq	free
	movq	-64(%rbp), %rdi
	callq	free
	cmpl	$1906937331, -100(%rbp) # imm = 0x71A98DF3
	jne	.LBB26_54
.LBB26_53:
	addq	$128, %rsp
	popq	%rbp
	.cfi_def_cfa %rsp, 8
	retq
.LBB26_54:                              # %func_exit
	.cfi_def_cfa %rbp, 16
	callq	detect_breach
	jmp	.LBB26_53
.Lfunc_end26:
	.size	calc_buffer.22, .Lfunc_end26-calc_buffer.22
	.cfi_endproc
                                        # -- End function
	.globl	Sort.23                 # -- Begin function Sort.23
	.p2align	4, 0x90
	.type	Sort.23,@function
Sort.23:                                # @Sort.23
	.cfi_startproc
# %bb.0:                                # %entry
	pushq	%rbp
	.cfi_def_cfa_offset 16
	.cfi_offset %rbp, -16
	movq	%rsp, %rbp
	.cfi_def_cfa_register %rbp
	subq	$48, %rsp
	movl	$1934357845, -28(%rbp)  # imm = 0x734BF555
	movq	%rdi, -40(%rbp)
	movq	%rsi, -24(%rbp)
	movq	$0, -8(%rbp)
.LBB27_1:                               # %for.cond
                                        # =>This Loop Header: Depth=1
                                        #     Child Loop BB27_3 Depth 2
	movq	-8(%rbp), %rax
	movq	-40(%rbp), %rcx
	subq	$1, %rcx
	cmpq	%rcx, %rax
	jae	.LBB27_10
# %bb.2:                                # %for.body
                                        #   in Loop: Header=BB27_1 Depth=1
	movq	-8(%rbp), %rax
	addq	$1, %rax
	movq	%rax, -16(%rbp)
.LBB27_3:                               # %for.cond1
                                        #   Parent Loop BB27_1 Depth=1
                                        # =>  This Inner Loop Header: Depth=2
	movq	-16(%rbp), %rax
	cmpq	-40(%rbp), %rax
	jae	.LBB27_8
# %bb.4:                                # %for.body3
                                        #   in Loop: Header=BB27_3 Depth=2
	movq	-24(%rbp), %rax
	movq	-8(%rbp), %rcx
	movq	(%rax,%rcx,8), %rax
	movq	-24(%rbp), %rcx
	movq	-16(%rbp), %rdx
	cmpq	(%rcx,%rdx,8), %rax
	jbe	.LBB27_6
# %bb.5:                                # %if.then
                                        #   in Loop: Header=BB27_3 Depth=2
	movq	-24(%rbp), %rax
	movq	-8(%rbp), %rcx
	movq	(%rax,%rcx,8), %rax
	movq	%rax, -48(%rbp)
	movq	-24(%rbp), %rax
	movq	-16(%rbp), %rcx
	movq	(%rax,%rcx,8), %rax
	movq	-24(%rbp), %rcx
	movq	-8(%rbp), %rdx
	movq	%rax, (%rcx,%rdx,8)
	movq	-48(%rbp), %rax
	movq	-24(%rbp), %rcx
	movq	-16(%rbp), %rdx
	movq	%rax, (%rcx,%rdx,8)
.LBB27_6:                               # %if.end
                                        #   in Loop: Header=BB27_3 Depth=2
	jmp	.LBB27_7
.LBB27_7:                               # %for.inc
                                        #   in Loop: Header=BB27_3 Depth=2
	movq	-16(%rbp), %rax
	addq	$1, %rax
	movq	%rax, -16(%rbp)
	jmp	.LBB27_3
.LBB27_8:                               # %for.end
                                        #   in Loop: Header=BB27_1 Depth=1
	jmp	.LBB27_9
.LBB27_9:                               # %for.inc10
                                        #   in Loop: Header=BB27_1 Depth=1
	movq	-8(%rbp), %rax
	addq	$1, %rax
	movq	%rax, -8(%rbp)
	jmp	.LBB27_1
.LBB27_10:                              # %for.end12
	cmpl	$1934357845, -28(%rbp)  # imm = 0x734BF555
	jne	.LBB27_12
.LBB27_11:
	addq	$48, %rsp
	popq	%rbp
	.cfi_def_cfa %rsp, 8
	retq
.LBB27_12:                              # %func_exit
	.cfi_def_cfa %rbp, 16
	callq	detect_breach
	jmp	.LBB27_11
.Lfunc_end27:
	.size	Sort.23, .Lfunc_end27-Sort.23
	.cfi_endproc
                                        # -- End function
	.globl	Sort.24                 # -- Begin function Sort.24
	.p2align	4, 0x90
	.type	Sort.24,@function
Sort.24:                                # @Sort.24
	.cfi_startproc
# %bb.0:                                # %entry
	pushq	%rbp
	.cfi_def_cfa_offset 16
	.cfi_offset %rbp, -16
	movq	%rsp, %rbp
	.cfi_def_cfa_register %rbp
	subq	$48, %rsp
	movl	$106480131, -28(%rbp)   # imm = 0x658C203
	movq	%rdi, -40(%rbp)
	movq	%rsi, -16(%rbp)
	movq	$0, -8(%rbp)
.LBB28_1:                               # %for.cond
                                        # =>This Loop Header: Depth=1
                                        #     Child Loop BB28_3 Depth 2
	movq	-8(%rbp), %rax
	movq	-40(%rbp), %rcx
	subq	$1, %rcx
	cmpq	%rcx, %rax
	jae	.LBB28_10
# %bb.2:                                # %for.body
                                        #   in Loop: Header=BB28_1 Depth=1
	movq	-8(%rbp), %rax
	addq	$1, %rax
	movq	%rax, -24(%rbp)
.LBB28_3:                               # %for.cond1
                                        #   Parent Loop BB28_1 Depth=1
                                        # =>  This Inner Loop Header: Depth=2
	movq	-24(%rbp), %rax
	cmpq	-40(%rbp), %rax
	jae	.LBB28_8
# %bb.4:                                # %for.body3
                                        #   in Loop: Header=BB28_3 Depth=2
	movq	-16(%rbp), %rax
	movq	-8(%rbp), %rcx
	movq	(%rax,%rcx,8), %rax
	movq	-16(%rbp), %rcx
	movq	-24(%rbp), %rdx
	cmpq	(%rcx,%rdx,8), %rax
	jbe	.LBB28_6
# %bb.5:                                # %if.then
                                        #   in Loop: Header=BB28_3 Depth=2
	movq	-16(%rbp), %rax
	movq	-8(%rbp), %rcx
	movq	(%rax,%rcx,8), %rax
	movq	%rax, -48(%rbp)
	movq	-16(%rbp), %rax
	movq	-24(%rbp), %rcx
	movq	(%rax,%rcx,8), %rax
	movq	-16(%rbp), %rcx
	movq	-8(%rbp), %rdx
	movq	%rax, (%rcx,%rdx,8)
	movq	-48(%rbp), %rax
	movq	-16(%rbp), %rcx
	movq	-24(%rbp), %rdx
	movq	%rax, (%rcx,%rdx,8)
.LBB28_6:                               # %if.end
                                        #   in Loop: Header=BB28_3 Depth=2
	jmp	.LBB28_7
.LBB28_7:                               # %for.inc
                                        #   in Loop: Header=BB28_3 Depth=2
	movq	-24(%rbp), %rax
	addq	$1, %rax
	movq	%rax, -24(%rbp)
	jmp	.LBB28_3
.LBB28_8:                               # %for.end
                                        #   in Loop: Header=BB28_1 Depth=1
	jmp	.LBB28_9
.LBB28_9:                               # %for.inc10
                                        #   in Loop: Header=BB28_1 Depth=1
	movq	-8(%rbp), %rax
	addq	$1, %rax
	movq	%rax, -8(%rbp)
	jmp	.LBB28_1
.LBB28_10:                              # %for.end12
	cmpl	$106480131, -28(%rbp)   # imm = 0x658C203
	jne	.LBB28_12
.LBB28_11:
	addq	$48, %rsp
	popq	%rbp
	.cfi_def_cfa %rsp, 8
	retq
.LBB28_12:                              # %func_exit
	.cfi_def_cfa %rbp, 16
	callq	detect_breach
	jmp	.LBB28_11
.Lfunc_end28:
	.size	Sort.24, .Lfunc_end28-Sort.24
	.cfi_endproc
                                        # -- End function
	.globl	get_LeakyBucketRate.25  # -- Begin function get_LeakyBucketRate.25
	.p2align	4, 0x90
	.type	get_LeakyBucketRate.25,@function
get_LeakyBucketRate.25:                 # @get_LeakyBucketRate.25
	.cfi_startproc
# %bb.0:                                # %entry
	pushq	%rbp
	.cfi_def_cfa_offset 16
	.cfi_offset %rbp, -16
	movq	%rsp, %rbp
	.cfi_def_cfa_register %rbp
	pushq	%rbx
	subq	$56, %rsp
	.cfi_offset %rbx, -24
	movl	$1531742835, -36(%rbp)  # imm = 0x5B4C8A73
	movq	%rdi, -48(%rbp)
	movq	%rsi, -56(%rbp)
	movq	input, %rdi
	addq	$2480, %rdi             # imm = 0x9B0
	movabsq	$.L.str, %rsi
	callq	fopen
	movq	%rax, -32(%rbp)
	cmpq	$0, %rax
	jne	.LBB29_2
# %bb.1:                                # %if.then
	movabsq	$.L.str.1, %rdi
	movb	$0, %al
	callq	printf
	movl	$0, -12(%rbp)
	jmp	.LBB29_9
.LBB29_2:                               # %if.end
	movq	$0, -24(%rbp)
.LBB29_3:                               # %for.cond
                                        # =>This Inner Loop Header: Depth=1
	movq	-24(%rbp), %rax
	cmpq	-48(%rbp), %rax
	jae	.LBB29_8
# %bb.4:                                # %for.body
                                        #   in Loop: Header=BB29_3 Depth=1
	movq	-32(%rbp), %rdi
	movabsq	$.L.str.2, %rsi
	leaq	-64(%rbp), %rdx
	movb	$0, %al
	callq	__isoc99_fscanf
	movl	$1, %ecx
	cmpl	%eax, %ecx
	je	.LBB29_6
# %bb.5:                                # %if.then5
	movabsq	$.L.str.3, %rdi
	movb	$0, %al
	callq	printf
	movq	-32(%rbp), %rdi
	callq	fclose
	movl	$0, -12(%rbp)
	jmp	.LBB29_9
.LBB29_6:                               # %if.end8
                                        #   in Loop: Header=BB29_3 Depth=1
	movq	-64(%rbp), %rax
	movq	-56(%rbp), %rcx
	movq	-24(%rbp), %rdx
	movq	%rax, (%rcx,%rdx,8)
# %bb.7:                                # %for.inc
                                        #   in Loop: Header=BB29_3 Depth=1
	movq	-24(%rbp), %rax
	addq	$1, %rax
	movq	%rax, -24(%rbp)
	jmp	.LBB29_3
.LBB29_8:                               # %for.end
	movq	-32(%rbp), %rdi
	callq	fclose
	movl	$1, -12(%rbp)
.LBB29_9:                               # %return
	movl	-12(%rbp), %ebx
	cmpl	$1531742835, -36(%rbp)  # imm = 0x5B4C8A73
	jne	.LBB29_11
.LBB29_10:
	movl	%ebx, %eax
	addq	$56, %rsp
	popq	%rbx
	popq	%rbp
	.cfi_def_cfa %rsp, 8
	retq
.LBB29_11:                              # %func_exit
	.cfi_def_cfa %rbp, 16
	callq	detect_breach
	jmp	.LBB29_10
.Lfunc_end29:
	.size	get_LeakyBucketRate.25, .Lfunc_end29-get_LeakyBucketRate.25
	.cfi_endproc
                                        # -- End function
	.globl	write_buffer.26         # -- Begin function write_buffer.26
	.p2align	4, 0x90
	.type	write_buffer.26,@function
write_buffer.26:                        # @write_buffer.26
	.cfi_startproc
# %bb.0:                                # %entry
	pushq	%rbp
	.cfi_def_cfa_offset 16
	.cfi_offset %rbp, -16
	movq	%rsp, %rbp
	.cfi_def_cfa_register %rbp
	subq	$64, %rsp
	movl	$1926732223, -28(%rbp)  # imm = 0x72D799BF
	movq	%rdi, -24(%rbp)
	movq	%rsi, -40(%rbp)
	movq	%rdx, -56(%rbp)
	movq	%rcx, -48(%rbp)
	movq	input, %rdi
	addq	$2680, %rdi             # imm = 0xA78
	movabsq	$.L.str.4, %rsi
	callq	fopen
	movq	%rax, -16(%rbp)
	cmpq	$0, %rax
	jne	.LBB30_2
# %bb.1:                                # %if.then
	movq	input, %rcx
	addq	$2680, %rcx             # imm = 0xA78
	movabsq	$errortext, %rdi
	movl	$300, %esi              # imm = 0x12C
	movabsq	$.L.str.5, %rdx
	movb	$0, %al
	callq	snprintf
	movabsq	$errortext, %rdi
	movl	$1, %esi
	callq	error
.LBB30_2:                               # %if.end
	movq	-24(%rbp), %rdi
	movq	-16(%rbp), %rsi
	callq	PutBigDoubleWord
	movq	-24(%rbp), %rsi
	movabsq	$.L.str.6, %rdi
	movb	$0, %al
	callq	printf
	movq	$0, -8(%rbp)
.LBB30_3:                               # %for.cond
                                        # =>This Inner Loop Header: Depth=1
	movq	-8(%rbp), %rax
	cmpq	-24(%rbp), %rax
	jae	.LBB30_6
# %bb.4:                                # %for.body
                                        #   in Loop: Header=BB30_3 Depth=1
	movq	-40(%rbp), %rax
	movq	-8(%rbp), %rcx
	movq	(%rax,%rcx,8), %rdi
	movq	-16(%rbp), %rsi
	callq	PutBigDoubleWord
	movq	-56(%rbp), %rax
	movq	-8(%rbp), %rcx
	movq	(%rax,%rcx,8), %rdi
	movq	-16(%rbp), %rsi
	callq	PutBigDoubleWord
	movq	-48(%rbp), %rax
	movq	-8(%rbp), %rcx
	movq	(%rax,%rcx,8), %rdi
	movq	-16(%rbp), %rsi
	callq	PutBigDoubleWord
	movq	-40(%rbp), %rax
	movq	-8(%rbp), %rcx
	movq	(%rax,%rcx,8), %rsi
	movq	-56(%rbp), %rax
	movq	-8(%rbp), %rcx
	movq	(%rax,%rcx,8), %rdx
	movq	-48(%rbp), %rax
	movq	-8(%rbp), %rcx
	movq	(%rax,%rcx,8), %rcx
	movabsq	$.L.str.7, %rdi
	movb	$0, %al
	callq	printf
# %bb.5:                                # %for.inc
                                        #   in Loop: Header=BB30_3 Depth=1
	movq	-8(%rbp), %rax
	addq	$1, %rax
	movq	%rax, -8(%rbp)
	jmp	.LBB30_3
.LBB30_6:                               # %for.end
	movq	-16(%rbp), %rdi
	callq	fclose
	cmpl	$1926732223, -28(%rbp)  # imm = 0x72D799BF
	jne	.LBB30_8
.LBB30_7:
	addq	$64, %rsp
	popq	%rbp
	.cfi_def_cfa %rsp, 8
	retq
.LBB30_8:                               # %func_exit
	.cfi_def_cfa %rbp, 16
	callq	detect_breach
	jmp	.LBB30_7
.Lfunc_end30:
	.size	write_buffer.26, .Lfunc_end30-write_buffer.26
	.cfi_endproc
                                        # -- End function
	.globl	get_LeakyBucketRate.27  # -- Begin function get_LeakyBucketRate.27
	.p2align	4, 0x90
	.type	get_LeakyBucketRate.27,@function
get_LeakyBucketRate.27:                 # @get_LeakyBucketRate.27
	.cfi_startproc
# %bb.0:                                # %entry
	pushq	%rbp
	.cfi_def_cfa_offset 16
	.cfi_offset %rbp, -16
	movq	%rsp, %rbp
	.cfi_def_cfa_register %rbp
	pushq	%rbx
	subq	$56, %rsp
	.cfi_offset %rbx, -24
	movl	$641123023, -36(%rbp)   # imm = 0x2636C2CF
	movq	%rdi, -56(%rbp)
	movq	%rsi, -48(%rbp)
	movq	input, %rdi
	addq	$2480, %rdi             # imm = 0x9B0
	movabsq	$.L.str, %rsi
	callq	fopen
	movq	%rax, -32(%rbp)
	cmpq	$0, %rax
	jne	.LBB31_2
# %bb.1:                                # %if.then
	movabsq	$.L.str.1, %rdi
	movb	$0, %al
	callq	printf
	movl	$0, -12(%rbp)
	jmp	.LBB31_9
.LBB31_2:                               # %if.end
	movq	$0, -24(%rbp)
.LBB31_3:                               # %for.cond
                                        # =>This Inner Loop Header: Depth=1
	movq	-24(%rbp), %rax
	cmpq	-56(%rbp), %rax
	jae	.LBB31_8
# %bb.4:                                # %for.body
                                        #   in Loop: Header=BB31_3 Depth=1
	movq	-32(%rbp), %rdi
	movabsq	$.L.str.2, %rsi
	leaq	-64(%rbp), %rdx
	movb	$0, %al
	callq	__isoc99_fscanf
	movl	$1, %ecx
	cmpl	%eax, %ecx
	je	.LBB31_6
# %bb.5:                                # %if.then5
	movabsq	$.L.str.3, %rdi
	movb	$0, %al
	callq	printf
	movq	-32(%rbp), %rdi
	callq	fclose
	movl	$0, -12(%rbp)
	jmp	.LBB31_9
.LBB31_6:                               # %if.end8
                                        #   in Loop: Header=BB31_3 Depth=1
	movq	-64(%rbp), %rax
	movq	-48(%rbp), %rcx
	movq	-24(%rbp), %rdx
	movq	%rax, (%rcx,%rdx,8)
# %bb.7:                                # %for.inc
                                        #   in Loop: Header=BB31_3 Depth=1
	movq	-24(%rbp), %rax
	addq	$1, %rax
	movq	%rax, -24(%rbp)
	jmp	.LBB31_3
.LBB31_8:                               # %for.end
	movq	-32(%rbp), %rdi
	callq	fclose
	movl	$1, -12(%rbp)
.LBB31_9:                               # %return
	movl	-12(%rbp), %ebx
	cmpl	$641123023, -36(%rbp)   # imm = 0x2636C2CF
	jne	.LBB31_11
.LBB31_10:
	movl	%ebx, %eax
	addq	$56, %rsp
	popq	%rbx
	popq	%rbp
	.cfi_def_cfa %rsp, 8
	retq
.LBB31_11:                              # %func_exit
	.cfi_def_cfa %rbp, 16
	callq	detect_breach
	jmp	.LBB31_10
.Lfunc_end31:
	.size	get_LeakyBucketRate.27, .Lfunc_end31-get_LeakyBucketRate.27
	.cfi_endproc
                                        # -- End function
	.globl	Sort.28                 # -- Begin function Sort.28
	.p2align	4, 0x90
	.type	Sort.28,@function
Sort.28:                                # @Sort.28
	.cfi_startproc
# %bb.0:                                # %entry
	pushq	%rbp
	.cfi_def_cfa_offset 16
	.cfi_offset %rbp, -16
	movq	%rsp, %rbp
	.cfi_def_cfa_register %rbp
	subq	$48, %rsp
	movl	$2022185647, -28(%rbp)  # imm = 0x78881AAF
	movq	%rdi, -40(%rbp)
	movq	%rsi, -16(%rbp)
	movq	$0, -8(%rbp)
.LBB32_1:                               # %for.cond
                                        # =>This Loop Header: Depth=1
                                        #     Child Loop BB32_3 Depth 2
	movq	-8(%rbp), %rax
	movq	-40(%rbp), %rcx
	subq	$1, %rcx
	cmpq	%rcx, %rax
	jae	.LBB32_10
# %bb.2:                                # %for.body
                                        #   in Loop: Header=BB32_1 Depth=1
	movq	-8(%rbp), %rax
	addq	$1, %rax
	movq	%rax, -24(%rbp)
.LBB32_3:                               # %for.cond1
                                        #   Parent Loop BB32_1 Depth=1
                                        # =>  This Inner Loop Header: Depth=2
	movq	-24(%rbp), %rax
	cmpq	-40(%rbp), %rax
	jae	.LBB32_8
# %bb.4:                                # %for.body3
                                        #   in Loop: Header=BB32_3 Depth=2
	movq	-16(%rbp), %rax
	movq	-8(%rbp), %rcx
	movq	(%rax,%rcx,8), %rax
	movq	-16(%rbp), %rcx
	movq	-24(%rbp), %rdx
	cmpq	(%rcx,%rdx,8), %rax
	jbe	.LBB32_6
# %bb.5:                                # %if.then
                                        #   in Loop: Header=BB32_3 Depth=2
	movq	-16(%rbp), %rax
	movq	-8(%rbp), %rcx
	movq	(%rax,%rcx,8), %rax
	movq	%rax, -48(%rbp)
	movq	-16(%rbp), %rax
	movq	-24(%rbp), %rcx
	movq	(%rax,%rcx,8), %rax
	movq	-16(%rbp), %rcx
	movq	-8(%rbp), %rdx
	movq	%rax, (%rcx,%rdx,8)
	movq	-48(%rbp), %rax
	movq	-16(%rbp), %rcx
	movq	-24(%rbp), %rdx
	movq	%rax, (%rcx,%rdx,8)
.LBB32_6:                               # %if.end
                                        #   in Loop: Header=BB32_3 Depth=2
	jmp	.LBB32_7
.LBB32_7:                               # %for.inc
                                        #   in Loop: Header=BB32_3 Depth=2
	movq	-24(%rbp), %rax
	addq	$1, %rax
	movq	%rax, -24(%rbp)
	jmp	.LBB32_3
.LBB32_8:                               # %for.end
                                        #   in Loop: Header=BB32_1 Depth=1
	jmp	.LBB32_9
.LBB32_9:                               # %for.inc10
                                        #   in Loop: Header=BB32_1 Depth=1
	movq	-8(%rbp), %rax
	addq	$1, %rax
	movq	%rax, -8(%rbp)
	jmp	.LBB32_1
.LBB32_10:                              # %for.end12
	cmpl	$2022185647, -28(%rbp)  # imm = 0x78881AAF
	jne	.LBB32_12
.LBB32_11:
	addq	$48, %rsp
	popq	%rbp
	.cfi_def_cfa %rsp, 8
	retq
.LBB32_12:                              # %func_exit
	.cfi_def_cfa %rbp, 16
	callq	detect_breach
	jmp	.LBB32_11
.Lfunc_end32:
	.size	Sort.28, .Lfunc_end32-Sort.28
	.cfi_endproc
                                        # -- End function
	.globl	Sort.29                 # -- Begin function Sort.29
	.p2align	4, 0x90
	.type	Sort.29,@function
Sort.29:                                # @Sort.29
	.cfi_startproc
# %bb.0:                                # %entry
	pushq	%rbp
	.cfi_def_cfa_offset 16
	.cfi_offset %rbp, -16
	movq	%rsp, %rbp
	.cfi_def_cfa_register %rbp
	subq	$48, %rsp
	movl	$741331395, -28(%rbp)   # imm = 0x2C2FD1C3
	movq	%rdi, -40(%rbp)
	movq	%rsi, -16(%rbp)
	movq	$0, -8(%rbp)
.LBB33_1:                               # %for.cond
                                        # =>This Loop Header: Depth=1
                                        #     Child Loop BB33_3 Depth 2
	movq	-8(%rbp), %rax
	movq	-40(%rbp), %rcx
	subq	$1, %rcx
	cmpq	%rcx, %rax
	jae	.LBB33_10
# %bb.2:                                # %for.body
                                        #   in Loop: Header=BB33_1 Depth=1
	movq	-8(%rbp), %rax
	addq	$1, %rax
	movq	%rax, -24(%rbp)
.LBB33_3:                               # %for.cond1
                                        #   Parent Loop BB33_1 Depth=1
                                        # =>  This Inner Loop Header: Depth=2
	movq	-24(%rbp), %rax
	cmpq	-40(%rbp), %rax
	jae	.LBB33_8
# %bb.4:                                # %for.body3
                                        #   in Loop: Header=BB33_3 Depth=2
	movq	-16(%rbp), %rax
	movq	-8(%rbp), %rcx
	movq	(%rax,%rcx,8), %rax
	movq	-16(%rbp), %rcx
	movq	-24(%rbp), %rdx
	cmpq	(%rcx,%rdx,8), %rax
	jbe	.LBB33_6
# %bb.5:                                # %if.then
                                        #   in Loop: Header=BB33_3 Depth=2
	movq	-16(%rbp), %rax
	movq	-8(%rbp), %rcx
	movq	(%rax,%rcx,8), %rax
	movq	%rax, -48(%rbp)
	movq	-16(%rbp), %rax
	movq	-24(%rbp), %rcx
	movq	(%rax,%rcx,8), %rax
	movq	-16(%rbp), %rcx
	movq	-8(%rbp), %rdx
	movq	%rax, (%rcx,%rdx,8)
	movq	-48(%rbp), %rax
	movq	-16(%rbp), %rcx
	movq	-24(%rbp), %rdx
	movq	%rax, (%rcx,%rdx,8)
.LBB33_6:                               # %if.end
                                        #   in Loop: Header=BB33_3 Depth=2
	jmp	.LBB33_7
.LBB33_7:                               # %for.inc
                                        #   in Loop: Header=BB33_3 Depth=2
	movq	-24(%rbp), %rax
	addq	$1, %rax
	movq	%rax, -24(%rbp)
	jmp	.LBB33_3
.LBB33_8:                               # %for.end
                                        #   in Loop: Header=BB33_1 Depth=1
	jmp	.LBB33_9
.LBB33_9:                               # %for.inc10
                                        #   in Loop: Header=BB33_1 Depth=1
	movq	-8(%rbp), %rax
	addq	$1, %rax
	movq	%rax, -8(%rbp)
	jmp	.LBB33_1
.LBB33_10:                              # %for.end12
	cmpl	$741331395, -28(%rbp)   # imm = 0x2C2FD1C3
	jne	.LBB33_12
.LBB33_11:
	addq	$48, %rsp
	popq	%rbp
	.cfi_def_cfa %rsp, 8
	retq
.LBB33_12:                              # %func_exit
	.cfi_def_cfa %rbp, 16
	callq	detect_breach
	jmp	.LBB33_11
.Lfunc_end33:
	.size	Sort.29, .Lfunc_end33-Sort.29
	.cfi_endproc
                                        # -- End function
	.globl	Sort.30                 # -- Begin function Sort.30
	.p2align	4, 0x90
	.type	Sort.30,@function
Sort.30:                                # @Sort.30
	.cfi_startproc
# %bb.0:                                # %entry
	pushq	%rbp
	.cfi_def_cfa_offset 16
	.cfi_offset %rbp, -16
	movq	%rsp, %rbp
	.cfi_def_cfa_register %rbp
	subq	$48, %rsp
	movl	$1195148278, -28(%rbp)  # imm = 0x473C83F6
	movq	%rdi, -40(%rbp)
	movq	%rsi, -24(%rbp)
	movq	$0, -8(%rbp)
.LBB34_1:                               # %for.cond
                                        # =>This Loop Header: Depth=1
                                        #     Child Loop BB34_3 Depth 2
	movq	-8(%rbp), %rax
	movq	-40(%rbp), %rcx
	subq	$1, %rcx
	cmpq	%rcx, %rax
	jae	.LBB34_10
# %bb.2:                                # %for.body
                                        #   in Loop: Header=BB34_1 Depth=1
	movq	-8(%rbp), %rax
	addq	$1, %rax
	movq	%rax, -16(%rbp)
.LBB34_3:                               # %for.cond1
                                        #   Parent Loop BB34_1 Depth=1
                                        # =>  This Inner Loop Header: Depth=2
	movq	-16(%rbp), %rax
	cmpq	-40(%rbp), %rax
	jae	.LBB34_8
# %bb.4:                                # %for.body3
                                        #   in Loop: Header=BB34_3 Depth=2
	movq	-24(%rbp), %rax
	movq	-8(%rbp), %rcx
	movq	(%rax,%rcx,8), %rax
	movq	-24(%rbp), %rcx
	movq	-16(%rbp), %rdx
	cmpq	(%rcx,%rdx,8), %rax
	jbe	.LBB34_6
# %bb.5:                                # %if.then
                                        #   in Loop: Header=BB34_3 Depth=2
	movq	-24(%rbp), %rax
	movq	-8(%rbp), %rcx
	movq	(%rax,%rcx,8), %rax
	movq	%rax, -48(%rbp)
	movq	-24(%rbp), %rax
	movq	-16(%rbp), %rcx
	movq	(%rax,%rcx,8), %rax
	movq	-24(%rbp), %rcx
	movq	-8(%rbp), %rdx
	movq	%rax, (%rcx,%rdx,8)
	movq	-48(%rbp), %rax
	movq	-24(%rbp), %rcx
	movq	-16(%rbp), %rdx
	movq	%rax, (%rcx,%rdx,8)
.LBB34_6:                               # %if.end
                                        #   in Loop: Header=BB34_3 Depth=2
	jmp	.LBB34_7
.LBB34_7:                               # %for.inc
                                        #   in Loop: Header=BB34_3 Depth=2
	movq	-16(%rbp), %rax
	addq	$1, %rax
	movq	%rax, -16(%rbp)
	jmp	.LBB34_3
.LBB34_8:                               # %for.end
                                        #   in Loop: Header=BB34_1 Depth=1
	jmp	.LBB34_9
.LBB34_9:                               # %for.inc10
                                        #   in Loop: Header=BB34_1 Depth=1
	movq	-8(%rbp), %rax
	addq	$1, %rax
	movq	%rax, -8(%rbp)
	jmp	.LBB34_1
.LBB34_10:                              # %for.end12
	cmpl	$1195148278, -28(%rbp)  # imm = 0x473C83F6
	jne	.LBB34_12
.LBB34_11:
	addq	$48, %rsp
	popq	%rbp
	.cfi_def_cfa %rsp, 8
	retq
.LBB34_12:                              # %func_exit
	.cfi_def_cfa %rbp, 16
	callq	detect_breach
	jmp	.LBB34_11
.Lfunc_end34:
	.size	Sort.30, .Lfunc_end34-Sort.30
	.cfi_endproc
                                        # -- End function
	.globl	write_buffer.31         # -- Begin function write_buffer.31
	.p2align	4, 0x90
	.type	write_buffer.31,@function
write_buffer.31:                        # @write_buffer.31
	.cfi_startproc
# %bb.0:                                # %entry
	pushq	%rbp
	.cfi_def_cfa_offset 16
	.cfi_offset %rbp, -16
	movq	%rsp, %rbp
	.cfi_def_cfa_register %rbp
	subq	$64, %rsp
	movl	$152514937, -28(%rbp)   # imm = 0x9173179
	movq	%rdi, -24(%rbp)
	movq	%rsi, -40(%rbp)
	movq	%rdx, -48(%rbp)
	movq	%rcx, -56(%rbp)
	movq	input, %rdi
	addq	$2680, %rdi             # imm = 0xA78
	movabsq	$.L.str.4, %rsi
	callq	fopen
	movq	%rax, -16(%rbp)
	cmpq	$0, %rax
	jne	.LBB35_2
# %bb.1:                                # %if.then
	movq	input, %rcx
	addq	$2680, %rcx             # imm = 0xA78
	movabsq	$errortext, %rdi
	movl	$300, %esi              # imm = 0x12C
	movabsq	$.L.str.5, %rdx
	movb	$0, %al
	callq	snprintf
	movabsq	$errortext, %rdi
	movl	$1, %esi
	callq	error
.LBB35_2:                               # %if.end
	movq	-24(%rbp), %rdi
	movq	-16(%rbp), %rsi
	callq	PutBigDoubleWord
	movq	-24(%rbp), %rsi
	movabsq	$.L.str.6, %rdi
	movb	$0, %al
	callq	printf
	movq	$0, -8(%rbp)
.LBB35_3:                               # %for.cond
                                        # =>This Inner Loop Header: Depth=1
	movq	-8(%rbp), %rax
	cmpq	-24(%rbp), %rax
	jae	.LBB35_6
# %bb.4:                                # %for.body
                                        #   in Loop: Header=BB35_3 Depth=1
	movq	-40(%rbp), %rax
	movq	-8(%rbp), %rcx
	movq	(%rax,%rcx,8), %rdi
	movq	-16(%rbp), %rsi
	callq	PutBigDoubleWord
	movq	-48(%rbp), %rax
	movq	-8(%rbp), %rcx
	movq	(%rax,%rcx,8), %rdi
	movq	-16(%rbp), %rsi
	callq	PutBigDoubleWord
	movq	-56(%rbp), %rax
	movq	-8(%rbp), %rcx
	movq	(%rax,%rcx,8), %rdi
	movq	-16(%rbp), %rsi
	callq	PutBigDoubleWord
	movq	-40(%rbp), %rax
	movq	-8(%rbp), %rcx
	movq	(%rax,%rcx,8), %rsi
	movq	-48(%rbp), %rax
	movq	-8(%rbp), %rcx
	movq	(%rax,%rcx,8), %rdx
	movq	-56(%rbp), %rax
	movq	-8(%rbp), %rcx
	movq	(%rax,%rcx,8), %rcx
	movabsq	$.L.str.7, %rdi
	movb	$0, %al
	callq	printf
# %bb.5:                                # %for.inc
                                        #   in Loop: Header=BB35_3 Depth=1
	movq	-8(%rbp), %rax
	addq	$1, %rax
	movq	%rax, -8(%rbp)
	jmp	.LBB35_3
.LBB35_6:                               # %for.end
	movq	-16(%rbp), %rdi
	callq	fclose
	cmpl	$152514937, -28(%rbp)   # imm = 0x9173179
	jne	.LBB35_8
.LBB35_7:
	addq	$64, %rsp
	popq	%rbp
	.cfi_def_cfa %rsp, 8
	retq
.LBB35_8:                               # %func_exit
	.cfi_def_cfa %rbp, 16
	callq	detect_breach
	jmp	.LBB35_7
.Lfunc_end35:
	.size	write_buffer.31, .Lfunc_end35-write_buffer.31
	.cfi_endproc
                                        # -- End function
	.section	.rodata.cst4,"aM",@progbits,4
	.p2align	2               # -- Begin function calc_buffer.32
.LCPI36_0:
	.long	1593835520              # float 9.22337203E+18
	.text
	.globl	calc_buffer.32
	.p2align	4, 0x90
	.type	calc_buffer.32,@function
calc_buffer.32:                         # @calc_buffer.32
	.cfi_startproc
# %bb.0:                                # %entry
	pushq	%rbp
	.cfi_def_cfa_offset 16
	.cfi_offset %rbp, -16
	movq	%rsp, %rbp
	.cfi_def_cfa_register %rbp
	subq	$128, %rsp
	movl	$1341183489, -100(%rbp) # imm = 0x4FF0D601
	movq	$0, -120(%rbp)
	movq	stdout, %rdi
	movabsq	$.L.str.8, %rsi
	movb	$0, %al
	callq	fprintf
	movq	total_frame_buffer, %rsi
	movq	input, %rax
	movl	8(%rax), %edx
	movabsq	$.L.str.9, %rdi
	movb	$0, %al
	callq	printf
	movq	input, %rax
	movslq	2476(%rax), %rax
	movq	%rax, -40(%rbp)
	movq	total_frame_buffer, %rdi
	addq	$1, %rdi
	movl	$8, %esi
	callq	calloc
	movq	%rax, -16(%rbp)
	cmpq	$0, -16(%rbp)
	jne	.LBB36_2
# %bb.1:                                # %if.then
	movabsq	$.L.str.10, %rdi
	callq	no_mem_exit
.LBB36_2:                               # %if.end
	movq	-40(%rbp), %rdi
	movl	$8, %esi
	callq	calloc
	movq	%rax, -32(%rbp)
	cmpq	$0, -32(%rbp)
	jne	.LBB36_4
# %bb.3:                                # %if.then6
	movabsq	$.L.str.11, %rdi
	callq	no_mem_exit
.LBB36_4:                               # %if.end7
	movq	-40(%rbp), %rdi
	movl	$8, %esi
	callq	calloc
	movq	%rax, -72(%rbp)
	cmpq	$0, -72(%rbp)
	jne	.LBB36_6
# %bb.5:                                # %if.then10
	movabsq	$.L.str.12, %rdi
	callq	no_mem_exit
.LBB36_6:                               # %if.end11
	movq	-40(%rbp), %rdi
	movl	$8, %esi
	callq	calloc
	movq	%rax, -64(%rbp)
	cmpq	$0, -64(%rbp)
	jne	.LBB36_8
# %bb.7:                                # %if.then14
	movabsq	$.L.str.13, %rdi
	callq	no_mem_exit
.LBB36_8:                               # %if.end15
	movq	$0, -80(%rbp)
	movq	$0, -8(%rbp)
.LBB36_9:                               # %for.cond
                                        # =>This Inner Loop Header: Depth=1
	movq	-8(%rbp), %rax
	cmpq	total_frame_buffer, %rax
	jae	.LBB36_12
# %bb.10:                               # %for.body
                                        #   in Loop: Header=BB36_9 Depth=1
	movq	-8(%rbp), %rax
	movq	Bit_Buffer(,%rax,8), %rax
	addq	-80(%rbp), %rax
	movq	%rax, -80(%rbp)
# %bb.11:                               # %for.inc
                                        #   in Loop: Header=BB36_9 Depth=1
	movq	-8(%rbp), %rax
	addq	$1, %rax
	movq	%rax, -8(%rbp)
	jmp	.LBB36_9
.LBB36_12:                              # %for.end
	movq	-80(%rbp), %rax
	vcvtsi2ss	%rax, %xmm0, %xmm1
	movq	%rax, %rcx
	shrq	%rcx
	movl	%eax, %edx
	andl	$1, %edx
	orq	%rcx, %rdx
	vcvtsi2ss	%rdx, %xmm0, %xmm0
	vaddss	%xmm0, %xmm0, %xmm0
	testq	%rax, %rax
	js	.LBB36_14
# %bb.13:                               # %for.end
	vmovaps	%xmm1, %xmm0
.LBB36_14:                              # %for.end
	movq	total_frame_buffer(%rip), %rax
	vcvtsi2ss	%rax, %xmm0, %xmm1
	movq	%rax, %rcx
	shrq	%rcx
	movl	%eax, %edx
	andl	$1, %edx
	orq	%rcx, %rdx
	vcvtsi2ss	%rdx, %xmm0, %xmm2
	vaddss	%xmm2, %xmm2, %xmm2
	testq	%rax, %rax
	js	.LBB36_16
# %bb.15:                               # %for.end
	vmovaps	%xmm1, %xmm2
.LBB36_16:                              # %for.end
	vdivss	%xmm2, %xmm0, %xmm0
	vmovss	.LCPI36_0(%rip), %xmm1  # xmm1 = mem[0],zero,zero,zero
	vsubss	%xmm1, %xmm0, %xmm2
	vcvttss2si	%xmm2, %rax
	movabsq	$-9223372036854775808, %rcx # imm = 0x8000000000000000
	xorq	%rcx, %rax
	vcvttss2si	%xmm0, %rcx
	vucomiss	%xmm1, %xmm0
	cmovbq	%rcx, %rax
	movq	%rax, -88(%rbp)
	movq	-40(%rbp), %rdi
	movq	-32(%rbp), %rsi
	callq	get_LeakyBucketRate
	movl	$1, %ecx
	cmpl	%eax, %ecx
	je	.LBB36_29
# %bb.17:                               # %if.then24
	movq	$0, -24(%rbp)
.LBB36_18:                              # %for.cond25
                                        # =>This Inner Loop Header: Depth=1
	movq	-24(%rbp), %rax
	cmpq	-40(%rbp), %rax
	jae	.LBB36_28
# %bb.19:                               # %for.body28
                                        #   in Loop: Header=BB36_18 Depth=1
	cmpq	$0, -24(%rbp)
	jne	.LBB36_23
# %bb.20:                               # %if.then31
                                        #   in Loop: Header=BB36_18 Depth=1
	movq	-88(%rbp), %rax
	vcvtsi2ss	%rax, %xmm0, %xmm0
	movq	%rax, %rcx
	shrq	%rcx
	movl	%eax, %edx
	andl	$1, %edx
	orq	%rcx, %rdx
	vcvtsi2ss	%rdx, %xmm0, %xmm1
	vaddss	%xmm1, %xmm1, %xmm1
	testq	%rax, %rax
	js	.LBB36_22
# %bb.21:                               # %if.then31
                                        #   in Loop: Header=BB36_18 Depth=1
	vmovaps	%xmm0, %xmm1
.LBB36_22:                              # %if.then31
                                        #   in Loop: Header=BB36_18 Depth=1
	movq	img(%rip), %rax
	vmovss	48(%rax), %xmm0         # xmm0 = mem[0],zero,zero,zero
	vmulss	%xmm0, %xmm1, %xmm0
	vmovss	.LCPI36_0(%rip), %xmm1  # xmm1 = mem[0],zero,zero,zero
	vsubss	%xmm1, %xmm0, %xmm2
	vcvttss2si	%xmm2, %rax
	movabsq	$-9223372036854775808, %rcx # imm = 0x8000000000000000
	xorq	%rcx, %rax
	vcvttss2si	%xmm0, %rcx
	vucomiss	%xmm1, %xmm0
	cmovbq	%rcx, %rax
	movq	input, %rcx
	movl	20(%rcx), %ecx
	addl	$1, %ecx
	movslq	%ecx, %rcx
	xorl	%edx, %edx
	divq	%rcx
	movq	-32(%rbp), %rcx
	movq	-24(%rbp), %rdx
	movq	%rax, (%rcx,%rdx,8)
	jmp	.LBB36_26
.LBB36_23:                              # %if.else
                                        #   in Loop: Header=BB36_18 Depth=1
	movq	-32(%rbp), %rax
	movq	-24(%rbp), %rcx
	movq	-8(%rax,%rcx,8), %rax
	movq	%rax, %rcx
	shrq	%rcx
	movl	%eax, %edx
	andl	$1, %edx
	orq	%rcx, %rdx
	vcvtsi2ss	%rdx, %xmm0, %xmm0
	vaddss	%xmm0, %xmm0, %xmm0
	vcvtsi2ss	%rax, %xmm0, %xmm1
	testq	%rax, %rax
	js	.LBB36_25
# %bb.24:                               # %if.else
                                        #   in Loop: Header=BB36_18 Depth=1
	vmovaps	%xmm1, %xmm0
.LBB36_25:                              # %if.else
                                        #   in Loop: Header=BB36_18 Depth=1
	movq	-88(%rbp), %rax
	shrq	$2, %rax
	vcvtsi2ss	%rax, %xmm0, %xmm1
	movq	img(%rip), %rax
	vmovss	48(%rax), %xmm2         # xmm2 = mem[0],zero,zero,zero
	vmulss	%xmm2, %xmm1, %xmm1
	movq	input(%rip), %rax
	movl	20(%rax), %eax
	addl	$1, %eax
	vcvtsi2ss	%eax, %xmm0, %xmm2
	vdivss	%xmm2, %xmm1, %xmm1
	vaddss	%xmm1, %xmm0, %xmm0
	vmovss	.LCPI36_0(%rip), %xmm1  # xmm1 = mem[0],zero,zero,zero
	vsubss	%xmm1, %xmm0, %xmm2
	vcvttss2si	%xmm2, %rax
	movabsq	$-9223372036854775808, %rcx # imm = 0x8000000000000000
	xorq	%rcx, %rax
	vcvttss2si	%xmm0, %rcx
	vucomiss	%xmm1, %xmm0
	cmovbq	%rcx, %rax
	movq	-32(%rbp), %rcx
	movq	-24(%rbp), %rdx
	movq	%rax, (%rcx,%rdx,8)
.LBB36_26:                              # %if.end51
                                        #   in Loop: Header=BB36_18 Depth=1
	jmp	.LBB36_27
.LBB36_27:                              # %for.inc52
                                        #   in Loop: Header=BB36_18 Depth=1
	movq	-24(%rbp), %rax
	addq	$1, %rax
	movq	%rax, -24(%rbp)
	jmp	.LBB36_18
.LBB36_28:                              # %for.end54
	jmp	.LBB36_29
.LBB36_29:                              # %if.end55
	movq	-40(%rbp), %rdi
	movq	-32(%rbp), %rsi
	callq	Sort
	imulq	$20, -88(%rbp), %rax
	movq	%rax, -56(%rbp)
	movq	$0, -24(%rbp)
.LBB36_30:                              # %for.cond57
                                        # =>This Loop Header: Depth=1
                                        #     Child Loop BB36_34 Depth 2
                                        #     Child Loop BB36_42 Depth 2
	movq	-24(%rbp), %rax
	cmpq	-40(%rbp), %rax
	jae	.LBB36_52
# %bb.31:                               # %for.body60
                                        #   in Loop: Header=BB36_30 Depth=1
	movq	-32(%rbp), %rax
	movq	-24(%rbp), %rcx
	movq	(%rax,%rcx,8), %rax
	movq	input(%rip), %rcx
	movl	20(%rcx), %ecx
	addl	$1, %ecx
	movslq	%ecx, %rcx
	imulq	%rcx, %rax
	movq	%rax, %rcx
	shrq	%rcx
	movl	%eax, %edx
	andl	$1, %edx
	orq	%rcx, %rdx
	vcvtsi2ss	%rdx, %xmm0, %xmm0
	vaddss	%xmm0, %xmm0, %xmm0
	vcvtsi2ss	%rax, %xmm0, %xmm1
	testq	%rax, %rax
	js	.LBB36_33
# %bb.32:                               # %for.body60
                                        #   in Loop: Header=BB36_30 Depth=1
	vmovaps	%xmm1, %xmm0
.LBB36_33:                              # %for.body60
                                        #   in Loop: Header=BB36_30 Depth=1
	movq	img, %rax
	vdivss	48(%rax), %xmm0, %xmm0
	vcvttss2si	%xmm0, %rax
	movq	%rax, -112(%rbp)
	movq	-56(%rbp), %rax
	movq	%rax, -48(%rbp)
	movq	-48(%rbp), %rax
	movq	-16(%rbp), %rcx
	movq	%rax, (%rcx)
	movq	-56(%rbp), %rax
	movq	%rax, -96(%rbp)
	movq	$0, -8(%rbp)
.LBB36_34:                              # %for.cond71
                                        #   Parent Loop BB36_30 Depth=1
                                        # =>  This Inner Loop Header: Depth=2
	movq	-8(%rbp), %rax
	cmpq	total_frame_buffer, %rax
	jae	.LBB36_41
# %bb.35:                               # %for.body74
                                        #   in Loop: Header=BB36_34 Depth=2
	movq	-16(%rbp), %rax
	movq	-8(%rbp), %rcx
	movq	(%rax,%rcx,8), %rax
	movq	-8(%rbp), %rcx
	subq	Bit_Buffer(,%rcx,8), %rax
	movq	-16(%rbp), %rcx
	movq	-8(%rbp), %rdx
	movq	%rax, (%rcx,%rdx,8)
	movq	-16(%rbp), %rax
	movq	-8(%rbp), %rcx
	movq	(%rax,%rcx,8), %rax
	cmpq	-96(%rbp), %rax
	jge	.LBB36_37
# %bb.36:                               # %if.then82
                                        #   in Loop: Header=BB36_34 Depth=2
	movq	-16(%rbp), %rax
	movq	-8(%rbp), %rcx
	movq	(%rax,%rcx,8), %rax
	movq	%rax, -96(%rbp)
	movq	-8(%rbp), %rax
	movq	%rax, -120(%rbp)
.LBB36_37:                              # %if.end84
                                        #   in Loop: Header=BB36_34 Depth=2
	movq	-16(%rbp), %rax
	movq	-8(%rbp), %rcx
	movq	(%rax,%rcx,8), %rax
	addq	-112(%rbp), %rax
	movq	-16(%rbp), %rcx
	movq	-8(%rbp), %rdx
	movq	%rax, 8(%rcx,%rdx,8)
	movq	-16(%rbp), %rax
	movq	-8(%rbp), %rcx
	movq	8(%rax,%rcx,8), %rax
	cmpq	-56(%rbp), %rax
	jle	.LBB36_39
# %bb.38:                               # %if.then93
                                        #   in Loop: Header=BB36_34 Depth=2
	movq	-56(%rbp), %rax
	movq	-16(%rbp), %rcx
	movq	-8(%rbp), %rdx
	movq	%rax, 8(%rcx,%rdx,8)
.LBB36_39:                              # %if.end96
                                        #   in Loop: Header=BB36_34 Depth=2
	jmp	.LBB36_40
.LBB36_40:                              # %for.inc97
                                        #   in Loop: Header=BB36_34 Depth=2
	movq	-8(%rbp), %rax
	addq	$1, %rax
	movq	%rax, -8(%rbp)
	jmp	.LBB36_34
.LBB36_41:                              # %for.end99
                                        #   in Loop: Header=BB36_30 Depth=1
	movq	-56(%rbp), %rax
	subq	-96(%rbp), %rax
	movq	%rax, -128(%rbp)
	movq	Bit_Buffer, %rax
	movq	%rax, -48(%rbp)
	movq	-48(%rbp), %rax
	movq	-16(%rbp), %rcx
	movq	%rax, (%rcx)
	movq	$0, -8(%rbp)
.LBB36_42:                              # %for.cond102
                                        #   Parent Loop BB36_30 Depth=1
                                        # =>  This Inner Loop Header: Depth=2
	movq	-8(%rbp), %rax
	movq	-120(%rbp), %rcx
	addq	$1, %rcx
	cmpq	%rcx, %rax
	jae	.LBB36_49
# %bb.43:                               # %for.body106
                                        #   in Loop: Header=BB36_42 Depth=2
	movq	-16(%rbp), %rax
	movq	-8(%rbp), %rcx
	movq	(%rax,%rcx,8), %rax
	movq	-8(%rbp), %rcx
	subq	Bit_Buffer(,%rcx,8), %rax
	movq	-16(%rbp), %rcx
	movq	-8(%rbp), %rdx
	movq	%rax, (%rcx,%rdx,8)
	movq	-16(%rbp), %rax
	movq	-8(%rbp), %rcx
	cmpq	$0, (%rax,%rcx,8)
	jge	.LBB36_45
# %bb.44:                               # %if.then114
                                        #   in Loop: Header=BB36_42 Depth=2
	movq	-16(%rbp), %rax
	movq	-8(%rbp), %rcx
	movq	(%rax,%rcx,8), %rax
	movq	-48(%rbp), %rcx
	subq	%rax, %rcx
	movq	%rcx, -48(%rbp)
	movq	-16(%rbp), %rax
	movq	-8(%rbp), %rcx
	movq	$0, (%rax,%rcx,8)
.LBB36_45:                              # %if.end118
                                        #   in Loop: Header=BB36_42 Depth=2
	movq	-16(%rbp), %rax
	movq	-8(%rbp), %rcx
	movq	(%rax,%rcx,8), %rax
	addq	-112(%rbp), %rax
	movq	-16(%rbp), %rcx
	movq	-8(%rbp), %rdx
	movq	%rax, 8(%rcx,%rdx,8)
	movq	-16(%rbp), %rax
	movq	-8(%rbp), %rcx
	movq	8(%rax,%rcx,8), %rax
	cmpq	-128(%rbp), %rax
	jle	.LBB36_47
# %bb.46:                               # %if.then127
                                        #   in Loop: Header=BB36_30 Depth=1
	jmp	.LBB36_50
.LBB36_47:                              # %if.end128
                                        #   in Loop: Header=BB36_42 Depth=2
	jmp	.LBB36_48
.LBB36_48:                              # %for.inc129
                                        #   in Loop: Header=BB36_42 Depth=2
	movq	-8(%rbp), %rax
	addq	$1, %rax
	movq	%rax, -8(%rbp)
	jmp	.LBB36_42
.LBB36_49:                              # %for.end131.loopexit
                                        #   in Loop: Header=BB36_30 Depth=1
	jmp	.LBB36_50
.LBB36_50:                              # %for.end131
                                        #   in Loop: Header=BB36_30 Depth=1
	movq	-128(%rbp), %rax
	movq	-72(%rbp), %rcx
	movq	-24(%rbp), %rdx
	movq	%rax, (%rcx,%rdx,8)
	movq	-48(%rbp), %rax
	movq	-64(%rbp), %rcx
	movq	-24(%rbp), %rdx
	movq	%rax, (%rcx,%rdx,8)
# %bb.51:                               # %for.inc134
                                        #   in Loop: Header=BB36_30 Depth=1
	movq	-24(%rbp), %rax
	addq	$1, %rax
	movq	%rax, -24(%rbp)
	jmp	.LBB36_30
.LBB36_52:                              # %for.end136
	movq	-40(%rbp), %rdi
	movq	-32(%rbp), %rsi
	movq	-72(%rbp), %rdx
	movq	-64(%rbp), %rcx
	callq	write_buffer
	movq	-16(%rbp), %rdi
	callq	free
	movq	-32(%rbp), %rdi
	callq	free
	movq	-72(%rbp), %rdi
	callq	free
	movq	-64(%rbp), %rdi
	callq	free
	cmpl	$1341183489, -100(%rbp) # imm = 0x4FF0D601
	jne	.LBB36_54
.LBB36_53:
	addq	$128, %rsp
	popq	%rbp
	.cfi_def_cfa %rsp, 8
	retq
.LBB36_54:                              # %func_exit
	.cfi_def_cfa %rbp, 16
	callq	detect_breach
	jmp	.LBB36_53
.Lfunc_end36:
	.size	calc_buffer.32, .Lfunc_end36-calc_buffer.32
	.cfi_endproc
                                        # -- End function
	.section	.rodata.cst4,"aM",@progbits,4
	.p2align	2               # -- Begin function calc_buffer.33
.LCPI37_0:
	.long	1593835520              # float 9.22337203E+18
	.text
	.globl	calc_buffer.33
	.p2align	4, 0x90
	.type	calc_buffer.33,@function
calc_buffer.33:                         # @calc_buffer.33
	.cfi_startproc
# %bb.0:                                # %entry
	pushq	%rbp
	.cfi_def_cfa_offset 16
	.cfi_offset %rbp, -16
	movq	%rsp, %rbp
	.cfi_def_cfa_register %rbp
	subq	$128, %rsp
	movl	$674896643, -100(%rbp)  # imm = 0x283A1B03
	movq	$0, -128(%rbp)
	movq	stdout, %rdi
	movabsq	$.L.str.8, %rsi
	movb	$0, %al
	callq	fprintf
	movq	total_frame_buffer, %rsi
	movq	input, %rax
	movl	8(%rax), %edx
	movabsq	$.L.str.9, %rdi
	movb	$0, %al
	callq	printf
	movq	input, %rax
	movslq	2476(%rax), %rax
	movq	%rax, -40(%rbp)
	movq	total_frame_buffer, %rdi
	addq	$1, %rdi
	movl	$8, %esi
	callq	calloc
	movq	%rax, -16(%rbp)
	cmpq	$0, -16(%rbp)
	jne	.LBB37_2
# %bb.1:                                # %if.then
	movabsq	$.L.str.10, %rdi
	callq	no_mem_exit
.LBB37_2:                               # %if.end
	movq	-40(%rbp), %rdi
	movl	$8, %esi
	callq	calloc
	movq	%rax, -32(%rbp)
	cmpq	$0, -32(%rbp)
	jne	.LBB37_4
# %bb.3:                                # %if.then6
	movabsq	$.L.str.11, %rdi
	callq	no_mem_exit
.LBB37_4:                               # %if.end7
	movq	-40(%rbp), %rdi
	movl	$8, %esi
	callq	calloc
	movq	%rax, -72(%rbp)
	cmpq	$0, -72(%rbp)
	jne	.LBB37_6
# %bb.5:                                # %if.then10
	movabsq	$.L.str.12, %rdi
	callq	no_mem_exit
.LBB37_6:                               # %if.end11
	movq	-40(%rbp), %rdi
	movl	$8, %esi
	callq	calloc
	movq	%rax, -64(%rbp)
	cmpq	$0, -64(%rbp)
	jne	.LBB37_8
# %bb.7:                                # %if.then14
	movabsq	$.L.str.13, %rdi
	callq	no_mem_exit
.LBB37_8:                               # %if.end15
	movq	$0, -88(%rbp)
	movq	$0, -8(%rbp)
.LBB37_9:                               # %for.cond
                                        # =>This Inner Loop Header: Depth=1
	movq	-8(%rbp), %rax
	cmpq	total_frame_buffer, %rax
	jae	.LBB37_12
# %bb.10:                               # %for.body
                                        #   in Loop: Header=BB37_9 Depth=1
	movq	-8(%rbp), %rax
	movq	Bit_Buffer(,%rax,8), %rax
	addq	-88(%rbp), %rax
	movq	%rax, -88(%rbp)
# %bb.11:                               # %for.inc
                                        #   in Loop: Header=BB37_9 Depth=1
	movq	-8(%rbp), %rax
	addq	$1, %rax
	movq	%rax, -8(%rbp)
	jmp	.LBB37_9
.LBB37_12:                              # %for.end
	movq	-88(%rbp), %rax
	vcvtsi2ss	%rax, %xmm0, %xmm1
	movq	%rax, %rcx
	shrq	%rcx
	movl	%eax, %edx
	andl	$1, %edx
	orq	%rcx, %rdx
	vcvtsi2ss	%rdx, %xmm0, %xmm0
	vaddss	%xmm0, %xmm0, %xmm0
	testq	%rax, %rax
	js	.LBB37_14
# %bb.13:                               # %for.end
	vmovaps	%xmm1, %xmm0
.LBB37_14:                              # %for.end
	movq	total_frame_buffer(%rip), %rax
	vcvtsi2ss	%rax, %xmm0, %xmm1
	movq	%rax, %rcx
	shrq	%rcx
	movl	%eax, %edx
	andl	$1, %edx
	orq	%rcx, %rdx
	vcvtsi2ss	%rdx, %xmm0, %xmm2
	vaddss	%xmm2, %xmm2, %xmm2
	testq	%rax, %rax
	js	.LBB37_16
# %bb.15:                               # %for.end
	vmovaps	%xmm1, %xmm2
.LBB37_16:                              # %for.end
	vdivss	%xmm2, %xmm0, %xmm0
	vmovss	.LCPI37_0(%rip), %xmm1  # xmm1 = mem[0],zero,zero,zero
	vsubss	%xmm1, %xmm0, %xmm2
	vcvttss2si	%xmm2, %rax
	movabsq	$-9223372036854775808, %rcx # imm = 0x8000000000000000
	xorq	%rcx, %rax
	vcvttss2si	%xmm0, %rcx
	vucomiss	%xmm1, %xmm0
	cmovbq	%rcx, %rax
	movq	%rax, -96(%rbp)
	movq	-40(%rbp), %rdi
	movq	-32(%rbp), %rsi
	callq	get_LeakyBucketRate
	movl	$1, %ecx
	cmpl	%eax, %ecx
	je	.LBB37_29
# %bb.17:                               # %if.then24
	movq	$0, -24(%rbp)
.LBB37_18:                              # %for.cond25
                                        # =>This Inner Loop Header: Depth=1
	movq	-24(%rbp), %rax
	cmpq	-40(%rbp), %rax
	jae	.LBB37_28
# %bb.19:                               # %for.body28
                                        #   in Loop: Header=BB37_18 Depth=1
	cmpq	$0, -24(%rbp)
	jne	.LBB37_23
# %bb.20:                               # %if.then31
                                        #   in Loop: Header=BB37_18 Depth=1
	movq	-96(%rbp), %rax
	vcvtsi2ss	%rax, %xmm0, %xmm0
	movq	%rax, %rcx
	shrq	%rcx
	movl	%eax, %edx
	andl	$1, %edx
	orq	%rcx, %rdx
	vcvtsi2ss	%rdx, %xmm0, %xmm1
	vaddss	%xmm1, %xmm1, %xmm1
	testq	%rax, %rax
	js	.LBB37_22
# %bb.21:                               # %if.then31
                                        #   in Loop: Header=BB37_18 Depth=1
	vmovaps	%xmm0, %xmm1
.LBB37_22:                              # %if.then31
                                        #   in Loop: Header=BB37_18 Depth=1
	movq	img(%rip), %rax
	vmovss	48(%rax), %xmm0         # xmm0 = mem[0],zero,zero,zero
	vmulss	%xmm0, %xmm1, %xmm0
	vmovss	.LCPI37_0(%rip), %xmm1  # xmm1 = mem[0],zero,zero,zero
	vsubss	%xmm1, %xmm0, %xmm2
	vcvttss2si	%xmm2, %rax
	movabsq	$-9223372036854775808, %rcx # imm = 0x8000000000000000
	xorq	%rcx, %rax
	vcvttss2si	%xmm0, %rcx
	vucomiss	%xmm1, %xmm0
	cmovbq	%rcx, %rax
	movq	input, %rcx
	movl	20(%rcx), %ecx
	addl	$1, %ecx
	movslq	%ecx, %rcx
	xorl	%edx, %edx
	divq	%rcx
	movq	-32(%rbp), %rcx
	movq	-24(%rbp), %rdx
	movq	%rax, (%rcx,%rdx,8)
	jmp	.LBB37_26
.LBB37_23:                              # %if.else
                                        #   in Loop: Header=BB37_18 Depth=1
	movq	-32(%rbp), %rax
	movq	-24(%rbp), %rcx
	movq	-8(%rax,%rcx,8), %rax
	movq	%rax, %rcx
	shrq	%rcx
	movl	%eax, %edx
	andl	$1, %edx
	orq	%rcx, %rdx
	vcvtsi2ss	%rdx, %xmm0, %xmm0
	vaddss	%xmm0, %xmm0, %xmm0
	vcvtsi2ss	%rax, %xmm0, %xmm1
	testq	%rax, %rax
	js	.LBB37_25
# %bb.24:                               # %if.else
                                        #   in Loop: Header=BB37_18 Depth=1
	vmovaps	%xmm1, %xmm0
.LBB37_25:                              # %if.else
                                        #   in Loop: Header=BB37_18 Depth=1
	movq	-96(%rbp), %rax
	shrq	$2, %rax
	vcvtsi2ss	%rax, %xmm0, %xmm1
	movq	img(%rip), %rax
	vmovss	48(%rax), %xmm2         # xmm2 = mem[0],zero,zero,zero
	vmulss	%xmm2, %xmm1, %xmm1
	movq	input(%rip), %rax
	movl	20(%rax), %eax
	addl	$1, %eax
	vcvtsi2ss	%eax, %xmm0, %xmm2
	vdivss	%xmm2, %xmm1, %xmm1
	vaddss	%xmm1, %xmm0, %xmm0
	vmovss	.LCPI37_0(%rip), %xmm1  # xmm1 = mem[0],zero,zero,zero
	vsubss	%xmm1, %xmm0, %xmm2
	vcvttss2si	%xmm2, %rax
	movabsq	$-9223372036854775808, %rcx # imm = 0x8000000000000000
	xorq	%rcx, %rax
	vcvttss2si	%xmm0, %rcx
	vucomiss	%xmm1, %xmm0
	cmovbq	%rcx, %rax
	movq	-32(%rbp), %rcx
	movq	-24(%rbp), %rdx
	movq	%rax, (%rcx,%rdx,8)
.LBB37_26:                              # %if.end51
                                        #   in Loop: Header=BB37_18 Depth=1
	jmp	.LBB37_27
.LBB37_27:                              # %for.inc52
                                        #   in Loop: Header=BB37_18 Depth=1
	movq	-24(%rbp), %rax
	addq	$1, %rax
	movq	%rax, -24(%rbp)
	jmp	.LBB37_18
.LBB37_28:                              # %for.end54
	jmp	.LBB37_29
.LBB37_29:                              # %if.end55
	movq	-40(%rbp), %rdi
	movq	-32(%rbp), %rsi
	callq	Sort
	imulq	$20, -96(%rbp), %rax
	movq	%rax, -56(%rbp)
	movq	$0, -24(%rbp)
.LBB37_30:                              # %for.cond57
                                        # =>This Loop Header: Depth=1
                                        #     Child Loop BB37_34 Depth 2
                                        #     Child Loop BB37_42 Depth 2
	movq	-24(%rbp), %rax
	cmpq	-40(%rbp), %rax
	jae	.LBB37_52
# %bb.31:                               # %for.body60
                                        #   in Loop: Header=BB37_30 Depth=1
	movq	-32(%rbp), %rax
	movq	-24(%rbp), %rcx
	movq	(%rax,%rcx,8), %rax
	movq	input(%rip), %rcx
	movl	20(%rcx), %ecx
	addl	$1, %ecx
	movslq	%ecx, %rcx
	imulq	%rcx, %rax
	movq	%rax, %rcx
	shrq	%rcx
	movl	%eax, %edx
	andl	$1, %edx
	orq	%rcx, %rdx
	vcvtsi2ss	%rdx, %xmm0, %xmm0
	vaddss	%xmm0, %xmm0, %xmm0
	vcvtsi2ss	%rax, %xmm0, %xmm1
	testq	%rax, %rax
	js	.LBB37_33
# %bb.32:                               # %for.body60
                                        #   in Loop: Header=BB37_30 Depth=1
	vmovaps	%xmm1, %xmm0
.LBB37_33:                              # %for.body60
                                        #   in Loop: Header=BB37_30 Depth=1
	movq	img, %rax
	vdivss	48(%rax), %xmm0, %xmm0
	vcvttss2si	%xmm0, %rax
	movq	%rax, -120(%rbp)
	movq	-56(%rbp), %rax
	movq	%rax, -48(%rbp)
	movq	-48(%rbp), %rax
	movq	-16(%rbp), %rcx
	movq	%rax, (%rcx)
	movq	-56(%rbp), %rax
	movq	%rax, -80(%rbp)
	movq	$0, -8(%rbp)
.LBB37_34:                              # %for.cond71
                                        #   Parent Loop BB37_30 Depth=1
                                        # =>  This Inner Loop Header: Depth=2
	movq	-8(%rbp), %rax
	cmpq	total_frame_buffer, %rax
	jae	.LBB37_41
# %bb.35:                               # %for.body74
                                        #   in Loop: Header=BB37_34 Depth=2
	movq	-16(%rbp), %rax
	movq	-8(%rbp), %rcx
	movq	(%rax,%rcx,8), %rax
	movq	-8(%rbp), %rcx
	subq	Bit_Buffer(,%rcx,8), %rax
	movq	-16(%rbp), %rcx
	movq	-8(%rbp), %rdx
	movq	%rax, (%rcx,%rdx,8)
	movq	-16(%rbp), %rax
	movq	-8(%rbp), %rcx
	movq	(%rax,%rcx,8), %rax
	cmpq	-80(%rbp), %rax
	jge	.LBB37_37
# %bb.36:                               # %if.then82
                                        #   in Loop: Header=BB37_34 Depth=2
	movq	-16(%rbp), %rax
	movq	-8(%rbp), %rcx
	movq	(%rax,%rcx,8), %rax
	movq	%rax, -80(%rbp)
	movq	-8(%rbp), %rax
	movq	%rax, -128(%rbp)
.LBB37_37:                              # %if.end84
                                        #   in Loop: Header=BB37_34 Depth=2
	movq	-16(%rbp), %rax
	movq	-8(%rbp), %rcx
	movq	(%rax,%rcx,8), %rax
	addq	-120(%rbp), %rax
	movq	-16(%rbp), %rcx
	movq	-8(%rbp), %rdx
	movq	%rax, 8(%rcx,%rdx,8)
	movq	-16(%rbp), %rax
	movq	-8(%rbp), %rcx
	movq	8(%rax,%rcx,8), %rax
	cmpq	-56(%rbp), %rax
	jle	.LBB37_39
# %bb.38:                               # %if.then93
                                        #   in Loop: Header=BB37_34 Depth=2
	movq	-56(%rbp), %rax
	movq	-16(%rbp), %rcx
	movq	-8(%rbp), %rdx
	movq	%rax, 8(%rcx,%rdx,8)
.LBB37_39:                              # %if.end96
                                        #   in Loop: Header=BB37_34 Depth=2
	jmp	.LBB37_40
.LBB37_40:                              # %for.inc97
                                        #   in Loop: Header=BB37_34 Depth=2
	movq	-8(%rbp), %rax
	addq	$1, %rax
	movq	%rax, -8(%rbp)
	jmp	.LBB37_34
.LBB37_41:                              # %for.end99
                                        #   in Loop: Header=BB37_30 Depth=1
	movq	-56(%rbp), %rax
	subq	-80(%rbp), %rax
	movq	%rax, -112(%rbp)
	movq	Bit_Buffer, %rax
	movq	%rax, -48(%rbp)
	movq	-48(%rbp), %rax
	movq	-16(%rbp), %rcx
	movq	%rax, (%rcx)
	movq	$0, -8(%rbp)
.LBB37_42:                              # %for.cond102
                                        #   Parent Loop BB37_30 Depth=1
                                        # =>  This Inner Loop Header: Depth=2
	movq	-8(%rbp), %rax
	movq	-128(%rbp), %rcx
	addq	$1, %rcx
	cmpq	%rcx, %rax
	jae	.LBB37_49
# %bb.43:                               # %for.body106
                                        #   in Loop: Header=BB37_42 Depth=2
	movq	-16(%rbp), %rax
	movq	-8(%rbp), %rcx
	movq	(%rax,%rcx,8), %rax
	movq	-8(%rbp), %rcx
	subq	Bit_Buffer(,%rcx,8), %rax
	movq	-16(%rbp), %rcx
	movq	-8(%rbp), %rdx
	movq	%rax, (%rcx,%rdx,8)
	movq	-16(%rbp), %rax
	movq	-8(%rbp), %rcx
	cmpq	$0, (%rax,%rcx,8)
	jge	.LBB37_45
# %bb.44:                               # %if.then114
                                        #   in Loop: Header=BB37_42 Depth=2
	movq	-16(%rbp), %rax
	movq	-8(%rbp), %rcx
	movq	(%rax,%rcx,8), %rax
	movq	-48(%rbp), %rcx
	subq	%rax, %rcx
	movq	%rcx, -48(%rbp)
	movq	-16(%rbp), %rax
	movq	-8(%rbp), %rcx
	movq	$0, (%rax,%rcx,8)
.LBB37_45:                              # %if.end118
                                        #   in Loop: Header=BB37_42 Depth=2
	movq	-16(%rbp), %rax
	movq	-8(%rbp), %rcx
	movq	(%rax,%rcx,8), %rax
	addq	-120(%rbp), %rax
	movq	-16(%rbp), %rcx
	movq	-8(%rbp), %rdx
	movq	%rax, 8(%rcx,%rdx,8)
	movq	-16(%rbp), %rax
	movq	-8(%rbp), %rcx
	movq	8(%rax,%rcx,8), %rax
	cmpq	-112(%rbp), %rax
	jle	.LBB37_47
# %bb.46:                               # %if.then127
                                        #   in Loop: Header=BB37_30 Depth=1
	jmp	.LBB37_50
.LBB37_47:                              # %if.end128
                                        #   in Loop: Header=BB37_42 Depth=2
	jmp	.LBB37_48
.LBB37_48:                              # %for.inc129
                                        #   in Loop: Header=BB37_42 Depth=2
	movq	-8(%rbp), %rax
	addq	$1, %rax
	movq	%rax, -8(%rbp)
	jmp	.LBB37_42
.LBB37_49:                              # %for.end131.loopexit
                                        #   in Loop: Header=BB37_30 Depth=1
	jmp	.LBB37_50
.LBB37_50:                              # %for.end131
                                        #   in Loop: Header=BB37_30 Depth=1
	movq	-112(%rbp), %rax
	movq	-72(%rbp), %rcx
	movq	-24(%rbp), %rdx
	movq	%rax, (%rcx,%rdx,8)
	movq	-48(%rbp), %rax
	movq	-64(%rbp), %rcx
	movq	-24(%rbp), %rdx
	movq	%rax, (%rcx,%rdx,8)
# %bb.51:                               # %for.inc134
                                        #   in Loop: Header=BB37_30 Depth=1
	movq	-24(%rbp), %rax
	addq	$1, %rax
	movq	%rax, -24(%rbp)
	jmp	.LBB37_30
.LBB37_52:                              # %for.end136
	movq	-40(%rbp), %rdi
	movq	-32(%rbp), %rsi
	movq	-72(%rbp), %rdx
	movq	-64(%rbp), %rcx
	callq	write_buffer
	movq	-16(%rbp), %rdi
	callq	free
	movq	-32(%rbp), %rdi
	callq	free
	movq	-72(%rbp), %rdi
	callq	free
	movq	-64(%rbp), %rdi
	callq	free
	cmpl	$674896643, -100(%rbp)  # imm = 0x283A1B03
	jne	.LBB37_54
.LBB37_53:
	addq	$128, %rsp
	popq	%rbp
	.cfi_def_cfa %rsp, 8
	retq
.LBB37_54:                              # %func_exit
	.cfi_def_cfa %rbp, 16
	callq	detect_breach
	jmp	.LBB37_53
.Lfunc_end37:
	.size	calc_buffer.33, .Lfunc_end37-calc_buffer.33
	.cfi_endproc
                                        # -- End function
	.globl	get_LeakyBucketRate.34  # -- Begin function get_LeakyBucketRate.34
	.p2align	4, 0x90
	.type	get_LeakyBucketRate.34,@function
get_LeakyBucketRate.34:                 # @get_LeakyBucketRate.34
	.cfi_startproc
# %bb.0:                                # %entry
	pushq	%rbp
	.cfi_def_cfa_offset 16
	.cfi_offset %rbp, -16
	movq	%rsp, %rbp
	.cfi_def_cfa_register %rbp
	pushq	%rbx
	subq	$56, %rsp
	.cfi_offset %rbx, -24
	movl	$580921658, -36(%rbp)   # imm = 0x22A0293A
	movq	%rdi, -48(%rbp)
	movq	%rsi, -56(%rbp)
	movq	input, %rdi
	addq	$2480, %rdi             # imm = 0x9B0
	movabsq	$.L.str, %rsi
	callq	fopen
	movq	%rax, -32(%rbp)
	cmpq	$0, %rax
	jne	.LBB38_2
# %bb.1:                                # %if.then
	movabsq	$.L.str.1, %rdi
	movb	$0, %al
	callq	printf
	movl	$0, -12(%rbp)
	jmp	.LBB38_9
.LBB38_2:                               # %if.end
	movq	$0, -24(%rbp)
.LBB38_3:                               # %for.cond
                                        # =>This Inner Loop Header: Depth=1
	movq	-24(%rbp), %rax
	cmpq	-48(%rbp), %rax
	jae	.LBB38_8
# %bb.4:                                # %for.body
                                        #   in Loop: Header=BB38_3 Depth=1
	movq	-32(%rbp), %rdi
	movabsq	$.L.str.2, %rsi
	leaq	-64(%rbp), %rdx
	movb	$0, %al
	callq	__isoc99_fscanf
	movl	$1, %ecx
	cmpl	%eax, %ecx
	je	.LBB38_6
# %bb.5:                                # %if.then5
	movabsq	$.L.str.3, %rdi
	movb	$0, %al
	callq	printf
	movq	-32(%rbp), %rdi
	callq	fclose
	movl	$0, -12(%rbp)
	jmp	.LBB38_9
.LBB38_6:                               # %if.end8
                                        #   in Loop: Header=BB38_3 Depth=1
	movq	-64(%rbp), %rax
	movq	-56(%rbp), %rcx
	movq	-24(%rbp), %rdx
	movq	%rax, (%rcx,%rdx,8)
# %bb.7:                                # %for.inc
                                        #   in Loop: Header=BB38_3 Depth=1
	movq	-24(%rbp), %rax
	addq	$1, %rax
	movq	%rax, -24(%rbp)
	jmp	.LBB38_3
.LBB38_8:                               # %for.end
	movq	-32(%rbp), %rdi
	callq	fclose
	movl	$1, -12(%rbp)
.LBB38_9:                               # %return
	movl	-12(%rbp), %ebx
	cmpl	$580921658, -36(%rbp)   # imm = 0x22A0293A
	jne	.LBB38_11
.LBB38_10:
	movl	%ebx, %eax
	addq	$56, %rsp
	popq	%rbx
	popq	%rbp
	.cfi_def_cfa %rsp, 8
	retq
.LBB38_11:                              # %func_exit
	.cfi_def_cfa %rbp, 16
	callq	detect_breach
	jmp	.LBB38_10
.Lfunc_end38:
	.size	get_LeakyBucketRate.34, .Lfunc_end38-get_LeakyBucketRate.34
	.cfi_endproc
                                        # -- End function
	.globl	Sort.35                 # -- Begin function Sort.35
	.p2align	4, 0x90
	.type	Sort.35,@function
Sort.35:                                # @Sort.35
	.cfi_startproc
# %bb.0:                                # %entry
	pushq	%rbp
	.cfi_def_cfa_offset 16
	.cfi_offset %rbp, -16
	movq	%rsp, %rbp
	.cfi_def_cfa_register %rbp
	subq	$48, %rsp
	movl	$1597322511, -28(%rbp)  # imm = 0x5F35350F
	movq	%rdi, -40(%rbp)
	movq	%rsi, -16(%rbp)
	movq	$0, -8(%rbp)
.LBB39_1:                               # %for.cond
                                        # =>This Loop Header: Depth=1
                                        #     Child Loop BB39_3 Depth 2
	movq	-8(%rbp), %rax
	movq	-40(%rbp), %rcx
	subq	$1, %rcx
	cmpq	%rcx, %rax
	jae	.LBB39_10
# %bb.2:                                # %for.body
                                        #   in Loop: Header=BB39_1 Depth=1
	movq	-8(%rbp), %rax
	addq	$1, %rax
	movq	%rax, -24(%rbp)
.LBB39_3:                               # %for.cond1
                                        #   Parent Loop BB39_1 Depth=1
                                        # =>  This Inner Loop Header: Depth=2
	movq	-24(%rbp), %rax
	cmpq	-40(%rbp), %rax
	jae	.LBB39_8
# %bb.4:                                # %for.body3
                                        #   in Loop: Header=BB39_3 Depth=2
	movq	-16(%rbp), %rax
	movq	-8(%rbp), %rcx
	movq	(%rax,%rcx,8), %rax
	movq	-16(%rbp), %rcx
	movq	-24(%rbp), %rdx
	cmpq	(%rcx,%rdx,8), %rax
	jbe	.LBB39_6
# %bb.5:                                # %if.then
                                        #   in Loop: Header=BB39_3 Depth=2
	movq	-16(%rbp), %rax
	movq	-8(%rbp), %rcx
	movq	(%rax,%rcx,8), %rax
	movq	%rax, -48(%rbp)
	movq	-16(%rbp), %rax
	movq	-24(%rbp), %rcx
	movq	(%rax,%rcx,8), %rax
	movq	-16(%rbp), %rcx
	movq	-8(%rbp), %rdx
	movq	%rax, (%rcx,%rdx,8)
	movq	-48(%rbp), %rax
	movq	-16(%rbp), %rcx
	movq	-24(%rbp), %rdx
	movq	%rax, (%rcx,%rdx,8)
.LBB39_6:                               # %if.end
                                        #   in Loop: Header=BB39_3 Depth=2
	jmp	.LBB39_7
.LBB39_7:                               # %for.inc
                                        #   in Loop: Header=BB39_3 Depth=2
	movq	-24(%rbp), %rax
	addq	$1, %rax
	movq	%rax, -24(%rbp)
	jmp	.LBB39_3
.LBB39_8:                               # %for.end
                                        #   in Loop: Header=BB39_1 Depth=1
	jmp	.LBB39_9
.LBB39_9:                               # %for.inc10
                                        #   in Loop: Header=BB39_1 Depth=1
	movq	-8(%rbp), %rax
	addq	$1, %rax
	movq	%rax, -8(%rbp)
	jmp	.LBB39_1
.LBB39_10:                              # %for.end12
	cmpl	$1597322511, -28(%rbp)  # imm = 0x5F35350F
	jne	.LBB39_12
.LBB39_11:
	addq	$48, %rsp
	popq	%rbp
	.cfi_def_cfa %rsp, 8
	retq
.LBB39_12:                              # %func_exit
	.cfi_def_cfa %rbp, 16
	callq	detect_breach
	jmp	.LBB39_11
.Lfunc_end39:
	.size	Sort.35, .Lfunc_end39-Sort.35
	.cfi_endproc
                                        # -- End function
	.globl	Sort.36                 # -- Begin function Sort.36
	.p2align	4, 0x90
	.type	Sort.36,@function
Sort.36:                                # @Sort.36
	.cfi_startproc
# %bb.0:                                # %entry
	pushq	%rbp
	.cfi_def_cfa_offset 16
	.cfi_offset %rbp, -16
	movq	%rsp, %rbp
	.cfi_def_cfa_register %rbp
	subq	$48, %rsp
	movl	$1151395767, -28(%rbp)  # imm = 0x44A0E7B7
	movq	%rdi, -40(%rbp)
	movq	%rsi, -16(%rbp)
	movq	$0, -8(%rbp)
.LBB40_1:                               # %for.cond
                                        # =>This Loop Header: Depth=1
                                        #     Child Loop BB40_3 Depth 2
	movq	-8(%rbp), %rax
	movq	-40(%rbp), %rcx
	subq	$1, %rcx
	cmpq	%rcx, %rax
	jae	.LBB40_10
# %bb.2:                                # %for.body
                                        #   in Loop: Header=BB40_1 Depth=1
	movq	-8(%rbp), %rax
	addq	$1, %rax
	movq	%rax, -24(%rbp)
.LBB40_3:                               # %for.cond1
                                        #   Parent Loop BB40_1 Depth=1
                                        # =>  This Inner Loop Header: Depth=2
	movq	-24(%rbp), %rax
	cmpq	-40(%rbp), %rax
	jae	.LBB40_8
# %bb.4:                                # %for.body3
                                        #   in Loop: Header=BB40_3 Depth=2
	movq	-16(%rbp), %rax
	movq	-8(%rbp), %rcx
	movq	(%rax,%rcx,8), %rax
	movq	-16(%rbp), %rcx
	movq	-24(%rbp), %rdx
	cmpq	(%rcx,%rdx,8), %rax
	jbe	.LBB40_6
# %bb.5:                                # %if.then
                                        #   in Loop: Header=BB40_3 Depth=2
	movq	-16(%rbp), %rax
	movq	-8(%rbp), %rcx
	movq	(%rax,%rcx,8), %rax
	movq	%rax, -48(%rbp)
	movq	-16(%rbp), %rax
	movq	-24(%rbp), %rcx
	movq	(%rax,%rcx,8), %rax
	movq	-16(%rbp), %rcx
	movq	-8(%rbp), %rdx
	movq	%rax, (%rcx,%rdx,8)
	movq	-48(%rbp), %rax
	movq	-16(%rbp), %rcx
	movq	-24(%rbp), %rdx
	movq	%rax, (%rcx,%rdx,8)
.LBB40_6:                               # %if.end
                                        #   in Loop: Header=BB40_3 Depth=2
	jmp	.LBB40_7
.LBB40_7:                               # %for.inc
                                        #   in Loop: Header=BB40_3 Depth=2
	movq	-24(%rbp), %rax
	addq	$1, %rax
	movq	%rax, -24(%rbp)
	jmp	.LBB40_3
.LBB40_8:                               # %for.end
                                        #   in Loop: Header=BB40_1 Depth=1
	jmp	.LBB40_9
.LBB40_9:                               # %for.inc10
                                        #   in Loop: Header=BB40_1 Depth=1
	movq	-8(%rbp), %rax
	addq	$1, %rax
	movq	%rax, -8(%rbp)
	jmp	.LBB40_1
.LBB40_10:                              # %for.end12
	cmpl	$1151395767, -28(%rbp)  # imm = 0x44A0E7B7
	jne	.LBB40_12
.LBB40_11:
	addq	$48, %rsp
	popq	%rbp
	.cfi_def_cfa %rsp, 8
	retq
.LBB40_12:                              # %func_exit
	.cfi_def_cfa %rbp, 16
	callq	detect_breach
	jmp	.LBB40_11
.Lfunc_end40:
	.size	Sort.36, .Lfunc_end40-Sort.36
	.cfi_endproc
                                        # -- End function
	.globl	write_buffer.37         # -- Begin function write_buffer.37
	.p2align	4, 0x90
	.type	write_buffer.37,@function
write_buffer.37:                        # @write_buffer.37
	.cfi_startproc
# %bb.0:                                # %entry
	pushq	%rbp
	.cfi_def_cfa_offset 16
	.cfi_offset %rbp, -16
	movq	%rsp, %rbp
	.cfi_def_cfa_register %rbp
	subq	$64, %rsp
	movl	$794432361, -28(%rbp)   # imm = 0x2F5A1369
	movq	%rdi, -24(%rbp)
	movq	%rsi, -40(%rbp)
	movq	%rdx, -48(%rbp)
	movq	%rcx, -56(%rbp)
	movq	input, %rdi
	addq	$2680, %rdi             # imm = 0xA78
	movabsq	$.L.str.4, %rsi
	callq	fopen
	movq	%rax, -16(%rbp)
	cmpq	$0, %rax
	jne	.LBB41_2
# %bb.1:                                # %if.then
	movq	input, %rcx
	addq	$2680, %rcx             # imm = 0xA78
	movabsq	$errortext, %rdi
	movl	$300, %esi              # imm = 0x12C
	movabsq	$.L.str.5, %rdx
	movb	$0, %al
	callq	snprintf
	movabsq	$errortext, %rdi
	movl	$1, %esi
	callq	error
.LBB41_2:                               # %if.end
	movq	-24(%rbp), %rdi
	movq	-16(%rbp), %rsi
	callq	PutBigDoubleWord
	movq	-24(%rbp), %rsi
	movabsq	$.L.str.6, %rdi
	movb	$0, %al
	callq	printf
	movq	$0, -8(%rbp)
.LBB41_3:                               # %for.cond
                                        # =>This Inner Loop Header: Depth=1
	movq	-8(%rbp), %rax
	cmpq	-24(%rbp), %rax
	jae	.LBB41_6
# %bb.4:                                # %for.body
                                        #   in Loop: Header=BB41_3 Depth=1
	movq	-40(%rbp), %rax
	movq	-8(%rbp), %rcx
	movq	(%rax,%rcx,8), %rdi
	movq	-16(%rbp), %rsi
	callq	PutBigDoubleWord
	movq	-48(%rbp), %rax
	movq	-8(%rbp), %rcx
	movq	(%rax,%rcx,8), %rdi
	movq	-16(%rbp), %rsi
	callq	PutBigDoubleWord
	movq	-56(%rbp), %rax
	movq	-8(%rbp), %rcx
	movq	(%rax,%rcx,8), %rdi
	movq	-16(%rbp), %rsi
	callq	PutBigDoubleWord
	movq	-40(%rbp), %rax
	movq	-8(%rbp), %rcx
	movq	(%rax,%rcx,8), %rsi
	movq	-48(%rbp), %rax
	movq	-8(%rbp), %rcx
	movq	(%rax,%rcx,8), %rdx
	movq	-56(%rbp), %rax
	movq	-8(%rbp), %rcx
	movq	(%rax,%rcx,8), %rcx
	movabsq	$.L.str.7, %rdi
	movb	$0, %al
	callq	printf
# %bb.5:                                # %for.inc
                                        #   in Loop: Header=BB41_3 Depth=1
	movq	-8(%rbp), %rax
	addq	$1, %rax
	movq	%rax, -8(%rbp)
	jmp	.LBB41_3
.LBB41_6:                               # %for.end
	movq	-16(%rbp), %rdi
	callq	fclose
	cmpl	$794432361, -28(%rbp)   # imm = 0x2F5A1369
	jne	.LBB41_8
.LBB41_7:
	addq	$64, %rsp
	popq	%rbp
	.cfi_def_cfa %rsp, 8
	retq
.LBB41_8:                               # %func_exit
	.cfi_def_cfa %rbp, 16
	callq	detect_breach
	jmp	.LBB41_7
.Lfunc_end41:
	.size	write_buffer.37, .Lfunc_end41-write_buffer.37
	.cfi_endproc
                                        # -- End function
	.globl	Sort.38                 # -- Begin function Sort.38
	.p2align	4, 0x90
	.type	Sort.38,@function
Sort.38:                                # @Sort.38
	.cfi_startproc
# %bb.0:                                # %entry
	pushq	%rbp
	.cfi_def_cfa_offset 16
	.cfi_offset %rbp, -16
	movq	%rsp, %rbp
	.cfi_def_cfa_register %rbp
	subq	$48, %rsp
	movl	$417147094, -28(%rbp)   # imm = 0x18DD28D6
	movq	%rdi, -40(%rbp)
	movq	%rsi, -16(%rbp)
	movq	$0, -8(%rbp)
.LBB42_1:                               # %for.cond
                                        # =>This Loop Header: Depth=1
                                        #     Child Loop BB42_3 Depth 2
	movq	-8(%rbp), %rax
	movq	-40(%rbp), %rcx
	subq	$1, %rcx
	cmpq	%rcx, %rax
	jae	.LBB42_10
# %bb.2:                                # %for.body
                                        #   in Loop: Header=BB42_1 Depth=1
	movq	-8(%rbp), %rax
	addq	$1, %rax
	movq	%rax, -24(%rbp)
.LBB42_3:                               # %for.cond1
                                        #   Parent Loop BB42_1 Depth=1
                                        # =>  This Inner Loop Header: Depth=2
	movq	-24(%rbp), %rax
	cmpq	-40(%rbp), %rax
	jae	.LBB42_8
# %bb.4:                                # %for.body3
                                        #   in Loop: Header=BB42_3 Depth=2
	movq	-16(%rbp), %rax
	movq	-8(%rbp), %rcx
	movq	(%rax,%rcx,8), %rax
	movq	-16(%rbp), %rcx
	movq	-24(%rbp), %rdx
	cmpq	(%rcx,%rdx,8), %rax
	jbe	.LBB42_6
# %bb.5:                                # %if.then
                                        #   in Loop: Header=BB42_3 Depth=2
	movq	-16(%rbp), %rax
	movq	-8(%rbp), %rcx
	movq	(%rax,%rcx,8), %rax
	movq	%rax, -48(%rbp)
	movq	-16(%rbp), %rax
	movq	-24(%rbp), %rcx
	movq	(%rax,%rcx,8), %rax
	movq	-16(%rbp), %rcx
	movq	-8(%rbp), %rdx
	movq	%rax, (%rcx,%rdx,8)
	movq	-48(%rbp), %rax
	movq	-16(%rbp), %rcx
	movq	-24(%rbp), %rdx
	movq	%rax, (%rcx,%rdx,8)
.LBB42_6:                               # %if.end
                                        #   in Loop: Header=BB42_3 Depth=2
	jmp	.LBB42_7
.LBB42_7:                               # %for.inc
                                        #   in Loop: Header=BB42_3 Depth=2
	movq	-24(%rbp), %rax
	addq	$1, %rax
	movq	%rax, -24(%rbp)
	jmp	.LBB42_3
.LBB42_8:                               # %for.end
                                        #   in Loop: Header=BB42_1 Depth=1
	jmp	.LBB42_9
.LBB42_9:                               # %for.inc10
                                        #   in Loop: Header=BB42_1 Depth=1
	movq	-8(%rbp), %rax
	addq	$1, %rax
	movq	%rax, -8(%rbp)
	jmp	.LBB42_1
.LBB42_10:                              # %for.end12
	cmpl	$417147094, -28(%rbp)   # imm = 0x18DD28D6
	jne	.LBB42_12
.LBB42_11:
	addq	$48, %rsp
	popq	%rbp
	.cfi_def_cfa %rsp, 8
	retq
.LBB42_12:                              # %func_exit
	.cfi_def_cfa %rbp, 16
	callq	detect_breach
	jmp	.LBB42_11
.Lfunc_end42:
	.size	Sort.38, .Lfunc_end42-Sort.38
	.cfi_endproc
                                        # -- End function
	.globl	get_LeakyBucketRate.39  # -- Begin function get_LeakyBucketRate.39
	.p2align	4, 0x90
	.type	get_LeakyBucketRate.39,@function
get_LeakyBucketRate.39:                 # @get_LeakyBucketRate.39
	.cfi_startproc
# %bb.0:                                # %entry
	pushq	%rbp
	.cfi_def_cfa_offset 16
	.cfi_offset %rbp, -16
	movq	%rsp, %rbp
	.cfi_def_cfa_register %rbp
	pushq	%rbx
	subq	$56, %rsp
	.cfi_offset %rbx, -24
	movl	$651951558, -36(%rbp)   # imm = 0x26DBFDC6
	movq	%rdi, -64(%rbp)
	movq	%rsi, -48(%rbp)
	movq	input, %rdi
	addq	$2480, %rdi             # imm = 0x9B0
	movabsq	$.L.str, %rsi
	callq	fopen
	movq	%rax, -32(%rbp)
	cmpq	$0, %rax
	jne	.LBB43_2
# %bb.1:                                # %if.then
	movabsq	$.L.str.1, %rdi
	movb	$0, %al
	callq	printf
	movl	$0, -12(%rbp)
	jmp	.LBB43_9
.LBB43_2:                               # %if.end
	movq	$0, -24(%rbp)
.LBB43_3:                               # %for.cond
                                        # =>This Inner Loop Header: Depth=1
	movq	-24(%rbp), %rax
	cmpq	-64(%rbp), %rax
	jae	.LBB43_8
# %bb.4:                                # %for.body
                                        #   in Loop: Header=BB43_3 Depth=1
	movq	-32(%rbp), %rdi
	movabsq	$.L.str.2, %rsi
	leaq	-56(%rbp), %rdx
	movb	$0, %al
	callq	__isoc99_fscanf
	movl	$1, %ecx
	cmpl	%eax, %ecx
	je	.LBB43_6
# %bb.5:                                # %if.then5
	movabsq	$.L.str.3, %rdi
	movb	$0, %al
	callq	printf
	movq	-32(%rbp), %rdi
	callq	fclose
	movl	$0, -12(%rbp)
	jmp	.LBB43_9
.LBB43_6:                               # %if.end8
                                        #   in Loop: Header=BB43_3 Depth=1
	movq	-56(%rbp), %rax
	movq	-48(%rbp), %rcx
	movq	-24(%rbp), %rdx
	movq	%rax, (%rcx,%rdx,8)
# %bb.7:                                # %for.inc
                                        #   in Loop: Header=BB43_3 Depth=1
	movq	-24(%rbp), %rax
	addq	$1, %rax
	movq	%rax, -24(%rbp)
	jmp	.LBB43_3
.LBB43_8:                               # %for.end
	movq	-32(%rbp), %rdi
	callq	fclose
	movl	$1, -12(%rbp)
.LBB43_9:                               # %return
	movl	-12(%rbp), %ebx
	cmpl	$651951558, -36(%rbp)   # imm = 0x26DBFDC6
	jne	.LBB43_11
.LBB43_10:
	movl	%ebx, %eax
	addq	$56, %rsp
	popq	%rbx
	popq	%rbp
	.cfi_def_cfa %rsp, 8
	retq
.LBB43_11:                              # %func_exit
	.cfi_def_cfa %rbp, 16
	callq	detect_breach
	jmp	.LBB43_10
.Lfunc_end43:
	.size	get_LeakyBucketRate.39, .Lfunc_end43-get_LeakyBucketRate.39
	.cfi_endproc
                                        # -- End function
	.section	.rodata.cst4,"aM",@progbits,4
	.p2align	2               # -- Begin function calc_buffer.40
.LCPI44_0:
	.long	1593835520              # float 9.22337203E+18
	.text
	.globl	calc_buffer.40
	.p2align	4, 0x90
	.type	calc_buffer.40,@function
calc_buffer.40:                         # @calc_buffer.40
	.cfi_startproc
# %bb.0:                                # %entry
	pushq	%rbp
	.cfi_def_cfa_offset 16
	.cfi_offset %rbp, -16
	movq	%rsp, %rbp
	.cfi_def_cfa_register %rbp
	subq	$128, %rsp
	movl	$101327825, -100(%rbp)  # imm = 0x60A23D1
	movq	$0, -112(%rbp)
	movq	stdout, %rdi
	movabsq	$.L.str.8, %rsi
	movb	$0, %al
	callq	fprintf
	movq	total_frame_buffer, %rsi
	movq	input, %rax
	movl	8(%rax), %edx
	movabsq	$.L.str.9, %rdi
	movb	$0, %al
	callq	printf
	movq	input, %rax
	movslq	2476(%rax), %rax
	movq	%rax, -40(%rbp)
	movq	total_frame_buffer, %rdi
	addq	$1, %rdi
	movl	$8, %esi
	callq	calloc
	movq	%rax, -16(%rbp)
	cmpq	$0, -16(%rbp)
	jne	.LBB44_2
# %bb.1:                                # %if.then
	movabsq	$.L.str.10, %rdi
	callq	no_mem_exit
.LBB44_2:                               # %if.end
	movq	-40(%rbp), %rdi
	movl	$8, %esi
	callq	calloc
	movq	%rax, -32(%rbp)
	cmpq	$0, -32(%rbp)
	jne	.LBB44_4
# %bb.3:                                # %if.then6
	movabsq	$.L.str.11, %rdi
	callq	no_mem_exit
.LBB44_4:                               # %if.end7
	movq	-40(%rbp), %rdi
	movl	$8, %esi
	callq	calloc
	movq	%rax, -64(%rbp)
	cmpq	$0, -64(%rbp)
	jne	.LBB44_6
# %bb.5:                                # %if.then10
	movabsq	$.L.str.12, %rdi
	callq	no_mem_exit
.LBB44_6:                               # %if.end11
	movq	-40(%rbp), %rdi
	movl	$8, %esi
	callq	calloc
	movq	%rax, -72(%rbp)
	cmpq	$0, -72(%rbp)
	jne	.LBB44_8
# %bb.7:                                # %if.then14
	movabsq	$.L.str.13, %rdi
	callq	no_mem_exit
.LBB44_8:                               # %if.end15
	movq	$0, -96(%rbp)
	movq	$0, -8(%rbp)
.LBB44_9:                               # %for.cond
                                        # =>This Inner Loop Header: Depth=1
	movq	-8(%rbp), %rax
	cmpq	total_frame_buffer, %rax
	jae	.LBB44_12
# %bb.10:                               # %for.body
                                        #   in Loop: Header=BB44_9 Depth=1
	movq	-8(%rbp), %rax
	movq	Bit_Buffer(,%rax,8), %rax
	addq	-96(%rbp), %rax
	movq	%rax, -96(%rbp)
# %bb.11:                               # %for.inc
                                        #   in Loop: Header=BB44_9 Depth=1
	movq	-8(%rbp), %rax
	addq	$1, %rax
	movq	%rax, -8(%rbp)
	jmp	.LBB44_9
.LBB44_12:                              # %for.end
	movq	-96(%rbp), %rax
	vcvtsi2ss	%rax, %xmm0, %xmm1
	movq	%rax, %rcx
	shrq	%rcx
	movl	%eax, %edx
	andl	$1, %edx
	orq	%rcx, %rdx
	vcvtsi2ss	%rdx, %xmm0, %xmm0
	vaddss	%xmm0, %xmm0, %xmm0
	testq	%rax, %rax
	js	.LBB44_14
# %bb.13:                               # %for.end
	vmovaps	%xmm1, %xmm0
.LBB44_14:                              # %for.end
	movq	total_frame_buffer(%rip), %rax
	vcvtsi2ss	%rax, %xmm0, %xmm1
	movq	%rax, %rcx
	shrq	%rcx
	movl	%eax, %edx
	andl	$1, %edx
	orq	%rcx, %rdx
	vcvtsi2ss	%rdx, %xmm0, %xmm2
	vaddss	%xmm2, %xmm2, %xmm2
	testq	%rax, %rax
	js	.LBB44_16
# %bb.15:                               # %for.end
	vmovaps	%xmm1, %xmm2
.LBB44_16:                              # %for.end
	vdivss	%xmm2, %xmm0, %xmm0
	vmovss	.LCPI44_0(%rip), %xmm1  # xmm1 = mem[0],zero,zero,zero
	vsubss	%xmm1, %xmm0, %xmm2
	vcvttss2si	%xmm2, %rax
	movabsq	$-9223372036854775808, %rcx # imm = 0x8000000000000000
	xorq	%rcx, %rax
	vcvttss2si	%xmm0, %rcx
	vucomiss	%xmm1, %xmm0
	cmovbq	%rcx, %rax
	movq	%rax, -80(%rbp)
	movq	-40(%rbp), %rdi
	movq	-32(%rbp), %rsi
	callq	get_LeakyBucketRate
	movl	$1, %ecx
	cmpl	%eax, %ecx
	je	.LBB44_29
# %bb.17:                               # %if.then24
	movq	$0, -24(%rbp)
.LBB44_18:                              # %for.cond25
                                        # =>This Inner Loop Header: Depth=1
	movq	-24(%rbp), %rax
	cmpq	-40(%rbp), %rax
	jae	.LBB44_28
# %bb.19:                               # %for.body28
                                        #   in Loop: Header=BB44_18 Depth=1
	cmpq	$0, -24(%rbp)
	jne	.LBB44_23
# %bb.20:                               # %if.then31
                                        #   in Loop: Header=BB44_18 Depth=1
	movq	-80(%rbp), %rax
	vcvtsi2ss	%rax, %xmm0, %xmm0
	movq	%rax, %rcx
	shrq	%rcx
	movl	%eax, %edx
	andl	$1, %edx
	orq	%rcx, %rdx
	vcvtsi2ss	%rdx, %xmm0, %xmm1
	vaddss	%xmm1, %xmm1, %xmm1
	testq	%rax, %rax
	js	.LBB44_22
# %bb.21:                               # %if.then31
                                        #   in Loop: Header=BB44_18 Depth=1
	vmovaps	%xmm0, %xmm1
.LBB44_22:                              # %if.then31
                                        #   in Loop: Header=BB44_18 Depth=1
	movq	img(%rip), %rax
	vmovss	48(%rax), %xmm0         # xmm0 = mem[0],zero,zero,zero
	vmulss	%xmm0, %xmm1, %xmm0
	vmovss	.LCPI44_0(%rip), %xmm1  # xmm1 = mem[0],zero,zero,zero
	vsubss	%xmm1, %xmm0, %xmm2
	vcvttss2si	%xmm2, %rax
	movabsq	$-9223372036854775808, %rcx # imm = 0x8000000000000000
	xorq	%rcx, %rax
	vcvttss2si	%xmm0, %rcx
	vucomiss	%xmm1, %xmm0
	cmovbq	%rcx, %rax
	movq	input, %rcx
	movl	20(%rcx), %ecx
	addl	$1, %ecx
	movslq	%ecx, %rcx
	xorl	%edx, %edx
	divq	%rcx
	movq	-32(%rbp), %rcx
	movq	-24(%rbp), %rdx
	movq	%rax, (%rcx,%rdx,8)
	jmp	.LBB44_26
.LBB44_23:                              # %if.else
                                        #   in Loop: Header=BB44_18 Depth=1
	movq	-32(%rbp), %rax
	movq	-24(%rbp), %rcx
	movq	-8(%rax,%rcx,8), %rax
	movq	%rax, %rcx
	shrq	%rcx
	movl	%eax, %edx
	andl	$1, %edx
	orq	%rcx, %rdx
	vcvtsi2ss	%rdx, %xmm0, %xmm0
	vaddss	%xmm0, %xmm0, %xmm0
	vcvtsi2ss	%rax, %xmm0, %xmm1
	testq	%rax, %rax
	js	.LBB44_25
# %bb.24:                               # %if.else
                                        #   in Loop: Header=BB44_18 Depth=1
	vmovaps	%xmm1, %xmm0
.LBB44_25:                              # %if.else
                                        #   in Loop: Header=BB44_18 Depth=1
	movq	-80(%rbp), %rax
	shrq	$2, %rax
	vcvtsi2ss	%rax, %xmm0, %xmm1
	movq	img(%rip), %rax
	vmovss	48(%rax), %xmm2         # xmm2 = mem[0],zero,zero,zero
	vmulss	%xmm2, %xmm1, %xmm1
	movq	input(%rip), %rax
	movl	20(%rax), %eax
	addl	$1, %eax
	vcvtsi2ss	%eax, %xmm0, %xmm2
	vdivss	%xmm2, %xmm1, %xmm1
	vaddss	%xmm1, %xmm0, %xmm0
	vmovss	.LCPI44_0(%rip), %xmm1  # xmm1 = mem[0],zero,zero,zero
	vsubss	%xmm1, %xmm0, %xmm2
	vcvttss2si	%xmm2, %rax
	movabsq	$-9223372036854775808, %rcx # imm = 0x8000000000000000
	xorq	%rcx, %rax
	vcvttss2si	%xmm0, %rcx
	vucomiss	%xmm1, %xmm0
	cmovbq	%rcx, %rax
	movq	-32(%rbp), %rcx
	movq	-24(%rbp), %rdx
	movq	%rax, (%rcx,%rdx,8)
.LBB44_26:                              # %if.end51
                                        #   in Loop: Header=BB44_18 Depth=1
	jmp	.LBB44_27
.LBB44_27:                              # %for.inc52
                                        #   in Loop: Header=BB44_18 Depth=1
	movq	-24(%rbp), %rax
	addq	$1, %rax
	movq	%rax, -24(%rbp)
	jmp	.LBB44_18
.LBB44_28:                              # %for.end54
	jmp	.LBB44_29
.LBB44_29:                              # %if.end55
	movq	-40(%rbp), %rdi
	movq	-32(%rbp), %rsi
	callq	Sort
	imulq	$20, -80(%rbp), %rax
	movq	%rax, -56(%rbp)
	movq	$0, -24(%rbp)
.LBB44_30:                              # %for.cond57
                                        # =>This Loop Header: Depth=1
                                        #     Child Loop BB44_34 Depth 2
                                        #     Child Loop BB44_42 Depth 2
	movq	-24(%rbp), %rax
	cmpq	-40(%rbp), %rax
	jae	.LBB44_52
# %bb.31:                               # %for.body60
                                        #   in Loop: Header=BB44_30 Depth=1
	movq	-32(%rbp), %rax
	movq	-24(%rbp), %rcx
	movq	(%rax,%rcx,8), %rax
	movq	input(%rip), %rcx
	movl	20(%rcx), %ecx
	addl	$1, %ecx
	movslq	%ecx, %rcx
	imulq	%rcx, %rax
	movq	%rax, %rcx
	shrq	%rcx
	movl	%eax, %edx
	andl	$1, %edx
	orq	%rcx, %rdx
	vcvtsi2ss	%rdx, %xmm0, %xmm0
	vaddss	%xmm0, %xmm0, %xmm0
	vcvtsi2ss	%rax, %xmm0, %xmm1
	testq	%rax, %rax
	js	.LBB44_33
# %bb.32:                               # %for.body60
                                        #   in Loop: Header=BB44_30 Depth=1
	vmovaps	%xmm1, %xmm0
.LBB44_33:                              # %for.body60
                                        #   in Loop: Header=BB44_30 Depth=1
	movq	img, %rax
	vdivss	48(%rax), %xmm0, %xmm0
	vcvttss2si	%xmm0, %rax
	movq	%rax, -120(%rbp)
	movq	-56(%rbp), %rax
	movq	%rax, -48(%rbp)
	movq	-48(%rbp), %rax
	movq	-16(%rbp), %rcx
	movq	%rax, (%rcx)
	movq	-56(%rbp), %rax
	movq	%rax, -88(%rbp)
	movq	$0, -8(%rbp)
.LBB44_34:                              # %for.cond71
                                        #   Parent Loop BB44_30 Depth=1
                                        # =>  This Inner Loop Header: Depth=2
	movq	-8(%rbp), %rax
	cmpq	total_frame_buffer, %rax
	jae	.LBB44_41
# %bb.35:                               # %for.body74
                                        #   in Loop: Header=BB44_34 Depth=2
	movq	-16(%rbp), %rax
	movq	-8(%rbp), %rcx
	movq	(%rax,%rcx,8), %rax
	movq	-8(%rbp), %rcx
	subq	Bit_Buffer(,%rcx,8), %rax
	movq	-16(%rbp), %rcx
	movq	-8(%rbp), %rdx
	movq	%rax, (%rcx,%rdx,8)
	movq	-16(%rbp), %rax
	movq	-8(%rbp), %rcx
	movq	(%rax,%rcx,8), %rax
	cmpq	-88(%rbp), %rax
	jge	.LBB44_37
# %bb.36:                               # %if.then82
                                        #   in Loop: Header=BB44_34 Depth=2
	movq	-16(%rbp), %rax
	movq	-8(%rbp), %rcx
	movq	(%rax,%rcx,8), %rax
	movq	%rax, -88(%rbp)
	movq	-8(%rbp), %rax
	movq	%rax, -112(%rbp)
.LBB44_37:                              # %if.end84
                                        #   in Loop: Header=BB44_34 Depth=2
	movq	-16(%rbp), %rax
	movq	-8(%rbp), %rcx
	movq	(%rax,%rcx,8), %rax
	addq	-120(%rbp), %rax
	movq	-16(%rbp), %rcx
	movq	-8(%rbp), %rdx
	movq	%rax, 8(%rcx,%rdx,8)
	movq	-16(%rbp), %rax
	movq	-8(%rbp), %rcx
	movq	8(%rax,%rcx,8), %rax
	cmpq	-56(%rbp), %rax
	jle	.LBB44_39
# %bb.38:                               # %if.then93
                                        #   in Loop: Header=BB44_34 Depth=2
	movq	-56(%rbp), %rax
	movq	-16(%rbp), %rcx
	movq	-8(%rbp), %rdx
	movq	%rax, 8(%rcx,%rdx,8)
.LBB44_39:                              # %if.end96
                                        #   in Loop: Header=BB44_34 Depth=2
	jmp	.LBB44_40
.LBB44_40:                              # %for.inc97
                                        #   in Loop: Header=BB44_34 Depth=2
	movq	-8(%rbp), %rax
	addq	$1, %rax
	movq	%rax, -8(%rbp)
	jmp	.LBB44_34
.LBB44_41:                              # %for.end99
                                        #   in Loop: Header=BB44_30 Depth=1
	movq	-56(%rbp), %rax
	subq	-88(%rbp), %rax
	movq	%rax, -128(%rbp)
	movq	Bit_Buffer, %rax
	movq	%rax, -48(%rbp)
	movq	-48(%rbp), %rax
	movq	-16(%rbp), %rcx
	movq	%rax, (%rcx)
	movq	$0, -8(%rbp)
.LBB44_42:                              # %for.cond102
                                        #   Parent Loop BB44_30 Depth=1
                                        # =>  This Inner Loop Header: Depth=2
	movq	-8(%rbp), %rax
	movq	-112(%rbp), %rcx
	addq	$1, %rcx
	cmpq	%rcx, %rax
	jae	.LBB44_49
# %bb.43:                               # %for.body106
                                        #   in Loop: Header=BB44_42 Depth=2
	movq	-16(%rbp), %rax
	movq	-8(%rbp), %rcx
	movq	(%rax,%rcx,8), %rax
	movq	-8(%rbp), %rcx
	subq	Bit_Buffer(,%rcx,8), %rax
	movq	-16(%rbp), %rcx
	movq	-8(%rbp), %rdx
	movq	%rax, (%rcx,%rdx,8)
	movq	-16(%rbp), %rax
	movq	-8(%rbp), %rcx
	cmpq	$0, (%rax,%rcx,8)
	jge	.LBB44_45
# %bb.44:                               # %if.then114
                                        #   in Loop: Header=BB44_42 Depth=2
	movq	-16(%rbp), %rax
	movq	-8(%rbp), %rcx
	movq	(%rax,%rcx,8), %rax
	movq	-48(%rbp), %rcx
	subq	%rax, %rcx
	movq	%rcx, -48(%rbp)
	movq	-16(%rbp), %rax
	movq	-8(%rbp), %rcx
	movq	$0, (%rax,%rcx,8)
.LBB44_45:                              # %if.end118
                                        #   in Loop: Header=BB44_42 Depth=2
	movq	-16(%rbp), %rax
	movq	-8(%rbp), %rcx
	movq	(%rax,%rcx,8), %rax
	addq	-120(%rbp), %rax
	movq	-16(%rbp), %rcx
	movq	-8(%rbp), %rdx
	movq	%rax, 8(%rcx,%rdx,8)
	movq	-16(%rbp), %rax
	movq	-8(%rbp), %rcx
	movq	8(%rax,%rcx,8), %rax
	cmpq	-128(%rbp), %rax
	jle	.LBB44_47
# %bb.46:                               # %if.then127
                                        #   in Loop: Header=BB44_30 Depth=1
	jmp	.LBB44_50
.LBB44_47:                              # %if.end128
                                        #   in Loop: Header=BB44_42 Depth=2
	jmp	.LBB44_48
.LBB44_48:                              # %for.inc129
                                        #   in Loop: Header=BB44_42 Depth=2
	movq	-8(%rbp), %rax
	addq	$1, %rax
	movq	%rax, -8(%rbp)
	jmp	.LBB44_42
.LBB44_49:                              # %for.end131.loopexit
                                        #   in Loop: Header=BB44_30 Depth=1
	jmp	.LBB44_50
.LBB44_50:                              # %for.end131
                                        #   in Loop: Header=BB44_30 Depth=1
	movq	-128(%rbp), %rax
	movq	-64(%rbp), %rcx
	movq	-24(%rbp), %rdx
	movq	%rax, (%rcx,%rdx,8)
	movq	-48(%rbp), %rax
	movq	-72(%rbp), %rcx
	movq	-24(%rbp), %rdx
	movq	%rax, (%rcx,%rdx,8)
# %bb.51:                               # %for.inc134
                                        #   in Loop: Header=BB44_30 Depth=1
	movq	-24(%rbp), %rax
	addq	$1, %rax
	movq	%rax, -24(%rbp)
	jmp	.LBB44_30
.LBB44_52:                              # %for.end136
	movq	-40(%rbp), %rdi
	movq	-32(%rbp), %rsi
	movq	-64(%rbp), %rdx
	movq	-72(%rbp), %rcx
	callq	write_buffer
	movq	-16(%rbp), %rdi
	callq	free
	movq	-32(%rbp), %rdi
	callq	free
	movq	-64(%rbp), %rdi
	callq	free
	movq	-72(%rbp), %rdi
	callq	free
	cmpl	$101327825, -100(%rbp)  # imm = 0x60A23D1
	jne	.LBB44_54
.LBB44_53:
	addq	$128, %rsp
	popq	%rbp
	.cfi_def_cfa %rsp, 8
	retq
.LBB44_54:                              # %func_exit
	.cfi_def_cfa %rbp, 16
	callq	detect_breach
	jmp	.LBB44_53
.Lfunc_end44:
	.size	calc_buffer.40, .Lfunc_end44-calc_buffer.40
	.cfi_endproc
                                        # -- End function
	.section	.rodata.cst4,"aM",@progbits,4
	.p2align	2               # -- Begin function calc_buffer.41
.LCPI45_0:
	.long	1593835520              # float 9.22337203E+18
	.text
	.globl	calc_buffer.41
	.p2align	4, 0x90
	.type	calc_buffer.41,@function
calc_buffer.41:                         # @calc_buffer.41
	.cfi_startproc
# %bb.0:                                # %entry
	pushq	%rbp
	.cfi_def_cfa_offset 16
	.cfi_offset %rbp, -16
	movq	%rsp, %rbp
	.cfi_def_cfa_register %rbp
	subq	$128, %rsp
	movl	$307767654, -100(%rbp)  # imm = 0x12582966
	movq	$0, -112(%rbp)
	movq	stdout, %rdi
	movabsq	$.L.str.8, %rsi
	movb	$0, %al
	callq	fprintf
	movq	total_frame_buffer, %rsi
	movq	input, %rax
	movl	8(%rax), %edx
	movabsq	$.L.str.9, %rdi
	movb	$0, %al
	callq	printf
	movq	input, %rax
	movslq	2476(%rax), %rax
	movq	%rax, -40(%rbp)
	movq	total_frame_buffer, %rdi
	addq	$1, %rdi
	movl	$8, %esi
	callq	calloc
	movq	%rax, -16(%rbp)
	cmpq	$0, -16(%rbp)
	jne	.LBB45_2
# %bb.1:                                # %if.then
	movabsq	$.L.str.10, %rdi
	callq	no_mem_exit
.LBB45_2:                               # %if.end
	movq	-40(%rbp), %rdi
	movl	$8, %esi
	callq	calloc
	movq	%rax, -32(%rbp)
	cmpq	$0, -32(%rbp)
	jne	.LBB45_4
# %bb.3:                                # %if.then6
	movabsq	$.L.str.11, %rdi
	callq	no_mem_exit
.LBB45_4:                               # %if.end7
	movq	-40(%rbp), %rdi
	movl	$8, %esi
	callq	calloc
	movq	%rax, -64(%rbp)
	cmpq	$0, -64(%rbp)
	jne	.LBB45_6
# %bb.5:                                # %if.then10
	movabsq	$.L.str.12, %rdi
	callq	no_mem_exit
.LBB45_6:                               # %if.end11
	movq	-40(%rbp), %rdi
	movl	$8, %esi
	callq	calloc
	movq	%rax, -72(%rbp)
	cmpq	$0, -72(%rbp)
	jne	.LBB45_8
# %bb.7:                                # %if.then14
	movabsq	$.L.str.13, %rdi
	callq	no_mem_exit
.LBB45_8:                               # %if.end15
	movq	$0, -96(%rbp)
	movq	$0, -8(%rbp)
.LBB45_9:                               # %for.cond
                                        # =>This Inner Loop Header: Depth=1
	movq	-8(%rbp), %rax
	cmpq	total_frame_buffer, %rax
	jae	.LBB45_12
# %bb.10:                               # %for.body
                                        #   in Loop: Header=BB45_9 Depth=1
	movq	-8(%rbp), %rax
	movq	Bit_Buffer(,%rax,8), %rax
	addq	-96(%rbp), %rax
	movq	%rax, -96(%rbp)
# %bb.11:                               # %for.inc
                                        #   in Loop: Header=BB45_9 Depth=1
	movq	-8(%rbp), %rax
	addq	$1, %rax
	movq	%rax, -8(%rbp)
	jmp	.LBB45_9
.LBB45_12:                              # %for.end
	movq	-96(%rbp), %rax
	vcvtsi2ss	%rax, %xmm0, %xmm1
	movq	%rax, %rcx
	shrq	%rcx
	movl	%eax, %edx
	andl	$1, %edx
	orq	%rcx, %rdx
	vcvtsi2ss	%rdx, %xmm0, %xmm0
	vaddss	%xmm0, %xmm0, %xmm0
	testq	%rax, %rax
	js	.LBB45_14
# %bb.13:                               # %for.end
	vmovaps	%xmm1, %xmm0
.LBB45_14:                              # %for.end
	movq	total_frame_buffer(%rip), %rax
	vcvtsi2ss	%rax, %xmm0, %xmm1
	movq	%rax, %rcx
	shrq	%rcx
	movl	%eax, %edx
	andl	$1, %edx
	orq	%rcx, %rdx
	vcvtsi2ss	%rdx, %xmm0, %xmm2
	vaddss	%xmm2, %xmm2, %xmm2
	testq	%rax, %rax
	js	.LBB45_16
# %bb.15:                               # %for.end
	vmovaps	%xmm1, %xmm2
.LBB45_16:                              # %for.end
	vdivss	%xmm2, %xmm0, %xmm0
	vmovss	.LCPI45_0(%rip), %xmm1  # xmm1 = mem[0],zero,zero,zero
	vsubss	%xmm1, %xmm0, %xmm2
	vcvttss2si	%xmm2, %rax
	movabsq	$-9223372036854775808, %rcx # imm = 0x8000000000000000
	xorq	%rcx, %rax
	vcvttss2si	%xmm0, %rcx
	vucomiss	%xmm1, %xmm0
	cmovbq	%rcx, %rax
	movq	%rax, -80(%rbp)
	movq	-40(%rbp), %rdi
	movq	-32(%rbp), %rsi
	callq	get_LeakyBucketRate
	movl	$1, %ecx
	cmpl	%eax, %ecx
	je	.LBB45_29
# %bb.17:                               # %if.then24
	movq	$0, -24(%rbp)
.LBB45_18:                              # %for.cond25
                                        # =>This Inner Loop Header: Depth=1
	movq	-24(%rbp), %rax
	cmpq	-40(%rbp), %rax
	jae	.LBB45_28
# %bb.19:                               # %for.body28
                                        #   in Loop: Header=BB45_18 Depth=1
	cmpq	$0, -24(%rbp)
	jne	.LBB45_23
# %bb.20:                               # %if.then31
                                        #   in Loop: Header=BB45_18 Depth=1
	movq	-80(%rbp), %rax
	vcvtsi2ss	%rax, %xmm0, %xmm0
	movq	%rax, %rcx
	shrq	%rcx
	movl	%eax, %edx
	andl	$1, %edx
	orq	%rcx, %rdx
	vcvtsi2ss	%rdx, %xmm0, %xmm1
	vaddss	%xmm1, %xmm1, %xmm1
	testq	%rax, %rax
	js	.LBB45_22
# %bb.21:                               # %if.then31
                                        #   in Loop: Header=BB45_18 Depth=1
	vmovaps	%xmm0, %xmm1
.LBB45_22:                              # %if.then31
                                        #   in Loop: Header=BB45_18 Depth=1
	movq	img(%rip), %rax
	vmovss	48(%rax), %xmm0         # xmm0 = mem[0],zero,zero,zero
	vmulss	%xmm0, %xmm1, %xmm0
	vmovss	.LCPI45_0(%rip), %xmm1  # xmm1 = mem[0],zero,zero,zero
	vsubss	%xmm1, %xmm0, %xmm2
	vcvttss2si	%xmm2, %rax
	movabsq	$-9223372036854775808, %rcx # imm = 0x8000000000000000
	xorq	%rcx, %rax
	vcvttss2si	%xmm0, %rcx
	vucomiss	%xmm1, %xmm0
	cmovbq	%rcx, %rax
	movq	input, %rcx
	movl	20(%rcx), %ecx
	addl	$1, %ecx
	movslq	%ecx, %rcx
	xorl	%edx, %edx
	divq	%rcx
	movq	-32(%rbp), %rcx
	movq	-24(%rbp), %rdx
	movq	%rax, (%rcx,%rdx,8)
	jmp	.LBB45_26
.LBB45_23:                              # %if.else
                                        #   in Loop: Header=BB45_18 Depth=1
	movq	-32(%rbp), %rax
	movq	-24(%rbp), %rcx
	movq	-8(%rax,%rcx,8), %rax
	movq	%rax, %rcx
	shrq	%rcx
	movl	%eax, %edx
	andl	$1, %edx
	orq	%rcx, %rdx
	vcvtsi2ss	%rdx, %xmm0, %xmm0
	vaddss	%xmm0, %xmm0, %xmm0
	vcvtsi2ss	%rax, %xmm0, %xmm1
	testq	%rax, %rax
	js	.LBB45_25
# %bb.24:                               # %if.else
                                        #   in Loop: Header=BB45_18 Depth=1
	vmovaps	%xmm1, %xmm0
.LBB45_25:                              # %if.else
                                        #   in Loop: Header=BB45_18 Depth=1
	movq	-80(%rbp), %rax
	shrq	$2, %rax
	vcvtsi2ss	%rax, %xmm0, %xmm1
	movq	img(%rip), %rax
	vmovss	48(%rax), %xmm2         # xmm2 = mem[0],zero,zero,zero
	vmulss	%xmm2, %xmm1, %xmm1
	movq	input(%rip), %rax
	movl	20(%rax), %eax
	addl	$1, %eax
	vcvtsi2ss	%eax, %xmm0, %xmm2
	vdivss	%xmm2, %xmm1, %xmm1
	vaddss	%xmm1, %xmm0, %xmm0
	vmovss	.LCPI45_0(%rip), %xmm1  # xmm1 = mem[0],zero,zero,zero
	vsubss	%xmm1, %xmm0, %xmm2
	vcvttss2si	%xmm2, %rax
	movabsq	$-9223372036854775808, %rcx # imm = 0x8000000000000000
	xorq	%rcx, %rax
	vcvttss2si	%xmm0, %rcx
	vucomiss	%xmm1, %xmm0
	cmovbq	%rcx, %rax
	movq	-32(%rbp), %rcx
	movq	-24(%rbp), %rdx
	movq	%rax, (%rcx,%rdx,8)
.LBB45_26:                              # %if.end51
                                        #   in Loop: Header=BB45_18 Depth=1
	jmp	.LBB45_27
.LBB45_27:                              # %for.inc52
                                        #   in Loop: Header=BB45_18 Depth=1
	movq	-24(%rbp), %rax
	addq	$1, %rax
	movq	%rax, -24(%rbp)
	jmp	.LBB45_18
.LBB45_28:                              # %for.end54
	jmp	.LBB45_29
.LBB45_29:                              # %if.end55
	movq	-40(%rbp), %rdi
	movq	-32(%rbp), %rsi
	callq	Sort
	imulq	$20, -80(%rbp), %rax
	movq	%rax, -56(%rbp)
	movq	$0, -24(%rbp)
.LBB45_30:                              # %for.cond57
                                        # =>This Loop Header: Depth=1
                                        #     Child Loop BB45_34 Depth 2
                                        #     Child Loop BB45_42 Depth 2
	movq	-24(%rbp), %rax
	cmpq	-40(%rbp), %rax
	jae	.LBB45_52
# %bb.31:                               # %for.body60
                                        #   in Loop: Header=BB45_30 Depth=1
	movq	-32(%rbp), %rax
	movq	-24(%rbp), %rcx
	movq	(%rax,%rcx,8), %rax
	movq	input(%rip), %rcx
	movl	20(%rcx), %ecx
	addl	$1, %ecx
	movslq	%ecx, %rcx
	imulq	%rcx, %rax
	movq	%rax, %rcx
	shrq	%rcx
	movl	%eax, %edx
	andl	$1, %edx
	orq	%rcx, %rdx
	vcvtsi2ss	%rdx, %xmm0, %xmm0
	vaddss	%xmm0, %xmm0, %xmm0
	vcvtsi2ss	%rax, %xmm0, %xmm1
	testq	%rax, %rax
	js	.LBB45_33
# %bb.32:                               # %for.body60
                                        #   in Loop: Header=BB45_30 Depth=1
	vmovaps	%xmm1, %xmm0
.LBB45_33:                              # %for.body60
                                        #   in Loop: Header=BB45_30 Depth=1
	movq	img, %rax
	vdivss	48(%rax), %xmm0, %xmm0
	vcvttss2si	%xmm0, %rax
	movq	%rax, -120(%rbp)
	movq	-56(%rbp), %rax
	movq	%rax, -48(%rbp)
	movq	-48(%rbp), %rax
	movq	-16(%rbp), %rcx
	movq	%rax, (%rcx)
	movq	-56(%rbp), %rax
	movq	%rax, -88(%rbp)
	movq	$0, -8(%rbp)
.LBB45_34:                              # %for.cond71
                                        #   Parent Loop BB45_30 Depth=1
                                        # =>  This Inner Loop Header: Depth=2
	movq	-8(%rbp), %rax
	cmpq	total_frame_buffer, %rax
	jae	.LBB45_41
# %bb.35:                               # %for.body74
                                        #   in Loop: Header=BB45_34 Depth=2
	movq	-16(%rbp), %rax
	movq	-8(%rbp), %rcx
	movq	(%rax,%rcx,8), %rax
	movq	-8(%rbp), %rcx
	subq	Bit_Buffer(,%rcx,8), %rax
	movq	-16(%rbp), %rcx
	movq	-8(%rbp), %rdx
	movq	%rax, (%rcx,%rdx,8)
	movq	-16(%rbp), %rax
	movq	-8(%rbp), %rcx
	movq	(%rax,%rcx,8), %rax
	cmpq	-88(%rbp), %rax
	jge	.LBB45_37
# %bb.36:                               # %if.then82
                                        #   in Loop: Header=BB45_34 Depth=2
	movq	-16(%rbp), %rax
	movq	-8(%rbp), %rcx
	movq	(%rax,%rcx,8), %rax
	movq	%rax, -88(%rbp)
	movq	-8(%rbp), %rax
	movq	%rax, -112(%rbp)
.LBB45_37:                              # %if.end84
                                        #   in Loop: Header=BB45_34 Depth=2
	movq	-16(%rbp), %rax
	movq	-8(%rbp), %rcx
	movq	(%rax,%rcx,8), %rax
	addq	-120(%rbp), %rax
	movq	-16(%rbp), %rcx
	movq	-8(%rbp), %rdx
	movq	%rax, 8(%rcx,%rdx,8)
	movq	-16(%rbp), %rax
	movq	-8(%rbp), %rcx
	movq	8(%rax,%rcx,8), %rax
	cmpq	-56(%rbp), %rax
	jle	.LBB45_39
# %bb.38:                               # %if.then93
                                        #   in Loop: Header=BB45_34 Depth=2
	movq	-56(%rbp), %rax
	movq	-16(%rbp), %rcx
	movq	-8(%rbp), %rdx
	movq	%rax, 8(%rcx,%rdx,8)
.LBB45_39:                              # %if.end96
                                        #   in Loop: Header=BB45_34 Depth=2
	jmp	.LBB45_40
.LBB45_40:                              # %for.inc97
                                        #   in Loop: Header=BB45_34 Depth=2
	movq	-8(%rbp), %rax
	addq	$1, %rax
	movq	%rax, -8(%rbp)
	jmp	.LBB45_34
.LBB45_41:                              # %for.end99
                                        #   in Loop: Header=BB45_30 Depth=1
	movq	-56(%rbp), %rax
	subq	-88(%rbp), %rax
	movq	%rax, -128(%rbp)
	movq	Bit_Buffer, %rax
	movq	%rax, -48(%rbp)
	movq	-48(%rbp), %rax
	movq	-16(%rbp), %rcx
	movq	%rax, (%rcx)
	movq	$0, -8(%rbp)
.LBB45_42:                              # %for.cond102
                                        #   Parent Loop BB45_30 Depth=1
                                        # =>  This Inner Loop Header: Depth=2
	movq	-8(%rbp), %rax
	movq	-112(%rbp), %rcx
	addq	$1, %rcx
	cmpq	%rcx, %rax
	jae	.LBB45_49
# %bb.43:                               # %for.body106
                                        #   in Loop: Header=BB45_42 Depth=2
	movq	-16(%rbp), %rax
	movq	-8(%rbp), %rcx
	movq	(%rax,%rcx,8), %rax
	movq	-8(%rbp), %rcx
	subq	Bit_Buffer(,%rcx,8), %rax
	movq	-16(%rbp), %rcx
	movq	-8(%rbp), %rdx
	movq	%rax, (%rcx,%rdx,8)
	movq	-16(%rbp), %rax
	movq	-8(%rbp), %rcx
	cmpq	$0, (%rax,%rcx,8)
	jge	.LBB45_45
# %bb.44:                               # %if.then114
                                        #   in Loop: Header=BB45_42 Depth=2
	movq	-16(%rbp), %rax
	movq	-8(%rbp), %rcx
	movq	(%rax,%rcx,8), %rax
	movq	-48(%rbp), %rcx
	subq	%rax, %rcx
	movq	%rcx, -48(%rbp)
	movq	-16(%rbp), %rax
	movq	-8(%rbp), %rcx
	movq	$0, (%rax,%rcx,8)
.LBB45_45:                              # %if.end118
                                        #   in Loop: Header=BB45_42 Depth=2
	movq	-16(%rbp), %rax
	movq	-8(%rbp), %rcx
	movq	(%rax,%rcx,8), %rax
	addq	-120(%rbp), %rax
	movq	-16(%rbp), %rcx
	movq	-8(%rbp), %rdx
	movq	%rax, 8(%rcx,%rdx,8)
	movq	-16(%rbp), %rax
	movq	-8(%rbp), %rcx
	movq	8(%rax,%rcx,8), %rax
	cmpq	-128(%rbp), %rax
	jle	.LBB45_47
# %bb.46:                               # %if.then127
                                        #   in Loop: Header=BB45_30 Depth=1
	jmp	.LBB45_50
.LBB45_47:                              # %if.end128
                                        #   in Loop: Header=BB45_42 Depth=2
	jmp	.LBB45_48
.LBB45_48:                              # %for.inc129
                                        #   in Loop: Header=BB45_42 Depth=2
	movq	-8(%rbp), %rax
	addq	$1, %rax
	movq	%rax, -8(%rbp)
	jmp	.LBB45_42
.LBB45_49:                              # %for.end131.loopexit
                                        #   in Loop: Header=BB45_30 Depth=1
	jmp	.LBB45_50
.LBB45_50:                              # %for.end131
                                        #   in Loop: Header=BB45_30 Depth=1
	movq	-128(%rbp), %rax
	movq	-64(%rbp), %rcx
	movq	-24(%rbp), %rdx
	movq	%rax, (%rcx,%rdx,8)
	movq	-48(%rbp), %rax
	movq	-72(%rbp), %rcx
	movq	-24(%rbp), %rdx
	movq	%rax, (%rcx,%rdx,8)
# %bb.51:                               # %for.inc134
                                        #   in Loop: Header=BB45_30 Depth=1
	movq	-24(%rbp), %rax
	addq	$1, %rax
	movq	%rax, -24(%rbp)
	jmp	.LBB45_30
.LBB45_52:                              # %for.end136
	movq	-40(%rbp), %rdi
	movq	-32(%rbp), %rsi
	movq	-64(%rbp), %rdx
	movq	-72(%rbp), %rcx
	callq	write_buffer
	movq	-16(%rbp), %rdi
	callq	free
	movq	-32(%rbp), %rdi
	callq	free
	movq	-64(%rbp), %rdi
	callq	free
	movq	-72(%rbp), %rdi
	callq	free
	cmpl	$307767654, -100(%rbp)  # imm = 0x12582966
	jne	.LBB45_54
.LBB45_53:
	addq	$128, %rsp
	popq	%rbp
	.cfi_def_cfa %rsp, 8
	retq
.LBB45_54:                              # %func_exit
	.cfi_def_cfa %rbp, 16
	callq	detect_breach
	jmp	.LBB45_53
.Lfunc_end45:
	.size	calc_buffer.41, .Lfunc_end45-calc_buffer.41
	.cfi_endproc
                                        # -- End function
	.globl	write_buffer.42         # -- Begin function write_buffer.42
	.p2align	4, 0x90
	.type	write_buffer.42,@function
write_buffer.42:                        # @write_buffer.42
	.cfi_startproc
# %bb.0:                                # %entry
	pushq	%rbp
	.cfi_def_cfa_offset 16
	.cfi_offset %rbp, -16
	movq	%rsp, %rbp
	.cfi_def_cfa_register %rbp
	subq	$64, %rsp
	movl	$1785572177, -28(%rbp)  # imm = 0x6A6DAB51
	movq	%rdi, -24(%rbp)
	movq	%rsi, -48(%rbp)
	movq	%rdx, -40(%rbp)
	movq	%rcx, -56(%rbp)
	movq	input, %rdi
	addq	$2680, %rdi             # imm = 0xA78
	movabsq	$.L.str.4, %rsi
	callq	fopen
	movq	%rax, -16(%rbp)
	cmpq	$0, %rax
	jne	.LBB46_2
# %bb.1:                                # %if.then
	movq	input, %rcx
	addq	$2680, %rcx             # imm = 0xA78
	movabsq	$errortext, %rdi
	movl	$300, %esi              # imm = 0x12C
	movabsq	$.L.str.5, %rdx
	movb	$0, %al
	callq	snprintf
	movabsq	$errortext, %rdi
	movl	$1, %esi
	callq	error
.LBB46_2:                               # %if.end
	movq	-24(%rbp), %rdi
	movq	-16(%rbp), %rsi
	callq	PutBigDoubleWord
	movq	-24(%rbp), %rsi
	movabsq	$.L.str.6, %rdi
	movb	$0, %al
	callq	printf
	movq	$0, -8(%rbp)
.LBB46_3:                               # %for.cond
                                        # =>This Inner Loop Header: Depth=1
	movq	-8(%rbp), %rax
	cmpq	-24(%rbp), %rax
	jae	.LBB46_6
# %bb.4:                                # %for.body
                                        #   in Loop: Header=BB46_3 Depth=1
	movq	-48(%rbp), %rax
	movq	-8(%rbp), %rcx
	movq	(%rax,%rcx,8), %rdi
	movq	-16(%rbp), %rsi
	callq	PutBigDoubleWord
	movq	-40(%rbp), %rax
	movq	-8(%rbp), %rcx
	movq	(%rax,%rcx,8), %rdi
	movq	-16(%rbp), %rsi
	callq	PutBigDoubleWord
	movq	-56(%rbp), %rax
	movq	-8(%rbp), %rcx
	movq	(%rax,%rcx,8), %rdi
	movq	-16(%rbp), %rsi
	callq	PutBigDoubleWord
	movq	-48(%rbp), %rax
	movq	-8(%rbp), %rcx
	movq	(%rax,%rcx,8), %rsi
	movq	-40(%rbp), %rax
	movq	-8(%rbp), %rcx
	movq	(%rax,%rcx,8), %rdx
	movq	-56(%rbp), %rax
	movq	-8(%rbp), %rcx
	movq	(%rax,%rcx,8), %rcx
	movabsq	$.L.str.7, %rdi
	movb	$0, %al
	callq	printf
# %bb.5:                                # %for.inc
                                        #   in Loop: Header=BB46_3 Depth=1
	movq	-8(%rbp), %rax
	addq	$1, %rax
	movq	%rax, -8(%rbp)
	jmp	.LBB46_3
.LBB46_6:                               # %for.end
	movq	-16(%rbp), %rdi
	callq	fclose
	cmpl	$1785572177, -28(%rbp)  # imm = 0x6A6DAB51
	jne	.LBB46_8
.LBB46_7:
	addq	$64, %rsp
	popq	%rbp
	.cfi_def_cfa %rsp, 8
	retq
.LBB46_8:                               # %func_exit
	.cfi_def_cfa %rbp, 16
	callq	detect_breach
	jmp	.LBB46_7
.Lfunc_end46:
	.size	write_buffer.42, .Lfunc_end46-write_buffer.42
	.cfi_endproc
                                        # -- End function
	.globl	Sort.43                 # -- Begin function Sort.43
	.p2align	4, 0x90
	.type	Sort.43,@function
Sort.43:                                # @Sort.43
	.cfi_startproc
# %bb.0:                                # %entry
	pushq	%rbp
