	.text
	.file	"lencod.c"
	.section	.rodata.cst8,"aM",@progbits,8
	.p2align	3               # -- Begin function main
.LCPI0_0:
	.quad	4602678801158248403     # double 0.49999900000000003
.LCPI0_1:
	.quad	4607182418800017408     # double 1
	.text
	.globl	main
	.p2align	4, 0x90
	.type	main,@function
main:                                   # @main
	.cfi_startproc
# %bb.0:                                # %entry
	pushq	%rbp
	.cfi_def_cfa_offset 16
	.cfi_offset %rbp, -16
	movq	%rsp, %rbp
	.cfi_def_cfa_register %rbp
	subq	$48, %rsp
	movl	$0, -44(%rbp)
	movl	%edi, -28(%rbp)
	movq	%rsi, -40(%rbp)
	movl	$-1, p_in
	movl	$-1, p_dec
	movq	$0, p_trace
	movq	$0, p_log
	movq	$0, p_stat
	movl	$1, frame_statistic_start
	movl	-28(%rbp), %edi
	movq	-40(%rbp), %rsi
	callq	Configure
	callq	Init_QMatrix
	movb	$0, %al
	callq	Init_QOffsetMatrix
	movb	$0, %al
	callq	AllocNalPayloadBuffer
	callq	init_poc
	movb	$0, %al
	callq	GenerateParameterSets
	callq	init_img
	callq	malloc_picture
	movq	%rax, frame_pic
	movq	input, %rax
	cmpl	$0, 1296(%rax)
	je	.LBB0_2
# %bb.1:                                # %if.then
	callq	malloc_picture
	movq	%rax, frame_pic2
	callq	malloc_picture
	movq	%rax, frame_pic3
.LBB0_2:                                # %if.end
	movq	input, %rax
	cmpl	$0, 2880(%rax)
	je	.LBB0_4
# %bb.3:                                # %if.then3
	callq	malloc_picture
	movq	%rax, top_pic
	callq	malloc_picture
	movq	%rax, bottom_pic
.LBB0_4:                                # %if.end6
	movb	$0, %al
	callq	init_rdopt
	movq	input, %rax
	cmpl	$0, 1320(%rax)
	je	.LBB0_9
# %bb.5:                                # %if.then8
	movb	$0, %al
	callq	init_gop_structure
	movq	input, %rax
	cmpl	$3, 1320(%rax)
	jne	.LBB0_7
# %bb.6:                                # %if.then11
	movb	$0, %al
	callq	interpret_gop_structure
	jmp	.LBB0_8
.LBB0_7:                                # %if.else
	movb	$0, %al
	callq	create_pyramid
.LBB0_8:                                # %if.end12
	jmp	.LBB0_9
.LBB0_9:                                # %if.end13
	movq	input, %rdi
	movb	$0, %al
	callq	init_dpb
	movb	$0, %al
	callq	init_out_buffer
	movq	$0, enc_bottom_picture
	movq	$0, enc_top_picture
	movq	$0, enc_frame_picture
	movq	$0, enc_picture
	callq	init_global_buffers
	movb	$0, %al
	callq	create_context_memory
	movb	$0, %al
	callq	Init_Motion_Search_Module
	callq	information_init
	movq	input, %rax
	cmpl	$0, 3236(%rax)
	je	.LBB0_11
# %bb.10:                               # %if.then16
	movb	$0, %al
	callq	rc_init_seq
.LBB0_11:                               # %if.end17
	movq	input, %rax
	cmpl	$0, 3292(%rax)
	je	.LBB0_13
# %bb.12:                               # %if.then19
	movb	$0, %al
	callq	DefineThreshold
.LBB0_13:                               # %if.end20
	movl	$0, Iframe_ctr
	movl	$0, Pframe_ctr
	movl	$0, Bframe_ctr
	movl	$0, tot_time
	movq	input, %rax
	cmpl	$0, 2440(%rax)
	jle	.LBB0_15
# %bb.14:                               # %if.then22
	movq	input, %rax
	movl	2440(%rax), %eax
	movq	input, %rcx
	addl	20(%rcx), %eax
	movq	input, %rcx
	movl	20(%rcx), %ecx
	addl	$1, %ecx
	cltd
	idivl	%ecx
	addl	$1, %eax
	movq	input, %rcx
	movl	%eax, 8(%rcx)
.LBB0_15:                               # %if.end27
	movq	input, %rax
	movl	1236(%rax), %eax
	movl	%eax, initial_Bframes
	movb	$0, %al
	callq	PatchInputNoFrames
	movq	stats, %rax
	movl	$0, 1488(%rax)
	movb	$0, %al
	callq	start_sequence
	movq	stats, %rcx
	movl	%eax, 24(%rcx)
	movq	stats, %rax
	movl	1492(%rax), %eax
	movq	stats, %rcx
	addl	1488(%rcx), %eax
	movl	%eax, 1488(%rcx)
	movl	$0, start_frame_no_in_this_IGOP
	movq	img, %rax
	movl	$0, (%rax)
.LBB0_16:                               # %for.cond
                                        # =>This Inner Loop Header: Depth=1
	movq	img, %rax
	movl	(%rax), %eax
	movq	input, %rcx
	cmpl	8(%rcx), %eax
	jge	.LBB0_79
# %bb.17:                               # %for.body
                                        #   in Loop: Header=BB0_16 Depth=1
	movq	img, %rax
	movl	$1, 72496(%rax)
	movq	input, %rax
	cmpl	$0, 1224(%rax)
	je	.LBB0_20
# %bb.18:                               # %land.lhs.true
                                        #   in Loop: Header=BB0_16 Depth=1
	movq	input, %rax
	cmpl	$0, 1228(%rax)
	je	.LBB0_20
# %bb.19:                               # %cond.true
                                        #   in Loop: Header=BB0_16 Depth=1
	movq	img, %rax
	movl	(%rax), %eax
	subl	start_frame_no_in_this_IGOP, %eax
	movq	input, %rcx
	cltd
	idivl	1224(%rcx)
	jmp	.LBB0_21
.LBB0_20:                               # %cond.false
                                        #   in Loop: Header=BB0_16 Depth=1
	movq	img, %rax
	movl	(%rax), %edx
	subl	start_frame_no_in_this_IGOP, %edx
.LBB0_21:                               # %cond.end
                                        #   in Loop: Header=BB0_16 Depth=1
	movq	input, %rax
	movl	20(%rax), %eax
	addl	$1, %eax
	shll	$1, %eax
	imull	%eax, %edx
	movq	img, %rax
	movl	%edx, 72448(%rax)
	movq	input, %rax
	cmpl	$0, 2880(%rax)
	jne	.LBB0_24
# %bb.22:                               # %land.lhs.true45
                                        #   in Loop: Header=BB0_16 Depth=1
	movq	input, %rax
	cmpl	$0, 2884(%rax)
	jne	.LBB0_24
# %bb.23:                               # %if.then47
                                        #   in Loop: Header=BB0_16 Depth=1
	movq	img, %rax
	movl	72448(%rax), %eax
	movq	img, %rcx
	movl	%eax, 72452(%rcx)
	jmp	.LBB0_25
.LBB0_24:                               # %if.else49
                                        #   in Loop: Header=BB0_16 Depth=1
	movq	img, %rax
	movl	72448(%rax), %eax
	addl	$1, %eax
	movq	img, %rcx
	movl	%eax, 72452(%rcx)
.LBB0_25:                               # %if.end53
                                        #   in Loop: Header=BB0_16 Depth=1
	movq	img, %rax
	movl	72448(%rax), %eax
	movq	img, %rcx
	cmpl	72452(%rcx), %eax
	jge	.LBB0_27
# %bb.26:                               # %cond.true57
                                        #   in Loop: Header=BB0_16 Depth=1
	movq	img, %rax
	movl	72448(%rax), %eax
	jmp	.LBB0_28
.LBB0_27:                               # %cond.false59
                                        #   in Loop: Header=BB0_16 Depth=1
	movq	img, %rax
	movl	72452(%rax), %eax
.LBB0_28:                               # %cond.end61
                                        #   in Loop: Header=BB0_16 Depth=1
	movq	img, %rcx
	movl	%eax, 72456(%rcx)
	movq	input, %rax
	cmpl	$0, 1316(%rax)
	jne	.LBB0_30
# %bb.29:                               # %land.lhs.true64
                                        #   in Loop: Header=BB0_16 Depth=1
	movq	input, %rax
	cmpl	$0, 1320(%rax)
	je	.LBB0_32
.LBB0_30:                               # %lor.lhs.false
                                        #   in Loop: Header=BB0_16 Depth=1
	movq	input, %rax
	cmpl	$0, 1236(%rax)
	je	.LBB0_32
# %bb.31:                               # %lor.lhs.false69
                                        #   in Loop: Header=BB0_16 Depth=1
	movq	img, %rax
	cmpl	$2, (%rax)
	jge	.LBB0_37
.LBB0_32:                               # %if.then72
                                        #   in Loop: Header=BB0_16 Depth=1
	movq	input, %rax
	cmpl	$0, 1224(%rax)
	je	.LBB0_35
# %bb.33:                               # %land.lhs.true75
                                        #   in Loop: Header=BB0_16 Depth=1
	movq	input, %rax
	cmpl	$0, 1228(%rax)
	je	.LBB0_35
# %bb.34:                               # %cond.true78
                                        #   in Loop: Header=BB0_16 Depth=1
	movq	img, %rax
	movl	(%rax), %eax
	subl	start_frame_no_in_this_IGOP, %eax
	movq	input, %rcx
	cltd
	idivl	1224(%rcx)
	movl	%edx, %eax
	jmp	.LBB0_36
.LBB0_35:                               # %cond.false83
                                        #   in Loop: Header=BB0_16 Depth=1
	movq	img, %rax
	movl	(%rax), %eax
	subl	start_frame_no_in_this_IGOP, %eax
.LBB0_36:                               # %cond.end86
                                        #   in Loop: Header=BB0_16 Depth=1
	movl	log2_max_frame_num_minus4, %ecx
	addl	$4, %ecx
                                        # kill: def $cl killed $ecx
	movl	$1, %esi
	shll	%cl, %esi
	cltd
	idivl	%esi
	movq	img, %rax
	movl	%edx, 72464(%rax)
	jmp	.LBB0_43
.LBB0_37:                               # %if.else90
                                        #   in Loop: Header=BB0_16 Depth=1
	movq	img, %rax
	movl	72464(%rax), %ecx
	addl	$1, %ecx
	movl	%ecx, 72464(%rax)
	movq	input, %rax
	cmpl	$0, 1224(%rax)
	je	.LBB0_42
# %bb.38:                               # %land.lhs.true94
                                        #   in Loop: Header=BB0_16 Depth=1
	movq	input, %rax
	cmpl	$0, 1228(%rax)
	je	.LBB0_42
# %bb.39:                               # %if.then97
                                        #   in Loop: Header=BB0_16 Depth=1
	xorl	%ecx, %ecx
	movq	img, %rax
	movl	(%rax), %eax
	movq	input, %rsi
	cltd
	idivl	1224(%rsi)
	cmpl	%edx, %ecx
	jne	.LBB0_41
# %bb.40:                               # %if.then102
                                        #   in Loop: Header=BB0_16 Depth=1
	movq	img, %rax
	movl	$0, 72464(%rax)
.LBB0_41:                               # %if.end104
                                        #   in Loop: Header=BB0_16 Depth=1
	jmp	.LBB0_42
.LBB0_42:                               # %if.end105
                                        #   in Loop: Header=BB0_16 Depth=1
	movl	log2_max_frame_num_minus4, %ecx
	addl	$4, %ecx
                                        # kill: def $cl killed $ecx
	movl	$1, %esi
	shll	%cl, %esi
	movq	img, %rcx
	movl	72464(%rcx), %eax
	xorl	%edx, %edx
	divl	%esi
	movl	%edx, 72464(%rcx)
.LBB0_43:                               # %if.end110
                                        #   in Loop: Header=BB0_16 Depth=1
	movq	img, %rax
	movl	$0, 72436(%rax)
	movq	input, %rax
	cmpl	$0, 1316(%rax)
	je	.LBB0_47
# %bb.44:                               # %if.then113
                                        #   in Loop: Header=BB0_16 Depth=1
	movq	img, %rax
	cmpl	$0, (%rax)
	je	.LBB0_46
# %bb.45:                               # %if.then116
                                        #   in Loop: Header=BB0_16 Depth=1
	movq	input, %rax
	movl	1236(%rax), %eax
	shll	$1, %eax
	movq	img, %rcx
	movl	%eax, 72436(%rcx)
.LBB0_46:                               # %if.end121
                                        #   in Loop: Header=BB0_16 Depth=1
	jmp	.LBB0_47
.LBB0_47:                               # %if.end122
                                        #   in Loop: Header=BB0_16 Depth=1
	callq	SetImgType
	movq	input, %rax
	cmpl	$0, 1236(%rax)
	je	.LBB0_51
# %bb.48:                               # %land.lhs.true125
                                        #   in Loop: Header=BB0_16 Depth=1
	movq	input, %rax
	cmpl	$0, 2440(%rax)
	je	.LBB0_51
# %bb.49:                               # %land.lhs.true128
                                        #   in Loop: Header=BB0_16 Depth=1
	movq	img, %rax
	movl	(%rax), %eax
	subl	start_frame_no_in_this_IGOP, %eax
	addl	$1, %eax
	movq	input, %rcx
	cmpl	8(%rcx), %eax
	jne	.LBB0_51
# %bb.50:                               # %if.then134
                                        #   in Loop: Header=BB0_16 Depth=1
	vmovsd	.LCPI0_0(%rip), %xmm0   # xmm0 = mem[0],zero
	vmovsd	.LCPI0_1(%rip), %xmm1   # xmm1 = mem[0],zero
	movq	input, %rax
	movl	20(%rax), %eax
	addl	$1, %eax
	vcvtsi2ss	%eax, %xmm0, %xmm2
	vcvtss2sd	%xmm2, %xmm0, %xmm2
	movq	input, %rax
	vcvtsi2sdl	1236(%rax), %xmm0, %xmm3
	vaddsd	%xmm1, %xmm3, %xmm1
	vdivsd	%xmm1, %xmm2, %xmm1
	vaddsd	%xmm0, %xmm1, %xmm0
	vcvttsd2si	%xmm0, %eax
	movl	%eax, -24(%rbp)
	movq	input, %rax
	movl	2440(%rax), %eax
	movq	img, %rcx
	movl	(%rcx), %ecx
	subl	$1, %ecx
	movq	input, %rdx
	movl	20(%rdx), %edx
	addl	$1, %edx
	imull	%edx, %ecx
	subl	%ecx, %eax
	cltd
	idivl	-24(%rbp)
	subl	$1, %eax
	movq	input, %rcx
	movl	%eax, 1236(%rcx)
	movl	initial_Bframes, %eax
	movq	input, %rcx
	subl	1236(%rcx), %eax
	imull	$4294967294, %eax, %eax # imm = 0xFFFFFFFE
	movq	img, %rcx
	movl	%eax, 72436(%rcx)
	movq	img, %rax
	movl	72436(%rax), %eax
	movq	img, %rcx
	addl	72448(%rcx), %eax
	movl	%eax, 72448(%rcx)
	movq	img, %rax
	movl	72436(%rax), %eax
	movq	img, %rcx
	addl	72452(%rcx), %eax
	movl	%eax, 72452(%rcx)
.LBB0_51:                               # %if.end167
                                        #   in Loop: Header=BB0_16 Depth=1
	movq	img, %rax
	cmpl	$2, 24(%rax)
	jne	.LBB0_69
# %bb.52:                               # %if.then170
                                        #   in Loop: Header=BB0_16 Depth=1
	movq	input, %rax
	cmpl	$0, 3236(%rax)
	je	.LBB0_68
# %bb.53:                               # %if.then173
                                        #   in Loop: Header=BB0_16 Depth=1
	movq	input, %rax
	cmpl	$0, 1224(%rax)
	jne	.LBB0_55
# %bb.54:                               # %if.then177
                                        #   in Loop: Header=BB0_16 Depth=1
	movq	input, %rax
	movl	8(%rax), %eax
	movq	input, %rcx
	movl	8(%rcx), %ecx
	subl	$1, %ecx
	movq	input, %rdx
	imull	1236(%rdx), %ecx
	addl	%ecx, %eax
	movl	%eax, -4(%rbp)
	movq	input, %rax
	movl	8(%rax), %eax
	subl	$1, %eax
	movl	%eax, -12(%rbp)
	movq	input, %rax
	movl	8(%rax), %eax
	subl	$1, %eax
	movq	input, %rcx
	imull	1236(%rcx), %eax
	movl	%eax, -16(%rbp)
	jmp	.LBB0_67
.LBB0_55:                               # %if.else190
                                        #   in Loop: Header=BB0_16 Depth=1
	movq	input, %rax
	movl	1224(%rax), %eax
	movq	input, %rcx
	movl	1236(%rcx), %ecx
	addl	$1, %ecx
	imull	%ecx, %eax
	movl	%eax, -20(%rbp)
	movq	input, %rax
	movl	1236(%rax), %eax
	addl	$1, %eax
	movl	%eax, -8(%rbp)
	movq	img, %rax
	cmpl	$0, (%rax)
	jne	.LBB0_57
# %bb.56:                               # %cond.true200
                                        #   in Loop: Header=BB0_16 Depth=1
	movl	-20(%rbp), %eax
	movl	-8(%rbp), %ecx
	subl	$1, %ecx
	subl	%ecx, %eax
	jmp	.LBB0_58
.LBB0_57:                               # %cond.false203
                                        #   in Loop: Header=BB0_16 Depth=1
	movl	-20(%rbp), %eax
.LBB0_58:                               # %cond.end204
                                        #   in Loop: Header=BB0_16 Depth=1
	movl	%eax, -4(%rbp)
	movq	img, %rax
	movl	(%rax), %eax
	movq	input, %rcx
	cltd
	idivl	1224(%rcx)
	movl	%eax, %ecx
	movq	input, %rax
	movl	8(%rax), %eax
	movq	input, %rsi
	cltd
	idivl	1224(%rsi)
	cmpl	%eax, %ecx
	jl	.LBB0_63
# %bb.59:                               # %if.then214
                                        #   in Loop: Header=BB0_16 Depth=1
	movq	img, %rax
	cmpl	$0, (%rax)
	je	.LBB0_61
# %bb.60:                               # %if.then218
                                        #   in Loop: Header=BB0_16 Depth=1
	movq	input, %rax
	movl	8(%rax), %eax
	movq	img, %rcx
	subl	(%rcx), %eax
	movq	input, %rcx
	movl	8(%rcx), %ecx
	movq	img, %rdx
	subl	(%rdx), %ecx
	subl	$1, %ecx
	movq	input, %rdx
	imull	1236(%rdx), %ecx
	addl	%ecx, %eax
	movq	input, %rcx
	addl	1236(%rcx), %eax
	movl	%eax, -4(%rbp)
	jmp	.LBB0_62
.LBB0_61:                               # %if.else231
                                        #   in Loop: Header=BB0_16 Depth=1
	movq	input, %rax
	movl	8(%rax), %eax
	movq	input, %rcx
	movl	8(%rcx), %ecx
	subl	$1, %ecx
	movq	input, %rdx
	imull	1236(%rdx), %ecx
	addl	%ecx, %eax
	movl	%eax, -4(%rbp)
.LBB0_62:                               # %if.end238
                                        #   in Loop: Header=BB0_16 Depth=1
	jmp	.LBB0_63
.LBB0_63:                               # %if.end239
                                        #   in Loop: Header=BB0_16 Depth=1
	movq	img, %rax
	cmpl	$0, (%rax)
	jne	.LBB0_65
# %bb.64:                               # %if.then243
                                        #   in Loop: Header=BB0_16 Depth=1
	movl	-4(%rbp), %eax
	movl	-8(%rbp), %ecx
	subl	$1, %ecx
	shll	$1, %ecx
	addl	%ecx, %eax
	cltd
	idivl	-8(%rbp)
	subl	$1, %eax
	movl	%eax, -12(%rbp)
	jmp	.LBB0_66
.LBB0_65:                               # %if.else249
                                        #   in Loop: Header=BB0_16 Depth=1
	movl	-4(%rbp), %eax
	movl	-8(%rbp), %ecx
	subl	$1, %ecx
	addl	%ecx, %eax
	cltd
	idivl	-8(%rbp)
	subl	$1, %eax
	movl	%eax, -12(%rbp)
.LBB0_66:                               # %if.end254
                                        #   in Loop: Header=BB0_16 Depth=1
	movl	-4(%rbp), %eax
	subl	-12(%rbp), %eax
	subl	$1, %eax
	movl	%eax, -16(%rbp)
.LBB0_67:                               # %if.end257
                                        #   in Loop: Header=BB0_16 Depth=1
	movl	-12(%rbp), %edi
	movl	-16(%rbp), %esi
	callq	rc_init_GOP
.LBB0_68:                               # %if.end258
                                        #   in Loop: Header=BB0_16 Depth=1
	jmp	.LBB0_69
.LBB0_69:                               # %if.end259
                                        #   in Loop: Header=BB0_16 Depth=1
	movq	img, %rax
	movl	(%rax), %eax
	subl	start_frame_no_in_this_IGOP, %eax
	movq	input, %rcx
	movl	2912(%rcx), %ecx
	addl	$1, %ecx
	cltd
	idivl	%ecx
	cmpl	$0, %edx
	jne	.LBB0_71
# %bb.70:                               # %if.then266
                                        #   in Loop: Header=BB0_16 Depth=1
	movq	img, %rax
	movl	$0, 72384(%rax)
	jmp	.LBB0_72
.LBB0_71:                               # %if.else267
                                        #   in Loop: Header=BB0_16 Depth=1
	movq	img, %rax
	movl	$1, 72384(%rax)
.LBB0_72:                               # %if.end269
                                        #   in Loop: Header=BB0_16 Depth=1
	movb	$0, %al
	callq	encode_one_frame
	movq	input, %rax
	cmpl	$0, 3228(%rax)
	je	.LBB0_74
# %bb.73:                               # %if.then272
                                        #   in Loop: Header=BB0_16 Depth=1
	callq	report_frame_statistic
.LBB0_74:                               # %if.end273
                                        #   in Loop: Header=BB0_16 Depth=1
	movq	img, %rax
	movl	8(%rax), %ecx
	addl	$1, %ecx
	movl	%ecx, 8(%rax)
	movq	img, %rax
	movl	8(%rax), %eax
	movq	img, %rcx
	cmpl	72376(%rcx), %eax
	jge	.LBB0_76
# %bb.75:                               # %cond.true278
                                        #   in Loop: Header=BB0_16 Depth=1
	movq	img, %rax
	movl	8(%rax), %eax
	jmp	.LBB0_77
.LBB0_76:                               # %cond.false280
                                        #   in Loop: Header=BB0_16 Depth=1
	movq	img, %rax
	movl	72376(%rax), %eax
.LBB0_77:                               # %cond.end282
                                        #   in Loop: Header=BB0_16 Depth=1
	movq	img, %rcx
	movl	%eax, 8(%rcx)
	movb	$0, %al
	callq	encode_enhancement_layer
	callq	process_2nd_IGOP
# %bb.78:                               # %for.inc
                                        #   in Loop: Header=BB0_16 Depth=1
	movq	img, %rax
	movl	(%rax), %ecx
	addl	$1, %ecx
	movl	%ecx, (%rax)
	jmp	.LBB0_16
.LBB0_79:                               # %for.end
	movb	$0, %al
	callq	terminate_sequence
	movb	$0, %al
	callq	flush_dpb
	movl	p_in, %edi
	callq	close
	movl	$4294967295, %eax       # imm = 0xFFFFFFFF
	cmpl	p_dec, %eax
	je	.LBB0_81
# %bb.80:                               # %if.then291
	movl	p_dec, %edi
	callq	close
.LBB0_81:                               # %if.end293
	cmpq	$0, p_trace
	je	.LBB0_83
# %bb.82:                               # %if.then295
	movq	p_trace, %rdi
	callq	fclose
.LBB0_83:                               # %if.end297
	movb	$0, %al
	callq	Clear_Motion_Search_Module
	movb	$0, %al
	callq	RandomIntraUninit
	movb	$0, %al
	callq	FmoUninit
	movq	input, %rax
	cmpl	$0, 1320(%rax)
	je	.LBB0_85
# %bb.84:                               # %if.then300
	movb	$0, %al
	callq	clear_gop_structure
.LBB0_85:                               # %if.end301
	movb	$0, %al
	callq	clear_rdopt
	movb	$0, %al
	callq	calc_buffer
	callq	report
	movq	frame_pic, %rdi
	callq	free_picture
	movq	input, %rax
	cmpl	$0, 1296(%rax)
	je	.LBB0_87
# %bb.86:                               # %if.then304
	movq	frame_pic2, %rdi
	callq	free_picture
	movq	frame_pic3, %rdi
	callq	free_picture
.LBB0_87:                               # %if.end305
	cmpq	$0, top_pic
	je	.LBB0_89
# %bb.88:                               # %if.then307
	movq	top_pic, %rdi
	callq	free_picture
.LBB0_89:                               # %if.end308
	cmpq	$0, bottom_pic
	je	.LBB0_91
# %bb.90:                               # %if.then310
	movq	bottom_pic, %rdi
	callq	free_picture
.LBB0_91:                               # %if.end311
	movb	$0, %al
	callq	free_dpb
	movq	Co_located, %rdi
	callq	free_colocated
	movb	$0, %al
	callq	uninit_out_buffer
	callq	free_global_buffers
	callq	free_img
	movb	$0, %al
	callq	free_context_memory
	movb	$0, %al
	callq	FreeNalPayloadBuffer
	movb	$0, %al
	callq	FreeParameterSets
	xorl	%eax, %eax
	addq	$48, %rsp
	popq	%rbp
	.cfi_def_cfa %rsp, 8
	retq
.Lfunc_end0:
	.size	main, .Lfunc_end0-main
	.cfi_endproc
                                        # -- End function
	.globl	free_picture            # -- Begin function free_picture
	.p2align	4, 0x90
	.type	free_picture,@function
free_picture:                           # @free_picture
	.cfi_startproc
# %bb.0:                                # %entry
	pushq	%rbp
	.cfi_def_cfa_offset 16
	.cfi_offset %rbp, -16
	movq	%rsp, %rbp
	.cfi_def_cfa_register %rbp
	subq	$16, %rsp
	movq	%rdi, -8(%rbp)
	cmpq	$0, -8(%rbp)
	je	.LBB1_2
# %bb.1:                                # %if.then
	movq	-8(%rbp), %rdi
	callq	free_slice_list
	movq	-8(%rbp), %rdi
	callq	free
.LBB1_2:                                # %if.end
	addq	$16, %rsp
	popq	%rbp
	.cfi_def_cfa %rsp, 8
	retq
.Lfunc_end1:
	.size	free_picture, .Lfunc_end1-free_picture
	.cfi_endproc
                                        # -- End function
	.globl	report_stats_on_error   # -- Begin function report_stats_on_error
	.p2align	4, 0x90
	.type	report_stats_on_error,@function
report_stats_on_error:                  # @report_stats_on_error
	.cfi_startproc
# %bb.0:                                # %entry
	pushq	%rbp
	.cfi_def_cfa_offset 16
	.cfi_offset %rbp, -16
	movq	%rsp, %rbp
	.cfi_def_cfa_register %rbp
	movq	img, %rax
	movl	(%rax), %eax
	subl	$1, %eax
	movq	input, %rcx
	movl	%eax, 8(%rcx)
	movb	$0, %al
	callq	terminate_sequence
	movb	$0, %al
	callq	flush_dpb
	movl	p_in, %edi
	callq	close
	movl	$4294967295, %eax       # imm = 0xFFFFFFFF
	cmpl	p_dec, %eax
	je	.LBB2_2
# %bb.1:                                # %if.then
	movl	p_dec, %edi
	callq	close
.LBB2_2:                                # %if.end
	cmpq	$0, p_trace
	je	.LBB2_4
# %bb.3:                                # %if.then3
	movq	p_trace, %rdi
	callq	fclose
.LBB2_4:                                # %if.end5
	movb	$0, %al
	callq	Clear_Motion_Search_Module
	movb	$0, %al
	callq	RandomIntraUninit
	movb	$0, %al
	callq	FmoUninit
	movq	input, %rax
	cmpl	$0, 1320(%rax)
	je	.LBB2_6
# %bb.5:                                # %if.then7
	movb	$0, %al
	callq	clear_gop_structure
.LBB2_6:                                # %if.end8
	movb	$0, %al
	callq	clear_rdopt
	movb	$0, %al
	callq	calc_buffer
	movq	input, %rax
	cmpl	$0, 3228(%rax)
	je	.LBB2_8
# %bb.7:                                # %if.then10
	callq	report_frame_statistic
.LBB2_8:                                # %if.end11
	callq	report
	movq	frame_pic, %rdi
	callq	free_picture
	cmpq	$0, top_pic
	je	.LBB2_10
# %bb.9:                                # %if.then13
	movq	top_pic, %rdi
	callq	free_picture
.LBB2_10:                               # %if.end14
	cmpq	$0, bottom_pic
	je	.LBB2_12
# %bb.11:                               # %if.then16
	movq	bottom_pic, %rdi
	callq	free_picture
.LBB2_12:                               # %if.end17
	movb	$0, %al
	callq	free_dpb
	movq	Co_located, %rdi
	callq	free_colocated
	movb	$0, %al
	callq	uninit_out_buffer
	callq	free_global_buffers
	callq	free_img
	movb	$0, %al
	callq	free_context_memory
	movb	$0, %al
	callq	FreeNalPayloadBuffer
	movb	$0, %al
	callq	FreeParameterSets
	popq	%rbp
	.cfi_def_cfa %rsp, 8
	retq
.Lfunc_end2:
	.size	report_stats_on_error, .Lfunc_end2-report_stats_on_error
	.cfi_endproc
                                        # -- End function
	.globl	init_poc                # -- Begin function init_poc
	.p2align	4, 0x90
	.type	init_poc,@function
init_poc:                               # @init_poc
	.cfi_startproc
# %bb.0:                                # %entry
	pushq	%rbp
	.cfi_def_cfa_offset 16
	.cfi_offset %rbp, -16
	movq	%rsp, %rbp
	.cfi_def_cfa_register %rbp
	movq	input, %rax
	movl	3208(%rax), %eax
	movq	img, %rcx
	movl	%eax, 72404(%rcx)
	movq	img, %rax
	movl	$0, 72408(%rax)
	movq	img, %rax
	movl	$1, 72420(%rax)
	movq	input, %rax
	cmpl	$0, 1316(%rax)
	je	.LBB3_2
# %bb.1:                                # %if.then
	movq	img, %rax
	movl	$0, 72412(%rax)
	movq	img, %rax
	movl	$2, 72424(%rax)
	jmp	.LBB3_3
.LBB3_2:                                # %if.else
	movq	input, %rax
	imull	$4294967294, 1236(%rax), %eax # imm = 0xFFFFFFFE
	movq	img, %rcx
	movl	%eax, 72412(%rcx)
	movq	input, %rax
	movl	1236(%rax), %eax
	addl	$1, %eax
	shll	$1, %eax
	movq	img, %rcx
	movl	%eax, 72424(%rcx)
.LBB3_3:                                # %if.end
	movq	input, %rax
	cmpl	$0, 2880(%rax)
	jne	.LBB3_6
# %bb.4:                                # %land.lhs.true
	movq	input, %rax
	cmpl	$0, 2884(%rax)
	jne	.LBB3_6
# %bb.5:                                # %if.then8
	movq	img, %rax
	movl	$0, 72416(%rax)
	jmp	.LBB3_7
.LBB3_6:                                # %if.else9
	movq	img, %rax
	movl	$1, 72416(%rax)
.LBB3_7:                                # %if.end11
	movq	input, %rax
	cmpl	$0, 2880(%rax)
	jne	.LBB3_10
# %bb.8:                                # %land.lhs.true14
	movq	input, %rax
	cmpl	$0, 2884(%rax)
	jne	.LBB3_10
# %bb.9:                                # %if.then17
	movq	img, %rax
	movl	$0, 72492(%rax)
	movq	img, %rax
	movl	$0, 72432(%rax)
	jmp	.LBB3_11
.LBB3_10:                               # %if.else18
	movq	img, %rax
	movl	$1, 72492(%rax)
	movq	img, %rax
	movl	$1, 72432(%rax)
.LBB3_11:                               # %if.end21
	popq	%rbp
	.cfi_def_cfa %rsp, 8
	retq
.Lfunc_end3:
	.size	init_poc, .Lfunc_end3-init_poc
	.cfi_endproc
                                        # -- End function
	.globl	CAVLC_init              # -- Begin function CAVLC_init
	.p2align	4, 0x90
	.type	CAVLC_init,@function
CAVLC_init:                             # @CAVLC_init
	.cfi_startproc
# %bb.0:                                # %rand_bb
	pushq	%rbp
	.cfi_def_cfa_offset 16
	.cfi_offset %rbp, -16
	movq	%rsp, %rbp
	.cfi_def_cfa_register %rbp
	callq	get_urand
	cmpl	$0, %eax
	jne	.LBB4_7
# %bb.1:                                # %func_CAVLC_init.39
	callq	CAVLC_init.39
	popq	%rbp
	.cfi_def_cfa %rsp, 8
	retq
.LBB4_2:                                # %func_CAVLC_init.56
	.cfi_def_cfa %rbp, 16
	callq	CAVLC_init.56
	popq	%rbp
	.cfi_def_cfa %rsp, 8
	retq
.LBB4_3:                                # %func_CAVLC_init.60
	.cfi_def_cfa %rbp, 16
	callq	CAVLC_init.60
	popq	%rbp
	.cfi_def_cfa %rsp, 8
	retq
.LBB4_4:                                # %func_CAVLC_init.61
	.cfi_def_cfa %rbp, 16
	callq	CAVLC_init.61
	popq	%rbp
	.cfi_def_cfa %rsp, 8
	retq
.LBB4_5:                                # %func_CAVLC_init.70
	.cfi_def_cfa %rbp, 16
	callq	CAVLC_init.70
	popq	%rbp
	.cfi_def_cfa %rsp, 8
	retq
.LBB4_6:                                # %func_CAVLC_init.73
	.cfi_def_cfa %rbp, 16
	callq	CAVLC_init.73
	popq	%rbp
	.cfi_def_cfa %rsp, 8
	retq
.LBB4_7:                                # %ctrl0
	.cfi_def_cfa %rbp, 16
	cmpl	$1, %eax
	je	.LBB4_2
# %bb.8:                                # %ctrl1
	cmpl	$2, %eax
	je	.LBB4_3
# %bb.9:                                # %ctrl2
	cmpl	$3, %eax
	je	.LBB4_4
# %bb.10:                               # %ctrl3
	cmpl	$4, %eax
	je	.LBB4_5
	jmp	.LBB4_6
.Lfunc_end4:
	.size	CAVLC_init, .Lfunc_end4-CAVLC_init
	.cfi_endproc
                                        # -- End function
	.globl	init_img                # -- Begin function init_img
	.p2align	4, 0x90
	.type	init_img,@function
init_img:                               # @init_img
	.cfi_startproc
# %bb.0:                                # %rand_bb
	pushq	%rbp
	.cfi_def_cfa_offset 16
	.cfi_offset %rbp, -16
	movq	%rsp, %rbp
	.cfi_def_cfa_register %rbp
	callq	get_urand
	cmpl	$0, %eax
	jne	.LBB5_7
# %bb.1:                                # %func_init_img.11
	callq	init_img.11
	popq	%rbp
	.cfi_def_cfa %rsp, 8
	retq
.LBB5_2:                                # %func_init_img.27
	.cfi_def_cfa %rbp, 16
	callq	init_img.27
	popq	%rbp
	.cfi_def_cfa %rsp, 8
	retq
.LBB5_3:                                # %func_init_img.30
	.cfi_def_cfa %rbp, 16
	callq	init_img.30
	popq	%rbp
	.cfi_def_cfa %rsp, 8
	retq
.LBB5_4:                                # %func_init_img.43
	.cfi_def_cfa %rbp, 16
	callq	init_img.43
	popq	%rbp
	.cfi_def_cfa %rsp, 8
	retq
.LBB5_5:                                # %func_init_img.54
	.cfi_def_cfa %rbp, 16
	callq	init_img.54
	popq	%rbp
	.cfi_def_cfa %rsp, 8
	retq
.LBB5_6:                                # %func_init_img.55
	.cfi_def_cfa %rbp, 16
	callq	init_img.55
	popq	%rbp
	.cfi_def_cfa %rsp, 8
	retq
.LBB5_7:                                # %ctrl0
	.cfi_def_cfa %rbp, 16
	cmpl	$1, %eax
	je	.LBB5_2
# %bb.8:                                # %ctrl1
	cmpl	$2, %eax
	je	.LBB5_3
# %bb.9:                                # %ctrl2
	cmpl	$3, %eax
	je	.LBB5_4
# %bb.10:                               # %ctrl3
	cmpl	$4, %eax
	je	.LBB5_5
	jmp	.LBB5_6
.Lfunc_end5:
	.size	init_img, .Lfunc_end5-init_img
	.cfi_endproc
                                        # -- End function
	.globl	get_mem_mv              # -- Begin function get_mem_mv
	.p2align	4, 0x90
	.type	get_mem_mv,@function
get_mem_mv:                             # @get_mem_mv
	.cfi_startproc
# %bb.0:                                # %rand_bb
	pushq	%rbp
	.cfi_def_cfa_offset 16
	.cfi_offset %rbp, -16
	movq	%rsp, %rbp
	.cfi_def_cfa_register %rbp
	pushq	%rbx
	pushq	%rax
	.cfi_offset %rbx, -24
	movq	%rdi, %rbx
	callq	get_urand
	cmpl	$0, %eax
	jne	.LBB6_9
# %bb.1:                                # %func_get_mem_mv.8
	movq	%rbx, %rdi
	callq	get_mem_mv.8
	addq	$8, %rsp
	popq	%rbx
	popq	%rbp
	.cfi_def_cfa %rsp, 8
	retq
.LBB6_2:                                # %func_get_mem_mv.25
	.cfi_def_cfa %rbp, 16
	movq	%rbx, %rdi
	callq	get_mem_mv.25
	addq	$8, %rsp
	popq	%rbx
	popq	%rbp
	.cfi_def_cfa %rsp, 8
	retq
.LBB6_3:                                # %func_get_mem_mv.26
	.cfi_def_cfa %rbp, 16
	movq	%rbx, %rdi
	callq	get_mem_mv.26
	addq	$8, %rsp
	popq	%rbx
	popq	%rbp
	.cfi_def_cfa %rsp, 8
	retq
.LBB6_4:                                # %func_get_mem_mv.32
	.cfi_def_cfa %rbp, 16
	movq	%rbx, %rdi
	callq	get_mem_mv.32
	addq	$8, %rsp
	popq	%rbx
	popq	%rbp
	.cfi_def_cfa %rsp, 8
	retq
.LBB6_5:                                # %func_get_mem_mv.40
	.cfi_def_cfa %rbp, 16
	movq	%rbx, %rdi
	callq	get_mem_mv.40
	addq	$8, %rsp
	popq	%rbx
	popq	%rbp
	.cfi_def_cfa %rsp, 8
	retq
.LBB6_6:                                # %func_get_mem_mv.48
	.cfi_def_cfa %rbp, 16
	movq	%rbx, %rdi
	callq	get_mem_mv.48
	addq	$8, %rsp
	popq	%rbx
	popq	%rbp
	.cfi_def_cfa %rsp, 8
	retq
.LBB6_7:                                # %func_get_mem_mv.49
	.cfi_def_cfa %rbp, 16
	movq	%rbx, %rdi
	callq	get_mem_mv.49
	addq	$8, %rsp
	popq	%rbx
	popq	%rbp
	.cfi_def_cfa %rsp, 8
	retq
.LBB6_8:                                # %func_get_mem_mv.50
	.cfi_def_cfa %rbp, 16
	movq	%rbx, %rdi
	callq	get_mem_mv.50
	addq	$8, %rsp
	popq	%rbx
	popq	%rbp
	.cfi_def_cfa %rsp, 8
	retq
.LBB6_9:                                # %ctrl0
	.cfi_def_cfa %rbp, 16
	cmpl	$1, %eax
	je	.LBB6_2
# %bb.10:                               # %ctrl1
	cmpl	$2, %eax
	je	.LBB6_3
# %bb.11:                               # %ctrl2
	cmpl	$3, %eax
	je	.LBB6_4
# %bb.12:                               # %ctrl3
	cmpl	$4, %eax
	je	.LBB6_5
# %bb.13:                               # %ctrl4
	cmpl	$5, %eax
	je	.LBB6_6
# %bb.14:                               # %ctrl5
	cmpl	$6, %eax
	je	.LBB6_7
	jmp	.LBB6_8
.Lfunc_end6:
	.size	get_mem_mv, .Lfunc_end6-get_mem_mv
	.cfi_endproc
                                        # -- End function
	.globl	get_mem_ACcoeff         # -- Begin function get_mem_ACcoeff
	.p2align	4, 0x90
	.type	get_mem_ACcoeff,@function
get_mem_ACcoeff:                        # @get_mem_ACcoeff
	.cfi_startproc
# %bb.0:                                # %rand_bb
	pushq	%rbp
	.cfi_def_cfa_offset 16
	.cfi_offset %rbp, -16
	movq	%rsp, %rbp
	.cfi_def_cfa_register %rbp
	pushq	%rbx
	pushq	%rax
	.cfi_offset %rbx, -24
	movq	%rdi, %rbx
	callq	get_urand
	cmpl	$0, %eax
	jne	.LBB7_9
# %bb.1:                                # %func_get_mem_ACcoeff.3
	movq	%rbx, %rdi
	callq	get_mem_ACcoeff.3
	addq	$8, %rsp
	popq	%rbx
	popq	%rbp
	.cfi_def_cfa %rsp, 8
	retq
.LBB7_2:                                # %func_get_mem_ACcoeff.12
	.cfi_def_cfa %rbp, 16
	movq	%rbx, %rdi
	callq	get_mem_ACcoeff.12
	addq	$8, %rsp
	popq	%rbx
	popq	%rbp
	.cfi_def_cfa %rsp, 8
	retq
.LBB7_3:                                # %func_get_mem_ACcoeff.13
	.cfi_def_cfa %rbp, 16
	movq	%rbx, %rdi
	callq	get_mem_ACcoeff.13
	addq	$8, %rsp
	popq	%rbx
	popq	%rbp
	.cfi_def_cfa %rsp, 8
	retq
.LBB7_4:                                # %func_get_mem_ACcoeff.18
	.cfi_def_cfa %rbp, 16
	movq	%rbx, %rdi
	callq	get_mem_ACcoeff.18
	addq	$8, %rsp
	popq	%rbx
	popq	%rbp
	.cfi_def_cfa %rsp, 8
	retq
.LBB7_5:                                # %func_get_mem_ACcoeff.36
	.cfi_def_cfa %rbp, 16
	movq	%rbx, %rdi
	callq	get_mem_ACcoeff.36
	addq	$8, %rsp
	popq	%rbx
	popq	%rbp
	.cfi_def_cfa %rsp, 8
	retq
.LBB7_6:                                # %func_get_mem_ACcoeff.41
	.cfi_def_cfa %rbp, 16
	movq	%rbx, %rdi
	callq	get_mem_ACcoeff.41
	addq	$8, %rsp
	popq	%rbx
	popq	%rbp
	.cfi_def_cfa %rsp, 8
	retq
.LBB7_7:                                # %func_get_mem_ACcoeff.57
	.cfi_def_cfa %rbp, 16
	movq	%rbx, %rdi
	callq	get_mem_ACcoeff.57
	addq	$8, %rsp
	popq	%rbx
	popq	%rbp
	.cfi_def_cfa %rsp, 8
	retq
.LBB7_8:                                # %func_get_mem_ACcoeff.69
	.cfi_def_cfa %rbp, 16
	movq	%rbx, %rdi
	callq	get_mem_ACcoeff.69
	addq	$8, %rsp
	popq	%rbx
	popq	%rbp
	.cfi_def_cfa %rsp, 8
	retq
.LBB7_9:                                # %ctrl0
	.cfi_def_cfa %rbp, 16
	cmpl	$1, %eax
	je	.LBB7_2
# %bb.10:                               # %ctrl1
	cmpl	$2, %eax
	je	.LBB7_3
# %bb.11:                               # %ctrl2
	cmpl	$3, %eax
	je	.LBB7_4
# %bb.12:                               # %ctrl3
	cmpl	$4, %eax
	je	.LBB7_5
# %bb.13:                               # %ctrl4
	cmpl	$5, %eax
	je	.LBB7_6
# %bb.14:                               # %ctrl5
	cmpl	$6, %eax
	je	.LBB7_7
	jmp	.LBB7_8
.Lfunc_end7:
	.size	get_mem_ACcoeff, .Lfunc_end7-get_mem_ACcoeff
	.cfi_endproc
                                        # -- End function
	.globl	get_mem_DCcoeff         # -- Begin function get_mem_DCcoeff
	.p2align	4, 0x90
	.type	get_mem_DCcoeff,@function
get_mem_DCcoeff:                        # @get_mem_DCcoeff
	.cfi_startproc
# %bb.0:                                # %rand_bb
	pushq	%rbp
	.cfi_def_cfa_offset 16
	.cfi_offset %rbp, -16
	movq	%rsp, %rbp
	.cfi_def_cfa_register %rbp
	pushq	%rbx
	pushq	%rax
	.cfi_offset %rbx, -24
	movq	%rdi, %rbx
	callq	get_urand
	cmpl	$0, %eax
	jne	.LBB8_7
# %bb.1:                                # %func_get_mem_DCcoeff.17
	movq	%rbx, %rdi
	callq	get_mem_DCcoeff.17
	addq	$8, %rsp
	popq	%rbx
	popq	%rbp
	.cfi_def_cfa %rsp, 8
	retq
.LBB8_2:                                # %func_get_mem_DCcoeff.20
	.cfi_def_cfa %rbp, 16
	movq	%rbx, %rdi
	callq	get_mem_DCcoeff.20
	addq	$8, %rsp
	popq	%rbx
	popq	%rbp
	.cfi_def_cfa %rsp, 8
	retq
.LBB8_3:                                # %func_get_mem_DCcoeff.34
	.cfi_def_cfa %rbp, 16
	movq	%rbx, %rdi
	callq	get_mem_DCcoeff.34
	addq	$8, %rsp
	popq	%rbx
	popq	%rbp
	.cfi_def_cfa %rsp, 8
	retq
.LBB8_4:                                # %func_get_mem_DCcoeff.37
	.cfi_def_cfa %rbp, 16
	movq	%rbx, %rdi
	callq	get_mem_DCcoeff.37
	addq	$8, %rsp
	popq	%rbx
	popq	%rbp
	.cfi_def_cfa %rsp, 8
	retq
.LBB8_5:                                # %func_get_mem_DCcoeff.52
	.cfi_def_cfa %rbp, 16
	movq	%rbx, %rdi
	callq	get_mem_DCcoeff.52
	addq	$8, %rsp
	popq	%rbx
	popq	%rbp
	.cfi_def_cfa %rsp, 8
	retq
.LBB8_6:                                # %func_get_mem_DCcoeff.53
	.cfi_def_cfa %rbp, 16
	movq	%rbx, %rdi
	callq	get_mem_DCcoeff.53
	addq	$8, %rsp
	popq	%rbx
	popq	%rbp
	.cfi_def_cfa %rsp, 8
	retq
.LBB8_7:                                # %ctrl0
	.cfi_def_cfa %rbp, 16
	cmpl	$1, %eax
	je	.LBB8_2
# %bb.8:                                # %ctrl1
	cmpl	$2, %eax
	je	.LBB8_3
# %bb.9:                                # %ctrl2
	cmpl	$3, %eax
	je	.LBB8_4
# %bb.10:                               # %ctrl3
	cmpl	$4, %eax
	je	.LBB8_5
	jmp	.LBB8_6
.Lfunc_end8:
	.size	get_mem_DCcoeff, .Lfunc_end8-get_mem_DCcoeff
	.cfi_endproc
                                        # -- End function
	.globl	free_img                # -- Begin function free_img
	.p2align	4, 0x90
	.type	free_img,@function
free_img:                               # @free_img
	.cfi_startproc
# %bb.0:                                # %entry
	pushq	%rbp
	.cfi_def_cfa_offset 16
	.cfi_offset %rbp, -16
	movq	%rsp, %rbp
	.cfi_def_cfa_register %rbp
	movb	$0, %al
	callq	CloseSEIMessages
	movq	img, %rax
	movq	71920(%rax), %rdi
	callq	free_mem_mv
	movq	img, %rax
	movq	71928(%rax), %rdi
	callq	free_mem_mv
	movq	input, %rax
	cmpl	$0, 1256(%rax)
	je	.LBB9_2
# %bb.1:                                # %if.then
	movq	img, %rax
	movq	71936(%rax), %rdi
	callq	free_mem_mv
	movq	img, %rax
	movq	71944(%rax), %rdi
	callq	free_mem_mv
.LBB9_2:                                # %if.end
	movq	img, %rax
	movq	14136(%rax), %rdi
	callq	free_mem_ACcoeff
	movq	img, %rax
	movq	14144(%rax), %rdi
	callq	free_mem_DCcoeff
	movq	input, %rax
	cmpl	$0, 2884(%rax)
	je	.LBB9_6
# %bb.3:                                # %if.then2
	movq	rddata_top_frame_mb+3232, %rdi
	callq	free_mem_mv
	movq	rddata_top_frame_mb+3240, %rdi
	callq	free_mem_mv
	movq	rddata_bot_frame_mb+3232, %rdi
	callq	free_mem_mv
	movq	rddata_bot_frame_mb+3240, %rdi
	callq	free_mem_mv
	movq	rddata_top_field_mb+3232, %rdi
	callq	free_mem_mv
	movq	rddata_top_field_mb+3240, %rdi
	callq	free_mem_mv
	movq	rddata_bot_field_mb+3232, %rdi
	callq	free_mem_mv
	movq	rddata_bot_field_mb+3240, %rdi
	callq	free_mem_mv
	movq	input, %rax
	cmpl	$0, 1256(%rax)
	je	.LBB9_5
# %bb.4:                                # %if.then5
	movq	rddata_top_frame_mb+3248, %rdi
	callq	free_mem_mv
	movq	rddata_top_frame_mb+3256, %rdi
	callq	free_mem_mv
	movq	rddata_bot_frame_mb+3248, %rdi
	callq	free_mem_mv
	movq	rddata_bot_frame_mb+3256, %rdi
	callq	free_mem_mv
	movq	rddata_top_field_mb+3248, %rdi
	callq	free_mem_mv
	movq	rddata_top_field_mb+3256, %rdi
	callq	free_mem_mv
	movq	rddata_bot_field_mb+3248, %rdi
	callq	free_mem_mv
	movq	rddata_bot_field_mb+3256, %rdi
	callq	free_mem_mv
.LBB9_5:                                # %if.end6
	movq	rddata_top_frame_mb+3080, %rdi
	callq	free_mem_ACcoeff
	movq	rddata_top_frame_mb+3088, %rdi
	callq	free_mem_DCcoeff
	movq	rddata_bot_frame_mb+3080, %rdi
	callq	free_mem_ACcoeff
	movq	rddata_bot_frame_mb+3088, %rdi
	callq	free_mem_DCcoeff
	movq	rddata_top_field_mb+3080, %rdi
	callq	free_mem_ACcoeff
	movq	rddata_top_field_mb+3088, %rdi
	callq	free_mem_DCcoeff
	movq	rddata_bot_field_mb+3080, %rdi
	callq	free_mem_ACcoeff
	movq	rddata_bot_field_mb+3088, %rdi
	callq	free_mem_DCcoeff
.LBB9_6:                                # %if.end7
	movq	img, %rax
	movl	72684(%rax), %eax
	movq	img, %rcx
	cmpl	72688(%rcx), %eax
	jle	.LBB9_8
# %bb.7:                                # %if.then8
	xorl	%eax, %eax
	movq	img, %rcx
	movq	71776(%rcx), %rdi
	movq	img, %rcx
	movl	72684(%rcx), %ecx
	addl	$1, %ecx
	movslq	%ecx, %rcx
	subq	%rcx, %rax
	shlq	$2, %rax
	addq	%rax, %rdi
	callq	free
	jmp	.LBB9_9
.LBB9_8:                                # %if.else
	xorl	%eax, %eax
	movq	img, %rcx
	movq	71776(%rcx), %rdi
	movq	img, %rcx
	movl	72688(%rcx), %ecx
	addl	$1, %ecx
	movslq	%ecx, %rcx
	subq	%rcx, %rax
	shlq	$2, %rax
	addq	%rax, %rdi
	callq	free
.LBB9_9:                                # %if.end16
	movq	input, %rax
	cmpl	$0, 2884(%rax)
	je	.LBB9_11
# %bb.10:                               # %if.then19
	movq	rddata_bot_frame_mb+3136, %rdi
	callq	free_mem2Dint
	movq	rddata_top_field_mb+3136, %rdi
	callq	free_mem2Dint
	movq	rddata_bot_field_mb+3136, %rdi
	callq	free_mem2Dint
.LBB9_11:                               # %if.end20
	popq	%rbp
	.cfi_def_cfa %rsp, 8
	retq
.Lfunc_end9:
	.size	free_img, .Lfunc_end9-free_img
	.cfi_endproc
                                        # -- End function
	.globl	free_mem_mv             # -- Begin function free_mem_mv
	.p2align	4, 0x90
	.type	free_mem_mv,@function
free_mem_mv:                            # @free_mem_mv
	.cfi_startproc
# %bb.0:                                # %rand_bb
	pushq	%rbp
	.cfi_def_cfa_offset 16
	.cfi_offset %rbp, -16
	movq	%rsp, %rbp
	.cfi_def_cfa_register %rbp
	pushq	%rbx
	pushq	%rax
	.cfi_offset %rbx, -24
	movq	%rdi, %rbx
	callq	get_urand
	cmpl	$0, %eax
	jne	.LBB10_9
# %bb.1:                                # %func_free_mem_mv.2
	movq	%rbx, %rdi
	callq	free_mem_mv.2
	addq	$8, %rsp
	popq	%rbx
	popq	%rbp
	.cfi_def_cfa %rsp, 8
	retq
.LBB10_2:                               # %func_free_mem_mv.5
	.cfi_def_cfa %rbp, 16
	movq	%rbx, %rdi
	callq	free_mem_mv.5
	addq	$8, %rsp
	popq	%rbx
	popq	%rbp
	.cfi_def_cfa %rsp, 8
	retq
.LBB10_3:                               # %func_free_mem_mv.23
	.cfi_def_cfa %rbp, 16
	movq	%rbx, %rdi
	callq	free_mem_mv.23
	addq	$8, %rsp
	popq	%rbx
	popq	%rbp
	.cfi_def_cfa %rsp, 8
	retq
.LBB10_4:                               # %func_free_mem_mv.45
	.cfi_def_cfa %rbp, 16
	movq	%rbx, %rdi
	callq	free_mem_mv.45
	addq	$8, %rsp
	popq	%rbx
	popq	%rbp
	.cfi_def_cfa %rsp, 8
	retq
.LBB10_5:                               # %func_free_mem_mv.51
	.cfi_def_cfa %rbp, 16
	movq	%rbx, %rdi
	callq	free_mem_mv.51
	addq	$8, %rsp
	popq	%rbx
	popq	%rbp
	.cfi_def_cfa %rsp, 8
	retq
.LBB10_6:                               # %func_free_mem_mv.65
	.cfi_def_cfa %rbp, 16
	movq	%rbx, %rdi
	callq	free_mem_mv.65
	addq	$8, %rsp
	popq	%rbx
	popq	%rbp
	.cfi_def_cfa %rsp, 8
	retq
.LBB10_7:                               # %func_free_mem_mv.74
	.cfi_def_cfa %rbp, 16
	movq	%rbx, %rdi
	callq	free_mem_mv.74
	addq	$8, %rsp
	popq	%rbx
	popq	%rbp
	.cfi_def_cfa %rsp, 8
	retq
.LBB10_8:                               # %func_free_mem_mv.75
	.cfi_def_cfa %rbp, 16
	movq	%rbx, %rdi
	callq	free_mem_mv.75
	addq	$8, %rsp
	popq	%rbx
	popq	%rbp
	.cfi_def_cfa %rsp, 8
	retq
.LBB10_9:                               # %ctrl0
	.cfi_def_cfa %rbp, 16
	cmpl	$1, %eax
	je	.LBB10_2
# %bb.10:                               # %ctrl1
	cmpl	$2, %eax
	je	.LBB10_3
# %bb.11:                               # %ctrl2
	cmpl	$3, %eax
	je	.LBB10_4
# %bb.12:                               # %ctrl3
	cmpl	$4, %eax
	je	.LBB10_5
# %bb.13:                               # %ctrl4
	cmpl	$5, %eax
	je	.LBB10_6
# %bb.14:                               # %ctrl5
	cmpl	$6, %eax
	je	.LBB10_7
	jmp	.LBB10_8
.Lfunc_end10:
	.size	free_mem_mv, .Lfunc_end10-free_mem_mv
	.cfi_endproc
                                        # -- End function
	.globl	free_mem_ACcoeff        # -- Begin function free_mem_ACcoeff
	.p2align	4, 0x90
	.type	free_mem_ACcoeff,@function
free_mem_ACcoeff:                       # @free_mem_ACcoeff
	.cfi_startproc
# %bb.0:                                # %rand_bb
	pushq	%rbp
	.cfi_def_cfa_offset 16
	.cfi_offset %rbp, -16
	movq	%rsp, %rbp
	.cfi_def_cfa_register %rbp
	pushq	%rbx
	pushq	%rax
	.cfi_offset %rbx, -24
	movq	%rdi, %rbx
	callq	get_urand
	cmpl	$0, %eax
	jne	.LBB11_9
# %bb.1:                                # %func_free_mem_ACcoeff.9
	movq	%rbx, %rdi
	callq	free_mem_ACcoeff.9
	addq	$8, %rsp
	popq	%rbx
	popq	%rbp
	.cfi_def_cfa %rsp, 8
	retq
.LBB11_2:                               # %func_free_mem_ACcoeff.10
	.cfi_def_cfa %rbp, 16
	movq	%rbx, %rdi
	callq	free_mem_ACcoeff.10
	addq	$8, %rsp
	popq	%rbx
	popq	%rbp
	.cfi_def_cfa %rsp, 8
	retq
.LBB11_3:                               # %func_free_mem_ACcoeff.16
	.cfi_def_cfa %rbp, 16
	movq	%rbx, %rdi
	callq	free_mem_ACcoeff.16
	addq	$8, %rsp
	popq	%rbx
	popq	%rbp
	.cfi_def_cfa %rsp, 8
	retq
.LBB11_4:                               # %func_free_mem_ACcoeff.44
	.cfi_def_cfa %rbp, 16
	movq	%rbx, %rdi
	callq	free_mem_ACcoeff.44
	addq	$8, %rsp
	popq	%rbx
	popq	%rbp
	.cfi_def_cfa %rsp, 8
	retq
.LBB11_5:                               # %func_free_mem_ACcoeff.47
	.cfi_def_cfa %rbp, 16
	movq	%rbx, %rdi
	callq	free_mem_ACcoeff.47
	addq	$8, %rsp
	popq	%rbx
	popq	%rbp
	.cfi_def_cfa %rsp, 8
	retq
.LBB11_6:                               # %func_free_mem_ACcoeff.59
	.cfi_def_cfa %rbp, 16
	movq	%rbx, %rdi
	callq	free_mem_ACcoeff.59
	addq	$8, %rsp
	popq	%rbx
	popq	%rbp
	.cfi_def_cfa %rsp, 8
	retq
.LBB11_7:                               # %func_free_mem_ACcoeff.81
	.cfi_def_cfa %rbp, 16
	movq	%rbx, %rdi
	callq	free_mem_ACcoeff.81
	addq	$8, %rsp
	popq	%rbx
	popq	%rbp
	.cfi_def_cfa %rsp, 8
	retq
.LBB11_8:                               # %func_free_mem_ACcoeff.82
	.cfi_def_cfa %rbp, 16
	movq	%rbx, %rdi
	callq	free_mem_ACcoeff.82
	addq	$8, %rsp
	popq	%rbx
	popq	%rbp
	.cfi_def_cfa %rsp, 8
	retq
.LBB11_9:                               # %ctrl0
	.cfi_def_cfa %rbp, 16
	cmpl	$1, %eax
	je	.LBB11_2
# %bb.10:                               # %ctrl1
	cmpl	$2, %eax
	je	.LBB11_3
# %bb.11:                               # %ctrl2
	cmpl	$3, %eax
	je	.LBB11_4
# %bb.12:                               # %ctrl3
	cmpl	$4, %eax
	je	.LBB11_5
# %bb.13:                               # %ctrl4
	cmpl	$5, %eax
	je	.LBB11_6
# %bb.14:                               # %ctrl5
	cmpl	$6, %eax
	je	.LBB11_7
	jmp	.LBB11_8
.Lfunc_end11:
	.size	free_mem_ACcoeff, .Lfunc_end11-free_mem_ACcoeff
	.cfi_endproc
                                        # -- End function
	.globl	free_mem_DCcoeff        # -- Begin function free_mem_DCcoeff
	.p2align	4, 0x90
	.type	free_mem_DCcoeff,@function
free_mem_DCcoeff:                       # @free_mem_DCcoeff
	.cfi_startproc
# %bb.0:                                # %rand_bb
	pushq	%rbp
	.cfi_def_cfa_offset 16
	.cfi_offset %rbp, -16
	movq	%rsp, %rbp
	.cfi_def_cfa_register %rbp
	pushq	%rbx
	pushq	%rax
	.cfi_offset %rbx, -24
	movq	%rdi, %rbx
	callq	get_urand
	cmpl	$0, %eax
	jne	.LBB12_7
# %bb.1:                                # %func_free_mem_DCcoeff.6
	movq	%rbx, %rdi
	callq	free_mem_DCcoeff.6
	addq	$8, %rsp
	popq	%rbx
	popq	%rbp
	.cfi_def_cfa %rsp, 8
	retq
.LBB12_2:                               # %func_free_mem_DCcoeff.24
	.cfi_def_cfa %rbp, 16
	movq	%rbx, %rdi
	callq	free_mem_DCcoeff.24
	addq	$8, %rsp
	popq	%rbx
	popq	%rbp
	.cfi_def_cfa %rsp, 8
	retq
.LBB12_3:                               # %func_free_mem_DCcoeff.33
	.cfi_def_cfa %rbp, 16
	movq	%rbx, %rdi
	callq	free_mem_DCcoeff.33
	addq	$8, %rsp
	popq	%rbx
	popq	%rbp
	.cfi_def_cfa %rsp, 8
	retq
.LBB12_4:                               # %func_free_mem_DCcoeff.68
	.cfi_def_cfa %rbp, 16
	movq	%rbx, %rdi
	callq	free_mem_DCcoeff.68
	addq	$8, %rsp
	popq	%rbx
	popq	%rbp
	.cfi_def_cfa %rsp, 8
	retq
.LBB12_5:                               # %func_free_mem_DCcoeff.71
	.cfi_def_cfa %rbp, 16
	movq	%rbx, %rdi
	callq	free_mem_DCcoeff.71
	addq	$8, %rsp
	popq	%rbx
	popq	%rbp
	.cfi_def_cfa %rsp, 8
	retq
.LBB12_6:                               # %func_free_mem_DCcoeff.76
	.cfi_def_cfa %rbp, 16
	movq	%rbx, %rdi
	callq	free_mem_DCcoeff.76
	addq	$8, %rsp
	popq	%rbx
	popq	%rbp
	.cfi_def_cfa %rsp, 8
	retq
.LBB12_7:                               # %ctrl0
	.cfi_def_cfa %rbp, 16
	cmpl	$1, %eax
	je	.LBB12_2
# %bb.8:                                # %ctrl1
	cmpl	$2, %eax
	je	.LBB12_3
# %bb.9:                                # %ctrl2
	cmpl	$3, %eax
	je	.LBB12_4
# %bb.10:                               # %ctrl3
	cmpl	$4, %eax
	je	.LBB12_5
	jmp	.LBB12_6
.Lfunc_end12:
	.size	free_mem_DCcoeff, .Lfunc_end12-free_mem_DCcoeff
	.cfi_endproc
                                        # -- End function
	.globl	malloc_picture          # -- Begin function malloc_picture
	.p2align	4, 0x90
	.type	malloc_picture,@function
malloc_picture:                         # @malloc_picture
	.cfi_startproc
# %bb.0:                                # %entry
	pushq	%rbp
	.cfi_def_cfa_offset 16
	.cfi_offset %rbp, -16
	movq	%rsp, %rbp
	.cfi_def_cfa_register %rbp
	subq	$16, %rsp
	movl	$1, %edi
	movl	$824, %esi              # imm = 0x338
	callq	calloc
	movq	%rax, -8(%rbp)
	cmpq	$0, %rax
	jne	.LBB13_2
# %bb.1:                                # %if.then
	movabsq	$.L.str.3, %rdi
	callq	no_mem_exit
.LBB13_2:                               # %if.end
	movq	-8(%rbp), %rax
	addq	$16, %rsp
	popq	%rbp
	.cfi_def_cfa %rsp, 8
	retq
.Lfunc_end13:
	.size	malloc_picture, .Lfunc_end13-malloc_picture
	.cfi_endproc
                                        # -- End function
	.globl	report_frame_statistic  # -- Begin function report_frame_statistic
	.p2align	4, 0x90
	.type	report_frame_statistic,@function
report_frame_statistic:                 # @report_frame_statistic
	.cfi_startproc
# %bb.0:                                # %rand_bb
	pushq	%rbp
	.cfi_def_cfa_offset 16
	.cfi_offset %rbp, -16
	movq	%rsp, %rbp
	.cfi_def_cfa_register %rbp
	callq	get_urand
	cmpl	$0, %eax
	jne	.LBB14_9
# %bb.1:                                # %func_report_frame_statistic.4
	callq	report_frame_statistic.4
	popq	%rbp
	.cfi_def_cfa %rsp, 8
	retq
.LBB14_2:                               # %func_report_frame_statistic.29
	.cfi_def_cfa %rbp, 16
	callq	report_frame_statistic.29
	popq	%rbp
	.cfi_def_cfa %rsp, 8
	retq
.LBB14_3:                               # %func_report_frame_statistic.35
	.cfi_def_cfa %rbp, 16
	callq	report_frame_statistic.35
	popq	%rbp
	.cfi_def_cfa %rsp, 8
	retq
.LBB14_4:                               # %func_report_frame_statistic.58
	.cfi_def_cfa %rbp, 16
	callq	report_frame_statistic.58
	popq	%rbp
	.cfi_def_cfa %rsp, 8
	retq
.LBB14_5:                               # %func_report_frame_statistic.62
	.cfi_def_cfa %rbp, 16
	callq	report_frame_statistic.62
	popq	%rbp
	.cfi_def_cfa %rsp, 8
	retq
.LBB14_6:                               # %func_report_frame_statistic.77
	.cfi_def_cfa %rbp, 16
	callq	report_frame_statistic.77
	popq	%rbp
	.cfi_def_cfa %rsp, 8
	retq
.LBB14_7:                               # %func_report_frame_statistic.79
	.cfi_def_cfa %rbp, 16
	callq	report_frame_statistic.79
	popq	%rbp
	.cfi_def_cfa %rsp, 8
	retq
.LBB14_8:                               # %func_report_frame_statistic.80
	.cfi_def_cfa %rbp, 16
	callq	report_frame_statistic.80
	popq	%rbp
	.cfi_def_cfa %rsp, 8
	retq
.LBB14_9:                               # %ctrl0
	.cfi_def_cfa %rbp, 16
	cmpl	$1, %eax
	je	.LBB14_2
# %bb.10:                               # %ctrl1
	cmpl	$2, %eax
	je	.LBB14_3
# %bb.11:                               # %ctrl2
	cmpl	$3, %eax
	je	.LBB14_4
# %bb.12:                               # %ctrl3
	cmpl	$4, %eax
	je	.LBB14_5
# %bb.13:                               # %ctrl4
	cmpl	$5, %eax
	je	.LBB14_6
# %bb.14:                               # %ctrl5
	cmpl	$6, %eax
	je	.LBB14_7
	jmp	.LBB14_8
.Lfunc_end14:
	.size	report_frame_statistic, .Lfunc_end14-report_frame_statistic
	.cfi_endproc
                                        # -- End function
	.globl	report                  # -- Begin function report
	.p2align	4, 0x90
	.type	report,@function
report:                                 # @report
	.cfi_startproc
# %bb.0:                                # %rand_bb
	pushq	%rbp
	.cfi_def_cfa_offset 16
	.cfi_offset %rbp, -16
	movq	%rsp, %rbp
	.cfi_def_cfa_register %rbp
	callq	get_urand
	cmpl	$0, %eax
	jne	.LBB15_9
# %bb.1:                                # %func_report.28
	callq	report.28
	popq	%rbp
	.cfi_def_cfa %rsp, 8
	retq
.LBB15_2:                               # %func_report.31
	.cfi_def_cfa %rbp, 16
	callq	report.31
	popq	%rbp
	.cfi_def_cfa %rsp, 8
	retq
.LBB15_3:                               # %func_report.38
	.cfi_def_cfa %rbp, 16
	callq	report.38
	popq	%rbp
	.cfi_def_cfa %rsp, 8
	retq
.LBB15_4:                               # %func_report.46
	.cfi_def_cfa %rbp, 16
	callq	report.46
	popq	%rbp
	.cfi_def_cfa %rsp, 8
	retq
.LBB15_5:                               # %func_report.63
	.cfi_def_cfa %rbp, 16
	callq	report.63
	popq	%rbp
	.cfi_def_cfa %rsp, 8
	retq
.LBB15_6:                               # %func_report.67
	.cfi_def_cfa %rbp, 16
	callq	report.67
	popq	%rbp
	.cfi_def_cfa %rsp, 8
	retq
.LBB15_7:                               # %func_report.72
	.cfi_def_cfa %rbp, 16
	callq	report.72
	popq	%rbp
	.cfi_def_cfa %rsp, 8
	retq
.LBB15_8:                               # %func_report.78
	.cfi_def_cfa %rbp, 16
	callq	report.78
	popq	%rbp
	.cfi_def_cfa %rsp, 8
	retq
.LBB15_9:                               # %ctrl0
	.cfi_def_cfa %rbp, 16
	cmpl	$1, %eax
	je	.LBB15_2
# %bb.10:                               # %ctrl1
	cmpl	$2, %eax
	je	.LBB15_3
# %bb.11:                               # %ctrl2
	cmpl	$3, %eax
	je	.LBB15_4
# %bb.12:                               # %ctrl3
	cmpl	$4, %eax
	je	.LBB15_5
# %bb.13:                               # %ctrl4
	cmpl	$5, %eax
	je	.LBB15_6
# %bb.14:                               # %ctrl5
	cmpl	$6, %eax
	je	.LBB15_7
	jmp	.LBB15_8
.Lfunc_end15:
	.size	report, .Lfunc_end15-report
	.cfi_endproc
                                        # -- End function
	.globl	information_init        # -- Begin function information_init
	.p2align	4, 0x90
	.type	information_init,@function
information_init:                       # @information_init
	.cfi_startproc
# %bb.0:                                # %entry
	pushq	%rbp
	.cfi_def_cfa_offset 16
	.cfi_offset %rbp, -16
	movq	%rsp, %rbp
	.cfi_def_cfa_register %rbp
	subq	$48, %rsp
	leaq	-48(%rbp), %rdi
	movabsq	$.L__const.information_init.yuv_types, %rsi
	movl	$40, %edx
	callq	memcpy
	movabsq	$.L.str.186, %rdi
	movabsq	$.L.str.13, %rsi
	movabsq	$.L.str.14, %rdx
	movb	$0, %al
	callq	printf
	movq	input, %rsi
	addq	$224, %rsi
	movabsq	$.L.str.187, %rdi
	movb	$0, %al
	callq	printf
	movq	input, %rsi
	addq	$424, %rsi              # imm = 0x1A8
	movabsq	$.L.str.188, %rdi
	movb	$0, %al
	callq	printf
	cmpl	$-1, p_dec
	je	.LBB16_2
# %bb.1:                                # %if.then
	movq	input, %rsi
	addq	$624, %rsi              # imm = 0x270
	movabsq	$.L.str.189, %rdi
	movb	$0, %al
	callq	printf
.LBB16_2:                               # %if.end
	movq	img, %rax
	movslq	72700(%rax), %rax
	imulq	$10, %rax, %rax
	leaq	-48(%rbp), %rsi
	addq	%rax, %rsi
	movabsq	$.L.str.190, %rdi
	movb	$0, %al
	callq	printf
	movq	input, %rax
	movl	8(%rax), %esi
	movq	input, %rax
	movl	1236(%rax), %edx
	movq	input, %rax
	movl	8(%rax), %eax
	subl	$1, %eax
	imull	%eax, %edx
	movabsq	$.L.str.191, %rdi
	movb	$0, %al
	callq	printf
	movq	input, %rax
	movl	2880(%rax), %esi
	movq	input, %rax
	movl	2884(%rax), %edx
	movabsq	$.L.str.192, %rdi
	movb	$0, %al
	callq	printf
	movq	input, %rax
	movl	3220(%rax), %esi
	movabsq	$.L.str.193, %rdi
	movb	$0, %al
	callq	printf
	movabsq	$.L.str.26, %rdi
	movb	$0, %al
	callq	printf
	movabsq	$.L.str.194, %rdi
	movb	$0, %al
	callq	printf
	movabsq	$.L.str.26, %rdi
	movb	$0, %al
	callq	printf
	addq	$48, %rsp
	popq	%rbp
	.cfi_def_cfa %rsp, 8
	retq
.Lfunc_end16:
	.size	information_init, .Lfunc_end16-information_init
	.cfi_endproc
                                        # -- End function
	.globl	init_orig_buffers       # -- Begin function init_orig_buffers
	.p2align	4, 0x90
	.type	init_orig_buffers,@function
init_orig_buffers:                      # @init_orig_buffers
	.cfi_startproc
# %bb.0:                                # %entry
	pushq	%rbp
	.cfi_def_cfa_offset 16
	.cfi_offset %rbp, -16
	movq	%rsp, %rbp
	.cfi_def_cfa_register %rbp
	subq	$16, %rsp
	movl	$0, -4(%rbp)
	movq	img, %rax
	movl	60(%rax), %esi
	movq	img, %rax
	movl	52(%rax), %edx
	movabsq	$imgY_org_frm, %rdi
	callq	get_mem2Dpel
	addl	-4(%rbp), %eax
	movl	%eax, -4(%rbp)
	movq	img, %rax
	cmpl	$0, 72700(%rax)
	je	.LBB17_2
# %bb.1:                                # %if.then
	movq	img, %rax
	movl	64(%rax), %edx
	movq	img, %rax
	movl	56(%rax), %ecx
	movabsq	$imgUV_org_frm, %rdi
	movl	$2, %esi
	callq	get_mem3Dpel
	addl	-4(%rbp), %eax
	movl	%eax, -4(%rbp)
.LBB17_2:                               # %if.end
	movq	active_sps, %rax
	cmpl	$0, 1148(%rax)
	jne	.LBB17_10
# %bb.3:                                # %if.then3
	movq	imgY_org_frm, %rdi
	movq	img, %rax
	movl	60(%rax), %esi
	movq	img, %rax
	movl	52(%rax), %edx
	movabsq	$imgY_org_top, %rcx
	movabsq	$imgY_org_bot, %r8
	callq	init_top_bot_planes
	movq	img, %rax
	cmpl	$0, 72700(%rax)
	je	.LBB17_9
# %bb.4:                                # %if.then9
	movl	$2, %edi
	movl	$8, %esi
	callq	calloc
	movq	%rax, imgUV_org_top
	cmpq	$0, %rax
	jne	.LBB17_6
# %bb.5:                                # %if.then12
	movabsq	$.L.str.195, %rdi
	callq	no_mem_exit
.LBB17_6:                               # %if.end13
	movl	$2, %edi
	movl	$8, %esi
	callq	calloc
	movq	%rax, imgUV_org_bot
	cmpq	$0, %rax
	jne	.LBB17_8
# %bb.7:                                # %if.then16
	movabsq	$.L.str.196, %rdi
	callq	no_mem_exit
.LBB17_8:                               # %if.end17
	movslq	-4(%rbp), %rax
	addq	$32, %rax
	movl	%eax, -4(%rbp)
	movq	imgUV_org_frm, %rax
	movq	(%rax), %rdi
	movq	img, %rax
	movl	64(%rax), %esi
	movq	img, %rax
	movl	56(%rax), %edx
	movq	imgUV_org_top, %rcx
	movq	imgUV_org_bot, %r8
	callq	init_top_bot_planes
	addl	-4(%rbp), %eax
	movl	%eax, -4(%rbp)
	movq	imgUV_org_frm, %rax
	movq	8(%rax), %rdi
	movq	img, %rax
	movl	64(%rax), %esi
	movq	img, %rax
	movl	56(%rax), %edx
	movq	imgUV_org_top, %rcx
	addq	$8, %rcx
	movq	imgUV_org_bot, %r8
	addq	$8, %r8
	callq	init_top_bot_planes
	addl	-4(%rbp), %eax
	movl	%eax, -4(%rbp)
.LBB17_9:                               # %if.end33
	jmp	.LBB17_10
.LBB17_10:                              # %if.end34
	movl	-4(%rbp), %eax
	addq	$16, %rsp
	popq	%rbp
	.cfi_def_cfa %rsp, 8
	retq
.Lfunc_end17:
	.size	init_orig_buffers, .Lfunc_end17-init_orig_buffers
	.cfi_endproc
                                        # -- End function
	.globl	init_global_buffers     # -- Begin function init_global_buffers
	.p2align	4, 0x90
	.type	init_global_buffers,@function
init_global_buffers:                    # @init_global_buffers
	.cfi_startproc
# %bb.0:                                # %rand_bb
	pushq	%rbp
	.cfi_def_cfa_offset 16
	.cfi_offset %rbp, -16
	movq	%rsp, %rbp
	.cfi_def_cfa_register %rbp
	callq	get_urand
	cmpl	$0, %eax
	jne	.LBB18_2
# %bb.1:                                # %func_init_global_buffers.14
	callq	init_global_buffers.14
	popq	%rbp
	.cfi_def_cfa %rsp, 8
	retq
.LBB18_2:                               # %func_init_global_buffers.15
	.cfi_def_cfa %rbp, 16
	callq	init_global_buffers.15
	popq	%rbp
	.cfi_def_cfa %rsp, 8
	retq
.Lfunc_end18:
	.size	init_global_buffers, .Lfunc_end18-init_global_buffers
	.cfi_endproc
                                        # -- End function
	.globl	free_orig_planes        # -- Begin function free_orig_planes
	.p2align	4, 0x90
	.type	free_orig_planes,@function
free_orig_planes:                       # @free_orig_planes
	.cfi_startproc
# %bb.0:                                # %entry
	pushq	%rbp
	.cfi_def_cfa_offset 16
	.cfi_offset %rbp, -16
	movq	%rsp, %rbp
	.cfi_def_cfa_register %rbp
	movq	imgY_org_frm, %rdi
	callq	free_mem2Dpel
	movq	img, %rax
	cmpl	$0, 72700(%rax)
	je	.LBB19_2
# %bb.1:                                # %if.then
	movq	imgUV_org_frm, %rdi
	movl	$2, %esi
	callq	free_mem3Dpel
.LBB19_2:                               # %if.end
	movq	active_sps, %rax
	cmpl	$0, 1148(%rax)
	jne	.LBB19_6
# %bb.3:                                # %if.then1
	movq	imgY_org_top, %rdi
	movq	imgY_org_bot, %rsi
	callq	free_top_bot_planes
	movq	img, %rax
	cmpl	$0, 72700(%rax)
	je	.LBB19_5
# %bb.4:                                # %if.then4
	movq	imgUV_org_top, %rax
	movq	(%rax), %rdi
	movq	imgUV_org_bot, %rax
	movq	(%rax), %rsi
	callq	free_top_bot_planes
	movq	imgUV_org_top, %rax
	movq	8(%rax), %rdi
	movq	imgUV_org_bot, %rax
	movq	8(%rax), %rsi
	callq	free_top_bot_planes
	movq	imgUV_org_top, %rdi
	callq	free
	movq	imgUV_org_bot, %rdi
	callq	free
.LBB19_5:                               # %if.end8
	jmp	.LBB19_6
.LBB19_6:                               # %if.end9
	popq	%rbp
	.cfi_def_cfa %rsp, 8
	retq
.Lfunc_end19:
	.size	free_orig_planes, .Lfunc_end19-free_orig_planes
	.cfi_endproc
                                        # -- End function
	.globl	free_global_buffers     # -- Begin function free_global_buffers
	.p2align	4, 0x90
	.type	free_global_buffers,@function
free_global_buffers:                    # @free_global_buffers
	.cfi_startproc
# %bb.0:                                # %rand_bb
	pushq	%rbp
	.cfi_def_cfa_offset 16
	.cfi_offset %rbp, -16
	movq	%rsp, %rbp
	.cfi_def_cfa_register %rbp
	callq	get_urand
	cmpl	$0, %eax
	jne	.LBB20_2
# %bb.1:                                # %func_free_global_buffers.7
	callq	free_global_buffers.7
	popq	%rbp
	.cfi_def_cfa %rsp, 8
	retq
.LBB20_2:                               # %func_free_global_buffers.19
	.cfi_def_cfa %rbp, 16
	callq	free_global_buffers.19
	popq	%rbp
	.cfi_def_cfa %rsp, 8
	retq
.Lfunc_end20:
	.size	free_global_buffers, .Lfunc_end20-free_global_buffers
	.cfi_endproc
                                        # -- End function
	.globl	combine_field           # -- Begin function combine_field
	.p2align	4, 0x90
	.type	combine_field,@function
combine_field:                          # @combine_field
	.cfi_startproc
# %bb.0:                                # %entry
	pushq	%rbp
	.cfi_def_cfa_offset 16
	.cfi_offset %rbp, -16
	movq	%rsp, %rbp
	.cfi_def_cfa_register %rbp
	subq	$16, %rsp
	movl	$0, -4(%rbp)
.LBB21_1:                               # %for.cond
                                        # =>This Inner Loop Header: Depth=1
	movl	-4(%rbp), %ecx
	movq	img, %rax
	movl	60(%rax), %eax
	cltd
	movl	$2, %esi
	idivl	%esi
	cmpl	%eax, %ecx
	jge	.LBB21_4
# %bb.2:                                # %for.body
                                        #   in Loop: Header=BB21_1 Depth=1
	movq	imgY_com, %rax
	movl	-4(%rbp), %ecx
	shll	$1, %ecx
	movslq	%ecx, %rcx
	movq	(%rax,%rcx,8), %rdi
	movq	enc_top_picture, %rax
	movq	6424(%rax), %rax
	movslq	-4(%rbp), %rcx
	movq	(%rax,%rcx,8), %rsi
	movq	img, %rax
	movslq	52(%rax), %rdx
	shlq	$1, %rdx
	callq	memcpy
	movq	imgY_com, %rax
	movl	-4(%rbp), %ecx
	shll	$1, %ecx
	addl	$1, %ecx
	movslq	%ecx, %rcx
	movq	(%rax,%rcx,8), %rdi
	movq	enc_bottom_picture, %rax
	movq	6424(%rax), %rax
	movslq	-4(%rbp), %rcx
	movq	(%rax,%rcx,8), %rsi
	movq	img, %rax
	movslq	52(%rax), %rdx
	shlq	$1, %rdx
	callq	memcpy
# %bb.3:                                # %for.inc
                                        #   in Loop: Header=BB21_1 Depth=1
	movl	-4(%rbp), %eax
	addl	$1, %eax
	movl	%eax, -4(%rbp)
	jmp	.LBB21_1
.LBB21_4:                               # %for.end
	movq	img, %rax
	cmpl	$0, 72700(%rax)
	je	.LBB21_10
# %bb.5:                                # %if.then
	movl	$0, -4(%rbp)
.LBB21_6:                               # %for.cond15
                                        # =>This Inner Loop Header: Depth=1
	movl	-4(%rbp), %ecx
	movq	img, %rax
	movl	64(%rax), %eax
	cltd
	movl	$2, %esi
	idivl	%esi
	cmpl	%eax, %ecx
	jge	.LBB21_9
# %bb.7:                                # %for.body19
                                        #   in Loop: Header=BB21_6 Depth=1
	movq	imgUV_com, %rax
	movq	(%rax), %rax
	movl	-4(%rbp), %ecx
	shll	$1, %ecx
	movslq	%ecx, %rcx
	movq	(%rax,%rcx,8), %rdi
	movq	enc_top_picture, %rax
	movq	6464(%rax), %rax
	movq	(%rax), %rax
	movslq	-4(%rbp), %rcx
	movq	(%rax,%rcx,8), %rsi
	movq	img, %rax
	movslq	56(%rax), %rdx
	shlq	$1, %rdx
	callq	memcpy
	movq	imgUV_com, %rax
	movq	(%rax), %rax
	movl	-4(%rbp), %ecx
	shll	$1, %ecx
	addl	$1, %ecx
	movslq	%ecx, %rcx
	movq	(%rax,%rcx,8), %rdi
	movq	enc_bottom_picture, %rax
	movq	6464(%rax), %rax
	movq	(%rax), %rax
	movslq	-4(%rbp), %rcx
	movq	(%rax,%rcx,8), %rsi
	movq	img, %rax
	movslq	56(%rax), %rdx
	shlq	$1, %rdx
	callq	memcpy
	movq	imgUV_com, %rax
	movq	8(%rax), %rax
	movl	-4(%rbp), %ecx
	shll	$1, %ecx
	movslq	%ecx, %rcx
	movq	(%rax,%rcx,8), %rdi
	movq	enc_top_picture, %rax
	movq	6464(%rax), %rax
	movq	8(%rax), %rax
	movslq	-4(%rbp), %rcx
	movq	(%rax,%rcx,8), %rsi
	movq	img, %rax
	movslq	56(%rax), %rdx
	shlq	$1, %rdx
	callq	memcpy
	movq	imgUV_com, %rax
	movq	8(%rax), %rax
	movl	-4(%rbp), %ecx
	shll	$1, %ecx
	addl	$1, %ecx
	movslq	%ecx, %rcx
	movq	(%rax,%rcx,8), %rdi
	movq	enc_bottom_picture, %rax
	movq	6464(%rax), %rax
	movq	8(%rax), %rax
	movslq	-4(%rbp), %rcx
	movq	(%rax,%rcx,8), %rsi
	movq	img, %rax
	movslq	56(%rax), %rdx
	shlq	$1, %rdx
	callq	memcpy
# %bb.8:                                # %for.inc64
                                        #   in Loop: Header=BB21_6 Depth=1
	movl	-4(%rbp), %eax
	addl	$1, %eax
	movl	%eax, -4(%rbp)
	jmp	.LBB21_6
.LBB21_9:                               # %for.end66
	jmp	.LBB21_10
.LBB21_10:                              # %if.end
	addq	$16, %rsp
	popq	%rbp
	.cfi_def_cfa %rsp, 8
	retq
.Lfunc_end21:
	.size	combine_field, .Lfunc_end21-combine_field
	.cfi_endproc
                                        # -- End function
	.globl	decide_fld_frame        # -- Begin function decide_fld_frame
	.p2align	4, 0x90
	.type	decide_fld_frame,@function
decide_fld_frame:                       # @decide_fld_frame
	.cfi_startproc
# %bb.0:                                # %rand_bb
	pushq	%rbp
	.cfi_def_cfa_offset 16
	.cfi_offset %rbp, -16
	movq	%rsp, %rbp
	.cfi_def_cfa_register %rbp
	pushq	%r14
	pushq	%rbx
	subq	$16, %rsp
	.cfi_offset %rbx, -32
	.cfi_offset %r14, -24
	vmovsd	%xmm2, -32(%rbp)        # 8-byte Spill
	movl	%esi, %r14d
	movl	%edi, %ebx
	vmovss	%xmm1, -24(%rbp)        # 4-byte Spill
	vmovss	%xmm0, -20(%rbp)        # 4-byte Spill
	callq	get_urand
	cmpl	$0, %eax
	jne	.LBB22_9
# %bb.1:                                # %func_decide_fld_frame.1
	vmovss	-20(%rbp), %xmm0        # 4-byte Reload
                                        # xmm0 = mem[0],zero,zero,zero
	vmovss	-24(%rbp), %xmm1        # 4-byte Reload
                                        # xmm1 = mem[0],zero,zero,zero
	movl	%ebx, %edi
	movl	%r14d, %esi
	vmovsd	-32(%rbp), %xmm2        # 8-byte Reload
                                        # xmm2 = mem[0],zero
	callq	decide_fld_frame.1
	addq	$16, %rsp
	popq	%rbx
	popq	%r14
	popq	%rbp
	.cfi_def_cfa %rsp, 8
	retq
.LBB22_2:                               # %func_decide_fld_frame.21
	.cfi_def_cfa %rbp, 16
	movl	%ebx, %edi
	movl	%r14d, %esi
	callq	decide_fld_frame.21
	addq	$16, %rsp
	popq	%rbx
	popq	%r14
	popq	%rbp
	.cfi_def_cfa %rsp, 8
	retq
.LBB22_3:                               # %func_decide_fld_frame.22
	.cfi_def_cfa %rbp, 16
	movl	%ebx, %edi
	movl	%r14d, %esi
	callq	decide_fld_frame.22
	addq	$16, %rsp
	popq	%rbx
	popq	%r14
	popq	%rbp
	.cfi_def_cfa %rsp, 8
	retq
.LBB22_4:                               # %func_decide_fld_frame.42
	.cfi_def_cfa %rbp, 16
	movl	%ebx, %edi
	movl	%r14d, %esi
	callq	decide_fld_frame.42
	addq	$16, %rsp
	popq	%rbx
	popq	%r14
	popq	%rbp
	.cfi_def_cfa %rsp, 8
	retq
.LBB22_5:                               # %func_decide_fld_frame.64
	.cfi_def_cfa %rbp, 16
	movl	%ebx, %edi
	movl	%r14d, %esi
	callq	decide_fld_frame.64
	addq	$16, %rsp
	popq	%rbx
	popq	%r14
	popq	%rbp
	.cfi_def_cfa %rsp, 8
	retq
.LBB22_6:                               # %func_decide_fld_frame.66
	.cfi_def_cfa %rbp, 16
	movl	%ebx, %edi
	movl	%r14d, %esi
	callq	decide_fld_frame.66
	addq	$16, %rsp
	popq	%rbx
	popq	%r14
	popq	%rbp
	.cfi_def_cfa %rsp, 8
	retq
.LBB22_7:                               # %func_decide_fld_frame.83
	.cfi_def_cfa %rbp, 16
	movl	%ebx, %edi
	movl	%r14d, %esi
	callq	decide_fld_frame.83
	addq	$16, %rsp
	popq	%rbx
	popq	%r14
	popq	%rbp
	.cfi_def_cfa %rsp, 8
	retq
.LBB22_8:                               # %func_decide_fld_frame.84
	.cfi_def_cfa %rbp, 16
	movl	%ebx, %edi
	movl	%r14d, %esi
	callq	decide_fld_frame.84
	addq	$16, %rsp
	popq	%rbx
	popq	%r14
	popq	%rbp
	.cfi_def_cfa %rsp, 8
	retq
.LBB22_9:                               # %ctrl0
	.cfi_def_cfa %rbp, 16
	vmovss	-20(%rbp), %xmm0        # 4-byte Reload
                                        # xmm0 = mem[0],zero,zero,zero
	vmovss	-24(%rbp), %xmm1        # 4-byte Reload
                                        # xmm1 = mem[0],zero,zero,zero
	vmovsd	-32(%rbp), %xmm2        # 8-byte Reload
                                        # xmm2 = mem[0],zero
	cmpl	$1, %eax
	je	.LBB22_2
# %bb.10:                               # %ctrl1
	cmpl	$2, %eax
	je	.LBB22_3
# %bb.11:                               # %ctrl2
	cmpl	$3, %eax
	je	.LBB22_4
# %bb.12:                               # %ctrl3
	cmpl	$4, %eax
	je	.LBB22_5
# %bb.13:                               # %ctrl4
	cmpl	$5, %eax
	je	.LBB22_6
# %bb.14:                               # %ctrl5
	cmpl	$6, %eax
	je	.LBB22_7
	jmp	.LBB22_8
.Lfunc_end22:
	.size	decide_fld_frame, .Lfunc_end22-decide_fld_frame
	.cfi_endproc
                                        # -- End function
	.globl	process_2nd_IGOP        # -- Begin function process_2nd_IGOP
	.p2align	4, 0x90
	.type	process_2nd_IGOP,@function
process_2nd_IGOP:                       # @process_2nd_IGOP
	.cfi_startproc
# %bb.0:                                # %entry
	pushq	%rbp
	.cfi_def_cfa_offset 16
	.cfi_offset %rbp, -16
	movq	%rsp, %rbp
	.cfi_def_cfa_register %rbp
	movl	$0, -4(%rbp)
	movq	img, %rax
	movl	(%rax), %eax
	movq	input, %rcx
	movl	8(%rcx), %ecx
	subl	$1, %ecx
	cmpl	%ecx, %eax
	jne	.LBB23_2
# %bb.1:                                # %if.then
	movl	$1, -4(%rbp)
.LBB23_2:                               # %if.end
	movq	input, %rax
	cmpl	$0, 2916(%rax)
	jne	.LBB23_4
# %bb.3:                                # %if.then2
	jmp	.LBB23_8
.LBB23_4:                               # %if.end3
	cmpl	$0, -4(%rbp)
	je	.LBB23_6
# %bb.5:                                # %lor.lhs.false
	cmpl	$0, In2ndIGOP
	je	.LBB23_7
.LBB23_6:                               # %if.then5
	jmp	.LBB23_8
.LBB23_7:                               # %if.end6
	movl	$1, In2ndIGOP
	movq	input, %rax
	movl	8(%rax), %eax
	movl	%eax, start_frame_no_in_this_IGOP
	movq	input, %rax
	movl	8(%rax), %eax
	subl	$1, %eax
	movq	input, %rcx
	movl	20(%rcx), %ecx
	addl	$1, %ecx
	imull	%ecx, %eax
	addl	$1, %eax
	movl	%eax, start_tr_in_this_IGOP
	movq	input, %rax
	movl	8(%rax), %eax
	movq	input, %rcx
	addl	2916(%rcx), %eax
	movq	input, %rcx
	movl	%eax, 8(%rcx)
	movq	img, %rax
	movl	$0, 8(%rax)
.LBB23_8:                               # %return
	popq	%rbp
	.cfi_def_cfa %rsp, 8
	retq
.Lfunc_end23:
	.size	process_2nd_IGOP, .Lfunc_end23-process_2nd_IGOP
	.cfi_endproc
                                        # -- End function
	.globl	SetImgType              # -- Begin function SetImgType
	.p2align	4, 0x90
	.type	SetImgType,@function
SetImgType:                             # @SetImgType
	.cfi_startproc
# %bb.0:                                # %entry
	pushq	%rbp
	.cfi_def_cfa_offset 16
	.cfi_offset %rbp, -16
	movq	%rsp, %rbp
	.cfi_def_cfa_register %rbp
	movq	input, %rax
	cmpl	$0, 1224(%rax)
	jne	.LBB24_9
# %bb.1:                                # %if.then
	movq	img, %rax
	movl	(%rax), %eax
	subl	start_frame_no_in_this_IGOP, %eax
	cmpl	$0, %eax
	jne	.LBB24_3
# %bb.2:                                # %if.then2
	movq	img, %rax
	movl	$2, 24(%rax)
	jmp	.LBB24_8
.LBB24_3:                               # %if.else
	movq	img, %rax
	movl	$0, 24(%rax)
	movq	input, %rax
	cmpl	$0, 1272(%rax)
	je	.LBB24_7
# %bb.4:                                # %if.then4
	movq	img, %rax
	movl	(%rax), %eax
	subl	start_frame_no_in_this_IGOP, %eax
	movq	input, %rcx
	cltd
	idivl	1272(%rcx)
	cmpl	$0, %edx
	jne	.LBB24_6
# %bb.5:                                # %if.then9
	movq	img, %rax
	movl	$3, 24(%rax)
.LBB24_6:                               # %if.end
	jmp	.LBB24_7
.LBB24_7:                               # %if.end11
	jmp	.LBB24_8
.LBB24_8:                               # %if.end12
	jmp	.LBB24_17
.LBB24_9:                               # %if.else13
	movq	img, %rax
	movl	(%rax), %eax
	subl	start_frame_no_in_this_IGOP, %eax
	movq	input, %rcx
	cltd
	idivl	1224(%rcx)
	cmpl	$0, %edx
	jne	.LBB24_11
# %bb.10:                               # %if.then19
	movq	img, %rax
	movl	$2, 24(%rax)
	jmp	.LBB24_16
.LBB24_11:                              # %if.else21
	movq	img, %rax
	movl	$0, 24(%rax)
	movq	input, %rax
	cmpl	$0, 1272(%rax)
	je	.LBB24_15
# %bb.12:                               # %if.then25
	movq	img, %rax
	movl	(%rax), %eax
	subl	start_frame_no_in_this_IGOP, %eax
	movq	input, %rcx
	cltd
	idivl	1272(%rcx)
	cmpl	$0, %edx
	jne	.LBB24_14
# %bb.13:                               # %if.then31
	movq	img, %rax
	movl	$3, 24(%rax)
.LBB24_14:                              # %if.end33
	jmp	.LBB24_15
.LBB24_15:                              # %if.end34
	jmp	.LBB24_16
.LBB24_16:                              # %if.end35
	jmp	.LBB24_17
.LBB24_17:                              # %if.end36
	popq	%rbp
	.cfi_def_cfa %rsp, 8
	retq
.Lfunc_end24:
	.size	SetImgType, .Lfunc_end24-SetImgType
	.cfi_endproc
                                        # -- End function
	.globl	decide_fld_frame.1      # -- Begin function decide_fld_frame.1
	.p2align	4, 0x90
	.type	decide_fld_frame.1,@function
decide_fld_frame.1:                     # @decide_fld_frame.1
	.cfi_startproc
# %bb.0:                                # %entry
	pushq	%rbp
	.cfi_def_cfa_offset 16
	.cfi_offset %rbp, -16
	movq	%rsp, %rbp
	.cfi_def_cfa_register %rbp
	pushq	%rbx
	subq	$56, %rsp
	.cfi_offset %rbx, -24
	movl	$359769711, -24(%rbp)   # imm = 0x1571A66F
	vmovss	%xmm0, -28(%rbp)
	vmovss	%xmm1, -20(%rbp)
	movl	%edi, -32(%rbp)
	movl	%esi, -16(%rbp)
	vmovsd	%xmm2, -40(%rbp)
	vcvtsi2sdl	-16(%rbp), %xmm0, %xmm0
	vmulsd	-40(%rbp), %xmm0, %xmm0
	vmovss	-28(%rbp), %xmm1        # xmm1 = mem[0],zero,zero,zero
	vcvtss2sd	%xmm1, %xmm0, %xmm1
	vaddsd	%xmm1, %xmm0, %xmm0
	vmovsd	%xmm0, -56(%rbp)
	vcvtsi2sdl	-32(%rbp), %xmm0, %xmm0
	vmulsd	-40(%rbp), %xmm0, %xmm0
	vmovss	-20(%rbp), %xmm1        # xmm1 = mem[0],zero,zero,zero
	vcvtss2sd	%xmm1, %xmm0, %xmm1
	vaddsd	%xmm1, %xmm0, %xmm0
	vmovsd	%xmm0, -48(%rbp)
	vmovsd	-48(%rbp), %xmm0        # xmm0 = mem[0],zero
	vucomisd	-56(%rbp), %xmm0
	jbe	.LBB25_2
# %bb.1:                                # %if.then
	movl	$0, -12(%rbp)
	jmp	.LBB25_3
.LBB25_2:                               # %if.else
	movl	$1, -12(%rbp)
.LBB25_3:                               # %return
	movl	-12(%rbp), %ebx
	cmpl	$359769711, -24(%rbp)   # imm = 0x1571A66F
	jne	.LBB25_5
.LBB25_4:
	movl	%ebx, %eax
	addq	$56, %rsp
	popq	%rbx
	popq	%rbp
	.cfi_def_cfa %rsp, 8
	retq
.LBB25_5:                               # %func_exit
	.cfi_def_cfa %rbp, 16
	callq	detect_breach
	jmp	.LBB25_4
.Lfunc_end25:
	.size	decide_fld_frame.1, .Lfunc_end25-decide_fld_frame.1
	.cfi_endproc
                                        # -- End function
	.globl	free_mem_mv.2           # -- Begin function free_mem_mv.2
	.p2align	4, 0x90
	.type	free_mem_mv.2,@function
free_mem_mv.2:                          # @free_mem_mv.2
	.cfi_startproc
# %bb.0:                                # %entry
	pushq	%rbp
	.cfi_def_cfa_offset 16
	.cfi_offset %rbp, -16
	movq	%rsp, %rbp
	.cfi_def_cfa_register %rbp
	subq	$48, %rsp
	movl	$56869810, -36(%rbp)    # imm = 0x363C3B2
	movq	%rdi, -32(%rbp)
	movl	$0, -4(%rbp)
.LBB26_1:                               # %for.cond
                                        # =>This Loop Header: Depth=1
                                        #     Child Loop BB26_3 Depth 2
                                        #       Child Loop BB26_5 Depth 3
                                        #         Child Loop BB26_7 Depth 4
                                        #           Child Loop BB26_9 Depth 5
	cmpl	$4, -4(%rbp)
	jge	.LBB26_20
# %bb.2:                                # %for.body
                                        #   in Loop: Header=BB26_1 Depth=1
	movl	$0, -8(%rbp)
.LBB26_3:                               # %for.cond1
                                        #   Parent Loop BB26_1 Depth=1
                                        # =>  This Loop Header: Depth=2
                                        #       Child Loop BB26_5 Depth 3
                                        #         Child Loop BB26_7 Depth 4
                                        #           Child Loop BB26_9 Depth 5
	cmpl	$4, -8(%rbp)
	jge	.LBB26_18
# %bb.4:                                # %for.body3
                                        #   in Loop: Header=BB26_3 Depth=2
	movl	$0, -12(%rbp)
.LBB26_5:                               # %for.cond4
                                        #   Parent Loop BB26_1 Depth=1
                                        #     Parent Loop BB26_3 Depth=2
                                        # =>    This Loop Header: Depth=3
                                        #         Child Loop BB26_7 Depth 4
                                        #           Child Loop BB26_9 Depth 5
	cmpl	$2, -12(%rbp)
	jge	.LBB26_16
# %bb.6:                                # %for.body6
                                        #   in Loop: Header=BB26_5 Depth=3
	movl	$0, -16(%rbp)
.LBB26_7:                               # %for.cond7
                                        #   Parent Loop BB26_1 Depth=1
                                        #     Parent Loop BB26_3 Depth=2
                                        #       Parent Loop BB26_5 Depth=3
                                        # =>      This Loop Header: Depth=4
                                        #           Child Loop BB26_9 Depth 5
	movl	-16(%rbp), %eax
	movq	img, %rcx
	cmpl	36(%rcx), %eax
	jge	.LBB26_14
# %bb.8:                                # %for.body9
                                        #   in Loop: Header=BB26_7 Depth=4
	movl	$0, -20(%rbp)
.LBB26_9:                               # %for.cond10
                                        #   Parent Loop BB26_1 Depth=1
                                        #     Parent Loop BB26_3 Depth=2
                                        #       Parent Loop BB26_5 Depth=3
                                        #         Parent Loop BB26_7 Depth=4
                                        # =>        This Inner Loop Header: Depth=5
	cmpl	$9, -20(%rbp)
	jge	.LBB26_12
# %bb.10:                               # %for.body12
                                        #   in Loop: Header=BB26_9 Depth=5
	movq	-32(%rbp), %rax
	movslq	-4(%rbp), %rcx
	movq	(%rax,%rcx,8), %rax
	movslq	-8(%rbp), %rcx
	movq	(%rax,%rcx,8), %rax
	movslq	-12(%rbp), %rcx
	movq	(%rax,%rcx,8), %rax
	movslq	-16(%rbp), %rcx
	movq	(%rax,%rcx,8), %rax
	movslq	-20(%rbp), %rcx
	movq	(%rax,%rcx,8), %rdi
	callq	free
# %bb.11:                               # %for.inc
                                        #   in Loop: Header=BB26_9 Depth=5
	movl	-20(%rbp), %eax
	addl	$1, %eax
	movl	%eax, -20(%rbp)
	jmp	.LBB26_9
.LBB26_12:                              # %for.end
                                        #   in Loop: Header=BB26_7 Depth=4
	movq	-32(%rbp), %rax
	movslq	-4(%rbp), %rcx
	movq	(%rax,%rcx,8), %rax
	movslq	-8(%rbp), %rcx
	movq	(%rax,%rcx,8), %rax
	movslq	-12(%rbp), %rcx
	movq	(%rax,%rcx,8), %rax
	movslq	-16(%rbp), %rcx
	movq	(%rax,%rcx,8), %rdi
	callq	free
# %bb.13:                               # %for.inc29
                                        #   in Loop: Header=BB26_7 Depth=4
	movl	-16(%rbp), %eax
	addl	$1, %eax
	movl	%eax, -16(%rbp)
	jmp	.LBB26_7
.LBB26_14:                              # %for.end31
                                        #   in Loop: Header=BB26_5 Depth=3
	movq	-32(%rbp), %rax
	movslq	-4(%rbp), %rcx
	movq	(%rax,%rcx,8), %rax
	movslq	-8(%rbp), %rcx
	movq	(%rax,%rcx,8), %rax
	movslq	-12(%rbp), %rcx
	movq	(%rax,%rcx,8), %rdi
	callq	free
# %bb.15:                               # %for.inc38
                                        #   in Loop: Header=BB26_5 Depth=3
	movl	-12(%rbp), %eax
	addl	$1, %eax
	movl	%eax, -12(%rbp)
	jmp	.LBB26_5
.LBB26_16:                              # %for.end40
                                        #   in Loop: Header=BB26_3 Depth=2
	movq	-32(%rbp), %rax
	movslq	-4(%rbp), %rcx
	movq	(%rax,%rcx,8), %rax
	movslq	-8(%rbp), %rcx
	movq	(%rax,%rcx,8), %rdi
	callq	free
# %bb.17:                               # %for.inc45
                                        #   in Loop: Header=BB26_3 Depth=2
	movl	-8(%rbp), %eax
	addl	$1, %eax
	movl	%eax, -8(%rbp)
	jmp	.LBB26_3
.LBB26_18:                              # %for.end47
                                        #   in Loop: Header=BB26_1 Depth=1
	movq	-32(%rbp), %rax
	movslq	-4(%rbp), %rcx
	movq	(%rax,%rcx,8), %rdi
	callq	free
# %bb.19:                               # %for.inc50
                                        #   in Loop: Header=BB26_1 Depth=1
	movl	-4(%rbp), %eax
	addl	$1, %eax
	movl	%eax, -4(%rbp)
	jmp	.LBB26_1
.LBB26_20:                              # %for.end52
	movq	-32(%rbp), %rdi
	callq	free
	cmpl	$56869810, -36(%rbp)    # imm = 0x363C3B2
	jne	.LBB26_22
.LBB26_21:
	addq	$48, %rsp
	popq	%rbp
	.cfi_def_cfa %rsp, 8
	retq
.LBB26_22:                              # %func_exit
	.cfi_def_cfa %rbp, 16
	callq	detect_breach
	jmp	.LBB26_21
.Lfunc_end26:
	.size	free_mem_mv.2, .Lfunc_end26-free_mem_mv.2
	.cfi_endproc
                                        # -- End function
	.globl	get_mem_ACcoeff.3       # -- Begin function get_mem_ACcoeff.3
	.p2align	4, 0x90
	.type	get_mem_ACcoeff.3,@function
get_mem_ACcoeff.3:                      # @get_mem_ACcoeff.3
	.cfi_startproc
# %bb.0:                                # %entry
	pushq	%rbp
	.cfi_def_cfa_offset 16
	.cfi_offset %rbp, -16
	movq	%rsp, %rbp
	.cfi_def_cfa_register %rbp
	pushq	%rbx
	subq	$40, %rsp
	.cfi_offset %rbx, -24
	movl	$1797592416, -36(%rbp)  # imm = 0x6B251560
	movq	%rdi, -32(%rbp)
	movq	img, %rax
	movl	72692(%rax), %eax
	addl	$4, %eax
	movl	%eax, -24(%rbp)
	movslq	-24(%rbp), %rdi
	movl	$8, %esi
	callq	calloc
	movq	-32(%rbp), %rcx
	movq	%rax, (%rcx)
	cmpq	$0, %rax
	jne	.LBB27_2
# %bb.1:                                # %if.then
	movabsq	$.L.str.200, %rdi
	callq	no_mem_exit
.LBB27_2:                               # %if.end
	movl	$0, -12(%rbp)
.LBB27_3:                               # %for.cond
                                        # =>This Loop Header: Depth=1
                                        #     Child Loop BB27_7 Depth 2
                                        #       Child Loop BB27_11 Depth 3
	movl	-12(%rbp), %eax
	cmpl	-24(%rbp), %eax
	jge	.LBB27_20
# %bb.4:                                # %for.body
                                        #   in Loop: Header=BB27_3 Depth=1
	movl	$4, %edi
	movl	$8, %esi
	callq	calloc
	movq	-32(%rbp), %rcx
	movq	(%rcx), %rcx
	movslq	-12(%rbp), %rdx
	movq	%rax, (%rcx,%rdx,8)
	cmpq	$0, %rax
	jne	.LBB27_6
# %bb.5:                                # %if.then7
                                        #   in Loop: Header=BB27_3 Depth=1
	movabsq	$.L.str.200, %rdi
	callq	no_mem_exit
.LBB27_6:                               # %if.end8
                                        #   in Loop: Header=BB27_3 Depth=1
	movl	$0, -16(%rbp)
.LBB27_7:                               # %for.cond9
                                        #   Parent Loop BB27_3 Depth=1
                                        # =>  This Loop Header: Depth=2
                                        #       Child Loop BB27_11 Depth 3
	cmpl	$4, -16(%rbp)
	jge	.LBB27_18
# %bb.8:                                # %for.body12
                                        #   in Loop: Header=BB27_7 Depth=2
	movl	$2, %edi
	movl	$8, %esi
	callq	calloc
	movq	-32(%rbp), %rcx
	movq	(%rcx), %rcx
	movslq	-12(%rbp), %rdx
	movq	(%rcx,%rdx,8), %rcx
	movslq	-16(%rbp), %rdx
	movq	%rax, (%rcx,%rdx,8)
	cmpq	$0, %rax
	jne	.LBB27_10
# %bb.9:                                # %if.then20
                                        #   in Loop: Header=BB27_7 Depth=2
	movabsq	$.L.str.200, %rdi
	callq	no_mem_exit
.LBB27_10:                              # %if.end21
                                        #   in Loop: Header=BB27_7 Depth=2
	movl	$0, -20(%rbp)
.LBB27_11:                              # %for.cond22
                                        #   Parent Loop BB27_3 Depth=1
                                        #     Parent Loop BB27_7 Depth=2
                                        # =>    This Inner Loop Header: Depth=3
	cmpl	$2, -20(%rbp)
	jge	.LBB27_16
# %bb.12:                               # %for.body25
                                        #   in Loop: Header=BB27_11 Depth=3
	movl	$65, %edi
	movl	$4, %esi
	callq	calloc
	movq	-32(%rbp), %rcx
	movq	(%rcx), %rcx
	movslq	-12(%rbp), %rdx
	movq	(%rcx,%rdx,8), %rcx
	movslq	-16(%rbp), %rdx
	movq	(%rcx,%rdx,8), %rcx
	movslq	-20(%rbp), %rdx
	movq	%rax, (%rcx,%rdx,8)
	cmpq	$0, %rax
	jne	.LBB27_14
# %bb.13:                               # %if.then35
                                        #   in Loop: Header=BB27_11 Depth=3
	movabsq	$.L.str.200, %rdi
	callq	no_mem_exit
.LBB27_14:                              # %if.end36
                                        #   in Loop: Header=BB27_11 Depth=3
	jmp	.LBB27_15
.LBB27_15:                              # %for.inc
                                        #   in Loop: Header=BB27_11 Depth=3
	movl	-20(%rbp), %eax
	addl	$1, %eax
	movl	%eax, -20(%rbp)
	jmp	.LBB27_11
.LBB27_16:                              # %for.end
                                        #   in Loop: Header=BB27_7 Depth=2
	jmp	.LBB27_17
.LBB27_17:                              # %for.inc37
                                        #   in Loop: Header=BB27_7 Depth=2
	movl	-16(%rbp), %eax
	addl	$1, %eax
	movl	%eax, -16(%rbp)
	jmp	.LBB27_7
.LBB27_18:                              # %for.end39
                                        #   in Loop: Header=BB27_3 Depth=1
	jmp	.LBB27_19
.LBB27_19:                              # %for.inc40
                                        #   in Loop: Header=BB27_3 Depth=1
	movl	-12(%rbp), %eax
	addl	$1, %eax
	movl	%eax, -12(%rbp)
	jmp	.LBB27_3
.LBB27_20:                              # %for.end42
	movl	-24(%rbp), %eax
	shll	$2, %eax
	shll	$1, %eax
	imull	$65, %eax, %eax
	movslq	%eax, %rbx
	shlq	$2, %rbx
	cmpl	$1797592416, -36(%rbp)  # imm = 0x6B251560
	jne	.LBB27_22
.LBB27_21:
	movl	%ebx, %eax
	addq	$40, %rsp
	popq	%rbx
	popq	%rbp
	.cfi_def_cfa %rsp, 8
	retq
.LBB27_22:                              # %func_exit
	.cfi_def_cfa %rbp, 16
	callq	detect_breach
	jmp	.LBB27_21
.Lfunc_end27:
	.size	get_mem_ACcoeff.3, .Lfunc_end27-get_mem_ACcoeff.3
	.cfi_endproc
                                        # -- End function
	.globl	report_frame_statistic.4 # -- Begin function report_frame_statistic.4
	.p2align	4, 0x90
	.type	report_frame_statistic.4,@function
report_frame_statistic.4:               # @report_frame_statistic.4
	.cfi_startproc
# %bb.0:                                # %entry
	pushq	%rbp
	.cfi_def_cfa_offset 16
	.cfi_offset %rbp, -16
	movq	%rsp, %rbp
	.cfi_def_cfa_register %rbp
	pushq	%r15
	pushq	%r14
	pushq	%rbx
	subq	$1080, %rsp             # imm = 0x438
	.cfi_offset %rbx, -40
	.cfi_offset %r14, -32
	.cfi_offset %r15, -24
	movl	$1967273365, -44(%rbp)  # imm = 0x75423595
	movq	$0, -32(%rbp)
	movabsq	$.L.str.4, %rdi
	movabsq	$.L.str.5, %rsi
	callq	fopen
	movq	%rax, -32(%rbp)
	cmpq	$0, %rax
	jne	.LBB28_5
# %bb.1:                                # %if.then
	movabsq	$.L.str.4, %rdi
	movabsq	$.L.str.6, %rsi
	callq	fopen
	movq	%rax, -32(%rbp)
	cmpq	$0, %rax
	jne	.LBB28_3
# %bb.2:                                # %if.then3
	movabsq	$errortext, %rdi
	movl	$300, %esi              # imm = 0x12C
	movabsq	$.L.str.7, %rdx
	movabsq	$.L.str.8, %rcx
	movb	$0, %al
	callq	snprintf
	movabsq	$errortext, %rdi
	movl	$500, %esi              # imm = 0x1F4
	callq	error
	jmp	.LBB28_4
.LBB28_3:                               # %if.else
	movq	-32(%rbp), %rdi
	movabsq	$.L.str.9, %rsi
	movb	$0, %al
	callq	fprintf
	movq	-32(%rbp), %rdi
	movabsq	$.L.str.10, %rsi
	movb	$0, %al
	callq	fprintf
	movq	-32(%rbp), %rdi
	movabsq	$.L.str.9, %rsi
	movb	$0, %al
	callq	fprintf
.LBB28_4:                               # %if.end
	jmp	.LBB28_8
.LBB28_5:                               # %if.else8
	movq	-32(%rbp), %rdi
	callq	fclose
	movabsq	$.L.str.4, %rdi
	movabsq	$.L.str.6, %rsi
	callq	fopen
	movq	%rax, -32(%rbp)
	cmpq	$0, %rax
	jne	.LBB28_7
# %bb.6:                                # %if.then12
	movabsq	$errortext, %rdi
	movl	$300, %esi              # imm = 0x12C
	movabsq	$.L.str.7, %rdx
	movabsq	$.L.str.8, %rcx
	movb	$0, %al
	callq	snprintf
	movabsq	$errortext, %rdi
	movl	$500, %esi              # imm = 0x1F4
	callq	error
.LBB28_7:                               # %if.end14
	jmp	.LBB28_8
.LBB28_8:                               # %if.end15
	cmpl	$0, frame_statistic_start
	je	.LBB28_10
# %bb.9:                                # %if.then16
	movq	-32(%rbp), %rdi
	movabsq	$.L.str.11, %rsi
	movb	$0, %al
	callq	fprintf
	movq	-32(%rbp), %rdi
	movabsq	$.L.str.9, %rsi
	movb	$0, %al
	callq	fprintf
.LBB28_10:                              # %if.end19
	movq	-32(%rbp), %rdi
	movabsq	$.L.str.12, %rsi
	movabsq	$.L.str.13, %rdx
	movabsq	$.L.str.14, %rcx
	movb	$0, %al
	callq	fprintf
	xorl	%edi, %edi
	callq	time
	movq	%rax, -64(%rbp)
	leaq	-64(%rbp), %rdi
	callq	time
	leaq	-64(%rbp), %rdi
	callq	localtime
	leaq	-1104(%rbp), %rdi
	movq	%rax, -56(%rbp)
	movq	-56(%rbp), %rcx
	movl	$1000, %esi             # imm = 0x3E8
	movabsq	$.L.str.15, %rdx
	callq	strftime
	leaq	-1104(%rbp), %rdx
	movq	-32(%rbp), %rdi
	movabsq	$.L.str.16, %rsi
	movb	$0, %al
	callq	fprintf
	leaq	-1104(%rbp), %rdi
	movq	-56(%rbp), %rcx
	movl	$1000, %esi             # imm = 0x3E8
	movabsq	$.L.str.17, %rdx
	callq	strftime
	leaq	-1104(%rbp), %rdx
	movq	-32(%rbp), %rdi
	movabsq	$.L.str.18, %rsi
	movb	$0, %al
	callq	fprintf
	movl	$0, -36(%rbp)
.LBB28_11:                              # %for.cond
                                        # =>This Inner Loop Header: Depth=1
	cmpl	$20, -36(%rbp)
	jge	.LBB28_17
# %bb.12:                               # %for.body
                                        #   in Loop: Header=BB28_11 Depth=1
	xorl	%r15d, %r15d
	movq	input, %r14
	addq	$224, %r14
	movl	-36(%rbp), %ebx
	movq	input, %rdi
	addq	$224, %rdi
	callq	strlen
	subq	$20, %rax
	cmpl	%eax, %r15d
	jle	.LBB28_14
# %bb.13:                               # %cond.true
                                        #   in Loop: Header=BB28_11 Depth=1
	xorl	%eax, %eax
	jmp	.LBB28_15
.LBB28_14:                              # %cond.false
                                        #   in Loop: Header=BB28_11 Depth=1
	movq	input, %rdi
	addq	$224, %rdi
	callq	strlen
	subq	$20, %rax
.LBB28_15:                              # %cond.end
                                        #   in Loop: Header=BB28_11 Depth=1
	addl	%eax, %ebx
	movslq	%ebx, %rax
	movb	(%r14,%rax), %al
	movslq	-36(%rbp), %rcx
	movb	%al, -96(%rbp,%rcx)
# %bb.16:                               # %for.inc
                                        #   in Loop: Header=BB28_11 Depth=1
	movl	-36(%rbp), %eax
	addl	$1, %eax
	movl	%eax, -36(%rbp)
	jmp	.LBB28_11
.LBB28_17:                              # %for.end
	leaq	-96(%rbp), %rdx
	movq	-32(%rbp), %rdi
	movabsq	$.L.str.19, %rsi
	movb	$0, %al
	callq	fprintf
	movq	-32(%rbp), %rdi
	movl	frame_no, %edx
	movabsq	$.L.str.20, %rsi
	movb	$0, %al
	callq	fprintf
	movq	-32(%rbp), %rdi
	movq	img, %rax
	movl	40(%rax), %edx
	movabsq	$.L.str.20, %rsi
	movb	$0, %al
	callq	fprintf
	movq	-32(%rbp), %rdi
	movq	input, %rax
	movl	2880(%rax), %edx
	movq	input, %rax
	movl	2884(%rax), %ecx
	movabsq	$.L.str.21, %rsi
	movb	$0, %al
	callq	fprintf
	movq	img, %rax
	cmpl	$0, 72464(%rax)
	jne	.LBB28_19
# %bb.18:                               # %if.then51
	movq	stats, %rax
	movl	704(%rax), %eax
	movl	%eax, -40(%rbp)
	jmp	.LBB28_20
.LBB28_19:                              # %if.else52
	movq	stats, %rax
	movl	20(%rax), %eax
	subl	report_frame_statistic.last_bit_ctr_n, %eax
	movl	%eax, -40(%rbp)
	movq	stats, %rax
	movl	20(%rax), %eax
	movl	%eax, report_frame_statistic.last_bit_ctr_n
.LBB28_20:                              # %if.end55
	movq	-32(%rbp), %rdi
	movl	-40(%rbp), %edx
	movabsq	$.L.str.22, %rsi
	movb	$0, %al
	callq	fprintf
	movq	-32(%rbp), %rdi
	movq	snr, %rax
	vmovss	(%rax), %xmm0           # xmm0 = mem[0],zero,zero,zero
	vcvtss2sd	%xmm0, %xmm0, %xmm0
	movq	snr, %rax
	vmovss	4(%rax), %xmm1          # xmm1 = mem[0],zero,zero,zero
	vcvtss2sd	%xmm1, %xmm0, %xmm1
	movq	snr, %rax
	vmovss	8(%rax), %xmm2          # xmm2 = mem[0],zero,zero,zero
	vcvtss2sd	%xmm2, %xmm0, %xmm2
	movabsq	$.L.str.23, %rsi
	movb	$3, %al
	callq	fprintf
	movq	-32(%rbp), %rdi
	movq	stats, %rax
	movl	884(%rax), %edx
	subl	report_frame_statistic.last_mode_use+156, %edx
	movabsq	$.L.str.24, %rsi
	movb	$0, %al
	callq	fprintf
	movq	-32(%rbp), %rdi
	movq	stats, %rax
	movl	900(%rax), %edx
	subl	report_frame_statistic.last_mode_use+172, %edx
	movabsq	$.L.str.24, %rsi
	movb	$0, %al
	callq	fprintf
	movq	-32(%rbp), %rdi
	movq	stats, %rax
	movl	888(%rax), %edx
	subl	report_frame_statistic.last_mode_use+160, %edx
	movabsq	$.L.str.24, %rsi
	movb	$0, %al
	callq	fprintf
	movq	-32(%rbp), %rdi
	movq	stats, %rax
	movl	672(%rax), %edx
	subl	report_frame_statistic.last_mode_chroma_use, %edx
	movabsq	$.L.str.24, %rsi
	movb	$0, %al
	callq	fprintf
	movq	-32(%rbp), %rdi
	movq	stats, %rax
	movl	676(%rax), %edx
	subl	report_frame_statistic.last_mode_chroma_use+4, %edx
	movabsq	$.L.str.24, %rsi
	movb	$0, %al
	callq	fprintf
	movq	-32(%rbp), %rdi
	movq	stats, %rax
	movl	680(%rax), %edx
	subl	report_frame_statistic.last_mode_chroma_use+8, %edx
	movabsq	$.L.str.24, %rsi
	movb	$0, %al
	callq	fprintf
	movq	-32(%rbp), %rdi
	movq	stats, %rax
	movl	684(%rax), %edx
	subl	report_frame_statistic.last_mode_chroma_use+12, %edx
	movabsq	$.L.str.24, %rsi
	movb	$0, %al
	callq	fprintf
	movq	-32(%rbp), %rdi
	movq	stats, %rax
	movl	764(%rax), %edx
	subl	report_frame_statistic.last_mode_use+36, %edx
	movabsq	$.L.str.24, %rsi
	movb	$0, %al
	callq	fprintf
	movq	-32(%rbp), %rdi
	movq	stats, %rax
	movl	780(%rax), %edx
	subl	report_frame_statistic.last_mode_use+52, %edx
	movabsq	$.L.str.24, %rsi
	movb	$0, %al
	callq	fprintf
	movq	-32(%rbp), %rdi
	movq	stats, %rax
	movl	768(%rax), %edx
	subl	report_frame_statistic.last_mode_use+40, %edx
	movabsq	$.L.str.24, %rsi
	movb	$0, %al
	callq	fprintf
	movq	-32(%rbp), %rdi
	movq	stats, %rax
	movl	728(%rax), %edx
	subl	report_frame_statistic.last_mode_use, %edx
	movabsq	$.L.str.24, %rsi
	movb	$0, %al
	callq	fprintf
	movq	-32(%rbp), %rdi
	movq	stats, %rax
	movl	732(%rax), %edx
	subl	report_frame_statistic.last_mode_use+4, %edx
	movabsq	$.L.str.24, %rsi
	movb	$0, %al
	callq	fprintf
	movq	-32(%rbp), %rdi
	movq	stats, %rax
	movl	736(%rax), %edx
	subl	report_frame_statistic.last_mode_use+8, %edx
	movabsq	$.L.str.24, %rsi
	movb	$0, %al
	callq	fprintf
	movq	-32(%rbp), %rdi
	movq	stats, %rax
	movl	740(%rax), %edx
	subl	report_frame_statistic.last_mode_use+12, %edx
	movabsq	$.L.str.24, %rsi
	movb	$0, %al
	callq	fprintf
	movq	-32(%rbp), %rdi
	movq	stats, %rax
	movl	76(%rax), %edx
	movabsq	$.L.str.24, %rsi
	movb	$0, %al
	callq	fprintf
	movq	-32(%rbp), %rdi
	movq	stats, %rax
	movl	376(%rax), %edx
	movabsq	$.L.str.24, %rsi
	movb	$0, %al
	callq	fprintf
	movq	-32(%rbp), %rdi
	movq	stats, %rax
	movl	80(%rax), %edx
	movabsq	$.L.str.24, %rsi
	movb	$0, %al
	callq	fprintf
	movq	-32(%rbp), %rdi
	movq	stats, %rax
	movl	380(%rax), %edx
	movabsq	$.L.str.24, %rsi
	movb	$0, %al
	callq	fprintf
	movq	-32(%rbp), %rdi
	movq	stats, %rax
	movl	84(%rax), %edx
	movabsq	$.L.str.24, %rsi
	movb	$0, %al
	callq	fprintf
	movq	-32(%rbp), %rdi
	movq	stats, %rax
	movl	384(%rax), %edx
	movabsq	$.L.str.24, %rsi
	movb	$0, %al
	callq	fprintf
	movq	-32(%rbp), %rdi
	movq	stats, %rax
	movl	760(%rax), %edx
	subl	report_frame_statistic.last_mode_use+32, %edx
	movabsq	$.L.str.24, %rsi
	movb	$0, %al
	callq	fprintf
	movq	-32(%rbp), %rdi
	movq	stats, %rax
	movl	744(%rax), %edx
	subl	report_frame_statistic.last_mode_use+16, %edx
	movabsq	$.L.str.24, %rsi
	movb	$0, %al
	callq	fprintf
	movq	-32(%rbp), %rdi
	movq	stats, %rax
	movl	88(%rax), %edx
	movabsq	$.L.str.24, %rsi
	movb	$0, %al
	callq	fprintf
	movq	-32(%rbp), %rdi
	movq	stats, %rax
	movl	388(%rax), %edx
	movabsq	$.L.str.24, %rsi
	movb	$0, %al
	callq	fprintf
	movq	-32(%rbp), %rdi
	movq	stats, %rax
	movl	748(%rax), %edx
	subl	report_frame_statistic.last_mode_use+20, %edx
	movabsq	$.L.str.24, %rsi
	movb	$0, %al
	callq	fprintf
	movq	-32(%rbp), %rdi
	movq	stats, %rax
	movl	752(%rax), %edx
	subl	report_frame_statistic.last_mode_use+24, %edx
	movabsq	$.L.str.24, %rsi
	movb	$0, %al
	callq	fprintf
	movq	-32(%rbp), %rdi
	movq	stats, %rax
	movl	756(%rax), %edx
	subl	report_frame_statistic.last_mode_use+28, %edx
	movabsq	$.L.str.24, %rsi
	movb	$0, %al
	callq	fprintf
	movq	-32(%rbp), %rdi
	movq	stats, %rax
	movl	824(%rax), %edx
	subl	report_frame_statistic.last_mode_use+96, %edx
	movabsq	$.L.str.24, %rsi
	movb	$0, %al
	callq	fprintf
	movq	-32(%rbp), %rdi
	movq	stats, %rax
	movl	840(%rax), %edx
	subl	report_frame_statistic.last_mode_use+112, %edx
	movabsq	$.L.str.24, %rsi
	movb	$0, %al
	callq	fprintf
	movq	-32(%rbp), %rdi
	movq	stats, %rax
	movl	828(%rax), %edx
	subl	report_frame_statistic.last_mode_use+100, %edx
	movabsq	$.L.str.24, %rsi
	movb	$0, %al
	callq	fprintf
	movq	-32(%rbp), %rdi
	movq	stats, %rax
	movl	788(%rax), %edx
	subl	report_frame_statistic.last_mode_use+60, %edx
	movabsq	$.L.str.24, %rsi
	movb	$0, %al
	callq	fprintf
	movq	-32(%rbp), %rdi
	movq	stats, %rax
	movl	792(%rax), %edx
	subl	report_frame_statistic.last_mode_use+64, %edx
	movabsq	$.L.str.24, %rsi
	movb	$0, %al
	callq	fprintf
	movq	-32(%rbp), %rdi
	movq	stats, %rax
	movl	796(%rax), %edx
	subl	report_frame_statistic.last_mode_use+68, %edx
	movabsq	$.L.str.24, %rsi
	movb	$0, %al
	callq	fprintf
	movq	-32(%rbp), %rdi
	movq	stats, %rax
	movl	800(%rax), %edx
	subl	report_frame_statistic.last_mode_use+72, %edx
	movabsq	$.L.str.24, %rsi
	movb	$0, %al
	callq	fprintf
	movq	-32(%rbp), %rdi
	movq	stats, %rax
	movl	132(%rax), %edx
	movabsq	$.L.str.24, %rsi
	movb	$0, %al
	callq	fprintf
	movq	-32(%rbp), %rdi
	movq	stats, %rax
	movl	432(%rax), %edx
	movabsq	$.L.str.24, %rsi
	movb	$0, %al
	callq	fprintf
	movq	-32(%rbp), %rdi
	movq	stats, %rax
	movl	136(%rax), %edx
	movabsq	$.L.str.24, %rsi
	movb	$0, %al
	callq	fprintf
	movq	-32(%rbp), %rdi
	movq	stats, %rax
	movl	436(%rax), %edx
	movabsq	$.L.str.24, %rsi
	movb	$0, %al
	callq	fprintf
	movq	-32(%rbp), %rdi
	movq	stats, %rax
	movl	140(%rax), %edx
	movabsq	$.L.str.24, %rsi
	movb	$0, %al
	callq	fprintf
	movq	-32(%rbp), %rdi
	movq	stats, %rax
	movl	440(%rax), %edx
	movabsq	$.L.str.24, %rsi
	movb	$0, %al
	callq	fprintf
	movq	-32(%rbp), %rdi
	movq	stats, %rax
	movl	144(%rax), %edx
	movabsq	$.L.str.24, %rsi
	movb	$0, %al
	callq	fprintf
	movq	-32(%rbp), %rdi
	movq	stats, %rax
	movl	444(%rax), %edx
	movabsq	$.L.str.24, %rsi
	movb	$0, %al
	callq	fprintf
	movq	-32(%rbp), %rdi
	movq	stats, %rax
	movl	820(%rax), %edx
	subl	report_frame_statistic.last_mode_use+92, %edx
	movabsq	$.L.str.24, %rsi
	movb	$0, %al
	callq	fprintf
	movq	-32(%rbp), %rdi
	movq	stats, %rax
	movl	40(%rax), %edx
	movq	stats, %rax
	addl	44(%rax), %edx
	movl	report_frame_statistic.last_b8_mode_0+8, %eax
	addl	report_frame_statistic.last_b8_mode_0+12, %eax
	subl	%eax, %edx
	movabsq	$.L.str.24, %rsi
	movb	$0, %al
	callq	fprintf
	movq	-32(%rbp), %rdi
	movq	stats, %rax
	movl	44(%rax), %edx
	subl	report_frame_statistic.last_b8_mode_0+12, %edx
	movabsq	$.L.str.24, %rsi
	movb	$0, %al
	callq	fprintf
	movq	-32(%rbp), %rdi
	movq	stats, %rax
	movl	40(%rax), %edx
	subl	report_frame_statistic.last_b8_mode_0+8, %edx
	movabsq	$.L.str.24, %rsi
	movb	$0, %al
	callq	fprintf
	movq	-32(%rbp), %rdi
	movq	stats, %rax
	movl	804(%rax), %edx
	subl	report_frame_statistic.last_mode_use+76, %edx
	movabsq	$.L.str.24, %rsi
	movb	$0, %al
	callq	fprintf
	movq	-32(%rbp), %rdi
	movq	stats, %rax
	movl	148(%rax), %edx
	movabsq	$.L.str.24, %rsi
	movb	$0, %al
	callq	fprintf
	movq	-32(%rbp), %rdi
	movq	stats, %rax
	movl	448(%rax), %edx
	movabsq	$.L.str.24, %rsi
	movb	$0, %al
	callq	fprintf
	movq	-32(%rbp), %rdi
	movq	stats, %rax
	movl	808(%rax), %edx
	subl	report_frame_statistic.last_mode_use+80, %edx
	movabsq	$.L.str.24, %rsi
	movb	$0, %al
	callq	fprintf
	movq	-32(%rbp), %rdi
	movq	stats, %rax
	movl	812(%rax), %edx
	subl	report_frame_statistic.last_mode_use+84, %edx
	movabsq	$.L.str.24, %rsi
	movb	$0, %al
	callq	fprintf
	movq	-32(%rbp), %rdi
	movq	stats, %rax
	movl	816(%rax), %edx
	subl	report_frame_statistic.last_mode_use+88, %edx
	movabsq	$.L.str.24, %rsi
	movb	$0, %al
	callq	fprintf
	movq	-32(%rbp), %rdi
	movabsq	$.L.str.25, %rsi
	movb	$0, %al
	callq	fprintf
	movq	stats, %rax
	movl	884(%rax), %eax
	movl	%eax, report_frame_statistic.last_mode_use+156
	movq	stats, %rax
	movl	900(%rax), %eax
	movl	%eax, report_frame_statistic.last_mode_use+172
	movq	stats, %rax
	movl	888(%rax), %eax
	movl	%eax, report_frame_statistic.last_mode_use+160
	movl	$0, -36(%rbp)
.LBB28_21:                              # %for.cond309
                                        # =>This Inner Loop Header: Depth=1
	cmpl	$15, -36(%rbp)
	jge	.LBB28_24
# %bb.22:                               # %for.body312
                                        #   in Loop: Header=BB28_21 Depth=1
	movq	stats, %rax
	movslq	-36(%rbp), %rcx
	movl	728(%rax,%rcx,4), %eax
	movslq	-36(%rbp), %rcx
	movl	%eax, report_frame_statistic.last_mode_use(,%rcx,4)
	movq	stats, %rax
	movslq	-36(%rbp), %rcx
	movl	788(%rax,%rcx,4), %eax
	movslq	-36(%rbp), %rcx
	movl	%eax, report_frame_statistic.last_mode_use+60(,%rcx,4)
	movq	stats, %rax
	movslq	-36(%rbp), %rcx
	movl	$0, 72(%rax,%rcx,4)
	movq	stats, %rax
	movslq	-36(%rbp), %rcx
	movl	$0, 132(%rax,%rcx,4)
	movq	stats, %rax
	movslq	-36(%rbp), %rcx
	movl	$0, 372(%rax,%rcx,4)
	movq	stats, %rax
	movslq	-36(%rbp), %rcx
	movl	$0, 432(%rax,%rcx,4)
# %bb.23:                               # %for.inc341
                                        #   in Loop: Header=BB28_21 Depth=1
	movl	-36(%rbp), %eax
	addl	$1, %eax
	movl	%eax, -36(%rbp)
	jmp	.LBB28_21
.LBB28_24:                              # %for.end343
	movq	stats, %rax
	movl	40(%rax), %eax
	movl	%eax, report_frame_statistic.last_b8_mode_0+8
	movq	stats, %rax
	movl	44(%rax), %eax
	movl	%eax, report_frame_statistic.last_b8_mode_0+12
	movl	$0, -36(%rbp)
.LBB28_25:                              # %for.cond350
                                        # =>This Inner Loop Header: Depth=1
	cmpl	$4, -36(%rbp)
	jge	.LBB28_28
# %bb.26:                               # %for.body353
                                        #   in Loop: Header=BB28_25 Depth=1
	movq	stats, %rax
	movslq	-36(%rbp), %rcx
	movl	672(%rax,%rcx,4), %eax
	movslq	-36(%rbp), %rcx
	movl	%eax, report_frame_statistic.last_mode_chroma_use(,%rcx,4)
# %bb.27:                               # %for.inc359
                                        #   in Loop: Header=BB28_25 Depth=1
	movl	-36(%rbp), %eax
	addl	$1, %eax
	movl	%eax, -36(%rbp)
	jmp	.LBB28_25
.LBB28_28:                              # %for.end361
	movl	$0, frame_statistic_start
	movq	-32(%rbp), %rdi
	callq	fclose
	cmpl	$1967273365, -44(%rbp)  # imm = 0x75423595
	jne	.LBB28_30
.LBB28_29:
	addq	$1080, %rsp             # imm = 0x438
	popq	%rbx
	popq	%r14
	popq	%r15
	popq	%rbp
	.cfi_def_cfa %rsp, 8
	retq
.LBB28_30:                              # %func_exit
	.cfi_def_cfa %rbp, 16
	callq	detect_breach
	jmp	.LBB28_29
.Lfunc_end28:
	.size	report_frame_statistic.4, .Lfunc_end28-report_frame_statistic.4
	.cfi_endproc
                                        # -- End function
	.globl	free_mem_mv.5           # -- Begin function free_mem_mv.5
	.p2align	4, 0x90
	.type	free_mem_mv.5,@function
free_mem_mv.5:                          # @free_mem_mv.5
	.cfi_startproc
# %bb.0:                                # %entry
	pushq	%rbp
	.cfi_def_cfa_offset 16
	.cfi_offset %rbp, -16
	movq	%rsp, %rbp
	.cfi_def_cfa_register %rbp
	subq	$48, %rsp
	movl	$779439849, -36(%rbp)   # imm = 0x2E754EE9
	movq	%rdi, -32(%rbp)
	movl	$0, -4(%rbp)
.LBB29_1:                               # %for.cond
                                        # =>This Loop Header: Depth=1
                                        #     Child Loop BB29_3 Depth 2
                                        #       Child Loop BB29_5 Depth 3
                                        #         Child Loop BB29_7 Depth 4
                                        #           Child Loop BB29_9 Depth 5
	cmpl	$4, -4(%rbp)
	jge	.LBB29_20
# %bb.2:                                # %for.body
                                        #   in Loop: Header=BB29_1 Depth=1
	movl	$0, -8(%rbp)
.LBB29_3:                               # %for.cond1
                                        #   Parent Loop BB29_1 Depth=1
                                        # =>  This Loop Header: Depth=2
                                        #       Child Loop BB29_5 Depth 3
                                        #         Child Loop BB29_7 Depth 4
                                        #           Child Loop BB29_9 Depth 5
	cmpl	$4, -8(%rbp)
	jge	.LBB29_18
# %bb.4:                                # %for.body3
                                        #   in Loop: Header=BB29_3 Depth=2
	movl	$0, -12(%rbp)
.LBB29_5:                               # %for.cond4
                                        #   Parent Loop BB29_1 Depth=1
                                        #     Parent Loop BB29_3 Depth=2
                                        # =>    This Loop Header: Depth=3
                                        #         Child Loop BB29_7 Depth 4
                                        #           Child Loop BB29_9 Depth 5
	cmpl	$2, -12(%rbp)
	jge	.LBB29_16
# %bb.6:                                # %for.body6
                                        #   in Loop: Header=BB29_5 Depth=3
	movl	$0, -16(%rbp)
.LBB29_7:                               # %for.cond7
                                        #   Parent Loop BB29_1 Depth=1
                                        #     Parent Loop BB29_3 Depth=2
                                        #       Parent Loop BB29_5 Depth=3
                                        # =>      This Loop Header: Depth=4
                                        #           Child Loop BB29_9 Depth 5
	movl	-16(%rbp), %eax
	movq	img, %rcx
	cmpl	36(%rcx), %eax
	jge	.LBB29_14
# %bb.8:                                # %for.body9
                                        #   in Loop: Header=BB29_7 Depth=4
	movl	$0, -20(%rbp)
.LBB29_9:                               # %for.cond10
                                        #   Parent Loop BB29_1 Depth=1
                                        #     Parent Loop BB29_3 Depth=2
                                        #       Parent Loop BB29_5 Depth=3
                                        #         Parent Loop BB29_7 Depth=4
                                        # =>        This Inner Loop Header: Depth=5
	cmpl	$9, -20(%rbp)
	jge	.LBB29_12
# %bb.10:                               # %for.body12
                                        #   in Loop: Header=BB29_9 Depth=5
	movq	-32(%rbp), %rax
	movslq	-4(%rbp), %rcx
	movq	(%rax,%rcx,8), %rax
	movslq	-8(%rbp), %rcx
	movq	(%rax,%rcx,8), %rax
	movslq	-12(%rbp), %rcx
	movq	(%rax,%rcx,8), %rax
	movslq	-16(%rbp), %rcx
	movq	(%rax,%rcx,8), %rax
	movslq	-20(%rbp), %rcx
	movq	(%rax,%rcx,8), %rdi
	callq	free
# %bb.11:                               # %for.inc
                                        #   in Loop: Header=BB29_9 Depth=5
	movl	-20(%rbp), %eax
	addl	$1, %eax
	movl	%eax, -20(%rbp)
	jmp	.LBB29_9
.LBB29_12:                              # %for.end
                                        #   in Loop: Header=BB29_7 Depth=4
	movq	-32(%rbp), %rax
	movslq	-4(%rbp), %rcx
	movq	(%rax,%rcx,8), %rax
	movslq	-8(%rbp), %rcx
	movq	(%rax,%rcx,8), %rax
	movslq	-12(%rbp), %rcx
	movq	(%rax,%rcx,8), %rax
	movslq	-16(%rbp), %rcx
	movq	(%rax,%rcx,8), %rdi
	callq	free
# %bb.13:                               # %for.inc29
                                        #   in Loop: Header=BB29_7 Depth=4
	movl	-16(%rbp), %eax
	addl	$1, %eax
	movl	%eax, -16(%rbp)
	jmp	.LBB29_7
.LBB29_14:                              # %for.end31
                                        #   in Loop: Header=BB29_5 Depth=3
	movq	-32(%rbp), %rax
	movslq	-4(%rbp), %rcx
	movq	(%rax,%rcx,8), %rax
	movslq	-8(%rbp), %rcx
	movq	(%rax,%rcx,8), %rax
	movslq	-12(%rbp), %rcx
	movq	(%rax,%rcx,8), %rdi
	callq	free
# %bb.15:                               # %for.inc38
                                        #   in Loop: Header=BB29_5 Depth=3
	movl	-12(%rbp), %eax
	addl	$1, %eax
	movl	%eax, -12(%rbp)
	jmp	.LBB29_5
.LBB29_16:                              # %for.end40
                                        #   in Loop: Header=BB29_3 Depth=2
	movq	-32(%rbp), %rax
	movslq	-4(%rbp), %rcx
	movq	(%rax,%rcx,8), %rax
	movslq	-8(%rbp), %rcx
	movq	(%rax,%rcx,8), %rdi
	callq	free
# %bb.17:                               # %for.inc45
                                        #   in Loop: Header=BB29_3 Depth=2
	movl	-8(%rbp), %eax
	addl	$1, %eax
	movl	%eax, -8(%rbp)
	jmp	.LBB29_3
.LBB29_18:                              # %for.end47
                                        #   in Loop: Header=BB29_1 Depth=1
	movq	-32(%rbp), %rax
	movslq	-4(%rbp), %rcx
	movq	(%rax,%rcx,8), %rdi
	callq	free
# %bb.19:                               # %for.inc50
                                        #   in Loop: Header=BB29_1 Depth=1
	movl	-4(%rbp), %eax
	addl	$1, %eax
	movl	%eax, -4(%rbp)
	jmp	.LBB29_1
.LBB29_20:                              # %for.end52
	movq	-32(%rbp), %rdi
	callq	free
	cmpl	$779439849, -36(%rbp)   # imm = 0x2E754EE9
	jne	.LBB29_22
.LBB29_21:
	addq	$48, %rsp
	popq	%rbp
	.cfi_def_cfa %rsp, 8
	retq
.LBB29_22:                              # %func_exit
	.cfi_def_cfa %rbp, 16
	callq	detect_breach
	jmp	.LBB29_21
.Lfunc_end29:
	.size	free_mem_mv.5, .Lfunc_end29-free_mem_mv.5
	.cfi_endproc
                                        # -- End function
	.globl	free_mem_DCcoeff.6      # -- Begin function free_mem_DCcoeff.6
	.p2align	4, 0x90
	.type	free_mem_DCcoeff.6,@function
free_mem_DCcoeff.6:                     # @free_mem_DCcoeff.6
	.cfi_startproc
# %bb.0:                                # %entry
	pushq	%rbp
	.cfi_def_cfa_offset 16
	.cfi_offset %rbp, -16
	movq	%rsp, %rbp
	.cfi_def_cfa_register %rbp
	subq	$32, %rsp
	movl	$1670975129, -20(%rbp)  # imm = 0x63990E99
	movq	%rdi, -16(%rbp)
	movl	$0, -4(%rbp)
.LBB30_1:                               # %for.cond
                                        # =>This Loop Header: Depth=1
                                        #     Child Loop BB30_3 Depth 2
	cmpl	$3, -4(%rbp)
	jge	.LBB30_8
# %bb.2:                                # %for.body
                                        #   in Loop: Header=BB30_1 Depth=1
	movl	$0, -8(%rbp)
.LBB30_3:                               # %for.cond1
                                        #   Parent Loop BB30_1 Depth=1
                                        # =>  This Inner Loop Header: Depth=2
	cmpl	$2, -8(%rbp)
	jge	.LBB30_6
# %bb.4:                                # %for.body3
                                        #   in Loop: Header=BB30_3 Depth=2
	movq	-16(%rbp), %rax
	movslq	-4(%rbp), %rcx
	movq	(%rax,%rcx,8), %rax
	movslq	-8(%rbp), %rcx
	movq	(%rax,%rcx,8), %rdi
	callq	free
# %bb.5:                                # %for.inc
                                        #   in Loop: Header=BB30_3 Depth=2
	movl	-8(%rbp), %eax
	addl	$1, %eax
	movl	%eax, -8(%rbp)
	jmp	.LBB30_3
.LBB30_6:                               # %for.end
                                        #   in Loop: Header=BB30_1 Depth=1
	movq	-16(%rbp), %rax
	movslq	-4(%rbp), %rcx
	movq	(%rax,%rcx,8), %rdi
	callq	free
# %bb.7:                                # %for.inc8
                                        #   in Loop: Header=BB30_1 Depth=1
	movl	-4(%rbp), %eax
	addl	$1, %eax
	movl	%eax, -4(%rbp)
	jmp	.LBB30_1
.LBB30_8:                               # %for.end10
	movq	-16(%rbp), %rdi
	callq	free
	cmpl	$1670975129, -20(%rbp)  # imm = 0x63990E99
	jne	.LBB30_10
.LBB30_9:
	addq	$32, %rsp
	popq	%rbp
	.cfi_def_cfa %rsp, 8
	retq
.LBB30_10:                              # %func_exit
	.cfi_def_cfa %rbp, 16
	callq	detect_breach
	jmp	.LBB30_9
.Lfunc_end30:
	.size	free_mem_DCcoeff.6, .Lfunc_end30-free_mem_DCcoeff.6
	.cfi_endproc
                                        # -- End function
	.globl	free_global_buffers.7   # -- Begin function free_global_buffers.7
	.p2align	4, 0x90
	.type	free_global_buffers.7,@function
free_global_buffers.7:                  # @free_global_buffers.7
	.cfi_startproc
# %bb.0:                                # %entry
	pushq	%rbp
	.cfi_def_cfa_offset 16
	.cfi_offset %rbp, -16
	movq	%rsp, %rbp
	.cfi_def_cfa_register %rbp
	subq	$16, %rsp
	movl	$1604452649, -12(%rbp)  # imm = 0x5FA20129
	movq	last_P_no_frm, %rdi
	callq	free
	movq	last_P_no_fld, %rdi
	callq	free
	callq	free_orig_planes
	movq	input, %rax
	cmpl	$0, 1284(%rax)
	jne	.LBB31_3
# %bb.1:                                # %lor.lhs.false
	movq	input, %rax
	cmpl	$0, 1288(%rax)
	jne	.LBB31_3
# %bb.2:                                # %lor.lhs.false2
	movq	input, %rax
	cmpl	$0, 60(%rax)
	je	.LBB31_4
.LBB31_3:                               # %if.then
	movq	wp_weight, %rdi
	movl	$6, %esi
	callq	free_mem3Dint
	movq	wp_offset, %rdi
	movl	$6, %esi
	callq	free_mem3Dint
	movq	wbp_weight, %rdi
	movl	$6, %esi
	movl	$15, %edx
	callq	free_mem4Dint
.LBB31_4:                               # %if.end
	movq	input, %rax
	cmpl	$0, 1236(%rax)
	jne	.LBB31_6
# %bb.5:                                # %lor.lhs.false4
	movq	input, %rax
	cmpl	$0, 1316(%rax)
	jle	.LBB31_7
.LBB31_6:                               # %if.then6
	movq	direct_ref_idx, %rdi
	movl	$2, %esi
	callq	free_mem3Dshort
	movq	direct_pdir, %rdi
	callq	free_mem2Dshort
.LBB31_7:                               # %if.end7
	movq	img4Y_tmp, %rdi
	callq	free_mem2Dint
	movq	img, %rax
	movq	104(%rax), %rdi
	callq	free_mem2Dint
	movq	img, %rax
	movq	112(%rax), %rdi
	callq	free_mem2Dint
	movq	img, %rax
	movq	14168(%rax), %rdi
	callq	free
	movq	rddata_top_frame_mb+3136, %rdi
	callq	free_mem2Dint
	movq	input, %rax
	cmpl	$0, 216(%rax)
	je	.LBB31_9
# %bb.8:                                # %if.then9
	movq	img, %rax
	movq	71784(%rax), %rdi
	callq	free
.LBB31_9:                               # %if.end10
	movq	input, %rax
	cmpl	$2, 2464(%rax)
	jne	.LBB31_19
# %bb.10:                               # %if.then12
	movq	decs, %rax
	movq	(%rax), %rax
	movq	(%rax), %rdi
	callq	free
	movq	decs, %rax
	movq	(%rax), %rdi
	callq	free
	movq	decs, %rax
	movq	32(%rax), %rax
	movq	(%rax), %rdi
	callq	free
	movq	decs, %rax
	movq	32(%rax), %rdi
	callq	free
	movl	$0, -4(%rbp)
.LBB31_11:                              # %for.cond
                                        # =>This Loop Header: Depth=1
                                        #     Child Loop BB31_13 Depth 2
	movl	-4(%rbp), %eax
	movq	input, %rcx
	cmpl	2904(%rcx), %eax
	jge	.LBB31_18
# %bb.12:                               # %for.body
                                        #   in Loop: Header=BB31_11 Depth=1
	movq	decs, %rax
	movq	8(%rax), %rax
	movslq	-4(%rbp), %rcx
	movq	(%rax,%rcx,8), %rax
	movq	(%rax), %rdi
	callq	free
	movq	decs, %rax
	movq	8(%rax), %rax
	movslq	-4(%rbp), %rcx
	movq	(%rax,%rcx,8), %rdi
	callq	free
	movq	decs, %rax
	movq	24(%rax), %rax
	movslq	-4(%rbp), %rcx
	movq	(%rax,%rcx,8), %rax
	movq	(%rax), %rdi
	callq	free
	movq	decs, %rax
	movq	24(%rax), %rax
	movslq	-4(%rbp), %rcx
	movq	(%rax,%rcx,8), %rdi
	callq	free
	movl	$0, -8(%rbp)
.LBB31_13:                              # %for.cond28
                                        #   Parent Loop BB31_11 Depth=1
                                        # =>  This Inner Loop Header: Depth=2
	movl	-8(%rbp), %eax
	movq	img, %rcx
	movl	36(%rcx), %ecx
	addl	$1, %ecx
	cmpl	%ecx, %eax
	jge	.LBB31_16
# %bb.14:                               # %for.body30
                                        #   in Loop: Header=BB31_13 Depth=2
	movq	decs, %rax
	movq	16(%rax), %rax
	movslq	-4(%rbp), %rcx
	movq	(%rax,%rcx,8), %rax
	movslq	-8(%rbp), %rcx
	movq	(%rax,%rcx,8), %rax
	movq	(%rax), %rdi
	callq	free
	movq	decs, %rax
	movq	16(%rax), %rax
	movslq	-4(%rbp), %rcx
	movq	(%rax,%rcx,8), %rax
	movslq	-8(%rbp), %rcx
	movq	(%rax,%rcx,8), %rdi
	callq	free
# %bb.15:                               # %for.inc
                                        #   in Loop: Header=BB31_13 Depth=2
	movl	-8(%rbp), %eax
	addl	$1, %eax
	movl	%eax, -8(%rbp)
	jmp	.LBB31_13
.LBB31_16:                              # %for.end
                                        #   in Loop: Header=BB31_11 Depth=1
	movq	decs, %rax
	movq	16(%rax), %rax
	movslq	-4(%rbp), %rcx
	movq	(%rax,%rcx,8), %rdi
	callq	free
# %bb.17:                               # %for.inc44
                                        #   in Loop: Header=BB31_11 Depth=1
	movl	-4(%rbp), %eax
	addl	$1, %eax
	movl	%eax, -4(%rbp)
	jmp	.LBB31_11
.LBB31_18:                              # %for.end46
	movq	decs, %rax
	movq	8(%rax), %rdi
	callq	free
	movq	decs, %rax
	movq	24(%rax), %rdi
	callq	free
	movq	decs, %rax
	movq	16(%rax), %rdi
	callq	free
	movq	decs, %rax
	movq	40(%rax), %rax
	movq	(%rax), %rdi
	callq	free
	movq	decs, %rax
	movq	40(%rax), %rdi
	callq	free
	movq	decs, %rax
	movq	48(%rax), %rax
	movq	(%rax), %rdi
	callq	free
	movq	decs, %rax
	movq	48(%rax), %rdi
	callq	free
.LBB31_19:                              # %if.end54
	movq	input, %rax
	cmpl	$0, 2908(%rax)
	je	.LBB31_21
# %bb.20:                               # %if.then56
	movq	pixel_map, %rax
	movq	(%rax), %rdi
	callq	free
	movq	pixel_map, %rdi
	callq	free
	movq	refresh_map, %rax
	movq	(%rax), %rdi
	callq	free
	movq	refresh_map, %rdi
	callq	free
.LBB31_21:                              # %if.end59
	movq	active_sps, %rax
	cmpl	$0, 1148(%rax)
	jne	.LBB31_25
# %bb.22:                               # %if.then61
	movq	imgY_com, %rdi
	callq	free_mem2Dpel
	movq	img, %rax
	cmpl	$0, 72700(%rax)
	je	.LBB31_24
# %bb.23:                               # %if.then63
	movq	imgUV_com, %rdi
	movl	$2, %esi
	callq	free_mem3Dpel
.LBB31_24:                              # %if.end64
	jmp	.LBB31_25
.LBB31_25:                              # %if.end65
	movq	img, %rax
	movq	128(%rax), %rdi
	movq	img, %rax
	movl	72488(%rax), %esi
	callq	free_mem3Dint
	movq	input, %rax
	cmpl	$0, 3292(%rax)
	je	.LBB31_27
# %bb.26:                               # %if.then67
	movb	$0, %al
	callq	free_mem_FME
.LBB31_27:                              # %if.end68
	movq	input, %rax
	cmpl	$0, 3236(%rax)
	je	.LBB31_29
# %bb.28:                               # %if.then70
	movb	$0, %al
	callq	rc_free
.LBB31_29:                              # %if.end71
	cmpl	$1604452649, -12(%rbp)  # imm = 0x5FA20129
	jne	.LBB31_31
.LBB31_30:
	addq	$16, %rsp
	popq	%rbp
	.cfi_def_cfa %rsp, 8
	retq
.LBB31_31:                              # %func_exit
	.cfi_def_cfa %rbp, 16
	callq	detect_breach
	jmp	.LBB31_30
.Lfunc_end31:
	.size	free_global_buffers.7, .Lfunc_end31-free_global_buffers.7
	.cfi_endproc
                                        # -- End function
	.globl	get_mem_mv.8            # -- Begin function get_mem_mv.8
	.p2align	4, 0x90
	.type	get_mem_mv.8,@function
get_mem_mv.8:                           # @get_mem_mv.8
	.cfi_startproc
# %bb.0:                                # %entry
	pushq	%rbp
	.cfi_def_cfa_offset 16
	.cfi_offset %rbp, -16
	movq	%rsp, %rbp
	.cfi_def_cfa_register %rbp
	pushq	%rbx
	subq	$40, %rsp
	.cfi_offset %rbx, -24
	movl	$238856986, -44(%rbp)   # imm = 0xE3CAB1A
	movq	%rdi, -40(%rbp)
	movl	$4, %edi
	movl	$8, %esi
	callq	calloc
	movq	-40(%rbp), %rcx
	movq	%rax, (%rcx)
	cmpq	$0, %rax
	jne	.LBB32_2
# %bb.1:                                # %if.then
	movabsq	$.L.str.199, %rdi
	callq	no_mem_exit
.LBB32_2:                               # %if.end
	movl	$0, -12(%rbp)
.LBB32_3:                               # %for.cond
                                        # =>This Loop Header: Depth=1
                                        #     Child Loop BB32_7 Depth 2
                                        #       Child Loop BB32_11 Depth 3
                                        #         Child Loop BB32_15 Depth 4
                                        #           Child Loop BB32_19 Depth 5
	cmpl	$4, -12(%rbp)
	jge	.LBB32_32
# %bb.4:                                # %for.body
                                        #   in Loop: Header=BB32_3 Depth=1
	movl	$4, %edi
	movl	$8, %esi
	callq	calloc
	movq	-40(%rbp), %rcx
	movq	(%rcx), %rcx
	movslq	-12(%rbp), %rdx
	movq	%rax, (%rcx,%rdx,8)
	cmpq	$0, %rax
	jne	.LBB32_6
# %bb.5:                                # %if.then4
                                        #   in Loop: Header=BB32_3 Depth=1
	movabsq	$.L.str.199, %rdi
	callq	no_mem_exit
.LBB32_6:                               # %if.end5
                                        #   in Loop: Header=BB32_3 Depth=1
	movl	$0, -16(%rbp)
.LBB32_7:                               # %for.cond6
                                        #   Parent Loop BB32_3 Depth=1
                                        # =>  This Loop Header: Depth=2
                                        #       Child Loop BB32_11 Depth 3
                                        #         Child Loop BB32_15 Depth 4
                                        #           Child Loop BB32_19 Depth 5
	cmpl	$4, -16(%rbp)
	jge	.LBB32_30
# %bb.8:                                # %for.body8
                                        #   in Loop: Header=BB32_7 Depth=2
	movl	$2, %edi
	movl	$8, %esi
	callq	calloc
	movq	-40(%rbp), %rcx
	movq	(%rcx), %rcx
	movslq	-12(%rbp), %rdx
	movq	(%rcx,%rdx,8), %rcx
	movslq	-16(%rbp), %rdx
	movq	%rax, (%rcx,%rdx,8)
	cmpq	$0, %rax
	jne	.LBB32_10
# %bb.9:                                # %if.then15
                                        #   in Loop: Header=BB32_7 Depth=2
	movabsq	$.L.str.199, %rdi
	callq	no_mem_exit
.LBB32_10:                              # %if.end16
                                        #   in Loop: Header=BB32_7 Depth=2
	movl	$0, -20(%rbp)
.LBB32_11:                              # %for.cond17
                                        #   Parent Loop BB32_3 Depth=1
                                        #     Parent Loop BB32_7 Depth=2
                                        # =>    This Loop Header: Depth=3
                                        #         Child Loop BB32_15 Depth 4
                                        #           Child Loop BB32_19 Depth 5
	cmpl	$2, -20(%rbp)
	jge	.LBB32_28
# %bb.12:                               # %for.body19
                                        #   in Loop: Header=BB32_11 Depth=3
	movq	img, %rax
	movslq	36(%rax), %rdi
	movl	$8, %esi
	callq	calloc
	movq	-40(%rbp), %rcx
	movq	(%rcx), %rcx
	movslq	-12(%rbp), %rdx
	movq	(%rcx,%rdx,8), %rcx
	movslq	-16(%rbp), %rdx
	movq	(%rcx,%rdx,8), %rcx
	movslq	-20(%rbp), %rdx
	movq	%rax, (%rcx,%rdx,8)
	cmpq	$0, %rax
	jne	.LBB32_14
# %bb.13:                               # %if.then29
                                        #   in Loop: Header=BB32_11 Depth=3
	movabsq	$.L.str.199, %rdi
	callq	no_mem_exit
.LBB32_14:                              # %if.end30
                                        #   in Loop: Header=BB32_11 Depth=3
	movl	$0, -24(%rbp)
.LBB32_15:                              # %for.cond31
                                        #   Parent Loop BB32_3 Depth=1
                                        #     Parent Loop BB32_7 Depth=2
                                        #       Parent Loop BB32_11 Depth=3
                                        # =>      This Loop Header: Depth=4
                                        #           Child Loop BB32_19 Depth 5
	movl	-24(%rbp), %eax
	movq	img, %rcx
	cmpl	36(%rcx), %eax
	jge	.LBB32_26
# %bb.16:                               # %for.body35
                                        #   in Loop: Header=BB32_15 Depth=4
	movl	$9, %edi
	movl	$8, %esi
	callq	calloc
	movq	-40(%rbp), %rcx
	movq	(%rcx), %rcx
	movslq	-12(%rbp), %rdx
	movq	(%rcx,%rdx,8), %rcx
	movslq	-16(%rbp), %rdx
	movq	(%rcx,%rdx,8), %rcx
	movslq	-20(%rbp), %rdx
	movq	(%rcx,%rdx,8), %rcx
	movslq	-24(%rbp), %rdx
	movq	%rax, (%rcx,%rdx,8)
	cmpq	$0, %rax
	jne	.LBB32_18
# %bb.17:                               # %if.then47
                                        #   in Loop: Header=BB32_15 Depth=4
	movabsq	$.L.str.199, %rdi
	callq	no_mem_exit
.LBB32_18:                              # %if.end48
                                        #   in Loop: Header=BB32_15 Depth=4
	movl	$0, -28(%rbp)
.LBB32_19:                              # %for.cond49
                                        #   Parent Loop BB32_3 Depth=1
                                        #     Parent Loop BB32_7 Depth=2
                                        #       Parent Loop BB32_11 Depth=3
                                        #         Parent Loop BB32_15 Depth=4
                                        # =>        This Inner Loop Header: Depth=5
	cmpl	$9, -28(%rbp)
	jge	.LBB32_24
# %bb.20:                               # %for.body52
                                        #   in Loop: Header=BB32_19 Depth=5
	movl	$2, %edi
	movl	$2, %esi
	callq	calloc
	movq	-40(%rbp), %rcx
	movq	(%rcx), %rcx
	movslq	-12(%rbp), %rdx
	movq	(%rcx,%rdx,8), %rcx
	movslq	-16(%rbp), %rdx
	movq	(%rcx,%rdx,8), %rcx
	movslq	-20(%rbp), %rdx
	movq	(%rcx,%rdx,8), %rcx
	movslq	-24(%rbp), %rdx
	movq	(%rcx,%rdx,8), %rcx
	movslq	-28(%rbp), %rdx
	movq	%rax, (%rcx,%rdx,8)
	cmpq	$0, %rax
	jne	.LBB32_22
# %bb.21:                               # %if.then66
                                        #   in Loop: Header=BB32_19 Depth=5
	movabsq	$.L.str.199, %rdi
	callq	no_mem_exit
.LBB32_22:                              # %if.end67
                                        #   in Loop: Header=BB32_19 Depth=5
	jmp	.LBB32_23
.LBB32_23:                              # %for.inc
                                        #   in Loop: Header=BB32_19 Depth=5
	movl	-28(%rbp), %eax
	addl	$1, %eax
	movl	%eax, -28(%rbp)
	jmp	.LBB32_19
.LBB32_24:                              # %for.end
                                        #   in Loop: Header=BB32_15 Depth=4
	jmp	.LBB32_25
.LBB32_25:                              # %for.inc68
                                        #   in Loop: Header=BB32_15 Depth=4
	movl	-24(%rbp), %eax
	addl	$1, %eax
	movl	%eax, -24(%rbp)
	jmp	.LBB32_15
.LBB32_26:                              # %for.end70
                                        #   in Loop: Header=BB32_11 Depth=3
	jmp	.LBB32_27
.LBB32_27:                              # %for.inc71
                                        #   in Loop: Header=BB32_11 Depth=3
	movl	-20(%rbp), %eax
	addl	$1, %eax
	movl	%eax, -20(%rbp)
	jmp	.LBB32_11
.LBB32_28:                              # %for.end73
                                        #   in Loop: Header=BB32_7 Depth=2
	jmp	.LBB32_29
.LBB32_29:                              # %for.inc74
                                        #   in Loop: Header=BB32_7 Depth=2
	movl	-16(%rbp), %eax
	addl	$1, %eax
	movl	%eax, -16(%rbp)
	jmp	.LBB32_7
.LBB32_30:                              # %for.end76
                                        #   in Loop: Header=BB32_3 Depth=1
	jmp	.LBB32_31
.LBB32_31:                              # %for.inc77
                                        #   in Loop: Header=BB32_3 Depth=1
	movl	-12(%rbp), %eax
	addl	$1, %eax
	movl	%eax, -12(%rbp)
	jmp	.LBB32_3
.LBB32_32:                              # %for.end79
	movq	img, %rax
	movl	36(%rax), %eax
	shll	$4, %eax
	imull	$9, %eax, %eax
	shll	$1, %eax
	movslq	%eax, %rbx
	shlq	$1, %rbx
	cmpl	$238856986, -44(%rbp)   # imm = 0xE3CAB1A
	jne	.LBB32_34
.LBB32_33:
	movl	%ebx, %eax
	addq	$40, %rsp
	popq	%rbx
	popq	%rbp
	.cfi_def_cfa %rsp, 8
	retq
.LBB32_34:                              # %func_exit
	.cfi_def_cfa %rbp, 16
	callq	detect_breach
	jmp	.LBB32_33
.Lfunc_end32:
	.size	get_mem_mv.8, .Lfunc_end32-get_mem_mv.8
	.cfi_endproc
                                        # -- End function
	.globl	free_mem_ACcoeff.9      # -- Begin function free_mem_ACcoeff.9
	.p2align	4, 0x90
	.type	free_mem_ACcoeff.9,@function
free_mem_ACcoeff.9:                     # @free_mem_ACcoeff.9
	.cfi_startproc
# %bb.0:                                # %entry
	pushq	%rbp
	.cfi_def_cfa_offset 16
	.cfi_offset %rbp, -16
	movq	%rsp, %rbp
	.cfi_def_cfa_register %rbp
	subq	$32, %rsp
	movl	$789336575, -28(%rbp)   # imm = 0x2F0C51FF
	movq	%rdi, -24(%rbp)
	movl	$0, -4(%rbp)
.LBB33_1:                               # %for.cond
                                        # =>This Loop Header: Depth=1
                                        #     Child Loop BB33_3 Depth 2
                                        #       Child Loop BB33_5 Depth 3
	movl	-4(%rbp), %eax
	movq	img, %rcx
	movl	72692(%rcx), %ecx
	addl	$4, %ecx
	cmpl	%ecx, %eax
	jge	.LBB33_12
# %bb.2:                                # %for.body
                                        #   in Loop: Header=BB33_1 Depth=1
	movl	$0, -8(%rbp)
.LBB33_3:                               # %for.cond1
                                        #   Parent Loop BB33_1 Depth=1
                                        # =>  This Loop Header: Depth=2
                                        #       Child Loop BB33_5 Depth 3
	cmpl	$4, -8(%rbp)
	jge	.LBB33_10
# %bb.4:                                # %for.body3
                                        #   in Loop: Header=BB33_3 Depth=2
	movl	$0, -12(%rbp)
.LBB33_5:                               # %for.cond4
                                        #   Parent Loop BB33_1 Depth=1
                                        #     Parent Loop BB33_3 Depth=2
                                        # =>    This Inner Loop Header: Depth=3
	cmpl	$2, -12(%rbp)
	jge	.LBB33_8
# %bb.6:                                # %for.body6
                                        #   in Loop: Header=BB33_5 Depth=3
	movq	-24(%rbp), %rax
	movslq	-4(%rbp), %rcx
	movq	(%rax,%rcx,8), %rax
	movslq	-8(%rbp), %rcx
	movq	(%rax,%rcx,8), %rax
	movslq	-12(%rbp), %rcx
	movq	(%rax,%rcx,8), %rdi
	callq	free
# %bb.7:                                # %for.inc
                                        #   in Loop: Header=BB33_5 Depth=3
	movl	-12(%rbp), %eax
	addl	$1, %eax
	movl	%eax, -12(%rbp)
	jmp	.LBB33_5
.LBB33_8:                               # %for.end
                                        #   in Loop: Header=BB33_3 Depth=2
	movq	-24(%rbp), %rax
	movslq	-4(%rbp), %rcx
	movq	(%rax,%rcx,8), %rax
	movslq	-8(%rbp), %rcx
	movq	(%rax,%rcx,8), %rdi
	callq	free
# %bb.9:                                # %for.inc15
                                        #   in Loop: Header=BB33_3 Depth=2
	movl	-8(%rbp), %eax
	addl	$1, %eax
	movl	%eax, -8(%rbp)
	jmp	.LBB33_3
.LBB33_10:                              # %for.end17
                                        #   in Loop: Header=BB33_1 Depth=1
	movq	-24(%rbp), %rax
	movslq	-4(%rbp), %rcx
	movq	(%rax,%rcx,8), %rdi
	callq	free
# %bb.11:                               # %for.inc20
                                        #   in Loop: Header=BB33_1 Depth=1
	movl	-4(%rbp), %eax
	addl	$1, %eax
	movl	%eax, -4(%rbp)
	jmp	.LBB33_1
.LBB33_12:                              # %for.end22
	movq	-24(%rbp), %rdi
	callq	free
	cmpl	$789336575, -28(%rbp)   # imm = 0x2F0C51FF
	jne	.LBB33_14
.LBB33_13:
	addq	$32, %rsp
	popq	%rbp
	.cfi_def_cfa %rsp, 8
	retq
.LBB33_14:                              # %func_exit
	.cfi_def_cfa %rbp, 16
	callq	detect_breach
	jmp	.LBB33_13
.Lfunc_end33:
	.size	free_mem_ACcoeff.9, .Lfunc_end33-free_mem_ACcoeff.9
	.cfi_endproc
                                        # -- End function
	.globl	free_mem_ACcoeff.10     # -- Begin function free_mem_ACcoeff.10
	.p2align	4, 0x90
	.type	free_mem_ACcoeff.10,@function
free_mem_ACcoeff.10:                    # @free_mem_ACcoeff.10
	.cfi_startproc
# %bb.0:                                # %entry
	pushq	%rbp
	.cfi_def_cfa_offset 16
	.cfi_offset %rbp, -16
	movq	%rsp, %rbp
	.cfi_def_cfa_register %rbp
	subq	$32, %rsp
	movl	$579124562, -28(%rbp)   # imm = 0x2284BD52
	movq	%rdi, -24(%rbp)
	movl	$0, -4(%rbp)
.LBB34_1:                               # %for.cond
                                        # =>This Loop Header: Depth=1
                                        #     Child Loop BB34_3 Depth 2
                                        #       Child Loop BB34_5 Depth 3
	movl	-4(%rbp), %eax
	movq	img, %rcx
	movl	72692(%rcx), %ecx
	addl	$4, %ecx
	cmpl	%ecx, %eax
	jge	.LBB34_12
# %bb.2:                                # %for.body
                                        #   in Loop: Header=BB34_1 Depth=1
	movl	$0, -8(%rbp)
.LBB34_3:                               # %for.cond1
                                        #   Parent Loop BB34_1 Depth=1
                                        # =>  This Loop Header: Depth=2
                                        #       Child Loop BB34_5 Depth 3
	cmpl	$4, -8(%rbp)
	jge	.LBB34_10
# %bb.4:                                # %for.body3
                                        #   in Loop: Header=BB34_3 Depth=2
	movl	$0, -12(%rbp)
.LBB34_5:                               # %for.cond4
                                        #   Parent Loop BB34_1 Depth=1
                                        #     Parent Loop BB34_3 Depth=2
                                        # =>    This Inner Loop Header: Depth=3
	cmpl	$2, -12(%rbp)
	jge	.LBB34_8
# %bb.6:                                # %for.body6
                                        #   in Loop: Header=BB34_5 Depth=3
	movq	-24(%rbp), %rax
	movslq	-4(%rbp), %rcx
	movq	(%rax,%rcx,8), %rax
	movslq	-8(%rbp), %rcx
	movq	(%rax,%rcx,8), %rax
	movslq	-12(%rbp), %rcx
	movq	(%rax,%rcx,8), %rdi
	callq	free
# %bb.7:                                # %for.inc
                                        #   in Loop: Header=BB34_5 Depth=3
	movl	-12(%rbp), %eax
	addl	$1, %eax
	movl	%eax, -12(%rbp)
	jmp	.LBB34_5
.LBB34_8:                               # %for.end
                                        #   in Loop: Header=BB34_3 Depth=2
	movq	-24(%rbp), %rax
	movslq	-4(%rbp), %rcx
	movq	(%rax,%rcx,8), %rax
	movslq	-8(%rbp), %rcx
	movq	(%rax,%rcx,8), %rdi
	callq	free
# %bb.9:                                # %for.inc15
                                        #   in Loop: Header=BB34_3 Depth=2
	movl	-8(%rbp), %eax
	addl	$1, %eax
	movl	%eax, -8(%rbp)
	jmp	.LBB34_3
.LBB34_10:                              # %for.end17
                                        #   in Loop: Header=BB34_1 Depth=1
	movq	-24(%rbp), %rax
	movslq	-4(%rbp), %rcx
	movq	(%rax,%rcx,8), %rdi
	callq	free
# %bb.11:                               # %for.inc20
                                        #   in Loop: Header=BB34_1 Depth=1
	movl	-4(%rbp), %eax
	addl	$1, %eax
	movl	%eax, -4(%rbp)
	jmp	.LBB34_1
.LBB34_12:                              # %for.end22
	movq	-24(%rbp), %rdi
	callq	free
	cmpl	$579124562, -28(%rbp)   # imm = 0x2284BD52
	jne	.LBB34_14
.LBB34_13:
	addq	$32, %rsp
	popq	%rbp
	.cfi_def_cfa %rsp, 8
	retq
.LBB34_14:                              # %func_exit
	.cfi_def_cfa %rbp, 16
	callq	detect_breach
	jmp	.LBB34_13
.Lfunc_end34:
	.size	free_mem_ACcoeff.10, .Lfunc_end34-free_mem_ACcoeff.10
	.cfi_endproc
                                        # -- End function
	.globl	init_img.11             # -- Begin function init_img.11
	.p2align	4, 0x90
	.type	init_img.11,@function
init_img.11:                            # @init_img.11
	.cfi_startproc
# %bb.0:                                # %entry
	pushq	%rbp
	.cfi_def_cfa_offset 16
	.cfi_offset %rbp, -16
	movq	%rsp, %rbp
	.cfi_def_cfa_register %rbp
	subq	$16, %rsp
	movl	$908952962, -16(%rbp)   # imm = 0x362D8582
	movq	input, %rax
	movl	72(%rax), %eax
	movq	img, %rcx
	movl	%eax, 72700(%rcx)
	movq	input, %rax
	movl	3296(%rax), %eax
	movq	img, %rcx
	movl	%eax, 72660(%rcx)
	movq	img, %rax
	movl	72660(%rax), %eax
	movq	img, %rcx
	cmpl	72664(%rcx), %eax
	jg	.LBB35_2
# %bb.1:                                # %lor.lhs.false
	movq	img, %rax
	cmpl	$0, 72700(%rax)
	jne	.LBB35_3
.LBB35_2:                               # %if.then
	movq	img, %rax
	movl	72660(%rax), %eax
	cmpl	$8, %eax
	movl	$16, %eax
	movl	$8, %ecx
	cmovgl	%eax, %ecx
	movq	img, %rax
	movl	%ecx, 72656(%rax)
	jmp	.LBB35_4
.LBB35_3:                               # %if.else
	movq	img, %rax
	movl	72664(%rax), %eax
	cmpl	$8, %eax
	movl	$16, %eax
	movl	$8, %ecx
	cmovgl	%eax, %ecx
	movq	img, %rax
	movl	%ecx, 72656(%rax)
.LBB35_4:                               # %if.end
	movq	img, %rax
	movl	72660(%rax), %eax
	subl	$8, %eax
	imull	$6, %eax, %eax
	movq	img, %rcx
	movl	%eax, 72668(%rcx)
	movq	img, %rax
	movl	72660(%rax), %eax
	subl	$8, %eax
	shll	$1, %eax
	movq	img, %rcx
	movl	%eax, 72676(%rcx)
	movq	img, %rax
	movl	72660(%rax), %ecx
	subl	$1, %ecx
                                        # kill: def $cl killed $ecx
	movl	$1, %eax
	movl	$1, %edx
	shll	%cl, %edx
	movq	img, %rcx
	movl	%edx, 72680(%rcx)
	movq	img, %rcx
	movl	72660(%rcx), %ecx
                                        # kill: def $cl killed $ecx
	shll	%cl, %eax
	subl	$1, %eax
	movq	img, %rcx
	movl	%eax, 72684(%rcx)
	movq	img, %rax
	cmpl	$0, 72700(%rax)
	je	.LBB35_12
# %bb.5:                                # %if.then22
	movq	input, %rax
	movl	3300(%rax), %eax
	movq	img, %rcx
	movl	%eax, 72664(%rcx)
	movq	img, %rax
	movl	72664(%rax), %ecx
                                        # kill: def $cl killed $ecx
	movl	$1, %eax
	movl	$1, %edx
	shll	%cl, %edx
	subl	$1, %edx
	movq	img, %rcx
	movl	%edx, 72688(%rcx)
	movq	img, %rcx
	movl	72700(%rcx), %ecx
                                        # kill: def $cl killed $ecx
	shll	%cl, %eax
	andl	$-2, %eax
	movq	img, %rcx
	movl	%eax, 72692(%rcx)
	movq	img, %rax
	movl	72692(%rax), %eax
	shll	$1, %eax
	movq	img, %rcx
	movl	%eax, 72696(%rcx)
	movq	img, %rax
	cmpl	$1, 72700(%rax)
	movb	$1, %al
	je	.LBB35_7
# %bb.6:                                # %lor.rhs
	movq	img, %rax
	cmpl	$2, 72700(%rax)
	sete	%al
.LBB35_7:                               # %lor.end
	testb	$1, %al
	movl	$8, %eax
	movl	$16, %ecx
	cmovnel	%eax, %ecx
	movq	img, %rax
	movl	%ecx, 72708(%rax)
	movq	img, %rax
	cmpl	$3, 72700(%rax)
	movb	$1, %al
	je	.LBB35_9
# %bb.8:                                # %lor.rhs38
	movq	img, %rax
	cmpl	$2, 72700(%rax)
	sete	%al
.LBB35_9:                               # %lor.end41
	testb	$1, %al
	movl	$16, %eax
	movl	$8, %ecx
	cmovnel	%eax, %ecx
	movq	img, %rax
	movl	%ecx, 72712(%rax)
	movq	img, %rax
	movl	72664(%rax), %eax
	subl	$8, %eax
	imull	$6, %eax, %eax
	movq	img, %rcx
	movl	%eax, 72672(%rcx)
	movq	img, %rax
	cmpl	$0, 72724(%rax)
	je	.LBB35_11
# %bb.10:                               # %if.then46
	movq	img, %rax
	movl	72672(%rax), %ecx
	addl	$6, %ecx
	movl	%ecx, 72672(%rax)
.LBB35_11:                              # %if.end48
	movq	active_pps, %rax
	movl	212(%rax), %eax
	movq	img, %rcx
	movl	%eax, 72716(%rcx)
	movq	active_pps, %rax
	movl	216(%rax), %eax
	movq	img, %rcx
	movl	%eax, 72720(%rcx)
	jmp	.LBB35_13
.LBB35_12:                              # %if.else51
	movq	img, %rax
	movl	$0, 72664(%rax)
	movq	img, %rax
	movl	$0, 72688(%rax)
	movq	img, %rax
	movl	$0, 72692(%rax)
	movq	img, %rax
	movl	$0, 72696(%rax)
	movq	img, %rax
	movl	$0, 72708(%rax)
	movq	img, %rax
	movl	$0, 72712(%rax)
	movq	img, %rax
	movl	$0, 72672(%rax)
	movq	img, %rax
	movl	$0, 72672(%rax)
	movq	img, %rax
	movl	$0, 72716(%rax)
	movq	img, %rax
	movl	$0, 72720(%rax)
.LBB35_13:                              # %if.end64
	movq	active_sps, %rax
	movl	1132(%rax), %eax
	movq	img, %rcx
	movl	%eax, 32(%rcx)
	movq	active_sps, %rax
	cmpl	$0, 1148(%rax)
	je	.LBB35_15
# %bb.14:                               # %cond.true
	movq	active_sps, %rax
	movl	1132(%rax), %eax
	jmp	.LBB35_16
.LBB35_15:                              # %cond.false
	movq	active_sps, %rax
	movl	1132(%rax), %eax
	shll	$1, %eax
.LBB35_16:                              # %cond.end
	movq	img, %rcx
	movl	%eax, 36(%rcx)
	movq	input, %rax
	movl	36(%rax), %eax
	movq	img, %rcx
	movl	%eax, 72376(%rcx)
	movq	img, %rax
	movl	$0, 72636(%rax)
	movq	input, %rax
	vmovsd	2424(%rax), %xmm0       # xmm0 = mem[0],zero
	vcvtsd2ss	%xmm0, %xmm0, %xmm0
	movq	img, %rax
	vmovss	%xmm0, 48(%rax)
	movq	img, %rdi
	addq	$71920, %rdi            # imm = 0x118F0
	callq	get_mem_mv
	movq	img, %rdi
	addq	$71928, %rdi            # imm = 0x118F8
	callq	get_mem_mv
	movq	input, %rax
	cmpl	$0, 1256(%rax)
	je	.LBB35_18
# %bb.17:                               # %if.then74
	movq	img, %rdi
	addq	$71936, %rdi            # imm = 0x11900
	callq	get_mem_mv
	movq	img, %rdi
	addq	$71944, %rdi            # imm = 0x11908
	callq	get_mem_mv
.LBB35_18:                              # %if.end77
	movq	img, %rdi
	addq	$14136, %rdi            # imm = 0x3738
	callq	get_mem_ACcoeff
	movq	img, %rdi
	addq	$14144, %rdi            # imm = 0x3740
	callq	get_mem_DCcoeff
	movq	input, %rax
	cmpl	$0, 2884(%rax)
	je	.LBB35_22
# %bb.19:                               # %if.then81
	movabsq	$rddata_top_frame_mb, %rdi
	addq	$3232, %rdi             # imm = 0xCA0
	callq	get_mem_mv
	movabsq	$rddata_top_frame_mb, %rdi
	addq	$3240, %rdi             # imm = 0xCA8
	callq	get_mem_mv
	movabsq	$rddata_bot_frame_mb, %rdi
	addq	$3232, %rdi             # imm = 0xCA0
	callq	get_mem_mv
	movabsq	$rddata_bot_frame_mb, %rdi
	addq	$3240, %rdi             # imm = 0xCA8
	callq	get_mem_mv
	movabsq	$rddata_top_field_mb, %rdi
	addq	$3232, %rdi             # imm = 0xCA0
	callq	get_mem_mv
	movabsq	$rddata_top_field_mb, %rdi
	addq	$3240, %rdi             # imm = 0xCA8
	callq	get_mem_mv
	movabsq	$rddata_bot_field_mb, %rdi
	addq	$3232, %rdi             # imm = 0xCA0
	callq	get_mem_mv
	movabsq	$rddata_bot_field_mb, %rdi
	addq	$3240, %rdi             # imm = 0xCA8
	callq	get_mem_mv
	movq	input, %rax
	cmpl	$0, 1256(%rax)
	je	.LBB35_21
# %bb.20:                               # %if.then92
	movabsq	$rddata_top_frame_mb, %rdi
	addq	$3248, %rdi             # imm = 0xCB0
	callq	get_mem_mv
	movabsq	$rddata_top_frame_mb, %rdi
	addq	$3256, %rdi             # imm = 0xCB8
	callq	get_mem_mv
	movabsq	$rddata_bot_frame_mb, %rdi
	addq	$3248, %rdi             # imm = 0xCB0
	callq	get_mem_mv
	movabsq	$rddata_bot_frame_mb, %rdi
	addq	$3256, %rdi             # imm = 0xCB8
	callq	get_mem_mv
	movabsq	$rddata_top_field_mb, %rdi
	addq	$3248, %rdi             # imm = 0xCB0
	callq	get_mem_mv
	movabsq	$rddata_top_field_mb, %rdi
	addq	$3256, %rdi             # imm = 0xCB8
	callq	get_mem_mv
	movabsq	$rddata_bot_field_mb, %rdi
	addq	$3248, %rdi             # imm = 0xCB0
	callq	get_mem_mv
	movabsq	$rddata_bot_field_mb, %rdi
	addq	$3256, %rdi             # imm = 0xCB8
	callq	get_mem_mv
.LBB35_21:                              # %if.end101
	movabsq	$rddata_top_frame_mb, %rdi
	addq	$3080, %rdi             # imm = 0xC08
	callq	get_mem_ACcoeff
	movabsq	$rddata_top_frame_mb, %rdi
	addq	$3088, %rdi             # imm = 0xC10
	callq	get_mem_DCcoeff
	movabsq	$rddata_bot_frame_mb, %rdi
	addq	$3080, %rdi             # imm = 0xC08
	callq	get_mem_ACcoeff
	movabsq	$rddata_bot_frame_mb, %rdi
	addq	$3088, %rdi             # imm = 0xC10
	callq	get_mem_DCcoeff
	movabsq	$rddata_top_field_mb, %rdi
	addq	$3080, %rdi             # imm = 0xC08
	callq	get_mem_ACcoeff
	movabsq	$rddata_top_field_mb, %rdi
	addq	$3088, %rdi             # imm = 0xC10
	callq	get_mem_DCcoeff
	movabsq	$rddata_bot_field_mb, %rdi
	addq	$3080, %rdi             # imm = 0xC08
	callq	get_mem_ACcoeff
	movabsq	$rddata_bot_field_mb, %rdi
	addq	$3088, %rdi             # imm = 0xC10
	callq	get_mem_DCcoeff
.LBB35_22:                              # %if.end110
	movq	img, %rax
	movl	72684(%rax), %eax
	movq	img, %rcx
	cmpl	72688(%rcx), %eax
	jle	.LBB35_24
# %bb.23:                               # %if.then115
	movq	img, %rax
	movl	72684(%rax), %eax
	addl	$1, %eax
	shll	$1, %eax
	movl	%eax, -12(%rbp)
	jmp	.LBB35_25
.LBB35_24:                              # %if.else119
	movq	img, %rax
	movl	72688(%rax), %eax
	addl	$1, %eax
	shll	$1, %eax
	movl	%eax, -12(%rbp)
.LBB35_25:                              # %if.end123
	movslq	-12(%rbp), %rdi
	movl	$4, %esi
	callq	calloc
	movq	img, %rcx
	movq	%rax, 71776(%rcx)
	cmpq	$0, %rax
	jne	.LBB35_27
# %bb.26:                               # %if.then128
	movabsq	$.L.str, %rdi
	callq	no_mem_exit
.LBB35_27:                              # %if.end129
	movl	-12(%rbp), %eax
	cltd
	movl	$2, %ecx
	idivl	%ecx
	movq	img, %rcx
	movq	71776(%rcx), %rdx
	cltq
	shlq	$2, %rax
	addq	%rax, %rdx
	movq	%rdx, 71776(%rcx)
	movl	$0, -4(%rbp)
.LBB35_28:                              # %for.cond
                                        # =>This Inner Loop Header: Depth=1
	movl	-4(%rbp), %ecx
	movl	-12(%rbp), %eax
	cltd
	movl	$2, %esi
	idivl	%esi
	cmpl	%eax, %ecx
	jge	.LBB35_31
# %bb.29:                               # %for.body
                                        #   in Loop: Header=BB35_28 Depth=1
	xorl	%eax, %eax
	movl	-4(%rbp), %ecx
	imull	-4(%rbp), %ecx
	movq	img, %rdx
	movq	71776(%rdx), %rdx
	subl	-4(%rbp), %eax
	cltq
	movl	%ecx, (%rdx,%rax,4)
	movq	img, %rax
	movq	71776(%rax), %rax
	movslq	-4(%rbp), %rdx
	movl	%ecx, (%rax,%rdx,4)
# %bb.30:                               # %for.inc
                                        #   in Loop: Header=BB35_28 Depth=1
	movl	-4(%rbp), %eax
	addl	$1, %eax
	movl	%eax, -4(%rbp)
	jmp	.LBB35_28
.LBB35_31:                              # %for.end
	movq	input, %rax
	movl	64(%rax), %eax
	movq	img, %rcx
	addl	72728(%rcx), %eax
	movq	img, %rcx
	movl	%eax, 52(%rcx)
	movq	input, %rax
	movl	68(%rax), %eax
	movq	img, %rcx
	addl	72732(%rcx), %eax
	movq	img, %rcx
	movl	%eax, 60(%rcx)
	movq	img, %rax
	cmpl	$0, 72700(%rax)
	je	.LBB35_33
# %bb.32:                               # %if.then146
	movq	img, %rax
	movl	52(%rax), %ecx
	movq	img, %rax
	movslq	72700(%rax), %rsi
	movl	$16, %eax
	cltd
	idivl	init_img.mb_width_cr(,%rsi,4)
	movl	%eax, %esi
	movl	%ecx, %eax
	cltd
	idivl	%esi
	movq	img, %rcx
	movl	%eax, 56(%rcx)
	movq	img, %rax
	movl	60(%rax), %ecx
	movq	img, %rax
	movslq	72700(%rax), %rsi
	movl	$16, %eax
	cltd
	idivl	init_img.mb_height_cr(,%rsi,4)
	movl	%eax, %esi
	movl	%ecx, %eax
	cltd
	idivl	%esi
	movq	img, %rcx
	movl	%eax, 64(%rcx)
	movq	input, %rax
	movl	64(%rax), %ecx
	movq	img, %rax
	movslq	72700(%rax), %rsi
	movl	$16, %eax
	cltd
	idivl	init_img.mb_width_cr(,%rsi,4)
	movl	%eax, %esi
	movl	%ecx, %eax
	cltd
	idivl	%esi
	movq	input, %rcx
	movl	%eax, 3308(%rcx)
	movq	input, %rax
	movl	68(%rax), %ecx
	movq	img, %rax
	movslq	72700(%rax), %rsi
	movl	$16, %eax
	cltd
	idivl	init_img.mb_height_cr(,%rsi,4)
	movl	%eax, %esi
	movl	%ecx, %eax
	cltd
	idivl	%esi
	movq	input, %rcx
	movl	%eax, 3304(%rcx)
	jmp	.LBB35_34
.LBB35_33:                              # %if.else171
	movq	img, %rax
	movl	$0, 56(%rax)
	movq	img, %rax
	movl	$0, 64(%rax)
	movq	input, %rax
	movl	$0, 3308(%rax)
	movq	input, %rax
	movl	$0, 3304(%rax)
.LBB35_34:                              # %if.end176
	movq	img, %rax
	movl	64(%rax), %eax
	movq	img, %rcx
	movl	%eax, 68(%rcx)
	movq	input, %rax
	movl	64(%rax), %eax
	movq	img, %rcx
	addl	72728(%rcx), %eax
	cltd
	movl	$16, %ecx
	idivl	%ecx
	movq	img, %rdx
	movl	%eax, 72468(%rdx)
	movq	input, %rax
	movl	68(%rax), %eax
	movq	img, %rdx
	addl	72732(%rdx), %eax
	cltd
	idivl	%ecx
	movq	img, %rcx
	movl	%eax, 72476(%rcx)
	movq	img, %rax
	movl	72468(%rax), %eax
	movq	img, %rcx
	imull	72476(%rcx), %eax
	movq	img, %rcx
	movl	%eax, 72488(%rcx)
	movq	active_sps, %rax
	cmpl	$0, 1148(%rax)
	je	.LBB35_36
# %bb.35:                               # %cond.true191
	movq	img, %rax
	movl	72476(%rax), %eax
	jmp	.LBB35_37
.LBB35_36:                              # %cond.false193
	movq	img, %rax
	movl	72476(%rax), %eax
	shrl	$1, %eax
.LBB35_37:                              # %cond.end196
	movq	img, %rcx
	movl	%eax, 72472(%rcx)
	movq	img, %rax
	movl	72488(%rax), %edi
	movl	$632, %esi              # imm = 0x278
	callq	calloc
	movq	img, %rcx
	movq	%rax, 14168(%rcx)
	cmpq	$0, %rax
	jne	.LBB35_39
# %bb.38:                               # %if.then203
	movabsq	$.L.str.1, %rdi
	callq	no_mem_exit
.LBB35_39:                              # %if.end204
	movq	input, %rax
	cmpl	$0, 216(%rax)
	je	.LBB35_43
# %bb.40:                               # %if.then206
	movq	img, %rax
	movl	72488(%rax), %edi
	movl	$4, %esi
	callq	calloc
	movq	img, %rcx
	movq	%rax, 71784(%rcx)
	cmpq	$0, %rax
	jne	.LBB35_42
# %bb.41:                               # %if.then212
	movabsq	$.L.str.2, %rdi
	callq	no_mem_exit
.LBB35_42:                              # %if.end213
	jmp	.LBB35_43
.LBB35_43:                              # %if.end214
	movq	img, %rdi
	addq	$104, %rdi
	movq	img, %rax
	movl	52(%rax), %eax
	cltd
	movl	$4, %ecx
	idivl	%ecx
	movl	%eax, %esi
	movq	img, %rax
	movl	60(%rax), %eax
	cltd
	idivl	%ecx
	movl	%eax, %edx
	callq	get_mem2Dint
	movq	img, %rdi
	addq	$112, %rdi
	movq	img, %rax
	movl	52(%rax), %eax
	cltd
	movl	$4, %ecx
	idivl	%ecx
	movl	%eax, %esi
	movq	img, %rax
	movl	60(%rax), %eax
	cltd
	idivl	%ecx
	movl	%eax, %edx
	callq	get_mem2Dint
	movabsq	$rddata_top_frame_mb, %rdi
	addq	$3136, %rdi             # imm = 0xC40
	movq	img, %rax
	movl	52(%rax), %eax
	cltd
	movl	$4, %ecx
	idivl	%ecx
	movl	%eax, %esi
	movq	img, %rax
	movl	60(%rax), %eax
	cltd
	idivl	%ecx
	movl	%eax, %edx
	callq	get_mem2Dint
	movq	input, %rax
	cmpl	$0, 2884(%rax)
	je	.LBB35_45
# %bb.44:                               # %if.then232
	movabsq	$rddata_bot_frame_mb, %rdi
	addq	$3136, %rdi             # imm = 0xC40
	movq	img, %rax
	movl	52(%rax), %eax
	cltd
	movl	$4, %ecx
	idivl	%ecx
	movl	%eax, %esi
	movq	img, %rax
	movl	60(%rax), %eax
	cltd
	idivl	%ecx
	movl	%eax, %edx
	callq	get_mem2Dint
	movabsq	$rddata_top_field_mb, %rdi
	addq	$3136, %rdi             # imm = 0xC40
	movq	img, %rax
	movl	52(%rax), %eax
	cltd
	movl	$4, %ecx
	idivl	%ecx
	movl	%eax, %esi
	movq	img, %rax
	movl	60(%rax), %eax
	cltd
	idivl	%ecx
	movl	%eax, %edx
	callq	get_mem2Dint
	movabsq	$rddata_bot_field_mb, %rdi
	addq	$3136, %rdi             # imm = 0xC40
	movq	img, %rax
	movl	52(%rax), %eax
	cltd
	movl	$4, %ecx
	idivl	%ecx
	movl	%eax, %esi
	movq	img, %rax
	movl	60(%rax), %eax
	cltd
	idivl	%ecx
	movl	%eax, %edx
	callq	get_mem2Dint
.LBB35_45:                              # %if.end248
	movq	img, %rdi
	addq	$128, %rdi
	movq	img, %rax
	movl	72488(%rax), %esi
	movq	img, %rax
	movl	72692(%rax), %ecx
	addl	$4, %ecx
	movl	$4, %edx
	callq	get_mem3Dint
	callq	CAVLC_init
	movl	$0, -4(%rbp)
.LBB35_46:                              # %for.cond253
                                        # =>This Loop Header: Depth=1
                                        #     Child Loop BB35_48 Depth 2
	movl	-4(%rbp), %ecx
	movq	img, %rax
	movl	52(%rax), %eax
	cltd
	movl	$4, %esi
	idivl	%esi
	cmpl	%eax, %ecx
	jge	.LBB35_53
# %bb.47:                               # %for.body258
                                        #   in Loop: Header=BB35_46 Depth=1
	movl	$0, -8(%rbp)
.LBB35_48:                              # %for.cond259
                                        #   Parent Loop BB35_46 Depth=1
                                        # =>  This Inner Loop Header: Depth=2
	movl	-8(%rbp), %ecx
	movq	img, %rax
	movl	60(%rax), %eax
	cltd
	movl	$4, %esi
	idivl	%esi
	cmpl	%eax, %ecx
	jge	.LBB35_51
# %bb.49:                               # %for.body264
                                        #   in Loop: Header=BB35_48 Depth=2
	movq	img, %rax
	movq	104(%rax), %rax
	movslq	-4(%rbp), %rcx
	movq	(%rax,%rcx,8), %rax
	movslq	-8(%rbp), %rcx
	movl	$-1, (%rax,%rcx,4)
	movq	img, %rax
	movq	112(%rax), %rax
	movslq	-4(%rbp), %rcx
	movq	(%rax,%rcx,8), %rax
	movslq	-8(%rbp), %rcx
	movl	$-1, (%rax,%rcx,4)
# %bb.50:                               # %for.inc275
                                        #   in Loop: Header=BB35_48 Depth=2
	movl	-8(%rbp), %eax
	addl	$1, %eax
	movl	%eax, -8(%rbp)
	jmp	.LBB35_48
.LBB35_51:                              # %for.end277
                                        #   in Loop: Header=BB35_46 Depth=1
	jmp	.LBB35_52
.LBB35_52:                              # %for.inc278
                                        #   in Loop: Header=BB35_46 Depth=1
	movl	-4(%rbp), %eax
	addl	$1, %eax
	movl	%eax, -4(%rbp)
	jmp	.LBB35_46
.LBB35_53:                              # %for.end280
	movq	img, %rax
	movl	$0, 88(%rax)
	movq	img, %rax
	movl	52(%rax), %eax
	cltd
	movl	$16, %ecx
	idivl	%ecx
	movl	%eax, %edi
	movq	img, %rax
	movl	60(%rax), %eax
	cltd
	idivl	%ecx
	movq	input, %rcx
	movl	2920(%rcx), %edx
	movl	%eax, %esi
	callq	RandomIntraInit
	movb	$0, %al
	callq	InitSEIMessages
	movq	input, %rax
	cmpl	$0, 2924(%rax)
	je	.LBB35_55
# %bb.54:                               # %if.then286
	movq	input, %rax
	movl	2932(%rax), %ecx
	shll	$1, %ecx
	movl	%ecx, 2932(%rax)
	movq	input, %rax
	movl	2936(%rax), %ecx
	shll	$1, %ecx
	movl	%ecx, 2936(%rax)
	jmp	.LBB35_56
.LBB35_55:                              # %if.else289
	movq	input, %rax
	movl	$0, 2928(%rax)
	movq	input, %rax
	movl	$0, 2932(%rax)
	movq	input, %rax
	movl	$0, 2936(%rax)
.LBB35_56:                              # %if.end292
	cmpl	$908952962, -16(%rbp)   # imm = 0x362D8582
	jne	.LBB35_58
.LBB35_57:
	addq	$16, %rsp
	popq	%rbp
	.cfi_def_cfa %rsp, 8
	retq
.LBB35_58:                              # %func_exit
	.cfi_def_cfa %rbp, 16
	callq	detect_breach
	jmp	.LBB35_57
.Lfunc_end35:
	.size	init_img.11, .Lfunc_end35-init_img.11
	.cfi_endproc
                                        # -- End function
	.globl	get_mem_ACcoeff.12      # -- Begin function get_mem_ACcoeff.12
	.p2align	4, 0x90
	.type	get_mem_ACcoeff.12,@function
get_mem_ACcoeff.12:                     # @get_mem_ACcoeff.12
	.cfi_startproc
# %bb.0:                                # %entry
	pushq	%rbp
	.cfi_def_cfa_offset 16
	.cfi_offset %rbp, -16
	movq	%rsp, %rbp
	.cfi_def_cfa_register %rbp
	pushq	%rbx
	subq	$40, %rsp
	.cfi_offset %rbx, -24
	movl	$1034915703, -36(%rbp)  # imm = 0x3DAF8F77
	movq	%rdi, -32(%rbp)
	movq	img, %rax
	movl	72692(%rax), %eax
	addl	$4, %eax
	movl	%eax, -24(%rbp)
	movslq	-24(%rbp), %rdi
	movl	$8, %esi
	callq	calloc
	movq	-32(%rbp), %rcx
	movq	%rax, (%rcx)
	cmpq	$0, %rax
	jne	.LBB36_2
# %bb.1:                                # %if.then
	movabsq	$.L.str.200, %rdi
	callq	no_mem_exit
.LBB36_2:                               # %if.end
	movl	$0, -12(%rbp)
.LBB36_3:                               # %for.cond
                                        # =>This Loop Header: Depth=1
                                        #     Child Loop BB36_7 Depth 2
                                        #       Child Loop BB36_11 Depth 3
	movl	-12(%rbp), %eax
	cmpl	-24(%rbp), %eax
	jge	.LBB36_20
# %bb.4:                                # %for.body
                                        #   in Loop: Header=BB36_3 Depth=1
	movl	$4, %edi
	movl	$8, %esi
	callq	calloc
	movq	-32(%rbp), %rcx
	movq	(%rcx), %rcx
	movslq	-12(%rbp), %rdx
	movq	%rax, (%rcx,%rdx,8)
	cmpq	$0, %rax
	jne	.LBB36_6
# %bb.5:                                # %if.then7
                                        #   in Loop: Header=BB36_3 Depth=1
	movabsq	$.L.str.200, %rdi
	callq	no_mem_exit
.LBB36_6:                               # %if.end8
                                        #   in Loop: Header=BB36_3 Depth=1
	movl	$0, -16(%rbp)
.LBB36_7:                               # %for.cond9
                                        #   Parent Loop BB36_3 Depth=1
                                        # =>  This Loop Header: Depth=2
                                        #       Child Loop BB36_11 Depth 3
	cmpl	$4, -16(%rbp)
	jge	.LBB36_18
# %bb.8:                                # %for.body12
                                        #   in Loop: Header=BB36_7 Depth=2
	movl	$2, %edi
	movl	$8, %esi
	callq	calloc
	movq	-32(%rbp), %rcx
	movq	(%rcx), %rcx
	movslq	-12(%rbp), %rdx
	movq	(%rcx,%rdx,8), %rcx
	movslq	-16(%rbp), %rdx
	movq	%rax, (%rcx,%rdx,8)
	cmpq	$0, %rax
	jne	.LBB36_10
# %bb.9:                                # %if.then20
                                        #   in Loop: Header=BB36_7 Depth=2
	movabsq	$.L.str.200, %rdi
	callq	no_mem_exit
.LBB36_10:                              # %if.end21
                                        #   in Loop: Header=BB36_7 Depth=2
	movl	$0, -20(%rbp)
.LBB36_11:                              # %for.cond22
                                        #   Parent Loop BB36_3 Depth=1
                                        #     Parent Loop BB36_7 Depth=2
                                        # =>    This Inner Loop Header: Depth=3
	cmpl	$2, -20(%rbp)
	jge	.LBB36_16
# %bb.12:                               # %for.body25
                                        #   in Loop: Header=BB36_11 Depth=3
	movl	$65, %edi
	movl	$4, %esi
	callq	calloc
	movq	-32(%rbp), %rcx
	movq	(%rcx), %rcx
	movslq	-12(%rbp), %rdx
	movq	(%rcx,%rdx,8), %rcx
	movslq	-16(%rbp), %rdx
	movq	(%rcx,%rdx,8), %rcx
	movslq	-20(%rbp), %rdx
	movq	%rax, (%rcx,%rdx,8)
	cmpq	$0, %rax
	jne	.LBB36_14
# %bb.13:                               # %if.then35
                                        #   in Loop: Header=BB36_11 Depth=3
	movabsq	$.L.str.200, %rdi
	callq	no_mem_exit
.LBB36_14:                              # %if.end36
                                        #   in Loop: Header=BB36_11 Depth=3
	jmp	.LBB36_15
.LBB36_15:                              # %for.inc
                                        #   in Loop: Header=BB36_11 Depth=3
	movl	-20(%rbp), %eax
	addl	$1, %eax
	movl	%eax, -20(%rbp)
	jmp	.LBB36_11
.LBB36_16:                              # %for.end
                                        #   in Loop: Header=BB36_7 Depth=2
	jmp	.LBB36_17
.LBB36_17:                              # %for.inc37
                                        #   in Loop: Header=BB36_7 Depth=2
	movl	-16(%rbp), %eax
	addl	$1, %eax
	movl	%eax, -16(%rbp)
	jmp	.LBB36_7
.LBB36_18:                              # %for.end39
                                        #   in Loop: Header=BB36_3 Depth=1
	jmp	.LBB36_19
.LBB36_19:                              # %for.inc40
                                        #   in Loop: Header=BB36_3 Depth=1
	movl	-12(%rbp), %eax
	addl	$1, %eax
	movl	%eax, -12(%rbp)
	jmp	.LBB36_3
.LBB36_20:                              # %for.end42
	movl	-24(%rbp), %eax
	shll	$2, %eax
	shll	$1, %eax
	imull	$65, %eax, %eax
	movslq	%eax, %rbx
	shlq	$2, %rbx
	cmpl	$1034915703, -36(%rbp)  # imm = 0x3DAF8F77
	jne	.LBB36_22
.LBB36_21:
	movl	%ebx, %eax
	addq	$40, %rsp
	popq	%rbx
	popq	%rbp
	.cfi_def_cfa %rsp, 8
	retq
.LBB36_22:                              # %func_exit
	.cfi_def_cfa %rbp, 16
	callq	detect_breach
	jmp	.LBB36_21
.Lfunc_end36:
	.size	get_mem_ACcoeff.12, .Lfunc_end36-get_mem_ACcoeff.12
	.cfi_endproc
                                        # -- End function
	.globl	get_mem_ACcoeff.13      # -- Begin function get_mem_ACcoeff.13
	.p2align	4, 0x90
	.type	get_mem_ACcoeff.13,@function
get_mem_ACcoeff.13:                     # @get_mem_ACcoeff.13
	.cfi_startproc
# %bb.0:                                # %entry
	pushq	%rbp
	.cfi_def_cfa_offset 16
	.cfi_offset %rbp, -16
	movq	%rsp, %rbp
	.cfi_def_cfa_register %rbp
	pushq	%rbx
	subq	$40, %rsp
	.cfi_offset %rbx, -24
	movl	$1590960018, -36(%rbp)  # imm = 0x5ED41F92
	movq	%rdi, -32(%rbp)
	movq	img, %rax
	movl	72692(%rax), %eax
	addl	$4, %eax
	movl	%eax, -24(%rbp)
	movslq	-24(%rbp), %rdi
	movl	$8, %esi
	callq	calloc
	movq	-32(%rbp), %rcx
	movq	%rax, (%rcx)
	cmpq	$0, %rax
	jne	.LBB37_2
# %bb.1:                                # %if.then
	movabsq	$.L.str.200, %rdi
	callq	no_mem_exit
.LBB37_2:                               # %if.end
	movl	$0, -12(%rbp)
.LBB37_3:                               # %for.cond
                                        # =>This Loop Header: Depth=1
                                        #     Child Loop BB37_7 Depth 2
                                        #       Child Loop BB37_11 Depth 3
	movl	-12(%rbp), %eax
	cmpl	-24(%rbp), %eax
	jge	.LBB37_20
# %bb.4:                                # %for.body
                                        #   in Loop: Header=BB37_3 Depth=1
	movl	$4, %edi
	movl	$8, %esi
	callq	calloc
	movq	-32(%rbp), %rcx
	movq	(%rcx), %rcx
	movslq	-12(%rbp), %rdx
	movq	%rax, (%rcx,%rdx,8)
	cmpq	$0, %rax
	jne	.LBB37_6
# %bb.5:                                # %if.then7
                                        #   in Loop: Header=BB37_3 Depth=1
	movabsq	$.L.str.200, %rdi
	callq	no_mem_exit
.LBB37_6:                               # %if.end8
                                        #   in Loop: Header=BB37_3 Depth=1
	movl	$0, -16(%rbp)
.LBB37_7:                               # %for.cond9
                                        #   Parent Loop BB37_3 Depth=1
                                        # =>  This Loop Header: Depth=2
                                        #       Child Loop BB37_11 Depth 3
	cmpl	$4, -16(%rbp)
	jge	.LBB37_18
# %bb.8:                                # %for.body12
                                        #   in Loop: Header=BB37_7 Depth=2
	movl	$2, %edi
	movl	$8, %esi
	callq	calloc
	movq	-32(%rbp), %rcx
	movq	(%rcx), %rcx
	movslq	-12(%rbp), %rdx
	movq	(%rcx,%rdx,8), %rcx
	movslq	-16(%rbp), %rdx
	movq	%rax, (%rcx,%rdx,8)
	cmpq	$0, %rax
	jne	.LBB37_10
# %bb.9:                                # %if.then20
                                        #   in Loop: Header=BB37_7 Depth=2
	movabsq	$.L.str.200, %rdi
	callq	no_mem_exit
.LBB37_10:                              # %if.end21
                                        #   in Loop: Header=BB37_7 Depth=2
	movl	$0, -20(%rbp)
.LBB37_11:                              # %for.cond22
                                        #   Parent Loop BB37_3 Depth=1
                                        #     Parent Loop BB37_7 Depth=2
                                        # =>    This Inner Loop Header: Depth=3
	cmpl	$2, -20(%rbp)
	jge	.LBB37_16
# %bb.12:                               # %for.body25
                                        #   in Loop: Header=BB37_11 Depth=3
	movl	$65, %edi
	movl	$4, %esi
	callq	calloc
	movq	-32(%rbp), %rcx
	movq	(%rcx), %rcx
	movslq	-12(%rbp), %rdx
	movq	(%rcx,%rdx,8), %rcx
	movslq	-16(%rbp), %rdx
	movq	(%rcx,%rdx,8), %rcx
	movslq	-20(%rbp), %rdx
	movq	%rax, (%rcx,%rdx,8)
	cmpq	$0, %rax
	jne	.LBB37_14
# %bb.13:                               # %if.then35
                                        #   in Loop: Header=BB37_11 Depth=3
	movabsq	$.L.str.200, %rdi
	callq	no_mem_exit
.LBB37_14:                              # %if.end36
                                        #   in Loop: Header=BB37_11 Depth=3
	jmp	.LBB37_15
.LBB37_15:                              # %for.inc
                                        #   in Loop: Header=BB37_11 Depth=3
	movl	-20(%rbp), %eax
	addl	$1, %eax
	movl	%eax, -20(%rbp)
	jmp	.LBB37_11
.LBB37_16:                              # %for.end
                                        #   in Loop: Header=BB37_7 Depth=2
	jmp	.LBB37_17
.LBB37_17:                              # %for.inc37
                                        #   in Loop: Header=BB37_7 Depth=2
	movl	-16(%rbp), %eax
	addl	$1, %eax
	movl	%eax, -16(%rbp)
	jmp	.LBB37_7
.LBB37_18:                              # %for.end39
                                        #   in Loop: Header=BB37_3 Depth=1
	jmp	.LBB37_19
.LBB37_19:                              # %for.inc40
                                        #   in Loop: Header=BB37_3 Depth=1
	movl	-12(%rbp), %eax
	addl	$1, %eax
	movl	%eax, -12(%rbp)
	jmp	.LBB37_3
.LBB37_20:                              # %for.end42
	movl	-24(%rbp), %eax
	shll	$2, %eax
	shll	$1, %eax
	imull	$65, %eax, %eax
	movslq	%eax, %rbx
	shlq	$2, %rbx
	cmpl	$1590960018, -36(%rbp)  # imm = 0x5ED41F92
	jne	.LBB37_22
.LBB37_21:
	movl	%ebx, %eax
	addq	$40, %rsp
	popq	%rbx
	popq	%rbp
	.cfi_def_cfa %rsp, 8
	retq
.LBB37_22:                              # %func_exit
	.cfi_def_cfa %rbp, 16
	callq	detect_breach
	jmp	.LBB37_21
.Lfunc_end37:
	.size	get_mem_ACcoeff.13, .Lfunc_end37-get_mem_ACcoeff.13
	.cfi_endproc
                                        # -- End function
	.globl	init_global_buffers.14  # -- Begin function init_global_buffers.14
	.p2align	4, 0x90
	.type	init_global_buffers.14,@function
init_global_buffers.14:                 # @init_global_buffers.14
	.cfi_startproc
# %bb.0:                                # %entry
	pushq	%rbp
	.cfi_def_cfa_offset 16
	.cfi_offset %rbp, -16
	movq	%rsp, %rbp
	.cfi_def_cfa_register %rbp
	pushq	%rbx
	subq	$24, %rsp
	.cfi_offset %rbx, -24
	movl	$211611617, -20(%rbp)   # imm = 0xC9CEFE1
	movl	$0, -12(%rbp)
	movq	img, %rax
	movl	36(%rax), %eax
	shll	$1, %eax
	movslq	%eax, %rdi
	shlq	$2, %rdi
	callq	malloc
	movq	%rax, last_P_no_frm
	cmpq	$0, %rax
	jne	.LBB38_2
# %bb.1:                                # %if.then
	movabsq	$.L.str.197, %rdi
	callq	no_mem_exit
.LBB38_2:                               # %if.end
	movq	active_sps, %rax
	cmpl	$0, 1148(%rax)
	jne	.LBB38_6
# %bb.3:                                # %if.then3
	movq	img, %rax
	movl	36(%rax), %eax
	shll	$2, %eax
	movslq	%eax, %rdi
	shlq	$2, %rdi
	callq	malloc
	movq	%rax, last_P_no_fld
	cmpq	$0, %rax
	jne	.LBB38_5
# %bb.4:                                # %if.then11
	movabsq	$.L.str.197, %rdi
	callq	no_mem_exit
.LBB38_5:                               # %if.end12
	jmp	.LBB38_6
.LBB38_6:                               # %if.end13
	callq	init_orig_buffers
	addl	-12(%rbp), %eax
	movl	%eax, -12(%rbp)
	movq	input, %rax
	cmpl	$0, 1284(%rax)
	jne	.LBB38_9
# %bb.7:                                # %lor.lhs.false
	movq	input, %rax
	cmpl	$0, 1288(%rax)
	jne	.LBB38_9
# %bb.8:                                # %lor.lhs.false17
	movq	input, %rax
	cmpl	$0, 60(%rax)
	je	.LBB38_10
.LBB38_9:                               # %if.then19
	movabsq	$wp_weight, %rdi
	movl	$6, %esi
	movl	$15, %edx
	movl	$3, %ecx
	callq	get_mem3Dint
	addl	-12(%rbp), %eax
	movl	%eax, -12(%rbp)
	movabsq	$wp_offset, %rdi
	movl	$6, %esi
	movl	$15, %edx
	movl	$3, %ecx
	callq	get_mem3Dint
	addl	-12(%rbp), %eax
	movl	%eax, -12(%rbp)
	movabsq	$wbp_weight, %rdi
	movl	$6, %esi
	movl	$15, %edx
	movl	$15, %ecx
	movl	$3, %r8d
	callq	get_mem4Dint
	addl	-12(%rbp), %eax
	movl	%eax, -12(%rbp)
.LBB38_10:                              # %if.end26
	movq	input, %rax
	cmpl	$0, 1236(%rax)
	jne	.LBB38_12
# %bb.11:                               # %lor.lhs.false29
	movq	input, %rax
	cmpl	$0, 1316(%rax)
	jle	.LBB38_13
.LBB38_12:                              # %if.then32
	movq	img, %rax
	movl	52(%rax), %eax
	cltd
	movl	$4, %esi
	idivl	%esi
	movl	%eax, %ecx
	movq	img, %rax
	movl	60(%rax), %eax
	cltd
	idivl	%esi
	movabsq	$direct_ref_idx, %rdi
	movl	$2, %esi
	movl	%ecx, %edx
	movl	%eax, %ecx
	callq	get_mem3Dshort
	addl	-12(%rbp), %eax
	movl	%eax, -12(%rbp)
	movq	img, %rax
	movl	52(%rax), %eax
	cltd
	movl	$4, %ecx
	idivl	%ecx
	movl	%eax, %esi
	movq	img, %rax
	movl	60(%rax), %eax
	cltd
	idivl	%ecx
	movabsq	$direct_pdir, %rdi
	movl	%eax, %edx
	callq	get_mem2Dshort
	addl	-12(%rbp), %eax
	movl	%eax, -12(%rbp)
.LBB38_13:                              # %if.end42
	movq	img, %rax
	movl	60(%rax), %esi
	addl	$8, %esi
	movq	img, %rax
	movl	52(%rax), %edx
	addl	$8, %edx
	shll	$2, %edx
	movabsq	$img4Y_tmp, %rdi
	callq	get_mem2Dint
	addl	-12(%rbp), %eax
	movl	%eax, -12(%rbp)
	movq	input, %rax
	cmpl	$2, 2464(%rax)
	jne	.LBB38_21
# %bb.14:                               # %if.then52
	movq	decs, %rdi
	movl	$16, %esi
	movl	$16, %edx
	callq	get_mem2Dint
	addl	-12(%rbp), %eax
	movl	%eax, -12(%rbp)
	movq	input, %rax
	movslq	2904(%rax), %rdi
	movl	$8, %esi
	callq	calloc
	movq	decs, %rcx
	movq	%rax, 16(%rcx)
	cmpq	$0, %rax
	jne	.LBB38_16
# %bb.15:                               # %if.then59
	movabsq	$.L.str.198, %rdi
	callq	no_mem_exit
.LBB38_16:                              # %if.end60
	movl	$0, -16(%rbp)
.LBB38_17:                              # %for.cond
                                        # =>This Inner Loop Header: Depth=1
	movl	-16(%rbp), %eax
	movq	input, %rcx
	cmpl	2904(%rcx), %eax
	jge	.LBB38_20
# %bb.18:                               # %for.body
                                        #   in Loop: Header=BB38_17 Depth=1
	movq	decs, %rax
	movq	16(%rax), %rdi
	movslq	-16(%rbp), %rax
	shlq	$3, %rax
	addq	%rax, %rdi
	movq	img, %rax
	movl	36(%rax), %esi
	addl	$1, %esi
	movq	img, %rax
	movl	60(%rax), %edx
	movq	img, %rax
	movl	52(%rax), %ecx
	callq	get_mem3Dpel
	addl	-12(%rbp), %eax
	movl	%eax, -12(%rbp)
# %bb.19:                               # %for.inc
                                        #   in Loop: Header=BB38_17 Depth=1
	movl	-16(%rbp), %eax
	addl	$1, %eax
	movl	%eax, -16(%rbp)
	jmp	.LBB38_17
.LBB38_20:                              # %for.end
	movq	decs, %rdi
	addq	$32, %rdi
	movl	$4, %esi
	movl	$4, %edx
	callq	get_mem2Dpel
	addl	-12(%rbp), %eax
	movl	%eax, -12(%rbp)
	movq	decs, %rdi
	addq	$8, %rdi
	movq	input, %rax
	movl	2904(%rax), %esi
	movq	img, %rax
	movl	60(%rax), %edx
	movq	img, %rax
	movl	52(%rax), %ecx
	callq	get_mem3Dpel
	addl	-12(%rbp), %eax
	movl	%eax, -12(%rbp)
	movq	decs, %rdi
	addq	$24, %rdi
	movq	input, %rax
	movl	2904(%rax), %esi
	movq	img, %rax
	movl	60(%rax), %edx
	movq	img, %rax
	movl	52(%rax), %ecx
	callq	get_mem3Dpel
	addl	-12(%rbp), %eax
	movl	%eax, -12(%rbp)
	movq	decs, %rdi
	addq	$40, %rdi
	movq	img, %rax
	movl	60(%rax), %eax
	cltd
	movl	$16, %ecx
	idivl	%ecx
	movl	%eax, %esi
	movq	img, %rax
	movl	52(%rax), %eax
	cltd
	idivl	%ecx
	movl	%eax, %edx
	callq	get_mem2D
	addl	-12(%rbp), %eax
	movl	%eax, -12(%rbp)
	movq	decs, %rdi
	addq	$48, %rdi
	movq	img, %rax
	movl	52(%rax), %eax
	cltd
	movl	$16, %ecx
	idivl	%ecx
	movl	%eax, %esi
	movq	img, %rax
	movl	60(%rax), %eax
	cltd
	idivl	%ecx
	movl	%eax, %edx
	callq	get_mem2D
	addl	-12(%rbp), %eax
	movl	%eax, -12(%rbp)
.LBB38_21:                              # %if.end95
	movq	input, %rax
	cmpl	$0, 2908(%rax)
	je	.LBB38_23
# %bb.22:                               # %if.then97
	movq	img, %rax
	movl	60(%rax), %esi
	movq	img, %rax
	movl	52(%rax), %edx
	movabsq	$pixel_map, %rdi
	callq	get_mem2D
	addl	-12(%rbp), %eax
	movl	%eax, -12(%rbp)
	movq	img, %rax
	movl	60(%rax), %eax
	cltd
	movl	$8, %ecx
	idivl	%ecx
	movl	%eax, %esi
	movq	img, %rax
	movl	52(%rax), %eax
	cltd
	idivl	%ecx
	movabsq	$refresh_map, %rdi
	movl	%eax, %edx
	callq	get_mem2D
	addl	-12(%rbp), %eax
	movl	%eax, -12(%rbp)
.LBB38_23:                              # %if.end108
	movq	active_sps, %rax
	cmpl	$0, 1148(%rax)
	jne	.LBB38_27
# %bb.24:                               # %if.then111
	movq	img, %rax
	movl	60(%rax), %esi
	movq	img, %rax
	movl	52(%rax), %edx
	movabsq	$imgY_com, %rdi
	callq	get_mem2Dpel
	addl	-12(%rbp), %eax
	movl	%eax, -12(%rbp)
	movq	img, %rax
	cmpl	$0, 72700(%rax)
	je	.LBB38_26
# %bb.25:                               # %if.then118
	movq	img, %rax
	movl	64(%rax), %edx
	movq	img, %rax
	movl	56(%rax), %ecx
	movabsq	$imgUV_com, %rdi
	movl	$2, %esi
	callq	get_mem3Dpel
	addl	-12(%rbp), %eax
	movl	%eax, -12(%rbp)
.LBB38_26:                              # %if.end121
	jmp	.LBB38_27
.LBB38_27:                              # %if.end122
	movq	input, %rax
	cmpl	$0, 3292(%rax)
	je	.LBB38_29
# %bb.28:                               # %if.then124
	movb	$0, %al
	callq	get_mem_FME
	addl	-12(%rbp), %eax
	movl	%eax, -12(%rbp)
.LBB38_29:                              # %if.end127
	movq	input, %rax
	cmpl	$0, 3236(%rax)
	je	.LBB38_31
# %bb.30:                               # %if.then129
	movb	$0, %al
	callq	rc_alloc
.LBB38_31:                              # %if.end130
	movl	-12(%rbp), %ebx
	cmpl	$211611617, -20(%rbp)   # imm = 0xC9CEFE1
	jne	.LBB38_33
.LBB38_32:
	movl	%ebx, %eax
	addq	$24, %rsp
	popq	%rbx
	popq	%rbp
	.cfi_def_cfa %rsp, 8
	retq
.LBB38_33:                              # %func_exit
	.cfi_def_cfa %rbp, 16
	callq	detect_breach
	jmp	.LBB38_32
.Lfunc_end38:
	.size	init_global_buffers.14, .Lfunc_end38-init_global_buffers.14
	.cfi_endproc
                                        # -- End function
	.globl	init_global_buffers.15  # -- Begin function init_global_buffers.15
	.p2align	4, 0x90
	.type	init_global_buffers.15,@function
init_global_buffers.15:                 # @init_global_buffers.15
	.cfi_startproc
# %bb.0:                                # %entry
	pushq	%rbp
	.cfi_def_cfa_offset 16
	.cfi_offset %rbp, -16
	movq	%rsp, %rbp
	.cfi_def_cfa_register %rbp
	pushq	%rbx
	subq	$24, %rsp
	.cfi_offset %rbx, -24
	movl	$1596657849, -20(%rbp)  # imm = 0x5F2B10B9
	movl	$0, -12(%rbp)
	movq	img, %rax
	movl	36(%rax), %eax
	shll	$1, %eax
	movslq	%eax, %rdi
	shlq	$2, %rdi
	callq	malloc
	movq	%rax, last_P_no_frm
	cmpq	$0, %rax
	jne	.LBB39_2
# %bb.1:                                # %if.then
	movabsq	$.L.str.197, %rdi
	callq	no_mem_exit
.LBB39_2:                               # %if.end
	movq	active_sps, %rax
	cmpl	$0, 1148(%rax)
	jne	.LBB39_6
# %bb.3:                                # %if.then3
	movq	img, %rax
	movl	36(%rax), %eax
	shll	$2, %eax
	movslq	%eax, %rdi
	shlq	$2, %rdi
	callq	malloc
	movq	%rax, last_P_no_fld
	cmpq	$0, %rax
	jne	.LBB39_5
# %bb.4:                                # %if.then11
	movabsq	$.L.str.197, %rdi
	callq	no_mem_exit
.LBB39_5:                               # %if.end12
	jmp	.LBB39_6
.LBB39_6:                               # %if.end13
	callq	init_orig_buffers
	addl	-12(%rbp), %eax
	movl	%eax, -12(%rbp)
	movq	input, %rax
	cmpl	$0, 1284(%rax)
	jne	.LBB39_9
# %bb.7:                                # %lor.lhs.false
	movq	input, %rax
	cmpl	$0, 1288(%rax)
	jne	.LBB39_9
# %bb.8:                                # %lor.lhs.false17
	movq	input, %rax
	cmpl	$0, 60(%rax)
	je	.LBB39_10
.LBB39_9:                               # %if.then19
	movabsq	$wp_weight, %rdi
	movl	$6, %esi
	movl	$15, %edx
	movl	$3, %ecx
	callq	get_mem3Dint
	addl	-12(%rbp), %eax
	movl	%eax, -12(%rbp)
	movabsq	$wp_offset, %rdi
	movl	$6, %esi
	movl	$15, %edx
	movl	$3, %ecx
	callq	get_mem3Dint
	addl	-12(%rbp), %eax
	movl	%eax, -12(%rbp)
	movabsq	$wbp_weight, %rdi
	movl	$6, %esi
	movl	$15, %edx
	movl	$15, %ecx
	movl	$3, %r8d
	callq	get_mem4Dint
	addl	-12(%rbp), %eax
	movl	%eax, -12(%rbp)
.LBB39_10:                              # %if.end26
	movq	input, %rax
	cmpl	$0, 1236(%rax)
	jne	.LBB39_12
# %bb.11:                               # %lor.lhs.false29
	movq	input, %rax
	cmpl	$0, 1316(%rax)
	jle	.LBB39_13
.LBB39_12:                              # %if.then32
	movq	img, %rax
	movl	52(%rax), %eax
	cltd
	movl	$4, %esi
	idivl	%esi
	movl	%eax, %ecx
	movq	img, %rax
	movl	60(%rax), %eax
	cltd
	idivl	%esi
	movabsq	$direct_ref_idx, %rdi
	movl	$2, %esi
	movl	%ecx, %edx
	movl	%eax, %ecx
	callq	get_mem3Dshort
	addl	-12(%rbp), %eax
	movl	%eax, -12(%rbp)
	movq	img, %rax
	movl	52(%rax), %eax
	cltd
	movl	$4, %ecx
	idivl	%ecx
	movl	%eax, %esi
	movq	img, %rax
	movl	60(%rax), %eax
	cltd
	idivl	%ecx
	movabsq	$direct_pdir, %rdi
	movl	%eax, %edx
	callq	get_mem2Dshort
	addl	-12(%rbp), %eax
	movl	%eax, -12(%rbp)
.LBB39_13:                              # %if.end42
	movq	img, %rax
	movl	60(%rax), %esi
	addl	$8, %esi
	movq	img, %rax
	movl	52(%rax), %edx
	addl	$8, %edx
	shll	$2, %edx
	movabsq	$img4Y_tmp, %rdi
	callq	get_mem2Dint
	addl	-12(%rbp), %eax
	movl	%eax, -12(%rbp)
	movq	input, %rax
	cmpl	$2, 2464(%rax)
	jne	.LBB39_21
# %bb.14:                               # %if.then52
	movq	decs, %rdi
	movl	$16, %esi
	movl	$16, %edx
	callq	get_mem2Dint
	addl	-12(%rbp), %eax
	movl	%eax, -12(%rbp)
	movq	input, %rax
	movslq	2904(%rax), %rdi
	movl	$8, %esi
	callq	calloc
	movq	decs, %rcx
	movq	%rax, 16(%rcx)
	cmpq	$0, %rax
	jne	.LBB39_16
# %bb.15:                               # %if.then59
	movabsq	$.L.str.198, %rdi
	callq	no_mem_exit
.LBB39_16:                              # %if.end60
	movl	$0, -16(%rbp)
.LBB39_17:                              # %for.cond
                                        # =>This Inner Loop Header: Depth=1
	movl	-16(%rbp), %eax
	movq	input, %rcx
	cmpl	2904(%rcx), %eax
	jge	.LBB39_20
# %bb.18:                               # %for.body
                                        #   in Loop: Header=BB39_17 Depth=1
	movq	decs, %rax
	movq	16(%rax), %rdi
	movslq	-16(%rbp), %rax
	shlq	$3, %rax
	addq	%rax, %rdi
	movq	img, %rax
	movl	36(%rax), %esi
	addl	$1, %esi
	movq	img, %rax
	movl	60(%rax), %edx
	movq	img, %rax
	movl	52(%rax), %ecx
	callq	get_mem3Dpel
	addl	-12(%rbp), %eax
	movl	%eax, -12(%rbp)
# %bb.19:                               # %for.inc
                                        #   in Loop: Header=BB39_17 Depth=1
	movl	-16(%rbp), %eax
	addl	$1, %eax
	movl	%eax, -16(%rbp)
	jmp	.LBB39_17
.LBB39_20:                              # %for.end
	movq	decs, %rdi
	addq	$32, %rdi
	movl	$4, %esi
	movl	$4, %edx
	callq	get_mem2Dpel
	addl	-12(%rbp), %eax
	movl	%eax, -12(%rbp)
	movq	decs, %rdi
	addq	$8, %rdi
	movq	input, %rax
	movl	2904(%rax), %esi
	movq	img, %rax
	movl	60(%rax), %edx
	movq	img, %rax
	movl	52(%rax), %ecx
	callq	get_mem3Dpel
	addl	-12(%rbp), %eax
	movl	%eax, -12(%rbp)
	movq	decs, %rdi
	addq	$24, %rdi
	movq	input, %rax
	movl	2904(%rax), %esi
	movq	img, %rax
	movl	60(%rax), %edx
	movq	img, %rax
	movl	52(%rax), %ecx
	callq	get_mem3Dpel
	addl	-12(%rbp), %eax
	movl	%eax, -12(%rbp)
	movq	decs, %rdi
	addq	$40, %rdi
	movq	img, %rax
	movl	60(%rax), %eax
	cltd
	movl	$16, %ecx
	idivl	%ecx
	movl	%eax, %esi
	movq	img, %rax
	movl	52(%rax), %eax
	cltd
	idivl	%ecx
	movl	%eax, %edx
	callq	get_mem2D
	addl	-12(%rbp), %eax
	movl	%eax, -12(%rbp)
	movq	decs, %rdi
	addq	$48, %rdi
	movq	img, %rax
	movl	52(%rax), %eax
	cltd
	movl	$16, %ecx
	idivl	%ecx
	movl	%eax, %esi
	movq	img, %rax
	movl	60(%rax), %eax
	cltd
	idivl	%ecx
	movl	%eax, %edx
	callq	get_mem2D
	addl	-12(%rbp), %eax
	movl	%eax, -12(%rbp)
.LBB39_21:                              # %if.end95
	movq	input, %rax
	cmpl	$0, 2908(%rax)
	je	.LBB39_23
# %bb.22:                               # %if.then97
	movq	img, %rax
	movl	60(%rax), %esi
	movq	img, %rax
	movl	52(%rax), %edx
	movabsq	$pixel_map, %rdi
	callq	get_mem2D
	addl	-12(%rbp), %eax
	movl	%eax, -12(%rbp)
	movq	img, %rax
	movl	60(%rax), %eax
	cltd
	movl	$8, %ecx
	idivl	%ecx
	movl	%eax, %esi
	movq	img, %rax
	movl	52(%rax), %eax
	cltd
	idivl	%ecx
	movabsq	$refresh_map, %rdi
	movl	%eax, %edx
	callq	get_mem2D
	addl	-12(%rbp), %eax
	movl	%eax, -12(%rbp)
.LBB39_23:                              # %if.end108
	movq	active_sps, %rax
	cmpl	$0, 1148(%rax)
	jne	.LBB39_27
# %bb.24:                               # %if.then111
	movq	img, %rax
	movl	60(%rax), %esi
	movq	img, %rax
	movl	52(%rax), %edx
	movabsq	$imgY_com, %rdi
	callq	get_mem2Dpel
	addl	-12(%rbp), %eax
	movl	%eax, -12(%rbp)
	movq	img, %rax
	cmpl	$0, 72700(%rax)
	je	.LBB39_26
# %bb.25:                               # %if.then118
	movq	img, %rax
	movl	64(%rax), %edx
	movq	img, %rax
	movl	56(%rax), %ecx
	movabsq	$imgUV_com, %rdi
	movl	$2, %esi
	callq	get_mem3Dpel
	addl	-12(%rbp), %eax
	movl	%eax, -12(%rbp)
.LBB39_26:                              # %if.end121
	jmp	.LBB39_27
.LBB39_27:                              # %if.end122
	movq	input, %rax
	cmpl	$0, 3292(%rax)
	je	.LBB39_29
# %bb.28:                               # %if.then124
	movb	$0, %al
	callq	get_mem_FME
	addl	-12(%rbp), %eax
	movl	%eax, -12(%rbp)
.LBB39_29:                              # %if.end127
	movq	input, %rax
	cmpl	$0, 3236(%rax)
	je	.LBB39_31
# %bb.30:                               # %if.then129
	movb	$0, %al
	callq	rc_alloc
.LBB39_31:                              # %if.end130
	movl	-12(%rbp), %ebx
	cmpl	$1596657849, -20(%rbp)  # imm = 0x5F2B10B9
	jne	.LBB39_33
.LBB39_32:
	movl	%ebx, %eax
	addq	$24, %rsp
	popq	%rbx
	popq	%rbp
	.cfi_def_cfa %rsp, 8
	retq
.LBB39_33:                              # %func_exit
	.cfi_def_cfa %rbp, 16
	callq	detect_breach
	jmp	.LBB39_32
.Lfunc_end39:
	.size	init_global_buffers.15, .Lfunc_end39-init_global_buffers.15
	.cfi_endproc
                                        # -- End function
	.globl	free_mem_ACcoeff.16     # -- Begin function free_mem_ACcoeff.16
	.p2align	4, 0x90
	.type	free_mem_ACcoeff.16,@function
free_mem_ACcoeff.16:                    # @free_mem_ACcoeff.16
	.cfi_startproc
# %bb.0:                                # %entry
	pushq	%rbp
	.cfi_def_cfa_offset 16
	.cfi_offset %rbp, -16
	movq	%rsp, %rbp
	.cfi_def_cfa_register %rbp
	subq	$32, %rsp
	movl	$1275110716, -28(%rbp)  # imm = 0x4C00A53C
	movq	%rdi, -24(%rbp)
	movl	$0, -4(%rbp)
.LBB40_1:                               # %for.cond
                                        # =>This Loop Header: Depth=1
                                        #     Child Loop BB40_3 Depth 2
                                        #       Child Loop BB40_5 Depth 3
	movl	-4(%rbp), %eax
	movq	img, %rcx
	movl	72692(%rcx), %ecx
	addl	$4, %ecx
	cmpl	%ecx, %eax
	jge	.LBB40_12
# %bb.2:                                # %for.body
                                        #   in Loop: Header=BB40_1 Depth=1
	movl	$0, -8(%rbp)
.LBB40_3:                               # %for.cond1
                                        #   Parent Loop BB40_1 Depth=1
                                        # =>  This Loop Header: Depth=2
                                        #       Child Loop BB40_5 Depth 3
	cmpl	$4, -8(%rbp)
	jge	.LBB40_10
# %bb.4:                                # %for.body3
                                        #   in Loop: Header=BB40_3 Depth=2
	movl	$0, -12(%rbp)
.LBB40_5:                               # %for.cond4
                                        #   Parent Loop BB40_1 Depth=1
                                        #     Parent Loop BB40_3 Depth=2
                                        # =>    This Inner Loop Header: Depth=3
	cmpl	$2, -12(%rbp)
	jge	.LBB40_8
# %bb.6:                                # %for.body6
                                        #   in Loop: Header=BB40_5 Depth=3
	movq	-24(%rbp), %rax
	movslq	-4(%rbp), %rcx
	movq	(%rax,%rcx,8), %rax
	movslq	-8(%rbp), %rcx
	movq	(%rax,%rcx,8), %rax
	movslq	-12(%rbp), %rcx
	movq	(%rax,%rcx,8), %rdi
	callq	free
# %bb.7:                                # %for.inc
                                        #   in Loop: Header=BB40_5 Depth=3
	movl	-12(%rbp), %eax
	addl	$1, %eax
	movl	%eax, -12(%rbp)
	jmp	.LBB40_5
.LBB40_8:                               # %for.end
                                        #   in Loop: Header=BB40_3 Depth=2
	movq	-24(%rbp), %rax
	movslq	-4(%rbp), %rcx
	movq	(%rax,%rcx,8), %rax
	movslq	-8(%rbp), %rcx
	movq	(%rax,%rcx,8), %rdi
	callq	free
# %bb.9:                                # %for.inc15
                                        #   in Loop: Header=BB40_3 Depth=2
	movl	-8(%rbp), %eax
	addl	$1, %eax
	movl	%eax, -8(%rbp)
	jmp	.LBB40_3
.LBB40_10:                              # %for.end17
                                        #   in Loop: Header=BB40_1 Depth=1
	movq	-24(%rbp), %rax
	movslq	-4(%rbp), %rcx
	movq	(%rax,%rcx,8), %rdi
	callq	free
# %bb.11:                               # %for.inc20
                                        #   in Loop: Header=BB40_1 Depth=1
	movl	-4(%rbp), %eax
	addl	$1, %eax
	movl	%eax, -4(%rbp)
	jmp	.LBB40_1
.LBB40_12:                              # %for.end22
	movq	-24(%rbp), %rdi
	callq	free
	cmpl	$1275110716, -28(%rbp)  # imm = 0x4C00A53C
	jne	.LBB40_14
.LBB40_13:
	addq	$32, %rsp
	popq	%rbp
	.cfi_def_cfa %rsp, 8
	retq
.LBB40_14:                              # %func_exit
	.cfi_def_cfa %rbp, 16
	callq	detect_breach
	jmp	.LBB40_13
.Lfunc_end40:
	.size	free_mem_ACcoeff.16, .Lfunc_end40-free_mem_ACcoeff.16
	.cfi_endproc
                                        # -- End function
	.globl	get_mem_DCcoeff.17      # -- Begin function get_mem_DCcoeff.17
	.p2align	4, 0x90
	.type	get_mem_DCcoeff.17,@function
get_mem_DCcoeff.17:                     # @get_mem_DCcoeff.17
	.cfi_startproc
# %bb.0:                                # %entry
	pushq	%rbp
	.cfi_def_cfa_offset 16
	.cfi_offset %rbp, -16
	movq	%rsp, %rbp
	.cfi_def_cfa_register %rbp
	subq	$32, %rsp
	movl	$1971043729, -20(%rbp)  # imm = 0x757BBD91
	movq	%rdi, -16(%rbp)
	movl	$3, %edi
	movl	$8, %esi
	callq	calloc
	movq	-16(%rbp), %rcx
	movq	%rax, (%rcx)
	cmpq	$0, %rax
	jne	.LBB41_2
# %bb.1:                                # %if.then
	movabsq	$.L.str.201, %rdi
	callq	no_mem_exit
.LBB41_2:                               # %if.end
	movl	$0, -4(%rbp)
.LBB41_3:                               # %for.cond
                                        # =>This Loop Header: Depth=1
                                        #     Child Loop BB41_7 Depth 2
	cmpl	$3, -4(%rbp)
	jge	.LBB41_14
# %bb.4:                                # %for.body
                                        #   in Loop: Header=BB41_3 Depth=1
	movl	$2, %edi
	movl	$8, %esi
	callq	calloc
	movq	-16(%rbp), %rcx
	movq	(%rcx), %rcx
	movslq	-4(%rbp), %rdx
	movq	%rax, (%rcx,%rdx,8)
	cmpq	$0, %rax
	jne	.LBB41_6
# %bb.5:                                # %if.then4
                                        #   in Loop: Header=BB41_3 Depth=1
	movabsq	$.L.str.201, %rdi
	callq	no_mem_exit
.LBB41_6:                               # %if.end5
                                        #   in Loop: Header=BB41_3 Depth=1
	movl	$0, -8(%rbp)
.LBB41_7:                               # %for.cond6
                                        #   Parent Loop BB41_3 Depth=1
                                        # =>  This Inner Loop Header: Depth=2
	cmpl	$2, -8(%rbp)
	jge	.LBB41_12
# %bb.8:                                # %for.body8
                                        #   in Loop: Header=BB41_7 Depth=2
	movl	$65, %edi
	movl	$4, %esi
	callq	calloc
	movq	-16(%rbp), %rcx
	movq	(%rcx), %rcx
	movslq	-4(%rbp), %rdx
	movq	(%rcx,%rdx,8), %rcx
	movslq	-8(%rbp), %rdx
	movq	%rax, (%rcx,%rdx,8)
	cmpq	$0, %rax
	jne	.LBB41_10
# %bb.9:                                # %if.then15
                                        #   in Loop: Header=BB41_7 Depth=2
	movabsq	$.L.str.201, %rdi
	callq	no_mem_exit
.LBB41_10:                              # %if.end16
                                        #   in Loop: Header=BB41_7 Depth=2
	jmp	.LBB41_11
.LBB41_11:                              # %for.inc
                                        #   in Loop: Header=BB41_7 Depth=2
	movl	-8(%rbp), %eax
	addl	$1, %eax
	movl	%eax, -8(%rbp)
	jmp	.LBB41_7
.LBB41_12:                              # %for.end
                                        #   in Loop: Header=BB41_3 Depth=1
	jmp	.LBB41_13
.LBB41_13:                              # %for.inc17
                                        #   in Loop: Header=BB41_3 Depth=1
	movl	-4(%rbp), %eax
	addl	$1, %eax
	movl	%eax, -4(%rbp)
	jmp	.LBB41_3
.LBB41_14:                              # %for.end19
	cmpl	$1971043729, -20(%rbp)  # imm = 0x757BBD91
	jne	.LBB41_16
.LBB41_15:
	movl	$1560, %eax             # imm = 0x618
	addq	$32, %rsp
	popq	%rbp
	.cfi_def_cfa %rsp, 8
	retq
.LBB41_16:                              # %func_exit
	.cfi_def_cfa %rbp, 16
	callq	detect_breach
	jmp	.LBB41_15
.Lfunc_end41:
	.size	get_mem_DCcoeff.17, .Lfunc_end41-get_mem_DCcoeff.17
	.cfi_endproc
                                        # -- End function
	.globl	get_mem_ACcoeff.18      # -- Begin function get_mem_ACcoeff.18
	.p2align	4, 0x90
	.type	get_mem_ACcoeff.18,@function
get_mem_ACcoeff.18:                     # @get_mem_ACcoeff.18
	.cfi_startproc
# %bb.0:                                # %entry
	pushq	%rbp
	.cfi_def_cfa_offset 16
	.cfi_offset %rbp, -16
	movq	%rsp, %rbp
	.cfi_def_cfa_register %rbp
	pushq	%rbx
	subq	$40, %rsp
	.cfi_offset %rbx, -24
	movl	$1685008998, -36(%rbp)  # imm = 0x646F3266
	movq	%rdi, -32(%rbp)
	movq	img, %rax
	movl	72692(%rax), %eax
	addl	$4, %eax
	movl	%eax, -24(%rbp)
	movslq	-24(%rbp), %rdi
	movl	$8, %esi
	callq	calloc
	movq	-32(%rbp), %rcx
	movq	%rax, (%rcx)
	cmpq	$0, %rax
	jne	.LBB42_2
# %bb.1:                                # %if.then
	movabsq	$.L.str.200, %rdi
	callq	no_mem_exit
.LBB42_2:                               # %if.end
	movl	$0, -12(%rbp)
.LBB42_3:                               # %for.cond
                                        # =>This Loop Header: Depth=1
                                        #     Child Loop BB42_7 Depth 2
                                        #       Child Loop BB42_11 Depth 3
	movl	-12(%rbp), %eax
	cmpl	-24(%rbp), %eax
	jge	.LBB42_20
# %bb.4:                                # %for.body
                                        #   in Loop: Header=BB42_3 Depth=1
	movl	$4, %edi
	movl	$8, %esi
	callq	calloc
	movq	-32(%rbp), %rcx
	movq	(%rcx), %rcx
	movslq	-12(%rbp), %rdx
	movq	%rax, (%rcx,%rdx,8)
	cmpq	$0, %rax
	jne	.LBB42_6
# %bb.5:                                # %if.then7
                                        #   in Loop: Header=BB42_3 Depth=1
	movabsq	$.L.str.200, %rdi
	callq	no_mem_exit
.LBB42_6:                               # %if.end8
                                        #   in Loop: Header=BB42_3 Depth=1
	movl	$0, -16(%rbp)
.LBB42_7:                               # %for.cond9
                                        #   Parent Loop BB42_3 Depth=1
                                        # =>  This Loop Header: Depth=2
                                        #       Child Loop BB42_11 Depth 3
	cmpl	$4, -16(%rbp)
	jge	.LBB42_18
# %bb.8:                                # %for.body12
                                        #   in Loop: Header=BB42_7 Depth=2
	movl	$2, %edi
	movl	$8, %esi
	callq	calloc
	movq	-32(%rbp), %rcx
	movq	(%rcx), %rcx
	movslq	-12(%rbp), %rdx
	movq	(%rcx,%rdx,8), %rcx
	movslq	-16(%rbp), %rdx
	movq	%rax, (%rcx,%rdx,8)
	cmpq	$0, %rax
	jne	.LBB42_10
# %bb.9:                                # %if.then20
                                        #   in Loop: Header=BB42_7 Depth=2
	movabsq	$.L.str.200, %rdi
	callq	no_mem_exit
.LBB42_10:                              # %if.end21
                                        #   in Loop: Header=BB42_7 Depth=2
	movl	$0, -20(%rbp)
.LBB42_11:                              # %for.cond22
                                        #   Parent Loop BB42_3 Depth=1
                                        #     Parent Loop BB42_7 Depth=2
                                        # =>    This Inner Loop Header: Depth=3
	cmpl	$2, -20(%rbp)
	jge	.LBB42_16
# %bb.12:                               # %for.body25
                                        #   in Loop: Header=BB42_11 Depth=3
	movl	$65, %edi
	movl	$4, %esi
	callq	calloc
	movq	-32(%rbp), %rcx
	movq	(%rcx), %rcx
	movslq	-12(%rbp), %rdx
	movq	(%rcx,%rdx,8), %rcx
	movslq	-16(%rbp), %rdx
	movq	(%rcx,%rdx,8), %rcx
	movslq	-20(%rbp), %rdx
	movq	%rax, (%rcx,%rdx,8)
	cmpq	$0, %rax
	jne	.LBB42_14
# %bb.13:                               # %if.then35
                                        #   in Loop: Header=BB42_11 Depth=3
	movabsq	$.L.str.200, %rdi
	callq	no_mem_exit
.LBB42_14:                              # %if.end36
                                        #   in Loop: Header=BB42_11 Depth=3
	jmp	.LBB42_15
.LBB42_15:                              # %for.inc
                                        #   in Loop: Header=BB42_11 Depth=3
	movl	-20(%rbp), %eax
	addl	$1, %eax
	movl	%eax, -20(%rbp)
	jmp	.LBB42_11
.LBB42_16:                              # %for.end
                                        #   in Loop: Header=BB42_7 Depth=2
	jmp	.LBB42_17
.LBB42_17:                              # %for.inc37
                                        #   in Loop: Header=BB42_7 Depth=2
	movl	-16(%rbp), %eax
	addl	$1, %eax
	movl	%eax, -16(%rbp)
	jmp	.LBB42_7
.LBB42_18:                              # %for.end39
                                        #   in Loop: Header=BB42_3 Depth=1
	jmp	.LBB42_19
.LBB42_19:                              # %for.inc40
                                        #   in Loop: Header=BB42_3 Depth=1
	movl	-12(%rbp), %eax
	addl	$1, %eax
	movl	%eax, -12(%rbp)
	jmp	.LBB42_3
.LBB42_20:                              # %for.end42
	movl	-24(%rbp), %eax
	shll	$2, %eax
	shll	$1, %eax
	imull	$65, %eax, %eax
	movslq	%eax, %rbx
	shlq	$2, %rbx
	cmpl	$1685008998, -36(%rbp)  # imm = 0x646F3266
	jne	.LBB42_22
.LBB42_21:
	movl	%ebx, %eax
	addq	$40, %rsp
	popq	%rbx
	popq	%rbp
	.cfi_def_cfa %rsp, 8
	retq
.LBB42_22:                              # %func_exit
	.cfi_def_cfa %rbp, 16
	callq	detect_breach
	jmp	.LBB42_21
.Lfunc_end42:
	.size	get_mem_ACcoeff.18, .Lfunc_end42-get_mem_ACcoeff.18
	.cfi_endproc
                                        # -- End function
	.globl	free_global_buffers.19  # -- Begin function free_global_buffers.19
	.p2align	4, 0x90
	.type	free_global_buffers.19,@function
free_global_buffers.19:                 # @free_global_buffers.19
	.cfi_startproc
# %bb.0:                                # %entry
	pushq	%rbp
	.cfi_def_cfa_offset 16
	.cfi_offset %rbp, -16
	movq	%rsp, %rbp
	.cfi_def_cfa_register %rbp
	subq	$16, %rsp
	movl	$1765183114, -12(%rbp)  # imm = 0x69368E8A
	movq	last_P_no_frm, %rdi
	callq	free
	movq	last_P_no_fld, %rdi
	callq	free
	callq	free_orig_planes
	movq	input, %rax
	cmpl	$0, 1284(%rax)
	jne	.LBB43_3
# %bb.1:                                # %lor.lhs.false
	movq	input, %rax
	cmpl	$0, 1288(%rax)
	jne	.LBB43_3
# %bb.2:                                # %lor.lhs.false2
	movq	input, %rax
	cmpl	$0, 60(%rax)
	je	.LBB43_4
.LBB43_3:                               # %if.then
	movq	wp_weight, %rdi
	movl	$6, %esi
	callq	free_mem3Dint
	movq	wp_offset, %rdi
	movl	$6, %esi
	callq	free_mem3Dint
	movq	wbp_weight, %rdi
	movl	$6, %esi
	movl	$15, %edx
	callq	free_mem4Dint
.LBB43_4:                               # %if.end
	movq	input, %rax
	cmpl	$0, 1236(%rax)
	jne	.LBB43_6
# %bb.5:                                # %lor.lhs.false4
	movq	input, %rax
	cmpl	$0, 1316(%rax)
	jle	.LBB43_7
.LBB43_6:                               # %if.then6
	movq	direct_ref_idx, %rdi
	movl	$2, %esi
	callq	free_mem3Dshort
	movq	direct_pdir, %rdi
	callq	free_mem2Dshort
.LBB43_7:                               # %if.end7
	movq	img4Y_tmp, %rdi
	callq	free_mem2Dint
	movq	img, %rax
	movq	104(%rax), %rdi
	callq	free_mem2Dint
	movq	img, %rax
	movq	112(%rax), %rdi
	callq	free_mem2Dint
	movq	img, %rax
	movq	14168(%rax), %rdi
	callq	free
	movq	rddata_top_frame_mb+3136, %rdi
	callq	free_mem2Dint
	movq	input, %rax
	cmpl	$0, 216(%rax)
	je	.LBB43_9
# %bb.8:                                # %if.then9
	movq	img, %rax
	movq	71784(%rax), %rdi
	callq	free
.LBB43_9:                               # %if.end10
	movq	input, %rax
	cmpl	$2, 2464(%rax)
	jne	.LBB43_19
# %bb.10:                               # %if.then12
	movq	decs, %rax
	movq	(%rax), %rax
	movq	(%rax), %rdi
	callq	free
	movq	decs, %rax
	movq	(%rax), %rdi
	callq	free
	movq	decs, %rax
	movq	32(%rax), %rax
	movq	(%rax), %rdi
	callq	free
	movq	decs, %rax
	movq	32(%rax), %rdi
	callq	free
	movl	$0, -4(%rbp)
.LBB43_11:                              # %for.cond
                                        # =>This Loop Header: Depth=1
                                        #     Child Loop BB43_13 Depth 2
	movl	-4(%rbp), %eax
	movq	input, %rcx
	cmpl	2904(%rcx), %eax
	jge	.LBB43_18
# %bb.12:                               # %for.body
                                        #   in Loop: Header=BB43_11 Depth=1
	movq	decs, %rax
	movq	8(%rax), %rax
	movslq	-4(%rbp), %rcx
	movq	(%rax,%rcx,8), %rax
	movq	(%rax), %rdi
	callq	free
	movq	decs, %rax
	movq	8(%rax), %rax
	movslq	-4(%rbp), %rcx
	movq	(%rax,%rcx,8), %rdi
	callq	free
	movq	decs, %rax
	movq	24(%rax), %rax
	movslq	-4(%rbp), %rcx
	movq	(%rax,%rcx,8), %rax
	movq	(%rax), %rdi
	callq	free
	movq	decs, %rax
	movq	24(%rax), %rax
	movslq	-4(%rbp), %rcx
	movq	(%rax,%rcx,8), %rdi
	callq	free
	movl	$0, -8(%rbp)
.LBB43_13:                              # %for.cond28
                                        #   Parent Loop BB43_11 Depth=1
                                        # =>  This Inner Loop Header: Depth=2
	movl	-8(%rbp), %eax
	movq	img, %rcx
	movl	36(%rcx), %ecx
	addl	$1, %ecx
	cmpl	%ecx, %eax
	jge	.LBB43_16
# %bb.14:                               # %for.body30
                                        #   in Loop: Header=BB43_13 Depth=2
	movq	decs, %rax
	movq	16(%rax), %rax
	movslq	-4(%rbp), %rcx
	movq	(%rax,%rcx,8), %rax
	movslq	-8(%rbp), %rcx
	movq	(%rax,%rcx,8), %rax
	movq	(%rax), %rdi
	callq	free
	movq	decs, %rax
	movq	16(%rax), %rax
	movslq	-4(%rbp), %rcx
	movq	(%rax,%rcx,8), %rax
	movslq	-8(%rbp), %rcx
	movq	(%rax,%rcx,8), %rdi
	callq	free
# %bb.15:                               # %for.inc
                                        #   in Loop: Header=BB43_13 Depth=2
	movl	-8(%rbp), %eax
	addl	$1, %eax
	movl	%eax, -8(%rbp)
	jmp	.LBB43_13
.LBB43_16:                              # %for.end
                                        #   in Loop: Header=BB43_11 Depth=1
	movq	decs, %rax
	movq	16(%rax), %rax
	movslq	-4(%rbp), %rcx
	movq	(%rax,%rcx,8), %rdi
	callq	free
# %bb.17:                               # %for.inc44
                                        #   in Loop: Header=BB43_11 Depth=1
	movl	-4(%rbp), %eax
	addl	$1, %eax
	movl	%eax, -4(%rbp)
	jmp	.LBB43_11
.LBB43_18:                              # %for.end46
	movq	decs, %rax
	movq	8(%rax), %rdi
	callq	free
	movq	decs, %rax
	movq	24(%rax), %rdi
	callq	free
	movq	decs, %rax
	movq	16(%rax), %rdi
	callq	free
	movq	decs, %rax
	movq	40(%rax), %rax
	movq	(%rax), %rdi
	callq	free
	movq	decs, %rax
	movq	40(%rax), %rdi
	callq	free
	movq	decs, %rax
	movq	48(%rax), %rax
	movq	(%rax), %rdi
	callq	free
	movq	decs, %rax
	movq	48(%rax), %rdi
	callq	free
.LBB43_19:                              # %if.end54
	movq	input, %rax
	cmpl	$0, 2908(%rax)
	je	.LBB43_21
# %bb.20:                               # %if.then56
	movq	pixel_map, %rax
	movq	(%rax), %rdi
	callq	free
	movq	pixel_map, %rdi
	callq	free
	movq	refresh_map, %rax
	movq	(%rax), %rdi
	callq	free
	movq	refresh_map, %rdi
	callq	free
.LBB43_21:                              # %if.end59
	movq	active_sps, %rax
	cmpl	$0, 1148(%rax)
	jne	.LBB43_25
# %bb.22:                               # %if.then61
	movq	imgY_com, %rdi
	callq	free_mem2Dpel
	movq	img, %rax
	cmpl	$0, 72700(%rax)
	je	.LBB43_24
# %bb.23:                               # %if.then63
	movq	imgUV_com, %rdi
	movl	$2, %esi
	callq	free_mem3Dpel
.LBB43_24:                              # %if.end64
	jmp	.LBB43_25
.LBB43_25:                              # %if.end65
	movq	img, %rax
	movq	128(%rax), %rdi
	movq	img, %rax
	movl	72488(%rax), %esi
	callq	free_mem3Dint
	movq	input, %rax
	cmpl	$0, 3292(%rax)
	je	.LBB43_27
# %bb.26:                               # %if.then67
	movb	$0, %al
	callq	free_mem_FME
.LBB43_27:                              # %if.end68
	movq	input, %rax
	cmpl	$0, 3236(%rax)
	je	.LBB43_29
# %bb.28:                               # %if.then70
	movb	$0, %al
	callq	rc_free
.LBB43_29:                              # %if.end71
	cmpl	$1765183114, -12(%rbp)  # imm = 0x69368E8A
	jne	.LBB43_31
.LBB43_30:
	addq	$16, %rsp
	popq	%rbp
	.cfi_def_cfa %rsp, 8
	retq
.LBB43_31:                              # %func_exit
	.cfi_def_cfa %rbp, 16
	callq	detect_breach
	jmp	.LBB43_30
.Lfunc_end43:
	.size	free_global_buffers.19, .Lfunc_end43-free_global_buffers.19
	.cfi_endproc
                                        # -- End function
	.globl	get_mem_DCcoeff.20      # -- Begin function get_mem_DCcoeff.20
	.p2align	4, 0x90
	.type	get_mem_DCcoeff.20,@function
get_mem_DCcoeff.20:                     # @get_mem_DCcoeff.20
	.cfi_startproc
# %bb.0:                                # %entry
	pushq	%rbp
	.cfi_def_cfa_offset 16
	.cfi_offset %rbp, -16
	movq	%rsp, %rbp
	.cfi_def_cfa_register %rbp
	subq	$32, %rsp
	movl	$1301535988, -20(%rbp)  # imm = 0x4D93DCF4
	movq	%rdi, -16(%rbp)
	movl	$3, %edi
	movl	$8, %esi
	callq	calloc
	movq	-16(%rbp), %rcx
	movq	%rax, (%rcx)
	cmpq	$0, %rax
	jne	.LBB44_2
# %bb.1:                                # %if.then
	movabsq	$.L.str.201, %rdi
	callq	no_mem_exit
.LBB44_2:                               # %if.end
	movl	$0, -4(%rbp)
.LBB44_3:                               # %for.cond
                                        # =>This Loop Header: Depth=1
                                        #     Child Loop BB44_7 Depth 2
	cmpl	$3, -4(%rbp)
	jge	.LBB44_14
# %bb.4:                                # %for.body
                                        #   in Loop: Header=BB44_3 Depth=1
	movl	$2, %edi
	movl	$8, %esi
	callq	calloc
	movq	-16(%rbp), %rcx
	movq	(%rcx), %rcx
	movslq	-4(%rbp), %rdx
	movq	%rax, (%rcx,%rdx,8)
	cmpq	$0, %rax
	jne	.LBB44_6
# %bb.5:                                # %if.then4
                                        #   in Loop: Header=BB44_3 Depth=1
	movabsq	$.L.str.201, %rdi
	callq	no_mem_exit
.LBB44_6:                               # %if.end5
                                        #   in Loop: Header=BB44_3 Depth=1
	movl	$0, -8(%rbp)
.LBB44_7:                               # %for.cond6
                                        #   Parent Loop BB44_3 Depth=1
                                        # =>  This Inner Loop Header: Depth=2
	cmpl	$2, -8(%rbp)
	jge	.LBB44_12
# %bb.8:                                # %for.body8
                                        #   in Loop: Header=BB44_7 Depth=2
	movl	$65, %edi
	movl	$4, %esi
	callq	calloc
	movq	-16(%rbp), %rcx
	movq	(%rcx), %rcx
	movslq	-4(%rbp), %rdx
	movq	(%rcx,%rdx,8), %rcx
	movslq	-8(%rbp), %rdx
	movq	%rax, (%rcx,%rdx,8)
	cmpq	$0, %rax
	jne	.LBB44_10
# %bb.9:                                # %if.then15
                                        #   in Loop: Header=BB44_7 Depth=2
	movabsq	$.L.str.201, %rdi
	callq	no_mem_exit
.LBB44_10:                              # %if.end16
                                        #   in Loop: Header=BB44_7 Depth=2
	jmp	.LBB44_11
.LBB44_11:                              # %for.inc
                                        #   in Loop: Header=BB44_7 Depth=2
	movl	-8(%rbp), %eax
	addl	$1, %eax
	movl	%eax, -8(%rbp)
	jmp	.LBB44_7
.LBB44_12:                              # %for.end
                                        #   in Loop: Header=BB44_3 Depth=1
	jmp	.LBB44_13
.LBB44_13:                              # %for.inc17
                                        #   in Loop: Header=BB44_3 Depth=1
	movl	-4(%rbp), %eax
	addl	$1, %eax
	movl	%eax, -4(%rbp)
	jmp	.LBB44_3
.LBB44_14:                              # %for.end19
	cmpl	$1301535988, -20(%rbp)  # imm = 0x4D93DCF4
	jne	.LBB44_16
.LBB44_15:
	movl	$1560, %eax             # imm = 0x618
	addq	$32, %rsp
	popq	%rbp
	.cfi_def_cfa %rsp, 8
	retq
.LBB44_16:                              # %func_exit
	.cfi_def_cfa %rbp, 16
	callq	detect_breach
	jmp	.LBB44_15
.Lfunc_end44:
	.size	get_mem_DCcoeff.20, .Lfunc_end44-get_mem_DCcoeff.20
	.cfi_endproc
                                        # -- End function
	.globl	decide_fld_frame.21     # -- Begin function decide_fld_frame.21
	.p2align	4, 0x90
	.type	decide_fld_frame.21,@function
decide_fld_frame.21:                    # @decide_fld_frame.21
	.cfi_startproc
# %bb.0:                                # %entry
	pushq	%rbp
	.cfi_def_cfa_offset 16
	.cfi_offset %rbp, -16
	movq	%rsp, %rbp
	.cfi_def_cfa_register %rbp
	pushq	%rbx
	subq	$56, %rsp
	.cfi_offset %rbx, -24
	movl	$50656151, -28(%rbp)    # imm = 0x304F397
	vmovss	%xmm0, -24(%rbp)
	vmovss	%xmm1, -32(%rbp)
	movl	%edi, -16(%rbp)
	movl	%esi, -20(%rbp)
	vmovsd	%xmm2, -40(%rbp)
	vcvtsi2sdl	-20(%rbp), %xmm0, %xmm0
	vmulsd	-40(%rbp), %xmm0, %xmm0
	vmovss	-24(%rbp), %xmm1        # xmm1 = mem[0],zero,zero,zero
	vcvtss2sd	%xmm1, %xmm0, %xmm1
	vaddsd	%xmm1, %xmm0, %xmm0
	vmovsd	%xmm0, -48(%rbp)
	vcvtsi2sdl	-16(%rbp), %xmm0, %xmm0
	vmulsd	-40(%rbp), %xmm0, %xmm0
	vmovss	-32(%rbp), %xmm1        # xmm1 = mem[0],zero,zero,zero
	vcvtss2sd	%xmm1, %xmm0, %xmm1
	vaddsd	%xmm1, %xmm0, %xmm0
	vmovsd	%xmm0, -56(%rbp)
	vmovsd	-56(%rbp), %xmm0        # xmm0 = mem[0],zero
	vucomisd	-48(%rbp), %xmm0
	jbe	.LBB45_2
# %bb.1:                                # %if.then
	movl	$0, -12(%rbp)
	jmp	.LBB45_3
.LBB45_2:                               # %if.else
	movl	$1, -12(%rbp)
.LBB45_3:                               # %return
	movl	-12(%rbp), %ebx
	cmpl	$50656151, -28(%rbp)    # imm = 0x304F397
	jne	.LBB45_5
.LBB45_4:
	movl	%ebx, %eax
	addq	$56, %rsp
	popq	%rbx
	popq	%rbp
	.cfi_def_cfa %rsp, 8
	retq
.LBB45_5:                               # %func_exit
	.cfi_def_cfa %rbp, 16
	callq	detect_breach
	jmp	.LBB45_4
.Lfunc_end45:
	.size	decide_fld_frame.21, .Lfunc_end45-decide_fld_frame.21
	.cfi_endproc
                                        # -- End function
	.globl	decide_fld_frame.22     # -- Begin function decide_fld_frame.22
	.p2align	4, 0x90
	.type	decide_fld_frame.22,@function
decide_fld_frame.22:                    # @decide_fld_frame.22
	.cfi_startproc
# %bb.0:                                # %entry
	pushq	%rbp
	.cfi_def_cfa_offset 16
	.cfi_offset %rbp, -16
	movq	%rsp, %rbp
	.cfi_def_cfa_register %rbp
	pushq	%rbx
	subq	$56, %rsp
	.cfi_offset %rbx, -24
	movl	$1332924697, -20(%rbp)  # imm = 0x4F72D119
	vmovss	%xmm0, -24(%rbp)
	vmovss	%xmm1, -16(%rbp)
	movl	%edi, -28(%rbp)
	movl	%esi, -32(%rbp)
	vmovsd	%xmm2, -40(%rbp)
	vcvtsi2sdl	-32(%rbp), %xmm0, %xmm0
	vmulsd	-40(%rbp), %xmm0, %xmm0
	vmovss	-24(%rbp), %xmm1        # xmm1 = mem[0],zero,zero,zero
	vcvtss2sd	%xmm1, %xmm0, %xmm1
	vaddsd	%xmm1, %xmm0, %xmm0
	vmovsd	%xmm0, -48(%rbp)
	vcvtsi2sdl	-28(%rbp), %xmm0, %xmm0
	vmulsd	-40(%rbp), %xmm0, %xmm0
	vmovss	-16(%rbp), %xmm1        # xmm1 = mem[0],zero,zero,zero
	vcvtss2sd	%xmm1, %xmm0, %xmm1
	vaddsd	%xmm1, %xmm0, %xmm0
	vmovsd	%xmm0, -56(%rbp)
	vmovsd	-56(%rbp), %xmm0        # xmm0 = mem[0],zero
	vucomisd	-48(%rbp), %xmm0
	jbe	.LBB46_2
# %bb.1:                                # %if.then
	movl	$0, -12(%rbp)
	jmp	.LBB46_3
.LBB46_2:                               # %if.else
	movl	$1, -12(%rbp)
.LBB46_3:                               # %return
	movl	-12(%rbp), %ebx
	cmpl	$1332924697, -20(%rbp)  # imm = 0x4F72D119
	jne	.LBB46_5
.LBB46_4:
	movl	%ebx, %eax
	addq	$56, %rsp
	popq	%rbx
	popq	%rbp
	.cfi_def_cfa %rsp, 8
	retq
.LBB46_5:                               # %func_exit
	.cfi_def_cfa %rbp, 16
	callq	detect_breach
	jmp	.LBB46_4
.Lfunc_end46:
	.size	decide_fld_frame.22, .Lfunc_end46-decide_fld_frame.22
	.cfi_endproc
                                        # -- End function
	.globl	free_mem_mv.23          # -- Begin function free_mem_mv.23
	.p2align	4, 0x90
	.type	free_mem_mv.23,@function
free_mem_mv.23:                         # @free_mem_mv.23
	.cfi_startproc
# %bb.0:                                # %entry
	pushq	%rbp
	.cfi_def_cfa_offset 16
	.cfi_offset %rbp, -16
	movq	%rsp, %rbp
	.cfi_def_cfa_register %rbp
	subq	$48, %rsp
	movl	$827825190, -36(%rbp)   # imm = 0x31579C26
	movq	%rdi, -32(%rbp)
	movl	$0, -4(%rbp)
.LBB47_1:                               # %for.cond
                                        # =>This Loop Header: Depth=1
                                        #     Child Loop BB47_3 Depth 2
                                        #       Child Loop BB47_5 Depth 3
                                        #         Child Loop BB47_7 Depth 4
                                        #           Child Loop BB47_9 Depth 5
	cmpl	$4, -4(%rbp)
	jge	.LBB47_20
# %bb.2:                                # %for.body
                                        #   in Loop: Header=BB47_1 Depth=1
	movl	$0, -8(%rbp)
.LBB47_3:                               # %for.cond1
                                        #   Parent Loop BB47_1 Depth=1
                                        # =>  This Loop Header: Depth=2
                                        #       Child Loop BB47_5 Depth 3
                                        #         Child Loop BB47_7 Depth 4
                                        #           Child Loop BB47_9 Depth 5
	cmpl	$4, -8(%rbp)
	jge	.LBB47_18
# %bb.4:                                # %for.body3
                                        #   in Loop: Header=BB47_3 Depth=2
	movl	$0, -12(%rbp)
.LBB47_5:                               # %for.cond4
                                        #   Parent Loop BB47_1 Depth=1
                                        #     Parent Loop BB47_3 Depth=2
                                        # =>    This Loop Header: Depth=3
                                        #         Child Loop BB47_7 Depth 4
                                        #           Child Loop BB47_9 Depth 5
	cmpl	$2, -12(%rbp)
	jge	.LBB47_16
# %bb.6:                                # %for.body6
                                        #   in Loop: Header=BB47_5 Depth=3
	movl	$0, -16(%rbp)
.LBB47_7:                               # %for.cond7
                                        #   Parent Loop BB47_1 Depth=1
                                        #     Parent Loop BB47_3 Depth=2
                                        #       Parent Loop BB47_5 Depth=3
                                        # =>      This Loop Header: Depth=4
                                        #           Child Loop BB47_9 Depth 5
	movl	-16(%rbp), %eax
	movq	img, %rcx
	cmpl	36(%rcx), %eax
	jge	.LBB47_14
# %bb.8:                                # %for.body9
                                        #   in Loop: Header=BB47_7 Depth=4
	movl	$0, -20(%rbp)
.LBB47_9:                               # %for.cond10
                                        #   Parent Loop BB47_1 Depth=1
                                        #     Parent Loop BB47_3 Depth=2
                                        #       Parent Loop BB47_5 Depth=3
                                        #         Parent Loop BB47_7 Depth=4
                                        # =>        This Inner Loop Header: Depth=5
	cmpl	$9, -20(%rbp)
	jge	.LBB47_12
# %bb.10:                               # %for.body12
                                        #   in Loop: Header=BB47_9 Depth=5
	movq	-32(%rbp), %rax
	movslq	-4(%rbp), %rcx
	movq	(%rax,%rcx,8), %rax
	movslq	-8(%rbp), %rcx
	movq	(%rax,%rcx,8), %rax
	movslq	-12(%rbp), %rcx
	movq	(%rax,%rcx,8), %rax
	movslq	-16(%rbp), %rcx
	movq	(%rax,%rcx,8), %rax
	movslq	-20(%rbp), %rcx
	movq	(%rax,%rcx,8), %rdi
	callq	free
# %bb.11:                               # %for.inc
                                        #   in Loop: Header=BB47_9 Depth=5
	movl	-20(%rbp), %eax
	addl	$1, %eax
	movl	%eax, -20(%rbp)
	jmp	.LBB47_9
.LBB47_12:                              # %for.end
                                        #   in Loop: Header=BB47_7 Depth=4
	movq	-32(%rbp), %rax
	movslq	-4(%rbp), %rcx
	movq	(%rax,%rcx,8), %rax
	movslq	-8(%rbp), %rcx
	movq	(%rax,%rcx,8), %rax
	movslq	-12(%rbp), %rcx
	movq	(%rax,%rcx,8), %rax
	movslq	-16(%rbp), %rcx
	movq	(%rax,%rcx,8), %rdi
	callq	free
# %bb.13:                               # %for.inc29
                                        #   in Loop: Header=BB47_7 Depth=4
	movl	-16(%rbp), %eax
	addl	$1, %eax
	movl	%eax, -16(%rbp)
	jmp	.LBB47_7
.LBB47_14:                              # %for.end31
                                        #   in Loop: Header=BB47_5 Depth=3
	movq	-32(%rbp), %rax
	movslq	-4(%rbp), %rcx
	movq	(%rax,%rcx,8), %rax
	movslq	-8(%rbp), %rcx
	movq	(%rax,%rcx,8), %rax
	movslq	-12(%rbp), %rcx
	movq	(%rax,%rcx,8), %rdi
	callq	free
# %bb.15:                               # %for.inc38
                                        #   in Loop: Header=BB47_5 Depth=3
	movl	-12(%rbp), %eax
	addl	$1, %eax
	movl	%eax, -12(%rbp)
	jmp	.LBB47_5
.LBB47_16:                              # %for.end40
                                        #   in Loop: Header=BB47_3 Depth=2
	movq	-32(%rbp), %rax
	movslq	-4(%rbp), %rcx
	movq	(%rax,%rcx,8), %rax
	movslq	-8(%rbp), %rcx
	movq	(%rax,%rcx,8), %rdi
	callq	free
# %bb.17:                               # %for.inc45
                                        #   in Loop: Header=BB47_3 Depth=2
	movl	-8(%rbp), %eax
	addl	$1, %eax
	movl	%eax, -8(%rbp)
	jmp	.LBB47_3
.LBB47_18:                              # %for.end47
                                        #   in Loop: Header=BB47_1 Depth=1
	movq	-32(%rbp), %rax
	movslq	-4(%rbp), %rcx
	movq	(%rax,%rcx,8), %rdi
	callq	free
# %bb.19:                               # %for.inc50
                                        #   in Loop: Header=BB47_1 Depth=1
	movl	-4(%rbp), %eax
	addl	$1, %eax
	movl	%eax, -4(%rbp)
	jmp	.LBB47_1
.LBB47_20:                              # %for.end52
	movq	-32(%rbp), %rdi
	callq	free
	cmpl	$827825190, -36(%rbp)   # imm = 0x31579C26
	jne	.LBB47_22
.LBB47_21:
	addq	$48, %rsp
	popq	%rbp
	.cfi_def_cfa %rsp, 8
	retq
.LBB47_22:                              # %func_exit
	.cfi_def_cfa %rbp, 16
	callq	detect_breach
	jmp	.LBB47_21
.Lfunc_end47:
	.size	free_mem_mv.23, .Lfunc_end47-free_mem_mv.23
	.cfi_endproc
                                        # -- End function
	.globl	free_mem_DCcoeff.24     # -- Begin function free_mem_DCcoeff.24
	.p2align	4, 0x90
	.type	free_mem_DCcoeff.24,@function
free_mem_DCcoeff.24:                    # @free_mem_DCcoeff.24
	.cfi_startproc
# %bb.0:                                # %entry
	pushq	%rbp
	.cfi_def_cfa_offset 16
	.cfi_offset %rbp, -16
	movq	%rsp, %rbp
	.cfi_def_cfa_register %rbp
	subq	$32, %rsp
	movl	$1927384309, -20(%rbp)  # imm = 0x72E18CF5
	movq	%rdi, -16(%rbp)
	movl	$0, -4(%rbp)
.LBB48_1:                               # %for.cond
                                        # =>This Loop Header: Depth=1
                                        #     Child Loop BB48_3 Depth 2
	cmpl	$3, -4(%rbp)
	jge	.LBB48_8
# %bb.2:                                # %for.body
                                        #   in Loop: Header=BB48_1 Depth=1
	movl	$0, -8(%rbp)
.LBB48_3:                               # %for.cond1
                                        #   Parent Loop BB48_1 Depth=1
                                        # =>  This Inner Loop Header: Depth=2
	cmpl	$2, -8(%rbp)
	jge	.LBB48_6
# %bb.4:                                # %for.body3
                                        #   in Loop: Header=BB48_3 Depth=2
	movq	-16(%rbp), %rax
	movslq	-4(%rbp), %rcx
	movq	(%rax,%rcx,8), %rax
	movslq	-8(%rbp), %rcx
	movq	(%rax,%rcx,8), %rdi
	callq	free
# %bb.5:                                # %for.inc
                                        #   in Loop: Header=BB48_3 Depth=2
	movl	-8(%rbp), %eax
	addl	$1, %eax
	movl	%eax, -8(%rbp)
	jmp	.LBB48_3
.LBB48_6:                               # %for.end
                                        #   in Loop: Header=BB48_1 Depth=1
	movq	-16(%rbp), %rax
	movslq	-4(%rbp), %rcx
	movq	(%rax,%rcx,8), %rdi
	callq	free
# %bb.7:                                # %for.inc8
                                        #   in Loop: Header=BB48_1 Depth=1
	movl	-4(%rbp), %eax
	addl	$1, %eax
	movl	%eax, -4(%rbp)
	jmp	.LBB48_1
.LBB48_8:                               # %for.end10
	movq	-16(%rbp), %rdi
	callq	free
	cmpl	$1927384309, -20(%rbp)  # imm = 0x72E18CF5
	jne	.LBB48_10
.LBB48_9:
	addq	$32, %rsp
	popq	%rbp
	.cfi_def_cfa %rsp, 8
	retq
.LBB48_10:                              # %func_exit
	.cfi_def_cfa %rbp, 16
	callq	detect_breach
	jmp	.LBB48_9
.Lfunc_end48:
	.size	free_mem_DCcoeff.24, .Lfunc_end48-free_mem_DCcoeff.24
	.cfi_endproc
                                        # -- End function
	.globl	get_mem_mv.25           # -- Begin function get_mem_mv.25
	.p2align	4, 0x90
	.type	get_mem_mv.25,@function
get_mem_mv.25:                          # @get_mem_mv.25
	.cfi_startproc
# %bb.0:                                # %entry
	pushq	%rbp
	.cfi_def_cfa_offset 16
	.cfi_offset %rbp, -16
	movq	%rsp, %rbp
	.cfi_def_cfa_register %rbp
	pushq	%rbx
	subq	$40, %rsp
	.cfi_offset %rbx, -24
	movl	$1392570702, -44(%rbp)  # imm = 0x5300F14E
	movq	%rdi, -40(%rbp)
	movl	$4, %edi
	movl	$8, %esi
	callq	calloc
	movq	-40(%rbp), %rcx
	movq	%rax, (%rcx)
	cmpq	$0, %rax
	jne	.LBB49_2
# %bb.1:                                # %if.then
	movabsq	$.L.str.199, %rdi
	callq	no_mem_exit
.LBB49_2:                               # %if.end
	movl	$0, -12(%rbp)
.LBB49_3:                               # %for.cond
                                        # =>This Loop Header: Depth=1
                                        #     Child Loop BB49_7 Depth 2
                                        #       Child Loop BB49_11 Depth 3
                                        #         Child Loop BB49_15 Depth 4
                                        #           Child Loop BB49_19 Depth 5
	cmpl	$4, -12(%rbp)
	jge	.LBB49_32
# %bb.4:                                # %for.body
                                        #   in Loop: Header=BB49_3 Depth=1
	movl	$4, %edi
	movl	$8, %esi
	callq	calloc
	movq	-40(%rbp), %rcx
	movq	(%rcx), %rcx
	movslq	-12(%rbp), %rdx
	movq	%rax, (%rcx,%rdx,8)
	cmpq	$0, %rax
	jne	.LBB49_6
# %bb.5:                                # %if.then4
                                        #   in Loop: Header=BB49_3 Depth=1
	movabsq	$.L.str.199, %rdi
	callq	no_mem_exit
.LBB49_6:                               # %if.end5
                                        #   in Loop: Header=BB49_3 Depth=1
	movl	$0, -16(%rbp)
.LBB49_7:                               # %for.cond6
                                        #   Parent Loop BB49_3 Depth=1
                                        # =>  This Loop Header: Depth=2
                                        #       Child Loop BB49_11 Depth 3
                                        #         Child Loop BB49_15 Depth 4
                                        #           Child Loop BB49_19 Depth 5
	cmpl	$4, -16(%rbp)
	jge	.LBB49_30
# %bb.8:                                # %for.body8
                                        #   in Loop: Header=BB49_7 Depth=2
	movl	$2, %edi
	movl	$8, %esi
	callq	calloc
	movq	-40(%rbp), %rcx
	movq	(%rcx), %rcx
	movslq	-12(%rbp), %rdx
	movq	(%rcx,%rdx,8), %rcx
	movslq	-16(%rbp), %rdx
	movq	%rax, (%rcx,%rdx,8)
	cmpq	$0, %rax
	jne	.LBB49_10
# %bb.9:                                # %if.then15
                                        #   in Loop: Header=BB49_7 Depth=2
	movabsq	$.L.str.199, %rdi
	callq	no_mem_exit
.LBB49_10:                              # %if.end16
                                        #   in Loop: Header=BB49_7 Depth=2
	movl	$0, -20(%rbp)
.LBB49_11:                              # %for.cond17
                                        #   Parent Loop BB49_3 Depth=1
                                        #     Parent Loop BB49_7 Depth=2
                                        # =>    This Loop Header: Depth=3
                                        #         Child Loop BB49_15 Depth 4
                                        #           Child Loop BB49_19 Depth 5
	cmpl	$2, -20(%rbp)
	jge	.LBB49_28
# %bb.12:                               # %for.body19
                                        #   in Loop: Header=BB49_11 Depth=3
	movq	img, %rax
	movslq	36(%rax), %rdi
	movl	$8, %esi
	callq	calloc
	movq	-40(%rbp), %rcx
	movq	(%rcx), %rcx
	movslq	-12(%rbp), %rdx
	movq	(%rcx,%rdx,8), %rcx
	movslq	-16(%rbp), %rdx
	movq	(%rcx,%rdx,8), %rcx
	movslq	-20(%rbp), %rdx
	movq	%rax, (%rcx,%rdx,8)
	cmpq	$0, %rax
	jne	.LBB49_14
# %bb.13:                               # %if.then29
                                        #   in Loop: Header=BB49_11 Depth=3
	movabsq	$.L.str.199, %rdi
	callq	no_mem_exit
.LBB49_14:                              # %if.end30
                                        #   in Loop: Header=BB49_11 Depth=3
	movl	$0, -24(%rbp)
.LBB49_15:                              # %for.cond31
                                        #   Parent Loop BB49_3 Depth=1
                                        #     Parent Loop BB49_7 Depth=2
                                        #       Parent Loop BB49_11 Depth=3
                                        # =>      This Loop Header: Depth=4
                                        #           Child Loop BB49_19 Depth 5
	movl	-24(%rbp), %eax
	movq	img, %rcx
	cmpl	36(%rcx), %eax
	jge	.LBB49_26
# %bb.16:                               # %for.body35
                                        #   in Loop: Header=BB49_15 Depth=4
	movl	$9, %edi
	movl	$8, %esi
	callq	calloc
	movq	-40(%rbp), %rcx
	movq	(%rcx), %rcx
	movslq	-12(%rbp), %rdx
	movq	(%rcx,%rdx,8), %rcx
	movslq	-16(%rbp), %rdx
	movq	(%rcx,%rdx,8), %rcx
	movslq	-20(%rbp), %rdx
	movq	(%rcx,%rdx,8), %rcx
	movslq	-24(%rbp), %rdx
	movq	%rax, (%rcx,%rdx,8)
	cmpq	$0, %rax
	jne	.LBB49_18
# %bb.17:                               # %if.then47
                                        #   in Loop: Header=BB49_15 Depth=4
	movabsq	$.L.str.199, %rdi
	callq	no_mem_exit
.LBB49_18:                              # %if.end48
                                        #   in Loop: Header=BB49_15 Depth=4
	movl	$0, -28(%rbp)
.LBB49_19:                              # %for.cond49
                                        #   Parent Loop BB49_3 Depth=1
                                        #     Parent Loop BB49_7 Depth=2
                                        #       Parent Loop BB49_11 Depth=3
                                        #         Parent Loop BB49_15 Depth=4
                                        # =>        This Inner Loop Header: Depth=5
	cmpl	$9, -28(%rbp)
	jge	.LBB49_24
# %bb.20:                               # %for.body52
                                        #   in Loop: Header=BB49_19 Depth=5
	movl	$2, %edi
	movl	$2, %esi
	callq	calloc
	movq	-40(%rbp), %rcx
	movq	(%rcx), %rcx
	movslq	-12(%rbp), %rdx
	movq	(%rcx,%rdx,8), %rcx
	movslq	-16(%rbp), %rdx
	movq	(%rcx,%rdx,8), %rcx
	movslq	-20(%rbp), %rdx
	movq	(%rcx,%rdx,8), %rcx
	movslq	-24(%rbp), %rdx
	movq	(%rcx,%rdx,8), %rcx
	movslq	-28(%rbp), %rdx
	movq	%rax, (%rcx,%rdx,8)
	cmpq	$0, %rax
	jne	.LBB49_22
# %bb.21:                               # %if.then66
                                        #   in Loop: Header=BB49_19 Depth=5
	movabsq	$.L.str.199, %rdi
	callq	no_mem_exit
.LBB49_22:                              # %if.end67
                                        #   in Loop: Header=BB49_19 Depth=5
	jmp	.LBB49_23
.LBB49_23:                              # %for.inc
                                        #   in Loop: Header=BB49_19 Depth=5
	movl	-28(%rbp), %eax
	addl	$1, %eax
	movl	%eax, -28(%rbp)
	jmp	.LBB49_19
.LBB49_24:                              # %for.end
                                        #   in Loop: Header=BB49_15 Depth=4
	jmp	.LBB49_25
.LBB49_25:                              # %for.inc68
                                        #   in Loop: Header=BB49_15 Depth=4
	movl	-24(%rbp), %eax
	addl	$1, %eax
	movl	%eax, -24(%rbp)
	jmp	.LBB49_15
.LBB49_26:                              # %for.end70
                                        #   in Loop: Header=BB49_11 Depth=3
	jmp	.LBB49_27
.LBB49_27:                              # %for.inc71
                                        #   in Loop: Header=BB49_11 Depth=3
	movl	-20(%rbp), %eax
	addl	$1, %eax
	movl	%eax, -20(%rbp)
	jmp	.LBB49_11
.LBB49_28:                              # %for.end73
                                        #   in Loop: Header=BB49_7 Depth=2
	jmp	.LBB49_29
.LBB49_29:                              # %for.inc74
                                        #   in Loop: Header=BB49_7 Depth=2
	movl	-16(%rbp), %eax
	addl	$1, %eax
	movl	%eax, -16(%rbp)
	jmp	.LBB49_7
.LBB49_30:                              # %for.end76
                                        #   in Loop: Header=BB49_3 Depth=1
	jmp	.LBB49_31
.LBB49_31:                              # %for.inc77
                                        #   in Loop: Header=BB49_3 Depth=1
	movl	-12(%rbp), %eax
	addl	$1, %eax
	movl	%eax, -12(%rbp)
	jmp	.LBB49_3
.LBB49_32:                              # %for.end79
	movq	img, %rax
	movl	36(%rax), %eax
	shll	$4, %eax
	imull	$9, %eax, %eax
	shll	$1, %eax
	movslq	%eax, %rbx
	shlq	$1, %rbx
	cmpl	$1392570702, -44(%rbp)  # imm = 0x5300F14E
	jne	.LBB49_34
.LBB49_33:
	movl	%ebx, %eax
	addq	$40, %rsp
	popq	%rbx
	popq	%rbp
	.cfi_def_cfa %rsp, 8
	retq
.LBB49_34:                              # %func_exit
	.cfi_def_cfa %rbp, 16
	callq	detect_breach
	jmp	.LBB49_33
.Lfunc_end49:
	.size	get_mem_mv.25, .Lfunc_end49-get_mem_mv.25
	.cfi_endproc
                                        # -- End function
	.globl	get_mem_mv.26           # -- Begin function get_mem_mv.26
	.p2align	4, 0x90
	.type	get_mem_mv.26,@function
get_mem_mv.26:                          # @get_mem_mv.26
	.cfi_startproc
# %bb.0:                                # %entry
	pushq	%rbp
	.cfi_def_cfa_offset 16
	.cfi_offset %rbp, -16
	movq	%rsp, %rbp
	.cfi_def_cfa_register %rbp
	pushq	%rbx
	subq	$40, %rsp
	.cfi_offset %rbx, -24
	movl	$1588632532, -44(%rbp)  # imm = 0x5EB09BD4
	movq	%rdi, -40(%rbp)
	movl	$4, %edi
	movl	$8, %esi
	callq	calloc
	movq	-40(%rbp), %rcx
	movq	%rax, (%rcx)
	cmpq	$0, %rax
	jne	.LBB50_2
# %bb.1:                                # %if.then
	movabsq	$.L.str.199, %rdi
	callq	no_mem_exit
.LBB50_2:                               # %if.end
	movl	$0, -12(%rbp)
.LBB50_3:                               # %for.cond
                                        # =>This Loop Header: Depth=1
                                        #     Child Loop BB50_7 Depth 2
                                        #       Child Loop BB50_11 Depth 3
                                        #         Child Loop BB50_15 Depth 4
                                        #           Child Loop BB50_19 Depth 5
	cmpl	$4, -12(%rbp)
	jge	.LBB50_32
# %bb.4:                                # %for.body
                                        #   in Loop: Header=BB50_3 Depth=1
	movl	$4, %edi
	movl	$8, %esi
	callq	calloc
	movq	-40(%rbp), %rcx
	movq	(%rcx), %rcx
	movslq	-12(%rbp), %rdx
	movq	%rax, (%rcx,%rdx,8)
	cmpq	$0, %rax
	jne	.LBB50_6
# %bb.5:                                # %if.then4
                                        #   in Loop: Header=BB50_3 Depth=1
	movabsq	$.L.str.199, %rdi
	callq	no_mem_exit
.LBB50_6:                               # %if.end5
                                        #   in Loop: Header=BB50_3 Depth=1
	movl	$0, -16(%rbp)
.LBB50_7:                               # %for.cond6
                                        #   Parent Loop BB50_3 Depth=1
                                        # =>  This Loop Header: Depth=2
                                        #       Child Loop BB50_11 Depth 3
                                        #         Child Loop BB50_15 Depth 4
                                        #           Child Loop BB50_19 Depth 5
	cmpl	$4, -16(%rbp)
	jge	.LBB50_30
# %bb.8:                                # %for.body8
                                        #   in Loop: Header=BB50_7 Depth=2
	movl	$2, %edi
	movl	$8, %esi
	callq	calloc
	movq	-40(%rbp), %rcx
	movq	(%rcx), %rcx
	movslq	-12(%rbp), %rdx
	movq	(%rcx,%rdx,8), %rcx
	movslq	-16(%rbp), %rdx
	movq	%rax, (%rcx,%rdx,8)
	cmpq	$0, %rax
	jne	.LBB50_10
# %bb.9:                                # %if.then15
                                        #   in Loop: Header=BB50_7 Depth=2
	movabsq	$.L.str.199, %rdi
	callq	no_mem_exit
.LBB50_10:                              # %if.end16
                                        #   in Loop: Header=BB50_7 Depth=2
	movl	$0, -20(%rbp)
.LBB50_11:                              # %for.cond17
                                        #   Parent Loop BB50_3 Depth=1
                                        #     Parent Loop BB50_7 Depth=2
                                        # =>    This Loop Header: Depth=3
                                        #         Child Loop BB50_15 Depth 4
                                        #           Child Loop BB50_19 Depth 5
	cmpl	$2, -20(%rbp)
	jge	.LBB50_28
# %bb.12:                               # %for.body19
                                        #   in Loop: Header=BB50_11 Depth=3
	movq	img, %rax
	movslq	36(%rax), %rdi
	movl	$8, %esi
	callq	calloc
	movq	-40(%rbp), %rcx
	movq	(%rcx), %rcx
	movslq	-12(%rbp), %rdx
	movq	(%rcx,%rdx,8), %rcx
	movslq	-16(%rbp), %rdx
	movq	(%rcx,%rdx,8), %rcx
	movslq	-20(%rbp), %rdx
	movq	%rax, (%rcx,%rdx,8)
	cmpq	$0, %rax
	jne	.LBB50_14
# %bb.13:                               # %if.then29
                                        #   in Loop: Header=BB50_11 Depth=3
	movabsq	$.L.str.199, %rdi
	callq	no_mem_exit
.LBB50_14:                              # %if.end30
                                        #   in Loop: Header=BB50_11 Depth=3
	movl	$0, -24(%rbp)
.LBB50_15:                              # %for.cond31
                                        #   Parent Loop BB50_3 Depth=1
                                        #     Parent Loop BB50_7 Depth=2
                                        #       Parent Loop BB50_11 Depth=3
                                        # =>      This Loop Header: Depth=4
                                        #           Child Loop BB50_19 Depth 5
	movl	-24(%rbp), %eax
	movq	img, %rcx
	cmpl	36(%rcx), %eax
	jge	.LBB50_26
# %bb.16:                               # %for.body35
                                        #   in Loop: Header=BB50_15 Depth=4
	movl	$9, %edi
	movl	$8, %esi
	callq	calloc
	movq	-40(%rbp), %rcx
	movq	(%rcx), %rcx
	movslq	-12(%rbp), %rdx
	movq	(%rcx,%rdx,8), %rcx
	movslq	-16(%rbp), %rdx
	movq	(%rcx,%rdx,8), %rcx
	movslq	-20(%rbp), %rdx
	movq	(%rcx,%rdx,8), %rcx
	movslq	-24(%rbp), %rdx
	movq	%rax, (%rcx,%rdx,8)
	cmpq	$0, %rax
	jne	.LBB50_18
# %bb.17:                               # %if.then47
                                        #   in Loop: Header=BB50_15 Depth=4
	movabsq	$.L.str.199, %rdi
	callq	no_mem_exit
.LBB50_18:                              # %if.end48
                                        #   in Loop: Header=BB50_15 Depth=4
	movl	$0, -28(%rbp)
.LBB50_19:                              # %for.cond49
                                        #   Parent Loop BB50_3 Depth=1
                                        #     Parent Loop BB50_7 Depth=2
                                        #       Parent Loop BB50_11 Depth=3
                                        #         Parent Loop BB50_15 Depth=4
                                        # =>        This Inner Loop Header: Depth=5
	cmpl	$9, -28(%rbp)
	jge	.LBB50_24
# %bb.20:                               # %for.body52
                                        #   in Loop: Header=BB50_19 Depth=5
	movl	$2, %edi
	movl	$2, %esi
	callq	calloc
	movq	-40(%rbp), %rcx
	movq	(%rcx), %rcx
	movslq	-12(%rbp), %rdx
	movq	(%rcx,%rdx,8), %rcx
	movslq	-16(%rbp), %rdx
	movq	(%rcx,%rdx,8), %rcx
	movslq	-20(%rbp), %rdx
	movq	(%rcx,%rdx,8), %rcx
	movslq	-24(%rbp), %rdx
	movq	(%rcx,%rdx,8), %rcx
	movslq	-28(%rbp), %rdx
	movq	%rax, (%rcx,%rdx,8)
	cmpq	$0, %rax
	jne	.LBB50_22
# %bb.21:                               # %if.then66
                                        #   in Loop: Header=BB50_19 Depth=5
	movabsq	$.L.str.199, %rdi
	callq	no_mem_exit
.LBB50_22:                              # %if.end67
                                        #   in Loop: Header=BB50_19 Depth=5
	jmp	.LBB50_23
.LBB50_23:                              # %for.inc
                                        #   in Loop: Header=BB50_19 Depth=5
	movl	-28(%rbp), %eax
	addl	$1, %eax
	movl	%eax, -28(%rbp)
	jmp	.LBB50_19
.LBB50_24:                              # %for.end
                                        #   in Loop: Header=BB50_15 Depth=4
	jmp	.LBB50_25
.LBB50_25:                              # %for.inc68
                                        #   in Loop: Header=BB50_15 Depth=4
	movl	-24(%rbp), %eax
	addl	$1, %eax
	movl	%eax, -24(%rbp)
	jmp	.LBB50_15
.LBB50_26:                              # %for.end70
                                        #   in Loop: Header=BB50_11 Depth=3
	jmp	.LBB50_27
.LBB50_27:                              # %for.inc71
                                        #   in Loop: Header=BB50_11 Depth=3
	movl	-20(%rbp), %eax
	addl	$1, %eax
	movl	%eax, -20(%rbp)
	jmp	.LBB50_11
.LBB50_28:                              # %for.end73
                                        #   in Loop: Header=BB50_7 Depth=2
	jmp	.LBB50_29
.LBB50_29:                              # %for.inc74
                                        #   in Loop: Header=BB50_7 Depth=2
	movl	-16(%rbp), %eax
	addl	$1, %eax
	movl	%eax, -16(%rbp)
	jmp	.LBB50_7
.LBB50_30:                              # %for.end76
                                        #   in Loop: Header=BB50_3 Depth=1
	jmp	.LBB50_31
.LBB50_31:                              # %for.inc77
                                        #   in Loop: Header=BB50_3 Depth=1
	movl	-12(%rbp), %eax
	addl	$1, %eax
	movl	%eax, -12(%rbp)
	jmp	.LBB50_3
.LBB50_32:                              # %for.end79
	movq	img, %rax
	movl	36(%rax), %eax
	shll	$4, %eax
	imull	$9, %eax, %eax
	shll	$1, %eax
	movslq	%eax, %rbx
	shlq	$1, %rbx
	cmpl	$1588632532, -44(%rbp)  # imm = 0x5EB09BD4
	jne	.LBB50_34
.LBB50_33:
	movl	%ebx, %eax
	addq	$40, %rsp
	popq	%rbx
	popq	%rbp
	.cfi_def_cfa %rsp, 8
	retq
.LBB50_34:                              # %func_exit
	.cfi_def_cfa %rbp, 16
	callq	detect_breach
	jmp	.LBB50_33
.Lfunc_end50:
	.size	get_mem_mv.26, .Lfunc_end50-get_mem_mv.26
	.cfi_endproc
                                        # -- End function
	.globl	init_img.27             # -- Begin function init_img.27
	.p2align	4, 0x90
	.type	init_img.27,@function
init_img.27:                            # @init_img.27
	.cfi_startproc
# %bb.0:                                # %entry
	pushq	%rbp
	.cfi_def_cfa_offset 16
	.cfi_offset %rbp, -16
	movq	%rsp, %rbp
	.cfi_def_cfa_register %rbp
	subq	$16, %rsp
	movl	$226232594, -16(%rbp)   # imm = 0xD7C0912
	movq	input, %rax
	movl	72(%rax), %eax
	movq	img, %rcx
	movl	%eax, 72700(%rcx)
	movq	input, %rax
	movl	3296(%rax), %eax
	movq	img, %rcx
	movl	%eax, 72660(%rcx)
	movq	img, %rax
	movl	72660(%rax), %eax
	movq	img, %rcx
	cmpl	72664(%rcx), %eax
	jg	.LBB51_2
# %bb.1:                                # %lor.lhs.false
	movq	img, %rax
	cmpl	$0, 72700(%rax)
	jne	.LBB51_3
.LBB51_2:                               # %if.then
	movq	img, %rax
	movl	72660(%rax), %eax
	cmpl	$8, %eax
	movl	$16, %eax
	movl	$8, %ecx
	cmovgl	%eax, %ecx
	movq	img, %rax
	movl	%ecx, 72656(%rax)
	jmp	.LBB51_4
.LBB51_3:                               # %if.else
	movq	img, %rax
	movl	72664(%rax), %eax
	cmpl	$8, %eax
	movl	$16, %eax
	movl	$8, %ecx
	cmovgl	%eax, %ecx
	movq	img, %rax
	movl	%ecx, 72656(%rax)
.LBB51_4:                               # %if.end
	movq	img, %rax
	movl	72660(%rax), %eax
	subl	$8, %eax
	imull	$6, %eax, %eax
	movq	img, %rcx
	movl	%eax, 72668(%rcx)
	movq	img, %rax
	movl	72660(%rax), %eax
	subl	$8, %eax
	shll	$1, %eax
	movq	img, %rcx
	movl	%eax, 72676(%rcx)
	movq	img, %rax
	movl	72660(%rax), %ecx
	subl	$1, %ecx
                                        # kill: def $cl killed $ecx
	movl	$1, %eax
	movl	$1, %edx
	shll	%cl, %edx
	movq	img, %rcx
	movl	%edx, 72680(%rcx)
	movq	img, %rcx
	movl	72660(%rcx), %ecx
                                        # kill: def $cl killed $ecx
	shll	%cl, %eax
	subl	$1, %eax
	movq	img, %rcx
	movl	%eax, 72684(%rcx)
	movq	img, %rax
	cmpl	$0, 72700(%rax)
	je	.LBB51_12
# %bb.5:                                # %if.then22
	movq	input, %rax
	movl	3300(%rax), %eax
	movq	img, %rcx
	movl	%eax, 72664(%rcx)
	movq	img, %rax
	movl	72664(%rax), %ecx
                                        # kill: def $cl killed $ecx
	movl	$1, %eax
	movl	$1, %edx
	shll	%cl, %edx
	subl	$1, %edx
	movq	img, %rcx
	movl	%edx, 72688(%rcx)
	movq	img, %rcx
	movl	72700(%rcx), %ecx
                                        # kill: def $cl killed $ecx
	shll	%cl, %eax
	andl	$-2, %eax
	movq	img, %rcx
	movl	%eax, 72692(%rcx)
	movq	img, %rax
	movl	72692(%rax), %eax
	shll	$1, %eax
	movq	img, %rcx
	movl	%eax, 72696(%rcx)
	movq	img, %rax
	cmpl	$1, 72700(%rax)
	movb	$1, %al
	je	.LBB51_7
# %bb.6:                                # %lor.rhs
	movq	img, %rax
	cmpl	$2, 72700(%rax)
	sete	%al
.LBB51_7:                               # %lor.end
	testb	$1, %al
	movl	$8, %eax
	movl	$16, %ecx
	cmovnel	%eax, %ecx
	movq	img, %rax
	movl	%ecx, 72708(%rax)
	movq	img, %rax
	cmpl	$3, 72700(%rax)
	movb	$1, %al
	je	.LBB51_9
# %bb.8:                                # %lor.rhs38
	movq	img, %rax
	cmpl	$2, 72700(%rax)
	sete	%al
.LBB51_9:                               # %lor.end41
	testb	$1, %al
	movl	$16, %eax
	movl	$8, %ecx
	cmovnel	%eax, %ecx
	movq	img, %rax
	movl	%ecx, 72712(%rax)
	movq	img, %rax
	movl	72664(%rax), %eax
	subl	$8, %eax
	imull	$6, %eax, %eax
	movq	img, %rcx
	movl	%eax, 72672(%rcx)
	movq	img, %rax
	cmpl	$0, 72724(%rax)
	je	.LBB51_11
# %bb.10:                               # %if.then46
	movq	img, %rax
	movl	72672(%rax), %ecx
	addl	$6, %ecx
	movl	%ecx, 72672(%rax)
.LBB51_11:                              # %if.end48
	movq	active_pps, %rax
	movl	212(%rax), %eax
	movq	img, %rcx
	movl	%eax, 72716(%rcx)
	movq	active_pps, %rax
	movl	216(%rax), %eax
	movq	img, %rcx
	movl	%eax, 72720(%rcx)
	jmp	.LBB51_13
.LBB51_12:                              # %if.else51
	movq	img, %rax
	movl	$0, 72664(%rax)
	movq	img, %rax
	movl	$0, 72688(%rax)
	movq	img, %rax
	movl	$0, 72692(%rax)
	movq	img, %rax
	movl	$0, 72696(%rax)
	movq	img, %rax
	movl	$0, 72708(%rax)
	movq	img, %rax
	movl	$0, 72712(%rax)
	movq	img, %rax
	movl	$0, 72672(%rax)
	movq	img, %rax
	movl	$0, 72672(%rax)
	movq	img, %rax
	movl	$0, 72716(%rax)
	movq	img, %rax
	movl	$0, 72720(%rax)
.LBB51_13:                              # %if.end64
	movq	active_sps, %rax
	movl	1132(%rax), %eax
	movq	img, %rcx
	movl	%eax, 32(%rcx)
	movq	active_sps, %rax
	cmpl	$0, 1148(%rax)
	je	.LBB51_15
# %bb.14:                               # %cond.true
	movq	active_sps, %rax
	movl	1132(%rax), %eax
	jmp	.LBB51_16
.LBB51_15:                              # %cond.false
	movq	active_sps, %rax
	movl	1132(%rax), %eax
	shll	$1, %eax
.LBB51_16:                              # %cond.end
	movq	img, %rcx
	movl	%eax, 36(%rcx)
	movq	input, %rax
	movl	36(%rax), %eax
	movq	img, %rcx
	movl	%eax, 72376(%rcx)
	movq	img, %rax
	movl	$0, 72636(%rax)
	movq	input, %rax
	vmovsd	2424(%rax), %xmm0       # xmm0 = mem[0],zero
	vcvtsd2ss	%xmm0, %xmm0, %xmm0
	movq	img, %rax
	vmovss	%xmm0, 48(%rax)
	movq	img, %rdi
	addq	$71920, %rdi            # imm = 0x118F0
	callq	get_mem_mv
	movq	img, %rdi
	addq	$71928, %rdi            # imm = 0x118F8
	callq	get_mem_mv
	movq	input, %rax
	cmpl	$0, 1256(%rax)
	je	.LBB51_18
# %bb.17:                               # %if.then74
	movq	img, %rdi
	addq	$71936, %rdi            # imm = 0x11900
	callq	get_mem_mv
	movq	img, %rdi
	addq	$71944, %rdi            # imm = 0x11908
	callq	get_mem_mv
.LBB51_18:                              # %if.end77
	movq	img, %rdi
	addq	$14136, %rdi            # imm = 0x3738
	callq	get_mem_ACcoeff
	movq	img, %rdi
	addq	$14144, %rdi            # imm = 0x3740
	callq	get_mem_DCcoeff
	movq	input, %rax
	cmpl	$0, 2884(%rax)
	je	.LBB51_22
# %bb.19:                               # %if.then81
	movabsq	$rddata_top_frame_mb, %rdi
	addq	$3232, %rdi             # imm = 0xCA0
	callq	get_mem_mv
	movabsq	$rddata_top_frame_mb, %rdi
	addq	$3240, %rdi             # imm = 0xCA8
	callq	get_mem_mv
	movabsq	$rddata_bot_frame_mb, %rdi
	addq	$3232, %rdi             # imm = 0xCA0
	callq	get_mem_mv
	movabsq	$rddata_bot_frame_mb, %rdi
	addq	$3240, %rdi             # imm = 0xCA8
	callq	get_mem_mv
	movabsq	$rddata_top_field_mb, %rdi
	addq	$3232, %rdi             # imm = 0xCA0
	callq	get_mem_mv
	movabsq	$rddata_top_field_mb, %rdi
	addq	$3240, %rdi             # imm = 0xCA8
	callq	get_mem_mv
	movabsq	$rddata_bot_field_mb, %rdi
	addq	$3232, %rdi             # imm = 0xCA0
	callq	get_mem_mv
	movabsq	$rddata_bot_field_mb, %rdi
	addq	$3240, %rdi             # imm = 0xCA8
	callq	get_mem_mv
	movq	input, %rax
	cmpl	$0, 1256(%rax)
	je	.LBB51_21
# %bb.20:                               # %if.then92
	movabsq	$rddata_top_frame_mb, %rdi
	addq	$3248, %rdi             # imm = 0xCB0
	callq	get_mem_mv
	movabsq	$rddata_top_frame_mb, %rdi
	addq	$3256, %rdi             # imm = 0xCB8
	callq	get_mem_mv
	movabsq	$rddata_bot_frame_mb, %rdi
	addq	$3248, %rdi             # imm = 0xCB0
	callq	get_mem_mv
	movabsq	$rddata_bot_frame_mb, %rdi
	addq	$3256, %rdi             # imm = 0xCB8
	callq	get_mem_mv
	movabsq	$rddata_top_field_mb, %rdi
	addq	$3248, %rdi             # imm = 0xCB0
	callq	get_mem_mv
	movabsq	$rddata_top_field_mb, %rdi
	addq	$3256, %rdi             # imm = 0xCB8
	callq	get_mem_mv
	movabsq	$rddata_bot_field_mb, %rdi
	addq	$3248, %rdi             # imm = 0xCB0
	callq	get_mem_mv
	movabsq	$rddata_bot_field_mb, %rdi
	addq	$3256, %rdi             # imm = 0xCB8
	callq	get_mem_mv
.LBB51_21:                              # %if.end101
	movabsq	$rddata_top_frame_mb, %rdi
	addq	$3080, %rdi             # imm = 0xC08
	callq	get_mem_ACcoeff
	movabsq	$rddata_top_frame_mb, %rdi
	addq	$3088, %rdi             # imm = 0xC10
	callq	get_mem_DCcoeff
	movabsq	$rddata_bot_frame_mb, %rdi
	addq	$3080, %rdi             # imm = 0xC08
	callq	get_mem_ACcoeff
	movabsq	$rddata_bot_frame_mb, %rdi
	addq	$3088, %rdi             # imm = 0xC10
	callq	get_mem_DCcoeff
	movabsq	$rddata_top_field_mb, %rdi
	addq	$3080, %rdi             # imm = 0xC08
	callq	get_mem_ACcoeff
	movabsq	$rddata_top_field_mb, %rdi
	addq	$3088, %rdi             # imm = 0xC10
	callq	get_mem_DCcoeff
	movabsq	$rddata_bot_field_mb, %rdi
	addq	$3080, %rdi             # imm = 0xC08
	callq	get_mem_ACcoeff
	movabsq	$rddata_bot_field_mb, %rdi
	addq	$3088, %rdi             # imm = 0xC10
	callq	get_mem_DCcoeff
.LBB51_22:                              # %if.end110
	movq	img, %rax
	movl	72684(%rax), %eax
	movq	img, %rcx
	cmpl	72688(%rcx), %eax
	jle	.LBB51_24
# %bb.23:                               # %if.then115
	movq	img, %rax
	movl	72684(%rax), %eax
	addl	$1, %eax
	shll	$1, %eax
	movl	%eax, -12(%rbp)
	jmp	.LBB51_25
.LBB51_24:                              # %if.else119
	movq	img, %rax
	movl	72688(%rax), %eax
	addl	$1, %eax
	shll	$1, %eax
	movl	%eax, -12(%rbp)
.LBB51_25:                              # %if.end123
	movslq	-12(%rbp), %rdi
	movl	$4, %esi
	callq	calloc
	movq	img, %rcx
	movq	%rax, 71776(%rcx)
	cmpq	$0, %rax
	jne	.LBB51_27
# %bb.26:                               # %if.then128
	movabsq	$.L.str, %rdi
	callq	no_mem_exit
.LBB51_27:                              # %if.end129
	movl	-12(%rbp), %eax
	cltd
	movl	$2, %ecx
	idivl	%ecx
	movq	img, %rcx
	movq	71776(%rcx), %rdx
	cltq
	shlq	$2, %rax
	addq	%rax, %rdx
	movq	%rdx, 71776(%rcx)
	movl	$0, -4(%rbp)
.LBB51_28:                              # %for.cond
                                        # =>This Inner Loop Header: Depth=1
	movl	-4(%rbp), %ecx
	movl	-12(%rbp), %eax
	cltd
	movl	$2, %esi
	idivl	%esi
	cmpl	%eax, %ecx
	jge	.LBB51_31
# %bb.29:                               # %for.body
                                        #   in Loop: Header=BB51_28 Depth=1
	xorl	%eax, %eax
	movl	-4(%rbp), %ecx
	imull	-4(%rbp), %ecx
	movq	img, %rdx
	movq	71776(%rdx), %rdx
	subl	-4(%rbp), %eax
	cltq
	movl	%ecx, (%rdx,%rax,4)
	movq	img, %rax
	movq	71776(%rax), %rax
	movslq	-4(%rbp), %rdx
	movl	%ecx, (%rax,%rdx,4)
# %bb.30:                               # %for.inc
                                        #   in Loop: Header=BB51_28 Depth=1
	movl	-4(%rbp), %eax
	addl	$1, %eax
	movl	%eax, -4(%rbp)
	jmp	.LBB51_28
.LBB51_31:                              # %for.end
	movq	input, %rax
	movl	64(%rax), %eax
	movq	img, %rcx
	addl	72728(%rcx), %eax
	movq	img, %rcx
	movl	%eax, 52(%rcx)
	movq	input, %rax
	movl	68(%rax), %eax
	movq	img, %rcx
	addl	72732(%rcx), %eax
	movq	img, %rcx
	movl	%eax, 60(%rcx)
	movq	img, %rax
	cmpl	$0, 72700(%rax)
	je	.LBB51_33
# %bb.32:                               # %if.then146
	movq	img, %rax
	movl	52(%rax), %ecx
	movq	img, %rax
	movslq	72700(%rax), %rsi
	movl	$16, %eax
	cltd
	idivl	init_img.mb_width_cr(,%rsi,4)
	movl	%eax, %esi
	movl	%ecx, %eax
	cltd
	idivl	%esi
	movq	img, %rcx
	movl	%eax, 56(%rcx)
	movq	img, %rax
	movl	60(%rax), %ecx
	movq	img, %rax
	movslq	72700(%rax), %rsi
	movl	$16, %eax
	cltd
	idivl	init_img.mb_height_cr(,%rsi,4)
	movl	%eax, %esi
	movl	%ecx, %eax
	cltd
	idivl	%esi
	movq	img, %rcx
	movl	%eax, 64(%rcx)
	movq	input, %rax
	movl	64(%rax), %ecx
	movq	img, %rax
	movslq	72700(%rax), %rsi
	movl	$16, %eax
	cltd
	idivl	init_img.mb_width_cr(,%rsi,4)
	movl	%eax, %esi
	movl	%ecx, %eax
	cltd
	idivl	%esi
	movq	input, %rcx
	movl	%eax, 3308(%rcx)
	movq	input, %rax
	movl	68(%rax), %ecx
	movq	img, %rax
	movslq	72700(%rax), %rsi
	movl	$16, %eax
	cltd
	idivl	init_img.mb_height_cr(,%rsi,4)
	movl	%eax, %esi
	movl	%ecx, %eax
	cltd
	idivl	%esi
	movq	input, %rcx
	movl	%eax, 3304(%rcx)
	jmp	.LBB51_34
.LBB51_33:                              # %if.else171
	movq	img, %rax
	movl	$0, 56(%rax)
	movq	img, %rax
	movl	$0, 64(%rax)
	movq	input, %rax
	movl	$0, 3308(%rax)
	movq	input, %rax
	movl	$0, 3304(%rax)
.LBB51_34:                              # %if.end176
	movq	img, %rax
	movl	64(%rax), %eax
	movq	img, %rcx
	movl	%eax, 68(%rcx)
	movq	input, %rax
	movl	64(%rax), %eax
	movq	img, %rcx
	addl	72728(%rcx), %eax
	cltd
	movl	$16, %ecx
	idivl	%ecx
	movq	img, %rdx
	movl	%eax, 72468(%rdx)
	movq	input, %rax
	movl	68(%rax), %eax
	movq	img, %rdx
	addl	72732(%rdx), %eax
	cltd
	idivl	%ecx
	movq	img, %rcx
	movl	%eax, 72476(%rcx)
	movq	img, %rax
	movl	72468(%rax), %eax
	movq	img, %rcx
	imull	72476(%rcx), %eax
	movq	img, %rcx
	movl	%eax, 72488(%rcx)
	movq	active_sps, %rax
	cmpl	$0, 1148(%rax)
	je	.LBB51_36
# %bb.35:                               # %cond.true191
	movq	img, %rax
	movl	72476(%rax), %eax
	jmp	.LBB51_37
.LBB51_36:                              # %cond.false193
	movq	img, %rax
	movl	72476(%rax), %eax
	shrl	$1, %eax
.LBB51_37:                              # %cond.end196
	movq	img, %rcx
	movl	%eax, 72472(%rcx)
	movq	img, %rax
	movl	72488(%rax), %edi
	movl	$632, %esi              # imm = 0x278
	callq	calloc
	movq	img, %rcx
	movq	%rax, 14168(%rcx)
	cmpq	$0, %rax
	jne	.LBB51_39
# %bb.38:                               # %if.then203
	movabsq	$.L.str.1, %rdi
	callq	no_mem_exit
.LBB51_39:                              # %if.end204
	movq	input, %rax
	cmpl	$0, 216(%rax)
	je	.LBB51_43
# %bb.40:                               # %if.then206
	movq	img, %rax
	movl	72488(%rax), %edi
	movl	$4, %esi
	callq	calloc
	movq	img, %rcx
	movq	%rax, 71784(%rcx)
	cmpq	$0, %rax
	jne	.LBB51_42
# %bb.41:                               # %if.then212
	movabsq	$.L.str.2, %rdi
	callq	no_mem_exit
.LBB51_42:                              # %if.end213
	jmp	.LBB51_43
.LBB51_43:                              # %if.end214
	movq	img, %rdi
	addq	$104, %rdi
	movq	img, %rax
	movl	52(%rax), %eax
	cltd
	movl	$4, %ecx
	idivl	%ecx
	movl	%eax, %esi
	movq	img, %rax
	movl	60(%rax), %eax
	cltd
	idivl	%ecx
	movl	%eax, %edx
	callq	get_mem2Dint
	movq	img, %rdi
	addq	$112, %rdi
	movq	img, %rax
	movl	52(%rax), %eax
	cltd
	movl	$4, %ecx
	idivl	%ecx
	movl	%eax, %esi
	movq	img, %rax
	movl	60(%rax), %eax
	cltd
	idivl	%ecx
	movl	%eax, %edx
	callq	get_mem2Dint
	movabsq	$rddata_top_frame_mb, %rdi
	addq	$3136, %rdi             # imm = 0xC40
	movq	img, %rax
	movl	52(%rax), %eax
	cltd
	movl	$4, %ecx
	idivl	%ecx
	movl	%eax, %esi
	movq	img, %rax
	movl	60(%rax), %eax
	cltd
	idivl	%ecx
	movl	%eax, %edx
	callq	get_mem2Dint
	movq	input, %rax
	cmpl	$0, 2884(%rax)
	je	.LBB51_45
# %bb.44:                               # %if.then232
	movabsq	$rddata_bot_frame_mb, %rdi
	addq	$3136, %rdi             # imm = 0xC40
	movq	img, %rax
	movl	52(%rax), %eax
	cltd
	movl	$4, %ecx
	idivl	%ecx
	movl	%eax, %esi
	movq	img, %rax
	movl	60(%rax), %eax
	cltd
	idivl	%ecx
	movl	%eax, %edx
	callq	get_mem2Dint
	movabsq	$rddata_top_field_mb, %rdi
	addq	$3136, %rdi             # imm = 0xC40
	movq	img, %rax
	movl	52(%rax), %eax
	cltd
	movl	$4, %ecx
	idivl	%ecx
	movl	%eax, %esi
	movq	img, %rax
	movl	60(%rax), %eax
	cltd
	idivl	%ecx
	movl	%eax, %edx
	callq	get_mem2Dint
	movabsq	$rddata_bot_field_mb, %rdi
	addq	$3136, %rdi             # imm = 0xC40
	movq	img, %rax
	movl	52(%rax), %eax
	cltd
	movl	$4, %ecx
	idivl	%ecx
	movl	%eax, %esi
	movq	img, %rax
	movl	60(%rax), %eax
	cltd
	idivl	%ecx
	movl	%eax, %edx
	callq	get_mem2Dint
.LBB51_45:                              # %if.end248
	movq	img, %rdi
	addq	$128, %rdi
	movq	img, %rax
	movl	72488(%rax), %esi
	movq	img, %rax
	movl	72692(%rax), %ecx
	addl	$4, %ecx
	movl	$4, %edx
	callq	get_mem3Dint
	callq	CAVLC_init
	movl	$0, -4(%rbp)
.LBB51_46:                              # %for.cond253
                                        # =>This Loop Header: Depth=1
                                        #     Child Loop BB51_48 Depth 2
	movl	-4(%rbp), %ecx
	movq	img, %rax
	movl	52(%rax), %eax
	cltd
	movl	$4, %esi
	idivl	%esi
	cmpl	%eax, %ecx
	jge	.LBB51_53
# %bb.47:                               # %for.body258
                                        #   in Loop: Header=BB51_46 Depth=1
	movl	$0, -8(%rbp)
.LBB51_48:                              # %for.cond259
                                        #   Parent Loop BB51_46 Depth=1
                                        # =>  This Inner Loop Header: Depth=2
	movl	-8(%rbp), %ecx
	movq	img, %rax
	movl	60(%rax), %eax
	cltd
	movl	$4, %esi
	idivl	%esi
	cmpl	%eax, %ecx
	jge	.LBB51_51
# %bb.49:                               # %for.body264
                                        #   in Loop: Header=BB51_48 Depth=2
	movq	img, %rax
	movq	104(%rax), %rax
	movslq	-4(%rbp), %rcx
	movq	(%rax,%rcx,8), %rax
	movslq	-8(%rbp), %rcx
	movl	$-1, (%rax,%rcx,4)
	movq	img, %rax
	movq	112(%rax), %rax
	movslq	-4(%rbp), %rcx
	movq	(%rax,%rcx,8), %rax
	movslq	-8(%rbp), %rcx
	movl	$-1, (%rax,%rcx,4)
# %bb.50:                               # %for.inc275
                                        #   in Loop: Header=BB51_48 Depth=2
	movl	-8(%rbp), %eax
	addl	$1, %eax
	movl	%eax, -8(%rbp)
	jmp	.LBB51_48
.LBB51_51:                              # %for.end277
                                        #   in Loop: Header=BB51_46 Depth=1
	jmp	.LBB51_52
.LBB51_52:                              # %for.inc278
                                        #   in Loop: Header=BB51_46 Depth=1
	movl	-4(%rbp), %eax
	addl	$1, %eax
	movl	%eax, -4(%rbp)
	jmp	.LBB51_46
.LBB51_53:                              # %for.end280
	movq	img, %rax
	movl	$0, 88(%rax)
	movq	img, %rax
	movl	52(%rax), %eax
	cltd
	movl	$16, %ecx
	idivl	%ecx
	movl	%eax, %edi
	movq	img, %rax
	movl	60(%rax), %eax
	cltd
	idivl	%ecx
	movq	input, %rcx
	movl	2920(%rcx), %edx
	movl	%eax, %esi
	callq	RandomIntraInit
	movb	$0, %al
	callq	InitSEIMessages
	movq	input, %rax
	cmpl	$0, 2924(%rax)
	je	.LBB51_55
# %bb.54:                               # %if.then286
	movq	input, %rax
	movl	2932(%rax), %ecx
	shll	$1, %ecx
	movl	%ecx, 2932(%rax)
	movq	input, %rax
	movl	2936(%rax), %ecx
	shll	$1, %ecx
	movl	%ecx, 2936(%rax)
	jmp	.LBB51_56
.LBB51_55:                              # %if.else289
	movq	input, %rax
	movl	$0, 2928(%rax)
	movq	input, %rax
	movl	$0, 2932(%rax)
	movq	input, %rax
	movl	$0, 2936(%rax)
.LBB51_56:                              # %if.end292
	cmpl	$226232594, -16(%rbp)   # imm = 0xD7C0912
	jne	.LBB51_58
.LBB51_57:
	addq	$16, %rsp
	popq	%rbp
	.cfi_def_cfa %rsp, 8
	retq
.LBB51_58:                              # %func_exit
	.cfi_def_cfa %rbp, 16
	callq	detect_breach
	jmp	.LBB51_57
.Lfunc_end51:
	.size	init_img.27, .Lfunc_end51-init_img.27
	.cfi_endproc
                                        # -- End function
	.section	.rodata.cst8,"aM",@progbits,8
	.p2align	3               # -- Begin function report.28
.LCPI52_0:
	.quad	4562254508917369340     # double 0.001
.LCPI52_2:
	.quad	4607182418800017408     # double 1
	.section	.rodata.cst4,"aM",@progbits,4
	.p2align	2
.LCPI52_1:
	.long	1148846080              # float 1000
	.text
	.globl	report.28
	.p2align	4, 0x90
	.type	report.28,@function
report.28:                              # @report.28
	.cfi_startproc
# %bb.0:                                # %entry
	pushq	%rbp
	.cfi_def_cfa_offset 16
	.cfi_offset %rbp, -16
	movq	%rsp, %rbp
	.cfi_def_cfa_register %rbp
	pushq	%r15
	pushq	%r14
	pushq	%rbx
	subq	$1272, %rsp             # imm = 0x4F8
	.cfi_offset %rbx, -40
	.cfi_offset %r14, -32
	.cfi_offset %r15, -24
	movl	$1146380657, -100(%rbp) # imm = 0x44546171
	movl	Iframe_ctr, %eax
	movl	%eax, -64(%rbp)
	cmpl	$1, Pframe_ctr
	jle	.LBB52_2
# %bb.1:                                # %cond.true
	movl	Pframe_ctr, %eax
	jmp	.LBB52_3
.LBB52_2:                               # %cond.false
	movl	$1, %eax
