	.text
	.file	"lencod.c"
	.section	.rodata.cst8,"aM",@progbits,8
	.p2align	3               # -- Begin function main
.LCPI0_0:
	.quad	4602678801158248403     # double 0.49999900000000003
.LCPI0_1:
	.quad	4607182418800017408     # double 1
	.text
	.globl	main
	.p2align	4, 0x90
	.type	main,@function
main:                                   # @main
	.cfi_startproc
# %bb.0:                                # %entry
	pushq	%rbp
	.cfi_def_cfa_offset 16
	.cfi_offset %rbp, -16
	movq	%rsp, %rbp
	.cfi_def_cfa_register %rbp
	subq	$48, %rsp
	movl	$0, -44(%rbp)
	movl	%edi, -28(%rbp)
	movq	%rsi, -40(%rbp)
	movl	$-1, p_in
	movl	$-1, p_dec
	movq	$0, p_trace
	movq	$0, p_log
	movq	$0, p_stat
	movl	$1, frame_statistic_start
	movl	-28(%rbp), %edi
	movq	-40(%rbp), %rsi
	callq	Configure
	callq	Init_QMatrix
	movb	$0, %al
	callq	Init_QOffsetMatrix
	movb	$0, %al
	callq	AllocNalPayloadBuffer
	callq	init_poc
	movb	$0, %al
	callq	GenerateParameterSets
	callq	init_img
	callq	malloc_picture
	movq	%rax, frame_pic
	movq	input, %rax
	cmpl	$0, 1296(%rax)
	je	.LBB0_2
# %bb.1:                                # %if.then
	callq	malloc_picture
	movq	%rax, frame_pic2
	callq	malloc_picture
	movq	%rax, frame_pic3
.LBB0_2:                                # %if.end
	movq	input, %rax
	cmpl	$0, 2880(%rax)
	je	.LBB0_4
# %bb.3:                                # %if.then3
	callq	malloc_picture
	movq	%rax, top_pic
	callq	malloc_picture
	movq	%rax, bottom_pic
.LBB0_4:                                # %if.end6
	movb	$0, %al
	callq	init_rdopt
	movq	input, %rax
	cmpl	$0, 1320(%rax)
	je	.LBB0_9
# %bb.5:                                # %if.then8
	movb	$0, %al
	callq	init_gop_structure
	movq	input, %rax
	cmpl	$3, 1320(%rax)
	jne	.LBB0_7
# %bb.6:                                # %if.then11
	movb	$0, %al
	callq	interpret_gop_structure
	jmp	.LBB0_8
.LBB0_7:                                # %if.else
	movb	$0, %al
	callq	create_pyramid
.LBB0_8:                                # %if.end12
	jmp	.LBB0_9
.LBB0_9:                                # %if.end13
	movq	input, %rdi
	movb	$0, %al
	callq	init_dpb
	movb	$0, %al
	callq	init_out_buffer
	movq	$0, enc_bottom_picture
	movq	$0, enc_top_picture
	movq	$0, enc_frame_picture
	movq	$0, enc_picture
	callq	init_global_buffers
	movb	$0, %al
	callq	create_context_memory
	movb	$0, %al
	callq	Init_Motion_Search_Module
	callq	information_init
	movq	input, %rax
	cmpl	$0, 3236(%rax)
	je	.LBB0_11
# %bb.10:                               # %if.then16
	movb	$0, %al
	callq	rc_init_seq
.LBB0_11:                               # %if.end17
	movq	input, %rax
	cmpl	$0, 3292(%rax)
	je	.LBB0_13
# %bb.12:                               # %if.then19
	movb	$0, %al
	callq	DefineThreshold
.LBB0_13:                               # %if.end20
	movl	$0, Iframe_ctr
	movl	$0, Pframe_ctr
	movl	$0, Bframe_ctr
	movl	$0, tot_time
	movq	input, %rax
	cmpl	$0, 2440(%rax)
	jle	.LBB0_15
# %bb.14:                               # %if.then22
	movq	input, %rax
	movl	2440(%rax), %eax
	movq	input, %rcx
	addl	20(%rcx), %eax
	movq	input, %rcx
	movl	20(%rcx), %ecx
	addl	$1, %ecx
	cltd
	idivl	%ecx
	addl	$1, %eax
	movq	input, %rcx
	movl	%eax, 8(%rcx)
.LBB0_15:                               # %if.end27
	movq	input, %rax
	movl	1236(%rax), %eax
	movl	%eax, initial_Bframes
	movb	$0, %al
	callq	PatchInputNoFrames
	movq	stats, %rax
	movl	$0, 1488(%rax)
	movb	$0, %al
	callq	start_sequence
	movq	stats, %rcx
	movl	%eax, 24(%rcx)
	movq	stats, %rax
	movl	1492(%rax), %eax
	movq	stats, %rcx
	addl	1488(%rcx), %eax
	movl	%eax, 1488(%rcx)
	movl	$0, start_frame_no_in_this_IGOP
	movq	img, %rax
	movl	$0, (%rax)
.LBB0_16:                               # %for.cond
                                        # =>This Inner Loop Header: Depth=1
	movq	img, %rax
	movl	(%rax), %eax
	movq	input, %rcx
	cmpl	8(%rcx), %eax
	jge	.LBB0_79
# %bb.17:                               # %for.body
                                        #   in Loop: Header=BB0_16 Depth=1
	movq	img, %rax
	movl	$1, 72496(%rax)
	movq	input, %rax
	cmpl	$0, 1224(%rax)
	je	.LBB0_20
# %bb.18:                               # %land.lhs.true
                                        #   in Loop: Header=BB0_16 Depth=1
	movq	input, %rax
	cmpl	$0, 1228(%rax)
	je	.LBB0_20
# %bb.19:                               # %cond.true
                                        #   in Loop: Header=BB0_16 Depth=1
	movq	img, %rax
	movl	(%rax), %eax
	subl	start_frame_no_in_this_IGOP, %eax
	movq	input, %rcx
	cltd
	idivl	1224(%rcx)
	jmp	.LBB0_21
.LBB0_20:                               # %cond.false
                                        #   in Loop: Header=BB0_16 Depth=1
	movq	img, %rax
	movl	(%rax), %edx
	subl	start_frame_no_in_this_IGOP, %edx
.LBB0_21:                               # %cond.end
                                        #   in Loop: Header=BB0_16 Depth=1
	movq	input, %rax
	movl	20(%rax), %eax
	addl	$1, %eax
	shll	$1, %eax
	imull	%eax, %edx
	movq	img, %rax
	movl	%edx, 72448(%rax)
	movq	input, %rax
	cmpl	$0, 2880(%rax)
	jne	.LBB0_24
# %bb.22:                               # %land.lhs.true45
                                        #   in Loop: Header=BB0_16 Depth=1
	movq	input, %rax
	cmpl	$0, 2884(%rax)
	jne	.LBB0_24
# %bb.23:                               # %if.then47
                                        #   in Loop: Header=BB0_16 Depth=1
	movq	img, %rax
	movl	72448(%rax), %eax
	movq	img, %rcx
	movl	%eax, 72452(%rcx)
	jmp	.LBB0_25
.LBB0_24:                               # %if.else49
                                        #   in Loop: Header=BB0_16 Depth=1
	movq	img, %rax
	movl	72448(%rax), %eax
	addl	$1, %eax
	movq	img, %rcx
	movl	%eax, 72452(%rcx)
.LBB0_25:                               # %if.end53
                                        #   in Loop: Header=BB0_16 Depth=1
	movq	img, %rax
	movl	72448(%rax), %eax
	movq	img, %rcx
	cmpl	72452(%rcx), %eax
	jge	.LBB0_27
# %bb.26:                               # %cond.true57
                                        #   in Loop: Header=BB0_16 Depth=1
	movq	img, %rax
	movl	72448(%rax), %eax
	jmp	.LBB0_28
.LBB0_27:                               # %cond.false59
                                        #   in Loop: Header=BB0_16 Depth=1
	movq	img, %rax
	movl	72452(%rax), %eax
.LBB0_28:                               # %cond.end61
                                        #   in Loop: Header=BB0_16 Depth=1
	movq	img, %rcx
	movl	%eax, 72456(%rcx)
	movq	input, %rax
	cmpl	$0, 1316(%rax)
	jne	.LBB0_30
# %bb.29:                               # %land.lhs.true64
                                        #   in Loop: Header=BB0_16 Depth=1
	movq	input, %rax
	cmpl	$0, 1320(%rax)
	je	.LBB0_32
.LBB0_30:                               # %lor.lhs.false
                                        #   in Loop: Header=BB0_16 Depth=1
	movq	input, %rax
	cmpl	$0, 1236(%rax)
	je	.LBB0_32
# %bb.31:                               # %lor.lhs.false69
                                        #   in Loop: Header=BB0_16 Depth=1
	movq	img, %rax
	cmpl	$2, (%rax)
	jge	.LBB0_37
.LBB0_32:                               # %if.then72
                                        #   in Loop: Header=BB0_16 Depth=1
	movq	input, %rax
	cmpl	$0, 1224(%rax)
	je	.LBB0_35
# %bb.33:                               # %land.lhs.true75
                                        #   in Loop: Header=BB0_16 Depth=1
	movq	input, %rax
	cmpl	$0, 1228(%rax)
	je	.LBB0_35
# %bb.34:                               # %cond.true78
                                        #   in Loop: Header=BB0_16 Depth=1
	movq	img, %rax
	movl	(%rax), %eax
	subl	start_frame_no_in_this_IGOP, %eax
	movq	input, %rcx
	cltd
	idivl	1224(%rcx)
	movl	%edx, %eax
	jmp	.LBB0_36
.LBB0_35:                               # %cond.false83
                                        #   in Loop: Header=BB0_16 Depth=1
	movq	img, %rax
	movl	(%rax), %eax
	subl	start_frame_no_in_this_IGOP, %eax
.LBB0_36:                               # %cond.end86
                                        #   in Loop: Header=BB0_16 Depth=1
	movl	log2_max_frame_num_minus4, %ecx
	addl	$4, %ecx
                                        # kill: def $cl killed $ecx
	movl	$1, %esi
	shll	%cl, %esi
	cltd
	idivl	%esi
	movq	img, %rax
	movl	%edx, 72464(%rax)
	jmp	.LBB0_43
.LBB0_37:                               # %if.else90
                                        #   in Loop: Header=BB0_16 Depth=1
	movq	img, %rax
	movl	72464(%rax), %ecx
	addl	$1, %ecx
	movl	%ecx, 72464(%rax)
	movq	input, %rax
	cmpl	$0, 1224(%rax)
	je	.LBB0_42
# %bb.38:                               # %land.lhs.true94
                                        #   in Loop: Header=BB0_16 Depth=1
	movq	input, %rax
	cmpl	$0, 1228(%rax)
	je	.LBB0_42
# %bb.39:                               # %if.then97
                                        #   in Loop: Header=BB0_16 Depth=1
	xorl	%ecx, %ecx
	movq	img, %rax
	movl	(%rax), %eax
	movq	input, %rsi
	cltd
	idivl	1224(%rsi)
	cmpl	%edx, %ecx
	jne	.LBB0_41
# %bb.40:                               # %if.then102
                                        #   in Loop: Header=BB0_16 Depth=1
	movq	img, %rax
	movl	$0, 72464(%rax)
.LBB0_41:                               # %if.end104
                                        #   in Loop: Header=BB0_16 Depth=1
	jmp	.LBB0_42
.LBB0_42:                               # %if.end105
                                        #   in Loop: Header=BB0_16 Depth=1
	movl	log2_max_frame_num_minus4, %ecx
	addl	$4, %ecx
                                        # kill: def $cl killed $ecx
	movl	$1, %esi
	shll	%cl, %esi
	movq	img, %rcx
	movl	72464(%rcx), %eax
	xorl	%edx, %edx
	divl	%esi
	movl	%edx, 72464(%rcx)
.LBB0_43:                               # %if.end110
                                        #   in Loop: Header=BB0_16 Depth=1
	movq	img, %rax
	movl	$0, 72436(%rax)
	movq	input, %rax
	cmpl	$0, 1316(%rax)
	je	.LBB0_47
# %bb.44:                               # %if.then113
                                        #   in Loop: Header=BB0_16 Depth=1
	movq	img, %rax
	cmpl	$0, (%rax)
	je	.LBB0_46
# %bb.45:                               # %if.then116
                                        #   in Loop: Header=BB0_16 Depth=1
	movq	input, %rax
	movl	1236(%rax), %eax
	shll	$1, %eax
	movq	img, %rcx
	movl	%eax, 72436(%rcx)
.LBB0_46:                               # %if.end121
                                        #   in Loop: Header=BB0_16 Depth=1
	jmp	.LBB0_47
.LBB0_47:                               # %if.end122
                                        #   in Loop: Header=BB0_16 Depth=1
	callq	SetImgType
	movq	input, %rax
	cmpl	$0, 1236(%rax)
	je	.LBB0_51
# %bb.48:                               # %land.lhs.true125
                                        #   in Loop: Header=BB0_16 Depth=1
	movq	input, %rax
	cmpl	$0, 2440(%rax)
	je	.LBB0_51
# %bb.49:                               # %land.lhs.true128
                                        #   in Loop: Header=BB0_16 Depth=1
	movq	img, %rax
	movl	(%rax), %eax
	subl	start_frame_no_in_this_IGOP, %eax
	addl	$1, %eax
	movq	input, %rcx
	cmpl	8(%rcx), %eax
	jne	.LBB0_51
# %bb.50:                               # %if.then134
                                        #   in Loop: Header=BB0_16 Depth=1
	vmovsd	.LCPI0_0(%rip), %xmm0   # xmm0 = mem[0],zero
	vmovsd	.LCPI0_1(%rip), %xmm1   # xmm1 = mem[0],zero
	movq	input, %rax
	movl	20(%rax), %eax
	addl	$1, %eax
	vcvtsi2ss	%eax, %xmm0, %xmm2
	vcvtss2sd	%xmm2, %xmm0, %xmm2
	movq	input, %rax
	vcvtsi2sdl	1236(%rax), %xmm0, %xmm3
	vaddsd	%xmm1, %xmm3, %xmm1
	vdivsd	%xmm1, %xmm2, %xmm1
	vaddsd	%xmm0, %xmm1, %xmm0
	vcvttsd2si	%xmm0, %eax
	movl	%eax, -24(%rbp)
	movq	input, %rax
	movl	2440(%rax), %eax
	movq	img, %rcx
	movl	(%rcx), %ecx
	subl	$1, %ecx
	movq	input, %rdx
	movl	20(%rdx), %edx
	addl	$1, %edx
	imull	%edx, %ecx
	subl	%ecx, %eax
	cltd
	idivl	-24(%rbp)
	subl	$1, %eax
	movq	input, %rcx
	movl	%eax, 1236(%rcx)
	movl	initial_Bframes, %eax
	movq	input, %rcx
	subl	1236(%rcx), %eax
	imull	$4294967294, %eax, %eax # imm = 0xFFFFFFFE
	movq	img, %rcx
	movl	%eax, 72436(%rcx)
	movq	img, %rax
	movl	72436(%rax), %eax
	movq	img, %rcx
	addl	72448(%rcx), %eax
	movl	%eax, 72448(%rcx)
	movq	img, %rax
	movl	72436(%rax), %eax
	movq	img, %rcx
	addl	72452(%rcx), %eax
	movl	%eax, 72452(%rcx)
.LBB0_51:                               # %if.end167
                                        #   in Loop: Header=BB0_16 Depth=1
	movq	img, %rax
	cmpl	$2, 24(%rax)
	jne	.LBB0_69
# %bb.52:                               # %if.then170
                                        #   in Loop: Header=BB0_16 Depth=1
	movq	input, %rax
	cmpl	$0, 3236(%rax)
	je	.LBB0_68
# %bb.53:                               # %if.then173
                                        #   in Loop: Header=BB0_16 Depth=1
	movq	input, %rax
	cmpl	$0, 1224(%rax)
	jne	.LBB0_55
# %bb.54:                               # %if.then177
                                        #   in Loop: Header=BB0_16 Depth=1
	movq	input, %rax
	movl	8(%rax), %eax
	movq	input, %rcx
	movl	8(%rcx), %ecx
	subl	$1, %ecx
	movq	input, %rdx
	imull	1236(%rdx), %ecx
	addl	%ecx, %eax
	movl	%eax, -4(%rbp)
	movq	input, %rax
	movl	8(%rax), %eax
	subl	$1, %eax
	movl	%eax, -12(%rbp)
	movq	input, %rax
	movl	8(%rax), %eax
	subl	$1, %eax
	movq	input, %rcx
	imull	1236(%rcx), %eax
	movl	%eax, -16(%rbp)
	jmp	.LBB0_67
.LBB0_55:                               # %if.else190
                                        #   in Loop: Header=BB0_16 Depth=1
	movq	input, %rax
	movl	1224(%rax), %eax
	movq	input, %rcx
	movl	1236(%rcx), %ecx
	addl	$1, %ecx
	imull	%ecx, %eax
	movl	%eax, -20(%rbp)
	movq	input, %rax
	movl	1236(%rax), %eax
	addl	$1, %eax
	movl	%eax, -8(%rbp)
	movq	img, %rax
	cmpl	$0, (%rax)
	jne	.LBB0_57
# %bb.56:                               # %cond.true200
                                        #   in Loop: Header=BB0_16 Depth=1
	movl	-20(%rbp), %eax
	movl	-8(%rbp), %ecx
	subl	$1, %ecx
	subl	%ecx, %eax
	jmp	.LBB0_58
.LBB0_57:                               # %cond.false203
                                        #   in Loop: Header=BB0_16 Depth=1
	movl	-20(%rbp), %eax
.LBB0_58:                               # %cond.end204
                                        #   in Loop: Header=BB0_16 Depth=1
	movl	%eax, -4(%rbp)
	movq	img, %rax
	movl	(%rax), %eax
	movq	input, %rcx
	cltd
	idivl	1224(%rcx)
	movl	%eax, %ecx
	movq	input, %rax
	movl	8(%rax), %eax
	movq	input, %rsi
	cltd
	idivl	1224(%rsi)
	cmpl	%eax, %ecx
	jl	.LBB0_63
# %bb.59:                               # %if.then214
                                        #   in Loop: Header=BB0_16 Depth=1
	movq	img, %rax
	cmpl	$0, (%rax)
	je	.LBB0_61
# %bb.60:                               # %if.then218
                                        #   in Loop: Header=BB0_16 Depth=1
	movq	input, %rax
	movl	8(%rax), %eax
	movq	img, %rcx
	subl	(%rcx), %eax
	movq	input, %rcx
	movl	8(%rcx), %ecx
	movq	img, %rdx
	subl	(%rdx), %ecx
	subl	$1, %ecx
	movq	input, %rdx
	imull	1236(%rdx), %ecx
	addl	%ecx, %eax
	movq	input, %rcx
	addl	1236(%rcx), %eax
	movl	%eax, -4(%rbp)
	jmp	.LBB0_62
.LBB0_61:                               # %if.else231
                                        #   in Loop: Header=BB0_16 Depth=1
	movq	input, %rax
	movl	8(%rax), %eax
	movq	input, %rcx
	movl	8(%rcx), %ecx
	subl	$1, %ecx
	movq	input, %rdx
	imull	1236(%rdx), %ecx
	addl	%ecx, %eax
	movl	%eax, -4(%rbp)
.LBB0_62:                               # %if.end238
                                        #   in Loop: Header=BB0_16 Depth=1
	jmp	.LBB0_63
.LBB0_63:                               # %if.end239
                                        #   in Loop: Header=BB0_16 Depth=1
	movq	img, %rax
	cmpl	$0, (%rax)
	jne	.LBB0_65
# %bb.64:                               # %if.then243
                                        #   in Loop: Header=BB0_16 Depth=1
	movl	-4(%rbp), %eax
	movl	-8(%rbp), %ecx
	subl	$1, %ecx
	shll	$1, %ecx
	addl	%ecx, %eax
	cltd
	idivl	-8(%rbp)
	subl	$1, %eax
	movl	%eax, -12(%rbp)
	jmp	.LBB0_66
.LBB0_65:                               # %if.else249
                                        #   in Loop: Header=BB0_16 Depth=1
	movl	-4(%rbp), %eax
	movl	-8(%rbp), %ecx
	subl	$1, %ecx
	addl	%ecx, %eax
	cltd
	idivl	-8(%rbp)
	subl	$1, %eax
	movl	%eax, -12(%rbp)
.LBB0_66:                               # %if.end254
                                        #   in Loop: Header=BB0_16 Depth=1
	movl	-4(%rbp), %eax
	subl	-12(%rbp), %eax
	subl	$1, %eax
	movl	%eax, -16(%rbp)
.LBB0_67:                               # %if.end257
                                        #   in Loop: Header=BB0_16 Depth=1
	movl	-12(%rbp), %edi
	movl	-16(%rbp), %esi
	callq	rc_init_GOP
.LBB0_68:                               # %if.end258
                                        #   in Loop: Header=BB0_16 Depth=1
	jmp	.LBB0_69
.LBB0_69:                               # %if.end259
                                        #   in Loop: Header=BB0_16 Depth=1
	movq	img, %rax
	movl	(%rax), %eax
	subl	start_frame_no_in_this_IGOP, %eax
	movq	input, %rcx
	movl	2912(%rcx), %ecx
	addl	$1, %ecx
	cltd
	idivl	%ecx
	cmpl	$0, %edx
	jne	.LBB0_71
# %bb.70:                               # %if.then266
                                        #   in Loop: Header=BB0_16 Depth=1
	movq	img, %rax
	movl	$0, 72384(%rax)
	jmp	.LBB0_72
.LBB0_71:                               # %if.else267
                                        #   in Loop: Header=BB0_16 Depth=1
	movq	img, %rax
	movl	$1, 72384(%rax)
.LBB0_72:                               # %if.end269
                                        #   in Loop: Header=BB0_16 Depth=1
	movb	$0, %al
	callq	encode_one_frame
	movq	input, %rax
	cmpl	$0, 3228(%rax)
	je	.LBB0_74
# %bb.73:                               # %if.then272
                                        #   in Loop: Header=BB0_16 Depth=1
	callq	report_frame_statistic
.LBB0_74:                               # %if.end273
                                        #   in Loop: Header=BB0_16 Depth=1
	movq	img, %rax
	movl	8(%rax), %ecx
	addl	$1, %ecx
	movl	%ecx, 8(%rax)
	movq	img, %rax
	movl	8(%rax), %eax
	movq	img, %rcx
	cmpl	72376(%rcx), %eax
	jge	.LBB0_76
# %bb.75:                               # %cond.true278
                                        #   in Loop: Header=BB0_16 Depth=1
	movq	img, %rax
	movl	8(%rax), %eax
	jmp	.LBB0_77
.LBB0_76:                               # %cond.false280
                                        #   in Loop: Header=BB0_16 Depth=1
	movq	img, %rax
	movl	72376(%rax), %eax
.LBB0_77:                               # %cond.end282
                                        #   in Loop: Header=BB0_16 Depth=1
	movq	img, %rcx
	movl	%eax, 8(%rcx)
	movb	$0, %al
	callq	encode_enhancement_layer
	callq	process_2nd_IGOP
# %bb.78:                               # %for.inc
                                        #   in Loop: Header=BB0_16 Depth=1
	movq	img, %rax
	movl	(%rax), %ecx
	addl	$1, %ecx
	movl	%ecx, (%rax)
	jmp	.LBB0_16
.LBB0_79:                               # %for.end
	movb	$0, %al
	callq	terminate_sequence
	movb	$0, %al
	callq	flush_dpb
	movl	p_in, %edi
	callq	close
	movl	$4294967295, %eax       # imm = 0xFFFFFFFF
	cmpl	p_dec, %eax
	je	.LBB0_81
# %bb.80:                               # %if.then291
	movl	p_dec, %edi
	callq	close
.LBB0_81:                               # %if.end293
	cmpq	$0, p_trace
	je	.LBB0_83
# %bb.82:                               # %if.then295
	movq	p_trace, %rdi
	callq	fclose
.LBB0_83:                               # %if.end297
	movb	$0, %al
	callq	Clear_Motion_Search_Module
	movb	$0, %al
	callq	RandomIntraUninit
	movb	$0, %al
	callq	FmoUninit
	movq	input, %rax
	cmpl	$0, 1320(%rax)
	je	.LBB0_85
# %bb.84:                               # %if.then300
	movb	$0, %al
	callq	clear_gop_structure
.LBB0_85:                               # %if.end301
	movb	$0, %al
	callq	clear_rdopt
	movb	$0, %al
	callq	calc_buffer
	callq	report
	movq	frame_pic, %rdi
	callq	free_picture
	movq	input, %rax
	cmpl	$0, 1296(%rax)
	je	.LBB0_87
# %bb.86:                               # %if.then304
	movq	frame_pic2, %rdi
	callq	free_picture
	movq	frame_pic3, %rdi
	callq	free_picture
.LBB0_87:                               # %if.end305
	cmpq	$0, top_pic
	je	.LBB0_89
# %bb.88:                               # %if.then307
	movq	top_pic, %rdi
	callq	free_picture
.LBB0_89:                               # %if.end308
	cmpq	$0, bottom_pic
	je	.LBB0_91
# %bb.90:                               # %if.then310
	movq	bottom_pic, %rdi
	callq	free_picture
.LBB0_91:                               # %if.end311
	movb	$0, %al
	callq	free_dpb
	movq	Co_located, %rdi
	callq	free_colocated
	movb	$0, %al
	callq	uninit_out_buffer
	callq	free_global_buffers
	callq	free_img
	movb	$0, %al
	callq	free_context_memory
	movb	$0, %al
	callq	FreeNalPayloadBuffer
	movb	$0, %al
	callq	FreeParameterSets
	xorl	%eax, %eax
	addq	$48, %rsp
	popq	%rbp
	.cfi_def_cfa %rsp, 8
	retq
.Lfunc_end0:
	.size	main, .Lfunc_end0-main
	.cfi_endproc
                                        # -- End function
	.globl	free_picture            # -- Begin function free_picture
	.p2align	4, 0x90
	.type	free_picture,@function
free_picture:                           # @free_picture
	.cfi_startproc
# %bb.0:                                # %entry
	pushq	%rbp
	.cfi_def_cfa_offset 16
	.cfi_offset %rbp, -16
	movq	%rsp, %rbp
	.cfi_def_cfa_register %rbp
	subq	$16, %rsp
	movq	%rdi, -8(%rbp)
	cmpq	$0, -8(%rbp)
	je	.LBB1_2
# %bb.1:                                # %if.then
	movq	-8(%rbp), %rdi
	callq	free_slice_list
	movq	-8(%rbp), %rdi
	callq	free
.LBB1_2:                                # %if.end
	addq	$16, %rsp
	popq	%rbp
	.cfi_def_cfa %rsp, 8
	retq
.Lfunc_end1:
	.size	free_picture, .Lfunc_end1-free_picture
	.cfi_endproc
                                        # -- End function
	.globl	report_stats_on_error   # -- Begin function report_stats_on_error
	.p2align	4, 0x90
	.type	report_stats_on_error,@function
report_stats_on_error:                  # @report_stats_on_error
	.cfi_startproc
# %bb.0:                                # %entry
	pushq	%rbp
	.cfi_def_cfa_offset 16
	.cfi_offset %rbp, -16
	movq	%rsp, %rbp
	.cfi_def_cfa_register %rbp
	movq	img, %rax
	movl	(%rax), %eax
	subl	$1, %eax
	movq	input, %rcx
	movl	%eax, 8(%rcx)
	movb	$0, %al
	callq	terminate_sequence
	movb	$0, %al
	callq	flush_dpb
	movl	p_in, %edi
	callq	close
	movl	$4294967295, %eax       # imm = 0xFFFFFFFF
	cmpl	p_dec, %eax
	je	.LBB2_2
# %bb.1:                                # %if.then
	movl	p_dec, %edi
	callq	close
.LBB2_2:                                # %if.end
	cmpq	$0, p_trace
	je	.LBB2_4
# %bb.3:                                # %if.then3
	movq	p_trace, %rdi
	callq	fclose
.LBB2_4:                                # %if.end5
	movb	$0, %al
	callq	Clear_Motion_Search_Module
	movb	$0, %al
	callq	RandomIntraUninit
	movb	$0, %al
	callq	FmoUninit
	movq	input, %rax
	cmpl	$0, 1320(%rax)
	je	.LBB2_6
# %bb.5:                                # %if.then7
	movb	$0, %al
	callq	clear_gop_structure
.LBB2_6:                                # %if.end8
	movb	$0, %al
	callq	clear_rdopt
	movb	$0, %al
	callq	calc_buffer
	movq	input, %rax
	cmpl	$0, 3228(%rax)
	je	.LBB2_8
# %bb.7:                                # %if.then10
	callq	report_frame_statistic
.LBB2_8:                                # %if.end11
	callq	report
	movq	frame_pic, %rdi
	callq	free_picture
	cmpq	$0, top_pic
	je	.LBB2_10
# %bb.9:                                # %if.then13
	movq	top_pic, %rdi
	callq	free_picture
.LBB2_10:                               # %if.end14
	cmpq	$0, bottom_pic
	je	.LBB2_12
# %bb.11:                               # %if.then16
	movq	bottom_pic, %rdi
	callq	free_picture
.LBB2_12:                               # %if.end17
	movb	$0, %al
	callq	free_dpb
	movq	Co_located, %rdi
	callq	free_colocated
	movb	$0, %al
	callq	uninit_out_buffer
	callq	free_global_buffers
	callq	free_img
	movb	$0, %al
	callq	free_context_memory
	movb	$0, %al
	callq	FreeNalPayloadBuffer
	movb	$0, %al
	callq	FreeParameterSets
	popq	%rbp
	.cfi_def_cfa %rsp, 8
	retq
.Lfunc_end2:
	.size	report_stats_on_error, .Lfunc_end2-report_stats_on_error
	.cfi_endproc
                                        # -- End function
	.globl	init_poc                # -- Begin function init_poc
	.p2align	4, 0x90
	.type	init_poc,@function
init_poc:                               # @init_poc
	.cfi_startproc
# %bb.0:                                # %entry
	pushq	%rbp
	.cfi_def_cfa_offset 16
	.cfi_offset %rbp, -16
	movq	%rsp, %rbp
	.cfi_def_cfa_register %rbp
	movq	input, %rax
	movl	3208(%rax), %eax
	movq	img, %rcx
	movl	%eax, 72404(%rcx)
	movq	img, %rax
	movl	$0, 72408(%rax)
	movq	img, %rax
	movl	$1, 72420(%rax)
	movq	input, %rax
	cmpl	$0, 1316(%rax)
	je	.LBB3_2
# %bb.1:                                # %if.then
	movq	img, %rax
	movl	$0, 72412(%rax)
	movq	img, %rax
	movl	$2, 72424(%rax)
	jmp	.LBB3_3
.LBB3_2:                                # %if.else
	movq	input, %rax
	imull	$4294967294, 1236(%rax), %eax # imm = 0xFFFFFFFE
	movq	img, %rcx
	movl	%eax, 72412(%rcx)
	movq	input, %rax
	movl	1236(%rax), %eax
	addl	$1, %eax
	shll	$1, %eax
	movq	img, %rcx
	movl	%eax, 72424(%rcx)
.LBB3_3:                                # %if.end
	movq	input, %rax
	cmpl	$0, 2880(%rax)
	jne	.LBB3_6
# %bb.4:                                # %land.lhs.true
	movq	input, %rax
	cmpl	$0, 2884(%rax)
	jne	.LBB3_6
# %bb.5:                                # %if.then8
	movq	img, %rax
	movl	$0, 72416(%rax)
	jmp	.LBB3_7
.LBB3_6:                                # %if.else9
	movq	img, %rax
	movl	$1, 72416(%rax)
.LBB3_7:                                # %if.end11
	movq	input, %rax
	cmpl	$0, 2880(%rax)
	jne	.LBB3_10
# %bb.8:                                # %land.lhs.true14
	movq	input, %rax
	cmpl	$0, 2884(%rax)
	jne	.LBB3_10
# %bb.9:                                # %if.then17
	movq	img, %rax
	movl	$0, 72492(%rax)
	movq	img, %rax
	movl	$0, 72432(%rax)
	jmp	.LBB3_11
.LBB3_10:                               # %if.else18
	movq	img, %rax
	movl	$1, 72492(%rax)
	movq	img, %rax
	movl	$1, 72432(%rax)
.LBB3_11:                               # %if.end21
	popq	%rbp
	.cfi_def_cfa %rsp, 8
	retq
.Lfunc_end3:
	.size	init_poc, .Lfunc_end3-init_poc
	.cfi_endproc
                                        # -- End function
	.globl	CAVLC_init              # -- Begin function CAVLC_init
	.p2align	4, 0x90
	.type	CAVLC_init,@function
CAVLC_init:                             # @CAVLC_init
	.cfi_startproc
# %bb.0:                                # %rand_bb
	pushq	%rbp
	.cfi_def_cfa_offset 16
	.cfi_offset %rbp, -16
	movq	%rsp, %rbp
	.cfi_def_cfa_register %rbp
	callq	get_rand
	cmpl	$0, %eax
	jne	.LBB4_7
# %bb.1:                                # %func_CAVLC_init.17
	callq	CAVLC_init.17
	popq	%rbp
	.cfi_def_cfa %rsp, 8
	retq
.LBB4_2:                                # %func_CAVLC_init.18
	.cfi_def_cfa %rbp, 16
	callq	CAVLC_init.18
	popq	%rbp
	.cfi_def_cfa %rsp, 8
	retq
.LBB4_3:                                # %func_CAVLC_init.24
	.cfi_def_cfa %rbp, 16
	callq	CAVLC_init.24
	popq	%rbp
	.cfi_def_cfa %rsp, 8
	retq
.LBB4_4:                                # %func_CAVLC_init.30
	.cfi_def_cfa %rbp, 16
	callq	CAVLC_init.30
	popq	%rbp
	.cfi_def_cfa %rsp, 8
	retq
.LBB4_5:                                # %func_CAVLC_init.33
	.cfi_def_cfa %rbp, 16
	callq	CAVLC_init.33
	popq	%rbp
	.cfi_def_cfa %rsp, 8
	retq
.LBB4_6:                                # %func_CAVLC_init.39
	.cfi_def_cfa %rbp, 16
	callq	CAVLC_init.39
	popq	%rbp
	.cfi_def_cfa %rsp, 8
	retq
.LBB4_7:                                # %ctrl0
	.cfi_def_cfa %rbp, 16
	cmpl	$1, %eax
	je	.LBB4_2
# %bb.8:                                # %ctrl1
	cmpl	$2, %eax
	je	.LBB4_3
# %bb.9:                                # %ctrl2
	cmpl	$3, %eax
	je	.LBB4_4
# %bb.10:                               # %ctrl3
	cmpl	$4, %eax
	je	.LBB4_5
	jmp	.LBB4_6
.Lfunc_end4:
	.size	CAVLC_init, .Lfunc_end4-CAVLC_init
	.cfi_endproc
                                        # -- End function
	.globl	init_img                # -- Begin function init_img
	.p2align	4, 0x90
	.type	init_img,@function
init_img:                               # @init_img
	.cfi_startproc
# %bb.0:                                # %rand_bb
	pushq	%rbp
	.cfi_def_cfa_offset 16
	.cfi_offset %rbp, -16
	movq	%rsp, %rbp
	.cfi_def_cfa_register %rbp
	callq	get_rand
	cmpl	$0, %eax
	jne	.LBB5_7
# %bb.1:                                # %func_init_img.14
	callq	init_img.14
	popq	%rbp
	.cfi_def_cfa %rsp, 8
	retq
.LBB5_2:                                # %func_init_img.25
	.cfi_def_cfa %rbp, 16
	callq	init_img.25
	popq	%rbp
	.cfi_def_cfa %rsp, 8
	retq
.LBB5_3:                                # %func_init_img.36
	.cfi_def_cfa %rbp, 16
	callq	init_img.36
	popq	%rbp
	.cfi_def_cfa %rsp, 8
	retq
.LBB5_4:                                # %func_init_img.44
	.cfi_def_cfa %rbp, 16
	callq	init_img.44
	popq	%rbp
	.cfi_def_cfa %rsp, 8
	retq
.LBB5_5:                                # %func_init_img.49
	.cfi_def_cfa %rbp, 16
	callq	init_img.49
	popq	%rbp
	.cfi_def_cfa %rsp, 8
	retq
.LBB5_6:                                # %func_init_img.52
	.cfi_def_cfa %rbp, 16
	callq	init_img.52
	popq	%rbp
	.cfi_def_cfa %rsp, 8
	retq
.LBB5_7:                                # %ctrl0
	.cfi_def_cfa %rbp, 16
	cmpl	$1, %eax
	je	.LBB5_2
# %bb.8:                                # %ctrl1
	cmpl	$2, %eax
	je	.LBB5_3
# %bb.9:                                # %ctrl2
	cmpl	$3, %eax
	je	.LBB5_4
# %bb.10:                               # %ctrl3
	cmpl	$4, %eax
	je	.LBB5_5
	jmp	.LBB5_6
.Lfunc_end5:
	.size	init_img, .Lfunc_end5-init_img
	.cfi_endproc
                                        # -- End function
	.globl	get_mem_mv              # -- Begin function get_mem_mv
	.p2align	4, 0x90
	.type	get_mem_mv,@function
get_mem_mv:                             # @get_mem_mv
	.cfi_startproc
# %bb.0:                                # %rand_bb
	pushq	%rbp
	.cfi_def_cfa_offset 16
	.cfi_offset %rbp, -16
	movq	%rsp, %rbp
	.cfi_def_cfa_register %rbp
	pushq	%rbx
	pushq	%rax
	.cfi_offset %rbx, -24
	movq	%rdi, %rbx
	callq	get_rand
	cmpl	$0, %eax
	jne	.LBB6_17
# %bb.1:                                # %func_get_mem_mv.5
	movq	%rbx, %rdi
	callq	get_mem_mv.5
	addq	$8, %rsp
	popq	%rbx
	popq	%rbp
	.cfi_def_cfa %rsp, 8
	retq
.LBB6_2:                                # %func_get_mem_mv.12
	.cfi_def_cfa %rbp, 16
	movq	%rbx, %rdi
	callq	get_mem_mv.12
	addq	$8, %rsp
	popq	%rbx
	popq	%rbp
	.cfi_def_cfa %rsp, 8
	retq
.LBB6_3:                                # %func_get_mem_mv.19
	.cfi_def_cfa %rbp, 16
	movq	%rbx, %rdi
	callq	get_mem_mv.19
	addq	$8, %rsp
	popq	%rbx
	popq	%rbp
	.cfi_def_cfa %rsp, 8
	retq
.LBB6_4:                                # %func_get_mem_mv.20
	.cfi_def_cfa %rbp, 16
	movq	%rbx, %rdi
	callq	get_mem_mv.20
	addq	$8, %rsp
	popq	%rbx
	popq	%rbp
	.cfi_def_cfa %rsp, 8
	retq
.LBB6_5:                                # %func_get_mem_mv.38
	.cfi_def_cfa %rbp, 16
	movq	%rbx, %rdi
	callq	get_mem_mv.38
	addq	$8, %rsp
	popq	%rbx
	popq	%rbp
	.cfi_def_cfa %rsp, 8
	retq
.LBB6_6:                                # %func_get_mem_mv.57
	.cfi_def_cfa %rbp, 16
	movq	%rbx, %rdi
	callq	get_mem_mv.57
	addq	$8, %rsp
	popq	%rbx
	popq	%rbp
	.cfi_def_cfa %rsp, 8
	retq
.LBB6_7:                                # %func_get_mem_mv.60
	.cfi_def_cfa %rbp, 16
	movq	%rbx, %rdi
	callq	get_mem_mv.60
	addq	$8, %rsp
	popq	%rbx
	popq	%rbp
	.cfi_def_cfa %rsp, 8
	retq
.LBB6_8:                                # %func_get_mem_mv.61
	.cfi_def_cfa %rbp, 16
	movq	%rbx, %rdi
	callq	get_mem_mv.61
	addq	$8, %rsp
	popq	%rbx
	popq	%rbp
	.cfi_def_cfa %rsp, 8
	retq
.LBB6_9:                                # %func_get_mem_mv.68
	.cfi_def_cfa %rbp, 16
	movq	%rbx, %rdi
	callq	get_mem_mv.68
	addq	$8, %rsp
	popq	%rbx
	popq	%rbp
	.cfi_def_cfa %rsp, 8
	retq
.LBB6_10:                               # %func_get_mem_mv.73
	.cfi_def_cfa %rbp, 16
	movq	%rbx, %rdi
	callq	get_mem_mv.73
	addq	$8, %rsp
	popq	%rbx
	popq	%rbp
	.cfi_def_cfa %rsp, 8
	retq
.LBB6_11:                               # %func_get_mem_mv.81
	.cfi_def_cfa %rbp, 16
	movq	%rbx, %rdi
	callq	get_mem_mv.81
	addq	$8, %rsp
	popq	%rbx
	popq	%rbp
	.cfi_def_cfa %rsp, 8
	retq
.LBB6_12:                               # %func_get_mem_mv.91
	.cfi_def_cfa %rbp, 16
	movq	%rbx, %rdi
	callq	get_mem_mv.91
	addq	$8, %rsp
	popq	%rbx
	popq	%rbp
	.cfi_def_cfa %rsp, 8
	retq
.LBB6_13:                               # %func_get_mem_mv.113
	.cfi_def_cfa %rbp, 16
	movq	%rbx, %rdi
	callq	get_mem_mv.113
	addq	$8, %rsp
	popq	%rbx
	popq	%rbp
	.cfi_def_cfa %rsp, 8
	retq
.LBB6_14:                               # %func_get_mem_mv.115
	.cfi_def_cfa %rbp, 16
	movq	%rbx, %rdi
	callq	get_mem_mv.115
	addq	$8, %rsp
	popq	%rbx
	popq	%rbp
	.cfi_def_cfa %rsp, 8
	retq
.LBB6_15:                               # %func_get_mem_mv.125
	.cfi_def_cfa %rbp, 16
	movq	%rbx, %rdi
	callq	get_mem_mv.125
	addq	$8, %rsp
	popq	%rbx
	popq	%rbp
	.cfi_def_cfa %rsp, 8
	retq
.LBB6_16:                               # %func_get_mem_mv.126
	.cfi_def_cfa %rbp, 16
	movq	%rbx, %rdi
	callq	get_mem_mv.126
	addq	$8, %rsp
	popq	%rbx
	popq	%rbp
	.cfi_def_cfa %rsp, 8
	retq
.LBB6_17:                               # %ctrl0
	.cfi_def_cfa %rbp, 16
	cmpl	$1, %eax
	je	.LBB6_2
# %bb.18:                               # %ctrl1
	cmpl	$2, %eax
	je	.LBB6_3
# %bb.19:                               # %ctrl2
	cmpl	$3, %eax
	je	.LBB6_4
# %bb.20:                               # %ctrl3
	cmpl	$4, %eax
	je	.LBB6_5
# %bb.21:                               # %ctrl4
	cmpl	$5, %eax
	je	.LBB6_6
# %bb.22:                               # %ctrl5
	cmpl	$6, %eax
	je	.LBB6_7
# %bb.23:                               # %ctrl6
	cmpl	$7, %eax
	je	.LBB6_8
# %bb.24:                               # %ctrl7
	cmpl	$8, %eax
	je	.LBB6_9
# %bb.25:                               # %ctrl8
	cmpl	$9, %eax
	je	.LBB6_10
# %bb.26:                               # %ctrl9
	cmpl	$10, %eax
	je	.LBB6_11
# %bb.27:                               # %ctrl10
	cmpl	$11, %eax
	je	.LBB6_12
# %bb.28:                               # %ctrl11
	cmpl	$12, %eax
	je	.LBB6_13
# %bb.29:                               # %ctrl12
	cmpl	$13, %eax
	je	.LBB6_14
# %bb.30:                               # %ctrl13
	cmpl	$14, %eax
	je	.LBB6_15
	jmp	.LBB6_16
.Lfunc_end6:
	.size	get_mem_mv, .Lfunc_end6-get_mem_mv
	.cfi_endproc
                                        # -- End function
	.globl	get_mem_ACcoeff         # -- Begin function get_mem_ACcoeff
	.p2align	4, 0x90
	.type	get_mem_ACcoeff,@function
get_mem_ACcoeff:                        # @get_mem_ACcoeff
	.cfi_startproc
# %bb.0:                                # %rand_bb
	pushq	%rbp
	.cfi_def_cfa_offset 16
	.cfi_offset %rbp, -16
	movq	%rsp, %rbp
	.cfi_def_cfa_register %rbp
	pushq	%rbx
	pushq	%rax
	.cfi_offset %rbx, -24
	movq	%rdi, %rbx
	callq	get_rand
	cmpl	$0, %eax
	jne	.LBB7_17
# %bb.1:                                # %func_get_mem_ACcoeff.7
	movq	%rbx, %rdi
	callq	get_mem_ACcoeff.7
	addq	$8, %rsp
	popq	%rbx
	popq	%rbp
	.cfi_def_cfa %rsp, 8
	retq
.LBB7_2:                                # %func_get_mem_ACcoeff.37
	.cfi_def_cfa %rbp, 16
	movq	%rbx, %rdi
	callq	get_mem_ACcoeff.37
	addq	$8, %rsp
	popq	%rbx
	popq	%rbp
	.cfi_def_cfa %rsp, 8
	retq
.LBB7_3:                                # %func_get_mem_ACcoeff.47
	.cfi_def_cfa %rbp, 16
	movq	%rbx, %rdi
	callq	get_mem_ACcoeff.47
	addq	$8, %rsp
	popq	%rbx
	popq	%rbp
	.cfi_def_cfa %rsp, 8
	retq
.LBB7_4:                                # %func_get_mem_ACcoeff.64
	.cfi_def_cfa %rbp, 16
	movq	%rbx, %rdi
	callq	get_mem_ACcoeff.64
	addq	$8, %rsp
	popq	%rbx
	popq	%rbp
	.cfi_def_cfa %rsp, 8
	retq
.LBB7_5:                                # %func_get_mem_ACcoeff.79
	.cfi_def_cfa %rbp, 16
	movq	%rbx, %rdi
	callq	get_mem_ACcoeff.79
	addq	$8, %rsp
	popq	%rbx
	popq	%rbp
	.cfi_def_cfa %rsp, 8
	retq
.LBB7_6:                                # %func_get_mem_ACcoeff.80
	.cfi_def_cfa %rbp, 16
	movq	%rbx, %rdi
	callq	get_mem_ACcoeff.80
	addq	$8, %rsp
	popq	%rbx
	popq	%rbp
	.cfi_def_cfa %rsp, 8
	retq
.LBB7_7:                                # %func_get_mem_ACcoeff.83
	.cfi_def_cfa %rbp, 16
	movq	%rbx, %rdi
	callq	get_mem_ACcoeff.83
	addq	$8, %rsp
	popq	%rbx
	popq	%rbp
	.cfi_def_cfa %rsp, 8
	retq
.LBB7_8:                                # %func_get_mem_ACcoeff.88
	.cfi_def_cfa %rbp, 16
	movq	%rbx, %rdi
	callq	get_mem_ACcoeff.88
	addq	$8, %rsp
	popq	%rbx
	popq	%rbp
	.cfi_def_cfa %rsp, 8
	retq
.LBB7_9:                                # %func_get_mem_ACcoeff.90
	.cfi_def_cfa %rbp, 16
	movq	%rbx, %rdi
	callq	get_mem_ACcoeff.90
	addq	$8, %rsp
	popq	%rbx
	popq	%rbp
	.cfi_def_cfa %rsp, 8
	retq
.LBB7_10:                               # %func_get_mem_ACcoeff.99
	.cfi_def_cfa %rbp, 16
	movq	%rbx, %rdi
	callq	get_mem_ACcoeff.99
	addq	$8, %rsp
	popq	%rbx
	popq	%rbp
	.cfi_def_cfa %rsp, 8
	retq
.LBB7_11:                               # %func_get_mem_ACcoeff.100
	.cfi_def_cfa %rbp, 16
	movq	%rbx, %rdi
	callq	get_mem_ACcoeff.100
	addq	$8, %rsp
	popq	%rbx
	popq	%rbp
	.cfi_def_cfa %rsp, 8
	retq
.LBB7_12:                               # %func_get_mem_ACcoeff.103
	.cfi_def_cfa %rbp, 16
	movq	%rbx, %rdi
	callq	get_mem_ACcoeff.103
	addq	$8, %rsp
	popq	%rbx
	popq	%rbp
	.cfi_def_cfa %rsp, 8
	retq
.LBB7_13:                               # %func_get_mem_ACcoeff.112
	.cfi_def_cfa %rbp, 16
	movq	%rbx, %rdi
	callq	get_mem_ACcoeff.112
	addq	$8, %rsp
	popq	%rbx
	popq	%rbp
	.cfi_def_cfa %rsp, 8
	retq
.LBB7_14:                               # %func_get_mem_ACcoeff.120
	.cfi_def_cfa %rbp, 16
	movq	%rbx, %rdi
	callq	get_mem_ACcoeff.120
	addq	$8, %rsp
	popq	%rbx
	popq	%rbp
	.cfi_def_cfa %rsp, 8
	retq
.LBB7_15:                               # %func_get_mem_ACcoeff.122
	.cfi_def_cfa %rbp, 16
	movq	%rbx, %rdi
	callq	get_mem_ACcoeff.122
	addq	$8, %rsp
	popq	%rbx
	popq	%rbp
	.cfi_def_cfa %rsp, 8
	retq
.LBB7_16:                               # %func_get_mem_ACcoeff.129
	.cfi_def_cfa %rbp, 16
	movq	%rbx, %rdi
	callq	get_mem_ACcoeff.129
	addq	$8, %rsp
	popq	%rbx
	popq	%rbp
	.cfi_def_cfa %rsp, 8
	retq
.LBB7_17:                               # %ctrl0
	.cfi_def_cfa %rbp, 16
	cmpl	$1, %eax
	je	.LBB7_2
# %bb.18:                               # %ctrl1
	cmpl	$2, %eax
	je	.LBB7_3
# %bb.19:                               # %ctrl2
	cmpl	$3, %eax
	je	.LBB7_4
# %bb.20:                               # %ctrl3
	cmpl	$4, %eax
	je	.LBB7_5
# %bb.21:                               # %ctrl4
	cmpl	$5, %eax
	je	.LBB7_6
# %bb.22:                               # %ctrl5
	cmpl	$6, %eax
	je	.LBB7_7
# %bb.23:                               # %ctrl6
	cmpl	$7, %eax
	je	.LBB7_8
# %bb.24:                               # %ctrl7
	cmpl	$8, %eax
	je	.LBB7_9
# %bb.25:                               # %ctrl8
	cmpl	$9, %eax
	je	.LBB7_10
# %bb.26:                               # %ctrl9
	cmpl	$10, %eax
	je	.LBB7_11
# %bb.27:                               # %ctrl10
	cmpl	$11, %eax
	je	.LBB7_12
# %bb.28:                               # %ctrl11
	cmpl	$12, %eax
	je	.LBB7_13
# %bb.29:                               # %ctrl12
	cmpl	$13, %eax
	je	.LBB7_14
# %bb.30:                               # %ctrl13
	cmpl	$14, %eax
	je	.LBB7_15
	jmp	.LBB7_16
.Lfunc_end7:
	.size	get_mem_ACcoeff, .Lfunc_end7-get_mem_ACcoeff
	.cfi_endproc
                                        # -- End function
	.globl	get_mem_DCcoeff         # -- Begin function get_mem_DCcoeff
	.p2align	4, 0x90
	.type	get_mem_DCcoeff,@function
get_mem_DCcoeff:                        # @get_mem_DCcoeff
	.cfi_startproc
# %bb.0:                                # %rand_bb
	pushq	%rbp
	.cfi_def_cfa_offset 16
	.cfi_offset %rbp, -16
	movq	%rsp, %rbp
	.cfi_def_cfa_register %rbp
	pushq	%rbx
	pushq	%rax
	.cfi_offset %rbx, -24
	movq	%rdi, %rbx
	callq	get_rand
	cmpl	$0, %eax
	jne	.LBB8_7
# %bb.1:                                # %func_get_mem_DCcoeff.9
	movq	%rbx, %rdi
	callq	get_mem_DCcoeff.9
	addq	$8, %rsp
	popq	%rbx
	popq	%rbp
	.cfi_def_cfa %rsp, 8
	retq
.LBB8_2:                                # %func_get_mem_DCcoeff.32
	.cfi_def_cfa %rbp, 16
	movq	%rbx, %rdi
	callq	get_mem_DCcoeff.32
	addq	$8, %rsp
	popq	%rbx
	popq	%rbp
	.cfi_def_cfa %rsp, 8
	retq
.LBB8_3:                                # %func_get_mem_DCcoeff.42
	.cfi_def_cfa %rbp, 16
	movq	%rbx, %rdi
	callq	get_mem_DCcoeff.42
	addq	$8, %rsp
	popq	%rbx
	popq	%rbp
	.cfi_def_cfa %rsp, 8
	retq
.LBB8_4:                                # %func_get_mem_DCcoeff.45
	.cfi_def_cfa %rbp, 16
	movq	%rbx, %rdi
	callq	get_mem_DCcoeff.45
	addq	$8, %rsp
	popq	%rbx
	popq	%rbp
	.cfi_def_cfa %rsp, 8
	retq
.LBB8_5:                                # %func_get_mem_DCcoeff.58
	.cfi_def_cfa %rbp, 16
	movq	%rbx, %rdi
	callq	get_mem_DCcoeff.58
	addq	$8, %rsp
	popq	%rbx
	popq	%rbp
	.cfi_def_cfa %rsp, 8
	retq
.LBB8_6:                                # %func_get_mem_DCcoeff.63
	.cfi_def_cfa %rbp, 16
	movq	%rbx, %rdi
	callq	get_mem_DCcoeff.63
	addq	$8, %rsp
	popq	%rbx
	popq	%rbp
	.cfi_def_cfa %rsp, 8
	retq
.LBB8_7:                                # %ctrl0
	.cfi_def_cfa %rbp, 16
	cmpl	$1, %eax
	je	.LBB8_2
# %bb.8:                                # %ctrl1
	cmpl	$2, %eax
	je	.LBB8_3
# %bb.9:                                # %ctrl2
	cmpl	$3, %eax
	je	.LBB8_4
# %bb.10:                               # %ctrl3
	cmpl	$4, %eax
	je	.LBB8_5
	jmp	.LBB8_6
.Lfunc_end8:
	.size	get_mem_DCcoeff, .Lfunc_end8-get_mem_DCcoeff
	.cfi_endproc
                                        # -- End function
	.globl	free_img                # -- Begin function free_img
	.p2align	4, 0x90
	.type	free_img,@function
free_img:                               # @free_img
	.cfi_startproc
# %bb.0:                                # %entry
	pushq	%rbp
	.cfi_def_cfa_offset 16
	.cfi_offset %rbp, -16
	movq	%rsp, %rbp
	.cfi_def_cfa_register %rbp
	movb	$0, %al
	callq	CloseSEIMessages
	movq	img, %rax
	movq	71920(%rax), %rdi
	callq	free_mem_mv
	movq	img, %rax
	movq	71928(%rax), %rdi
	callq	free_mem_mv
	movq	input, %rax
	cmpl	$0, 1256(%rax)
	je	.LBB9_2
# %bb.1:                                # %if.then
	movq	img, %rax
	movq	71936(%rax), %rdi
	callq	free_mem_mv
	movq	img, %rax
	movq	71944(%rax), %rdi
	callq	free_mem_mv
.LBB9_2:                                # %if.end
	movq	img, %rax
	movq	14136(%rax), %rdi
	callq	free_mem_ACcoeff
	movq	img, %rax
	movq	14144(%rax), %rdi
	callq	free_mem_DCcoeff
	movq	input, %rax
	cmpl	$0, 2884(%rax)
	je	.LBB9_6
# %bb.3:                                # %if.then2
	movq	rddata_top_frame_mb+3232, %rdi
	callq	free_mem_mv
	movq	rddata_top_frame_mb+3240, %rdi
	callq	free_mem_mv
	movq	rddata_bot_frame_mb+3232, %rdi
	callq	free_mem_mv
	movq	rddata_bot_frame_mb+3240, %rdi
	callq	free_mem_mv
	movq	rddata_top_field_mb+3232, %rdi
	callq	free_mem_mv
	movq	rddata_top_field_mb+3240, %rdi
	callq	free_mem_mv
	movq	rddata_bot_field_mb+3232, %rdi
	callq	free_mem_mv
	movq	rddata_bot_field_mb+3240, %rdi
	callq	free_mem_mv
	movq	input, %rax
	cmpl	$0, 1256(%rax)
	je	.LBB9_5
# %bb.4:                                # %if.then5
	movq	rddata_top_frame_mb+3248, %rdi
	callq	free_mem_mv
	movq	rddata_top_frame_mb+3256, %rdi
	callq	free_mem_mv
	movq	rddata_bot_frame_mb+3248, %rdi
	callq	free_mem_mv
	movq	rddata_bot_frame_mb+3256, %rdi
	callq	free_mem_mv
	movq	rddata_top_field_mb+3248, %rdi
	callq	free_mem_mv
	movq	rddata_top_field_mb+3256, %rdi
	callq	free_mem_mv
	movq	rddata_bot_field_mb+3248, %rdi
	callq	free_mem_mv
	movq	rddata_bot_field_mb+3256, %rdi
	callq	free_mem_mv
.LBB9_5:                                # %if.end6
	movq	rddata_top_frame_mb+3080, %rdi
	callq	free_mem_ACcoeff
	movq	rddata_top_frame_mb+3088, %rdi
	callq	free_mem_DCcoeff
	movq	rddata_bot_frame_mb+3080, %rdi
	callq	free_mem_ACcoeff
	movq	rddata_bot_frame_mb+3088, %rdi
	callq	free_mem_DCcoeff
	movq	rddata_top_field_mb+3080, %rdi
	callq	free_mem_ACcoeff
	movq	rddata_top_field_mb+3088, %rdi
	callq	free_mem_DCcoeff
	movq	rddata_bot_field_mb+3080, %rdi
	callq	free_mem_ACcoeff
	movq	rddata_bot_field_mb+3088, %rdi
	callq	free_mem_DCcoeff
.LBB9_6:                                # %if.end7
	movq	img, %rax
	movl	72684(%rax), %eax
	movq	img, %rcx
	cmpl	72688(%rcx), %eax
	jle	.LBB9_8
# %bb.7:                                # %if.then8
	xorl	%eax, %eax
	movq	img, %rcx
	movq	71776(%rcx), %rdi
	movq	img, %rcx
	movl	72684(%rcx), %ecx
	addl	$1, %ecx
	movslq	%ecx, %rcx
	subq	%rcx, %rax
	shlq	$2, %rax
	addq	%rax, %rdi
	callq	free
	jmp	.LBB9_9
.LBB9_8:                                # %if.else
	xorl	%eax, %eax
	movq	img, %rcx
	movq	71776(%rcx), %rdi
	movq	img, %rcx
	movl	72688(%rcx), %ecx
	addl	$1, %ecx
	movslq	%ecx, %rcx
	subq	%rcx, %rax
	shlq	$2, %rax
	addq	%rax, %rdi
	callq	free
.LBB9_9:                                # %if.end16
	movq	input, %rax
	cmpl	$0, 2884(%rax)
	je	.LBB9_11
# %bb.10:                               # %if.then19
	movq	rddata_bot_frame_mb+3136, %rdi
	callq	free_mem2Dint
	movq	rddata_top_field_mb+3136, %rdi
	callq	free_mem2Dint
	movq	rddata_bot_field_mb+3136, %rdi
	callq	free_mem2Dint
.LBB9_11:                               # %if.end20
	popq	%rbp
	.cfi_def_cfa %rsp, 8
	retq
.Lfunc_end9:
	.size	free_img, .Lfunc_end9-free_img
	.cfi_endproc
                                        # -- End function
	.globl	free_mem_mv             # -- Begin function free_mem_mv
	.p2align	4, 0x90
	.type	free_mem_mv,@function
free_mem_mv:                            # @free_mem_mv
	.cfi_startproc
# %bb.0:                                # %rand_bb
	pushq	%rbp
	.cfi_def_cfa_offset 16
	.cfi_offset %rbp, -16
	movq	%rsp, %rbp
	.cfi_def_cfa_register %rbp
	pushq	%rbx
	pushq	%rax
	.cfi_offset %rbx, -24
	movq	%rdi, %rbx
	callq	get_rand
	cmpl	$0, %eax
	jne	.LBB10_17
# %bb.1:                                # %func_free_mem_mv.21
	movq	%rbx, %rdi
	callq	free_mem_mv.21
	addq	$8, %rsp
	popq	%rbx
	popq	%rbp
	.cfi_def_cfa %rsp, 8
	retq
.LBB10_2:                               # %func_free_mem_mv.29
	.cfi_def_cfa %rbp, 16
	movq	%rbx, %rdi
	callq	free_mem_mv.29
	addq	$8, %rsp
	popq	%rbx
	popq	%rbp
	.cfi_def_cfa %rsp, 8
	retq
.LBB10_3:                               # %func_free_mem_mv.69
	.cfi_def_cfa %rbp, 16
	movq	%rbx, %rdi
	callq	free_mem_mv.69
	addq	$8, %rsp
	popq	%rbx
	popq	%rbp
	.cfi_def_cfa %rsp, 8
	retq
.LBB10_4:                               # %func_free_mem_mv.70
	.cfi_def_cfa %rbp, 16
	movq	%rbx, %rdi
	callq	free_mem_mv.70
	addq	$8, %rsp
	popq	%rbx
	popq	%rbp
	.cfi_def_cfa %rsp, 8
	retq
.LBB10_5:                               # %func_free_mem_mv.72
	.cfi_def_cfa %rbp, 16
	movq	%rbx, %rdi
	callq	free_mem_mv.72
	addq	$8, %rsp
	popq	%rbx
	popq	%rbp
	.cfi_def_cfa %rsp, 8
	retq
.LBB10_6:                               # %func_free_mem_mv.84
	.cfi_def_cfa %rbp, 16
	movq	%rbx, %rdi
	callq	free_mem_mv.84
	addq	$8, %rsp
	popq	%rbx
	popq	%rbp
	.cfi_def_cfa %rsp, 8
	retq
.LBB10_7:                               # %func_free_mem_mv.85
	.cfi_def_cfa %rbp, 16
	movq	%rbx, %rdi
	callq	free_mem_mv.85
	addq	$8, %rsp
	popq	%rbx
	popq	%rbp
	.cfi_def_cfa %rsp, 8
	retq
.LBB10_8:                               # %func_free_mem_mv.96
	.cfi_def_cfa %rbp, 16
	movq	%rbx, %rdi
	callq	free_mem_mv.96
	addq	$8, %rsp
	popq	%rbx
	popq	%rbp
	.cfi_def_cfa %rsp, 8
	retq
.LBB10_9:                               # %func_free_mem_mv.102
	.cfi_def_cfa %rbp, 16
	movq	%rbx, %rdi
	callq	free_mem_mv.102
	addq	$8, %rsp
	popq	%rbx
	popq	%rbp
	.cfi_def_cfa %rsp, 8
	retq
.LBB10_10:                              # %func_free_mem_mv.104
	.cfi_def_cfa %rbp, 16
	movq	%rbx, %rdi
	callq	free_mem_mv.104
	addq	$8, %rsp
	popq	%rbx
	popq	%rbp
	.cfi_def_cfa %rsp, 8
	retq
.LBB10_11:                              # %func_free_mem_mv.116
	.cfi_def_cfa %rbp, 16
	movq	%rbx, %rdi
	callq	free_mem_mv.116
	addq	$8, %rsp
	popq	%rbx
	popq	%rbp
	.cfi_def_cfa %rsp, 8
	retq
.LBB10_12:                              # %func_free_mem_mv.131
	.cfi_def_cfa %rbp, 16
	movq	%rbx, %rdi
	callq	free_mem_mv.131
	addq	$8, %rsp
	popq	%rbx
	popq	%rbp
	.cfi_def_cfa %rsp, 8
	retq
.LBB10_13:                              # %func_free_mem_mv.132
	.cfi_def_cfa %rbp, 16
	movq	%rbx, %rdi
	callq	free_mem_mv.132
	addq	$8, %rsp
	popq	%rbx
	popq	%rbp
	.cfi_def_cfa %rsp, 8
	retq
.LBB10_14:                              # %func_free_mem_mv.133
	.cfi_def_cfa %rbp, 16
	movq	%rbx, %rdi
	callq	free_mem_mv.133
	addq	$8, %rsp
	popq	%rbx
	popq	%rbp
	.cfi_def_cfa %rsp, 8
	retq
.LBB10_15:                              # %func_free_mem_mv.136
	.cfi_def_cfa %rbp, 16
	movq	%rbx, %rdi
	callq	free_mem_mv.136
	addq	$8, %rsp
	popq	%rbx
	popq	%rbp
	.cfi_def_cfa %rsp, 8
	retq
.LBB10_16:                              # %func_free_mem_mv.139
	.cfi_def_cfa %rbp, 16
	movq	%rbx, %rdi
	callq	free_mem_mv.139
	addq	$8, %rsp
	popq	%rbx
	popq	%rbp
	.cfi_def_cfa %rsp, 8
	retq
.LBB10_17:                              # %ctrl0
	.cfi_def_cfa %rbp, 16
	cmpl	$1, %eax
	je	.LBB10_2
# %bb.18:                               # %ctrl1
	cmpl	$2, %eax
	je	.LBB10_3
# %bb.19:                               # %ctrl2
	cmpl	$3, %eax
	je	.LBB10_4
# %bb.20:                               # %ctrl3
	cmpl	$4, %eax
	je	.LBB10_5
# %bb.21:                               # %ctrl4
	cmpl	$5, %eax
	je	.LBB10_6
# %bb.22:                               # %ctrl5
	cmpl	$6, %eax
	je	.LBB10_7
# %bb.23:                               # %ctrl6
	cmpl	$7, %eax
	je	.LBB10_8
# %bb.24:                               # %ctrl7
	cmpl	$8, %eax
	je	.LBB10_9
# %bb.25:                               # %ctrl8
	cmpl	$9, %eax
	je	.LBB10_10
# %bb.26:                               # %ctrl9
	cmpl	$10, %eax
	je	.LBB10_11
# %bb.27:                               # %ctrl10
	cmpl	$11, %eax
	je	.LBB10_12
# %bb.28:                               # %ctrl11
	cmpl	$12, %eax
	je	.LBB10_13
# %bb.29:                               # %ctrl12
	cmpl	$13, %eax
	je	.LBB10_14
# %bb.30:                               # %ctrl13
	cmpl	$14, %eax
	je	.LBB10_15
	jmp	.LBB10_16
.Lfunc_end10:
	.size	free_mem_mv, .Lfunc_end10-free_mem_mv
	.cfi_endproc
                                        # -- End function
	.globl	free_mem_ACcoeff        # -- Begin function free_mem_ACcoeff
	.p2align	4, 0x90
	.type	free_mem_ACcoeff,@function
free_mem_ACcoeff:                       # @free_mem_ACcoeff
	.cfi_startproc
# %bb.0:                                # %rand_bb
	pushq	%rbp
	.cfi_def_cfa_offset 16
	.cfi_offset %rbp, -16
	movq	%rsp, %rbp
	.cfi_def_cfa_register %rbp
	pushq	%rbx
	pushq	%rax
	.cfi_offset %rbx, -24
	movq	%rdi, %rbx
	callq	get_rand
	cmpl	$0, %eax
	jne	.LBB11_17
# %bb.1:                                # %func_free_mem_ACcoeff.13
	movq	%rbx, %rdi
	callq	free_mem_ACcoeff.13
	addq	$8, %rsp
	popq	%rbx
	popq	%rbp
	.cfi_def_cfa %rsp, 8
	retq
.LBB11_2:                               # %func_free_mem_ACcoeff.22
	.cfi_def_cfa %rbp, 16
	movq	%rbx, %rdi
	callq	free_mem_ACcoeff.22
	addq	$8, %rsp
	popq	%rbx
	popq	%rbp
	.cfi_def_cfa %rsp, 8
	retq
.LBB11_3:                               # %func_free_mem_ACcoeff.41
	.cfi_def_cfa %rbp, 16
	movq	%rbx, %rdi
	callq	free_mem_ACcoeff.41
	addq	$8, %rsp
	popq	%rbx
	popq	%rbp
	.cfi_def_cfa %rsp, 8
	retq
.LBB11_4:                               # %func_free_mem_ACcoeff.43
	.cfi_def_cfa %rbp, 16
	movq	%rbx, %rdi
	callq	free_mem_ACcoeff.43
	addq	$8, %rsp
	popq	%rbx
	popq	%rbp
	.cfi_def_cfa %rsp, 8
	retq
.LBB11_5:                               # %func_free_mem_ACcoeff.48
	.cfi_def_cfa %rbp, 16
	movq	%rbx, %rdi
	callq	free_mem_ACcoeff.48
	addq	$8, %rsp
	popq	%rbx
	popq	%rbp
	.cfi_def_cfa %rsp, 8
	retq
.LBB11_6:                               # %func_free_mem_ACcoeff.51
	.cfi_def_cfa %rbp, 16
	movq	%rbx, %rdi
	callq	free_mem_ACcoeff.51
	addq	$8, %rsp
	popq	%rbx
	popq	%rbp
	.cfi_def_cfa %rsp, 8
	retq
.LBB11_7:                               # %func_free_mem_ACcoeff.59
	.cfi_def_cfa %rbp, 16
	movq	%rbx, %rdi
	callq	free_mem_ACcoeff.59
	addq	$8, %rsp
	popq	%rbx
	popq	%rbp
	.cfi_def_cfa %rsp, 8
	retq
.LBB11_8:                               # %func_free_mem_ACcoeff.74
	.cfi_def_cfa %rbp, 16
	movq	%rbx, %rdi
	callq	free_mem_ACcoeff.74
	addq	$8, %rsp
	popq	%rbx
	popq	%rbp
	.cfi_def_cfa %rsp, 8
	retq
.LBB11_9:                               # %func_free_mem_ACcoeff.78
	.cfi_def_cfa %rbp, 16
	movq	%rbx, %rdi
	callq	free_mem_ACcoeff.78
	addq	$8, %rsp
	popq	%rbx
	popq	%rbp
	.cfi_def_cfa %rsp, 8
	retq
.LBB11_10:                              # %func_free_mem_ACcoeff.82
	.cfi_def_cfa %rbp, 16
	movq	%rbx, %rdi
	callq	free_mem_ACcoeff.82
	addq	$8, %rsp
	popq	%rbx
	popq	%rbp
	.cfi_def_cfa %rsp, 8
	retq
.LBB11_11:                              # %func_free_mem_ACcoeff.93
	.cfi_def_cfa %rbp, 16
	movq	%rbx, %rdi
	callq	free_mem_ACcoeff.93
	addq	$8, %rsp
	popq	%rbx
	popq	%rbp
	.cfi_def_cfa %rsp, 8
	retq
.LBB11_12:                              # %func_free_mem_ACcoeff.94
	.cfi_def_cfa %rbp, 16
	movq	%rbx, %rdi
	callq	free_mem_ACcoeff.94
	addq	$8, %rsp
	popq	%rbx
	popq	%rbp
	.cfi_def_cfa %rsp, 8
	retq
.LBB11_13:                              # %func_free_mem_ACcoeff.97
	.cfi_def_cfa %rbp, 16
	movq	%rbx, %rdi
	callq	free_mem_ACcoeff.97
	addq	$8, %rsp
	popq	%rbx
	popq	%rbp
	.cfi_def_cfa %rsp, 8
	retq
.LBB11_14:                              # %func_free_mem_ACcoeff.108
	.cfi_def_cfa %rbp, 16
	movq	%rbx, %rdi
	callq	free_mem_ACcoeff.108
	addq	$8, %rsp
	popq	%rbx
	popq	%rbp
	.cfi_def_cfa %rsp, 8
	retq
.LBB11_15:                              # %func_free_mem_ACcoeff.114
	.cfi_def_cfa %rbp, 16
	movq	%rbx, %rdi
	callq	free_mem_ACcoeff.114
	addq	$8, %rsp
	popq	%rbx
	popq	%rbp
	.cfi_def_cfa %rsp, 8
	retq
.LBB11_16:                              # %func_free_mem_ACcoeff.117
	.cfi_def_cfa %rbp, 16
	movq	%rbx, %rdi
	callq	free_mem_ACcoeff.117
	addq	$8, %rsp
	popq	%rbx
	popq	%rbp
	.cfi_def_cfa %rsp, 8
	retq
.LBB11_17:                              # %ctrl0
	.cfi_def_cfa %rbp, 16
	cmpl	$1, %eax
	je	.LBB11_2
# %bb.18:                               # %ctrl1
	cmpl	$2, %eax
	je	.LBB11_3
# %bb.19:                               # %ctrl2
	cmpl	$3, %eax
	je	.LBB11_4
# %bb.20:                               # %ctrl3
	cmpl	$4, %eax
	je	.LBB11_5
# %bb.21:                               # %ctrl4
	cmpl	$5, %eax
	je	.LBB11_6
# %bb.22:                               # %ctrl5
	cmpl	$6, %eax
	je	.LBB11_7
# %bb.23:                               # %ctrl6
	cmpl	$7, %eax
	je	.LBB11_8
# %bb.24:                               # %ctrl7
	cmpl	$8, %eax
	je	.LBB11_9
# %bb.25:                               # %ctrl8
	cmpl	$9, %eax
	je	.LBB11_10
# %bb.26:                               # %ctrl9
	cmpl	$10, %eax
	je	.LBB11_11
# %bb.27:                               # %ctrl10
	cmpl	$11, %eax
	je	.LBB11_12
# %bb.28:                               # %ctrl11
	cmpl	$12, %eax
	je	.LBB11_13
# %bb.29:                               # %ctrl12
	cmpl	$13, %eax
	je	.LBB11_14
# %bb.30:                               # %ctrl13
	cmpl	$14, %eax
	je	.LBB11_15
	jmp	.LBB11_16
.Lfunc_end11:
	.size	free_mem_ACcoeff, .Lfunc_end11-free_mem_ACcoeff
	.cfi_endproc
                                        # -- End function
	.globl	free_mem_DCcoeff        # -- Begin function free_mem_DCcoeff
	.p2align	4, 0x90
	.type	free_mem_DCcoeff,@function
free_mem_DCcoeff:                       # @free_mem_DCcoeff
	.cfi_startproc
# %bb.0:                                # %rand_bb
	pushq	%rbp
	.cfi_def_cfa_offset 16
	.cfi_offset %rbp, -16
	movq	%rsp, %rbp
	.cfi_def_cfa_register %rbp
	pushq	%rbx
	pushq	%rax
	.cfi_offset %rbx, -24
	movq	%rdi, %rbx
	callq	get_rand
	cmpl	$0, %eax
	jne	.LBB12_7
# %bb.1:                                # %func_free_mem_DCcoeff.8
	movq	%rbx, %rdi
	callq	free_mem_DCcoeff.8
	addq	$8, %rsp
	popq	%rbx
	popq	%rbp
	.cfi_def_cfa %rsp, 8
	retq
.LBB12_2:                               # %func_free_mem_DCcoeff.26
	.cfi_def_cfa %rbp, 16
	movq	%rbx, %rdi
	callq	free_mem_DCcoeff.26
	addq	$8, %rsp
	popq	%rbx
	popq	%rbp
	.cfi_def_cfa %rsp, 8
	retq
.LBB12_3:                               # %func_free_mem_DCcoeff.35
	.cfi_def_cfa %rbp, 16
	movq	%rbx, %rdi
	callq	free_mem_DCcoeff.35
	addq	$8, %rsp
	popq	%rbx
	popq	%rbp
	.cfi_def_cfa %rsp, 8
	retq
.LBB12_4:                               # %func_free_mem_DCcoeff.40
	.cfi_def_cfa %rbp, 16
	movq	%rbx, %rdi
	callq	free_mem_DCcoeff.40
	addq	$8, %rsp
	popq	%rbx
	popq	%rbp
	.cfi_def_cfa %rsp, 8
	retq
.LBB12_5:                               # %func_free_mem_DCcoeff.66
	.cfi_def_cfa %rbp, 16
	movq	%rbx, %rdi
	callq	free_mem_DCcoeff.66
	addq	$8, %rsp
	popq	%rbx
	popq	%rbp
	.cfi_def_cfa %rsp, 8
	retq
.LBB12_6:                               # %func_free_mem_DCcoeff.67
	.cfi_def_cfa %rbp, 16
	movq	%rbx, %rdi
	callq	free_mem_DCcoeff.67
	addq	$8, %rsp
	popq	%rbx
	popq	%rbp
	.cfi_def_cfa %rsp, 8
	retq
.LBB12_7:                               # %ctrl0
	.cfi_def_cfa %rbp, 16
	cmpl	$1, %eax
	je	.LBB12_2
# %bb.8:                                # %ctrl1
	cmpl	$2, %eax
	je	.LBB12_3
# %bb.9:                                # %ctrl2
	cmpl	$3, %eax
	je	.LBB12_4
# %bb.10:                               # %ctrl3
	cmpl	$4, %eax
	je	.LBB12_5
	jmp	.LBB12_6
.Lfunc_end12:
	.size	free_mem_DCcoeff, .Lfunc_end12-free_mem_DCcoeff
	.cfi_endproc
                                        # -- End function
	.globl	malloc_picture          # -- Begin function malloc_picture
	.p2align	4, 0x90
	.type	malloc_picture,@function
malloc_picture:                         # @malloc_picture
	.cfi_startproc
# %bb.0:                                # %entry
	pushq	%rbp
	.cfi_def_cfa_offset 16
	.cfi_offset %rbp, -16
	movq	%rsp, %rbp
	.cfi_def_cfa_register %rbp
	subq	$16, %rsp
	movl	$1, %edi
	movl	$824, %esi              # imm = 0x338
	callq	calloc
	movq	%rax, -8(%rbp)
	cmpq	$0, %rax
	jne	.LBB13_2
# %bb.1:                                # %if.then
	movabsq	$.L.str.3, %rdi
	callq	no_mem_exit
.LBB13_2:                               # %if.end
	movq	-8(%rbp), %rax
	addq	$16, %rsp
	popq	%rbp
	.cfi_def_cfa %rsp, 8
	retq
.Lfunc_end13:
	.size	malloc_picture, .Lfunc_end13-malloc_picture
	.cfi_endproc
                                        # -- End function
	.globl	report_frame_statistic  # -- Begin function report_frame_statistic
	.p2align	4, 0x90
	.type	report_frame_statistic,@function
report_frame_statistic:                 # @report_frame_statistic
	.cfi_startproc
# %bb.0:                                # %rand_bb
	pushq	%rbp
	.cfi_def_cfa_offset 16
	.cfi_offset %rbp, -16
	movq	%rsp, %rbp
	.cfi_def_cfa_register %rbp
	callq	get_rand
	cmpl	$0, %eax
	jne	.LBB14_17
# %bb.1:                                # %func_report_frame_statistic.11
	callq	report_frame_statistic.11
	popq	%rbp
	.cfi_def_cfa %rsp, 8
	retq
.LBB14_2:                               # %func_report_frame_statistic.16
	.cfi_def_cfa %rbp, 16
	callq	report_frame_statistic.16
	popq	%rbp
	.cfi_def_cfa %rsp, 8
	retq
.LBB14_3:                               # %func_report_frame_statistic.34
	.cfi_def_cfa %rbp, 16
	callq	report_frame_statistic.34
	popq	%rbp
	.cfi_def_cfa %rsp, 8
	retq
.LBB14_4:                               # %func_report_frame_statistic.46
	.cfi_def_cfa %rbp, 16
	callq	report_frame_statistic.46
	popq	%rbp
	.cfi_def_cfa %rsp, 8
	retq
.LBB14_5:                               # %func_report_frame_statistic.56
	.cfi_def_cfa %rbp, 16
	callq	report_frame_statistic.56
	popq	%rbp
	.cfi_def_cfa %rsp, 8
	retq
.LBB14_6:                               # %func_report_frame_statistic.62
	.cfi_def_cfa %rbp, 16
	callq	report_frame_statistic.62
	popq	%rbp
	.cfi_def_cfa %rsp, 8
	retq
.LBB14_7:                               # %func_report_frame_statistic.75
	.cfi_def_cfa %rbp, 16
	callq	report_frame_statistic.75
	popq	%rbp
	.cfi_def_cfa %rsp, 8
	retq
.LBB14_8:                               # %func_report_frame_statistic.95
	.cfi_def_cfa %rbp, 16
	callq	report_frame_statistic.95
	popq	%rbp
	.cfi_def_cfa %rsp, 8
	retq
.LBB14_9:                               # %func_report_frame_statistic.109
	.cfi_def_cfa %rbp, 16
	callq	report_frame_statistic.109
	popq	%rbp
	.cfi_def_cfa %rsp, 8
	retq
.LBB14_10:                              # %func_report_frame_statistic.111
	.cfi_def_cfa %rbp, 16
	callq	report_frame_statistic.111
	popq	%rbp
	.cfi_def_cfa %rsp, 8
	retq
.LBB14_11:                              # %func_report_frame_statistic.119
	.cfi_def_cfa %rbp, 16
	callq	report_frame_statistic.119
	popq	%rbp
	.cfi_def_cfa %rsp, 8
	retq
.LBB14_12:                              # %func_report_frame_statistic.124
	.cfi_def_cfa %rbp, 16
	callq	report_frame_statistic.124
	popq	%rbp
	.cfi_def_cfa %rsp, 8
	retq
.LBB14_13:                              # %func_report_frame_statistic.128
	.cfi_def_cfa %rbp, 16
	callq	report_frame_statistic.128
	popq	%rbp
	.cfi_def_cfa %rsp, 8
	retq
.LBB14_14:                              # %func_report_frame_statistic.137
	.cfi_def_cfa %rbp, 16
	callq	report_frame_statistic.137
	popq	%rbp
	.cfi_def_cfa %rsp, 8
	retq
.LBB14_15:                              # %func_report_frame_statistic.138
	.cfi_def_cfa %rbp, 16
	callq	report_frame_statistic.138
	popq	%rbp
	.cfi_def_cfa %rsp, 8
	retq
.LBB14_16:                              # %func_report_frame_statistic.140
	.cfi_def_cfa %rbp, 16
	callq	report_frame_statistic.140
	popq	%rbp
	.cfi_def_cfa %rsp, 8
	retq
.LBB14_17:                              # %ctrl0
	.cfi_def_cfa %rbp, 16
	cmpl	$1, %eax
	je	.LBB14_2
# %bb.18:                               # %ctrl1
	cmpl	$2, %eax
	je	.LBB14_3
# %bb.19:                               # %ctrl2
	cmpl	$3, %eax
	je	.LBB14_4
# %bb.20:                               # %ctrl3
	cmpl	$4, %eax
	je	.LBB14_5
# %bb.21:                               # %ctrl4
	cmpl	$5, %eax
	je	.LBB14_6
# %bb.22:                               # %ctrl5
	cmpl	$6, %eax
	je	.LBB14_7
# %bb.23:                               # %ctrl6
	cmpl	$7, %eax
	je	.LBB14_8
# %bb.24:                               # %ctrl7
	cmpl	$8, %eax
	je	.LBB14_9
# %bb.25:                               # %ctrl8
	cmpl	$9, %eax
	je	.LBB14_10
# %bb.26:                               # %ctrl9
	cmpl	$10, %eax
	je	.LBB14_11
# %bb.27:                               # %ctrl10
	cmpl	$11, %eax
	je	.LBB14_12
# %bb.28:                               # %ctrl11
	cmpl	$12, %eax
	je	.LBB14_13
# %bb.29:                               # %ctrl12
	cmpl	$13, %eax
	je	.LBB14_14
# %bb.30:                               # %ctrl13
	cmpl	$14, %eax
	je	.LBB14_15
	jmp	.LBB14_16
.Lfunc_end14:
	.size	report_frame_statistic, .Lfunc_end14-report_frame_statistic
	.cfi_endproc
                                        # -- End function
	.globl	report                  # -- Begin function report
	.p2align	4, 0x90
	.type	report,@function
report:                                 # @report
	.cfi_startproc
# %bb.0:                                # %rand_bb
	pushq	%rbp
	.cfi_def_cfa_offset 16
	.cfi_offset %rbp, -16
	movq	%rsp, %rbp
	.cfi_def_cfa_register %rbp
	callq	get_rand
	cmpl	$0, %eax
	jne	.LBB15_17
# %bb.1:                                # %func_report.28
	callq	report.28
	popq	%rbp
	.cfi_def_cfa %rsp, 8
	retq
.LBB15_2:                               # %func_report.31
	.cfi_def_cfa %rbp, 16
	callq	report.31
	popq	%rbp
	.cfi_def_cfa %rsp, 8
	retq
.LBB15_3:                               # %func_report.53
	.cfi_def_cfa %rbp, 16
	callq	report.53
	popq	%rbp
	.cfi_def_cfa %rsp, 8
	retq
.LBB15_4:                               # %func_report.54
	.cfi_def_cfa %rbp, 16
	callq	report.54
	popq	%rbp
	.cfi_def_cfa %rsp, 8
	retq
.LBB15_5:                               # %func_report.65
	.cfi_def_cfa %rbp, 16
	callq	report.65
	popq	%rbp
	.cfi_def_cfa %rsp, 8
	retq
.LBB15_6:                               # %func_report.71
	.cfi_def_cfa %rbp, 16
	callq	report.71
	popq	%rbp
	.cfi_def_cfa %rsp, 8
	retq
.LBB15_7:                               # %func_report.76
	.cfi_def_cfa %rbp, 16
	callq	report.76
	popq	%rbp
	.cfi_def_cfa %rsp, 8
	retq
.LBB15_8:                               # %func_report.86
	.cfi_def_cfa %rbp, 16
	callq	report.86
	popq	%rbp
	.cfi_def_cfa %rsp, 8
	retq
.LBB15_9:                               # %func_report.89
	.cfi_def_cfa %rbp, 16
	callq	report.89
	popq	%rbp
	.cfi_def_cfa %rsp, 8
	retq
.LBB15_10:                              # %func_report.106
	.cfi_def_cfa %rbp, 16
	callq	report.106
	popq	%rbp
	.cfi_def_cfa %rsp, 8
	retq
.LBB15_11:                              # %func_report.121
	.cfi_def_cfa %rbp, 16
	callq	report.121
	popq	%rbp
	.cfi_def_cfa %rsp, 8
	retq
.LBB15_12:                              # %func_report.123
	.cfi_def_cfa %rbp, 16
	callq	report.123
	popq	%rbp
	.cfi_def_cfa %rsp, 8
	retq
.LBB15_13:                              # %func_report.127
	.cfi_def_cfa %rbp, 16
	callq	report.127
	popq	%rbp
	.cfi_def_cfa %rsp, 8
	retq
.LBB15_14:                              # %func_report.130
	.cfi_def_cfa %rbp, 16
	callq	report.130
	popq	%rbp
	.cfi_def_cfa %rsp, 8
	retq
.LBB15_15:                              # %func_report.134
	.cfi_def_cfa %rbp, 16
	callq	report.134
	popq	%rbp
	.cfi_def_cfa %rsp, 8
	retq
.LBB15_16:                              # %func_report.135
	.cfi_def_cfa %rbp, 16
	callq	report.135
	popq	%rbp
	.cfi_def_cfa %rsp, 8
	retq
.LBB15_17:                              # %ctrl0
	.cfi_def_cfa %rbp, 16
	cmpl	$1, %eax
	je	.LBB15_2
# %bb.18:                               # %ctrl1
	cmpl	$2, %eax
	je	.LBB15_3
# %bb.19:                               # %ctrl2
	cmpl	$3, %eax
	je	.LBB15_4
# %bb.20:                               # %ctrl3
	cmpl	$4, %eax
	je	.LBB15_5
# %bb.21:                               # %ctrl4
	cmpl	$5, %eax
	je	.LBB15_6
# %bb.22:                               # %ctrl5
	cmpl	$6, %eax
	je	.LBB15_7
# %bb.23:                               # %ctrl6
	cmpl	$7, %eax
	je	.LBB15_8
# %bb.24:                               # %ctrl7
	cmpl	$8, %eax
	je	.LBB15_9
# %bb.25:                               # %ctrl8
	cmpl	$9, %eax
	je	.LBB15_10
# %bb.26:                               # %ctrl9
	cmpl	$10, %eax
	je	.LBB15_11
# %bb.27:                               # %ctrl10
	cmpl	$11, %eax
	je	.LBB15_12
# %bb.28:                               # %ctrl11
	cmpl	$12, %eax
	je	.LBB15_13
# %bb.29:                               # %ctrl12
	cmpl	$13, %eax
	je	.LBB15_14
# %bb.30:                               # %ctrl13
	cmpl	$14, %eax
	je	.LBB15_15
	jmp	.LBB15_16
.Lfunc_end15:
	.size	report, .Lfunc_end15-report
	.cfi_endproc
                                        # -- End function
	.globl	information_init        # -- Begin function information_init
	.p2align	4, 0x90
	.type	information_init,@function
information_init:                       # @information_init
	.cfi_startproc
# %bb.0:                                # %entry
	pushq	%rbp
	.cfi_def_cfa_offset 16
	.cfi_offset %rbp, -16
	movq	%rsp, %rbp
	.cfi_def_cfa_register %rbp
	subq	$48, %rsp
	leaq	-48(%rbp), %rdi
	movabsq	$.L__const.information_init.yuv_types, %rsi
	movl	$40, %edx
	callq	memcpy
	movabsq	$.L.str.186, %rdi
	movabsq	$.L.str.13, %rsi
	movabsq	$.L.str.14, %rdx
	movb	$0, %al
	callq	printf
	movq	input, %rsi
	addq	$224, %rsi
	movabsq	$.L.str.187, %rdi
	movb	$0, %al
	callq	printf
	movq	input, %rsi
	addq	$424, %rsi              # imm = 0x1A8
	movabsq	$.L.str.188, %rdi
	movb	$0, %al
	callq	printf
	cmpl	$-1, p_dec
	je	.LBB16_2
# %bb.1:                                # %if.then
	movq	input, %rsi
	addq	$624, %rsi              # imm = 0x270
	movabsq	$.L.str.189, %rdi
	movb	$0, %al
	callq	printf
.LBB16_2:                               # %if.end
	movq	img, %rax
	movslq	72700(%rax), %rax
	imulq	$10, %rax, %rax
	leaq	-48(%rbp), %rsi
	addq	%rax, %rsi
	movabsq	$.L.str.190, %rdi
	movb	$0, %al
	callq	printf
	movq	input, %rax
	movl	8(%rax), %esi
	movq	input, %rax
	movl	1236(%rax), %edx
	movq	input, %rax
	movl	8(%rax), %eax
	subl	$1, %eax
	imull	%eax, %edx
	movabsq	$.L.str.191, %rdi
	movb	$0, %al
	callq	printf
	movq	input, %rax
	movl	2880(%rax), %esi
	movq	input, %rax
	movl	2884(%rax), %edx
	movabsq	$.L.str.192, %rdi
	movb	$0, %al
	callq	printf
	movq	input, %rax
	movl	3220(%rax), %esi
	movabsq	$.L.str.193, %rdi
	movb	$0, %al
	callq	printf
	movabsq	$.L.str.26, %rdi
	movb	$0, %al
	callq	printf
	movabsq	$.L.str.194, %rdi
	movb	$0, %al
	callq	printf
	movabsq	$.L.str.26, %rdi
	movb	$0, %al
	callq	printf
	addq	$48, %rsp
	popq	%rbp
	.cfi_def_cfa %rsp, 8
	retq
.Lfunc_end16:
	.size	information_init, .Lfunc_end16-information_init
	.cfi_endproc
                                        # -- End function
	.globl	init_orig_buffers       # -- Begin function init_orig_buffers
	.p2align	4, 0x90
	.type	init_orig_buffers,@function
init_orig_buffers:                      # @init_orig_buffers
	.cfi_startproc
# %bb.0:                                # %entry
	pushq	%rbp
	.cfi_def_cfa_offset 16
	.cfi_offset %rbp, -16
	movq	%rsp, %rbp
	.cfi_def_cfa_register %rbp
	subq	$16, %rsp
	movl	$0, -4(%rbp)
	movq	img, %rax
	movl	60(%rax), %esi
	movq	img, %rax
	movl	52(%rax), %edx
	movabsq	$imgY_org_frm, %rdi
	callq	get_mem2Dpel
	addl	-4(%rbp), %eax
	movl	%eax, -4(%rbp)
	movq	img, %rax
	cmpl	$0, 72700(%rax)
	je	.LBB17_2
# %bb.1:                                # %if.then
	movq	img, %rax
	movl	64(%rax), %edx
	movq	img, %rax
	movl	56(%rax), %ecx
	movabsq	$imgUV_org_frm, %rdi
	movl	$2, %esi
	callq	get_mem3Dpel
	addl	-4(%rbp), %eax
	movl	%eax, -4(%rbp)
.LBB17_2:                               # %if.end
	movq	active_sps, %rax
	cmpl	$0, 1148(%rax)
	jne	.LBB17_10
# %bb.3:                                # %if.then3
	movq	imgY_org_frm, %rdi
	movq	img, %rax
	movl	60(%rax), %esi
	movq	img, %rax
	movl	52(%rax), %edx
	movabsq	$imgY_org_top, %rcx
	movabsq	$imgY_org_bot, %r8
	callq	init_top_bot_planes
	movq	img, %rax
	cmpl	$0, 72700(%rax)
	je	.LBB17_9
# %bb.4:                                # %if.then9
	movl	$2, %edi
	movl	$8, %esi
	callq	calloc
	movq	%rax, imgUV_org_top
	cmpq	$0, %rax
	jne	.LBB17_6
# %bb.5:                                # %if.then12
	movabsq	$.L.str.195, %rdi
	callq	no_mem_exit
.LBB17_6:                               # %if.end13
	movl	$2, %edi
	movl	$8, %esi
	callq	calloc
	movq	%rax, imgUV_org_bot
	cmpq	$0, %rax
	jne	.LBB17_8
# %bb.7:                                # %if.then16
	movabsq	$.L.str.196, %rdi
	callq	no_mem_exit
.LBB17_8:                               # %if.end17
	movslq	-4(%rbp), %rax
	addq	$32, %rax
	movl	%eax, -4(%rbp)
	movq	imgUV_org_frm, %rax
	movq	(%rax), %rdi
	movq	img, %rax
	movl	64(%rax), %esi
	movq	img, %rax
	movl	56(%rax), %edx
	movq	imgUV_org_top, %rcx
	movq	imgUV_org_bot, %r8
	callq	init_top_bot_planes
	addl	-4(%rbp), %eax
	movl	%eax, -4(%rbp)
	movq	imgUV_org_frm, %rax
	movq	8(%rax), %rdi
	movq	img, %rax
	movl	64(%rax), %esi
	movq	img, %rax
	movl	56(%rax), %edx
	movq	imgUV_org_top, %rcx
	addq	$8, %rcx
	movq	imgUV_org_bot, %r8
	addq	$8, %r8
	callq	init_top_bot_planes
	addl	-4(%rbp), %eax
	movl	%eax, -4(%rbp)
.LBB17_9:                               # %if.end33
	jmp	.LBB17_10
.LBB17_10:                              # %if.end34
	movl	-4(%rbp), %eax
	addq	$16, %rsp
	popq	%rbp
	.cfi_def_cfa %rsp, 8
	retq
.Lfunc_end17:
	.size	init_orig_buffers, .Lfunc_end17-init_orig_buffers
	.cfi_endproc
                                        # -- End function
	.globl	init_global_buffers     # -- Begin function init_global_buffers
	.p2align	4, 0x90
	.type	init_global_buffers,@function
init_global_buffers:                    # @init_global_buffers
	.cfi_startproc
# %bb.0:                                # %rand_bb
	pushq	%rbp
	.cfi_def_cfa_offset 16
	.cfi_offset %rbp, -16
	movq	%rsp, %rbp
	.cfi_def_cfa_register %rbp
	callq	get_rand
	cmpl	$0, %eax
	jne	.LBB18_2
# %bb.1:                                # %func_init_global_buffers.1
	callq	init_global_buffers.1
	popq	%rbp
	.cfi_def_cfa %rsp, 8
	retq
.LBB18_2:                               # %func_init_global_buffers.10
	.cfi_def_cfa %rbp, 16
	callq	init_global_buffers.10
	popq	%rbp
	.cfi_def_cfa %rsp, 8
	retq
.Lfunc_end18:
	.size	init_global_buffers, .Lfunc_end18-init_global_buffers
	.cfi_endproc
                                        # -- End function
	.globl	free_orig_planes        # -- Begin function free_orig_planes
	.p2align	4, 0x90
	.type	free_orig_planes,@function
free_orig_planes:                       # @free_orig_planes
	.cfi_startproc
# %bb.0:                                # %entry
	pushq	%rbp
	.cfi_def_cfa_offset 16
	.cfi_offset %rbp, -16
	movq	%rsp, %rbp
	.cfi_def_cfa_register %rbp
	movq	imgY_org_frm, %rdi
	callq	free_mem2Dpel
	movq	img, %rax
	cmpl	$0, 72700(%rax)
	je	.LBB19_2
# %bb.1:                                # %if.then
	movq	imgUV_org_frm, %rdi
	movl	$2, %esi
	callq	free_mem3Dpel
.LBB19_2:                               # %if.end
	movq	active_sps, %rax
	cmpl	$0, 1148(%rax)
	jne	.LBB19_6
# %bb.3:                                # %if.then1
	movq	imgY_org_top, %rdi
	movq	imgY_org_bot, %rsi
	callq	free_top_bot_planes
	movq	img, %rax
	cmpl	$0, 72700(%rax)
	je	.LBB19_5
# %bb.4:                                # %if.then4
	movq	imgUV_org_top, %rax
	movq	(%rax), %rdi
	movq	imgUV_org_bot, %rax
	movq	(%rax), %rsi
	callq	free_top_bot_planes
	movq	imgUV_org_top, %rax
	movq	8(%rax), %rdi
	movq	imgUV_org_bot, %rax
	movq	8(%rax), %rsi
	callq	free_top_bot_planes
	movq	imgUV_org_top, %rdi
	callq	free
	movq	imgUV_org_bot, %rdi
	callq	free
.LBB19_5:                               # %if.end8
	jmp	.LBB19_6
.LBB19_6:                               # %if.end9
	popq	%rbp
	.cfi_def_cfa %rsp, 8
	retq
.Lfunc_end19:
	.size	free_orig_planes, .Lfunc_end19-free_orig_planes
	.cfi_endproc
                                        # -- End function
	.globl	free_global_buffers     # -- Begin function free_global_buffers
	.p2align	4, 0x90
	.type	free_global_buffers,@function
free_global_buffers:                    # @free_global_buffers
	.cfi_startproc
# %bb.0:                                # %rand_bb
	pushq	%rbp
	.cfi_def_cfa_offset 16
	.cfi_offset %rbp, -16
	movq	%rsp, %rbp
	.cfi_def_cfa_register %rbp
	callq	get_rand
	cmpl	$0, %eax
	jne	.LBB20_2
# %bb.1:                                # %func_free_global_buffers.6
	callq	free_global_buffers.6
	popq	%rbp
	.cfi_def_cfa %rsp, 8
	retq
.LBB20_2:                               # %func_free_global_buffers.27
	.cfi_def_cfa %rbp, 16
	callq	free_global_buffers.27
	popq	%rbp
	.cfi_def_cfa %rsp, 8
	retq
.Lfunc_end20:
	.size	free_global_buffers, .Lfunc_end20-free_global_buffers
	.cfi_endproc
                                        # -- End function
	.globl	combine_field           # -- Begin function combine_field
	.p2align	4, 0x90
	.type	combine_field,@function
combine_field:                          # @combine_field
	.cfi_startproc
# %bb.0:                                # %entry
	pushq	%rbp
	.cfi_def_cfa_offset 16
	.cfi_offset %rbp, -16
	movq	%rsp, %rbp
	.cfi_def_cfa_register %rbp
	subq	$16, %rsp
	movl	$0, -4(%rbp)
.LBB21_1:                               # %for.cond
                                        # =>This Inner Loop Header: Depth=1
	movl	-4(%rbp), %ecx
	movq	img, %rax
	movl	60(%rax), %eax
	cltd
	movl	$2, %esi
	idivl	%esi
	cmpl	%eax, %ecx
	jge	.LBB21_4
# %bb.2:                                # %for.body
                                        #   in Loop: Header=BB21_1 Depth=1
	movq	imgY_com, %rax
	movl	-4(%rbp), %ecx
	shll	$1, %ecx
	movslq	%ecx, %rcx
	movq	(%rax,%rcx,8), %rdi
	movq	enc_top_picture, %rax
	movq	6424(%rax), %rax
	movslq	-4(%rbp), %rcx
	movq	(%rax,%rcx,8), %rsi
	movq	img, %rax
	movslq	52(%rax), %rdx
	shlq	$1, %rdx
	callq	memcpy
	movq	imgY_com, %rax
	movl	-4(%rbp), %ecx
	shll	$1, %ecx
	addl	$1, %ecx
	movslq	%ecx, %rcx
	movq	(%rax,%rcx,8), %rdi
	movq	enc_bottom_picture, %rax
	movq	6424(%rax), %rax
	movslq	-4(%rbp), %rcx
	movq	(%rax,%rcx,8), %rsi
	movq	img, %rax
	movslq	52(%rax), %rdx
	shlq	$1, %rdx
	callq	memcpy
# %bb.3:                                # %for.inc
                                        #   in Loop: Header=BB21_1 Depth=1
	movl	-4(%rbp), %eax
	addl	$1, %eax
	movl	%eax, -4(%rbp)
	jmp	.LBB21_1
.LBB21_4:                               # %for.end
	movq	img, %rax
	cmpl	$0, 72700(%rax)
	je	.LBB21_10
# %bb.5:                                # %if.then
	movl	$0, -4(%rbp)
.LBB21_6:                               # %for.cond15
                                        # =>This Inner Loop Header: Depth=1
	movl	-4(%rbp), %ecx
	movq	img, %rax
	movl	64(%rax), %eax
	cltd
	movl	$2, %esi
	idivl	%esi
	cmpl	%eax, %ecx
	jge	.LBB21_9
# %bb.7:                                # %for.body19
                                        #   in Loop: Header=BB21_6 Depth=1
	movq	imgUV_com, %rax
	movq	(%rax), %rax
	movl	-4(%rbp), %ecx
	shll	$1, %ecx
	movslq	%ecx, %rcx
	movq	(%rax,%rcx,8), %rdi
	movq	enc_top_picture, %rax
	movq	6464(%rax), %rax
	movq	(%rax), %rax
	movslq	-4(%rbp), %rcx
	movq	(%rax,%rcx,8), %rsi
	movq	img, %rax
	movslq	56(%rax), %rdx
	shlq	$1, %rdx
	callq	memcpy
	movq	imgUV_com, %rax
	movq	(%rax), %rax
	movl	-4(%rbp), %ecx
	shll	$1, %ecx
	addl	$1, %ecx
	movslq	%ecx, %rcx
	movq	(%rax,%rcx,8), %rdi
	movq	enc_bottom_picture, %rax
	movq	6464(%rax), %rax
	movq	(%rax), %rax
	movslq	-4(%rbp), %rcx
	movq	(%rax,%rcx,8), %rsi
	movq	img, %rax
	movslq	56(%rax), %rdx
	shlq	$1, %rdx
	callq	memcpy
	movq	imgUV_com, %rax
	movq	8(%rax), %rax
	movl	-4(%rbp), %ecx
	shll	$1, %ecx
	movslq	%ecx, %rcx
	movq	(%rax,%rcx,8), %rdi
	movq	enc_top_picture, %rax
	movq	6464(%rax), %rax
	movq	8(%rax), %rax
	movslq	-4(%rbp), %rcx
	movq	(%rax,%rcx,8), %rsi
	movq	img, %rax
	movslq	56(%rax), %rdx
	shlq	$1, %rdx
	callq	memcpy
	movq	imgUV_com, %rax
	movq	8(%rax), %rax
	movl	-4(%rbp), %ecx
	shll	$1, %ecx
	addl	$1, %ecx
	movslq	%ecx, %rcx
	movq	(%rax,%rcx,8), %rdi
	movq	enc_bottom_picture, %rax
	movq	6464(%rax), %rax
	movq	8(%rax), %rax
	movslq	-4(%rbp), %rcx
	movq	(%rax,%rcx,8), %rsi
	movq	img, %rax
	movslq	56(%rax), %rdx
	shlq	$1, %rdx
	callq	memcpy
# %bb.8:                                # %for.inc64
                                        #   in Loop: Header=BB21_6 Depth=1
	movl	-4(%rbp), %eax
	addl	$1, %eax
	movl	%eax, -4(%rbp)
	jmp	.LBB21_6
.LBB21_9:                               # %for.end66
	jmp	.LBB21_10
.LBB21_10:                              # %if.end
	addq	$16, %rsp
	popq	%rbp
	.cfi_def_cfa %rsp, 8
	retq
.Lfunc_end21:
	.size	combine_field, .Lfunc_end21-combine_field
	.cfi_endproc
                                        # -- End function
	.globl	decide_fld_frame        # -- Begin function decide_fld_frame
	.p2align	4, 0x90
	.type	decide_fld_frame,@function
decide_fld_frame:                       # @decide_fld_frame
	.cfi_startproc
# %bb.0:                                # %rand_bb
	pushq	%rbp
	.cfi_def_cfa_offset 16
	.cfi_offset %rbp, -16
	movq	%rsp, %rbp
	.cfi_def_cfa_register %rbp
	pushq	%r14
	pushq	%rbx
	subq	$16, %rsp
	.cfi_offset %rbx, -32
	.cfi_offset %r14, -24
	vmovsd	%xmm2, -32(%rbp)        # 8-byte Spill
	movl	%esi, %r14d
	movl	%edi, %ebx
	vmovss	%xmm1, -24(%rbp)        # 4-byte Spill
	vmovss	%xmm0, -20(%rbp)        # 4-byte Spill
	callq	get_rand
	cmpl	$0, %eax
	jne	.LBB22_17
# %bb.1:                                # %func_decide_fld_frame.2
	vmovss	-20(%rbp), %xmm0        # 4-byte Reload
                                        # xmm0 = mem[0],zero,zero,zero
	vmovss	-24(%rbp), %xmm1        # 4-byte Reload
                                        # xmm1 = mem[0],zero,zero,zero
	movl	%ebx, %edi
	movl	%r14d, %esi
	vmovsd	-32(%rbp), %xmm2        # 8-byte Reload
                                        # xmm2 = mem[0],zero
	callq	decide_fld_frame.2
	addq	$16, %rsp
	popq	%rbx
	popq	%r14
	popq	%rbp
	.cfi_def_cfa %rsp, 8
	retq
.LBB22_2:                               # %func_decide_fld_frame.3
	.cfi_def_cfa %rbp, 16
	vmovaps	%xmm5, %xmm0
	vmovaps	%xmm4, %xmm1
	movl	%ebx, %edi
	movl	%r14d, %esi
	vmovaps	%xmm3, %xmm2
	callq	decide_fld_frame.3
	addq	$16, %rsp
	popq	%rbx
	popq	%r14
	popq	%rbp
	.cfi_def_cfa %rsp, 8
	retq
.LBB22_3:                               # %func_decide_fld_frame.4
	.cfi_def_cfa %rbp, 16
	movl	%ebx, %edi
	movl	%r14d, %esi
	callq	decide_fld_frame.4
	addq	$16, %rsp
	popq	%rbx
	popq	%r14
	popq	%rbp
	.cfi_def_cfa %rsp, 8
	retq
.LBB22_4:                               # %func_decide_fld_frame.15
	.cfi_def_cfa %rbp, 16
	movl	%ebx, %edi
	movl	%r14d, %esi
	callq	decide_fld_frame.15
	addq	$16, %rsp
	popq	%rbx
	popq	%r14
	popq	%rbp
	.cfi_def_cfa %rsp, 8
	retq
.LBB22_5:                               # %func_decide_fld_frame.23
	.cfi_def_cfa %rbp, 16
	movl	%ebx, %edi
	movl	%r14d, %esi
	callq	decide_fld_frame.23
	addq	$16, %rsp
	popq	%rbx
	popq	%r14
	popq	%rbp
	.cfi_def_cfa %rsp, 8
	retq
.LBB22_6:                               # %func_decide_fld_frame.50
	.cfi_def_cfa %rbp, 16
	movl	%ebx, %edi
	movl	%r14d, %esi
	callq	decide_fld_frame.50
	addq	$16, %rsp
	popq	%rbx
	popq	%r14
	popq	%rbp
	.cfi_def_cfa %rsp, 8
	retq
.LBB22_7:                               # %func_decide_fld_frame.55
	.cfi_def_cfa %rbp, 16
	movl	%ebx, %edi
	movl	%r14d, %esi
	callq	decide_fld_frame.55
	addq	$16, %rsp
	popq	%rbx
	popq	%r14
	popq	%rbp
	.cfi_def_cfa %rsp, 8
	retq
.LBB22_8:                               # %func_decide_fld_frame.77
	.cfi_def_cfa %rbp, 16
	movl	%ebx, %edi
	movl	%r14d, %esi
	callq	decide_fld_frame.77
	addq	$16, %rsp
	popq	%rbx
	popq	%r14
	popq	%rbp
	.cfi_def_cfa %rsp, 8
	retq
.LBB22_9:                               # %func_decide_fld_frame.87
	.cfi_def_cfa %rbp, 16
	movl	%ebx, %edi
	movl	%r14d, %esi
	callq	decide_fld_frame.87
	addq	$16, %rsp
	popq	%rbx
	popq	%r14
	popq	%rbp
	.cfi_def_cfa %rsp, 8
	retq
.LBB22_10:                              # %func_decide_fld_frame.92
	.cfi_def_cfa %rbp, 16
	movl	%ebx, %edi
	movl	%r14d, %esi
	callq	decide_fld_frame.92
	addq	$16, %rsp
	popq	%rbx
	popq	%r14
	popq	%rbp
	.cfi_def_cfa %rsp, 8
	retq
.LBB22_11:                              # %func_decide_fld_frame.98
	.cfi_def_cfa %rbp, 16
	movl	%ebx, %edi
	movl	%r14d, %esi
	callq	decide_fld_frame.98
	addq	$16, %rsp
	popq	%rbx
	popq	%r14
	popq	%rbp
	.cfi_def_cfa %rsp, 8
	retq
.LBB22_12:                              # %func_decide_fld_frame.101
	.cfi_def_cfa %rbp, 16
	movl	%ebx, %edi
	movl	%r14d, %esi
	callq	decide_fld_frame.101
	addq	$16, %rsp
	popq	%rbx
	popq	%r14
	popq	%rbp
	.cfi_def_cfa %rsp, 8
	retq
.LBB22_13:                              # %func_decide_fld_frame.105
	.cfi_def_cfa %rbp, 16
	movl	%ebx, %edi
	movl	%r14d, %esi
	callq	decide_fld_frame.105
	addq	$16, %rsp
	popq	%rbx
	popq	%r14
	popq	%rbp
	.cfi_def_cfa %rsp, 8
	retq
.LBB22_14:                              # %func_decide_fld_frame.107
	.cfi_def_cfa %rbp, 16
	movl	%ebx, %edi
	movl	%r14d, %esi
	callq	decide_fld_frame.107
	addq	$16, %rsp
	popq	%rbx
	popq	%r14
	popq	%rbp
	.cfi_def_cfa %rsp, 8
	retq
.LBB22_15:                              # %func_decide_fld_frame.110
	.cfi_def_cfa %rbp, 16
	vmovaps	%xmm5, %xmm0
	vmovaps	%xmm4, %xmm1
	movl	%ebx, %edi
	movl	%r14d, %esi
	vmovaps	%xmm3, %xmm2
	callq	decide_fld_frame.110
	addq	$16, %rsp
	popq	%rbx
	popq	%r14
	popq	%rbp
	.cfi_def_cfa %rsp, 8
	retq
.LBB22_16:                              # %func_decide_fld_frame.118
	.cfi_def_cfa %rbp, 16
	vmovaps	%xmm5, %xmm0
	vmovaps	%xmm4, %xmm1
	movl	%ebx, %edi
	movl	%r14d, %esi
	vmovaps	%xmm3, %xmm2
	callq	decide_fld_frame.118
	addq	$16, %rsp
	popq	%rbx
	popq	%r14
	popq	%rbp
	.cfi_def_cfa %rsp, 8
	retq
.LBB22_17:                              # %ctrl0
	.cfi_def_cfa %rbp, 16
	vmovss	-20(%rbp), %xmm5        # 4-byte Reload
                                        # xmm5 = mem[0],zero,zero,zero
	vmovss	-24(%rbp), %xmm4        # 4-byte Reload
                                        # xmm4 = mem[0],zero,zero,zero
	vmovsd	-32(%rbp), %xmm3        # 8-byte Reload
                                        # xmm3 = mem[0],zero
	cmpl	$1, %eax
	je	.LBB22_2
# %bb.18:                               # %ctrl1
	cmpl	$2, %eax
	vmovaps	%xmm3, %xmm2
	vmovaps	%xmm4, %xmm1
	vmovaps	%xmm5, %xmm0
	je	.LBB22_3
# %bb.19:                               # %ctrl2
	cmpl	$3, %eax
	je	.LBB22_4
# %bb.20:                               # %ctrl3
	cmpl	$4, %eax
	je	.LBB22_5
# %bb.21:                               # %ctrl4
	cmpl	$5, %eax
	je	.LBB22_6
# %bb.22:                               # %ctrl5
	cmpl	$6, %eax
	je	.LBB22_7
# %bb.23:                               # %ctrl6
	cmpl	$7, %eax
	je	.LBB22_8
# %bb.24:                               # %ctrl7
	cmpl	$8, %eax
	je	.LBB22_9
# %bb.25:                               # %ctrl8
	cmpl	$9, %eax
	je	.LBB22_10
# %bb.26:                               # %ctrl9
	cmpl	$10, %eax
	je	.LBB22_11
# %bb.27:                               # %ctrl10
	cmpl	$11, %eax
	je	.LBB22_12
# %bb.28:                               # %ctrl11
	cmpl	$12, %eax
	je	.LBB22_13
# %bb.29:                               # %ctrl12
	cmpl	$13, %eax
	je	.LBB22_14
# %bb.30:                               # %ctrl13
	cmpl	$14, %eax
	je	.LBB22_15
	jmp	.LBB22_16
.Lfunc_end22:
	.size	decide_fld_frame, .Lfunc_end22-decide_fld_frame
	.cfi_endproc
                                        # -- End function
	.globl	process_2nd_IGOP        # -- Begin function process_2nd_IGOP
	.p2align	4, 0x90
	.type	process_2nd_IGOP,@function
process_2nd_IGOP:                       # @process_2nd_IGOP
	.cfi_startproc
# %bb.0:                                # %entry
	pushq	%rbp
	.cfi_def_cfa_offset 16
	.cfi_offset %rbp, -16
	movq	%rsp, %rbp
	.cfi_def_cfa_register %rbp
	movl	$0, -4(%rbp)
	movq	img, %rax
	movl	(%rax), %eax
	movq	input, %rcx
	movl	8(%rcx), %ecx
	subl	$1, %ecx
	cmpl	%ecx, %eax
	jne	.LBB23_2
# %bb.1:                                # %if.then
	movl	$1, -4(%rbp)
.LBB23_2:                               # %if.end
	movq	input, %rax
	cmpl	$0, 2916(%rax)
	jne	.LBB23_4
# %bb.3:                                # %if.then2
	jmp	.LBB23_8
.LBB23_4:                               # %if.end3
	cmpl	$0, -4(%rbp)
	je	.LBB23_6
# %bb.5:                                # %lor.lhs.false
	cmpl	$0, In2ndIGOP
	je	.LBB23_7
.LBB23_6:                               # %if.then5
	jmp	.LBB23_8
.LBB23_7:                               # %if.end6
	movl	$1, In2ndIGOP
	movq	input, %rax
	movl	8(%rax), %eax
	movl	%eax, start_frame_no_in_this_IGOP
	movq	input, %rax
	movl	8(%rax), %eax
	subl	$1, %eax
	movq	input, %rcx
	movl	20(%rcx), %ecx
	addl	$1, %ecx
	imull	%ecx, %eax
	addl	$1, %eax
	movl	%eax, start_tr_in_this_IGOP
	movq	input, %rax
	movl	8(%rax), %eax
	movq	input, %rcx
	addl	2916(%rcx), %eax
	movq	input, %rcx
	movl	%eax, 8(%rcx)
	movq	img, %rax
	movl	$0, 8(%rax)
.LBB23_8:                               # %return
	popq	%rbp
	.cfi_def_cfa %rsp, 8
	retq
.Lfunc_end23:
	.size	process_2nd_IGOP, .Lfunc_end23-process_2nd_IGOP
	.cfi_endproc
                                        # -- End function
	.globl	SetImgType              # -- Begin function SetImgType
	.p2align	4, 0x90
	.type	SetImgType,@function
SetImgType:                             # @SetImgType
	.cfi_startproc
# %bb.0:                                # %entry
	pushq	%rbp
	.cfi_def_cfa_offset 16
	.cfi_offset %rbp, -16
	movq	%rsp, %rbp
	.cfi_def_cfa_register %rbp
	movq	input, %rax
	cmpl	$0, 1224(%rax)
	jne	.LBB24_9
# %bb.1:                                # %if.then
	movq	img, %rax
	movl	(%rax), %eax
	subl	start_frame_no_in_this_IGOP, %eax
	cmpl	$0, %eax
	jne	.LBB24_3
# %bb.2:                                # %if.then2
	movq	img, %rax
	movl	$2, 24(%rax)
	jmp	.LBB24_8
.LBB24_3:                               # %if.else
	movq	img, %rax
	movl	$0, 24(%rax)
	movq	input, %rax
	cmpl	$0, 1272(%rax)
	je	.LBB24_7
# %bb.4:                                # %if.then4
	movq	img, %rax
	movl	(%rax), %eax
	subl	start_frame_no_in_this_IGOP, %eax
	movq	input, %rcx
	cltd
	idivl	1272(%rcx)
	cmpl	$0, %edx
	jne	.LBB24_6
# %bb.5:                                # %if.then9
	movq	img, %rax
	movl	$3, 24(%rax)
.LBB24_6:                               # %if.end
	jmp	.LBB24_7
.LBB24_7:                               # %if.end11
	jmp	.LBB24_8
.LBB24_8:                               # %if.end12
	jmp	.LBB24_17
.LBB24_9:                               # %if.else13
	movq	img, %rax
	movl	(%rax), %eax
	subl	start_frame_no_in_this_IGOP, %eax
	movq	input, %rcx
	cltd
	idivl	1224(%rcx)
	cmpl	$0, %edx
	jne	.LBB24_11
# %bb.10:                               # %if.then19
	movq	img, %rax
	movl	$2, 24(%rax)
	jmp	.LBB24_16
.LBB24_11:                              # %if.else21
	movq	img, %rax
	movl	$0, 24(%rax)
	movq	input, %rax
	cmpl	$0, 1272(%rax)
	je	.LBB24_15
# %bb.12:                               # %if.then25
	movq	img, %rax
	movl	(%rax), %eax
	subl	start_frame_no_in_this_IGOP, %eax
	movq	input, %rcx
	cltd
	idivl	1272(%rcx)
	cmpl	$0, %edx
	jne	.LBB24_14
# %bb.13:                               # %if.then31
	movq	img, %rax
	movl	$3, 24(%rax)
.LBB24_14:                              # %if.end33
	jmp	.LBB24_15
.LBB24_15:                              # %if.end34
	jmp	.LBB24_16
.LBB24_16:                              # %if.end35
	jmp	.LBB24_17
.LBB24_17:                              # %if.end36
	popq	%rbp
	.cfi_def_cfa %rsp, 8
	retq
.Lfunc_end24:
	.size	SetImgType, .Lfunc_end24-SetImgType
	.cfi_endproc
                                        # -- End function
	.globl	init_global_buffers.1   # -- Begin function init_global_buffers.1
	.p2align	4, 0x90
	.type	init_global_buffers.1,@function
init_global_buffers.1:                  # @init_global_buffers.1
	.cfi_startproc
# %bb.0:                                # %entry
	pushq	%rbp
	.cfi_def_cfa_offset 16
	.cfi_offset %rbp, -16
	movq	%rsp, %rbp
	.cfi_def_cfa_register %rbp
	pushq	%rbx
	subq	$24, %rsp
	.cfi_offset %rbx, -24
	movl	$953341798, -20(%rbp)   # imm = 0x38D2D766
	movl	$0, -12(%rbp)
	movq	img, %rax
	movl	36(%rax), %eax
	shll	$1, %eax
	movslq	%eax, %rdi
	shlq	$2, %rdi
	callq	malloc
	movq	%rax, last_P_no_frm
	cmpq	$0, %rax
	jne	.LBB25_2
# %bb.1:                                # %if.then
	movabsq	$.L.str.197, %rdi
	callq	no_mem_exit
.LBB25_2:                               # %if.end
	movq	active_sps, %rax
	cmpl	$0, 1148(%rax)
	jne	.LBB25_6
# %bb.3:                                # %if.then3
	movq	img, %rax
	movl	36(%rax), %eax
	shll	$2, %eax
	movslq	%eax, %rdi
	shlq	$2, %rdi
	callq	malloc
	movq	%rax, last_P_no_fld
	cmpq	$0, %rax
	jne	.LBB25_5
# %bb.4:                                # %if.then11
	movabsq	$.L.str.197, %rdi
	callq	no_mem_exit
.LBB25_5:                               # %if.end12
	jmp	.LBB25_6
.LBB25_6:                               # %if.end13
	callq	init_orig_buffers
	addl	-12(%rbp), %eax
	movl	%eax, -12(%rbp)
	movq	input, %rax
	cmpl	$0, 1284(%rax)
	jne	.LBB25_9
# %bb.7:                                # %lor.lhs.false
	movq	input, %rax
	cmpl	$0, 1288(%rax)
	jne	.LBB25_9
# %bb.8:                                # %lor.lhs.false17
	movq	input, %rax
	cmpl	$0, 60(%rax)
	je	.LBB25_10
.LBB25_9:                               # %if.then19
	movabsq	$wp_weight, %rdi
	movl	$6, %esi
	movl	$15, %edx
	movl	$3, %ecx
	callq	get_mem3Dint
	addl	-12(%rbp), %eax
	movl	%eax, -12(%rbp)
	movabsq	$wp_offset, %rdi
	movl	$6, %esi
	movl	$15, %edx
	movl	$3, %ecx
	callq	get_mem3Dint
	addl	-12(%rbp), %eax
	movl	%eax, -12(%rbp)
	movabsq	$wbp_weight, %rdi
	movl	$6, %esi
	movl	$15, %edx
	movl	$15, %ecx
	movl	$3, %r8d
	callq	get_mem4Dint
	addl	-12(%rbp), %eax
	movl	%eax, -12(%rbp)
.LBB25_10:                              # %if.end26
	movq	input, %rax
	cmpl	$0, 1236(%rax)
	jne	.LBB25_12
# %bb.11:                               # %lor.lhs.false29
	movq	input, %rax
	cmpl	$0, 1316(%rax)
	jle	.LBB25_13
.LBB25_12:                              # %if.then32
	movq	img, %rax
	movl	52(%rax), %eax
	cltd
	movl	$4, %esi
	idivl	%esi
	movl	%eax, %ecx
	movq	img, %rax
	movl	60(%rax), %eax
	cltd
	idivl	%esi
	movabsq	$direct_ref_idx, %rdi
	movl	$2, %esi
	movl	%ecx, %edx
	movl	%eax, %ecx
	callq	get_mem3Dshort
	addl	-12(%rbp), %eax
	movl	%eax, -12(%rbp)
	movq	img, %rax
	movl	52(%rax), %eax
	cltd
	movl	$4, %ecx
	idivl	%ecx
	movl	%eax, %esi
	movq	img, %rax
	movl	60(%rax), %eax
	cltd
	idivl	%ecx
	movabsq	$direct_pdir, %rdi
	movl	%eax, %edx
	callq	get_mem2Dshort
	addl	-12(%rbp), %eax
	movl	%eax, -12(%rbp)
.LBB25_13:                              # %if.end42
	movq	img, %rax
	movl	60(%rax), %esi
	addl	$8, %esi
	movq	img, %rax
	movl	52(%rax), %edx
	addl	$8, %edx
	shll	$2, %edx
	movabsq	$img4Y_tmp, %rdi
	callq	get_mem2Dint
	addl	-12(%rbp), %eax
	movl	%eax, -12(%rbp)
	movq	input, %rax
	cmpl	$2, 2464(%rax)
	jne	.LBB25_21
# %bb.14:                               # %if.then52
	movq	decs, %rdi
	movl	$16, %esi
	movl	$16, %edx
	callq	get_mem2Dint
	addl	-12(%rbp), %eax
	movl	%eax, -12(%rbp)
	movq	input, %rax
	movslq	2904(%rax), %rdi
	movl	$8, %esi
	callq	calloc
	movq	decs, %rcx
	movq	%rax, 16(%rcx)
	cmpq	$0, %rax
	jne	.LBB25_16
# %bb.15:                               # %if.then59
	movabsq	$.L.str.198, %rdi
	callq	no_mem_exit
.LBB25_16:                              # %if.end60
	movl	$0, -16(%rbp)
.LBB25_17:                              # %for.cond
                                        # =>This Inner Loop Header: Depth=1
	movl	-16(%rbp), %eax
	movq	input, %rcx
	cmpl	2904(%rcx), %eax
	jge	.LBB25_20
# %bb.18:                               # %for.body
                                        #   in Loop: Header=BB25_17 Depth=1
	movq	decs, %rax
	movq	16(%rax), %rdi
	movslq	-16(%rbp), %rax
	shlq	$3, %rax
	addq	%rax, %rdi
	movq	img, %rax
	movl	36(%rax), %esi
	addl	$1, %esi
	movq	img, %rax
	movl	60(%rax), %edx
	movq	img, %rax
	movl	52(%rax), %ecx
	callq	get_mem3Dpel
	addl	-12(%rbp), %eax
	movl	%eax, -12(%rbp)
# %bb.19:                               # %for.inc
                                        #   in Loop: Header=BB25_17 Depth=1
	movl	-16(%rbp), %eax
	addl	$1, %eax
	movl	%eax, -16(%rbp)
	jmp	.LBB25_17
.LBB25_20:                              # %for.end
	movq	decs, %rdi
	addq	$32, %rdi
	movl	$4, %esi
	movl	$4, %edx
	callq	get_mem2Dpel
	addl	-12(%rbp), %eax
	movl	%eax, -12(%rbp)
	movq	decs, %rdi
	addq	$8, %rdi
	movq	input, %rax
	movl	2904(%rax), %esi
	movq	img, %rax
	movl	60(%rax), %edx
	movq	img, %rax
	movl	52(%rax), %ecx
	callq	get_mem3Dpel
	addl	-12(%rbp), %eax
	movl	%eax, -12(%rbp)
	movq	decs, %rdi
	addq	$24, %rdi
	movq	input, %rax
	movl	2904(%rax), %esi
	movq	img, %rax
	movl	60(%rax), %edx
	movq	img, %rax
	movl	52(%rax), %ecx
	callq	get_mem3Dpel
	addl	-12(%rbp), %eax
	movl	%eax, -12(%rbp)
	movq	decs, %rdi
	addq	$40, %rdi
	movq	img, %rax
	movl	60(%rax), %eax
	cltd
	movl	$16, %ecx
	idivl	%ecx
	movl	%eax, %esi
	movq	img, %rax
	movl	52(%rax), %eax
	cltd
	idivl	%ecx
	movl	%eax, %edx
	callq	get_mem2D
	addl	-12(%rbp), %eax
	movl	%eax, -12(%rbp)
	movq	decs, %rdi
	addq	$48, %rdi
	movq	img, %rax
	movl	52(%rax), %eax
	cltd
	movl	$16, %ecx
	idivl	%ecx
	movl	%eax, %esi
	movq	img, %rax
	movl	60(%rax), %eax
	cltd
	idivl	%ecx
	movl	%eax, %edx
	callq	get_mem2D
	addl	-12(%rbp), %eax
	movl	%eax, -12(%rbp)
.LBB25_21:                              # %if.end95
	movq	input, %rax
	cmpl	$0, 2908(%rax)
	je	.LBB25_23
# %bb.22:                               # %if.then97
	movq	img, %rax
	movl	60(%rax), %esi
	movq	img, %rax
	movl	52(%rax), %edx
	movabsq	$pixel_map, %rdi
	callq	get_mem2D
	addl	-12(%rbp), %eax
	movl	%eax, -12(%rbp)
	movq	img, %rax
	movl	60(%rax), %eax
	cltd
	movl	$8, %ecx
	idivl	%ecx
	movl	%eax, %esi
	movq	img, %rax
	movl	52(%rax), %eax
	cltd
	idivl	%ecx
	movabsq	$refresh_map, %rdi
	movl	%eax, %edx
	callq	get_mem2D
	addl	-12(%rbp), %eax
	movl	%eax, -12(%rbp)
.LBB25_23:                              # %if.end108
	movq	active_sps, %rax
	cmpl	$0, 1148(%rax)
	jne	.LBB25_27
# %bb.24:                               # %if.then111
	movq	img, %rax
	movl	60(%rax), %esi
	movq	img, %rax
	movl	52(%rax), %edx
	movabsq	$imgY_com, %rdi
	callq	get_mem2Dpel
	addl	-12(%rbp), %eax
	movl	%eax, -12(%rbp)
	movq	img, %rax
	cmpl	$0, 72700(%rax)
	je	.LBB25_26
# %bb.25:                               # %if.then118
	movq	img, %rax
	movl	64(%rax), %edx
	movq	img, %rax
	movl	56(%rax), %ecx
	movabsq	$imgUV_com, %rdi
	movl	$2, %esi
	callq	get_mem3Dpel
	addl	-12(%rbp), %eax
	movl	%eax, -12(%rbp)
.LBB25_26:                              # %if.end121
	jmp	.LBB25_27
.LBB25_27:                              # %if.end122
	movq	input, %rax
	cmpl	$0, 3292(%rax)
	je	.LBB25_29
# %bb.28:                               # %if.then124
	movb	$0, %al
	callq	get_mem_FME
	addl	-12(%rbp), %eax
	movl	%eax, -12(%rbp)
.LBB25_29:                              # %if.end127
	movq	input, %rax
	cmpl	$0, 3236(%rax)
	je	.LBB25_31
# %bb.30:                               # %if.then129
	movb	$0, %al
	callq	rc_alloc
.LBB25_31:                              # %if.end130
	movl	-12(%rbp), %ebx
	cmpl	$953341798, -20(%rbp)   # imm = 0x38D2D766
	jne	.LBB25_33
.LBB25_32:
	movl	%ebx, %eax
	addq	$24, %rsp
	popq	%rbx
	popq	%rbp
	.cfi_def_cfa %rsp, 8
	retq
.LBB25_33:                              # %func_exit
	.cfi_def_cfa %rbp, 16
	callq	detect_breach
	jmp	.LBB25_32
.Lfunc_end25:
	.size	init_global_buffers.1, .Lfunc_end25-init_global_buffers.1
	.cfi_endproc
                                        # -- End function
	.globl	decide_fld_frame.2      # -- Begin function decide_fld_frame.2
	.p2align	4, 0x90
	.type	decide_fld_frame.2,@function
decide_fld_frame.2:                     # @decide_fld_frame.2
	.cfi_startproc
# %bb.0:                                # %entry
	pushq	%rbp
	.cfi_def_cfa_offset 16
	.cfi_offset %rbp, -16
	movq	%rsp, %rbp
	.cfi_def_cfa_register %rbp
	pushq	%rbx
	subq	$56, %rsp
	.cfi_offset %rbx, -24
	movl	$1873304641, -32(%rbp)  # imm = 0x6FA85C41
	vmovss	%xmm0, -16(%rbp)
	vmovss	%xmm1, -24(%rbp)
	movl	%edi, -20(%rbp)
	movl	%esi, -28(%rbp)
	vmovsd	%xmm2, -40(%rbp)
	vcvtsi2sdl	-28(%rbp), %xmm0, %xmm0
	vmulsd	-40(%rbp), %xmm0, %xmm0
	vmovss	-16(%rbp), %xmm1        # xmm1 = mem[0],zero,zero,zero
	vcvtss2sd	%xmm1, %xmm0, %xmm1
	vaddsd	%xmm1, %xmm0, %xmm0
	vmovsd	%xmm0, -56(%rbp)
	vcvtsi2sdl	-20(%rbp), %xmm0, %xmm0
	vmulsd	-40(%rbp), %xmm0, %xmm0
	vmovss	-24(%rbp), %xmm1        # xmm1 = mem[0],zero,zero,zero
	vcvtss2sd	%xmm1, %xmm0, %xmm1
	vaddsd	%xmm1, %xmm0, %xmm0
	vmovsd	%xmm0, -48(%rbp)
	vmovsd	-48(%rbp), %xmm0        # xmm0 = mem[0],zero
	vucomisd	-56(%rbp), %xmm0
	jbe	.LBB26_2
# %bb.1:                                # %if.then
	movl	$0, -12(%rbp)
	jmp	.LBB26_3
.LBB26_2:                               # %if.else
	movl	$1, -12(%rbp)
.LBB26_3:                               # %return
	movl	-12(%rbp), %ebx
	cmpl	$1873304641, -32(%rbp)  # imm = 0x6FA85C41
	jne	.LBB26_5
.LBB26_4:
	movl	%ebx, %eax
	addq	$56, %rsp
	popq	%rbx
	popq	%rbp
	.cfi_def_cfa %rsp, 8
	retq
.LBB26_5:                               # %func_exit
	.cfi_def_cfa %rbp, 16
	callq	detect_breach
	jmp	.LBB26_4
.Lfunc_end26:
	.size	decide_fld_frame.2, .Lfunc_end26-decide_fld_frame.2
	.cfi_endproc
                                        # -- End function
	.globl	decide_fld_frame.3      # -- Begin function decide_fld_frame.3
	.p2align	4, 0x90
	.type	decide_fld_frame.3,@function
decide_fld_frame.3:                     # @decide_fld_frame.3
	.cfi_startproc
# %bb.0:                                # %entry
	pushq	%rbp
	.cfi_def_cfa_offset 16
	.cfi_offset %rbp, -16
	movq	%rsp, %rbp
	.cfi_def_cfa_register %rbp
	pushq	%rbx
	subq	$56, %rsp
	.cfi_offset %rbx, -24
	movl	$577898657, -32(%rbp)   # imm = 0x227208A1
	vmovss	%xmm0, -24(%rbp)
	vmovss	%xmm1, -28(%rbp)
	movl	%edi, -16(%rbp)
	movl	%esi, -20(%rbp)
	vmovsd	%xmm2, -40(%rbp)
	vcvtsi2sdl	-20(%rbp), %xmm0, %xmm0
	vmulsd	-40(%rbp), %xmm0, %xmm0
	vmovss	-24(%rbp), %xmm1        # xmm1 = mem[0],zero,zero,zero
	vcvtss2sd	%xmm1, %xmm0, %xmm1
	vaddsd	%xmm1, %xmm0, %xmm0
	vmovsd	%xmm0, -56(%rbp)
	vcvtsi2sdl	-16(%rbp), %xmm0, %xmm0
	vmulsd	-40(%rbp), %xmm0, %xmm0
	vmovss	-28(%rbp), %xmm1        # xmm1 = mem[0],zero,zero,zero
	vcvtss2sd	%xmm1, %xmm0, %xmm1
	vaddsd	%xmm1, %xmm0, %xmm0
	vmovsd	%xmm0, -48(%rbp)
	vmovsd	-48(%rbp), %xmm0        # xmm0 = mem[0],zero
	vucomisd	-56(%rbp), %xmm0
	jbe	.LBB27_2
# %bb.1:                                # %if.then
	movl	$0, -12(%rbp)
	jmp	.LBB27_3
.LBB27_2:                               # %if.else
	movl	$1, -12(%rbp)
.LBB27_3:                               # %return
	movl	-12(%rbp), %ebx
	cmpl	$577898657, -32(%rbp)   # imm = 0x227208A1
	jne	.LBB27_5
.LBB27_4:
	movl	%ebx, %eax
	addq	$56, %rsp
	popq	%rbx
	popq	%rbp
	.cfi_def_cfa %rsp, 8
	retq
.LBB27_5:                               # %func_exit
	.cfi_def_cfa %rbp, 16
	callq	detect_breach
	jmp	.LBB27_4
.Lfunc_end27:
	.size	decide_fld_frame.3, .Lfunc_end27-decide_fld_frame.3
	.cfi_endproc
                                        # -- End function
	.globl	decide_fld_frame.4      # -- Begin function decide_fld_frame.4
	.p2align	4, 0x90
	.type	decide_fld_frame.4,@function
decide_fld_frame.4:                     # @decide_fld_frame.4
	.cfi_startproc
# %bb.0:                                # %entry
	pushq	%rbp
	.cfi_def_cfa_offset 16
	.cfi_offset %rbp, -16
	movq	%rsp, %rbp
	.cfi_def_cfa_register %rbp
	pushq	%rbx
	subq	$56, %rsp
	.cfi_offset %rbx, -24
	movl	$839061376, -32(%rbp)   # imm = 0x32030F80
	vmovss	%xmm0, -24(%rbp)
	vmovss	%xmm1, -16(%rbp)
	movl	%edi, -28(%rbp)
	movl	%esi, -20(%rbp)
	vmovsd	%xmm2, -40(%rbp)
	vcvtsi2sdl	-20(%rbp), %xmm0, %xmm0
	vmulsd	-40(%rbp), %xmm0, %xmm0
	vmovss	-24(%rbp), %xmm1        # xmm1 = mem[0],zero,zero,zero
	vcvtss2sd	%xmm1, %xmm0, %xmm1
	vaddsd	%xmm1, %xmm0, %xmm0
	vmovsd	%xmm0, -56(%rbp)
	vcvtsi2sdl	-28(%rbp), %xmm0, %xmm0
	vmulsd	-40(%rbp), %xmm0, %xmm0
	vmovss	-16(%rbp), %xmm1        # xmm1 = mem[0],zero,zero,zero
	vcvtss2sd	%xmm1, %xmm0, %xmm1
	vaddsd	%xmm1, %xmm0, %xmm0
	vmovsd	%xmm0, -48(%rbp)
	vmovsd	-48(%rbp), %xmm0        # xmm0 = mem[0],zero
	vucomisd	-56(%rbp), %xmm0
	jbe	.LBB28_2
# %bb.1:                                # %if.then
	movl	$0, -12(%rbp)
	jmp	.LBB28_3
.LBB28_2:                               # %if.else
	movl	$1, -12(%rbp)
.LBB28_3:                               # %return
	movl	-12(%rbp), %ebx
	cmpl	$839061376, -32(%rbp)   # imm = 0x32030F80
	jne	.LBB28_5
.LBB28_4:
	movl	%ebx, %eax
	addq	$56, %rsp
	popq	%rbx
	popq	%rbp
	.cfi_def_cfa %rsp, 8
	retq
.LBB28_5:                               # %func_exit
	.cfi_def_cfa %rbp, 16
	callq	detect_breach
	jmp	.LBB28_4
.Lfunc_end28:
	.size	decide_fld_frame.4, .Lfunc_end28-decide_fld_frame.4
	.cfi_endproc
                                        # -- End function
	.globl	get_mem_mv.5            # -- Begin function get_mem_mv.5
	.p2align	4, 0x90
	.type	get_mem_mv.5,@function
get_mem_mv.5:                           # @get_mem_mv.5
	.cfi_startproc
# %bb.0:                                # %entry
	pushq	%rbp
	.cfi_def_cfa_offset 16
	.cfi_offset %rbp, -16
	movq	%rsp, %rbp
	.cfi_def_cfa_register %rbp
	pushq	%rbx
	subq	$40, %rsp
	.cfi_offset %rbx, -24
	movl	$731634492, -44(%rbp)   # imm = 0x2B9BDB3C
	movq	%rdi, -40(%rbp)
	movl	$4, %edi
	movl	$8, %esi
	callq	calloc
	movq	-40(%rbp), %rcx
	movq	%rax, (%rcx)
	cmpq	$0, %rax
	jne	.LBB29_2
# %bb.1:                                # %if.then
	movabsq	$.L.str.199, %rdi
	callq	no_mem_exit
.LBB29_2:                               # %if.end
	movl	$0, -12(%rbp)
.LBB29_3:                               # %for.cond
                                        # =>This Loop Header: Depth=1
                                        #     Child Loop BB29_7 Depth 2
                                        #       Child Loop BB29_11 Depth 3
                                        #         Child Loop BB29_15 Depth 4
                                        #           Child Loop BB29_19 Depth 5
	cmpl	$4, -12(%rbp)
	jge	.LBB29_32
# %bb.4:                                # %for.body
                                        #   in Loop: Header=BB29_3 Depth=1
	movl	$4, %edi
	movl	$8, %esi
	callq	calloc
	movq	-40(%rbp), %rcx
	movq	(%rcx), %rcx
	movslq	-12(%rbp), %rdx
	movq	%rax, (%rcx,%rdx,8)
	cmpq	$0, %rax
	jne	.LBB29_6
# %bb.5:                                # %if.then4
                                        #   in Loop: Header=BB29_3 Depth=1
	movabsq	$.L.str.199, %rdi
	callq	no_mem_exit
.LBB29_6:                               # %if.end5
                                        #   in Loop: Header=BB29_3 Depth=1
	movl	$0, -16(%rbp)
.LBB29_7:                               # %for.cond6
                                        #   Parent Loop BB29_3 Depth=1
                                        # =>  This Loop Header: Depth=2
                                        #       Child Loop BB29_11 Depth 3
                                        #         Child Loop BB29_15 Depth 4
                                        #           Child Loop BB29_19 Depth 5
	cmpl	$4, -16(%rbp)
	jge	.LBB29_30
# %bb.8:                                # %for.body8
                                        #   in Loop: Header=BB29_7 Depth=2
	movl	$2, %edi
	movl	$8, %esi
	callq	calloc
	movq	-40(%rbp), %rcx
	movq	(%rcx), %rcx
	movslq	-12(%rbp), %rdx
	movq	(%rcx,%rdx,8), %rcx
	movslq	-16(%rbp), %rdx
	movq	%rax, (%rcx,%rdx,8)
	cmpq	$0, %rax
	jne	.LBB29_10
# %bb.9:                                # %if.then15
                                        #   in Loop: Header=BB29_7 Depth=2
	movabsq	$.L.str.199, %rdi
	callq	no_mem_exit
.LBB29_10:                              # %if.end16
                                        #   in Loop: Header=BB29_7 Depth=2
	movl	$0, -20(%rbp)
.LBB29_11:                              # %for.cond17
                                        #   Parent Loop BB29_3 Depth=1
                                        #     Parent Loop BB29_7 Depth=2
                                        # =>    This Loop Header: Depth=3
                                        #         Child Loop BB29_15 Depth 4
                                        #           Child Loop BB29_19 Depth 5
	cmpl	$2, -20(%rbp)
	jge	.LBB29_28
# %bb.12:                               # %for.body19
                                        #   in Loop: Header=BB29_11 Depth=3
	movq	img, %rax
	movslq	36(%rax), %rdi
	movl	$8, %esi
	callq	calloc
	movq	-40(%rbp), %rcx
	movq	(%rcx), %rcx
	movslq	-12(%rbp), %rdx
	movq	(%rcx,%rdx,8), %rcx
	movslq	-16(%rbp), %rdx
	movq	(%rcx,%rdx,8), %rcx
	movslq	-20(%rbp), %rdx
	movq	%rax, (%rcx,%rdx,8)
	cmpq	$0, %rax
	jne	.LBB29_14
# %bb.13:                               # %if.then29
                                        #   in Loop: Header=BB29_11 Depth=3
	movabsq	$.L.str.199, %rdi
	callq	no_mem_exit
.LBB29_14:                              # %if.end30
                                        #   in Loop: Header=BB29_11 Depth=3
	movl	$0, -24(%rbp)
.LBB29_15:                              # %for.cond31
                                        #   Parent Loop BB29_3 Depth=1
                                        #     Parent Loop BB29_7 Depth=2
                                        #       Parent Loop BB29_11 Depth=3
                                        # =>      This Loop Header: Depth=4
                                        #           Child Loop BB29_19 Depth 5
	movl	-24(%rbp), %eax
	movq	img, %rcx
	cmpl	36(%rcx), %eax
	jge	.LBB29_26
# %bb.16:                               # %for.body35
                                        #   in Loop: Header=BB29_15 Depth=4
	movl	$9, %edi
	movl	$8, %esi
	callq	calloc
	movq	-40(%rbp), %rcx
	movq	(%rcx), %rcx
	movslq	-12(%rbp), %rdx
	movq	(%rcx,%rdx,8), %rcx
	movslq	-16(%rbp), %rdx
	movq	(%rcx,%rdx,8), %rcx
	movslq	-20(%rbp), %rdx
	movq	(%rcx,%rdx,8), %rcx
	movslq	-24(%rbp), %rdx
	movq	%rax, (%rcx,%rdx,8)
	cmpq	$0, %rax
	jne	.LBB29_18
# %bb.17:                               # %if.then47
                                        #   in Loop: Header=BB29_15 Depth=4
	movabsq	$.L.str.199, %rdi
	callq	no_mem_exit
.LBB29_18:                              # %if.end48
                                        #   in Loop: Header=BB29_15 Depth=4
	movl	$0, -28(%rbp)
.LBB29_19:                              # %for.cond49
                                        #   Parent Loop BB29_3 Depth=1
                                        #     Parent Loop BB29_7 Depth=2
                                        #       Parent Loop BB29_11 Depth=3
                                        #         Parent Loop BB29_15 Depth=4
                                        # =>        This Inner Loop Header: Depth=5
	cmpl	$9, -28(%rbp)
	jge	.LBB29_24
# %bb.20:                               # %for.body52
                                        #   in Loop: Header=BB29_19 Depth=5
	movl	$2, %edi
	movl	$2, %esi
	callq	calloc
	movq	-40(%rbp), %rcx
	movq	(%rcx), %rcx
	movslq	-12(%rbp), %rdx
	movq	(%rcx,%rdx,8), %rcx
	movslq	-16(%rbp), %rdx
	movq	(%rcx,%rdx,8), %rcx
	movslq	-20(%rbp), %rdx
	movq	(%rcx,%rdx,8), %rcx
	movslq	-24(%rbp), %rdx
	movq	(%rcx,%rdx,8), %rcx
	movslq	-28(%rbp), %rdx
	movq	%rax, (%rcx,%rdx,8)
	cmpq	$0, %rax
	jne	.LBB29_22
# %bb.21:                               # %if.then66
                                        #   in Loop: Header=BB29_19 Depth=5
	movabsq	$.L.str.199, %rdi
	callq	no_mem_exit
.LBB29_22:                              # %if.end67
                                        #   in Loop: Header=BB29_19 Depth=5
	jmp	.LBB29_23
.LBB29_23:                              # %for.inc
                                        #   in Loop: Header=BB29_19 Depth=5
	movl	-28(%rbp), %eax
	addl	$1, %eax
	movl	%eax, -28(%rbp)
	jmp	.LBB29_19
.LBB29_24:                              # %for.end
                                        #   in Loop: Header=BB29_15 Depth=4
	jmp	.LBB29_25
.LBB29_25:                              # %for.inc68
                                        #   in Loop: Header=BB29_15 Depth=4
	movl	-24(%rbp), %eax
	addl	$1, %eax
	movl	%eax, -24(%rbp)
	jmp	.LBB29_15
.LBB29_26:                              # %for.end70
                                        #   in Loop: Header=BB29_11 Depth=3
	jmp	.LBB29_27
.LBB29_27:                              # %for.inc71
                                        #   in Loop: Header=BB29_11 Depth=3
	movl	-20(%rbp), %eax
	addl	$1, %eax
	movl	%eax, -20(%rbp)
	jmp	.LBB29_11
.LBB29_28:                              # %for.end73
                                        #   in Loop: Header=BB29_7 Depth=2
	jmp	.LBB29_29
.LBB29_29:                              # %for.inc74
                                        #   in Loop: Header=BB29_7 Depth=2
	movl	-16(%rbp), %eax
	addl	$1, %eax
	movl	%eax, -16(%rbp)
	jmp	.LBB29_7
.LBB29_30:                              # %for.end76
                                        #   in Loop: Header=BB29_3 Depth=1
	jmp	.LBB29_31
.LBB29_31:                              # %for.inc77
                                        #   in Loop: Header=BB29_3 Depth=1
	movl	-12(%rbp), %eax
	addl	$1, %eax
	movl	%eax, -12(%rbp)
	jmp	.LBB29_3
.LBB29_32:                              # %for.end79
	movq	img, %rax
	movl	36(%rax), %eax
	shll	$4, %eax
	imull	$9, %eax, %eax
	shll	$1, %eax
	movslq	%eax, %rbx
	shlq	$1, %rbx
	cmpl	$731634492, -44(%rbp)   # imm = 0x2B9BDB3C
	jne	.LBB29_34
.LBB29_33:
	movl	%ebx, %eax
	addq	$40, %rsp
	popq	%rbx
	popq	%rbp
	.cfi_def_cfa %rsp, 8
	retq
.LBB29_34:                              # %func_exit
	.cfi_def_cfa %rbp, 16
	callq	detect_breach
	jmp	.LBB29_33
.Lfunc_end29:
	.size	get_mem_mv.5, .Lfunc_end29-get_mem_mv.5
	.cfi_endproc
                                        # -- End function
	.globl	free_global_buffers.6   # -- Begin function free_global_buffers.6
	.p2align	4, 0x90
	.type	free_global_buffers.6,@function
free_global_buffers.6:                  # @free_global_buffers.6
	.cfi_startproc
# %bb.0:                                # %entry
	pushq	%rbp
	.cfi_def_cfa_offset 16
	.cfi_offset %rbp, -16
	movq	%rsp, %rbp
	.cfi_def_cfa_register %rbp
	subq	$16, %rsp
	movl	$662899381, -12(%rbp)   # imm = 0x27830AB5
	movq	last_P_no_frm, %rdi
	callq	free
	movq	last_P_no_fld, %rdi
	callq	free
	callq	free_orig_planes
	movq	input, %rax
	cmpl	$0, 1284(%rax)
	jne	.LBB30_3
# %bb.1:                                # %lor.lhs.false
	movq	input, %rax
	cmpl	$0, 1288(%rax)
	jne	.LBB30_3
# %bb.2:                                # %lor.lhs.false2
	movq	input, %rax
	cmpl	$0, 60(%rax)
	je	.LBB30_4
.LBB30_3:                               # %if.then
	movq	wp_weight, %rdi
	movl	$6, %esi
	callq	free_mem3Dint
	movq	wp_offset, %rdi
	movl	$6, %esi
	callq	free_mem3Dint
	movq	wbp_weight, %rdi
	movl	$6, %esi
	movl	$15, %edx
	callq	free_mem4Dint
.LBB30_4:                               # %if.end
	movq	input, %rax
	cmpl	$0, 1236(%rax)
	jne	.LBB30_6
# %bb.5:                                # %lor.lhs.false4
	movq	input, %rax
	cmpl	$0, 1316(%rax)
	jle	.LBB30_7
.LBB30_6:                               # %if.then6
	movq	direct_ref_idx, %rdi
	movl	$2, %esi
	callq	free_mem3Dshort
	movq	direct_pdir, %rdi
	callq	free_mem2Dshort
.LBB30_7:                               # %if.end7
	movq	img4Y_tmp, %rdi
	callq	free_mem2Dint
	movq	img, %rax
	movq	104(%rax), %rdi
	callq	free_mem2Dint
	movq	img, %rax
	movq	112(%rax), %rdi
	callq	free_mem2Dint
	movq	img, %rax
	movq	14168(%rax), %rdi
	callq	free
	movq	rddata_top_frame_mb+3136, %rdi
	callq	free_mem2Dint
	movq	input, %rax
	cmpl	$0, 216(%rax)
	je	.LBB30_9
# %bb.8:                                # %if.then9
	movq	img, %rax
	movq	71784(%rax), %rdi
	callq	free
.LBB30_9:                               # %if.end10
	movq	input, %rax
	cmpl	$2, 2464(%rax)
	jne	.LBB30_19
# %bb.10:                               # %if.then12
	movq	decs, %rax
	movq	(%rax), %rax
	movq	(%rax), %rdi
	callq	free
	movq	decs, %rax
	movq	(%rax), %rdi
	callq	free
	movq	decs, %rax
	movq	32(%rax), %rax
	movq	(%rax), %rdi
	callq	free
	movq	decs, %rax
	movq	32(%rax), %rdi
	callq	free
	movl	$0, -4(%rbp)
.LBB30_11:                              # %for.cond
                                        # =>This Loop Header: Depth=1
                                        #     Child Loop BB30_13 Depth 2
	movl	-4(%rbp), %eax
	movq	input, %rcx
	cmpl	2904(%rcx), %eax
	jge	.LBB30_18
# %bb.12:                               # %for.body
                                        #   in Loop: Header=BB30_11 Depth=1
	movq	decs, %rax
	movq	8(%rax), %rax
	movslq	-4(%rbp), %rcx
	movq	(%rax,%rcx,8), %rax
	movq	(%rax), %rdi
	callq	free
	movq	decs, %rax
	movq	8(%rax), %rax
	movslq	-4(%rbp), %rcx
	movq	(%rax,%rcx,8), %rdi
	callq	free
	movq	decs, %rax
	movq	24(%rax), %rax
	movslq	-4(%rbp), %rcx
	movq	(%rax,%rcx,8), %rax
	movq	(%rax), %rdi
	callq	free
	movq	decs, %rax
	movq	24(%rax), %rax
	movslq	-4(%rbp), %rcx
	movq	(%rax,%rcx,8), %rdi
	callq	free
	movl	$0, -8(%rbp)
.LBB30_13:                              # %for.cond28
                                        #   Parent Loop BB30_11 Depth=1
                                        # =>  This Inner Loop Header: Depth=2
	movl	-8(%rbp), %eax
	movq	img, %rcx
	movl	36(%rcx), %ecx
	addl	$1, %ecx
	cmpl	%ecx, %eax
	jge	.LBB30_16
# %bb.14:                               # %for.body30
                                        #   in Loop: Header=BB30_13 Depth=2
	movq	decs, %rax
	movq	16(%rax), %rax
	movslq	-4(%rbp), %rcx
	movq	(%rax,%rcx,8), %rax
	movslq	-8(%rbp), %rcx
	movq	(%rax,%rcx,8), %rax
	movq	(%rax), %rdi
	callq	free
	movq	decs, %rax
	movq	16(%rax), %rax
	movslq	-4(%rbp), %rcx
	movq	(%rax,%rcx,8), %rax
	movslq	-8(%rbp), %rcx
	movq	(%rax,%rcx,8), %rdi
	callq	free
# %bb.15:                               # %for.inc
                                        #   in Loop: Header=BB30_13 Depth=2
	movl	-8(%rbp), %eax
	addl	$1, %eax
	movl	%eax, -8(%rbp)
	jmp	.LBB30_13
.LBB30_16:                              # %for.end
                                        #   in Loop: Header=BB30_11 Depth=1
	movq	decs, %rax
	movq	16(%rax), %rax
	movslq	-4(%rbp), %rcx
	movq	(%rax,%rcx,8), %rdi
	callq	free
# %bb.17:                               # %for.inc44
                                        #   in Loop: Header=BB30_11 Depth=1
	movl	-4(%rbp), %eax
	addl	$1, %eax
	movl	%eax, -4(%rbp)
	jmp	.LBB30_11
.LBB30_18:                              # %for.end46
	movq	decs, %rax
	movq	8(%rax), %rdi
	callq	free
	movq	decs, %rax
	movq	24(%rax), %rdi
	callq	free
	movq	decs, %rax
	movq	16(%rax), %rdi
	callq	free
	movq	decs, %rax
	movq	40(%rax), %rax
	movq	(%rax), %rdi
	callq	free
	movq	decs, %rax
	movq	40(%rax), %rdi
	callq	free
	movq	decs, %rax
	movq	48(%rax), %rax
	movq	(%rax), %rdi
	callq	free
	movq	decs, %rax
	movq	48(%rax), %rdi
	callq	free
.LBB30_19:                              # %if.end54
	movq	input, %rax
	cmpl	$0, 2908(%rax)
	je	.LBB30_21
# %bb.20:                               # %if.then56
	movq	pixel_map, %rax
	movq	(%rax), %rdi
	callq	free
	movq	pixel_map, %rdi
	callq	free
	movq	refresh_map, %rax
	movq	(%rax), %rdi
	callq	free
	movq	refresh_map, %rdi
	callq	free
.LBB30_21:                              # %if.end59
	movq	active_sps, %rax
	cmpl	$0, 1148(%rax)
	jne	.LBB30_25
# %bb.22:                               # %if.then61
	movq	imgY_com, %rdi
	callq	free_mem2Dpel
	movq	img, %rax
	cmpl	$0, 72700(%rax)
	je	.LBB30_24
# %bb.23:                               # %if.then63
	movq	imgUV_com, %rdi
	movl	$2, %esi
	callq	free_mem3Dpel
.LBB30_24:                              # %if.end64
	jmp	.LBB30_25
.LBB30_25:                              # %if.end65
	movq	img, %rax
	movq	128(%rax), %rdi
	movq	img, %rax
	movl	72488(%rax), %esi
	callq	free_mem3Dint
	movq	input, %rax
	cmpl	$0, 3292(%rax)
	je	.LBB30_27
# %bb.26:                               # %if.then67
	movb	$0, %al
	callq	free_mem_FME
.LBB30_27:                              # %if.end68
	movq	input, %rax
	cmpl	$0, 3236(%rax)
	je	.LBB30_29
# %bb.28:                               # %if.then70
	movb	$0, %al
	callq	rc_free
.LBB30_29:                              # %if.end71
	cmpl	$662899381, -12(%rbp)   # imm = 0x27830AB5
	jne	.LBB30_31
.LBB30_30:
	addq	$16, %rsp
	popq	%rbp
	.cfi_def_cfa %rsp, 8
	retq
.LBB30_31:                              # %func_exit
	.cfi_def_cfa %rbp, 16
	callq	detect_breach
	jmp	.LBB30_30
.Lfunc_end30:
	.size	free_global_buffers.6, .Lfunc_end30-free_global_buffers.6
	.cfi_endproc
                                        # -- End function
	.globl	get_mem_ACcoeff.7       # -- Begin function get_mem_ACcoeff.7
	.p2align	4, 0x90
	.type	get_mem_ACcoeff.7,@function
get_mem_ACcoeff.7:                      # @get_mem_ACcoeff.7
	.cfi_startproc
# %bb.0:                                # %entry
	pushq	%rbp
	.cfi_def_cfa_offset 16
	.cfi_offset %rbp, -16
	movq	%rsp, %rbp
	.cfi_def_cfa_register %rbp
	pushq	%rbx
	subq	$40, %rsp
	.cfi_offset %rbx, -24
	movl	$646390839, -36(%rbp)   # imm = 0x26872437
	movq	%rdi, -32(%rbp)
	movq	img, %rax
	movl	72692(%rax), %eax
	addl	$4, %eax
	movl	%eax, -24(%rbp)
	movslq	-24(%rbp), %rdi
	movl	$8, %esi
	callq	calloc
	movq	-32(%rbp), %rcx
	movq	%rax, (%rcx)
	cmpq	$0, %rax
	jne	.LBB31_2
# %bb.1:                                # %if.then
	movabsq	$.L.str.200, %rdi
	callq	no_mem_exit
.LBB31_2:                               # %if.end
	movl	$0, -12(%rbp)
.LBB31_3:                               # %for.cond
                                        # =>This Loop Header: Depth=1
                                        #     Child Loop BB31_7 Depth 2
                                        #       Child Loop BB31_11 Depth 3
	movl	-12(%rbp), %eax
	cmpl	-24(%rbp), %eax
	jge	.LBB31_20
# %bb.4:                                # %for.body
                                        #   in Loop: Header=BB31_3 Depth=1
	movl	$4, %edi
	movl	$8, %esi
	callq	calloc
	movq	-32(%rbp), %rcx
	movq	(%rcx), %rcx
	movslq	-12(%rbp), %rdx
	movq	%rax, (%rcx,%rdx,8)
	cmpq	$0, %rax
	jne	.LBB31_6
# %bb.5:                                # %if.then7
                                        #   in Loop: Header=BB31_3 Depth=1
	movabsq	$.L.str.200, %rdi
	callq	no_mem_exit
.LBB31_6:                               # %if.end8
                                        #   in Loop: Header=BB31_3 Depth=1
	movl	$0, -16(%rbp)
.LBB31_7:                               # %for.cond9
                                        #   Parent Loop BB31_3 Depth=1
                                        # =>  This Loop Header: Depth=2
                                        #       Child Loop BB31_11 Depth 3
	cmpl	$4, -16(%rbp)
	jge	.LBB31_18
# %bb.8:                                # %for.body12
                                        #   in Loop: Header=BB31_7 Depth=2
	movl	$2, %edi
	movl	$8, %esi
	callq	calloc
	movq	-32(%rbp), %rcx
	movq	(%rcx), %rcx
	movslq	-12(%rbp), %rdx
	movq	(%rcx,%rdx,8), %rcx
	movslq	-16(%rbp), %rdx
	movq	%rax, (%rcx,%rdx,8)
	cmpq	$0, %rax
	jne	.LBB31_10
# %bb.9:                                # %if.then20
                                        #   in Loop: Header=BB31_7 Depth=2
	movabsq	$.L.str.200, %rdi
	callq	no_mem_exit
.LBB31_10:                              # %if.end21
                                        #   in Loop: Header=BB31_7 Depth=2
	movl	$0, -20(%rbp)
.LBB31_11:                              # %for.cond22
                                        #   Parent Loop BB31_3 Depth=1
                                        #     Parent Loop BB31_7 Depth=2
                                        # =>    This Inner Loop Header: Depth=3
	cmpl	$2, -20(%rbp)
	jge	.LBB31_16
# %bb.12:                               # %for.body25
                                        #   in Loop: Header=BB31_11 Depth=3
	movl	$65, %edi
	movl	$4, %esi
	callq	calloc
	movq	-32(%rbp), %rcx
	movq	(%rcx), %rcx
	movslq	-12(%rbp), %rdx
	movq	(%rcx,%rdx,8), %rcx
	movslq	-16(%rbp), %rdx
	movq	(%rcx,%rdx,8), %rcx
	movslq	-20(%rbp), %rdx
	movq	%rax, (%rcx,%rdx,8)
	cmpq	$0, %rax
	jne	.LBB31_14
# %bb.13:                               # %if.then35
                                        #   in Loop: Header=BB31_11 Depth=3
	movabsq	$.L.str.200, %rdi
	callq	no_mem_exit
.LBB31_14:                              # %if.end36
                                        #   in Loop: Header=BB31_11 Depth=3
	jmp	.LBB31_15
.LBB31_15:                              # %for.inc
                                        #   in Loop: Header=BB31_11 Depth=3
	movl	-20(%rbp), %eax
	addl	$1, %eax
	movl	%eax, -20(%rbp)
	jmp	.LBB31_11
.LBB31_16:                              # %for.end
                                        #   in Loop: Header=BB31_7 Depth=2
	jmp	.LBB31_17
.LBB31_17:                              # %for.inc37
                                        #   in Loop: Header=BB31_7 Depth=2
	movl	-16(%rbp), %eax
	addl	$1, %eax
	movl	%eax, -16(%rbp)
	jmp	.LBB31_7
.LBB31_18:                              # %for.end39
                                        #   in Loop: Header=BB31_3 Depth=1
	jmp	.LBB31_19
.LBB31_19:                              # %for.inc40
                                        #   in Loop: Header=BB31_3 Depth=1
	movl	-12(%rbp), %eax
	addl	$1, %eax
	movl	%eax, -12(%rbp)
	jmp	.LBB31_3
.LBB31_20:                              # %for.end42
	movl	-24(%rbp), %eax
	shll	$2, %eax
	shll	$1, %eax
	imull	$65, %eax, %eax
	movslq	%eax, %rbx
	shlq	$2, %rbx
	cmpl	$646390839, -36(%rbp)   # imm = 0x26872437
	jne	.LBB31_22
.LBB31_21:
	movl	%ebx, %eax
	addq	$40, %rsp
	popq	%rbx
	popq	%rbp
	.cfi_def_cfa %rsp, 8
	retq
.LBB31_22:                              # %func_exit
	.cfi_def_cfa %rbp, 16
	callq	detect_breach
	jmp	.LBB31_21
.Lfunc_end31:
	.size	get_mem_ACcoeff.7, .Lfunc_end31-get_mem_ACcoeff.7
	.cfi_endproc
                                        # -- End function
	.globl	free_mem_DCcoeff.8      # -- Begin function free_mem_DCcoeff.8
	.p2align	4, 0x90
	.type	free_mem_DCcoeff.8,@function
free_mem_DCcoeff.8:                     # @free_mem_DCcoeff.8
	.cfi_startproc
# %bb.0:                                # %entry
	pushq	%rbp
	.cfi_def_cfa_offset 16
	.cfi_offset %rbp, -16
	movq	%rsp, %rbp
	.cfi_def_cfa_register %rbp
	subq	$32, %rsp
	movl	$2097441606, -20(%rbp)  # imm = 0x7D046B46
	movq	%rdi, -16(%rbp)
	movl	$0, -4(%rbp)
.LBB32_1:                               # %for.cond
                                        # =>This Loop Header: Depth=1
                                        #     Child Loop BB32_3 Depth 2
	cmpl	$3, -4(%rbp)
	jge	.LBB32_8
# %bb.2:                                # %for.body
                                        #   in Loop: Header=BB32_1 Depth=1
	movl	$0, -8(%rbp)
.LBB32_3:                               # %for.cond1
                                        #   Parent Loop BB32_1 Depth=1
                                        # =>  This Inner Loop Header: Depth=2
	cmpl	$2, -8(%rbp)
	jge	.LBB32_6
# %bb.4:                                # %for.body3
                                        #   in Loop: Header=BB32_3 Depth=2
	movq	-16(%rbp), %rax
	movslq	-4(%rbp), %rcx
	movq	(%rax,%rcx,8), %rax
	movslq	-8(%rbp), %rcx
	movq	(%rax,%rcx,8), %rdi
	callq	free
# %bb.5:                                # %for.inc
                                        #   in Loop: Header=BB32_3 Depth=2
	movl	-8(%rbp), %eax
	addl	$1, %eax
	movl	%eax, -8(%rbp)
	jmp	.LBB32_3
.LBB32_6:                               # %for.end
                                        #   in Loop: Header=BB32_1 Depth=1
	movq	-16(%rbp), %rax
	movslq	-4(%rbp), %rcx
	movq	(%rax,%rcx,8), %rdi
	callq	free
# %bb.7:                                # %for.inc8
                                        #   in Loop: Header=BB32_1 Depth=1
	movl	-4(%rbp), %eax
	addl	$1, %eax
	movl	%eax, -4(%rbp)
	jmp	.LBB32_1
.LBB32_8:                               # %for.end10
	movq	-16(%rbp), %rdi
	callq	free
	cmpl	$2097441606, -20(%rbp)  # imm = 0x7D046B46
	jne	.LBB32_10
.LBB32_9:
	addq	$32, %rsp
	popq	%rbp
	.cfi_def_cfa %rsp, 8
	retq
.LBB32_10:                              # %func_exit
	.cfi_def_cfa %rbp, 16
	callq	detect_breach
	jmp	.LBB32_9
.Lfunc_end32:
	.size	free_mem_DCcoeff.8, .Lfunc_end32-free_mem_DCcoeff.8
	.cfi_endproc
                                        # -- End function
	.globl	get_mem_DCcoeff.9       # -- Begin function get_mem_DCcoeff.9
	.p2align	4, 0x90
	.type	get_mem_DCcoeff.9,@function
get_mem_DCcoeff.9:                      # @get_mem_DCcoeff.9
	.cfi_startproc
# %bb.0:                                # %entry
	pushq	%rbp
	.cfi_def_cfa_offset 16
	.cfi_offset %rbp, -16
	movq	%rsp, %rbp
	.cfi_def_cfa_register %rbp
	subq	$32, %rsp
	movl	$2092675894, -20(%rbp)  # imm = 0x7CBBB336
	movq	%rdi, -16(%rbp)
	movl	$3, %edi
	movl	$8, %esi
	callq	calloc
	movq	-16(%rbp), %rcx
	movq	%rax, (%rcx)
	cmpq	$0, %rax
	jne	.LBB33_2
# %bb.1:                                # %if.then
	movabsq	$.L.str.201, %rdi
	callq	no_mem_exit
.LBB33_2:                               # %if.end
	movl	$0, -4(%rbp)
.LBB33_3:                               # %for.cond
                                        # =>This Loop Header: Depth=1
                                        #     Child Loop BB33_7 Depth 2
	cmpl	$3, -4(%rbp)
	jge	.LBB33_14
# %bb.4:                                # %for.body
                                        #   in Loop: Header=BB33_3 Depth=1
	movl	$2, %edi
	movl	$8, %esi
	callq	calloc
	movq	-16(%rbp), %rcx
	movq	(%rcx), %rcx
	movslq	-4(%rbp), %rdx
	movq	%rax, (%rcx,%rdx,8)
	cmpq	$0, %rax
	jne	.LBB33_6
# %bb.5:                                # %if.then4
                                        #   in Loop: Header=BB33_3 Depth=1
	movabsq	$.L.str.201, %rdi
	callq	no_mem_exit
.LBB33_6:                               # %if.end5
                                        #   in Loop: Header=BB33_3 Depth=1
	movl	$0, -8(%rbp)
.LBB33_7:                               # %for.cond6
                                        #   Parent Loop BB33_3 Depth=1
                                        # =>  This Inner Loop Header: Depth=2
	cmpl	$2, -8(%rbp)
	jge	.LBB33_12
# %bb.8:                                # %for.body8
                                        #   in Loop: Header=BB33_7 Depth=2
	movl	$65, %edi
	movl	$4, %esi
	callq	calloc
	movq	-16(%rbp), %rcx
	movq	(%rcx), %rcx
	movslq	-4(%rbp), %rdx
	movq	(%rcx,%rdx,8), %rcx
	movslq	-8(%rbp), %rdx
	movq	%rax, (%rcx,%rdx,8)
	cmpq	$0, %rax
	jne	.LBB33_10
# %bb.9:                                # %if.then15
                                        #   in Loop: Header=BB33_7 Depth=2
	movabsq	$.L.str.201, %rdi
	callq	no_mem_exit
.LBB33_10:                              # %if.end16
                                        #   in Loop: Header=BB33_7 Depth=2
	jmp	.LBB33_11
.LBB33_11:                              # %for.inc
                                        #   in Loop: Header=BB33_7 Depth=2
	movl	-8(%rbp), %eax
	addl	$1, %eax
	movl	%eax, -8(%rbp)
	jmp	.LBB33_7
.LBB33_12:                              # %for.end
                                        #   in Loop: Header=BB33_3 Depth=1
	jmp	.LBB33_13
.LBB33_13:                              # %for.inc17
                                        #   in Loop: Header=BB33_3 Depth=1
	movl	-4(%rbp), %eax
	addl	$1, %eax
	movl	%eax, -4(%rbp)
	jmp	.LBB33_3
.LBB33_14:                              # %for.end19
	cmpl	$2092675894, -20(%rbp)  # imm = 0x7CBBB336
	jne	.LBB33_16
.LBB33_15:
	movl	$1560, %eax             # imm = 0x618
	addq	$32, %rsp
	popq	%rbp
	.cfi_def_cfa %rsp, 8
	retq
.LBB33_16:                              # %func_exit
	.cfi_def_cfa %rbp, 16
	callq	detect_breach
	jmp	.LBB33_15
.Lfunc_end33:
	.size	get_mem_DCcoeff.9, .Lfunc_end33-get_mem_DCcoeff.9
	.cfi_endproc
                                        # -- End function
	.globl	init_global_buffers.10  # -- Begin function init_global_buffers.10
	.p2align	4, 0x90
	.type	init_global_buffers.10,@function
init_global_buffers.10:                 # @init_global_buffers.10
	.cfi_startproc
# %bb.0:                                # %entry
	pushq	%rbp
	.cfi_def_cfa_offset 16
	.cfi_offset %rbp, -16
	movq	%rsp, %rbp
	.cfi_def_cfa_register %rbp
	pushq	%rbx
	subq	$24, %rsp
	.cfi_offset %rbx, -24
	movl	$1319960180, -20(%rbp)  # imm = 0x4EACFE74
	movl	$0, -12(%rbp)
	movq	img, %rax
	movl	36(%rax), %eax
	shll	$1, %eax
	movslq	%eax, %rdi
	shlq	$2, %rdi
	callq	malloc
	movq	%rax, last_P_no_frm
	cmpq	$0, %rax
	jne	.LBB34_2
# %bb.1:                                # %if.then
	movabsq	$.L.str.197, %rdi
	callq	no_mem_exit
.LBB34_2:                               # %if.end
	movq	active_sps, %rax
	cmpl	$0, 1148(%rax)
	jne	.LBB34_6
# %bb.3:                                # %if.then3
	movq	img, %rax
	movl	36(%rax), %eax
	shll	$2, %eax
	movslq	%eax, %rdi
	shlq	$2, %rdi
	callq	malloc
	movq	%rax, last_P_no_fld
	cmpq	$0, %rax
	jne	.LBB34_5
# %bb.4:                                # %if.then11
	movabsq	$.L.str.197, %rdi
	callq	no_mem_exit
.LBB34_5:                               # %if.end12
	jmp	.LBB34_6
.LBB34_6:                               # %if.end13
	callq	init_orig_buffers
	addl	-12(%rbp), %eax
	movl	%eax, -12(%rbp)
	movq	input, %rax
	cmpl	$0, 1284(%rax)
	jne	.LBB34_9
# %bb.7:                                # %lor.lhs.false
	movq	input, %rax
	cmpl	$0, 1288(%rax)
	jne	.LBB34_9
# %bb.8:                                # %lor.lhs.false17
	movq	input, %rax
	cmpl	$0, 60(%rax)
	je	.LBB34_10
.LBB34_9:                               # %if.then19
	movabsq	$wp_weight, %rdi
	movl	$6, %esi
	movl	$15, %edx
	movl	$3, %ecx
	callq	get_mem3Dint
	addl	-12(%rbp), %eax
	movl	%eax, -12(%rbp)
	movabsq	$wp_offset, %rdi
	movl	$6, %esi
	movl	$15, %edx
	movl	$3, %ecx
	callq	get_mem3Dint
	addl	-12(%rbp), %eax
	movl	%eax, -12(%rbp)
	movabsq	$wbp_weight, %rdi
	movl	$6, %esi
	movl	$15, %edx
	movl	$15, %ecx
	movl	$3, %r8d
	callq	get_mem4Dint
	addl	-12(%rbp), %eax
	movl	%eax, -12(%rbp)
.LBB34_10:                              # %if.end26
	movq	input, %rax
	cmpl	$0, 1236(%rax)
	jne	.LBB34_12
# %bb.11:                               # %lor.lhs.false29
	movq	input, %rax
	cmpl	$0, 1316(%rax)
	jle	.LBB34_13
.LBB34_12:                              # %if.then32
	movq	img, %rax
	movl	52(%rax), %eax
	cltd
	movl	$4, %esi
	idivl	%esi
	movl	%eax, %ecx
	movq	img, %rax
	movl	60(%rax), %eax
	cltd
	idivl	%esi
	movabsq	$direct_ref_idx, %rdi
	movl	$2, %esi
	movl	%ecx, %edx
	movl	%eax, %ecx
	callq	get_mem3Dshort
	addl	-12(%rbp), %eax
	movl	%eax, -12(%rbp)
	movq	img, %rax
	movl	52(%rax), %eax
	cltd
	movl	$4, %ecx
	idivl	%ecx
	movl	%eax, %esi
	movq	img, %rax
	movl	60(%rax), %eax
	cltd
	idivl	%ecx
	movabsq	$direct_pdir, %rdi
	movl	%eax, %edx
	callq	get_mem2Dshort
	addl	-12(%rbp), %eax
	movl	%eax, -12(%rbp)
.LBB34_13:                              # %if.end42
	movq	img, %rax
	movl	60(%rax), %esi
	addl	$8, %esi
	movq	img, %rax
	movl	52(%rax), %edx
	addl	$8, %edx
	shll	$2, %edx
	movabsq	$img4Y_tmp, %rdi
	callq	get_mem2Dint
	addl	-12(%rbp), %eax
	movl	%eax, -12(%rbp)
	movq	input, %rax
	cmpl	$2, 2464(%rax)
	jne	.LBB34_21
# %bb.14:                               # %if.then52
	movq	decs, %rdi
	movl	$16, %esi
	movl	$16, %edx
	callq	get_mem2Dint
	addl	-12(%rbp), %eax
	movl	%eax, -12(%rbp)
	movq	input, %rax
	movslq	2904(%rax), %rdi
	movl	$8, %esi
	callq	calloc
	movq	decs, %rcx
	movq	%rax, 16(%rcx)
	cmpq	$0, %rax
	jne	.LBB34_16
# %bb.15:                               # %if.then59
	movabsq	$.L.str.198, %rdi
	callq	no_mem_exit
.LBB34_16:                              # %if.end60
	movl	$0, -16(%rbp)
.LBB34_17:                              # %for.cond
                                        # =>This Inner Loop Header: Depth=1
	movl	-16(%rbp), %eax
	movq	input, %rcx
	cmpl	2904(%rcx), %eax
	jge	.LBB34_20
# %bb.18:                               # %for.body
                                        #   in Loop: Header=BB34_17 Depth=1
	movq	decs, %rax
	movq	16(%rax), %rdi
	movslq	-16(%rbp), %rax
	shlq	$3, %rax
	addq	%rax, %rdi
	movq	img, %rax
	movl	36(%rax), %esi
	addl	$1, %esi
	movq	img, %rax
	movl	60(%rax), %edx
	movq	img, %rax
	movl	52(%rax), %ecx
	callq	get_mem3Dpel
	addl	-12(%rbp), %eax
	movl	%eax, -12(%rbp)
# %bb.19:                               # %for.inc
                                        #   in Loop: Header=BB34_17 Depth=1
	movl	-16(%rbp), %eax
	addl	$1, %eax
	movl	%eax, -16(%rbp)
	jmp	.LBB34_17
.LBB34_20:                              # %for.end
	movq	decs, %rdi
	addq	$32, %rdi
	movl	$4, %esi
	movl	$4, %edx
	callq	get_mem2Dpel
	addl	-12(%rbp), %eax
	movl	%eax, -12(%rbp)
	movq	decs, %rdi
	addq	$8, %rdi
	movq	input, %rax
	movl	2904(%rax), %esi
	movq	img, %rax
	movl	60(%rax), %edx
	movq	img, %rax
	movl	52(%rax), %ecx
	callq	get_mem3Dpel
	addl	-12(%rbp), %eax
	movl	%eax, -12(%rbp)
	movq	decs, %rdi
	addq	$24, %rdi
	movq	input, %rax
	movl	2904(%rax), %esi
	movq	img, %rax
	movl	60(%rax), %edx
	movq	img, %rax
	movl	52(%rax), %ecx
	callq	get_mem3Dpel
	addl	-12(%rbp), %eax
	movl	%eax, -12(%rbp)
	movq	decs, %rdi
	addq	$40, %rdi
	movq	img, %rax
	movl	60(%rax), %eax
	cltd
	movl	$16, %ecx
	idivl	%ecx
	movl	%eax, %esi
	movq	img, %rax
	movl	52(%rax), %eax
	cltd
	idivl	%ecx
	movl	%eax, %edx
	callq	get_mem2D
	addl	-12(%rbp), %eax
	movl	%eax, -12(%rbp)
	movq	decs, %rdi
	addq	$48, %rdi
	movq	img, %rax
	movl	52(%rax), %eax
	cltd
	movl	$16, %ecx
	idivl	%ecx
	movl	%eax, %esi
	movq	img, %rax
	movl	60(%rax), %eax
	cltd
	idivl	%ecx
	movl	%eax, %edx
	callq	get_mem2D
	addl	-12(%rbp), %eax
	movl	%eax, -12(%rbp)
.LBB34_21:                              # %if.end95
	movq	input, %rax
	cmpl	$0, 2908(%rax)
	je	.LBB34_23
# %bb.22:                               # %if.then97
	movq	img, %rax
	movl	60(%rax), %esi
	movq	img, %rax
	movl	52(%rax), %edx
	movabsq	$pixel_map, %rdi
	callq	get_mem2D
	addl	-12(%rbp), %eax
	movl	%eax, -12(%rbp)
	movq	img, %rax
	movl	60(%rax), %eax
	cltd
	movl	$8, %ecx
	idivl	%ecx
	movl	%eax, %esi
	movq	img, %rax
	movl	52(%rax), %eax
	cltd
	idivl	%ecx
	movabsq	$refresh_map, %rdi
	movl	%eax, %edx
	callq	get_mem2D
	addl	-12(%rbp), %eax
	movl	%eax, -12(%rbp)
.LBB34_23:                              # %if.end108
	movq	active_sps, %rax
	cmpl	$0, 1148(%rax)
	jne	.LBB34_27
# %bb.24:                               # %if.then111
	movq	img, %rax
	movl	60(%rax), %esi
	movq	img, %rax
	movl	52(%rax), %edx
	movabsq	$imgY_com, %rdi
	callq	get_mem2Dpel
	addl	-12(%rbp), %eax
	movl	%eax, -12(%rbp)
	movq	img, %rax
	cmpl	$0, 72700(%rax)
	je	.LBB34_26
# %bb.25:                               # %if.then118
	movq	img, %rax
	movl	64(%rax), %edx
	movq	img, %rax
	movl	56(%rax), %ecx
	movabsq	$imgUV_com, %rdi
	movl	$2, %esi
	callq	get_mem3Dpel
	addl	-12(%rbp), %eax
	movl	%eax, -12(%rbp)
.LBB34_26:                              # %if.end121
	jmp	.LBB34_27
.LBB34_27:                              # %if.end122
	movq	input, %rax
	cmpl	$0, 3292(%rax)
	je	.LBB34_29
# %bb.28:                               # %if.then124
	movb	$0, %al
	callq	get_mem_FME
	addl	-12(%rbp), %eax
	movl	%eax, -12(%rbp)
.LBB34_29:                              # %if.end127
	movq	input, %rax
	cmpl	$0, 3236(%rax)
	je	.LBB34_31
# %bb.30:                               # %if.then129
	movb	$0, %al
	callq	rc_alloc
.LBB34_31:                              # %if.end130
	movl	-12(%rbp), %ebx
	cmpl	$1319960180, -20(%rbp)  # imm = 0x4EACFE74
	jne	.LBB34_33
.LBB34_32:
	movl	%ebx, %eax
	addq	$24, %rsp
	popq	%rbx
	popq	%rbp
	.cfi_def_cfa %rsp, 8
	retq
.LBB34_33:                              # %func_exit
	.cfi_def_cfa %rbp, 16
	callq	detect_breach
	jmp	.LBB34_32
.Lfunc_end34:
	.size	init_global_buffers.10, .Lfunc_end34-init_global_buffers.10
	.cfi_endproc
                                        # -- End function
	.globl	report_frame_statistic.11 # -- Begin function report_frame_statistic.11
	.p2align	4, 0x90
	.type	report_frame_statistic.11,@function
report_frame_statistic.11:              # @report_frame_statistic.11
	.cfi_startproc
# %bb.0:                                # %entry
	pushq	%rbp
	.cfi_def_cfa_offset 16
	.cfi_offset %rbp, -16
	movq	%rsp, %rbp
	.cfi_def_cfa_register %rbp
	pushq	%r15
	pushq	%r14
	pushq	%rbx
	subq	$1080, %rsp             # imm = 0x438
	.cfi_offset %rbx, -40
	.cfi_offset %r14, -32
	.cfi_offset %r15, -24
	movl	$843828717, -44(%rbp)   # imm = 0x324BCDED
	movq	$0, -32(%rbp)
	movabsq	$.L.str.4, %rdi
	movabsq	$.L.str.5, %rsi
	callq	fopen
	movq	%rax, -32(%rbp)
	cmpq	$0, %rax
	jne	.LBB35_5
# %bb.1:                                # %if.then
	movabsq	$.L.str.4, %rdi
	movabsq	$.L.str.6, %rsi
	callq	fopen
	movq	%rax, -32(%rbp)
	cmpq	$0, %rax
	jne	.LBB35_3
# %bb.2:                                # %if.then3
	movabsq	$errortext, %rdi
	movl	$300, %esi              # imm = 0x12C
	movabsq	$.L.str.7, %rdx
	movabsq	$.L.str.8, %rcx
	movb	$0, %al
	callq	snprintf
	movabsq	$errortext, %rdi
	movl	$500, %esi              # imm = 0x1F4
	callq	error
	jmp	.LBB35_4
.LBB35_3:                               # %if.else
	movq	-32(%rbp), %rdi
	movabsq	$.L.str.9, %rsi
	movb	$0, %al
	callq	fprintf
	movq	-32(%rbp), %rdi
	movabsq	$.L.str.10, %rsi
	movb	$0, %al
	callq	fprintf
	movq	-32(%rbp), %rdi
	movabsq	$.L.str.9, %rsi
	movb	$0, %al
	callq	fprintf
.LBB35_4:                               # %if.end
	jmp	.LBB35_8
.LBB35_5:                               # %if.else8
	movq	-32(%rbp), %rdi
	callq	fclose
	movabsq	$.L.str.4, %rdi
	movabsq	$.L.str.6, %rsi
	callq	fopen
	movq	%rax, -32(%rbp)
	cmpq	$0, %rax
	jne	.LBB35_7
# %bb.6:                                # %if.then12
	movabsq	$errortext, %rdi
	movl	$300, %esi              # imm = 0x12C
	movabsq	$.L.str.7, %rdx
	movabsq	$.L.str.8, %rcx
	movb	$0, %al
	callq	snprintf
	movabsq	$errortext, %rdi
	movl	$500, %esi              # imm = 0x1F4
	callq	error
.LBB35_7:                               # %if.end14
	jmp	.LBB35_8
.LBB35_8:                               # %if.end15
	cmpl	$0, frame_statistic_start
	je	.LBB35_10
# %bb.9:                                # %if.then16
	movq	-32(%rbp), %rdi
	movabsq	$.L.str.11, %rsi
	movb	$0, %al
	callq	fprintf
	movq	-32(%rbp), %rdi
	movabsq	$.L.str.9, %rsi
	movb	$0, %al
	callq	fprintf
.LBB35_10:                              # %if.end19
	movq	-32(%rbp), %rdi
	movabsq	$.L.str.12, %rsi
	movabsq	$.L.str.13, %rdx
	movabsq	$.L.str.14, %rcx
	movb	$0, %al
	callq	fprintf
	xorl	%edi, %edi
	callq	time
	movq	%rax, -64(%rbp)
	leaq	-64(%rbp), %rdi
	callq	time
	leaq	-64(%rbp), %rdi
	callq	localtime
	leaq	-1104(%rbp), %rdi
	movq	%rax, -56(%rbp)
	movq	-56(%rbp), %rcx
	movl	$1000, %esi             # imm = 0x3E8
	movabsq	$.L.str.15, %rdx
	callq	strftime
	leaq	-1104(%rbp), %rdx
	movq	-32(%rbp), %rdi
	movabsq	$.L.str.16, %rsi
	movb	$0, %al
	callq	fprintf
	leaq	-1104(%rbp), %rdi
	movq	-56(%rbp), %rcx
	movl	$1000, %esi             # imm = 0x3E8
	movabsq	$.L.str.17, %rdx
	callq	strftime
	leaq	-1104(%rbp), %rdx
	movq	-32(%rbp), %rdi
	movabsq	$.L.str.18, %rsi
	movb	$0, %al
	callq	fprintf
	movl	$0, -36(%rbp)
.LBB35_11:                              # %for.cond
                                        # =>This Inner Loop Header: Depth=1
	cmpl	$20, -36(%rbp)
	jge	.LBB35_17
# %bb.12:                               # %for.body
                                        #   in Loop: Header=BB35_11 Depth=1
	xorl	%r15d, %r15d
	movq	input, %r14
	addq	$224, %r14
	movl	-36(%rbp), %ebx
	movq	input, %rdi
	addq	$224, %rdi
	callq	strlen
	subq	$20, %rax
	cmpl	%eax, %r15d
	jle	.LBB35_14
# %bb.13:                               # %cond.true
                                        #   in Loop: Header=BB35_11 Depth=1
	xorl	%eax, %eax
	jmp	.LBB35_15
.LBB35_14:                              # %cond.false
                                        #   in Loop: Header=BB35_11 Depth=1
	movq	input, %rdi
	addq	$224, %rdi
	callq	strlen
	subq	$20, %rax
.LBB35_15:                              # %cond.end
                                        #   in Loop: Header=BB35_11 Depth=1
	addl	%eax, %ebx
	movslq	%ebx, %rax
	movb	(%r14,%rax), %al
	movslq	-36(%rbp), %rcx
	movb	%al, -96(%rbp,%rcx)
# %bb.16:                               # %for.inc
                                        #   in Loop: Header=BB35_11 Depth=1
	movl	-36(%rbp), %eax
	addl	$1, %eax
	movl	%eax, -36(%rbp)
	jmp	.LBB35_11
.LBB35_17:                              # %for.end
	leaq	-96(%rbp), %rdx
	movq	-32(%rbp), %rdi
	movabsq	$.L.str.19, %rsi
	movb	$0, %al
	callq	fprintf
	movq	-32(%rbp), %rdi
	movl	frame_no, %edx
	movabsq	$.L.str.20, %rsi
	movb	$0, %al
	callq	fprintf
	movq	-32(%rbp), %rdi
	movq	img, %rax
	movl	40(%rax), %edx
	movabsq	$.L.str.20, %rsi
	movb	$0, %al
	callq	fprintf
	movq	-32(%rbp), %rdi
	movq	input, %rax
	movl	2880(%rax), %edx
	movq	input, %rax
	movl	2884(%rax), %ecx
	movabsq	$.L.str.21, %rsi
	movb	$0, %al
	callq	fprintf
	movq	img, %rax
	cmpl	$0, 72464(%rax)
	jne	.LBB35_19
# %bb.18:                               # %if.then51
	movq	stats, %rax
	movl	704(%rax), %eax
	movl	%eax, -40(%rbp)
	jmp	.LBB35_20
.LBB35_19:                              # %if.else52
	movq	stats, %rax
	movl	20(%rax), %eax
	subl	report_frame_statistic.last_bit_ctr_n, %eax
	movl	%eax, -40(%rbp)
	movq	stats, %rax
	movl	20(%rax), %eax
	movl	%eax, report_frame_statistic.last_bit_ctr_n
.LBB35_20:                              # %if.end55
	movq	-32(%rbp), %rdi
	movl	-40(%rbp), %edx
	movabsq	$.L.str.22, %rsi
	movb	$0, %al
	callq	fprintf
	movq	-32(%rbp), %rdi
	movq	snr, %rax
	vmovss	(%rax), %xmm0           # xmm0 = mem[0],zero,zero,zero
	vcvtss2sd	%xmm0, %xmm0, %xmm0
	movq	snr, %rax
	vmovss	4(%rax), %xmm1          # xmm1 = mem[0],zero,zero,zero
	vcvtss2sd	%xmm1, %xmm0, %xmm1
	movq	snr, %rax
	vmovss	8(%rax), %xmm2          # xmm2 = mem[0],zero,zero,zero
	vcvtss2sd	%xmm2, %xmm0, %xmm2
	movabsq	$.L.str.23, %rsi
	movb	$3, %al
	callq	fprintf
	movq	-32(%rbp), %rdi
	movq	stats, %rax
	movl	884(%rax), %edx
	subl	report_frame_statistic.last_mode_use+156, %edx
	movabsq	$.L.str.24, %rsi
	movb	$0, %al
	callq	fprintf
	movq	-32(%rbp), %rdi
	movq	stats, %rax
	movl	900(%rax), %edx
	subl	report_frame_statistic.last_mode_use+172, %edx
	movabsq	$.L.str.24, %rsi
	movb	$0, %al
	callq	fprintf
	movq	-32(%rbp), %rdi
	movq	stats, %rax
	movl	888(%rax), %edx
	subl	report_frame_statistic.last_mode_use+160, %edx
	movabsq	$.L.str.24, %rsi
	movb	$0, %al
	callq	fprintf
	movq	-32(%rbp), %rdi
	movq	stats, %rax
	movl	672(%rax), %edx
	subl	report_frame_statistic.last_mode_chroma_use, %edx
	movabsq	$.L.str.24, %rsi
	movb	$0, %al
	callq	fprintf
	movq	-32(%rbp), %rdi
	movq	stats, %rax
	movl	676(%rax), %edx
	subl	report_frame_statistic.last_mode_chroma_use+4, %edx
	movabsq	$.L.str.24, %rsi
	movb	$0, %al
	callq	fprintf
	movq	-32(%rbp), %rdi
	movq	stats, %rax
	movl	680(%rax), %edx
	subl	report_frame_statistic.last_mode_chroma_use+8, %edx
	movabsq	$.L.str.24, %rsi
	movb	$0, %al
	callq	fprintf
	movq	-32(%rbp), %rdi
	movq	stats, %rax
	movl	684(%rax), %edx
	subl	report_frame_statistic.last_mode_chroma_use+12, %edx
	movabsq	$.L.str.24, %rsi
	movb	$0, %al
	callq	fprintf
	movq	-32(%rbp), %rdi
	movq	stats, %rax
	movl	764(%rax), %edx
	subl	report_frame_statistic.last_mode_use+36, %edx
	movabsq	$.L.str.24, %rsi
	movb	$0, %al
	callq	fprintf
	movq	-32(%rbp), %rdi
	movq	stats, %rax
	movl	780(%rax), %edx
	subl	report_frame_statistic.last_mode_use+52, %edx
	movabsq	$.L.str.24, %rsi
	movb	$0, %al
	callq	fprintf
	movq	-32(%rbp), %rdi
	movq	stats, %rax
	movl	768(%rax), %edx
	subl	report_frame_statistic.last_mode_use+40, %edx
	movabsq	$.L.str.24, %rsi
	movb	$0, %al
	callq	fprintf
	movq	-32(%rbp), %rdi
	movq	stats, %rax
	movl	728(%rax), %edx
	subl	report_frame_statistic.last_mode_use, %edx
	movabsq	$.L.str.24, %rsi
	movb	$0, %al
	callq	fprintf
	movq	-32(%rbp), %rdi
	movq	stats, %rax
	movl	732(%rax), %edx
	subl	report_frame_statistic.last_mode_use+4, %edx
	movabsq	$.L.str.24, %rsi
	movb	$0, %al
	callq	fprintf
	movq	-32(%rbp), %rdi
	movq	stats, %rax
	movl	736(%rax), %edx
	subl	report_frame_statistic.last_mode_use+8, %edx
	movabsq	$.L.str.24, %rsi
	movb	$0, %al
	callq	fprintf
	movq	-32(%rbp), %rdi
	movq	stats, %rax
	movl	740(%rax), %edx
	subl	report_frame_statistic.last_mode_use+12, %edx
	movabsq	$.L.str.24, %rsi
	movb	$0, %al
	callq	fprintf
	movq	-32(%rbp), %rdi
	movq	stats, %rax
	movl	76(%rax), %edx
	movabsq	$.L.str.24, %rsi
	movb	$0, %al
	callq	fprintf
	movq	-32(%rbp), %rdi
	movq	stats, %rax
	movl	376(%rax), %edx
	movabsq	$.L.str.24, %rsi
	movb	$0, %al
	callq	fprintf
	movq	-32(%rbp), %rdi
	movq	stats, %rax
	movl	80(%rax), %edx
	movabsq	$.L.str.24, %rsi
	movb	$0, %al
	callq	fprintf
	movq	-32(%rbp), %rdi
	movq	stats, %rax
	movl	380(%rax), %edx
	movabsq	$.L.str.24, %rsi
	movb	$0, %al
	callq	fprintf
	movq	-32(%rbp), %rdi
	movq	stats, %rax
	movl	84(%rax), %edx
	movabsq	$.L.str.24, %rsi
	movb	$0, %al
	callq	fprintf
	movq	-32(%rbp), %rdi
	movq	stats, %rax
	movl	384(%rax), %edx
	movabsq	$.L.str.24, %rsi
	movb	$0, %al
	callq	fprintf
	movq	-32(%rbp), %rdi
	movq	stats, %rax
	movl	760(%rax), %edx
	subl	report_frame_statistic.last_mode_use+32, %edx
	movabsq	$.L.str.24, %rsi
	movb	$0, %al
	callq	fprintf
	movq	-32(%rbp), %rdi
	movq	stats, %rax
	movl	744(%rax), %edx
	subl	report_frame_statistic.last_mode_use+16, %edx
	movabsq	$.L.str.24, %rsi
	movb	$0, %al
	callq	fprintf
	movq	-32(%rbp), %rdi
	movq	stats, %rax
	movl	88(%rax), %edx
	movabsq	$.L.str.24, %rsi
	movb	$0, %al
	callq	fprintf
	movq	-32(%rbp), %rdi
	movq	stats, %rax
	movl	388(%rax), %edx
	movabsq	$.L.str.24, %rsi
	movb	$0, %al
	callq	fprintf
	movq	-32(%rbp), %rdi
	movq	stats, %rax
	movl	748(%rax), %edx
	subl	report_frame_statistic.last_mode_use+20, %edx
	movabsq	$.L.str.24, %rsi
	movb	$0, %al
	callq	fprintf
	movq	-32(%rbp), %rdi
	movq	stats, %rax
	movl	752(%rax), %edx
	subl	report_frame_statistic.last_mode_use+24, %edx
	movabsq	$.L.str.24, %rsi
	movb	$0, %al
	callq	fprintf
	movq	-32(%rbp), %rdi
	movq	stats, %rax
	movl	756(%rax), %edx
	subl	report_frame_statistic.last_mode_use+28, %edx
	movabsq	$.L.str.24, %rsi
	movb	$0, %al
	callq	fprintf
	movq	-32(%rbp), %rdi
	movq	stats, %rax
	movl	824(%rax), %edx
	subl	report_frame_statistic.last_mode_use+96, %edx
	movabsq	$.L.str.24, %rsi
	movb	$0, %al
	callq	fprintf
	movq	-32(%rbp), %rdi
	movq	stats, %rax
	movl	840(%rax), %edx
	subl	report_frame_statistic.last_mode_use+112, %edx
	movabsq	$.L.str.24, %rsi
	movb	$0, %al
	callq	fprintf
	movq	-32(%rbp), %rdi
	movq	stats, %rax
	movl	828(%rax), %edx
	subl	report_frame_statistic.last_mode_use+100, %edx
	movabsq	$.L.str.24, %rsi
	movb	$0, %al
	callq	fprintf
	movq	-32(%rbp), %rdi
	movq	stats, %rax
	movl	788(%rax), %edx
	subl	report_frame_statistic.last_mode_use+60, %edx
	movabsq	$.L.str.24, %rsi
	movb	$0, %al
	callq	fprintf
	movq	-32(%rbp), %rdi
	movq	stats, %rax
	movl	792(%rax), %edx
	subl	report_frame_statistic.last_mode_use+64, %edx
	movabsq	$.L.str.24, %rsi
	movb	$0, %al
	callq	fprintf
	movq	-32(%rbp), %rdi
	movq	stats, %rax
	movl	796(%rax), %edx
	subl	report_frame_statistic.last_mode_use+68, %edx
	movabsq	$.L.str.24, %rsi
	movb	$0, %al
	callq	fprintf
	movq	-32(%rbp), %rdi
	movq	stats, %rax
	movl	800(%rax), %edx
	subl	report_frame_statistic.last_mode_use+72, %edx
	movabsq	$.L.str.24, %rsi
	movb	$0, %al
	callq	fprintf
	movq	-32(%rbp), %rdi
	movq	stats, %rax
	movl	132(%rax), %edx
	movabsq	$.L.str.24, %rsi
	movb	$0, %al
	callq	fprintf
	movq	-32(%rbp), %rdi
	movq	stats, %rax
	movl	432(%rax), %edx
	movabsq	$.L.str.24, %rsi
	movb	$0, %al
	callq	fprintf
	movq	-32(%rbp), %rdi
	movq	stats, %rax
	movl	136(%rax), %edx
	movabsq	$.L.str.24, %rsi
	movb	$0, %al
	callq	fprintf
	movq	-32(%rbp), %rdi
	movq	stats, %rax
	movl	436(%rax), %edx
	movabsq	$.L.str.24, %rsi
	movb	$0, %al
	callq	fprintf
	movq	-32(%rbp), %rdi
	movq	stats, %rax
	movl	140(%rax), %edx
	movabsq	$.L.str.24, %rsi
	movb	$0, %al
	callq	fprintf
	movq	-32(%rbp), %rdi
	movq	stats, %rax
	movl	440(%rax), %edx
	movabsq	$.L.str.24, %rsi
	movb	$0, %al
	callq	fprintf
	movq	-32(%rbp), %rdi
	movq	stats, %rax
	movl	144(%rax), %edx
	movabsq	$.L.str.24, %rsi
	movb	$0, %al
	callq	fprintf
	movq	-32(%rbp), %rdi
	movq	stats, %rax
	movl	444(%rax), %edx
	movabsq	$.L.str.24, %rsi
	movb	$0, %al
	callq	fprintf
	movq	-32(%rbp), %rdi
	movq	stats, %rax
	movl	820(%rax), %edx
	subl	report_frame_statistic.last_mode_use+92, %edx
	movabsq	$.L.str.24, %rsi
	movb	$0, %al
	callq	fprintf
	movq	-32(%rbp), %rdi
	movq	stats, %rax
	movl	40(%rax), %edx
	movq	stats, %rax
	addl	44(%rax), %edx
	movl	report_frame_statistic.last_b8_mode_0+8, %eax
	addl	report_frame_statistic.last_b8_mode_0+12, %eax
	subl	%eax, %edx
	movabsq	$.L.str.24, %rsi
	movb	$0, %al
	callq	fprintf
	movq	-32(%rbp), %rdi
	movq	stats, %rax
	movl	44(%rax), %edx
	subl	report_frame_statistic.last_b8_mode_0+12, %edx
	movabsq	$.L.str.24, %rsi
	movb	$0, %al
	callq	fprintf
	movq	-32(%rbp), %rdi
	movq	stats, %rax
	movl	40(%rax), %edx
	subl	report_frame_statistic.last_b8_mode_0+8, %edx
	movabsq	$.L.str.24, %rsi
	movb	$0, %al
	callq	fprintf
	movq	-32(%rbp), %rdi
	movq	stats, %rax
	movl	804(%rax), %edx
	subl	report_frame_statistic.last_mode_use+76, %edx
	movabsq	$.L.str.24, %rsi
	movb	$0, %al
	callq	fprintf
	movq	-32(%rbp), %rdi
	movq	stats, %rax
	movl	148(%rax), %edx
	movabsq	$.L.str.24, %rsi
	movb	$0, %al
	callq	fprintf
	movq	-32(%rbp), %rdi
	movq	stats, %rax
	movl	448(%rax), %edx
	movabsq	$.L.str.24, %rsi
	movb	$0, %al
	callq	fprintf
	movq	-32(%rbp), %rdi
	movq	stats, %rax
	movl	808(%rax), %edx
	subl	report_frame_statistic.last_mode_use+80, %edx
	movabsq	$.L.str.24, %rsi
	movb	$0, %al
	callq	fprintf
	movq	-32(%rbp), %rdi
	movq	stats, %rax
	movl	812(%rax), %edx
	subl	report_frame_statistic.last_mode_use+84, %edx
	movabsq	$.L.str.24, %rsi
	movb	$0, %al
	callq	fprintf
	movq	-32(%rbp), %rdi
	movq	stats, %rax
	movl	816(%rax), %edx
	subl	report_frame_statistic.last_mode_use+88, %edx
	movabsq	$.L.str.24, %rsi
	movb	$0, %al
	callq	fprintf
	movq	-32(%rbp), %rdi
	movabsq	$.L.str.25, %rsi
	movb	$0, %al
	callq	fprintf
	movq	stats, %rax
	movl	884(%rax), %eax
	movl	%eax, report_frame_statistic.last_mode_use+156
	movq	stats, %rax
	movl	900(%rax), %eax
	movl	%eax, report_frame_statistic.last_mode_use+172
	movq	stats, %rax
	movl	888(%rax), %eax
	movl	%eax, report_frame_statistic.last_mode_use+160
	movl	$0, -36(%rbp)
.LBB35_21:                              # %for.cond309
                                        # =>This Inner Loop Header: Depth=1
	cmpl	$15, -36(%rbp)
	jge	.LBB35_24
# %bb.22:                               # %for.body312
                                        #   in Loop: Header=BB35_21 Depth=1
	movq	stats, %rax
	movslq	-36(%rbp), %rcx
	movl	728(%rax,%rcx,4), %eax
	movslq	-36(%rbp), %rcx
	movl	%eax, report_frame_statistic.last_mode_use(,%rcx,4)
	movq	stats, %rax
	movslq	-36(%rbp), %rcx
	movl	788(%rax,%rcx,4), %eax
	movslq	-36(%rbp), %rcx
	movl	%eax, report_frame_statistic.last_mode_use+60(,%rcx,4)
	movq	stats, %rax
	movslq	-36(%rbp), %rcx
	movl	$0, 72(%rax,%rcx,4)
	movq	stats, %rax
	movslq	-36(%rbp), %rcx
	movl	$0, 132(%rax,%rcx,4)
	movq	stats, %rax
	movslq	-36(%rbp), %rcx
	movl	$0, 372(%rax,%rcx,4)
	movq	stats, %rax
	movslq	-36(%rbp), %rcx
	movl	$0, 432(%rax,%rcx,4)
# %bb.23:                               # %for.inc341
                                        #   in Loop: Header=BB35_21 Depth=1
	movl	-36(%rbp), %eax
	addl	$1, %eax
	movl	%eax, -36(%rbp)
	jmp	.LBB35_21
.LBB35_24:                              # %for.end343
	movq	stats, %rax
	movl	40(%rax), %eax
	movl	%eax, report_frame_statistic.last_b8_mode_0+8
	movq	stats, %rax
	movl	44(%rax), %eax
	movl	%eax, report_frame_statistic.last_b8_mode_0+12
	movl	$0, -36(%rbp)
.LBB35_25:                              # %for.cond350
                                        # =>This Inner Loop Header: Depth=1
	cmpl	$4, -36(%rbp)
	jge	.LBB35_28
# %bb.26:                               # %for.body353
                                        #   in Loop: Header=BB35_25 Depth=1
	movq	stats, %rax
	movslq	-36(%rbp), %rcx
	movl	672(%rax,%rcx,4), %eax
	movslq	-36(%rbp), %rcx
	movl	%eax, report_frame_statistic.last_mode_chroma_use(,%rcx,4)
# %bb.27:                               # %for.inc359
                                        #   in Loop: Header=BB35_25 Depth=1
	movl	-36(%rbp), %eax
	addl	$1, %eax
	movl	%eax, -36(%rbp)
	jmp	.LBB35_25
.LBB35_28:                              # %for.end361
	movl	$0, frame_statistic_start
	movq	-32(%rbp), %rdi
	callq	fclose
	cmpl	$843828717, -44(%rbp)   # imm = 0x324BCDED
	jne	.LBB35_30
.LBB35_29:
	addq	$1080, %rsp             # imm = 0x438
	popq	%rbx
	popq	%r14
	popq	%r15
	popq	%rbp
	.cfi_def_cfa %rsp, 8
	retq
.LBB35_30:                              # %func_exit
	.cfi_def_cfa %rbp, 16
	callq	detect_breach
	jmp	.LBB35_29
.Lfunc_end35:
	.size	report_frame_statistic.11, .Lfunc_end35-report_frame_statistic.11
	.cfi_endproc
                                        # -- End function
	.globl	get_mem_mv.12           # -- Begin function get_mem_mv.12
	.p2align	4, 0x90
	.type	get_mem_mv.12,@function
get_mem_mv.12:                          # @get_mem_mv.12
	.cfi_startproc
# %bb.0:                                # %entry
	pushq	%rbp
	.cfi_def_cfa_offset 16
	.cfi_offset %rbp, -16
	movq	%rsp, %rbp
	.cfi_def_cfa_register %rbp
	pushq	%rbx
	subq	$40, %rsp
	.cfi_offset %rbx, -24
	movl	$497493828, -44(%rbp)   # imm = 0x1DA72744
	movq	%rdi, -40(%rbp)
	movl	$4, %edi
	movl	$8, %esi
	callq	calloc
	movq	-40(%rbp), %rcx
	movq	%rax, (%rcx)
	cmpq	$0, %rax
	jne	.LBB36_2
# %bb.1:                                # %if.then
	movabsq	$.L.str.199, %rdi
	callq	no_mem_exit
.LBB36_2:                               # %if.end
	movl	$0, -12(%rbp)
.LBB36_3:                               # %for.cond
                                        # =>This Loop Header: Depth=1
                                        #     Child Loop BB36_7 Depth 2
                                        #       Child Loop BB36_11 Depth 3
                                        #         Child Loop BB36_15 Depth 4
                                        #           Child Loop BB36_19 Depth 5
	cmpl	$4, -12(%rbp)
	jge	.LBB36_32
# %bb.4:                                # %for.body
                                        #   in Loop: Header=BB36_3 Depth=1
	movl	$4, %edi
	movl	$8, %esi
	callq	calloc
	movq	-40(%rbp), %rcx
	movq	(%rcx), %rcx
	movslq	-12(%rbp), %rdx
	movq	%rax, (%rcx,%rdx,8)
	cmpq	$0, %rax
	jne	.LBB36_6
# %bb.5:                                # %if.then4
                                        #   in Loop: Header=BB36_3 Depth=1
	movabsq	$.L.str.199, %rdi
	callq	no_mem_exit
.LBB36_6:                               # %if.end5
                                        #   in Loop: Header=BB36_3 Depth=1
	movl	$0, -16(%rbp)
.LBB36_7:                               # %for.cond6
                                        #   Parent Loop BB36_3 Depth=1
                                        # =>  This Loop Header: Depth=2
                                        #       Child Loop BB36_11 Depth 3
                                        #         Child Loop BB36_15 Depth 4
                                        #           Child Loop BB36_19 Depth 5
	cmpl	$4, -16(%rbp)
	jge	.LBB36_30
# %bb.8:                                # %for.body8
                                        #   in Loop: Header=BB36_7 Depth=2
	movl	$2, %edi
	movl	$8, %esi
	callq	calloc
	movq	-40(%rbp), %rcx
	movq	(%rcx), %rcx
	movslq	-12(%rbp), %rdx
	movq	(%rcx,%rdx,8), %rcx
	movslq	-16(%rbp), %rdx
	movq	%rax, (%rcx,%rdx,8)
	cmpq	$0, %rax
	jne	.LBB36_10
# %bb.9:                                # %if.then15
                                        #   in Loop: Header=BB36_7 Depth=2
	movabsq	$.L.str.199, %rdi
	callq	no_mem_exit
.LBB36_10:                              # %if.end16
                                        #   in Loop: Header=BB36_7 Depth=2
	movl	$0, -20(%rbp)
.LBB36_11:                              # %for.cond17
                                        #   Parent Loop BB36_3 Depth=1
                                        #     Parent Loop BB36_7 Depth=2
                                        # =>    This Loop Header: Depth=3
                                        #         Child Loop BB36_15 Depth 4
                                        #           Child Loop BB36_19 Depth 5
	cmpl	$2, -20(%rbp)
	jge	.LBB36_28
# %bb.12:                               # %for.body19
                                        #   in Loop: Header=BB36_11 Depth=3
	movq	img, %rax
	movslq	36(%rax), %rdi
	movl	$8, %esi
	callq	calloc
	movq	-40(%rbp), %rcx
	movq	(%rcx), %rcx
	movslq	-12(%rbp), %rdx
	movq	(%rcx,%rdx,8), %rcx
	movslq	-16(%rbp), %rdx
	movq	(%rcx,%rdx,8), %rcx
	movslq	-20(%rbp), %rdx
	movq	%rax, (%rcx,%rdx,8)
	cmpq	$0, %rax
	jne	.LBB36_14
# %bb.13:                               # %if.then29
                                        #   in Loop: Header=BB36_11 Depth=3
	movabsq	$.L.str.199, %rdi
	callq	no_mem_exit
.LBB36_14:                              # %if.end30
                                        #   in Loop: Header=BB36_11 Depth=3
	movl	$0, -24(%rbp)
.LBB36_15:                              # %for.cond31
                                        #   Parent Loop BB36_3 Depth=1
                                        #     Parent Loop BB36_7 Depth=2
                                        #       Parent Loop BB36_11 Depth=3
                                        # =>      This Loop Header: Depth=4
                                        #           Child Loop BB36_19 Depth 5
	movl	-24(%rbp), %eax
	movq	img, %rcx
	cmpl	36(%rcx), %eax
	jge	.LBB36_26
# %bb.16:                               # %for.body35
                                        #   in Loop: Header=BB36_15 Depth=4
	movl	$9, %edi
	movl	$8, %esi
	callq	calloc
	movq	-40(%rbp), %rcx
	movq	(%rcx), %rcx
	movslq	-12(%rbp), %rdx
	movq	(%rcx,%rdx,8), %rcx
	movslq	-16(%rbp), %rdx
	movq	(%rcx,%rdx,8), %rcx
	movslq	-20(%rbp), %rdx
	movq	(%rcx,%rdx,8), %rcx
	movslq	-24(%rbp), %rdx
	movq	%rax, (%rcx,%rdx,8)
	cmpq	$0, %rax
	jne	.LBB36_18
# %bb.17:                               # %if.then47
                                        #   in Loop: Header=BB36_15 Depth=4
	movabsq	$.L.str.199, %rdi
	callq	no_mem_exit
.LBB36_18:                              # %if.end48
                                        #   in Loop: Header=BB36_15 Depth=4
	movl	$0, -28(%rbp)
.LBB36_19:                              # %for.cond49
                                        #   Parent Loop BB36_3 Depth=1
                                        #     Parent Loop BB36_7 Depth=2
                                        #       Parent Loop BB36_11 Depth=3
                                        #         Parent Loop BB36_15 Depth=4
                                        # =>        This Inner Loop Header: Depth=5
	cmpl	$9, -28(%rbp)
	jge	.LBB36_24
# %bb.20:                               # %for.body52
                                        #   in Loop: Header=BB36_19 Depth=5
	movl	$2, %edi
	movl	$2, %esi
	callq	calloc
	movq	-40(%rbp), %rcx
	movq	(%rcx), %rcx
	movslq	-12(%rbp), %rdx
	movq	(%rcx,%rdx,8), %rcx
	movslq	-16(%rbp), %rdx
	movq	(%rcx,%rdx,8), %rcx
	movslq	-20(%rbp), %rdx
	movq	(%rcx,%rdx,8), %rcx
	movslq	-24(%rbp), %rdx
	movq	(%rcx,%rdx,8), %rcx
	movslq	-28(%rbp), %rdx
	movq	%rax, (%rcx,%rdx,8)
	cmpq	$0, %rax
	jne	.LBB36_22
# %bb.21:                               # %if.then66
                                        #   in Loop: Header=BB36_19 Depth=5
	movabsq	$.L.str.199, %rdi
	callq	no_mem_exit
.LBB36_22:                              # %if.end67
                                        #   in Loop: Header=BB36_19 Depth=5
	jmp	.LBB36_23
.LBB36_23:                              # %for.inc
                                        #   in Loop: Header=BB36_19 Depth=5
	movl	-28(%rbp), %eax
	addl	$1, %eax
	movl	%eax, -28(%rbp)
	jmp	.LBB36_19
.LBB36_24:                              # %for.end
                                        #   in Loop: Header=BB36_15 Depth=4
	jmp	.LBB36_25
.LBB36_25:                              # %for.inc68
                                        #   in Loop: Header=BB36_15 Depth=4
	movl	-24(%rbp), %eax
	addl	$1, %eax
	movl	%eax, -24(%rbp)
	jmp	.LBB36_15
.LBB36_26:                              # %for.end70
                                        #   in Loop: Header=BB36_11 Depth=3
	jmp	.LBB36_27
.LBB36_27:                              # %for.inc71
                                        #   in Loop: Header=BB36_11 Depth=3
	movl	-20(%rbp), %eax
	addl	$1, %eax
	movl	%eax, -20(%rbp)
	jmp	.LBB36_11
.LBB36_28:                              # %for.end73
                                        #   in Loop: Header=BB36_7 Depth=2
	jmp	.LBB36_29
.LBB36_29:                              # %for.inc74
                                        #   in Loop: Header=BB36_7 Depth=2
	movl	-16(%rbp), %eax
	addl	$1, %eax
	movl	%eax, -16(%rbp)
	jmp	.LBB36_7
.LBB36_30:                              # %for.end76
                                        #   in Loop: Header=BB36_3 Depth=1
	jmp	.LBB36_31
.LBB36_31:                              # %for.inc77
                                        #   in Loop: Header=BB36_3 Depth=1
	movl	-12(%rbp), %eax
	addl	$1, %eax
	movl	%eax, -12(%rbp)
	jmp	.LBB36_3
.LBB36_32:                              # %for.end79
	movq	img, %rax
	movl	36(%rax), %eax
	shll	$4, %eax
	imull	$9, %eax, %eax
	shll	$1, %eax
	movslq	%eax, %rbx
	shlq	$1, %rbx
	cmpl	$497493828, -44(%rbp)   # imm = 0x1DA72744
	jne	.LBB36_34
.LBB36_33:
	movl	%ebx, %eax
	addq	$40, %rsp
	popq	%rbx
	popq	%rbp
	.cfi_def_cfa %rsp, 8
	retq
.LBB36_34:                              # %func_exit
	.cfi_def_cfa %rbp, 16
	callq	detect_breach
	jmp	.LBB36_33
.Lfunc_end36:
	.size	get_mem_mv.12, .Lfunc_end36-get_mem_mv.12
	.cfi_endproc
                                        # -- End function
	.globl	free_mem_ACcoeff.13     # -- Begin function free_mem_ACcoeff.13
	.p2align	4, 0x90
	.type	free_mem_ACcoeff.13,@function
free_mem_ACcoeff.13:                    # @free_mem_ACcoeff.13
	.cfi_startproc
# %bb.0:                                # %entry
	pushq	%rbp
	.cfi_def_cfa_offset 16
	.cfi_offset %rbp, -16
	movq	%rsp, %rbp
	.cfi_def_cfa_register %rbp
	subq	$32, %rsp
	movl	$142509147, -28(%rbp)   # imm = 0x87E845B
	movq	%rdi, -24(%rbp)
	movl	$0, -4(%rbp)
.LBB37_1:                               # %for.cond
                                        # =>This Loop Header: Depth=1
                                        #     Child Loop BB37_3 Depth 2
                                        #       Child Loop BB37_5 Depth 3
	movl	-4(%rbp), %eax
	movq	img, %rcx
	movl	72692(%rcx), %ecx
	addl	$4, %ecx
	cmpl	%ecx, %eax
	jge	.LBB37_12
# %bb.2:                                # %for.body
                                        #   in Loop: Header=BB37_1 Depth=1
	movl	$0, -8(%rbp)
.LBB37_3:                               # %for.cond1
                                        #   Parent Loop BB37_1 Depth=1
                                        # =>  This Loop Header: Depth=2
                                        #       Child Loop BB37_5 Depth 3
	cmpl	$4, -8(%rbp)
	jge	.LBB37_10
# %bb.4:                                # %for.body3
                                        #   in Loop: Header=BB37_3 Depth=2
	movl	$0, -12(%rbp)
.LBB37_5:                               # %for.cond4
                                        #   Parent Loop BB37_1 Depth=1
                                        #     Parent Loop BB37_3 Depth=2
                                        # =>    This Inner Loop Header: Depth=3
	cmpl	$2, -12(%rbp)
	jge	.LBB37_8
# %bb.6:                                # %for.body6
                                        #   in Loop: Header=BB37_5 Depth=3
	movq	-24(%rbp), %rax
	movslq	-4(%rbp), %rcx
	movq	(%rax,%rcx,8), %rax
	movslq	-8(%rbp), %rcx
	movq	(%rax,%rcx,8), %rax
	movslq	-12(%rbp), %rcx
	movq	(%rax,%rcx,8), %rdi
	callq	free
# %bb.7:                                # %for.inc
                                        #   in Loop: Header=BB37_5 Depth=3
	movl	-12(%rbp), %eax
	addl	$1, %eax
	movl	%eax, -12(%rbp)
	jmp	.LBB37_5
.LBB37_8:                               # %for.end
                                        #   in Loop: Header=BB37_3 Depth=2
	movq	-24(%rbp), %rax
	movslq	-4(%rbp), %rcx
	movq	(%rax,%rcx,8), %rax
	movslq	-8(%rbp), %rcx
	movq	(%rax,%rcx,8), %rdi
	callq	free
# %bb.9:                                # %for.inc15
                                        #   in Loop: Header=BB37_3 Depth=2
	movl	-8(%rbp), %eax
	addl	$1, %eax
	movl	%eax, -8(%rbp)
	jmp	.LBB37_3
.LBB37_10:                              # %for.end17
                                        #   in Loop: Header=BB37_1 Depth=1
	movq	-24(%rbp), %rax
	movslq	-4(%rbp), %rcx
	movq	(%rax,%rcx,8), %rdi
	callq	free
# %bb.11:                               # %for.inc20
                                        #   in Loop: Header=BB37_1 Depth=1
	movl	-4(%rbp), %eax
	addl	$1, %eax
	movl	%eax, -4(%rbp)
	jmp	.LBB37_1
.LBB37_12:                              # %for.end22
	movq	-24(%rbp), %rdi
	callq	free
	cmpl	$142509147, -28(%rbp)   # imm = 0x87E845B
	jne	.LBB37_14
.LBB37_13:
	addq	$32, %rsp
	popq	%rbp
	.cfi_def_cfa %rsp, 8
	retq
.LBB37_14:                              # %func_exit
	.cfi_def_cfa %rbp, 16
	callq	detect_breach
	jmp	.LBB37_13
.Lfunc_end37:
	.size	free_mem_ACcoeff.13, .Lfunc_end37-free_mem_ACcoeff.13
	.cfi_endproc
                                        # -- End function
	.globl	init_img.14             # -- Begin function init_img.14
	.p2align	4, 0x90
	.type	init_img.14,@function
init_img.14:                            # @init_img.14
	.cfi_startproc
# %bb.0:                                # %entry
	pushq	%rbp
	.cfi_def_cfa_offset 16
	.cfi_offset %rbp, -16
	movq	%rsp, %rbp
	.cfi_def_cfa_register %rbp
	subq	$16, %rsp
	movl	$1403925026, -16(%rbp)  # imm = 0x53AE3222
	movq	input, %rax
	movl	72(%rax), %eax
	movq	img, %rcx
	movl	%eax, 72700(%rcx)
	movq	input, %rax
	movl	3296(%rax), %eax
	movq	img, %rcx
	movl	%eax, 72660(%rcx)
	movq	img, %rax
	movl	72660(%rax), %eax
	movq	img, %rcx
	cmpl	72664(%rcx), %eax
	jg	.LBB38_2
# %bb.1:                                # %lor.lhs.false
	movq	img, %rax
	cmpl	$0, 72700(%rax)
	jne	.LBB38_3
.LBB38_2:                               # %if.then
	movq	img, %rax
	movl	72660(%rax), %eax
	cmpl	$8, %eax
	movl	$16, %eax
	movl	$8, %ecx
	cmovgl	%eax, %ecx
	movq	img, %rax
	movl	%ecx, 72656(%rax)
	jmp	.LBB38_4
.LBB38_3:                               # %if.else
	movq	img, %rax
	movl	72664(%rax), %eax
	cmpl	$8, %eax
	movl	$16, %eax
	movl	$8, %ecx
	cmovgl	%eax, %ecx
	movq	img, %rax
	movl	%ecx, 72656(%rax)
.LBB38_4:                               # %if.end
	movq	img, %rax
	movl	72660(%rax), %eax
	subl	$8, %eax
	imull	$6, %eax, %eax
	movq	img, %rcx
	movl	%eax, 72668(%rcx)
	movq	img, %rax
	movl	72660(%rax), %eax
	subl	$8, %eax
	shll	$1, %eax
	movq	img, %rcx
	movl	%eax, 72676(%rcx)
	movq	img, %rax
	movl	72660(%rax), %ecx
	subl	$1, %ecx
                                        # kill: def $cl killed $ecx
	movl	$1, %eax
	movl	$1, %edx
	shll	%cl, %edx
	movq	img, %rcx
	movl	%edx, 72680(%rcx)
	movq	img, %rcx
	movl	72660(%rcx), %ecx
                                        # kill: def $cl killed $ecx
	shll	%cl, %eax
	subl	$1, %eax
	movq	img, %rcx
	movl	%eax, 72684(%rcx)
	movq	img, %rax
	cmpl	$0, 72700(%rax)
	je	.LBB38_12
# %bb.5:                                # %if.then22
	movq	input, %rax
	movl	3300(%rax), %eax
	movq	img, %rcx
	movl	%eax, 72664(%rcx)
	movq	img, %rax
	movl	72664(%rax), %ecx
                                        # kill: def $cl killed $ecx
	movl	$1, %eax
	movl	$1, %edx
	shll	%cl, %edx
	subl	$1, %edx
	movq	img, %rcx
	movl	%edx, 72688(%rcx)
	movq	img, %rcx
	movl	72700(%rcx), %ecx
                                        # kill: def $cl killed $ecx
	shll	%cl, %eax
	andl	$-2, %eax
	movq	img, %rcx
	movl	%eax, 72692(%rcx)
	movq	img, %rax
	movl	72692(%rax), %eax
	shll	$1, %eax
	movq	img, %rcx
	movl	%eax, 72696(%rcx)
	movq	img, %rax
	cmpl	$1, 72700(%rax)
	movb	$1, %al
	je	.LBB38_7
# %bb.6:                                # %lor.rhs
	movq	img, %rax
	cmpl	$2, 72700(%rax)
	sete	%al
.LBB38_7:                               # %lor.end
	testb	$1, %al
	movl	$8, %eax
	movl	$16, %ecx
	cmovnel	%eax, %ecx
	movq	img, %rax
	movl	%ecx, 72708(%rax)
	movq	img, %rax
	cmpl	$3, 72700(%rax)
	movb	$1, %al
	je	.LBB38_9
# %bb.8:                                # %lor.rhs38
	movq	img, %rax
	cmpl	$2, 72700(%rax)
	sete	%al
.LBB38_9:                               # %lor.end41
	testb	$1, %al
	movl	$16, %eax
	movl	$8, %ecx
	cmovnel	%eax, %ecx
	movq	img, %rax
	movl	%ecx, 72712(%rax)
	movq	img, %rax
	movl	72664(%rax), %eax
	subl	$8, %eax
	imull	$6, %eax, %eax
	movq	img, %rcx
	movl	%eax, 72672(%rcx)
	movq	img, %rax
	cmpl	$0, 72724(%rax)
	je	.LBB38_11
# %bb.10:                               # %if.then46
	movq	img, %rax
	movl	72672(%rax), %ecx
	addl	$6, %ecx
	movl	%ecx, 72672(%rax)
.LBB38_11:                              # %if.end48
	movq	active_pps, %rax
	movl	212(%rax), %eax
	movq	img, %rcx
	movl	%eax, 72716(%rcx)
	movq	active_pps, %rax
	movl	216(%rax), %eax
	movq	img, %rcx
	movl	%eax, 72720(%rcx)
	jmp	.LBB38_13
.LBB38_12:                              # %if.else51
	movq	img, %rax
	movl	$0, 72664(%rax)
	movq	img, %rax
	movl	$0, 72688(%rax)
	movq	img, %rax
	movl	$0, 72692(%rax)
	movq	img, %rax
	movl	$0, 72696(%rax)
	movq	img, %rax
	movl	$0, 72708(%rax)
	movq	img, %rax
	movl	$0, 72712(%rax)
	movq	img, %rax
	movl	$0, 72672(%rax)
	movq	img, %rax
	movl	$0, 72672(%rax)
	movq	img, %rax
	movl	$0, 72716(%rax)
	movq	img, %rax
	movl	$0, 72720(%rax)
.LBB38_13:                              # %if.end64
	movq	active_sps, %rax
	movl	1132(%rax), %eax
	movq	img, %rcx
	movl	%eax, 32(%rcx)
	movq	active_sps, %rax
	cmpl	$0, 1148(%rax)
	je	.LBB38_15
# %bb.14:                               # %cond.true
	movq	active_sps, %rax
	movl	1132(%rax), %eax
	jmp	.LBB38_16
.LBB38_15:                              # %cond.false
	movq	active_sps, %rax
	movl	1132(%rax), %eax
	shll	$1, %eax
.LBB38_16:                              # %cond.end
	movq	img, %rcx
	movl	%eax, 36(%rcx)
	movq	input, %rax
	movl	36(%rax), %eax
	movq	img, %rcx
	movl	%eax, 72376(%rcx)
	movq	img, %rax
	movl	$0, 72636(%rax)
	movq	input, %rax
	vmovsd	2424(%rax), %xmm0       # xmm0 = mem[0],zero
	vcvtsd2ss	%xmm0, %xmm0, %xmm0
	movq	img, %rax
	vmovss	%xmm0, 48(%rax)
	movq	img, %rdi
	addq	$71920, %rdi            # imm = 0x118F0
	callq	get_mem_mv
	movq	img, %rdi
	addq	$71928, %rdi            # imm = 0x118F8
	callq	get_mem_mv
	movq	input, %rax
	cmpl	$0, 1256(%rax)
	je	.LBB38_18
# %bb.17:                               # %if.then74
	movq	img, %rdi
	addq	$71936, %rdi            # imm = 0x11900
	callq	get_mem_mv
	movq	img, %rdi
	addq	$71944, %rdi            # imm = 0x11908
	callq	get_mem_mv
.LBB38_18:                              # %if.end77
	movq	img, %rdi
	addq	$14136, %rdi            # imm = 0x3738
	callq	get_mem_ACcoeff
	movq	img, %rdi
	addq	$14144, %rdi            # imm = 0x3740
	callq	get_mem_DCcoeff
	movq	input, %rax
	cmpl	$0, 2884(%rax)
	je	.LBB38_22
# %bb.19:                               # %if.then81
	movabsq	$rddata_top_frame_mb, %rdi
	addq	$3232, %rdi             # imm = 0xCA0
	callq	get_mem_mv
	movabsq	$rddata_top_frame_mb, %rdi
	addq	$3240, %rdi             # imm = 0xCA8
	callq	get_mem_mv
	movabsq	$rddata_bot_frame_mb, %rdi
	addq	$3232, %rdi             # imm = 0xCA0
	callq	get_mem_mv
	movabsq	$rddata_bot_frame_mb, %rdi
	addq	$3240, %rdi             # imm = 0xCA8
	callq	get_mem_mv
	movabsq	$rddata_top_field_mb, %rdi
	addq	$3232, %rdi             # imm = 0xCA0
	callq	get_mem_mv
	movabsq	$rddata_top_field_mb, %rdi
	addq	$3240, %rdi             # imm = 0xCA8
	callq	get_mem_mv
	movabsq	$rddata_bot_field_mb, %rdi
	addq	$3232, %rdi             # imm = 0xCA0
	callq	get_mem_mv
	movabsq	$rddata_bot_field_mb, %rdi
	addq	$3240, %rdi             # imm = 0xCA8
	callq	get_mem_mv
	movq	input, %rax
	cmpl	$0, 1256(%rax)
	je	.LBB38_21
# %bb.20:                               # %if.then92
	movabsq	$rddata_top_frame_mb, %rdi
	addq	$3248, %rdi             # imm = 0xCB0
	callq	get_mem_mv
	movabsq	$rddata_top_frame_mb, %rdi
	addq	$3256, %rdi             # imm = 0xCB8
	callq	get_mem_mv
	movabsq	$rddata_bot_frame_mb, %rdi
	addq	$3248, %rdi             # imm = 0xCB0
	callq	get_mem_mv
	movabsq	$rddata_bot_frame_mb, %rdi
	addq	$3256, %rdi             # imm = 0xCB8
	callq	get_mem_mv
	movabsq	$rddata_top_field_mb, %rdi
	addq	$3248, %rdi             # imm = 0xCB0
	callq	get_mem_mv
	movabsq	$rddata_top_field_mb, %rdi
	addq	$3256, %rdi             # imm = 0xCB8
	callq	get_mem_mv
	movabsq	$rddata_bot_field_mb, %rdi
	addq	$3248, %rdi             # imm = 0xCB0
	callq	get_mem_mv
	movabsq	$rddata_bot_field_mb, %rdi
	addq	$3256, %rdi             # imm = 0xCB8
	callq	get_mem_mv
.LBB38_21:                              # %if.end101
	movabsq	$rddata_top_frame_mb, %rdi
	addq	$3080, %rdi             # imm = 0xC08
	callq	get_mem_ACcoeff
	movabsq	$rddata_top_frame_mb, %rdi
	addq	$3088, %rdi             # imm = 0xC10
	callq	get_mem_DCcoeff
	movabsq	$rddata_bot_frame_mb, %rdi
	addq	$3080, %rdi             # imm = 0xC08
	callq	get_mem_ACcoeff
	movabsq	$rddata_bot_frame_mb, %rdi
	addq	$3088, %rdi             # imm = 0xC10
	callq	get_mem_DCcoeff
	movabsq	$rddata_top_field_mb, %rdi
	addq	$3080, %rdi             # imm = 0xC08
	callq	get_mem_ACcoeff
	movabsq	$rddata_top_field_mb, %rdi
	addq	$3088, %rdi             # imm = 0xC10
	callq	get_mem_DCcoeff
	movabsq	$rddata_bot_field_mb, %rdi
	addq	$3080, %rdi             # imm = 0xC08
	callq	get_mem_ACcoeff
	movabsq	$rddata_bot_field_mb, %rdi
	addq	$3088, %rdi             # imm = 0xC10
	callq	get_mem_DCcoeff
.LBB38_22:                              # %if.end110
	movq	img, %rax
	movl	72684(%rax), %eax
	movq	img, %rcx
	cmpl	72688(%rcx), %eax
	jle	.LBB38_24
# %bb.23:                               # %if.then115
	movq	img, %rax
	movl	72684(%rax), %eax
	addl	$1, %eax
	shll	$1, %eax
	movl	%eax, -12(%rbp)
	jmp	.LBB38_25
.LBB38_24:                              # %if.else119
	movq	img, %rax
	movl	72688(%rax), %eax
	addl	$1, %eax
	shll	$1, %eax
	movl	%eax, -12(%rbp)
.LBB38_25:                              # %if.end123
	movslq	-12(%rbp), %rdi
	movl	$4, %esi
	callq	calloc
	movq	img, %rcx
	movq	%rax, 71776(%rcx)
	cmpq	$0, %rax
	jne	.LBB38_27
# %bb.26:                               # %if.then128
	movabsq	$.L.str, %rdi
	callq	no_mem_exit
.LBB38_27:                              # %if.end129
	movl	-12(%rbp), %eax
	cltd
	movl	$2, %ecx
	idivl	%ecx
	movq	img, %rcx
	movq	71776(%rcx), %rdx
	cltq
	shlq	$2, %rax
	addq	%rax, %rdx
	movq	%rdx, 71776(%rcx)
	movl	$0, -4(%rbp)
.LBB38_28:                              # %for.cond
                                        # =>This Inner Loop Header: Depth=1
	movl	-4(%rbp), %ecx
	movl	-12(%rbp), %eax
	cltd
	movl	$2, %esi
	idivl	%esi
	cmpl	%eax, %ecx
	jge	.LBB38_31
# %bb.29:                               # %for.body
                                        #   in Loop: Header=BB38_28 Depth=1
	xorl	%eax, %eax
	movl	-4(%rbp), %ecx
	imull	-4(%rbp), %ecx
	movq	img, %rdx
	movq	71776(%rdx), %rdx
	subl	-4(%rbp), %eax
	cltq
	movl	%ecx, (%rdx,%rax,4)
	movq	img, %rax
	movq	71776(%rax), %rax
	movslq	-4(%rbp), %rdx
	movl	%ecx, (%rax,%rdx,4)
# %bb.30:                               # %for.inc
                                        #   in Loop: Header=BB38_28 Depth=1
	movl	-4(%rbp), %eax
	addl	$1, %eax
	movl	%eax, -4(%rbp)
	jmp	.LBB38_28
.LBB38_31:                              # %for.end
	movq	input, %rax
	movl	64(%rax), %eax
	movq	img, %rcx
	addl	72728(%rcx), %eax
	movq	img, %rcx
	movl	%eax, 52(%rcx)
	movq	input, %rax
	movl	68(%rax), %eax
	movq	img, %rcx
	addl	72732(%rcx), %eax
	movq	img, %rcx
	movl	%eax, 60(%rcx)
	movq	img, %rax
	cmpl	$0, 72700(%rax)
	je	.LBB38_33
# %bb.32:                               # %if.then146
	movq	img, %rax
	movl	52(%rax), %ecx
	movq	img, %rax
	movslq	72700(%rax), %rsi
	movl	$16, %eax
	cltd
	idivl	init_img.mb_width_cr(,%rsi,4)
	movl	%eax, %esi
	movl	%ecx, %eax
	cltd
	idivl	%esi
	movq	img, %rcx
	movl	%eax, 56(%rcx)
	movq	img, %rax
	movl	60(%rax), %ecx
	movq	img, %rax
	movslq	72700(%rax), %rsi
	movl	$16, %eax
	cltd
	idivl	init_img.mb_height_cr(,%rsi,4)
	movl	%eax, %esi
	movl	%ecx, %eax
	cltd
	idivl	%esi
	movq	img, %rcx
	movl	%eax, 64(%rcx)
	movq	input, %rax
	movl	64(%rax), %ecx
	movq	img, %rax
	movslq	72700(%rax), %rsi
	movl	$16, %eax
	cltd
	idivl	init_img.mb_width_cr(,%rsi,4)
	movl	%eax, %esi
	movl	%ecx, %eax
	cltd
	idivl	%esi
	movq	input, %rcx
	movl	%eax, 3308(%rcx)
	movq	input, %rax
	movl	68(%rax), %ecx
	movq	img, %rax
	movslq	72700(%rax), %rsi
	movl	$16, %eax
	cltd
	idivl	init_img.mb_height_cr(,%rsi,4)
	movl	%eax, %esi
	movl	%ecx, %eax
	cltd
	idivl	%esi
	movq	input, %rcx
	movl	%eax, 3304(%rcx)
	jmp	.LBB38_34
.LBB38_33:                              # %if.else171
	movq	img, %rax
	movl	$0, 56(%rax)
	movq	img, %rax
	movl	$0, 64(%rax)
	movq	input, %rax
	movl	$0, 3308(%rax)
	movq	input, %rax
	movl	$0, 3304(%rax)
.LBB38_34:                              # %if.end176
	movq	img, %rax
	movl	64(%rax), %eax
	movq	img, %rcx
	movl	%eax, 68(%rcx)
	movq	input, %rax
	movl	64(%rax), %eax
	movq	img, %rcx
	addl	72728(%rcx), %eax
	cltd
	movl	$16, %ecx
	idivl	%ecx
	movq	img, %rdx
	movl	%eax, 72468(%rdx)
	movq	input, %rax
	movl	68(%rax), %eax
	movq	img, %rdx
	addl	72732(%rdx), %eax
	cltd
	idivl	%ecx
	movq	img, %rcx
	movl	%eax, 72476(%rcx)
	movq	img, %rax
	movl	72468(%rax), %eax
	movq	img, %rcx
	imull	72476(%rcx), %eax
	movq	img, %rcx
	movl	%eax, 72488(%rcx)
	movq	active_sps, %rax
	cmpl	$0, 1148(%rax)
	je	.LBB38_36
# %bb.35:                               # %cond.true191
	movq	img, %rax
	movl	72476(%rax), %eax
	jmp	.LBB38_37
.LBB38_36:                              # %cond.false193
	movq	img, %rax
	movl	72476(%rax), %eax
	shrl	$1, %eax
.LBB38_37:                              # %cond.end196
	movq	img, %rcx
	movl	%eax, 72472(%rcx)
	movq	img, %rax
	movl	72488(%rax), %edi
	movl	$632, %esi              # imm = 0x278
	callq	calloc
	movq	img, %rcx
	movq	%rax, 14168(%rcx)
	cmpq	$0, %rax
	jne	.LBB38_39
# %bb.38:                               # %if.then203
	movabsq	$.L.str.1, %rdi
	callq	no_mem_exit
.LBB38_39:                              # %if.end204
	movq	input, %rax
	cmpl	$0, 216(%rax)
	je	.LBB38_43
# %bb.40:                               # %if.then206
	movq	img, %rax
	movl	72488(%rax), %edi
	movl	$4, %esi
	callq	calloc
	movq	img, %rcx
	movq	%rax, 71784(%rcx)
	cmpq	$0, %rax
	jne	.LBB38_42
# %bb.41:                               # %if.then212
	movabsq	$.L.str.2, %rdi
	callq	no_mem_exit
.LBB38_42:                              # %if.end213
	jmp	.LBB38_43
.LBB38_43:                              # %if.end214
	movq	img, %rdi
	addq	$104, %rdi
	movq	img, %rax
	movl	52(%rax), %eax
	cltd
	movl	$4, %ecx
	idivl	%ecx
	movl	%eax, %esi
	movq	img, %rax
	movl	60(%rax), %eax
	cltd
	idivl	%ecx
	movl	%eax, %edx
	callq	get_mem2Dint
	movq	img, %rdi
	addq	$112, %rdi
	movq	img, %rax
	movl	52(%rax), %eax
	cltd
	movl	$4, %ecx
	idivl	%ecx
	movl	%eax, %esi
	movq	img, %rax
	movl	60(%rax), %eax
	cltd
	idivl	%ecx
	movl	%eax, %edx
	callq	get_mem2Dint
	movabsq	$rddata_top_frame_mb, %rdi
	addq	$3136, %rdi             # imm = 0xC40
	movq	img, %rax
	movl	52(%rax), %eax
	cltd
	movl	$4, %ecx
	idivl	%ecx
	movl	%eax, %esi
	movq	img, %rax
	movl	60(%rax), %eax
	cltd
	idivl	%ecx
	movl	%eax, %edx
	callq	get_mem2Dint
	movq	input, %rax
	cmpl	$0, 2884(%rax)
	je	.LBB38_45
# %bb.44:                               # %if.then232
	movabsq	$rddata_bot_frame_mb, %rdi
	addq	$3136, %rdi             # imm = 0xC40
	movq	img, %rax
	movl	52(%rax), %eax
	cltd
	movl	$4, %ecx
	idivl	%ecx
	movl	%eax, %esi
	movq	img, %rax
	movl	60(%rax), %eax
	cltd
	idivl	%ecx
	movl	%eax, %edx
	callq	get_mem2Dint
	movabsq	$rddata_top_field_mb, %rdi
	addq	$3136, %rdi             # imm = 0xC40
	movq	img, %rax
	movl	52(%rax), %eax
	cltd
	movl	$4, %ecx
	idivl	%ecx
	movl	%eax, %esi
	movq	img, %rax
	movl	60(%rax), %eax
	cltd
	idivl	%ecx
	movl	%eax, %edx
	callq	get_mem2Dint
	movabsq	$rddata_bot_field_mb, %rdi
	addq	$3136, %rdi             # imm = 0xC40
	movq	img, %rax
	movl	52(%rax), %eax
	cltd
	movl	$4, %ecx
	idivl	%ecx
	movl	%eax, %esi
	movq	img, %rax
	movl	60(%rax), %eax
	cltd
	idivl	%ecx
	movl	%eax, %edx
	callq	get_mem2Dint
.LBB38_45:                              # %if.end248
	movq	img, %rdi
	addq	$128, %rdi
	movq	img, %rax
	movl	72488(%rax), %esi
	movq	img, %rax
	movl	72692(%rax), %ecx
	addl	$4, %ecx
	movl	$4, %edx
	callq	get_mem3Dint
	callq	CAVLC_init
	movl	$0, -4(%rbp)
.LBB38_46:                              # %for.cond253
                                        # =>This Loop Header: Depth=1
                                        #     Child Loop BB38_48 Depth 2
	movl	-4(%rbp), %ecx
	movq	img, %rax
	movl	52(%rax), %eax
	cltd
	movl	$4, %esi
	idivl	%esi
	cmpl	%eax, %ecx
	jge	.LBB38_53
# %bb.47:                               # %for.body258
                                        #   in Loop: Header=BB38_46 Depth=1
	movl	$0, -8(%rbp)
.LBB38_48:                              # %for.cond259
                                        #   Parent Loop BB38_46 Depth=1
                                        # =>  This Inner Loop Header: Depth=2
	movl	-8(%rbp), %ecx
	movq	img, %rax
	movl	60(%rax), %eax
	cltd
	movl	$4, %esi
	idivl	%esi
	cmpl	%eax, %ecx
	jge	.LBB38_51
# %bb.49:                               # %for.body264
                                        #   in Loop: Header=BB38_48 Depth=2
	movq	img, %rax
	movq	104(%rax), %rax
	movslq	-4(%rbp), %rcx
	movq	(%rax,%rcx,8), %rax
	movslq	-8(%rbp), %rcx
	movl	$-1, (%rax,%rcx,4)
	movq	img, %rax
	movq	112(%rax), %rax
	movslq	-4(%rbp), %rcx
	movq	(%rax,%rcx,8), %rax
	movslq	-8(%rbp), %rcx
	movl	$-1, (%rax,%rcx,4)
# %bb.50:                               # %for.inc275
                                        #   in Loop: Header=BB38_48 Depth=2
	movl	-8(%rbp), %eax
	addl	$1, %eax
	movl	%eax, -8(%rbp)
	jmp	.LBB38_48
.LBB38_51:                              # %for.end277
                                        #   in Loop: Header=BB38_46 Depth=1
	jmp	.LBB38_52
.LBB38_52:                              # %for.inc278
                                        #   in Loop: Header=BB38_46 Depth=1
	movl	-4(%rbp), %eax
	addl	$1, %eax
	movl	%eax, -4(%rbp)
	jmp	.LBB38_46
.LBB38_53:                              # %for.end280
	movq	img, %rax
	movl	$0, 88(%rax)
	movq	img, %rax
	movl	52(%rax), %eax
	cltd
	movl	$16, %ecx
	idivl	%ecx
	movl	%eax, %edi
	movq	img, %rax
	movl	60(%rax), %eax
	cltd
	idivl	%ecx
	movq	input, %rcx
	movl	2920(%rcx), %edx
	movl	%eax, %esi
	callq	RandomIntraInit
	movb	$0, %al
	callq	InitSEIMessages
	movq	input, %rax
	cmpl	$0, 2924(%rax)
	je	.LBB38_55
# %bb.54:                               # %if.then286
	movq	input, %rax
	movl	2932(%rax), %ecx
	shll	$1, %ecx
	movl	%ecx, 2932(%rax)
	movq	input, %rax
	movl	2936(%rax), %ecx
	shll	$1, %ecx
	movl	%ecx, 2936(%rax)
	jmp	.LBB38_56
.LBB38_55:                              # %if.else289
	movq	input, %rax
	movl	$0, 2928(%rax)
	movq	input, %rax
	movl	$0, 2932(%rax)
	movq	input, %rax
	movl	$0, 2936(%rax)
.LBB38_56:                              # %if.end292
	cmpl	$1403925026, -16(%rbp)  # imm = 0x53AE3222
	jne	.LBB38_58
.LBB38_57:
	addq	$16, %rsp
	popq	%rbp
	.cfi_def_cfa %rsp, 8
	retq
.LBB38_58:                              # %func_exit
	.cfi_def_cfa %rbp, 16
	callq	detect_breach
	jmp	.LBB38_57
.Lfunc_end38:
	.size	init_img.14, .Lfunc_end38-init_img.14
	.cfi_endproc
                                        # -- End function
	.globl	decide_fld_frame.15     # -- Begin function decide_fld_frame.15
	.p2align	4, 0x90
	.type	decide_fld_frame.15,@function
decide_fld_frame.15:                    # @decide_fld_frame.15
	.cfi_startproc
# %bb.0:                                # %entry
	pushq	%rbp
	.cfi_def_cfa_offset 16
	.cfi_offset %rbp, -16
	movq	%rsp, %rbp
	.cfi_def_cfa_register %rbp
	pushq	%rbx
	subq	$56, %rsp
	.cfi_offset %rbx, -24
	movl	$1567081887, -20(%rbp)  # imm = 0x5D67C59F
	vmovss	%xmm0, -24(%rbp)
	vmovss	%xmm1, -28(%rbp)
	movl	%edi, -32(%rbp)
	movl	%esi, -16(%rbp)
	vmovsd	%xmm2, -40(%rbp)
	vcvtsi2sdl	-16(%rbp), %xmm0, %xmm0
	vmulsd	-40(%rbp), %xmm0, %xmm0
	vmovss	-24(%rbp), %xmm1        # xmm1 = mem[0],zero,zero,zero
	vcvtss2sd	%xmm1, %xmm0, %xmm1
	vaddsd	%xmm1, %xmm0, %xmm0
	vmovsd	%xmm0, -48(%rbp)
	vcvtsi2sdl	-32(%rbp), %xmm0, %xmm0
	vmulsd	-40(%rbp), %xmm0, %xmm0
	vmovss	-28(%rbp), %xmm1        # xmm1 = mem[0],zero,zero,zero
	vcvtss2sd	%xmm1, %xmm0, %xmm1
	vaddsd	%xmm1, %xmm0, %xmm0
	vmovsd	%xmm0, -56(%rbp)
	vmovsd	-56(%rbp), %xmm0        # xmm0 = mem[0],zero
	vucomisd	-48(%rbp), %xmm0
	jbe	.LBB39_2
# %bb.1:                                # %if.then
	movl	$0, -12(%rbp)
	jmp	.LBB39_3
.LBB39_2:                               # %if.else
	movl	$1, -12(%rbp)
.LBB39_3:                               # %return
	movl	-12(%rbp), %ebx
	cmpl	$1567081887, -20(%rbp)  # imm = 0x5D67C59F
	jne	.LBB39_5
.LBB39_4:
	movl	%ebx, %eax
	addq	$56, %rsp
	popq	%rbx
	popq	%rbp
	.cfi_def_cfa %rsp, 8
	retq
.LBB39_5:                               # %func_exit
	.cfi_def_cfa %rbp, 16
	callq	detect_breach
	jmp	.LBB39_4
.Lfunc_end39:
	.size	decide_fld_frame.15, .Lfunc_end39-decide_fld_frame.15
	.cfi_endproc
                                        # -- End function
	.globl	report_frame_statistic.16 # -- Begin function report_frame_statistic.16
	.p2align	4, 0x90
	.type	report_frame_statistic.16,@function
report_frame_statistic.16:              # @report_frame_statistic.16
	.cfi_startproc
# %bb.0:                                # %entry
	pushq	%rbp
	.cfi_def_cfa_offset 16
	.cfi_offset %rbp, -16
	movq	%rsp, %rbp
	.cfi_def_cfa_register %rbp
	pushq	%r15
	pushq	%r14
	pushq	%rbx
	subq	$1080, %rsp             # imm = 0x438
	.cfi_offset %rbx, -40
	.cfi_offset %r14, -32
	.cfi_offset %r15, -24
	movl	$1504474800, -44(%rbp)  # imm = 0x59AC76B0
	movq	$0, -32(%rbp)
	movabsq	$.L.str.4, %rdi
	movabsq	$.L.str.5, %rsi
	callq	fopen
	movq	%rax, -32(%rbp)
	cmpq	$0, %rax
	jne	.LBB40_5
# %bb.1:                                # %if.then
	movabsq	$.L.str.4, %rdi
	movabsq	$.L.str.6, %rsi
	callq	fopen
	movq	%rax, -32(%rbp)
	cmpq	$0, %rax
	jne	.LBB40_3
# %bb.2:                                # %if.then3
	movabsq	$errortext, %rdi
	movl	$300, %esi              # imm = 0x12C
	movabsq	$.L.str.7, %rdx
	movabsq	$.L.str.8, %rcx
	movb	$0, %al
	callq	snprintf
	movabsq	$errortext, %rdi
	movl	$500, %esi              # imm = 0x1F4
	callq	error
	jmp	.LBB40_4
.LBB40_3:                               # %if.else
	movq	-32(%rbp), %rdi
	movabsq	$.L.str.9, %rsi
	movb	$0, %al
	callq	fprintf
	movq	-32(%rbp), %rdi
	movabsq	$.L.str.10, %rsi
	movb	$0, %al
	callq	fprintf
	movq	-32(%rbp), %rdi
	movabsq	$.L.str.9, %rsi
	movb	$0, %al
	callq	fprintf
.LBB40_4:                               # %if.end
	jmp	.LBB40_8
.LBB40_5:                               # %if.else8
	movq	-32(%rbp), %rdi
	callq	fclose
	movabsq	$.L.str.4, %rdi
	movabsq	$.L.str.6, %rsi
	callq	fopen
	movq	%rax, -32(%rbp)
	cmpq	$0, %rax
	jne	.LBB40_7
# %bb.6:                                # %if.then12
	movabsq	$errortext, %rdi
	movl	$300, %esi              # imm = 0x12C
	movabsq	$.L.str.7, %rdx
	movabsq	$.L.str.8, %rcx
	movb	$0, %al
	callq	snprintf
	movabsq	$errortext, %rdi
	movl	$500, %esi              # imm = 0x1F4
	callq	error
.LBB40_7:                               # %if.end14
	jmp	.LBB40_8
.LBB40_8:                               # %if.end15
	cmpl	$0, frame_statistic_start
	je	.LBB40_10
# %bb.9:                                # %if.then16
	movq	-32(%rbp), %rdi
	movabsq	$.L.str.11, %rsi
	movb	$0, %al
	callq	fprintf
	movq	-32(%rbp), %rdi
	movabsq	$.L.str.9, %rsi
	movb	$0, %al
	callq	fprintf
.LBB40_10:                              # %if.end19
	movq	-32(%rbp), %rdi
	movabsq	$.L.str.12, %rsi
	movabsq	$.L.str.13, %rdx
	movabsq	$.L.str.14, %rcx
	movb	$0, %al
	callq	fprintf
	xorl	%edi, %edi
	callq	time
	movq	%rax, -56(%rbp)
	leaq	-56(%rbp), %rdi
	callq	time
	leaq	-56(%rbp), %rdi
	callq	localtime
	leaq	-1104(%rbp), %rdi
	movq	%rax, -64(%rbp)
	movq	-64(%rbp), %rcx
	movl	$1000, %esi             # imm = 0x3E8
	movabsq	$.L.str.15, %rdx
	callq	strftime
	leaq	-1104(%rbp), %rdx
	movq	-32(%rbp), %rdi
	movabsq	$.L.str.16, %rsi
	movb	$0, %al
	callq	fprintf
	leaq	-1104(%rbp), %rdi
	movq	-64(%rbp), %rcx
	movl	$1000, %esi             # imm = 0x3E8
	movabsq	$.L.str.17, %rdx
	callq	strftime
	leaq	-1104(%rbp), %rdx
	movq	-32(%rbp), %rdi
	movabsq	$.L.str.18, %rsi
	movb	$0, %al
	callq	fprintf
	movl	$0, -36(%rbp)
.LBB40_11:                              # %for.cond
                                        # =>This Inner Loop Header: Depth=1
	cmpl	$20, -36(%rbp)
	jge	.LBB40_17
# %bb.12:                               # %for.body
                                        #   in Loop: Header=BB40_11 Depth=1
	xorl	%r15d, %r15d
	movq	input, %r14
	addq	$224, %r14
	movl	-36(%rbp), %ebx
	movq	input, %rdi
	addq	$224, %rdi
	callq	strlen
	subq	$20, %rax
	cmpl	%eax, %r15d
	jle	.LBB40_14
# %bb.13:                               # %cond.true
                                        #   in Loop: Header=BB40_11 Depth=1
	xorl	%eax, %eax
	jmp	.LBB40_15
.LBB40_14:                              # %cond.false
                                        #   in Loop: Header=BB40_11 Depth=1
	movq	input, %rdi
	addq	$224, %rdi
	callq	strlen
	subq	$20, %rax
.LBB40_15:                              # %cond.end
                                        #   in Loop: Header=BB40_11 Depth=1
	addl	%eax, %ebx
	movslq	%ebx, %rax
	movb	(%r14,%rax), %al
	movslq	-36(%rbp), %rcx
	movb	%al, -96(%rbp,%rcx)
# %bb.16:                               # %for.inc
                                        #   in Loop: Header=BB40_11 Depth=1
	movl	-36(%rbp), %eax
	addl	$1, %eax
	movl	%eax, -36(%rbp)
	jmp	.LBB40_11
.LBB40_17:                              # %for.end
	leaq	-96(%rbp), %rdx
	movq	-32(%rbp), %rdi
	movabsq	$.L.str.19, %rsi
	movb	$0, %al
	callq	fprintf
	movq	-32(%rbp), %rdi
	movl	frame_no, %edx
	movabsq	$.L.str.20, %rsi
	movb	$0, %al
	callq	fprintf
	movq	-32(%rbp), %rdi
	movq	img, %rax
	movl	40(%rax), %edx
	movabsq	$.L.str.20, %rsi
	movb	$0, %al
	callq	fprintf
	movq	-32(%rbp), %rdi
	movq	input, %rax
	movl	2880(%rax), %edx
	movq	input, %rax
	movl	2884(%rax), %ecx
	movabsq	$.L.str.21, %rsi
	movb	$0, %al
	callq	fprintf
	movq	img, %rax
	cmpl	$0, 72464(%rax)
	jne	.LBB40_19
# %bb.18:                               # %if.then51
	movq	stats, %rax
	movl	704(%rax), %eax
	movl	%eax, -40(%rbp)
	jmp	.LBB40_20
.LBB40_19:                              # %if.else52
	movq	stats, %rax
	movl	20(%rax), %eax
	subl	report_frame_statistic.last_bit_ctr_n, %eax
	movl	%eax, -40(%rbp)
	movq	stats, %rax
	movl	20(%rax), %eax
	movl	%eax, report_frame_statistic.last_bit_ctr_n
.LBB40_20:                              # %if.end55
	movq	-32(%rbp), %rdi
	movl	-40(%rbp), %edx
	movabsq	$.L.str.22, %rsi
	movb	$0, %al
	callq	fprintf
	movq	-32(%rbp), %rdi
	movq	snr, %rax
	vmovss	(%rax), %xmm0           # xmm0 = mem[0],zero,zero,zero
	vcvtss2sd	%xmm0, %xmm0, %xmm0
	movq	snr, %rax
	vmovss	4(%rax), %xmm1          # xmm1 = mem[0],zero,zero,zero
	vcvtss2sd	%xmm1, %xmm0, %xmm1
	movq	snr, %rax
	vmovss	8(%rax), %xmm2          # xmm2 = mem[0],zero,zero,zero
	vcvtss2sd	%xmm2, %xmm0, %xmm2
	movabsq	$.L.str.23, %rsi
	movb	$3, %al
	callq	fprintf
	movq	-32(%rbp), %rdi
	movq	stats, %rax
	movl	884(%rax), %edx
	subl	report_frame_statistic.last_mode_use+156, %edx
	movabsq	$.L.str.24, %rsi
	movb	$0, %al
	callq	fprintf
	movq	-32(%rbp), %rdi
	movq	stats, %rax
	movl	900(%rax), %edx
	subl	report_frame_statistic.last_mode_use+172, %edx
	movabsq	$.L.str.24, %rsi
	movb	$0, %al
	callq	fprintf
	movq	-32(%rbp), %rdi
	movq	stats, %rax
	movl	888(%rax), %edx
	subl	report_frame_statistic.last_mode_use+160, %edx
	movabsq	$.L.str.24, %rsi
	movb	$0, %al
	callq	fprintf
	movq	-32(%rbp), %rdi
	movq	stats, %rax
	movl	672(%rax), %edx
	subl	report_frame_statistic.last_mode_chroma_use, %edx
	movabsq	$.L.str.24, %rsi
	movb	$0, %al
	callq	fprintf
	movq	-32(%rbp), %rdi
	movq	stats, %rax
	movl	676(%rax), %edx
	subl	report_frame_statistic.last_mode_chroma_use+4, %edx
	movabsq	$.L.str.24, %rsi
	movb	$0, %al
	callq	fprintf
	movq	-32(%rbp), %rdi
	movq	stats, %rax
	movl	680(%rax), %edx
	subl	report_frame_statistic.last_mode_chroma_use+8, %edx
	movabsq	$.L.str.24, %rsi
	movb	$0, %al
	callq	fprintf
	movq	-32(%rbp), %rdi
	movq	stats, %rax
	movl	684(%rax), %edx
	subl	report_frame_statistic.last_mode_chroma_use+12, %edx
	movabsq	$.L.str.24, %rsi
	movb	$0, %al
	callq	fprintf
	movq	-32(%rbp), %rdi
	movq	stats, %rax
	movl	764(%rax), %edx
	subl	report_frame_statistic.last_mode_use+36, %edx
	movabsq	$.L.str.24, %rsi
	movb	$0, %al
	callq	fprintf
	movq	-32(%rbp), %rdi
	movq	stats, %rax
	movl	780(%rax), %edx
	subl	report_frame_statistic.last_mode_use+52, %edx
	movabsq	$.L.str.24, %rsi
	movb	$0, %al
	callq	fprintf
	movq	-32(%rbp), %rdi
	movq	stats, %rax
	movl	768(%rax), %edx
	subl	report_frame_statistic.last_mode_use+40, %edx
	movabsq	$.L.str.24, %rsi
	movb	$0, %al
	callq	fprintf
	movq	-32(%rbp), %rdi
	movq	stats, %rax
	movl	728(%rax), %edx
	subl	report_frame_statistic.last_mode_use, %edx
	movabsq	$.L.str.24, %rsi
	movb	$0, %al
	callq	fprintf
	movq	-32(%rbp), %rdi
	movq	stats, %rax
	movl	732(%rax), %edx
	subl	report_frame_statistic.last_mode_use+4, %edx
	movabsq	$.L.str.24, %rsi
	movb	$0, %al
	callq	fprintf
	movq	-32(%rbp), %rdi
	movq	stats, %rax
	movl	736(%rax), %edx
	subl	report_frame_statistic.last_mode_use+8, %edx
	movabsq	$.L.str.24, %rsi
	movb	$0, %al
	callq	fprintf
	movq	-32(%rbp), %rdi
	movq	stats, %rax
	movl	740(%rax), %edx
	subl	report_frame_statistic.last_mode_use+12, %edx
	movabsq	$.L.str.24, %rsi
	movb	$0, %al
	callq	fprintf
	movq	-32(%rbp), %rdi
	movq	stats, %rax
	movl	76(%rax), %edx
	movabsq	$.L.str.24, %rsi
	movb	$0, %al
	callq	fprintf
	movq	-32(%rbp), %rdi
	movq	stats, %rax
	movl	376(%rax), %edx
	movabsq	$.L.str.24, %rsi
	movb	$0, %al
	callq	fprintf
	movq	-32(%rbp), %rdi
	movq	stats, %rax
	movl	80(%rax), %edx
	movabsq	$.L.str.24, %rsi
	movb	$0, %al
	callq	fprintf
	movq	-32(%rbp), %rdi
	movq	stats, %rax
	movl	380(%rax), %edx
	movabsq	$.L.str.24, %rsi
	movb	$0, %al
	callq	fprintf
	movq	-32(%rbp), %rdi
	movq	stats, %rax
	movl	84(%rax), %edx
	movabsq	$.L.str.24, %rsi
	movb	$0, %al
	callq	fprintf
	movq	-32(%rbp), %rdi
	movq	stats, %rax
	movl	384(%rax), %edx
	movabsq	$.L.str.24, %rsi
	movb	$0, %al
	callq	fprintf
	movq	-32(%rbp), %rdi
	movq	stats, %rax
	movl	760(%rax), %edx
	subl	report_frame_statistic.last_mode_use+32, %edx
	movabsq	$.L.str.24, %rsi
	movb	$0, %al
	callq	fprintf
	movq	-32(%rbp), %rdi
	movq	stats, %rax
	movl	744(%rax), %edx
	subl	report_frame_statistic.last_mode_use+16, %edx
	movabsq	$.L.str.24, %rsi
	movb	$0, %al
	callq	fprintf
	movq	-32(%rbp), %rdi
	movq	stats, %rax
	movl	88(%rax), %edx
	movabsq	$.L.str.24, %rsi
	movb	$0, %al
	callq	fprintf
	movq	-32(%rbp), %rdi
	movq	stats, %rax
	movl	388(%rax), %edx
	movabsq	$.L.str.24, %rsi
	movb	$0, %al
	callq	fprintf
	movq	-32(%rbp), %rdi
	movq	stats, %rax
	movl	748(%rax), %edx
	subl	report_frame_statistic.last_mode_use+20, %edx
	movabsq	$.L.str.24, %rsi
	movb	$0, %al
	callq	fprintf
	movq	-32(%rbp), %rdi
	movq	stats, %rax
	movl	752(%rax), %edx
	subl	report_frame_statistic.last_mode_use+24, %edx
	movabsq	$.L.str.24, %rsi
	movb	$0, %al
	callq	fprintf
	movq	-32(%rbp), %rdi
	movq	stats, %rax
	movl	756(%rax), %edx
	subl	report_frame_statistic.last_mode_use+28, %edx
	movabsq	$.L.str.24, %rsi
	movb	$0, %al
	callq	fprintf
	movq	-32(%rbp), %rdi
	movq	stats, %rax
	movl	824(%rax), %edx
	subl	report_frame_statistic.last_mode_use+96, %edx
	movabsq	$.L.str.24, %rsi
	movb	$0, %al
	callq	fprintf
	movq	-32(%rbp), %rdi
	movq	stats, %rax
	movl	840(%rax), %edx
	subl	report_frame_statistic.last_mode_use+112, %edx
	movabsq	$.L.str.24, %rsi
	movb	$0, %al
	callq	fprintf
	movq	-32(%rbp), %rdi
	movq	stats, %rax
	movl	828(%rax), %edx
	subl	report_frame_statistic.last_mode_use+100, %edx
	movabsq	$.L.str.24, %rsi
	movb	$0, %al
	callq	fprintf
	movq	-32(%rbp), %rdi
	movq	stats, %rax
	movl	788(%rax), %edx
	subl	report_frame_statistic.last_mode_use+60, %edx
	movabsq	$.L.str.24, %rsi
	movb	$0, %al
	callq	fprintf
	movq	-32(%rbp), %rdi
	movq	stats, %rax
	movl	792(%rax), %edx
	subl	report_frame_statistic.last_mode_use+64, %edx
	movabsq	$.L.str.24, %rsi
	movb	$0, %al
	callq	fprintf
	movq	-32(%rbp), %rdi
	movq	stats, %rax
	movl	796(%rax), %edx
	subl	report_frame_statistic.last_mode_use+68, %edx
	movabsq	$.L.str.24, %rsi
	movb	$0, %al
	callq	fprintf
	movq	-32(%rbp), %rdi
	movq	stats, %rax
	movl	800(%rax), %edx
	subl	report_frame_statistic.last_mode_use+72, %edx
	movabsq	$.L.str.24, %rsi
	movb	$0, %al
	callq	fprintf
	movq	-32(%rbp), %rdi
	movq	stats, %rax
	movl	132(%rax), %edx
	movabsq	$.L.str.24, %rsi
	movb	$0, %al
	callq	fprintf
	movq	-32(%rbp), %rdi
	movq	stats, %rax
	movl	432(%rax), %edx
	movabsq	$.L.str.24, %rsi
	movb	$0, %al
	callq	fprintf
	movq	-32(%rbp), %rdi
	movq	stats, %rax
	movl	136(%rax), %edx
	movabsq	$.L.str.24, %rsi
	movb	$0, %al
	callq	fprintf
	movq	-32(%rbp), %rdi
	movq	stats, %rax
	movl	436(%rax), %edx
	movabsq	$.L.str.24, %rsi
	movb	$0, %al
	callq	fprintf
	movq	-32(%rbp), %rdi
	movq	stats, %rax
	movl	140(%rax), %edx
	movabsq	$.L.str.24, %rsi
	movb	$0, %al
	callq	fprintf
	movq	-32(%rbp), %rdi
	movq	stats, %rax
	movl	440(%rax), %edx
	movabsq	$.L.str.24, %rsi
	movb	$0, %al
	callq	fprintf
	movq	-32(%rbp), %rdi
	movq	stats, %rax
	movl	144(%rax), %edx
	movabsq	$.L.str.24, %rsi
	movb	$0, %al
	callq	fprintf
	movq	-32(%rbp), %rdi
	movq	stats, %rax
	movl	444(%rax), %edx
	movabsq	$.L.str.24, %rsi
	movb	$0, %al
	callq	fprintf
	movq	-32(%rbp), %rdi
	movq	stats, %rax
	movl	820(%rax), %edx
	subl	report_frame_statistic.last_mode_use+92, %edx
	movabsq	$.L.str.24, %rsi
	movb	$0, %al
	callq	fprintf
	movq	-32(%rbp), %rdi
	movq	stats, %rax
	movl	40(%rax), %edx
	movq	stats, %rax
	addl	44(%rax), %edx
	movl	report_frame_statistic.last_b8_mode_0+8, %eax
	addl	report_frame_statistic.last_b8_mode_0+12, %eax
	subl	%eax, %edx
	movabsq	$.L.str.24, %rsi
	movb	$0, %al
	callq	fprintf
	movq	-32(%rbp), %rdi
	movq	stats, %rax
	movl	44(%rax), %edx
	subl	report_frame_statistic.last_b8_mode_0+12, %edx
	movabsq	$.L.str.24, %rsi
	movb	$0, %al
	callq	fprintf
	movq	-32(%rbp), %rdi
	movq	stats, %rax
	movl	40(%rax), %edx
	subl	report_frame_statistic.last_b8_mode_0+8, %edx
	movabsq	$.L.str.24, %rsi
	movb	$0, %al
	callq	fprintf
	movq	-32(%rbp), %rdi
	movq	stats, %rax
	movl	804(%rax), %edx
	subl	report_frame_statistic.last_mode_use+76, %edx
	movabsq	$.L.str.24, %rsi
	movb	$0, %al
	callq	fprintf
	movq	-32(%rbp), %rdi
	movq	stats, %rax
	movl	148(%rax), %edx
	movabsq	$.L.str.24, %rsi
	movb	$0, %al
	callq	fprintf
	movq	-32(%rbp), %rdi
	movq	stats, %rax
	movl	448(%rax), %edx
	movabsq	$.L.str.24, %rsi
	movb	$0, %al
	callq	fprintf
	movq	-32(%rbp), %rdi
	movq	stats, %rax
	movl	808(%rax), %edx
	subl	report_frame_statistic.last_mode_use+80, %edx
	movabsq	$.L.str.24, %rsi
	movb	$0, %al
	callq	fprintf
	movq	-32(%rbp), %rdi
	movq	stats, %rax
	movl	812(%rax), %edx
	subl	report_frame_statistic.last_mode_use+84, %edx
	movabsq	$.L.str.24, %rsi
	movb	$0, %al
	callq	fprintf
	movq	-32(%rbp), %rdi
	movq	stats, %rax
	movl	816(%rax), %edx
	subl	report_frame_statistic.last_mode_use+88, %edx
	movabsq	$.L.str.24, %rsi
	movb	$0, %al
	callq	fprintf
	movq	-32(%rbp), %rdi
	movabsq	$.L.str.25, %rsi
	movb	$0, %al
	callq	fprintf
	movq	stats, %rax
	movl	884(%rax), %eax
	movl	%eax, report_frame_statistic.last_mode_use+156
	movq	stats, %rax
	movl	900(%rax), %eax
	movl	%eax, report_frame_statistic.last_mode_use+172
	movq	stats, %rax
	movl	888(%rax), %eax
	movl	%eax, report_frame_statistic.last_mode_use+160
	movl	$0, -36(%rbp)
.LBB40_21:                              # %for.cond309
                                        # =>This Inner Loop Header: Depth=1
	cmpl	$15, -36(%rbp)
	jge	.LBB40_24
# %bb.22:                               # %for.body312
                                        #   in Loop: Header=BB40_21 Depth=1
	movq	stats, %rax
	movslq	-36(%rbp), %rcx
	movl	728(%rax,%rcx,4), %eax
	movslq	-36(%rbp), %rcx
	movl	%eax, report_frame_statistic.last_mode_use(,%rcx,4)
	movq	stats, %rax
	movslq	-36(%rbp), %rcx
	movl	788(%rax,%rcx,4), %eax
	movslq	-36(%rbp), %rcx
	movl	%eax, report_frame_statistic.last_mode_use+60(,%rcx,4)
	movq	stats, %rax
	movslq	-36(%rbp), %rcx
	movl	$0, 72(%rax,%rcx,4)
	movq	stats, %rax
	movslq	-36(%rbp), %rcx
	movl	$0, 132(%rax,%rcx,4)
	movq	stats, %rax
	movslq	-36(%rbp), %rcx
	movl	$0, 372(%rax,%rcx,4)
	movq	stats, %rax
	movslq	-36(%rbp), %rcx
	movl	$0, 432(%rax,%rcx,4)
# %bb.23:                               # %for.inc341
                                        #   in Loop: Header=BB40_21 Depth=1
	movl	-36(%rbp), %eax
	addl	$1, %eax
	movl	%eax, -36(%rbp)
	jmp	.LBB40_21
.LBB40_24:                              # %for.end343
	movq	stats, %rax
	movl	40(%rax), %eax
	movl	%eax, report_frame_statistic.last_b8_mode_0+8
	movq	stats, %rax
	movl	44(%rax), %eax
	movl	%eax, report_frame_statistic.last_b8_mode_0+12
	movl	$0, -36(%rbp)
.LBB40_25:                              # %for.cond350
                                        # =>This Inner Loop Header: Depth=1
	cmpl	$4, -36(%rbp)
	jge	.LBB40_28
# %bb.26:                               # %for.body353
                                        #   in Loop: Header=BB40_25 Depth=1
	movq	stats, %rax
	movslq	-36(%rbp), %rcx
	movl	672(%rax,%rcx,4), %eax
	movslq	-36(%rbp), %rcx
	movl	%eax, report_frame_statistic.last_mode_chroma_use(,%rcx,4)
# %bb.27:                               # %for.inc359
                                        #   in Loop: Header=BB40_25 Depth=1
	movl	-36(%rbp), %eax
	addl	$1, %eax
	movl	%eax, -36(%rbp)
	jmp	.LBB40_25
.LBB40_28:                              # %for.end361
	movl	$0, frame_statistic_start
	movq	-32(%rbp), %rdi
	callq	fclose
	cmpl	$1504474800, -44(%rbp)  # imm = 0x59AC76B0
	jne	.LBB40_30
.LBB40_29:
	addq	$1080, %rsp             # imm = 0x438
	popq	%rbx
	popq	%r14
	popq	%r15
	popq	%rbp
	.cfi_def_cfa %rsp, 8
	retq
.LBB40_30:                              # %func_exit
	.cfi_def_cfa %rbp, 16
	callq	detect_breach
	jmp	.LBB40_29
.Lfunc_end40:
	.size	report_frame_statistic.16, .Lfunc_end40-report_frame_statistic.16
	.cfi_endproc
                                        # -- End function
	.globl	CAVLC_init.17           # -- Begin function CAVLC_init.17
	.p2align	4, 0x90
	.type	CAVLC_init.17,@function
CAVLC_init.17:                          # @CAVLC_init.17
	.cfi_startproc
# %bb.0:                                # %entry
	pushq	%rbp
	.cfi_def_cfa_offset 16
	.cfi_offset %rbp, -16
	movq	%rsp, %rbp
	.cfi_def_cfa_register %rbp
	subq	$16, %rsp
	movl	$1272084398, -16(%rbp)  # imm = 0x4BD277AE
	movl	$0, -8(%rbp)
.LBB41_1:                               # %for.cond
                                        # =>This Loop Header: Depth=1
                                        #     Child Loop BB41_3 Depth 2
                                        #       Child Loop BB41_5 Depth 3
	movl	-8(%rbp), %eax
	movq	img, %rcx
	cmpl	72484(%rcx), %eax
	jae	.LBB41_12
# %bb.2:                                # %for.body
                                        #   in Loop: Header=BB41_1 Depth=1
	movl	$0, -12(%rbp)
.LBB41_3:                               # %for.cond1
                                        #   Parent Loop BB41_1 Depth=1
                                        # =>  This Loop Header: Depth=2
                                        #       Child Loop BB41_5 Depth 3
	cmpl	$4, -12(%rbp)
	jae	.LBB41_10
# %bb.4:                                # %for.body3
                                        #   in Loop: Header=BB41_3 Depth=2
	movl	$0, -4(%rbp)
.LBB41_5:                               # %for.cond4
                                        #   Parent Loop BB41_1 Depth=1
                                        #     Parent Loop BB41_3 Depth=2
                                        # =>    This Inner Loop Header: Depth=3
	movl	-4(%rbp), %eax
	movq	img, %rcx
	movl	72692(%rcx), %ecx
	addl	$4, %ecx
	cmpl	%ecx, %eax
	jae	.LBB41_8
# %bb.6:                                # %for.body6
                                        #   in Loop: Header=BB41_5 Depth=3
	movq	img, %rax
	movq	128(%rax), %rax
	movl	-8(%rbp), %ecx
	movq	(%rax,%rcx,8), %rax
	movl	-12(%rbp), %ecx
	movq	(%rax,%rcx,8), %rax
	movl	-4(%rbp), %ecx
	movl	$0, (%rax,%rcx,4)
# %bb.7:                                # %for.inc
                                        #   in Loop: Header=BB41_5 Depth=3
	movl	-4(%rbp), %eax
	addl	$1, %eax
	movl	%eax, -4(%rbp)
	jmp	.LBB41_5
.LBB41_8:                               # %for.end
                                        #   in Loop: Header=BB41_3 Depth=2
	jmp	.LBB41_9
.LBB41_9:                               # %for.inc11
                                        #   in Loop: Header=BB41_3 Depth=2
	movl	-12(%rbp), %eax
	addl	$1, %eax
	movl	%eax, -12(%rbp)
	jmp	.LBB41_3
.LBB41_10:                              # %for.end13
                                        #   in Loop: Header=BB41_1 Depth=1
	jmp	.LBB41_11
.LBB41_11:                              # %for.inc14
                                        #   in Loop: Header=BB41_1 Depth=1
	movl	-8(%rbp), %eax
	addl	$1, %eax
	movl	%eax, -8(%rbp)
	jmp	.LBB41_1
.LBB41_12:                              # %for.end16
	cmpl	$1272084398, -16(%rbp)  # imm = 0x4BD277AE
	jne	.LBB41_14
.LBB41_13:
	addq	$16, %rsp
	popq	%rbp
	.cfi_def_cfa %rsp, 8
	retq
.LBB41_14:                              # %func_exit
	.cfi_def_cfa %rbp, 16
	callq	detect_breach
	jmp	.LBB41_13
.Lfunc_end41:
	.size	CAVLC_init.17, .Lfunc_end41-CAVLC_init.17
	.cfi_endproc
                                        # -- End function
	.globl	CAVLC_init.18           # -- Begin function CAVLC_init.18
	.p2align	4, 0x90
	.type	CAVLC_init.18,@function
CAVLC_init.18:                          # @CAVLC_init.18
	.cfi_startproc
# %bb.0:                                # %entry
	pushq	%rbp
	.cfi_def_cfa_offset 16
	.cfi_offset %rbp, -16
	movq	%rsp, %rbp
	.cfi_def_cfa_register %rbp
	subq	$16, %rsp
	movl	$1022320319, -16(%rbp)  # imm = 0x3CEF5EBF
	movl	$0, -8(%rbp)
.LBB42_1:                               # %for.cond
                                        # =>This Loop Header: Depth=1
                                        #     Child Loop BB42_3 Depth 2
                                        #       Child Loop BB42_5 Depth 3
	movl	-8(%rbp), %eax
	movq	img, %rcx
	cmpl	72484(%rcx), %eax
	jae	.LBB42_12
# %bb.2:                                # %for.body
                                        #   in Loop: Header=BB42_1 Depth=1
	movl	$0, -4(%rbp)
.LBB42_3:                               # %for.cond1
                                        #   Parent Loop BB42_1 Depth=1
                                        # =>  This Loop Header: Depth=2
                                        #       Child Loop BB42_5 Depth 3
	cmpl	$4, -4(%rbp)
	jae	.LBB42_10
# %bb.4:                                # %for.body3
                                        #   in Loop: Header=BB42_3 Depth=2
	movl	$0, -12(%rbp)
.LBB42_5:                               # %for.cond4
                                        #   Parent Loop BB42_1 Depth=1
                                        #     Parent Loop BB42_3 Depth=2
                                        # =>    This Inner Loop Header: Depth=3
	movl	-12(%rbp), %eax
	movq	img, %rcx
	movl	72692(%rcx), %ecx
	addl	$4, %ecx
	cmpl	%ecx, %eax
	jae	.LBB42_8
# %bb.6:                                # %for.body6
                                        #   in Loop: Header=BB42_5 Depth=3
	movq	img, %rax
	movq	128(%rax), %rax
	movl	-8(%rbp), %ecx
	movq	(%rax,%rcx,8), %rax
	movl	-4(%rbp), %ecx
	movq	(%rax,%rcx,8), %rax
	movl	-12(%rbp), %ecx
	movl	$0, (%rax,%rcx,4)
# %bb.7:                                # %for.inc
                                        #   in Loop: Header=BB42_5 Depth=3
	movl	-12(%rbp), %eax
	addl	$1, %eax
	movl	%eax, -12(%rbp)
	jmp	.LBB42_5
.LBB42_8:                               # %for.end
                                        #   in Loop: Header=BB42_3 Depth=2
	jmp	.LBB42_9
.LBB42_9:                               # %for.inc11
                                        #   in Loop: Header=BB42_3 Depth=2
	movl	-4(%rbp), %eax
	addl	$1, %eax
	movl	%eax, -4(%rbp)
	jmp	.LBB42_3
.LBB42_10:                              # %for.end13
                                        #   in Loop: Header=BB42_1 Depth=1
	jmp	.LBB42_11
.LBB42_11:                              # %for.inc14
                                        #   in Loop: Header=BB42_1 Depth=1
	movl	-8(%rbp), %eax
	addl	$1, %eax
	movl	%eax, -8(%rbp)
	jmp	.LBB42_1
.LBB42_12:                              # %for.end16
	cmpl	$1022320319, -16(%rbp)  # imm = 0x3CEF5EBF
	jne	.LBB42_14
.LBB42_13:
	addq	$16, %rsp
	popq	%rbp
	.cfi_def_cfa %rsp, 8
	retq
.LBB42_14:                              # %func_exit
	.cfi_def_cfa %rbp, 16
	callq	detect_breach
	jmp	.LBB42_13
.Lfunc_end42:
	.size	CAVLC_init.18, .Lfunc_end42-CAVLC_init.18
	.cfi_endproc
                                        # -- End function
	.globl	get_mem_mv.19           # -- Begin function get_mem_mv.19
	.p2align	4, 0x90
	.type	get_mem_mv.19,@function
get_mem_mv.19:                          # @get_mem_mv.19
	.cfi_startproc
# %bb.0:                                # %entry
	pushq	%rbp
	.cfi_def_cfa_offset 16
	.cfi_offset %rbp, -16
	movq	%rsp, %rbp
	.cfi_def_cfa_register %rbp
	pushq	%rbx
	subq	$40, %rsp
	.cfi_offset %rbx, -24
	movl	$1807281052, -44(%rbp)  # imm = 0x6BB8EB9C
	movq	%rdi, -40(%rbp)
	movl	$4, %edi
	movl	$8, %esi
	callq	calloc
	movq	-40(%rbp), %rcx
	movq	%rax, (%rcx)
	cmpq	$0, %rax
	jne	.LBB43_2
# %bb.1:                                # %if.then
	movabsq	$.L.str.199, %rdi
	callq	no_mem_exit
.LBB43_2:                               # %if.end
	movl	$0, -12(%rbp)
.LBB43_3:                               # %for.cond
                                        # =>This Loop Header: Depth=1
                                        #     Child Loop BB43_7 Depth 2
                                        #       Child Loop BB43_11 Depth 3
                                        #         Child Loop BB43_15 Depth 4
                                        #           Child Loop BB43_19 Depth 5
	cmpl	$4, -12(%rbp)
	jge	.LBB43_32
# %bb.4:                                # %for.body
                                        #   in Loop: Header=BB43_3 Depth=1
	movl	$4, %edi
	movl	$8, %esi
	callq	calloc
	movq	-40(%rbp), %rcx
	movq	(%rcx), %rcx
	movslq	-12(%rbp), %rdx
	movq	%rax, (%rcx,%rdx,8)
	cmpq	$0, %rax
	jne	.LBB43_6
# %bb.5:                                # %if.then4
                                        #   in Loop: Header=BB43_3 Depth=1
	movabsq	$.L.str.199, %rdi
	callq	no_mem_exit
.LBB43_6:                               # %if.end5
                                        #   in Loop: Header=BB43_3 Depth=1
	movl	$0, -16(%rbp)
.LBB43_7:                               # %for.cond6
                                        #   Parent Loop BB43_3 Depth=1
                                        # =>  This Loop Header: Depth=2
                                        #       Child Loop BB43_11 Depth 3
                                        #         Child Loop BB43_15 Depth 4
                                        #           Child Loop BB43_19 Depth 5
	cmpl	$4, -16(%rbp)
	jge	.LBB43_30
# %bb.8:                                # %for.body8
                                        #   in Loop: Header=BB43_7 Depth=2
	movl	$2, %edi
	movl	$8, %esi
	callq	calloc
	movq	-40(%rbp), %rcx
	movq	(%rcx), %rcx
	movslq	-12(%rbp), %rdx
	movq	(%rcx,%rdx,8), %rcx
	movslq	-16(%rbp), %rdx
	movq	%rax, (%rcx,%rdx,8)
	cmpq	$0, %rax
	jne	.LBB43_10
# %bb.9:                                # %if.then15
                                        #   in Loop: Header=BB43_7 Depth=2
	movabsq	$.L.str.199, %rdi
	callq	no_mem_exit
.LBB43_10:                              # %if.end16
                                        #   in Loop: Header=BB43_7 Depth=2
	movl	$0, -20(%rbp)
.LBB43_11:                              # %for.cond17
                                        #   Parent Loop BB43_3 Depth=1
                                        #     Parent Loop BB43_7 Depth=2
                                        # =>    This Loop Header: Depth=3
                                        #         Child Loop BB43_15 Depth 4
                                        #           Child Loop BB43_19 Depth 5
	cmpl	$2, -20(%rbp)
	jge	.LBB43_28
# %bb.12:                               # %for.body19
                                        #   in Loop: Header=BB43_11 Depth=3
	movq	img, %rax
	movslq	36(%rax), %rdi
	movl	$8, %esi
	callq	calloc
	movq	-40(%rbp), %rcx
	movq	(%rcx), %rcx
	movslq	-12(%rbp), %rdx
	movq	(%rcx,%rdx,8), %rcx
	movslq	-16(%rbp), %rdx
	movq	(%rcx,%rdx,8), %rcx
	movslq	-20(%rbp), %rdx
	movq	%rax, (%rcx,%rdx,8)
	cmpq	$0, %rax
	jne	.LBB43_14
# %bb.13:                               # %if.then29
                                        #   in Loop: Header=BB43_11 Depth=3
	movabsq	$.L.str.199, %rdi
	callq	no_mem_exit
.LBB43_14:                              # %if.end30
                                        #   in Loop: Header=BB43_11 Depth=3
	movl	$0, -24(%rbp)
.LBB43_15:                              # %for.cond31
                                        #   Parent Loop BB43_3 Depth=1
                                        #     Parent Loop BB43_7 Depth=2
                                        #       Parent Loop BB43_11 Depth=3
                                        # =>      This Loop Header: Depth=4
                                        #           Child Loop BB43_19 Depth 5
	movl	-24(%rbp), %eax
	movq	img, %rcx
	cmpl	36(%rcx), %eax
	jge	.LBB43_26
# %bb.16:                               # %for.body35
                                        #   in Loop: Header=BB43_15 Depth=4
	movl	$9, %edi
	movl	$8, %esi
	callq	calloc
	movq	-40(%rbp), %rcx
	movq	(%rcx), %rcx
	movslq	-12(%rbp), %rdx
	movq	(%rcx,%rdx,8), %rcx
	movslq	-16(%rbp), %rdx
	movq	(%rcx,%rdx,8), %rcx
	movslq	-20(%rbp), %rdx
	movq	(%rcx,%rdx,8), %rcx
	movslq	-24(%rbp), %rdx
	movq	%rax, (%rcx,%rdx,8)
	cmpq	$0, %rax
	jne	.LBB43_18
# %bb.17:                               # %if.then47
                                        #   in Loop: Header=BB43_15 Depth=4
	movabsq	$.L.str.199, %rdi
	callq	no_mem_exit
.LBB43_18:                              # %if.end48
                                        #   in Loop: Header=BB43_15 Depth=4
	movl	$0, -28(%rbp)
.LBB43_19:                              # %for.cond49
                                        #   Parent Loop BB43_3 Depth=1
                                        #     Parent Loop BB43_7 Depth=2
                                        #       Parent Loop BB43_11 Depth=3
                                        #         Parent Loop BB43_15 Depth=4
                                        # =>        This Inner Loop Header: Depth=5
	cmpl	$9, -28(%rbp)
	jge	.LBB43_24
# %bb.20:                               # %for.body52
                                        #   in Loop: Header=BB43_19 Depth=5
	movl	$2, %edi
	movl	$2, %esi
	callq	calloc
	movq	-40(%rbp), %rcx
	movq	(%rcx), %rcx
	movslq	-12(%rbp), %rdx
	movq	(%rcx,%rdx,8), %rcx
	movslq	-16(%rbp), %rdx
	movq	(%rcx,%rdx,8), %rcx
	movslq	-20(%rbp), %rdx
	movq	(%rcx,%rdx,8), %rcx
	movslq	-24(%rbp), %rdx
	movq	(%rcx,%rdx,8), %rcx
	movslq	-28(%rbp), %rdx
	movq	%rax, (%rcx,%rdx,8)
	cmpq	$0, %rax
	jne	.LBB43_22
# %bb.21:                               # %if.then66
                                        #   in Loop: Header=BB43_19 Depth=5
	movabsq	$.L.str.199, %rdi
	callq	no_mem_exit
.LBB43_22:                              # %if.end67
                                        #   in Loop: Header=BB43_19 Depth=5
	jmp	.LBB43_23
.LBB43_23:                              # %for.inc
                                        #   in Loop: Header=BB43_19 Depth=5
	movl	-28(%rbp), %eax
	addl	$1, %eax
	movl	%eax, -28(%rbp)
	jmp	.LBB43_19
.LBB43_24:                              # %for.end
                                        #   in Loop: Header=BB43_15 Depth=4
	jmp	.LBB43_25
.LBB43_25:                              # %for.inc68
                                        #   in Loop: Header=BB43_15 Depth=4
	movl	-24(%rbp), %eax
	addl	$1, %eax
	movl	%eax, -24(%rbp)
	jmp	.LBB43_15
.LBB43_26:                              # %for.end70
                                        #   in Loop: Header=BB43_11 Depth=3
	jmp	.LBB43_27
.LBB43_27:                              # %for.inc71
                                        #   in Loop: Header=BB43_11 Depth=3
	movl	-20(%rbp), %eax
	addl	$1, %eax
	movl	%eax, -20(%rbp)
	jmp	.LBB43_11
.LBB43_28:                              # %for.end73
                                        #   in Loop: Header=BB43_7 Depth=2
	jmp	.LBB43_29
.LBB43_29:                              # %for.inc74
                                        #   in Loop: Header=BB43_7 Depth=2
	movl	-16(%rbp), %eax
	addl	$1, %eax
	movl	%eax, -16(%rbp)
	jmp	.LBB43_7
.LBB43_30:                              # %for.end76
                                        #   in Loop: Header=BB43_3 Depth=1
	jmp	.LBB43_31
.LBB43_31:                              # %for.inc77
                                        #   in Loop: Header=BB43_3 Depth=1
	movl	-12(%rbp), %eax
	addl	$1, %eax
	movl	%eax, -12(%rbp)
	jmp	.LBB43_3
.LBB43_32:                              # %for.end79
	movq	img, %rax
	movl	36(%rax), %eax
	shll	$4, %eax
	imull	$9, %eax, %eax
	shll	$1, %eax
	movslq	%eax, %rbx
	shlq	$1, %rbx
	cmpl	$1807281052, -44(%rbp)  # imm = 0x6BB8EB9C
	jne	.LBB43_34
.LBB43_33:
	movl	%ebx, %eax
	addq	$40, %rsp
	popq	%rbx
	popq	%rbp
	.cfi_def_cfa %rsp, 8
	retq
.LBB43_34:                              # %func_exit
	.cfi_def_cfa %rbp, 16
	callq	detect_breach
	jmp	.LBB43_33
.Lfunc_end43:
	.size	get_mem_mv.19, .Lfunc_end43-get_mem_mv.19
	.cfi_endproc
                                        # -- End function
	.globl	get_mem_mv.20           # -- Begin function get_mem_mv.20
	.p2align	4, 0x90
	.type	get_mem_mv.20,@function
get_mem_mv.20:                          # @get_mem_mv.20
	.cfi_startproc
# %bb.0:                                # %entry
	pushq	%rbp
	.cfi_def_cfa_offset 16
	.cfi_offset %rbp, -16
	movq	%rsp, %rbp
	.cfi_def_cfa_register %rbp
	pushq	%rbx
	subq	$40, %rsp
	.cfi_offset %rbx, -24
	movl	$1462886273, -44(%rbp)  # imm = 0x5731DF81
	movq	%rdi, -40(%rbp)
	movl	$4, %edi
	movl	$8, %esi
	callq	calloc
	movq	-40(%rbp), %rcx
	movq	%rax, (%rcx)
	cmpq	$0, %rax
	jne	.LBB44_2
# %bb.1:                                # %if.then
	movabsq	$.L.str.199, %rdi
	callq	no_mem_exit
.LBB44_2:                               # %if.end
	movl	$0, -12(%rbp)
.LBB44_3:                               # %for.cond
                                        # =>This Loop Header: Depth=1
                                        #     Child Loop BB44_7 Depth 2
                                        #       Child Loop BB44_11 Depth 3
                                        #         Child Loop BB44_15 Depth 4
                                        #           Child Loop BB44_19 Depth 5
	cmpl	$4, -12(%rbp)
	jge	.LBB44_32
# %bb.4:                                # %for.body
                                        #   in Loop: Header=BB44_3 Depth=1
	movl	$4, %edi
	movl	$8, %esi
	callq	calloc
	movq	-40(%rbp), %rcx
	movq	(%rcx), %rcx
	movslq	-12(%rbp), %rdx
	movq	%rax, (%rcx,%rdx,8)
	cmpq	$0, %rax
	jne	.LBB44_6
# %bb.5:                                # %if.then4
                                        #   in Loop: Header=BB44_3 Depth=1
	movabsq	$.L.str.199, %rdi
	callq	no_mem_exit
.LBB44_6:                               # %if.end5
                                        #   in Loop: Header=BB44_3 Depth=1
	movl	$0, -16(%rbp)
.LBB44_7:                               # %for.cond6
                                        #   Parent Loop BB44_3 Depth=1
                                        # =>  This Loop Header: Depth=2
                                        #       Child Loop BB44_11 Depth 3
                                        #         Child Loop BB44_15 Depth 4
                                        #           Child Loop BB44_19 Depth 5
	cmpl	$4, -16(%rbp)
	jge	.LBB44_30
# %bb.8:                                # %for.body8
                                        #   in Loop: Header=BB44_7 Depth=2
	movl	$2, %edi
	movl	$8, %esi
	callq	calloc
	movq	-40(%rbp), %rcx
	movq	(%rcx), %rcx
	movslq	-12(%rbp), %rdx
	movq	(%rcx,%rdx,8), %rcx
	movslq	-16(%rbp), %rdx
	movq	%rax, (%rcx,%rdx,8)
	cmpq	$0, %rax
	jne	.LBB44_10
# %bb.9:                                # %if.then15
                                        #   in Loop: Header=BB44_7 Depth=2
	movabsq	$.L.str.199, %rdi
	callq	no_mem_exit
.LBB44_10:                              # %if.end16
                                        #   in Loop: Header=BB44_7 Depth=2
	movl	$0, -20(%rbp)
.LBB44_11:                              # %for.cond17
                                        #   Parent Loop BB44_3 Depth=1
                                        #     Parent Loop BB44_7 Depth=2
                                        # =>    This Loop Header: Depth=3
                                        #         Child Loop BB44_15 Depth 4
                                        #           Child Loop BB44_19 Depth 5
	cmpl	$2, -20(%rbp)
	jge	.LBB44_28
# %bb.12:                               # %for.body19
                                        #   in Loop: Header=BB44_11 Depth=3
	movq	img, %rax
	movslq	36(%rax), %rdi
	movl	$8, %esi
	callq	calloc
	movq	-40(%rbp), %rcx
	movq	(%rcx), %rcx
	movslq	-12(%rbp), %rdx
	movq	(%rcx,%rdx,8), %rcx
	movslq	-16(%rbp), %rdx
	movq	(%rcx,%rdx,8), %rcx
	movslq	-20(%rbp), %rdx
	movq	%rax, (%rcx,%rdx,8)
	cmpq	$0, %rax
	jne	.LBB44_14
# %bb.13:                               # %if.then29
                                        #   in Loop: Header=BB44_11 Depth=3
	movabsq	$.L.str.199, %rdi
	callq	no_mem_exit
.LBB44_14:                              # %if.end30
                                        #   in Loop: Header=BB44_11 Depth=3
	movl	$0, -24(%rbp)
.LBB44_15:                              # %for.cond31
                                        #   Parent Loop BB44_3 Depth=1
                                        #     Parent Loop BB44_7 Depth=2
                                        #       Parent Loop BB44_11 Depth=3
                                        # =>      This Loop Header: Depth=4
                                        #           Child Loop BB44_19 Depth 5
	movl	-24(%rbp), %eax
	movq	img, %rcx
	cmpl	36(%rcx), %eax
	jge	.LBB44_26
# %bb.16:                               # %for.body35
                                        #   in Loop: Header=BB44_15 Depth=4
	movl	$9, %edi
	movl	$8, %esi
	callq	calloc
	movq	-40(%rbp), %rcx
	movq	(%rcx), %rcx
	movslq	-12(%rbp), %rdx
	movq	(%rcx,%rdx,8), %rcx
	movslq	-16(%rbp), %rdx
	movq	(%rcx,%rdx,8), %rcx
	movslq	-20(%rbp), %rdx
	movq	(%rcx,%rdx,8), %rcx
	movslq	-24(%rbp), %rdx
	movq	%rax, (%rcx,%rdx,8)
	cmpq	$0, %rax
	jne	.LBB44_18
# %bb.17:                               # %if.then47
                                        #   in Loop: Header=BB44_15 Depth=4
	movabsq	$.L.str.199, %rdi
	callq	no_mem_exit
.LBB44_18:                              # %if.end48
                                        #   in Loop: Header=BB44_15 Depth=4
	movl	$0, -28(%rbp)
.LBB44_19:                              # %for.cond49
                                        #   Parent Loop BB44_3 Depth=1
                                        #     Parent Loop BB44_7 Depth=2
                                        #       Parent Loop BB44_11 Depth=3
                                        #         Parent Loop BB44_15 Depth=4
                                        # =>        This Inner Loop Header: Depth=5
	cmpl	$9, -28(%rbp)
	jge	.LBB44_24
# %bb.20:                               # %for.body52
                                        #   in Loop: Header=BB44_19 Depth=5
	movl	$2, %edi
	movl	$2, %esi
	callq	calloc
	movq	-40(%rbp), %rcx
	movq	(%rcx), %rcx
	movslq	-12(%rbp), %rdx
	movq	(%rcx,%rdx,8), %rcx
	movslq	-16(%rbp), %rdx
	movq	(%rcx,%rdx,8), %rcx
	movslq	-20(%rbp), %rdx
	movq	(%rcx,%rdx,8), %rcx
	movslq	-24(%rbp), %rdx
	movq	(%rcx,%rdx,8), %rcx
	movslq	-28(%rbp), %rdx
	movq	%rax, (%rcx,%rdx,8)
	cmpq	$0, %rax
	jne	.LBB44_22
# %bb.21:                               # %if.then66
                                        #   in Loop: Header=BB44_19 Depth=5
	movabsq	$.L.str.199, %rdi
	callq	no_mem_exit
.LBB44_22:                              # %if.end67
                                        #   in Loop: Header=BB44_19 Depth=5
	jmp	.LBB44_23
.LBB44_23:                              # %for.inc
                                        #   in Loop: Header=BB44_19 Depth=5
	movl	-28(%rbp), %eax
	addl	$1, %eax
	movl	%eax, -28(%rbp)
	jmp	.LBB44_19
.LBB44_24:                              # %for.end
                                        #   in Loop: Header=BB44_15 Depth=4
	jmp	.LBB44_25
.LBB44_25:                              # %for.inc68
                                        #   in Loop: Header=BB44_15 Depth=4
	movl	-24(%rbp), %eax
	addl	$1, %eax
	movl	%eax, -24(%rbp)
	jmp	.LBB44_15
.LBB44_26:                              # %for.end70
                                        #   in Loop: Header=BB44_11 Depth=3
	jmp	.LBB44_27
.LBB44_27:                              # %for.inc71
                                        #   in Loop: Header=BB44_11 Depth=3
	movl	-20(%rbp), %eax
	addl	$1, %eax
	movl	%eax, -20(%rbp)
	jmp	.LBB44_11
.LBB44_28:                              # %for.end73
                                        #   in Loop: Header=BB44_7 Depth=2
	jmp	.LBB44_29
.LBB44_29:                              # %for.inc74
                                        #   in Loop: Header=BB44_7 Depth=2
	movl	-16(%rbp), %eax
	addl	$1, %eax
	movl	%eax, -16(%rbp)
	jmp	.LBB44_7
.LBB44_30:                              # %for.end76
                                        #   in Loop: Header=BB44_3 Depth=1
	jmp	.LBB44_31
.LBB44_31:                              # %for.inc77
                                        #   in Loop: Header=BB44_3 Depth=1
	movl	-12(%rbp), %eax
	addl	$1, %eax
	movl	%eax, -12(%rbp)
	jmp	.LBB44_3
.LBB44_32:                              # %for.end79
	movq	img, %rax
	movl	36(%rax), %eax
	shll	$4, %eax
	imull	$9, %eax, %eax
	shll	$1, %eax
	movslq	%eax, %rbx
	shlq	$1, %rbx
	cmpl	$1462886273, -44(%rbp)  # imm = 0x5731DF81
	jne	.LBB44_34
.LBB44_33:
	movl	%ebx, %eax
	addq	$40, %rsp
	popq	%rbx
	popq	%rbp
	.cfi_def_cfa %rsp, 8
	retq
.LBB44_34:                              # %func_exit
	.cfi_def_cfa %rbp, 16
	callq	detect_breach
	jmp	.LBB44_33
.Lfunc_end44:
	.size	get_mem_mv.20, .Lfunc_end44-get_mem_mv.20
	.cfi_endproc
                                        # -- End function
	.globl	free_mem_mv.21          # -- Begin function free_mem_mv.21
	.p2align	4, 0x90
	.type	free_mem_mv.21,@function
free_mem_mv.21:                         # @free_mem_mv.21
	.cfi_startproc
# %bb.0:                                # %entry
	pushq	%rbp
	.cfi_def_cfa_offset 16
	.cfi_offset %rbp, -16
	movq	%rsp, %rbp
	.cfi_def_cfa_register %rbp
	subq	$48, %rsp
	movl	$1929500896, -36(%rbp)  # imm = 0x7301D8E0
	movq	%rdi, -32(%rbp)
	movl	$0, -4(%rbp)
.LBB45_1:                               # %for.cond
                                        # =>This Loop Header: Depth=1
                                        #     Child Loop BB45_3 Depth 2
                                        #       Child Loop BB45_5 Depth 3
                                        #         Child Loop BB45_7 Depth 4
                                        #           Child Loop BB45_9 Depth 5
	cmpl	$4, -4(%rbp)
	jge	.LBB45_20
# %bb.2:                                # %for.body
                                        #   in Loop: Header=BB45_1 Depth=1
	movl	$0, -8(%rbp)
.LBB45_3:                               # %for.cond1
                                        #   Parent Loop BB45_1 Depth=1
                                        # =>  This Loop Header: Depth=2
                                        #       Child Loop BB45_5 Depth 3
                                        #         Child Loop BB45_7 Depth 4
                                        #           Child Loop BB45_9 Depth 5
	cmpl	$4, -8(%rbp)
	jge	.LBB45_18
# %bb.4:                                # %for.body3
                                        #   in Loop: Header=BB45_3 Depth=2
	movl	$0, -12(%rbp)
.LBB45_5:                               # %for.cond4
                                        #   Parent Loop BB45_1 Depth=1
                                        #     Parent Loop BB45_3 Depth=2
                                        # =>    This Loop Header: Depth=3
                                        #         Child Loop BB45_7 Depth 4
                                        #           Child Loop BB45_9 Depth 5
	cmpl	$2, -12(%rbp)
	jge	.LBB45_16
# %bb.6:                                # %for.body6
                                        #   in Loop: Header=BB45_5 Depth=3
	movl	$0, -16(%rbp)
.LBB45_7:                               # %for.cond7
                                        #   Parent Loop BB45_1 Depth=1
                                        #     Parent Loop BB45_3 Depth=2
                                        #       Parent Loop BB45_5 Depth=3
                                        # =>      This Loop Header: Depth=4
                                        #           Child Loop BB45_9 Depth 5
	movl	-16(%rbp), %eax
	movq	img, %rcx
	cmpl	36(%rcx), %eax
	jge	.LBB45_14
# %bb.8:                                # %for.body9
                                        #   in Loop: Header=BB45_7 Depth=4
	movl	$0, -20(%rbp)
.LBB45_9:                               # %for.cond10
                                        #   Parent Loop BB45_1 Depth=1
                                        #     Parent Loop BB45_3 Depth=2
                                        #       Parent Loop BB45_5 Depth=3
                                        #         Parent Loop BB45_7 Depth=4
                                        # =>        This Inner Loop Header: Depth=5
	cmpl	$9, -20(%rbp)
	jge	.LBB45_12
# %bb.10:                               # %for.body12
                                        #   in Loop: Header=BB45_9 Depth=5
	movq	-32(%rbp), %rax
	movslq	-4(%rbp), %rcx
	movq	(%rax,%rcx,8), %rax
	movslq	-8(%rbp), %rcx
	movq	(%rax,%rcx,8), %rax
	movslq	-12(%rbp), %rcx
	movq	(%rax,%rcx,8), %rax
	movslq	-16(%rbp), %rcx
	movq	(%rax,%rcx,8), %rax
	movslq	-20(%rbp), %rcx
	movq	(%rax,%rcx,8), %rdi
	callq	free
# %bb.11:                               # %for.inc
                                        #   in Loop: Header=BB45_9 Depth=5
	movl	-20(%rbp), %eax
	addl	$1, %eax
	movl	%eax, -20(%rbp)
	jmp	.LBB45_9
.LBB45_12:                              # %for.end
                                        #   in Loop: Header=BB45_7 Depth=4
	movq	-32(%rbp), %rax
	movslq	-4(%rbp), %rcx
	movq	(%rax,%rcx,8), %rax
	movslq	-8(%rbp), %rcx
	movq	(%rax,%rcx,8), %rax
	movslq	-12(%rbp), %rcx
	movq	(%rax,%rcx,8), %rax
	movslq	-16(%rbp), %rcx
	movq	(%rax,%rcx,8), %rdi
	callq	free
# %bb.13:                               # %for.inc29
                                        #   in Loop: Header=BB45_7 Depth=4
	movl	-16(%rbp), %eax
	addl	$1, %eax
	movl	%eax, -16(%rbp)
	jmp	.LBB45_7
.LBB45_14:                              # %for.end31
                                        #   in Loop: Header=BB45_5 Depth=3
	movq	-32(%rbp), %rax
	movslq	-4(%rbp), %rcx
	movq	(%rax,%rcx,8), %rax
	movslq	-8(%rbp), %rcx
	movq	(%rax,%rcx,8), %rax
	movslq	-12(%rbp), %rcx
	movq	(%rax,%rcx,8), %rdi
	callq	free
# %bb.15:                               # %for.inc38
                                        #   in Loop: Header=BB45_5 Depth=3
	movl	-12(%rbp), %eax
	addl	$1, %eax
	movl	%eax, -12(%rbp)
	jmp	.LBB45_5
.LBB45_16:                              # %for.end40
                                        #   in Loop: Header=BB45_3 Depth=2
	movq	-32(%rbp), %rax
	movslq	-4(%rbp), %rcx
	movq	(%rax,%rcx,8), %rax
	movslq	-8(%rbp), %rcx
	movq	(%rax,%rcx,8), %rdi
	callq	free
# %bb.17:                               # %for.inc45
                                        #   in Loop: Header=BB45_3 Depth=2
	movl	-8(%rbp), %eax
	addl	$1, %eax
	movl	%eax, -8(%rbp)
	jmp	.LBB45_3
.LBB45_18:                              # %for.end47
                                        #   in Loop: Header=BB45_1 Depth=1
	movq	-32(%rbp), %rax
	movslq	-4(%rbp), %rcx
	movq	(%rax,%rcx,8), %rdi
	callq	free
# %bb.19:                               # %for.inc50
                                        #   in Loop: Header=BB45_1 Depth=1
	movl	-4(%rbp), %eax
	addl	$1, %eax
	movl	%eax, -4(%rbp)
	jmp	.LBB45_1
.LBB45_20:                              # %for.end52
	movq	-32(%rbp), %rdi
	callq	free
	cmpl	$1929500896, -36(%rbp)  # imm = 0x7301D8E0
	jne	.LBB45_22
.LBB45_21:
	addq	$48, %rsp
	popq	%rbp
	.cfi_def_cfa %rsp, 8
	retq
.LBB45_22:                              # %func_exit
	.cfi_def_cfa %rbp, 16
	callq	detect_breach
	jmp	.LBB45_21
.Lfunc_end45:
	.size	free_mem_mv.21, .Lfunc_end45-free_mem_mv.21
	.cfi_endproc
                                        # -- End function
	.globl	free_mem_ACcoeff.22     # -- Begin function free_mem_ACcoeff.22
	.p2align	4, 0x90
	.type	free_mem_ACcoeff.22,@function
free_mem_ACcoeff.22:                    # @free_mem_ACcoeff.22
	.cfi_startproc
# %bb.0:                                # %entry
	pushq	%rbp
	.cfi_def_cfa_offset 16
	.cfi_offset %rbp, -16
	movq	%rsp, %rbp
	.cfi_def_cfa_register %rbp
	subq	$32, %rsp
	movl	$1646473716, -28(%rbp)  # imm = 0x622331F4
	movq	%rdi, -24(%rbp)
	movl	$0, -4(%rbp)
.LBB46_1:                               # %for.cond
                                        # =>This Loop Header: Depth=1
                                        #     Child Loop BB46_3 Depth 2
                                        #       Child Loop BB46_5 Depth 3
	movl	-4(%rbp), %eax
	movq	img, %rcx
	movl	72692(%rcx), %ecx
	addl	$4, %ecx
	cmpl	%ecx, %eax
	jge	.LBB46_12
# %bb.2:                                # %for.body
                                        #   in Loop: Header=BB46_1 Depth=1
	movl	$0, -8(%rbp)
.LBB46_3:                               # %for.cond1
                                        #   Parent Loop BB46_1 Depth=1
                                        # =>  This Loop Header: Depth=2
                                        #       Child Loop BB46_5 Depth 3
	cmpl	$4, -8(%rbp)
	jge	.LBB46_10
# %bb.4:                                # %for.body3
                                        #   in Loop: Header=BB46_3 Depth=2
	movl	$0, -12(%rbp)
.LBB46_5:                               # %for.cond4
                                        #   Parent Loop BB46_1 Depth=1
                                        #     Parent Loop BB46_3 Depth=2
                                        # =>    This Inner Loop Header: Depth=3
	cmpl	$2, -12(%rbp)
	jge	.LBB46_8
# %bb.6:                                # %for.body6
                                        #   in Loop: Header=BB46_5 Depth=3
	movq	-24(%rbp), %rax
	movslq	-4(%rbp), %rcx
	movq	(%rax,%rcx,8), %rax
	movslq	-8(%rbp), %rcx
	movq	(%rax,%rcx,8), %rax
	movslq	-12(%rbp), %rcx
	movq	(%rax,%rcx,8), %rdi
	callq	free
# %bb.7:                                # %for.inc
                                        #   in Loop: Header=BB46_5 Depth=3
	movl	-12(%rbp), %eax
	addl	$1, %eax
	movl	%eax, -12(%rbp)
	jmp	.LBB46_5
.LBB46_8:                               # %for.end
                                        #   in Loop: Header=BB46_3 Depth=2
	movq	-24(%rbp), %rax
	movslq	-4(%rbp), %rcx
	movq	(%rax,%rcx,8), %rax
	movslq	-8(%rbp), %rcx
	movq	(%rax,%rcx,8), %rdi
	callq	free
# %bb.9:                                # %for.inc15
                                        #   in Loop: Header=BB46_3 Depth=2
	movl	-8(%rbp), %eax
	addl	$1, %eax
	movl	%eax, -8(%rbp)
	jmp	.LBB46_3
.LBB46_10:                              # %for.end17
                                        #   in Loop: Header=BB46_1 Depth=1
	movq	-24(%rbp), %rax
	movslq	-4(%rbp), %rcx
	movq	(%rax,%rcx,8), %rdi
	callq	free
# %bb.11:                               # %for.inc20
                                        #   in Loop: Header=BB46_1 Depth=1
	movl	-4(%rbp), %eax
	addl	$1, %eax
	movl	%eax, -4(%rbp)
	jmp	.LBB46_1
.LBB46_12:                              # %for.end22
	movq	-24(%rbp), %rdi
	callq	free
	cmpl	$1646473716, -28(%rbp)  # imm = 0x622331F4
	jne	.LBB46_14
.LBB46_13:
	addq	$32, %rsp
	popq	%rbp
	.cfi_def_cfa %rsp, 8
	retq
.LBB46_14:                              # %func_exit
	.cfi_def_cfa %rbp, 16
	callq	detect_breach
	jmp	.LBB46_13
.Lfunc_end46:
	.size	free_mem_ACcoeff.22, .Lfunc_end46-free_mem_ACcoeff.22
	.cfi_endproc
                                        # -- End function
	.globl	decide_fld_frame.23     # -- Begin function decide_fld_frame.23
	.p2align	4, 0x90
	.type	decide_fld_frame.23,@function
decide_fld_frame.23:                    # @decide_fld_frame.23
	.cfi_startproc
# %bb.0:                                # %entry
	pushq	%rbp
	.cfi_def_cfa_offset 16
	.cfi_offset %rbp, -16
	movq	%rsp, %rbp
	.cfi_def_cfa_register %rbp
	pushq	%rbx
	subq	$56, %rsp
	.cfi_offset %rbx, -24
	movl	$319438438, -16(%rbp)   # imm = 0x130A3E66
	vmovss	%xmm0, -28(%rbp)
	vmovss	%xmm1, -32(%rbp)
	movl	%edi, -24(%rbp)
	movl	%esi, -20(%rbp)
	vmovsd	%xmm2, -40(%rbp)
	vcvtsi2sdl	-20(%rbp), %xmm0, %xmm0
	vmulsd	-40(%rbp), %xmm0, %xmm0
	vmovss	-28(%rbp), %xmm1        # xmm1 = mem[0],zero,zero,zero
	vcvtss2sd	%xmm1, %xmm0, %xmm1
	vaddsd	%xmm1, %xmm0, %xmm0
	vmovsd	%xmm0, -56(%rbp)
	vcvtsi2sdl	-24(%rbp), %xmm0, %xmm0
	vmulsd	-40(%rbp), %xmm0, %xmm0
	vmovss	-32(%rbp), %xmm1        # xmm1 = mem[0],zero,zero,zero
	vcvtss2sd	%xmm1, %xmm0, %xmm1
	vaddsd	%xmm1, %xmm0, %xmm0
	vmovsd	%xmm0, -48(%rbp)
	vmovsd	-48(%rbp), %xmm0        # xmm0 = mem[0],zero
	vucomisd	-56(%rbp), %xmm0
	jbe	.LBB47_2
# %bb.1:                                # %if.then
	movl	$0, -12(%rbp)
	jmp	.LBB47_3
.LBB47_2:                               # %if.else
	movl	$1, -12(%rbp)
.LBB47_3:                               # %return
	movl	-12(%rbp), %ebx
	cmpl	$319438438, -16(%rbp)   # imm = 0x130A3E66
	jne	.LBB47_5
.LBB47_4:
	movl	%ebx, %eax
	addq	$56, %rsp
	popq	%rbx
	popq	%rbp
	.cfi_def_cfa %rsp, 8
	retq
.LBB47_5:                               # %func_exit
	.cfi_def_cfa %rbp, 16
	callq	detect_breach
	jmp	.LBB47_4
.Lfunc_end47:
	.size	decide_fld_frame.23, .Lfunc_end47-decide_fld_frame.23
	.cfi_endproc
                                        # -- End function
	.globl	CAVLC_init.24           # -- Begin function CAVLC_init.24
	.p2align	4, 0x90
	.type	CAVLC_init.24,@function
CAVLC_init.24:                          # @CAVLC_init.24
	.cfi_startproc
# %bb.0:                                # %entry
	pushq	%rbp
	.cfi_def_cfa_offset 16
	.cfi_offset %rbp, -16
	movq	%rsp, %rbp
	.cfi_def_cfa_register %rbp
	subq	$16, %rsp
	movl	$669328609, -16(%rbp)   # imm = 0x27E524E1
	movl	$0, -4(%rbp)
.LBB48_1:                               # %for.cond
                                        # =>This Loop Header: Depth=1
                                        #     Child Loop BB48_3 Depth 2
                                        #       Child Loop BB48_5 Depth 3
	movl	-4(%rbp), %eax
	movq	img, %rcx
	cmpl	72484(%rcx), %eax
	jae	.LBB48_12
# %bb.2:                                # %for.body
                                        #   in Loop: Header=BB48_1 Depth=1
	movl	$0, -8(%rbp)
.LBB48_3:                               # %for.cond1
                                        #   Parent Loop BB48_1 Depth=1
                                        # =>  This Loop Header: Depth=2
                                        #       Child Loop BB48_5 Depth 3
	cmpl	$4, -8(%rbp)
	jae	.LBB48_10
# %bb.4:                                # %for.body3
                                        #   in Loop: Header=BB48_3 Depth=2
	movl	$0, -12(%rbp)
.LBB48_5:                               # %for.cond4
                                        #   Parent Loop BB48_1 Depth=1
                                        #     Parent Loop BB48_3 Depth=2
                                        # =>    This Inner Loop Header: Depth=3
	movl	-12(%rbp), %eax
	movq	img, %rcx
	movl	72692(%rcx), %ecx
	addl	$4, %ecx
	cmpl	%ecx, %eax
	jae	.LBB48_8
# %bb.6:                                # %for.body6
                                        #   in Loop: Header=BB48_5 Depth=3
	movq	img, %rax
	movq	128(%rax), %rax
	movl	-4(%rbp), %ecx
	movq	(%rax,%rcx,8), %rax
	movl	-8(%rbp), %ecx
	movq	(%rax,%rcx,8), %rax
	movl	-12(%rbp), %ecx
	movl	$0, (%rax,%rcx,4)
# %bb.7:                                # %for.inc
                                        #   in Loop: Header=BB48_5 Depth=3
	movl	-12(%rbp), %eax
	addl	$1, %eax
	movl	%eax, -12(%rbp)
	jmp	.LBB48_5
.LBB48_8:                               # %for.end
                                        #   in Loop: Header=BB48_3 Depth=2
	jmp	.LBB48_9
.LBB48_9:                               # %for.inc11
                                        #   in Loop: Header=BB48_3 Depth=2
	movl	-8(%rbp), %eax
	addl	$1, %eax
	movl	%eax, -8(%rbp)
	jmp	.LBB48_3
.LBB48_10:                              # %for.end13
                                        #   in Loop: Header=BB48_1 Depth=1
	jmp	.LBB48_11
.LBB48_11:                              # %for.inc14
                                        #   in Loop: Header=BB48_1 Depth=1
	movl	-4(%rbp), %eax
	addl	$1, %eax
	movl	%eax, -4(%rbp)
	jmp	.LBB48_1
.LBB48_12:                              # %for.end16
	cmpl	$669328609, -16(%rbp)   # imm = 0x27E524E1
	jne	.LBB48_14
.LBB48_13:
	addq	$16, %rsp
	popq	%rbp
	.cfi_def_cfa %rsp, 8
	retq
.LBB48_14:                              # %func_exit
	.cfi_def_cfa %rbp, 16
	callq	detect_breach
	jmp	.LBB48_13
.Lfunc_end48:
	.size	CAVLC_init.24, .Lfunc_end48-CAVLC_init.24
	.cfi_endproc
                                        # -- End function
	.globl	init_img.25             # -- Begin function init_img.25
	.p2align	4, 0x90
	.type	init_img.25,@function
init_img.25:                            # @init_img.25
	.cfi_startproc
# %bb.0:                                # %entry
	pushq	%rbp
	.cfi_def_cfa_offset 16
	.cfi_offset %rbp, -16
	movq	%rsp, %rbp
	.cfi_def_cfa_register %rbp
	subq	$16, %rsp
	movl	$1076140252, -16(%rbp)  # imm = 0x402498DC
	movq	input, %rax
	movl	72(%rax), %eax
	movq	img, %rcx
	movl	%eax, 72700(%rcx)
	movq	input, %rax
	movl	3296(%rax), %eax
	movq	img, %rcx
	movl	%eax, 72660(%rcx)
	movq	img, %rax
	movl	72660(%rax), %eax
	movq	img, %rcx
	cmpl	72664(%rcx), %eax
	jg	.LBB49_2
# %bb.1:                                # %lor.lhs.false
	movq	img, %rax
	cmpl	$0, 72700(%rax)
	jne	.LBB49_3
.LBB49_2:                               # %if.then
	movq	img, %rax
	movl	72660(%rax), %eax
	cmpl	$8, %eax
	movl	$16, %eax
	movl	$8, %ecx
	cmovgl	%eax, %ecx
	movq	img, %rax
	movl	%ecx, 72656(%rax)
	jmp	.LBB49_4
.LBB49_3:                               # %if.else
	movq	img, %rax
	movl	72664(%rax), %eax
	cmpl	$8, %eax
	movl	$16, %eax
	movl	$8, %ecx
	cmovgl	%eax, %ecx
	movq	img, %rax
	movl	%ecx, 72656(%rax)
.LBB49_4:                               # %if.end
	movq	img, %rax
	movl	72660(%rax), %eax
	subl	$8, %eax
	imull	$6, %eax, %eax
	movq	img, %rcx
	movl	%eax, 72668(%rcx)
	movq	img, %rax
	movl	72660(%rax), %eax
	subl	$8, %eax
	shll	$1, %eax
	movq	img, %rcx
	movl	%eax, 72676(%rcx)
	movq	img, %rax
	movl	72660(%rax), %ecx
	subl	$1, %ecx
                                        # kill: def $cl killed $ecx
	movl	$1, %eax
	movl	$1, %edx
	shll	%cl, %edx
	movq	img, %rcx
	movl	%edx, 72680(%rcx)
	movq	img, %rcx
	movl	72660(%rcx), %ecx
                                        # kill: def $cl killed $ecx
	shll	%cl, %eax
	subl	$1, %eax
	movq	img, %rcx
	movl	%eax, 72684(%rcx)
	movq	img, %rax
	cmpl	$0, 72700(%rax)
	je	.LBB49_12
# %bb.5:                                # %if.then22
	movq	input, %rax
	movl	3300(%rax), %eax
	movq	img, %rcx
	movl	%eax, 72664(%rcx)
	movq	img, %rax
	movl	72664(%rax), %ecx
                                        # kill: def $cl killed $ecx
	movl	$1, %eax
	movl	$1, %edx
	shll	%cl, %edx
	subl	$1, %edx
	movq	img, %rcx
	movl	%edx, 72688(%rcx)
	movq	img, %rcx
	movl	72700(%rcx), %ecx
                                        # kill: def $cl killed $ecx
	shll	%cl, %eax
	andl	$-2, %eax
	movq	img, %rcx
	movl	%eax, 72692(%rcx)
	movq	img, %rax
	movl	72692(%rax), %eax
	shll	$1, %eax
	movq	img, %rcx
	movl	%eax, 72696(%rcx)
	movq	img, %rax
	cmpl	$1, 72700(%rax)
	movb	$1, %al
	je	.LBB49_7
# %bb.6:                                # %lor.rhs
	movq	img, %rax
	cmpl	$2, 72700(%rax)
	sete	%al
.LBB49_7:                               # %lor.end
	testb	$1, %al
	movl	$8, %eax
	movl	$16, %ecx
	cmovnel	%eax, %ecx
	movq	img, %rax
	movl	%ecx, 72708(%rax)
	movq	img, %rax
	cmpl	$3, 72700(%rax)
	movb	$1, %al
	je	.LBB49_9
# %bb.8:                                # %lor.rhs38
	movq	img, %rax
	cmpl	$2, 72700(%rax)
	sete	%al
.LBB49_9:                               # %lor.end41
	testb	$1, %al
	movl	$16, %eax
	movl	$8, %ecx
	cmovnel	%eax, %ecx
	movq	img, %rax
	movl	%ecx, 72712(%rax)
	movq	img, %rax
	movl	72664(%rax), %eax
	subl	$8, %eax
	imull	$6, %eax, %eax
	movq	img, %rcx
	movl	%eax, 72672(%rcx)
	movq	img, %rax
	cmpl	$0, 72724(%rax)
	je	.LBB49_11
# %bb.10:                               # %if.then46
	movq	img, %rax
	movl	72672(%rax), %ecx
	addl	$6, %ecx
	movl	%ecx, 72672(%rax)
.LBB49_11:                              # %if.end48
	movq	active_pps, %rax
	movl	212(%rax), %eax
	movq	img, %rcx
	movl	%eax, 72716(%rcx)
	movq	active_pps, %rax
	movl	216(%rax), %eax
	movq	img, %rcx
	movl	%eax, 72720(%rcx)
	jmp	.LBB49_13
.LBB49_12:                              # %if.else51
	movq	img, %rax
	movl	$0, 72664(%rax)
	movq	img, %rax
	movl	$0, 72688(%rax)
	movq	img, %rax
	movl	$0, 72692(%rax)
	movq	img, %rax
	movl	$0, 72696(%rax)
	movq	img, %rax
	movl	$0, 72708(%rax)
	movq	img, %rax
	movl	$0, 72712(%rax)
	movq	img, %rax
	movl	$0, 72672(%rax)
	movq	img, %rax
	movl	$0, 72672(%rax)
	movq	img, %rax
	movl	$0, 72716(%rax)
	movq	img, %rax
	movl	$0, 72720(%rax)
.LBB49_13:                              # %if.end64
	movq	active_sps, %rax
	movl	1132(%rax), %eax
	movq	img, %rcx
	movl	%eax, 32(%rcx)
	movq	active_sps, %rax
	cmpl	$0, 1148(%rax)
	je	.LBB49_15
# %bb.14:                               # %cond.true
	movq	active_sps, %rax
	movl	1132(%rax), %eax
	jmp	.LBB49_16
.LBB49_15:                              # %cond.false
	movq	active_sps, %rax
	movl	1132(%rax), %eax
	shll	$1, %eax
.LBB49_16:                              # %cond.end
	movq	img, %rcx
	movl	%eax, 36(%rcx)
	movq	input, %rax
	movl	36(%rax), %eax
	movq	img, %rcx
	movl	%eax, 72376(%rcx)
	movq	img, %rax
	movl	$0, 72636(%rax)
	movq	input, %rax
	vmovsd	2424(%rax), %xmm0       # xmm0 = mem[0],zero
	vcvtsd2ss	%xmm0, %xmm0, %xmm0
	movq	img, %rax
	vmovss	%xmm0, 48(%rax)
	movq	img, %rdi
	addq	$71920, %rdi            # imm = 0x118F0
	callq	get_mem_mv
	movq	img, %rdi
	addq	$71928, %rdi            # imm = 0x118F8
	callq	get_mem_mv
	movq	input, %rax
	cmpl	$0, 1256(%rax)
	je	.LBB49_18
# %bb.17:                               # %if.then74
	movq	img, %rdi
	addq	$71936, %rdi            # imm = 0x11900
	callq	get_mem_mv
	movq	img, %rdi
	addq	$71944, %rdi            # imm = 0x11908
	callq	get_mem_mv
.LBB49_18:                              # %if.end77
	movq	img, %rdi
	addq	$14136, %rdi            # imm = 0x3738
	callq	get_mem_ACcoeff
	movq	img, %rdi
	addq	$14144, %rdi            # imm = 0x3740
	callq	get_mem_DCcoeff
	movq	input, %rax
	cmpl	$0, 2884(%rax)
	je	.LBB49_22
# %bb.19:                               # %if.then81
	movabsq	$rddata_top_frame_mb, %rdi
	addq	$3232, %rdi             # imm = 0xCA0
	callq	get_mem_mv
	movabsq	$rddata_top_frame_mb, %rdi
	addq	$3240, %rdi             # imm = 0xCA8
	callq	get_mem_mv
	movabsq	$rddata_bot_frame_mb, %rdi
	addq	$3232, %rdi             # imm = 0xCA0
	callq	get_mem_mv
	movabsq	$rddata_bot_frame_mb, %rdi
	addq	$3240, %rdi             # imm = 0xCA8
	callq	get_mem_mv
	movabsq	$rddata_top_field_mb, %rdi
	addq	$3232, %rdi             # imm = 0xCA0
	callq	get_mem_mv
	movabsq	$rddata_top_field_mb, %rdi
	addq	$3240, %rdi             # imm = 0xCA8
	callq	get_mem_mv
	movabsq	$rddata_bot_field_mb, %rdi
	addq	$3232, %rdi             # imm = 0xCA0
	callq	get_mem_mv
	movabsq	$rddata_bot_field_mb, %rdi
	addq	$3240, %rdi             # imm = 0xCA8
	callq	get_mem_mv
	movq	input, %rax
	cmpl	$0, 1256(%rax)
	je	.LBB49_21
# %bb.20:                               # %if.then92
	movabsq	$rddata_top_frame_mb, %rdi
	addq	$3248, %rdi             # imm = 0xCB0
	callq	get_mem_mv
	movabsq	$rddata_top_frame_mb, %rdi
	addq	$3256, %rdi             # imm = 0xCB8
	callq	get_mem_mv
	movabsq	$rddata_bot_frame_mb, %rdi
	addq	$3248, %rdi             # imm = 0xCB0
	callq	get_mem_mv
	movabsq	$rddata_bot_frame_mb, %rdi
	addq	$3256, %rdi             # imm = 0xCB8
	callq	get_mem_mv
	movabsq	$rddata_top_field_mb, %rdi
	addq	$3248, %rdi             # imm = 0xCB0
	callq	get_mem_mv
	movabsq	$rddata_top_field_mb, %rdi
	addq	$3256, %rdi             # imm = 0xCB8
	callq	get_mem_mv
	movabsq	$rddata_bot_field_mb, %rdi
	addq	$3248, %rdi             # imm = 0xCB0
	callq	get_mem_mv
	movabsq	$rddata_bot_field_mb, %rdi
	addq	$3256, %rdi             # imm = 0xCB8
	callq	get_mem_mv
.LBB49_21:                              # %if.end101
	movabsq	$rddata_top_frame_mb, %rdi
	addq	$3080, %rdi             # imm = 0xC08
	callq	get_mem_ACcoeff
	movabsq	$rddata_top_frame_mb, %rdi
	addq	$3088, %rdi             # imm = 0xC10
	callq	get_mem_DCcoeff
	movabsq	$rddata_bot_frame_mb, %rdi
	addq	$3080, %rdi             # imm = 0xC08
	callq	get_mem_ACcoeff
	movabsq	$rddata_bot_frame_mb, %rdi
	addq	$3088, %rdi             # imm = 0xC10
	callq	get_mem_DCcoeff
	movabsq	$rddata_top_field_mb, %rdi
	addq	$3080, %rdi             # imm = 0xC08
	callq	get_mem_ACcoeff
	movabsq	$rddata_top_field_mb, %rdi
	addq	$3088, %rdi             # imm = 0xC10
	callq	get_mem_DCcoeff
	movabsq	$rddata_bot_field_mb, %rdi
	addq	$3080, %rdi             # imm = 0xC08
	callq	get_mem_ACcoeff
	movabsq	$rddata_bot_field_mb, %rdi
	addq	$3088, %rdi             # imm = 0xC10
	callq	get_mem_DCcoeff
.LBB49_22:                              # %if.end110
	movq	img, %rax
	movl	72684(%rax), %eax
	movq	img, %rcx
	cmpl	72688(%rcx), %eax
	jle	.LBB49_24
# %bb.23:                               # %if.then115
	movq	img, %rax
	movl	72684(%rax), %eax
	addl	$1, %eax
	shll	$1, %eax
	movl	%eax, -12(%rbp)
	jmp	.LBB49_25
.LBB49_24:                              # %if.else119
	movq	img, %rax
	movl	72688(%rax), %eax
	addl	$1, %eax
	shll	$1, %eax
	movl	%eax, -12(%rbp)
.LBB49_25:                              # %if.end123
	movslq	-12(%rbp), %rdi
	movl	$4, %esi
	callq	calloc
	movq	img, %rcx
	movq	%rax, 71776(%rcx)
	cmpq	$0, %rax
	jne	.LBB49_27
# %bb.26:                               # %if.then128
	movabsq	$.L.str, %rdi
	callq	no_mem_exit
.LBB49_27:                              # %if.end129
	movl	-12(%rbp), %eax
	cltd
	movl	$2, %ecx
	idivl	%ecx
	movq	img, %rcx
	movq	71776(%rcx), %rdx
	cltq
	shlq	$2, %rax
	addq	%rax, %rdx
